
DSP_cfft_f32_benchmark_N.adx:     file format elf32-littleriscv
DSP_cfft_f32_benchmark_N.adx
architecture: riscv:rv32, flags 0x00000112:
EXEC_P, HAS_SYMS, D_PAGED
start address 0x20000000

Program Header:
    LOAD off    0x00001000 vaddr 0x20000000 paddr 0x20000000 align 2**12
         filesz 0x0000018a memsz 0x0000018a flags r-x
    LOAD off    0x00002000 vaddr 0x00000000 paddr 0x20000190 align 2**12
         filesz 0x000001bc memsz 0x000001bc flags rwx
    LOAD off    0x00002200 vaddr 0x00000200 paddr 0x20000350 align 2**12
         filesz 0x00006680 memsz 0x00006680 flags r-x
    LOAD off    0x00009000 vaddr 0x00080000 paddr 0x200069d0 align 2**12
         filesz 0x00001848 memsz 0x00001880 flags rw-
    LOAD off    0x0000a880 vaddr 0x00081880 paddr 0x20008218 align 2**12
         filesz 0x00000022 memsz 0x00000022 flags rw-
    LOAD off    0x0000b880 vaddr 0x00081880 paddr 0x20008250 align 2**12
         filesz 0x00000000 memsz 0x00000000 flags rw-
0x70000000 off    0x00027346 vaddr 0x00000000 paddr 0x00000000 align 2**0
         filesz 0x0000004a memsz 0x00000000 flags r--

Sections:
Idx Name          Size      VMA       LMA       File off  Algn
  0 .vectors      0000018a  20000000  20000000  00001000  2**2
                  CONTENTS, ALLOC, LOAD, READONLY, CODE
  1 .retention_reset 00000154  00000000  20000190  00002000  2**2
                  CONTENTS, ALLOC, LOAD, READONLY, CODE
  2 .retention_data 00000064  00000158  200002e8  00002158  2**2
                  CONTENTS, ALLOC, LOAD, DATA
  3 .ram_code     00006680  00000200  20000350  00002200  2**8
                  CONTENTS, ALLOC, LOAD, READONLY, CODE
  4 .data         00001848  00080000  200069d0  00009000  2**3
                  CONTENTS, ALLOC, LOAD, DATA
  5 .sbss         00000038  00081848  20008218  0000a848  2**2
                  ALLOC
  6 .bss          00000000  00081880  20008250  0000b880  2**2
                  ALLOC
  7 .sdk_version  00000022  00081880  20008218  0000a880  2**2
                  CONTENTS, ALLOC, LOAD, DATA
  8 .debug_info   00007001  00000000  00000000  0000a8a2  2**0
                  CONTENTS, READONLY, DEBUGGING
  9 .debug_abbrev 0000186d  00000000  00000000  000118a3  2**0
                  CONTENTS, READONLY, DEBUGGING
 10 .debug_loc    00009ed7  00000000  00000000  00013110  2**0
                  CONTENTS, READONLY, DEBUGGING
 11 .debug_aranges 000002d8  00000000  00000000  0001cfe8  2**3
                  CONTENTS, READONLY, DEBUGGING
 12 .debug_ranges 00001508  00000000  00000000  0001d2c0  2**3
                  CONTENTS, READONLY, DEBUGGING
 13 .debug_line   000059e6  00000000  00000000  0001e7c8  2**0
                  CONTENTS, READONLY, DEBUGGING
 14 .debug_str    00003125  00000000  00000000  000241ae  2**0
                  CONTENTS, READONLY, DEBUGGING
 15 .comment      00000073  00000000  00000000  000272d3  2**0
                  CONTENTS, READONLY
 16 .riscv.attributes 0000004a  00000000  00000000  00027346  2**0
                  CONTENTS, READONLY
 17 .debug_frame  000005b0  00000000  00000000  00027390  2**2
                  CONTENTS, READONLY, DEBUGGING
SYMBOL TABLE:
20000000 l    d  .vectors	00000000 .vectors
00000000 l    d  .retention_reset	00000000 .retention_reset
00000158 l    d  .retention_data	00000000 .retention_data
00000200 l    d  .ram_code	00000000 .ram_code
00080000 l    d  .data	00000000 .data
00081848 l    d  .sbss	00000000 .sbss
00081880 l    d  .bss	00000000 .bss
00081880 l    d  .sdk_version	00000000 .sdk_version
00000000 l    d  .debug_info	00000000 .debug_info
00000000 l    d  .debug_abbrev	00000000 .debug_abbrev
00000000 l    d  .debug_loc	00000000 .debug_loc
00000000 l    d  .debug_aranges	00000000 .debug_aranges
00000000 l    d  .debug_ranges	00000000 .debug_ranges
00000000 l    d  .debug_line	00000000 .debug_line
00000000 l    d  .debug_str	00000000 .debug_str
00000000 l    d  .comment	00000000 .comment
00000000 l    d  .riscv.attributes	00000000 .riscv.attributes
00000000 l    d  .debug_frame	00000000 .debug_frame
00000000 l    df *ABS*	00000000 ./boot/cstartup_flash.o
20000028 l       .vectors	00000000 _START
2000008e l       .vectors	00000000 _RETENTION_RESET_INIT
200000a6 l       .vectors	00000000 _RETENTION_RESET_BEGIN
200000b8 l       .vectors	00000000 _RETENTION_DATA_INIT
200000cc l       .vectors	00000000 _RETENTION_DATA_INIT_BEGIN
200000de l       .vectors	00000000 _RAMCODE_INIT
200000f6 l       .vectors	00000000 _RAMCODE_INIT_BEGIN
20000108 l       .vectors	00000000 _DATA_INIT
20000120 l       .vectors	00000000 _DATA_INIT_BEGIN
20000132 l       .vectors	00000000 _ZERO_BSS
20000146 l       .vectors	00000000 _ZERO_BSS_BEGIN
20000152 l       .vectors	00000000 _ZERO_AES
20000166 l       .vectors	00000000 _ZERO_AES_BEGIN
20000172 l       .vectors	00000000 _FILL_STK
20000172 l       .vectors	00000000 _MAIN_FUNC
20000188 l       .vectors	00000000 _END
00000022 l       .retention_reset	00000000 _ISTART
0000002a l       .retention_reset	00000000 _ISWS_USB_DIS
00000088 l       .retention_reset	00000000 _WAKEUP_FLASH
000000a2 l       .retention_reset	00000000 _MSPI_WAIT
000000bc l       .retention_reset	00000000 _WAIT_EFUSE_LOAD_AND_FLASH_WAKEUP_FINISH
000000c2 l       .retention_reset	00000000 _MULTI_ADDRESS_BEGIN
000000d2 l       .retention_reset	00000000 _IZERO_BSS
000000e6 l       .retention_reset	00000000 _IZERO_BSS_BEGIN
000000f2 l       .retention_reset	00000000 _IZERO_AES
00000106 l       .retention_reset	00000000 _IZERO_AES_BEGIN
00000112 l       .retention_reset	00000000 _IFILL_STK
00000112 l       .retention_reset	00000000 _IDATA_INIT
0000012a l       .retention_reset	00000000 _IDATA_INIT_BEGIN
0000013c l       .retention_reset	00000000 _IMAIN_FUNC
00000152 l       .retention_reset	00000000 _IEND
00000040 l       *ABS*	00000000 irqno
00000000 l    df *ABS*	00000000 
00000200 l     F .ram_code	00000024 delay_ms
00000224 l     F .ram_code	00000020 delay_ms.constprop.12
0000130c l     F .ram_code	000000fc user_calib_adc_vref.constprop.9
00000244 l     F .ram_code	00000044 flash_send_addr
00000288 l     F .ram_code	00000048 flash_send_cmd
000002d0 l     F .ram_code	00000060 clock_set_32k_tick
00000330 l     F .ram_code	0000004c analog_read_reg32.constprop.4
0000037c l     F .ram_code	00000024 clock_get_32k_tick
000003a0 l     F .ram_code	00000094 pm_stimer_recover
00000434 l     F .ram_code	00000058 plic_exit_critical_sec
0000048c l     F .ram_code	00000060 plic_enter_critical_sec
000004ec l     F .ram_code	00000180 flash_mspi_read_ram
00001104 l     F .ram_code	00000028 flash_read_uid.constprop.6
0000112c l     F .ram_code	00000028 flash_read_mid
00001154 l     F .ram_code	00000168 flash_read_mid_uid_with_check
0000066c l     F .ram_code	0000014c flash_mspi_read_ram.constprop.7
000012bc l     F .ram_code	00000020 flash_dread
000007b8 l     F .ram_code	00000044 analog_write_reg8
000007fc l     F .ram_code	0000004c analog_read_reg8
00000848 l     F .ram_code	00000140 clock_init_ram.constprop.11
000012dc l     F .ram_code	00000018 clock_init.constprop.10
00001408 l     F .ram_code	00000054 user_calib_freq_offset.constprop.8
00000988 l     F .ram_code	000000b4 pm_wait_bbpll_done
00000a3c l     F .ram_code	00000194 pm_sleep_start
00001460 l     F .ram_code	00000018 gpio_input_dis
00000bd0 l     F .ram_code	00000308 pm_sleep_wakeup_ram.constprop.3
000012f4 l     F .ram_code	00000016 pm_sleep_wakeup.constprop.2
00000158 l     O .retention_data	00000004 flash_read_page
0000015c l     O .retention_data	00000001 g_pm_long_suspend
00000160 l     O .retention_data	00000004 g_pm_tick_cur
00000164 l     O .retention_data	00000029 pmcd
00000190 l     O .retention_data	00000004 g_pm_tick_32k_calib
00000194 l     O .retention_data	00000001 g_plic_preempt_en
00000198 l     O .retention_data	00000002 s_flash_preempt_config
0000019a l     O .retention_data	00000001 g_pm_suspend_power_cfg
0000019c l     O .retention_data	00000008 g_pm_early_wakeup_time_us
000001a4 l     O .retention_data	00000004 g_pm_tick_32k_cur
000001a8 l     O .retention_data	00000001 g_pm_tick_update_en
000001ac l     O .retention_data	00000004 g_pm_r_delay_cycle
000001b0 l     O .retention_data	00000008 g_pm_longsleep_early_wakeup_time_us
00081848 l     O .sbss	00000004 exception_mcause
0008184c l     O .sbss	00000004 exception_mdcause
00081850 l     O .sbss	00000004 exception_mepc
00081854 l     O .sbss	00000004 exception_mstatus
00081858 l     O .sbss	00000004 exception_mtval
0008185c l     O .sbss	00000004 g_chip_version
00081860 l     O .sbss	00000004 g_pm_status_info
0008183c l     O .data	00000006 sys_clk
00081880 l     O .sdk_version	00000022 sdk_version
00000000 l    df *ABS*	00000000 riscv_dsp_cfft_f32.c
00000000 l    df *ABS*	00000000 riscv_dsp_cfft_rd2_f32.c
00000000 l    df *ABS*	00000000 riscv_dsp_cfft_rd4_f32.c
00000000 l    df *ABS*	00000000 riscv_dsp_cmag_f32.c
00000000 l    df *ABS*	00000000 log.c
00000000 l    df *ABS*	00000000 math_err.c
00002e04 l     F .ram_code	00000006 with_errno
00000000 l    df *ABS*	00000000 sinf.c
00000000 l    df *ABS*	00000000 ref_rredf.c
00081700 l     O .data	00000020 twooverpi.0
00000000 l    df *ABS*	00000000 adddf3.c
00000000 l    df *ABS*	00000000 divdf3.c
00000000 l    df *ABS*	00000000 gedf2.c
00000000 l    df *ABS*	00000000 muldf3.c
00000000 l    df *ABS*	00000000 subdf3.c
00000000 l    df *ABS*	00000000 unorddf2.c
00000000 l    df *ABS*	00000000 fixdfsi.c
00000000 l    df *ABS*	00000000 floatsidf.c
00000000 l    df *ABS*	00000000 extendsfdf2.c
00000000 l    df *ABS*	00000000 truncdfsf2.c
00000000 l    df *ABS*	00000000 malloc.c
00000000 l    df *ABS*	00000000 nano-mallocr.c
00000000 l    df *ABS*	00000000 nano-mallocr.c
00000000 l    df *ABS*	00000000 printf.c
00000000 l    df *ABS*	00000000 putchar.c
00000000 l    df *ABS*	00000000 vprintf.c
00005c62 l     F .ram_code	00000038 __vprintf_help
00081870 l     O .sbss	00000004 __vprintf_buf_len
00081874 l     O .sbss	00000004 __vprintf_buf
00000000 l    df *ABS*	00000000 printf_impl.c
00000000 l    df *ABS*	00000000 printf_impl_float.c
00000000 l    df *ABS*	00000000 strnlen.c
00000000 l    df *ABS*	00000000 _sbrk.c
0008187c l     O .sbss	00000004 heap_end.0
00000000 l    df *ABS*	00000000 libgcc2.c
00000000 l    df *ABS*	00000000 libgcc2.c
00000000 l    df *ABS*	00000000 riscv_dsp_cos_table_f32_1024.c
00000000 l    df *ABS*	00000000 log_data.c
00000000 l    df *ABS*	00000000 printf_data.c
00000000 l    df *ABS*	00000000 impure.c
00081880 l     O .bss	00000000 impure_data
00005c3c g     F .ram_code	00000026 putchar
00001c50  w      .ram_code	00000000 entry_irq55
00001c50  w      .ram_code	00000000 entry_irq13
00006624 g     F .ram_code	00000036 strcpy
00001c50  w      .ram_code	00000000 entry_irq15
00006758 g     F .ram_code	0000002e .hidden __ashldi3
00001c50  w      .ram_code	00000000 entry_irq27
000029a4 g     F .ram_code	0000045e log
00001c50  w      .ram_code	00000000 entry_irq60
00001c50  w      .ram_code	00000000 entry_irq1
00001c50  w      .ram_code	00000000 entry_irq52
00001c50  w      .ram_code	00000000 entry_irq50
00001c50  w      .ram_code	00000000 entry_irq62
00005c1e g     F .ram_code	0000001e printf
00080800 g       .data	00000000 __global_pointer$
00005a0c g       .ram_code	00000000 .hidden __riscv_save_8
00001c50  w      .ram_code	00000000 entry_irq58
00005a58 g       .ram_code	00000000 .hidden __riscv_restore_3
00002e0a g     F .ram_code	0000003e .hidden __math_divzero
000001bc g       .retention_data	00000000 _RETENTION_DATA_VMA_END
00005a44 g       .ram_code	00000000 .hidden __riscv_restore_10
00005a0c g       .ram_code	00000000 .hidden __riscv_save_11
00004328 g     F .ram_code	000000c6 .hidden __gtdf2
00005ce2 g     F .ram_code	00000046 __print_integral
00005d28 g     F .ram_code	00000458 __printf_impl_lite
00000000 g       .retention_reset	00000000 _RETENTION_RESET_VMA_START
00001c50  w      .ram_code	00000000 entry_irq10
00001c50  w      .ram_code	00000000 entry_irq21
00000158 g       .retention_data	00000000 _AES_VMA_START
00003010 g     F .ram_code	00000146 ref__mathlib_rredf2
00001c50  w      .ram_code	00000000 entry_irq48
00005a58 g       .ram_code	00000000 .hidden __riscv_restore_2
00001c50  w      .ram_code	00000000 entry_irq8
00001c50  w      .ram_code	00000000 entry_irq33
00081880 g       .bss	00000000 _BSS_VMA_END
00005a74 g     F .ram_code	00000070 memcpy
20000190 g       *ABS*	00000000 _RETENTION_RESET_LMA_START
00002e48 g     F .ram_code	00000040 .hidden __math_invalid
00005578 g     F .ram_code	0000007a .hidden __floatsidf
00080000 g     O .data	0000001c cst_libm_sincosf
00005d28 g     F .ram_code	00000458 __printf_impl
00001c50  w      .ram_code	00000000 entry_irq12
00005a64 g     F .ram_code	00000008 malloc
00001c50  w      .ram_code	00000000 entry_irq14
00005a04 g       .ram_code	00000000 .hidden __riscv_save_12
00001c50  w      .ram_code	00000000 entry_irq2
00001c50  w      .ram_code	00000000 entry_irq51
00005a44 g       .ram_code	00000000 .hidden __riscv_restore_11
00001c50  w      .ram_code	00000000 entry_irq28
00001c50  w      .ram_code	00000000 entry_irq43
00005a34 g       .ram_code	00000000 .hidden __riscv_save_1
00005a58 g       .ram_code	00000000 .hidden __riscv_restore_0
00001c50  w      .ram_code	00000000 entry_irq20
00005a1a g       .ram_code	00000000 .hidden __riscv_save_7
00081848 g       .sbss	00000000 _BSS_VMA_START
00001c50  w      .ram_code	00000000 entry_irq63
00081848 g       .data	00000000 _DATA_VMA_END
000055f4 g     F .ram_code	00000110 .hidden __extendsfdf2
00001c50  w      .ram_code	00000000 entry_irq46
00003158 g     F .ram_code	000009e4 .hidden __adddf3
00001c50  w      .ram_code	00000000 entry_irq31
00001c50  w      .ram_code	00000000 entry_irq16
00100000 g       *ABS*	00000000 FLASH_SIZE
00005a4e g       .ram_code	00000000 .hidden __riscv_restore_5
00080000 g       .data	00000000 _DATA_VMA_START
000066fa  w    F .ram_code	0000002c _sbrk
00001c50  w      .ram_code	00000000 entry_irq53
00001c50  w      .ram_code	00000000 entry_irq11
000816e8 g     O .data	00000018 cst_libm_rredf
00000154 g       .retention_reset	00000000 _RETENTION_RESET_VMA_END
0000665a g     F .ram_code	00000018 strnlen
00005a4e g       .ram_code	00000000 .hidden __riscv_restore_6
000020a0 g     F .ram_code	0000080a riscv_dsp_cfft_rd4_f32
00080638 g     O .data	00001090 .hidden __log_data
00001c50  w      .ram_code	00000000 entry_irq5
000054b0 g     F .ram_code	000000c8 .hidden __fixdfsi
00001c50  w      .ram_code	00000000 entry_irq23
00001c52  w      .ram_code	00000000 trap_handler
00001c50  w      .ram_code	00000000 entry_irq34
00006728 g     F .ram_code	0000002e .hidden __lshrdi3
00001c50  w      .ram_code	00000000 entry_irq36
00005a0c g       .ram_code	00000000 .hidden __riscv_save_9
00001c50  w      .ram_code	00000000 entry_irq44
00005c9a g     F .ram_code	00000048 vprintf
00001c50  w      .ram_code	00000000 entry_irq45
00001c50  w      .ram_code	00000000 entry_irq26
00005a1a g       .ram_code	00000000 .hidden __riscv_save_4
00001c50  w      .ram_code	00000000 entry_irq41
00001c50  w      .ram_code	00000000 entry_irq61
20000000 g       .vectors	00000000 BIN_BEGIN
00005ae6 g     F .ram_code	00000090 _free_r
00005a34 g       .ram_code	00000000 .hidden __riscv_save_3
00001c50  w      .ram_code	00000000 entry_irq38
00001000 g       .ram_code	00000000 __vectors
0000823a g       *ABS*	00000000 BIN_SIZE
000817a0 g     O .data	00000010 __digits
00001c58 g     F .ram_code	0000001e riscv_dsp_cfft_f32
20000350 g       *ABS*	00000000 _RAMCODE_LMA_START
00081878 g     O .sbss	00000004 __printf_count
00001c50  w      .ram_code	00000000 entry_irq59
00003b3c g     F .ram_code	000007ea .hidden __divdf3
00001c50  w      .ram_code	00000000 entry_irq6
000043f0 g     F .ram_code	00000648 .hidden __muldf3
00005a0c g       .ram_code	00000000 .hidden __riscv_save_10
00081864 g     O .sbss	00000004 __mculib_REENT_errno
200069d0 g       *ABS*	00000000 _DATA_LMA_START
000061a0 g     F .ram_code	00000088 __print_integral_poly
20000000 g       *ABS*	00000000 NDS_SAG_LMA_FLASH
00005a4e g       .ram_code	00000000 .hidden __riscv_restore_4
00005a44 g       .ram_code	00000000 .hidden __riscv_restore_8
00005a1a g       .ram_code	00000000 .hidden __riscv_save_6
20000000  w      .vectors	00000000 _RELAX_END_
00006674 g     F .ram_code	00000086 memset
00006228 g     F .ram_code	000003fc __printf_float_impl
00005a44 g       .ram_code	00000000 .hidden __riscv_restore_9
00005a4e g       .ram_code	00000000 .hidden __riscv_restore_7
000014a4 g     F .ram_code	000007aa main
00001c50 g       .ram_code	00000000 default_irq_entry
000028ac g     F .ram_code	000000f6 riscv_dsp_cmag_f32
00001c50  w      .ram_code	00000000 entry_irq3
00000ed8 g     F .ram_code	00000100 trap_entry
00000158 g       .retention_data	00000000 _AES_VMA_END
00005704 g     F .ram_code	00000300 .hidden __truncdfsf2
00001c50  w      .ram_code	00000000 entry_irq39
00001c50  w      .ram_code	00000000 entry_irq49
00005b76 g     F .ram_code	000000a8 _malloc_r
00001c50  w      .ram_code	00000000 entry_irq57
00001c50  w      .ram_code	00000000 entry_irq47
200002e8 g       *ABS*	00000000 _RETENTION_DATA_LMA_START
20000000 g     F .vectors	00000000 _RESET_ENTRY
00005c1e g     F .ram_code	0000001e iprintf
00000158 g       .retention_data	00000000 _RETENTION_DATA_VMA_START
00001c50  w      .ram_code	00000000 entry_irq4
000a0000 g       *ABS*	00000000 _STACK_TOP
00001c50  w      .ram_code	00000000 entry_irq22
00001c50  w      .ram_code	00000000 entry_irq30
00081844 g     O .data	00000004 _impure_ptr
00001c50  w      .ram_code	00000000 entry_irq42
00001c50  w      .ram_code	00000000 entry_irq24
00002e88 g     F .ram_code	00000188 sinf
00005a34 g       .ram_code	00000000 .hidden __riscv_save_2
00006880 g       .ram_code	00000000 _RAMCODE_VMA_END
0008020c g     O .data	00000414 riscv_dsp_cos_table_f32_1024
00000000  w      *ABS*	00000000 _ITB_BASE_
00005a1a g       .ram_code	00000000 .hidden __riscv_save_5
00001c50  w      .ram_code	00000000 entry_irq19
0000147c g     F .ram_code	00000026 _write
000818a8 g       .sdk_version	00000000 _end
00001c50  w      .ram_code	00000000 entry_irq17
00001c78 g     F .ram_code	00000424 riscv_dsp_cfft_rd2_f32
00001c50  w      .ram_code	00000000 entry_irq9
00001c50  w      .ram_code	00000000 entry_irq56
00001c50  w      .ram_code	00000000 entry_irq35
00001c50  w      .ram_code	00000000 entry_irq37
000001b8 g     O .retention_data	00000004 g_pm_mspi_cfg
00001c50  w      .ram_code	00000000 entry_irq54
00001c50  w      .ram_code	00000000 entry_irq40
00005a40 g       .ram_code	00000000 .hidden __riscv_restore_12
00000200 g       .ram_code	00000000 _RAMCODE_VMA_START
00005444 g     F .ram_code	0000006a .hidden __unorddf2
00005a34 g       .ram_code	00000000 .hidden __riscv_save_0
00004328 g     F .ram_code	000000c6 .hidden __gedf2
00001c50  w      .ram_code	00000000 entry_irq29
00081868 g     O .sbss	00000004 __malloc_sbrk_start
0008186c g     O .sbss	00000004 __malloc_free_list
00005a58 g       .ram_code	00000000 .hidden __riscv_restore_1
00004a3c g     F .ram_code	00000a08 .hidden __subdf3
00001c50  w      .ram_code	00000000 entry_irq7
00001c50  w      .ram_code	00000000 entry_irq32
00000000 g     F .retention_reset	00000000 _IRESET_ENTRY
00001c50  w      .ram_code	00000000 entry_irq18
00005c9a g     F .ram_code	00000048 viprintf
00006180 g     F .ram_code	00000020 __int_to_poly
00005a6c g     F .ram_code	00000008 free
00001c50  w      .ram_code	00000000 entry_irq25



Disassembly of section .vectors:

20000000 <_RESET_ENTRY>:
20000000:	a025                	c.j	20000028 <_START>
	...
20000016:	0000                	unimp
20000018:	823a                	c.mv	tp,a4
2000001a:	0000                	unimp
2000001c:	0000                	unimp
2000001e:	0000                	unimp
20000020:	544c4e4b          	fnmsub.h	ft8,fs8,ft4,fa0,rmm
20000024:	0000                	unimp
20000026:	          	sllw	a4,zero,zero

20000028 <_START>:
20000028:	e0080197          	auipc	gp,0xe0080
2000002c:	7d818193          	addi	gp,gp,2008 # 80800 <__global_pointer$>
20000030:	801002b7          	lui	t0,0x80100
20000034:	70028293          	addi	t0,t0,1792 # 80100700 <_DATA_LMA_START+0x600f9d30>
20000038:	04000313          	li	t1,64
2000003c:	506280a3          	sb	t1,1281(t0)
20000040:	e00a0297          	auipc	t0,0xe00a0
20000044:	fc028293          	addi	t0,t0,-64 # a0000 <_STACK_TOP>
20000048:	8116                	c.mv	sp,t0
2000004a:	e0000297          	auipc	t0,0xe0000
2000004e:	fb628293          	addi	t0,t0,-74 # 0 <_ITB_BASE_>
20000052:	80029073          	csrw	uitb,t0
20000056:	6299                	c.lui	t0,0x6
20000058:	3002a2f3          	csrrs	t0,mstatus,t0
2000005c:	00301073          	fssr	zero
20000060:	e0001297          	auipc	t0,0xe0001
20000064:	fa028293          	addi	t0,t0,-96 # 1000 <__vectors>
20000068:	30529073          	csrw	mtvec,t0
2000006c:	7d016073          	csrsi	mmisc_ctl,2
20000070:	e40002b7          	lui	t0,0xe4000
20000074:	4309                	c.li	t1,2
20000076:	0062a023          	sw	t1,0(t0) # e4000000 <_DATA_LMA_START+0xc3ff9630>
2000007a:	7ca022f3          	csrr	t0,mcache_ctl
2000007e:	0012e293          	ori	t0,t0,1
20000082:	0022e293          	ori	t0,t0,2
20000086:	7ca29073          	csrw	mcache_ctl,t0
2000008a:	0000100f          	fence.i

2000008e <_RETENTION_RESET_INIT>:
2000008e:	00000317          	auipc	t1,0x0
20000092:	10230313          	addi	t1,t1,258 # 20000190 <_RETENTION_RESET_LMA_START>
20000096:	e0000397          	auipc	t2,0xe0000
2000009a:	f6a38393          	addi	t2,t2,-150 # 0 <_ITB_BASE_>
2000009e:	e0000e17          	auipc	t3,0xe0000
200000a2:	0b6e0e13          	addi	t3,t3,182 # 154 <_RETENTION_RESET_VMA_END>

200000a6 <_RETENTION_RESET_BEGIN>:
200000a6:	01c3f963          	bgeu	t2,t3,200000b8 <_RETENTION_DATA_INIT>
200000aa:	00032283          	lw	t0,0(t1)
200000ae:	0053a023          	sw	t0,0(t2)
200000b2:	0311                	c.addi	t1,4
200000b4:	0391                	c.addi	t2,4
200000b6:	bfc5                	c.j	200000a6 <_RETENTION_RESET_BEGIN>

200000b8 <_RETENTION_DATA_INIT>:
200000b8:	00000317          	auipc	t1,0x0
200000bc:	23030313          	addi	t1,t1,560 # 200002e8 <_RETENTION_DATA_LMA_START>
200000c0:	15800393          	li	t2,344
200000c4:	e0000e17          	auipc	t3,0xe0000
200000c8:	0f8e0e13          	addi	t3,t3,248 # 1bc <_RETENTION_DATA_VMA_END>

200000cc <_RETENTION_DATA_INIT_BEGIN>:
200000cc:	01c3f963          	bgeu	t2,t3,200000de <_RAMCODE_INIT>
200000d0:	00032283          	lw	t0,0(t1)
200000d4:	0053a023          	sw	t0,0(t2)
200000d8:	0311                	c.addi	t1,4
200000da:	0391                	c.addi	t2,4
200000dc:	bfc5                	c.j	200000cc <_RETENTION_DATA_INIT_BEGIN>

200000de <_RAMCODE_INIT>:
200000de:	00000317          	auipc	t1,0x0
200000e2:	27230313          	addi	t1,t1,626 # 20000350 <_RAMCODE_LMA_START>
200000e6:	e0000397          	auipc	t2,0xe0000
200000ea:	11a38393          	addi	t2,t2,282 # 200 <delay_ms>
200000ee:	e0006e17          	auipc	t3,0xe0006
200000f2:	792e0e13          	addi	t3,t3,1938 # 6880 <_RAMCODE_VMA_END>

200000f6 <_RAMCODE_INIT_BEGIN>:
200000f6:	01c3f963          	bgeu	t2,t3,20000108 <_DATA_INIT>
200000fa:	00032283          	lw	t0,0(t1)
200000fe:	0053a023          	sw	t0,0(t2)
20000102:	0311                	c.addi	t1,4
20000104:	0391                	c.addi	t2,4
20000106:	bfc5                	c.j	200000f6 <_RAMCODE_INIT_BEGIN>

20000108 <_DATA_INIT>:
20000108:	00007317          	auipc	t1,0x7
2000010c:	8c830313          	addi	t1,t1,-1848 # 200069d0 <_DATA_LMA_START>
20000110:	e0080397          	auipc	t2,0xe0080
20000114:	ef038393          	addi	t2,t2,-272 # 80000 <cst_libm_sincosf>
20000118:	e0081e17          	auipc	t3,0xe0081
2000011c:	730e0e13          	addi	t3,t3,1840 # 81848 <_DATA_VMA_END>

20000120 <_DATA_INIT_BEGIN>:
20000120:	01c3f963          	bgeu	t2,t3,20000132 <_ZERO_BSS>
20000124:	00032283          	lw	t0,0(t1)
20000128:	0053a023          	sw	t0,0(t2)
2000012c:	0311                	c.addi	t1,4
2000012e:	0391                	c.addi	t2,4
20000130:	bfc5                	c.j	20000120 <_DATA_INIT_BEGIN>

20000132 <_ZERO_BSS>:
20000132:	000002b7          	lui	t0,0x0
20000136:	e0081397          	auipc	t2,0xe0081
2000013a:	71238393          	addi	t2,t2,1810 # 81848 <_DATA_VMA_END>
2000013e:	e0081e17          	auipc	t3,0xe0081
20000142:	742e0e13          	addi	t3,t3,1858 # 81880 <_BSS_VMA_END>

20000146 <_ZERO_BSS_BEGIN>:
20000146:	01c3f663          	bgeu	t2,t3,20000152 <_ZERO_AES>
2000014a:	0053a023          	sw	t0,0(t2)
2000014e:	0391                	c.addi	t2,4
20000150:	bfdd                	c.j	20000146 <_ZERO_BSS_BEGIN>

20000152 <_ZERO_AES>:
20000152:	000002b7          	lui	t0,0x0
20000156:	e0000397          	auipc	t2,0xe0000
2000015a:	00238393          	addi	t2,t2,2 # 158 <_AES_VMA_END>
2000015e:	e0000e17          	auipc	t3,0xe0000
20000162:	ffae0e13          	addi	t3,t3,-6 # 158 <_AES_VMA_END>

20000166 <_ZERO_AES_BEGIN>:
20000166:	01c3f663          	bgeu	t2,t3,20000172 <_FILL_STK>
2000016a:	0053a023          	sw	t0,0(t2)
2000016e:	0391                	c.addi	t2,4
20000170:	bfdd                	c.j	20000166 <_ZERO_AES_BEGIN>

20000172 <_FILL_STK>:
20000172:	0001                	c.nop
20000174:	e0001297          	auipc	t0,0xe0001
20000178:	33028293          	addi	t0,t0,816 # 14a4 <main>
2000017c:	9282                	c.jalr	t0
2000017e:	0001                	c.nop
20000180:	0001                	c.nop
20000182:	0001                	c.nop
20000184:	0001                	c.nop
20000186:	0001                	c.nop

20000188 <_END>:
20000188:	a001                	c.j	20000188 <_END>

Disassembly of section .retention_reset:

00000000 <_IRESET_ENTRY>:
   0:	a00d                	c.j	22 <_ISTART>
	...

00000022 <_ISTART>:
  22:	00080197          	auipc	gp,0x80
  26:	7de18193          	addi	gp,gp,2014 # 80800 <__global_pointer$>

0000002a <_ISWS_USB_DIS>:
  2a:	801002b7          	lui	t0,0x80100
  2e:	70028293          	addi	t0,t0,1792 # 80100700 <_DATA_LMA_START+0x600f9d30>
  32:	04000313          	li	t1,64
  36:	506280a3          	sb	t1,1281(t0)
  3a:	000a0297          	auipc	t0,0xa0
  3e:	fc628293          	addi	t0,t0,-58 # a0000 <_STACK_TOP>
  42:	8116                	c.mv	sp,t0
  44:	00000297          	auipc	t0,0x0
  48:	fbc28293          	addi	t0,t0,-68 # 0 <_IRESET_ENTRY>
  4c:	80029073          	csrw	uitb,t0
  50:	6299                	c.lui	t0,0x6
  52:	3002a2f3          	csrrs	t0,mstatus,t0
  56:	00301073          	fssr	zero
  5a:	00001297          	auipc	t0,0x1
  5e:	fa628293          	addi	t0,t0,-90 # 1000 <__vectors>
  62:	30529073          	csrw	mtvec,t0
  66:	7d016073          	csrsi	mmisc_ctl,2
  6a:	e40002b7          	lui	t0,0xe4000
  6e:	4309                	c.li	t1,2
  70:	0062a023          	sw	t1,0(t0) # e4000000 <_DATA_LMA_START+0xc3ff9630>
  74:	7ca022f3          	csrr	t0,mcache_ctl
  78:	0012e293          	ori	t0,t0,1
  7c:	0022e293          	ori	t0,t0,2
  80:	7ca29073          	csrw	mcache_ctl,t0
  84:	0000100f          	fence.i

00000088 <_WAKEUP_FLASH>:
  88:	801402b7          	lui	t0,0x80140
  8c:	0ff00313          	li	t1,255
  90:	4381                	c.li	t2,0
  92:	0ab00e13          	li	t3,171
  96:	326284a3          	sb	t1,809(t0) # 80140329 <_DATA_LMA_START+0x60139959>
  9a:	107280a3          	sb	t2,257(t0)
  9e:	11c28023          	sb	t3,256(t0)

000000a2 <_MSPI_WAIT>:
  a2:	801402b7          	lui	t0,0x80140
  a6:	10228383          	lb	t2,258(t0) # 80140102 <_DATA_LMA_START+0x60139732>
  aa:	4e05                	c.li	t3,1
  ac:	4ec1                	c.li	t4,16
  ae:	fe7e0ae3          	beq	t3,t2,a2 <_MSPI_WAIT>
  b2:	11d280a3          	sb	t4,257(t0)
  b6:	4281                	c.li	t0,0
  b8:	14000313          	li	t1,320

000000bc <_WAIT_EFUSE_LOAD_AND_FLASH_WAKEUP_FINISH>:
  bc:	0285                	c.addi	t0,1
  be:	fe537fe3          	bgeu	t1,t0,bc <_WAIT_EFUSE_LOAD_AND_FLASH_WAKEUP_FINISH>

000000c2 <_MULTI_ADDRESS_BEGIN>:
  c2:	801402b7          	lui	t0,0x80140
  c6:	1b800313          	li	t1,440
  ca:	00032383          	lw	t2,0(t1)
  ce:	1072a223          	sw	t2,260(t0) # 80140104 <_DATA_LMA_START+0x60139734>

000000d2 <_IZERO_BSS>:
  d2:	000002b7          	lui	t0,0x0
  d6:	00081397          	auipc	t2,0x81
  da:	77238393          	addi	t2,t2,1906 # 81848 <_DATA_VMA_END>
  de:	00081e17          	auipc	t3,0x81
  e2:	7a2e0e13          	addi	t3,t3,1954 # 81880 <_BSS_VMA_END>

000000e6 <_IZERO_BSS_BEGIN>:
  e6:	01c3f663          	bgeu	t2,t3,f2 <_IZERO_AES>
  ea:	0053a023          	sw	t0,0(t2)
  ee:	0391                	c.addi	t2,4
  f0:	bfdd                	c.j	e6 <_IZERO_BSS_BEGIN>

000000f2 <_IZERO_AES>:
  f2:	000002b7          	lui	t0,0x0
  f6:	00000397          	auipc	t2,0x0
  fa:	06238393          	addi	t2,t2,98 # 158 <_AES_VMA_END>
  fe:	00000e17          	auipc	t3,0x0
 102:	05ae0e13          	addi	t3,t3,90 # 158 <_AES_VMA_END>

00000106 <_IZERO_AES_BEGIN>:
 106:	01c3f663          	bgeu	t2,t3,112 <_IDATA_INIT>
 10a:	0053a023          	sw	t0,0(t2)
 10e:	0391                	c.addi	t2,4
 110:	bfdd                	c.j	106 <_IZERO_AES_BEGIN>

00000112 <_IDATA_INIT>:
 112:	20007317          	auipc	t1,0x20007
 116:	8be30313          	addi	t1,t1,-1858 # 200069d0 <_DATA_LMA_START>
 11a:	00080397          	auipc	t2,0x80
 11e:	ee638393          	addi	t2,t2,-282 # 80000 <cst_libm_sincosf>
 122:	00081e17          	auipc	t3,0x81
 126:	726e0e13          	addi	t3,t3,1830 # 81848 <_DATA_VMA_END>

0000012a <_IDATA_INIT_BEGIN>:
 12a:	01c3f963          	bgeu	t2,t3,13c <_IMAIN_FUNC>
 12e:	00032283          	lw	t0,0(t1)
 132:	0053a023          	sw	t0,0(t2)
 136:	0311                	c.addi	t1,4
 138:	0391                	c.addi	t2,4
 13a:	bfc5                	c.j	12a <_IDATA_INIT_BEGIN>

0000013c <_IMAIN_FUNC>:
 13c:	0001                	c.nop
 13e:	00001297          	auipc	t0,0x1
 142:	36628293          	addi	t0,t0,870 # 14a4 <main>
 146:	9282                	c.jalr	t0
 148:	0001                	c.nop
 14a:	0001                	c.nop
 14c:	0001                	c.nop
 14e:	0001                	c.nop
 150:	0001                	c.nop

00000152 <_IEND>:
 152:	a001                	c.j	152 <_IEND>

Disassembly of section .ram_code:

00000200 <delay_ms>:
     200:	000047b7          	lui	a5,0x4
     204:	e8078793          	addi	a5,a5,-384 # 3e80 <__divdf3+0x344>
     208:	02f50533          	mul	a0,a0,a5
     20c:	801407b7          	lui	a5,0x80140
     210:	2007a683          	lw	a3,512(a5) # 80140200 <_DATA_LMA_START+0x60139830>
     214:	80140737          	lui	a4,0x80140
     218:	20072783          	lw	a5,512(a4) # 80140200 <_DATA_LMA_START+0x60139830>
     21c:	8f95                	c.sub	a5,a3
     21e:	fef57de3          	bgeu	a0,a5,218 <delay_ms+0x18>
     222:	8082                	c.jr	ra

00000224 <delay_ms.constprop.12>:
     224:	801407b7          	lui	a5,0x80140
     228:	00027737          	lui	a4,0x27
     22c:	2007a603          	lw	a2,512(a5) # 80140200 <_DATA_LMA_START+0x60139830>
     230:	801406b7          	lui	a3,0x80140
     234:	10070713          	addi	a4,a4,256 # 27100 <BIN_SIZE+0x1eec6>
     238:	2006a783          	lw	a5,512(a3) # 80140200 <_DATA_LMA_START+0x60139830>
     23c:	8f91                	c.sub	a5,a2
     23e:	fef77de3          	bgeu	a4,a5,238 <delay_ms.constprop.12+0x14>
     242:	8082                	c.jr	ra

00000244 <flash_send_addr>:
     244:	5d05275b          	bfoz	a4,a0,23,16
     248:	801407b7          	lui	a5,0x80140
     24c:	801406b7          	lui	a3,0x80140
     250:	10e78023          	sb	a4,256(a5) # 80140100 <_DATA_LMA_START+0x60139730>
     254:	10268783          	lb	a5,258(a3) # 80140102 <_DATA_LMA_START+0x60139732>
     258:	fe07fe5b          	bbs	a5,0,254 <flash_send_addr+0x10>
     25c:	3c8527db          	bfoz	a5,a0,15,8
     260:	80140737          	lui	a4,0x80140
     264:	10f68023          	sb	a5,256(a3)
     268:	10270783          	lb	a5,258(a4) # 80140102 <_DATA_LMA_START+0x60139732>
     26c:	fe07fe5b          	bbs	a5,0,268 <flash_send_addr+0x24>
     270:	0ff57513          	andi	a0,a0,255
     274:	801406b7          	lui	a3,0x80140
     278:	10a70023          	sb	a0,256(a4)
     27c:	10268783          	lb	a5,258(a3) # 80140102 <_DATA_LMA_START+0x60139732>
     280:	fe07fe5b          	bbs	a5,0,27c <flash_send_addr+0x38>
     284:	00008067          	ret

00000288 <flash_send_cmd>:
     288:	801407b7          	lui	a5,0x80140
     28c:	10178703          	lb	a4,257(a5) # 80140101 <_DATA_LMA_START+0x60139731>
     290:	0ff77713          	andi	a4,a4,255
     294:	01076713          	ori	a4,a4,16
     298:	10e780a3          	sb	a4,257(a5)
     29c:	0001                	c.nop
     29e:	0001                	c.nop
     2a0:	0001                	c.nop
     2a2:	0001                	c.nop
     2a4:	0001                	c.nop
     2a6:	0001                	c.nop
     2a8:	0001                	c.nop
     2aa:	0001                	c.nop
     2ac:	0001                	c.nop
     2ae:	0001                	c.nop
     2b0:	10178683          	lb	a3,257(a5)
     2b4:	80140737          	lui	a4,0x80140
     2b8:	0ef6f693          	andi	a3,a3,239
     2bc:	10d780a3          	sb	a3,257(a5)
     2c0:	10a78023          	sb	a0,256(a5)
     2c4:	10270783          	lb	a5,258(a4) # 80140102 <_DATA_LMA_START+0x60139732>
     2c8:	fe07fe5b          	bbs	a5,0,2c4 <flash_send_cmd+0x3c>
     2cc:	00008067          	ret

000002d0 <clock_set_32k_tick>:
     2d0:	801406b7          	lui	a3,0x80140
     2d4:	20a68783          	lb	a5,522(a3) # 8014020a <_DATA_LMA_START+0x6013983a>
     2d8:	80140737          	lui	a4,0x80140
     2dc:	0ff7f793          	andi	a5,a5,255
     2e0:	0017e793          	ori	a5,a5,1
     2e4:	20f68523          	sb	a5,522(a3)
     2e8:	20b70683          	lb	a3,523(a4) # 8014020b <_DATA_LMA_START+0x6013983b>
     2ec:	20b70793          	addi	a5,a4,523
     2f0:	fe66fc5b          	bbs	a3,6,2e8 <clock_set_32k_tick+0x18>
     2f4:	20a72623          	sw	a0,524(a4)
     2f8:	4721                	c.li	a4,8
     2fa:	00e78023          	sb	a4,0(a5)
     2fe:	0001                	c.nop
     300:	0001                	c.nop
     302:	0001                	c.nop
     304:	0001                	c.nop
     306:	0001                	c.nop
     308:	0001                	c.nop
     30a:	0001                	c.nop
     30c:	0001                	c.nop
     30e:	0001                	c.nop
     310:	0001                	c.nop
     312:	0001                	c.nop
     314:	0001                	c.nop
     316:	0001                	c.nop
     318:	0001                	c.nop
     31a:	0001                	c.nop
     31c:	00000013          	nop
     320:	801407b7          	lui	a5,0x80140
     324:	20b78703          	lb	a4,523(a5) # 8014020b <_DATA_LMA_START+0x6013983b>
     328:	fe377e5b          	bbs	a4,3,324 <clock_set_32k_tick+0x54>
     32c:	00008067          	ret

00000330 <analog_read_reg32.constprop.4>:
     330:	300027f3          	csrr	a5,mstatus
     334:	8ba1                	c.andi	a5,8
     336:	c789                	c.beqz	a5,340 <analog_read_reg32.constprop.4+0x10>
     338:	30047773          	csrrci	a4,mstatus,8
     33c:	0ff0000f          	fence
     340:	80140737          	lui	a4,0x80140
     344:	00400693          	li	a3,4
     348:	18d701a3          	sb	a3,387(a4) # 80140183 <_DATA_LMA_START+0x601397b3>
     34c:	06000693          	li	a3,96
     350:	18d70023          	sb	a3,384(a4)
     354:	04000613          	li	a2,64
     358:	801406b7          	lui	a3,0x80140
     35c:	18c70123          	sb	a2,386(a4)
     360:	18268703          	lb	a4,386(a3) # 80140182 <_DATA_LMA_START+0x601397b2>
     364:	fe777e5b          	bbs	a4,7,360 <analog_read_reg32.constprop.4+0x30>
     368:	1846a503          	lw	a0,388(a3)
     36c:	00078663          	beqz	a5,378 <analog_read_reg32.constprop.4+0x48>
     370:	3007a7f3          	csrrs	a5,mstatus,a5
     374:	0ff0000f          	fence
     378:	00008067          	ret

0000037c <clock_get_32k_tick>:
     37c:	1141                	c.addi	sp,-16
     37e:	c422                	c.swsp	s0,8(sp)
     380:	c606                	c.swsp	ra,12(sp)
     382:	377d                	c.jal	330 <analog_read_reg32.constprop.4>
     384:	00a00433          	add	s0,zero,a0
     388:	fa9ff0ef          	jal	ra,330 <analog_read_reg32.constprop.4>
     38c:	40850733          	sub	a4,a0,s0
     390:	842a                	c.mv	s0,a0
     392:	be176b5b          	bnec	a4,1,388 <clock_get_32k_tick+0xc>
     396:	40b2                	c.lwsp	ra,12(sp)
     398:	4422                	c.lwsp	s0,8(sp)
     39a:	0141                	c.addi	sp,16
     39c:	00008067          	ret

000003a0 <pm_stimer_recover>:
     3a0:	1141                	c.addi	sp,-16
     3a2:	80140737          	lui	a4,0x80140
     3a6:	c606                	c.swsp	ra,12(sp)
     3a8:	4789                	c.li	a5,2
     3aa:	20f70c23          	sb	a5,536(a4) # 80140218 <_DATA_LMA_START+0x60139848>
     3ae:	20a70783          	lb	a5,522(a4)
     3b2:	0ff7f793          	andi	a5,a5,255
     3b6:	00c7e793          	ori	a5,a5,12
     3ba:	20f70523          	sb	a5,522(a4)
     3be:	3f7d                	c.jal	37c <clock_get_32k_tick>
     3c0:	000007b7          	lui	a5,0x0
     3c4:	15878713          	addi	a4,a5,344 # 158 <_AES_VMA_END>
     3c8:	00474703          	lbu	a4,4(a4)
     3cc:	15878793          	addi	a5,a5,344
     3d0:	cf01                	c.beqz	a4,3e8 <pm_stimer_recover+0x48>
     3d2:	4b98                	c.lw	a4,16(a5)
     3d4:	5f90                	c.lw	a2,56(a5)
     3d6:	40e50733          	sub	a4,a0,a4
     3da:	47d4                	c.lw	a3,12(a5)
     3dc:	0705                	c.addi	a4,1
     3de:	8315                	c.srli	a4,0x5
     3e0:	c4c716ff          	maddr32	a3,a4,a2
     3e4:	c794                	c.sw	a3,8(a5)
     3e6:	a829                	c.j	400 <pm_stimer_recover+0x60>
     3e8:	4b98                	c.lw	a4,16(a5)
     3ea:	5f94                	c.lw	a3,56(a5)
     3ec:	40e50733          	sub	a4,a0,a4
     3f0:	0705                	c.addi	a4,1
     3f2:	02d70733          	mul	a4,a4,a3
     3f6:	47d4                	c.lw	a3,12(a5)
     3f8:	8315                	c.srli	a4,0x5
     3fa:	9736                	c.add	a4,a3
     3fc:	00e7a423          	sw	a4,8(a5)
     400:	4b98                	c.lw	a4,16(a5)
     402:	4794                	c.lw	a3,8(a5)
     404:	40e50733          	sub	a4,a0,a4
     408:	0705                	c.addi	a4,1
     40a:	0505                	c.addi	a0,1
     40c:	0685                	c.addi	a3,1
     40e:	d788                	c.sw	a0,40(a5)
     410:	02e7a223          	sw	a4,36(a5)
     414:	80140637          	lui	a2,0x80140
     418:	801407b7          	lui	a5,0x80140
     41c:	20d7a023          	sw	a3,512(a5) # 80140200 <_DATA_LMA_START+0x60139830>
     420:	20b60783          	lb	a5,523(a2) # 8014020b <_DATA_LMA_START+0x6013983b>
     424:	be77fe5b          	bbc	a5,7,420 <pm_stimer_recover+0x80>
     428:	20060c23          	sb	zero,536(a2)
     42c:	40b2                	c.lwsp	ra,12(sp)
     42e:	0141                	c.addi	sp,16
     430:	00008067          	ret

00000434 <plic_exit_critical_sec>:
     434:	000007b7          	lui	a5,0x0
     438:	15878793          	addi	a5,a5,344 # 158 <_AES_VMA_END>
     43c:	03c78783          	lb	a5,60(a5)
     440:	0ff7f793          	andi	a5,a5,255
     444:	c795                	c.beqz	a5,470 <plic_exit_critical_sec+0x3c>
     446:	c50d                	c.beqz	a0,470 <plic_exit_critical_sec+0x3c>
     448:	300027f3          	csrr	a5,mstatus
     44c:	8ba1                	c.andi	a5,8
     44e:	0ff5f593          	andi	a1,a1,255
     452:	c78d                	c.beqz	a5,47c <plic_exit_critical_sec+0x48>
     454:	30047773          	csrrci	a4,mstatus,8
     458:	0ff0000f          	fence
     45c:	e4200737          	lui	a4,0xe4200
     460:	c30c                	c.sw	a1,0(a4)
     462:	0ff0000f          	fence
     466:	3007a7f3          	csrrs	a5,mstatus,a5
     46a:	0ff0000f          	fence
     46e:	8082                	c.jr	ra
     470:	cd81                	c.beqz	a1,488 <plic_exit_critical_sec+0x54>
     472:	3005a5f3          	csrrs	a1,mstatus,a1
     476:	0ff0000f          	fence
     47a:	8082                	c.jr	ra
     47c:	e42007b7          	lui	a5,0xe4200
     480:	00b7a023          	sw	a1,0(a5) # e4200000 <_DATA_LMA_START+0xc41f9630>
     484:	0ff0000f          	fence
     488:	00008067          	ret

0000048c <plic_enter_critical_sec>:
     48c:	000007b7          	lui	a5,0x0
     490:	15878793          	addi	a5,a5,344 # 158 <_AES_VMA_END>
     494:	03c78783          	lb	a5,60(a5)
     498:	0ff7f793          	andi	a5,a5,255
     49c:	cb85                	c.beqz	a5,4cc <plic_enter_critical_sec+0x40>
     49e:	c51d                	c.beqz	a0,4cc <plic_enter_critical_sec+0x40>
     4a0:	e4200737          	lui	a4,0xe4200
     4a4:	4308                	c.lw	a0,0(a4)
     4a6:	04b57163          	bgeu	a0,a1,4e8 <plic_enter_critical_sec+0x5c>
     4aa:	300027f3          	csrr	a5,mstatus
     4ae:	8ba1                	c.andi	a5,8
     4b0:	cb85                	c.beqz	a5,4e0 <plic_enter_critical_sec+0x54>
     4b2:	300476f3          	csrrci	a3,mstatus,8
     4b6:	0ff0000f          	fence
     4ba:	c30c                	c.sw	a1,0(a4)
     4bc:	0ff0000f          	fence
     4c0:	3007a7f3          	csrrs	a5,mstatus,a5
     4c4:	0ff0000f          	fence
     4c8:	00008067          	ret
     4cc:	30002573          	csrr	a0,mstatus
     4d0:	8921                	c.andi	a0,8
     4d2:	c919                	c.beqz	a0,4e8 <plic_enter_critical_sec+0x5c>
     4d4:	300477f3          	csrrci	a5,mstatus,8
     4d8:	0ff0000f          	fence
     4dc:	00008067          	ret
     4e0:	00b72023          	sw	a1,0(a4) # e4200000 <_DATA_LMA_START+0xc41f9630>
     4e4:	0ff0000f          	fence
     4e8:	00008067          	ret

000004ec <flash_mspi_read_ram>:
     4ec:	7179                	c.addi16sp	sp,-48
     4ee:	d226                	c.swsp	s1,36(sp)
     4f0:	000004b7          	lui	s1,0x0
     4f4:	15848493          	addi	s1,s1,344 # 158 <_AES_VMA_END>
     4f8:	d04a                	c.swsp	s2,32(sp)
     4fa:	c65e                	c.swsp	s7,12(sp)
     4fc:	892a                	c.mv	s2,a0
     4fe:	8bae                	c.mv	s7,a1
     500:	0404c503          	lbu	a0,64(s1)
     504:	0414c583          	lbu	a1,65(s1)
     508:	d422                	c.swsp	s0,40(sp)
     50a:	ce4e                	c.swsp	s3,28(sp)
     50c:	cc52                	c.swsp	s4,24(sp)
     50e:	ca56                	c.swsp	s5,20(sp)
     510:	c85a                	c.swsp	s6,16(sp)
     512:	d606                	c.swsp	ra,44(sp)
     514:	8b32                	c.mv	s6,a2
     516:	8ab6                	c.mv	s5,a3
     518:	843a                	c.mv	s0,a4
     51a:	8a3e                	c.mv	s4,a5
     51c:	f71ff0ef          	jal	ra,48c <plic_enter_critical_sec>
     520:	80140637          	lui	a2,0x80140
     524:	00a009b3          	add	s3,zero,a0
     528:	10260783          	lb	a5,258(a2) # 80140102 <_DATA_LMA_START+0x60139732>
     52c:	fe07fe5b          	bbs	a5,0,528 <flash_mspi_read_ram+0x3c>
     530:	10160783          	lb	a5,257(a2)
     534:	80140737          	lui	a4,0x80140
     538:	0ff7f793          	andi	a5,a5,255
     53c:	0107e793          	ori	a5,a5,16
     540:	10f600a3          	sb	a5,257(a2)
     544:	32870783          	lb	a5,808(a4) # 80140328 <_DATA_LMA_START+0x60139958>
     548:	be37fe5b          	bbc	a5,3,544 <flash_mspi_read_ram+0x58>
     54c:	10170783          	lb	a5,257(a4)
     550:	854a                	c.mv	a0,s2
     552:	0fd7f793          	andi	a5,a5,253
     556:	10f700a3          	sb	a5,257(a4)
     55a:	10170783          	lb	a5,257(a4)
     55e:	0f37f793          	andi	a5,a5,243
     562:	10f700a3          	sb	a5,257(a4)
     566:	330d                	c.jal	288 <flash_send_cmd>
     568:	0e0b1e63          	bnez	s6,664 <flash_mspi_read_ram+0x178>
     56c:	020a8063          	beqz	s5,58c <flash_mspi_read_ram+0xa0>
     570:	00000713          	li	a4,0
     574:	80140637          	lui	a2,0x80140
     578:	10060023          	sb	zero,256(a2) # 80140100 <_DATA_LMA_START+0x60139730>
     57c:	10260783          	lb	a5,258(a2)
     580:	fe07fe5b          	bbs	a5,0,57c <flash_mspi_read_ram+0x90>
     584:	00170713          	addi	a4,a4,1
     588:	ff5718e3          	bne	a4,s5,578 <flash_mspi_read_ram+0x8c>
     58c:	01b96cdb          	bnec	s2,59,5a4 <flash_mspi_read_ram+0xb8>
     590:	80140737          	lui	a4,0x80140
     594:	10170783          	lb	a5,257(a4) # 80140101 <_DATA_LMA_START+0x60139731>
     598:	0f37f793          	andi	a5,a5,243
     59c:	0047e793          	ori	a5,a5,4
     5a0:	10f700a3          	sb	a5,257(a4)
     5a4:	801406b7          	lui	a3,0x80140
     5a8:	10168783          	lb	a5,257(a3) # 80140101 <_DATA_LMA_START+0x60139731>
     5ac:	80140737          	lui	a4,0x80140
     5b0:	0ff7f793          	andi	a5,a5,255
     5b4:	0027e793          	ori	a5,a5,2
     5b8:	10f680a3          	sb	a5,257(a3)
     5bc:	10068023          	sb	zero,256(a3)
     5c0:	10270783          	lb	a5,258(a4) # 80140102 <_DATA_LMA_START+0x60139732>
     5c4:	fe07fe5b          	bbs	a5,0,5c0 <flash_mspi_read_ram+0xd4>
     5c8:	10170783          	lb	a5,257(a4)
     5cc:	801406b7          	lui	a3,0x80140
     5d0:	0ff7f793          	andi	a5,a5,255
     5d4:	0017e793          	ori	a5,a5,1
     5d8:	10f700a3          	sb	a5,257(a4)
     5dc:	10268783          	lb	a5,258(a3) # 80140102 <_DATA_LMA_START+0x60139732>
     5e0:	fe07fe5b          	bbs	a5,0,5dc <flash_mspi_read_ram+0xf0>
     5e4:	020a0263          	beqz	s4,608 <flash_mspi_read_ram+0x11c>
     5e8:	008a0a33          	add	s4,s4,s0
     5ec:	801406b7          	lui	a3,0x80140
     5f0:	10068783          	lb	a5,256(a3) # 80140100 <_DATA_LMA_START+0x60139730>
     5f4:	00140413          	addi	s0,s0,1
     5f8:	fef40fa3          	sb	a5,-1(s0)
     5fc:	10268783          	lb	a5,258(a3)
     600:	fe07fe5b          	bbs	a5,0,5fc <flash_mspi_read_ram+0x110>
     604:	ff4416e3          	bne	s0,s4,5f0 <flash_mspi_read_ram+0x104>
     608:	801407b7          	lui	a5,0x80140
     60c:	10178703          	lb	a4,257(a5) # 80140101 <_DATA_LMA_START+0x60139731>
     610:	0fe77713          	andi	a4,a4,254
     614:	10e780a3          	sb	a4,257(a5)
     618:	01b968db          	bnec	s2,59,628 <flash_mspi_read_ram+0x13c>
     61c:	10178703          	lb	a4,257(a5)
     620:	0f377713          	andi	a4,a4,243
     624:	10e780a3          	sb	a4,257(a5)
     628:	80140737          	lui	a4,0x80140
     62c:	10170783          	lb	a5,257(a4) # 80140101 <_DATA_LMA_START+0x60139731>
     630:	0ff7f793          	andi	a5,a5,255
     634:	0107e793          	ori	a5,a5,16
     638:	10f700a3          	sb	a5,257(a4)
     63c:	0001                	c.nop
     63e:	0001                	c.nop
     640:	0001                	c.nop
     642:	0001                	c.nop
     644:	0001                	c.nop
     646:	5422                	c.lwsp	s0,40(sp)
     648:	0404c503          	lbu	a0,64(s1)
     64c:	50b2                	c.lwsp	ra,44(sp)
     64e:	5492                	c.lwsp	s1,36(sp)
     650:	5902                	c.lwsp	s2,32(sp)
     652:	4a62                	c.lwsp	s4,24(sp)
     654:	4ad2                	c.lwsp	s5,20(sp)
     656:	4b42                	c.lwsp	s6,16(sp)
     658:	4bb2                	c.lwsp	s7,12(sp)
     65a:	85ce                	c.mv	a1,s3
     65c:	49f2                	c.lwsp	s3,28(sp)
     65e:	6145                	c.addi16sp	sp,48
     660:	dd5ff06f          	j	434 <plic_exit_critical_sec>
     664:	855e                	c.mv	a0,s7
     666:	3ef9                	c.jal	244 <flash_send_addr>
     668:	f05ff06f          	j	56c <flash_mspi_read_ram+0x80>

0000066c <flash_mspi_read_ram.constprop.7>:
     66c:	1101                	c.addi	sp,-32
     66e:	c64e                	c.swsp	s3,12(sp)
     670:	000009b7          	lui	s3,0x0
     674:	15898993          	addi	s3,s3,344 # 158 <_AES_VMA_END>
     678:	cc22                	c.swsp	s0,24(sp)
     67a:	c256                	c.swsp	s5,4(sp)
     67c:	842e                	c.mv	s0,a1
     67e:	8aaa                	c.mv	s5,a0
     680:	0419c583          	lbu	a1,65(s3)
     684:	0409c503          	lbu	a0,64(s3)
     688:	c84a                	c.swsp	s2,16(sp)
     68a:	c452                	c.swsp	s4,8(sp)
     68c:	ce06                	c.swsp	ra,28(sp)
     68e:	ca26                	c.swsp	s1,20(sp)
     690:	8932                	c.mv	s2,a2
     692:	3bed                	c.jal	48c <plic_enter_critical_sec>
     694:	80140737          	lui	a4,0x80140
     698:	00a00a33          	add	s4,zero,a0
     69c:	10270783          	lb	a5,258(a4) # 80140102 <_DATA_LMA_START+0x60139732>
     6a0:	fe07fe5b          	bbs	a5,0,69c <flash_mspi_read_ram.constprop.7+0x30>
     6a4:	10170783          	lb	a5,257(a4)
     6a8:	801404b7          	lui	s1,0x80140
     6ac:	0ff7f793          	andi	a5,a5,255
     6b0:	0107e793          	ori	a5,a5,16
     6b4:	10f700a3          	sb	a5,257(a4)
     6b8:	32848783          	lb	a5,808(s1) # 80140328 <_DATA_LMA_START+0x60139958>
     6bc:	be37fe5b          	bbc	a5,3,6b8 <flash_mspi_read_ram.constprop.7+0x4c>
     6c0:	10148783          	lb	a5,257(s1)
     6c4:	03b00513          	li	a0,59
     6c8:	0fd7f793          	andi	a5,a5,253
     6cc:	10f480a3          	sb	a5,257(s1)
     6d0:	10148783          	lb	a5,257(s1)
     6d4:	0f37f793          	andi	a5,a5,243
     6d8:	10f480a3          	sb	a5,257(s1)
     6dc:	badff0ef          	jal	ra,288 <flash_send_cmd>
     6e0:	01500533          	add	a0,zero,s5
     6e4:	b61ff0ef          	jal	ra,244 <flash_send_addr>
     6e8:	80140737          	lui	a4,0x80140
     6ec:	10048023          	sb	zero,256(s1)
     6f0:	10270783          	lb	a5,258(a4) # 80140102 <_DATA_LMA_START+0x60139732>
     6f4:	fe07fe5b          	bbs	a5,0,6f0 <flash_mspi_read_ram.constprop.7+0x84>
     6f8:	10170783          	lb	a5,257(a4)
     6fc:	801406b7          	lui	a3,0x80140
     700:	0f37f793          	andi	a5,a5,243
     704:	0047e793          	ori	a5,a5,4
     708:	10f700a3          	sb	a5,257(a4)
     70c:	10170783          	lb	a5,257(a4)
     710:	0ff7f793          	andi	a5,a5,255
     714:	0027e793          	ori	a5,a5,2
     718:	10f700a3          	sb	a5,257(a4)
     71c:	10070023          	sb	zero,256(a4)
     720:	10268783          	lb	a5,258(a3) # 80140102 <_DATA_LMA_START+0x60139732>
     724:	fe07fe5b          	bbs	a5,0,720 <flash_mspi_read_ram.constprop.7+0xb4>
     728:	10168783          	lb	a5,257(a3)
     72c:	80140737          	lui	a4,0x80140
     730:	0ff7f793          	andi	a5,a5,255
     734:	0017e793          	ori	a5,a5,1
     738:	10f680a3          	sb	a5,257(a3)
     73c:	10270783          	lb	a5,258(a4) # 80140102 <_DATA_LMA_START+0x60139732>
     740:	fe07fe5b          	bbs	a5,0,73c <flash_mspi_read_ram.constprop.7+0xd0>
     744:	02090263          	beqz	s2,768 <flash_mspi_read_ram.constprop.7+0xfc>
     748:	01240633          	add	a2,s0,s2
     74c:	80140737          	lui	a4,0x80140
     750:	10070783          	lb	a5,256(a4) # 80140100 <_DATA_LMA_START+0x60139730>
     754:	00140413          	addi	s0,s0,1
     758:	fef40fa3          	sb	a5,-1(s0)
     75c:	10270783          	lb	a5,258(a4)
     760:	fe07fe5b          	bbs	a5,0,75c <flash_mspi_read_ram.constprop.7+0xf0>
     764:	fec416e3          	bne	s0,a2,750 <flash_mspi_read_ram.constprop.7+0xe4>
     768:	801407b7          	lui	a5,0x80140
     76c:	10178703          	lb	a4,257(a5) # 80140101 <_DATA_LMA_START+0x60139731>
     770:	0fe77713          	andi	a4,a4,254
     774:	10e780a3          	sb	a4,257(a5)
     778:	10178703          	lb	a4,257(a5)
     77c:	0f377713          	andi	a4,a4,243
     780:	10e780a3          	sb	a4,257(a5)
     784:	10178703          	lb	a4,257(a5)
     788:	0ff77713          	andi	a4,a4,255
     78c:	01076713          	ori	a4,a4,16
     790:	10e780a3          	sb	a4,257(a5)
     794:	0001                	c.nop
     796:	0001                	c.nop
     798:	0001                	c.nop
     79a:	0001                	c.nop
     79c:	0001                	c.nop
     79e:	4462                	c.lwsp	s0,24(sp)
     7a0:	0409c503          	lbu	a0,64(s3)
     7a4:	40f2                	c.lwsp	ra,28(sp)
     7a6:	44d2                	c.lwsp	s1,20(sp)
     7a8:	4942                	c.lwsp	s2,16(sp)
     7aa:	49b2                	c.lwsp	s3,12(sp)
     7ac:	4a92                	c.lwsp	s5,4(sp)
     7ae:	85d2                	c.mv	a1,s4
     7b0:	4a22                	c.lwsp	s4,8(sp)
     7b2:	6105                	c.addi16sp	sp,32
     7b4:	c81ff06f          	j	434 <plic_exit_critical_sec>

000007b8 <analog_write_reg8>:
     7b8:	30002673          	csrr	a2,mstatus
     7bc:	8a21                	c.andi	a2,8
     7be:	c609                	c.beqz	a2,7c8 <analog_write_reg8+0x10>
     7c0:	300477f3          	csrrci	a5,mstatus,8
     7c4:	0ff0000f          	fence
     7c8:	80140737          	lui	a4,0x80140
     7cc:	18a70023          	sb	a0,384(a4) # 80140180 <_DATA_LMA_START+0x601397b0>
     7d0:	18b70223          	sb	a1,388(a4)
     7d4:	06000693          	li	a3,96
     7d8:	801407b7          	lui	a5,0x80140
     7dc:	18d70123          	sb	a3,386(a4)
     7e0:	18278703          	lb	a4,386(a5) # 80140182 <_DATA_LMA_START+0x601397b2>
     7e4:	fe777e5b          	bbs	a4,7,7e0 <analog_write_reg8+0x28>
     7e8:	18078123          	sb	zero,386(a5)
     7ec:	00060663          	beqz	a2,7f8 <analog_write_reg8+0x40>
     7f0:	30062673          	csrrs	a2,mstatus,a2
     7f4:	0ff0000f          	fence
     7f8:	00008067          	ret

000007fc <analog_read_reg8>:
     7fc:	300026f3          	csrr	a3,mstatus
     800:	8aa1                	c.andi	a3,8
     802:	c689                	c.beqz	a3,80c <analog_read_reg8+0x10>
     804:	300477f3          	csrrci	a5,mstatus,8
     808:	0ff0000f          	fence
     80c:	801407b7          	lui	a5,0x80140
     810:	18a78023          	sb	a0,384(a5) # 80140180 <_DATA_LMA_START+0x601397b0>
     814:	00100713          	li	a4,1
     818:	18e781a3          	sb	a4,387(a5)
     81c:	04000613          	li	a2,64
     820:	80140737          	lui	a4,0x80140
     824:	18c78123          	sb	a2,386(a5)
     828:	18270783          	lb	a5,386(a4) # 80140182 <_DATA_LMA_START+0x601397b2>
     82c:	fe77fe5b          	bbs	a5,7,828 <analog_read_reg8+0x2c>
     830:	18470503          	lb	a0,388(a4)
     834:	0ff57513          	andi	a0,a0,255
     838:	00068663          	beqz	a3,844 <analog_read_reg8+0x48>
     83c:	3006a6f3          	csrrs	a3,mstatus,a3
     840:	0ff0000f          	fence
     844:	00008067          	ret

00000848 <clock_init_ram.constprop.11>:
     848:	1141                	c.addi	sp,-16
     84a:	80140737          	lui	a4,0x80140
     84e:	c606                	c.swsp	ra,12(sp)
     850:	c422                	c.swsp	s0,8(sp)
     852:	c226                	c.swsp	s1,4(sp)
     854:	10270783          	lb	a5,258(a4) # 80140102 <_DATA_LMA_START+0x60139732>
     858:	fe07fe5b          	bbs	a5,0,854 <clock_init_ram.constprop.11+0xc>
     85c:	10170783          	lb	a5,257(a4)
     860:	801404b7          	lui	s1,0x80140
     864:	0ff7f793          	andi	a5,a5,255
     868:	0107e793          	ori	a5,a5,16
     86c:	10f700a3          	sb	a5,257(a4)
     870:	32848783          	lb	a5,808(s1) # 80140328 <_DATA_LMA_START+0x60139958>
     874:	be37fe5b          	bbc	a5,3,870 <clock_init_ram.constprop.11+0x28>
     878:	1e848783          	lb	a5,488(s1)
     87c:	08000513          	li	a0,128
     880:	8bbd                	c.andi	a5,15
     882:	1ef48423          	sb	a5,488(s1)
     886:	3f9d                	c.jal	7fc <analog_read_reg8>
     888:	0e057593          	andi	a1,a0,224
     88c:	0105e593          	ori	a1,a1,16
     890:	08000513          	li	a0,128
     894:	f25ff0ef          	jal	ra,7b8 <analog_write_reg8>
     898:	00900513          	li	a0,9
     89c:	f61ff0ef          	jal	ra,7fc <analog_read_reg8>
     8a0:	0f357593          	andi	a1,a0,243
     8a4:	0085e593          	ori	a1,a1,8
     8a8:	4525                	c.li	a0,9
     8aa:	3739                	c.jal	7b8 <analog_write_reg8>
     8ac:	0c000793          	li	a5,192
     8b0:	03c2140b          	addigp	s0,4156 # 8183c <sys_clk>
     8b4:	00f41023          	sh	a5,0(s0)
     8b8:	08100513          	li	a0,129
     8bc:	4791                	c.li	a5,4
     8be:	1ef48da3          	sb	a5,507(s1)
     8c2:	3f2d                	c.jal	7fc <analog_read_reg8>
     8c4:	04056593          	ori	a1,a0,64
     8c8:	0ff5f593          	andi	a1,a1,255
     8cc:	08100513          	li	a0,129
     8d0:	ee9ff0ef          	jal	ra,7b8 <analog_write_reg8>
     8d4:	08800513          	li	a0,136
     8d8:	f25ff0ef          	jal	ra,7fc <analog_read_reg8>
     8dc:	be557c5b          	bbc	a0,5,8d4 <clock_init_ram.constprop.11+0x8c>
     8e0:	08100513          	li	a0,129
     8e4:	f19ff0ef          	jal	ra,7fc <analog_read_reg8>
     8e8:	0bf57593          	andi	a1,a0,191
     8ec:	08100513          	li	a0,129
     8f0:	ec9ff0ef          	jal	ra,7b8 <analog_write_reg8>
     8f4:	801407b7          	lui	a5,0x80140
     8f8:	1e978703          	lb	a4,489(a5) # 801401e9 <_DATA_LMA_START+0x60139819>
     8fc:	8b3d                	c.andi	a4,15
     8fe:	04076713          	ori	a4,a4,64
     902:	1ee784a3          	sb	a4,489(a5)
     906:	1e878703          	lb	a4,488(a5)
     90a:	f8076713          	ori	a4,a4,-128
     90e:	0ff77713          	andi	a4,a4,255
     912:	1ee78423          	sb	a4,488(a5)
     916:	1e878703          	lb	a4,488(a5)
     91a:	f8076713          	ori	a4,a4,-128
     91e:	0ff77713          	andi	a4,a4,255
     922:	1ee78423          	sb	a4,488(a5)
     926:	1d878703          	lb	a4,472(a5)
     92a:	00045683          	lhu	a3,0(s0)
     92e:	0fb77713          	andi	a4,a4,251
     932:	1ce78c23          	sb	a4,472(a5)
     936:	1d878703          	lb	a4,472(a5)
     93a:	8689                	c.srai	a3,0x2
     93c:	00d402a3          	sb	a3,5(s0)
     940:	0fc77713          	andi	a4,a4,252
     944:	1ce78c23          	sb	a4,472(a5)
     948:	1e878703          	lb	a4,488(a5)
     94c:	0f077713          	andi	a4,a4,240
     950:	00876713          	ori	a4,a4,8
     954:	1ee78423          	sb	a4,488(a5)
     958:	1e878703          	lb	a4,488(a5)
     95c:	00045683          	lhu	a3,0(s0)
     960:	08f77713          	andi	a4,a4,143
     964:	868d                	c.srai	a3,0x3
     966:	00d40123          	sb	a3,2(s0)
     96a:	02076713          	ori	a4,a4,32
     96e:	1ee78423          	sb	a4,488(a5)
     972:	0ff6f693          	andi	a3,a3,255
     976:	00d401a3          	sb	a3,3(s0)
     97a:	00d40223          	sb	a3,4(s0)
     97e:	40b2                	c.lwsp	ra,12(sp)
     980:	4422                	c.lwsp	s0,8(sp)
     982:	4492                	c.lwsp	s1,4(sp)
     984:	0141                	c.addi	sp,16
     986:	8082                	c.jr	ra

00000988 <pm_wait_bbpll_done>:
     988:	1101                	c.addi	sp,-32
     98a:	08100513          	li	a0,129
     98e:	cc22                	c.swsp	s0,24(sp)
     990:	ca26                	c.swsp	s1,20(sp)
     992:	c84a                	c.swsp	s2,16(sp)
     994:	ce06                	c.swsp	ra,28(sp)
     996:	359d                	c.jal	7fc <analog_read_reg8>
     998:	04056593          	ori	a1,a0,64
     99c:	892a                	c.mv	s2,a0
     99e:	0ff5f593          	andi	a1,a1,255
     9a2:	08100513          	li	a0,129
     9a6:	0bf97913          	andi	s2,s2,191
     9aa:	4481                	c.li	s1,0
     9ac:	4475                	c.li	s0,29
     9ae:	3529                	c.jal	7b8 <analog_write_reg8>
     9b0:	000107a3          	sb	zero,15(sp)
     9b4:	00f10783          	lb	a5,15(sp)
     9b8:	0ff7f793          	andi	a5,a5,255
     9bc:	02f46063          	bltu	s0,a5,9dc <pm_wait_bbpll_done+0x54>
     9c0:	0001                	c.nop
     9c2:	00f10783          	lb	a5,15(sp)
     9c6:	0785                	c.addi	a5,1
     9c8:	0ff7f793          	andi	a5,a5,255
     9cc:	00f107a3          	sb	a5,15(sp)
     9d0:	00f10783          	lb	a5,15(sp)
     9d4:	0ff7f793          	andi	a5,a5,255
     9d8:	fef474e3          	bgeu	s0,a5,9c0 <pm_wait_bbpll_done+0x38>
     9dc:	08800513          	li	a0,136
     9e0:	e1dff0ef          	jal	ra,7fc <analog_read_reg8>
     9e4:	4255765b          	bbs	a0,5,a10 <pm_wait_bbpll_done+0x88>
     9e8:	cc95                	c.beqz	s1,a24 <pm_wait_bbpll_done+0x9c>
     9ea:	0414d35b          	beqc	s1,1,a30 <pm_wait_bbpll_done+0xa8>
     9ee:	85ca                	c.mv	a1,s2
     9f0:	08100513          	li	a0,129
     9f4:	dc5ff0ef          	jal	ra,7b8 <analog_write_reg8>
     9f8:	0024d65b          	beqc	s1,2,a04 <pm_wait_bbpll_done+0x7c>
     9fc:	0485                	c.addi	s1,1
     9fe:	0ff4f493          	andi	s1,s1,255
     a02:	b77d                	c.j	9b0 <pm_wait_bbpll_done+0x28>
     a04:	40f2                	c.lwsp	ra,28(sp)
     a06:	4462                	c.lwsp	s0,24(sp)
     a08:	44d2                	c.lwsp	s1,20(sp)
     a0a:	4942                	c.lwsp	s2,16(sp)
     a0c:	6105                	c.addi16sp	sp,32
     a0e:	8082                	c.jr	ra
     a10:	4462                	c.lwsp	s0,24(sp)
     a12:	40f2                	c.lwsp	ra,28(sp)
     a14:	44d2                	c.lwsp	s1,20(sp)
     a16:	85ca                	c.mv	a1,s2
     a18:	4942                	c.lwsp	s2,16(sp)
     a1a:	08100513          	li	a0,129
     a1e:	6105                	c.addi16sp	sp,32
     a20:	d99ff06f          	j	7b8 <analog_write_reg8>
     a24:	04600593          	li	a1,70
     a28:	4505                	c.li	a0,1
     a2a:	3379                	c.jal	7b8 <analog_write_reg8>
     a2c:	fd1ff06f          	j	9fc <pm_wait_bbpll_done+0x74>
     a30:	04300593          	li	a1,67
     a34:	4505                	c.li	a0,1
     a36:	3349                	c.jal	7b8 <analog_write_reg8>
     a38:	fc5ff06f          	j	9fc <pm_wait_bbpll_done+0x74>

00000a3c <pm_sleep_start>:
     a3c:	1101                	c.addi	sp,-32
     a3e:	05c2272b          	lwgp	a4,4188 # 8185c <g_chip_version>
     a42:	000006b7          	lui	a3,0x0
     a46:	ce06                	c.swsp	ra,28(sp)
     a48:	cc22                	c.swsp	s0,24(sp)
     a4a:	ca26                	c.swsp	s1,20(sp)
     a4c:	0ff00793          	li	a5,255
     a50:	19a6c583          	lbu	a1,410(a3) # 19a <g_pm_suspend_power_cfg>
     a54:	00f71a63          	bne	a4,a5,a68 <pm_sleep_start+0x2c>
     a58:	0fe5f593          	andi	a1,a1,254
     a5c:	07d00513          	li	a0,125
     a60:	d59ff0ef          	jal	ra,7b8 <analog_write_reg8>
     a64:	00c0006f          	j	a70 <pm_sleep_start+0x34>
     a68:	07d00513          	li	a0,125
     a6c:	d4dff0ef          	jal	ra,7b8 <analog_write_reg8>
     a70:	801406b7          	lui	a3,0x80140
     a74:	10268783          	lb	a5,258(a3) # 80140102 <_DATA_LMA_START+0x60139732>
     a78:	fe07fe5b          	bbs	a5,0,a74 <pm_sleep_start+0x38>
     a7c:	10168703          	lb	a4,257(a3)
     a80:	801407b7          	lui	a5,0x80140
     a84:	0ff77713          	andi	a4,a4,255
     a88:	01076713          	ori	a4,a4,16
     a8c:	10e680a3          	sb	a4,257(a3)
     a90:	32878703          	lb	a4,808(a5) # 80140328 <_DATA_LMA_START+0x60139958>
     a94:	be377e5b          	bbc	a4,3,a90 <pm_sleep_start+0x54>
     a98:	10178703          	lb	a4,257(a5)
     a9c:	80140437          	lui	s0,0x80140
     aa0:	0fd77713          	andi	a4,a4,253
     aa4:	10e780a3          	sb	a4,257(a5)
     aa8:	10178703          	lb	a4,257(a5)
     aac:	0ef77713          	andi	a4,a4,239
     ab0:	10e780a3          	sb	a4,257(a5)
     ab4:	fb900713          	li	a4,-71
     ab8:	10e78023          	sb	a4,256(a5)
     abc:	10240783          	lb	a5,258(s0) # 80140102 <_DATA_LMA_START+0x60139732>
     ac0:	fe07fe5b          	bbs	a5,0,abc <pm_sleep_start+0x80>
     ac4:	10140783          	lb	a5,257(s0)
     ac8:	452d                	c.li	a0,11
     aca:	0ff7f793          	andi	a5,a5,255
     ace:	0107e793          	ori	a5,a5,16
     ad2:	10f400a3          	sb	a5,257(s0)
     ad6:	320404a3          	sb	zero,809(s0)
     ada:	330d                	c.jal	7fc <analog_read_reg8>
     adc:	0fc57593          	andi	a1,a0,252
     ae0:	452d                	c.li	a0,11
     ae2:	39d9                	c.jal	7b8 <analog_write_reg8>
     ae4:	08100513          	li	a0,129
     ae8:	d15ff0ef          	jal	ra,7fc <analog_read_reg8>
     aec:	f8056593          	ori	a1,a0,-128
     af0:	0ff5f593          	andi	a1,a1,255
     af4:	08100513          	li	a0,129
     af8:	cc1ff0ef          	jal	ra,7b8 <analog_write_reg8>
     afc:	f8000793          	li	a5,-128
     b00:	1ef407a3          	sb	a5,495(s0)
     b04:	03f00493          	li	s1,63
     b08:	00012423          	sw	zero,8(sp)
     b0c:	47a2                	c.lwsp	a5,8(sp)
     b0e:	00f4e763          	bltu	s1,a5,b1c <pm_sleep_start+0xe0>
     b12:	0001                	c.nop
     b14:	47a2                	c.lwsp	a5,8(sp)
     b16:	0785                	c.addi	a5,1
     b18:	c43e                	c.swsp	a5,8(sp)
     b1a:	bfcd                	c.j	b0c <pm_sleep_start+0xd0>
     b1c:	08100513          	li	a0,129
     b20:	cddff0ef          	jal	ra,7fc <analog_read_reg8>
     b24:	07f57593          	andi	a1,a0,127
     b28:	08100513          	li	a0,129
     b2c:	c8dff0ef          	jal	ra,7b8 <analog_write_reg8>
     b30:	00b00513          	li	a0,11
     b34:	cc9ff0ef          	jal	ra,7fc <analog_read_reg8>
     b38:	00356593          	ori	a1,a0,3
     b3c:	0ff5f593          	andi	a1,a1,255
     b40:	452d                	c.li	a0,11
     b42:	399d                	c.jal	7b8 <analog_write_reg8>
     b44:	08000593          	li	a1,128
     b48:	07d00513          	li	a0,125
     b4c:	c6dff0ef          	jal	ra,7b8 <analog_write_reg8>
     b50:	801407b7          	lui	a5,0x80140
     b54:	329784a3          	sb	s1,809(a5) # 80140329 <_DATA_LMA_START+0x60139959>
     b58:	10178683          	lb	a3,257(a5)
     b5c:	80140737          	lui	a4,0x80140
     b60:	0ef6f693          	andi	a3,a3,239
     b64:	10d780a3          	sb	a3,257(a5)
     b68:	fab00693          	li	a3,-85
     b6c:	10d78023          	sb	a3,256(a5)
     b70:	10270783          	lb	a5,258(a4) # 80140102 <_DATA_LMA_START+0x60139732>
     b74:	fe07fe5b          	bbs	a5,0,b70 <pm_sleep_start+0x134>
     b78:	10170783          	lb	a5,257(a4)
     b7c:	12b00693          	li	a3,299
     b80:	0ff7f793          	andi	a5,a5,255
     b84:	0107e793          	ori	a5,a5,16
     b88:	10f700a3          	sb	a5,257(a4)
     b8c:	00012623          	sw	zero,12(sp)
     b90:	47b2                	c.lwsp	a5,12(sp)
     b92:	00f6e763          	bltu	a3,a5,ba0 <pm_sleep_start+0x164>
     b96:	0001                	c.nop
     b98:	47b2                	c.lwsp	a5,12(sp)
     b9a:	0785                	c.addi	a5,1
     b9c:	c63e                	c.swsp	a5,12(sp)
     b9e:	bfcd                	c.j	b90 <pm_sleep_start+0x154>
     ba0:	08800513          	li	a0,136
     ba4:	c59ff0ef          	jal	ra,7fc <analog_read_reg8>
     ba8:	be757c5b          	bbc	a0,7,ba0 <pm_sleep_start+0x164>
     bac:	08800513          	li	a0,136
     bb0:	c4dff0ef          	jal	ra,7fc <analog_read_reg8>
     bb4:	be757c5b          	bbc	a0,7,bac <pm_sleep_start+0x170>
     bb8:	08800513          	li	a0,136
     bbc:	c41ff0ef          	jal	ra,7fc <analog_read_reg8>
     bc0:	be757c5b          	bbc	a0,7,bb8 <pm_sleep_start+0x17c>
     bc4:	4462                	c.lwsp	s0,24(sp)
     bc6:	40f2                	c.lwsp	ra,28(sp)
     bc8:	44d2                	c.lwsp	s1,20(sp)
     bca:	6105                	c.addi16sp	sp,32
     bcc:	dbdff06f          	j	988 <pm_wait_bbpll_done>

00000bd0 <pm_sleep_wakeup_ram.constprop.3>:
     bd0:	1101                	c.addi	sp,-32
     bd2:	c452                	c.swsp	s4,8(sp)
     bd4:	8a2a                	c.mv	s4,a0
     bd6:	ce06                	c.swsp	ra,28(sp)
     bd8:	cc22                	c.swsp	s0,24(sp)
     bda:	ca26                	c.swsp	s1,20(sp)
     bdc:	c84a                	c.swsp	s2,16(sp)
     bde:	c64e                	c.swsp	s3,12(sp)
     be0:	c256                	c.swsp	s5,4(sp)
     be2:	c05a                	c.swsp	s6,0(sp)
     be4:	300029f3          	csrr	s3,mstatus
     be8:	0089f993          	andi	s3,s3,8
     bec:	00098663          	beqz	s3,bf8 <pm_sleep_wakeup_ram.constprop.3+0x28>
     bf0:	300477f3          	csrrci	a5,mstatus,8
     bf4:	0ff0000f          	fence
     bf8:	801407b7          	lui	a5,0x80140
     bfc:	2147a683          	lw	a3,532(a5) # 80140214 <_DATA_LMA_START+0x60139844>
     c00:	def5                	c.beqz	a3,bfc <pm_sleep_wakeup_ram.constprop.3+0x2c>
     c02:	00000437          	lui	s0,0x0
     c06:	15840693          	addi	a3,s0,344 # 158 <_AES_VMA_END>
     c0a:	2147a783          	lw	a5,532(a5)
     c0e:	5298                	c.lw	a4,32(a3)
     c10:	da9c                	c.sw	a5,48(a3)
     c12:	15840413          	addi	s0,s0,344
     c16:	0792                	c.slli	a5,0x4
     c18:	cb11                	c.beqz	a4,c2c <pm_sleep_wakeup_ram.constprop.3+0x5c>
     c1a:	03444603          	lbu	a2,52(s0)
     c1e:	4691                	c.li	a3,4
     c20:	8f99                	c.sub	a5,a4
     c22:	8e91                	c.sub	a3,a2
     c24:	40d7d7b3          	sra	a5,a5,a3
     c28:	00e787b3          	add	a5,a5,a4
     c2c:	d01c                	c.sw	a5,32(s0)
     c2e:	5004                	c.lw	s1,32(s0)
     c30:	485c                	c.lw	a5,20(s0)
     c32:	8491                	c.srai	s1,0x4
     c34:	02f487b3          	mul	a5,s1,a5
     c38:	80140937          	lui	s2,0x80140
     c3c:	20092a83          	lw	s5,512(s2) # 80140200 <_DATA_LMA_START+0x60139830>
     c40:	e0000737          	lui	a4,0xe0000
     c44:	415a0ab3          	sub	s5,s4,s5
     c48:	87c9                	c.srai	a5,0x12
     c4a:	94be                	c.add	s1,a5
     c4c:	0486                	c.slli	s1,0x1
     c4e:	dc04                	c.sw	s1,56(s0)
     c50:	03577063          	bgeu	a4,s5,c70 <pm_sleep_wakeup_ram.constprop.3+0xa0>
     c54:	00098663          	beqz	s3,c60 <pm_sleep_wakeup_ram.constprop.3+0x90>
     c58:	3009a9f3          	csrrs	s3,mstatus,s3
     c5c:	0ff0000f          	fence
     c60:	06400513          	li	a0,100
     c64:	b99ff0ef          	jal	ra,7fc <analog_read_reg8>
     c68:	01f57513          	andi	a0,a0,31
     c6c:	2580006f          	j	ec4 <pm_sleep_wakeup_ram.constprop.3+0x2f4>
     c70:	04a41783          	lh	a5,74(s0)
     c74:	1137a7db          	bfoz	a5,a5,4,19
     c78:	02fafe63          	bgeu	s5,a5,cb4 <pm_sleep_wakeup_ram.constprop.3+0xe4>
     c7c:	45fd                	c.li	a1,31
     c7e:	06400513          	li	a0,100
     c82:	801404b7          	lui	s1,0x80140
     c86:	20092403          	lw	s0,512(s2)
     c8a:	363d                	c.jal	7b8 <analog_write_reg8>
     c8c:	06400513          	li	a0,100
     c90:	b6dff0ef          	jal	ra,7fc <analog_read_reg8>
     c94:	2004a783          	lw	a5,512(s1) # 80140200 <_DATA_LMA_START+0x60139830>
     c98:	897d                	c.andi	a0,31
     c9a:	8f81                	c.sub	a5,s0
     c9c:	0157f463          	bgeu	a5,s5,ca4 <pm_sleep_wakeup_ram.constprop.3+0xd4>
     ca0:	fe0506e3          	beqz	a0,c8c <pm_sleep_wakeup_ram.constprop.3+0xbc>
     ca4:	22098063          	beqz	s3,ec4 <pm_sleep_wakeup_ram.constprop.3+0x2f4>
     ca8:	3009a9f3          	csrrs	s3,mstatus,s3
     cac:	0ff0000f          	fence
     cb0:	2140006f          	j	ec4 <pm_sleep_wakeup_ram.constprop.3+0x2f4>
     cb4:	1e890a83          	lb	s5,488(s2)
     cb8:	00faf793          	andi	a5,s5,15
     cbc:	1ef90423          	sb	a5,488(s2)
     cc0:	1d890b03          	lb	s6,472(s2)
     cc4:	0f8b7793          	andi	a5,s6,248
     cc8:	1cf90c23          	sb	a5,472(s2)
     ccc:	00100793          	li	a5,1
     cd0:	20f90c23          	sb	a5,536(s2)
     cd4:	20a90783          	lb	a5,522(s2)
     cd8:	0f77f793          	andi	a5,a5,247
     cdc:	20f90523          	sb	a5,522(s2)
     ce0:	e9cff0ef          	jal	ra,37c <clock_get_32k_tick>
     ce4:	20092703          	lw	a4,512(s2)
     ce8:	20b90783          	lb	a5,523(s2)
     cec:	5414                	c.lw	a3,40(s0)
     cee:	0ff7f793          	andi	a5,a5,255
     cf2:	0027e793          	ori	a5,a5,2
     cf6:	c468                	c.sw	a0,76(s0)
     cf8:	c418                	c.sw	a4,8(s0)
     cfa:	03444603          	lbu	a2,52(s0)
     cfe:	40d506b3          	sub	a3,a0,a3
     d02:	20f905a3          	sb	a5,523(s2)
     d06:	d454                	c.sw	a3,44(s0)
     d08:	e215                	c.bnez	a2,d2c <pm_sleep_wakeup_ram.constprop.3+0x15c>
     d0a:	445c                	c.lw	a5,12(s0)
     d0c:	c385                	c.beqz	a5,d2c <pm_sleep_wakeup_ram.constprop.3+0x15c>
     d0e:	05044783          	lbu	a5,80(s0)
     d12:	ef89                	c.bnez	a5,d2c <pm_sleep_wakeup_ram.constprop.3+0x15c>
     d14:	01042783          	lw	a5,16(s0)
     d18:	000276b7          	lui	a3,0x27
     d1c:	40f507b3          	sub	a5,a0,a5
     d20:	6c07a7db          	bfoz	a5,a5,27,0
     d24:	10068693          	addi	a3,a3,256 # 27100 <BIN_SIZE+0x1eec6>
     d28:	00f6f863          	bgeu	a3,a5,d38 <pm_sleep_wakeup_ram.constprop.3+0x168>
     d2c:	00176713          	ori	a4,a4,1
     d30:	02040a23          	sb	zero,52(s0)
     d34:	c808                	c.sw	a0,16(s0)
     d36:	c458                	c.sw	a4,12(s0)
     d38:	02000593          	li	a1,32
     d3c:	04b00513          	li	a0,75
     d40:	a79ff0ef          	jal	ra,7b8 <analog_write_reg8>
     d44:	45fd                	c.li	a1,31
     d46:	06400513          	li	a0,100
     d4a:	34bd                	c.jal	7b8 <analog_write_reg8>
     d4c:	03000593          	li	a1,48
     d50:	07e00513          	li	a0,126
     d54:	a65ff0ef          	jal	ra,7b8 <analog_write_reg8>
     d58:	0f900593          	li	a1,249
     d5c:	04d00513          	li	a0,77
     d60:	a59ff0ef          	jal	ra,7b8 <analog_write_reg8>
     d64:	4585                	c.li	a1,1
     d66:	07f00513          	li	a0,127
     d6a:	34b9                	c.jal	7b8 <analog_write_reg8>
     d6c:	04841783          	lh	a5,72(s0)
     d70:	0ee00593          	li	a1,238
     d74:	1137a7db          	bfoz	a5,a5,4,19
     d78:	04c00513          	li	a0,76
     d7c:	40fa0933          	sub	s2,s4,a5
     d80:	a39ff0ef          	jal	ra,7b8 <analog_write_reg8>
     d84:	05441583          	lh	a1,84(s0)
     d88:	04000513          	li	a0,64
     d8c:	0ff5f593          	andi	a1,a1,255
     d90:	a29ff0ef          	jal	ra,7b8 <analog_write_reg8>
     d94:	445c                	c.lw	a5,12(s0)
     d96:	07ff0737          	lui	a4,0x7ff0
     d9a:	40f907b3          	sub	a5,s2,a5
     d9e:	00f77763          	bgeu	a4,a5,dac <pm_sleep_wakeup_ram.constprop.3+0x1dc>
     da2:	4705                	c.li	a4,1
     da4:	00e40223          	sb	a4,4(s0)
     da8:	0080006f          	j	db0 <pm_sleep_wakeup_ram.constprop.3+0x1e0>
     dac:	00040223          	sb	zero,4(s0)
     db0:	00444683          	lbu	a3,4(s0)
     db4:	4808                	c.lw	a0,16(s0)
     db6:	5c18                	c.lw	a4,56(s0)
     db8:	c691                	c.beqz	a3,dc4 <pm_sleep_wakeup_ram.constprop.3+0x1f4>
     dba:	02e7d7b3          	divu	a5,a5,a4
     dbe:	0796                	c.slli	a5,0x5
     dc0:	953e                	c.add	a0,a5
     dc2:	a039                	c.j	dd0 <pm_sleep_wakeup_ram.constprop.3+0x200>
     dc4:	8085                	c.srli	s1,0x1
     dc6:	0796                	c.slli	a5,0x5
     dc8:	97a6                	c.add	a5,s1
     dca:	02e7d7b3          	divu	a5,a5,a4
     dce:	953e                	c.add	a0,a5
     dd0:	d00ff0ef          	jal	ra,2d0 <clock_set_32k_tick>
     dd4:	06400513          	li	a0,100
     dd8:	a25ff0ef          	jal	ra,7fc <analog_read_reg8>
     ddc:	01f57513          	andi	a0,a0,31
     de0:	e511                	c.bnez	a0,dec <pm_sleep_wakeup_ram.constprop.3+0x21c>
     de2:	39a9                	c.jal	a3c <pm_sleep_start>
     de4:	4585                	c.li	a1,1
     de6:	07f00513          	li	a0,127
     dea:	32f9                	c.jal	7b8 <analog_write_reg8>
     dec:	80140737          	lui	a4,0x80140
     df0:	02000793          	li	a5,32
     df4:	1ef707a3          	sb	a5,495(a4) # 801401ef <_DATA_LMA_START+0x6013981f>
     df8:	00200793          	li	a5,2
     dfc:	20f70c23          	sb	a5,536(a4)
     e00:	20a70783          	lb	a5,522(a4)
     e04:	0ff7f793          	andi	a5,a5,255
     e08:	00c7e793          	ori	a5,a5,12
     e0c:	20f70523          	sb	a5,522(a4)
     e10:	d6cff0ef          	jal	ra,37c <clock_get_32k_tick>
     e14:	00444783          	lbu	a5,4(s0)
     e18:	cf81                	c.beqz	a5,e30 <pm_sleep_wakeup_ram.constprop.3+0x260>
     e1a:	481c                	c.lw	a5,16(s0)
     e1c:	5c14                	c.lw	a3,56(s0)
     e1e:	40f507b3          	sub	a5,a0,a5
     e22:	4458                	c.lw	a4,12(s0)
     e24:	0785                	c.addi	a5,1
     e26:	8395                	c.srli	a5,0x5
     e28:	c4d7977f          	maddr32	a4,a5,a3
     e2c:	c418                	c.sw	a4,8(s0)
     e2e:	a829                	c.j	e48 <pm_sleep_wakeup_ram.constprop.3+0x278>
     e30:	481c                	c.lw	a5,16(s0)
     e32:	5c18                	c.lw	a4,56(s0)
     e34:	40f507b3          	sub	a5,a0,a5
     e38:	0785                	c.addi	a5,1
     e3a:	02e787b3          	mul	a5,a5,a4
     e3e:	4458                	c.lw	a4,12(s0)
     e40:	8395                	c.srli	a5,0x5
     e42:	97ba                	c.add	a5,a4
     e44:	00f42423          	sw	a5,8(s0)
     e48:	481c                	c.lw	a5,16(s0)
     e4a:	4414                	c.lw	a3,8(s0)
     e4c:	40f507b3          	sub	a5,a0,a5
     e50:	0785                	c.addi	a5,1
     e52:	0505                	c.addi	a0,1
     e54:	d05c                	c.sw	a5,36(s0)
     e56:	0685                	c.addi	a3,1
     e58:	02a42423          	sw	a0,40(s0)
     e5c:	801407b7          	lui	a5,0x80140
     e60:	80140737          	lui	a4,0x80140
     e64:	20d7a023          	sw	a3,512(a5) # 80140200 <_DATA_LMA_START+0x60139830>
     e68:	20b70783          	lb	a5,523(a4) # 8014020b <_DATA_LMA_START+0x6013983b>
     e6c:	be77fe5b          	bbc	a5,7,e68 <pm_sleep_wakeup_ram.constprop.3+0x298>
     e70:	20070c23          	sb	zero,536(a4)
     e74:	1d670c23          	sb	s6,472(a4)
     e78:	06400513          	li	a0,100
     e7c:	1f570423          	sb	s5,488(a4)
     e80:	97dff0ef          	jal	ra,7fc <analog_read_reg8>
     e84:	0602170b          	addigp	a4,4192 # 81860 <g_pm_status_info>
     e88:	00a700a3          	sb	a0,1(a4)
     e8c:	0602178b          	addigp	a5,4192 # 81860 <g_pm_status_info>
     e90:	00157c5b          	bbc	a0,1,ea8 <pm_sleep_wakeup_ram.constprop.3+0x2d8>
     e94:	80140637          	lui	a2,0x80140
     e98:	400006b7          	lui	a3,0x40000
     e9c:	20062703          	lw	a4,512(a2) # 80140200 <_DATA_LMA_START+0x60139830>
     ea0:	41470733          	sub	a4,a4,s4
     ea4:	fee6ece3          	bltu	a3,a4,e9c <pm_sleep_wakeup_ram.constprop.3+0x2cc>
     ea8:	00098663          	beqz	s3,eb4 <pm_sleep_wakeup_ram.constprop.3+0x2e4>
     eac:	3009a9f3          	csrrs	s3,mstatus,s3
     eb0:	0ff0000f          	fence
     eb4:	0017c783          	lbu	a5,1(a5)
     eb8:	10000513          	li	a0,256
     ebc:	c781                	c.beqz	a5,ec4 <pm_sleep_wakeup_ram.constprop.3+0x2f4>
     ebe:	40000537          	lui	a0,0x40000
     ec2:	8d5d                	c.or	a0,a5
     ec4:	40f2                	c.lwsp	ra,28(sp)
     ec6:	4462                	c.lwsp	s0,24(sp)
     ec8:	44d2                	c.lwsp	s1,20(sp)
     eca:	4942                	c.lwsp	s2,16(sp)
     ecc:	49b2                	c.lwsp	s3,12(sp)
     ece:	4a22                	c.lwsp	s4,8(sp)
     ed0:	4a92                	c.lwsp	s5,4(sp)
     ed2:	4b02                	c.lwsp	s6,0(sp)
     ed4:	6105                	c.addi16sp	sp,32
     ed6:	8082                	c.jr	ra

00000ed8 <trap_entry>:
     ed8:	1101                	c.addi	sp,-32
     eda:	ce2a                	c.swsp	a0,28(sp)
     edc:	cc2e                	c.swsp	a1,24(sp)
     ede:	ca32                	c.swsp	a2,20(sp)
     ee0:	c836                	c.swsp	a3,16(sp)
     ee2:	c63a                	c.swsp	a4,12(sp)
     ee4:	c43e                	c.swsp	a5,8(sp)
     ee6:	34202773          	csrr	a4,mcause
     eea:	000007b7          	lui	a5,0x0
     eee:	15878793          	addi	a5,a5,344 # 158 <_AES_VMA_END>
     ef2:	03c78683          	lb	a3,60(a5)
     ef6:	0ff6f693          	andi	a3,a3,255
     efa:	c2dd                	c.beqz	a3,fa0 <trap_entry+0xc8>
     efc:	34102673          	csrr	a2,mepc
     f00:	300025f3          	csrr	a1,mstatus
     f04:	7c4026f3          	csrr	a3,mxstatus
     f08:	02074a63          	bltz	a4,f3c <trap_entry+0x64>
     f0c:	34302773          	csrr	a4,mtval
     f10:	04e24c2b          	swgp	a4,4184 # 81858 <exception_mtval>
     f14:	34102773          	csrr	a4,mepc
     f18:	04e2482b          	swgp	a4,4176 # 81850 <exception_mepc>
     f1c:	30002773          	csrr	a4,mstatus
     f20:	04e24a2b          	swgp	a4,4180 # 81854 <exception_mstatus>
     f24:	34202773          	csrr	a4,mcause
     f28:	04e2442b          	swgp	a4,4168 # 81848 <_DATA_VMA_END>
     f2c:	7c902773          	csrr	a4,mdcause
     f30:	04e2462b          	swgp	a4,4172 # 8184c <exception_mdcause>
     f34:	0001                	c.nop
     f36:	0001                	c.nop
     f38:	ffdff06f          	j	f34 <trap_entry+0x5c>
     f3c:	7807275b          	bfoz	a4,a4,30,0
     f40:	0677545b          	beqc	a4,7,fa8 <trap_entry+0xd0>
     f44:	bc37645b          	bnec	a4,3,f0c <trap_entry+0x34>
     f48:	e6600737          	lui	a4,0xe6600
     f4c:	4358                	c.lw	a4,4(a4)
     f4e:	03c78703          	lb	a4,60(a5)
     f52:	0ff77713          	andi	a4,a4,255
     f56:	c319                	c.beqz	a4,f5c <trap_entry+0x84>
     f58:	30046773          	csrrsi	a4,mstatus,8
     f5c:	03c78703          	lb	a4,60(a5)
     f60:	0ff77713          	andi	a4,a4,255
     f64:	00070463          	beqz	a4,f6c <trap_entry+0x94>
     f68:	30047773          	csrrci	a4,mstatus,8
     f6c:	e6600737          	lui	a4,0xe6600
     f70:	4505                	c.li	a0,1
     f72:	c348                	c.sw	a0,4(a4)
     f74:	03c78783          	lb	a5,60(a5)
     f78:	0ff7f793          	andi	a5,a5,255
     f7c:	00078863          	beqz	a5,f8c <trap_entry+0xb4>
     f80:	30059073          	csrw	mstatus,a1
     f84:	34161073          	csrw	mepc,a2
     f88:	7c469073          	csrw	mxstatus,a3
     f8c:	4572                	c.lwsp	a0,28(sp)
     f8e:	45e2                	c.lwsp	a1,24(sp)
     f90:	4652                	c.lwsp	a2,20(sp)
     f92:	46c2                	c.lwsp	a3,16(sp)
     f94:	4732                	c.lwsp	a4,12(sp)
     f96:	47a2                	c.lwsp	a5,8(sp)
     f98:	02010113          	addi	sp,sp,32
     f9c:	30200073          	mret
     fa0:	4681                	c.li	a3,0
     fa2:	4581                	c.li	a1,0
     fa4:	4601                	c.li	a2,0
     fa6:	b78d                	c.j	f08 <trap_entry+0x30>
     fa8:	03c78703          	lb	a4,60(a5)
     fac:	0ff77713          	andi	a4,a4,255
     fb0:	00070863          	beqz	a4,fc0 <trap_entry+0xe8>
     fb4:	08000713          	li	a4,128
     fb8:	30473773          	csrrc	a4,mie,a4
     fbc:	30046773          	csrrsi	a4,mstatus,8
     fc0:	03c78703          	lb	a4,60(a5)
     fc4:	0ff77713          	andi	a4,a4,255
     fc8:	d755                	c.beqz	a4,f74 <trap_entry+0x9c>
     fca:	30047773          	csrrci	a4,mstatus,8
     fce:	08000713          	li	a4,128
     fd2:	30472773          	csrrs	a4,mie,a4
     fd6:	bf79                	c.j	f74 <trap_entry+0x9c>
     fd8:	0001                	c.nop
	...

00001000 <__vectors>:
    1000:	0ed8                	c.addi4spn	a4,sp,852
    1002:	0000                	unimp
    1004:	1c50                	c.addi4spn	a2,sp,564
    1006:	0000                	unimp
    1008:	1c50                	c.addi4spn	a2,sp,564
    100a:	0000                	unimp
    100c:	1c50                	c.addi4spn	a2,sp,564
    100e:	0000                	unimp
    1010:	1c50                	c.addi4spn	a2,sp,564
    1012:	0000                	unimp
    1014:	1c50                	c.addi4spn	a2,sp,564
    1016:	0000                	unimp
    1018:	1c50                	c.addi4spn	a2,sp,564
    101a:	0000                	unimp
    101c:	1c50                	c.addi4spn	a2,sp,564
    101e:	0000                	unimp
    1020:	1c50                	c.addi4spn	a2,sp,564
    1022:	0000                	unimp
    1024:	1c50                	c.addi4spn	a2,sp,564
    1026:	0000                	unimp
    1028:	1c50                	c.addi4spn	a2,sp,564
    102a:	0000                	unimp
    102c:	1c50                	c.addi4spn	a2,sp,564
    102e:	0000                	unimp
    1030:	1c50                	c.addi4spn	a2,sp,564
    1032:	0000                	unimp
    1034:	1c50                	c.addi4spn	a2,sp,564
    1036:	0000                	unimp
    1038:	1c50                	c.addi4spn	a2,sp,564
    103a:	0000                	unimp
    103c:	1c50                	c.addi4spn	a2,sp,564
    103e:	0000                	unimp
    1040:	1c50                	c.addi4spn	a2,sp,564
    1042:	0000                	unimp
    1044:	1c50                	c.addi4spn	a2,sp,564
    1046:	0000                	unimp
    1048:	1c50                	c.addi4spn	a2,sp,564
    104a:	0000                	unimp
    104c:	1c50                	c.addi4spn	a2,sp,564
    104e:	0000                	unimp
    1050:	1c50                	c.addi4spn	a2,sp,564
    1052:	0000                	unimp
    1054:	1c50                	c.addi4spn	a2,sp,564
    1056:	0000                	unimp
    1058:	1c50                	c.addi4spn	a2,sp,564
    105a:	0000                	unimp
    105c:	1c50                	c.addi4spn	a2,sp,564
    105e:	0000                	unimp
    1060:	1c50                	c.addi4spn	a2,sp,564
    1062:	0000                	unimp
    1064:	1c50                	c.addi4spn	a2,sp,564
    1066:	0000                	unimp
    1068:	1c50                	c.addi4spn	a2,sp,564
    106a:	0000                	unimp
    106c:	1c50                	c.addi4spn	a2,sp,564
    106e:	0000                	unimp
    1070:	1c50                	c.addi4spn	a2,sp,564
    1072:	0000                	unimp
    1074:	1c50                	c.addi4spn	a2,sp,564
    1076:	0000                	unimp
    1078:	1c50                	c.addi4spn	a2,sp,564
    107a:	0000                	unimp
    107c:	1c50                	c.addi4spn	a2,sp,564
    107e:	0000                	unimp
    1080:	1c50                	c.addi4spn	a2,sp,564
    1082:	0000                	unimp
    1084:	1c50                	c.addi4spn	a2,sp,564
    1086:	0000                	unimp
    1088:	1c50                	c.addi4spn	a2,sp,564
    108a:	0000                	unimp
    108c:	1c50                	c.addi4spn	a2,sp,564
    108e:	0000                	unimp
    1090:	1c50                	c.addi4spn	a2,sp,564
    1092:	0000                	unimp
    1094:	1c50                	c.addi4spn	a2,sp,564
    1096:	0000                	unimp
    1098:	1c50                	c.addi4spn	a2,sp,564
    109a:	0000                	unimp
    109c:	1c50                	c.addi4spn	a2,sp,564
    109e:	0000                	unimp
    10a0:	1c50                	c.addi4spn	a2,sp,564
    10a2:	0000                	unimp
    10a4:	1c50                	c.addi4spn	a2,sp,564
    10a6:	0000                	unimp
    10a8:	1c50                	c.addi4spn	a2,sp,564
    10aa:	0000                	unimp
    10ac:	1c50                	c.addi4spn	a2,sp,564
    10ae:	0000                	unimp
    10b0:	1c50                	c.addi4spn	a2,sp,564
    10b2:	0000                	unimp
    10b4:	1c50                	c.addi4spn	a2,sp,564
    10b6:	0000                	unimp
    10b8:	1c50                	c.addi4spn	a2,sp,564
    10ba:	0000                	unimp
    10bc:	1c50                	c.addi4spn	a2,sp,564
    10be:	0000                	unimp
    10c0:	1c50                	c.addi4spn	a2,sp,564
    10c2:	0000                	unimp
    10c4:	1c50                	c.addi4spn	a2,sp,564
    10c6:	0000                	unimp
    10c8:	1c50                	c.addi4spn	a2,sp,564
    10ca:	0000                	unimp
    10cc:	1c50                	c.addi4spn	a2,sp,564
    10ce:	0000                	unimp
    10d0:	1c50                	c.addi4spn	a2,sp,564
    10d2:	0000                	unimp
    10d4:	1c50                	c.addi4spn	a2,sp,564
    10d6:	0000                	unimp
    10d8:	1c50                	c.addi4spn	a2,sp,564
    10da:	0000                	unimp
    10dc:	1c50                	c.addi4spn	a2,sp,564
    10de:	0000                	unimp
    10e0:	1c50                	c.addi4spn	a2,sp,564
    10e2:	0000                	unimp
    10e4:	1c50                	c.addi4spn	a2,sp,564
    10e6:	0000                	unimp
    10e8:	1c50                	c.addi4spn	a2,sp,564
    10ea:	0000                	unimp
    10ec:	1c50                	c.addi4spn	a2,sp,564
    10ee:	0000                	unimp
    10f0:	1c50                	c.addi4spn	a2,sp,564
    10f2:	0000                	unimp
    10f4:	1c50                	c.addi4spn	a2,sp,564
    10f6:	0000                	unimp
    10f8:	1c50                	c.addi4spn	a2,sp,564
    10fa:	0000                	unimp
    10fc:	1c50                	c.addi4spn	a2,sp,564
    10fe:	0000                	unimp
    1100:	0001                	c.nop
	...

00001104 <flash_read_uid.constprop.6>:
    1104:	1141                	c.addi	sp,-16
    1106:	c606                	c.swsp	ra,12(sp)
    1108:	872a                	c.mv	a4,a0
    110a:	7d047073          	csrci	mmisc_ctl,8
    110e:	47c1                	c.li	a5,16
    1110:	4691                	c.li	a3,4
    1112:	4601                	c.li	a2,0
    1114:	00000593          	li	a1,0
    1118:	04b00513          	li	a0,75
    111c:	bd0ff0ef          	jal	ra,4ec <flash_mspi_read_ram>
    1120:	7d046073          	csrsi	mmisc_ctl,8
    1124:	40b2                	c.lwsp	ra,12(sp)
    1126:	0141                	c.addi	sp,16
    1128:	00008067          	ret

0000112c <flash_read_mid>:
    112c:	1101                	c.addi	sp,-32
    112e:	ce06                	c.swsp	ra,28(sp)
    1130:	c602                	c.swsp	zero,12(sp)
    1132:	7d047073          	csrci	mmisc_ctl,8
    1136:	478d                	c.li	a5,3
    1138:	0078                	c.addi4spn	a4,sp,12
    113a:	4681                	c.li	a3,0
    113c:	4601                	c.li	a2,0
    113e:	4581                	c.li	a1,0
    1140:	09f00513          	li	a0,159
    1144:	ba8ff0ef          	jal	ra,4ec <flash_mspi_read_ram>
    1148:	7d046073          	csrsi	mmisc_ctl,8
    114c:	40f2                	c.lwsp	ra,28(sp)
    114e:	4532                	c.lwsp	a0,12(sp)
    1150:	6105                	c.addi16sp	sp,32
    1152:	8082                	c.jr	ra

00001154 <flash_read_mid_uid_with_check>:
    1154:	841f978b          	addigp	a5,-1984 # 80040 <cst_libm_sincosf+0x40>
    1158:	4798                	c.lw	a4,8(a5)
    115a:	4390                	c.lw	a2,0(a5)
    115c:	43d4                	c.lw	a3,4(a5)
    115e:	47dc                	c.lw	a5,12(a5)
    1160:	1101                	c.addi	sp,-32
    1162:	cc22                	c.swsp	s0,24(sp)
    1164:	ca26                	c.swsp	s1,20(sp)
    1166:	842a                	c.mv	s0,a0
    1168:	c43a                	c.swsp	a4,8(sp)
    116a:	c63e                	c.swsp	a5,12(sp)
    116c:	ce06                	c.swsp	ra,28(sp)
    116e:	84ae                	c.mv	s1,a1
    1170:	c032                	c.swsp	a2,0(sp)
    1172:	c236                	c.swsp	a3,4(sp)
    1174:	fb9ff0ef          	jal	ra,112c <flash_read_mid>
    1178:	77c1                	c.lui	a5,0xffff0
    117a:	17fd                	c.addi	a5,-1
    117c:	00146737          	lui	a4,0x146
    1180:	c008                	c.sw	a0,0(s0)
    1182:	8fe9                	c.and	a5,a0
    1184:	08570713          	addi	a4,a4,133 # 146085 <FLASH_SIZE+0x46085>
    1188:	02e78063          	beq	a5,a4,11a8 <flash_read_mid_uid_with_check+0x54>
    118c:	00166737          	lui	a4,0x166
    1190:	08570713          	addi	a4,a4,133 # 166085 <FLASH_SIZE+0x66085>
    1194:	4781                	c.li	a5,0
    1196:	00e50963          	beq	a0,a4,11a8 <flash_read_mid_uid_with_check+0x54>
    119a:	40f2                	c.lwsp	ra,28(sp)
    119c:	4462                	c.lwsp	s0,24(sp)
    119e:	44d2                	c.lwsp	s1,20(sp)
    11a0:	853e                	c.mv	a0,a5
    11a2:	6105                	c.addi16sp	sp,32
    11a4:	00008067          	ret
    11a8:	8526                	c.mv	a0,s1
    11aa:	3fa9                	c.jal	1104 <flash_read_uid.constprop.6>
    11ac:	0004c783          	lbu	a5,0(s1)
    11b0:	00014603          	lbu	a2,0(sp)
    11b4:	0014c683          	lbu	a3,1(s1)
    11b8:	00114703          	lbu	a4,1(sp)
    11bc:	8f91                	c.sub	a5,a2
    11be:	0017b793          	seqz	a5,a5
    11c2:	00e69363          	bne	a3,a4,11c8 <flash_read_mid_uid_with_check+0x74>
    11c6:	0785                	c.addi	a5,1
    11c8:	0024c683          	lbu	a3,2(s1)
    11cc:	00214703          	lbu	a4,2(sp)
    11d0:	00e69463          	bne	a3,a4,11d8 <flash_read_mid_uid_with_check+0x84>
    11d4:	00178793          	addi	a5,a5,1 # ffff0001 <_DATA_LMA_START+0xdffe9631>
    11d8:	0034c683          	lbu	a3,3(s1)
    11dc:	00314703          	lbu	a4,3(sp)
    11e0:	00e69463          	bne	a3,a4,11e8 <flash_read_mid_uid_with_check+0x94>
    11e4:	00178793          	addi	a5,a5,1
    11e8:	0044c683          	lbu	a3,4(s1)
    11ec:	00414703          	lbu	a4,4(sp)
    11f0:	00e69463          	bne	a3,a4,11f8 <flash_read_mid_uid_with_check+0xa4>
    11f4:	00178793          	addi	a5,a5,1
    11f8:	0054c683          	lbu	a3,5(s1)
    11fc:	00514703          	lbu	a4,5(sp)
    1200:	00e69463          	bne	a3,a4,1208 <flash_read_mid_uid_with_check+0xb4>
    1204:	00178793          	addi	a5,a5,1
    1208:	0064c683          	lbu	a3,6(s1)
    120c:	00614703          	lbu	a4,6(sp)
    1210:	00e69463          	bne	a3,a4,1218 <flash_read_mid_uid_with_check+0xc4>
    1214:	00178793          	addi	a5,a5,1
    1218:	0074c683          	lbu	a3,7(s1)
    121c:	00714703          	lbu	a4,7(sp)
    1220:	00e69463          	bne	a3,a4,1228 <flash_read_mid_uid_with_check+0xd4>
    1224:	00178793          	addi	a5,a5,1
    1228:	0084c683          	lbu	a3,8(s1)
    122c:	00814703          	lbu	a4,8(sp)
    1230:	00e69463          	bne	a3,a4,1238 <flash_read_mid_uid_with_check+0xe4>
    1234:	00178793          	addi	a5,a5,1
    1238:	0094c683          	lbu	a3,9(s1)
    123c:	00914703          	lbu	a4,9(sp)
    1240:	00e69463          	bne	a3,a4,1248 <flash_read_mid_uid_with_check+0xf4>
    1244:	00178793          	addi	a5,a5,1
    1248:	00a4c683          	lbu	a3,10(s1)
    124c:	00a14703          	lbu	a4,10(sp)
    1250:	00e69463          	bne	a3,a4,1258 <flash_read_mid_uid_with_check+0x104>
    1254:	00178793          	addi	a5,a5,1
    1258:	00b4c683          	lbu	a3,11(s1)
    125c:	00b14703          	lbu	a4,11(sp)
    1260:	00e69463          	bne	a3,a4,1268 <flash_read_mid_uid_with_check+0x114>
    1264:	00178793          	addi	a5,a5,1
    1268:	00c4c683          	lbu	a3,12(s1)
    126c:	00c14703          	lbu	a4,12(sp)
    1270:	00e69463          	bne	a3,a4,1278 <flash_read_mid_uid_with_check+0x124>
    1274:	00178793          	addi	a5,a5,1
    1278:	00d4c683          	lbu	a3,13(s1)
    127c:	00d14703          	lbu	a4,13(sp)
    1280:	00e69463          	bne	a3,a4,1288 <flash_read_mid_uid_with_check+0x134>
    1284:	00178793          	addi	a5,a5,1
    1288:	00e4c683          	lbu	a3,14(s1)
    128c:	00e14703          	lbu	a4,14(sp)
    1290:	00e69463          	bne	a3,a4,1298 <flash_read_mid_uid_with_check+0x144>
    1294:	00178793          	addi	a5,a5,1
    1298:	00f14683          	lbu	a3,15(sp)
    129c:	00f4c703          	lbu	a4,15(s1)
    12a0:	00e69463          	bne	a3,a4,12a8 <flash_read_mid_uid_with_check+0x154>
    12a4:	00178793          	addi	a5,a5,1
    12a8:	40f2                	c.lwsp	ra,28(sp)
    12aa:	4462                	c.lwsp	s0,24(sp)
    12ac:	17c1                	c.addi	a5,-16
    12ae:	00f037b3          	snez	a5,a5
    12b2:	44d2                	c.lwsp	s1,20(sp)
    12b4:	853e                	c.mv	a0,a5
    12b6:	6105                	c.addi16sp	sp,32
    12b8:	00008067          	ret

000012bc <flash_dread>:
    12bc:	1141                	c.addi	sp,-16
    12be:	c606                	c.swsp	ra,12(sp)
    12c0:	87b2                	c.mv	a5,a2
    12c2:	7d047073          	csrci	mmisc_ctl,8
    12c6:	862e                	c.mv	a2,a1
    12c8:	00f005b3          	add	a1,zero,a5
    12cc:	ba0ff0ef          	jal	ra,66c <flash_mspi_read_ram.constprop.7>
    12d0:	7d046073          	csrsi	mmisc_ctl,8
    12d4:	40b2                	c.lwsp	ra,12(sp)
    12d6:	0141                	c.addi	sp,16
    12d8:	00008067          	ret

000012dc <clock_init.constprop.10>:
    12dc:	1141                	c.addi	sp,-16
    12de:	c606                	c.swsp	ra,12(sp)
    12e0:	7d047073          	csrci	mmisc_ctl,8
    12e4:	d64ff0ef          	jal	ra,848 <clock_init_ram.constprop.11>
    12e8:	7d046073          	csrsi	mmisc_ctl,8
    12ec:	40b2                	c.lwsp	ra,12(sp)
    12ee:	0141                	c.addi	sp,16
    12f0:	00008067          	ret

000012f4 <pm_sleep_wakeup.constprop.2>:
    12f4:	1141                	c.addi	sp,-16
    12f6:	c606                	c.swsp	ra,12(sp)
    12f8:	7d047073          	csrci	mmisc_ctl,8
    12fc:	8d5ff0ef          	jal	ra,bd0 <pm_sleep_wakeup_ram.constprop.3>
    1300:	7d046073          	csrsi	mmisc_ctl,8
    1304:	40b2                	c.lwsp	ra,12(sp)
    1306:	0141                	c.addi	sp,16
    1308:	8082                	c.jr	ra
    130a:	0001                	c.nop

0000130c <user_calib_adc_vref.constprop.9>:
    130c:	1101                	c.addi	sp,-32
    130e:	ce06                	c.swsp	ra,28(sp)
    1310:	c402                	c.swsp	zero,8(sp)
    1312:	00011623          	sh	zero,12(sp)
    1316:	00010723          	sb	zero,14(sp)
    131a:	c54d                	c.beqz	a0,13c4 <user_calib_adc_vref.constprop.9+0xb8>
    131c:	000007b7          	lui	a5,0x0
    1320:	1587a783          	lw	a5,344(a5) # 158 <_AES_VMA_END>
    1324:	0030                	c.addi4spn	a2,sp,8
    1326:	459d                	c.li	a1,7
    1328:	9782                	c.jalr	a5
    132a:	00c14783          	lbu	a5,12(sp)
    132e:	1c07b75b          	bfos	a4,a5,7,0
    1332:	04074163          	bltz	a4,1374 <user_calib_adc_vref.constprop.9+0x68>
    1336:	00e14703          	lbu	a4,14(sp)
    133a:	00d14603          	lbu	a2,13(sp)
    133e:	0722                	c.slli	a4,0x8
    1340:	66c1                	c.lui	a3,0x10
    1342:	00c705b3          	add	a1,a4,a2
    1346:	16fd                	c.addi	a3,-1
    1348:	02d58663          	beq	a1,a3,1374 <user_calib_adc_vref.constprop.9+0x68>
    134c:	fd060613          	addi	a2,a2,-48
    1350:	9732                	c.add	a4,a2
    1352:	3c07275b          	bfoz	a4,a4,15,0
    1356:	0fb00693          	li	a3,251
    135a:	08e6e563          	bltu	a3,a4,13e4 <user_calib_adc_vref.constprop.9+0xd8>
    135e:	17b1                	c.addi	a5,-20
    1360:	1c07b7db          	bfos	a5,a5,7,0
    1364:	5731                	c.li	a4,-20
    1366:	06e78f63          	beq	a5,a4,13e4 <user_calib_adc_vref.constprop.9+0xd8>
    136a:	f9578513          	addi	a0,a5,-107
    136e:	00a03533          	snez	a0,a0
    1372:	a89d                	c.j	13e8 <user_calib_adc_vref.constprop.9+0xdc>
    1374:	801407b7          	lui	a5,0x80140
    1378:	06500713          	li	a4,101
    137c:	1ee78a23          	sb	a4,500(a5) # 801401f4 <_DATA_LMA_START+0x60139824>
    1380:	1c87a703          	lw	a4,456(a5)
    1384:	1e078a23          	sb	zero,500(a5)
    1388:	4c47275b          	bfoz	a4,a4,19,4
    138c:	380727db          	bfoz	a5,a4,14,0
    1390:	06078063          	beqz	a5,13f0 <user_calib_adc_vref.constprop.9+0xe4>
    1394:	1ff77713          	andi	a4,a4,511
    1398:	f9b70713          	addi	a4,a4,-101
    139c:	3c07275b          	bfoz	a4,a4,15,0
    13a0:	0c600693          	li	a3,198
    13a4:	04e6e063          	bltu	a3,a4,13e4 <user_calib_adc_vref.constprop.9+0xd8>
    13a8:	0097d513          	srli	a0,a5,0x9
    13ac:	1531                	c.addi	a0,-20
    13ae:	1c05355b          	bfos	a0,a0,7,0
    13b2:	57b1                	c.li	a5,-20
    13b4:	02f50863          	beq	a0,a5,13e4 <user_calib_adc_vref.constprop.9+0xd8>
    13b8:	fd550513          	addi	a0,a0,-43 # 3fffffd5 <_DATA_LMA_START+0x1fff9605>
    13bc:	00a03533          	snez	a0,a0
    13c0:	0280006f          	j	13e8 <user_calib_adc_vref.constprop.9+0xdc>
    13c4:	801407b7          	lui	a5,0x80140
    13c8:	06500713          	li	a4,101
    13cc:	1ee78a23          	sb	a4,500(a5) # 801401f4 <_DATA_LMA_START+0x60139824>
    13d0:	1c87a703          	lw	a4,456(a5)
    13d4:	1e078a23          	sb	zero,500(a5)
    13d8:	4c47275b          	bfoz	a4,a4,19,4
    13dc:	380727db          	bfoz	a5,a4,14,0
    13e0:	fa079ae3          	bnez	a5,1394 <user_calib_adc_vref.constprop.9+0x88>
    13e4:	00000513          	li	a0,0
    13e8:	40f2                	c.lwsp	ra,28(sp)
    13ea:	6105                	c.addi16sp	sp,32
    13ec:	00008067          	ret
    13f0:	00814503          	lbu	a0,8(sp)
    13f4:	00914783          	lbu	a5,9(sp)
    13f8:	953e                	c.add	a0,a5
    13fa:	f8050513          	addi	a0,a0,-128
    13fe:	3c05255b          	bfoz	a0,a0,15,0
    1402:	0fc53513          	sltiu	a0,a0,252
    1406:	b7cd                	c.j	13e8 <user_calib_adc_vref.constprop.9+0xdc>

00001408 <user_calib_freq_offset.constprop.8>:
    1408:	000007b7          	lui	a5,0x0
    140c:	1101                	c.addi	sp,-32
    140e:	1587a783          	lw	a5,344(a5) # 158 <_AES_VMA_END>
    1412:	577d                	c.li	a4,-1
    1414:	00f10613          	addi	a2,sp,15
    1418:	4585                	c.li	a1,1
    141a:	cc22                	c.swsp	s0,24(sp)
    141c:	ce06                	c.swsp	ra,28(sp)
    141e:	00e107a3          	sb	a4,15(sp)
    1422:	9782                	c.jalr	a5
    1424:	00f14403          	lbu	s0,15(sp)
    1428:	0ff00793          	li	a5,255
    142c:	00000513          	li	a0,0
    1430:	02f40263          	beq	s0,a5,1454 <user_calib_freq_offset.constprop.8+0x4c>
    1434:	08a00513          	li	a0,138
    1438:	bc4ff0ef          	jal	ra,7fc <analog_read_reg8>
    143c:	03f47413          	andi	s0,s0,63
    1440:	04057593          	andi	a1,a0,64
    1444:	0085e5b3          	or	a1,a1,s0
    1448:	08a00513          	li	a0,138
    144c:	b6cff0ef          	jal	ra,7b8 <analog_write_reg8>
    1450:	00100513          	li	a0,1
    1454:	40f2                	c.lwsp	ra,28(sp)
    1456:	4462                	c.lwsp	s0,24(sp)
    1458:	6105                	c.addi16sp	sp,32
    145a:	8082                	c.jr	ra
    145c:	0001                	c.nop
	...

00001460 <gpio_input_dis>:
    1460:	801407b7          	lui	a5,0x80140
    1464:	30978703          	lb	a4,777(a5) # 80140309 <_DATA_LMA_START+0x60139939>
    1468:	fff54513          	not	a0,a0
    146c:	8d79                	c.and	a0,a4
    146e:	0ff57513          	andi	a0,a0,255
    1472:	30a784a3          	sb	a0,777(a5)
    1476:	8082                	c.jr	ra
    1478:	0001                	c.nop
	...

0000147c <_write>:
    147c:	02c05063          	blez	a2,149c <_write+0x20>
    1480:	00c586b3          	add	a3,a1,a2
    1484:	80101737          	lui	a4,0x80101
    1488:	0005c783          	lbu	a5,0(a1)
    148c:	0585                	c.addi	a1,1
    148e:	80f70c23          	sb	a5,-2024(a4) # 80100818 <_DATA_LMA_START+0x600f9e48>
    1492:	fed59be3          	bne	a1,a3,1488 <_write+0xc>
    1496:	8532                	c.mv	a0,a2
    1498:	00008067          	ret
    149c:	4601                	c.li	a2,0
    149e:	8532                	c.mv	a0,a2
    14a0:	8082                	c.jr	ra
    14a2:	0001                	c.nop

000014a4 <main>:
    14a4:	7135                	c.addi16sp	sp,-160
    14a6:	ffbc07b7          	lui	a5,0xffbc0
    14aa:	cf06                	c.swsp	ra,156(sp)
    14ac:	17fd                	c.addi	a5,-1
    14ae:	80140737          	lui	a4,0x80140
    14b2:	cd22                	c.swsp	s0,152(sp)
    14b4:	cb26                	c.swsp	s1,148(sp)
    14b6:	c94a                	c.swsp	s2,144(sp)
    14b8:	c74e                	c.swsp	s3,140(sp)
    14ba:	c552                	c.swsp	s4,136(sp)
    14bc:	c356                	c.swsp	s5,132(sp)
    14be:	c15a                	c.swsp	s6,128(sp)
    14c0:	dede                	c.swsp	s7,124(sp)
    14c2:	dce2                	c.swsp	s8,120(sp)
    14c4:	dae6                	c.swsp	s9,116(sp)
    14c6:	d8ea                	c.swsp	s10,112(sp)
    14c8:	d6ee                	c.swsp	s11,108(sp)
    14ca:	1ef72023          	sw	a5,480(a4) # 801401e0 <_DATA_LMA_START+0x60139810>
    14ce:	4589                	c.li	a1,2
    14d0:	08c00513          	li	a0,140
    14d4:	1ef72223          	sw	a5,484(a4)
    14d8:	ae0ff0ef          	jal	ra,7b8 <analog_write_reg8>
    14dc:	4581                	c.li	a1,0
    14de:	4529                	c.li	a0,10
    14e0:	ad8ff0ef          	jal	ra,7b8 <analog_write_reg8>
    14e4:	03b00593          	li	a1,59
    14e8:	00b00513          	li	a0,11
    14ec:	accff0ef          	jal	ra,7b8 <analog_write_reg8>
    14f0:	00500513          	li	a0,5
    14f4:	b08ff0ef          	jal	ra,7fc <analog_read_reg8>
    14f8:	0f757593          	andi	a1,a0,247
    14fc:	00500513          	li	a0,5
    1500:	ab8ff0ef          	jal	ra,7b8 <analog_write_reg8>
    1504:	00600513          	li	a0,6
    1508:	af4ff0ef          	jal	ra,7fc <analog_read_reg8>
    150c:	03e57593          	andi	a1,a0,62
    1510:	00600513          	li	a0,6
    1514:	aa4ff0ef          	jal	ra,7b8 <analog_write_reg8>
    1518:	04500593          	li	a1,69
    151c:	00100513          	li	a0,1
    1520:	a98ff0ef          	jal	ra,7b8 <analog_write_reg8>
    1524:	04c00593          	li	a1,76
    1528:	01c00513          	li	a0,28
    152c:	a8cff0ef          	jal	ra,7b8 <analog_write_reg8>
    1530:	801007b7          	lui	a5,0x80100
    1534:	44478703          	lb	a4,1092(a5) # 80100444 <_DATA_LMA_START+0x600f9a74>
    1538:	801016b7          	lui	a3,0x80101
    153c:	0ff77713          	andi	a4,a4,255
    1540:	00e76713          	ori	a4,a4,14
    1544:	44e78223          	sb	a4,1092(a5)
    1548:	45878703          	lb	a4,1112(a5)
    154c:	03800513          	li	a0,56
    1550:	0ff77713          	andi	a4,a4,255
    1554:	00e76713          	ori	a4,a4,14
    1558:	44e78c23          	sb	a4,1112(a5)
    155c:	46c78703          	lb	a4,1132(a5)
    1560:	0ff77713          	andi	a4,a4,255
    1564:	00e76713          	ori	a4,a4,14
    1568:	46e78623          	sb	a4,1132(a5)
    156c:	48078703          	lb	a4,1152(a5)
    1570:	0ff77713          	andi	a4,a4,255
    1574:	00e76713          	ori	a4,a4,14
    1578:	48e78023          	sb	a4,1152(a5)
    157c:	49478703          	lb	a4,1172(a5)
    1580:	0ff77713          	andi	a4,a4,255
    1584:	00e76713          	ori	a4,a4,14
    1588:	48e78a23          	sb	a4,1172(a5)
    158c:	4a878703          	lb	a4,1192(a5)
    1590:	0ff77713          	andi	a4,a4,255
    1594:	00e76713          	ori	a4,a4,14
    1598:	4ae78423          	sb	a4,1192(a5)
    159c:	4bc78703          	lb	a4,1212(a5)
    15a0:	0ff77713          	andi	a4,a4,255
    15a4:	00e76713          	ori	a4,a4,14
    15a8:	4ae78e23          	sb	a4,1212(a5)
    15ac:	4d078703          	lb	a4,1232(a5)
    15b0:	0ff77713          	andi	a4,a4,255
    15b4:	00e76713          	ori	a4,a4,14
    15b8:	4ce78823          	sb	a4,1232(a5)
    15bc:	83a68783          	lb	a5,-1990(a3) # 8010083a <_DATA_LMA_START+0x600f9e6a>
    15c0:	82068d23          	sb	zero,-1990(a3)
    15c4:	a38ff0ef          	jal	ra,7fc <analog_read_reg8>
    15c8:	00a00433          	add	s0,zero,a0
    15cc:	03900513          	li	a0,57
    15d0:	a2cff0ef          	jal	ra,7fc <analog_read_reg8>
    15d4:	84aa                	c.mv	s1,a0
    15d6:	4004745b          	bbs	s0,0,15de <main+0x13a>
    15da:	60e0006f          	j	1be8 <main+0x744>
    15de:	0fe47593          	andi	a1,s0,254
    15e2:	0602140b          	addigp	s0,4192 # 81860 <g_pm_status_info>
    15e6:	03800513          	li	a0,56
    15ea:	4004f45b          	bbs	s1,0,15f2 <main+0x14e>
    15ee:	5da0006f          	j	1bc8 <main+0x724>
    15f2:	4791                	c.li	a5,4
    15f4:	00f40123          	sb	a5,2(s0)
    15f8:	9c0ff0ef          	jal	ra,7b8 <analog_write_reg8>
    15fc:	00100593          	li	a1,1
    1600:	07f00513          	li	a0,127
    1604:	9b4ff0ef          	jal	ra,7b8 <analog_write_reg8>
    1608:	06400513          	li	a0,100
    160c:	9f0ff0ef          	jal	ra,7fc <analog_read_reg8>
    1610:	0c3527db          	bfoz	a5,a0,3,3
    1614:	00a400a3          	sb	a0,1(s0)
    1618:	00f40023          	sb	a5,0(s0)
    161c:	08800513          	li	a0,136
    1620:	9dcff0ef          	jal	ra,7fc <analog_read_reg8>
    1624:	be757c5b          	bbc	a0,7,161c <main+0x178>
    1628:	b60ff0ef          	jal	ra,988 <pm_wait_bbpll_done>
    162c:	00244783          	lbu	a5,2(s0)
    1630:	0a87dc5b          	beqc	a5,8,16e8 <main+0x244>
    1634:	80140737          	lui	a4,0x80140
    1638:	20a70783          	lb	a5,522(a4) # 8014020a <_DATA_LMA_START+0x6013983a>
    163c:	0ff7f793          	andi	a5,a5,255
    1640:	00c7e793          	ori	a5,a5,12
    1644:	20f70523          	sb	a5,522(a4)
    1648:	00100793          	li	a5,1
    164c:	20f72023          	sw	a5,512(a4)
    1650:	801404b7          	lui	s1,0x80140
    1654:	1fd48783          	lb	a5,509(s1) # 801401fd <_DATA_LMA_START+0x6013982d>
    1658:	0ff7f793          	andi	a5,a5,255
    165c:	04f24e2b          	swgp	a5,4188 # 8185c <g_chip_version>
    1660:	00244703          	lbu	a4,2(s0)
    1664:	04475c5b          	beqc	a4,4,16bc <main+0x218>
    1668:	0ff00693          	li	a3,255
    166c:	04d78063          	beq	a5,a3,16ac <main+0x208>
    1670:	08000593          	li	a1,128
    1674:	07d00513          	li	a0,125
    1678:	940ff0ef          	jal	ra,7b8 <analog_write_reg8>
    167c:	80140737          	lui	a4,0x80140
    1680:	06500793          	li	a5,101
    1684:	1ef70a23          	sb	a5,500(a4) # 801401f4 <_DATA_LMA_START+0x60139824>
    1688:	1c872783          	lw	a5,456(a4)
    168c:	1e070a23          	sb	zero,500(a4)
    1690:	8bbd                	c.andi	a5,15
    1692:	0037d55b          	beqc	a5,3,169c <main+0x1f8>
    1696:	4725                	c.li	a4,9
    1698:	04f77c63          	bgeu	a4,a5,16f0 <main+0x24c>
    169c:	801407b7          	lui	a5,0x80140
    16a0:	02000713          	li	a4,32
    16a4:	1ee787a3          	sb	a4,495(a5) # 801401ef <_DATA_LMA_START+0x6013981f>
    16a8:	0000006f          	j	16a8 <main+0x204>
    16ac:	bc17625b          	bnec	a4,1,1670 <main+0x1cc>
    16b0:	07d00513          	li	a0,125
    16b4:	08000593          	li	a1,128
    16b8:	0180006f          	j	16d0 <main+0x22c>
    16bc:	03900513          	li	a0,57
    16c0:	93cff0ef          	jal	ra,7fc <analog_read_reg8>
    16c4:	00256593          	ori	a1,a0,2
    16c8:	0ff5f593          	andi	a1,a1,255
    16cc:	03900513          	li	a0,57
    16d0:	8e8ff0ef          	jal	ra,7b8 <analog_write_reg8>
    16d4:	2004a503          	lw	a0,512(s1)
    16d8:	001877b7          	lui	a5,0x187
    16dc:	a0078793          	addi	a5,a5,-1536 # 186a00 <FLASH_SIZE+0x86a00>
    16e0:	953e                	c.add	a0,a5
    16e2:	3909                	c.jal	12f4 <pm_sleep_wakeup.constprop.2>
    16e4:	f8dff06f          	j	1670 <main+0x1cc>
    16e8:	cb9fe0ef          	jal	ra,3a0 <pm_stimer_recover>
    16ec:	f65ff06f          	j	1650 <main+0x1ac>
    16f0:	00f00513          	li	a0,15
    16f4:	908ff0ef          	jal	ra,7fc <analog_read_reg8>
    16f8:	03f57593          	andi	a1,a0,63
    16fc:	0405e593          	ori	a1,a1,64
    1700:	00f00513          	li	a0,15
    1704:	8b4ff0ef          	jal	ra,7b8 <analog_write_reg8>
    1708:	03810b93          	addi	s7,sp,56
    170c:	85de                	c.mv	a1,s7
    170e:	1008                	c.addi4spn	a0,sp,32
    1710:	a45ff0ef          	jal	ra,1154 <flash_read_mid_uid_with_check>
    1714:	0ff57513          	andi	a0,a0,255
    1718:	0015545b          	beqc	a0,1,1720 <main+0x27c>
    171c:	4ec0006f          	j	1c08 <main+0x764>
    1720:	02214783          	lbu	a5,34(sp)
    1724:	474d                	c.li	a4,19
    1726:	0137e45b          	bnec	a5,19,172e <main+0x28a>
    172a:	4860006f          	j	1bb0 <main+0x70c>
    172e:	46f77163          	bgeu	a4,a5,1b90 <main+0x6ec>
    1732:	4755                	c.li	a4,21
    1734:	0157e45b          	bnec	a5,21,173c <main+0x298>
    1738:	4400006f          	j	1b78 <main+0x6d4>
    173c:	42e7e263          	bltu	a5,a4,1b60 <main+0x6bc>
    1740:	0167d45b          	beqc	a5,22,1748 <main+0x2a4>
    1744:	4c40006f          	j	1c08 <main+0x764>
    1748:	003fe537          	lui	a0,0x3fe
    174c:	0c050513          	addi	a0,a0,192 # 3fe0c0 <FLASH_SIZE+0x2fe0c0>
    1750:	bbdff0ef          	jal	ra,130c <user_calib_adc_vref.constprop.9>
    1754:	003fe537          	lui	a0,0x3fe
    1758:	cb1ff0ef          	jal	ra,1408 <user_calib_freq_offset.constprop.8>
    175c:	80140437          	lui	s0,0x80140
    1760:	b7dff0ef          	jal	ra,12dc <clock_init.constprop.10>
    1764:	30e40783          	lb	a5,782(s0) # 8014030e <_DATA_LMA_START+0x6013993e>
    1768:	11000513          	li	a0,272
    176c:	0ff7f793          	andi	a5,a5,255
    1770:	0107e793          	ori	a5,a5,16
    1774:	30f40723          	sb	a5,782(s0)
    1778:	30a40783          	lb	a5,778(s0)
    177c:	1004                	c.addi4spn	s1,sp,32
    177e:	0ef7f793          	andi	a5,a5,239
    1782:	30f40523          	sb	a5,778(s0)
    1786:	39e9                	c.jal	1460 <gpio_input_dis>
    1788:	30e40783          	lb	a5,782(s0)
    178c:	12000513          	li	a0,288
    1790:	0ff7f793          	andi	a5,a5,255
    1794:	0207e793          	ori	a5,a5,32
    1798:	30f40723          	sb	a5,782(s0)
    179c:	30a40783          	lb	a5,778(s0)
    17a0:	0df7f793          	andi	a5,a5,223
    17a4:	30f40523          	sb	a5,778(s0)
    17a8:	cb9ff0ef          	jal	ra,1460 <gpio_input_dis>
    17ac:	30e40783          	lb	a5,782(s0)
    17b0:	14000513          	li	a0,320
    17b4:	0ff7f793          	andi	a5,a5,255
    17b8:	0407e793          	ori	a5,a5,64
    17bc:	30f40723          	sb	a5,782(s0)
    17c0:	30a40783          	lb	a5,778(s0)
    17c4:	0bf7f793          	andi	a5,a5,191
    17c8:	30f40523          	sb	a5,778(s0)
    17cc:	c95ff0ef          	jal	ra,1460 <gpio_input_dis>
    17d0:	30e40783          	lb	a5,782(s0)
    17d4:	18000513          	li	a0,384
    17d8:	f807e793          	ori	a5,a5,-128
    17dc:	0ff7f793          	andi	a5,a5,255
    17e0:	30f40723          	sb	a5,782(s0)
    17e4:	30a40783          	lb	a5,778(s0)
    17e8:	07f7f793          	andi	a5,a5,127
    17ec:	30f40523          	sb	a5,778(s0)
    17f0:	c71ff0ef          	jal	ra,1460 <gpio_input_dis>
    17f4:	33140783          	lb	a5,817(s0)
    17f8:	00b00513          	li	a0,11
    17fc:	0f37f793          	andi	a5,a5,243
    1800:	32f408a3          	sb	a5,817(s0)
    1804:	30640783          	lb	a5,774(s0)
    1808:	0df7f793          	andi	a5,a5,223
    180c:	30f40323          	sb	a5,774(s0)
    1810:	33140783          	lb	a5,817(s0)
    1814:	0cf7f793          	andi	a5,a5,207
    1818:	32f408a3          	sb	a5,817(s0)
    181c:	30640783          	lb	a5,774(s0)
    1820:	0bf7f793          	andi	a5,a5,191
    1824:	30f40323          	sb	a5,774(s0)
    1828:	30140783          	lb	a5,769(s0)
    182c:	0ff7f793          	andi	a5,a5,255
    1830:	0607e793          	ori	a5,a5,96
    1834:	30f400a3          	sb	a5,769(s0)
    1838:	fc5fe0ef          	jal	ra,7fc <analog_read_reg8>
    183c:	f8056593          	ori	a1,a0,-128
    1840:	0ff5f593          	andi	a1,a1,255
    1844:	00b00513          	li	a0,11
    1848:	f71fe0ef          	jal	ra,7b8 <analog_write_reg8>
    184c:	801017b7          	lui	a5,0x80101
    1850:	c0178703          	lb	a4,-1023(a5) # 80100c01 <_DATA_LMA_START+0x600fa231>
    1854:	3e800513          	li	a0,1000
    1858:	f8076713          	ori	a4,a4,-128
    185c:	0ff77713          	andi	a4,a4,255
    1860:	c0e780a3          	sb	a4,-1023(a5)
    1864:	00100713          	li	a4,1
    1868:	82e78e23          	sb	a4,-1988(a5)
    186c:	83d78703          	lb	a4,-1987(a5)
    1870:	0ff77713          	andi	a4,a4,255
    1874:	00176713          	ori	a4,a4,1
    1878:	82e78ea3          	sb	a4,-1987(a5)
    187c:	985fe0ef          	jal	ra,200 <delay_ms>
    1880:	000806b7          	lui	a3,0x80
    1884:	65a9                	c.lui	a1,0xa
    1886:	00080537          	lui	a0,0x80
    188a:	06868693          	addi	a3,a3,104 # 80068 <cst_libm_sincosf+0x68>
    188e:	7e300613          	li	a2,2019
    1892:	0585                	c.addi	a1,1
    1894:	07450513          	addi	a0,a0,116 # 80074 <cst_libm_sincosf+0x74>
    1898:	386040ef          	jal	ra,5c1e <iprintf>
    189c:	00080837          	lui	a6,0x80
    18a0:	841f978b          	addigp	a5,-1984 # 80040 <cst_libm_sincosf+0x40>
    18a4:	02080413          	addi	s0,a6,32 # 80020 <cst_libm_sincosf+0x20>
    18a8:	00080837          	lui	a6,0x80
    18ac:	4b88                	c.lw	a0,16(a5)
    18ae:	4bcc                	c.lw	a1,20(a5)
    18b0:	4f90                	c.lw	a2,24(a5)
    18b2:	4fd4                	c.lw	a3,28(a5)
    18b4:	5398                	c.lw	a4,32(a5)
    18b6:	ca22                	c.swsp	s0,20(sp)
    18b8:	53dc                	c.lw	a5,36(a5)
    18ba:	02880413          	addi	s0,a6,40 # 80028 <cst_libm_sincosf+0x28>
    18be:	00080837          	lui	a6,0x80
    18c2:	cc22                	c.swsp	s0,24(sp)
    18c4:	03080413          	addi	s0,a6,48 # 80030 <cst_libm_sincosf+0x30>
    18c8:	ce22                	c.swsp	s0,28(sp)
    18ca:	d02a                	c.swsp	a0,32(sp)
    18cc:	d22e                	c.swsp	a1,36(sp)
    18ce:	d432                	c.swsp	a2,40(sp)
    18d0:	d636                	c.swsp	a3,44(sp)
    18d2:	d83a                	c.swsp	a4,48(sp)
    18d4:	02f12a23          	sw	a5,52(sp)
    18d8:	4080                	c.lw	s0,0(s1)
    18da:	00341693          	slli	a3,s0,0x3
    18de:	8522                	c.mv	a0,s0
    18e0:	8c36                	c.mv	s8,a3
    18e2:	c436                	c.swsp	a3,8(sp)
    18e4:	495030ef          	jal	ra,5578 <__floatsidf>
    18e8:	0bc010ef          	jal	ra,29a4 <log>
    18ec:	8d2a                	c.mv	s10,a0
    18ee:	8562                	c.mv	a0,s8
    18f0:	00b00db3          	add	s11,zero,a1
    18f4:	170040ef          	jal	ra,5a64 <malloc>
    18f8:	8a2a                	c.mv	s4,a0
    18fa:	8562                	c.mv	a0,s8
    18fc:	168040ef          	jal	ra,5a64 <malloc>
    1900:	00241693          	slli	a3,s0,0x2
    1904:	8c2a                	c.mv	s8,a0
    1906:	8536                	c.mv	a0,a3
    1908:	8ab6                	c.mv	s5,a3
    190a:	c636                	c.swsp	a3,12(sp)
    190c:	158040ef          	jal	ra,5a64 <malloc>
    1910:	89aa                	c.mv	s3,a0
    1912:	8556                	c.mv	a0,s5
    1914:	150040ef          	jal	ra,5a64 <malloc>
    1918:	8aaa                	c.mv	s5,a0
    191a:	220a0563          	beqz	s4,1b44 <main+0x6a0>
    191e:	220c0363          	beqz	s8,1b44 <main+0x6a0>
    1922:	22098163          	beqz	s3,1b44 <main+0x6a0>
    1926:	20050f63          	beqz	a0,1b44 <main+0x6a0>
    192a:	04805363          	blez	s0,1970 <main+0x4cc>
    192e:	8b62                	c.mv	s6,s8
    1930:	f0000553          	fmv.w.x	fa0,zero
    1934:	4901                	c.li	s2,0
    1936:	a01d                	c.j	195c <main+0x4b8>
    1938:	441030ef          	jal	ra,5578 <__floatsidf>
    193c:	46d2                	c.lwsp	a3,20(sp)
    193e:	4290                	c.lw	a2,0(a3)
    1940:	0046a683          	lw	a3,4(a3)
    1944:	2ad020ef          	jal	ra,43f0 <__muldf3>
    1948:	46e2                	c.lwsp	a3,24(sp)
    194a:	4290                	c.lw	a2,0(a3)
    194c:	0046a683          	lw	a3,4(a3)
    1950:	2a1020ef          	jal	ra,43f0 <__muldf3>
    1954:	5b1030ef          	jal	ra,5704 <__truncdfsf2>
    1958:	530010ef          	jal	ra,2e88 <sinf>
    195c:	00ab2027          	fsw	fa0,0(s6)
    1960:	000b2223          	sw	zero,4(s6)
    1964:	0905                	c.addi	s2,1
    1966:	854a                	c.mv	a0,s2
    1968:	008b0b13          	addi	s6,s6,8
    196c:	fd2416e3          	bne	s0,s2,1938 <main+0x494>
    1970:	00080537          	lui	a0,0x80
    1974:	008005b3          	add	a1,zero,s0
    1978:	0ec50513          	addi	a0,a0,236 # 800ec <cst_libm_sincosf+0xec>
    197c:	2a2040ef          	jal	ra,5c1e <iprintf>
    1980:	8a5fe0ef          	jal	ra,224 <delay_ms.constprop.12>
    1984:	46f2                	c.lwsp	a3,28(sp)
    1986:	00080937          	lui	s2,0x80
    198a:	4290                	c.lw	a2,0(a3)
    198c:	42d4                	c.lw	a3,4(a3)
    198e:	856a                	c.mv	a0,s10
    1990:	85ee                	c.mv	a1,s11
    1992:	4b01                	c.li	s6,0
    1994:	03890913          	addi	s2,s2,56 # 80038 <cst_libm_sincosf+0x38>
    1998:	1a4020ef          	jal	ra,3b3c <__divdf3>
    199c:	315030ef          	jal	ra,54b0 <__fixdfsi>
    19a0:	c25e                	c.swsp	s7,4(sp)
    19a2:	c82a                	c.swsp	a0,16(sp)
    19a4:	01712023          	sw	s7,0(sp)
    19a8:	4622                	c.lwsp	a2,8(sp)
    19aa:	85e2                	c.mv	a1,s8
    19ac:	01400533          	add	a0,zero,s4
    19b0:	0c4040ef          	jal	ra,5a74 <memcpy>
    19b4:	b0005073          	csrwi	mcycle,0
    19b8:	b0002cf3          	csrr	s9,mcycle
    19bc:	45c2                	c.lwsp	a1,16(sp)
    19be:	8552                	c.mv	a0,s4
    19c0:	298000ef          	jal	ra,1c58 <riscv_dsp_cfft_f32>
    19c4:	b00027f3          	csrr	a5,mcycle
    19c8:	4682                	c.lwsp	a3,0(sp)
    19ca:	419787b3          	sub	a5,a5,s9
    19ce:	0b05                	c.addi	s6,1
    19d0:	8622                	c.mv	a2,s0
    19d2:	85ce                	c.mv	a1,s3
    19d4:	8552                	c.mv	a0,s4
    19d6:	c29c                	c.sw	a5,0(a3)
    19d8:	6d5000ef          	jal	ra,28ac <riscv_dsp_cmag_f32>
    19dc:	141b505b          	beqc	s6,1,1b1c <main+0x678>
    19e0:	06805263          	blez	s0,1a44 <main+0x5a0>
    19e4:	000aa707          	flw	fa4,0(s5)
    19e8:	0009a787          	flw	fa5,0(s3)
    19ec:	08e7f7d3          	fsub.s	fa5,fa5,fa4
    19f0:	20f7a553          	fabs.s	fa0,fa5
    19f4:	401030ef          	jal	ra,55f4 <__extendsfdf2>
    19f8:	00092603          	lw	a2,0(s2)
    19fc:	00492683          	lw	a3,4(s2)
    1a00:	129020ef          	jal	ra,4328 <__gedf2>
    1a04:	04a04863          	bgtz	a0,1a54 <main+0x5b0>
    1a08:	00498d93          	addi	s11,s3,4
    1a0c:	004a8d13          	addi	s10,s5,4
    1a10:	4c81                	c.li	s9,0
    1a12:	a02d                	c.j	1a3c <main+0x598>
    1a14:	000d2787          	flw	fa5,0(s10)
    1a18:	000da507          	flw	fa0,0(s11)
    1a1c:	0d11                	c.addi	s10,4
    1a1e:	0d91                	c.addi	s11,4
    1a20:	08f57553          	fsub.s	fa0,fa0,fa5
    1a24:	20a52553          	fabs.s	fa0,fa0
    1a28:	3cd030ef          	jal	ra,55f4 <__extendsfdf2>
    1a2c:	00092603          	lw	a2,0(s2)
    1a30:	00492683          	lw	a3,4(s2)
    1a34:	0f5020ef          	jal	ra,4328 <__gedf2>
    1a38:	00a04e63          	bgtz	a0,1a54 <main+0x5b0>
    1a3c:	001c8c93          	addi	s9,s9,1
    1a40:	fd941ae3          	bne	s0,s9,1a14 <main+0x570>
    1a44:	0eab545b          	beqc	s6,10,1b2c <main+0x688>
    1a48:	4682                	c.lwsp	a3,0(sp)
    1a4a:	00468613          	addi	a2,a3,4
    1a4e:	c032                	c.swsp	a2,0(sp)
    1a50:	f59ff06f          	j	19a8 <main+0x504>
    1a54:	00080537          	lui	a0,0x80
    1a58:	8622                	c.mv	a2,s0
    1a5a:	85da                	c.mv	a1,s6
    1a5c:	1a450513          	addi	a0,a0,420 # 801a4 <cst_libm_sincosf+0x1a4>
    1a60:	1be040ef          	jal	ra,5c1e <iprintf>
    1a64:	fc0fe0ef          	jal	ra,224 <delay_ms.constprop.12>
    1a68:	00080537          	lui	a0,0x80
    1a6c:	008005b3          	add	a1,zero,s0
    1a70:	13450513          	addi	a0,a0,308 # 80134 <cst_libm_sincosf+0x134>
    1a74:	1aa040ef          	jal	ra,5c1e <iprintf>
    1a78:	4c81                	c.li	s9,0
    1a7a:	4b01                	c.li	s6,0
    1a7c:	00080937          	lui	s2,0x80
    1a80:	fa4fe0ef          	jal	ra,224 <delay_ms.constprop.12>
    1a84:	4d92                	c.lwsp	s11,4(sp)
    1a86:	0c85                	c.addi	s9,1
    1a88:	000dad03          	lw	s10,0(s11)
    1a8c:	85e6                	c.mv	a1,s9
    1a8e:	866a                	c.mv	a2,s10
    1a90:	16490513          	addi	a0,s2,356 # 80164 <cst_libm_sincosf+0x164>
    1a94:	18a040ef          	jal	ra,5c1e <iprintf>
    1a98:	f8cfe0ef          	jal	ra,224 <delay_ms.constprop.12>
    1a9c:	004d8613          	addi	a2,s11,4
    1aa0:	c232                	c.swsp	a2,4(sp)
    1aa2:	9b6a                	c.add	s6,s10
    1aa4:	beace05b          	bnec	s9,10,1a84 <main+0x5e0>
    1aa8:	ccccd637          	lui	a2,0xccccd
    1aac:	ccd60613          	addi	a2,a2,-819 # cccccccd <_DATA_LMA_START+0xaccc62fd>
    1ab0:	02cb3633          	mulhu	a2,s6,a2
    1ab4:	00080537          	lui	a0,0x80
    1ab8:	85a2                	c.mv	a1,s0
    1aba:	18050513          	addi	a0,a0,384 # 80180 <cst_libm_sincosf+0x180>
    1abe:	0491                	c.addi	s1,4
    1ac0:	00365613          	srli	a2,a2,0x3
    1ac4:	15a040ef          	jal	ra,5c1e <iprintf>
    1ac8:	f5cfe0ef          	jal	ra,224 <delay_ms.constprop.12>
    1acc:	00a00513          	li	a0,10
    1ad0:	16c040ef          	jal	ra,5c3c <putchar>
    1ad4:	01400533          	add	a0,zero,s4
    1ad8:	795030ef          	jal	ra,5a6c <free>
    1adc:	01800533          	add	a0,zero,s8
    1ae0:	78d030ef          	jal	ra,5a6c <free>
    1ae4:	01300533          	add	a0,zero,s3
    1ae8:	785030ef          	jal	ra,5a6c <free>
    1aec:	01500533          	add	a0,zero,s5
    1af0:	77d030ef          	jal	ra,5a6c <free>
    1af4:	df7492e3          	bne	s1,s7,18d8 <main+0x434>
    1af8:	00000513          	li	a0,0
    1afc:	40fa                	c.lwsp	ra,156(sp)
    1afe:	446a                	c.lwsp	s0,152(sp)
    1b00:	44da                	c.lwsp	s1,148(sp)
    1b02:	494a                	c.lwsp	s2,144(sp)
    1b04:	49ba                	c.lwsp	s3,140(sp)
    1b06:	4a2a                	c.lwsp	s4,136(sp)
    1b08:	4a9a                	c.lwsp	s5,132(sp)
    1b0a:	4b0a                	c.lwsp	s6,128(sp)
    1b0c:	5bf6                	c.lwsp	s7,124(sp)
    1b0e:	5c66                	c.lwsp	s8,120(sp)
    1b10:	5cd6                	c.lwsp	s9,116(sp)
    1b12:	5d46                	c.lwsp	s10,112(sp)
    1b14:	5db6                	c.lwsp	s11,108(sp)
    1b16:	610d                	c.addi16sp	sp,160
    1b18:	00008067          	ret
    1b1c:	4632                	c.lwsp	a2,12(sp)
    1b1e:	85ce                	c.mv	a1,s3
    1b20:	01500533          	add	a0,zero,s5
    1b24:	751030ef          	jal	ra,5a74 <memcpy>
    1b28:	f21ff06f          	j	1a48 <main+0x5a4>
    1b2c:	00080537          	lui	a0,0x80
    1b30:	008005b3          	add	a1,zero,s0
    1b34:	10450513          	addi	a0,a0,260 # 80104 <cst_libm_sincosf+0x104>
    1b38:	0e6040ef          	jal	ra,5c1e <iprintf>
    1b3c:	ee8fe0ef          	jal	ra,224 <delay_ms.constprop.12>
    1b40:	f29ff06f          	j	1a68 <main+0x5c4>
    1b44:	00080537          	lui	a0,0x80
    1b48:	008005b3          	add	a1,zero,s0
    1b4c:	0c450513          	addi	a0,a0,196 # 800c4 <cst_libm_sincosf+0xc4>
    1b50:	0ce040ef          	jal	ra,5c1e <iprintf>
    1b54:	ed0fe0ef          	jal	ra,224 <delay_ms.constprop.12>
    1b58:	fff00513          	li	a0,-1
    1b5c:	fa1ff06f          	j	1afc <main+0x658>
    1b60:	000fe537          	lui	a0,0xfe
    1b64:	0c050513          	addi	a0,a0,192 # fe0c0 <_STACK_TOP+0x5e0c0>
    1b68:	fa4ff0ef          	jal	ra,130c <user_calib_adc_vref.constprop.9>
    1b6c:	000fe537          	lui	a0,0xfe
    1b70:	899ff0ef          	jal	ra,1408 <user_calib_freq_offset.constprop.8>
    1b74:	be9ff06f          	j	175c <main+0x2b8>
    1b78:	001fe537          	lui	a0,0x1fe
    1b7c:	0c050513          	addi	a0,a0,192 # 1fe0c0 <FLASH_SIZE+0xfe0c0>
    1b80:	f8cff0ef          	jal	ra,130c <user_calib_adc_vref.constprop.9>
    1b84:	001fe537          	lui	a0,0x1fe
    1b88:	881ff0ef          	jal	ra,1408 <user_calib_freq_offset.constprop.8>
    1b8c:	bd1ff06f          	j	175c <main+0x2b8>
    1b90:	0907d25b          	beqc	a5,16,1c14 <main+0x770>
    1b94:	0717ea5b          	bnec	a5,17,1c08 <main+0x764>
    1b98:	0001e537          	lui	a0,0x1e
    1b9c:	0c050513          	addi	a0,a0,192 # 1e0c0 <BIN_SIZE+0x15e86>
    1ba0:	f6cff0ef          	jal	ra,130c <user_calib_adc_vref.constprop.9>
    1ba4:	0001e537          	lui	a0,0x1e
    1ba8:	861ff0ef          	jal	ra,1408 <user_calib_freq_offset.constprop.8>
    1bac:	bb1ff06f          	j	175c <main+0x2b8>
    1bb0:	0007e537          	lui	a0,0x7e
    1bb4:	0c050513          	addi	a0,a0,192 # 7e0c0 <BIN_SIZE+0x75e86>
    1bb8:	f54ff0ef          	jal	ra,130c <user_calib_adc_vref.constprop.9>
    1bbc:	0007e537          	lui	a0,0x7e
    1bc0:	849ff0ef          	jal	ra,1408 <user_calib_freq_offset.constprop.8>
    1bc4:	b99ff06f          	j	175c <main+0x2b8>
    1bc8:	00100793          	li	a5,1
    1bcc:	00f40123          	sb	a5,2(s0)
    1bd0:	be9fe0ef          	jal	ra,7b8 <analog_write_reg8>
    1bd4:	0014e593          	ori	a1,s1,1
    1bd8:	0ff5f593          	andi	a1,a1,255
    1bdc:	03900513          	li	a0,57
    1be0:	bd9fe0ef          	jal	ra,7b8 <analog_write_reg8>
    1be4:	a19ff06f          	j	15fc <main+0x158>
    1be8:	07f00513          	li	a0,127
    1bec:	c11fe0ef          	jal	ra,7fc <analog_read_reg8>
    1bf0:	0602140b          	addigp	s0,4192 # 81860 <g_pm_status_info>
    1bf4:	0405785b          	bbc	a0,0,1c44 <main+0x7a0>
    1bf8:	4214fa5b          	bbs	s1,1,1c2c <main+0x788>
    1bfc:	01000793          	li	a5,16
    1c00:	00f40123          	sb	a5,2(s0)
    1c04:	9f9ff06f          	j	15fc <main+0x158>
    1c08:	00000513          	li	a0,0
    1c0c:	f00ff0ef          	jal	ra,130c <user_calib_adc_vref.constprop.9>
    1c10:	b4dff06f          	j	175c <main+0x2b8>
    1c14:	0000e537          	lui	a0,0xe
    1c18:	0c050513          	addi	a0,a0,192 # e0c0 <BIN_SIZE+0x5e86>
    1c1c:	ef0ff0ef          	jal	ra,130c <user_calib_adc_vref.constprop.9>
    1c20:	0000e537          	lui	a0,0xe
    1c24:	fe4ff0ef          	jal	ra,1408 <user_calib_freq_offset.constprop.8>
    1c28:	b35ff06f          	j	175c <main+0x2b8>
    1c2c:	02000793          	li	a5,32
    1c30:	0fd4f593          	andi	a1,s1,253
    1c34:	03900513          	li	a0,57
    1c38:	00f40123          	sb	a5,2(s0)
    1c3c:	b7dfe0ef          	jal	ra,7b8 <analog_write_reg8>
    1c40:	9bdff06f          	j	15fc <main+0x158>
    1c44:	47a1                	c.li	a5,8
    1c46:	00f40123          	sb	a5,2(s0)
    1c4a:	9b3ff06f          	j	15fc <main+0x158>
	...

00001c50 <default_irq_entry>:
    1c50:	a001                	c.j	1c50 <default_irq_entry>

00001c52 <trap_handler>:
    1c52:	a001                	c.j	1c52 <trap_handler>
    1c54:	0001                	c.nop
	...

00001c58 <riscv_dsp_cfft_f32>:
    1c58:	ffc58793          	addi	a5,a1,-4 # 9ffc <BIN_SIZE+0x1dc2>
    1c5c:	4729                	c.li	a4,10
    1c5e:	00f76b63          	bltu	a4,a5,1c74 <riscv_dsp_cfft_f32+0x1c>
    1c62:	9e1f970b          	addigp	a4,-1568 # 801e0 <cst_libm_sincosf+0x1e0>
    1c66:	0cf707db          	lea.w	a5,a4,a5
    1c6a:	439c                	c.lw	a5,0(a5)
    1c6c:	00078067          	jr	a5
    1c70:	4300006f          	j	20a0 <riscv_dsp_cfft_rd4_f32>
    1c74:	a011                	c.j	1c78 <riscv_dsp_cfft_rd2_f32>
	...

00001c78 <riscv_dsp_cfft_rd2_f32>:
    1c78:	4791                	c.li	a5,4
    1c7a:	00b797b3          	sll	a5,a5,a1
    1c7e:	00f50833          	add	a6,a0,a5
    1c82:	6118                	c.flw	fa4,0(a0)
    1c84:	615c                	c.flw	fa5,4(a0)
    1c86:	00082607          	flw	fa2,0(a6)
    1c8a:	00482687          	flw	fa3,4(a6)
    1c8e:	1141                	c.addi	sp,-16
    1c90:	00c77553          	fadd.s	fa0,fa4,fa2
    1c94:	c622                	c.swsp	s0,12(sp)
    1c96:	00d7f5d3          	fadd.s	fa1,fa5,fa3
    1c9a:	c426                	c.swsp	s1,8(sp)
    1c9c:	08c77753          	fsub.s	fa4,fa4,fa2
    1ca0:	c24a                	c.swsp	s2,4(sp)
    1ca2:	08d7f7d3          	fsub.s	fa5,fa5,fa3
    1ca6:	e108                	c.fsw	fa0,0(a0)
    1ca8:	e14c                	c.fsw	fa1,4(a0)
    1caa:	4405                	c.li	s0,1
    1cac:	00850913          	addi	s2,a0,8 # e008 <BIN_SIZE+0x5dce>
    1cb0:	00e82027          	fsw	fa4,0(a6)
    1cb4:	00f82227          	fsw	fa5,4(a6)
    1cb8:	84ae                	c.mv	s1,a1
    1cba:	8eaa                	c.mv	t4,a0
    1cbc:	00b41433          	sll	s0,s0,a1
    1cc0:	0d280e63          	beq	a6,s2,1d9c <riscv_dsp_cfft_rd2_f32+0x124>
    1cc4:	07a1                	c.addi	a5,8
    1cc6:	48a9                	c.li	a7,10
    1cc8:	00f50733          	add	a4,a0,a5
    1ccc:	40b888b3          	sub	a7,a7,a1
    1cd0:	87ca                	c.mv	a5,s2
    1cd2:	4581                	c.li	a1,0
    1cd4:	a15f960b          	addigp	a2,-1516 # 80214 <riscv_dsp_cos_table_f32_1024+0x8>
    1cd8:	10000513          	li	a0,256
    1cdc:	0580006f          	j	1d34 <riscv_dsp_cfft_rd2_f32+0xbc>
    1ce0:	0002a507          	flw	fa0,0(t0)
    1ce4:	000fa007          	flw	ft0,0(t6)
    1ce8:	630c                	c.flw	fa1,0(a4)
    1cea:	6390                	c.flw	fa2,0(a5)
    1cec:	63d8                	c.flw	fa4,4(a5)
    1cee:	00472087          	flw	ft1,4(a4)
    1cf2:	08b676d3          	fsub.s	fa3,fa2,fa1
    1cf6:	07a1                	c.addi	a5,8
    1cf8:	081777d3          	fsub.s	fa5,fa4,ft1
    1cfc:	00870713          	addi	a4,a4,8
    1d00:	00b67653          	fadd.s	fa2,fa2,fa1
    1d04:	10a6f5d3          	fmul.s	fa1,fa3,fa0
    1d08:	1007f153          	fmul.s	ft2,fa5,ft0
    1d0c:	fec7ac27          	fsw	fa2,-8(a5)
    1d10:	10a7f7d3          	fmul.s	fa5,fa5,fa0
    1d14:	1006f6d3          	fmul.s	fa3,fa3,ft0
    1d18:	00177753          	fadd.s	fa4,fa4,ft1
    1d1c:	0025f5d3          	fadd.s	fa1,fa1,ft2
    1d20:	08d7f7d3          	fsub.s	fa5,fa5,fa3
    1d24:	fee7ae27          	fsw	fa4,-4(a5)
    1d28:	feb72c27          	fsw	fa1,-8(a4)
    1d2c:	fef72e27          	fsw	fa5,-4(a4)
    1d30:	06f80663          	beq	a6,a5,1d9c <riscv_dsp_cfft_rd2_f32+0x124>
    1d34:	0585                	c.addi	a1,1
    1d36:	011596b3          	sll	a3,a1,a7
    1d3a:	f0068313          	addi	t1,a3,-256
    1d3e:	40d50e33          	sub	t3,a0,a3
    1d42:	0cd602db          	lea.w	t0,a2,a3
    1d46:	0dc60fdb          	lea.w	t6,a2,t3
    1d4a:	40650f33          	sub	t5,a0,t1
    1d4e:	f9c049e3          	bgtz	t3,1ce0 <riscv_dsp_cfft_rd2_f32+0x68>
    1d52:	e0068693          	addi	a3,a3,-512
    1d56:	0cd602db          	lea.w	t0,a2,a3
    1d5a:	40d506b3          	sub	a3,a0,a3
    1d5e:	0de60e5b          	lea.w	t3,a2,t5
    1d62:	0c66035b          	lea.w	t1,a2,t1
    1d66:	0cd60fdb          	lea.w	t6,a2,a3
    1d6a:	01e05963          	blez	t5,1d7c <riscv_dsp_cfft_rd2_f32+0x104>
    1d6e:	000e2507          	flw	fa0,0(t3)
    1d72:	00032007          	flw	ft0,0(t1)
    1d76:	20a51553          	fneg.s	fa0,fa0
    1d7a:	b7bd                	c.j	1ce8 <riscv_dsp_cfft_rd2_f32+0x70>
    1d7c:	0002a007          	flw	ft0,0(t0)
    1d80:	000fa507          	flw	fa0,0(t6)
    1d84:	20001053          	fneg.s	ft0,ft0
    1d88:	20a517d3          	fneg.s	fa5,fa0
    1d8c:	f4d05ee3          	blez	a3,1ce8 <riscv_dsp_cfft_rd2_f32+0x70>
    1d90:	20000553          	fmv.s	fa0,ft0
    1d94:	20f78053          	fmv.s	ft0,fa5
    1d98:	f51ff06f          	j	1ce8 <riscv_dsp_cfft_rd2_f32+0x70>
    1d9c:	ffe48393          	addi	t2,s1,-2
    1da0:	82a2                	c.mv	t0,s0
    1da2:	4509                	c.li	a0,2
    1da4:	0c038e63          	beqz	t2,1e80 <riscv_dsp_cfft_rd2_f32+0x208>
    1da8:	00a00f93          	li	t6,10
    1dac:	409f8fb3          	sub	t6,t6,s1
    1db0:	a15f988b          	addigp	a7,-1516 # 80214 <riscv_dsp_cos_table_f32_1024+0x8>
    1db4:	10000313          	li	t1,256
    1db8:	0012d293          	srli	t0,t0,0x1
    1dbc:	00229f13          	slli	t5,t0,0x2
    1dc0:	0c5e8e5b          	lea.w	t3,t4,t0
    1dc4:	c915                	c.beqz	a0,1df8 <riscv_dsp_cfft_rd2_f32+0x180>
    1dc6:	00329613          	slli	a2,t0,0x3
    1dca:	8772                	c.mv	a4,t3
    1dcc:	87f6                	c.mv	a5,t4
    1dce:	86aa                	c.mv	a3,a0
    1dd0:	6398                	c.flw	fa4,0(a5)
    1dd2:	63dc                	c.flw	fa5,4(a5)
    1dd4:	6310                	c.flw	fa2,0(a4)
    1dd6:	6354                	c.flw	fa3,4(a4)
    1dd8:	16fd                	c.addi	a3,-1
    1dda:	00c77553          	fadd.s	fa0,fa4,fa2
    1dde:	00d7f5d3          	fadd.s	fa1,fa5,fa3
    1de2:	08c77753          	fsub.s	fa4,fa4,fa2
    1de6:	e388                	c.fsw	fa0,0(a5)
    1de8:	08d7f7d3          	fsub.s	fa5,fa5,fa3
    1dec:	e3cc                	c.fsw	fa1,4(a5)
    1dee:	97b2                	c.add	a5,a2
    1df0:	e318                	c.fsw	fa4,0(a4)
    1df2:	e35c                	c.fsw	fa5,4(a4)
    1df4:	9732                	c.add	a4,a2
    1df6:	fee9                	c.bnez	a3,1dd0 <riscv_dsp_cfft_rd2_f32+0x158>
    1df8:	00329613          	slli	a2,t0,0x3
    1dfc:	85ca                	c.mv	a1,s2
    1dfe:	4801                	c.li	a6,0
    1e00:	07c90c63          	beq	s2,t3,1e78 <riscv_dsp_cfft_rd2_f32+0x200>
    1e04:	00a80833          	add	a6,a6,a0
    1e08:	01f817b3          	sll	a5,a6,t6
    1e0c:	40f30733          	sub	a4,t1,a5
    1e10:	22e05663          	blez	a4,203c <riscv_dsp_cfft_rd2_f32+0x3c4>
    1e14:	0cf887db          	lea.w	a5,a7,a5
    1e18:	0ce8875b          	lea.w	a4,a7,a4
    1e1c:	0007a007          	flw	ft0,0(a5)
    1e20:	00072087          	flw	ft1,0(a4)
    1e24:	01e58733          	add	a4,a1,t5
    1e28:	87ae                	c.mv	a5,a1
    1e2a:	86aa                	c.mv	a3,a0
    1e2c:	04050263          	beqz	a0,1e70 <riscv_dsp_cfft_rd2_f32+0x1f8>
    1e30:	630c                	c.flw	fa1,0(a4)
    1e32:	6390                	c.flw	fa2,0(a5)
    1e34:	63d8                	c.flw	fa4,4(a5)
    1e36:	6348                	c.flw	fa0,4(a4)
    1e38:	08b676d3          	fsub.s	fa3,fa2,fa1
    1e3c:	16fd                	c.addi	a3,-1
    1e3e:	08a777d3          	fsub.s	fa5,fa4,fa0
    1e42:	00b67653          	fadd.s	fa2,fa2,fa1
    1e46:	1006f5d3          	fmul.s	fa1,fa3,ft0
    1e4a:	1017f153          	fmul.s	ft2,fa5,ft1
    1e4e:	e390                	c.fsw	fa2,0(a5)
    1e50:	1007f7d3          	fmul.s	fa5,fa5,ft0
    1e54:	1016f6d3          	fmul.s	fa3,fa3,ft1
    1e58:	00a77753          	fadd.s	fa4,fa4,fa0
    1e5c:	0025f5d3          	fadd.s	fa1,fa1,ft2
    1e60:	08d7f7d3          	fsub.s	fa5,fa5,fa3
    1e64:	e3d8                	c.fsw	fa4,4(a5)
    1e66:	97b2                	c.add	a5,a2
    1e68:	e30c                	c.fsw	fa1,0(a4)
    1e6a:	e35c                	c.fsw	fa5,4(a4)
    1e6c:	9732                	c.add	a4,a2
    1e6e:	f2e9                	c.bnez	a3,1e30 <riscv_dsp_cfft_rd2_f32+0x1b8>
    1e70:	00858593          	addi	a1,a1,8
    1e74:	f8be18e3          	bne	t3,a1,1e04 <riscv_dsp_cfft_rd2_f32+0x18c>
    1e78:	13fd                	c.addi	t2,-1
    1e7a:	0506                	c.slli	a0,0x1
    1e7c:	f2039ee3          	bnez	t2,1db8 <riscv_dsp_cfft_rd2_f32+0x140>
    1e80:	46a1                	c.li	a3,8
    1e82:	009696b3          	sll	a3,a3,s1
    1e86:	00de8733          	add	a4,t4,a3
    1e8a:	87f6                	c.mv	a5,t4
    1e8c:	06ee8063          	beq	t4,a4,1eec <riscv_dsp_cfft_rd2_f32+0x274>
    1e90:	6390                	c.flw	fa2,0(a5)
    1e92:	0087a087          	flw	ft1,8(a5)
    1e96:	00c7a007          	flw	ft0,12(a5)
    1e9a:	63d4                	c.flw	fa3,4(a5)
    1e9c:	001671d3          	fadd.s	ft3,fa2,ft1
    1ea0:	6b98                	c.flw	fa4,16(a5)
    1ea2:	08167653          	fsub.s	fa2,fa2,ft1
    1ea6:	6bdc                	c.flw	fa5,20(a5)
    1ea8:	6f88                	c.flw	fa0,24(a5)
    1eaa:	6fcc                	c.flw	fa1,28(a5)
    1eac:	0006f153          	fadd.s	ft2,fa3,ft0
    1eb0:	02078793          	addi	a5,a5,32
    1eb4:	0806f6d3          	fsub.s	fa3,fa3,ft0
    1eb8:	fec7a427          	fsw	fa2,-24(a5)
    1ebc:	00a77053          	fadd.s	ft0,fa4,fa0
    1ec0:	fe37a027          	fsw	ft3,-32(a5)
    1ec4:	00b7f653          	fadd.s	fa2,fa5,fa1
    1ec8:	fed7a627          	fsw	fa3,-20(a5)
    1ecc:	08a77753          	fsub.s	fa4,fa4,fa0
    1ed0:	fe07a827          	fsw	ft0,-16(a5)
    1ed4:	08b7f7d3          	fsub.s	fa5,fa5,fa1
    1ed8:	fec7aa27          	fsw	fa2,-12(a5)
    1edc:	fe27a227          	fsw	ft2,-28(a5)
    1ee0:	fee7ac27          	fsw	fa4,-8(a5)
    1ee4:	fef7ae27          	fsw	fa5,-4(a5)
    1ee8:	faf714e3          	bne	a4,a5,1e90 <riscv_dsp_cfft_rd2_f32+0x218>
    1eec:	00145813          	srli	a6,s0,0x1
    1ef0:	0f0e87db          	lea.d	a5,t4,a6
    1ef4:	438c                	c.lw	a1,0(a5)
    1ef6:	008ea603          	lw	a2,8(t4)
    1efa:	16f1                	c.addi	a3,-4
    1efc:	00bea423          	sw	a1,8(t4)
    1f00:	c390                	c.sw	a2,0(a5)
    1f02:	873e                	c.mv	a4,a5
    1f04:	00de88b3          	add	a7,t4,a3
    1f08:	43dc                	c.lw	a5,4(a5)
    1f0a:	8009                	c.srli	s0,0x2
    1f0c:	00ceae03          	lw	t3,12(t4)
    1f10:	00884333          	xor	t1,a6,s0
    1f14:	00fea623          	sw	a5,12(t4)
    1f18:	010e8613          	addi	a2,t4,16
    1f1c:	fdc88513          	addi	a0,a7,-36
    1f20:	87c2                	c.mv	a5,a6
    1f22:	4591                	c.li	a1,4
    1f24:	fff48493          	addi	s1,s1,-1
    1f28:	01c72223          	sw	t3,4(a4)
    1f2c:	0067c7b3          	xor	a5,a5,t1
    1f30:	00f47733          	and	a4,s0,a5
    1f34:	eb01                	c.bnez	a4,1f44 <riscv_dsp_cfft_rd2_f32+0x2cc>
    1f36:	8722                	c.mv	a4,s0
    1f38:	8305                	c.srli	a4,0x1
    1f3a:	8fb9                	c.xor	a5,a4
    1f3c:	00f776b3          	and	a3,a4,a5
    1f40:	fe068ce3          	beqz	a3,1f38 <riscv_dsp_cfft_rd2_f32+0x2c0>
    1f44:	ffe58713          	addi	a4,a1,-2
    1f48:	04f77863          	bgeu	a4,a5,1f98 <riscv_dsp_cfft_rd2_f32+0x320>
    1f4c:	0efe875b          	lea.d	a4,t4,a5
    1f50:	00072f03          	lw	t5,0(a4)
    1f54:	00062e03          	lw	t3,0(a2)
    1f58:	01e62023          	sw	t5,0(a2)
    1f5c:	01c72023          	sw	t3,0(a4)
    1f60:	86ba                	c.mv	a3,a4
    1f62:	00472e03          	lw	t3,4(a4)
    1f66:	00462f03          	lw	t5,4(a2)
    1f6a:	40f00733          	neg	a4,a5
    1f6e:	01c62223          	sw	t3,4(a2)
    1f72:	01e6a223          	sw	t5,4(a3)
    1f76:	0ee88e5b          	lea.d	t3,a7,a4
    1f7a:	000e2f03          	lw	t5,0(t3)
    1f7e:	4954                	c.lw	a3,20(a0)
    1f80:	01e52a23          	sw	t5,20(a0)
    1f84:	00de2023          	sw	a3,0(t3)
    1f88:	8772                	c.mv	a4,t3
    1f8a:	4914                	c.lw	a3,16(a0)
    1f8c:	ffce2e03          	lw	t3,-4(t3)
    1f90:	01c52823          	sw	t3,16(a0)
    1f94:	fed72e23          	sw	a3,-4(a4)
    1f98:	97c2                	c.add	a5,a6
    1f9a:	0efe875b          	lea.d	a4,t4,a5
    1f9e:	00072e03          	lw	t3,0(a4)
    1fa2:	4614                	c.lw	a3,8(a2)
    1fa4:	01c62423          	sw	t3,8(a2)
    1fa8:	c314                	c.sw	a3,0(a4)
    1faa:	87ba                	c.mv	a5,a4
    1fac:	4354                	c.lw	a3,4(a4)
    1fae:	4658                	c.lw	a4,12(a2)
    1fb0:	c654                	c.sw	a3,12(a2)
    1fb2:	c3d8                	c.sw	a4,4(a5)
    1fb4:	0d05fe63          	bgeu	a1,a6,2090 <riscv_dsp_cfft_rd2_f32+0x418>
    1fb8:	e69587ff          	bitrev	a5,a1,s1
    1fbc:	04f5f863          	bgeu	a1,a5,200c <riscv_dsp_cfft_rd2_f32+0x394>
    1fc0:	0efe875b          	lea.d	a4,t4,a5
    1fc4:	00072f03          	lw	t5,0(a4)
    1fc8:	01062e03          	lw	t3,16(a2)
    1fcc:	01e62823          	sw	t5,16(a2)
    1fd0:	01c72023          	sw	t3,0(a4)
    1fd4:	86ba                	c.mv	a3,a4
    1fd6:	00472e03          	lw	t3,4(a4)
    1fda:	01462f03          	lw	t5,20(a2)
    1fde:	40f00733          	neg	a4,a5
    1fe2:	01c62a23          	sw	t3,20(a2)
    1fe6:	01e6a223          	sw	t5,4(a3)
    1fea:	0ee88e5b          	lea.d	t3,a7,a4
    1fee:	000e2f03          	lw	t5,0(t3)
    1ff2:	4154                	c.lw	a3,4(a0)
    1ff4:	01e52223          	sw	t5,4(a0)
    1ff8:	00de2023          	sw	a3,0(t3)
    1ffc:	8772                	c.mv	a4,t3
    1ffe:	4114                	c.lw	a3,0(a0)
    2000:	ffce2e03          	lw	t3,-4(t3)
    2004:	01c52023          	sw	t3,0(a0)
    2008:	fed72e23          	sw	a3,-4(a4)
    200c:	97c2                	c.add	a5,a6
    200e:	0efe86db          	lea.d	a3,t4,a5
    2012:	0006af03          	lw	t5,0(a3)
    2016:	01862e03          	lw	t3,24(a2)
    201a:	01e62c23          	sw	t5,24(a2)
    201e:	01c6a023          	sw	t3,0(a3)
    2022:	8736                	c.mv	a4,a3
    2024:	0046ae03          	lw	t3,4(a3)
    2028:	4e54                	c.lw	a3,28(a2)
    202a:	01c62e23          	sw	t3,28(a2)
    202e:	1501                	c.addi	a0,-32
    2030:	0591                	c.addi	a1,4
    2032:	02060613          	addi	a2,a2,32
    2036:	c354                	c.sw	a3,4(a4)
    2038:	ef5ff06f          	j	1f2c <riscv_dsp_cfft_rd2_f32+0x2b4>
    203c:	f0078713          	addi	a4,a5,-256
    2040:	40e306b3          	sub	a3,t1,a4
    2044:	00d05e63          	blez	a3,2060 <riscv_dsp_cfft_rd2_f32+0x3e8>
    2048:	0cd886db          	lea.w	a3,a7,a3
    204c:	0006a007          	flw	ft0,0(a3)
    2050:	0ce8875b          	lea.w	a4,a7,a4
    2054:	00072087          	flw	ft1,0(a4)
    2058:	20001053          	fneg.s	ft0,ft0
    205c:	dc9ff06f          	j	1e24 <riscv_dsp_cfft_rd2_f32+0x1ac>
    2060:	e0078793          	addi	a5,a5,-512
    2064:	0cf8875b          	lea.w	a4,a7,a5
    2068:	00072087          	flw	ft1,0(a4)
    206c:	40f307b3          	sub	a5,t1,a5
    2070:	0cf8875b          	lea.w	a4,a7,a5
    2074:	00072007          	flw	ft0,0(a4)
    2078:	201090d3          	fneg.s	ft1,ft1
    207c:	daf054e3          	blez	a5,1e24 <riscv_dsp_cfft_rd2_f32+0x1ac>
    2080:	200017d3          	fneg.s	fa5,ft0
    2084:	20108053          	fmv.s	ft0,ft1
    2088:	20f780d3          	fmv.s	ft1,fa5
    208c:	d99ff06f          	j	1e24 <riscv_dsp_cfft_rd2_f32+0x1ac>
    2090:	4432                	c.lwsp	s0,12(sp)
    2092:	44a2                	c.lwsp	s1,8(sp)
    2094:	4912                	c.lwsp	s2,4(sp)
    2096:	4501                	c.li	a0,0
    2098:	0141                	c.addi	sp,16
    209a:	8082                	c.jr	ra
    209c:	0001                	c.nop
	...

000020a0 <riscv_dsp_cfft_rd4_f32>:
    20a0:	7179                	c.addi16sp	sp,-48
    20a2:	cc56                	c.swsp	s5,24(sp)
    20a4:	4a85                	c.li	s5,1
    20a6:	00ba9ab3          	sll	s5,s5,a1
    20aa:	d04e                	c.swsp	s3,32(sp)
    20ac:	001ad993          	srli	s3,s5,0x1
    20b0:	c466                	c.swsp	s9,8(sp)
    20b2:	0f350cdb          	lea.d	s9,a0,s3
    20b6:	0d350e5b          	lea.w	t3,a0,s3
    20ba:	0d3c87db          	lea.w	a5,s9,s3
    20be:	000ca007          	flw	ft0,0(s9)
    20c2:	638c                	c.flw	fa1,0(a5)
    20c4:	6118                	c.flw	fa4,0(a0)
    20c6:	000e2787          	flw	fa5,0(t3)
    20ca:	ca5a                	c.swsp	s6,20(sp)
    20cc:	00077653          	fadd.s	fa2,fa4,ft0
    20d0:	c85e                	c.swsp	s7,16(sp)
    20d2:	00b7f553          	fadd.s	fa0,fa5,fa1
    20d6:	d622                	c.swsp	s0,44(sp)
    20d8:	08b7f7d3          	fsub.s	fa5,fa5,fa1
    20dc:	d426                	c.swsp	s1,40(sp)
    20de:	d24a                	c.swsp	s2,36(sp)
    20e0:	00a675d3          	fadd.s	fa1,fa2,fa0
    20e4:	ce52                	c.swsp	s4,28(sp)
    20e6:	c662                	c.swsp	s8,12(sp)
    20e8:	6154                	c.flw	fa3,4(a0)
    20ea:	08a67553          	fsub.s	fa0,fa2,fa0
    20ee:	e10c                	c.fsw	fa1,0(a0)
    20f0:	004ca107          	flw	ft2,4(s9)
    20f4:	0047a087          	flw	ft1,4(a5)
    20f8:	004e2607          	flw	fa2,4(t3)
    20fc:	08077753          	fsub.s	fa4,fa4,ft0
    2100:	00850b13          	addi	s6,a0,8
    2104:	00167053          	fadd.s	ft0,fa2,ft1
    2108:	8bae                	c.mv	s7,a1
    210a:	0026f5d3          	fadd.s	fa1,fa3,ft2
    210e:	82aa                	c.mv	t0,a0
    2110:	0826f6d3          	fsub.s	fa3,fa3,ft2
    2114:	08167653          	fsub.s	fa2,fa2,ft1
    2118:	0005f153          	fadd.s	ft2,fa1,ft0
    211c:	0805f5d3          	fsub.s	fa1,fa1,ft0
    2120:	00c770d3          	fadd.s	ft1,fa4,fa2
    2124:	00252227          	fsw	ft2,4(a0)
    2128:	08f6f053          	fsub.s	ft0,fa3,fa5
    212c:	00ae2027          	fsw	fa0,0(t3)
    2130:	08c77753          	fsub.s	fa4,fa4,fa2
    2134:	00be2227          	fsw	fa1,4(t3)
    2138:	00d7f7d3          	fadd.s	fa5,fa5,fa3
    213c:	001ca027          	fsw	ft1,0(s9)
    2140:	000ca227          	fsw	ft0,4(s9)
    2144:	e398                	c.fsw	fa4,0(a5)
    2146:	e3dc                	c.fsw	fa5,4(a5)
    2148:	256e0863          	beq	t3,s6,2398 <riscv_dsp_cfft_rd4_f32+0x2f8>
    214c:	47b1                	c.li	a5,12
    214e:	862a                	c.mv	a2,a0
    2150:	c4f9967f          	maddr32	a2,s3,a5
    2154:	00299713          	slli	a4,s3,0x2
    2158:	0721                	c.addi	a4,8
    215a:	48a9                	c.li	a7,10
    215c:	40b888b3          	sub	a7,a7,a1
    2160:	972a                	c.add	a4,a0
    2162:	85e6                	c.mv	a1,s9
    2164:	0621                	c.addi	a2,8
    2166:	87da                	c.mv	a5,s6
    2168:	430d                	c.li	t1,3
    216a:	4801                	c.li	a6,0
    216c:	a15f968b          	addigp	a3,-1516 # 80214 <riscv_dsp_cos_table_f32_1024+0x8>
    2170:	10000513          	li	a0,256
    2174:	0c80006f          	j	223c <riscv_dsp_cfft_rd4_f32+0x19c>
    2178:	0dd68edb          	lea.w	t4,a3,t4
    217c:	0de68f5b          	lea.w	t5,a3,t5
    2180:	000ea007          	flw	ft0,0(t4)
    2184:	000f2107          	flw	ft2,0(t5)
    2188:	100670d3          	fmul.s	ft1,fa2,ft0
    218c:	01181eb3          	sll	t4,a6,a7
    2190:	1026f1d3          	fmul.s	ft3,fa3,ft2
    2194:	41d50f33          	sub	t5,a0,t4
    2198:	1006f6d3          	fmul.s	fa3,fa3,ft0
    219c:	10267653          	fmul.s	fa2,fa2,ft2
    21a0:	0030f0d3          	fadd.s	ft1,ft1,ft3
    21a4:	00a77053          	fadd.s	ft0,fa4,fa0
    21a8:	08c6f6d3          	fsub.s	fa3,fa3,fa2
    21ac:	00172027          	fsw	ft1,0(a4)
    21b0:	08f5f653          	fsub.s	fa2,fa1,fa5
    21b4:	08a77753          	fsub.s	fa4,fa4,fa0
    21b8:	e354                	c.fsw	fa3,4(a4)
    21ba:	00b7f7d3          	fadd.s	fa5,fa5,fa1
    21be:	13e05363          	blez	t5,22e4 <riscv_dsp_cfft_rd4_f32+0x244>
    21c2:	0dd68edb          	lea.w	t4,a3,t4
    21c6:	0de68f5b          	lea.w	t5,a3,t5
    21ca:	000ea687          	flw	fa3,0(t4)
    21ce:	000f2507          	flw	fa0,0(t5)
    21d2:	0001                	c.nop
    21d4:	10d075d3          	fmul.s	fa1,ft0,fa3
    21d8:	01131eb3          	sll	t4,t1,a7
    21dc:	10a670d3          	fmul.s	ft1,fa2,fa0
    21e0:	41d50f33          	sub	t5,a0,t4
    21e4:	10d676d3          	fmul.s	fa3,fa2,fa3
    21e8:	10a07053          	fmul.s	ft0,ft0,fa0
    21ec:	0015f5d3          	fadd.s	fa1,fa1,ft1
    21f0:	0806f6d3          	fsub.s	fa3,fa3,ft0
    21f4:	e58c                	c.fsw	fa1,8(a1)
    21f6:	e5d4                	c.fsw	fa3,12(a1)
    21f8:	0de05463          	blez	t5,22c0 <riscv_dsp_cfft_rd4_f32+0x220>
    21fc:	0dd68edb          	lea.w	t4,a3,t4
    2200:	0de68f5b          	lea.w	t5,a3,t5
    2204:	000ea607          	flw	fa2,0(t4)
    2208:	000f2587          	flw	fa1,0(t5)
    220c:	10c776d3          	fmul.s	fa3,fa4,fa2
    2210:	0621                	c.addi	a2,8
    2212:	10b7f553          	fmul.s	fa0,fa5,fa1
    2216:	07a1                	c.addi	a5,8
    2218:	10c7f7d3          	fmul.s	fa5,fa5,fa2
    221c:	05a1                	c.addi	a1,8
    221e:	10b77753          	fmul.s	fa4,fa4,fa1
    2222:	0721                	c.addi	a4,8
    2224:	00a6f6d3          	fadd.s	fa3,fa3,fa0
    2228:	00330313          	addi	t1,t1,3
    222c:	08e7f7d3          	fsub.s	fa5,fa5,fa4
    2230:	fed62c27          	fsw	fa3,-8(a2)
    2234:	fef62e27          	fsw	fa5,-4(a2)
    2238:	16fe0063          	beq	t3,a5,2398 <riscv_dsp_cfft_rd4_f32+0x2f8>
    223c:	0085a007          	flw	ft0,8(a1)
    2240:	6208                	c.flw	fa0,0(a2)
    2242:	631c                	c.flw	fa5,0(a4)
    2244:	6398                	c.flw	fa4,0(a5)
    2246:	63cc                	c.flw	fa1,4(a5)
    2248:	00a7f6d3          	fadd.s	fa3,fa5,fa0
    224c:	0805                	c.addi	a6,1
    224e:	00077653          	fadd.s	fa2,fa4,ft0
    2252:	00181e93          	slli	t4,a6,0x1
    2256:	08077753          	fsub.s	fa4,fa4,ft0
    225a:	011e9eb3          	sll	t4,t4,a7
    225e:	08a7f7d3          	fsub.s	fa5,fa5,fa0
    2262:	41d50f33          	sub	t5,a0,t4
    2266:	00d67053          	fadd.s	ft0,fa2,fa3
    226a:	08d67653          	fsub.s	fa2,fa2,fa3
    226e:	0007a027          	fsw	ft0,0(a5)
    2272:	00462087          	flw	ft1,4(a2)
    2276:	00c5a107          	flw	ft2,12(a1)
    227a:	6348                	c.flw	fa0,4(a4)
    227c:	0025f6d3          	fadd.s	fa3,fa1,ft2
    2280:	00157053          	fadd.s	ft0,fa0,ft1
    2284:	08157553          	fsub.s	fa0,fa0,ft1
    2288:	0825f5d3          	fsub.s	fa1,fa1,ft2
    228c:	0006f0d3          	fadd.s	ft1,fa3,ft0
    2290:	0806f6d3          	fsub.s	fa3,fa3,ft0
    2294:	0017a227          	fsw	ft1,4(a5)
    2298:	efe040e3          	bgtz	t5,2178 <riscv_dsp_cfft_rd4_f32+0xd8>
    229c:	f00e8f13          	addi	t5,t4,-256
    22a0:	41e50fb3          	sub	t6,a0,t5
    22a4:	07f05263          	blez	t6,2308 <riscv_dsp_cfft_rd4_f32+0x268>
    22a8:	0df68fdb          	lea.w	t6,a3,t6
    22ac:	000fa007          	flw	ft0,0(t6)
    22b0:	0de68f5b          	lea.w	t5,a3,t5
    22b4:	000f2107          	flw	ft2,0(t5)
    22b8:	20001053          	fneg.s	ft0,ft0
    22bc:	ecdff06f          	j	2188 <riscv_dsp_cfft_rd4_f32+0xe8>
    22c0:	f00e8f13          	addi	t5,t4,-256
    22c4:	41e50fb3          	sub	t6,a0,t5
    22c8:	07f05863          	blez	t6,2338 <riscv_dsp_cfft_rd4_f32+0x298>
    22cc:	0df68fdb          	lea.w	t6,a3,t6
    22d0:	000fa607          	flw	fa2,0(t6)
    22d4:	0de68f5b          	lea.w	t5,a3,t5
    22d8:	000f2587          	flw	fa1,0(t5)
    22dc:	20c61653          	fneg.s	fa2,fa2
    22e0:	f2dff06f          	j	220c <riscv_dsp_cfft_rd4_f32+0x16c>
    22e4:	f00e8f13          	addi	t5,t4,-256
    22e8:	41e50fb3          	sub	t6,a0,t5
    22ec:	07f05e63          	blez	t6,2368 <riscv_dsp_cfft_rd4_f32+0x2c8>
    22f0:	0df68fdb          	lea.w	t6,a3,t6
    22f4:	000fa687          	flw	fa3,0(t6)
    22f8:	0de68f5b          	lea.w	t5,a3,t5
    22fc:	000f2507          	flw	fa0,0(t5)
    2300:	20d696d3          	fneg.s	fa3,fa3
    2304:	ed1ff06f          	j	21d4 <riscv_dsp_cfft_rd4_f32+0x134>
    2308:	e00e8e93          	addi	t4,t4,-512
    230c:	0dd68f5b          	lea.w	t5,a3,t4
    2310:	000f2107          	flw	ft2,0(t5)
    2314:	41d50eb3          	sub	t4,a0,t4
    2318:	0dd68f5b          	lea.w	t5,a3,t4
    231c:	000f2007          	flw	ft0,0(t5)
    2320:	20211153          	fneg.s	ft2,ft2
    2324:	e7d052e3          	blez	t4,2188 <riscv_dsp_cfft_rd4_f32+0xe8>
    2328:	200010d3          	fneg.s	ft1,ft0
    232c:	20210053          	fmv.s	ft0,ft2
    2330:	20108153          	fmv.s	ft2,ft1
    2334:	e55ff06f          	j	2188 <riscv_dsp_cfft_rd4_f32+0xe8>
    2338:	e00e8e93          	addi	t4,t4,-512
    233c:	0dd68f5b          	lea.w	t5,a3,t4
    2340:	000f2587          	flw	fa1,0(t5)
    2344:	41d50eb3          	sub	t4,a0,t4
    2348:	0dd68f5b          	lea.w	t5,a3,t4
    234c:	000f2607          	flw	fa2,0(t5)
    2350:	20b595d3          	fneg.s	fa1,fa1
    2354:	ebd05ce3          	blez	t4,220c <riscv_dsp_cfft_rd4_f32+0x16c>
    2358:	20c616d3          	fneg.s	fa3,fa2
    235c:	20b58653          	fmv.s	fa2,fa1
    2360:	20d685d3          	fmv.s	fa1,fa3
    2364:	ea9ff06f          	j	220c <riscv_dsp_cfft_rd4_f32+0x16c>
    2368:	e00e8e93          	addi	t4,t4,-512
    236c:	0dd68f5b          	lea.w	t5,a3,t4
    2370:	000f2507          	flw	fa0,0(t5)
    2374:	41d50eb3          	sub	t4,a0,t4
    2378:	0dd68f5b          	lea.w	t5,a3,t4
    237c:	000f2687          	flw	fa3,0(t5)
    2380:	20a51553          	fneg.s	fa0,fa0
    2384:	e5d058e3          	blez	t4,21d4 <riscv_dsp_cfft_rd4_f32+0x134>
    2388:	20d695d3          	fneg.s	fa1,fa3
    238c:	20a506d3          	fmv.s	fa3,fa0
    2390:	20b58553          	fmv.s	fa0,fa1
    2394:	e41ff06f          	j	21d4 <riscv_dsp_cfft_rd4_f32+0x134>
    2398:	001bda13          	srli	s4,s7,0x1
    239c:	1a79                	c.addi	s4,-2
    239e:	844e                	c.mv	s0,s3
    23a0:	4e91                	c.li	t4,4
    23a2:	200a0363          	beqz	s4,25a8 <riscv_dsp_cfft_rd4_f32+0x508>
    23a6:	4f29                	c.li	t5,10
    23a8:	417f0f33          	sub	t5,t5,s7
    23ac:	00c00c13          	li	s8,12
    23b0:	a15f988b          	addigp	a7,-1516 # 80214 <riscv_dsp_cos_table_f32_1024+0x8>
    23b4:	10000e13          	li	t3,256
    23b8:	8009                	c.srli	s0,0x2
    23ba:	00241393          	slli	t2,s0,0x2
    23be:	0c828fdb          	lea.w	t6,t0,s0
    23c2:	080e8763          	beqz	t4,2450 <riscv_dsp_cfft_rd4_f32+0x3b0>
    23c6:	00441593          	slli	a1,s0,0x4
    23ca:	007f8633          	add	a2,t6,t2
    23ce:	86fe                	c.mv	a3,t6
    23d0:	0e8f875b          	lea.d	a4,t6,s0
    23d4:	8796                	c.mv	a5,t0
    23d6:	8576                	c.mv	a0,t4
    23d8:	00062007          	flw	ft0,0(a2)
    23dc:	630c                	c.flw	fa1,0(a4)
    23de:	6398                	c.flw	fa4,0(a5)
    23e0:	629c                	c.flw	fa5,0(a3)
    23e2:	63d4                	c.flw	fa3,4(a5)
    23e4:	00077653          	fadd.s	fa2,fa4,ft0
    23e8:	157d                	c.addi	a0,-1
    23ea:	00b7f553          	fadd.s	fa0,fa5,fa1
    23ee:	08b7f7d3          	fsub.s	fa5,fa5,fa1
    23f2:	08077753          	fsub.s	fa4,fa4,ft0
    23f6:	00a675d3          	fadd.s	fa1,fa2,fa0
    23fa:	08a67553          	fsub.s	fa0,fa2,fa0
    23fe:	e38c                	c.fsw	fa1,0(a5)
    2400:	00462107          	flw	ft2,4(a2)
    2404:	00472087          	flw	ft1,4(a4)
    2408:	62d0                	c.flw	fa2,4(a3)
    240a:	0026f5d3          	fadd.s	fa1,fa3,ft2
    240e:	00167053          	fadd.s	ft0,fa2,ft1
    2412:	0826f6d3          	fsub.s	fa3,fa3,ft2
    2416:	08167653          	fsub.s	fa2,fa2,ft1
    241a:	0005f153          	fadd.s	ft2,fa1,ft0
    241e:	0805f5d3          	fsub.s	fa1,fa1,ft0
    2422:	00c770d3          	fadd.s	ft1,fa4,fa2
    2426:	0027a227          	fsw	ft2,4(a5)
    242a:	08f6f053          	fsub.s	ft0,fa3,fa5
    242e:	e288                	c.fsw	fa0,0(a3)
    2430:	08c77753          	fsub.s	fa4,fa4,fa2
    2434:	e2cc                	c.fsw	fa1,4(a3)
    2436:	00d7f7d3          	fadd.s	fa5,fa5,fa3
    243a:	00162027          	fsw	ft1,0(a2)
    243e:	00062227          	fsw	ft0,4(a2)
    2442:	e318                	c.fsw	fa4,0(a4)
    2444:	97ae                	c.add	a5,a1
    2446:	e35c                	c.fsw	fa5,4(a4)
    2448:	962e                	c.add	a2,a1
    244a:	96ae                	c.add	a3,a1
    244c:	972e                	c.add	a4,a1
    244e:	f549                	c.bnez	a0,23d8 <riscv_dsp_cfft_rd4_f32+0x338>
    2450:	15fb0863          	beq	s6,t6,25a0 <riscv_dsp_cfft_rd4_f32+0x500>
    2454:	03840933          	mul	s2,s0,s8
    2458:	00441593          	slli	a1,s0,0x4
    245c:	00341493          	slli	s1,s0,0x3
    2460:	885a                	c.mv	a6,s6
    2462:	4301                	c.li	t1,0
    2464:	01d30333          	add	t1,t1,t4
    2468:	01e317b3          	sll	a5,t1,t5
    246c:	40fe0733          	sub	a4,t3,a5
    2470:	36e05663          	blez	a4,27dc <riscv_dsp_cfft_rd4_f32+0x73c>
    2474:	0cf887db          	lea.w	a5,a7,a5
    2478:	0ce8875b          	lea.w	a4,a7,a4
    247c:	0007a287          	flw	ft5,0(a5)
    2480:	00072807          	flw	fa6,0(a4)
    2484:	00131793          	slli	a5,t1,0x1
    2488:	01e79733          	sll	a4,a5,t5
    248c:	40ee06b3          	sub	a3,t3,a4
    2490:	2ed05c63          	blez	a3,2788 <riscv_dsp_cfft_rd4_f32+0x6e8>
    2494:	0ce8875b          	lea.w	a4,a7,a4
    2498:	0cd886db          	lea.w	a3,a7,a3
    249c:	00072207          	flw	ft4,0(a4)
    24a0:	0006a387          	flw	ft7,0(a3)
    24a4:	006787b3          	add	a5,a5,t1
    24a8:	01e797b3          	sll	a5,a5,t5
    24ac:	40fe0733          	sub	a4,t3,a5
    24b0:	30e05463          	blez	a4,27b8 <riscv_dsp_cfft_rd4_f32+0x718>
    24b4:	0cf887db          	lea.w	a5,a7,a5
    24b8:	0ce8875b          	lea.w	a4,a7,a4
    24bc:	0007a187          	flw	ft3,0(a5)
    24c0:	00072307          	flw	ft6,0(a4)
    24c4:	0c0e8a63          	beqz	t4,2598 <riscv_dsp_cfft_rd4_f32+0x4f8>
    24c8:	01048633          	add	a2,s1,a6
    24cc:	010386b3          	add	a3,t2,a6
    24d0:	01280733          	add	a4,a6,s2
    24d4:	87c2                	c.mv	a5,a6
    24d6:	8576                	c.mv	a0,t4
    24d8:	00062007          	flw	ft0,0(a2)
    24dc:	6308                	c.flw	fa0,0(a4)
    24de:	6398                	c.flw	fa4,0(a5)
    24e0:	629c                	c.flw	fa5,0(a3)
    24e2:	63d0                	c.flw	fa2,4(a5)
    24e4:	000776d3          	fadd.s	fa3,fa4,ft0
    24e8:	157d                	c.addi	a0,-1
    24ea:	00a7f5d3          	fadd.s	fa1,fa5,fa0
    24ee:	08a7f7d3          	fsub.s	fa5,fa5,fa0
    24f2:	08077753          	fsub.s	fa4,fa4,ft0
    24f6:	00b6f553          	fadd.s	fa0,fa3,fa1
    24fa:	08b6f6d3          	fsub.s	fa3,fa3,fa1
    24fe:	e388                	c.fsw	fa0,0(a5)
    2500:	62cc                	c.flw	fa1,4(a3)
    2502:	6248                	c.flw	fa0,4(a2)
    2504:	00472007          	flw	ft0,4(a4)
    2508:	1046f8d3          	fmul.s	fa7,fa3,ft4
    250c:	00a67153          	fadd.s	ft2,fa2,fa0
    2510:	0005fe53          	fadd.s	ft8,fa1,ft0
    2514:	08a67553          	fsub.s	fa0,fa2,fa0
    2518:	0805f053          	fsub.s	ft0,fa1,ft0
    251c:	09c175d3          	fsub.s	fa1,ft2,ft8
    2520:	08f57653          	fsub.s	fa2,fa0,fa5
    2524:	000770d3          	fadd.s	ft1,fa4,ft0
    2528:	00a7f7d3          	fadd.s	fa5,fa5,fa0
    252c:	08077753          	fsub.s	fa4,fa4,ft0
    2530:	1075ffd3          	fmul.s	ft11,fa1,ft7
    2534:	1076f6d3          	fmul.s	fa3,fa3,ft7
    2538:	1045f5d3          	fmul.s	fa1,fa1,ft4
    253c:	1050f053          	fmul.s	ft0,ft1,ft5
    2540:	11067f53          	fmul.s	ft10,fa2,fa6
    2544:	1100f0d3          	fmul.s	ft1,ft1,fa6
    2548:	10567653          	fmul.s	fa2,fa2,ft5
    254c:	10377553          	fmul.s	fa0,fa4,ft3
    2550:	1067fed3          	fmul.s	ft9,fa5,ft6
    2554:	10677753          	fmul.s	fa4,fa4,ft6
    2558:	1037f7d3          	fmul.s	fa5,fa5,ft3
    255c:	01c17153          	fadd.s	ft2,ft2,ft8
    2560:	01f8f8d3          	fadd.s	fa7,fa7,ft11
    2564:	08d5f6d3          	fsub.s	fa3,fa1,fa3
    2568:	0027a227          	fsw	ft2,4(a5)
    256c:	01e07053          	fadd.s	ft0,ft0,ft10
    2570:	0116a027          	fsw	fa7,0(a3)
    2574:	08167653          	fsub.s	fa2,fa2,ft1
    2578:	e2d4                	c.fsw	fa3,4(a3)
    257a:	01d57553          	fadd.s	fa0,fa0,ft9
    257e:	00062027          	fsw	ft0,0(a2)
    2582:	08e7f7d3          	fsub.s	fa5,fa5,fa4
    2586:	e250                	c.fsw	fa2,4(a2)
    2588:	97ae                	c.add	a5,a1
    258a:	e308                	c.fsw	fa0,0(a4)
    258c:	962e                	c.add	a2,a1
    258e:	e35c                	c.fsw	fa5,4(a4)
    2590:	96ae                	c.add	a3,a1
    2592:	972e                	c.add	a4,a1
    2594:	f40512e3          	bnez	a0,24d8 <riscv_dsp_cfft_rd4_f32+0x438>
    2598:	00880813          	addi	a6,a6,8
    259c:	ed0f94e3          	bne	t6,a6,2464 <riscv_dsp_cfft_rd4_f32+0x3c4>
    25a0:	1a7d                	c.addi	s4,-1
    25a2:	0e8a                	c.slli	t4,0x2
    25a4:	e00a1ae3          	bnez	s4,23b8 <riscv_dsp_cfft_rd4_f32+0x318>
    25a8:	46a1                	c.li	a3,8
    25aa:	017696b3          	sll	a3,a3,s7
    25ae:	00d28733          	add	a4,t0,a3
    25b2:	8796                	c.mv	a5,t0
    25b4:	08e28263          	beq	t0,a4,2638 <riscv_dsp_cfft_rd4_f32+0x598>
    25b8:	0107a087          	flw	ft1,16(a5)
    25bc:	6f8c                	c.flw	fa1,24(a5)
    25be:	6398                	c.flw	fa4,0(a5)
    25c0:	679c                	c.flw	fa5,8(a5)
    25c2:	0147a007          	flw	ft0,20(a5)
    25c6:	00177553          	fadd.s	fa0,fa4,ft1
    25ca:	01c7a107          	flw	ft2,28(a5)
    25ce:	08177753          	fsub.s	fa4,fa4,ft1
    25d2:	63d4                	c.flw	fa3,4(a5)
    25d4:	00b7f0d3          	fadd.s	ft1,fa5,fa1
    25d8:	67d0                	c.flw	fa2,12(a5)
    25da:	08b7f7d3          	fsub.s	fa5,fa5,fa1
    25de:	02078793          	addi	a5,a5,32
    25e2:	0006f5d3          	fadd.s	fa1,fa3,ft0
    25e6:	001571d3          	fadd.s	ft3,fa0,ft1
    25ea:	0806f6d3          	fsub.s	fa3,fa3,ft0
    25ee:	08157553          	fsub.s	fa0,fa0,ft1
    25f2:	fe37a027          	fsw	ft3,-32(a5)
    25f6:	00267053          	fadd.s	ft0,fa2,ft2
    25fa:	08267653          	fsub.s	fa2,fa2,ft2
    25fe:	fea7a427          	fsw	fa0,-24(a5)
    2602:	08f6f553          	fsub.s	fa0,fa3,fa5
    2606:	0005f153          	fadd.s	ft2,fa1,ft0
    260a:	00d7f7d3          	fadd.s	fa5,fa5,fa3
    260e:	fea7aa27          	fsw	fa0,-12(a5)
    2612:	0805f5d3          	fsub.s	fa1,fa1,ft0
    2616:	fe27a227          	fsw	ft2,-28(a5)
    261a:	00c77053          	fadd.s	ft0,fa4,fa2
    261e:	fef7ae27          	fsw	fa5,-4(a5)
    2622:	08c77753          	fsub.s	fa4,fa4,fa2
    2626:	feb7a627          	fsw	fa1,-20(a5)
    262a:	fe07a827          	fsw	ft0,-16(a5)
    262e:	fee7ac27          	fsw	fa4,-8(a5)
    2632:	f8f713e3          	bne	a4,a5,25b8 <riscv_dsp_cfft_rd4_f32+0x518>
    2636:	0001                	c.nop
    2638:	000ca603          	lw	a2,0(s9)
    263c:	0082a783          	lw	a5,8(t0)
    2640:	0f32875b          	lea.d	a4,t0,s3
    2644:	00c2a423          	sw	a2,8(t0)
    2648:	16f1                	c.addi	a3,-4
    264a:	00fca023          	sw	a5,0(s9)
    264e:	00d28833          	add	a6,t0,a3
    2652:	435c                	c.lw	a5,4(a4)
    2654:	002ada93          	srli	s5,s5,0x2
    2658:	00c2a303          	lw	t1,12(t0)
    265c:	0159c8b3          	xor	a7,s3,s5
    2660:	00f2a623          	sw	a5,12(t0)
    2664:	01028613          	addi	a2,t0,16
    2668:	fdc80513          	addi	a0,a6,-36
    266c:	87ce                	c.mv	a5,s3
    266e:	4591                	c.li	a1,4
    2670:	fffb8b93          	addi	s7,s7,-1
    2674:	00672223          	sw	t1,4(a4)
    2678:	00f8c7b3          	xor	a5,a7,a5
    267c:	00faf733          	and	a4,s5,a5
    2680:	eb01                	c.bnez	a4,2690 <riscv_dsp_cfft_rd4_f32+0x5f0>
    2682:	8756                	c.mv	a4,s5
    2684:	8305                	c.srli	a4,0x1
    2686:	8fb9                	c.xor	a5,a4
    2688:	00f776b3          	and	a3,a4,a5
    268c:	fe068ce3          	beqz	a3,2684 <riscv_dsp_cfft_rd4_f32+0x5e4>
    2690:	ffe58713          	addi	a4,a1,-2
    2694:	04f77863          	bgeu	a4,a5,26e4 <riscv_dsp_cfft_rd4_f32+0x644>
    2698:	0ef2875b          	lea.d	a4,t0,a5
    269c:	00072e03          	lw	t3,0(a4)
    26a0:	00062303          	lw	t1,0(a2)
    26a4:	01c62023          	sw	t3,0(a2)
    26a8:	00672023          	sw	t1,0(a4)
    26ac:	86ba                	c.mv	a3,a4
    26ae:	00472303          	lw	t1,4(a4)
    26b2:	00462e03          	lw	t3,4(a2)
    26b6:	40f00733          	neg	a4,a5
    26ba:	00662223          	sw	t1,4(a2)
    26be:	01c6a223          	sw	t3,4(a3)
    26c2:	0ee8035b          	lea.d	t1,a6,a4
    26c6:	00032e03          	lw	t3,0(t1)
    26ca:	4954                	c.lw	a3,20(a0)
    26cc:	01c52a23          	sw	t3,20(a0)
    26d0:	00d32023          	sw	a3,0(t1)
    26d4:	871a                	c.mv	a4,t1
    26d6:	4914                	c.lw	a3,16(a0)
    26d8:	ffc32303          	lw	t1,-4(t1)
    26dc:	00652823          	sw	t1,16(a0)
    26e0:	fed72e23          	sw	a3,-4(a4)
    26e4:	97ce                	c.add	a5,s3
    26e6:	0ef2875b          	lea.d	a4,t0,a5
    26ea:	00072303          	lw	t1,0(a4)
    26ee:	4614                	c.lw	a3,8(a2)
    26f0:	00662423          	sw	t1,8(a2)
    26f4:	c314                	c.sw	a3,0(a4)
    26f6:	87ba                	c.mv	a5,a4
    26f8:	4354                	c.lw	a3,4(a4)
    26fa:	4658                	c.lw	a4,12(a2)
    26fc:	c654                	c.sw	a3,12(a2)
    26fe:	c3d8                	c.sw	a4,4(a5)
    2700:	1935f863          	bgeu	a1,s3,2890 <riscv_dsp_cfft_rd4_f32+0x7f0>
    2704:	e77587ff          	bitrev	a5,a1,s7
    2708:	04f5f863          	bgeu	a1,a5,2758 <riscv_dsp_cfft_rd4_f32+0x6b8>
    270c:	0ef2875b          	lea.d	a4,t0,a5
    2710:	00072e03          	lw	t3,0(a4)
    2714:	01062303          	lw	t1,16(a2)
    2718:	01c62823          	sw	t3,16(a2)
    271c:	00672023          	sw	t1,0(a4)
    2720:	86ba                	c.mv	a3,a4
    2722:	00472303          	lw	t1,4(a4)
    2726:	01462e03          	lw	t3,20(a2)
    272a:	40f00733          	neg	a4,a5
    272e:	00662a23          	sw	t1,20(a2)
    2732:	01c6a223          	sw	t3,4(a3)
    2736:	0ee8035b          	lea.d	t1,a6,a4
    273a:	00032e03          	lw	t3,0(t1)
    273e:	4154                	c.lw	a3,4(a0)
    2740:	01c52223          	sw	t3,4(a0)
    2744:	00d32023          	sw	a3,0(t1)
    2748:	871a                	c.mv	a4,t1
    274a:	4114                	c.lw	a3,0(a0)
    274c:	ffc32303          	lw	t1,-4(t1)
    2750:	00652023          	sw	t1,0(a0)
    2754:	fed72e23          	sw	a3,-4(a4)
    2758:	97ce                	c.add	a5,s3
    275a:	0ef286db          	lea.d	a3,t0,a5
    275e:	0006ae03          	lw	t3,0(a3)
    2762:	01862303          	lw	t1,24(a2)
    2766:	01c62c23          	sw	t3,24(a2)
    276a:	0066a023          	sw	t1,0(a3)
    276e:	8736                	c.mv	a4,a3
    2770:	0046a303          	lw	t1,4(a3)
    2774:	4e54                	c.lw	a3,28(a2)
    2776:	00662e23          	sw	t1,28(a2)
    277a:	1501                	c.addi	a0,-32
    277c:	0591                	c.addi	a1,4
    277e:	02060613          	addi	a2,a2,32
    2782:	c354                	c.sw	a3,4(a4)
    2784:	ef5ff06f          	j	2678 <riscv_dsp_cfft_rd4_f32+0x5d8>
    2788:	f0070693          	addi	a3,a4,-256
    278c:	40de0633          	sub	a2,t3,a3
    2790:	06c05863          	blez	a2,2800 <riscv_dsp_cfft_rd4_f32+0x760>
    2794:	0cc8865b          	lea.w	a2,a7,a2
    2798:	00062207          	flw	ft4,0(a2)
    279c:	006787b3          	add	a5,a5,t1
    27a0:	01e797b3          	sll	a5,a5,t5
    27a4:	0cd886db          	lea.w	a3,a7,a3
    27a8:	40fe0733          	sub	a4,t3,a5
    27ac:	0006a387          	flw	ft7,0(a3)
    27b0:	20421253          	fneg.s	ft4,ft4
    27b4:	d0e040e3          	bgtz	a4,24b4 <riscv_dsp_cfft_rd4_f32+0x414>
    27b8:	f0078713          	addi	a4,a5,-256
    27bc:	40ee06b3          	sub	a3,t3,a4
    27c0:	06d05863          	blez	a3,2830 <riscv_dsp_cfft_rd4_f32+0x790>
    27c4:	0cd886db          	lea.w	a3,a7,a3
    27c8:	0006a187          	flw	ft3,0(a3)
    27cc:	0ce8875b          	lea.w	a4,a7,a4
    27d0:	00072307          	flw	ft6,0(a4)
    27d4:	203191d3          	fneg.s	ft3,ft3
    27d8:	cedff06f          	j	24c4 <riscv_dsp_cfft_rd4_f32+0x424>
    27dc:	f0078713          	addi	a4,a5,-256
    27e0:	40ee06b3          	sub	a3,t3,a4
    27e4:	06d05e63          	blez	a3,2860 <riscv_dsp_cfft_rd4_f32+0x7c0>
    27e8:	0cd886db          	lea.w	a3,a7,a3
    27ec:	0006a287          	flw	ft5,0(a3)
    27f0:	0ce8875b          	lea.w	a4,a7,a4
    27f4:	00072807          	flw	fa6,0(a4)
    27f8:	205292d3          	fneg.s	ft5,ft5
    27fc:	c89ff06f          	j	2484 <riscv_dsp_cfft_rd4_f32+0x3e4>
    2800:	e0070713          	addi	a4,a4,-512
    2804:	0ce886db          	lea.w	a3,a7,a4
    2808:	0006a387          	flw	ft7,0(a3)
    280c:	40ee0733          	sub	a4,t3,a4
    2810:	0ce886db          	lea.w	a3,a7,a4
    2814:	0006a207          	flw	ft4,0(a3)
    2818:	207393d3          	fneg.s	ft7,ft7
    281c:	c8e054e3          	blez	a4,24a4 <riscv_dsp_cfft_rd4_f32+0x404>
    2820:	204217d3          	fneg.s	fa5,ft4
    2824:	20738253          	fmv.s	ft4,ft7
    2828:	20f783d3          	fmv.s	ft7,fa5
    282c:	c79ff06f          	j	24a4 <riscv_dsp_cfft_rd4_f32+0x404>
    2830:	e0078793          	addi	a5,a5,-512
    2834:	0cf8875b          	lea.w	a4,a7,a5
    2838:	00072307          	flw	ft6,0(a4)
    283c:	40fe07b3          	sub	a5,t3,a5
    2840:	0cf8875b          	lea.w	a4,a7,a5
    2844:	00072187          	flw	ft3,0(a4)
    2848:	20631353          	fneg.s	ft6,ft6
    284c:	c6f05ce3          	blez	a5,24c4 <riscv_dsp_cfft_rd4_f32+0x424>
    2850:	203197d3          	fneg.s	fa5,ft3
    2854:	206301d3          	fmv.s	ft3,ft6
    2858:	20f78353          	fmv.s	ft6,fa5
    285c:	c69ff06f          	j	24c4 <riscv_dsp_cfft_rd4_f32+0x424>
    2860:	e0078793          	addi	a5,a5,-512
    2864:	0cf8875b          	lea.w	a4,a7,a5
    2868:	00072807          	flw	fa6,0(a4)
    286c:	40fe07b3          	sub	a5,t3,a5
    2870:	0cf8875b          	lea.w	a4,a7,a5
    2874:	00072287          	flw	ft5,0(a4)
    2878:	21081853          	fneg.s	fa6,fa6
    287c:	c0f054e3          	blez	a5,2484 <riscv_dsp_cfft_rd4_f32+0x3e4>
    2880:	205297d3          	fneg.s	fa5,ft5
    2884:	210802d3          	fmv.s	ft5,fa6
    2888:	20f78853          	fmv.s	fa6,fa5
    288c:	bf9ff06f          	j	2484 <riscv_dsp_cfft_rd4_f32+0x3e4>
    2890:	5432                	c.lwsp	s0,44(sp)
    2892:	54a2                	c.lwsp	s1,40(sp)
    2894:	5912                	c.lwsp	s2,36(sp)
    2896:	5982                	c.lwsp	s3,32(sp)
    2898:	4a72                	c.lwsp	s4,28(sp)
    289a:	4ae2                	c.lwsp	s5,24(sp)
    289c:	4b52                	c.lwsp	s6,20(sp)
    289e:	4bc2                	c.lwsp	s7,16(sp)
    28a0:	4c32                	c.lwsp	s8,12(sp)
    28a2:	4ca2                	c.lwsp	s9,8(sp)
    28a4:	4501                	c.li	a0,0
    28a6:	6145                	c.addi16sp	sp,48
    28a8:	8082                	c.jr	ra
    28aa:	0001                	c.nop

000028ac <riscv_dsp_cmag_f32>:
    28ac:	ca65                	c.beqz	a2,299c <riscv_dsp_cmag_f32+0xf0>
    28ae:	00367793          	andi	a5,a2,3
    28b2:	fff60713          	addi	a4,a2,-1
    28b6:	c7bd                	c.beqz	a5,2924 <riscv_dsp_cmag_f32+0x78>
    28b8:	0417d65b          	beqc	a5,1,2904 <riscv_dsp_cmag_f32+0x58>
    28bc:	0227d25b          	beqc	a5,2,28e0 <riscv_dsp_cmag_f32+0x34>
    28c0:	611c                	c.flw	fa5,0(a0)
    28c2:	6158                	c.flw	fa4,4(a0)
    28c4:	863a                	c.mv	a2,a4
    28c6:	10f7f053          	fmul.s	ft0,fa5,fa5
    28ca:	0521                	c.addi	a0,8
    28cc:	10e770d3          	fmul.s	ft1,fa4,fa4
    28d0:	00458593          	addi	a1,a1,4
    28d4:	00107153          	fadd.s	ft2,ft0,ft1
    28d8:	580171d3          	fsqrt.s	ft3,ft2
    28dc:	fe35ae27          	fsw	ft3,-4(a1)
    28e0:	00052207          	flw	ft4,0(a0)
    28e4:	00452287          	flw	ft5,4(a0)
    28e8:	167d                	c.addi	a2,-1
    28ea:	10427353          	fmul.s	ft6,ft4,ft4
    28ee:	0521                	c.addi	a0,8
    28f0:	1052f3d3          	fmul.s	ft7,ft5,ft5
    28f4:	00458593          	addi	a1,a1,4
    28f8:	00737553          	fadd.s	fa0,ft6,ft7
    28fc:	580575d3          	fsqrt.s	fa1,fa0
    2900:	feb5ae27          	fsw	fa1,-4(a1)
    2904:	6110                	c.flw	fa2,0(a0)
    2906:	0591                	c.addi	a1,4
    2908:	167d                	c.addi	a2,-1
    290a:	6154                	c.flw	fa3,4(a0)
    290c:	10c67853          	fmul.s	fa6,fa2,fa2
    2910:	0521                	c.addi	a0,8
    2912:	10d6f8d3          	fmul.s	fa7,fa3,fa3
    2916:	01187e53          	fadd.s	ft8,fa6,fa7
    291a:	580e7ed3          	fsqrt.s	ft9,ft8
    291e:	ffd5ae27          	fsw	ft9,-4(a1)
    2922:	ce3d                	c.beqz	a2,29a0 <riscv_dsp_cmag_f32+0xf4>
    2924:	00052f07          	flw	ft10,0(a0)
    2928:	00452f87          	flw	ft11,4(a0)
    292c:	00852107          	flw	ft2,8(a0)
    2930:	00c52007          	flw	ft0,12(a0)
    2934:	6918                	c.flw	fa4,16(a0)
    2936:	01452187          	flw	ft3,20(a0)
    293a:	6d1c                	c.flw	fa5,24(a0)
    293c:	11ef72d3          	fmul.s	ft5,ft10,ft10
    2940:	05c1                	c.addi	a1,16
    2942:	01c52207          	flw	ft4,28(a0)
    2946:	11fff0d3          	fmul.s	ft1,ft11,ft11
    294a:	1671                	c.addi	a2,-4
    294c:	10217353          	fmul.s	ft6,ft2,ft2
    2950:	02050513          	addi	a0,a0,32
    2954:	100073d3          	fmul.s	ft7,ft0,ft0
    2958:	10e77853          	fmul.s	fa6,fa4,fa4
    295c:	1031f553          	fmul.s	fa0,ft3,ft3
    2960:	10f7f8d3          	fmul.s	fa7,fa5,fa5
    2964:	104275d3          	fmul.s	fa1,ft4,ft4
    2968:	0012f653          	fadd.s	fa2,ft5,ft1
    296c:	007376d3          	fadd.s	fa3,ft6,ft7
    2970:	00a87e53          	fadd.s	ft8,fa6,fa0
    2974:	00b8fed3          	fadd.s	ft9,fa7,fa1
    2978:	58067f53          	fsqrt.s	ft10,fa2
    297c:	5806ffd3          	fsqrt.s	ft11,fa3
    2980:	ffe5a827          	fsw	ft10,-16(a1)
    2984:	580e7153          	fsqrt.s	ft2,ft8
    2988:	fff5aa27          	fsw	ft11,-12(a1)
    298c:	580ef053          	fsqrt.s	ft0,ft9
    2990:	fe25ac27          	fsw	ft2,-8(a1)
    2994:	fe05ae27          	fsw	ft0,-4(a1)
    2998:	f80616e3          	bnez	a2,2924 <riscv_dsp_cmag_f32+0x78>
    299c:	00008067          	ret
    29a0:	8082                	c.jr	ra
    29a2:	0001                	c.nop

000029a4 <log>:
    29a4:	715d                	c.addi16sp	sp,-80
    29a6:	87ae                	c.mv	a5,a1
    29a8:	872a                	c.mv	a4,a0
    29aa:	4601                	c.li	a2,0
    29ac:	c01206b7          	lui	a3,0xc0120
    29b0:	000315b7          	lui	a1,0x31
    29b4:	c0e6167f          	add64	a2,a2,a4
    29b8:	8ff58593          	addi	a1,a1,-1793 # 308ff <BIN_SIZE+0x286c5>
    29bc:	c686                	c.swsp	ra,76(sp)
    29be:	c4a2                	c.swsp	s0,72(sp)
    29c0:	c2a6                	c.swsp	s1,68(sp)
    29c2:	c0ca                	c.swsp	s2,64(sp)
    29c4:	de4e                	c.swsp	s3,60(sp)
    29c6:	dc52                	c.swsp	s4,56(sp)
    29c8:	da56                	c.swsp	s5,52(sp)
    29ca:	d85a                	c.swsp	s6,48(sp)
    29cc:	d65e                	c.swsp	s7,44(sp)
    29ce:	d462                	c.swsp	s8,40(sp)
    29d0:	d266                	c.swsp	s9,36(sp)
    29d2:	d06a                	c.swsp	s10,32(sp)
    29d4:	ce6e                	c.swsp	s11,28(sp)
    29d6:	18d5fd63          	bgeu	a1,a3,2b70 <log+0x1cc>
    29da:	0107d513          	srli	a0,a5,0x10
    29de:	66a1                	c.lui	a3,0x8
    29e0:	ff050613          	addi	a2,a0,-16
    29e4:	fdf68693          	addi	a3,a3,-33 # 7fdf <_RAMCODE_VMA_END+0x175f>
    29e8:	883a                	c.mv	a6,a4
    29ea:	88be                	c.mv	a7,a5
    29ec:	36c6ec63          	bltu	a3,a2,2d64 <log+0x3c0>
    29f0:	4a01                	c.li	s4,0
    29f2:	c01a0ab7          	lui	s5,0xc01a0
    29f6:	c1481a7f          	add64	s4,a6,s4
    29fa:	4cdaa9db          	bfoz	s3,s5,19,13
    29fe:	08998913          	addi	s2,s3,137
    2a02:	e39f940b          	addigp	s0,-456 # 80638 <__log_data>
    2a06:	0912                	c.slli	s2,0x4
    2a08:	fff007b7          	lui	a5,0xfff00
    2a0c:	9922                	c.add	s2,s0
    2a0e:	0157f5b3          	and	a1,a5,s5
    2a12:	00092603          	lw	a2,0(s2)
    2a16:	00492683          	lw	a3,4(s2)
    2a1a:	4501                	c.li	a0,0
    2a1c:	c2a8157f          	sub64	a0,a6,a0
    2a20:	01c020ef          	jal	ra,4a3c <__subdf3>
    2a24:	00892603          	lw	a2,8(s2)
    2a28:	00c92683          	lw	a3,12(s2)
    2a2c:	09a5                	c.addi	s3,9
    2a2e:	0992                	c.slli	s3,0x4
    2a30:	00c020ef          	jal	ra,4a3c <__subdf3>
    2a34:	99a2                	c.add	s3,s0
    2a36:	0009a603          	lw	a2,0(s3)
    2a3a:	0049a683          	lw	a3,4(s3)
    2a3e:	1b3010ef          	jal	ra,43f0 <__muldf3>
    2a42:	892a                	c.mv	s2,a0
    2a44:	414ad513          	srai	a0,s5,0x14
    2a48:	84ae                	c.mv	s1,a1
    2a4a:	32f020ef          	jal	ra,5578 <__floatsidf>
    2a4e:	4010                	c.lw	a2,0(s0)
    2a50:	4054                	c.lw	a3,4(s0)
    2a52:	8dae                	c.mv	s11,a1
    2a54:	c62a                	c.swsp	a0,12(sp)
    2a56:	19b010ef          	jal	ra,43f0 <__muldf3>
    2a5a:	0089a603          	lw	a2,8(s3)
    2a5e:	00c9a683          	lw	a3,12(s3)
    2a62:	6f6000ef          	jal	ra,3158 <__adddf3>
    2a66:	8c2a                	c.mv	s8,a0
    2a68:	8bae                	c.mv	s7,a1
    2a6a:	862a                	c.mv	a2,a0
    2a6c:	86ae                	c.mv	a3,a1
    2a6e:	854a                	c.mv	a0,s2
    2a70:	85a6                	c.mv	a1,s1
    2a72:	6e6000ef          	jal	ra,3158 <__adddf3>
    2a76:	864a                	c.mv	a2,s2
    2a78:	8b2a                	c.mv	s6,a0
    2a7a:	8aae                	c.mv	s5,a1
    2a7c:	86a6                	c.mv	a3,s1
    2a7e:	854a                	c.mv	a0,s2
    2a80:	85a6                	c.mv	a1,s1
    2a82:	16f010ef          	jal	ra,43f0 <__muldf3>
    2a86:	5810                	c.lw	a2,48(s0)
    2a88:	5854                	c.lw	a3,52(s0)
    2a8a:	8a2a                	c.mv	s4,a0
    2a8c:	89ae                	c.mv	s3,a1
    2a8e:	854a                	c.mv	a0,s2
    2a90:	85a6                	c.mv	a1,s1
    2a92:	15f010ef          	jal	ra,43f0 <__muldf3>
    2a96:	5410                	c.lw	a2,40(s0)
    2a98:	5454                	c.lw	a3,44(s0)
    2a9a:	6be000ef          	jal	ra,3158 <__adddf3>
    2a9e:	8652                	c.mv	a2,s4
    2aa0:	86ce                	c.mv	a3,s3
    2aa2:	14f010ef          	jal	ra,43f0 <__muldf3>
    2aa6:	5010                	c.lw	a2,32(s0)
    2aa8:	5054                	c.lw	a3,36(s0)
    2aaa:	8d2a                	c.mv	s10,a0
    2aac:	8cae                	c.mv	s9,a1
    2aae:	854a                	c.mv	a0,s2
    2ab0:	85a6                	c.mv	a1,s1
    2ab2:	13f010ef          	jal	ra,43f0 <__muldf3>
    2ab6:	4c10                	c.lw	a2,24(s0)
    2ab8:	4c54                	c.lw	a3,28(s0)
    2aba:	69e000ef          	jal	ra,3158 <__adddf3>
    2abe:	862a                	c.mv	a2,a0
    2ac0:	86ae                	c.mv	a3,a1
    2ac2:	856a                	c.mv	a0,s10
    2ac4:	85e6                	c.mv	a1,s9
    2ac6:	692000ef          	jal	ra,3158 <__adddf3>
    2aca:	8652                	c.mv	a2,s4
    2acc:	8d2a                	c.mv	s10,a0
    2ace:	8cae                	c.mv	s9,a1
    2ad0:	854a                	c.mv	a0,s2
    2ad2:	86ce                	c.mv	a3,s3
    2ad4:	85a6                	c.mv	a1,s1
    2ad6:	11b010ef          	jal	ra,43f0 <__muldf3>
    2ada:	862a                	c.mv	a2,a0
    2adc:	86ae                	c.mv	a3,a1
    2ade:	856a                	c.mv	a0,s10
    2ae0:	85e6                	c.mv	a1,s9
    2ae2:	10f010ef          	jal	ra,43f0 <__muldf3>
    2ae6:	47b2                	c.lwsp	a5,12(sp)
    2ae8:	4410                	c.lw	a2,8(s0)
    2aea:	4454                	c.lw	a3,12(s0)
    2aec:	8d2a                	c.mv	s10,a0
    2aee:	8cae                	c.mv	s9,a1
    2af0:	853e                	c.mv	a0,a5
    2af2:	85ee                	c.mv	a1,s11
    2af4:	0fd010ef          	jal	ra,43f0 <__muldf3>
    2af8:	865a                	c.mv	a2,s6
    2afa:	872a                	c.mv	a4,a0
    2afc:	87ae                	c.mv	a5,a1
    2afe:	8562                	c.mv	a0,s8
    2b00:	86d6                	c.mv	a3,s5
    2b02:	85de                	c.mv	a1,s7
    2b04:	8c3a                	c.mv	s8,a4
    2b06:	8bbe                	c.mv	s7,a5
    2b08:	735010ef          	jal	ra,4a3c <__subdf3>
    2b0c:	864a                	c.mv	a2,s2
    2b0e:	86a6                	c.mv	a3,s1
    2b10:	25a1                	c.jal	3158 <__adddf3>
    2b12:	862a                	c.mv	a2,a0
    2b14:	86ae                	c.mv	a3,a1
    2b16:	8562                	c.mv	a0,s8
    2b18:	85de                	c.mv	a1,s7
    2b1a:	2d3d                	c.jal	3158 <__adddf3>
    2b1c:	4810                	c.lw	a2,16(s0)
    2b1e:	4854                	c.lw	a3,20(s0)
    2b20:	892a                	c.mv	s2,a0
    2b22:	84ae                	c.mv	s1,a1
    2b24:	8552                	c.mv	a0,s4
    2b26:	85ce                	c.mv	a1,s3
    2b28:	0c9010ef          	jal	ra,43f0 <__muldf3>
    2b2c:	862a                	c.mv	a2,a0
    2b2e:	86ae                	c.mv	a3,a1
    2b30:	854a                	c.mv	a0,s2
    2b32:	85a6                	c.mv	a1,s1
    2b34:	2515                	c.jal	3158 <__adddf3>
    2b36:	862a                	c.mv	a2,a0
    2b38:	86ae                	c.mv	a3,a1
    2b3a:	856a                	c.mv	a0,s10
    2b3c:	85e6                	c.mv	a1,s9
    2b3e:	2d29                	c.jal	3158 <__adddf3>
    2b40:	865a                	c.mv	a2,s6
    2b42:	86d6                	c.mv	a3,s5
    2b44:	2d11                	c.jal	3158 <__adddf3>
    2b46:	86aa                	c.mv	a3,a0
    2b48:	00b007b3          	add	a5,zero,a1
    2b4c:	40b6                	c.lwsp	ra,76(sp)
    2b4e:	4426                	c.lwsp	s0,72(sp)
    2b50:	4496                	c.lwsp	s1,68(sp)
    2b52:	4906                	c.lwsp	s2,64(sp)
    2b54:	59f2                	c.lwsp	s3,60(sp)
    2b56:	5a62                	c.lwsp	s4,56(sp)
    2b58:	5ad2                	c.lwsp	s5,52(sp)
    2b5a:	5b42                	c.lwsp	s6,48(sp)
    2b5c:	5bb2                	c.lwsp	s7,44(sp)
    2b5e:	5c22                	c.lwsp	s8,40(sp)
    2b60:	5c92                	c.lwsp	s9,36(sp)
    2b62:	5d02                	c.lwsp	s10,32(sp)
    2b64:	4df2                	c.lwsp	s11,28(sp)
    2b66:	8536                	c.mv	a0,a3
    2b68:	85be                	c.mv	a1,a5
    2b6a:	6161                	c.addi16sp	sp,80
    2b6c:	00008067          	ret
    2b70:	28050263          	beqz	a0,2df4 <log+0x450>
    2b74:	85be                	c.mv	a1,a5
    2b76:	000807b7          	lui	a5,0x80
    2b7a:	6207a603          	lw	a2,1568(a5) # 80620 <riscv_dsp_cos_table_f32_1024+0x414>
    2b7e:	6247a683          	lw	a3,1572(a5)
    2b82:	853a                	c.mv	a0,a4
    2b84:	6b9010ef          	jal	ra,4a3c <__subdf3>
    2b88:	862a                	c.mv	a2,a0
    2b8a:	86ae                	c.mv	a3,a1
    2b8c:	84aa                	c.mv	s1,a0
    2b8e:	842e                	c.mv	s0,a1
    2b90:	061010ef          	jal	ra,43f0 <__muldf3>
    2b94:	8b2a                	c.mv	s6,a0
    2b96:	8aae                	c.mv	s5,a1
    2b98:	862a                	c.mv	a2,a0
    2b9a:	86ae                	c.mv	a3,a1
    2b9c:	8526                	c.mv	a0,s1
    2b9e:	85a2                	c.mv	a1,s0
    2ba0:	e39f990b          	addigp	s2,-456 # 80638 <__log_data>
    2ba4:	04d010ef          	jal	ra,43f0 <__muldf3>
    2ba8:	07892603          	lw	a2,120(s2)
    2bac:	07c92683          	lw	a3,124(s2)
    2bb0:	8a2a                	c.mv	s4,a0
    2bb2:	89ae                	c.mv	s3,a1
    2bb4:	8526                	c.mv	a0,s1
    2bb6:	85a2                	c.mv	a1,s0
    2bb8:	039010ef          	jal	ra,43f0 <__muldf3>
    2bbc:	07092603          	lw	a2,112(s2)
    2bc0:	07492683          	lw	a3,116(s2)
    2bc4:	2b51                	c.jal	3158 <__adddf3>
    2bc6:	08092603          	lw	a2,128(s2)
    2bca:	08492683          	lw	a3,132(s2)
    2bce:	8c2a                	c.mv	s8,a0
    2bd0:	8bae                	c.mv	s7,a1
    2bd2:	855a                	c.mv	a0,s6
    2bd4:	85d6                	c.mv	a1,s5
    2bd6:	01b010ef          	jal	ra,43f0 <__muldf3>
    2bda:	862a                	c.mv	a2,a0
    2bdc:	86ae                	c.mv	a3,a1
    2bde:	8562                	c.mv	a0,s8
    2be0:	85de                	c.mv	a1,s7
    2be2:	2b9d                	c.jal	3158 <__adddf3>
    2be4:	08892603          	lw	a2,136(s2)
    2be8:	08c92683          	lw	a3,140(s2)
    2bec:	8c2a                	c.mv	s8,a0
    2bee:	8bae                	c.mv	s7,a1
    2bf0:	8552                	c.mv	a0,s4
    2bf2:	85ce                	c.mv	a1,s3
    2bf4:	7fc010ef          	jal	ra,43f0 <__muldf3>
    2bf8:	862a                	c.mv	a2,a0
    2bfa:	86ae                	c.mv	a3,a1
    2bfc:	8562                	c.mv	a0,s8
    2bfe:	85de                	c.mv	a1,s7
    2c00:	2ba1                	c.jal	3158 <__adddf3>
    2c02:	8652                	c.mv	a2,s4
    2c04:	86ce                	c.mv	a3,s3
    2c06:	7ea010ef          	jal	ra,43f0 <__muldf3>
    2c0a:	06092603          	lw	a2,96(s2)
    2c0e:	06492683          	lw	a3,100(s2)
    2c12:	8c2a                	c.mv	s8,a0
    2c14:	8bae                	c.mv	s7,a1
    2c16:	8526                	c.mv	a0,s1
    2c18:	85a2                	c.mv	a1,s0
    2c1a:	7d6010ef          	jal	ra,43f0 <__muldf3>
    2c1e:	05892603          	lw	a2,88(s2)
    2c22:	05c92683          	lw	a3,92(s2)
    2c26:	2b0d                	c.jal	3158 <__adddf3>
    2c28:	06892603          	lw	a2,104(s2)
    2c2c:	06c92683          	lw	a3,108(s2)
    2c30:	8d2a                	c.mv	s10,a0
    2c32:	8cae                	c.mv	s9,a1
    2c34:	855a                	c.mv	a0,s6
    2c36:	85d6                	c.mv	a1,s5
    2c38:	7b8010ef          	jal	ra,43f0 <__muldf3>
    2c3c:	862a                	c.mv	a2,a0
    2c3e:	86ae                	c.mv	a3,a1
    2c40:	856a                	c.mv	a0,s10
    2c42:	85e6                	c.mv	a1,s9
    2c44:	2b11                	c.jal	3158 <__adddf3>
    2c46:	862a                	c.mv	a2,a0
    2c48:	86ae                	c.mv	a3,a1
    2c4a:	8562                	c.mv	a0,s8
    2c4c:	85de                	c.mv	a1,s7
    2c4e:	2329                	c.jal	3158 <__adddf3>
    2c50:	8652                	c.mv	a2,s4
    2c52:	86ce                	c.mv	a3,s3
    2c54:	79c010ef          	jal	ra,43f0 <__muldf3>
    2c58:	04892603          	lw	a2,72(s2)
    2c5c:	04c92683          	lw	a3,76(s2)
    2c60:	8c2a                	c.mv	s8,a0
    2c62:	8bae                	c.mv	s7,a1
    2c64:	8526                	c.mv	a0,s1
    2c66:	85a2                	c.mv	a1,s0
    2c68:	788010ef          	jal	ra,43f0 <__muldf3>
    2c6c:	04092603          	lw	a2,64(s2)
    2c70:	04492683          	lw	a3,68(s2)
    2c74:	21d5                	c.jal	3158 <__adddf3>
    2c76:	05092603          	lw	a2,80(s2)
    2c7a:	05492683          	lw	a3,84(s2)
    2c7e:	872a                	c.mv	a4,a0
    2c80:	87ae                	c.mv	a5,a1
    2c82:	855a                	c.mv	a0,s6
    2c84:	85d6                	c.mv	a1,s5
    2c86:	8b3a                	c.mv	s6,a4
    2c88:	8abe                	c.mv	s5,a5
    2c8a:	766010ef          	jal	ra,43f0 <__muldf3>
    2c8e:	862a                	c.mv	a2,a0
    2c90:	86ae                	c.mv	a3,a1
    2c92:	855a                	c.mv	a0,s6
    2c94:	85d6                	c.mv	a1,s5
    2c96:	21c9                	c.jal	3158 <__adddf3>
    2c98:	862a                	c.mv	a2,a0
    2c9a:	86ae                	c.mv	a3,a1
    2c9c:	8562                	c.mv	a0,s8
    2c9e:	85de                	c.mv	a1,s7
    2ca0:	2965                	c.jal	3158 <__adddf3>
    2ca2:	8652                	c.mv	a2,s4
    2ca4:	86ce                	c.mv	a3,s3
    2ca6:	74a010ef          	jal	ra,43f0 <__muldf3>
    2caa:	000807b7          	lui	a5,0x80
    2cae:	6287a603          	lw	a2,1576(a5) # 80628 <riscv_dsp_cos_table_f32_1024+0x41c>
    2cb2:	62c7a683          	lw	a3,1580(a5)
    2cb6:	8caa                	c.mv	s9,a0
    2cb8:	8c2e                	c.mv	s8,a1
    2cba:	8526                	c.mv	a0,s1
    2cbc:	85a2                	c.mv	a1,s0
    2cbe:	732010ef          	jal	ra,43f0 <__muldf3>
    2cc2:	8a2a                	c.mv	s4,a0
    2cc4:	89ae                	c.mv	s3,a1
    2cc6:	862a                	c.mv	a2,a0
    2cc8:	86ae                	c.mv	a3,a1
    2cca:	8526                	c.mv	a0,s1
    2ccc:	85a2                	c.mv	a1,s0
    2cce:	2169                	c.jal	3158 <__adddf3>
    2cd0:	8652                	c.mv	a2,s4
    2cd2:	86ce                	c.mv	a3,s3
    2cd4:	569010ef          	jal	ra,4a3c <__subdf3>
    2cd8:	03892d03          	lw	s10,56(s2)
    2cdc:	03c92d83          	lw	s11,60(s2)
    2ce0:	862a                	c.mv	a2,a0
    2ce2:	86ae                	c.mv	a3,a1
    2ce4:	8a2a                	c.mv	s4,a0
    2ce6:	89ae                	c.mv	s3,a1
    2ce8:	708010ef          	jal	ra,43f0 <__muldf3>
    2cec:	866a                	c.mv	a2,s10
    2cee:	86ee                	c.mv	a3,s11
    2cf0:	700010ef          	jal	ra,43f0 <__muldf3>
    2cf4:	8baa                	c.mv	s7,a0
    2cf6:	8b2e                	c.mv	s6,a1
    2cf8:	862a                	c.mv	a2,a0
    2cfa:	86ae                	c.mv	a3,a1
    2cfc:	8526                	c.mv	a0,s1
    2cfe:	85a2                	c.mv	a1,s0
    2d00:	29a1                	c.jal	3158 <__adddf3>
    2d02:	862a                	c.mv	a2,a0
    2d04:	86ae                	c.mv	a3,a1
    2d06:	8aaa                	c.mv	s5,a0
    2d08:	892e                	c.mv	s2,a1
    2d0a:	8526                	c.mv	a0,s1
    2d0c:	85a2                	c.mv	a1,s0
    2d0e:	52f010ef          	jal	ra,4a3c <__subdf3>
    2d12:	865e                	c.mv	a2,s7
    2d14:	86da                	c.mv	a3,s6
    2d16:	2189                	c.jal	3158 <__adddf3>
    2d18:	8652                	c.mv	a2,s4
    2d1a:	8baa                	c.mv	s7,a0
    2d1c:	8b2e                	c.mv	s6,a1
    2d1e:	8526                	c.mv	a0,s1
    2d20:	86ce                	c.mv	a3,s3
    2d22:	85a2                	c.mv	a1,s0
    2d24:	519010ef          	jal	ra,4a3c <__subdf3>
    2d28:	866a                	c.mv	a2,s10
    2d2a:	86ee                	c.mv	a3,s11
    2d2c:	6c4010ef          	jal	ra,43f0 <__muldf3>
    2d30:	8652                	c.mv	a2,s4
    2d32:	872a                	c.mv	a4,a0
    2d34:	87ae                	c.mv	a5,a1
    2d36:	8526                	c.mv	a0,s1
    2d38:	86ce                	c.mv	a3,s3
    2d3a:	85a2                	c.mv	a1,s0
    2d3c:	84ba                	c.mv	s1,a4
    2d3e:	843e                	c.mv	s0,a5
    2d40:	2921                	c.jal	3158 <__adddf3>
    2d42:	862a                	c.mv	a2,a0
    2d44:	86ae                	c.mv	a3,a1
    2d46:	8526                	c.mv	a0,s1
    2d48:	85a2                	c.mv	a1,s0
    2d4a:	6a6010ef          	jal	ra,43f0 <__muldf3>
    2d4e:	865e                	c.mv	a2,s7
    2d50:	86da                	c.mv	a3,s6
    2d52:	2119                	c.jal	3158 <__adddf3>
    2d54:	8666                	c.mv	a2,s9
    2d56:	86e2                	c.mv	a3,s8
    2d58:	2101                	c.jal	3158 <__adddf3>
    2d5a:	862a                	c.mv	a2,a0
    2d5c:	86ae                	c.mv	a3,a1
    2d5e:	8556                	c.mv	a0,s5
    2d60:	85ca                	c.mv	a1,s2
    2d62:	b3cd                	c.j	2b44 <log+0x1a0>
    2d64:	dff706ff          	wexti	a3,a4,31
    2d68:	00171613          	slli	a2,a4,0x1
    2d6c:	8ed1                	c.or	a3,a2
    2d6e:	cea9                	c.beqz	a3,2dc8 <log+0x424>
    2d70:	06070c63          	beqz	a4,2de8 <log+0x444>
    2d74:	66a1                	c.lui	a3,0x8
    2d76:	00d57633          	and	a2,a0,a3
    2d7a:	e60d                	c.bnez	a2,2da4 <log+0x400>
    2d7c:	16c1                	c.addi	a3,-16
    2d7e:	8d75                	c.and	a0,a3
    2d80:	02d50263          	beq	a0,a3,2da4 <log+0x400>
    2d84:	85be                	c.mv	a1,a5
    2d86:	000807b7          	lui	a5,0x80
    2d8a:	6307a603          	lw	a2,1584(a5) # 80630 <riscv_dsp_cos_table_f32_1024+0x424>
    2d8e:	6347a683          	lw	a3,1588(a5)
    2d92:	853a                	c.mv	a0,a4
    2d94:	65c010ef          	jal	ra,43f0 <__muldf3>
    2d98:	4801                	c.li	a6,0
    2d9a:	fcc008b7          	lui	a7,0xfcc00
    2d9e:	c0a8187f          	add64	a6,a6,a0
    2da2:	b1b9                	c.j	29f0 <log+0x4c>
    2da4:	4426                	c.lwsp	s0,72(sp)
    2da6:	40b6                	c.lwsp	ra,76(sp)
    2da8:	4496                	c.lwsp	s1,68(sp)
    2daa:	4906                	c.lwsp	s2,64(sp)
    2dac:	59f2                	c.lwsp	s3,60(sp)
    2dae:	5a62                	c.lwsp	s4,56(sp)
    2db0:	5ad2                	c.lwsp	s5,52(sp)
    2db2:	5b42                	c.lwsp	s6,48(sp)
    2db4:	5bb2                	c.lwsp	s7,44(sp)
    2db6:	5c22                	c.lwsp	s8,40(sp)
    2db8:	5c92                	c.lwsp	s9,36(sp)
    2dba:	5d02                	c.lwsp	s10,32(sp)
    2dbc:	4df2                	c.lwsp	s11,28(sp)
    2dbe:	853a                	c.mv	a0,a4
    2dc0:	85be                	c.mv	a1,a5
    2dc2:	6161                	c.addi16sp	sp,80
    2dc4:	0840006f          	j	2e48 <__math_invalid>
    2dc8:	4426                	c.lwsp	s0,72(sp)
    2dca:	40b6                	c.lwsp	ra,76(sp)
    2dcc:	4496                	c.lwsp	s1,68(sp)
    2dce:	4906                	c.lwsp	s2,64(sp)
    2dd0:	59f2                	c.lwsp	s3,60(sp)
    2dd2:	5a62                	c.lwsp	s4,56(sp)
    2dd4:	5ad2                	c.lwsp	s5,52(sp)
    2dd6:	5b42                	c.lwsp	s6,48(sp)
    2dd8:	5bb2                	c.lwsp	s7,44(sp)
    2dda:	5c22                	c.lwsp	s8,40(sp)
    2ddc:	5c92                	c.lwsp	s9,36(sp)
    2dde:	5d02                	c.lwsp	s10,32(sp)
    2de0:	4df2                	c.lwsp	s11,28(sp)
    2de2:	4505                	c.li	a0,1
    2de4:	6161                	c.addi16sp	sp,80
    2de6:	a015                	c.j	2e0a <__math_divzero>
    2de8:	7ff006b7          	lui	a3,0x7ff00
    2dec:	f8f694e3          	bne	a3,a5,2d74 <log+0x3d0>
    2df0:	86ba                	c.mv	a3,a4
    2df2:	bba9                	c.j	2b4c <log+0x1a8>
    2df4:	3ff006b7          	lui	a3,0x3ff00
    2df8:	d6f69ee3          	bne	a3,a5,2b74 <log+0x1d0>
    2dfc:	4681                	c.li	a3,0
    2dfe:	4781                	c.li	a5,0
    2e00:	b3b1                	c.j	2b4c <log+0x1a8>
    2e02:	0001                	c.nop

00002e04 <with_errno>:
    2e04:	06c2422b          	swgp	a2,4196 # 81864 <__mculib_REENT_errno>
    2e08:	8082                	c.jr	ra

00002e0a <__math_divzero>:
    2e0a:	42b022ef          	jal	t0,5a34 <__riscv_save_0>
    2e0e:	1141                	c.addi	sp,-16
    2e10:	e50d                	c.bnez	a0,2e3a <__math_divzero+0x30>
    2e12:	000807b7          	lui	a5,0x80
    2e16:	6207a703          	lw	a4,1568(a5) # 80620 <riscv_dsp_cos_table_f32_1024+0x414>
    2e1a:	6247a783          	lw	a5,1572(a5)
    2e1e:	c43a                	c.swsp	a4,8(sp)
    2e20:	c63e                	c.swsp	a5,12(sp)
    2e22:	4522                	c.lwsp	a0,8(sp)
    2e24:	45b2                	c.lwsp	a1,12(sp)
    2e26:	4681                	c.li	a3,0
    2e28:	4601                	c.li	a2,0
    2e2a:	513000ef          	jal	ra,3b3c <__divdf3>
    2e2e:	02200613          	li	a2,34
    2e32:	3fc9                	c.jal	2e04 <with_errno>
    2e34:	0141                	c.addi	sp,16
    2e36:	4230206f          	j	5a58 <__riscv_restore_0>
    2e3a:	000817b7          	lui	a5,0x81
    2e3e:	6c87a703          	lw	a4,1736(a5) # 816c8 <__global_pointer$+0xec8>
    2e42:	6cc7a783          	lw	a5,1740(a5)
    2e46:	bfe1                	c.j	2e1e <__math_divzero+0x14>

00002e48 <__math_invalid>:
    2e48:	3d3022ef          	jal	t0,5a1a <__riscv_save_4>
    2e4c:	862a                	c.mv	a2,a0
    2e4e:	86ae                	c.mv	a3,a1
    2e50:	89aa                	c.mv	s3,a0
    2e52:	892e                	c.mv	s2,a1
    2e54:	3e9010ef          	jal	ra,4a3c <__subdf3>
    2e58:	862a                	c.mv	a2,a0
    2e5a:	86ae                	c.mv	a3,a1
    2e5c:	4e1000ef          	jal	ra,3b3c <__divdf3>
    2e60:	864e                	c.mv	a2,s3
    2e62:	84aa                	c.mv	s1,a0
    2e64:	842e                	c.mv	s0,a1
    2e66:	86ca                	c.mv	a3,s2
    2e68:	854e                	c.mv	a0,s3
    2e6a:	85ca                	c.mv	a1,s2
    2e6c:	5d8020ef          	jal	ra,5444 <__unorddf2>
    2e70:	e901                	c.bnez	a0,2e80 <__math_invalid+0x38>
    2e72:	8526                	c.mv	a0,s1
    2e74:	85a2                	c.mv	a1,s0
    2e76:	02100613          	li	a2,33
    2e7a:	3769                	c.jal	2e04 <with_errno>
    2e7c:	84aa                	c.mv	s1,a0
    2e7e:	842e                	c.mv	s0,a1
    2e80:	8526                	c.mv	a0,s1
    2e82:	85a2                	c.mv	a1,s0
    2e84:	3cb0206f          	j	5a4e <__riscv_restore_4>

00002e88 <sinf>:
    2e88:	3f4917b7          	lui	a5,0x3f491
    2e8c:	fda78793          	addi	a5,a5,-38 # 3f490fda <_DATA_LMA_START+0x1f48a60a>
    2e90:	e00505d3          	fmv.x.w	a1,fa0
    2e94:	7805a75b          	bfoz	a4,a1,30,0
    2e98:	02e7ee63          	bltu	a5,a4,2ed4 <sinf+0x4c>
    2e9c:	398007b7          	lui	a5,0x39800
    2ea0:	10f76063          	bltu	a4,a5,2fa0 <sinf+0x118>
    2ea4:	10a577d3          	fmul.s	fa5,fa0,fa0
    2ea8:	801f978b          	addigp	a5,-2048 # 80000 <cst_libm_sincosf>
    2eac:	20a505d3          	fmv.s	fa1,fa0
    2eb0:	6788                	c.flw	fa0,8(a5)
    2eb2:	63d4                	c.flw	fa3,4(a5)
    2eb4:	6398                	c.flw	fa4,0(a5)
    2eb6:	10a7f553          	fmul.s	fa0,fa5,fa0
    2eba:	00d57553          	fadd.s	fa0,fa0,fa3
    2ebe:	10f57553          	fmul.s	fa0,fa0,fa5
    2ec2:	00e57553          	fadd.s	fa0,fa0,fa4
    2ec6:	10f57553          	fmul.s	fa0,fa0,fa5
    2eca:	10b57553          	fmul.s	fa0,fa0,fa1
    2ece:	00a5f553          	fadd.s	fa0,fa1,fa0
    2ed2:	8082                	c.jr	ra
    2ed4:	1101                	c.addi	sp,-32
    2ed6:	464917b7          	lui	a5,0x46491
    2eda:	e4878793          	addi	a5,a5,-440 # 46490e48 <_DATA_LMA_START+0x2648a478>
    2ede:	ce06                	c.swsp	ra,28(sp)
    2ee0:	0ee7e863          	bltu	a5,a4,2fd0 <sinf+0x148>
    2ee4:	6e90178b          	addigp	a5,3816 # 816e8 <cst_libm_rredf>
    2ee8:	6398                	c.flw	fa4,0(a5)
    2eea:	00081737          	lui	a4,0x81
    2eee:	6d072587          	flw	fa1,1744(a4) # 816d0 <__global_pointer$+0xed0>
    2ef2:	10e577d3          	fmul.s	fa5,fa0,fa4
    2ef6:	6798                	c.flw	fa4,8(a5)
    2ef8:	67d0                	c.flw	fa2,12(a5)
    2efa:	6b94                	c.flw	fa3,16(a5)
    2efc:	6bc8                	c.flw	fa0,20(a5)
    2efe:	00b7f7d3          	fadd.s	fa5,fa5,fa1
    2f02:	08b7f7d3          	fsub.s	fa5,fa5,fa1
    2f06:	f00585d3          	fmv.w.x	fa1,a1
    2f0a:	10e7f753          	fmul.s	fa4,fa5,fa4
    2f0e:	10c7f653          	fmul.s	fa2,fa5,fa2
    2f12:	10d7f6d3          	fmul.s	fa3,fa5,fa3
    2f16:	08e5f753          	fsub.s	fa4,fa1,fa4
    2f1a:	c0079753          	fcvt.w.s	a4,fa5,rtz
    2f1e:	08c77753          	fsub.s	fa4,fa4,fa2
    2f22:	10a7f7d3          	fmul.s	fa5,fa5,fa0
    2f26:	00177793          	andi	a5,a4,1
    2f2a:	8b09                	c.andi	a4,2
    2f2c:	08d77753          	fsub.s	fa4,fa4,fa3
    2f30:	08f77653          	fsub.s	fa2,fa4,fa5
    2f34:	e00605d3          	fmv.x.w	a1,fa2
    2f38:	f0058653          	fmv.w.x	fa2,a1
    2f3c:	10c67753          	fmul.s	fa4,fa2,fa2
    2f40:	02078c63          	beqz	a5,2f78 <sinf+0xf0>
    2f44:	801f978b          	addigp	a5,-2048 # 80000 <cst_libm_sincosf>
    2f48:	6f9c                	c.flw	fa5,24(a5)
    2f4a:	6bc8                	c.flw	fa0,20(a5)
    2f4c:	6b90                	c.flw	fa2,16(a5)
    2f4e:	10f777d3          	fmul.s	fa5,fa4,fa5
    2f52:	67d4                	c.flw	fa3,12(a5)
    2f54:	00a7f553          	fadd.s	fa0,fa5,fa0
    2f58:	10e57553          	fmul.s	fa0,fa0,fa4
    2f5c:	00c57553          	fadd.s	fa0,fa0,fa2
    2f60:	10e57553          	fmul.s	fa0,fa0,fa4
    2f64:	00d57553          	fadd.s	fa0,fa0,fa3
    2f68:	00070463          	beqz	a4,2f70 <sinf+0xe8>
    2f6c:	20a51553          	fneg.s	fa0,fa0
    2f70:	40f2                	c.lwsp	ra,28(sp)
    2f72:	6105                	c.addi16sp	sp,32
    2f74:	00008067          	ret
    2f78:	801f978b          	addigp	a5,-2048 # 80000 <cst_libm_sincosf>
    2f7c:	679c                	c.flw	fa5,8(a5)
    2f7e:	63c8                	c.flw	fa0,4(a5)
    2f80:	6394                	c.flw	fa3,0(a5)
    2f82:	10f777d3          	fmul.s	fa5,fa4,fa5
    2f86:	00a7f553          	fadd.s	fa0,fa5,fa0
    2f8a:	10e57553          	fmul.s	fa0,fa0,fa4
    2f8e:	00d57553          	fadd.s	fa0,fa0,fa3
    2f92:	f00586d3          	fmv.w.x	fa3,a1
    2f96:	10e57553          	fmul.s	fa0,fa0,fa4
    2f9a:	10c57553          	fmul.s	fa0,fa0,fa2
    2f9e:	b7d9                	c.j	2f64 <sinf+0xdc>
    2fa0:	00159693          	slli	a3,a1,0x1
    2fa4:	ff0007b7          	lui	a5,0xff000
    2fa8:	02f6e263          	bltu	a3,a5,2fcc <sinf+0x144>
    2fac:	00f68663          	beq	a3,a5,2fb8 <sinf+0x130>
    2fb0:	00a57553          	fadd.s	fa0,fa0,fa0
    2fb4:	00008067          	ret
    2fb8:	02100713          	li	a4,33
    2fbc:	f0000553          	fmv.w.x	fa0,zero
    2fc0:	18a57553          	fdiv.s	fa0,fa0,fa0
    2fc4:	06e2422b          	swgp	a4,4196 # 81864 <__mculib_REENT_errno>
    2fc8:	00008067          	ret
    2fcc:	00008067          	ret
    2fd0:	0068                	c.addi4spn	a0,sp,12
    2fd2:	283d                	c.jal	3010 <ref__mathlib_rredf2>
    2fd4:	4732                	c.lwsp	a4,12(sp)
    2fd6:	e00505d3          	fmv.x.w	a1,fa0
    2fda:	02075763          	bgez	a4,3008 <sinf+0x180>
    2fde:	00159693          	slli	a3,a1,0x1
    2fe2:	ff0007b7          	lui	a5,0xff000
    2fe6:	f8f6e5e3          	bltu	a3,a5,2f70 <sinf+0xe8>
    2fea:	00f68563          	beq	a3,a5,2ff4 <sinf+0x16c>
    2fee:	00a57553          	fadd.s	fa0,fa0,fa0
    2ff2:	bfbd                	c.j	2f70 <sinf+0xe8>
    2ff4:	f0000553          	fmv.w.x	fa0,zero
    2ff8:	02100713          	li	a4,33
    2ffc:	18a57553          	fdiv.s	fa0,fa0,fa0
    3000:	06e2422b          	swgp	a4,4196 # 81864 <__mculib_REENT_errno>
    3004:	f6dff06f          	j	2f70 <sinf+0xe8>
    3008:	00177793          	andi	a5,a4,1
    300c:	8b09                	c.andi	a4,2
    300e:	b72d                	c.j	2f38 <sinf+0xb0>

00003010 <ref__mathlib_rredf2>:
    3010:	00159713          	slli	a4,a1,0x1
    3014:	ff0007b7          	lui	a5,0xff000
    3018:	12f77c63          	bgeu	a4,a5,3150 <ref__mathlib_rredf2+0x140>
    301c:	7975a7db          	bfoz	a5,a1,30,23
    3020:	f8878793          	addi	a5,a5,-120 # feffff88 <_DATA_LMA_START+0xdeff95b8>
    3024:	4057d613          	srai	a2,a5,0x5
    3028:	7010168b          	addigp	a3,3840 # 81700 <twooverpi.0>
    302c:	0cc688db          	lea.w	a7,a3,a2
    3030:	0008a303          	lw	t1,0(a7) # fcc00000 <_DATA_LMA_START+0xdcbf9630>
    3034:	0048a703          	lw	a4,4(a7)
    3038:	0088a803          	lw	a6,8(a7)
    303c:	00859e13          	slli	t3,a1,0x8
    3040:	800008b7          	lui	a7,0x80000
    3044:	8bfd                	c.andi	a5,31
    3046:	011e6e33          	or	t3,t3,a7
    304a:	cb8d                	c.beqz	a5,307c <ref__mathlib_rredf2+0x6c>
    304c:	0cc686db          	lea.w	a3,a3,a2
    3050:	46d0                	c.lw	a2,12(a3)
    3052:	02000693          	li	a3,32
    3056:	8e9d                	c.sub	a3,a5
    3058:	00d75eb3          	srl	t4,a4,a3
    305c:	00d858b3          	srl	a7,a6,a3
    3060:	00f31333          	sll	t1,t1,a5
    3064:	00f71733          	sll	a4,a4,a5
    3068:	00f81833          	sll	a6,a6,a5
    306c:	00d656b3          	srl	a3,a2,a3
    3070:	006ee333          	or	t1,t4,t1
    3074:	00e8e733          	or	a4,a7,a4
    3078:	0106e833          	or	a6,a3,a6
    307c:	f0ee167f          	mulr64	a2,t3,a4
    3080:	f10e187f          	mulr64	a6,t3,a6
    3084:	f1c3137f          	mulr64	t1,t1,t3
    3088:	00c88e33          	add	t3,a7,a2
    308c:	006687b3          	add	a5,a3,t1
    3090:	011e3733          	sltu	a4,t3,a7
    3094:	00e787b3          	add	a5,a5,a4
    3098:	0b1e6663          	bltu	t3,a7,3144 <ref__mathlib_rredf2+0x134>
    309c:	00d7b733          	sltu	a4,a5,a3
    30a0:	00d79693          	slli	a3,a5,0xd
    30a4:	971e                	c.add	a4,t2
    30a6:	83cd                	c.srli	a5,0x13
    30a8:	d016f553          	fcvt.s.wu	fa0,a3
    30ac:	07b6                	c.slli	a5,0xd
    30ae:	01a71693          	slli	a3,a4,0x1a
    30b2:	8fd5                	c.or	a5,a3
    30b4:	d007f6d3          	fcvt.s.w	fa3,a5
    30b8:	000817b7          	lui	a5,0x81
    30bc:	6d47a707          	flw	fa4,1748(a5) # 816d4 <__global_pointer$+0xed4>
    30c0:	d01e77d3          	fcvt.s.wu	fa5,t3
    30c4:	000817b7          	lui	a5,0x81
    30c8:	6685                	c.lui	a3,0x1
    30ca:	10e57553          	fmul.s	fa0,fa0,fa4
    30ce:	6d87a707          	flw	fa4,1752(a5) # 816d8 <__global_pointer$+0xed8>
    30d2:	80068693          	addi	a3,a3,-2048 # 800 <analog_read_reg8+0x4>
    30d6:	02070713          	addi	a4,a4,32
    30da:	10e7f7d3          	fmul.s	fa5,fa5,fa4
    30de:	8319                	c.srli	a4,0x6
    30e0:	00a6f753          	fadd.s	fa4,fa3,fa0
    30e4:	00f775d3          	fadd.s	fa1,fa4,fa5
    30e8:	e00587d3          	fmv.x.w	a5,fa1
    30ec:	97b6                	c.add	a5,a3
    30ee:	76fd                	c.lui	a3,0xfffff
    30f0:	00d7f7b3          	and	a5,a5,a3
    30f4:	f00785d3          	fmv.w.x	fa1,a5
    30f8:	08d5f6d3          	fsub.s	fa3,fa1,fa3
    30fc:	000816b7          	lui	a3,0x81
    3100:	000817b7          	lui	a5,0x81
    3104:	6e06a607          	flw	fa2,1760(a3) # 816e0 <__global_pointer$+0xee0>
    3108:	000816b7          	lui	a3,0x81
    310c:	08a6f553          	fsub.s	fa0,fa3,fa0
    3110:	6e46a707          	flw	fa4,1764(a3) # 816e4 <__global_pointer$+0xee4>
    3114:	10b67653          	fmul.s	fa2,fa2,fa1
    3118:	10b77753          	fmul.s	fa4,fa4,fa1
    311c:	08a7f7d3          	fsub.s	fa5,fa5,fa0
    3120:	6dc7a507          	flw	fa0,1756(a5) # 816dc <__global_pointer$+0xedc>
    3124:	10a7f553          	fmul.s	fa0,fa5,fa0
    3128:	00c57553          	fadd.s	fa0,fa0,fa2
    312c:	00e57553          	fadd.s	fa0,fa0,fa4
    3130:	0005d863          	bgez	a1,3140 <ref__mathlib_rredf2+0x130>
    3134:	20a51553          	fneg.s	fa0,fa0
    3138:	100007b7          	lui	a5,0x10000
    313c:	40e78733          	sub	a4,a5,a4
    3140:	c118                	c.sw	a4,0(a0)
    3142:	8082                	c.jr	ra
    3144:	00f6b733          	sltu	a4,a3,a5
    3148:	00174713          	xori	a4,a4,1
    314c:	f55ff06f          	j	30a0 <ref__mathlib_rredf2+0x90>
    3150:	57fd                	c.li	a5,-1
    3152:	c11c                	c.sw	a5,0(a0)
    3154:	8082                	c.jr	ra
    3156:	0001                	c.nop

00003158 <__adddf3>:
    3158:	00202f73          	frrm	t5
    315c:	001007b7          	lui	a5,0x100
    3160:	17fd                	c.addi	a5,-1
    3162:	00f5f833          	and	a6,a1,a5
    3166:	8ff5                	c.and	a5,a3
    3168:	01d55713          	srli	a4,a0,0x1d
    316c:	01d65313          	srli	t1,a2,0x1d
    3170:	080e                	c.slli	a6,0x3
    3172:	078e                	c.slli	a5,0x3
    3174:	01f5d293          	srli	t0,a1,0x1f
    3178:	01f6d893          	srli	a7,a3,0x1f
    317c:	7945a5db          	bfoz	a1,a1,30,20
    3180:	7946a6db          	bfoz	a3,a3,30,20
    3184:	01076fb3          	or	t6,a4,a6
    3188:	050e                	c.slli	a0,0x3
    318a:	00f36733          	or	a4,t1,a5
    318e:	060e                	c.slli	a2,0x3
    3190:	40d58eb3          	sub	t4,a1,a3
    3194:	19128063          	beq	t0,a7,3314 <__adddf3+0x1bc>
    3198:	13d05863          	blez	t4,32c8 <__adddf3+0x170>
    319c:	1c069463          	bnez	a3,3364 <__adddf3+0x20c>
    31a0:	00c767b3          	or	a5,a4,a2
    31a4:	24078263          	beqz	a5,33e8 <__adddf3+0x290>
    31a8:	fffe8e13          	addi	t3,t4,-1
    31ac:	4a0e1e63          	bnez	t3,3668 <__adddf3+0x510>
    31b0:	40c50333          	sub	t1,a0,a2
    31b4:	40ef8733          	sub	a4,t6,a4
    31b8:	00653533          	sltu	a0,a0,t1
    31bc:	8f09                	c.sub	a4,a0
    31be:	4177745b          	bbs	a4,23,31c6 <__adddf3+0x6e>
    31c2:	5da0006f          	j	379c <__adddf3+0x644>
    31c6:	4585                	c.li	a1,1
    31c8:	58072e5b          	bfoz	t3,a4,22,0
    31cc:	af9e07ff          	clz32	a5,t3
    31d0:	000e1663          	bnez	t3,31dc <__adddf3+0x84>
    31d4:	af9307ff          	clz32	a5,t1
    31d8:	02078793          	addi	a5,a5,32 # 100020 <FLASH_SIZE+0x20>
    31dc:	ff878693          	addi	a3,a5,-8
    31e0:	01f00713          	li	a4,31
    31e4:	40d74463          	blt	a4,a3,35ec <__adddf3+0x494>
    31e8:	40d00733          	neg	a4,a3
    31ec:	00e35733          	srl	a4,t1,a4
    31f0:	00de1e33          	sll	t3,t3,a3
    31f4:	01c76733          	or	a4,a4,t3
    31f8:	00d31333          	sll	t1,t1,a3
    31fc:	3cb6ce63          	blt	a3,a1,35d8 <__adddf3+0x480>
    3200:	40b685b3          	sub	a1,a3,a1
    3204:	00158793          	addi	a5,a1,1
    3208:	46fd                	c.li	a3,31
    320a:	46f6c563          	blt	a3,a5,3674 <__adddf3+0x51c>
    320e:	02000693          	li	a3,32
    3212:	8e9d                	c.sub	a3,a5
    3214:	00f35633          	srl	a2,t1,a5
    3218:	00d31333          	sll	t1,t1,a3
    321c:	00d716b3          	sll	a3,a4,a3
    3220:	00c6e6b3          	or	a3,a3,a2
    3224:	00603333          	snez	t1,t1
    3228:	0066e333          	or	t1,a3,t1
    322c:	00f75733          	srl	a4,a4,a5
    3230:	00e36833          	or	a6,t1,a4
    3234:	30080c63          	beqz	a6,354c <__adddf3+0x3f4>
    3238:	00737813          	andi	a6,t1,7
    323c:	00131793          	slli	a5,t1,0x1
    3240:	01f35e13          	srli	t3,t1,0x1f
    3244:	0077f693          	andi	a3,a5,7
    3248:	0aee0e5b          	lea.h	t3,t3,a4
    324c:	4e81                	c.li	t4,0
    324e:	ce89                	c.beqz	a3,3268 <__adddf3+0x110>
    3250:	002f645b          	bnec	t5,2,3258 <__adddf3+0x100>
    3254:	5f80006f          	j	384c <__adddf3+0x6f4>
    3258:	003f645b          	bnec	t5,3,3260 <__adddf3+0x108>
    325c:	6040006f          	j	3860 <__adddf3+0x708>
    3260:	00100e93          	li	t4,1
    3264:	540f0863          	beqz	t5,37b4 <__adddf3+0x65c>
    3268:	018e5e13          	srli	t3,t3,0x18
    326c:	001e4e13          	xori	t3,t3,1
    3270:	001e7e13          	andi	t3,t3,1
    3274:	00000793          	li	a5,0
    3278:	0a080ce3          	beqz	a6,3b30 <__adddf3+0x9d8>
    327c:	322f5c5b          	beqc	t5,2,35b4 <__adddf3+0x45c>
    3280:	343f525b          	beqc	t5,3,35c4 <__adddf3+0x46c>
    3284:	2e0f0e63          	beqz	t5,3580 <__adddf3+0x428>
    3288:	008006b7          	lui	a3,0x800
    328c:	00e6f6b3          	and	a3,a3,a4
    3290:	080e0ce3          	beqz	t3,3b28 <__adddf3+0x9d0>
    3294:	002e6e13          	ori	t3,t3,2
    3298:	080684e3          	beqz	a3,3b20 <__adddf3+0x9c8>
    329c:	0785                	c.addi	a5,1
    329e:	7ff00693          	li	a3,2047
    32a2:	2cd78163          	beq	a5,a3,3564 <__adddf3+0x40c>
    32a6:	ff8006b7          	lui	a3,0xff800
    32aa:	16fd                	c.addi	a3,-1
    32ac:	8f75                	c.and	a4,a3
    32ae:	01d71513          	slli	a0,a4,0x1d
    32b2:	00335313          	srli	t1,t1,0x3
    32b6:	00656333          	or	t1,a0,t1
    32ba:	5837275b          	bfoz	a4,a4,22,3
    32be:	7ff7f793          	andi	a5,a5,2047
    32c2:	0012f893          	andi	a7,t0,1
    32c6:	aaa9                	c.j	3420 <__adddf3+0x2c8>
    32c8:	180e9463          	bnez	t4,3450 <__adddf3+0x2f8>
    32cc:	00158793          	addi	a5,a1,1
    32d0:	7ff7f793          	andi	a5,a5,2047
    32d4:	00100813          	li	a6,1
    32d8:	36f85663          	bge	a6,a5,3644 <__adddf3+0x4ec>
    32dc:	40c50333          	sub	t1,a0,a2
    32e0:	40ef8e33          	sub	t3,t6,a4
    32e4:	00653833          	sltu	a6,a0,t1
    32e8:	410e0e33          	sub	t3,t3,a6
    32ec:	7b7e785b          	bbs	t3,23,369c <__adddf3+0x544>
    32f0:	01c36833          	or	a6,t1,t3
    32f4:	ec081ce3          	bnez	a6,31cc <__adddf3+0x74>
    32f8:	ffef0893          	addi	a7,t5,-2
    32fc:	0018b293          	seqz	t0,a7
    3300:	4301                	c.li	t1,0
    3302:	4e01                	c.li	t3,0
    3304:	4c08275b          	bfoz	a4,a6,19,0
    3308:	7ffef793          	andi	a5,t4,2047
    330c:	0012f893          	andi	a7,t0,1
    3310:	1100006f          	j	3420 <__adddf3+0x2c8>
    3314:	1dd05e63          	blez	t4,34f0 <__adddf3+0x398>
    3318:	e6c1                	c.bnez	a3,33a0 <__adddf3+0x248>
    331a:	00c767b3          	or	a5,a4,a2
    331e:	c7e9                	c.beqz	a5,33e8 <__adddf3+0x290>
    3320:	fffe8793          	addi	a5,t4,-1
    3324:	46079663          	bnez	a5,3790 <__adddf3+0x638>
    3328:	00c50333          	add	t1,a0,a2
    332c:	977e                	c.add	a4,t6
    332e:	00a33533          	sltu	a0,t1,a0
    3332:	972a                	c.add	a4,a0
    3334:	4789                	c.li	a5,2
    3336:	4585                	c.li	a1,1
    3338:	1977705b          	bbc	a4,23,34b8 <__adddf3+0x360>
    333c:	ff8006b7          	lui	a3,0xff800
    3340:	16fd                	c.addi	a3,-1
    3342:	8f75                	c.and	a4,a3
    3344:	00135693          	srli	a3,t1,0x1
    3348:	00137313          	andi	t1,t1,1
    334c:	0066e333          	or	t1,a3,t1
    3350:	01f71693          	slli	a3,a4,0x1f
    3354:	0066e333          	or	t1,a3,t1
    3358:	8305                	c.srli	a4,0x1
    335a:	00737813          	andi	a6,t1,7
    335e:	4e01                	c.li	t3,0
    3360:	4e81                	c.li	t4,0
    3362:	bf19                	c.j	3278 <__adddf3+0x120>
    3364:	008006b7          	lui	a3,0x800
    3368:	7ff00793          	li	a5,2047
    336c:	00d76733          	or	a4,a4,a3
    3370:	14f58a63          	beq	a1,a5,34c4 <__adddf3+0x36c>
    3374:	03800793          	li	a5,56
    3378:	1bd7cc63          	blt	a5,t4,3530 <__adddf3+0x3d8>
    337c:	47fd                	c.li	a5,31
    337e:	37d7df63          	bge	a5,t4,36fc <__adddf3+0x5a4>
    3382:	01d75333          	srl	t1,a4,t4
    3386:	000ed7db          	beqc	t4,32,3394 <__adddf3+0x23c>
    338a:	41d007b3          	neg	a5,t4
    338e:	00f71733          	sll	a4,a4,a5
    3392:	8e59                	c.or	a2,a4
    3394:	00c03633          	snez	a2,a2
    3398:	00666333          	or	t1,a2,t1
    339c:	19c0006f          	j	3538 <__adddf3+0x3e0>
    33a0:	008006b7          	lui	a3,0x800
    33a4:	7ff00793          	li	a5,2047
    33a8:	00d76733          	or	a4,a4,a3
    33ac:	48f58a63          	beq	a1,a5,3840 <__adddf3+0x6e8>
    33b0:	03800793          	li	a5,56
    33b4:	2fd7ce63          	blt	a5,t4,36b0 <__adddf3+0x558>
    33b8:	47fd                	c.li	a5,31
    33ba:	4fd7cb63          	blt	a5,t4,38b0 <__adddf3+0x758>
    33be:	02000793          	li	a5,32
    33c2:	41d787b3          	sub	a5,a5,t4
    33c6:	00f71333          	sll	t1,a4,a5
    33ca:	01d656b3          	srl	a3,a2,t4
    33ce:	00f61633          	sll	a2,a2,a5
    33d2:	00d36333          	or	t1,t1,a3
    33d6:	00c03633          	snez	a2,a2
    33da:	01d75733          	srl	a4,a4,t4
    33de:	00c36333          	or	t1,t1,a2
    33e2:	9fba                	c.add	t6,a4
    33e4:	2d40006f          	j	36b8 <__adddf3+0x560>
    33e8:	7ff00793          	li	a5,2047
    33ec:	0efe8663          	beq	t4,a5,34d8 <__adddf3+0x380>
    33f0:	00000e13          	li	t3,0
    33f4:	00355513          	srli	a0,a0,0x3
    33f8:	01df9313          	slli	t1,t6,0x1d
    33fc:	7ff00793          	li	a5,2047
    3400:	00656333          	or	t1,a0,t1
    3404:	003fd813          	srli	a6,t6,0x3
    3408:	eefe9ee3          	bne	t4,a5,3304 <__adddf3+0x1ac>
    340c:	00686733          	or	a4,a6,t1
    3410:	3a070063          	beqz	a4,37b0 <__adddf3+0x658>
    3414:	4881                	c.li	a7,0
    3416:	7ff00793          	li	a5,2047
    341a:	00080737          	lui	a4,0x80
    341e:	4301                	c.li	t1,0
    3420:	4581                	c.li	a1,0
    3422:	fff006b7          	lui	a3,0xfff00
    3426:	8eed                	c.and	a3,a1
    3428:	4c07275b          	bfoz	a4,a4,19,0
    342c:	8f55                	c.or	a4,a3
    342e:	01479693          	slli	a3,a5,0x14
    3432:	801007b7          	lui	a5,0x80100
    3436:	17fd                	c.addi	a5,-1
    3438:	8ff9                	c.and	a5,a4
    343a:	8fd5                	c.or	a5,a3
    343c:	08fe                	c.slli	a7,0x1f
    343e:	7807a7db          	bfoz	a5,a5,30,0
    3442:	851a                	c.mv	a0,t1
    3444:	0117e5b3          	or	a1,a5,a7
    3448:	0e0e1063          	bnez	t3,3528 <__adddf3+0x3d0>
    344c:	00008067          	ret
    3450:	2c058c63          	beqz	a1,3728 <__adddf3+0x5d0>
    3454:	7ff00793          	li	a5,2047
    3458:	4ef68063          	beq	a3,a5,3938 <__adddf3+0x7e0>
    345c:	008005b7          	lui	a1,0x800
    3460:	41d007b3          	neg	a5,t4
    3464:	00bfefb3          	or	t6,t6,a1
    3468:	03800593          	li	a1,56
    346c:	50f5c263          	blt	a1,a5,3970 <__adddf3+0x818>
    3470:	45fd                	c.li	a1,31
    3472:	5af5c563          	blt	a1,a5,3a1c <__adddf3+0x8c4>
    3476:	02000593          	li	a1,32
    347a:	8d9d                	c.sub	a1,a5
    347c:	00bf9333          	sll	t1,t6,a1
    3480:	00f55833          	srl	a6,a0,a5
    3484:	00b515b3          	sll	a1,a0,a1
    3488:	01036333          	or	t1,t1,a6
    348c:	00b035b3          	snez	a1,a1
    3490:	00ffd7b3          	srl	a5,t6,a5
    3494:	00b36333          	or	t1,t1,a1
    3498:	40f70733          	sub	a4,a4,a5
    349c:	40660333          	sub	t1,a2,t1
    34a0:	00663633          	sltu	a2,a2,t1
    34a4:	8f11                	c.sub	a4,a2
    34a6:	85b6                	c.mv	a1,a3
    34a8:	011002b3          	add	t0,zero,a7
    34ac:	d1777e5b          	bbs	a4,23,31c8 <__adddf3+0x70>
    34b0:	00e36833          	or	a6,t1,a4
    34b4:	d80580e3          	beqz	a1,3234 <__adddf3+0xdc>
    34b8:	00737813          	andi	a6,t1,7
    34bc:	87ae                	c.mv	a5,a1
    34be:	4e01                	c.li	t3,0
    34c0:	4e81                	c.li	t4,0
    34c2:	bb5d                	c.j	3278 <__adddf3+0x120>
    34c4:	00afe7b3          	or	a5,t6,a0
    34c8:	28078063          	beqz	a5,3748 <__adddf3+0x5f0>
    34cc:	7ff00e93          	li	t4,2047
    34d0:	f36ff05b          	bbs	t6,22,33f0 <__adddf3+0x298>
    34d4:	4e41                	c.li	t3,16
    34d6:	bf39                	c.j	33f4 <__adddf3+0x29c>
    34d8:	00afe7b3          	or	a5,t6,a0
    34dc:	2a078663          	beqz	a5,3788 <__adddf3+0x630>
    34e0:	00400e37          	lui	t3,0x400
    34e4:	01cffe33          	and	t3,t6,t3
    34e8:	001e3e13          	seqz	t3,t3
    34ec:	0e12                	c.slli	t3,0x4
    34ee:	b719                	c.j	33f4 <__adddf3+0x29c>
    34f0:	320e9063          	bnez	t4,3810 <__adddf3+0x6b8>
    34f4:	00158793          	addi	a5,a1,1 # 800001 <FLASH_SIZE+0x700001>
    34f8:	7ff7f313          	andi	t1,a5,2047
    34fc:	4805                	c.li	a6,1
    34fe:	36685b63          	bge	a6,t1,3874 <__adddf3+0x71c>
    3502:	7ff00693          	li	a3,2047
    3506:	2cd78563          	beq	a5,a3,37d0 <__adddf3+0x678>
    350a:	962a                	c.add	a2,a0
    350c:	00a63533          	sltu	a0,a2,a0
    3510:	977e                	c.add	a4,t6
    3512:	972a                	c.add	a4,a0
    3514:	01f71313          	slli	t1,a4,0x1f
    3518:	8205                	c.srli	a2,0x1
    351a:	00c36333          	or	t1,t1,a2
    351e:	8305                	c.srli	a4,0x1
    3520:	00737813          	andi	a6,t1,7
    3524:	4e01                	c.li	t3,0
    3526:	bb89                	c.j	3278 <__adddf3+0x120>
    3528:	001e2073          	csrs	fflags,t3
    352c:	00008067          	ret
    3530:	00e66633          	or	a2,a2,a4
    3534:	00c03333          	snez	t1,a2
    3538:	40650333          	sub	t1,a0,t1
    353c:	00653533          	sltu	a0,a0,t1
    3540:	40af8733          	sub	a4,t6,a0
    3544:	b777765b          	bbc	a4,23,34b0 <__adddf3+0x358>
    3548:	c81ff06f          	j	31c8 <__adddf3+0x70>
    354c:	4e81                	c.li	t4,0
    354e:	4301                	c.li	t1,0
    3550:	4e01                	c.li	t3,0
    3552:	4c08275b          	bfoz	a4,a6,19,0
    3556:	7ffef793          	andi	a5,t4,2047
    355a:	0012f893          	andi	a7,t0,1
    355e:	b5c9                	c.j	3420 <__adddf3+0x2c8>
    3560:	82c6                	c.mv	t0,a7
    3562:	4e15                	c.li	t3,5
    3564:	080f1a63          	bnez	t5,35f8 <__adddf3+0x4a0>
    3568:	005e6e13          	ori	t3,t3,5
    356c:	005008b3          	add	a7,zero,t0
    3570:	0018f893          	andi	a7,a7,1
    3574:	7ff00793          	li	a5,2047
    3578:	4701                	c.li	a4,0
    357a:	4301                	c.li	t1,0
    357c:	ea5ff06f          	j	3420 <__adddf3+0x2c8>
    3580:	00f37693          	andi	a3,t1,15
    3584:	00100513          	li	a0,1
    3588:	9046d05b          	beqc	a3,4,3288 <__adddf3+0x130>
    358c:	00430593          	addi	a1,t1,4
    3590:	0065b333          	sltu	t1,a1,t1
    3594:	971a                	c.add	a4,t1
    3596:	008006b7          	lui	a3,0x800
    359a:	8672                	c.mv	a2,t3
    359c:	8ef9                	c.and	a3,a4
    359e:	832e                	c.mv	t1,a1
    35a0:	00a00e33          	add	t3,zero,a0
    35a4:	ce060ae3          	beqz	a2,3298 <__adddf3+0x140>
    35a8:	8e0e785b          	bbc	t3,0,3298 <__adddf3+0x140>
    35ac:	002e6e13          	ori	t3,t3,2
    35b0:	ce9ff06f          	j	3298 <__adddf3+0x140>
    35b4:	06029063          	bnez	t0,3614 <__adddf3+0x4bc>
    35b8:	008006b7          	lui	a3,0x800
    35bc:	8672                	c.mv	a2,t3
    35be:	8ef9                	c.and	a3,a4
    35c0:	4e05                	c.li	t3,1
    35c2:	b7cd                	c.j	35a4 <__adddf3+0x44c>
    35c4:	00100593          	li	a1,1
    35c8:	06028263          	beqz	t0,362c <__adddf3+0x4d4>
    35cc:	008006b7          	lui	a3,0x800
    35d0:	8672                	c.mv	a2,t3
    35d2:	8ef9                	c.and	a3,a4
    35d4:	8e2e                	c.mv	t3,a1
    35d6:	b7f9                	c.j	35a4 <__adddf3+0x44c>
    35d8:	ff8007b7          	lui	a5,0xff800
    35dc:	17fd                	c.addi	a5,-1
    35de:	8f7d                	c.and	a4,a5
    35e0:	8d95                	c.sub	a1,a3
    35e2:	00e36833          	or	a6,t1,a4
    35e6:	c40587e3          	beqz	a1,3234 <__adddf3+0xdc>
    35ea:	b5f9                	c.j	34b8 <__adddf3+0x360>
    35ec:	fd878713          	addi	a4,a5,-40 # ff7fffd8 <_DATA_LMA_START+0xdf7f9608>
    35f0:	00e31733          	sll	a4,t1,a4
    35f4:	4301                	c.li	t1,0
    35f6:	b119                	c.j	31fc <__adddf3+0xa4>
    35f8:	263f585b          	beqc	t5,3,3868 <__adddf3+0x710>
    35fc:	1a2f565b          	beqc	t5,2,37a8 <__adddf3+0x650>
    3600:	005e6e13          	ori	t3,t3,5
    3604:	20000737          	lui	a4,0x20000
    3608:	537d                	c.li	t1,-1
    360a:	fff70813          	addi	a6,a4,-1 # 1fffffff <FLASH_SIZE+0x1fefffff>
    360e:	7fe00e93          	li	t4,2046
    3612:	b9cd                	c.j	3304 <__adddf3+0x1ac>
    3614:	00830593          	addi	a1,t1,8
    3618:	0065b333          	sltu	t1,a1,t1
    361c:	971a                	c.add	a4,t1
    361e:	008006b7          	lui	a3,0x800
    3622:	8672                	c.mv	a2,t3
    3624:	8ef9                	c.and	a3,a4
    3626:	832e                	c.mv	t1,a1
    3628:	4e05                	c.li	t3,1
    362a:	bfad                	c.j	35a4 <__adddf3+0x44c>
    362c:	00830513          	addi	a0,t1,8
    3630:	00653333          	sltu	t1,a0,t1
    3634:	971a                	c.add	a4,t1
    3636:	008006b7          	lui	a3,0x800
    363a:	8672                	c.mv	a2,t3
    363c:	8ef9                	c.and	a3,a4
    363e:	832a                	c.mv	t1,a0
    3640:	8e2e                	c.mv	t3,a1
    3642:	b78d                	c.j	35a4 <__adddf3+0x44c>
    3644:	00afe833          	or	a6,t6,a0
    3648:	00c76333          	or	t1,a4,a2
    364c:	10059263          	bnez	a1,3750 <__adddf3+0x5f8>
    3650:	34081863          	bnez	a6,39a0 <__adddf3+0x848>
    3654:	42031063          	bnez	t1,3a74 <__adddf3+0x91c>
    3658:	ffef0893          	addi	a7,t5,-2
    365c:	0018b293          	seqz	t0,a7
    3660:	881a                	c.mv	a6,t1
    3662:	4e01                	c.li	t3,0
    3664:	ca1ff06f          	j	3304 <__adddf3+0x1ac>
    3668:	7ff00793          	li	a5,2047
    366c:	0cfe8a63          	beq	t4,a5,3740 <__adddf3+0x5e8>
    3670:	8ef2                	c.mv	t4,t3
    3672:	b309                	c.j	3374 <__adddf3+0x21c>
    3674:	fe158593          	addi	a1,a1,-31
    3678:	00b756b3          	srl	a3,a4,a1
    367c:	0007d8db          	beqc	a5,32,368c <__adddf3+0x534>
    3680:	40f007b3          	neg	a5,a5
    3684:	00f71733          	sll	a4,a4,a5
    3688:	00e36333          	or	t1,t1,a4
    368c:	00603333          	snez	t1,t1
    3690:	00d36333          	or	t1,t1,a3
    3694:	881a                	c.mv	a6,t1
    3696:	4701                	c.li	a4,0
    3698:	b9dff06f          	j	3234 <__adddf3+0xdc>
    369c:	40a60333          	sub	t1,a2,a0
    36a0:	41f70733          	sub	a4,a4,t6
    36a4:	00663633          	sltu	a2,a2,t1
    36a8:	40c70e33          	sub	t3,a4,a2
    36ac:	82c6                	c.mv	t0,a7
    36ae:	be39                	c.j	31cc <__adddf3+0x74>
    36b0:	00e66633          	or	a2,a2,a4
    36b4:	00c03333          	snez	t1,a2
    36b8:	00a30333          	add	t1,t1,a0
    36bc:	00a33533          	sltu	a0,t1,a0
    36c0:	01f50733          	add	a4,a0,t6
    36c4:	9f77765b          	bbc	a4,23,34b0 <__adddf3+0x358>
    36c8:	00158793          	addi	a5,a1,1
    36cc:	7ff00693          	li	a3,2047
    36d0:	c6d796e3          	bne	a5,a3,333c <__adddf3+0x1e4>
    36d4:	120f0c63          	beqz	t5,380c <__adddf3+0x6b4>
    36d8:	003f645b          	bnec	t5,3,36e0 <__adddf3+0x588>
    36dc:	3f40006f          	j	3ad0 <__adddf3+0x978>
    36e0:	122f525b          	beqc	t5,2,3804 <__adddf3+0x6ac>
    36e4:	420f0663          	beqz	t5,3b10 <__adddf3+0x9b8>
    36e8:	a63f6c5b          	bnec	t5,3,3560 <__adddf3+0x408>
    36ec:	577d                	c.li	a4,-1
    36ee:	537d                	c.li	t1,-1
    36f0:	7fe00793          	li	a5,2046
    36f4:	4e01                	c.li	t3,0
    36f6:	4595                	c.li	a1,5
    36f8:	ed1ff06f          	j	35c8 <__adddf3+0x470>
    36fc:	02000793          	li	a5,32
    3700:	41d787b3          	sub	a5,a5,t4
    3704:	00f71333          	sll	t1,a4,a5
    3708:	01d656b3          	srl	a3,a2,t4
    370c:	00f61633          	sll	a2,a2,a5
    3710:	00d36333          	or	t1,t1,a3
    3714:	00c03633          	snez	a2,a2
    3718:	01d75733          	srl	a4,a4,t4
    371c:	00c36333          	or	t1,t1,a2
    3720:	40ef8fb3          	sub	t6,t6,a4
    3724:	e15ff06f          	j	3538 <__adddf3+0x3e0>
    3728:	00afe7b3          	or	a5,t6,a0
    372c:	1e079c63          	bnez	a5,3924 <__adddf3+0x7cc>
    3730:	7ff00793          	li	a5,2047
    3734:	04f68463          	beq	a3,a5,377c <__adddf3+0x624>
    3738:	8332                	c.mv	t1,a2
    373a:	85b6                	c.mv	a1,a3
    373c:	82c6                	c.mv	t0,a7
    373e:	bb8d                	c.j	34b0 <__adddf3+0x358>
    3740:	00afe7b3          	or	a5,t6,a0
    3744:	d8079ee3          	bnez	a5,34e0 <__adddf3+0x388>
    3748:	8896                	c.mv	a7,t0
    374a:	4e01                	c.li	t3,0
    374c:	e25ff06f          	j	3570 <__adddf3+0x418>
    3750:	7ff00793          	li	a5,2047
    3754:	26f58e63          	beq	a1,a5,39d0 <__adddf3+0x878>
    3758:	08f68c63          	beq	a3,a5,37f0 <__adddf3+0x698>
    375c:	28081463          	bnez	a6,39e4 <__adddf3+0x88c>
    3760:	4501                	c.li	a0,0
    3762:	7ff805b7          	lui	a1,0x7ff80
    3766:	4e41                	c.li	t3,16
    3768:	dc0300e3          	beqz	t1,3528 <__adddf3+0x3d0>
    376c:	8e76                	c.mv	t3,t4
    376e:	82c6                	c.mv	t0,a7
    3770:	8fba                	c.mv	t6,a4
    3772:	8532                	c.mv	a0,a2
    3774:	7ff00e93          	li	t4,2047
    3778:	c7dff06f          	j	33f4 <__adddf3+0x29c>
    377c:	00c767b3          	or	a5,a4,a2
    3780:	1c079063          	bnez	a5,3940 <__adddf3+0x7e8>
    3784:	011002b3          	add	t0,zero,a7
    3788:	4301                	c.li	t1,0
    378a:	4801                	c.li	a6,0
    378c:	4e01                	c.li	t3,0
    378e:	b9bd                	c.j	340c <__adddf3+0x2b4>
    3790:	7ff00693          	li	a3,2047
    3794:	2ade8463          	beq	t4,a3,3a3c <__adddf3+0x8e4>
    3798:	8ebe                	c.mv	t4,a5
    379a:	b919                	c.j	33b0 <__adddf3+0x258>
    379c:	00737813          	andi	a6,t1,7
    37a0:	4e81                	c.li	t4,0
    37a2:	4785                	c.li	a5,1
    37a4:	ad5ff06f          	j	3278 <__adddf3+0x120>
    37a8:	005e6e13          	ori	t3,t3,5
    37ac:	e4028ce3          	beqz	t0,3604 <__adddf3+0x4ac>
    37b0:	8896                	c.mv	a7,t0
    37b2:	bb7d                	c.j	3570 <__adddf3+0x418>
    37b4:	00f7f693          	andi	a3,a5,15
    37b8:	4e85                	c.li	t4,1
    37ba:	0046e45b          	bnec	a3,4,37c2 <__adddf3+0x66a>
    37be:	aabff06f          	j	3268 <__adddf3+0x110>
    37c2:	ffc7b793          	sltiu	a5,a5,-4
    37c6:	0017c793          	xori	a5,a5,1
    37ca:	9e3e                	c.add	t3,a5
    37cc:	a9dff06f          	j	3268 <__adddf3+0x110>
    37d0:	020f0e63          	beqz	t5,380c <__adddf3+0x6b4>
    37d4:	323f525b          	beqc	t5,3,3af8 <__adddf3+0x9a0>
    37d8:	b02f665b          	bnec	t5,2,36e4 <__adddf3+0x58c>
    37dc:	02089863          	bnez	a7,380c <__adddf3+0x6b4>
    37e0:	537d                	c.li	t1,-1
    37e2:	7fe00793          	li	a5,2046
    37e6:	577d                	c.li	a4,-1
    37e8:	4e15                	c.li	t3,5
    37ea:	bc4d                	c.j	329c <__adddf3+0x144>
    37ec:	f6b69ae3          	bne	a3,a1,3760 <__adddf3+0x608>
    37f0:	f60306e3          	beqz	t1,375c <__adddf3+0x604>
    37f4:	4167745b          	bbs	a4,22,37fc <__adddf3+0x6a4>
    37f8:	01000e93          	li	t4,16
    37fc:	f60808e3          	beqz	a6,376c <__adddf3+0x614>
    3800:	8e76                	c.mv	t3,t4
    3802:	b909                	c.j	3414 <__adddf3+0x2bc>
    3804:	fc028ee3          	beqz	t0,37e0 <__adddf3+0x688>
    3808:	005008b3          	add	a7,zero,t0
    380c:	4e15                	c.li	t3,5
    380e:	b38d                	c.j	3570 <__adddf3+0x418>
    3810:	e1e1                	c.bnez	a1,38d0 <__adddf3+0x778>
    3812:	00afe7b3          	or	a5,t6,a0
    3816:	1c079d63          	bnez	a5,39f0 <__adddf3+0x898>
    381a:	7ff00793          	li	a5,2047
    381e:	8332                	c.mv	t1,a2
    3820:	85b6                	c.mv	a1,a3
    3822:	c8f697e3          	bne	a3,a5,34b0 <__adddf3+0x358>
    3826:	00c767b3          	or	a5,a4,a2
    382a:	dfb9                	c.beqz	a5,3788 <__adddf3+0x630>
    382c:	7ff00e93          	li	t4,2047
    3830:	8fba                	c.mv	t6,a4
    3832:	8532                	c.mv	a0,a2
    3834:	0167745b          	bbc	a4,22,383c <__adddf3+0x6e4>
    3838:	bb9ff06f          	j	33f0 <__adddf3+0x298>
    383c:	4e41                	c.li	t3,16
    383e:	be5d                	c.j	33f4 <__adddf3+0x29c>
    3840:	00afe7b3          	or	a5,t6,a0
    3844:	c80794e3          	bnez	a5,34cc <__adddf3+0x374>
    3848:	4e01                	c.li	t3,0
    384a:	b31d                	c.j	3570 <__adddf3+0x418>
    384c:	00100e93          	li	t4,1
    3850:	a0028ce3          	beqz	t0,3268 <__adddf3+0x110>
    3854:	ff87b793          	sltiu	a5,a5,-8
    3858:	0017c793          	xori	a5,a5,1
    385c:	9e3e                	c.add	t3,a5
    385e:	b429                	c.j	3268 <__adddf3+0x110>
    3860:	4e85                	c.li	t4,1
    3862:	a00293e3          	bnez	t0,3268 <__adddf3+0x110>
    3866:	b7fd                	c.j	3854 <__adddf3+0x6fc>
    3868:	d8029ce3          	bnez	t0,3600 <__adddf3+0x4a8>
    386c:	005e6e13          	ori	t3,t3,5
    3870:	4881                	c.li	a7,0
    3872:	b9fd                	c.j	3570 <__adddf3+0x418>
    3874:	00afe7b3          	or	a5,t6,a0
    3878:	10059263          	bnez	a1,397c <__adddf3+0x824>
    387c:	00c76833          	or	a6,a4,a2
    3880:	1e078463          	beqz	a5,3a68 <__adddf3+0x910>
    3884:	0e080263          	beqz	a6,3968 <__adddf3+0x810>
    3888:	00c50333          	add	t1,a0,a2
    388c:	977e                	c.add	a4,t6
    388e:	00a33533          	sltu	a0,t1,a0
    3892:	972a                	c.add	a4,a0
    3894:	4177745b          	bbs	a4,23,389c <__adddf3+0x744>
    3898:	999ff06f          	j	3230 <__adddf3+0xd8>
    389c:	ff8007b7          	lui	a5,0xff800
    38a0:	17fd                	c.addi	a5,-1
    38a2:	8f7d                	c.and	a4,a5
    38a4:	00737813          	andi	a6,t1,7
    38a8:	4e01                	c.li	t3,0
    38aa:	4785                	c.li	a5,1
    38ac:	9cdff06f          	j	3278 <__adddf3+0x120>
    38b0:	01d75333          	srl	t1,a4,t4
    38b4:	000ed8db          	beqc	t4,32,38c4 <__adddf3+0x76c>
    38b8:	41d007b3          	neg	a5,t4
    38bc:	00f71733          	sll	a4,a4,a5
    38c0:	00e66633          	or	a2,a2,a4
    38c4:	00c03633          	snez	a2,a2
    38c8:	00666333          	or	t1,a2,t1
    38cc:	dedff06f          	j	36b8 <__adddf3+0x560>
    38d0:	7ff00793          	li	a5,2047
    38d4:	12f68863          	beq	a3,a5,3a04 <__adddf3+0x8ac>
    38d8:	008005b7          	lui	a1,0x800
    38dc:	41d007b3          	neg	a5,t4
    38e0:	00bfefb3          	or	t6,t6,a1
    38e4:	03800593          	li	a1,56
    38e8:	12f5c463          	blt	a1,a5,3a10 <__adddf3+0x8b8>
    38ec:	45fd                	c.li	a1,31
    38ee:	1cf5c163          	blt	a1,a5,3ab0 <__adddf3+0x958>
    38f2:	02000593          	li	a1,32
    38f6:	8d9d                	c.sub	a1,a5
    38f8:	00bf9333          	sll	t1,t6,a1
    38fc:	00f55833          	srl	a6,a0,a5
    3900:	00b515b3          	sll	a1,a0,a1
    3904:	01036333          	or	t1,t1,a6
    3908:	00b035b3          	snez	a1,a1
    390c:	00ffd7b3          	srl	a5,t6,a5
    3910:	00b36333          	or	t1,t1,a1
    3914:	00f70733          	add	a4,a4,a5
    3918:	9332                	c.add	t1,a2
    391a:	00c33633          	sltu	a2,t1,a2
    391e:	9732                	c.add	a4,a2
    3920:	85b6                	c.mv	a1,a3
    3922:	b34d                	c.j	36c4 <__adddf3+0x56c>
    3924:	57fd                	c.li	a5,-1
    3926:	12fe8163          	beq	t4,a5,3a48 <__adddf3+0x8f0>
    392a:	7ff00793          	li	a5,2047
    392e:	00f68563          	beq	a3,a5,3938 <__adddf3+0x7e0>
    3932:	fffec793          	not	a5,t4
    3936:	be0d                	c.j	3468 <__adddf3+0x310>
    3938:	00c767b3          	or	a5,a4,a2
    393c:	f00786e3          	beqz	a5,3848 <__adddf3+0x6f0>
    3940:	7ff00e93          	li	t4,2047
    3944:	82c6                	c.mv	t0,a7
    3946:	8fba                	c.mv	t6,a4
    3948:	8532                	c.mv	a0,a2
    394a:	0167745b          	bbc	a4,22,3952 <__adddf3+0x7fa>
    394e:	aa3ff06f          	j	33f0 <__adddf3+0x298>
    3952:	4e41                	c.li	t3,16
    3954:	aa1ff06f          	j	33f4 <__adddf3+0x29c>
    3958:	00f6e833          	or	a6,a3,a5
    395c:	98080ee3          	beqz	a6,32f8 <__adddf3+0x1a0>
    3960:	0076f813          	andi	a6,a3,7
    3964:	8fbe                	c.mv	t6,a5
    3966:	8536                	c.mv	a0,a3
    3968:	877e                	c.mv	a4,t6
    396a:	832a                	c.mv	t1,a0
    396c:	8d1ff06f          	j	323c <__adddf3+0xe4>
    3970:	00afe533          	or	a0,t6,a0
    3974:	00a03333          	snez	t1,a0
    3978:	b25ff06f          	j	349c <__adddf3+0x344>
    397c:	7ff00813          	li	a6,2047
    3980:	11058463          	beq	a1,a6,3a88 <__adddf3+0x930>
    3984:	17068463          	beq	a3,a6,3aec <__adddf3+0x994>
    3988:	0e078a63          	beqz	a5,3a7c <__adddf3+0x924>
    398c:	00e66633          	or	a2,a2,a4
    3990:	e60618e3          	bnez	a2,3800 <__adddf3+0x6a8>
    3994:	8e76                	c.mv	t3,t4
    3996:	82c6                	c.mv	t0,a7
    3998:	7ff00e93          	li	t4,2047
    399c:	a59ff06f          	j	33f4 <__adddf3+0x29c>
    39a0:	0c030863          	beqz	t1,3a70 <__adddf3+0x918>
    39a4:	40c506b3          	sub	a3,a0,a2
    39a8:	40ef87b3          	sub	a5,t6,a4
    39ac:	00d535b3          	sltu	a1,a0,a3
    39b0:	8f8d                	c.sub	a5,a1
    39b2:	bb77f35b          	bbc	a5,23,3958 <__adddf3+0x800>
    39b6:	40a60333          	sub	t1,a2,a0
    39ba:	41f70733          	sub	a4,a4,t6
    39be:	00663633          	sltu	a2,a2,t1
    39c2:	8f11                	c.sub	a4,a2
    39c4:	00e36833          	or	a6,t1,a4
    39c8:	011002b3          	add	t0,zero,a7
    39cc:	869ff06f          	j	3234 <__adddf3+0xdc>
    39d0:	e0080ee3          	beqz	a6,37ec <__adddf3+0x694>
    39d4:	416ff45b          	bbs	t6,22,39dc <__adddf3+0x884>
    39d8:	01000e93          	li	t4,16
    39dc:	7ff00793          	li	a5,2047
    39e0:	e0f688e3          	beq	a3,a5,37f0 <__adddf3+0x698>
    39e4:	e0031ee3          	bnez	t1,3800 <__adddf3+0x6a8>
    39e8:	8e76                	c.mv	t3,t4
    39ea:	7ff00e93          	li	t4,2047
    39ee:	b419                	c.j	33f4 <__adddf3+0x29c>
    39f0:	57fd                	c.li	a5,-1
    39f2:	0efe8563          	beq	t4,a5,3adc <__adddf3+0x984>
    39f6:	7ff00793          	li	a5,2047
    39fa:	00f68563          	beq	a3,a5,3a04 <__adddf3+0x8ac>
    39fe:	fffec793          	not	a5,t4
    3a02:	b5cd                	c.j	38e4 <__adddf3+0x78c>
    3a04:	00c767b3          	or	a5,a4,a2
    3a08:	e20792e3          	bnez	a5,382c <__adddf3+0x6d4>
    3a0c:	4e01                	c.li	t3,0
    3a0e:	b68d                	c.j	3570 <__adddf3+0x418>
    3a10:	00afe533          	or	a0,t6,a0
    3a14:	00a03333          	snez	t1,a0
    3a18:	f01ff06f          	j	3918 <__adddf3+0x7c0>
    3a1c:	00ffd333          	srl	t1,t6,a5
    3a20:	0007d8db          	beqc	a5,32,3a30 <__adddf3+0x8d8>
    3a24:	40f007b3          	neg	a5,a5
    3a28:	00ff9833          	sll	a6,t6,a5
    3a2c:	01056533          	or	a0,a0,a6
    3a30:	00a03533          	snez	a0,a0
    3a34:	00656333          	or	t1,a0,t1
    3a38:	a65ff06f          	j	349c <__adddf3+0x344>
    3a3c:	00afe7b3          	or	a5,t6,a0
    3a40:	e00784e3          	beqz	a5,3848 <__adddf3+0x6f0>
    3a44:	a9dff06f          	j	34e0 <__adddf3+0x388>
    3a48:	40a60333          	sub	t1,a2,a0
    3a4c:	41f70733          	sub	a4,a4,t6
    3a50:	00663633          	sltu	a2,a2,t1
    3a54:	8f11                	c.sub	a4,a2
    3a56:	85b6                	c.mv	a1,a3
    3a58:	011002b3          	add	t0,zero,a7
    3a5c:	4177745b          	bbs	a4,23,3a64 <__adddf3+0x90c>
    3a60:	a51ff06f          	j	34b0 <__adddf3+0x358>
    3a64:	f64ff06f          	j	31c8 <__adddf3+0x70>
    3a68:	00c00333          	add	t1,zero,a2
    3a6c:	fc8ff06f          	j	3234 <__adddf3+0xdc>
    3a70:	4801                	c.li	a6,0
    3a72:	bddd                	c.j	3968 <__adddf3+0x810>
    3a74:	8fba                	c.mv	t6,a4
    3a76:	8532                	c.mv	a0,a2
    3a78:	82c6                	c.mv	t0,a7
    3a7a:	b5fd                	c.j	3968 <__adddf3+0x810>
    3a7c:	8fba                	c.mv	t6,a4
    3a7e:	8532                	c.mv	a0,a2
    3a80:	4e01                	c.li	t3,0
    3a82:	7ff00e93          	li	t4,2047
    3a86:	b2bd                	c.j	33f4 <__adddf3+0x29c>
    3a88:	cfa5                	c.beqz	a5,3b00 <__adddf3+0x9a8>
    3a8a:	416ff35b          	bbs	t6,22,3a90 <__adddf3+0x938>
    3a8e:	4ec1                	c.li	t4,16
    3a90:	7ff00593          	li	a1,2047
    3a94:	eeb69ce3          	bne	a3,a1,398c <__adddf3+0x834>
    3a98:	00c766b3          	or	a3,a4,a2
    3a9c:	ee068ce3          	beqz	a3,3994 <__adddf3+0x83c>
    3aa0:	4167745b          	bbs	a4,22,3aa8 <__adddf3+0x950>
    3aa4:	01000e93          	li	t4,16
    3aa8:	cc0782e3          	beqz	a5,376c <__adddf3+0x614>
    3aac:	8e76                	c.mv	t3,t4
    3aae:	b29d                	c.j	3414 <__adddf3+0x2bc>
    3ab0:	00ffd333          	srl	t1,t6,a5
    3ab4:	0007d8db          	beqc	a5,32,3ac4 <__adddf3+0x96c>
    3ab8:	40f007b3          	neg	a5,a5
    3abc:	00ff9833          	sll	a6,t6,a5
    3ac0:	01056533          	or	a0,a0,a6
    3ac4:	00a03533          	snez	a0,a0
    3ac8:	00656333          	or	t1,a0,t1
    3acc:	e4dff06f          	j	3918 <__adddf3+0x7c0>
    3ad0:	d00298e3          	bnez	t0,37e0 <__adddf3+0x688>
    3ad4:	4881                	c.li	a7,0
    3ad6:	4e15                	c.li	t3,5
    3ad8:	a99ff06f          	j	3570 <__adddf3+0x418>
    3adc:	00c50333          	add	t1,a0,a2
    3ae0:	977e                	c.add	a4,t6
    3ae2:	00c33633          	sltu	a2,t1,a2
    3ae6:	9732                	c.add	a4,a2
    3ae8:	85b6                	c.mv	a1,a3
    3aea:	bee9                	c.j	36c4 <__adddf3+0x56c>
    3aec:	00c766b3          	or	a3,a4,a2
    3af0:	fac5                	c.bnez	a3,3aa0 <__adddf3+0x948>
    3af2:	ea0791e3          	bnez	a5,3994 <__adddf3+0x83c>
    3af6:	b949                	c.j	3788 <__adddf3+0x630>
    3af8:	ce0894e3          	bnez	a7,37e0 <__adddf3+0x688>
    3afc:	4e15                	c.li	t3,5
    3afe:	bc8d                	c.j	3570 <__adddf3+0x418>
    3b00:	f6b69ee3          	bne	a3,a1,3a7c <__adddf3+0x924>
    3b04:	00c766b3          	or	a3,a4,a2
    3b08:	c80680e3          	beqz	a3,3788 <__adddf3+0x630>
    3b0c:	f95ff06f          	j	3aa0 <__adddf3+0x948>
    3b10:	4e01                	c.li	t3,0
    3b12:	7fe00793          	li	a5,2046
    3b16:	4515                	c.li	a0,5
    3b18:	537d                	c.li	t1,-1
    3b1a:	577d                	c.li	a4,-1
    3b1c:	a71ff06f          	j	358c <__adddf3+0x434>
    3b20:	851a                	c.mv	a0,t1
    3b22:	8ebe                	c.mv	t4,a5
    3b24:	8fba                	c.mv	t6,a4
    3b26:	b0f9                	c.j	33f4 <__adddf3+0x29c>
    3b28:	00100e13          	li	t3,1
    3b2c:	f6cff06f          	j	3298 <__adddf3+0x140>
    3b30:	008006b7          	lui	a3,0x800
    3b34:	8672                	c.mv	a2,t3
    3b36:	8ef9                	c.and	a3,a4
    3b38:	8e76                	c.mv	t3,t4
    3b3a:	b4ad                	c.j	35a4 <__adddf3+0x44c>

00003b3c <__divdf3>:
    3b3c:	1101                	c.addi	sp,-32
    3b3e:	ce22                	c.swsp	s0,28(sp)
    3b40:	cc26                	c.swsp	s1,24(sp)
    3b42:	ca4a                	c.swsp	s2,20(sp)
    3b44:	c84e                	c.swsp	s3,16(sp)
    3b46:	c652                	c.swsp	s4,12(sp)
    3b48:	00202ef3          	frrm	t4
    3b4c:	7945a75b          	bfoz	a4,a1,30,20
    3b50:	4c05a7db          	bfoz	a5,a1,19,0
    3b54:	81fd                	c.srli	a1,0x1f
    3b56:	c37d                	c.beqz	a4,3c3c <__divdf3+0x100>
    3b58:	7ff00813          	li	a6,2047
    3b5c:	07070a63          	beq	a4,a6,3bd0 <__divdf3+0x94>
    3b60:	078e                	c.slli	a5,0x3
    3b62:	00800837          	lui	a6,0x800
    3b66:	01d55893          	srli	a7,a0,0x1d
    3b6a:	0107e7b3          	or	a5,a5,a6
    3b6e:	00f8e8b3          	or	a7,a7,a5
    3b72:	050e                	c.slli	a0,0x3
    3b74:	c0170f93          	addi	t6,a4,-1023
    3b78:	4781                	c.li	a5,0
    3b7a:	4381                	c.li	t2,0
    3b7c:	00000e13          	li	t3,0
    3b80:	7946a85b          	bfoz	a6,a3,30,20
    3b84:	4c06a75b          	bfoz	a4,a3,19,0
    3b88:	01f6d693          	srli	a3,a3,0x1f
    3b8c:	06080463          	beqz	a6,3bf4 <__divdf3+0xb8>
    3b90:	7ff00313          	li	t1,2047
    3b94:	0e680a63          	beq	a6,t1,3c88 <__divdf3+0x14c>
    3b98:	070e                	c.slli	a4,0x3
    3b9a:	00800f37          	lui	t5,0x800
    3b9e:	01d65313          	srli	t1,a2,0x1d
    3ba2:	01e76733          	or	a4,a4,t5
    3ba6:	c0180813          	addi	a6,a6,-1023 # 7ffc01 <FLASH_SIZE+0x6ffc01>
    3baa:	00e36733          	or	a4,t1,a4
    3bae:	060e                	c.slli	a2,0x3
    3bb0:	410f8fb3          	sub	t6,t6,a6
    3bb4:	00000293          	li	t0,0
    3bb8:	00d5c833          	xor	a6,a1,a3
    3bbc:	433d                	c.li	t1,15
    3bbe:	8f42                	c.mv	t5,a6
    3bc0:	12f36063          	bltu	t1,a5,3ce0 <__divdf3+0x1a4>
    3bc4:	7210130b          	addigp	t1,3872 # 81720 <twooverpi.0+0x20>
    3bc8:	0cf307db          	lea.w	a5,t1,a5
    3bcc:	439c                	c.lw	a5,0(a5)
    3bce:	8782                	c.jr	a5
    3bd0:	00a7e8b3          	or	a7,a5,a0
    3bd4:	0e089a63          	bnez	a7,3cc8 <__divdf3+0x18c>
    3bd8:	7946a85b          	bfoz	a6,a3,30,20
    3bdc:	4c06a75b          	bfoz	a4,a3,19,0
    3be0:	47a1                	c.li	a5,8
    3be2:	4501                	c.li	a0,0
    3be4:	7ff00f93          	li	t6,2047
    3be8:	4389                	c.li	t2,2
    3bea:	4e01                	c.li	t3,0
    3bec:	01f6d693          	srli	a3,a3,0x1f
    3bf0:	fa0810e3          	bnez	a6,3b90 <__divdf3+0x54>
    3bf4:	00c76833          	or	a6,a4,a2
    3bf8:	0a080663          	beqz	a6,3ca4 <__divdf3+0x168>
    3bfc:	af97087f          	clz32	a6,a4
    3c00:	00071663          	bnez	a4,3c0c <__divdf3+0xd0>
    3c04:	af96087f          	clz32	a6,a2
    3c08:	02080813          	addi	a6,a6,32
    3c0c:	ff580293          	addi	t0,a6,-11
    3c10:	4371                	c.li	t1,28
    3c12:	36534363          	blt	t1,t0,3f78 <__divdf3+0x43c>
    3c16:	4375                	c.li	t1,29
    3c18:	ff880f13          	addi	t5,a6,-8
    3c1c:	40530333          	sub	t1,t1,t0
    3c20:	00665333          	srl	t1,a2,t1
    3c24:	01e71733          	sll	a4,a4,t5
    3c28:	00e36733          	or	a4,t1,a4
    3c2c:	01e61633          	sll	a2,a2,t5
    3c30:	9fc2                	c.add	t6,a6
    3c32:	3f3f8f93          	addi	t6,t6,1011
    3c36:	4281                	c.li	t0,0
    3c38:	f81ff06f          	j	3bb8 <__divdf3+0x7c>
    3c3c:	00a7e8b3          	or	a7,a5,a0
    3c40:	06088e63          	beqz	a7,3cbc <__divdf3+0x180>
    3c44:	af97877f          	clz32	a4,a5
    3c48:	00079663          	bnez	a5,3c54 <__divdf3+0x118>
    3c4c:	af95077f          	clz32	a4,a0
    3c50:	02070713          	addi	a4,a4,32
    3c54:	ff570313          	addi	t1,a4,-11
    3c58:	4871                	c.li	a6,28
    3c5a:	32684563          	blt	a6,t1,3f84 <__divdf3+0x448>
    3c5e:	48f5                	c.li	a7,29
    3c60:	ff870813          	addi	a6,a4,-8
    3c64:	406888b3          	sub	a7,a7,t1
    3c68:	011558b3          	srl	a7,a0,a7
    3c6c:	010797b3          	sll	a5,a5,a6
    3c70:	00f8e8b3          	or	a7,a7,a5
    3c74:	01051533          	sll	a0,a0,a6
    3c78:	c0d00f93          	li	t6,-1011
    3c7c:	40ef8fb3          	sub	t6,t6,a4
    3c80:	4781                	c.li	a5,0
    3c82:	4381                	c.li	t2,0
    3c84:	4e01                	c.li	t3,0
    3c86:	bded                	c.j	3b80 <__divdf3+0x44>
    3c88:	00c76833          	or	a6,a4,a2
    3c8c:	801f8f93          	addi	t6,t6,-2047
    3c90:	02080063          	beqz	a6,3cb0 <__divdf3+0x174>
    3c94:	0037e793          	ori	a5,a5,3
    3c98:	428d                	c.li	t0,3
    3c9a:	f1377f5b          	bbs	a4,19,3bb8 <__divdf3+0x7c>
    3c9e:	4e41                	c.li	t3,16
    3ca0:	f19ff06f          	j	3bb8 <__divdf3+0x7c>
    3ca4:	0017e793          	ori	a5,a5,1
    3ca8:	4701                	c.li	a4,0
    3caa:	4601                	c.li	a2,0
    3cac:	4285                	c.li	t0,1
    3cae:	b729                	c.j	3bb8 <__divdf3+0x7c>
    3cb0:	0027e793          	ori	a5,a5,2
    3cb4:	4701                	c.li	a4,0
    3cb6:	4601                	c.li	a2,0
    3cb8:	4289                	c.li	t0,2
    3cba:	bdfd                	c.j	3bb8 <__divdf3+0x7c>
    3cbc:	4791                	c.li	a5,4
    3cbe:	4501                	c.li	a0,0
    3cc0:	4f81                	c.li	t6,0
    3cc2:	4385                	c.li	t2,1
    3cc4:	4e01                	c.li	t3,0
    3cc6:	bd6d                	c.j	3b80 <__divdf3+0x44>
    3cc8:	0137d713          	srli	a4,a5,0x13
    3ccc:	88be                	c.mv	a7,a5
    3cce:	7ff00f93          	li	t6,2047
    3cd2:	47b1                	c.li	a5,12
    3cd4:	438d                	c.li	t2,3
    3cd6:	4e41                	c.li	t3,16
    3cd8:	ea0704e3          	beqz	a4,3b80 <__divdf3+0x44>
    3cdc:	4e01                	c.li	t3,0
    3cde:	b54d                	c.j	3b80 <__divdf3+0x44>
    3ce0:	2f176063          	bltu	a4,a7,3fc0 <__divdf3+0x484>
    3ce4:	2ce88c63          	beq	a7,a4,3fbc <__divdf3+0x480>
    3ce8:	85aa                	c.mv	a1,a0
    3cea:	1ffd                	c.addi	t6,-1
    3cec:	00000513          	li	a0,0
    3cf0:	0722                	c.slli	a4,0x8
    3cf2:	01865313          	srli	t1,a2,0x18
    3cf6:	00e36333          	or	t1,t1,a4
    3cfa:	01035293          	srli	t0,t1,0x10
    3cfe:	0258d733          	divu	a4,a7,t0
    3d02:	3c0323db          	bfoz	t2,t1,15,0
    3d06:	00861413          	slli	s0,a2,0x8
    3d0a:	0105d793          	srli	a5,a1,0x10
    3d0e:	0258f8b3          	remu	a7,a7,t0
    3d12:	02e38633          	mul	a2,t2,a4
    3d16:	08c2                	c.slli	a7,0x10
    3d18:	0117e7b3          	or	a5,a5,a7
    3d1c:	00c7fc63          	bgeu	a5,a2,3d34 <__divdf3+0x1f8>
    3d20:	979a                	c.add	a5,t1
    3d22:	fff70693          	addi	a3,a4,-1
    3d26:	3a67e963          	bltu	a5,t1,40d8 <__divdf3+0x59c>
    3d2a:	3ac7f763          	bgeu	a5,a2,40d8 <__divdf3+0x59c>
    3d2e:	1779                	c.addi	a4,-2
    3d30:	006787b3          	add	a5,a5,t1
    3d34:	8f91                	c.sub	a5,a2
    3d36:	0257d6b3          	divu	a3,a5,t0
    3d3a:	0257f7b3          	remu	a5,a5,t0
    3d3e:	02d38933          	mul	s2,t2,a3
    3d42:	0eb797ff          	pkbb16	a5,a5,a1
    3d46:	0127fb63          	bgeu	a5,s2,3d5c <__divdf3+0x220>
    3d4a:	979a                	c.add	a5,t1
    3d4c:	fff68613          	addi	a2,a3,-1 # 7fffff <FLASH_SIZE+0x6fffff>
    3d50:	3867e663          	bltu	a5,t1,40dc <__divdf3+0x5a0>
    3d54:	3927f463          	bgeu	a5,s2,40dc <__divdf3+0x5a0>
    3d58:	16f9                	c.addi	a3,-2
    3d5a:	979a                	c.add	a5,t1
    3d5c:	0742                	c.slli	a4,0x10
    3d5e:	69c1                	c.lui	s3,0x10
    3d60:	8f55                	c.or	a4,a3
    3d62:	fff98693          	addi	a3,s3,-1 # ffff <BIN_SIZE+0x7dc5>
    3d66:	00d478b3          	and	a7,s0,a3
    3d6a:	01075613          	srli	a2,a4,0x10
    3d6e:	031605b3          	mul	a1,a2,a7
    3d72:	8ef9                	c.and	a3,a4
    3d74:	01045493          	srli	s1,s0,0x10
    3d78:	412787b3          	sub	a5,a5,s2
    3d7c:	03168a33          	mul	s4,a3,a7
    3d80:	892e                	c.mv	s2,a1
    3d82:	c4d4997f          	maddr32	s2,s1,a3
    3d86:	02960633          	mul	a2,a2,s1
    3d8a:	010a5693          	srli	a3,s4,0x10
    3d8e:	96ca                	c.add	a3,s2
    3d90:	00b6f463          	bgeu	a3,a1,3d98 <__divdf3+0x25c>
    3d94:	01360633          	add	a2,a2,s3
    3d98:	69c1                	c.lui	s3,0x10
    3d9a:	19fd                	c.addi	s3,-1
    3d9c:	0106d913          	srli	s2,a3,0x10
    3da0:	0136f5b3          	and	a1,a3,s3
    3da4:	05c2                	c.slli	a1,0x10
    3da6:	013a76b3          	and	a3,s4,s3
    3daa:	964a                	c.add	a2,s2
    3dac:	00d585b3          	add	a1,a1,a3
    3db0:	1ec7e463          	bltu	a5,a2,3f98 <__divdf3+0x45c>
    3db4:	1cc78e63          	beq	a5,a2,3f90 <__divdf3+0x454>
    3db8:	40c786b3          	sub	a3,a5,a2
    3dbc:	40b505b3          	sub	a1,a0,a1
    3dc0:	00b53533          	sltu	a0,a0,a1
    3dc4:	40a68533          	sub	a0,a3,a0
    3dc8:	3fff8793          	addi	a5,t6,1023
    3dcc:	3aa30863          	beq	t1,a0,417c <__divdf3+0x640>
    3dd0:	02555633          	divu	a2,a0,t0
    3dd4:	0105d693          	srli	a3,a1,0x10
    3dd8:	02557533          	remu	a0,a0,t0
    3ddc:	02c38833          	mul	a6,t2,a2
    3de0:	0542                	c.slli	a0,0x10
    3de2:	8d55                	c.or	a0,a3
    3de4:	01057c63          	bgeu	a0,a6,3dfc <__divdf3+0x2c0>
    3de8:	951a                	c.add	a0,t1
    3dea:	fff60693          	addi	a3,a2,-1
    3dee:	3a656763          	bltu	a0,t1,419c <__divdf3+0x660>
    3df2:	3b057563          	bgeu	a0,a6,419c <__divdf3+0x660>
    3df6:	1679                	c.addi	a2,-2
    3df8:	00650533          	add	a0,a0,t1
    3dfc:	41050533          	sub	a0,a0,a6
    3e00:	025556b3          	divu	a3,a0,t0
    3e04:	02557533          	remu	a0,a0,t0
    3e08:	02d383b3          	mul	t2,t2,a3
    3e0c:	0eb5157f          	pkbb16	a0,a0,a1
    3e10:	00757c63          	bgeu	a0,t2,3e28 <__divdf3+0x2ec>
    3e14:	951a                	c.add	a0,t1
    3e16:	fff68593          	addi	a1,a3,-1
    3e1a:	36656f63          	bltu	a0,t1,4198 <__divdf3+0x65c>
    3e1e:	36757d63          	bgeu	a0,t2,4198 <__divdf3+0x65c>
    3e22:	16f9                	c.addi	a3,-2
    3e24:	00650533          	add	a0,a0,t1
    3e28:	0642                	c.slli	a2,0x10
    3e2a:	8e55                	c.or	a2,a3
    3e2c:	01065813          	srli	a6,a2,0x10
    3e30:	031805b3          	mul	a1,a6,a7
    3e34:	3c0626db          	bfoz	a3,a2,15,0
    3e38:	40750533          	sub	a0,a0,t2
    3e3c:	02d888b3          	mul	a7,a7,a3
    3e40:	82ae                	c.mv	t0,a1
    3e42:	c4d492ff          	maddr32	t0,s1,a3
    3e46:	030484b3          	mul	s1,s1,a6
    3e4a:	0108d693          	srli	a3,a7,0x10
    3e4e:	9696                	c.add	a3,t0
    3e50:	00b6f463          	bgeu	a3,a1,3e58 <__divdf3+0x31c>
    3e54:	65c1                	c.lui	a1,0x10
    3e56:	94ae                	c.add	s1,a1
    3e58:	6841                	c.lui	a6,0x10
    3e5a:	187d                	c.addi	a6,-1
    3e5c:	0106d593          	srli	a1,a3,0x10
    3e60:	0106f6b3          	and	a3,a3,a6
    3e64:	06c2                	c.slli	a3,0x10
    3e66:	0108f8b3          	and	a7,a7,a6
    3e6a:	94ae                	c.add	s1,a1
    3e6c:	00d888b3          	add	a7,a7,a3
    3e70:	22957263          	bgeu	a0,s1,4094 <__divdf3+0x558>
    3e74:	951a                	c.add	a0,t1
    3e76:	fff60693          	addi	a3,a2,-1
    3e7a:	3c656163          	bltu	a0,t1,423c <__divdf3+0x700>
    3e7e:	32956963          	bltu	a0,s1,41b0 <__divdf3+0x674>
    3e82:	42950f63          	beq	a0,s1,42c0 <__divdf3+0x784>
    3e86:	8636                	c.mv	a2,a3
    3e88:	00166613          	ori	a2,a2,1
    3e8c:	18f05c63          	blez	a5,4024 <__divdf3+0x4e8>
    3e90:	00767693          	andi	a3,a2,7
    3e94:	20069e63          	bnez	a3,40b0 <__divdf3+0x574>
    3e98:	01e00833          	add	a6,zero,t5
    3e9c:	0187785b          	bbc	a4,24,3eac <__divdf3+0x370>
    3ea0:	ff0007b7          	lui	a5,0xff000
    3ea4:	17fd                	c.addi	a5,-1
    3ea6:	8f7d                	c.and	a4,a5
    3ea8:	400f8793          	addi	a5,t6,1024
    3eac:	7fe00693          	li	a3,2046
    3eb0:	12f6c263          	blt	a3,a5,3fd4 <__divdf3+0x498>
    3eb4:	00365693          	srli	a3,a2,0x3
    3eb8:	01d71613          	slli	a2,a4,0x1d
    3ebc:	8e55                	c.or	a2,a3
    3ebe:	7ff7f793          	andi	a5,a5,2047
    3ec2:	583726db          	bfoz	a3,a4,22,3
    3ec6:	a01d                	c.j	3eec <__divdf3+0x3b0>
    3ec8:	8f2e                	c.mv	t5,a1
    3eca:	8746                	c.mv	a4,a7
    3ecc:	862a                	c.mv	a2,a0
    3ece:	829e                	c.mv	t0,t2
    3ed0:	3822da5b          	beqc	t0,2,4264 <__divdf3+0x728>
    3ed4:	0832da5b          	beqc	t0,3,3f68 <__divdf3+0x42c>
    3ed8:	3012dc5b          	beqc	t0,1,41f0 <__divdf3+0x6b4>
    3edc:	3fff8793          	addi	a5,t6,1023
    3ee0:	fadff06f          	j	3e8c <__divdf3+0x350>
    3ee4:	7ff00793          	li	a5,2047
    3ee8:	4681                	c.li	a3,0
    3eea:	4601                	c.li	a2,0
    3eec:	4581                	c.li	a1,0
    3eee:	fff00737          	lui	a4,0xfff00
    3ef2:	8f6d                	c.and	a4,a1
    3ef4:	4c06a6db          	bfoz	a3,a3,19,0
    3ef8:	8f55                	c.or	a4,a3
    3efa:	01479693          	slli	a3,a5,0x14
    3efe:	801007b7          	lui	a5,0x80100
    3f02:	17fd                	c.addi	a5,-1
    3f04:	8ff9                	c.and	a5,a4
    3f06:	8fd5                	c.or	a5,a3
    3f08:	087e                	c.slli	a6,0x1f
    3f0a:	7807a7db          	bfoz	a5,a5,30,0
    3f0e:	8532                	c.mv	a0,a2
    3f10:	0107e5b3          	or	a1,a5,a6
    3f14:	020e1863          	bnez	t3,3f44 <__divdf3+0x408>
    3f18:	4472                	c.lwsp	s0,28(sp)
    3f1a:	44e2                	c.lwsp	s1,24(sp)
    3f1c:	4952                	c.lwsp	s2,20(sp)
    3f1e:	49c2                	c.lwsp	s3,16(sp)
    3f20:	4a32                	c.lwsp	s4,12(sp)
    3f22:	6105                	c.addi16sp	sp,32
    3f24:	00008067          	ret
    3f28:	8f36                	c.mv	t5,a3
    3f2a:	b75d                	c.j	3ed0 <__divdf3+0x394>
    3f2c:	4781                	c.li	a5,0
    3f2e:	4681                	c.li	a3,0
    3f30:	4601                	c.li	a2,0
    3f32:	bf6d                	c.j	3eec <__divdf3+0x3b0>
    3f34:	7ff007b7          	lui	a5,0x7ff00
    3f38:	087e                	c.slli	a6,0x1f
    3f3a:	4501                	c.li	a0,0
    3f3c:	0107e5b3          	or	a1,a5,a6
    3f40:	008e6e13          	ori	t3,t3,8
    3f44:	001e2073          	csrs	fflags,t3
    3f48:	4472                	c.lwsp	s0,28(sp)
    3f4a:	44e2                	c.lwsp	s1,24(sp)
    3f4c:	4952                	c.lwsp	s2,20(sp)
    3f4e:	49c2                	c.lwsp	s3,16(sp)
    3f50:	4a32                	c.lwsp	s4,12(sp)
    3f52:	6105                	c.addi16sp	sp,32
    3f54:	00008067          	ret
    3f58:	4801                	c.li	a6,0
    3f5a:	7ff00793          	li	a5,2047
    3f5e:	000806b7          	lui	a3,0x80
    3f62:	4601                	c.li	a2,0
    3f64:	4e41                	c.li	t3,16
    3f66:	b759                	c.j	3eec <__divdf3+0x3b0>
    3f68:	4801                	c.li	a6,0
    3f6a:	7ff00793          	li	a5,2047
    3f6e:	000806b7          	lui	a3,0x80
    3f72:	4601                	c.li	a2,0
    3f74:	f79ff06f          	j	3eec <__divdf3+0x3b0>
    3f78:	fd880713          	addi	a4,a6,-40 # ffd8 <BIN_SIZE+0x7d9e>
    3f7c:	00e61733          	sll	a4,a2,a4
    3f80:	4601                	c.li	a2,0
    3f82:	b17d                	c.j	3c30 <__divdf3+0xf4>
    3f84:	fd870893          	addi	a7,a4,-40 # ffefffd8 <_DATA_LMA_START+0xdfef9608>
    3f88:	011518b3          	sll	a7,a0,a7
    3f8c:	4501                	c.li	a0,0
    3f8e:	b1ed                	c.j	3c78 <__divdf3+0x13c>
    3f90:	00000693          	li	a3,0
    3f94:	e2b574e3          	bgeu	a0,a1,3dbc <__divdf3+0x280>
    3f98:	9522                	c.add	a0,s0
    3f9a:	008536b3          	sltu	a3,a0,s0
    3f9e:	969a                	c.add	a3,t1
    3fa0:	00d787b3          	add	a5,a5,a3
    3fa4:	fff70913          	addi	s2,a4,-1
    3fa8:	0ef37c63          	bgeu	t1,a5,40a0 <__divdf3+0x564>
    3fac:	1ec7ea63          	bltu	a5,a2,41a0 <__divdf3+0x664>
    3fb0:	30f60263          	beq	a2,a5,42b4 <__divdf3+0x778>
    3fb4:	40c786b3          	sub	a3,a5,a2
    3fb8:	874a                	c.mv	a4,s2
    3fba:	b509                	c.j	3dbc <__divdf3+0x280>
    3fbc:	d2c566e3          	bltu	a0,a2,3ce8 <__divdf3+0x1ac>
    3fc0:	01f89593          	slli	a1,a7,0x1f
    3fc4:	00155793          	srli	a5,a0,0x1
    3fc8:	0018d893          	srli	a7,a7,0x1
    3fcc:	8ddd                	c.or	a1,a5
    3fce:	057e                	c.slli	a0,0x1f
    3fd0:	d21ff06f          	j	3cf0 <__divdf3+0x1b4>
    3fd4:	122ed45b          	beqc	t4,2,40fc <__divdf3+0x5c0>
    3fd8:	223ed25b          	beqc	t4,3,41fc <__divdf3+0x6c0>
    3fdc:	120e8263          	beqz	t4,4100 <__divdf3+0x5c4>
    3fe0:	00100737          	lui	a4,0x100
    3fe4:	7fe00793          	li	a5,2046
    3fe8:	fff70693          	addi	a3,a4,-1 # fffff <_STACK_TOP+0x5ffff>
    3fec:	fff00613          	li	a2,-1
    3ff0:	005e6e13          	ori	t3,t3,5
    3ff4:	4581                	c.li	a1,0
    3ff6:	fff00737          	lui	a4,0xfff00
    3ffa:	8532                	c.mv	a0,a2
    3ffc:	00b77633          	and	a2,a4,a1
    4000:	4c06a75b          	bfoz	a4,a3,19,0
    4004:	8f51                	c.or	a4,a2
    4006:	80100637          	lui	a2,0x80100
    400a:	167d                	c.addi	a2,-1
    400c:	8e79                	c.and	a2,a4
    400e:	07d2                	c.slli	a5,0x14
    4010:	8fd1                	c.or	a5,a2
    4012:	087e                	c.slli	a6,0x1f
    4014:	7807a7db          	bfoz	a5,a5,30,0
    4018:	0107e5b3          	or	a1,a5,a6
    401c:	001e2073          	csrs	fflags,t3
    4020:	f29ff06f          	j	3f48 <__divdf3+0x40c>
    4024:	efd5                	c.bnez	a5,40e0 <__divdf3+0x5a4>
    4026:	00767793          	andi	a5,a2,7
    402a:	86ba                	c.mv	a3,a4
    402c:	24079263          	bnez	a5,4270 <__divdf3+0x734>
    4030:	01875513          	srli	a0,a4,0x18
    4034:	00154513          	xori	a0,a0,1
    4038:	8905                	c.andi	a0,1
    403a:	4585                	c.li	a1,1
    403c:	41ef8713          	addi	a4,t6,1054
    4040:	00e697b3          	sll	a5,a3,a4
    4044:	00b65833          	srl	a6,a2,a1
    4048:	00e61733          	sll	a4,a2,a4
    404c:	00e03733          	snez	a4,a4
    4050:	0107e633          	or	a2,a5,a6
    4054:	8e59                	c.or	a2,a4
    4056:	00767793          	andi	a5,a2,7
    405a:	00b6d733          	srl	a4,a3,a1
    405e:	cb89                	c.beqz	a5,4070 <__divdf3+0x534>
    4060:	001e6e13          	ori	t3,t3,1
    4064:	282ed25b          	beqc	t4,2,42e8 <__divdf3+0x7ac>
    4068:	263ed45b          	beqc	t4,3,42d0 <__divdf3+0x794>
    406c:	0e0e8c63          	beqz	t4,4164 <__divdf3+0x628>
    4070:	2377745b          	bbc	a4,23,4298 <__divdf3+0x75c>
    4074:	001e6e13          	ori	t3,t3,1
    4078:	4785                	c.li	a5,1
    407a:	4681                	c.li	a3,0
    407c:	00000613          	li	a2,0
    4080:	01e00833          	add	a6,zero,t5
    4084:	e60504e3          	beqz	a0,3eec <__divdf3+0x3b0>
    4088:	a60e725b          	bbc	t3,0,3eec <__divdf3+0x3b0>
    408c:	002e6e13          	ori	t3,t3,2
    4090:	f65ff06f          	j	3ff4 <__divdf3+0x4b8>
    4094:	de951ae3          	bne	a0,s1,3e88 <__divdf3+0x34c>
    4098:	de088ae3          	beqz	a7,3e8c <__divdf3+0x350>
    409c:	dd9ff06f          	j	3e74 <__divdf3+0x338>
    40a0:	f0f31ae3          	bne	t1,a5,3fb4 <__divdf3+0x478>
    40a4:	f08574e3          	bgeu	a0,s0,3fac <__divdf3+0x470>
    40a8:	40c306b3          	sub	a3,t1,a2
    40ac:	874a                	c.mv	a4,s2
    40ae:	b339                	c.j	3dbc <__divdf3+0x280>
    40b0:	001e6e13          	ori	t3,t3,1
    40b4:	162ed85b          	beqc	t4,2,4224 <__divdf3+0x6e8>
    40b8:	143ed85b          	beqc	t4,3,4208 <__divdf3+0x6cc>
    40bc:	dc0e9ee3          	bnez	t4,3e98 <__divdf3+0x35c>
    40c0:	00f67693          	andi	a3,a2,15
    40c4:	887a                	c.mv	a6,t5
    40c6:	9c46db5b          	beqc	a3,4,3e9c <__divdf3+0x360>
    40ca:	86b2                	c.mv	a3,a2
    40cc:	00468613          	addi	a2,a3,4 # 80004 <cst_libm_sincosf+0x4>
    40d0:	00d636b3          	sltu	a3,a2,a3
    40d4:	9736                	c.add	a4,a3
    40d6:	b3d9                	c.j	3e9c <__divdf3+0x360>
    40d8:	8736                	c.mv	a4,a3
    40da:	b9a9                	c.j	3d34 <__divdf3+0x1f8>
    40dc:	86b2                	c.mv	a3,a2
    40de:	b9bd                	c.j	3d5c <__divdf3+0x220>
    40e0:	4585                	c.li	a1,1
    40e2:	8d9d                	c.sub	a1,a5
    40e4:	03800693          	li	a3,56
    40e8:	02b6da63          	bge	a3,a1,411c <__divdf3+0x5e0>
    40ec:	8e59                	c.or	a2,a4
    40ee:	e26d                	c.bnez	a2,41d0 <__divdf3+0x694>
    40f0:	002e6e13          	ori	t3,t3,2
    40f4:	887a                	c.mv	a6,t5
    40f6:	4781                	c.li	a5,0
    40f8:	4681                	c.li	a3,0
    40fa:	bded                	c.j	3ff4 <__divdf3+0x4b8>
    40fc:	ee0f02e3          	beqz	t5,3fe0 <__divdf3+0x4a4>
    4100:	7ff00793          	li	a5,2047
    4104:	4681                	c.li	a3,0
    4106:	4601                	c.li	a2,0
    4108:	ee9ff06f          	j	3ff0 <__divdf3+0x4b4>
    410c:	4585                	c.li	a1,1
    410e:	8d9d                	c.sub	a1,a5
    4110:	03800693          	li	a3,56
    4114:	0ab6ce63          	blt	a3,a1,41d0 <__divdf3+0x694>
    4118:	fff00613          	li	a2,-1
    411c:	46fd                	c.li	a3,31
    411e:	20b6d163          	bge	a3,a1,4320 <__divdf3+0x7e4>
    4122:	5685                	c.li	a3,-31
    4124:	40f687b3          	sub	a5,a3,a5
    4128:	00f757b3          	srl	a5,a4,a5
    412c:	0005d8db          	beqc	a1,32,413c <__divdf3+0x600>
    4130:	43ef8f93          	addi	t6,t6,1086
    4134:	01f71733          	sll	a4,a4,t6
    4138:	00e66633          	or	a2,a2,a4
    413c:	00c03633          	snez	a2,a2
    4140:	8e5d                	c.or	a2,a5
    4142:	00767793          	andi	a5,a2,7
    4146:	16078163          	beqz	a5,42a8 <__divdf3+0x76c>
    414a:	001e6e13          	ori	t3,t3,1
    414e:	182edb5b          	beqc	t4,2,42e4 <__divdf3+0x7a8>
    4152:	163edd5b          	beqc	t4,3,42cc <__divdf3+0x790>
    4156:	4505                	c.li	a0,1
    4158:	4701                	c.li	a4,0
    415a:	120e9f63          	bnez	t4,4298 <__divdf3+0x75c>
    415e:	4505                	c.li	a0,1
    4160:	00000713          	li	a4,0
    4164:	00f67793          	andi	a5,a2,15
    4168:	b047d45b          	beqc	a5,4,4070 <__divdf3+0x534>
    416c:	00460793          	addi	a5,a2,4 # 80100004 <_DATA_LMA_START+0x600f9634>
    4170:	00c7b633          	sltu	a2,a5,a2
    4174:	9732                	c.add	a4,a2
    4176:	863e                	c.mv	a2,a5
    4178:	ef9ff06f          	j	4070 <__divdf3+0x534>
    417c:	0cf05463          	blez	a5,4244 <__divdf3+0x708>
    4180:	001e6e13          	ori	t3,t3,1
    4184:	082ede5b          	beqc	t4,2,4220 <__divdf3+0x6e4>
    4188:	063ede5b          	beqc	t4,3,4204 <__divdf3+0x6c8>
    418c:	567d                	c.li	a2,-1
    418e:	d00e95e3          	bnez	t4,3e98 <__divdf3+0x35c>
    4192:	56fd                	c.li	a3,-1
    4194:	f39ff06f          	j	40cc <__divdf3+0x590>
    4198:	86ae                	c.mv	a3,a1
    419a:	b179                	c.j	3e28 <__divdf3+0x2ec>
    419c:	8636                	c.mv	a2,a3
    419e:	b9b9                	c.j	3dfc <__divdf3+0x2c0>
    41a0:	9522                	c.add	a0,s0
    41a2:	008536b3          	sltu	a3,a0,s0
    41a6:	969a                	c.add	a3,t1
    41a8:	97b6                	c.add	a5,a3
    41aa:	1779                	c.addi	a4,-2
    41ac:	c0dff06f          	j	3db8 <__divdf3+0x27c>
    41b0:	00141693          	slli	a3,s0,0x1
    41b4:	0086b433          	sltu	s0,a3,s0
    41b8:	9322                	c.add	t1,s0
    41ba:	951a                	c.add	a0,t1
    41bc:	1679                	c.addi	a2,-2
    41be:	8436                	c.mv	s0,a3
    41c0:	cc9514e3          	bne	a0,s1,3e88 <__divdf3+0x34c>
    41c4:	cc8884e3          	beq	a7,s0,3e8c <__divdf3+0x350>
    41c8:	00166613          	ori	a2,a2,1
    41cc:	cc1ff06f          	j	3e8c <__divdf3+0x350>
    41d0:	001e6e13          	ori	t3,t3,1
    41d4:	01e03633          	snez	a2,t5
    41d8:	b02edc5b          	beqc	t4,2,40f0 <__divdf3+0x5b4>
    41dc:	ffde8793          	addi	a5,t4,-3
    41e0:	0017b793          	seqz	a5,a5
    41e4:	001f3613          	seqz	a2,t5
    41e8:	40f007b3          	neg	a5,a5
    41ec:	8e7d                	c.and	a2,a5
    41ee:	b709                	c.j	40f0 <__divdf3+0x5b4>
    41f0:	887a                	c.mv	a6,t5
    41f2:	4781                	c.li	a5,0
    41f4:	4681                	c.li	a3,0
    41f6:	4601                	c.li	a2,0
    41f8:	cf5ff06f          	j	3eec <__divdf3+0x3b0>
    41fc:	de0f12e3          	bnez	t5,3fe0 <__divdf3+0x4a4>
    4200:	f01ff06f          	j	4100 <__divdf3+0x5c4>
    4204:	fff00613          	li	a2,-1
    4208:	4805                	c.li	a6,1
    420a:	c80f19e3          	bnez	t5,3e9c <__divdf3+0x360>
    420e:	00860693          	addi	a3,a2,8
    4212:	00c6b633          	sltu	a2,a3,a2
    4216:	9732                	c.add	a4,a2
    4218:	4801                	c.li	a6,0
    421a:	8636                	c.mv	a2,a3
    421c:	c81ff06f          	j	3e9c <__divdf3+0x360>
    4220:	fff00613          	li	a2,-1
    4224:	4801                	c.li	a6,0
    4226:	c60f0be3          	beqz	t5,3e9c <__divdf3+0x360>
    422a:	00860693          	addi	a3,a2,8
    422e:	00c6b633          	sltu	a2,a3,a2
    4232:	9732                	c.add	a4,a2
    4234:	4805                	c.li	a6,1
    4236:	8636                	c.mv	a2,a3
    4238:	c65ff06f          	j	3e9c <__divdf3+0x360>
    423c:	8636                	c.mv	a2,a3
    423e:	f89503e3          	beq	a0,s1,41c4 <__divdf3+0x688>
    4242:	b199                	c.j	3e88 <__divdf3+0x34c>
    4244:	ec0794e3          	bnez	a5,410c <__divdf3+0x5d0>
    4248:	001e6e13          	ori	t3,t3,1
    424c:	0a2ede5b          	beqc	t4,2,4308 <__divdf3+0x7cc>
    4250:	0a3ed05b          	beqc	t4,3,42f0 <__divdf3+0x7b4>
    4254:	0c0e8263          	beqz	t4,4318 <__divdf3+0x7dc>
    4258:	86ba                	c.mv	a3,a4
    425a:	567d                	c.li	a2,-1
    425c:	c0100f93          	li	t6,-1023
    4260:	dd1ff06f          	j	4030 <__divdf3+0x4f4>
    4264:	887a                	c.mv	a6,t5
    4266:	7ff00793          	li	a5,2047
    426a:	4681                	c.li	a3,0
    426c:	4601                	c.li	a2,0
    426e:	b9bd                	c.j	3eec <__divdf3+0x3b0>
    4270:	001e6e13          	ori	t3,t3,1
    4274:	082ede5b          	beqc	t4,2,4310 <__divdf3+0x7d4>
    4278:	083ed05b          	beqc	t4,3,42f8 <__divdf3+0x7bc>
    427c:	da0e9ae3          	bnez	t4,4030 <__divdf3+0x4f4>
    4280:	00f67793          	andi	a5,a2,15
    4284:	9a47d65b          	beqc	a5,4,4030 <__divdf3+0x4f4>
    4288:	ffc63793          	sltiu	a5,a2,-4
    428c:	0017c793          	xori	a5,a5,1
    4290:	86ba                	c.mv	a3,a4
    4292:	973e                	c.add	a4,a5
    4294:	d9dff06f          	j	4030 <__divdf3+0x4f4>
    4298:	01d71793          	slli	a5,a4,0x1d
    429c:	820d                	c.srli	a2,0x3
    429e:	8e5d                	c.or	a2,a5
    42a0:	583726db          	bfoz	a3,a4,22,3
    42a4:	4781                	c.li	a5,0
    42a6:	bbe9                	c.j	4080 <__divdf3+0x544>
    42a8:	820d                	c.srli	a2,0x3
    42aa:	887a                	c.mv	a6,t5
    42ac:	4781                	c.li	a5,0
    42ae:	4681                	c.li	a3,0
    42b0:	dd9ff06f          	j	4088 <__divdf3+0x54c>
    42b4:	eeb566e3          	bltu	a0,a1,41a0 <__divdf3+0x664>
    42b8:	874a                	c.mv	a4,s2
    42ba:	4681                	c.li	a3,0
    42bc:	b01ff06f          	j	3dbc <__divdf3+0x280>
    42c0:	ef1468e3          	bltu	s0,a7,41b0 <__divdf3+0x674>
    42c4:	8636                	c.mv	a2,a3
    42c6:	f08891e3          	bne	a7,s0,41c8 <__divdf3+0x68c>
    42ca:	b6c9                	c.j	3e8c <__divdf3+0x350>
    42cc:	4505                	c.li	a0,1
    42ce:	4701                	c.li	a4,0
    42d0:	da0f10e3          	bnez	t5,4070 <__divdf3+0x534>
    42d4:	00860793          	addi	a5,a2,8
    42d8:	00c7b633          	sltu	a2,a5,a2
    42dc:	9732                	c.add	a4,a2
    42de:	863e                	c.mv	a2,a5
    42e0:	d91ff06f          	j	4070 <__divdf3+0x534>
    42e4:	4505                	c.li	a0,1
    42e6:	4701                	c.li	a4,0
    42e8:	d80f04e3          	beqz	t5,4070 <__divdf3+0x534>
    42ec:	fe9ff06f          	j	42d4 <__divdf3+0x798>
    42f0:	86ba                	c.mv	a3,a4
    42f2:	c0100f93          	li	t6,-1023
    42f6:	567d                	c.li	a2,-1
    42f8:	d20f1ce3          	bnez	t5,4030 <__divdf3+0x4f4>
    42fc:	ff863793          	sltiu	a5,a2,-8
    4300:	0017c793          	xori	a5,a5,1
    4304:	973e                	c.add	a4,a5
    4306:	b32d                	c.j	4030 <__divdf3+0x4f4>
    4308:	86ba                	c.mv	a3,a4
    430a:	c0100f93          	li	t6,-1023
    430e:	567d                	c.li	a2,-1
    4310:	d20f00e3          	beqz	t5,4030 <__divdf3+0x4f4>
    4314:	fe9ff06f          	j	42fc <__divdf3+0x7c0>
    4318:	c0100f93          	li	t6,-1023
    431c:	567d                	c.li	a2,-1
    431e:	b7ad                	c.j	4288 <__divdf3+0x74c>
    4320:	86ba                	c.mv	a3,a4
    4322:	4505                	c.li	a0,1
    4324:	bb21                	c.j	403c <__divdf3+0x500>
	...

00004328 <__gedf2>:
    4328:	002027f3          	frrm	a5
    432c:	001007b7          	lui	a5,0x100
    4330:	17fd                	c.addi	a5,-1
    4332:	7945a85b          	bfoz	a6,a1,30,20
    4336:	7ff00893          	li	a7,2047
    433a:	00f5f333          	and	t1,a1,a5
    433e:	872a                	c.mv	a4,a0
    4340:	8ff5                	c.and	a5,a3
    4342:	7946a55b          	bfoz	a0,a3,30,20
    4346:	81fd                	c.srli	a1,0x1f
    4348:	01f6d693          	srli	a3,a3,0x1f
    434c:	03180e63          	beq	a6,a7,4388 <__gedf2+0x60>
    4350:	03150463          	beq	a0,a7,4378 <__gedf2+0x50>
    4354:	04081063          	bnez	a6,4394 <__gedf2+0x6c>
    4358:	00e368b3          	or	a7,t1,a4
    435c:	00051663          	bnez	a0,4368 <__gedf2+0x40>
    4360:	00c7ee33          	or	t3,a5,a2
    4364:	040e0463          	beqz	t3,43ac <__gedf2+0x84>
    4368:	02088e63          	beqz	a7,43a4 <__gedf2+0x7c>
    436c:	04d58c63          	beq	a1,a3,43c4 <__gedf2+0x9c>
    4370:	4505                	c.li	a0,1
    4372:	e1bd                	c.bnez	a1,43d8 <__gedf2+0xb0>
    4374:	00008067          	ret
    4378:	00c7e8b3          	or	a7,a5,a2
    437c:	fc088ce3          	beqz	a7,4354 <__gedf2+0x2c>
    4380:	00186073          	csrsi	fflags,16
    4384:	5579                	c.li	a0,-2
    4386:	8082                	c.jr	ra
    4388:	00e368b3          	or	a7,t1,a4
    438c:	fe089ae3          	bnez	a7,4380 <__gedf2+0x58>
    4390:	03050263          	beq	a0,a6,43b4 <__gedf2+0x8c>
    4394:	e505                	c.bnez	a0,43bc <__gedf2+0x94>
    4396:	00c7e8b3          	or	a7,a5,a2
    439a:	02089163          	bnez	a7,43bc <__gedf2+0x94>
    439e:	4505                	c.li	a0,1
    43a0:	d9f1                	c.beqz	a1,4374 <__gedf2+0x4c>
    43a2:	a81d                	c.j	43d8 <__gedf2+0xb0>
    43a4:	02068a63          	beqz	a3,43d8 <__gedf2+0xb0>
    43a8:	4505                	c.li	a0,1
    43aa:	8082                	c.jr	ra
    43ac:	fc0892e3          	bnez	a7,4370 <__gedf2+0x48>
    43b0:	00008067          	ret
    43b4:	00c7e8b3          	or	a7,a5,a2
    43b8:	fc0894e3          	bnez	a7,4380 <__gedf2+0x58>
    43bc:	fad59ae3          	bne	a1,a3,4370 <__gedf2+0x48>
    43c0:	fb0548e3          	blt	a0,a6,4370 <__gedf2+0x48>
    43c4:	00a84863          	blt	a6,a0,43d4 <__gedf2+0xac>
    43c8:	fa67e4e3          	bltu	a5,t1,4370 <__gedf2+0x48>
    43cc:	00f30a63          	beq	t1,a5,43e0 <__gedf2+0xb8>
    43d0:	00f37663          	bgeu	t1,a5,43dc <__gedf2+0xb4>
    43d4:	fc059ae3          	bnez	a1,43a8 <__gedf2+0x80>
    43d8:	557d                	c.li	a0,-1
    43da:	8082                	c.jr	ra
    43dc:	4501                	c.li	a0,0
    43de:	8082                	c.jr	ra
    43e0:	f8e668e3          	bltu	a2,a4,4370 <__gedf2+0x48>
    43e4:	4501                	c.li	a0,0
    43e6:	f8c777e3          	bgeu	a4,a2,4374 <__gedf2+0x4c>
    43ea:	fddd                	c.bnez	a1,43a8 <__gedf2+0x80>
    43ec:	b7f5                	c.j	43d8 <__gedf2+0xb0>
	...

000043f0 <__muldf3>:
    43f0:	1101                	c.addi	sp,-32
    43f2:	ce22                	c.swsp	s0,28(sp)
    43f4:	cc26                	c.swsp	s1,24(sp)
    43f6:	ca4a                	c.swsp	s2,20(sp)
    43f8:	c84e                	c.swsp	s3,16(sp)
    43fa:	c652                	c.swsp	s4,12(sp)
    43fc:	c456                	c.swsp	s5,8(sp)
    43fe:	c25a                	c.swsp	s6,4(sp)
    4400:	00202373          	frrm	t1
    4404:	7945a75b          	bfoz	a4,a1,30,20
    4408:	4c05a7db          	bfoz	a5,a1,19,0
    440c:	81fd                	c.srli	a1,0x1f
    440e:	10070963          	beqz	a4,4520 <__muldf3+0x130>
    4412:	7ff00813          	li	a6,2047
    4416:	07070963          	beq	a4,a6,4488 <__muldf3+0x98>
    441a:	00800837          	lui	a6,0x800
    441e:	078e                	c.slli	a5,0x3
    4420:	01d55293          	srli	t0,a0,0x1d
    4424:	0107e7b3          	or	a5,a5,a6
    4428:	c0170e13          	addi	t3,a4,-1023 # ffeffc01 <_DATA_LMA_START+0xdfef9231>
    442c:	00f2e2b3          	or	t0,t0,a5
    4430:	050e                	c.slli	a0,0x3
    4432:	4701                	c.li	a4,0
    4434:	4381                	c.li	t2,0
    4436:	4801                	c.li	a6,0
    4438:	7946a8db          	bfoz	a7,a3,30,20
    443c:	4c06a7db          	bfoz	a5,a3,19,0
    4440:	01f6d693          	srli	a3,a3,0x1f
    4444:	12088a63          	beqz	a7,4578 <__muldf3+0x188>
    4448:	7ff00e93          	li	t4,2047
    444c:	17d88a63          	beq	a7,t4,45c0 <__muldf3+0x1d0>
    4450:	00800f37          	lui	t5,0x800
    4454:	078e                	c.slli	a5,0x3
    4456:	01d65e93          	srli	t4,a2,0x1d
    445a:	01e7e7b3          	or	a5,a5,t5
    445e:	c0188893          	addi	a7,a7,-1023 # 7ffffc01 <_DATA_LMA_START+0x5fff9231>
    4462:	00fee7b3          	or	a5,t4,a5
    4466:	060e                	c.slli	a2,0x3
    4468:	9e46                	c.add	t3,a7
    446a:	4f01                	c.li	t5,0
    446c:	48bd                	c.li	a7,15
    446e:	00d5ceb3          	xor	t4,a1,a3
    4472:	001e0f93          	addi	t6,t3,1 # 400001 <FLASH_SIZE+0x300001>
    4476:	16e8e363          	bltu	a7,a4,45dc <__muldf3+0x1ec>
    447a:	7610188b          	addigp	a7,3936 # 81760 <twooverpi.0+0x60>
    447e:	0ce8875b          	lea.w	a4,a7,a4
    4482:	4318                	c.lw	a4,0(a4)
    4484:	00070067          	jr	a4
    4488:	00a7e2b3          	or	t0,a5,a0
    448c:	32028263          	beqz	t0,47b0 <__muldf3+0x3c0>
    4490:	0137d713          	srli	a4,a5,0x13
    4494:	82be                	c.mv	t0,a5
    4496:	46070563          	beqz	a4,4900 <__muldf3+0x510>
    449a:	4731                	c.li	a4,12
    449c:	7ff00e13          	li	t3,2047
    44a0:	438d                	c.li	t2,3
    44a2:	4801                	c.li	a6,0
    44a4:	f95ff06f          	j	4438 <__muldf3+0x48>
    44a8:	00d00eb3          	add	t4,zero,a3
    44ac:	062f605b          	bnec	t5,2,450c <__muldf3+0x11c>
    44b0:	88f6                	c.mv	a7,t4
    44b2:	7ff00713          	li	a4,2047
    44b6:	4781                	c.li	a5,0
    44b8:	00000613          	li	a2,0
    44bc:	4581                	c.li	a1,0
    44be:	fff006b7          	lui	a3,0xfff00
    44c2:	8eed                	c.and	a3,a1
    44c4:	4c07a7db          	bfoz	a5,a5,19,0
    44c8:	8fd5                	c.or	a5,a3
    44ca:	01471693          	slli	a3,a4,0x14
    44ce:	80100737          	lui	a4,0x80100
    44d2:	177d                	c.addi	a4,-1
    44d4:	8f7d                	c.and	a4,a5
    44d6:	8f55                	c.or	a4,a3
    44d8:	08fe                	c.slli	a7,0x1f
    44da:	7807275b          	bfoz	a4,a4,30,0
    44de:	8532                	c.mv	a0,a2
    44e0:	011765b3          	or	a1,a4,a7
    44e4:	3e081e63          	bnez	a6,48e0 <__muldf3+0x4f0>
    44e8:	4472                	c.lwsp	s0,28(sp)
    44ea:	44e2                	c.lwsp	s1,24(sp)
    44ec:	4952                	c.lwsp	s2,20(sp)
    44ee:	49c2                	c.lwsp	s3,16(sp)
    44f0:	4a32                	c.lwsp	s4,12(sp)
    44f2:	4aa2                	c.lwsp	s5,8(sp)
    44f4:	4b12                	c.lwsp	s6,4(sp)
    44f6:	6105                	c.addi16sp	sp,32
    44f8:	00008067          	ret
    44fc:	00b00eb3          	add	t4,zero,a1
    4500:	8f1e                	c.mv	t5,t2
    4502:	8796                	c.mv	a5,t0
    4504:	00a00633          	add	a2,zero,a0
    4508:	ba2f545b          	beqc	t5,2,44b0 <__muldf3+0xc0>
    450c:	363f525b          	beqc	t5,3,4870 <__muldf3+0x480>
    4510:	221f685b          	bnec	t5,1,4740 <__muldf3+0x350>
    4514:	88f6                	c.mv	a7,t4
    4516:	4701                	c.li	a4,0
    4518:	4781                	c.li	a5,0
    451a:	4601                	c.li	a2,0
    451c:	fa1ff06f          	j	44bc <__muldf3+0xcc>
    4520:	00a7e2b3          	or	t0,a5,a0
    4524:	28028063          	beqz	t0,47a4 <__muldf3+0x3b4>
    4528:	af97877f          	clz32	a4,a5
    452c:	00079663          	bnez	a5,4538 <__muldf3+0x148>
    4530:	af95077f          	clz32	a4,a0
    4534:	02070713          	addi	a4,a4,32 # 80100020 <_DATA_LMA_START+0x600f9650>
    4538:	ff570893          	addi	a7,a4,-11
    453c:	4871                	c.li	a6,28
    453e:	3b184b63          	blt	a6,a7,48f4 <__muldf3+0x504>
    4542:	42f5                	c.li	t0,29
    4544:	ff870813          	addi	a6,a4,-8
    4548:	411282b3          	sub	t0,t0,a7
    454c:	005552b3          	srl	t0,a0,t0
    4550:	010797b3          	sll	a5,a5,a6
    4554:	00f2e2b3          	or	t0,t0,a5
    4558:	01051533          	sll	a0,a0,a6
    455c:	c0d00e13          	li	t3,-1011
    4560:	7946a8db          	bfoz	a7,a3,30,20
    4564:	40ee0e33          	sub	t3,t3,a4
    4568:	4c06a7db          	bfoz	a5,a3,19,0
    456c:	4701                	c.li	a4,0
    456e:	4381                	c.li	t2,0
    4570:	4801                	c.li	a6,0
    4572:	82fd                	c.srli	a3,0x1f
    4574:	ec089ae3          	bnez	a7,4448 <__muldf3+0x58>
    4578:	00c7e8b3          	or	a7,a5,a2
    457c:	24088263          	beqz	a7,47c0 <__muldf3+0x3d0>
    4580:	af9788ff          	clz32	a7,a5
    4584:	00079663          	bnez	a5,4590 <__muldf3+0x1a0>
    4588:	af9608ff          	clz32	a7,a2
    458c:	02088893          	addi	a7,a7,32
    4590:	ff588f93          	addi	t6,a7,-11
    4594:	4ef1                	c.li	t4,28
    4596:	35fec963          	blt	t4,t6,48e8 <__muldf3+0x4f8>
    459a:	4ef5                	c.li	t4,29
    459c:	ff888f13          	addi	t5,a7,-8
    45a0:	41fe8eb3          	sub	t4,t4,t6
    45a4:	01d65eb3          	srl	t4,a2,t4
    45a8:	01e797b3          	sll	a5,a5,t5
    45ac:	00fee7b3          	or	a5,t4,a5
    45b0:	01e61633          	sll	a2,a2,t5
    45b4:	411e0e33          	sub	t3,t3,a7
    45b8:	c0de0e13          	addi	t3,t3,-1011
    45bc:	4f01                	c.li	t5,0
    45be:	b57d                	c.j	446c <__muldf3+0x7c>
    45c0:	00c7e8b3          	or	a7,a5,a2
    45c4:	7ffe0e13          	addi	t3,t3,2047
    45c8:	20088263          	beqz	a7,47cc <__muldf3+0x3dc>
    45cc:	00376713          	ori	a4,a4,3
    45d0:	4f0d                	c.li	t5,3
    45d2:	e937fd5b          	bbs	a5,19,446c <__muldf3+0x7c>
    45d6:	4841                	c.li	a6,16
    45d8:	e95ff06f          	j	446c <__muldf3+0x7c>
    45dc:	6f41                	c.lui	t5,0x10
    45de:	ffff0713          	addi	a4,t5,-1 # ffff <BIN_SIZE+0x7dc5>
    45e2:	00e678b3          	and	a7,a2,a4
    45e6:	01055393          	srli	t2,a0,0x10
    45ea:	031385b3          	mul	a1,t2,a7
    45ee:	8d79                	c.and	a0,a4
    45f0:	01065913          	srli	s2,a2,0x10
    45f4:	02a886b3          	mul	a3,a7,a0
    45f8:	862e                	c.mv	a2,a1
    45fa:	c4a9167f          	maddr32	a2,s2,a0
    45fe:	03238733          	mul	a4,t2,s2
    4602:	0106d413          	srli	s0,a3,0x10
    4606:	9432                	c.add	s0,a2
    4608:	00b47463          	bgeu	s0,a1,4610 <__muldf3+0x220>
    460c:	01e70733          	add	a4,a4,t5
    4610:	6b41                	c.lui	s6,0x10
    4612:	fffb0f13          	addi	t5,s6,-1 # ffff <BIN_SIZE+0x7dc5>
    4616:	01e7f5b3          	and	a1,a5,t5
    461a:	02b38a33          	mul	s4,t2,a1
    461e:	0107d993          	srli	s3,a5,0x10
    4622:	01e47633          	and	a2,s0,t5
    4626:	01e6f6b3          	and	a3,a3,t5
    462a:	0642                	c.slli	a2,0x10
    462c:	00d60f33          	add	t5,a2,a3
    4630:	02b50ab3          	mul	s5,a0,a1
    4634:	01045493          	srli	s1,s0,0x10
    4638:	87d2                	c.mv	a5,s4
    463a:	c4a997ff          	maddr32	a5,s3,a0
    463e:	033383b3          	mul	t2,t2,s3
    4642:	010ad693          	srli	a3,s5,0x10
    4646:	96be                	c.add	a3,a5
    4648:	0146f463          	bgeu	a3,s4,4650 <__muldf3+0x260>
    464c:	016383b3          	add	t2,t2,s6
    4650:	6b41                	c.lui	s6,0x10
    4652:	fffb0413          	addi	s0,s6,-1 # ffff <BIN_SIZE+0x7dc5>
    4656:	0102da13          	srli	s4,t0,0x10
    465a:	0082f7b3          	and	a5,t0,s0
    465e:	031a02b3          	mul	t0,s4,a7
    4662:	0086f633          	and	a2,a3,s0
    4666:	82c1                	c.srli	a3,0x10
    4668:	93b6                	c.add	t2,a3
    466a:	0642                	c.slli	a2,0x10
    466c:	008afab3          	and	s5,s5,s0
    4670:	02f888b3          	mul	a7,a7,a5
    4674:	01560433          	add	s0,a2,s5
    4678:	94a2                	c.add	s1,s0
    467a:	8696                	c.mv	a3,t0
    467c:	c4f916ff          	maddr32	a3,s2,a5
    4680:	03490633          	mul	a2,s2,s4
    4684:	0108d513          	srli	a0,a7,0x10
    4688:	9536                	c.add	a0,a3
    468a:	00557363          	bgeu	a0,t0,4690 <__muldf3+0x2a0>
    468e:	965a                	c.add	a2,s6
    4690:	02ba0ab3          	mul	s5,s4,a1
    4694:	6b41                	c.lui	s6,0x10
    4696:	fffb0293          	addi	t0,s6,-1 # ffff <BIN_SIZE+0x7dc5>
    469a:	005576b3          	and	a3,a0,t0
    469e:	06c2                	c.slli	a3,0x10
    46a0:	0058f8b3          	and	a7,a7,t0
    46a4:	02b78933          	mul	s2,a5,a1
    46a8:	98b6                	c.add	a7,a3
    46aa:	8141                	c.srli	a0,0x10
    46ac:	9532                	c.add	a0,a2
    46ae:	85d6                	c.mv	a1,s5
    46b0:	c4f995ff          	maddr32	a1,s3,a5
    46b4:	034982b3          	mul	t0,s3,s4
    46b8:	01095693          	srli	a3,s2,0x10
    46bc:	00b687b3          	add	a5,a3,a1
    46c0:	0157f463          	bgeu	a5,s5,46c8 <__muldf3+0x2d8>
    46c4:	016282b3          	add	t0,t0,s6
    46c8:	65c1                	c.lui	a1,0x10
    46ca:	15fd                	c.addi	a1,-1
    46cc:	00b7f6b3          	and	a3,a5,a1
    46d0:	06c2                	c.slli	a3,0x10
    46d2:	00b975b3          	and	a1,s2,a1
    46d6:	9726                	c.add	a4,s1
    46d8:	96ae                	c.add	a3,a1
    46da:	00873633          	sltu	a2,a4,s0
    46de:	969e                	c.add	a3,t2
    46e0:	9746                	c.add	a4,a7
    46e2:	00c684b3          	add	s1,a3,a2
    46e6:	011735b3          	sltu	a1,a4,a7
    46ea:	00a488b3          	add	a7,s1,a0
    46ee:	00b88433          	add	s0,a7,a1
    46f2:	00c4b633          	sltu	a2,s1,a2
    46f6:	0076b6b3          	sltu	a3,a3,t2
    46fa:	8ed1                	c.or	a3,a2
    46fc:	00b435b3          	sltu	a1,s0,a1
    4700:	83c1                	c.srli	a5,0x10
    4702:	00a8b533          	sltu	a0,a7,a0
    4706:	97b6                	c.add	a5,a3
    4708:	8dc9                	c.or	a1,a0
    470a:	00971613          	slli	a2,a4,0x9
    470e:	97ae                	c.add	a5,a1
    4710:	9796                	c.add	a5,t0
    4712:	01e66633          	or	a2,a2,t5
    4716:	01745693          	srli	a3,s0,0x17
    471a:	07a6                	c.slli	a5,0x9
    471c:	00c03633          	snez	a2,a2
    4720:	835d                	c.srli	a4,0x17
    4722:	8e59                	c.or	a2,a4
    4724:	0426                	c.slli	s0,0x9
    4726:	8fd5                	c.or	a5,a3
    4728:	8e41                	c.or	a2,s0
    472a:	1f87f15b          	bbc	a5,24,490c <__muldf3+0x51c>
    472e:	00165713          	srli	a4,a2,0x1
    4732:	8a05                	c.andi	a2,1
    4734:	01f79693          	slli	a3,a5,0x1f
    4738:	8e59                	c.or	a2,a4
    473a:	8e55                	c.or	a2,a3
    473c:	0017d793          	srli	a5,a5,0x1
    4740:	3fff8713          	addi	a4,t6,1023
    4744:	0ae05263          	blez	a4,47e8 <__muldf3+0x3f8>
    4748:	00767693          	andi	a3,a2,7
    474c:	c685                	c.beqz	a3,4774 <__muldf3+0x384>
    474e:	00186813          	ori	a6,a6,1
    4752:	1c235f5b          	beqc	t1,2,4930 <__muldf3+0x540>
    4756:	2633535b          	beqc	t1,3,49bc <__muldf3+0x5cc>
    475a:	00031d63          	bnez	t1,4774 <__muldf3+0x384>
    475e:	00f67693          	andi	a3,a2,15
    4762:	0046d95b          	beqc	a3,4,4774 <__muldf3+0x384>
    4766:	00460693          	addi	a3,a2,4
    476a:	00c6b633          	sltu	a2,a3,a2
    476e:	97b2                	c.add	a5,a2
    4770:	00d00633          	add	a2,zero,a3
    4774:	0187f85b          	bbc	a5,24,4784 <__muldf3+0x394>
    4778:	ff000737          	lui	a4,0xff000
    477c:	177d                	c.addi	a4,-1
    477e:	8ff9                	c.and	a5,a4
    4780:	400f8713          	addi	a4,t6,1024
    4784:	7fe00693          	li	a3,2046
    4788:	88f6                	c.mv	a7,t4
    478a:	18e6c363          	blt	a3,a4,4910 <__muldf3+0x520>
    478e:	00365693          	srli	a3,a2,0x3
    4792:	01d79613          	slli	a2,a5,0x1d
    4796:	8e55                	c.or	a2,a3
    4798:	5837a7db          	bfoz	a5,a5,22,3
    479c:	7ff77713          	andi	a4,a4,2047
    47a0:	d1dff06f          	j	44bc <__muldf3+0xcc>
    47a4:	4711                	c.li	a4,4
    47a6:	4501                	c.li	a0,0
    47a8:	4e01                	c.li	t3,0
    47aa:	4385                	c.li	t2,1
    47ac:	4801                	c.li	a6,0
    47ae:	b169                	c.j	4438 <__muldf3+0x48>
    47b0:	4721                	c.li	a4,8
    47b2:	4501                	c.li	a0,0
    47b4:	7ff00e13          	li	t3,2047
    47b8:	4389                	c.li	t2,2
    47ba:	4801                	c.li	a6,0
    47bc:	c7dff06f          	j	4438 <__muldf3+0x48>
    47c0:	00176713          	ori	a4,a4,1
    47c4:	4781                	c.li	a5,0
    47c6:	4601                	c.li	a2,0
    47c8:	4f05                	c.li	t5,1
    47ca:	b14d                	c.j	446c <__muldf3+0x7c>
    47cc:	00276713          	ori	a4,a4,2
    47d0:	4781                	c.li	a5,0
    47d2:	4601                	c.li	a2,0
    47d4:	4f09                	c.li	t5,2
    47d6:	b959                	c.j	446c <__muldf3+0x7c>
    47d8:	4881                	c.li	a7,0
    47da:	7ff00713          	li	a4,2047
    47de:	000807b7          	lui	a5,0x80
    47e2:	4601                	c.li	a2,0
    47e4:	4841                	c.li	a6,16
    47e6:	b9d9                	c.j	44bc <__muldf3+0xcc>
    47e8:	4685                	c.li	a3,1
    47ea:	8e99                	c.sub	a3,a4
    47ec:	eb51                	c.bnez	a4,4880 <__muldf3+0x490>
    47ee:	00767593          	andi	a1,a2,7
    47f2:	873e                	c.mv	a4,a5
    47f4:	00058a63          	beqz	a1,4808 <__muldf3+0x418>
    47f8:	00186813          	ori	a6,a6,1
    47fc:	1e23565b          	beqc	t1,2,49e8 <__muldf3+0x5f8>
    4800:	1c335c5b          	beqc	t1,3,49d8 <__muldf3+0x5e8>
    4804:	1e030663          	beqz	t1,49f0 <__muldf3+0x600>
    4808:	01875593          	srli	a1,a4,0x18
    480c:	0015c593          	xori	a1,a1,1
    4810:	0015f593          	andi	a1,a1,1
    4814:	41ef8f93          	addi	t6,t6,1054
    4818:	01f61733          	sll	a4,a2,t6
    481c:	00d65533          	srl	a0,a2,a3
    4820:	01f79fb3          	sll	t6,a5,t6
    4824:	00e03633          	snez	a2,a4
    4828:	00afefb3          	or	t6,t6,a0
    482c:	01f66633          	or	a2,a2,t6
    4830:	00767713          	andi	a4,a2,7
    4834:	00d7d7b3          	srl	a5,a5,a3
    4838:	00070a63          	beqz	a4,484c <__muldf3+0x45c>
    483c:	00186813          	ori	a6,a6,1
    4840:	1c23545b          	beqc	t1,2,4a08 <__muldf3+0x618>
    4844:	1c335e5b          	beqc	t1,3,4a20 <__muldf3+0x630>
    4848:	14030a63          	beqz	t1,499c <__muldf3+0x5ac>
    484c:	1777fc5b          	bbc	a5,23,49c4 <__muldf3+0x5d4>
    4850:	00186813          	ori	a6,a6,1
    4854:	4705                	c.li	a4,1
    4856:	4781                	c.li	a5,0
    4858:	00000613          	li	a2,0
    485c:	01d008b3          	add	a7,zero,t4
    4860:	c4058ee3          	beqz	a1,44bc <__muldf3+0xcc>
    4864:	84087c5b          	bbc	a6,0,44bc <__muldf3+0xcc>
    4868:	00286813          	ori	a6,a6,2
    486c:	04c0006f          	j	48b8 <__muldf3+0x4c8>
    4870:	4881                	c.li	a7,0
    4872:	7ff00713          	li	a4,2047
    4876:	000807b7          	lui	a5,0x80
    487a:	4601                	c.li	a2,0
    487c:	c41ff06f          	j	44bc <__muldf3+0xcc>
    4880:	03800593          	li	a1,56
    4884:	0cd5da63          	bge	a1,a3,4958 <__muldf3+0x568>
    4888:	8e5d                	c.or	a2,a5
    488a:	c20d                	c.beqz	a2,48ac <__muldf3+0x4bc>
    488c:	00186813          	ori	a6,a6,1
    4890:	01d03633          	snez	a2,t4
    4894:	00235c5b          	beqc	t1,2,48ac <__muldf3+0x4bc>
    4898:	ffd30793          	addi	a5,t1,-3
    489c:	0017b793          	seqz	a5,a5
    48a0:	001eb613          	seqz	a2,t4
    48a4:	40f007b3          	neg	a5,a5
    48a8:	00f67633          	and	a2,a2,a5
    48ac:	00286813          	ori	a6,a6,2
    48b0:	88f6                	c.mv	a7,t4
    48b2:	4701                	c.li	a4,0
    48b4:	00000793          	li	a5,0
    48b8:	4581                	c.li	a1,0
    48ba:	fff006b7          	lui	a3,0xfff00
    48be:	8eed                	c.and	a3,a1
    48c0:	4c07a7db          	bfoz	a5,a5,19,0
    48c4:	8fd5                	c.or	a5,a3
    48c6:	801006b7          	lui	a3,0x80100
    48ca:	16fd                	c.addi	a3,-1
    48cc:	0752                	c.slli	a4,0x14
    48ce:	8efd                	c.and	a3,a5
    48d0:	8f55                	c.or	a4,a3
    48d2:	08fe                	c.slli	a7,0x1f
    48d4:	7807275b          	bfoz	a4,a4,30,0
    48d8:	00c00533          	add	a0,zero,a2
    48dc:	011765b3          	or	a1,a4,a7
    48e0:	00182073          	csrs	fflags,a6
    48e4:	c05ff06f          	j	44e8 <__muldf3+0xf8>
    48e8:	fd888793          	addi	a5,a7,-40
    48ec:	00f617b3          	sll	a5,a2,a5
    48f0:	4601                	c.li	a2,0
    48f2:	b1c9                	c.j	45b4 <__muldf3+0x1c4>
    48f4:	fd870793          	addi	a5,a4,-40 # feffffd8 <_DATA_LMA_START+0xdeff9608>
    48f8:	00f512b3          	sll	t0,a0,a5
    48fc:	4501                	c.li	a0,0
    48fe:	b9b9                	c.j	455c <__muldf3+0x16c>
    4900:	4731                	c.li	a4,12
    4902:	7ff00e13          	li	t3,2047
    4906:	438d                	c.li	t2,3
    4908:	4841                	c.li	a6,16
    490a:	b63d                	c.j	4438 <__muldf3+0x48>
    490c:	8ff2                	c.mv	t6,t3
    490e:	bd0d                	c.j	4740 <__muldf3+0x350>
    4910:	02235a5b          	beqc	t1,2,4944 <__muldf3+0x554>
    4914:	0a33505b          	beqc	t1,3,49b4 <__muldf3+0x5c4>
    4918:	02030863          	beqz	t1,4948 <__muldf3+0x558>
    491c:	001007b7          	lui	a5,0x100
    4920:	7fe00713          	li	a4,2046
    4924:	17fd                	c.addi	a5,-1
    4926:	567d                	c.li	a2,-1
    4928:	00586813          	ori	a6,a6,5
    492c:	f8dff06f          	j	48b8 <__muldf3+0x4c8>
    4930:	e40e82e3          	beqz	t4,4774 <__muldf3+0x384>
    4934:	00860693          	addi	a3,a2,8
    4938:	00c6b633          	sltu	a2,a3,a2
    493c:	97b2                	c.add	a5,a2
    493e:	8636                	c.mv	a2,a3
    4940:	e35ff06f          	j	4774 <__muldf3+0x384>
    4944:	fc0e8ce3          	beqz	t4,491c <__muldf3+0x52c>
    4948:	7ff00713          	li	a4,2047
    494c:	4781                	c.li	a5,0
    494e:	4601                	c.li	a2,0
    4950:	00586813          	ori	a6,a6,5
    4954:	f65ff06f          	j	48b8 <__muldf3+0x4c8>
    4958:	45fd                	c.li	a1,31
    495a:	0cd5dd63          	bge	a1,a3,4a34 <__muldf3+0x644>
    495e:	5585                	c.li	a1,-31
    4960:	40e58733          	sub	a4,a1,a4
    4964:	00e7d733          	srl	a4,a5,a4
    4968:	0006d8db          	beqc	a3,32,4978 <__muldf3+0x588>
    496c:	43ef8f93          	addi	t6,t6,1086
    4970:	01f797b3          	sll	a5,a5,t6
    4974:	00f66633          	or	a2,a2,a5
    4978:	00c03633          	snez	a2,a2
    497c:	8e59                	c.or	a2,a4
    497e:	00767793          	andi	a5,a2,7
    4982:	c3dd                	c.beqz	a5,4a28 <__muldf3+0x638>
    4984:	00186813          	ori	a6,a6,1
    4988:	06235e5b          	beqc	t1,2,4a04 <__muldf3+0x614>
    498c:	0833585b          	beqc	t1,3,4a1c <__muldf3+0x62c>
    4990:	4585                	c.li	a1,1
    4992:	4781                	c.li	a5,0
    4994:	02031863          	bnez	t1,49c4 <__muldf3+0x5d4>
    4998:	4781                	c.li	a5,0
    499a:	4585                	c.li	a1,1
    499c:	00f67713          	andi	a4,a2,15
    49a0:	aa47565b          	beqc	a4,4,484c <__muldf3+0x45c>
    49a4:	00460713          	addi	a4,a2,4
    49a8:	00c73633          	sltu	a2,a4,a2
    49ac:	97b2                	c.add	a5,a2
    49ae:	863a                	c.mv	a2,a4
    49b0:	e9dff06f          	j	484c <__muldf3+0x45c>
    49b4:	f80e8ae3          	beqz	t4,4948 <__muldf3+0x558>
    49b8:	f65ff06f          	j	491c <__muldf3+0x52c>
    49bc:	da0e9ce3          	bnez	t4,4774 <__muldf3+0x384>
    49c0:	f75ff06f          	j	4934 <__muldf3+0x544>
    49c4:	00365713          	srli	a4,a2,0x3
    49c8:	01d79613          	slli	a2,a5,0x1d
    49cc:	8e59                	c.or	a2,a4
    49ce:	5837a7db          	bfoz	a5,a5,22,3
    49d2:	4701                	c.li	a4,0
    49d4:	e89ff06f          	j	485c <__muldf3+0x46c>
    49d8:	e20e98e3          	bnez	t4,4808 <__muldf3+0x418>
    49dc:	ff863713          	sltiu	a4,a2,-8
    49e0:	00174713          	xori	a4,a4,1
    49e4:	973e                	c.add	a4,a5
    49e6:	b50d                	c.j	4808 <__muldf3+0x418>
    49e8:	e20e80e3          	beqz	t4,4808 <__muldf3+0x418>
    49ec:	ff1ff06f          	j	49dc <__muldf3+0x5ec>
    49f0:	00f67593          	andi	a1,a2,15
    49f4:	a045da5b          	beqc	a1,4,4808 <__muldf3+0x418>
    49f8:	ffc63713          	sltiu	a4,a2,-4
    49fc:	00174713          	xori	a4,a4,1
    4a00:	973e                	c.add	a4,a5
    4a02:	b519                	c.j	4808 <__muldf3+0x418>
    4a04:	4781                	c.li	a5,0
    4a06:	4585                	c.li	a1,1
    4a08:	e40e82e3          	beqz	t4,484c <__muldf3+0x45c>
    4a0c:	00860713          	addi	a4,a2,8
    4a10:	00c73633          	sltu	a2,a4,a2
    4a14:	97b2                	c.add	a5,a2
    4a16:	863a                	c.mv	a2,a4
    4a18:	e35ff06f          	j	484c <__muldf3+0x45c>
    4a1c:	4781                	c.li	a5,0
    4a1e:	4585                	c.li	a1,1
    4a20:	e20e96e3          	bnez	t4,484c <__muldf3+0x45c>
    4a24:	fe9ff06f          	j	4a0c <__muldf3+0x61c>
    4a28:	820d                	c.srli	a2,0x3
    4a2a:	88f6                	c.mv	a7,t4
    4a2c:	4701                	c.li	a4,0
    4a2e:	4781                	c.li	a5,0
    4a30:	e35ff06f          	j	4864 <__muldf3+0x474>
    4a34:	4585                	c.li	a1,1
    4a36:	bbf9                	c.j	4814 <__muldf3+0x424>
    4a38:	0001                	c.nop
	...

00004a3c <__subdf3>:
    4a3c:	00202f73          	frrm	t5
    4a40:	001007b7          	lui	a5,0x100
    4a44:	17fd                	c.addi	a5,-1
    4a46:	00f5f833          	and	a6,a1,a5
    4a4a:	8ff5                	c.and	a5,a3
    4a4c:	01d55e13          	srli	t3,a0,0x1d
    4a50:	01d65713          	srli	a4,a2,0x1d
    4a54:	080e                	c.slli	a6,0x3
    4a56:	078e                	c.slli	a5,0x3
    4a58:	7946a35b          	bfoz	t1,a3,30,20
    4a5c:	7ff00893          	li	a7,2047
    4a60:	7945afdb          	bfoz	t6,a1,30,20
    4a64:	010e6833          	or	a6,t3,a6
    4a68:	81fd                	c.srli	a1,0x1f
    4a6a:	050e                	c.slli	a0,0x3
    4a6c:	82fd                	c.srli	a3,0x1f
    4a6e:	8fd9                	c.or	a5,a4
    4a70:	00361613          	slli	a2,a2,0x3
    4a74:	09130263          	beq	t1,a7,4af8 <__subdf3+0xbc>
    4a78:	0016c693          	xori	a3,a3,1
    4a7c:	406f8eb3          	sub	t4,t6,t1
    4a80:	08b68463          	beq	a3,a1,4b08 <__subdf3+0xcc>
    4a84:	13d05663          	blez	t4,4bb0 <__subdf3+0x174>
    4a88:	16031a63          	bnez	t1,4bfc <__subdf3+0x1c0>
    4a8c:	00c7e733          	or	a4,a5,a2
    4a90:	1e071863          	bnez	a4,4c80 <__subdf3+0x244>
    4a94:	7ff00793          	li	a5,2047
    4a98:	4afe8e63          	beq	t4,a5,4f54 <__subdf3+0x518>
    4a9c:	01d81893          	slli	a7,a6,0x1d
    4aa0:	00355513          	srli	a0,a0,0x3
    4aa4:	7ff00693          	li	a3,2047
    4aa8:	00a8e8b3          	or	a7,a7,a0
    4aac:	00385713          	srli	a4,a6,0x3
    4ab0:	12de9e63          	bne	t4,a3,4bec <__subdf3+0x1b0>
    4ab4:	00e8e733          	or	a4,a7,a4
    4ab8:	60070263          	beqz	a4,50bc <__subdf3+0x680>
    4abc:	4681                	c.li	a3,0
    4abe:	7ff00793          	li	a5,2047
    4ac2:	00080737          	lui	a4,0x80
    4ac6:	4881                	c.li	a7,0
    4ac8:	4581                	c.li	a1,0
    4aca:	fff00637          	lui	a2,0xfff00
    4ace:	8e6d                	c.and	a2,a1
    4ad0:	4c07275b          	bfoz	a4,a4,19,0
    4ad4:	8f51                	c.or	a4,a2
    4ad6:	01479613          	slli	a2,a5,0x14
    4ada:	801007b7          	lui	a5,0x80100
    4ade:	17fd                	c.addi	a5,-1
    4ae0:	8ff9                	c.and	a5,a4
    4ae2:	8fd1                	c.or	a5,a2
    4ae4:	06fe                	c.slli	a3,0x1f
    4ae6:	7807a7db          	bfoz	a5,a5,30,0
    4aea:	8546                	c.mv	a0,a7
    4aec:	00d7e5b3          	or	a1,a5,a3
    4af0:	32031263          	bnez	t1,4e14 <__subdf3+0x3d8>
    4af4:	00008067          	ret
    4af8:	00c7e733          	or	a4,a5,a2
    4afc:	f6070ee3          	beqz	a4,4a78 <__subdf3+0x3c>
    4b00:	406f8eb3          	sub	t4,t6,t1
    4b04:	f8b690e3          	bne	a3,a1,4a84 <__subdf3+0x48>
    4b08:	2dd05a63          	blez	t4,4ddc <__subdf3+0x3a0>
    4b0c:	12031663          	bnez	t1,4c38 <__subdf3+0x1fc>
    4b10:	00c7e733          	or	a4,a5,a2
    4b14:	d341                	c.beqz	a4,4a94 <__subdf3+0x58>
    4b16:	fffe8713          	addi	a4,t4,-1
    4b1a:	58071163          	bnez	a4,509c <__subdf3+0x660>
    4b1e:	00c508b3          	add	a7,a0,a2
    4b22:	97c2                	c.add	a5,a6
    4b24:	00a8b533          	sltu	a0,a7,a0
    4b28:	97aa                	c.add	a5,a0
    4b2a:	4e09                	c.li	t3,2
    4b2c:	00100f93          	li	t6,1
    4b30:	2977f65b          	bbc	a5,23,4dbc <__subdf3+0x380>
    4b34:	ff800737          	lui	a4,0xff800
    4b38:	177d                	c.addi	a4,-1
    4b3a:	8ff9                	c.and	a5,a4
    4b3c:	0018d713          	srli	a4,a7,0x1
    4b40:	0018f893          	andi	a7,a7,1
    4b44:	011768b3          	or	a7,a4,a7
    4b48:	01f79713          	slli	a4,a5,0x1f
    4b4c:	011768b3          	or	a7,a4,a7
    4b50:	8385                	c.srli	a5,0x1
    4b52:	0078f713          	andi	a4,a7,7
    4b56:	4301                	c.li	t1,0
    4b58:	00000e93          	li	t4,0
    4b5c:	0c070ee3          	beqz	a4,5438 <__subdf3+0x9fc>
    4b60:	322f5e5b          	beqc	t5,2,4e9c <__subdf3+0x460>
    4b64:	343f545b          	beqc	t5,3,4eac <__subdf3+0x470>
    4b68:	300f0063          	beqz	t5,4e68 <__subdf3+0x42c>
    4b6c:	00800737          	lui	a4,0x800
    4b70:	00f77733          	and	a4,a4,a5
    4b74:	0a030ee3          	beqz	t1,5430 <__subdf3+0x9f4>
    4b78:	00236313          	ori	t1,t1,2
    4b7c:	0a0704e3          	beqz	a4,5424 <__subdf3+0x9e8>
    4b80:	001e0613          	addi	a2,t3,1
    4b84:	7ff00713          	li	a4,2047
    4b88:	2ce60463          	beq	a2,a4,4e50 <__subdf3+0x414>
    4b8c:	ff800737          	lui	a4,0xff800
    4b90:	177d                	c.addi	a4,-1
    4b92:	8f7d                	c.and	a4,a5
    4b94:	01d71513          	slli	a0,a4,0x1d
    4b98:	0038d893          	srli	a7,a7,0x3
    4b9c:	011568b3          	or	a7,a0,a7
    4ba0:	5837275b          	bfoz	a4,a4,22,3
    4ba4:	7ff67793          	andi	a5,a2,2047
    4ba8:	0015f693          	andi	a3,a1,1
    4bac:	f1dff06f          	j	4ac8 <__subdf3+0x8c>
    4bb0:	1a0e9063          	bnez	t4,4d50 <__subdf3+0x314>
    4bb4:	001f8713          	addi	a4,t6,1
    4bb8:	7ff77713          	andi	a4,a4,2047
    4bbc:	4885                	c.li	a7,1
    4bbe:	36e8d963          	bge	a7,a4,4f30 <__subdf3+0x4f4>
    4bc2:	40c508b3          	sub	a7,a0,a2
    4bc6:	40f80333          	sub	t1,a6,a5
    4bca:	01153733          	sltu	a4,a0,a7
    4bce:	40e30333          	sub	t1,t1,a4
    4bd2:	0173745b          	bbc	t1,23,4bda <__subdf3+0x19e>
    4bd6:	3ca0006f          	j	4fa0 <__subdf3+0x564>
    4bda:	0068e733          	or	a4,a7,t1
    4bde:	e379                	c.bnez	a4,4ca4 <__subdf3+0x268>
    4be0:	ffef0593          	addi	a1,t5,-2
    4be4:	0015b593          	seqz	a1,a1
    4be8:	4881                	c.li	a7,0
    4bea:	4301                	c.li	t1,0
    4bec:	4c07275b          	bfoz	a4,a4,19,0
    4bf0:	7ffef793          	andi	a5,t4,2047
    4bf4:	0015f693          	andi	a3,a1,1
    4bf8:	ed1ff06f          	j	4ac8 <__subdf3+0x8c>
    4bfc:	008006b7          	lui	a3,0x800
    4c00:	7ff00713          	li	a4,2047
    4c04:	00d7e7b3          	or	a5,a5,a3
    4c08:	1cef8063          	beq	t6,a4,4dc8 <__subdf3+0x38c>
    4c0c:	03800713          	li	a4,56
    4c10:	21d74663          	blt	a4,t4,4e1c <__subdf3+0x3e0>
    4c14:	477d                	c.li	a4,31
    4c16:	3fd75363          	bge	a4,t4,4ffc <__subdf3+0x5c0>
    4c1a:	01d7d8b3          	srl	a7,a5,t4
    4c1e:	000ed7db          	beqc	t4,32,4c2c <__subdf3+0x1f0>
    4c22:	41d00eb3          	neg	t4,t4
    4c26:	01d797b3          	sll	a5,a5,t4
    4c2a:	8e5d                	c.or	a2,a5
    4c2c:	00c03633          	snez	a2,a2
    4c30:	011668b3          	or	a7,a2,a7
    4c34:	1f00006f          	j	4e24 <__subdf3+0x3e8>
    4c38:	008008b7          	lui	a7,0x800
    4c3c:	7ff00713          	li	a4,2047
    4c40:	0117e7b3          	or	a5,a5,a7
    4c44:	50ef8063          	beq	t6,a4,5144 <__subdf3+0x708>
    4c48:	03800713          	li	a4,56
    4c4c:	37d74463          	blt	a4,t4,4fb4 <__subdf3+0x578>
    4c50:	477d                	c.li	a4,31
    4c52:	55d74f63          	blt	a4,t4,51b0 <__subdf3+0x774>
    4c56:	02000713          	li	a4,32
    4c5a:	41d70733          	sub	a4,a4,t4
    4c5e:	00e798b3          	sll	a7,a5,a4
    4c62:	01d65333          	srl	t1,a2,t4
    4c66:	00e61633          	sll	a2,a2,a4
    4c6a:	0068e8b3          	or	a7,a7,t1
    4c6e:	00c03633          	snez	a2,a2
    4c72:	01d7d7b3          	srl	a5,a5,t4
    4c76:	00c8e8b3          	or	a7,a7,a2
    4c7a:	983e                	c.add	a6,a5
    4c7c:	3400006f          	j	4fbc <__subdf3+0x580>
    4c80:	fffe8313          	addi	t1,t4,-1
    4c84:	2e031463          	bnez	t1,4f6c <__subdf3+0x530>
    4c88:	40c508b3          	sub	a7,a0,a2
    4c8c:	40f807b3          	sub	a5,a6,a5
    4c90:	01153533          	sltu	a0,a0,a7
    4c94:	8f89                	c.sub	a5,a0
    4c96:	4177f45b          	bbs	a5,23,4c9e <__subdf3+0x262>
    4c9a:	40e0006f          	j	50a8 <__subdf3+0x66c>
    4c9e:	4f85                	c.li	t6,1
    4ca0:	5807a35b          	bfoz	t1,a5,22,0
    4ca4:	af9306ff          	clz32	a3,t1
    4ca8:	00031663          	bnez	t1,4cb4 <__subdf3+0x278>
    4cac:	af9886ff          	clz32	a3,a7
    4cb0:	02068693          	addi	a3,a3,32 # 800020 <FLASH_SIZE+0x700020>
    4cb4:	ff868513          	addi	a0,a3,-8
    4cb8:	01f00793          	li	a5,31
    4cbc:	20a7ce63          	blt	a5,a0,4ed8 <__subdf3+0x49c>
    4cc0:	40a007b3          	neg	a5,a0
    4cc4:	00f8d7b3          	srl	a5,a7,a5
    4cc8:	00a31333          	sll	t1,t1,a0
    4ccc:	0067e7b3          	or	a5,a5,t1
    4cd0:	00a898b3          	sll	a7,a7,a0
    4cd4:	1ff54663          	blt	a0,t6,4ec0 <__subdf3+0x484>
    4cd8:	41f50fb3          	sub	t6,a0,t6
    4cdc:	001f8713          	addi	a4,t6,1
    4ce0:	46fd                	c.li	a3,31
    4ce2:	28e6cb63          	blt	a3,a4,4f78 <__subdf3+0x53c>
    4ce6:	02000693          	li	a3,32
    4cea:	8e99                	c.sub	a3,a4
    4cec:	00e8d633          	srl	a2,a7,a4
    4cf0:	00d898b3          	sll	a7,a7,a3
    4cf4:	00d796b3          	sll	a3,a5,a3
    4cf8:	00c6e6b3          	or	a3,a3,a2
    4cfc:	011038b3          	snez	a7,a7
    4d00:	0116e8b3          	or	a7,a3,a7
    4d04:	00e7d7b3          	srl	a5,a5,a4
    4d08:	00f8e733          	or	a4,a7,a5
    4d0c:	12070663          	beqz	a4,4e38 <__subdf3+0x3fc>
    4d10:	0078f713          	andi	a4,a7,7
    4d14:	00189693          	slli	a3,a7,0x1
    4d18:	01f8d313          	srli	t1,a7,0x1f
    4d1c:	0076f613          	andi	a2,a3,7
    4d20:	0af3035b          	lea.h	t1,t1,a5
    4d24:	4e81                	c.li	t4,0
    4d26:	ce09                	c.beqz	a2,4d40 <__subdf3+0x304>
    4d28:	002f645b          	bnec	t5,2,4d30 <__subdf3+0x2f4>
    4d2c:	4380006f          	j	5164 <__subdf3+0x728>
    4d30:	003f645b          	bnec	t5,3,4d38 <__subdf3+0x2fc>
    4d34:	41c0006f          	j	5150 <__subdf3+0x714>
    4d38:	00100e93          	li	t4,1
    4d3c:	380f0263          	beqz	t5,50c0 <__subdf3+0x684>
    4d40:	01835313          	srli	t1,t1,0x18
    4d44:	00134313          	xori	t1,t1,1
    4d48:	00137313          	andi	t1,t1,1
    4d4c:	4e01                	c.li	t3,0
    4d4e:	b539                	c.j	4b5c <__subdf3+0x120>
    4d50:	2c0f8c63          	beqz	t6,5028 <__subdf3+0x5ec>
    4d54:	7ff00713          	li	a4,2047
    4d58:	4ee30063          	beq	t1,a4,5238 <__subdf3+0x7fc>
    4d5c:	00800737          	lui	a4,0x800
    4d60:	41d00eb3          	neg	t4,t4
    4d64:	00e86833          	or	a6,a6,a4
    4d68:	03800713          	li	a4,56
    4d6c:	51d74063          	blt	a4,t4,526c <__subdf3+0x830>
    4d70:	01f00713          	li	a4,31
    4d74:	5bd74463          	blt	a4,t4,531c <__subdf3+0x8e0>
    4d78:	02000713          	li	a4,32
    4d7c:	41d70733          	sub	a4,a4,t4
    4d80:	00e818b3          	sll	a7,a6,a4
    4d84:	01d555b3          	srl	a1,a0,t4
    4d88:	00e51733          	sll	a4,a0,a4
    4d8c:	00b8e8b3          	or	a7,a7,a1
    4d90:	00e03733          	snez	a4,a4
    4d94:	01d85eb3          	srl	t4,a6,t4
    4d98:	00e8e8b3          	or	a7,a7,a4
    4d9c:	41d787b3          	sub	a5,a5,t4
    4da0:	411608b3          	sub	a7,a2,a7
    4da4:	01163633          	sltu	a2,a2,a7
    4da8:	8f91                	c.sub	a5,a2
    4daa:	8f9a                	c.mv	t6,t1
    4dac:	00d005b3          	add	a1,zero,a3
    4db0:	ef77f85b          	bbs	a5,23,4ca0 <__subdf3+0x264>
    4db4:	00f8e733          	or	a4,a7,a5
    4db8:	f40f8ae3          	beqz	t6,4d0c <__subdf3+0x2d0>
    4dbc:	0078f713          	andi	a4,a7,7
    4dc0:	8e7e                	c.mv	t3,t6
    4dc2:	4301                	c.li	t1,0
    4dc4:	4e81                	c.li	t4,0
    4dc6:	bb59                	c.j	4b5c <__subdf3+0x120>
    4dc8:	00a867b3          	or	a5,a6,a0
    4dcc:	26078e63          	beqz	a5,5048 <__subdf3+0x60c>
    4dd0:	7ff00e93          	li	t4,2047
    4dd4:	6b68785b          	bbs	a6,22,5084 <__subdf3+0x648>
    4dd8:	4341                	c.li	t1,16
    4dda:	b1c9                	c.j	4a9c <__subdf3+0x60>
    4ddc:	320e9c63          	bnez	t4,5114 <__subdf3+0x6d8>
    4de0:	001f8e13          	addi	t3,t6,1
    4de4:	7ffe7893          	andi	a7,t3,2047
    4de8:	4705                	c.li	a4,1
    4dea:	39175763          	bge	a4,a7,5178 <__subdf3+0x73c>
    4dee:	7ff00713          	li	a4,2047
    4df2:	2eee0363          	beq	t3,a4,50d8 <__subdf3+0x69c>
    4df6:	962a                	c.add	a2,a0
    4df8:	00a63533          	sltu	a0,a2,a0
    4dfc:	97c2                	c.add	a5,a6
    4dfe:	97aa                	c.add	a5,a0
    4e00:	01f79893          	slli	a7,a5,0x1f
    4e04:	8205                	c.srli	a2,0x1
    4e06:	00c8e8b3          	or	a7,a7,a2
    4e0a:	8385                	c.srli	a5,0x1
    4e0c:	0078f713          	andi	a4,a7,7
    4e10:	4301                	c.li	t1,0
    4e12:	b3a9                	c.j	4b5c <__subdf3+0x120>
    4e14:	00132073          	csrs	fflags,t1
    4e18:	00008067          	ret
    4e1c:	00c7e7b3          	or	a5,a5,a2
    4e20:	00f038b3          	snez	a7,a5
    4e24:	411508b3          	sub	a7,a0,a7
    4e28:	011537b3          	sltu	a5,a0,a7
    4e2c:	40f807b3          	sub	a5,a6,a5
    4e30:	b977f25b          	bbc	a5,23,4db4 <__subdf3+0x378>
    4e34:	e6dff06f          	j	4ca0 <__subdf3+0x264>
    4e38:	4e81                	c.li	t4,0
    4e3a:	4881                	c.li	a7,0
    4e3c:	4301                	c.li	t1,0
    4e3e:	4c07275b          	bfoz	a4,a4,19,0
    4e42:	7ffef793          	andi	a5,t4,2047
    4e46:	0015f693          	andi	a3,a1,1
    4e4a:	b9bd                	c.j	4ac8 <__subdf3+0x8c>
    4e4c:	85b6                	c.mv	a1,a3
    4e4e:	4315                	c.li	t1,5
    4e50:	080f1a63          	bnez	t5,4ee4 <__subdf3+0x4a8>
    4e54:	00536313          	ori	t1,t1,5
    4e58:	00b006b3          	add	a3,zero,a1
    4e5c:	8a85                	c.andi	a3,1
    4e5e:	7ff00793          	li	a5,2047
    4e62:	4701                	c.li	a4,0
    4e64:	4881                	c.li	a7,0
    4e66:	b18d                	c.j	4ac8 <__subdf3+0x8c>
    4e68:	00f8f713          	andi	a4,a7,15
    4e6c:	00100813          	li	a6,1
    4e70:	8e475e5b          	beqc	a4,4,4b6c <__subdf3+0x130>
    4e74:	00488513          	addi	a0,a7,4 # 800004 <FLASH_SIZE+0x700004>
    4e78:	011538b3          	sltu	a7,a0,a7
    4e7c:	97c6                	c.add	a5,a7
    4e7e:	00800737          	lui	a4,0x800
    4e82:	869a                	c.mv	a3,t1
    4e84:	8f7d                	c.and	a4,a5
    4e86:	88aa                	c.mv	a7,a0
    4e88:	01000333          	add	t1,zero,a6
    4e8c:	ce0688e3          	beqz	a3,4b7c <__subdf3+0x140>
    4e90:	8e03765b          	bbc	t1,0,4b7c <__subdf3+0x140>
    4e94:	00236313          	ori	t1,t1,2
    4e98:	ce5ff06f          	j	4b7c <__subdf3+0x140>
    4e9c:	edb5                	c.bnez	a1,4f18 <__subdf3+0x4dc>
    4e9e:	00800737          	lui	a4,0x800
    4ea2:	869a                	c.mv	a3,t1
    4ea4:	8f7d                	c.and	a4,a5
    4ea6:	4305                	c.li	t1,1
    4ea8:	fe5ff06f          	j	4e8c <__subdf3+0x450>
    4eac:	00100613          	li	a2,1
    4eb0:	c9a1                	c.beqz	a1,4f00 <__subdf3+0x4c4>
    4eb2:	00800737          	lui	a4,0x800
    4eb6:	869a                	c.mv	a3,t1
    4eb8:	8f7d                	c.and	a4,a5
    4eba:	8332                	c.mv	t1,a2
    4ebc:	fd1ff06f          	j	4e8c <__subdf3+0x450>
    4ec0:	ff800737          	lui	a4,0xff800
    4ec4:	177d                	c.addi	a4,-1
    4ec6:	8ff9                	c.and	a5,a4
    4ec8:	40af8fb3          	sub	t6,t6,a0
    4ecc:	00f8e733          	or	a4,a7,a5
    4ed0:	e20f8ee3          	beqz	t6,4d0c <__subdf3+0x2d0>
    4ed4:	ee9ff06f          	j	4dbc <__subdf3+0x380>
    4ed8:	fd868793          	addi	a5,a3,-40
    4edc:	00f897b3          	sll	a5,a7,a5
    4ee0:	4881                	c.li	a7,0
    4ee2:	bbcd                	c.j	4cd4 <__subdf3+0x298>
    4ee4:	283f545b          	beqc	t5,3,516c <__subdf3+0x730>
    4ee8:	1c2f565b          	beqc	t5,2,50b4 <__subdf3+0x678>
    4eec:	00536313          	ori	t1,t1,5
    4ef0:	20000737          	lui	a4,0x20000
    4ef4:	58fd                	c.li	a7,-1
    4ef6:	177d                	c.addi	a4,-1
    4ef8:	7fe00e93          	li	t4,2046
    4efc:	cf1ff06f          	j	4bec <__subdf3+0x1b0>
    4f00:	00888513          	addi	a0,a7,8
    4f04:	011538b3          	sltu	a7,a0,a7
    4f08:	97c6                	c.add	a5,a7
    4f0a:	00800737          	lui	a4,0x800
    4f0e:	869a                	c.mv	a3,t1
    4f10:	8f7d                	c.and	a4,a5
    4f12:	88aa                	c.mv	a7,a0
    4f14:	8332                	c.mv	t1,a2
    4f16:	bf9d                	c.j	4e8c <__subdf3+0x450>
    4f18:	00888613          	addi	a2,a7,8
    4f1c:	011638b3          	sltu	a7,a2,a7
    4f20:	97c6                	c.add	a5,a7
    4f22:	00800737          	lui	a4,0x800
    4f26:	869a                	c.mv	a3,t1
    4f28:	8f7d                	c.and	a4,a5
    4f2a:	88b2                	c.mv	a7,a2
    4f2c:	4305                	c.li	t1,1
    4f2e:	bfb9                	c.j	4e8c <__subdf3+0x450>
    4f30:	00a86733          	or	a4,a6,a0
    4f34:	00c7e8b3          	or	a7,a5,a2
    4f38:	100f9c63          	bnez	t6,5050 <__subdf3+0x614>
    4f3c:	36071063          	bnez	a4,529c <__subdf3+0x860>
    4f40:	42089663          	bnez	a7,536c <__subdf3+0x930>
    4f44:	ffef0593          	addi	a1,t5,-2
    4f48:	0015b593          	seqz	a1,a1
    4f4c:	8776                	c.mv	a4,t4
    4f4e:	4301                	c.li	t1,0
    4f50:	c9dff06f          	j	4bec <__subdf3+0x1b0>
    4f54:	00a867b3          	or	a5,a6,a0
    4f58:	12078e63          	beqz	a5,5094 <__subdf3+0x658>
    4f5c:	00400337          	lui	t1,0x400
    4f60:	00687333          	and	t1,a6,t1
    4f64:	00133313          	seqz	t1,t1
    4f68:	0312                	c.slli	t1,0x4
    4f6a:	be0d                	c.j	4a9c <__subdf3+0x60>
    4f6c:	7ff00713          	li	a4,2047
    4f70:	0cee8863          	beq	t4,a4,5040 <__subdf3+0x604>
    4f74:	8e9a                	c.mv	t4,t1
    4f76:	b959                	c.j	4c0c <__subdf3+0x1d0>
    4f78:	fe1f8f93          	addi	t6,t6,-31
    4f7c:	01f7d533          	srl	a0,a5,t6
    4f80:	000758db          	beqc	a4,32,4f90 <__subdf3+0x554>
    4f84:	40e00733          	neg	a4,a4
    4f88:	00e797b3          	sll	a5,a5,a4
    4f8c:	00f8e8b3          	or	a7,a7,a5
    4f90:	011038b3          	snez	a7,a7
    4f94:	00a8e8b3          	or	a7,a7,a0
    4f98:	8746                	c.mv	a4,a7
    4f9a:	4781                	c.li	a5,0
    4f9c:	d71ff06f          	j	4d0c <__subdf3+0x2d0>
    4fa0:	40a608b3          	sub	a7,a2,a0
    4fa4:	410787b3          	sub	a5,a5,a6
    4fa8:	01163633          	sltu	a2,a2,a7
    4fac:	40c78333          	sub	t1,a5,a2
    4fb0:	85b6                	c.mv	a1,a3
    4fb2:	b9cd                	c.j	4ca4 <__subdf3+0x268>
    4fb4:	00c7e7b3          	or	a5,a5,a2
    4fb8:	00f038b3          	snez	a7,a5
    4fbc:	98aa                	c.add	a7,a0
    4fbe:	00a8b7b3          	sltu	a5,a7,a0
    4fc2:	97c2                	c.add	a5,a6
    4fc4:	9f77f85b          	bbc	a5,23,4db4 <__subdf3+0x378>
    4fc8:	001f8e13          	addi	t3,t6,1
    4fcc:	7ff00713          	li	a4,2047
    4fd0:	b6ee12e3          	bne	t3,a4,4b34 <__subdf3+0xf8>
    4fd4:	120f0e63          	beqz	t5,5110 <__subdf3+0x6d4>
    4fd8:	003f645b          	bnec	t5,3,4fe0 <__subdf3+0x5a4>
    4fdc:	3f80006f          	j	53d4 <__subdf3+0x998>
    4fe0:	122f565b          	beqc	t5,2,510c <__subdf3+0x6d0>
    4fe4:	420f0863          	beqz	t5,5414 <__subdf3+0x9d8>
    4fe8:	a63f625b          	bnec	t5,3,4e4c <__subdf3+0x410>
    4fec:	57fd                	c.li	a5,-1
    4fee:	58fd                	c.li	a7,-1
    4ff0:	7fe00e13          	li	t3,2046
    4ff4:	4301                	c.li	t1,0
    4ff6:	4615                	c.li	a2,5
    4ff8:	eb9ff06f          	j	4eb0 <__subdf3+0x474>
    4ffc:	02000713          	li	a4,32
    5000:	41d70733          	sub	a4,a4,t4
    5004:	00e798b3          	sll	a7,a5,a4
    5008:	01d656b3          	srl	a3,a2,t4
    500c:	00e61633          	sll	a2,a2,a4
    5010:	00d8e8b3          	or	a7,a7,a3
    5014:	00c03633          	snez	a2,a2
    5018:	01d7d7b3          	srl	a5,a5,t4
    501c:	00c8e8b3          	or	a7,a7,a2
    5020:	40f80833          	sub	a6,a6,a5
    5024:	e01ff06f          	j	4e24 <__subdf3+0x3e8>
    5028:	00a86733          	or	a4,a6,a0
    502c:	1e071c63          	bnez	a4,5224 <__subdf3+0x7e8>
    5030:	7ff00713          	li	a4,2047
    5034:	04e30a63          	beq	t1,a4,5088 <__subdf3+0x64c>
    5038:	88b2                	c.mv	a7,a2
    503a:	8f9a                	c.mv	t6,t1
    503c:	85b6                	c.mv	a1,a3
    503e:	bb9d                	c.j	4db4 <__subdf3+0x378>
    5040:	00a867b3          	or	a5,a6,a0
    5044:	f0079ce3          	bnez	a5,4f5c <__subdf3+0x520>
    5048:	86ae                	c.mv	a3,a1
    504a:	4301                	c.li	t1,0
    504c:	e11ff06f          	j	4e5c <__subdf3+0x420>
    5050:	7ff00e13          	li	t3,2047
    5054:	27cf8c63          	beq	t6,t3,52cc <__subdf3+0x890>
    5058:	0bc30063          	beq	t1,t3,50f8 <__subdf3+0x6bc>
    505c:	28071263          	bnez	a4,52e0 <__subdf3+0x8a4>
    5060:	4501                	c.li	a0,0
    5062:	7ff805b7          	lui	a1,0x7ff80
    5066:	4341                	c.li	t1,16
    5068:	da0886e3          	beqz	a7,4e14 <__subdf3+0x3d8>
    506c:	8376                	c.mv	t1,t4
    506e:	85b6                	c.mv	a1,a3
    5070:	883e                	c.mv	a6,a5
    5072:	8532                	c.mv	a0,a2
    5074:	7ff00e93          	li	t4,2047
    5078:	a25ff06f          	j	4a9c <__subdf3+0x60>
    507c:	85b6                	c.mv	a1,a3
    507e:	883e                	c.mv	a6,a5
    5080:	00c00533          	add	a0,zero,a2
    5084:	4301                	c.li	t1,0
    5086:	bc19                	c.j	4a9c <__subdf3+0x60>
    5088:	00c7e733          	or	a4,a5,a2
    508c:	1a071a63          	bnez	a4,5240 <__subdf3+0x804>
    5090:	00d005b3          	add	a1,zero,a3
    5094:	4881                	c.li	a7,0
    5096:	4701                	c.li	a4,0
    5098:	4301                	c.li	t1,0
    509a:	bc29                	c.j	4ab4 <__subdf3+0x78>
    509c:	7ff00893          	li	a7,2047
    50a0:	291e8e63          	beq	t4,a7,533c <__subdf3+0x900>
    50a4:	8eba                	c.mv	t4,a4
    50a6:	b64d                	c.j	4c48 <__subdf3+0x20c>
    50a8:	0078f713          	andi	a4,a7,7
    50ac:	4e81                	c.li	t4,0
    50ae:	4e05                	c.li	t3,1
    50b0:	aadff06f          	j	4b5c <__subdf3+0x120>
    50b4:	00536313          	ori	t1,t1,5
    50b8:	e2058ce3          	beqz	a1,4ef0 <__subdf3+0x4b4>
    50bc:	86ae                	c.mv	a3,a1
    50be:	bb79                	c.j	4e5c <__subdf3+0x420>
    50c0:	00f6f613          	andi	a2,a3,15
    50c4:	4e85                	c.li	t4,1
    50c6:	86465d5b          	beqc	a2,4,4d40 <__subdf3+0x304>
    50ca:	ffc6b693          	sltiu	a3,a3,-4
    50ce:	0016c693          	xori	a3,a3,1
    50d2:	9336                	c.add	t1,a3
    50d4:	c6dff06f          	j	4d40 <__subdf3+0x304>
    50d8:	020f0c63          	beqz	t5,5110 <__subdf3+0x6d4>
    50dc:	323f505b          	beqc	t5,3,53fc <__subdf3+0x9c0>
    50e0:	b02f625b          	bnec	t5,2,4fe4 <__subdf3+0x5a8>
    50e4:	02069663          	bnez	a3,5110 <__subdf3+0x6d4>
    50e8:	58fd                	c.li	a7,-1
    50ea:	7fe00e13          	li	t3,2046
    50ee:	57fd                	c.li	a5,-1
    50f0:	4315                	c.li	t1,5
    50f2:	b479                	c.j	4b80 <__subdf3+0x144>
    50f4:	f7f316e3          	bne	t1,t6,5060 <__subdf3+0x624>
    50f8:	f60882e3          	beqz	a7,505c <__subdf3+0x620>
    50fc:	4167f45b          	bbs	a5,22,5104 <__subdf3+0x6c8>
    5100:	01000e93          	li	t4,16
    5104:	f60704e3          	beqz	a4,506c <__subdf3+0x630>
    5108:	8376                	c.mv	t1,t4
    510a:	ba4d                	c.j	4abc <__subdf3+0x80>
    510c:	ddf1                	c.beqz	a1,50e8 <__subdf3+0x6ac>
    510e:	86ae                	c.mv	a3,a1
    5110:	4315                	c.li	t1,5
    5112:	b3a9                	c.j	4e5c <__subdf3+0x420>
    5114:	0a0f9e63          	bnez	t6,51d0 <__subdf3+0x794>
    5118:	00a86733          	or	a4,a6,a0
    511c:	1c071a63          	bnez	a4,52f0 <__subdf3+0x8b4>
    5120:	7ff00713          	li	a4,2047
    5124:	88b2                	c.mv	a7,a2
    5126:	8f9a                	c.mv	t6,t1
    5128:	c8e316e3          	bne	t1,a4,4db4 <__subdf3+0x378>
    512c:	00c7e733          	or	a4,a5,a2
    5130:	f60702e3          	beqz	a4,5094 <__subdf3+0x658>
    5134:	7ff00e93          	li	t4,2047
    5138:	883e                	c.mv	a6,a5
    513a:	8532                	c.mv	a0,a2
    513c:	f567f45b          	bbs	a5,22,5084 <__subdf3+0x648>
    5140:	4341                	c.li	t1,16
    5142:	baa9                	c.j	4a9c <__subdf3+0x60>
    5144:	00a867b3          	or	a5,a6,a0
    5148:	c80794e3          	bnez	a5,4dd0 <__subdf3+0x394>
    514c:	4301                	c.li	t1,0
    514e:	b339                	c.j	4e5c <__subdf3+0x420>
    5150:	00100e93          	li	t4,1
    5154:	be0596e3          	bnez	a1,4d40 <__subdf3+0x304>
    5158:	ff86b693          	sltiu	a3,a3,-8
    515c:	0016c693          	xori	a3,a3,1
    5160:	9336                	c.add	t1,a3
    5162:	bef9                	c.j	4d40 <__subdf3+0x304>
    5164:	4e85                	c.li	t4,1
    5166:	bc058de3          	beqz	a1,4d40 <__subdf3+0x304>
    516a:	b7fd                	c.j	5158 <__subdf3+0x71c>
    516c:	d80590e3          	bnez	a1,4eec <__subdf3+0x4b0>
    5170:	00536313          	ori	t1,t1,5
    5174:	4681                	c.li	a3,0
    5176:	b1dd                	c.j	4e5c <__subdf3+0x420>
    5178:	00a868b3          	or	a7,a6,a0
    517c:	0e0f9e63          	bnez	t6,5278 <__subdf3+0x83c>
    5180:	00c7e733          	or	a4,a5,a2
    5184:	1e088063          	beqz	a7,5364 <__subdf3+0x928>
    5188:	cf71                	c.beqz	a4,5264 <__subdf3+0x828>
    518a:	00c508b3          	add	a7,a0,a2
    518e:	97c2                	c.add	a5,a6
    5190:	00a8b533          	sltu	a0,a7,a0
    5194:	97aa                	c.add	a5,a0
    5196:	4177f45b          	bbs	a5,23,519e <__subdf3+0x762>
    519a:	b6fff06f          	j	4d08 <__subdf3+0x2cc>
    519e:	ff800737          	lui	a4,0xff800
    51a2:	177d                	c.addi	a4,-1
    51a4:	8ff9                	c.and	a5,a4
    51a6:	4301                	c.li	t1,0
    51a8:	0078f713          	andi	a4,a7,7
    51ac:	4e05                	c.li	t3,1
    51ae:	b27d                	c.j	4b5c <__subdf3+0x120>
    51b0:	01d7d8b3          	srl	a7,a5,t4
    51b4:	000ed8db          	beqc	t4,32,51c4 <__subdf3+0x788>
    51b8:	41d00eb3          	neg	t4,t4
    51bc:	01d797b3          	sll	a5,a5,t4
    51c0:	00f66633          	or	a2,a2,a5
    51c4:	00c03633          	snez	a2,a2
    51c8:	011668b3          	or	a7,a2,a7
    51cc:	df1ff06f          	j	4fbc <__subdf3+0x580>
    51d0:	7ff00713          	li	a4,2047
    51d4:	12e30863          	beq	t1,a4,5304 <__subdf3+0x8c8>
    51d8:	00800737          	lui	a4,0x800
    51dc:	41d00eb3          	neg	t4,t4
    51e0:	00e86833          	or	a6,a6,a4
    51e4:	03800713          	li	a4,56
    51e8:	13d74463          	blt	a4,t4,5310 <__subdf3+0x8d4>
    51ec:	477d                	c.li	a4,31
    51ee:	19d74363          	blt	a4,t4,5374 <__subdf3+0x938>
    51f2:	02000713          	li	a4,32
    51f6:	41d70733          	sub	a4,a4,t4
    51fa:	00e818b3          	sll	a7,a6,a4
    51fe:	01d55e33          	srl	t3,a0,t4
    5202:	00e51733          	sll	a4,a0,a4
    5206:	01c8e8b3          	or	a7,a7,t3
    520a:	00e03733          	snez	a4,a4
    520e:	01d85833          	srl	a6,a6,t4
    5212:	00e8e8b3          	or	a7,a7,a4
    5216:	97c2                	c.add	a5,a6
    5218:	98b2                	c.add	a7,a2
    521a:	00c8b633          	sltu	a2,a7,a2
    521e:	97b2                	c.add	a5,a2
    5220:	8f9a                	c.mv	t6,t1
    5222:	b34d                	c.j	4fc4 <__subdf3+0x588>
    5224:	fff00713          	li	a4,-1
    5228:	12ee8063          	beq	t4,a4,5348 <__subdf3+0x90c>
    522c:	7ff00713          	li	a4,2047
    5230:	fffece93          	not	t4,t4
    5234:	b2e31ae3          	bne	t1,a4,4d68 <__subdf3+0x32c>
    5238:	00c7e733          	or	a4,a5,a2
    523c:	f00708e3          	beqz	a4,514c <__subdf3+0x710>
    5240:	7ff00e93          	li	t4,2047
    5244:	e367fc5b          	bbs	a5,22,507c <__subdf3+0x640>
    5248:	85b6                	c.mv	a1,a3
    524a:	883e                	c.mv	a6,a5
    524c:	8532                	c.mv	a0,a2
    524e:	4341                	c.li	t1,16
    5250:	84dff06f          	j	4a9c <__subdf3+0x60>
    5254:	01136733          	or	a4,t1,a7
    5258:	980704e3          	beqz	a4,4be0 <__subdf3+0x1a4>
    525c:	00737713          	andi	a4,t1,7
    5260:	8846                	c.mv	a6,a7
    5262:	851a                	c.mv	a0,t1
    5264:	87c2                	c.mv	a5,a6
    5266:	88aa                	c.mv	a7,a0
    5268:	aadff06f          	j	4d14 <__subdf3+0x2d8>
    526c:	00a86533          	or	a0,a6,a0
    5270:	00a038b3          	snez	a7,a0
    5274:	b2dff06f          	j	4da0 <__subdf3+0x364>
    5278:	7ff00713          	li	a4,2047
    527c:	12ef8463          	beq	t6,a4,53a4 <__subdf3+0x968>
    5280:	16e30863          	beq	t1,a4,53f0 <__subdf3+0x9b4>
    5284:	10088863          	beqz	a7,5394 <__subdf3+0x958>
    5288:	00c7e7b3          	or	a5,a5,a2
    528c:	e6079ee3          	bnez	a5,5108 <__subdf3+0x6cc>
    5290:	8376                	c.mv	t1,t4
    5292:	85b6                	c.mv	a1,a3
    5294:	7ff00e93          	li	t4,2047
    5298:	805ff06f          	j	4a9c <__subdf3+0x60>
    529c:	0c088663          	beqz	a7,5368 <__subdf3+0x92c>
    52a0:	40c50333          	sub	t1,a0,a2
    52a4:	40f808b3          	sub	a7,a6,a5
    52a8:	00653733          	sltu	a4,a0,t1
    52ac:	40e888b3          	sub	a7,a7,a4
    52b0:	bb78f25b          	bbc	a7,23,5254 <__subdf3+0x818>
    52b4:	40a608b3          	sub	a7,a2,a0
    52b8:	410787b3          	sub	a5,a5,a6
    52bc:	01163633          	sltu	a2,a2,a7
    52c0:	8f91                	c.sub	a5,a2
    52c2:	00f8e733          	or	a4,a7,a5
    52c6:	85b6                	c.mv	a1,a3
    52c8:	a45ff06f          	j	4d0c <__subdf3+0x2d0>
    52cc:	e20704e3          	beqz	a4,50f4 <__subdf3+0x6b8>
    52d0:	4168745b          	bbs	a6,22,52d8 <__subdf3+0x89c>
    52d4:	01000e93          	li	t4,16
    52d8:	7ff00e13          	li	t3,2047
    52dc:	e1c30ee3          	beq	t1,t3,50f8 <__subdf3+0x6bc>
    52e0:	e20894e3          	bnez	a7,5108 <__subdf3+0x6cc>
    52e4:	01d00333          	add	t1,zero,t4
    52e8:	7ff00e93          	li	t4,2047
    52ec:	fb0ff06f          	j	4a9c <__subdf3+0x60>
    52f0:	fff00713          	li	a4,-1
    52f4:	0eee8663          	beq	t4,a4,53e0 <__subdf3+0x9a4>
    52f8:	7ff00713          	li	a4,2047
    52fc:	fffece93          	not	t4,t4
    5300:	eee312e3          	bne	t1,a4,51e4 <__subdf3+0x7a8>
    5304:	00c7e733          	or	a4,a5,a2
    5308:	e20716e3          	bnez	a4,5134 <__subdf3+0x6f8>
    530c:	4301                	c.li	t1,0
    530e:	b6b9                	c.j	4e5c <__subdf3+0x420>
    5310:	00a86533          	or	a0,a6,a0
    5314:	00a038b3          	snez	a7,a0
    5318:	f01ff06f          	j	5218 <__subdf3+0x7dc>
    531c:	01d858b3          	srl	a7,a6,t4
    5320:	000ed8db          	beqc	t4,32,5330 <__subdf3+0x8f4>
    5324:	41d00eb3          	neg	t4,t4
    5328:	01d81833          	sll	a6,a6,t4
    532c:	01056533          	or	a0,a0,a6
    5330:	00a03533          	snez	a0,a0
    5334:	011568b3          	or	a7,a0,a7
    5338:	a69ff06f          	j	4da0 <__subdf3+0x364>
    533c:	00a867b3          	or	a5,a6,a0
    5340:	e00786e3          	beqz	a5,514c <__subdf3+0x710>
    5344:	c19ff06f          	j	4f5c <__subdf3+0x520>
    5348:	40a608b3          	sub	a7,a2,a0
    534c:	410787b3          	sub	a5,a5,a6
    5350:	01163633          	sltu	a2,a2,a7
    5354:	8f91                	c.sub	a5,a2
    5356:	8f9a                	c.mv	t6,t1
    5358:	85b6                	c.mv	a1,a3
    535a:	4177f45b          	bbs	a5,23,5362 <__subdf3+0x926>
    535e:	a57ff06f          	j	4db4 <__subdf3+0x378>
    5362:	ba3d                	c.j	4ca0 <__subdf3+0x264>
    5364:	88b2                	c.mv	a7,a2
    5366:	b25d                	c.j	4d0c <__subdf3+0x2d0>
    5368:	4701                	c.li	a4,0
    536a:	bded                	c.j	5264 <__subdf3+0x828>
    536c:	883e                	c.mv	a6,a5
    536e:	8532                	c.mv	a0,a2
    5370:	85b6                	c.mv	a1,a3
    5372:	bdcd                	c.j	5264 <__subdf3+0x828>
    5374:	01d858b3          	srl	a7,a6,t4
    5378:	000ed8db          	beqc	t4,32,5388 <__subdf3+0x94c>
    537c:	41d00eb3          	neg	t4,t4
    5380:	01d81833          	sll	a6,a6,t4
    5384:	01056533          	or	a0,a0,a6
    5388:	00a03533          	snez	a0,a0
    538c:	011568b3          	or	a7,a0,a7
    5390:	e89ff06f          	j	5218 <__subdf3+0x7dc>
    5394:	883e                	c.mv	a6,a5
    5396:	8532                	c.mv	a0,a2
    5398:	00000313          	li	t1,0
    539c:	7ff00e93          	li	t4,2047
    53a0:	efcff06f          	j	4a9c <__subdf3+0x60>
    53a4:	06088063          	beqz	a7,5404 <__subdf3+0x9c8>
    53a8:	4168745b          	bbs	a6,22,53b0 <__subdf3+0x974>
    53ac:	01000e93          	li	t4,16
    53b0:	7ff00713          	li	a4,2047
    53b4:	ece31ae3          	bne	t1,a4,5288 <__subdf3+0x84c>
    53b8:	00c7e733          	or	a4,a5,a2
    53bc:	ec070ae3          	beqz	a4,5290 <__subdf3+0x854>
    53c0:	4167f45b          	bbs	a5,22,53c8 <__subdf3+0x98c>
    53c4:	01000e93          	li	t4,16
    53c8:	ca0882e3          	beqz	a7,506c <__subdf3+0x630>
    53cc:	01d00333          	add	t1,zero,t4
    53d0:	eecff06f          	j	4abc <__subdf3+0x80>
    53d4:	d0059ae3          	bnez	a1,50e8 <__subdf3+0x6ac>
    53d8:	4681                	c.li	a3,0
    53da:	4315                	c.li	t1,5
    53dc:	a81ff06f          	j	4e5c <__subdf3+0x420>
    53e0:	00c508b3          	add	a7,a0,a2
    53e4:	97c2                	c.add	a5,a6
    53e6:	00c8b633          	sltu	a2,a7,a2
    53ea:	97b2                	c.add	a5,a2
    53ec:	8f9a                	c.mv	t6,t1
    53ee:	bed9                	c.j	4fc4 <__subdf3+0x588>
    53f0:	00c7e733          	or	a4,a5,a2
    53f4:	f771                	c.bnez	a4,53c0 <__subdf3+0x984>
    53f6:	e8089de3          	bnez	a7,5290 <__subdf3+0x854>
    53fa:	b969                	c.j	5094 <__subdf3+0x658>
    53fc:	ce0696e3          	bnez	a3,50e8 <__subdf3+0x6ac>
    5400:	4315                	c.li	t1,5
    5402:	bca9                	c.j	4e5c <__subdf3+0x420>
    5404:	f9f318e3          	bne	t1,t6,5394 <__subdf3+0x958>
    5408:	00c7e733          	or	a4,a5,a2
    540c:	c80704e3          	beqz	a4,5094 <__subdf3+0x658>
    5410:	fb1ff06f          	j	53c0 <__subdf3+0x984>
    5414:	4301                	c.li	t1,0
    5416:	7fe00e13          	li	t3,2046
    541a:	4815                	c.li	a6,5
    541c:	58fd                	c.li	a7,-1
    541e:	57fd                	c.li	a5,-1
    5420:	a55ff06f          	j	4e74 <__subdf3+0x438>
    5424:	8546                	c.mv	a0,a7
    5426:	8ef2                	c.mv	t4,t3
    5428:	00f00833          	add	a6,zero,a5
    542c:	e70ff06f          	j	4a9c <__subdf3+0x60>
    5430:	00100313          	li	t1,1
    5434:	f48ff06f          	j	4b7c <__subdf3+0x140>
    5438:	00800737          	lui	a4,0x800
    543c:	869a                	c.mv	a3,t1
    543e:	8f7d                	c.and	a4,a5
    5440:	8376                	c.mv	t1,t4
    5442:	b4a9                	c.j	4e8c <__subdf3+0x450>

00005444 <__unorddf2>:
    5444:	002027f3          	frrm	a5
    5448:	001007b7          	lui	a5,0x100
    544c:	17fd                	c.addi	a5,-1
    544e:	7945a85b          	bfoz	a6,a1,30,20
    5452:	7ff00893          	li	a7,2047
    5456:	8dfd                	c.and	a1,a5
    5458:	872a                	c.mv	a4,a0
    545a:	8ff5                	c.and	a5,a3
    545c:	7946a6db          	bfoz	a3,a3,30,20
    5460:	03180663          	beq	a6,a7,548c <__unorddf2+0x48>
    5464:	7ff00893          	li	a7,2047
    5468:	00000513          	li	a0,0
    546c:	01168463          	beq	a3,a7,5474 <__unorddf2+0x30>
    5470:	00008067          	ret
    5474:	8e5d                	c.or	a2,a5
    5476:	de6d                	c.beqz	a2,5470 <__unorddf2+0x2c>
    5478:	02d80463          	beq	a6,a3,54a0 <__unorddf2+0x5c>
    547c:	00100513          	li	a0,1
    5480:	ff37f85b          	bbs	a5,19,5470 <__unorddf2+0x2c>
    5484:	00186073          	csrsi	fflags,16
    5488:	4505                	c.li	a0,1
    548a:	8082                	c.jr	ra
    548c:	8d4d                	c.or	a0,a1
    548e:	d979                	c.beqz	a0,5464 <__unorddf2+0x20>
    5490:	bf35fa5b          	bbc	a1,19,5484 <__unorddf2+0x40>
    5494:	4505                	c.li	a0,1
    5496:	fd069de3          	bne	a3,a6,5470 <__unorddf2+0x2c>
    549a:	8e5d                	c.or	a2,a5
    549c:	00c0006f          	j	54a8 <__unorddf2+0x64>
    54a0:	8f4d                	c.or	a4,a1
    54a2:	df69                	c.beqz	a4,547c <__unorddf2+0x38>
    54a4:	bf35f05b          	bbc	a1,19,5484 <__unorddf2+0x40>
    54a8:	4505                	c.li	a0,1
    54aa:	fa69                	c.bnez	a2,547c <__unorddf2+0x38>
    54ac:	8082                	c.jr	ra
	...

000054b0 <__fixdfsi>:
    54b0:	002027f3          	frrm	a5
    54b4:	3fe00793          	li	a5,1022
    54b8:	7945a6db          	bfoz	a3,a1,30,20
    54bc:	4c05a65b          	bfoz	a2,a1,19,0
    54c0:	872a                	c.mv	a4,a0
    54c2:	81fd                	c.srli	a1,0x1f
    54c4:	00d7cc63          	blt	a5,a3,54dc <__fixdfsi+0x2c>
    54c8:	e681                	c.bnez	a3,54d0 <__fixdfsi+0x20>
    54ca:	8d51                	c.or	a0,a2
    54cc:	0a050263          	beqz	a0,5570 <__fixdfsi+0xc0>
    54d0:	4501                	c.li	a0,0
    54d2:	4805                	c.li	a6,1
    54d4:	00182073          	csrs	fflags,a6
    54d8:	00008067          	ret
    54dc:	41d00793          	li	a5,1053
    54e0:	02d7d663          	bge	a5,a3,550c <__fixdfsi+0x5c>
    54e4:	800007b7          	lui	a5,0x80000
    54e8:	fff7c793          	not	a5,a5
    54ec:	00f58533          	add	a0,a1,a5
    54f0:	c1b5                	c.beqz	a1,5554 <__fixdfsi+0xa4>
    54f2:	41e00793          	li	a5,1054
    54f6:	4841                	c.li	a6,16
    54f8:	fcf69ee3          	bne	a3,a5,54d4 <__fixdfsi+0x24>
    54fc:	062e                	c.slli	a2,0xb
    54fe:	01575793          	srli	a5,a4,0x15
    5502:	8e5d                	c.or	a2,a5
    5504:	fa61                	c.bnez	a2,54d4 <__fixdfsi+0x24>
    5506:	072e                	c.slli	a4,0xb
    5508:	e735                	c.bnez	a4,5574 <__fixdfsi+0xc4>
    550a:	8082                	c.jr	ra
    550c:	43300513          	li	a0,1075
    5510:	40d508b3          	sub	a7,a0,a3
    5514:	487d                	c.li	a6,31
    5516:	00100537          	lui	a0,0x100
    551a:	8d51                	c.or	a0,a2
    551c:	03185e63          	bge	a6,a7,5558 <__fixdfsi+0xa8>
    5520:	0008d8db          	beqc	a7,32,5530 <__fixdfsi+0x80>
    5524:	c0d68793          	addi	a5,a3,-1011
    5528:	00f517b3          	sll	a5,a0,a5
    552c:	00f76733          	or	a4,a4,a5
    5530:	41300793          	li	a5,1043
    5534:	40d787b3          	sub	a5,a5,a3
    5538:	00e03833          	snez	a6,a4
    553c:	00f55533          	srl	a0,a0,a5
    5540:	00058463          	beqz	a1,5548 <__fixdfsi+0x98>
    5544:	40a00533          	neg	a0,a0
    5548:	f80808e3          	beqz	a6,54d8 <__fixdfsi+0x28>
    554c:	00182073          	csrs	fflags,a6
    5550:	f89ff06f          	j	54d8 <__fixdfsi+0x28>
    5554:	4841                	c.li	a6,16
    5556:	bfbd                	c.j	54d4 <__fixdfsi+0x24>
    5558:	bed68793          	addi	a5,a3,-1043
    555c:	00f71833          	sll	a6,a4,a5
    5560:	00f517b3          	sll	a5,a0,a5
    5564:	01175533          	srl	a0,a4,a7
    5568:	01003833          	snez	a6,a6
    556c:	8d5d                	c.or	a0,a5
    556e:	bfc9                	c.j	5540 <__fixdfsi+0x90>
    5570:	00008067          	ret
    5574:	4805                	c.li	a6,1
    5576:	bfb9                	c.j	54d4 <__fixdfsi+0x24>

00005578 <__floatsidf>:
    5578:	c925                	c.beqz	a0,55e8 <__floatsidf+0x70>
    557a:	40a007b3          	neg	a5,a0
    557e:	01f55613          	srli	a2,a0,0x1f
    5582:	f2f5057f          	maxw	a0,a0,a5
    5586:	af95077f          	clz32	a4,a0
    558a:	41e00793          	li	a5,1054
    558e:	8f99                	c.sub	a5,a4
    5590:	46a9                	c.li	a3,10
    5592:	7ff7f793          	andi	a5,a5,2047
    5596:	02e6df63          	bge	a3,a4,55d4 <__floatsidf+0x5c>
    559a:	1755                	c.addi	a4,-11
    559c:	00e516b3          	sll	a3,a0,a4
    55a0:	4c06a6db          	bfoz	a3,a3,19,0
    55a4:	00000713          	li	a4,0
    55a8:	4581                	c.li	a1,0
    55aa:	853a                	c.mv	a0,a4
    55ac:	fff00737          	lui	a4,0xfff00
    55b0:	8f6d                	c.and	a4,a1
    55b2:	4c06a6db          	bfoz	a3,a3,19,0
    55b6:	8ed9                	c.or	a3,a4
    55b8:	01479713          	slli	a4,a5,0x14
    55bc:	801007b7          	lui	a5,0x80100
    55c0:	17fd                	c.addi	a5,-1
    55c2:	8ff5                	c.and	a5,a3
    55c4:	8fd9                	c.or	a5,a4
    55c6:	7807a7db          	bfoz	a5,a5,30,0
    55ca:	01f61713          	slli	a4,a2,0x1f
    55ce:	00e7e5b3          	or	a1,a5,a4
    55d2:	8082                	c.jr	ra
    55d4:	46ad                	c.li	a3,11
    55d6:	8e99                	c.sub	a3,a4
    55d8:	00d556b3          	srl	a3,a0,a3
    55dc:	0755                	c.addi	a4,21
    55de:	00e51733          	sll	a4,a0,a4
    55e2:	4c06a6db          	bfoz	a3,a3,19,0
    55e6:	b7c9                	c.j	55a8 <__floatsidf+0x30>
    55e8:	4601                	c.li	a2,0
    55ea:	4781                	c.li	a5,0
    55ec:	4681                	c.li	a3,0
    55ee:	4701                	c.li	a4,0
    55f0:	bf65                	c.j	55a8 <__floatsidf+0x30>
	...

000055f4 <__extendsfdf2>:
    55f4:	e0050753          	fmv.x.w	a4,fa0
    55f8:	002027f3          	frrm	a5
    55fc:	797727db          	bfoz	a5,a4,30,23
    5600:	00178593          	addi	a1,a5,1 # 80100001 <_DATA_LMA_START+0x600f9631>
    5604:	0ff5f593          	andi	a1,a1,255
    5608:	4505                	c.li	a0,1
    560a:	580726db          	bfoz	a3,a4,22,0
    560e:	01f75613          	srli	a2,a4,0x1f
    5612:	02b55d63          	bge	a0,a1,564c <__extendsfdf2+0x58>
    5616:	0036d713          	srli	a4,a3,0x3
    561a:	38078793          	addi	a5,a5,896
    561e:	06f6                	c.slli	a3,0x1d
    5620:	4581                	c.li	a1,0
    5622:	8536                	c.mv	a0,a3
    5624:	fff006b7          	lui	a3,0xfff00
    5628:	8eed                	c.and	a3,a1
    562a:	4c07275b          	bfoz	a4,a4,19,0
    562e:	8ed9                	c.or	a3,a4
    5630:	51e7a75b          	bfoz	a4,a5,20,30
    5634:	801007b7          	lui	a5,0x80100
    5638:	17fd                	c.addi	a5,-1
    563a:	8ff5                	c.and	a5,a3
    563c:	8fd9                	c.or	a5,a4
    563e:	7807a7db          	bfoz	a5,a5,30,0
    5642:	01f61713          	slli	a4,a2,0x1f
    5646:	00e7e5b3          	or	a1,a5,a4
    564a:	8082                	c.jr	ra
    564c:	e785                	c.bnez	a5,5674 <__extendsfdf2+0x80>
    564e:	cabd                	c.beqz	a3,56c4 <__extendsfdf2+0xd0>
    5650:	af9685ff          	clz32	a1,a3
    5654:	47a9                	c.li	a5,10
    5656:	06b7db63          	bge	a5,a1,56cc <__extendsfdf2+0xd8>
    565a:	ff558713          	addi	a4,a1,-11 # 7ff7fff5 <_DATA_LMA_START+0x5ff79625>
    565e:	00e69733          	sll	a4,a3,a4
    5662:	4681                	c.li	a3,0
    5664:	38900793          	li	a5,905
    5668:	8f8d                	c.sub	a5,a1
    566a:	4c07275b          	bfoz	a4,a4,19,0
    566e:	7ff7f793          	andi	a5,a5,2047
    5672:	b77d                	c.j	5620 <__extendsfdf2+0x2c>
    5674:	c6a1                	c.beqz	a3,56bc <__extendsfdf2+0xc8>
    5676:	00080737          	lui	a4,0x80
    567a:	0036d793          	srli	a5,a3,0x3
    567e:	00100837          	lui	a6,0x100
    5682:	8fd9                	c.or	a5,a4
    5684:	187d                	c.addi	a6,-1
    5686:	01d69713          	slli	a4,a3,0x1d
    568a:	0107f7b3          	and	a5,a5,a6
    568e:	4566f95b          	bbs	a3,22,56e0 <__extendsfdf2+0xec>
    5692:	4581                	c.li	a1,0
    5694:	853a                	c.mv	a0,a4
    5696:	fff00737          	lui	a4,0xfff00
    569a:	8f6d                	c.and	a4,a1
    569c:	0107f7b3          	and	a5,a5,a6
    56a0:	8fd9                	c.or	a5,a4
    56a2:	7ff006b7          	lui	a3,0x7ff00
    56a6:	8edd                	c.or	a3,a5
    56a8:	01f61713          	slli	a4,a2,0x1f
    56ac:	7806a6db          	bfoz	a3,a3,30,0
    56b0:	00e6e5b3          	or	a1,a3,a4
    56b4:	00186073          	csrsi	fflags,16
    56b8:	00008067          	ret
    56bc:	7ff00793          	li	a5,2047
    56c0:	4701                	c.li	a4,0
    56c2:	bfb9                	c.j	5620 <__extendsfdf2+0x2c>
    56c4:	4781                	c.li	a5,0
    56c6:	4701                	c.li	a4,0
    56c8:	f59ff06f          	j	5620 <__extendsfdf2+0x2c>
    56cc:	472d                	c.li	a4,11
    56ce:	8f0d                	c.sub	a4,a1
    56d0:	01558793          	addi	a5,a1,21
    56d4:	00e6d733          	srl	a4,a3,a4
    56d8:	00f696b3          	sll	a3,a3,a5
    56dc:	f89ff06f          	j	5664 <__extendsfdf2+0x70>
    56e0:	4581                	c.li	a1,0
    56e2:	853a                	c.mv	a0,a4
    56e4:	fff00737          	lui	a4,0xfff00
    56e8:	8f6d                	c.and	a4,a1
    56ea:	0107f7b3          	and	a5,a5,a6
    56ee:	8fd9                	c.or	a5,a4
    56f0:	7ff006b7          	lui	a3,0x7ff00
    56f4:	8edd                	c.or	a3,a5
    56f6:	01f61713          	slli	a4,a2,0x1f
    56fa:	7806a6db          	bfoz	a3,a3,30,0
    56fe:	00e6e5b3          	or	a1,a3,a4
    5702:	8082                	c.jr	ra

00005704 <__truncdfsf2>:
    5704:	00202873          	frrm	a6
    5708:	7945a65b          	bfoz	a2,a1,30,20
    570c:	00160693          	addi	a3,a2,1 # fff00001 <_DATA_LMA_START+0xdfef9631>
    5710:	0d65a8db          	bfoz	a7,a1,3,22
    5714:	01d55713          	srli	a4,a0,0x1d
    5718:	7ff6f693          	andi	a3,a3,2047
    571c:	4785                	c.li	a5,1
    571e:	01176733          	or	a4,a4,a7
    5722:	81fd                	c.srli	a1,0x1f
    5724:	00351893          	slli	a7,a0,0x3
    5728:	0cd7da63          	bge	a5,a3,57fc <__truncdfsf2+0xf8>
    572c:	c8060693          	addi	a3,a2,-896
    5730:	0fe00793          	li	a5,254
    5734:	06d7c863          	blt	a5,a3,57a4 <__truncdfsf2+0xa0>
    5738:	10d05e63          	blez	a3,5854 <__truncdfsf2+0x150>
    573c:	051a                	c.slli	a0,0x6
    573e:	00a03533          	snez	a0,a0
    5742:	070e                	c.slli	a4,0x3
    5744:	8f49                	c.or	a4,a0
    5746:	01d8d893          	srli	a7,a7,0x1d
    574a:	01176733          	or	a4,a4,a7
    574e:	00777613          	andi	a2,a4,7
    5752:	4781                	c.li	a5,0
    5754:	4501                	c.li	a0,0
    5756:	ca49                	c.beqz	a2,57e8 <__truncdfsf2+0xe4>
    5758:	1628505b          	beqc	a6,2,58b8 <__truncdfsf2+0x1b4>
    575c:	0838525b          	beqc	a6,3,57e0 <__truncdfsf2+0xdc>
    5760:	14080463          	beqz	a6,58a8 <__truncdfsf2+0x1a4>
    5764:	04000637          	lui	a2,0x4000
    5768:	00e67633          	and	a2,a2,a4
    576c:	28078863          	beqz	a5,59fc <__truncdfsf2+0x2f8>
    5770:	0027e513          	ori	a0,a5,2
    5774:	26060663          	beqz	a2,59e0 <__truncdfsf2+0x2dc>
    5778:	00168693          	addi	a3,a3,1 # 7ff00001 <_DATA_LMA_START+0x5fef9631>
    577c:	0ff00613          	li	a2,255
    5780:	6437275b          	bfoz	a4,a4,25,3
    5784:	0ff6f793          	andi	a5,a3,255
    5788:	0ac68a63          	beq	a3,a2,583c <__truncdfsf2+0x138>
    578c:	07de                	c.slli	a5,0x17
    578e:	5807275b          	bfoz	a4,a4,22,0
    5792:	05fe                	c.slli	a1,0x1f
    5794:	8fd9                	c.or	a5,a4
    5796:	8fcd                	c.or	a5,a1
    5798:	02051e63          	bnez	a0,57d4 <__truncdfsf2+0xd0>
    579c:	f0078553          	fmv.w.x	fa0,a5
    57a0:	00008067          	ret
    57a4:	16080c63          	beqz	a6,591c <__truncdfsf2+0x218>
    57a8:	1638545b          	beqc	a6,3,5910 <__truncdfsf2+0x20c>
    57ac:	1e285a5b          	beqc	a6,2,59a0 <__truncdfsf2+0x29c>
    57b0:	00500513          	li	a0,5
    57b4:	16080a63          	beqz	a6,5928 <__truncdfsf2+0x224>
    57b8:	1e385a5b          	beqc	a6,3,59ac <__truncdfsf2+0x2a8>
    57bc:	1a285e5b          	beqc	a6,2,5978 <__truncdfsf2+0x274>
    57c0:	00800737          	lui	a4,0x800
    57c4:	7f0007b7          	lui	a5,0x7f000
    57c8:	177d                	c.addi	a4,-1
    57ca:	8f5d                	c.or	a4,a5
    57cc:	05fe                	c.slli	a1,0x1f
    57ce:	780727db          	bfoz	a5,a4,30,0
    57d2:	8fcd                	c.or	a5,a1
    57d4:	00152073          	csrs	fflags,a0
    57d8:	f0078553          	fmv.w.x	fa0,a5
    57dc:	00008067          	ret
    57e0:	4505                	c.li	a0,1
    57e2:	e199                	c.bnez	a1,57e8 <__truncdfsf2+0xe4>
    57e4:	00870713          	addi	a4,a4,8 # 800008 <FLASH_SIZE+0x700008>
    57e8:	04000637          	lui	a2,0x4000
    57ec:	8e79                	c.and	a2,a4
    57ee:	d3d9                	c.beqz	a5,5774 <__truncdfsf2+0x70>
    57f0:	b805725b          	bbc	a0,0,5774 <__truncdfsf2+0x70>
    57f4:	87aa                	c.mv	a5,a0
    57f6:	0027e513          	ori	a0,a5,2
    57fa:	bfad                	c.j	5774 <__truncdfsf2+0x70>
    57fc:	011768b3          	or	a7,a4,a7
    5800:	e615                	c.bnez	a2,582c <__truncdfsf2+0x128>
    5802:	01f59793          	slli	a5,a1,0x1f
    5806:	f8088be3          	beqz	a7,579c <__truncdfsf2+0x98>
    580a:	1828535b          	beqc	a6,2,5990 <__truncdfsf2+0x28c>
    580e:	1238555b          	beqc	a6,3,5938 <__truncdfsf2+0x234>
    5812:	4705                	c.li	a4,1
    5814:	4789                	c.li	a5,2
    5816:	4605                	c.li	a2,1
    5818:	1a080463          	beqz	a6,59c0 <__truncdfsf2+0x2bc>
    581c:	83ed                	c.srli	a5,0x1b
    581e:	0017c793          	xori	a5,a5,1
    5822:	8b85                	c.andi	a5,1
    5824:	4505                	c.li	a0,1
    5826:	4681                	c.li	a3,0
    5828:	fa05                	c.bnez	a2,5758 <__truncdfsf2+0x54>
    582a:	bf7d                	c.j	57e8 <__truncdfsf2+0xe4>
    582c:	08089a63          	bnez	a7,58c0 <__truncdfsf2+0x1bc>
    5830:	05fe                	c.slli	a1,0x1f
    5832:	7f8007b7          	lui	a5,0x7f800
    5836:	8fcd                	c.or	a5,a1
    5838:	f65ff06f          	j	579c <__truncdfsf2+0x98>
    583c:	00556513          	ori	a0,a0,5
    5840:	f6081ce3          	bnez	a6,57b8 <__truncdfsf2+0xb4>
    5844:	05fe                	c.slli	a1,0x1f
    5846:	7f8007b7          	lui	a5,0x7f800
    584a:	8fcd                	c.or	a5,a1
    584c:	00152073          	csrs	fflags,a0
    5850:	f89ff06f          	j	57d8 <__truncdfsf2+0xd4>
    5854:	57a5                	c.li	a5,-23
    5856:	0af6c363          	blt	a3,a5,58fc <__truncdfsf2+0x1f8>
    585a:	4579                	c.li	a0,30
    585c:	008007b7          	lui	a5,0x800
    5860:	8d15                	c.sub	a0,a3
    5862:	437d                	c.li	t1,31
    5864:	8fd9                	c.or	a5,a4
    5866:	0ea34163          	blt	t1,a0,5948 <__truncdfsf2+0x244>
    586a:	c8260613          	addi	a2,a2,-894 # 3fffc82 <FLASH_SIZE+0x3effc82>
    586e:	00c89733          	sll	a4,a7,a2
    5872:	00e03733          	snez	a4,a4
    5876:	00c797b3          	sll	a5,a5,a2
    587a:	00a8d8b3          	srl	a7,a7,a0
    587e:	8f5d                	c.or	a4,a5
    5880:	00e8e733          	or	a4,a7,a4
    5884:	01f59793          	slli	a5,a1,0x1f
    5888:	db11                	c.beqz	a4,579c <__truncdfsf2+0x98>
    588a:	00171793          	slli	a5,a4,0x1
    588e:	0077f693          	andi	a3,a5,7
    5892:	00777613          	andi	a2,a4,7
    5896:	14069763          	bnez	a3,59e4 <__truncdfsf2+0x2e0>
    589a:	83ed                	c.srli	a5,0x1b
    589c:	0017c793          	xori	a5,a5,1
    58a0:	8b85                	c.andi	a5,1
    58a2:	4501                	c.li	a0,0
    58a4:	4681                	c.li	a3,0
    58a6:	b749                	c.j	5828 <__truncdfsf2+0x124>
    58a8:	00f77613          	andi	a2,a4,15
    58ac:	aa465c5b          	beqc	a2,4,5764 <__truncdfsf2+0x60>
    58b0:	00100513          	li	a0,1
    58b4:	0711                	c.addi	a4,4
    58b6:	bf0d                	c.j	57e8 <__truncdfsf2+0xe4>
    58b8:	4505                	c.li	a0,1
    58ba:	d59d                	c.beqz	a1,57e8 <__truncdfsf2+0xe4>
    58bc:	0721                	c.addi	a4,8
    58be:	b72d                	c.j	57e8 <__truncdfsf2+0xe4>
    58c0:	7ff00793          	li	a5,2047
    58c4:	4501                	c.li	a0,0
    58c6:	00f61963          	bne	a2,a5,58d8 <__truncdfsf2+0x1d4>
    58ca:	00400537          	lui	a0,0x400
    58ce:	8d79                	c.and	a0,a4
    58d0:	00153513          	seqz	a0,a0
    58d4:	00451513          	slli	a0,a0,0x4
    58d8:	070e                	c.slli	a4,0x3
    58da:	020007b7          	lui	a5,0x2000
    58de:	8f5d                	c.or	a4,a5
    58e0:	0ff00693          	li	a3,255
    58e4:	0ff00793          	li	a5,255
    58e8:	00375713          	srli	a4,a4,0x3
    58ec:	08f68a63          	beq	a3,a5,5980 <__truncdfsf2+0x27c>
    58f0:	5807275b          	bfoz	a4,a4,22,0
    58f4:	0ff6f793          	andi	a5,a3,255
    58f8:	e95ff06f          	j	578c <__truncdfsf2+0x88>
    58fc:	08285a5b          	beqc	a6,2,5990 <__truncdfsf2+0x28c>
    5900:	02385c5b          	beqc	a6,3,5938 <__truncdfsf2+0x234>
    5904:	0a080863          	beqz	a6,59b4 <__truncdfsf2+0x2b0>
    5908:	4705                	c.li	a4,1
    590a:	4681                	c.li	a3,0
    590c:	4785                	c.li	a5,1
    590e:	b5a9                	c.j	5758 <__truncdfsf2+0x54>
    5910:	edb1                	c.bnez	a1,596c <__truncdfsf2+0x268>
    5912:	7f8007b7          	lui	a5,0x7f800
    5916:	4515                	c.li	a0,5
    5918:	ebdff06f          	j	57d4 <__truncdfsf2+0xd0>
    591c:	05fe                	c.slli	a1,0x1f
    591e:	7f8007b7          	lui	a5,0x7f800
    5922:	8fcd                	c.or	a5,a1
    5924:	4515                	c.li	a0,5
    5926:	b57d                	c.j	57d4 <__truncdfsf2+0xd0>
    5928:	577d                	c.li	a4,-1
    592a:	4781                	c.li	a5,0
    592c:	4515                	c.li	a0,5
    592e:	0fe00693          	li	a3,254
    5932:	0711                	c.addi	a4,4
    5934:	eb5ff06f          	j	57e8 <__truncdfsf2+0xe4>
    5938:	4605                	c.li	a2,1
    593a:	4705                	c.li	a4,1
    593c:	00200793          	li	a5,2
    5940:	ec059ee3          	bnez	a1,581c <__truncdfsf2+0x118>
    5944:	07a1                	c.addi	a5,8
    5946:	bdd9                	c.j	581c <__truncdfsf2+0x118>
    5948:	5779                	c.li	a4,-2
    594a:	8f15                	c.sub	a4,a3
    594c:	00e7d733          	srl	a4,a5,a4
    5950:	000558db          	beqc	a0,32,5960 <__truncdfsf2+0x25c>
    5954:	ca260613          	addi	a2,a2,-862
    5958:	00c797b3          	sll	a5,a5,a2
    595c:	00f8e8b3          	or	a7,a7,a5
    5960:	011038b3          	snez	a7,a7
    5964:	00e8e733          	or	a4,a7,a4
    5968:	f1dff06f          	j	5884 <__truncdfsf2+0x180>
    596c:	577d                	c.li	a4,-1
    596e:	0fe00693          	li	a3,254
    5972:	4515                	c.li	a0,5
    5974:	e05ff06f          	j	5778 <__truncdfsf2+0x74>
    5978:	e40584e3          	beqz	a1,57c0 <__truncdfsf2+0xbc>
    597c:	4585                	c.li	a1,1
    597e:	b5d9                	c.j	5844 <__truncdfsf2+0x140>
    5980:	cf21                	c.beqz	a4,59d8 <__truncdfsf2+0x2d4>
    5982:	4581                	c.li	a1,0
    5984:	0ff00793          	li	a5,255
    5988:	00400737          	lui	a4,0x400
    598c:	e01ff06f          	j	578c <__truncdfsf2+0x88>
    5990:	4605                	c.li	a2,1
    5992:	4705                	c.li	a4,1
    5994:	00200793          	li	a5,2
    5998:	e80582e3          	beqz	a1,581c <__truncdfsf2+0x118>
    599c:	07a1                	c.addi	a5,8
    599e:	bdbd                	c.j	581c <__truncdfsf2+0x118>
    59a0:	d5f1                	c.beqz	a1,596c <__truncdfsf2+0x268>
    59a2:	ff8007b7          	lui	a5,0xff800
    59a6:	4515                	c.li	a0,5
    59a8:	e2dff06f          	j	57d4 <__truncdfsf2+0xd0>
    59ac:	e8058ce3          	beqz	a1,5844 <__truncdfsf2+0x140>
    59b0:	e11ff06f          	j	57c0 <__truncdfsf2+0xbc>
    59b4:	4785                	c.li	a5,1
    59b6:	4681                	c.li	a3,0
    59b8:	4705                	c.li	a4,1
    59ba:	4505                	c.li	a0,1
    59bc:	ef9ff06f          	j	58b4 <__truncdfsf2+0x1b0>
    59c0:	4705                	c.li	a4,1
    59c2:	4789                	c.li	a5,2
    59c4:	00100613          	li	a2,1
    59c8:	0791                	c.addi	a5,4
    59ca:	83ed                	c.srli	a5,0x1b
    59cc:	0017c793          	xori	a5,a5,1
    59d0:	8b85                	c.andi	a5,1
    59d2:	4505                	c.li	a0,1
    59d4:	4681                	c.li	a3,0
    59d6:	bd89                	c.j	5828 <__truncdfsf2+0x124>
    59d8:	0ff00793          	li	a5,255
    59dc:	4701                	c.li	a4,0
    59de:	b37d                	c.j	578c <__truncdfsf2+0x88>
    59e0:	830d                	c.srli	a4,0x3
    59e2:	b739                	c.j	58f0 <__truncdfsf2+0x1ec>
    59e4:	ba285a5b          	beqc	a6,2,5998 <__truncdfsf2+0x294>
    59e8:	b4385c5b          	beqc	a6,3,5940 <__truncdfsf2+0x23c>
    59ec:	e20818e3          	bnez	a6,581c <__truncdfsf2+0x118>
    59f0:	00f7f693          	andi	a3,a5,15
    59f4:	a246d45b          	beqc	a3,4,581c <__truncdfsf2+0x118>
    59f8:	fd1ff06f          	j	59c8 <__truncdfsf2+0x2c4>
    59fc:	4505                	c.li	a0,1
    59fe:	d6061de3          	bnez	a2,5778 <__truncdfsf2+0x74>
    5a02:	b5cd                	c.j	58e4 <__truncdfsf2+0x1e0>

00005a04 <__riscv_save_12>:
    5a04:	7139                	c.addi16sp	sp,-64
    5a06:	4301                	c.li	t1,0
    5a08:	c66e                	c.swsp	s11,12(sp)
    5a0a:	a019                	c.j	5a10 <__riscv_save_10+0x4>

00005a0c <__riscv_save_10>:
    5a0c:	7139                	c.addi16sp	sp,-64
    5a0e:	5341                	c.li	t1,-16
    5a10:	c86a                	c.swsp	s10,16(sp)
    5a12:	ca66                	c.swsp	s9,20(sp)
    5a14:	cc62                	c.swsp	s8,24(sp)
    5a16:	ce5e                	c.swsp	s7,28(sp)
    5a18:	a019                	c.j	5a1e <__riscv_save_4+0x4>

00005a1a <__riscv_save_4>:
    5a1a:	7139                	c.addi16sp	sp,-64
    5a1c:	5301                	c.li	t1,-32
    5a1e:	d05a                	c.swsp	s6,32(sp)
    5a20:	d256                	c.swsp	s5,36(sp)
    5a22:	d452                	c.swsp	s4,40(sp)
    5a24:	d64e                	c.swsp	s3,44(sp)
    5a26:	d84a                	c.swsp	s2,48(sp)
    5a28:	da26                	c.swsp	s1,52(sp)
    5a2a:	dc22                	c.swsp	s0,56(sp)
    5a2c:	de06                	c.swsp	ra,60(sp)
    5a2e:	40610133          	sub	sp,sp,t1
    5a32:	8282                	c.jr	t0

00005a34 <__riscv_save_0>:
    5a34:	1141                	c.addi	sp,-16
    5a36:	c04a                	c.swsp	s2,0(sp)
    5a38:	c226                	c.swsp	s1,4(sp)
    5a3a:	c422                	c.swsp	s0,8(sp)
    5a3c:	c606                	c.swsp	ra,12(sp)
    5a3e:	8282                	c.jr	t0

00005a40 <__riscv_restore_12>:
    5a40:	4db2                	c.lwsp	s11,12(sp)
    5a42:	0141                	c.addi	sp,16

00005a44 <__riscv_restore_10>:
    5a44:	4d02                	c.lwsp	s10,0(sp)
    5a46:	4c92                	c.lwsp	s9,4(sp)
    5a48:	4c22                	c.lwsp	s8,8(sp)
    5a4a:	4bb2                	c.lwsp	s7,12(sp)
    5a4c:	0141                	c.addi	sp,16

00005a4e <__riscv_restore_4>:
    5a4e:	4b02                	c.lwsp	s6,0(sp)
    5a50:	4a92                	c.lwsp	s5,4(sp)
    5a52:	4a22                	c.lwsp	s4,8(sp)
    5a54:	49b2                	c.lwsp	s3,12(sp)
    5a56:	0141                	c.addi	sp,16

00005a58 <__riscv_restore_0>:
    5a58:	4902                	c.lwsp	s2,0(sp)
    5a5a:	4492                	c.lwsp	s1,4(sp)
    5a5c:	4422                	c.lwsp	s0,8(sp)
    5a5e:	40b2                	c.lwsp	ra,12(sp)
    5a60:	0141                	c.addi	sp,16
    5a62:	8082                	c.jr	ra

00005a64 <malloc>:
    5a64:	85aa                	c.mv	a1,a0
    5a66:	0442252b          	lwgp	a0,4164 # 81844 <_impure_ptr>
    5a6a:	a231                	c.j	5b76 <_malloc_r>

00005a6c <free>:
    5a6c:	85aa                	c.mv	a1,a0
    5a6e:	0442252b          	lwgp	a0,4164 # 81844 <_impure_ptr>
    5a72:	a895                	c.j	5ae6 <_free_r>

00005a74 <memcpy>:
    5a74:	c63d                	c.beqz	a2,5ae2 <memcpy+0x6e>
    5a76:	82aa                	c.mv	t0,a0
    5a78:	83b2                	c.mv	t2,a2
    5a7a:	fe03f313          	andi	t1,t2,-32
    5a7e:	9316                	c.add	t1,t0
    5a80:	02655863          	bge	a0,t1,5ab0 <memcpy+0x3c>
    5a84:	4190                	c.lw	a2,0(a1)
    5a86:	41d4                	c.lw	a3,4(a1)
    5a88:	4598                	c.lw	a4,8(a1)
    5a8a:	45dc                	c.lw	a5,12(a1)
    5a8c:	c110                	c.sw	a2,0(a0)
    5a8e:	c154                	c.sw	a3,4(a0)
    5a90:	c518                	c.sw	a4,8(a0)
    5a92:	c55c                	c.sw	a5,12(a0)
    5a94:	4990                	c.lw	a2,16(a1)
    5a96:	49d4                	c.lw	a3,20(a1)
    5a98:	4d98                	c.lw	a4,24(a1)
    5a9a:	4ddc                	c.lw	a5,28(a1)
    5a9c:	c910                	c.sw	a2,16(a0)
    5a9e:	c954                	c.sw	a3,20(a0)
    5aa0:	cd18                	c.sw	a4,24(a0)
    5aa2:	cd5c                	c.sw	a5,28(a0)
    5aa4:	02058593          	addi	a1,a1,32
    5aa8:	02050513          	addi	a0,a0,32 # 400020 <FLASH_SIZE+0x300020>
    5aac:	fc654ce3          	blt	a0,t1,5a84 <memcpy+0x10>
    5ab0:	ffc3f313          	andi	t1,t2,-4
    5ab4:	00530333          	add	t1,t1,t0
    5ab8:	00655863          	bge	a0,t1,5ac8 <memcpy+0x54>
    5abc:	4190                	c.lw	a2,0(a1)
    5abe:	0591                	c.addi	a1,4
    5ac0:	c110                	c.sw	a2,0(a0)
    5ac2:	0511                	c.addi	a0,4
    5ac4:	fe654ce3          	blt	a0,t1,5abc <memcpy+0x48>
    5ac8:	00728333          	add	t1,t0,t2
    5acc:	00655a63          	bge	a0,t1,5ae0 <memcpy+0x6c>
    5ad0:	0005c603          	lbu	a2,0(a1)
    5ad4:	0585                	c.addi	a1,1
    5ad6:	00c50023          	sb	a2,0(a0)
    5ada:	0505                	c.addi	a0,1
    5adc:	fe654ae3          	blt	a0,t1,5ad0 <memcpy+0x5c>
    5ae0:	8516                	c.mv	a0,t0
    5ae2:	8082                	c.jr	ra
    5ae4:	0001                	c.nop

00005ae6 <_free_r>:
    5ae6:	c5b5                	c.beqz	a1,5b52 <_free_r+0x6c>
    5ae8:	ffc5a703          	lw	a4,-4(a1)
    5aec:	ffc58793          	addi	a5,a1,-4
    5af0:	00075363          	bgez	a4,5af6 <_free_r+0x10>
    5af4:	97ba                	c.add	a5,a4
    5af6:	06c2272b          	lwgp	a4,4204 # 8186c <__malloc_free_list>
    5afa:	85b6                	c.mv	a1,a3
    5afc:	e711                	c.bnez	a4,5b08 <_free_r+0x22>
    5afe:	0007a223          	sw	zero,4(a5) # ff800004 <_DATA_LMA_START+0xdf7f9634>
    5b02:	06f2462b          	swgp	a5,4204 # 8186c <__malloc_free_list>
    5b06:	8082                	c.jr	ra
    5b08:	00e7ff63          	bgeu	a5,a4,5b26 <_free_r+0x40>
    5b0c:	4390                	c.lw	a2,0(a5)
    5b0e:	00c786b3          	add	a3,a5,a2
    5b12:	00d71663          	bne	a4,a3,5b1e <_free_r+0x38>
    5b16:	4314                	c.lw	a3,0(a4)
    5b18:	4358                	c.lw	a4,4(a4)
    5b1a:	96b2                	c.add	a3,a2
    5b1c:	c394                	c.sw	a3,0(a5)
    5b1e:	c3d8                	c.sw	a4,4(a5)
    5b20:	06f2462b          	swgp	a5,4204 # 8186c <__malloc_free_list>
    5b24:	8082                	c.jr	ra
    5b26:	86ba                	c.mv	a3,a4
    5b28:	4358                	c.lw	a4,4(a4)
    5b2a:	c319                	c.beqz	a4,5b30 <_free_r+0x4a>
    5b2c:	fee7fde3          	bgeu	a5,a4,5b26 <_free_r+0x40>
    5b30:	4290                	c.lw	a2,0(a3)
    5b32:	00c685b3          	add	a1,a3,a2
    5b36:	00f59f63          	bne	a1,a5,5b54 <_free_r+0x6e>
    5b3a:	439c                	c.lw	a5,0(a5)
    5b3c:	97b2                	c.add	a5,a2
    5b3e:	00f68633          	add	a2,a3,a5
    5b42:	c29c                	c.sw	a5,0(a3)
    5b44:	00c71763          	bne	a4,a2,5b52 <_free_r+0x6c>
    5b48:	4310                	c.lw	a2,0(a4)
    5b4a:	97b2                	c.add	a5,a2
    5b4c:	c29c                	c.sw	a5,0(a3)
    5b4e:	435c                	c.lw	a5,4(a4)
    5b50:	c2dc                	c.sw	a5,4(a3)
    5b52:	8082                	c.jr	ra
    5b54:	00b7f663          	bgeu	a5,a1,5b60 <_free_r+0x7a>
    5b58:	4731                	c.li	a4,12
    5b5a:	06e2422b          	swgp	a4,4196 # 81864 <__mculib_REENT_errno>
    5b5e:	8082                	c.jr	ra
    5b60:	438c                	c.lw	a1,0(a5)
    5b62:	00b78633          	add	a2,a5,a1
    5b66:	00c71663          	bne	a4,a2,5b72 <_free_r+0x8c>
    5b6a:	4310                	c.lw	a2,0(a4)
    5b6c:	4358                	c.lw	a4,4(a4)
    5b6e:	962e                	c.add	a2,a1
    5b70:	c390                	c.sw	a2,0(a5)
    5b72:	c3d8                	c.sw	a4,4(a5)
    5b74:	bff1                	c.j	5b50 <_free_r+0x6a>

00005b76 <_malloc_r>:
    5b76:	ebfff2ef          	jal	t0,5a34 <__riscv_save_0>
    5b7a:	00358493          	addi	s1,a1,3
    5b7e:	98f1                	c.andi	s1,-4
    5b80:	04a1                	c.addi	s1,8
    5b82:	47b1                	c.li	a5,12
    5b84:	04f4f463          	bgeu	s1,a5,5bcc <_malloc_r+0x56>
    5b88:	44b1                	c.li	s1,12
    5b8a:	04b4e363          	bltu	s1,a1,5bd0 <_malloc_r+0x5a>
    5b8e:	06c2272b          	lwgp	a4,4204 # 8186c <__malloc_free_list>
    5b92:	86be                	c.mv	a3,a5
    5b94:	843a                	c.mv	s0,a4
    5b96:	e031                	c.bnez	s0,5bda <_malloc_r+0x64>
    5b98:	068227ab          	lwgp	a5,4200 # 81868 <__malloc_sbrk_start>
    5b9c:	e791                	c.bnez	a5,5ba8 <_malloc_r+0x32>
    5b9e:	4501                	c.li	a0,0
    5ba0:	35b000ef          	jal	ra,66fa <_sbrk>
    5ba4:	06a2442b          	swgp	a0,4200 # 81868 <__malloc_sbrk_start>
    5ba8:	8526                	c.mv	a0,s1
    5baa:	597d                	c.li	s2,-1
    5bac:	34f000ef          	jal	ra,66fa <_sbrk>
    5bb0:	03250063          	beq	a0,s2,5bd0 <_malloc_r+0x5a>
    5bb4:	00350413          	addi	s0,a0,3
    5bb8:	9871                	c.andi	s0,-4
    5bba:	02850963          	beq	a0,s0,5bec <_malloc_r+0x76>
    5bbe:	40a40533          	sub	a0,s0,a0
    5bc2:	339000ef          	jal	ra,66fa <_sbrk>
    5bc6:	03251363          	bne	a0,s2,5bec <_malloc_r+0x76>
    5bca:	a019                	c.j	5bd0 <_malloc_r+0x5a>
    5bcc:	fa04dfe3          	bgez	s1,5b8a <_malloc_r+0x14>
    5bd0:	4731                	c.li	a4,12
    5bd2:	4501                	c.li	a0,0
    5bd4:	06e2422b          	swgp	a4,4196 # 81864 <__mculib_REENT_errno>
    5bd8:	b541                	c.j	5a58 <__riscv_restore_0>
    5bda:	401c                	c.lw	a5,0(s0)
    5bdc:	8f85                	c.sub	a5,s1
    5bde:	0207cd63          	bltz	a5,5c18 <_malloc_r+0xa2>
    5be2:	462d                	c.li	a2,11
    5be4:	00f67663          	bgeu	a2,a5,5bf0 <_malloc_r+0x7a>
    5be8:	c01c                	c.sw	a5,0(s0)
    5bea:	943e                	c.add	s0,a5
    5bec:	c004                	c.sw	s1,0(s0)
    5bee:	a031                	c.j	5bfa <_malloc_r+0x84>
    5bf0:	405c                	c.lw	a5,4(s0)
    5bf2:	02871163          	bne	a4,s0,5c14 <_malloc_r+0x9e>
    5bf6:	06f2462b          	swgp	a5,4204 # 8186c <__malloc_free_list>
    5bfa:	00b40513          	addi	a0,s0,11
    5bfe:	00440793          	addi	a5,s0,4
    5c02:	9961                	c.andi	a0,-8
    5c04:	40f50733          	sub	a4,a0,a5
    5c08:	fcf508e3          	beq	a0,a5,5bd8 <_malloc_r+0x62>
    5c0c:	943a                	c.add	s0,a4
    5c0e:	8f89                	c.sub	a5,a0
    5c10:	c01c                	c.sw	a5,0(s0)
    5c12:	b7d9                	c.j	5bd8 <_malloc_r+0x62>
    5c14:	c35c                	c.sw	a5,4(a4)
    5c16:	b7d5                	c.j	5bfa <_malloc_r+0x84>
    5c18:	8722                	c.mv	a4,s0
    5c1a:	4040                	c.lw	s0,4(s0)
    5c1c:	bfad                	c.j	5b96 <_malloc_r+0x20>

00005c1e <iprintf>:
    5c1e:	7139                	c.addi16sp	sp,-64
    5c20:	d22e                	c.swsp	a1,36(sp)
    5c22:	104c                	c.addi4spn	a1,sp,36
    5c24:	ce06                	c.swsp	ra,28(sp)
    5c26:	d432                	c.swsp	a2,40(sp)
    5c28:	d636                	c.swsp	a3,44(sp)
    5c2a:	d83a                	c.swsp	a4,48(sp)
    5c2c:	da3e                	c.swsp	a5,52(sp)
    5c2e:	dc42                	c.swsp	a6,56(sp)
    5c30:	de46                	c.swsp	a7,60(sp)
    5c32:	c62e                	c.swsp	a1,12(sp)
    5c34:	209d                	c.jal	5c9a <viprintf>
    5c36:	40f2                	c.lwsp	ra,28(sp)
    5c38:	6121                	c.addi16sp	sp,64
    5c3a:	8082                	c.jr	ra

00005c3c <putchar>:
    5c3c:	df9ff2ef          	jal	t0,5a34 <__riscv_save_0>
    5c40:	1141                	c.addi	sp,-16
    5c42:	842a                	c.mv	s0,a0
    5c44:	00a107a3          	sb	a0,15(sp)
    5c48:	4605                	c.li	a2,1
    5c4a:	00f10593          	addi	a1,sp,15
    5c4e:	4505                	c.li	a0,1
    5c50:	82dfb0ef          	jal	ra,147c <_write>
    5c54:	e501                	c.bnez	a0,5c5c <putchar+0x20>
    5c56:	4759                	c.li	a4,22
    5c58:	06e2422b          	swgp	a4,4196 # 81864 <__mculib_REENT_errno>
    5c5c:	8522                	c.mv	a0,s0
    5c5e:	0141                	c.addi	sp,16
    5c60:	bbe5                	c.j	5a58 <__riscv_restore_0>

00005c62 <__vprintf_help>:
    5c62:	dd3ff2ef          	jal	t0,5a34 <__riscv_save_0>
    5c66:	078227ab          	lwgp	a5,4216 # 81878 <__printf_count>
    5c6a:	0785                	c.addi	a5,1
    5c6c:	06f24c2b          	swgp	a5,4216 # 81878 <__printf_count>
    5c70:	074225ab          	lwgp	a1,4212 # 81874 <__vprintf_buf>
    5c74:	070227ab          	lwgp	a5,4208 # 81870 <__vprintf_buf_len>
    5c78:	00178713          	addi	a4,a5,1
    5c7c:	97ae                	c.add	a5,a1
    5c7e:	06e2482b          	swgp	a4,4208 # 81870 <__vprintf_buf_len>
    5c82:	00a78023          	sb	a0,0(a5)
    5c86:	4007695b          	bnec	a4,64,5c98 <__vprintf_help+0x36>
    5c8a:	04000613          	li	a2,64
    5c8e:	4505                	c.li	a0,1
    5c90:	fecfb0ef          	jal	ra,147c <_write>
    5c94:	0602482b          	swgp	zero,4208 # 81870 <__vprintf_buf_len>
    5c98:	b3c1                	c.j	5a58 <__riscv_restore_0>

00005c9a <viprintf>:
    5c9a:	1141                	c.addi	sp,-16
    5c9c:	c606                	c.swsp	ra,12(sp)
    5c9e:	c422                	c.swsp	s0,8(sp)
    5ca0:	c226                	c.swsp	s1,4(sp)
    5ca2:	0800                	c.addi4spn	s0,sp,16
    5ca4:	c04a                	c.swsp	s2,0(sp)
    5ca6:	715d                	c.addi16sp	sp,-80
    5ca8:	00f10793          	addi	a5,sp,15
    5cac:	00006637          	lui	a2,0x6
    5cb0:	9bc1                	c.andi	a5,-16
    5cb2:	c6260613          	addi	a2,a2,-926 # 5c62 <__vprintf_help>
    5cb6:	06f24a2b          	swgp	a5,4212 # 81874 <__vprintf_buf>
    5cba:	0602482b          	swgp	zero,4208 # 81870 <__vprintf_buf_len>
    5cbe:	20ad                	c.jal	5d28 <__printf_impl>
    5cc0:	0702262b          	lwgp	a2,4208 # 81870 <__vprintf_buf_len>
    5cc4:	074225ab          	lwgp	a1,4212 # 81874 <__vprintf_buf>
    5cc8:	4505                	c.li	a0,1
    5cca:	fb2fb0ef          	jal	ra,147c <_write>
    5cce:	0782252b          	lwgp	a0,4216 # 81878 <__printf_count>
    5cd2:	ff040113          	addi	sp,s0,-16
    5cd6:	40b2                	c.lwsp	ra,12(sp)
    5cd8:	4422                	c.lwsp	s0,8(sp)
    5cda:	4492                	c.lwsp	s1,4(sp)
    5cdc:	4902                	c.lwsp	s2,0(sp)
    5cde:	0141                	c.addi	sp,16
    5ce0:	8082                	c.jr	ra

00005ce2 <__print_integral>:
    5ce2:	d53ff2ef          	jal	t0,5a34 <__riscv_save_0>
    5ce6:	1101                	c.addi	sp,-32
    5ce8:	842a                	c.mv	s0,a0
    5cea:	84ae                	c.mv	s1,a1
    5cec:	8932                	c.mv	s2,a2
    5cee:	c636                	c.swsp	a3,12(sp)
    5cf0:	853a                	c.mv	a0,a4
    5cf2:	85be                	c.mv	a1,a5
    5cf4:	0830                	c.addi4spn	a2,sp,24
    5cf6:	ca3e                	c.swsp	a5,20(sp)
    5cf8:	2161                	c.jal	6180 <__int_to_poly>
    5cfa:	46b2                	c.lwsp	a3,12(sp)
    5cfc:	882a                	c.mv	a6,a0
    5cfe:	083c                	c.addi4spn	a5,sp,24
    5d00:	0858                	c.addi4spn	a4,sp,20
    5d02:	864a                	c.mv	a2,s2
    5d04:	85a6                	c.mv	a1,s1
    5d06:	8522                	c.mv	a0,s0
    5d08:	2961                	c.jal	61a0 <__print_integral_poly>
    5d0a:	7a10178b          	addigp	a5,4000 # 817a0 <__digits>
    5d0e:	00a46463          	bltu	s0,a0,5d16 <__print_integral+0x34>
    5d12:	6105                	c.addi16sp	sp,32
    5d14:	b391                	c.j	5a58 <__riscv_restore_0>
    5d16:	00044703          	lbu	a4,0(s0)
    5d1a:	0405                	c.addi	s0,1
    5d1c:	973e                	c.add	a4,a5
    5d1e:	00074703          	lbu	a4,0(a4) # 400000 <FLASH_SIZE+0x300000>
    5d22:	fee40fa3          	sb	a4,-1(s0)
    5d26:	b7e5                	c.j	5d0e <__print_integral+0x2c>

00005d28 <__printf_impl>:
    5d28:	cddff2ef          	jal	t0,5a04 <__riscv_save_12>
    5d2c:	a6010113          	addi	sp,sp,-1440
    5d30:	6b85                	c.lui	s7,0x1
    5d32:	842e                	c.mv	s0,a1
    5d34:	7b10158b          	addigp	a1,4016 # 817b0 <__digits+0x10>
    5d38:	892a                	c.mv	s2,a0
    5d3a:	89b2                	c.mv	s3,a2
    5d3c:	01c10a93          	addi	s5,sp,28
    5d40:	800b8b93          	addi	s7,s7,-2048 # 800 <analog_read_reg8+0x4>
    5d44:	06024c2b          	swgp	zero,4216 # 81878 <__printf_count>
    5d48:	c42e                	c.swsp	a1,8(sp)
    5d4a:	00094503          	lbu	a0,0(s2)
    5d4e:	e501                	c.bnez	a0,5d56 <__printf_impl+0x2e>
    5d50:	5a010113          	addi	sp,sp,1440
    5d54:	b1f5                	c.j	5a40 <__riscv_restore_12>
    5d56:	00190493          	addi	s1,s2,1
    5d5a:	005555db          	beqc	a0,37,5d64 <__printf_impl+0x3c>
    5d5e:	9982                	c.jalr	s3
    5d60:	8926                	c.mv	s2,s1
    5d62:	b7e5                	c.j	5d4a <__printf_impl+0x22>
    5d64:	00194783          	lbu	a5,1(s2)
    5d68:	0057e8db          	bnec	a5,37,5d78 <__printf_impl+0x50>
    5d6c:	02500513          	li	a0,37
    5d70:	00290493          	addi	s1,s2,2
    5d74:	9982                	c.jalr	s3
    5d76:	b7ed                	c.j	5d60 <__printf_impl+0x38>
    5d78:	4681                	c.li	a3,0
    5d7a:	4701                	c.li	a4,0
    5d7c:	d002                	c.swsp	zero,32(sp)
    5d7e:	0004c783          	lbu	a5,0(s1)
    5d82:	0007e7db          	bnec	a5,32,5d90 <__printf_impl+0x68>
    5d86:	00276713          	ori	a4,a4,2
    5d8a:	0485                	c.addi	s1,1
    5d8c:	4685                	c.li	a3,1
    5d8e:	bfc5                	c.j	5d7e <__printf_impl+0x56>
    5d90:	00d7e5db          	bnec	a5,45,5d9a <__printf_impl+0x72>
    5d94:	00476713          	ori	a4,a4,4
    5d98:	bfcd                	c.j	5d8a <__printf_impl+0x62>
    5d9a:	00b7e5db          	bnec	a5,43,5da4 <__printf_impl+0x7c>
    5d9e:	00876713          	ori	a4,a4,8
    5da2:	b7e5                	c.j	5d8a <__printf_impl+0x62>
    5da4:	0037e5db          	bnec	a5,35,5dae <__printf_impl+0x86>
    5da8:	01076713          	ori	a4,a4,16
    5dac:	bff9                	c.j	5d8a <__printf_impl+0x62>
    5dae:	0107e5db          	bnec	a5,48,5db8 <__printf_impl+0x90>
    5db2:	02076713          	ori	a4,a4,32
    5db6:	bfd1                	c.j	5d8a <__printf_impl+0x62>
    5db8:	c291                	c.beqz	a3,5dbc <__printf_impl+0x94>
    5dba:	d03a                	c.swsp	a4,32(sp)
    5dbc:	04a7eadb          	bnec	a5,42,5e10 <__printf_impl+0xe8>
    5dc0:	00042a03          	lw	s4,0(s0)
    5dc4:	00440713          	addi	a4,s0,4
    5dc8:	000a5863          	bgez	s4,5dd8 <__printf_impl+0xb0>
    5dcc:	5782                	c.lwsp	a5,32(sp)
    5dce:	41400a33          	neg	s4,s4
    5dd2:	0047e793          	ori	a5,a5,4
    5dd6:	d03e                	c.swsp	a5,32(sp)
    5dd8:	0485                	c.addi	s1,1
    5dda:	843a                	c.mv	s0,a4
    5ddc:	0004c783          	lbu	a5,0(s1)
    5de0:	5dfd                	c.li	s11,-1
    5de2:	06e7e4db          	bnec	a5,46,5e4a <__printf_impl+0x122>
    5de6:	0014c783          	lbu	a5,1(s1)
    5dea:	04a7dbdb          	beqc	a5,42,5e40 <__printf_impl+0x118>
    5dee:	0485                	c.addi	s1,1
    5df0:	4d81                	c.li	s11,0
    5df2:	4725                	c.li	a4,9
    5df4:	4629                	c.li	a2,10
    5df6:	0004c783          	lbu	a5,0(s1)
    5dfa:	fd078793          	addi	a5,a5,-48
    5dfe:	0ff7f693          	andi	a3,a5,255
    5e02:	04d76463          	bltu	a4,a3,5e4a <__printf_impl+0x122>
    5e06:	c4cd97ff          	maddr32	a5,s11,a2
    5e0a:	0485                	c.addi	s1,1
    5e0c:	8dbe                	c.mv	s11,a5
    5e0e:	b7e5                	c.j	5df6 <__printf_impl+0xce>
    5e10:	fd078793          	addi	a5,a5,-48
    5e14:	0ff7f793          	andi	a5,a5,255
    5e18:	4725                	c.li	a4,9
    5e1a:	4a01                	c.li	s4,0
    5e1c:	fcf760e3          	bltu	a4,a5,5ddc <__printf_impl+0xb4>
    5e20:	4725                	c.li	a4,9
    5e22:	4629                	c.li	a2,10
    5e24:	a029                	c.j	5e2e <__printf_impl+0x106>
    5e26:	c4ca17ff          	maddr32	a5,s4,a2
    5e2a:	0485                	c.addi	s1,1
    5e2c:	8a3e                	c.mv	s4,a5
    5e2e:	0004c783          	lbu	a5,0(s1)
    5e32:	fd078793          	addi	a5,a5,-48
    5e36:	0ff7f693          	andi	a3,a5,255
    5e3a:	fed776e3          	bgeu	a4,a3,5e26 <__printf_impl+0xfe>
    5e3e:	bf79                	c.j	5ddc <__printf_impl+0xb4>
    5e40:	401c                	c.lw	a5,0(s0)
    5e42:	0489                	c.addi	s1,2
    5e44:	0411                	c.addi	s0,4
    5e46:	f2fd8dff          	maxw	s11,s11,a5
    5e4a:	43200613          	li	a2,1074
    5e4e:	0004c783          	lbu	a5,0(s1)
    5e52:	f0cd867f          	minw	a2,s11,a2
    5e56:	4687e8db          	bnec	a5,104,5ec6 <__printf_impl+0x19e>
    5e5a:	5782                	c.lwsp	a5,32(sp)
    5e5c:	0014c703          	lbu	a4,1(s1)
    5e60:	44876ddb          	bnec	a4,104,5eba <__printf_impl+0x192>
    5e64:	0407e793          	ori	a5,a5,64
    5e68:	00248913          	addi	s2,s1,2
    5e6c:	d03e                	c.swsp	a5,32(sp)
    5e6e:	00094503          	lbu	a0,0(s2)
    5e72:	07800793          	li	a5,120
    5e76:	24a7e163          	bltu	a5,a0,60b8 <__printf_impl+0x390>
    5e7a:	05700793          	li	a5,87
    5e7e:	06a7ee63          	bltu	a5,a0,5efa <__printf_impl+0x1d2>
    5e82:	4015595b          	beqc	a0,65,5e94 <__printf_impl+0x16c>
    5e86:	fbb50793          	addi	a5,a0,-69
    5e8a:	0ff7f793          	andi	a5,a5,255
    5e8e:	4709                	c.li	a4,2
    5e90:	22f76463          	bltu	a4,a5,60b8 <__printf_impl+0x390>
    5e94:	00740593          	addi	a1,s0,7
    5e98:	99e1                	c.andi	a1,-8
    5e9a:	0005a803          	lw	a6,0(a1)
    5e9e:	0045a883          	lw	a7,4(a1)
    5ea2:	87aa                	c.mv	a5,a0
    5ea4:	02057c93          	andi	s9,a0,32
    5ea8:	00858413          	addi	s0,a1,8
    5eac:	86c2                	c.mv	a3,a6
    5eae:	8746                	c.mv	a4,a7
    5eb0:	100c                	c.addi4spn	a1,sp,32
    5eb2:	1048                	c.addi4spn	a0,sp,36
    5eb4:	2e95                	c.jal	6228 <__printf_float_impl>
    5eb6:	84aa                	c.mv	s1,a0
    5eb8:	a8bd                	c.j	5f36 <__printf_impl+0x20e>
    5eba:	0807e793          	ori	a5,a5,128
    5ebe:	00148913          	addi	s2,s1,1
    5ec2:	d03e                	c.swsp	a5,32(sp)
    5ec4:	b76d                	c.j	5e6e <__printf_impl+0x146>
    5ec6:	40c7eddb          	bnec	a5,108,5ee0 <__printf_impl+0x1b8>
    5eca:	5782                	c.lwsp	a5,32(sp)
    5ecc:	0014c703          	lbu	a4,1(s1)
    5ed0:	40c765db          	bnec	a4,108,5eda <__printf_impl+0x1b2>
    5ed4:	2007e793          	ori	a5,a5,512
    5ed8:	bf41                	c.j	5e68 <__printf_impl+0x140>
    5eda:	1007e793          	ori	a5,a5,256
    5ede:	b7c5                	c.j	5ebe <__printf_impl+0x196>
    5ee0:	00148913          	addi	s2,s1,1
    5ee4:	41a7e7db          	bnec	a5,122,5ef2 <__printf_impl+0x1ca>
    5ee8:	5782                	c.lwsp	a5,32(sp)
    5eea:	1007e793          	ori	a5,a5,256
    5eee:	d03e                	c.swsp	a5,32(sp)
    5ef0:	bfbd                	c.j	5e6e <__printf_impl+0x146>
    5ef2:	ff47dbdb          	beqc	a5,116,5ee8 <__printf_impl+0x1c0>
    5ef6:	8926                	c.mv	s2,s1
    5ef8:	bf9d                	c.j	5e6e <__printf_impl+0x146>
    5efa:	fa850793          	addi	a5,a0,-88
    5efe:	0ff7f793          	andi	a5,a5,255
    5f02:	02000713          	li	a4,32
    5f06:	1af76963          	bltu	a4,a5,60b8 <__printf_impl+0x390>
    5f0a:	45a2                	c.lwsp	a1,8(sp)
    5f0c:	0cf587db          	lea.w	a5,a1,a5
    5f10:	439c                	c.lw	a5,0(a5)
    5f12:	8782                	c.jr	a5
    5f14:	45a9                	c.li	a1,10
    5f16:	5782                	c.lwsp	a5,32(sp)
    5f18:	1267f25b          	bbc	a5,6,603c <__printf_impl+0x314>
    5f1c:	00044703          	lbu	a4,0(s0)
    5f20:	00440d13          	addi	s10,s0,4
    5f24:	4781                	c.li	a5,0
    5f26:	a281                	c.j	6066 <__printf_impl+0x33e>
    5f28:	401c                	c.lw	a5,0(s0)
    5f2a:	4c81                	c.li	s9,0
    5f2c:	0411                	c.addi	s0,4
    5f2e:	02510493          	addi	s1,sp,37
    5f32:	02f10223          	sb	a5,36(sp)
    5f36:	02410c13          	addi	s8,sp,36
    5f3a:	a01d                	c.j	5f60 <__printf_impl+0x238>
    5f3c:	00042c03          	lw	s8,0(s0)
    5f40:	85b2                	c.mv	a1,a2
    5f42:	8562                	c.mv	a0,s8
    5f44:	c632                	c.swsp	a2,12(sp)
    5f46:	2f11                	c.jal	665a <strnlen>
    5f48:	57fd                	c.li	a5,-1
    5f4a:	00440c93          	addi	s9,s0,4
    5f4e:	00fd8563          	beq	s11,a5,5f58 <__printf_impl+0x230>
    5f52:	4632                	c.lwsp	a2,12(sp)
    5f54:	f0c5057f          	minw	a0,a0,a2
    5f58:	8466                	c.mv	s0,s9
    5f5a:	00ac04b3          	add	s1,s8,a0
    5f5e:	4c81                	c.li	s9,0
    5f60:	5782                	c.lwsp	a5,32(sp)
    5f62:	02d00693          	li	a3,45
    5f66:	40a7fb5b          	bbs	a5,10,5f7c <__printf_impl+0x254>
    5f6a:	02b00693          	li	a3,43
    5f6e:	4037f75b          	bbs	a5,3,5f7c <__printf_impl+0x254>
    5f72:	8d56                	c.mv	s10,s5
    5f74:	0017f85b          	bbc	a5,1,5f84 <__printf_impl+0x25c>
    5f78:	02000693          	li	a3,32
    5f7c:	01d10d13          	addi	s10,sp,29
    5f80:	00d10e23          	sb	a3,28(sp)
    5f84:	0177f6b3          	and	a3,a5,s7
    5f88:	ca91                	c.beqz	a3,5f9c <__printf_impl+0x274>
    5f8a:	03000693          	li	a3,48
    5f8e:	00dd0023          	sb	a3,0(s10)
    5f92:	05800693          	li	a3,88
    5f96:	00dd00a3          	sb	a3,1(s10)
    5f9a:	0d09                	c.addi	s10,2
    5f9c:	5627f85b          	bbs	a5,2,610c <__printf_impl+0x3e4>
    5fa0:	41848db3          	sub	s11,s1,s8
    5fa4:	4057f95b          	bbs	a5,5,5fb6 <__printf_impl+0x28e>
    5fa8:	41ba07b3          	sub	a5,s4,s11
    5fac:	415d06b3          	sub	a3,s10,s5
    5fb0:	8f95                	c.sub	a5,a3
    5fb2:	16f04b63          	bgtz	a5,6128 <__printf_impl+0x400>
    5fb6:	87d6                	c.mv	a5,s5
    5fb8:	a279                	c.j	6146 <__printf_impl+0x41e>
    5fba:	5682                	c.lwsp	a3,32(sp)
    5fbc:	0266f55b          	bbc	a3,6,5fe6 <__printf_impl+0x2be>
    5fc0:	00040703          	lb	a4,0(s0)
    5fc4:	00440d13          	addi	s10,s0,4
    5fc8:	41f75793          	srai	a5,a4,0x1f
    5fcc:	0407d463          	bgez	a5,6014 <__printf_impl+0x2ec>
    5fd0:	00e035b3          	snez	a1,a4
    5fd4:	40f007b3          	neg	a5,a5
    5fd8:	40e00733          	neg	a4,a4
    5fdc:	8f8d                	c.sub	a5,a1
    5fde:	4006e693          	ori	a3,a3,1024
    5fe2:	d036                	c.swsp	a3,32(sp)
    5fe4:	a805                	c.j	6014 <__printf_impl+0x2ec>
    5fe6:	0076f75b          	bbc	a3,7,5ff4 <__printf_impl+0x2cc>
    5fea:	00041703          	lh	a4,0(s0)
    5fee:	00440d13          	addi	s10,s0,4
    5ff2:	bfd9                	c.j	5fc8 <__printf_impl+0x2a0>
    5ff4:	0086f65b          	bbc	a3,8,6000 <__printf_impl+0x2d8>
    5ff8:	4018                	c.lw	a4,0(s0)
    5ffa:	00440d13          	addi	s10,s0,4
    5ffe:	b7e9                	c.j	5fc8 <__printf_impl+0x2a0>
    6000:	be96fc5b          	bbc	a3,9,5ff8 <__printf_impl+0x2d0>
    6004:	041d                	c.addi	s0,7
    6006:	9861                	c.andi	s0,-8
    6008:	405c                	c.lw	a5,4(s0)
    600a:	4018                	c.lw	a4,0(s0)
    600c:	00840d13          	addi	s10,s0,8
    6010:	0007c963          	bltz	a5,6022 <__printf_impl+0x2fa>
    6014:	56fd                	c.li	a3,-1
    6016:	45a9                	c.li	a1,10
    6018:	4c81                	c.li	s9,0
    601a:	04dd9b63          	bne	s11,a3,6070 <__printf_impl+0x348>
    601e:	4605                	c.li	a2,1
    6020:	a0bd                	c.j	608e <__printf_impl+0x366>
    6022:	f75d                	c.bnez	a4,5fd0 <__printf_impl+0x2a8>
    6024:	800005b7          	lui	a1,0x80000
    6028:	fab794e3          	bne	a5,a1,5fd0 <__printf_impl+0x2a8>
    602c:	4701                	c.li	a4,0
    602e:	800007b7          	lui	a5,0x80000
    6032:	b775                	c.j	5fde <__printf_impl+0x2b6>
    6034:	45c1                	c.li	a1,16
    6036:	b5c5                	c.j	5f16 <__printf_impl+0x1ee>
    6038:	45a1                	c.li	a1,8
    603a:	bdf1                	c.j	5f16 <__printf_impl+0x1ee>
    603c:	0077f75b          	bbc	a5,7,604a <__printf_impl+0x322>
    6040:	00045703          	lhu	a4,0(s0)
    6044:	00440d13          	addi	s10,s0,4
    6048:	bdf1                	c.j	5f24 <__printf_impl+0x1fc>
    604a:	0087f65b          	bbc	a5,8,6056 <__printf_impl+0x32e>
    604e:	4018                	c.lw	a4,0(s0)
    6050:	00440d13          	addi	s10,s0,4
    6054:	bdc1                	c.j	5f24 <__printf_impl+0x1fc>
    6056:	be97fc5b          	bbc	a5,9,604e <__printf_impl+0x326>
    605a:	041d                	c.addi	s0,7
    605c:	9861                	c.andi	s0,-8
    605e:	4018                	c.lw	a4,0(s0)
    6060:	405c                	c.lw	a5,4(s0)
    6062:	00840d13          	addi	s10,s0,8
    6066:	56fd                	c.li	a3,-1
    6068:	02057c93          	andi	s9,a0,32
    606c:	02dd8963          	beq	s11,a3,609e <__printf_impl+0x376>
    6070:	5682                	c.lwsp	a3,32(sp)
    6072:	fdf6f693          	andi	a3,a3,-33
    6076:	d036                	c.swsp	a3,32(sp)
    6078:	0105eb5b          	bnec	a1,16,608e <__printf_impl+0x366>
    607c:	5682                	c.lwsp	a3,32(sp)
    607e:	0046f85b          	bbc	a3,4,608e <__printf_impl+0x366>
    6082:	00f76533          	or	a0,a4,a5
    6086:	c501                	c.beqz	a0,608e <__printf_impl+0x366>
    6088:	0176e6b3          	or	a3,a3,s7
    608c:	d036                	c.swsp	a3,32(sp)
    608e:	86b2                	c.mv	a3,a2
    6090:	5602                	c.lwsp	a2,32(sp)
    6092:	1048                	c.addi4spn	a0,sp,36
    6094:	c4fff0ef          	jal	ra,5ce2 <__print_integral>
    6098:	846a                	c.mv	s0,s10
    609a:	84aa                	c.mv	s1,a0
    609c:	bd69                	c.j	5f36 <__printf_impl+0x20e>
    609e:	4605                	c.li	a2,1
    60a0:	bfe1                	c.j	6078 <__printf_impl+0x350>
    60a2:	5602                	c.lwsp	a2,32(sp)
    60a4:	078227ab          	lwgp	a5,4216 # 81878 <__printf_count>
    60a8:	4018                	c.lw	a4,0(s0)
    60aa:	00440693          	addi	a3,s0,4
    60ae:	0066795b          	bbc	a2,6,60c0 <__printf_impl+0x398>
    60b2:	00f70023          	sb	a5,0(a4)
    60b6:	8436                	c.mv	s0,a3
    60b8:	1044                	c.addi4spn	s1,sp,36
    60ba:	4c81                	c.li	s9,0
    60bc:	8c26                	c.mv	s8,s1
    60be:	b54d                	c.j	5f60 <__printf_impl+0x238>
    60c0:	0076755b          	bbc	a2,7,60ca <__printf_impl+0x3a2>
    60c4:	00f71023          	sh	a5,0(a4)
    60c8:	b7fd                	c.j	60b6 <__printf_impl+0x38e>
    60ca:	c31c                	c.sw	a5,0(a4)
    60cc:	fe86755b          	bbs	a2,8,60b6 <__printf_impl+0x38e>
    60d0:	be96735b          	bbc	a2,9,60b6 <__printf_impl+0x38e>
    60d4:	87fd                	c.srai	a5,0x1f
    60d6:	c35c                	c.sw	a5,4(a4)
    60d8:	bff9                	c.j	60b6 <__printf_impl+0x38e>
    60da:	000dc503          	lbu	a0,0(s11)
    60de:	0d85                	c.addi	s11,1
    60e0:	00ace533          	or	a0,s9,a0
    60e4:	9982                	c.jalr	s3
    60e6:	ffadeae3          	bltu	s11,s10,60da <__printf_impl+0x3b2>
    60ea:	4781                	c.li	a5,0
    60ec:	015d6463          	bltu	s10,s5,60f4 <__printf_impl+0x3cc>
    60f0:	41aa87b3          	sub	a5,s5,s10
    60f4:	9a3e                	c.add	s4,a5
    60f6:	8d62                	c.mv	s10,s8
    60f8:	01a49c63          	bne	s1,s10,6110 <__printf_impl+0x3e8>
    60fc:	418484b3          	sub	s1,s1,s8
    6100:	409a04b3          	sub	s1,s4,s1
    6104:	00904d63          	bgtz	s1,611e <__printf_impl+0x3f6>
    6108:	0905                	c.addi	s2,1
    610a:	b181                	c.j	5d4a <__printf_impl+0x22>
    610c:	8dd6                	c.mv	s11,s5
    610e:	bfe1                	c.j	60e6 <__printf_impl+0x3be>
    6110:	000d4503          	lbu	a0,0(s10)
    6114:	0d05                	c.addi	s10,1
    6116:	00ace533          	or	a0,s9,a0
    611a:	9982                	c.jalr	s3
    611c:	bff1                	c.j	60f8 <__printf_impl+0x3d0>
    611e:	02000513          	li	a0,32
    6122:	14fd                	c.addi	s1,-1
    6124:	9982                	c.jalr	s3
    6126:	bff9                	c.j	6104 <__printf_impl+0x3dc>
    6128:	02000513          	li	a0,32
    612c:	c63e                	c.swsp	a5,12(sp)
    612e:	9982                	c.jalr	s3
    6130:	47b2                	c.lwsp	a5,12(sp)
    6132:	17fd                	c.addi	a5,-1
    6134:	bdbd                	c.j	5fb2 <__printf_impl+0x28a>
    6136:	0007c503          	lbu	a0,0(a5) # 80000000 <_DATA_LMA_START+0x5fff9630>
    613a:	c63e                	c.swsp	a5,12(sp)
    613c:	00ace533          	or	a0,s9,a0
    6140:	9982                	c.jalr	s3
    6142:	47b2                	c.lwsp	a5,12(sp)
    6144:	0785                	c.addi	a5,1
    6146:	ffa7e8e3          	bltu	a5,s10,6136 <__printf_impl+0x40e>
    614a:	4781                	c.li	a5,0
    614c:	015d6463          	bltu	s10,s5,6154 <__printf_impl+0x42c>
    6150:	41aa87b3          	sub	a5,s5,s10
    6154:	9a3e                	c.add	s4,a5
    6156:	5782                	c.lwsp	a5,32(sp)
    6158:	0057f65b          	bbc	a5,5,6164 <__printf_impl+0x43c>
    615c:	41ba0a33          	sub	s4,s4,s11
    6160:	01404b63          	bgtz	s4,6176 <__printf_impl+0x44e>
    6164:	fb8482e3          	beq	s1,s8,6108 <__printf_impl+0x3e0>
    6168:	000c4503          	lbu	a0,0(s8)
    616c:	0c05                	c.addi	s8,1
    616e:	00ace533          	or	a0,s9,a0
    6172:	9982                	c.jalr	s3
    6174:	bfc5                	c.j	6164 <__printf_impl+0x43c>
    6176:	03000513          	li	a0,48
    617a:	1a7d                	c.addi	s4,-1
    617c:	9982                	c.jalr	s3
    617e:	b7cd                	c.j	6160 <__printf_impl+0x438>

00006180 <__int_to_poly>:
    6180:	872a                	c.mv	a4,a0
    6182:	87ae                	c.mv	a5,a1
    6184:	4501                	c.li	a0,0
    6186:	00f766b3          	or	a3,a4,a5
    618a:	e291                	c.bnez	a3,618e <__int_to_poly+0xe>
    618c:	8082                	c.jr	ra
    618e:	0aa606db          	lea.h	a3,a2,a0
    6192:	00e69023          	sh	a4,0(a3)
    6196:	0505                	c.addi	a0,1
    6198:	df07077f          	wexti	a4,a4,16
    619c:	83c1                	c.srli	a5,0x10
    619e:	b7e5                	c.j	6186 <__int_to_poly+0x6>

000061a0 <__print_integral_poly>:
    61a0:	895ff2ef          	jal	t0,5a34 <__riscv_save_0>
    61a4:	84ba                	c.mv	s1,a4
    61a6:	fff80893          	addi	a7,a6,-1 # fffff <_STACK_TOP+0x5ffff>
    61aa:	0b07875b          	lea.h	a4,a5,a6
    61ae:	8346                	c.mv	t1,a7
    61b0:	4401                	c.li	s0,0
    61b2:	8e3a                	c.mv	t3,a4
    61b4:	1779                	c.addi	a4,-2
    61b6:	02035663          	bgez	t1,61e2 <__print_integral_poly+0x42>
    61ba:	05005063          	blez	a6,61fa <__print_integral_poly+0x5a>
    61be:	ffee5703          	lhu	a4,-2(t3)
    61c2:	e701                	c.bnez	a4,61ca <__print_integral_poly+0x2a>
    61c4:	03105b63          	blez	a7,61fa <__print_integral_poly+0x5a>
    61c8:	8846                	c.mv	a6,a7
    61ca:	8726                	c.mv	a4,s1
    61cc:	16fd                	c.addi	a3,-1
    61ce:	3fc9                	c.jal	61a0 <__print_integral_poly>
    61d0:	87aa                	c.mv	a5,a0
    61d2:	0505                	c.addi	a0,1
    61d4:	00878023          	sb	s0,0(a5)
    61d8:	409c                	c.lw	a5,0(s1)
    61da:	0785                	c.addi	a5,1
    61dc:	c09c                	c.sw	a5,0(s1)
    61de:	87bff06f          	j	5a58 <__riscv_restore_0>
    61e2:	00075e83          	lhu	t4,0(a4)
    61e6:	0442                	c.slli	s0,0x10
    61e8:	9476                	c.add	s0,t4
    61ea:	02b45eb3          	divu	t4,s0,a1
    61ee:	137d                	c.addi	t1,-1
    61f0:	02b47433          	remu	s0,s0,a1
    61f4:	01d71023          	sh	t4,0(a4)
    61f8:	bf75                	c.j	61b4 <__print_integral_poly+0x14>
    61fa:	c011                	c.beqz	s0,61fe <__print_integral_poly+0x5e>
    61fc:	16fd                	c.addi	a3,-1
    61fe:	00d04763          	bgtz	a3,620c <__print_integral_poly+0x6c>
    6202:	0085ee5b          	bnec	a1,8,621e <__print_integral_poly+0x7e>
    6206:	00467c5b          	bbc	a2,4,621e <__print_integral_poly+0x7e>
    620a:	4685                	c.li	a3,1
    620c:	4781                	c.li	a5,0
    620e:	00f50733          	add	a4,a0,a5
    6212:	00070023          	sb	zero,0(a4)
    6216:	0785                	c.addi	a5,1
    6218:	fed7cbe3          	blt	a5,a3,620e <__print_integral_poly+0x6e>
    621c:	9536                	c.add	a0,a3
    621e:	dc4d                	c.beqz	s0,61d8 <__print_integral_poly+0x38>
    6220:	00850023          	sb	s0,0(a0)
    6224:	0505                	c.addi	a0,1
    6226:	bf4d                	c.j	61d8 <__print_integral_poly+0x38>

00006228 <__printf_float_impl>:
    6228:	fdcff2ef          	jal	t0,5a04 <__riscv_save_12>
    622c:	7169                	c.addi16sp	sp,-304
    622e:	0df7fd13          	andi	s10,a5,223
    6232:	c03e                	c.swsp	a5,0(sp)
    6234:	8aaa                	c.mv	s5,a0
    6236:	892e                	c.mv	s2,a1
    6238:	84b2                	c.mv	s1,a2
    623a:	8c36                	c.mv	s8,a3
    623c:	8cba                	c.mv	s9,a4
    623e:	467d6d5b          	bnec	s10,71,62b8 <__printf_float_impl+0x90>
    6242:	0005a983          	lw	s3,0(a1) # 80000000 <_DATA_LMA_START+0x5fff9630>
    6246:	0109c993          	xori	s3,s3,16
    624a:	1049a9db          	bfoz	s3,s3,4,4
    624e:	0604db63          	bgez	s1,62c4 <__printf_float_impl+0x9c>
    6252:	44b5                	c.li	s1,13
    6254:	401d535b          	beqc	s10,65,625a <__printf_float_impl+0x32>
    6258:	4499                	c.li	s1,6
    625a:	dffc047f          	wexti	s0,s8,31
    625e:	c262                	c.swsp	s8,4(sp)
    6260:	8055                	c.srli	s0,0x15
    6262:	4c0caa5b          	bfoz	s4,s9,19,0
    6266:	000cd863          	bgez	s9,6276 <__printf_float_impl+0x4e>
    626a:	00092703          	lw	a4,0(s2)
    626e:	40076713          	ori	a4,a4,1024
    6272:	00e92023          	sw	a4,0(s2)
    6276:	401d6a5b          	bnec	s10,65,628a <__printf_float_impl+0x62>
    627a:	00092703          	lw	a4,0(s2)
    627e:	6685                	c.lui	a3,0x1
    6280:	80068693          	addi	a3,a3,-2048 # 800 <analog_read_reg8+0x4>
    6284:	8f55                	c.or	a4,a3
    6286:	00e92023          	sw	a4,0(s2)
    628a:	7ff00713          	li	a4,2047
    628e:	04e41663          	bne	s0,a4,62da <__printf_float_impl+0xb2>
    6292:	00092703          	lw	a4,0(s2)
    6296:	018a65b3          	or	a1,s4,s8
    629a:	fdf77713          	andi	a4,a4,-33
    629e:	00e92023          	sw	a4,0(s2)
    62a2:	c59d                	c.beqz	a1,62d0 <__printf_float_impl+0xa8>
    62a4:	000825b7          	lui	a1,0x82
    62a8:	83458593          	addi	a1,a1,-1996 # 81834 <__digits+0x94>
    62ac:	8556                	c.mv	a0,s5
    62ae:	2e9d                	c.jal	6624 <strcpy>
    62b0:	050d                	c.addi	a0,3
    62b2:	6155                	c.addi16sp	sp,304
    62b4:	f8cff06f          	j	5a40 <__riscv_restore_12>
    62b8:	4981                	c.li	s3,0
    62ba:	f81d6a5b          	bnec	s10,65,624e <__printf_float_impl+0x26>
    62be:	01f65993          	srli	s3,a2,0x1f
    62c2:	b771                	c.j	624e <__printf_float_impl+0x26>
    62c4:	f8d9                	c.bnez	s1,625a <__printf_float_impl+0x32>
    62c6:	fb9d0493          	addi	s1,s10,-71
    62ca:	0014b493          	seqz	s1,s1
    62ce:	b771                	c.j	625a <__printf_float_impl+0x32>
    62d0:	000825b7          	lui	a1,0x82
    62d4:	83858593          	addi	a1,a1,-1992 # 81838 <__digits+0x98>
    62d8:	bfd1                	c.j	62ac <__printf_float_impl+0x84>
    62da:	e811                	c.bnez	s0,62ee <__printf_float_impl+0xc6>
    62dc:	018a6733          	or	a4,s4,s8
    62e0:	c0300413          	li	s0,-1021
    62e4:	18071263          	bnez	a4,6468 <__printf_float_impl+0x240>
    62e8:	03500413          	li	s0,53
    62ec:	a819                	c.j	6302 <__printf_float_impl+0xda>
    62ee:	00100737          	lui	a4,0x100
    62f2:	01476a33          	or	s4,a4,s4
    62f6:	c0240413          	addi	s0,s0,-1022
    62fa:	03400713          	li	a4,52
    62fe:	16875363          	bge	a4,s0,6464 <__printf_float_impl+0x23c>
    6302:	fcb40413          	addi	s0,s0,-53
    6306:	00445b13          	srli	s6,s0,0x4
    630a:	001b1b93          	slli	s7,s6,0x1
    630e:	865e                	c.mv	a2,s7
    6310:	4581                	c.li	a1,0
    6312:	1008                	c.addi4spn	a0,sp,32
    6314:	2685                	c.jal	6674 <memset>
    6316:	883d                	c.andi	s0,15
    6318:	1a14                	c.addi4spn	a3,sp,304
    631a:	8622                	c.mv	a2,s0
    631c:	8562                	c.mv	a0,s8
    631e:	85d2                	c.mv	a1,s4
    6320:	9bb6                	c.add	s7,a3
    6322:	291d                	c.jal	6758 <__ashldi3>
    6324:	0b05                	c.addi	s6,1
    6326:	100c                	c.addi4spn	a1,sp,32
    6328:	4641                	c.li	a2,16
    632a:	eeab9823          	sh	a0,-272(s7)
    632e:	8e01                	c.sub	a2,s0
    6330:	0b658bdb          	lea.h	s7,a1,s6
    6334:	8562                	c.mv	a0,s8
    6336:	85d2                	c.mv	a1,s4
    6338:	2ec5                	c.jal	6728 <__lshrdi3>
    633a:	865e                	c.mv	a2,s7
    633c:	3591                	c.jal	6180 <__int_to_poly>
    633e:	4d81                	c.li	s11,0
    6340:	9b2a                	c.add	s6,a0
    6342:	57fd                	c.li	a5,-1
    6344:	ce3e                	c.swsp	a5,28(sp)
    6346:	4441                	c.li	s0,16
    6348:	401d535b          	beqc	s10,65,634e <__printf_float_impl+0x126>
    634c:	4429                	c.li	s0,10
    634e:	885a                	c.mv	a6,s6
    6350:	101c                	c.addi4spn	a5,sp,32
    6352:	4685                	c.li	a3,1
    6354:	85a2                	c.mv	a1,s0
    6356:	0878                	c.addi4spn	a4,sp,28
    6358:	4601                	c.li	a2,0
    635a:	8556                	c.mv	a0,s5
    635c:	3591                	c.jal	61a0 <__print_integral_poly>
    635e:	4582                	c.lwsp	a1,0(sp)
    6360:	02e00793          	li	a5,46
    6364:	001b3b13          	seqz	s6,s6
    6368:	00f50023          	sb	a5,0(a0)
    636c:	0db5fa13          	andi	s4,a1,219
    6370:	00150693          	addi	a3,a0,1
    6374:	87da                	c.mv	a5,s6
    6376:	401a535b          	beqc	s4,65,637c <__printf_float_impl+0x154>
    637a:	4781                	c.li	a5,0
    637c:	00148713          	addi	a4,s1,1
    6380:	973e                	c.add	a4,a5
    6382:	fffd8893          	addi	a7,s11,-1
    6386:	1130                	c.addi4spn	a2,sp,168
    6388:	001d9593          	slli	a1,s11,0x1
    638c:	0bb6065b          	lea.h	a2,a2,s11
    6390:	8846                	c.mv	a6,a7
    6392:	4781                	c.li	a5,0
    6394:	1679                	c.addi	a2,-2
    6396:	16085b63          	bgez	a6,650c <__printf_float_impl+0x2e4>
    639a:	01b05863          	blez	s11,63aa <__printf_float_impl+0x182>
    639e:	1a10                	c.addi4spn	a2,sp,304
    63a0:	962e                	c.add	a2,a1
    63a2:	f7665603          	lhu	a2,-138(a2)
    63a6:	e211                	c.bnez	a2,63aa <__printf_float_impl+0x182>
    63a8:	8dc6                	c.mv	s11,a7
    63aa:	160b0a63          	beqz	s6,651e <__printf_float_impl+0x2f6>
    63ae:	4672                	c.lwsp	a2,28(sp)
    63b0:	0017bb13          	seqz	s6,a5
    63b4:	167d                	c.addi	a2,-1
    63b6:	ce32                	c.swsp	a2,28(sp)
    63b8:	00f68023          	sb	a5,0(a3)
    63bc:	0685                	c.addi	a3,1
    63be:	f371                	c.bnez	a4,6382 <__printf_float_impl+0x15a>
    63c0:	567d625b          	bnec	s10,71,6524 <__printf_float_impl+0x2fc>
    63c4:	47f2                	c.lwsp	a5,28(sp)
    63c6:	fff48713          	addi	a4,s1,-1
    63ca:	1697df63          	bge	a5,s1,6548 <__printf_float_impl+0x320>
    63ce:	5671                	c.li	a2,-4
    63d0:	16c7cc63          	blt	a5,a2,6548 <__printf_float_impl+0x320>
    63d4:	40f704b3          	sub	s1,a4,a5
    63d8:	04600d13          	li	s10,70
    63dc:	0489                	c.addi	s1,2
    63de:	9526                	c.add	a0,s1
    63e0:	fff54683          	lbu	a3,-1(a0)
    63e4:	40145713          	srai	a4,s0,0x1
    63e8:	fff50793          	addi	a5,a0,-1
    63ec:	00e6a6b3          	slt	a3,a3,a4
    63f0:	0016c693          	xori	a3,a3,1
    63f4:	863e                	c.mv	a2,a5
    63f6:	1acaf463          	bgeu	s5,a2,659e <__printf_float_impl+0x376>
    63fa:	18069063          	bnez	a3,657a <__printf_float_impl+0x352>
    63fe:	17fd                	c.addi	a5,-1
    6400:	00178513          	addi	a0,a5,1
    6404:	00faf763          	bgeu	s5,a5,6412 <__printf_float_impl+0x1ea>
    6408:	00098563          	beqz	s3,6412 <__printf_float_impl+0x1ea>
    640c:	0007c703          	lbu	a4,0(a5)
    6410:	d77d                	c.beqz	a4,63fe <__printf_float_impl+0x1d6>
    6412:	fff54783          	lbu	a5,-1(a0)
    6416:	00e7e7db          	bnec	a5,46,6424 <__printf_float_impl+0x1fc>
    641a:	00092783          	lw	a5,0(s2)
    641e:	4047f35b          	bbs	a5,4,6424 <__printf_float_impl+0x1fc>
    6422:	157d                	c.addi	a0,-1
    6424:	46bd                	c.li	a3,15
    6426:	7a10170b          	addigp	a4,4000 # 817a0 <__digits>
    642a:	1aaae863          	bltu	s5,a0,65da <__printf_float_impl+0x3b2>
    642e:	5c5d615b          	bnec	s10,69,65f0 <__printf_float_impl+0x3c8>
    6432:	01a50023          	sb	s10,0(a0)
    6436:	4772                	c.lwsp	a4,28(sp)
    6438:	02b00793          	li	a5,43
    643c:	00075463          	bgez	a4,6444 <__printf_float_impl+0x21c>
    6440:	02d00793          	li	a5,45
    6444:	00f500a3          	sb	a5,1(a0)
    6448:	47f2                	c.lwsp	a5,28(sp)
    644a:	4689                	c.li	a3,2
    644c:	40f00733          	neg	a4,a5
    6450:	f2f7077f          	maxw	a4,a4,a5
    6454:	41f75793          	srai	a5,a4,0x1f
    6458:	4601                	c.li	a2,0
    645a:	45a9                	c.li	a1,10
    645c:	0509                	c.addi	a0,2
    645e:	885ff0ef          	jal	ra,5ce2 <__print_integral>
    6462:	bd81                	c.j	62b2 <__printf_float_impl+0x8a>
    6464:	06804063          	bgtz	s0,64c4 <__printf_float_impl+0x29c>
    6468:	40800433          	neg	s0,s0
    646c:	00445b13          	srli	s6,s0,0x4
    6470:	001b1b93          	slli	s7,s6,0x1
    6474:	865e                	c.mv	a2,s7
    6476:	4581                	c.li	a1,0
    6478:	1128                	c.addi4spn	a0,sp,168
    647a:	2aed                	c.jal	6674 <memset>
    647c:	1134                	c.addi4spn	a3,sp,168
    647e:	883d                	c.andi	s0,15
    6480:	9bb6                	c.add	s7,a3
    6482:	02540413          	addi	s0,s0,37
    6486:	885e                	c.mv	a6,s7
    6488:	4701                	c.li	a4,0
    648a:	4512                	c.lwsp	a0,4(sp)
    648c:	8622                	c.mv	a2,s0
    648e:	8dba                	c.mv	s11,a4
    6490:	85d2                	c.mv	a1,s4
    6492:	0705                	c.addi	a4,1
    6494:	c642                	c.swsp	a6,12(sp)
    6496:	c43a                	c.swsp	a4,8(sp)
    6498:	2c41                	c.jal	6728 <__lshrdi3>
    649a:	4832                	c.lwsp	a6,12(sp)
    649c:	1441                	c.addi	s0,-16
    649e:	00a81023          	sh	a0,0(a6)
    64a2:	4722                	c.lwsp	a4,8(sp)
    64a4:	0809                	c.addi	a6,2
    64a6:	fe0452e3          	bgez	s0,648a <__printf_float_impl+0x262>
    64aa:	0aeb8bdb          	lea.h	s7,s7,a4
    64ae:	40800633          	neg	a2,s0
    64b2:	8562                	c.mv	a0,s8
    64b4:	85d2                	c.mv	a1,s4
    64b6:	0d89                	c.addi	s11,2
    64b8:	9dda                	c.add	s11,s6
    64ba:	2c79                	c.jal	6758 <__ashldi3>
    64bc:	4b01                	c.li	s6,0
    64be:	00ab9023          	sh	a0,0(s7)
    64c2:	b541                	c.j	6342 <__printf_float_impl+0x11a>
    64c4:	03500613          	li	a2,53
    64c8:	8e01                	c.sub	a2,s0
    64ca:	8562                	c.mv	a0,s8
    64cc:	85d2                	c.mv	a1,s4
    64ce:	2ca9                	c.jal	6728 <__lshrdi3>
    64d0:	1010                	c.addi4spn	a2,sp,32
    64d2:	317d                	c.jal	6180 <__int_to_poly>
    64d4:	02500613          	li	a2,37
    64d8:	8b2a                	c.mv	s6,a0
    64da:	40860433          	sub	s0,a2,s0
    64de:	0a810b93          	addi	s7,sp,168
    64e2:	4d81                	c.li	s11,0
    64e4:	0d85                	c.addi	s11,1
    64e6:	00045a63          	bgez	s0,64fa <__printf_float_impl+0x2d2>
    64ea:	40800633          	neg	a2,s0
    64ee:	8562                	c.mv	a0,s8
    64f0:	85d2                	c.mv	a1,s4
    64f2:	249d                	c.jal	6758 <__ashldi3>
    64f4:	00ab9023          	sh	a0,0(s7)
    64f8:	b5a9                	c.j	6342 <__printf_float_impl+0x11a>
    64fa:	4512                	c.lwsp	a0,4(sp)
    64fc:	8622                	c.mv	a2,s0
    64fe:	85d2                	c.mv	a1,s4
    6500:	2425                	c.jal	6728 <__lshrdi3>
    6502:	1441                	c.addi	s0,-16
    6504:	00ab9023          	sh	a0,0(s7)
    6508:	0b89                	c.addi	s7,2
    650a:	bfe9                	c.j	64e4 <__printf_float_impl+0x2bc>
    650c:	00065303          	lhu	t1,0(a2)
    6510:	187d                	c.addi	a6,-1
    6512:	c48317ff          	maddr32	a5,t1,s0
    6516:	00f61023          	sh	a5,0(a2)
    651a:	83c1                	c.srli	a5,0x10
    651c:	bda5                	c.j	6394 <__printf_float_impl+0x16c>
    651e:	177d                	c.addi	a4,-1
    6520:	4b01                	c.li	s6,0
    6522:	bd59                	c.j	63b8 <__printf_float_impl+0x190>
    6524:	8726                	c.mv	a4,s1
    6526:	ea6d5b5b          	beqc	s10,70,63dc <__printf_float_impl+0x1b4>
    652a:	47f2                	c.lwsp	a5,28(sp)
    652c:	001a8613          	addi	a2,s5,1 # c01a0001 <_DATA_LMA_START+0xa0199631>
    6530:	02f04463          	bgtz	a5,6558 <__printf_float_impl+0x330>
    6534:	c785                	c.beqz	a5,655c <__printf_float_impl+0x334>
    6536:	40f507b3          	sub	a5,a0,a5
    653a:	02d7e963          	bltu	a5,a3,656c <__printf_float_impl+0x344>
    653e:	001ac783          	lbu	a5,1(s5)
    6542:	00fa8023          	sb	a5,0(s5)
    6546:	a819                	c.j	655c <__printf_float_impl+0x334>
    6548:	04500d13          	li	s10,69
    654c:	bff9                	c.j	652a <__printf_float_impl+0x302>
    654e:	fff54783          	lbu	a5,-1(a0)
    6552:	157d                	c.addi	a0,-1
    6554:	00f500a3          	sb	a5,1(a0)
    6558:	fec51be3          	bne	a0,a2,654e <__printf_float_impl+0x326>
    655c:	02e00793          	li	a5,46
    6560:	001a8513          	addi	a0,s5,1
    6564:	84ba                	c.mv	s1,a4
    6566:	00fa80a3          	sb	a5,1(s5)
    656a:	bd8d                	c.j	63dc <__printf_float_impl+0x1b4>
    656c:	0007c603          	lbu	a2,0(a5)
    6570:	0785                	c.addi	a5,1
    6572:	0505                	c.addi	a0,1
    6574:	fec50fa3          	sb	a2,-1(a0)
    6578:	b7c9                	c.j	653a <__printf_float_impl+0x312>
    657a:	167d                	c.addi	a2,-1
    657c:	00064703          	lbu	a4,0(a2)
    6580:	a6e75bdb          	beqc	a4,46,63f6 <__printf_float_impl+0x1ce>
    6584:	0705                	c.addi	a4,1
    6586:	0ff77713          	andi	a4,a4,255
    658a:	00875663          	bge	a4,s0,6596 <__printf_float_impl+0x36e>
    658e:	4681                	c.li	a3,0
    6590:	00e60023          	sb	a4,0(a2)
    6594:	b58d                	c.j	63f6 <__printf_float_impl+0x1ce>
    6596:	8f01                	c.sub	a4,s0
    6598:	00e60023          	sb	a4,0(a2)
    659c:	bda9                	c.j	63f6 <__printf_float_impl+0x1ce>
    659e:	873e                	c.mv	a4,a5
    65a0:	e4068fe3          	beqz	a3,63fe <__printf_float_impl+0x1d6>
    65a4:	02eae363          	bltu	s5,a4,65ca <__printf_float_impl+0x3a2>
    65a8:	4705                	c.li	a4,1
    65aa:	00ea8023          	sb	a4,0(s5)
    65ae:	4772                	c.lwsp	a4,28(sp)
    65b0:	0705                	c.addi	a4,1
    65b2:	ce3a                	c.swsp	a4,28(sp)
    65b4:	426d515b          	beqc	s10,70,65d6 <__printf_float_impl+0x3ae>
    65b8:	001ac703          	lbu	a4,1(s5)
    65bc:	00ea8123          	sb	a4,2(s5)
    65c0:	02e00713          	li	a4,46
    65c4:	00ea80a3          	sb	a4,1(s5)
    65c8:	bd1d                	c.j	63fe <__printf_float_impl+0x1d6>
    65ca:	fff74683          	lbu	a3,-1(a4) # fffff <_STACK_TOP+0x5ffff>
    65ce:	177d                	c.addi	a4,-1
    65d0:	00d700a3          	sb	a3,1(a4)
    65d4:	bfc1                	c.j	65a4 <__printf_float_impl+0x37c>
    65d6:	87aa                	c.mv	a5,a0
    65d8:	b51d                	c.j	63fe <__printf_float_impl+0x1d6>
    65da:	000ac783          	lbu	a5,0(s5)
    65de:	00f6e763          	bltu	a3,a5,65ec <__printf_float_impl+0x3c4>
    65e2:	97ba                	c.add	a5,a4
    65e4:	0007c783          	lbu	a5,0(a5)
    65e8:	00fa8023          	sb	a5,0(s5)
    65ec:	0a85                	c.addi	s5,1
    65ee:	bd35                	c.j	642a <__printf_float_impl+0x202>
    65f0:	cc1d615b          	bnec	s10,65,62b2 <__printf_float_impl+0x8a>
    65f4:	05000793          	li	a5,80
    65f8:	00f50023          	sb	a5,0(a0)
    65fc:	4772                	c.lwsp	a4,28(sp)
    65fe:	02b00793          	li	a5,43
    6602:	00075463          	bgez	a4,660a <__printf_float_impl+0x3e2>
    6606:	02d00793          	li	a5,45
    660a:	00f500a3          	sb	a5,1(a0)
    660e:	4772                	c.lwsp	a4,28(sp)
    6610:	4685                	c.li	a3,1
    6612:	40e007b3          	neg	a5,a4
    6616:	f2e787ff          	maxw	a5,a5,a4
    661a:	00279713          	slli	a4,a5,0x2
    661e:	75d7b7db          	bfos	a5,a5,29,29
    6622:	bd1d                	c.j	6458 <__printf_float_impl+0x230>

00006624 <strcpy>:
    6624:	832a                	c.mv	t1,a0
    6626:	00b566b3          	or	a3,a0,a1
    662a:	8a8d                	c.andi	a3,3
    662c:	ee91                	c.bnez	a3,6648 <strcpy+0x24>
    662e:	419c                	c.lw	a5,0(a1)
    6630:	2007875b          	ffb	a4,a5,zero
    6634:	00071a63          	bnez	a4,6648 <strcpy+0x24>
    6638:	0591                	c.addi	a1,4
    663a:	c11c                	c.sw	a5,0(a0)
    663c:	0511                	c.addi	a0,4
    663e:	419c                	c.lw	a5,0(a1)
    6640:	2007875b          	ffb	a4,a5,zero
    6644:	fe070ae3          	beqz	a4,6638 <strcpy+0x14>
    6648:	0005c683          	lbu	a3,0(a1)
    664c:	0585                	c.addi	a1,1
    664e:	00d50023          	sb	a3,0(a0)
    6652:	0505                	c.addi	a0,1
    6654:	faf5                	c.bnez	a3,6648 <strcpy+0x24>
    6656:	851a                	c.mv	a0,t1
    6658:	8082                	c.jr	ra

0000665a <strnlen>:
    665a:	95aa                	c.add	a1,a0
    665c:	87aa                	c.mv	a5,a0
    665e:	00b78563          	beq	a5,a1,6668 <strnlen+0xe>
    6662:	0007c703          	lbu	a4,0(a5)
    6666:	e701                	c.bnez	a4,666e <strnlen+0x14>
    6668:	40a78533          	sub	a0,a5,a0
    666c:	8082                	c.jr	ra
    666e:	0785                	c.addi	a5,1
    6670:	b7fd                	c.j	665e <strnlen+0x4>
	...

00006674 <memset>:
    6674:	832a                	c.mv	t1,a0
    6676:	00c503b3          	add	t2,a0,a2
    667a:	00357693          	andi	a3,a0,3
    667e:	ce81                	c.beqz	a3,6696 <memset+0x22>
    6680:	ffc68693          	addi	a3,a3,-4
    6684:	40d507b3          	sub	a5,a0,a3
    6688:	06f3e463          	bltu	t2,a5,66f0 <memset+0x7c>
    668c:	00b50023          	sb	a1,0(a0)
    6690:	0505                	c.addi	a0,1
    6692:	fea79de3          	bne	a5,a0,668c <memset+0x18>
    6696:	04750d63          	beq	a0,t2,66f0 <memset+0x7c>
    669a:	05e2                	c.slli	a1,0x18
    669c:	0085d793          	srli	a5,a1,0x8
    66a0:	95be                	c.add	a1,a5
    66a2:	0105d793          	srli	a5,a1,0x10
    66a6:	95be                	c.add	a1,a5
    66a8:	40a38633          	sub	a2,t2,a0
    66ac:	02000713          	li	a4,32
    66b0:	fe067693          	andi	a3,a2,-32
    66b4:	00a687b3          	add	a5,a3,a0
    66b8:	e285                	c.bnez	a3,66d8 <memset+0x64>
    66ba:	ffc67693          	andi	a3,a2,-4
    66be:	ca8d                	c.beqz	a3,66f0 <memset+0x7c>
    66c0:	40d70633          	sub	a2,a4,a3
    66c4:	00a687b3          	add	a5,a3,a0
    66c8:	8736                	c.mv	a4,a3
    66ca:	8205                	c.srli	a2,0x1
    66cc:	00000697          	auipc	a3,0x0
    66d0:	00c686b3          	add	a3,a3,a2
    66d4:	00c68067          	jr	12(a3) # 66d8 <memset+0x64>
    66d8:	cd4c                	c.sw	a1,28(a0)
    66da:	cd0c                	c.sw	a1,24(a0)
    66dc:	c94c                	c.sw	a1,20(a0)
    66de:	c90c                	c.sw	a1,16(a0)
    66e0:	c54c                	c.sw	a1,12(a0)
    66e2:	c50c                	c.sw	a1,8(a0)
    66e4:	c14c                	c.sw	a1,4(a0)
    66e6:	c10c                	c.sw	a1,0(a0)
    66e8:	953a                	c.add	a0,a4
    66ea:	fef517e3          	bne	a0,a5,66d8 <memset+0x64>
    66ee:	bf6d                	c.j	66a8 <memset+0x34>
    66f0:	879e                	c.mv	a5,t2
    66f2:	f8751de3          	bne	a0,t2,668c <memset+0x18>
    66f6:	851a                	c.mv	a0,t1
    66f8:	8082                	c.jr	ra

000066fa <_sbrk>:
    66fa:	07c2272b          	lwgp	a4,4220 # 8187c <heap_end.0>
    66fe:	e709                	c.bnez	a4,6708 <_sbrk+0xe>
    6700:	0a82170b          	addigp	a4,4264 # 818a8 <_end>
    6704:	06e24e2b          	swgp	a4,4220 # 8187c <heap_end.0>
    6708:	07c226ab          	lwgp	a3,4220 # 8187c <heap_end.0>
    670c:	00d50733          	add	a4,a0,a3
    6710:	00e17763          	bgeu	sp,a4,671e <_sbrk+0x24>
    6714:	4731                	c.li	a4,12
    6716:	557d                	c.li	a0,-1
    6718:	06e2422b          	swgp	a4,4196 # 81864 <__mculib_REENT_errno>
    671c:	8082                	c.jr	ra
    671e:	8536                	c.mv	a0,a3
    6720:	06e24e2b          	swgp	a4,4220 # 8187c <heap_end.0>
    6724:	8082                	c.jr	ra
	...

00006728 <__lshrdi3>:
    6728:	ce11                	c.beqz	a2,6744 <__lshrdi3+0x1c>
    672a:	02000793          	li	a5,32
    672e:	8f91                	c.sub	a5,a2
    6730:	00f05c63          	blez	a5,6748 <__lshrdi3+0x20>
    6734:	00c55533          	srl	a0,a0,a2
    6738:	00f597b3          	sll	a5,a1,a5
    673c:	00c5d633          	srl	a2,a1,a2
    6740:	8d5d                	c.or	a0,a5
    6742:	85b2                	c.mv	a1,a2
    6744:	00008067          	ret
    6748:	40f00533          	neg	a0,a5
    674c:	4601                	c.li	a2,0
    674e:	00a5d533          	srl	a0,a1,a0
    6752:	85b2                	c.mv	a1,a2
    6754:	bfc5                	c.j	6744 <__lshrdi3+0x1c>
    6756:	0001                	c.nop

00006758 <__ashldi3>:
    6758:	ce11                	c.beqz	a2,6774 <__ashldi3+0x1c>
    675a:	02000793          	li	a5,32
    675e:	8f91                	c.sub	a5,a2
    6760:	00f05c63          	blez	a5,6778 <__ashldi3+0x20>
    6764:	00c595b3          	sll	a1,a1,a2
    6768:	00f557b3          	srl	a5,a0,a5
    676c:	00c51633          	sll	a2,a0,a2
    6770:	8ddd                	c.or	a1,a5
    6772:	8532                	c.mv	a0,a2
    6774:	00008067          	ret
    6778:	40f005b3          	neg	a1,a5
    677c:	4601                	c.li	a2,0
    677e:	00b515b3          	sll	a1,a0,a1
    6782:	8532                	c.mv	a0,a2
    6784:	bfc5                	c.j	6774 <__ashldi3+0x1c>
    6786:	0001                	c.nop
    6788:	0010                	0x10
    678a:	0000                	unimp
    678c:	0000                	unimp
    678e:	0000                	unimp
    6790:	7a01                	c.lui	s4,0xfffe0
    6792:	0052                	c.slli	zero,0x14
    6794:	7c01                	c.lui	s8,0xfffe0
    6796:	0105                	c.addi	sp,1
    6798:	00020d1b          	sext.w	s10,tp
    679c:	0048                	c.addi4spn	a0,sp,4
    679e:	0000                	unimp
    67a0:	0018                	0x18
    67a2:	0000                	unimp
    67a4:	f260                	c.fsw	fs0,100(a2)
    67a6:	0030ffff          	0x30ffff
    67aa:	0000                	unimp
    67ac:	4200                	c.lw	s0,0(a2)
    67ae:	400e                	0x400e
    67b0:	9b44                	exec.it	#876     !
    67b2:	420d                	c.li	tp,3
    67b4:	400e42db          	0x400e42db
    67b8:	9a44                	exec.it	#364     !
    67ba:	420c                	c.lw	a1,0(a2)
    67bc:	0b99                	c.addi	s7,6
    67be:	9842                	c.add	a6,a6
    67c0:	420a                	c.lwsp	tp,128(sp)
    67c2:	d7420997          	auipc	s3,0xd7420
    67c6:	d9d8                	c.sw	a4,52(a1)
    67c8:	dbda                	c.swsp	s6,244(sp)
    67ca:	0e42                	c.slli	t3,0x10
    67cc:	4440                	c.lw	s0,12(s0)
    67ce:	0896                	c.slli	a7,0x5
    67d0:	9542                	c.add	a0,a6
    67d2:	06944207          	flq	ft4,105(s0)
    67d6:	9342                	c.add	t1,a6
    67d8:	4205                	c.li	tp,1
    67da:	0492                	c.slli	s1,0x4
    67dc:	8942                	c.mv	s2,a6
    67de:	02884203          	lbu	tp,40(a6)
    67e2:	8142                	c.mv	sp,a6
    67e4:	0001                	c.nop
    67e6:	0000                	unimp
    67e8:	001c                	0x1c
    67ea:	0000                	unimp
    67ec:	0064                	c.addi4spn	s1,sp,12
    67ee:	0000                	unimp
    67f0:	f244                	c.fsw	fs1,36(a2)
    67f2:	000cffff          	0xcffff
    67f6:	0000                	unimp
    67f8:	4200                	c.lw	s0,0(a2)
    67fa:	100e                	c.slli	zero,0x23
    67fc:	8944                	exec.it	#556     !
    67fe:	4204                	c.lw	s1,0(a2)
    6800:	0288                	c.addi4spn	a0,sp,320
    6802:	8142                	c.mv	sp,a6
    6804:	0001                	c.nop
    6806:	0000                	unimp
    6808:	002c                	c.addi4spn	a1,sp,8
    680a:	0000                	unimp
    680c:	0000                	unimp
    680e:	0000                	unimp
    6810:	7a01                	c.lui	s4,0xfffe0
    6812:	0052                	c.slli	zero,0x14
    6814:	7c01                	c.lui	s8,0xfffe0
    6816:	0101                	c.addi	sp,0
    6818:	0e020d1b          	addiw	s10,tp,224
    681c:	9b40                	exec.it	#868     !
    681e:	9a0d                	c.andi	a2,-29
    6820:	990c                	exec.it	#908     !
    6822:	970a980b          	addigp	a6,-77456 # 6d970 <BIN_SIZE+0x65736>
    6826:	9609                	c.srai	a2,0x22
    6828:	9508                	exec.it	#898     !
    682a:	93069407          	flh	fs0,-1744(a3)
    682e:	9205                	c.srli	a2,0x21
    6830:	8904                	exec.it	#524     !
    6832:	81028803          	lb	a6,-2032(t0)
    6836:	0001                	c.nop
    6838:	0044                	c.addi4spn	s1,sp,4
    683a:	0000                	unimp
    683c:	0034                	c.addi4spn	a3,sp,8
    683e:	0000                	unimp
    6840:	f200                	c.fsw	fs0,32(a2)
    6842:	0024ffff          	0x24ffff
    6846:	0000                	unimp
    6848:	4200                	c.lw	s0,0(a2)
    684a:	0edb42db          	0xedb42db
    684e:	4230                	c.lw	a2,64(a2)
    6850:	42da                	c.lwsp	t0,148(sp)
    6852:	42d9                	c.li	t0,22
    6854:	42d8                	c.lw	a4,4(a3)
    6856:	d8d742d7          	0xd8d742d7
    685a:	dad9                	c.beqz	a3,67f0 <__ashldi3+0x98>
    685c:	42200edb          	0x42200edb
    6860:	42d6                	c.lwsp	t0,84(sp)
    6862:	42d5                	c.li	t0,21
    6864:	42d4                	c.lw	a3,4(a3)
    6866:	d4d342d3          	0xd4d342d3
    686a:	d6d5                	c.beqz	a3,6816 <__ashldi3+0xbe>
    686c:	d9d8                	c.sw	a4,52(a1)
    686e:	dbda                	c.swsp	s6,244(sp)
    6870:	100e                	c.slli	zero,0x23
    6872:	d242                	c.swsp	a6,36(sp)
    6874:	c942                	c.swsp	a6,144(sp)
    6876:	c842                	c.swsp	a6,16(sp)
    6878:	c142                	c.swsp	a6,128(sp)
    687a:	0e42                	c.slli	t3,0x10
    687c:	0000                	unimp
	...
