
NMSIS_DSP_FIR_Benchmark.adx:     file format elf32-littleriscv
NMSIS_DSP_FIR_Benchmark.adx
architecture: riscv:rv32, flags 0x00000112:
EXEC_P, HAS_SYMS, D_PAGED
start address 0x20000000

Program Header:
    LOAD off    0x00001000 vaddr 0x20000000 paddr 0x20000000 align 2**12
         filesz 0x0000018a memsz 0x0000018a flags r-x
    LOAD off    0x00002000 vaddr 0x00000000 paddr 0x20000190 align 2**12
         filesz 0x000001bc memsz 0x000001bc flags rwx
    LOAD off    0x00002200 vaddr 0x00000200 paddr 0x20000350 align 2**12
         filesz 0x000048f4 memsz 0x000048f4 flags r-x
    LOAD off    0x00007000 vaddr 0x00080000 paddr 0x20004c48 align 2**12
         filesz 0x000004c4 memsz 0x000004c4 flags rw-
    LOAD off    0x00007508 vaddr 0x00080508 paddr 0x2000510c align 2**12
         filesz 0x00000022 memsz 0x00000022 flags rw-
    LOAD off    0x000084c8 vaddr 0x000804c8 paddr 0x20005110 align 2**12
         filesz 0x00000000 memsz 0x00000040 flags rw-
0x70000000 off    0x00007573 vaddr 0x00000000 paddr 0x00000000 align 2**0
         filesz 0x00000040 memsz 0x00000000 flags r--

Sections:
Idx Name          Size      VMA       LMA       File off  Algn
  0 .vectors      0000018a  20000000  20000000  00001000  2**2
                  CONTENTS, ALLOC, LOAD, READONLY, CODE
  1 .retention_reset 00000154  00000000  20000190  00002000  2**2
                  CONTENTS, ALLOC, LOAD, READONLY, CODE
  2 .retention_data 00000064  00000158  200002e8  00002158  2**2
                  CONTENTS, ALLOC, LOAD, DATA
  3 .ram_code     000048f4  00000200  20000350  00002200  2**8
                  CONTENTS, ALLOC, LOAD, READONLY, CODE
  4 .data         000004c4  00080000  20004c48  00007000  2**3
                  CONTENTS, ALLOC, LOAD, DATA
  5 .sbss         0000003c  000804c8  20005110  000084c8  2**2
                  ALLOC
  6 .bss          00000004  00080504  2000514c  000084c8  2**2
                  ALLOC
  7 .sdk_version  00000022  00080508  2000510c  00007508  2**2
                  CONTENTS, ALLOC, LOAD, DATA
  8 .comment      00000049  00000000  00000000  0000752a  2**0
                  CONTENTS, READONLY
  9 .riscv.attributes 00000040  00000000  00000000  00007573  2**0
                  CONTENTS, READONLY
 10 .debug_info   00004620  00000000  00000000  000075b3  2**0
                  CONTENTS, READONLY, DEBUGGING
 11 .debug_abbrev 000011b7  00000000  00000000  0000bbd3  2**0
                  CONTENTS, READONLY, DEBUGGING
 12 .debug_loc    00006cb8  00000000  00000000  0000cd8a  2**0
                  CONTENTS, READONLY, DEBUGGING
 13 .debug_aranges 000001a0  00000000  00000000  00013a48  2**3
                  CONTENTS, READONLY, DEBUGGING
 14 .debug_ranges 00000818  00000000  00000000  00013be8  2**0
                  CONTENTS, READONLY, DEBUGGING
 15 .debug_line   0000422c  00000000  00000000  00014400  2**0
                  CONTENTS, READONLY, DEBUGGING
 16 .debug_str    000017ad  00000000  00000000  0001862c  2**0
                  CONTENTS, READONLY, DEBUGGING
 17 .debug_frame  00000268  00000000  00000000  00019ddc  2**2
                  CONTENTS, READONLY, DEBUGGING
SYMBOL TABLE:
20000000 l    d  .vectors	00000000 .vectors
00000000 l    d  .retention_reset	00000000 .retention_reset
00000158 l    d  .retention_data	00000000 .retention_data
00000200 l    d  .ram_code	00000000 .ram_code
00080000 l    d  .data	00000000 .data
000804c8 l    d  .sbss	00000000 .sbss
00080504 l    d  .bss	00000000 .bss
00080508 l    d  .sdk_version	00000000 .sdk_version
00000000 l    d  .comment	00000000 .comment
00000000 l    d  .riscv.attributes	00000000 .riscv.attributes
00000000 l    d  .debug_info	00000000 .debug_info
00000000 l    d  .debug_abbrev	00000000 .debug_abbrev
00000000 l    d  .debug_loc	00000000 .debug_loc
00000000 l    d  .debug_aranges	00000000 .debug_aranges
00000000 l    d  .debug_ranges	00000000 .debug_ranges
00000000 l    d  .debug_line	00000000 .debug_line
00000000 l    d  .debug_str	00000000 .debug_str
00000000 l    d  .debug_frame	00000000 .debug_frame
00000000 l    df *ABS*	00000000 ./boot/cstartup_flash.o
20000028 l       .vectors	00000000 _START
2000008e l       .vectors	00000000 _RETENTION_RESET_INIT
200000a6 l       .vectors	00000000 _RETENTION_RESET_BEGIN
200000b8 l       .vectors	00000000 _RETENTION_DATA_INIT
200000cc l       .vectors	00000000 _RETENTION_DATA_INIT_BEGIN
200000de l       .vectors	00000000 _RAMCODE_INIT
200000f6 l       .vectors	00000000 _RAMCODE_INIT_BEGIN
20000108 l       .vectors	00000000 _DATA_INIT
20000120 l       .vectors	00000000 _DATA_INIT_BEGIN
20000132 l       .vectors	00000000 _ZERO_BSS
20000146 l       .vectors	00000000 _ZERO_BSS_BEGIN
20000152 l       .vectors	00000000 _ZERO_AES
20000166 l       .vectors	00000000 _ZERO_AES_BEGIN
20000172 l       .vectors	00000000 _FILL_STK
20000172 l       .vectors	00000000 _MAIN_FUNC
20000188 l       .vectors	00000000 _END
00000022 l       .retention_reset	00000000 _ISTART
0000002a l       .retention_reset	00000000 _ISWS_USB_DIS
00000088 l       .retention_reset	00000000 _WAKEUP_FLASH
000000a2 l       .retention_reset	00000000 _MSPI_WAIT
000000bc l       .retention_reset	00000000 _WAIT_EFUSE_LOAD_AND_FLASH_WAKEUP_FINISH
000000c2 l       .retention_reset	00000000 _MULTI_ADDRESS_BEGIN
000000d2 l       .retention_reset	00000000 _IZERO_BSS
000000e6 l       .retention_reset	00000000 _IZERO_BSS_BEGIN
000000f2 l       .retention_reset	00000000 _IZERO_AES
00000106 l       .retention_reset	00000000 _IZERO_AES_BEGIN
00000112 l       .retention_reset	00000000 _IFILL_STK
00000112 l       .retention_reset	00000000 _IDATA_INIT
0000012a l       .retention_reset	00000000 _IDATA_INIT_BEGIN
0000013c l       .retention_reset	00000000 _IMAIN_FUNC
00000152 l       .retention_reset	00000000 _IEND
00000040 l       *ABS*	00000000 irqno
00000000 l    df *ABS*	00000000 
00000200 l     F .ram_code	00000020 delay_ms.constprop.12
0000140c l     F .ram_code	000000fc user_calib_adc_vref.constprop.9
00000220 l     F .ram_code	00000044 flash_send_addr
00000264 l     F .ram_code	00000048 flash_send_cmd
000002ac l     F .ram_code	00000060 clock_set_32k_tick
0000030c l     F .ram_code	0000004c analog_read_reg32.constprop.4
00000358 l     F .ram_code	00000024 clock_get_32k_tick
0000037c l     F .ram_code	00000090 pm_stimer_recover
0000040c l     F .ram_code	00000058 plic_exit_critical_sec
00000464 l     F .ram_code	00000060 plic_enter_critical_sec
000004c4 l     F .ram_code	00000180 flash_mspi_read_ram
00001204 l     F .ram_code	00000028 flash_read_uid.constprop.6
0000122c l     F .ram_code	00000028 flash_read_mid
00001254 l     F .ram_code	00000168 flash_read_mid_uid_with_check
00000644 l     F .ram_code	0000014c flash_mspi_read_ram.constprop.7
000013bc l     F .ram_code	00000020 flash_dread
00000790 l     F .ram_code	00000044 analog_write_reg8
000007d4 l     F .ram_code	0000004c analog_read_reg8
00000820 l     F .ram_code	00000140 clock_init_ram.constprop.11
000013dc l     F .ram_code	00000018 clock_init.constprop.10
00001508 l     F .ram_code	00000054 user_calib_freq_offset.constprop.8
00000960 l     F .ram_code	000000b4 pm_wait_bbpll_done
00000a14 l     F .ram_code	00000194 pm_sleep_start
00000ba8 l     F .ram_code	00000120 dr_putchar
00001560 l     F .ram_code	00000018 gpio_input_dis
00000cc8 l     F .ram_code	0000030c pm_sleep_wakeup_ram.constprop.3
000013f4 l     F .ram_code	00000016 pm_sleep_wakeup.constprop.2
00000158 l     O .retention_data	00000004 flash_read_page
0000015c l     O .retention_data	00000001 g_pm_long_suspend
00000160 l     O .retention_data	00000029 pmcd
0000018c l     O .retention_data	00000004 g_pm_tick_32k_calib
00000190 l     O .retention_data	00000004 g_pm_tick_cur
00000194 l     O .retention_data	00000001 g_plic_preempt_en
00000198 l     O .retention_data	00000002 s_flash_preempt_config
0000019a l     O .retention_data	00000001 g_pm_suspend_power_cfg
0000019c l     O .retention_data	00000008 g_pm_early_wakeup_time_us
000001a4 l     O .retention_data	00000004 g_pm_tick_32k_cur
000001a8 l     O .retention_data	00000001 g_pm_tick_update_en
000001ac l     O .retention_data	00000004 g_pm_r_delay_cycle
000001b0 l     O .retention_data	00000008 g_pm_longsleep_early_wakeup_time_us
0008006c l     O .data	00000018 FIR_SIZES
00080084 l     O .data	00000074 firCoeffs32
000800f8 l     O .data	00000010 firCoeffsQ15
000804c8 l     O .sbss	00000004 clkFastfreq
000804cc l     O .sbss	00000004 exception_mcause
000804d0 l     O .sbss	00000004 exception_mdcause
000804d4 l     O .sbss	00000004 exception_mepc
000804d8 l     O .sbss	00000004 exception_mstatus
000804dc l     O .sbss	00000004 exception_mtval
000804e0 l     O .sbss	00000004 g_chip_version
000804e4 l     O .sbss	00000004 g_pm_status_info
000804b4 l     O .data	00000001 init_flag.5287
000804b8 l     O .data	00000006 sys_clk
00080508 l     O .sdk_version	00000022 sdk_version
00000000 l    df *ABS*	00000000 riscv_fir_init_q15.c
00001f50 l       .ram_code	00000000 $x
00000000 l    df *ABS*	00000000 riscv_fir_f32.c
00001f80 l       .ram_code	00000000 $x
00000000 l    df *ABS*	00000000 riscv_fir_init_f32.c
000022f0 l       .ram_code	00000000 $x
00000000 l    df *ABS*	00000000 riscv_fir_q15.c
0000231c l       .ram_code	00000000 $x
00000000 l    df *ABS*	00000000 calloc.c
00000000 l    df *ABS*	00000000 malloc.c
00000000 l    df *ABS*	00000000 nano-mallocr.c
00000000 l    df *ABS*	00000000 nano-mallocr.c
00000000 l    df *ABS*	00000000 nano-mallocr.c
00000000 l    df *ABS*	00000000 printf.c
00000000 l    df *ABS*	00000000 puts.c
00000000 l    df *ABS*	00000000 strlen.c
00000000 l    df *ABS*	00000000 vprintf.c
0000288c l     F .ram_code	0000003a __vprintf_help
000804f4 l     O .sbss	00000004 __vprintf_buf
000804f8 l     O .sbss	00000004 __vprintf_buf_len
00000000 l    df *ABS*	00000000 printf_impl.c
00000000 l    df *ABS*	00000000 printf_impl_float.c
00000000 l    df *ABS*	00000000 strcpy.c
00000000 l    df *ABS*	00000000 strnlen.c
00000000 l    df *ABS*	00000000 sinf.c
00000000 l    df *ABS*	00000000 ref_rredf.c
00080414 l     O .data	00000020 twooverpi.2618
00000000 l    df *ABS*	00000000 divdf3.c
00000000 l    df *ABS*	00000000 muldf3.c
00000000 l    df *ABS*	00000000 fixunsdfsi.c
00000000 l    df *ABS*	00000000 floatsidf.c
00000000 l    df *ABS*	00000000 extendsfdf2.c
00000000 l    df *ABS*	00000000 truncdfsf2.c
00000000 l    df *ABS*	00000000 _sbrk.c
00080500 l     O .sbss	00000004 heap_end.2408
00000000 l    df *ABS*	00000000 libgcc2.c
00000000 l    df *ABS*	00000000 libgcc2.c
00000000 l    df *ABS*	00000000 printf_data.c
00000000 l    df *ABS*	00000000 impure.c
00080504 l     O .bss	00000000 impure_data
00001f48  w      .ram_code	00000000 entry_irq55
00001f48  w      .ram_code	00000000 entry_irq13
00003288 g     F .ram_code	0000007c strcpy
00001f48  w      .ram_code	00000000 entry_irq15
0000496c g     F .ram_code	0000002e .hidden __ashldi3
00001f48  w      .ram_code	00000000 entry_irq27
00001f48  w      .ram_code	00000000 entry_irq60
00001f48  w      .ram_code	00000000 entry_irq1
00001f48  w      .ram_code	00000000 entry_irq52
00001f48  w      .ram_code	00000000 entry_irq50
00001f48  w      .ram_code	00000000 entry_irq62
000027d8 g     F .ram_code	0000001e printf
00080800 g       .data	00000000 __global_pointer$
000049a4 g       .ram_code	00000000 .hidden __riscv_save_8
00001f48  w      .ram_code	00000000 entry_irq58
000049f0 g       .ram_code	00000000 .hidden __riscv_restore_3
000001bc g       .retention_data	00000000 _RETENTION_DATA_VMA_END
000049dc g       .ram_code	00000000 .hidden __riscv_restore_10
000049a4 g       .ram_code	00000000 .hidden __riscv_save_11
00002912 g     F .ram_code	00000048 __print_integral
00000000 g       .retention_reset	00000000 _RETENTION_RESET_VMA_START
00001f48  w      .ram_code	00000000 entry_irq10
00001f48  w      .ram_code	00000000 entry_irq21
00000158 g       .retention_data	00000000 _AES_VMA_START
0000347c g     F .ram_code	0000013a ref__mathlib_rredf2
00001f48  w      .ram_code	00000000 entry_irq48
000049f0 g       .ram_code	00000000 .hidden __riscv_restore_2
00001f48  w      .ram_code	00000000 entry_irq8
00001f48  w      .ram_code	00000000 entry_irq33
00080508 g       .bss	00000000 _BSS_VMA_END
20000190 g       *ABS*	00000000 _RETENTION_RESET_LMA_START
00004488 g     F .ram_code	0000007a .hidden __floatsidf
00080000 g     O .data	0000001c cst_libm_sincosf
0000295a g     F .ram_code	00000470 __printf_impl
00001f48  w      .ram_code	00000000 entry_irq12
000027f6 g     F .ram_code	00000034 puts
00002656 g     F .ram_code	00000010 malloc
00001f48  w      .ram_code	00000000 entry_irq14
0000499c g       .ram_code	00000000 .hidden __riscv_save_12
000043f0 g     F .ram_code	00000096 .hidden __fixunsdfsi
00001f48  w      .ram_code	00000000 entry_irq2
00001f48  w      .ram_code	00000000 entry_irq51
000049dc g       .ram_code	00000000 .hidden __riscv_restore_11
00001f48  w      .ram_code	00000000 entry_irq28
00001f48  w      .ram_code	00000000 entry_irq43
000049cc g       .ram_code	00000000 .hidden __riscv_save_1
000049f0 g       .ram_code	00000000 .hidden __riscv_restore_0
00001f48  w      .ram_code	00000000 entry_irq20
00001f80  w    F .ram_code	00000370 riscv_fir_f32
000049b2 g       .ram_code	00000000 .hidden __riscv_save_7
000804c8 g       .sbss	00000000 _BSS_VMA_START
00001f48  w      .ram_code	00000000 entry_irq63
000804c4 g       .data	00000000 _DATA_VMA_END
00004504 g     F .ram_code	00000110 .hidden __extendsfdf2
00001f48  w      .ram_code	00000000 entry_irq46
00001f48  w      .ram_code	00000000 entry_irq31
00001f48  w      .ram_code	00000000 entry_irq16
00100000 g       *ABS*	00000000 FLASH_SIZE
000049e6 g       .ram_code	00000000 .hidden __riscv_restore_5
00080000 g       .data	00000000 _DATA_VMA_START
00004914  w    F .ram_code	00000028 _sbrk
00001f48  w      .ram_code	00000000 entry_irq53
00001f48  w      .ram_code	00000000 entry_irq11
000803fc g     O .data	00000018 cst_libm_rredf
00000154 g       .retention_reset	00000000 _RETENTION_RESET_VMA_END
00003306 g     F .ram_code	00000018 strnlen
000049e6 g       .ram_code	00000000 .hidden __riscv_restore_6
00001f48  w      .ram_code	00000000 entry_irq5
00002644 g     F .ram_code	00000012 calloc
00001f48  w      .ram_code	00000000 entry_irq23
00001f4a  w      .ram_code	00000000 trap_handler
00001f48  w      .ram_code	00000000 entry_irq34
00001f50  w    F .ram_code	0000002e riscv_fir_init_q15
0000493c g     F .ram_code	0000002e .hidden __lshrdi3
00001f48  w      .ram_code	00000000 entry_irq36
000049a4 g       .ram_code	00000000 .hidden __riscv_save_9
00001f48  w      .ram_code	00000000 entry_irq44
000028c6 g     F .ram_code	0000004c vprintf
00001f48  w      .ram_code	00000000 entry_irq45
00001f48  w      .ram_code	00000000 entry_irq26
000049b2 g       .ram_code	00000000 .hidden __riscv_save_4
000022f0  w    F .ram_code	0000002a riscv_fir_init_f32
00001f48  w      .ram_code	00000000 entry_irq41
00001f48  w      .ram_code	00000000 entry_irq61
20000000 g       .vectors	00000000 BIN_BEGIN
00002698 g     F .ram_code	00000090 _free_r
000049cc g       .ram_code	00000000 .hidden __riscv_save_3
00001f48  w      .ram_code	00000000 entry_irq38
00001100 g       .ram_code	00000000 __vectors
0000512e g       *ABS*	00000000 BIN_SIZE
000803cc g     O .data	00000010 __digits
20000350 g       *ABS*	00000000 _RAMCODE_LMA_START
000804fc g     O .sbss	00000004 __printf_count
00001f48  w      .ram_code	00000000 entry_irq59
000035b8 g     F .ram_code	000007ea .hidden __divdf3
00001f48  w      .ram_code	00000000 entry_irq6
00003da4 g     F .ram_code	00000648 .hidden __muldf3
000049a4 g       .ram_code	00000000 .hidden __riscv_save_10
000804e8 g     O .sbss	00000004 __mculib_REENT_errno
20004c48 g       *ABS*	00000000 _DATA_LMA_START
00002de8 g     F .ram_code	00000092 __print_integral_poly
20000000 g       *ABS*	00000000 NDS_SAG_LMA_FLASH
000049e6 g       .ram_code	00000000 .hidden __riscv_restore_4
000049dc g       .ram_code	00000000 .hidden __riscv_restore_8
000049b2 g       .ram_code	00000000 .hidden __riscv_save_6
00002676 g     F .ram_code	00000022 _calloc_r
20000000  w      .vectors	00000000 _RELAX_END_
00002e7a g     F .ram_code	0000040e __printf_float_impl
0000259c g     F .ram_code	000000a8 memset
000049dc g       .ram_code	00000000 .hidden __riscv_restore_9
000049e6 g       .ram_code	00000000 .hidden __riscv_restore_7
000015c4 g     F .ram_code	00000980 main
00001f48 g       .ram_code	00000000 default_irq_entry
00001f48  w      .ram_code	00000000 entry_irq3
00000fd4 g     F .ram_code	00000100 trap_entry
00000158 g       .retention_data	00000000 _AES_VMA_END
00004614 g     F .ram_code	00000300 .hidden __truncdfsf2
00001f48  w      .ram_code	00000000 entry_irq39
00001f48  w      .ram_code	00000000 entry_irq49
00002728 g     F .ram_code	000000b0 _malloc_r
00001f48  w      .ram_code	00000000 entry_irq57
00001f48  w      .ram_code	00000000 entry_irq47
200002e8 g       *ABS*	00000000 _RETENTION_DATA_LMA_START
20000000 g     F .vectors	00000000 _RESET_ENTRY
00000158 g       .retention_data	00000000 _RETENTION_DATA_VMA_START
00001f48  w      .ram_code	00000000 entry_irq4
000a0000 g       *ABS*	00000000 _STACK_TOP
00001f48  w      .ram_code	00000000 entry_irq22
00001f48  w      .ram_code	00000000 entry_irq30
000804c0 g     O .data	00000004 _impure_ptr
00001f48  w      .ram_code	00000000 entry_irq42
00001f48  w      .ram_code	00000000 entry_irq24
00003320 g     F .ram_code	0000015a sinf
000049cc g       .ram_code	00000000 .hidden __riscv_save_2
00004af4 g       .ram_code	00000000 _RAMCODE_VMA_END
00000000  w      *ABS*	00000000 _ITB_BASE_
000049b2 g       .ram_code	00000000 .hidden __riscv_save_5
00001f48  w      .ram_code	00000000 entry_irq19
0000157c g     F .ram_code	00000048 _write
00080530 g       .sdk_version	00000000 _end
00001f48  w      .ram_code	00000000 entry_irq17
00001f48  w      .ram_code	00000000 entry_irq9
0000231c  w    F .ram_code	00000280 riscv_fir_q15
00001f48  w      .ram_code	00000000 entry_irq56
00001f48  w      .ram_code	00000000 entry_irq35
00001f48  w      .ram_code	00000000 entry_irq37
000001b8 g     O .retention_data	00000004 g_pm_mspi_cfg
00001f48  w      .ram_code	00000000 entry_irq54
00001f48  w      .ram_code	00000000 entry_irq40
000049d8 g       .ram_code	00000000 .hidden __riscv_restore_12
00000200 g       .ram_code	00000000 _RAMCODE_VMA_START
000049cc g       .ram_code	00000000 .hidden __riscv_save_0
0000282c g     F .ram_code	0000005e strlen
00001f48  w      .ram_code	00000000 entry_irq29
000804f0 g     O .sbss	00000004 __malloc_sbrk_start
000804ec g     O .sbss	00000004 __malloc_free_list
000049f0 g       .ram_code	00000000 .hidden __riscv_restore_1
00001f48  w      .ram_code	00000000 entry_irq7
00001f48  w      .ram_code	00000000 entry_irq32
00000000 g     F .retention_reset	00000000 _IRESET_ENTRY
00001f48  w      .ram_code	00000000 entry_irq18
00002dca g     F .ram_code	0000001e __int_to_poly
00002666 g     F .ram_code	00000010 free
00001f48  w      .ram_code	00000000 entry_irq25



Disassembly of section .vectors:

20000000 <_RESET_ENTRY>:
20000000:	a025                	c.j	20000028 <_START>
	...
20000016:	0000                	unimp
20000018:	512e                	c.lwsp	sp,232(sp)
2000001a:	0000                	unimp
2000001c:	0000                	unimp
2000001e:	0000                	unimp
20000020:	544c4e4b          	fnmsub.h	ft8,fs8,ft4,fa0,rmm
20000024:	0000                	unimp
20000026:	          	sllw	a4,zero,zero

20000028 <_START>:
20000028:	e0080197          	auipc	gp,0xe0080
2000002c:	7d818193          	addi	gp,gp,2008 # 80800 <__global_pointer$>
20000030:	801002b7          	lui	t0,0x80100
20000034:	70028293          	addi	t0,t0,1792 # 80100700 <_DATA_LMA_START+0x600fbab8>
20000038:	04000313          	li	t1,64
2000003c:	506280a3          	sb	t1,1281(t0)
20000040:	e00a0297          	auipc	t0,0xe00a0
20000044:	fc028293          	addi	t0,t0,-64 # a0000 <_STACK_TOP>
20000048:	8116                	c.mv	sp,t0
2000004a:	e0000297          	auipc	t0,0xe0000
2000004e:	fb628293          	addi	t0,t0,-74 # 0 <_ITB_BASE_>
20000052:	80029073          	csrw	uitb,t0
20000056:	6299                	c.lui	t0,0x6
20000058:	3002a2f3          	csrrs	t0,mstatus,t0
2000005c:	00301073          	fssr	zero
20000060:	e0001297          	auipc	t0,0xe0001
20000064:	0a028293          	addi	t0,t0,160 # 1100 <__vectors>
20000068:	30529073          	csrw	mtvec,t0
2000006c:	7d016073          	csrsi	mmisc_ctl,2
20000070:	e40002b7          	lui	t0,0xe4000
20000074:	4309                	c.li	t1,2
20000076:	0062a023          	sw	t1,0(t0) # e4000000 <_DATA_LMA_START+0xc3ffb3b8>
2000007a:	7ca022f3          	csrr	t0,mcache_ctl
2000007e:	0012e293          	ori	t0,t0,1
20000082:	0022e293          	ori	t0,t0,2
20000086:	7ca29073          	csrw	mcache_ctl,t0
2000008a:	0000100f          	fence.i

2000008e <_RETENTION_RESET_INIT>:
2000008e:	00000317          	auipc	t1,0x0
20000092:	10230313          	addi	t1,t1,258 # 20000190 <_RETENTION_RESET_LMA_START>
20000096:	e0000397          	auipc	t2,0xe0000
2000009a:	f6a38393          	addi	t2,t2,-150 # 0 <_ITB_BASE_>
2000009e:	e0000e17          	auipc	t3,0xe0000
200000a2:	0b6e0e13          	addi	t3,t3,182 # 154 <_RETENTION_RESET_VMA_END>

200000a6 <_RETENTION_RESET_BEGIN>:
200000a6:	01c3f963          	bgeu	t2,t3,200000b8 <_RETENTION_DATA_INIT>
200000aa:	00032283          	lw	t0,0(t1)
200000ae:	0053a023          	sw	t0,0(t2)
200000b2:	0311                	c.addi	t1,4
200000b4:	0391                	c.addi	t2,4
200000b6:	bfc5                	c.j	200000a6 <_RETENTION_RESET_BEGIN>

200000b8 <_RETENTION_DATA_INIT>:
200000b8:	00000317          	auipc	t1,0x0
200000bc:	23030313          	addi	t1,t1,560 # 200002e8 <_RETENTION_DATA_LMA_START>
200000c0:	15800393          	li	t2,344
200000c4:	e0000e17          	auipc	t3,0xe0000
200000c8:	0f8e0e13          	addi	t3,t3,248 # 1bc <_RETENTION_DATA_VMA_END>

200000cc <_RETENTION_DATA_INIT_BEGIN>:
200000cc:	01c3f963          	bgeu	t2,t3,200000de <_RAMCODE_INIT>
200000d0:	00032283          	lw	t0,0(t1)
200000d4:	0053a023          	sw	t0,0(t2)
200000d8:	0311                	c.addi	t1,4
200000da:	0391                	c.addi	t2,4
200000dc:	bfc5                	c.j	200000cc <_RETENTION_DATA_INIT_BEGIN>

200000de <_RAMCODE_INIT>:
200000de:	00000317          	auipc	t1,0x0
200000e2:	27230313          	addi	t1,t1,626 # 20000350 <_RAMCODE_LMA_START>
200000e6:	e0000397          	auipc	t2,0xe0000
200000ea:	11a38393          	addi	t2,t2,282 # 200 <delay_ms.constprop.12>
200000ee:	e0005e17          	auipc	t3,0xe0005
200000f2:	a06e0e13          	addi	t3,t3,-1530 # 4af4 <_RAMCODE_VMA_END>

200000f6 <_RAMCODE_INIT_BEGIN>:
200000f6:	01c3f963          	bgeu	t2,t3,20000108 <_DATA_INIT>
200000fa:	00032283          	lw	t0,0(t1)
200000fe:	0053a023          	sw	t0,0(t2)
20000102:	0311                	c.addi	t1,4
20000104:	0391                	c.addi	t2,4
20000106:	bfc5                	c.j	200000f6 <_RAMCODE_INIT_BEGIN>

20000108 <_DATA_INIT>:
20000108:	00005317          	auipc	t1,0x5
2000010c:	b4030313          	addi	t1,t1,-1216 # 20004c48 <_DATA_LMA_START>
20000110:	e0080397          	auipc	t2,0xe0080
20000114:	ef038393          	addi	t2,t2,-272 # 80000 <cst_libm_sincosf>
20000118:	e0080e17          	auipc	t3,0xe0080
2000011c:	3ace0e13          	addi	t3,t3,940 # 804c4 <_DATA_VMA_END>

20000120 <_DATA_INIT_BEGIN>:
20000120:	01c3f963          	bgeu	t2,t3,20000132 <_ZERO_BSS>
20000124:	00032283          	lw	t0,0(t1)
20000128:	0053a023          	sw	t0,0(t2)
2000012c:	0311                	c.addi	t1,4
2000012e:	0391                	c.addi	t2,4
20000130:	bfc5                	c.j	20000120 <_DATA_INIT_BEGIN>

20000132 <_ZERO_BSS>:
20000132:	000002b7          	lui	t0,0x0
20000136:	e0080397          	auipc	t2,0xe0080
2000013a:	39238393          	addi	t2,t2,914 # 804c8 <_BSS_VMA_START>
2000013e:	e0080e17          	auipc	t3,0xe0080
20000142:	3cae0e13          	addi	t3,t3,970 # 80508 <_BSS_VMA_END>

20000146 <_ZERO_BSS_BEGIN>:
20000146:	01c3f663          	bgeu	t2,t3,20000152 <_ZERO_AES>
2000014a:	0053a023          	sw	t0,0(t2)
2000014e:	0391                	c.addi	t2,4
20000150:	bfdd                	c.j	20000146 <_ZERO_BSS_BEGIN>

20000152 <_ZERO_AES>:
20000152:	000002b7          	lui	t0,0x0
20000156:	e0000397          	auipc	t2,0xe0000
2000015a:	00238393          	addi	t2,t2,2 # 158 <_AES_VMA_END>
2000015e:	e0000e17          	auipc	t3,0xe0000
20000162:	ffae0e13          	addi	t3,t3,-6 # 158 <_AES_VMA_END>

20000166 <_ZERO_AES_BEGIN>:
20000166:	01c3f663          	bgeu	t2,t3,20000172 <_FILL_STK>
2000016a:	0053a023          	sw	t0,0(t2)
2000016e:	0391                	c.addi	t2,4
20000170:	bfdd                	c.j	20000166 <_ZERO_AES_BEGIN>

20000172 <_FILL_STK>:
20000172:	0001                	c.nop
20000174:	e0001297          	auipc	t0,0xe0001
20000178:	45028293          	addi	t0,t0,1104 # 15c4 <main>
2000017c:	9282                	c.jalr	t0
2000017e:	0001                	c.nop
20000180:	0001                	c.nop
20000182:	0001                	c.nop
20000184:	0001                	c.nop
20000186:	0001                	c.nop

20000188 <_END>:
20000188:	a001                	c.j	20000188 <_END>

Disassembly of section .retention_reset:

00000000 <_IRESET_ENTRY>:
   0:	a00d                	c.j	22 <_ISTART>
	...

00000022 <_ISTART>:
  22:	00080197          	auipc	gp,0x80
  26:	7de18193          	addi	gp,gp,2014 # 80800 <__global_pointer$>

0000002a <_ISWS_USB_DIS>:
  2a:	801002b7          	lui	t0,0x80100
  2e:	70028293          	addi	t0,t0,1792 # 80100700 <_DATA_LMA_START+0x600fbab8>
  32:	04000313          	li	t1,64
  36:	506280a3          	sb	t1,1281(t0)
  3a:	000a0297          	auipc	t0,0xa0
  3e:	fc628293          	addi	t0,t0,-58 # a0000 <_STACK_TOP>
  42:	8116                	c.mv	sp,t0
  44:	00000297          	auipc	t0,0x0
  48:	fbc28293          	addi	t0,t0,-68 # 0 <_IRESET_ENTRY>
  4c:	80029073          	csrw	uitb,t0
  50:	6299                	c.lui	t0,0x6
  52:	3002a2f3          	csrrs	t0,mstatus,t0
  56:	00301073          	fssr	zero
  5a:	00001297          	auipc	t0,0x1
  5e:	0a628293          	addi	t0,t0,166 # 1100 <__vectors>
  62:	30529073          	csrw	mtvec,t0
  66:	7d016073          	csrsi	mmisc_ctl,2
  6a:	e40002b7          	lui	t0,0xe4000
  6e:	4309                	c.li	t1,2
  70:	0062a023          	sw	t1,0(t0) # e4000000 <_DATA_LMA_START+0xc3ffb3b8>
  74:	7ca022f3          	csrr	t0,mcache_ctl
  78:	0012e293          	ori	t0,t0,1
  7c:	0022e293          	ori	t0,t0,2
  80:	7ca29073          	csrw	mcache_ctl,t0
  84:	0000100f          	fence.i

00000088 <_WAKEUP_FLASH>:
  88:	801402b7          	lui	t0,0x80140
  8c:	0ff00313          	li	t1,255
  90:	4381                	c.li	t2,0
  92:	0ab00e13          	li	t3,171
  96:	326284a3          	sb	t1,809(t0) # 80140329 <_DATA_LMA_START+0x6013b6e1>
  9a:	107280a3          	sb	t2,257(t0)
  9e:	11c28023          	sb	t3,256(t0)

000000a2 <_MSPI_WAIT>:
  a2:	801402b7          	lui	t0,0x80140
  a6:	10228383          	lb	t2,258(t0) # 80140102 <_DATA_LMA_START+0x6013b4ba>
  aa:	4e05                	c.li	t3,1
  ac:	4ec1                	c.li	t4,16
  ae:	fe7e0ae3          	beq	t3,t2,a2 <_MSPI_WAIT>
  b2:	11d280a3          	sb	t4,257(t0)
  b6:	4281                	c.li	t0,0
  b8:	14000313          	li	t1,320

000000bc <_WAIT_EFUSE_LOAD_AND_FLASH_WAKEUP_FINISH>:
  bc:	0285                	c.addi	t0,1
  be:	fe537fe3          	bgeu	t1,t0,bc <_WAIT_EFUSE_LOAD_AND_FLASH_WAKEUP_FINISH>

000000c2 <_MULTI_ADDRESS_BEGIN>:
  c2:	801402b7          	lui	t0,0x80140
  c6:	1b800313          	li	t1,440
  ca:	00032383          	lw	t2,0(t1)
  ce:	1072a223          	sw	t2,260(t0) # 80140104 <_DATA_LMA_START+0x6013b4bc>

000000d2 <_IZERO_BSS>:
  d2:	000002b7          	lui	t0,0x0
  d6:	00080397          	auipc	t2,0x80
  da:	3f238393          	addi	t2,t2,1010 # 804c8 <_BSS_VMA_START>
  de:	00080e17          	auipc	t3,0x80
  e2:	42ae0e13          	addi	t3,t3,1066 # 80508 <_BSS_VMA_END>

000000e6 <_IZERO_BSS_BEGIN>:
  e6:	01c3f663          	bgeu	t2,t3,f2 <_IZERO_AES>
  ea:	0053a023          	sw	t0,0(t2)
  ee:	0391                	c.addi	t2,4
  f0:	bfdd                	c.j	e6 <_IZERO_BSS_BEGIN>

000000f2 <_IZERO_AES>:
  f2:	000002b7          	lui	t0,0x0
  f6:	00000397          	auipc	t2,0x0
  fa:	06238393          	addi	t2,t2,98 # 158 <_AES_VMA_END>
  fe:	00000e17          	auipc	t3,0x0
 102:	05ae0e13          	addi	t3,t3,90 # 158 <_AES_VMA_END>

00000106 <_IZERO_AES_BEGIN>:
 106:	01c3f663          	bgeu	t2,t3,112 <_IDATA_INIT>
 10a:	0053a023          	sw	t0,0(t2)
 10e:	0391                	c.addi	t2,4
 110:	bfdd                	c.j	106 <_IZERO_AES_BEGIN>

00000112 <_IDATA_INIT>:
 112:	20005317          	auipc	t1,0x20005
 116:	b3630313          	addi	t1,t1,-1226 # 20004c48 <_DATA_LMA_START>
 11a:	00080397          	auipc	t2,0x80
 11e:	ee638393          	addi	t2,t2,-282 # 80000 <cst_libm_sincosf>
 122:	00080e17          	auipc	t3,0x80
 126:	3a2e0e13          	addi	t3,t3,930 # 804c4 <_DATA_VMA_END>

0000012a <_IDATA_INIT_BEGIN>:
 12a:	01c3f963          	bgeu	t2,t3,13c <_IMAIN_FUNC>
 12e:	00032283          	lw	t0,0(t1)
 132:	0053a023          	sw	t0,0(t2)
 136:	0311                	c.addi	t1,4
 138:	0391                	c.addi	t2,4
 13a:	bfc5                	c.j	12a <_IDATA_INIT_BEGIN>

0000013c <_IMAIN_FUNC>:
 13c:	0001                	c.nop
 13e:	00001297          	auipc	t0,0x1
 142:	48628293          	addi	t0,t0,1158 # 15c4 <main>
 146:	9282                	c.jalr	t0
 148:	0001                	c.nop
 14a:	0001                	c.nop
 14c:	0001                	c.nop
 14e:	0001                	c.nop
 150:	0001                	c.nop

00000152 <_IEND>:
 152:	a001                	c.j	152 <_IEND>

Disassembly of section .ram_code:

00000200 <delay_ms.constprop.12>:
     200:	801407b7          	lui	a5,0x80140
     204:	0004e737          	lui	a4,0x4e
     208:	2007a603          	lw	a2,512(a5) # 80140200 <_DATA_LMA_START+0x6013b5b8>
     20c:	801406b7          	lui	a3,0x80140
     210:	20070713          	addi	a4,a4,512 # 4e200 <BIN_SIZE+0x490d2>
     214:	2006a783          	lw	a5,512(a3) # 80140200 <_DATA_LMA_START+0x6013b5b8>
     218:	8f91                	c.sub	a5,a2
     21a:	fef77de3          	bgeu	a4,a5,214 <delay_ms.constprop.12+0x14>
     21e:	8082                	c.jr	ra

00000220 <flash_send_addr>:
     220:	5d05275b          	bfoz	a4,a0,23,16
     224:	801407b7          	lui	a5,0x80140
     228:	801406b7          	lui	a3,0x80140
     22c:	10e78023          	sb	a4,256(a5) # 80140100 <_DATA_LMA_START+0x6013b4b8>
     230:	10268783          	lb	a5,258(a3) # 80140102 <_DATA_LMA_START+0x6013b4ba>
     234:	fe07fe5b          	bbs	a5,0,230 <flash_send_addr+0x10>
     238:	3c8527db          	bfoz	a5,a0,15,8
     23c:	80140737          	lui	a4,0x80140
     240:	10f68023          	sb	a5,256(a3)
     244:	10270783          	lb	a5,258(a4) # 80140102 <_DATA_LMA_START+0x6013b4ba>
     248:	fe07fe5b          	bbs	a5,0,244 <flash_send_addr+0x24>
     24c:	0ff57513          	andi	a0,a0,255
     250:	801406b7          	lui	a3,0x80140
     254:	10a70023          	sb	a0,256(a4)
     258:	10268783          	lb	a5,258(a3) # 80140102 <_DATA_LMA_START+0x6013b4ba>
     25c:	fe07fe5b          	bbs	a5,0,258 <flash_send_addr+0x38>
     260:	00008067          	ret

00000264 <flash_send_cmd>:
     264:	801407b7          	lui	a5,0x80140
     268:	10178703          	lb	a4,257(a5) # 80140101 <_DATA_LMA_START+0x6013b4b9>
     26c:	0ff77713          	andi	a4,a4,255
     270:	01076713          	ori	a4,a4,16
     274:	10e780a3          	sb	a4,257(a5)
     278:	0001                	c.nop
     27a:	0001                	c.nop
     27c:	0001                	c.nop
     27e:	0001                	c.nop
     280:	0001                	c.nop
     282:	0001                	c.nop
     284:	0001                	c.nop
     286:	0001                	c.nop
     288:	0001                	c.nop
     28a:	0001                	c.nop
     28c:	10178683          	lb	a3,257(a5)
     290:	80140737          	lui	a4,0x80140
     294:	0ef6f693          	andi	a3,a3,239
     298:	10d780a3          	sb	a3,257(a5)
     29c:	10a78023          	sb	a0,256(a5)
     2a0:	10270783          	lb	a5,258(a4) # 80140102 <_DATA_LMA_START+0x6013b4ba>
     2a4:	fe07fe5b          	bbs	a5,0,2a0 <flash_send_cmd+0x3c>
     2a8:	00008067          	ret

000002ac <clock_set_32k_tick>:
     2ac:	801406b7          	lui	a3,0x80140
     2b0:	20a68783          	lb	a5,522(a3) # 8014020a <_DATA_LMA_START+0x6013b5c2>
     2b4:	80140737          	lui	a4,0x80140
     2b8:	0ff7f793          	andi	a5,a5,255
     2bc:	0017e793          	ori	a5,a5,1
     2c0:	20f68523          	sb	a5,522(a3)
     2c4:	20b70683          	lb	a3,523(a4) # 8014020b <_DATA_LMA_START+0x6013b5c3>
     2c8:	20b70793          	addi	a5,a4,523
     2cc:	fe66fc5b          	bbs	a3,6,2c4 <clock_set_32k_tick+0x18>
     2d0:	20a72623          	sw	a0,524(a4)
     2d4:	4721                	c.li	a4,8
     2d6:	00e78023          	sb	a4,0(a5)
     2da:	0001                	c.nop
     2dc:	0001                	c.nop
     2de:	0001                	c.nop
     2e0:	0001                	c.nop
     2e2:	0001                	c.nop
     2e4:	0001                	c.nop
     2e6:	0001                	c.nop
     2e8:	0001                	c.nop
     2ea:	0001                	c.nop
     2ec:	0001                	c.nop
     2ee:	0001                	c.nop
     2f0:	0001                	c.nop
     2f2:	0001                	c.nop
     2f4:	0001                	c.nop
     2f6:	0001                	c.nop
     2f8:	00000013          	nop
     2fc:	801407b7          	lui	a5,0x80140
     300:	20b78703          	lb	a4,523(a5) # 8014020b <_DATA_LMA_START+0x6013b5c3>
     304:	fe377e5b          	bbs	a4,3,300 <clock_set_32k_tick+0x54>
     308:	00008067          	ret

0000030c <analog_read_reg32.constprop.4>:
     30c:	300027f3          	csrr	a5,mstatus
     310:	8ba1                	c.andi	a5,8
     312:	c789                	c.beqz	a5,31c <analog_read_reg32.constprop.4+0x10>
     314:	30047773          	csrrci	a4,mstatus,8
     318:	0ff0000f          	fence
     31c:	80140737          	lui	a4,0x80140
     320:	00400693          	li	a3,4
     324:	18d701a3          	sb	a3,387(a4) # 80140183 <_DATA_LMA_START+0x6013b53b>
     328:	06000693          	li	a3,96
     32c:	18d70023          	sb	a3,384(a4)
     330:	04000613          	li	a2,64
     334:	801406b7          	lui	a3,0x80140
     338:	18c70123          	sb	a2,386(a4)
     33c:	18268703          	lb	a4,386(a3) # 80140182 <_DATA_LMA_START+0x6013b53a>
     340:	fe777e5b          	bbs	a4,7,33c <analog_read_reg32.constprop.4+0x30>
     344:	1846a503          	lw	a0,388(a3)
     348:	00078663          	beqz	a5,354 <analog_read_reg32.constprop.4+0x48>
     34c:	3007a7f3          	csrrs	a5,mstatus,a5
     350:	0ff0000f          	fence
     354:	00008067          	ret

00000358 <clock_get_32k_tick>:
     358:	1141                	c.addi	sp,-16
     35a:	c422                	c.swsp	s0,8(sp)
     35c:	c606                	c.swsp	ra,12(sp)
     35e:	377d                	c.jal	30c <analog_read_reg32.constprop.4>
     360:	00a00433          	add	s0,zero,a0
     364:	fa9ff0ef          	jal	ra,30c <analog_read_reg32.constprop.4>
     368:	40850733          	sub	a4,a0,s0
     36c:	842a                	c.mv	s0,a0
     36e:	be176b5b          	bnec	a4,1,364 <clock_get_32k_tick+0xc>
     372:	40b2                	c.lwsp	ra,12(sp)
     374:	4422                	c.lwsp	s0,8(sp)
     376:	0141                	c.addi	sp,16
     378:	00008067          	ret

0000037c <pm_stimer_recover>:
     37c:	1141                	c.addi	sp,-16
     37e:	80140737          	lui	a4,0x80140
     382:	c606                	c.swsp	ra,12(sp)
     384:	4789                	c.li	a5,2
     386:	20f70c23          	sb	a5,536(a4) # 80140218 <_DATA_LMA_START+0x6013b5d0>
     38a:	20a70783          	lb	a5,522(a4)
     38e:	0ff7f793          	andi	a5,a5,255
     392:	00c7e793          	ori	a5,a5,12
     396:	20f70523          	sb	a5,522(a4)
     39a:	3f7d                	c.jal	358 <clock_get_32k_tick>
     39c:	00000737          	lui	a4,0x0
     3a0:	15870793          	addi	a5,a4,344 # 158 <_AES_VMA_END>
     3a4:	0047c783          	lbu	a5,4(a5)
     3a8:	15870713          	addi	a4,a4,344
     3ac:	cf81                	c.beqz	a5,3c4 <pm_stimer_recover+0x48>
     3ae:	4754                	c.lw	a3,12(a4)
     3b0:	5b50                	c.lw	a2,52(a4)
     3b2:	40d506b3          	sub	a3,a0,a3
     3b6:	471c                	c.lw	a5,8(a4)
     3b8:	0685                	c.addi	a3,1
     3ba:	8295                	c.srli	a3,0x5
     3bc:	c4c697ff          	maddr32	a5,a3,a2
     3c0:	0180006f          	j	3d8 <pm_stimer_recover+0x5c>
     3c4:	475c                	c.lw	a5,12(a4)
     3c6:	5b54                	c.lw	a3,52(a4)
     3c8:	40f507b3          	sub	a5,a0,a5
     3cc:	0785                	c.addi	a5,1
     3ce:	02d787b3          	mul	a5,a5,a3
     3d2:	4714                	c.lw	a3,8(a4)
     3d4:	8395                	c.srli	a5,0x5
     3d6:	97b6                	c.add	a5,a3
     3d8:	4754                	c.lw	a3,12(a4)
     3da:	00150593          	addi	a1,a0,1
     3de:	8d15                	c.sub	a0,a3
     3e0:	0505                	c.addi	a0,1
     3e2:	00178613          	addi	a2,a5,1
     3e6:	df1c                	c.sw	a5,56(a4)
     3e8:	d34c                	c.sw	a1,36(a4)
     3ea:	d308                	c.sw	a0,32(a4)
     3ec:	801407b7          	lui	a5,0x80140
     3f0:	801406b7          	lui	a3,0x80140
     3f4:	20c7a023          	sw	a2,512(a5) # 80140200 <_DATA_LMA_START+0x6013b5b8>
     3f8:	20b68783          	lb	a5,523(a3) # 8014020b <_DATA_LMA_START+0x6013b5c3>
     3fc:	be77fe5b          	bbc	a5,7,3f8 <pm_stimer_recover+0x7c>
     400:	20068c23          	sb	zero,536(a3)
     404:	40b2                	c.lwsp	ra,12(sp)
     406:	0141                	c.addi	sp,16
     408:	00008067          	ret

0000040c <plic_exit_critical_sec>:
     40c:	000007b7          	lui	a5,0x0
     410:	15878793          	addi	a5,a5,344 # 158 <_AES_VMA_END>
     414:	03c78783          	lb	a5,60(a5)
     418:	0ff7f793          	andi	a5,a5,255
     41c:	c795                	c.beqz	a5,448 <plic_exit_critical_sec+0x3c>
     41e:	c50d                	c.beqz	a0,448 <plic_exit_critical_sec+0x3c>
     420:	300027f3          	csrr	a5,mstatus
     424:	8ba1                	c.andi	a5,8
     426:	0ff5f593          	andi	a1,a1,255
     42a:	c78d                	c.beqz	a5,454 <plic_exit_critical_sec+0x48>
     42c:	30047773          	csrrci	a4,mstatus,8
     430:	0ff0000f          	fence
     434:	e4200737          	lui	a4,0xe4200
     438:	c30c                	c.sw	a1,0(a4)
     43a:	0ff0000f          	fence
     43e:	3007a7f3          	csrrs	a5,mstatus,a5
     442:	0ff0000f          	fence
     446:	8082                	c.jr	ra
     448:	cd81                	c.beqz	a1,460 <plic_exit_critical_sec+0x54>
     44a:	3005a5f3          	csrrs	a1,mstatus,a1
     44e:	0ff0000f          	fence
     452:	8082                	c.jr	ra
     454:	e42007b7          	lui	a5,0xe4200
     458:	00b7a023          	sw	a1,0(a5) # e4200000 <_DATA_LMA_START+0xc41fb3b8>
     45c:	0ff0000f          	fence
     460:	00008067          	ret

00000464 <plic_enter_critical_sec>:
     464:	000007b7          	lui	a5,0x0
     468:	15878793          	addi	a5,a5,344 # 158 <_AES_VMA_END>
     46c:	03c78783          	lb	a5,60(a5)
     470:	0ff7f793          	andi	a5,a5,255
     474:	cb85                	c.beqz	a5,4a4 <plic_enter_critical_sec+0x40>
     476:	c51d                	c.beqz	a0,4a4 <plic_enter_critical_sec+0x40>
     478:	e4200737          	lui	a4,0xe4200
     47c:	4308                	c.lw	a0,0(a4)
     47e:	04b57163          	bgeu	a0,a1,4c0 <plic_enter_critical_sec+0x5c>
     482:	300027f3          	csrr	a5,mstatus
     486:	8ba1                	c.andi	a5,8
     488:	cb85                	c.beqz	a5,4b8 <plic_enter_critical_sec+0x54>
     48a:	300476f3          	csrrci	a3,mstatus,8
     48e:	0ff0000f          	fence
     492:	c30c                	c.sw	a1,0(a4)
     494:	0ff0000f          	fence
     498:	3007a7f3          	csrrs	a5,mstatus,a5
     49c:	0ff0000f          	fence
     4a0:	00008067          	ret
     4a4:	30002573          	csrr	a0,mstatus
     4a8:	8921                	c.andi	a0,8
     4aa:	c919                	c.beqz	a0,4c0 <plic_enter_critical_sec+0x5c>
     4ac:	300477f3          	csrrci	a5,mstatus,8
     4b0:	0ff0000f          	fence
     4b4:	00008067          	ret
     4b8:	00b72023          	sw	a1,0(a4) # e4200000 <_DATA_LMA_START+0xc41fb3b8>
     4bc:	0ff0000f          	fence
     4c0:	00008067          	ret

000004c4 <flash_mspi_read_ram>:
     4c4:	7179                	c.addi16sp	sp,-48
     4c6:	d226                	c.swsp	s1,36(sp)
     4c8:	000004b7          	lui	s1,0x0
     4cc:	15848493          	addi	s1,s1,344 # 158 <_AES_VMA_END>
     4d0:	d04a                	c.swsp	s2,32(sp)
     4d2:	c65e                	c.swsp	s7,12(sp)
     4d4:	892a                	c.mv	s2,a0
     4d6:	8bae                	c.mv	s7,a1
     4d8:	0404c503          	lbu	a0,64(s1)
     4dc:	0414c583          	lbu	a1,65(s1)
     4e0:	d422                	c.swsp	s0,40(sp)
     4e2:	ce4e                	c.swsp	s3,28(sp)
     4e4:	cc52                	c.swsp	s4,24(sp)
     4e6:	ca56                	c.swsp	s5,20(sp)
     4e8:	c85a                	c.swsp	s6,16(sp)
     4ea:	d606                	c.swsp	ra,44(sp)
     4ec:	8b32                	c.mv	s6,a2
     4ee:	8ab6                	c.mv	s5,a3
     4f0:	843a                	c.mv	s0,a4
     4f2:	8a3e                	c.mv	s4,a5
     4f4:	f71ff0ef          	jal	ra,464 <plic_enter_critical_sec>
     4f8:	80140637          	lui	a2,0x80140
     4fc:	00a009b3          	add	s3,zero,a0
     500:	10260783          	lb	a5,258(a2) # 80140102 <_DATA_LMA_START+0x6013b4ba>
     504:	fe07fe5b          	bbs	a5,0,500 <flash_mspi_read_ram+0x3c>
     508:	10160783          	lb	a5,257(a2)
     50c:	80140737          	lui	a4,0x80140
     510:	0ff7f793          	andi	a5,a5,255
     514:	0107e793          	ori	a5,a5,16
     518:	10f600a3          	sb	a5,257(a2)
     51c:	32870783          	lb	a5,808(a4) # 80140328 <_DATA_LMA_START+0x6013b6e0>
     520:	be37fe5b          	bbc	a5,3,51c <flash_mspi_read_ram+0x58>
     524:	10170783          	lb	a5,257(a4)
     528:	854a                	c.mv	a0,s2
     52a:	0fd7f793          	andi	a5,a5,253
     52e:	10f700a3          	sb	a5,257(a4)
     532:	10170783          	lb	a5,257(a4)
     536:	0f37f793          	andi	a5,a5,243
     53a:	10f700a3          	sb	a5,257(a4)
     53e:	331d                	c.jal	264 <flash_send_cmd>
     540:	0e0b1e63          	bnez	s6,63c <flash_mspi_read_ram+0x178>
     544:	020a8063          	beqz	s5,564 <flash_mspi_read_ram+0xa0>
     548:	00000713          	li	a4,0
     54c:	80140637          	lui	a2,0x80140
     550:	10060023          	sb	zero,256(a2) # 80140100 <_DATA_LMA_START+0x6013b4b8>
     554:	10260783          	lb	a5,258(a2)
     558:	fe07fe5b          	bbs	a5,0,554 <flash_mspi_read_ram+0x90>
     55c:	00170713          	addi	a4,a4,1
     560:	ff5718e3          	bne	a4,s5,550 <flash_mspi_read_ram+0x8c>
     564:	01b96cdb          	bnec	s2,59,57c <flash_mspi_read_ram+0xb8>
     568:	80140737          	lui	a4,0x80140
     56c:	10170783          	lb	a5,257(a4) # 80140101 <_DATA_LMA_START+0x6013b4b9>
     570:	0f37f793          	andi	a5,a5,243
     574:	0047e793          	ori	a5,a5,4
     578:	10f700a3          	sb	a5,257(a4)
     57c:	801406b7          	lui	a3,0x80140
     580:	10168783          	lb	a5,257(a3) # 80140101 <_DATA_LMA_START+0x6013b4b9>
     584:	80140737          	lui	a4,0x80140
     588:	0ff7f793          	andi	a5,a5,255
     58c:	0027e793          	ori	a5,a5,2
     590:	10f680a3          	sb	a5,257(a3)
     594:	10068023          	sb	zero,256(a3)
     598:	10270783          	lb	a5,258(a4) # 80140102 <_DATA_LMA_START+0x6013b4ba>
     59c:	fe07fe5b          	bbs	a5,0,598 <flash_mspi_read_ram+0xd4>
     5a0:	10170783          	lb	a5,257(a4)
     5a4:	801406b7          	lui	a3,0x80140
     5a8:	0ff7f793          	andi	a5,a5,255
     5ac:	0017e793          	ori	a5,a5,1
     5b0:	10f700a3          	sb	a5,257(a4)
     5b4:	10268783          	lb	a5,258(a3) # 80140102 <_DATA_LMA_START+0x6013b4ba>
     5b8:	fe07fe5b          	bbs	a5,0,5b4 <flash_mspi_read_ram+0xf0>
     5bc:	020a0263          	beqz	s4,5e0 <flash_mspi_read_ram+0x11c>
     5c0:	008a0a33          	add	s4,s4,s0
     5c4:	801406b7          	lui	a3,0x80140
     5c8:	10068783          	lb	a5,256(a3) # 80140100 <_DATA_LMA_START+0x6013b4b8>
     5cc:	00140413          	addi	s0,s0,1
     5d0:	fef40fa3          	sb	a5,-1(s0)
     5d4:	10268783          	lb	a5,258(a3)
     5d8:	fe07fe5b          	bbs	a5,0,5d4 <flash_mspi_read_ram+0x110>
     5dc:	ff4416e3          	bne	s0,s4,5c8 <flash_mspi_read_ram+0x104>
     5e0:	801407b7          	lui	a5,0x80140
     5e4:	10178703          	lb	a4,257(a5) # 80140101 <_DATA_LMA_START+0x6013b4b9>
     5e8:	0fe77713          	andi	a4,a4,254
     5ec:	10e780a3          	sb	a4,257(a5)
     5f0:	01b968db          	bnec	s2,59,600 <flash_mspi_read_ram+0x13c>
     5f4:	10178703          	lb	a4,257(a5)
     5f8:	0f377713          	andi	a4,a4,243
     5fc:	10e780a3          	sb	a4,257(a5)
     600:	80140737          	lui	a4,0x80140
     604:	10170783          	lb	a5,257(a4) # 80140101 <_DATA_LMA_START+0x6013b4b9>
     608:	0ff7f793          	andi	a5,a5,255
     60c:	0107e793          	ori	a5,a5,16
     610:	10f700a3          	sb	a5,257(a4)
     614:	0001                	c.nop
     616:	0001                	c.nop
     618:	0001                	c.nop
     61a:	0001                	c.nop
     61c:	0001                	c.nop
     61e:	5422                	c.lwsp	s0,40(sp)
     620:	0404c503          	lbu	a0,64(s1)
     624:	50b2                	c.lwsp	ra,44(sp)
     626:	5492                	c.lwsp	s1,36(sp)
     628:	5902                	c.lwsp	s2,32(sp)
     62a:	4a62                	c.lwsp	s4,24(sp)
     62c:	4ad2                	c.lwsp	s5,20(sp)
     62e:	4b42                	c.lwsp	s6,16(sp)
     630:	4bb2                	c.lwsp	s7,12(sp)
     632:	85ce                	c.mv	a1,s3
     634:	49f2                	c.lwsp	s3,28(sp)
     636:	6145                	c.addi16sp	sp,48
     638:	dd5ff06f          	j	40c <plic_exit_critical_sec>
     63c:	855e                	c.mv	a0,s7
     63e:	36cd                	c.jal	220 <flash_send_addr>
     640:	f05ff06f          	j	544 <flash_mspi_read_ram+0x80>

00000644 <flash_mspi_read_ram.constprop.7>:
     644:	1101                	c.addi	sp,-32
     646:	c64e                	c.swsp	s3,12(sp)
     648:	000009b7          	lui	s3,0x0
     64c:	15898993          	addi	s3,s3,344 # 158 <_AES_VMA_END>
     650:	cc22                	c.swsp	s0,24(sp)
     652:	c256                	c.swsp	s5,4(sp)
     654:	842e                	c.mv	s0,a1
     656:	8aaa                	c.mv	s5,a0
     658:	0419c583          	lbu	a1,65(s3)
     65c:	0409c503          	lbu	a0,64(s3)
     660:	c84a                	c.swsp	s2,16(sp)
     662:	c452                	c.swsp	s4,8(sp)
     664:	ce06                	c.swsp	ra,28(sp)
     666:	ca26                	c.swsp	s1,20(sp)
     668:	8932                	c.mv	s2,a2
     66a:	3bed                	c.jal	464 <plic_enter_critical_sec>
     66c:	80140737          	lui	a4,0x80140
     670:	00a00a33          	add	s4,zero,a0
     674:	10270783          	lb	a5,258(a4) # 80140102 <_DATA_LMA_START+0x6013b4ba>
     678:	fe07fe5b          	bbs	a5,0,674 <flash_mspi_read_ram.constprop.7+0x30>
     67c:	10170783          	lb	a5,257(a4)
     680:	801404b7          	lui	s1,0x80140
     684:	0ff7f793          	andi	a5,a5,255
     688:	0107e793          	ori	a5,a5,16
     68c:	10f700a3          	sb	a5,257(a4)
     690:	32848783          	lb	a5,808(s1) # 80140328 <_DATA_LMA_START+0x6013b6e0>
     694:	be37fe5b          	bbc	a5,3,690 <flash_mspi_read_ram.constprop.7+0x4c>
     698:	10148783          	lb	a5,257(s1)
     69c:	03b00513          	li	a0,59
     6a0:	0fd7f793          	andi	a5,a5,253
     6a4:	10f480a3          	sb	a5,257(s1)
     6a8:	10148783          	lb	a5,257(s1)
     6ac:	0f37f793          	andi	a5,a5,243
     6b0:	10f480a3          	sb	a5,257(s1)
     6b4:	bb1ff0ef          	jal	ra,264 <flash_send_cmd>
     6b8:	01500533          	add	a0,zero,s5
     6bc:	b65ff0ef          	jal	ra,220 <flash_send_addr>
     6c0:	80140737          	lui	a4,0x80140
     6c4:	10048023          	sb	zero,256(s1)
     6c8:	10270783          	lb	a5,258(a4) # 80140102 <_DATA_LMA_START+0x6013b4ba>
     6cc:	fe07fe5b          	bbs	a5,0,6c8 <flash_mspi_read_ram.constprop.7+0x84>
     6d0:	10170783          	lb	a5,257(a4)
     6d4:	801406b7          	lui	a3,0x80140
     6d8:	0f37f793          	andi	a5,a5,243
     6dc:	0047e793          	ori	a5,a5,4
     6e0:	10f700a3          	sb	a5,257(a4)
     6e4:	10170783          	lb	a5,257(a4)
     6e8:	0ff7f793          	andi	a5,a5,255
     6ec:	0027e793          	ori	a5,a5,2
     6f0:	10f700a3          	sb	a5,257(a4)
     6f4:	10070023          	sb	zero,256(a4)
     6f8:	10268783          	lb	a5,258(a3) # 80140102 <_DATA_LMA_START+0x6013b4ba>
     6fc:	fe07fe5b          	bbs	a5,0,6f8 <flash_mspi_read_ram.constprop.7+0xb4>
     700:	10168783          	lb	a5,257(a3)
     704:	80140737          	lui	a4,0x80140
     708:	0ff7f793          	andi	a5,a5,255
     70c:	0017e793          	ori	a5,a5,1
     710:	10f680a3          	sb	a5,257(a3)
     714:	10270783          	lb	a5,258(a4) # 80140102 <_DATA_LMA_START+0x6013b4ba>
     718:	fe07fe5b          	bbs	a5,0,714 <flash_mspi_read_ram.constprop.7+0xd0>
     71c:	02090263          	beqz	s2,740 <flash_mspi_read_ram.constprop.7+0xfc>
     720:	01240633          	add	a2,s0,s2
     724:	80140737          	lui	a4,0x80140
     728:	10070783          	lb	a5,256(a4) # 80140100 <_DATA_LMA_START+0x6013b4b8>
     72c:	00140413          	addi	s0,s0,1
     730:	fef40fa3          	sb	a5,-1(s0)
     734:	10270783          	lb	a5,258(a4)
     738:	fe07fe5b          	bbs	a5,0,734 <flash_mspi_read_ram.constprop.7+0xf0>
     73c:	fec416e3          	bne	s0,a2,728 <flash_mspi_read_ram.constprop.7+0xe4>
     740:	801407b7          	lui	a5,0x80140
     744:	10178703          	lb	a4,257(a5) # 80140101 <_DATA_LMA_START+0x6013b4b9>
     748:	0fe77713          	andi	a4,a4,254
     74c:	10e780a3          	sb	a4,257(a5)
     750:	10178703          	lb	a4,257(a5)
     754:	0f377713          	andi	a4,a4,243
     758:	10e780a3          	sb	a4,257(a5)
     75c:	10178703          	lb	a4,257(a5)
     760:	0ff77713          	andi	a4,a4,255
     764:	01076713          	ori	a4,a4,16
     768:	10e780a3          	sb	a4,257(a5)
     76c:	0001                	c.nop
     76e:	0001                	c.nop
     770:	0001                	c.nop
     772:	0001                	c.nop
     774:	0001                	c.nop
     776:	4462                	c.lwsp	s0,24(sp)
     778:	0409c503          	lbu	a0,64(s3)
     77c:	40f2                	c.lwsp	ra,28(sp)
     77e:	44d2                	c.lwsp	s1,20(sp)
     780:	4942                	c.lwsp	s2,16(sp)
     782:	49b2                	c.lwsp	s3,12(sp)
     784:	4a92                	c.lwsp	s5,4(sp)
     786:	85d2                	c.mv	a1,s4
     788:	4a22                	c.lwsp	s4,8(sp)
     78a:	6105                	c.addi16sp	sp,32
     78c:	c81ff06f          	j	40c <plic_exit_critical_sec>

00000790 <analog_write_reg8>:
     790:	30002673          	csrr	a2,mstatus
     794:	8a21                	c.andi	a2,8
     796:	c609                	c.beqz	a2,7a0 <analog_write_reg8+0x10>
     798:	300477f3          	csrrci	a5,mstatus,8
     79c:	0ff0000f          	fence
     7a0:	80140737          	lui	a4,0x80140
     7a4:	18a70023          	sb	a0,384(a4) # 80140180 <_DATA_LMA_START+0x6013b538>
     7a8:	18b70223          	sb	a1,388(a4)
     7ac:	06000693          	li	a3,96
     7b0:	801407b7          	lui	a5,0x80140
     7b4:	18d70123          	sb	a3,386(a4)
     7b8:	18278703          	lb	a4,386(a5) # 80140182 <_DATA_LMA_START+0x6013b53a>
     7bc:	fe777e5b          	bbs	a4,7,7b8 <analog_write_reg8+0x28>
     7c0:	18078123          	sb	zero,386(a5)
     7c4:	00060663          	beqz	a2,7d0 <analog_write_reg8+0x40>
     7c8:	30062673          	csrrs	a2,mstatus,a2
     7cc:	0ff0000f          	fence
     7d0:	00008067          	ret

000007d4 <analog_read_reg8>:
     7d4:	300026f3          	csrr	a3,mstatus
     7d8:	8aa1                	c.andi	a3,8
     7da:	c689                	c.beqz	a3,7e4 <analog_read_reg8+0x10>
     7dc:	300477f3          	csrrci	a5,mstatus,8
     7e0:	0ff0000f          	fence
     7e4:	801407b7          	lui	a5,0x80140
     7e8:	18a78023          	sb	a0,384(a5) # 80140180 <_DATA_LMA_START+0x6013b538>
     7ec:	00100713          	li	a4,1
     7f0:	18e781a3          	sb	a4,387(a5)
     7f4:	04000613          	li	a2,64
     7f8:	80140737          	lui	a4,0x80140
     7fc:	18c78123          	sb	a2,386(a5)
     800:	18270783          	lb	a5,386(a4) # 80140182 <_DATA_LMA_START+0x6013b53a>
     804:	fe77fe5b          	bbs	a5,7,800 <analog_read_reg8+0x2c>
     808:	18470503          	lb	a0,388(a4)
     80c:	0ff57513          	andi	a0,a0,255
     810:	00068663          	beqz	a3,81c <analog_read_reg8+0x48>
     814:	3006a6f3          	csrrs	a3,mstatus,a3
     818:	0ff0000f          	fence
     81c:	00008067          	ret

00000820 <clock_init_ram.constprop.11>:
     820:	1141                	c.addi	sp,-16
     822:	80140737          	lui	a4,0x80140
     826:	c606                	c.swsp	ra,12(sp)
     828:	c422                	c.swsp	s0,8(sp)
     82a:	c226                	c.swsp	s1,4(sp)
     82c:	10270783          	lb	a5,258(a4) # 80140102 <_DATA_LMA_START+0x6013b4ba>
     830:	fe07fe5b          	bbs	a5,0,82c <clock_init_ram.constprop.11+0xc>
     834:	10170783          	lb	a5,257(a4)
     838:	801404b7          	lui	s1,0x80140
     83c:	0ff7f793          	andi	a5,a5,255
     840:	0107e793          	ori	a5,a5,16
     844:	10f700a3          	sb	a5,257(a4)
     848:	32848783          	lb	a5,808(s1) # 80140328 <_DATA_LMA_START+0x6013b6e0>
     84c:	be37fe5b          	bbc	a5,3,848 <clock_init_ram.constprop.11+0x28>
     850:	1e848783          	lb	a5,488(s1)
     854:	08000513          	li	a0,128
     858:	8bbd                	c.andi	a5,15
     85a:	1ef48423          	sb	a5,488(s1)
     85e:	3f9d                	c.jal	7d4 <analog_read_reg8>
     860:	0e057593          	andi	a1,a0,224
     864:	0105e593          	ori	a1,a1,16
     868:	08000513          	li	a0,128
     86c:	f25ff0ef          	jal	ra,790 <analog_write_reg8>
     870:	00900513          	li	a0,9
     874:	f61ff0ef          	jal	ra,7d4 <analog_read_reg8>
     878:	0f357593          	andi	a1,a0,243
     87c:	0085e593          	ori	a1,a1,8
     880:	4525                	c.li	a0,9
     882:	3739                	c.jal	790 <analog_write_reg8>
     884:	0c000793          	li	a5,192
     888:	cb9f940b          	addigp	s0,-840 # 804b8 <sys_clk>
     88c:	00f41023          	sh	a5,0(s0)
     890:	08100513          	li	a0,129
     894:	4791                	c.li	a5,4
     896:	1ef48da3          	sb	a5,507(s1)
     89a:	3f2d                	c.jal	7d4 <analog_read_reg8>
     89c:	04056593          	ori	a1,a0,64
     8a0:	0ff5f593          	andi	a1,a1,255
     8a4:	08100513          	li	a0,129
     8a8:	ee9ff0ef          	jal	ra,790 <analog_write_reg8>
     8ac:	08800513          	li	a0,136
     8b0:	f25ff0ef          	jal	ra,7d4 <analog_read_reg8>
     8b4:	be557c5b          	bbc	a0,5,8ac <clock_init_ram.constprop.11+0x8c>
     8b8:	08100513          	li	a0,129
     8bc:	f19ff0ef          	jal	ra,7d4 <analog_read_reg8>
     8c0:	0bf57593          	andi	a1,a0,191
     8c4:	08100513          	li	a0,129
     8c8:	ec9ff0ef          	jal	ra,790 <analog_write_reg8>
     8cc:	801407b7          	lui	a5,0x80140
     8d0:	1e978703          	lb	a4,489(a5) # 801401e9 <_DATA_LMA_START+0x6013b5a1>
     8d4:	8b3d                	c.andi	a4,15
     8d6:	04076713          	ori	a4,a4,64
     8da:	1ee784a3          	sb	a4,489(a5)
     8de:	1e878703          	lb	a4,488(a5)
     8e2:	f8076713          	ori	a4,a4,-128
     8e6:	0ff77713          	andi	a4,a4,255
     8ea:	1ee78423          	sb	a4,488(a5)
     8ee:	1e878703          	lb	a4,488(a5)
     8f2:	f8076713          	ori	a4,a4,-128
     8f6:	0ff77713          	andi	a4,a4,255
     8fa:	1ee78423          	sb	a4,488(a5)
     8fe:	1d878703          	lb	a4,472(a5)
     902:	00045683          	lhu	a3,0(s0)
     906:	0fb77713          	andi	a4,a4,251
     90a:	1ce78c23          	sb	a4,472(a5)
     90e:	1d878703          	lb	a4,472(a5)
     912:	8689                	c.srai	a3,0x2
     914:	00d402a3          	sb	a3,5(s0)
     918:	0fc77713          	andi	a4,a4,252
     91c:	1ce78c23          	sb	a4,472(a5)
     920:	1e878703          	lb	a4,488(a5)
     924:	0f077713          	andi	a4,a4,240
     928:	00876713          	ori	a4,a4,8
     92c:	1ee78423          	sb	a4,488(a5)
     930:	1e878703          	lb	a4,488(a5)
     934:	00045683          	lhu	a3,0(s0)
     938:	08f77713          	andi	a4,a4,143
     93c:	868d                	c.srai	a3,0x3
     93e:	00d40123          	sb	a3,2(s0)
     942:	02076713          	ori	a4,a4,32
     946:	1ee78423          	sb	a4,488(a5)
     94a:	0ff6f693          	andi	a3,a3,255
     94e:	00d401a3          	sb	a3,3(s0)
     952:	00d40223          	sb	a3,4(s0)
     956:	40b2                	c.lwsp	ra,12(sp)
     958:	4422                	c.lwsp	s0,8(sp)
     95a:	4492                	c.lwsp	s1,4(sp)
     95c:	0141                	c.addi	sp,16
     95e:	8082                	c.jr	ra

00000960 <pm_wait_bbpll_done>:
     960:	1101                	c.addi	sp,-32
     962:	08100513          	li	a0,129
     966:	cc22                	c.swsp	s0,24(sp)
     968:	ca26                	c.swsp	s1,20(sp)
     96a:	c84a                	c.swsp	s2,16(sp)
     96c:	ce06                	c.swsp	ra,28(sp)
     96e:	359d                	c.jal	7d4 <analog_read_reg8>
     970:	04056593          	ori	a1,a0,64
     974:	892a                	c.mv	s2,a0
     976:	0ff5f593          	andi	a1,a1,255
     97a:	08100513          	li	a0,129
     97e:	0bf97913          	andi	s2,s2,191
     982:	4481                	c.li	s1,0
     984:	4475                	c.li	s0,29
     986:	3529                	c.jal	790 <analog_write_reg8>
     988:	000107a3          	sb	zero,15(sp)
     98c:	00f10783          	lb	a5,15(sp)
     990:	0ff7f793          	andi	a5,a5,255
     994:	02f46063          	bltu	s0,a5,9b4 <pm_wait_bbpll_done+0x54>
     998:	0001                	c.nop
     99a:	00f10783          	lb	a5,15(sp)
     99e:	0785                	c.addi	a5,1
     9a0:	0ff7f793          	andi	a5,a5,255
     9a4:	00f107a3          	sb	a5,15(sp)
     9a8:	00f10783          	lb	a5,15(sp)
     9ac:	0ff7f793          	andi	a5,a5,255
     9b0:	fef474e3          	bgeu	s0,a5,998 <pm_wait_bbpll_done+0x38>
     9b4:	08800513          	li	a0,136
     9b8:	e1dff0ef          	jal	ra,7d4 <analog_read_reg8>
     9bc:	4255765b          	bbs	a0,5,9e8 <pm_wait_bbpll_done+0x88>
     9c0:	cc95                	c.beqz	s1,9fc <pm_wait_bbpll_done+0x9c>
     9c2:	0414d35b          	beqc	s1,1,a08 <pm_wait_bbpll_done+0xa8>
     9c6:	85ca                	c.mv	a1,s2
     9c8:	08100513          	li	a0,129
     9cc:	dc5ff0ef          	jal	ra,790 <analog_write_reg8>
     9d0:	0024d65b          	beqc	s1,2,9dc <pm_wait_bbpll_done+0x7c>
     9d4:	0485                	c.addi	s1,1
     9d6:	0ff4f493          	andi	s1,s1,255
     9da:	b77d                	c.j	988 <pm_wait_bbpll_done+0x28>
     9dc:	40f2                	c.lwsp	ra,28(sp)
     9de:	4462                	c.lwsp	s0,24(sp)
     9e0:	44d2                	c.lwsp	s1,20(sp)
     9e2:	4942                	c.lwsp	s2,16(sp)
     9e4:	6105                	c.addi16sp	sp,32
     9e6:	8082                	c.jr	ra
     9e8:	4462                	c.lwsp	s0,24(sp)
     9ea:	40f2                	c.lwsp	ra,28(sp)
     9ec:	44d2                	c.lwsp	s1,20(sp)
     9ee:	85ca                	c.mv	a1,s2
     9f0:	4942                	c.lwsp	s2,16(sp)
     9f2:	08100513          	li	a0,129
     9f6:	6105                	c.addi16sp	sp,32
     9f8:	d99ff06f          	j	790 <analog_write_reg8>
     9fc:	04600593          	li	a1,70
     a00:	4505                	c.li	a0,1
     a02:	3379                	c.jal	790 <analog_write_reg8>
     a04:	fd1ff06f          	j	9d4 <pm_wait_bbpll_done+0x74>
     a08:	04300593          	li	a1,67
     a0c:	4505                	c.li	a0,1
     a0e:	3349                	c.jal	790 <analog_write_reg8>
     a10:	fc5ff06f          	j	9d4 <pm_wait_bbpll_done+0x74>

00000a14 <pm_sleep_start>:
     a14:	1101                	c.addi	sp,-32
     a16:	ce3fa72b          	lwgp	a4,-800 # 804e0 <g_chip_version>
     a1a:	000006b7          	lui	a3,0x0
     a1e:	ce06                	c.swsp	ra,28(sp)
     a20:	cc22                	c.swsp	s0,24(sp)
     a22:	ca26                	c.swsp	s1,20(sp)
     a24:	0ff00793          	li	a5,255
     a28:	19a6c583          	lbu	a1,410(a3) # 19a <g_pm_suspend_power_cfg>
     a2c:	00f71a63          	bne	a4,a5,a40 <pm_sleep_start+0x2c>
     a30:	0fe5f593          	andi	a1,a1,254
     a34:	07d00513          	li	a0,125
     a38:	d59ff0ef          	jal	ra,790 <analog_write_reg8>
     a3c:	00c0006f          	j	a48 <pm_sleep_start+0x34>
     a40:	07d00513          	li	a0,125
     a44:	d4dff0ef          	jal	ra,790 <analog_write_reg8>
     a48:	801406b7          	lui	a3,0x80140
     a4c:	10268783          	lb	a5,258(a3) # 80140102 <_DATA_LMA_START+0x6013b4ba>
     a50:	fe07fe5b          	bbs	a5,0,a4c <pm_sleep_start+0x38>
     a54:	10168703          	lb	a4,257(a3)
     a58:	801407b7          	lui	a5,0x80140
     a5c:	0ff77713          	andi	a4,a4,255
     a60:	01076713          	ori	a4,a4,16
     a64:	10e680a3          	sb	a4,257(a3)
     a68:	32878703          	lb	a4,808(a5) # 80140328 <_DATA_LMA_START+0x6013b6e0>
     a6c:	be377e5b          	bbc	a4,3,a68 <pm_sleep_start+0x54>
     a70:	10178703          	lb	a4,257(a5)
     a74:	80140437          	lui	s0,0x80140
     a78:	0fd77713          	andi	a4,a4,253
     a7c:	10e780a3          	sb	a4,257(a5)
     a80:	10178703          	lb	a4,257(a5)
     a84:	0ef77713          	andi	a4,a4,239
     a88:	10e780a3          	sb	a4,257(a5)
     a8c:	fb900713          	li	a4,-71
     a90:	10e78023          	sb	a4,256(a5)
     a94:	10240783          	lb	a5,258(s0) # 80140102 <_DATA_LMA_START+0x6013b4ba>
     a98:	fe07fe5b          	bbs	a5,0,a94 <pm_sleep_start+0x80>
     a9c:	10140783          	lb	a5,257(s0)
     aa0:	452d                	c.li	a0,11
     aa2:	0ff7f793          	andi	a5,a5,255
     aa6:	0107e793          	ori	a5,a5,16
     aaa:	10f400a3          	sb	a5,257(s0)
     aae:	320404a3          	sb	zero,809(s0)
     ab2:	330d                	c.jal	7d4 <analog_read_reg8>
     ab4:	0fc57593          	andi	a1,a0,252
     ab8:	452d                	c.li	a0,11
     aba:	39d9                	c.jal	790 <analog_write_reg8>
     abc:	08100513          	li	a0,129
     ac0:	d15ff0ef          	jal	ra,7d4 <analog_read_reg8>
     ac4:	f8056593          	ori	a1,a0,-128
     ac8:	0ff5f593          	andi	a1,a1,255
     acc:	08100513          	li	a0,129
     ad0:	cc1ff0ef          	jal	ra,790 <analog_write_reg8>
     ad4:	f8000793          	li	a5,-128
     ad8:	1ef407a3          	sb	a5,495(s0)
     adc:	03f00493          	li	s1,63
     ae0:	00012423          	sw	zero,8(sp)
     ae4:	47a2                	c.lwsp	a5,8(sp)
     ae6:	00f4e763          	bltu	s1,a5,af4 <pm_sleep_start+0xe0>
     aea:	0001                	c.nop
     aec:	47a2                	c.lwsp	a5,8(sp)
     aee:	0785                	c.addi	a5,1
     af0:	c43e                	c.swsp	a5,8(sp)
     af2:	bfcd                	c.j	ae4 <pm_sleep_start+0xd0>
     af4:	08100513          	li	a0,129
     af8:	cddff0ef          	jal	ra,7d4 <analog_read_reg8>
     afc:	07f57593          	andi	a1,a0,127
     b00:	08100513          	li	a0,129
     b04:	c8dff0ef          	jal	ra,790 <analog_write_reg8>
     b08:	00b00513          	li	a0,11
     b0c:	cc9ff0ef          	jal	ra,7d4 <analog_read_reg8>
     b10:	00356593          	ori	a1,a0,3
     b14:	0ff5f593          	andi	a1,a1,255
     b18:	452d                	c.li	a0,11
     b1a:	399d                	c.jal	790 <analog_write_reg8>
     b1c:	08000593          	li	a1,128
     b20:	07d00513          	li	a0,125
     b24:	c6dff0ef          	jal	ra,790 <analog_write_reg8>
     b28:	801407b7          	lui	a5,0x80140
     b2c:	329784a3          	sb	s1,809(a5) # 80140329 <_DATA_LMA_START+0x6013b6e1>
     b30:	10178683          	lb	a3,257(a5)
     b34:	80140737          	lui	a4,0x80140
     b38:	0ef6f693          	andi	a3,a3,239
     b3c:	10d780a3          	sb	a3,257(a5)
     b40:	fab00693          	li	a3,-85
     b44:	10d78023          	sb	a3,256(a5)
     b48:	10270783          	lb	a5,258(a4) # 80140102 <_DATA_LMA_START+0x6013b4ba>
     b4c:	fe07fe5b          	bbs	a5,0,b48 <pm_sleep_start+0x134>
     b50:	10170783          	lb	a5,257(a4)
     b54:	12b00693          	li	a3,299
     b58:	0ff7f793          	andi	a5,a5,255
     b5c:	0107e793          	ori	a5,a5,16
     b60:	10f700a3          	sb	a5,257(a4)
     b64:	00012623          	sw	zero,12(sp)
     b68:	47b2                	c.lwsp	a5,12(sp)
     b6a:	00f6e763          	bltu	a3,a5,b78 <pm_sleep_start+0x164>
     b6e:	0001                	c.nop
     b70:	47b2                	c.lwsp	a5,12(sp)
     b72:	0785                	c.addi	a5,1
     b74:	c63e                	c.swsp	a5,12(sp)
     b76:	bfcd                	c.j	b68 <pm_sleep_start+0x154>
     b78:	08800513          	li	a0,136
     b7c:	c59ff0ef          	jal	ra,7d4 <analog_read_reg8>
     b80:	be757c5b          	bbc	a0,7,b78 <pm_sleep_start+0x164>
     b84:	08800513          	li	a0,136
     b88:	c4dff0ef          	jal	ra,7d4 <analog_read_reg8>
     b8c:	be757c5b          	bbc	a0,7,b84 <pm_sleep_start+0x170>
     b90:	08800513          	li	a0,136
     b94:	c41ff0ef          	jal	ra,7d4 <analog_read_reg8>
     b98:	be757c5b          	bbc	a0,7,b90 <pm_sleep_start+0x17c>
     b9c:	4462                	c.lwsp	s0,24(sp)
     b9e:	40f2                	c.lwsp	ra,28(sp)
     ba0:	44d2                	c.lwsp	s1,20(sp)
     ba2:	6105                	c.addi16sp	sp,32
     ba4:	dbdff06f          	j	960 <pm_wait_bbpll_done>

00000ba8 <dr_putchar>:
     ba8:	1101                	c.addi	sp,-32
     baa:	ca26                	c.swsp	s1,20(sp)
     bac:	cc22                	c.swsp	s0,24(sp)
     bae:	ce06                	c.swsp	ra,28(sp)
     bb0:	c84a                	c.swsp	s2,16(sp)
     bb2:	cb5f948b          	addigp	s1,-844 # 804b4 <init_flag.5287>
     bb6:	842a                	c.mv	s0,a0
     bb8:	0004c783          	lbu	a5,0(s1)
     bbc:	0c17d25b          	beqc	a5,1,c80 <dr_putchar+0xd8>
     bc0:	801407b7          	lui	a5,0x80140
     bc4:	30378703          	lb	a4,771(a5) # 80140303 <_DATA_LMA_START+0x6013b6bb>
     bc8:	30378783          	lb	a5,771(a5)
     bcc:	0fe77713          	andi	a4,a4,254
     bd0:	0ff7f793          	andi	a5,a5,255
     bd4:	0017e793          	ori	a5,a5,1
     bd8:	00e10223          	sb	a4,4(sp)
     bdc:	86be                	c.mv	a3,a5
     bde:	4004735b          	bbs	s0,0,be4 <dr_putchar+0x3c>
     be2:	86ba                	c.mv	a3,a4
     be4:	00d102a3          	sb	a3,5(sp)
     be8:	86be                	c.mv	a3,a5
     bea:	4014735b          	bbs	s0,1,bf0 <dr_putchar+0x48>
     bee:	86ba                	c.mv	a3,a4
     bf0:	00d10323          	sb	a3,6(sp)
     bf4:	86be                	c.mv	a3,a5
     bf6:	4024735b          	bbs	s0,2,bfc <dr_putchar+0x54>
     bfa:	86ba                	c.mv	a3,a4
     bfc:	00d103a3          	sb	a3,7(sp)
     c00:	86be                	c.mv	a3,a5
     c02:	4034735b          	bbs	s0,3,c08 <dr_putchar+0x60>
     c06:	86ba                	c.mv	a3,a4
     c08:	00d10423          	sb	a3,8(sp)
     c0c:	86be                	c.mv	a3,a5
     c0e:	4044735b          	bbs	s0,4,c14 <dr_putchar+0x6c>
     c12:	86ba                	c.mv	a3,a4
     c14:	00d104a3          	sb	a3,9(sp)
     c18:	86be                	c.mv	a3,a5
     c1a:	4054735b          	bbs	s0,5,c20 <dr_putchar+0x78>
     c1e:	86ba                	c.mv	a3,a4
     c20:	00d10523          	sb	a3,10(sp)
     c24:	86be                	c.mv	a3,a5
     c26:	4064735b          	bbs	s0,6,c2c <dr_putchar+0x84>
     c2a:	86ba                	c.mv	a3,a4
     c2c:	00d105a3          	sb	a3,11(sp)
     c30:	801d                	c.srli	s0,0x7
     c32:	c019                	c.beqz	s0,c38 <dr_putchar+0x90>
     c34:	00f00733          	add	a4,zero,a5
     c38:	00f106a3          	sb	a5,13(sp)
     c3c:	801407b7          	lui	a5,0x80140
     c40:	00e10623          	sb	a4,12(sp)
     c44:	2007a603          	lw	a2,512(a5) # 80140200 <_DATA_LMA_START+0x6013b5b8>
     c48:	00410513          	addi	a0,sp,4
     c4c:	00e10813          	addi	a6,sp,14
     c50:	801406b7          	lui	a3,0x80140
     c54:	08900593          	li	a1,137
     c58:	2006a783          	lw	a5,512(a3) # 80140200 <_DATA_LMA_START+0x6013b5b8>
     c5c:	40c78733          	sub	a4,a5,a2
     c60:	fee5fce3          	bgeu	a1,a4,c58 <dr_putchar+0xb0>
     c64:	00054703          	lbu	a4,0(a0)
     c68:	0505                	c.addi	a0,1
     c6a:	30e681a3          	sb	a4,771(a3)
     c6e:	863e                	c.mv	a2,a5
     c70:	ff0514e3          	bne	a0,a6,c58 <dr_putchar+0xb0>
     c74:	40f2                	c.lwsp	ra,28(sp)
     c76:	4462                	c.lwsp	s0,24(sp)
     c78:	44d2                	c.lwsp	s1,20(sp)
     c7a:	4942                	c.lwsp	s2,16(sp)
     c7c:	6105                	c.addi16sp	sp,32
     c7e:	8082                	c.jr	ra
     c80:	80140937          	lui	s2,0x80140
     c84:	30690783          	lb	a5,774(s2) # 80140306 <_DATA_LMA_START+0x6013b6be>
     c88:	4539                	c.li	a0,14
     c8a:	0ff7f793          	andi	a5,a5,255
     c8e:	0017e793          	ori	a5,a5,1
     c92:	30f90323          	sb	a5,774(s2)
     c96:	3e3d                	c.jal	7d4 <analog_read_reg8>
     c98:	0fc57593          	andi	a1,a0,252
     c9c:	0015e593          	ori	a1,a1,1
     ca0:	4539                	c.li	a0,14
     ca2:	34fd                	c.jal	790 <analog_write_reg8>
     ca4:	30290783          	lb	a5,770(s2)
     ca8:	0fe7f793          	andi	a5,a5,254
     cac:	30f90123          	sb	a5,770(s2)
     cb0:	30390783          	lb	a5,771(s2)
     cb4:	0ff7f793          	andi	a5,a5,255
     cb8:	0017e793          	ori	a5,a5,1
     cbc:	30f901a3          	sb	a5,771(s2)
     cc0:	00048023          	sb	zero,0(s1)
     cc4:	efdff06f          	j	bc0 <dr_putchar+0x18>

00000cc8 <pm_sleep_wakeup_ram.constprop.3>:
     cc8:	1101                	c.addi	sp,-32
     cca:	c452                	c.swsp	s4,8(sp)
     ccc:	8a2a                	c.mv	s4,a0
     cce:	ce06                	c.swsp	ra,28(sp)
     cd0:	cc22                	c.swsp	s0,24(sp)
     cd2:	ca26                	c.swsp	s1,20(sp)
     cd4:	c84a                	c.swsp	s2,16(sp)
     cd6:	c64e                	c.swsp	s3,12(sp)
     cd8:	c256                	c.swsp	s5,4(sp)
     cda:	c05a                	c.swsp	s6,0(sp)
     cdc:	300029f3          	csrr	s3,mstatus
     ce0:	0089f993          	andi	s3,s3,8
     ce4:	00098663          	beqz	s3,cf0 <pm_sleep_wakeup_ram.constprop.3+0x28>
     ce8:	300477f3          	csrrci	a5,mstatus,8
     cec:	0ff0000f          	fence
     cf0:	801407b7          	lui	a5,0x80140
     cf4:	2147a683          	lw	a3,532(a5) # 80140214 <_DATA_LMA_START+0x6013b5cc>
     cf8:	def5                	c.beqz	a3,cf4 <pm_sleep_wakeup_ram.constprop.3+0x2c>
     cfa:	00000437          	lui	s0,0x0
     cfe:	15840693          	addi	a3,s0,344 # 158 <_AES_VMA_END>
     d02:	2147a783          	lw	a5,532(a5)
     d06:	4ed8                	c.lw	a4,28(a3)
     d08:	d6dc                	c.sw	a5,44(a3)
     d0a:	15840413          	addi	s0,s0,344
     d0e:	0792                	c.slli	a5,0x4
     d10:	cb11                	c.beqz	a4,d24 <pm_sleep_wakeup_ram.constprop.3+0x5c>
     d12:	03044603          	lbu	a2,48(s0)
     d16:	4691                	c.li	a3,4
     d18:	8f99                	c.sub	a5,a4
     d1a:	8e91                	c.sub	a3,a2
     d1c:	40d7d7b3          	sra	a5,a5,a3
     d20:	00e787b3          	add	a5,a5,a4
     d24:	4818                	c.lw	a4,16(s0)
     d26:	4047d493          	srai	s1,a5,0x4
     d2a:	02e48733          	mul	a4,s1,a4
     d2e:	80140937          	lui	s2,0x80140
     d32:	20092a83          	lw	s5,512(s2) # 80140200 <_DATA_LMA_START+0x6013b5b8>
     d36:	cc5c                	c.sw	a5,28(s0)
     d38:	415a0ab3          	sub	s5,s4,s5
     d3c:	e00006b7          	lui	a3,0xe0000
     d40:	41275793          	srai	a5,a4,0x12
     d44:	94be                	c.add	s1,a5
     d46:	0486                	c.slli	s1,0x1
     d48:	02942a23          	sw	s1,52(s0)
     d4c:	0356f063          	bgeu	a3,s5,d6c <pm_sleep_wakeup_ram.constprop.3+0xa4>
     d50:	00098663          	beqz	s3,d5c <pm_sleep_wakeup_ram.constprop.3+0x94>
     d54:	3009a9f3          	csrrs	s3,mstatus,s3
     d58:	0ff0000f          	fence
     d5c:	06400513          	li	a0,100
     d60:	a75ff0ef          	jal	ra,7d4 <analog_read_reg8>
     d64:	01f57513          	andi	a0,a0,31
     d68:	2580006f          	j	fc0 <pm_sleep_wakeup_ram.constprop.3+0x2f8>
     d6c:	04a41783          	lh	a5,74(s0)
     d70:	1137a7db          	bfoz	a5,a5,4,19
     d74:	02fafe63          	bgeu	s5,a5,db0 <pm_sleep_wakeup_ram.constprop.3+0xe8>
     d78:	45fd                	c.li	a1,31
     d7a:	06400513          	li	a0,100
     d7e:	801404b7          	lui	s1,0x80140
     d82:	20092403          	lw	s0,512(s2)
     d86:	3429                	c.jal	790 <analog_write_reg8>
     d88:	06400513          	li	a0,100
     d8c:	a49ff0ef          	jal	ra,7d4 <analog_read_reg8>
     d90:	2004a783          	lw	a5,512(s1) # 80140200 <_DATA_LMA_START+0x6013b5b8>
     d94:	897d                	c.andi	a0,31
     d96:	8f81                	c.sub	a5,s0
     d98:	0157f463          	bgeu	a5,s5,da0 <pm_sleep_wakeup_ram.constprop.3+0xd8>
     d9c:	fe0506e3          	beqz	a0,d88 <pm_sleep_wakeup_ram.constprop.3+0xc0>
     da0:	22098063          	beqz	s3,fc0 <pm_sleep_wakeup_ram.constprop.3+0x2f8>
     da4:	3009a9f3          	csrrs	s3,mstatus,s3
     da8:	0ff0000f          	fence
     dac:	2140006f          	j	fc0 <pm_sleep_wakeup_ram.constprop.3+0x2f8>
     db0:	1e890a83          	lb	s5,488(s2)
     db4:	00faf793          	andi	a5,s5,15
     db8:	1ef90423          	sb	a5,488(s2)
     dbc:	1d890b03          	lb	s6,472(s2)
     dc0:	0f8b7793          	andi	a5,s6,248
     dc4:	1cf90c23          	sb	a5,472(s2)
     dc8:	00100793          	li	a5,1
     dcc:	20f90c23          	sb	a5,536(s2)
     dd0:	20a90783          	lb	a5,522(s2)
     dd4:	0f77f793          	andi	a5,a5,247
     dd8:	20f90523          	sb	a5,522(s2)
     ddc:	d7cff0ef          	jal	ra,358 <clock_get_32k_tick>
     de0:	20092703          	lw	a4,512(s2)
     de4:	20b90783          	lb	a5,523(s2)
     de8:	5054                	c.lw	a3,36(s0)
     dea:	0ff7f793          	andi	a5,a5,255
     dee:	0027e793          	ori	a5,a5,2
     df2:	c468                	c.sw	a0,76(s0)
     df4:	dc18                	c.sw	a4,56(s0)
     df6:	03044603          	lbu	a2,48(s0)
     dfa:	40d506b3          	sub	a3,a0,a3
     dfe:	20f905a3          	sb	a5,523(s2)
     e02:	d414                	c.sw	a3,40(s0)
     e04:	e215                	c.bnez	a2,e28 <pm_sleep_wakeup_ram.constprop.3+0x160>
     e06:	441c                	c.lw	a5,8(s0)
     e08:	c385                	c.beqz	a5,e28 <pm_sleep_wakeup_ram.constprop.3+0x160>
     e0a:	05044783          	lbu	a5,80(s0)
     e0e:	ef89                	c.bnez	a5,e28 <pm_sleep_wakeup_ram.constprop.3+0x160>
     e10:	00c42783          	lw	a5,12(s0)
     e14:	000276b7          	lui	a3,0x27
     e18:	40f507b3          	sub	a5,a0,a5
     e1c:	6c07a7db          	bfoz	a5,a5,27,0
     e20:	10068693          	addi	a3,a3,256 # 27100 <BIN_SIZE+0x21fd2>
     e24:	00f6f863          	bgeu	a3,a5,e34 <pm_sleep_wakeup_ram.constprop.3+0x16c>
     e28:	00176713          	ori	a4,a4,1
     e2c:	02040823          	sb	zero,48(s0)
     e30:	c448                	c.sw	a0,12(s0)
     e32:	c418                	c.sw	a4,8(s0)
     e34:	02000593          	li	a1,32
     e38:	04b00513          	li	a0,75
     e3c:	955ff0ef          	jal	ra,790 <analog_write_reg8>
     e40:	45fd                	c.li	a1,31
     e42:	06400513          	li	a0,100
     e46:	32a9                	c.jal	790 <analog_write_reg8>
     e48:	03000593          	li	a1,48
     e4c:	07e00513          	li	a0,126
     e50:	941ff0ef          	jal	ra,790 <analog_write_reg8>
     e54:	0f900593          	li	a1,249
     e58:	04d00513          	li	a0,77
     e5c:	935ff0ef          	jal	ra,790 <analog_write_reg8>
     e60:	4585                	c.li	a1,1
     e62:	07f00513          	li	a0,127
     e66:	322d                	c.jal	790 <analog_write_reg8>
     e68:	04841783          	lh	a5,72(s0)
     e6c:	0ee00593          	li	a1,238
     e70:	1137a7db          	bfoz	a5,a5,4,19
     e74:	04c00513          	li	a0,76
     e78:	40fa0933          	sub	s2,s4,a5
     e7c:	915ff0ef          	jal	ra,790 <analog_write_reg8>
     e80:	05441583          	lh	a1,84(s0)
     e84:	04000513          	li	a0,64
     e88:	0ff5f593          	andi	a1,a1,255
     e8c:	905ff0ef          	jal	ra,790 <analog_write_reg8>
     e90:	441c                	c.lw	a5,8(s0)
     e92:	07ff06b7          	lui	a3,0x7ff0
     e96:	40f907b3          	sub	a5,s2,a5
     e9a:	00168713          	addi	a4,a3,1 # 7ff0001 <FLASH_SIZE+0x7ef0001>
     e9e:	00e7b733          	sltu	a4,a5,a4
     ea2:	00174713          	xori	a4,a4,1
     ea6:	00e40223          	sb	a4,4(s0)
     eaa:	00f6f963          	bgeu	a3,a5,ebc <pm_sleep_wakeup_ram.constprop.3+0x1f4>
     eae:	5858                	c.lw	a4,52(s0)
     eb0:	4448                	c.lw	a0,12(s0)
     eb2:	02e7d7b3          	divu	a5,a5,a4
     eb6:	0796                	c.slli	a5,0x5
     eb8:	953e                	c.add	a0,a5
     eba:	a809                	c.j	ecc <pm_sleep_wakeup_ram.constprop.3+0x204>
     ebc:	5848                	c.lw	a0,52(s0)
     ebe:	8085                	c.srli	s1,0x1
     ec0:	0796                	c.slli	a5,0x5
     ec2:	97a6                	c.add	a5,s1
     ec4:	02a7d7b3          	divu	a5,a5,a0
     ec8:	4448                	c.lw	a0,12(s0)
     eca:	953e                	c.add	a0,a5
     ecc:	be0ff0ef          	jal	ra,2ac <clock_set_32k_tick>
     ed0:	06400513          	li	a0,100
     ed4:	901ff0ef          	jal	ra,7d4 <analog_read_reg8>
     ed8:	01f57513          	andi	a0,a0,31
     edc:	e901                	c.bnez	a0,eec <pm_sleep_wakeup_ram.constprop.3+0x224>
     ede:	3e1d                	c.jal	a14 <pm_sleep_start>
     ee0:	00100593          	li	a1,1
     ee4:	07f00513          	li	a0,127
     ee8:	8a9ff0ef          	jal	ra,790 <analog_write_reg8>
     eec:	80140737          	lui	a4,0x80140
     ef0:	02000793          	li	a5,32
     ef4:	1ef707a3          	sb	a5,495(a4) # 801401ef <_DATA_LMA_START+0x6013b5a7>
     ef8:	00200793          	li	a5,2
     efc:	20f70c23          	sb	a5,536(a4)
     f00:	20a70783          	lb	a5,522(a4)
     f04:	0ff7f793          	andi	a5,a5,255
     f08:	00c7e793          	ori	a5,a5,12
     f0c:	20f70523          	sb	a5,522(a4)
     f10:	c48ff0ef          	jal	ra,358 <clock_get_32k_tick>
     f14:	00444783          	lbu	a5,4(s0)
     f18:	cf81                	c.beqz	a5,f30 <pm_sleep_wakeup_ram.constprop.3+0x268>
     f1a:	4458                	c.lw	a4,12(s0)
     f1c:	5854                	c.lw	a3,52(s0)
     f1e:	40e50733          	sub	a4,a0,a4
     f22:	441c                	c.lw	a5,8(s0)
     f24:	0705                	c.addi	a4,1
     f26:	8315                	c.srli	a4,0x5
     f28:	c4d717ff          	maddr32	a5,a4,a3
     f2c:	0180006f          	j	f44 <pm_sleep_wakeup_ram.constprop.3+0x27c>
     f30:	445c                	c.lw	a5,12(s0)
     f32:	5858                	c.lw	a4,52(s0)
     f34:	40f507b3          	sub	a5,a0,a5
     f38:	0785                	c.addi	a5,1
     f3a:	02e787b3          	mul	a5,a5,a4
     f3e:	4418                	c.lw	a4,8(s0)
     f40:	8395                	c.srli	a5,0x5
     f42:	97ba                	c.add	a5,a4
     f44:	4458                	c.lw	a4,12(s0)
     f46:	00150613          	addi	a2,a0,1
     f4a:	8d19                	c.sub	a0,a4
     f4c:	0505                	c.addi	a0,1
     f4e:	00178693          	addi	a3,a5,1
     f52:	dc1c                	c.sw	a5,56(s0)
     f54:	d050                	c.sw	a2,36(s0)
     f56:	d008                	c.sw	a0,32(s0)
     f58:	801407b7          	lui	a5,0x80140
     f5c:	80140737          	lui	a4,0x80140
     f60:	20d7a023          	sw	a3,512(a5) # 80140200 <_DATA_LMA_START+0x6013b5b8>
     f64:	20b70783          	lb	a5,523(a4) # 8014020b <_DATA_LMA_START+0x6013b5c3>
     f68:	be77fe5b          	bbc	a5,7,f64 <pm_sleep_wakeup_ram.constprop.3+0x29c>
     f6c:	20070c23          	sb	zero,536(a4)
     f70:	1d670c23          	sb	s6,472(a4)
     f74:	06400513          	li	a0,100
     f78:	1f570423          	sb	s5,488(a4)
     f7c:	859ff0ef          	jal	ra,7d4 <analog_read_reg8>
     f80:	ce5f970b          	addigp	a4,-796 # 804e4 <g_pm_status_info>
     f84:	00a700a3          	sb	a0,1(a4)
     f88:	ce5f978b          	addigp	a5,-796 # 804e4 <g_pm_status_info>
     f8c:	00157c5b          	bbc	a0,1,fa4 <pm_sleep_wakeup_ram.constprop.3+0x2dc>
     f90:	80140637          	lui	a2,0x80140
     f94:	400006b7          	lui	a3,0x40000
     f98:	20062703          	lw	a4,512(a2) # 80140200 <_DATA_LMA_START+0x6013b5b8>
     f9c:	41470733          	sub	a4,a4,s4
     fa0:	fee6ece3          	bltu	a3,a4,f98 <pm_sleep_wakeup_ram.constprop.3+0x2d0>
     fa4:	00098663          	beqz	s3,fb0 <pm_sleep_wakeup_ram.constprop.3+0x2e8>
     fa8:	3009a9f3          	csrrs	s3,mstatus,s3
     fac:	0ff0000f          	fence
     fb0:	0017c783          	lbu	a5,1(a5)
     fb4:	10000513          	li	a0,256
     fb8:	c781                	c.beqz	a5,fc0 <pm_sleep_wakeup_ram.constprop.3+0x2f8>
     fba:	40000537          	lui	a0,0x40000
     fbe:	8d5d                	c.or	a0,a5
     fc0:	40f2                	c.lwsp	ra,28(sp)
     fc2:	4462                	c.lwsp	s0,24(sp)
     fc4:	44d2                	c.lwsp	s1,20(sp)
     fc6:	4942                	c.lwsp	s2,16(sp)
     fc8:	49b2                	c.lwsp	s3,12(sp)
     fca:	4a22                	c.lwsp	s4,8(sp)
     fcc:	4a92                	c.lwsp	s5,4(sp)
     fce:	4b02                	c.lwsp	s6,0(sp)
     fd0:	6105                	c.addi16sp	sp,32
     fd2:	8082                	c.jr	ra

00000fd4 <trap_entry>:
     fd4:	1101                	c.addi	sp,-32
     fd6:	ce2a                	c.swsp	a0,28(sp)
     fd8:	cc2e                	c.swsp	a1,24(sp)
     fda:	ca32                	c.swsp	a2,20(sp)
     fdc:	c836                	c.swsp	a3,16(sp)
     fde:	c63a                	c.swsp	a4,12(sp)
     fe0:	c43e                	c.swsp	a5,8(sp)
     fe2:	34202773          	csrr	a4,mcause
     fe6:	000007b7          	lui	a5,0x0
     fea:	15878793          	addi	a5,a5,344 # 158 <_AES_VMA_END>
     fee:	03c78683          	lb	a3,60(a5)
     ff2:	0ff6f693          	andi	a3,a3,255
     ff6:	c2dd                	c.beqz	a3,109c <trap_entry+0xc8>
     ff8:	34102673          	csrr	a2,mepc
     ffc:	300025f3          	csrr	a1,mstatus
    1000:	7c4026f3          	csrr	a3,mxstatus
    1004:	02074a63          	bltz	a4,1038 <trap_entry+0x64>
    1008:	34302773          	csrr	a4,mtval
    100c:	ccefcfab          	swgp	a4,-804 # 804dc <exception_mtval>
    1010:	34102773          	csrr	a4,mepc
    1014:	ccefcbab          	swgp	a4,-812 # 804d4 <exception_mepc>
    1018:	30002773          	csrr	a4,mstatus
    101c:	ccefcdab          	swgp	a4,-808 # 804d8 <exception_mstatus>
    1020:	34202773          	csrr	a4,mcause
    1024:	ccefc7ab          	swgp	a4,-820 # 804cc <exception_mcause>
    1028:	7c902773          	csrr	a4,mdcause
    102c:	ccefc9ab          	swgp	a4,-816 # 804d0 <exception_mdcause>
    1030:	0001                	c.nop
    1032:	0001                	c.nop
    1034:	ffdff06f          	j	1030 <trap_entry+0x5c>
    1038:	7807275b          	bfoz	a4,a4,30,0
    103c:	0677545b          	beqc	a4,7,10a4 <trap_entry+0xd0>
    1040:	bc37645b          	bnec	a4,3,1008 <trap_entry+0x34>
    1044:	e6600737          	lui	a4,0xe6600
    1048:	4358                	c.lw	a4,4(a4)
    104a:	03c78703          	lb	a4,60(a5)
    104e:	0ff77713          	andi	a4,a4,255
    1052:	c319                	c.beqz	a4,1058 <trap_entry+0x84>
    1054:	30046773          	csrrsi	a4,mstatus,8
    1058:	03c78703          	lb	a4,60(a5)
    105c:	0ff77713          	andi	a4,a4,255
    1060:	00070463          	beqz	a4,1068 <trap_entry+0x94>
    1064:	30047773          	csrrci	a4,mstatus,8
    1068:	e6600737          	lui	a4,0xe6600
    106c:	4505                	c.li	a0,1
    106e:	c348                	c.sw	a0,4(a4)
    1070:	03c78783          	lb	a5,60(a5)
    1074:	0ff7f793          	andi	a5,a5,255
    1078:	00078863          	beqz	a5,1088 <trap_entry+0xb4>
    107c:	30059073          	csrw	mstatus,a1
    1080:	34161073          	csrw	mepc,a2
    1084:	7c469073          	csrw	mxstatus,a3
    1088:	4572                	c.lwsp	a0,28(sp)
    108a:	45e2                	c.lwsp	a1,24(sp)
    108c:	4652                	c.lwsp	a2,20(sp)
    108e:	46c2                	c.lwsp	a3,16(sp)
    1090:	4732                	c.lwsp	a4,12(sp)
    1092:	47a2                	c.lwsp	a5,8(sp)
    1094:	02010113          	addi	sp,sp,32
    1098:	30200073          	mret
    109c:	4681                	c.li	a3,0
    109e:	4581                	c.li	a1,0
    10a0:	4601                	c.li	a2,0
    10a2:	b78d                	c.j	1004 <trap_entry+0x30>
    10a4:	03c78703          	lb	a4,60(a5)
    10a8:	0ff77713          	andi	a4,a4,255
    10ac:	00070863          	beqz	a4,10bc <trap_entry+0xe8>
    10b0:	08000713          	li	a4,128
    10b4:	30473773          	csrrc	a4,mie,a4
    10b8:	30046773          	csrrsi	a4,mstatus,8
    10bc:	03c78703          	lb	a4,60(a5)
    10c0:	0ff77713          	andi	a4,a4,255
    10c4:	d755                	c.beqz	a4,1070 <trap_entry+0x9c>
    10c6:	30047773          	csrrci	a4,mstatus,8
    10ca:	08000713          	li	a4,128
    10ce:	30472773          	csrrs	a4,mie,a4
    10d2:	bf79                	c.j	1070 <trap_entry+0x9c>
    10d4:	0001                	c.nop
	...

00001100 <__vectors>:
    1100:	0fd4                	c.addi4spn	a3,sp,980
    1102:	0000                	unimp
    1104:	1f48                	c.addi4spn	a0,sp,948
    1106:	0000                	unimp
    1108:	1f48                	c.addi4spn	a0,sp,948
    110a:	0000                	unimp
    110c:	1f48                	c.addi4spn	a0,sp,948
    110e:	0000                	unimp
    1110:	1f48                	c.addi4spn	a0,sp,948
    1112:	0000                	unimp
    1114:	1f48                	c.addi4spn	a0,sp,948
    1116:	0000                	unimp
    1118:	1f48                	c.addi4spn	a0,sp,948
    111a:	0000                	unimp
    111c:	1f48                	c.addi4spn	a0,sp,948
    111e:	0000                	unimp
    1120:	1f48                	c.addi4spn	a0,sp,948
    1122:	0000                	unimp
    1124:	1f48                	c.addi4spn	a0,sp,948
    1126:	0000                	unimp
    1128:	1f48                	c.addi4spn	a0,sp,948
    112a:	0000                	unimp
    112c:	1f48                	c.addi4spn	a0,sp,948
    112e:	0000                	unimp
    1130:	1f48                	c.addi4spn	a0,sp,948
    1132:	0000                	unimp
    1134:	1f48                	c.addi4spn	a0,sp,948
    1136:	0000                	unimp
    1138:	1f48                	c.addi4spn	a0,sp,948
    113a:	0000                	unimp
    113c:	1f48                	c.addi4spn	a0,sp,948
    113e:	0000                	unimp
    1140:	1f48                	c.addi4spn	a0,sp,948
    1142:	0000                	unimp
    1144:	1f48                	c.addi4spn	a0,sp,948
    1146:	0000                	unimp
    1148:	1f48                	c.addi4spn	a0,sp,948
    114a:	0000                	unimp
    114c:	1f48                	c.addi4spn	a0,sp,948
    114e:	0000                	unimp
    1150:	1f48                	c.addi4spn	a0,sp,948
    1152:	0000                	unimp
    1154:	1f48                	c.addi4spn	a0,sp,948
    1156:	0000                	unimp
    1158:	1f48                	c.addi4spn	a0,sp,948
    115a:	0000                	unimp
    115c:	1f48                	c.addi4spn	a0,sp,948
    115e:	0000                	unimp
    1160:	1f48                	c.addi4spn	a0,sp,948
    1162:	0000                	unimp
    1164:	1f48                	c.addi4spn	a0,sp,948
    1166:	0000                	unimp
    1168:	1f48                	c.addi4spn	a0,sp,948
    116a:	0000                	unimp
    116c:	1f48                	c.addi4spn	a0,sp,948
    116e:	0000                	unimp
    1170:	1f48                	c.addi4spn	a0,sp,948
    1172:	0000                	unimp
    1174:	1f48                	c.addi4spn	a0,sp,948
    1176:	0000                	unimp
    1178:	1f48                	c.addi4spn	a0,sp,948
    117a:	0000                	unimp
    117c:	1f48                	c.addi4spn	a0,sp,948
    117e:	0000                	unimp
    1180:	1f48                	c.addi4spn	a0,sp,948
    1182:	0000                	unimp
    1184:	1f48                	c.addi4spn	a0,sp,948
    1186:	0000                	unimp
    1188:	1f48                	c.addi4spn	a0,sp,948
    118a:	0000                	unimp
    118c:	1f48                	c.addi4spn	a0,sp,948
    118e:	0000                	unimp
    1190:	1f48                	c.addi4spn	a0,sp,948
    1192:	0000                	unimp
    1194:	1f48                	c.addi4spn	a0,sp,948
    1196:	0000                	unimp
    1198:	1f48                	c.addi4spn	a0,sp,948
    119a:	0000                	unimp
    119c:	1f48                	c.addi4spn	a0,sp,948
    119e:	0000                	unimp
    11a0:	1f48                	c.addi4spn	a0,sp,948
    11a2:	0000                	unimp
    11a4:	1f48                	c.addi4spn	a0,sp,948
    11a6:	0000                	unimp
    11a8:	1f48                	c.addi4spn	a0,sp,948
    11aa:	0000                	unimp
    11ac:	1f48                	c.addi4spn	a0,sp,948
    11ae:	0000                	unimp
    11b0:	1f48                	c.addi4spn	a0,sp,948
    11b2:	0000                	unimp
    11b4:	1f48                	c.addi4spn	a0,sp,948
    11b6:	0000                	unimp
    11b8:	1f48                	c.addi4spn	a0,sp,948
    11ba:	0000                	unimp
    11bc:	1f48                	c.addi4spn	a0,sp,948
    11be:	0000                	unimp
    11c0:	1f48                	c.addi4spn	a0,sp,948
    11c2:	0000                	unimp
    11c4:	1f48                	c.addi4spn	a0,sp,948
    11c6:	0000                	unimp
    11c8:	1f48                	c.addi4spn	a0,sp,948
    11ca:	0000                	unimp
    11cc:	1f48                	c.addi4spn	a0,sp,948
    11ce:	0000                	unimp
    11d0:	1f48                	c.addi4spn	a0,sp,948
    11d2:	0000                	unimp
    11d4:	1f48                	c.addi4spn	a0,sp,948
    11d6:	0000                	unimp
    11d8:	1f48                	c.addi4spn	a0,sp,948
    11da:	0000                	unimp
    11dc:	1f48                	c.addi4spn	a0,sp,948
    11de:	0000                	unimp
    11e0:	1f48                	c.addi4spn	a0,sp,948
    11e2:	0000                	unimp
    11e4:	1f48                	c.addi4spn	a0,sp,948
    11e6:	0000                	unimp
    11e8:	1f48                	c.addi4spn	a0,sp,948
    11ea:	0000                	unimp
    11ec:	1f48                	c.addi4spn	a0,sp,948
    11ee:	0000                	unimp
    11f0:	1f48                	c.addi4spn	a0,sp,948
    11f2:	0000                	unimp
    11f4:	1f48                	c.addi4spn	a0,sp,948
    11f6:	0000                	unimp
    11f8:	1f48                	c.addi4spn	a0,sp,948
    11fa:	0000                	unimp
    11fc:	1f48                	c.addi4spn	a0,sp,948
    11fe:	0000                	unimp
    1200:	0001                	c.nop
	...

00001204 <flash_read_uid.constprop.6>:
    1204:	1141                	c.addi	sp,-16
    1206:	c606                	c.swsp	ra,12(sp)
    1208:	872a                	c.mv	a4,a0
    120a:	7d047073          	csrci	mmisc_ctl,8
    120e:	47c1                	c.li	a5,16
    1210:	4691                	c.li	a3,4
    1212:	4601                	c.li	a2,0
    1214:	00000593          	li	a1,0
    1218:	04b00513          	li	a0,75
    121c:	aa8ff0ef          	jal	ra,4c4 <flash_mspi_read_ram>
    1220:	7d046073          	csrsi	mmisc_ctl,8
    1224:	40b2                	c.lwsp	ra,12(sp)
    1226:	0141                	c.addi	sp,16
    1228:	00008067          	ret

0000122c <flash_read_mid>:
    122c:	1101                	c.addi	sp,-32
    122e:	ce06                	c.swsp	ra,28(sp)
    1230:	c602                	c.swsp	zero,12(sp)
    1232:	7d047073          	csrci	mmisc_ctl,8
    1236:	478d                	c.li	a5,3
    1238:	0078                	c.addi4spn	a4,sp,12
    123a:	4681                	c.li	a3,0
    123c:	4601                	c.li	a2,0
    123e:	4581                	c.li	a1,0
    1240:	09f00513          	li	a0,159
    1244:	a80ff0ef          	jal	ra,4c4 <flash_mspi_read_ram>
    1248:	7d046073          	csrsi	mmisc_ctl,8
    124c:	40f2                	c.lwsp	ra,28(sp)
    124e:	4532                	c.lwsp	a0,12(sp)
    1250:	6105                	c.addi16sp	sp,32
    1252:	8082                	c.jr	ra

00001254 <flash_read_mid_uid_with_check>:
    1254:	85df978b          	addigp	a5,-1956 # 8005c <cst_libm_sincosf+0x5c>
    1258:	4798                	c.lw	a4,8(a5)
    125a:	4390                	c.lw	a2,0(a5)
    125c:	43d4                	c.lw	a3,4(a5)
    125e:	47dc                	c.lw	a5,12(a5)
    1260:	1101                	c.addi	sp,-32
    1262:	cc22                	c.swsp	s0,24(sp)
    1264:	ca26                	c.swsp	s1,20(sp)
    1266:	842a                	c.mv	s0,a0
    1268:	c43a                	c.swsp	a4,8(sp)
    126a:	c63e                	c.swsp	a5,12(sp)
    126c:	ce06                	c.swsp	ra,28(sp)
    126e:	84ae                	c.mv	s1,a1
    1270:	c032                	c.swsp	a2,0(sp)
    1272:	c236                	c.swsp	a3,4(sp)
    1274:	fb9ff0ef          	jal	ra,122c <flash_read_mid>
    1278:	77c1                	c.lui	a5,0xffff0
    127a:	17fd                	c.addi	a5,-1
    127c:	00146737          	lui	a4,0x146
    1280:	c008                	c.sw	a0,0(s0)
    1282:	8fe9                	c.and	a5,a0
    1284:	08570713          	addi	a4,a4,133 # 146085 <FLASH_SIZE+0x46085>
    1288:	02e78063          	beq	a5,a4,12a8 <flash_read_mid_uid_with_check+0x54>
    128c:	00166737          	lui	a4,0x166
    1290:	08570713          	addi	a4,a4,133 # 166085 <FLASH_SIZE+0x66085>
    1294:	4781                	c.li	a5,0
    1296:	00e50963          	beq	a0,a4,12a8 <flash_read_mid_uid_with_check+0x54>
    129a:	40f2                	c.lwsp	ra,28(sp)
    129c:	4462                	c.lwsp	s0,24(sp)
    129e:	44d2                	c.lwsp	s1,20(sp)
    12a0:	853e                	c.mv	a0,a5
    12a2:	6105                	c.addi16sp	sp,32
    12a4:	00008067          	ret
    12a8:	8526                	c.mv	a0,s1
    12aa:	3fa9                	c.jal	1204 <flash_read_uid.constprop.6>
    12ac:	0004c783          	lbu	a5,0(s1)
    12b0:	00014603          	lbu	a2,0(sp)
    12b4:	0014c683          	lbu	a3,1(s1)
    12b8:	00114703          	lbu	a4,1(sp)
    12bc:	8f91                	c.sub	a5,a2
    12be:	0017b793          	seqz	a5,a5
    12c2:	00e69363          	bne	a3,a4,12c8 <flash_read_mid_uid_with_check+0x74>
    12c6:	0785                	c.addi	a5,1
    12c8:	0024c683          	lbu	a3,2(s1)
    12cc:	00214703          	lbu	a4,2(sp)
    12d0:	00e69463          	bne	a3,a4,12d8 <flash_read_mid_uid_with_check+0x84>
    12d4:	00178793          	addi	a5,a5,1 # ffff0001 <_DATA_LMA_START+0xdffeb3b9>
    12d8:	0034c683          	lbu	a3,3(s1)
    12dc:	00314703          	lbu	a4,3(sp)
    12e0:	00e69463          	bne	a3,a4,12e8 <flash_read_mid_uid_with_check+0x94>
    12e4:	00178793          	addi	a5,a5,1
    12e8:	0044c683          	lbu	a3,4(s1)
    12ec:	00414703          	lbu	a4,4(sp)
    12f0:	00e69463          	bne	a3,a4,12f8 <flash_read_mid_uid_with_check+0xa4>
    12f4:	00178793          	addi	a5,a5,1
    12f8:	0054c683          	lbu	a3,5(s1)
    12fc:	00514703          	lbu	a4,5(sp)
    1300:	00e69463          	bne	a3,a4,1308 <flash_read_mid_uid_with_check+0xb4>
    1304:	00178793          	addi	a5,a5,1
    1308:	0064c683          	lbu	a3,6(s1)
    130c:	00614703          	lbu	a4,6(sp)
    1310:	00e69463          	bne	a3,a4,1318 <flash_read_mid_uid_with_check+0xc4>
    1314:	00178793          	addi	a5,a5,1
    1318:	0074c683          	lbu	a3,7(s1)
    131c:	00714703          	lbu	a4,7(sp)
    1320:	00e69463          	bne	a3,a4,1328 <flash_read_mid_uid_with_check+0xd4>
    1324:	00178793          	addi	a5,a5,1
    1328:	0084c683          	lbu	a3,8(s1)
    132c:	00814703          	lbu	a4,8(sp)
    1330:	00e69463          	bne	a3,a4,1338 <flash_read_mid_uid_with_check+0xe4>
    1334:	00178793          	addi	a5,a5,1
    1338:	0094c683          	lbu	a3,9(s1)
    133c:	00914703          	lbu	a4,9(sp)
    1340:	00e69463          	bne	a3,a4,1348 <flash_read_mid_uid_with_check+0xf4>
    1344:	00178793          	addi	a5,a5,1
    1348:	00a4c683          	lbu	a3,10(s1)
    134c:	00a14703          	lbu	a4,10(sp)
    1350:	00e69463          	bne	a3,a4,1358 <flash_read_mid_uid_with_check+0x104>
    1354:	00178793          	addi	a5,a5,1
    1358:	00b4c683          	lbu	a3,11(s1)
    135c:	00b14703          	lbu	a4,11(sp)
    1360:	00e69463          	bne	a3,a4,1368 <flash_read_mid_uid_with_check+0x114>
    1364:	00178793          	addi	a5,a5,1
    1368:	00c4c683          	lbu	a3,12(s1)
    136c:	00c14703          	lbu	a4,12(sp)
    1370:	00e69463          	bne	a3,a4,1378 <flash_read_mid_uid_with_check+0x124>
    1374:	00178793          	addi	a5,a5,1
    1378:	00d4c683          	lbu	a3,13(s1)
    137c:	00d14703          	lbu	a4,13(sp)
    1380:	00e69463          	bne	a3,a4,1388 <flash_read_mid_uid_with_check+0x134>
    1384:	00178793          	addi	a5,a5,1
    1388:	00e4c683          	lbu	a3,14(s1)
    138c:	00e14703          	lbu	a4,14(sp)
    1390:	00e69463          	bne	a3,a4,1398 <flash_read_mid_uid_with_check+0x144>
    1394:	00178793          	addi	a5,a5,1
    1398:	00f14683          	lbu	a3,15(sp)
    139c:	00f4c703          	lbu	a4,15(s1)
    13a0:	00e69463          	bne	a3,a4,13a8 <flash_read_mid_uid_with_check+0x154>
    13a4:	00178793          	addi	a5,a5,1
    13a8:	40f2                	c.lwsp	ra,28(sp)
    13aa:	4462                	c.lwsp	s0,24(sp)
    13ac:	17c1                	c.addi	a5,-16
    13ae:	00f037b3          	snez	a5,a5
    13b2:	44d2                	c.lwsp	s1,20(sp)
    13b4:	853e                	c.mv	a0,a5
    13b6:	6105                	c.addi16sp	sp,32
    13b8:	00008067          	ret

000013bc <flash_dread>:
    13bc:	1141                	c.addi	sp,-16
    13be:	c606                	c.swsp	ra,12(sp)
    13c0:	87b2                	c.mv	a5,a2
    13c2:	7d047073          	csrci	mmisc_ctl,8
    13c6:	862e                	c.mv	a2,a1
    13c8:	00f005b3          	add	a1,zero,a5
    13cc:	a78ff0ef          	jal	ra,644 <flash_mspi_read_ram.constprop.7>
    13d0:	7d046073          	csrsi	mmisc_ctl,8
    13d4:	40b2                	c.lwsp	ra,12(sp)
    13d6:	0141                	c.addi	sp,16
    13d8:	00008067          	ret

000013dc <clock_init.constprop.10>:
    13dc:	1141                	c.addi	sp,-16
    13de:	c606                	c.swsp	ra,12(sp)
    13e0:	7d047073          	csrci	mmisc_ctl,8
    13e4:	c3cff0ef          	jal	ra,820 <clock_init_ram.constprop.11>
    13e8:	7d046073          	csrsi	mmisc_ctl,8
    13ec:	40b2                	c.lwsp	ra,12(sp)
    13ee:	0141                	c.addi	sp,16
    13f0:	00008067          	ret

000013f4 <pm_sleep_wakeup.constprop.2>:
    13f4:	1141                	c.addi	sp,-16
    13f6:	c606                	c.swsp	ra,12(sp)
    13f8:	7d047073          	csrci	mmisc_ctl,8
    13fc:	8cdff0ef          	jal	ra,cc8 <pm_sleep_wakeup_ram.constprop.3>
    1400:	7d046073          	csrsi	mmisc_ctl,8
    1404:	40b2                	c.lwsp	ra,12(sp)
    1406:	0141                	c.addi	sp,16
    1408:	8082                	c.jr	ra
    140a:	0001                	c.nop

0000140c <user_calib_adc_vref.constprop.9>:
    140c:	1101                	c.addi	sp,-32
    140e:	ce06                	c.swsp	ra,28(sp)
    1410:	c402                	c.swsp	zero,8(sp)
    1412:	00011623          	sh	zero,12(sp)
    1416:	00010723          	sb	zero,14(sp)
    141a:	c54d                	c.beqz	a0,14c4 <user_calib_adc_vref.constprop.9+0xb8>
    141c:	000007b7          	lui	a5,0x0
    1420:	1587a783          	lw	a5,344(a5) # 158 <_AES_VMA_END>
    1424:	0030                	c.addi4spn	a2,sp,8
    1426:	459d                	c.li	a1,7
    1428:	9782                	c.jalr	a5
    142a:	00c14783          	lbu	a5,12(sp)
    142e:	1c07b75b          	bfos	a4,a5,7,0
    1432:	04074163          	bltz	a4,1474 <user_calib_adc_vref.constprop.9+0x68>
    1436:	00e14703          	lbu	a4,14(sp)
    143a:	00d14603          	lbu	a2,13(sp)
    143e:	0722                	c.slli	a4,0x8
    1440:	66c1                	c.lui	a3,0x10
    1442:	00c705b3          	add	a1,a4,a2
    1446:	16fd                	c.addi	a3,-1
    1448:	02d58663          	beq	a1,a3,1474 <user_calib_adc_vref.constprop.9+0x68>
    144c:	fd060613          	addi	a2,a2,-48
    1450:	9732                	c.add	a4,a2
    1452:	3c07275b          	bfoz	a4,a4,15,0
    1456:	0fb00693          	li	a3,251
    145a:	08e6e563          	bltu	a3,a4,14e4 <user_calib_adc_vref.constprop.9+0xd8>
    145e:	17b1                	c.addi	a5,-20
    1460:	1c07b7db          	bfos	a5,a5,7,0
    1464:	5731                	c.li	a4,-20
    1466:	06e78f63          	beq	a5,a4,14e4 <user_calib_adc_vref.constprop.9+0xd8>
    146a:	f9578513          	addi	a0,a5,-107
    146e:	00a03533          	snez	a0,a0
    1472:	a89d                	c.j	14e8 <user_calib_adc_vref.constprop.9+0xdc>
    1474:	801407b7          	lui	a5,0x80140
    1478:	06500713          	li	a4,101
    147c:	1ee78a23          	sb	a4,500(a5) # 801401f4 <_DATA_LMA_START+0x6013b5ac>
    1480:	1c87a703          	lw	a4,456(a5)
    1484:	1e078a23          	sb	zero,500(a5)
    1488:	4c47275b          	bfoz	a4,a4,19,4
    148c:	380727db          	bfoz	a5,a4,14,0
    1490:	06078063          	beqz	a5,14f0 <user_calib_adc_vref.constprop.9+0xe4>
    1494:	1ff77713          	andi	a4,a4,511
    1498:	f9b70713          	addi	a4,a4,-101
    149c:	3c07275b          	bfoz	a4,a4,15,0
    14a0:	0c600693          	li	a3,198
    14a4:	04e6e063          	bltu	a3,a4,14e4 <user_calib_adc_vref.constprop.9+0xd8>
    14a8:	0097d513          	srli	a0,a5,0x9
    14ac:	1531                	c.addi	a0,-20
    14ae:	1c05355b          	bfos	a0,a0,7,0
    14b2:	57b1                	c.li	a5,-20
    14b4:	02f50863          	beq	a0,a5,14e4 <user_calib_adc_vref.constprop.9+0xd8>
    14b8:	fd550513          	addi	a0,a0,-43 # 3fffffd5 <_DATA_LMA_START+0x1fffb38d>
    14bc:	00a03533          	snez	a0,a0
    14c0:	0280006f          	j	14e8 <user_calib_adc_vref.constprop.9+0xdc>
    14c4:	801407b7          	lui	a5,0x80140
    14c8:	06500713          	li	a4,101
    14cc:	1ee78a23          	sb	a4,500(a5) # 801401f4 <_DATA_LMA_START+0x6013b5ac>
    14d0:	1c87a703          	lw	a4,456(a5)
    14d4:	1e078a23          	sb	zero,500(a5)
    14d8:	4c47275b          	bfoz	a4,a4,19,4
    14dc:	380727db          	bfoz	a5,a4,14,0
    14e0:	fa079ae3          	bnez	a5,1494 <user_calib_adc_vref.constprop.9+0x88>
    14e4:	00000513          	li	a0,0
    14e8:	40f2                	c.lwsp	ra,28(sp)
    14ea:	6105                	c.addi16sp	sp,32
    14ec:	00008067          	ret
    14f0:	00814503          	lbu	a0,8(sp)
    14f4:	00914783          	lbu	a5,9(sp)
    14f8:	953e                	c.add	a0,a5
    14fa:	f8050513          	addi	a0,a0,-128
    14fe:	3c05255b          	bfoz	a0,a0,15,0
    1502:	0fc53513          	sltiu	a0,a0,252
    1506:	b7cd                	c.j	14e8 <user_calib_adc_vref.constprop.9+0xdc>

00001508 <user_calib_freq_offset.constprop.8>:
    1508:	000007b7          	lui	a5,0x0
    150c:	1101                	c.addi	sp,-32
    150e:	1587a783          	lw	a5,344(a5) # 158 <_AES_VMA_END>
    1512:	577d                	c.li	a4,-1
    1514:	00f10613          	addi	a2,sp,15
    1518:	4585                	c.li	a1,1
    151a:	cc22                	c.swsp	s0,24(sp)
    151c:	ce06                	c.swsp	ra,28(sp)
    151e:	00e107a3          	sb	a4,15(sp)
    1522:	9782                	c.jalr	a5
    1524:	00f14403          	lbu	s0,15(sp)
    1528:	0ff00793          	li	a5,255
    152c:	00000513          	li	a0,0
    1530:	02f40263          	beq	s0,a5,1554 <user_calib_freq_offset.constprop.8+0x4c>
    1534:	08a00513          	li	a0,138
    1538:	a9cff0ef          	jal	ra,7d4 <analog_read_reg8>
    153c:	03f47413          	andi	s0,s0,63
    1540:	04057593          	andi	a1,a0,64
    1544:	0085e5b3          	or	a1,a1,s0
    1548:	08a00513          	li	a0,138
    154c:	a44ff0ef          	jal	ra,790 <analog_write_reg8>
    1550:	00100513          	li	a0,1
    1554:	40f2                	c.lwsp	ra,28(sp)
    1556:	4462                	c.lwsp	s0,24(sp)
    1558:	6105                	c.addi16sp	sp,32
    155a:	8082                	c.jr	ra
    155c:	0001                	c.nop
	...

00001560 <gpio_input_dis>:
    1560:	801407b7          	lui	a5,0x80140
    1564:	30978703          	lb	a4,777(a5) # 80140309 <_DATA_LMA_START+0x6013b6c1>
    1568:	fff54513          	not	a0,a0
    156c:	8d79                	c.and	a0,a4
    156e:	0ff57513          	andi	a0,a0,255
    1572:	30a784a3          	sb	a0,777(a5)
    1576:	8082                	c.jr	ra
    1578:	0001                	c.nop
	...

0000157c <_write>:
    157c:	1141                	c.addi	sp,-16
    157e:	c606                	c.swsp	ra,12(sp)
    1580:	c422                	c.swsp	s0,8(sp)
    1582:	c226                	c.swsp	s1,4(sp)
    1584:	c04a                	c.swsp	s2,0(sp)
    1586:	02c05763          	blez	a2,15b4 <_write+0x38>
    158a:	8932                	c.mv	s2,a2
    158c:	00b00433          	add	s0,zero,a1
    1590:	00c584b3          	add	s1,a1,a2
    1594:	00044503          	lbu	a0,0(s0)
    1598:	00140413          	addi	s0,s0,1
    159c:	e0cff0ef          	jal	ra,ba8 <dr_putchar>
    15a0:	fe941ae3          	bne	s0,s1,1594 <_write+0x18>
    15a4:	40b2                	c.lwsp	ra,12(sp)
    15a6:	4422                	c.lwsp	s0,8(sp)
    15a8:	854a                	c.mv	a0,s2
    15aa:	4492                	c.lwsp	s1,4(sp)
    15ac:	4902                	c.lwsp	s2,0(sp)
    15ae:	0141                	c.addi	sp,16
    15b0:	00008067          	ret
    15b4:	40b2                	c.lwsp	ra,12(sp)
    15b6:	4422                	c.lwsp	s0,8(sp)
    15b8:	4901                	c.li	s2,0
    15ba:	854a                	c.mv	a0,s2
    15bc:	4492                	c.lwsp	s1,4(sp)
    15be:	4902                	c.lwsp	s2,0(sp)
    15c0:	0141                	c.addi	sp,16
    15c2:	8082                	c.jr	ra

000015c4 <main>:
    15c4:	7119                	c.addi16sp	sp,-128
    15c6:	ffbc07b7          	lui	a5,0xffbc0
    15ca:	de86                	c.swsp	ra,124(sp)
    15cc:	17fd                	c.addi	a5,-1
    15ce:	80140737          	lui	a4,0x80140
    15d2:	dca2                	c.swsp	s0,120(sp)
    15d4:	daa6                	c.swsp	s1,116(sp)
    15d6:	d8ca                	c.swsp	s2,112(sp)
    15d8:	d6ce                	c.swsp	s3,108(sp)
    15da:	d4d2                	c.swsp	s4,104(sp)
    15dc:	d2d6                	c.swsp	s5,100(sp)
    15de:	d0da                	c.swsp	s6,96(sp)
    15e0:	cede                	c.swsp	s7,92(sp)
    15e2:	cce2                	c.swsp	s8,88(sp)
    15e4:	cae6                	c.swsp	s9,84(sp)
    15e6:	c8ea                	c.swsp	s10,80(sp)
    15e8:	c6ee                	c.swsp	s11,76(sp)
    15ea:	fe22                	c.fswsp	fs0,60(sp)
    15ec:	fc26                	c.fswsp	fs1,56(sp)
    15ee:	1ef72023          	sw	a5,480(a4) # 801401e0 <_DATA_LMA_START+0x6013b598>
    15f2:	4589                	c.li	a1,2
    15f4:	08c00513          	li	a0,140
    15f8:	1ef72223          	sw	a5,484(a4)
    15fc:	994ff0ef          	jal	ra,790 <analog_write_reg8>
    1600:	4581                	c.li	a1,0
    1602:	4529                	c.li	a0,10
    1604:	98cff0ef          	jal	ra,790 <analog_write_reg8>
    1608:	03b00593          	li	a1,59
    160c:	00b00513          	li	a0,11
    1610:	980ff0ef          	jal	ra,790 <analog_write_reg8>
    1614:	00500513          	li	a0,5
    1618:	9bcff0ef          	jal	ra,7d4 <analog_read_reg8>
    161c:	0f757593          	andi	a1,a0,247
    1620:	00500513          	li	a0,5
    1624:	96cff0ef          	jal	ra,790 <analog_write_reg8>
    1628:	00600513          	li	a0,6
    162c:	9a8ff0ef          	jal	ra,7d4 <analog_read_reg8>
    1630:	03e57593          	andi	a1,a0,62
    1634:	00600513          	li	a0,6
    1638:	958ff0ef          	jal	ra,790 <analog_write_reg8>
    163c:	04500593          	li	a1,69
    1640:	00100513          	li	a0,1
    1644:	94cff0ef          	jal	ra,790 <analog_write_reg8>
    1648:	04c00593          	li	a1,76
    164c:	01c00513          	li	a0,28
    1650:	940ff0ef          	jal	ra,790 <analog_write_reg8>
    1654:	801007b7          	lui	a5,0x80100
    1658:	44478703          	lb	a4,1092(a5) # 80100444 <_DATA_LMA_START+0x600fb7fc>
    165c:	801016b7          	lui	a3,0x80101
    1660:	0ff77713          	andi	a4,a4,255
    1664:	00e76713          	ori	a4,a4,14
    1668:	44e78223          	sb	a4,1092(a5)
    166c:	45878703          	lb	a4,1112(a5)
    1670:	03800513          	li	a0,56
    1674:	0ff77713          	andi	a4,a4,255
    1678:	00e76713          	ori	a4,a4,14
    167c:	44e78c23          	sb	a4,1112(a5)
    1680:	46c78703          	lb	a4,1132(a5)
    1684:	0ff77713          	andi	a4,a4,255
    1688:	00e76713          	ori	a4,a4,14
    168c:	46e78623          	sb	a4,1132(a5)
    1690:	48078703          	lb	a4,1152(a5)
    1694:	0ff77713          	andi	a4,a4,255
    1698:	00e76713          	ori	a4,a4,14
    169c:	48e78023          	sb	a4,1152(a5)
    16a0:	49478703          	lb	a4,1172(a5)
    16a4:	0ff77713          	andi	a4,a4,255
    16a8:	00e76713          	ori	a4,a4,14
    16ac:	48e78a23          	sb	a4,1172(a5)
    16b0:	4a878703          	lb	a4,1192(a5)
    16b4:	0ff77713          	andi	a4,a4,255
    16b8:	00e76713          	ori	a4,a4,14
    16bc:	4ae78423          	sb	a4,1192(a5)
    16c0:	4bc78703          	lb	a4,1212(a5)
    16c4:	0ff77713          	andi	a4,a4,255
    16c8:	00e76713          	ori	a4,a4,14
    16cc:	4ae78e23          	sb	a4,1212(a5)
    16d0:	4d078703          	lb	a4,1232(a5)
    16d4:	0ff77713          	andi	a4,a4,255
    16d8:	00e76713          	ori	a4,a4,14
    16dc:	4ce78823          	sb	a4,1232(a5)
    16e0:	83a68783          	lb	a5,-1990(a3) # 8010083a <_DATA_LMA_START+0x600fbbf2>
    16e4:	82068d23          	sb	zero,-1990(a3)
    16e8:	8ecff0ef          	jal	ra,7d4 <analog_read_reg8>
    16ec:	00a00433          	add	s0,zero,a0
    16f0:	03900513          	li	a0,57
    16f4:	8e0ff0ef          	jal	ra,7d4 <analog_read_reg8>
    16f8:	84aa                	c.mv	s1,a0
    16fa:	16047d5b          	bbc	s0,0,1874 <main+0x2b0>
    16fe:	0fe47593          	andi	a1,s0,254
    1702:	ce5f940b          	addigp	s0,-796 # 804e4 <g_pm_status_info>
    1706:	03800513          	li	a0,56
    170a:	1404f55b          	bbc	s1,0,1854 <main+0x290>
    170e:	4791                	c.li	a5,4
    1710:	00f40123          	sb	a5,2(s0)
    1714:	87cff0ef          	jal	ra,790 <analog_write_reg8>
    1718:	00100593          	li	a1,1
    171c:	07f00513          	li	a0,127
    1720:	870ff0ef          	jal	ra,790 <analog_write_reg8>
    1724:	06400513          	li	a0,100
    1728:	8acff0ef          	jal	ra,7d4 <analog_read_reg8>
    172c:	0c3527db          	bfoz	a5,a0,3,3
    1730:	00a400a3          	sb	a0,1(s0)
    1734:	00f40023          	sb	a5,0(s0)
    1738:	08800513          	li	a0,136
    173c:	898ff0ef          	jal	ra,7d4 <analog_read_reg8>
    1740:	be757c5b          	bbc	a0,7,1738 <main+0x174>
    1744:	a1cff0ef          	jal	ra,960 <pm_wait_bbpll_done>
    1748:	00244783          	lbu	a5,2(s0)
    174c:	0a87dc5b          	beqc	a5,8,1804 <main+0x240>
    1750:	80140737          	lui	a4,0x80140
    1754:	20a70783          	lb	a5,522(a4) # 8014020a <_DATA_LMA_START+0x6013b5c2>
    1758:	0ff7f793          	andi	a5,a5,255
    175c:	00c7e793          	ori	a5,a5,12
    1760:	20f70523          	sb	a5,522(a4)
    1764:	00100793          	li	a5,1
    1768:	20f72023          	sw	a5,512(a4)
    176c:	801404b7          	lui	s1,0x80140
    1770:	1fd48783          	lb	a5,509(s1) # 801401fd <_DATA_LMA_START+0x6013b5b5>
    1774:	0ff7f793          	andi	a5,a5,255
    1778:	ceffc1ab          	swgp	a5,-800 # 804e0 <g_chip_version>
    177c:	00244703          	lbu	a4,2(s0)
    1780:	04475c5b          	beqc	a4,4,17d8 <main+0x214>
    1784:	0ff00693          	li	a3,255
    1788:	04d78063          	beq	a5,a3,17c8 <main+0x204>
    178c:	08000593          	li	a1,128
    1790:	07d00513          	li	a0,125
    1794:	ffdfe0ef          	jal	ra,790 <analog_write_reg8>
    1798:	80140737          	lui	a4,0x80140
    179c:	06500793          	li	a5,101
    17a0:	1ef70a23          	sb	a5,500(a4) # 801401f4 <_DATA_LMA_START+0x6013b5ac>
    17a4:	1c872783          	lw	a5,456(a4)
    17a8:	1e070a23          	sb	zero,500(a4)
    17ac:	8bbd                	c.andi	a5,15
    17ae:	0037d55b          	beqc	a5,3,17b8 <main+0x1f4>
    17b2:	4725                	c.li	a4,9
    17b4:	04f77c63          	bgeu	a4,a5,180c <main+0x248>
    17b8:	801407b7          	lui	a5,0x80140
    17bc:	02000713          	li	a4,32
    17c0:	1ee787a3          	sb	a4,495(a5) # 801401ef <_DATA_LMA_START+0x6013b5a7>
    17c4:	0000006f          	j	17c4 <main+0x200>
    17c8:	bc17625b          	bnec	a4,1,178c <main+0x1c8>
    17cc:	07d00513          	li	a0,125
    17d0:	08000593          	li	a1,128
    17d4:	0180006f          	j	17ec <main+0x228>
    17d8:	03900513          	li	a0,57
    17dc:	ff9fe0ef          	jal	ra,7d4 <analog_read_reg8>
    17e0:	00256593          	ori	a1,a0,2
    17e4:	0ff5f593          	andi	a1,a1,255
    17e8:	03900513          	li	a0,57
    17ec:	fa5fe0ef          	jal	ra,790 <analog_write_reg8>
    17f0:	2004a503          	lw	a0,512(s1)
    17f4:	001877b7          	lui	a5,0x187
    17f8:	a0078793          	addi	a5,a5,-1536 # 186a00 <FLASH_SIZE+0x86a00>
    17fc:	953e                	c.add	a0,a5
    17fe:	3edd                	c.jal	13f4 <pm_sleep_wakeup.constprop.2>
    1800:	f8dff06f          	j	178c <main+0x1c8>
    1804:	b79fe0ef          	jal	ra,37c <pm_stimer_recover>
    1808:	f65ff06f          	j	176c <main+0x1a8>
    180c:	00f00513          	li	a0,15
    1810:	fc5fe0ef          	jal	ra,7d4 <analog_read_reg8>
    1814:	03f57593          	andi	a1,a0,63
    1818:	0405e593          	ori	a1,a1,64
    181c:	00f00513          	li	a0,15
    1820:	f71fe0ef          	jal	ra,790 <analog_write_reg8>
    1824:	100c                	c.addi4spn	a1,sp,32
    1826:	0868                	c.addi4spn	a0,sp,28
    1828:	a2dff0ef          	jal	ra,1254 <flash_read_mid_uid_with_check>
    182c:	0ff57513          	andi	a0,a0,255
    1830:	0015545b          	beqc	a0,1,1838 <main+0x274>
    1834:	7040006f          	j	1f38 <main+0x974>
    1838:	01e10783          	lb	a5,30(sp)
    183c:	4719                	c.li	a4,6
    183e:	17c1                	c.addi	a5,-16
    1840:	0ff7f793          	andi	a5,a5,255
    1844:	6ef76a63          	bltu	a4,a5,1f38 <main+0x974>
    1848:	841f970b          	addigp	a4,-1984 # 80040 <cst_libm_sincosf+0x40>
    184c:	0cf707db          	lea.w	a5,a4,a5
    1850:	439c                	c.lw	a5,0(a5)
    1852:	8782                	c.jr	a5
    1854:	00100793          	li	a5,1
    1858:	00f40123          	sb	a5,2(s0)
    185c:	f35fe0ef          	jal	ra,790 <analog_write_reg8>
    1860:	0014e593          	ori	a1,s1,1
    1864:	0ff5f593          	andi	a1,a1,255
    1868:	03900513          	li	a0,57
    186c:	f25fe0ef          	jal	ra,790 <analog_write_reg8>
    1870:	ea9ff06f          	j	1718 <main+0x154>
    1874:	07f00513          	li	a0,127
    1878:	f5dfe0ef          	jal	ra,7d4 <analog_read_reg8>
    187c:	ce5f940b          	addigp	s0,-796 # 804e4 <g_pm_status_info>
    1880:	4005745b          	bbs	a0,0,1888 <main+0x2c4>
    1884:	6300006f          	j	1eb4 <main+0x8f0>
    1888:	0014f45b          	bbc	s1,1,1890 <main+0x2cc>
    188c:	6100006f          	j	1e9c <main+0x8d8>
    1890:	47c1                	c.li	a5,16
    1892:	00f40123          	sb	a5,2(s0)
    1896:	b549                	c.j	1718 <main+0x154>
    1898:	003fe537          	lui	a0,0x3fe
    189c:	0c050513          	addi	a0,a0,192 # 3fe0c0 <FLASH_SIZE+0x2fe0c0>
    18a0:	b6dff0ef          	jal	ra,140c <user_calib_adc_vref.constprop.9>
    18a4:	003fe537          	lui	a0,0x3fe
    18a8:	c61ff0ef          	jal	ra,1508 <user_calib_freq_offset.constprop.8>
    18ac:	80140437          	lui	s0,0x80140
    18b0:	b2dff0ef          	jal	ra,13dc <clock_init.constprop.10>
    18b4:	30e40783          	lb	a5,782(s0) # 8014030e <_DATA_LMA_START+0x6013b6c6>
    18b8:	11000513          	li	a0,272
    18bc:	0ff7f793          	andi	a5,a5,255
    18c0:	0107e793          	ori	a5,a5,16
    18c4:	30f40723          	sb	a5,782(s0)
    18c8:	30a40783          	lb	a5,778(s0)
    18cc:	0ef7f793          	andi	a5,a5,239
    18d0:	30f40523          	sb	a5,778(s0)
    18d4:	c8dff0ef          	jal	ra,1560 <gpio_input_dis>
    18d8:	30e40783          	lb	a5,782(s0)
    18dc:	12000513          	li	a0,288
    18e0:	0ff7f793          	andi	a5,a5,255
    18e4:	0207e793          	ori	a5,a5,32
    18e8:	30f40723          	sb	a5,782(s0)
    18ec:	30a40783          	lb	a5,778(s0)
    18f0:	0df7f793          	andi	a5,a5,223
    18f4:	30f40523          	sb	a5,778(s0)
    18f8:	c69ff0ef          	jal	ra,1560 <gpio_input_dis>
    18fc:	30e40783          	lb	a5,782(s0)
    1900:	14000513          	li	a0,320
    1904:	0ff7f793          	andi	a5,a5,255
    1908:	0407e793          	ori	a5,a5,64
    190c:	30f40723          	sb	a5,782(s0)
    1910:	30a40783          	lb	a5,778(s0)
    1914:	0bf7f793          	andi	a5,a5,191
    1918:	30f40523          	sb	a5,778(s0)
    191c:	c45ff0ef          	jal	ra,1560 <gpio_input_dis>
    1920:	30e40783          	lb	a5,782(s0)
    1924:	18000513          	li	a0,384
    1928:	f807e793          	ori	a5,a5,-128
    192c:	0ff7f793          	andi	a5,a5,255
    1930:	30f40723          	sb	a5,782(s0)
    1934:	30a40783          	lb	a5,778(s0)
    1938:	07f7f793          	andi	a5,a5,127
    193c:	30f40523          	sb	a5,778(s0)
    1940:	c21ff0ef          	jal	ra,1560 <gpio_input_dis>
    1944:	00080537          	lui	a0,0x80
    1948:	10850513          	addi	a0,a0,264 # 80108 <firCoeffsQ15+0x10>
    194c:	6ab000ef          	jal	ra,27f6 <puts>
    1950:	65a9                	c.lui	a1,0xa
    1952:	00080537          	lui	a0,0x80
    1956:	0585                	c.addi	a1,1
    1958:	10c50513          	addi	a0,a0,268 # 8010c <firCoeffsQ15+0x14>
    195c:	67d000ef          	jal	ra,27d8 <printf>
    1960:	00080537          	lui	a0,0x80
    1964:	7e400593          	li	a1,2020
    1968:	12450513          	addi	a0,a0,292 # 80124 <firCoeffsQ15+0x2c>
    196c:	66d000ef          	jal	ra,27d8 <printf>
    1970:	000805b7          	lui	a1,0x80
    1974:	00080537          	lui	a0,0x80
    1978:	13c58593          	addi	a1,a1,316 # 8013c <firCoeffsQ15+0x44>
    197c:	14850513          	addi	a0,a0,328 # 80148 <firCoeffsQ15+0x50>
    1980:	659000ef          	jal	ra,27d8 <printf>
    1984:	87dfe0ef          	jal	ra,200 <delay_ms.constprop.12>
    1988:	300027f3          	csrr	a5,mstatus
    198c:	0037f65b          	bbc	a5,3,1998 <main+0x3d4>
    1990:	300477f3          	csrrci	a5,mstatus,8
    1994:	0ff0000f          	fence
    1998:	cbbfa50b          	lbugp	a0,-838 # 804ba <sys_clk+0x2>
    199c:	2ed020ef          	jal	ra,4488 <__floatsidf>
    19a0:	000807b7          	lui	a5,0x80
    19a4:	02078793          	addi	a5,a5,32 # 80020 <cst_libm_sincosf+0x20>
    19a8:	4390                	c.lw	a2,0(a5)
    19aa:	43d4                	c.lw	a3,4(a5)
    19ac:	00080a37          	lui	s4,0x80
    19b0:	3f4020ef          	jal	ra,3da4 <__muldf3>
    19b4:	cc9f998b          	addigp	s3,-824 # 804c8 <_BSS_VMA_START>
    19b8:	239020ef          	jal	ra,43f0 <__fixunsdfsi>
    19bc:	00a9a023          	sw	a0,0(s3)
    19c0:	33ca0513          	addi	a0,s4,828 # 8033c <firCoeffsQ15+0x244>
    19c4:	615000ef          	jal	ra,27d8 <printf>
    19c8:	00080537          	lui	a0,0x80
    19cc:	17050513          	addi	a0,a0,368 # 80170 <firCoeffsQ15+0x78>
    19d0:	609000ef          	jal	ra,27d8 <printf>
    19d4:	33ca0513          	addi	a0,s4,828
    19d8:	601000ef          	jal	ra,27d8 <printf>
    19dc:	0009a583          	lw	a1,0(s3)
    19e0:	00080537          	lui	a0,0x80
    19e4:	19c50513          	addi	a0,a0,412 # 8019c <firCoeffsQ15+0xa4>
    19e8:	5f1000ef          	jal	ra,27d8 <printf>
    19ec:	33ca0513          	addi	a0,s4,828
    19f0:	5e9000ef          	jal	ra,27d8 <printf>
    19f4:	00080537          	lui	a0,0x80
    19f8:	1bc50513          	addi	a0,a0,444 # 801bc <firCoeffsQ15+0xc4>
    19fc:	5dd000ef          	jal	ra,27d8 <printf>
    1a00:	00080537          	lui	a0,0x80
    1a04:	1e450513          	addi	a0,a0,484 # 801e4 <firCoeffsQ15+0xec>
    1a08:	5d1000ef          	jal	ra,27d8 <printf>
    1a0c:	000807b7          	lui	a5,0x80
    1a10:	0387a407          	flw	fs0,56(a5) # 80038 <cst_libm_sincosf+0x38>
    1a14:	86df9a8b          	addigp	s5,-1940 # 8006c <FIR_SIZES>
    1a18:	00080d37          	lui	s10,0x80
    1a1c:	00080cb7          	lui	s9,0x80
    1a20:	018a8d93          	addi	s11,s5,24
    1a24:	86df948b          	addigp	s1,-1940 # 8006c <FIR_SIZES>
    1a28:	028d0d13          	addi	s10,s10,40 # 80028 <cst_libm_sincosf+0x28>
    1a2c:	030c8c93          	addi	s9,s9,48 # 80030 <cst_libm_sincosf+0x30>
    1a30:	4080                	c.lw	s0,0(s1)
    1a32:	00241913          	slli	s2,s0,0x2
    1a36:	854a                	c.mv	a0,s2
    1a38:	41f000ef          	jal	ra,2656 <malloc>
    1a3c:	8c2a                	c.mv	s8,a0
    1a3e:	854a                	c.mv	a0,s2
    1a40:	417000ef          	jal	ra,2656 <malloc>
    1a44:	4591                	c.li	a1,4
    1a46:	8b2a                	c.mv	s6,a0
    1a48:	01c40513          	addi	a0,s0,28
    1a4c:	3f9000ef          	jal	ra,2644 <calloc>
    1a50:	8baa                	c.mv	s7,a0
    1a52:	3e0c0b63          	beqz	s8,1e48 <main+0x884>
    1a56:	3a0b0f63          	beqz	s6,1e14 <main+0x850>
    1a5a:	3a050d63          	beqz	a0,1e14 <main+0x850>
    1a5e:	04805563          	blez	s0,1aa8 <main+0x4e4>
    1a62:	87e2                	c.mv	a5,s8
    1a64:	f0000553          	fmv.w.x	fa0,zero
    1a68:	4901                	c.li	s2,0
    1a6a:	a03d                	c.j	1a98 <main+0x4d4>
    1a6c:	01200533          	add	a0,zero,s2
    1a70:	219020ef          	jal	ra,4488 <__floatsidf>
    1a74:	000d2603          	lw	a2,0(s10)
    1a78:	004d2683          	lw	a3,4(s10)
    1a7c:	328020ef          	jal	ra,3da4 <__muldf3>
    1a80:	000ca603          	lw	a2,0(s9)
    1a84:	004ca683          	lw	a3,4(s9)
    1a88:	331010ef          	jal	ra,35b8 <__divdf3>
    1a8c:	389020ef          	jal	ra,4614 <__truncdfsf2>
    1a90:	091010ef          	jal	ra,3320 <sinf>
    1a94:	00012783          	lw	a5,0(sp)
    1a98:	e388                	c.fsw	fa0,0(a5)
    1a9a:	0791                	c.addi	a5,4
    1a9c:	0905                	c.addi	s2,1
    1a9e:	c03e                	c.swsp	a5,0(sp)
    1aa0:	00f12223          	sw	a5,4(sp)
    1aa4:	fd2414e3          	bne	s0,s2,1a6c <main+0x4a8>
    1aa8:	8722                	c.mv	a4,s0
    1aaa:	86de                	c.mv	a3,s7
    1aac:	885f960b          	addigp	a2,-1916 # 80084 <firCoeffs32>
    1ab0:	45f5                	c.li	a1,29
    1ab2:	1008                	c.addi4spn	a0,sp,32
    1ab4:	03d000ef          	jal	ra,22f0 <riscv_fir_init_f32>
    1ab8:	878a                	c.mv	a5,sp
    1aba:	0009f737          	lui	a4,0x9f
    1abe:	00f77f63          	bgeu	a4,a5,1adc <main+0x518>
    1ac2:	fff61637          	lui	a2,0xfff61
    1ac6:	167d                	c.addi	a2,-1
    1ac8:	97b2                	c.add	a5,a2
    1aca:	ffc7f613          	andi	a2,a5,-4
    1ace:	0611                	c.addi	a2,4
    1ad0:	0aa00593          	li	a1,170
    1ad4:	0009f537          	lui	a0,0x9f
    1ad8:	2c5000ef          	jal	ra,259c <memset>
    1adc:	b0005073          	csrwi	mcycle,0
    1ae0:	b0205073          	csrwi	minstret,0
    1ae4:	b00027f3          	csrr	a5,mcycle
    1ae8:	c03e                	c.swsp	a5,0(sp)
    1aea:	b0202973          	csrr	s2,minstret
    1aee:	86a2                	c.mv	a3,s0
    1af0:	865a                	c.mv	a2,s6
    1af2:	85e2                	c.mv	a1,s8
    1af4:	1008                	c.addi4spn	a0,sp,32
    1af6:	2169                	c.jal	1f80 <riscv_fir_f32>
    1af8:	b0002773          	csrr	a4,mcycle
    1afc:	b02026f3          	csrr	a3,minstret
    1b00:	4782                	c.lwsp	a5,0(sp)
    1b02:	412686b3          	sub	a3,a3,s2
    1b06:	40f707b3          	sub	a5,a4,a5
    1b0a:	880a                	c.mv	a6,sp
    1b0c:	0009f737          	lui	a4,0x9f
    1b10:	33077863          	bgeu	a4,a6,1e40 <main+0x87c>
    1b14:	aaaab637          	lui	a2,0xaaaab
    1b18:	00072703          	lw	a4,0(a4) # 9f000 <__global_pointer$+0x1e800>
    1b1c:	aaa60613          	addi	a2,a2,-1366 # aaaaaaaa <_DATA_LMA_START+0x8aaa5e62>
    1b20:	0009f937          	lui	s2,0x9f
    1b24:	00c71a63          	bne	a4,a2,1b38 <main+0x574>
    1b28:	00490913          	addi	s2,s2,4 # 9f004 <__global_pointer$+0x1e804>
    1b2c:	01097663          	bgeu	s2,a6,1b38 <main+0x574>
    1b30:	00092603          	lw	a2,0(s2)
    1b34:	fee60ae3          	beq	a2,a4,1b28 <main+0x564>
    1b38:	0009a703          	lw	a4,0(s3)
    1b3c:	d017f553          	fcvt.s.wu	fa0,a5
    1b40:	00080537          	lui	a0,0x80
    1b44:	85a2                	c.mv	a1,s0
    1b46:	d01777d3          	fcvt.s.wu	fa5,a4
    1b4a:	21850513          	addi	a0,a0,536 # 80218 <firCoeffsQ15+0x120>
    1b4e:	c642                	c.swsp	a6,12(sp)
    1b50:	c436                	c.swsp	a3,8(sp)
    1b52:	00f12223          	sw	a5,4(sp)
    1b56:	18f57553          	fdiv.s	fa0,fa0,fa5
    1b5a:	10857553          	fmul.s	fa0,fa0,fs0
    1b5e:	e02a                	c.fswsp	fa0,0(sp)
    1b60:	479000ef          	jal	ra,27d8 <printf>
    1b64:	4792                	c.lwsp	a5,4(sp)
    1b66:	00080537          	lui	a0,0x80
    1b6a:	85be                	c.mv	a1,a5
    1b6c:	22850513          	addi	a0,a0,552 # 80228 <firCoeffsQ15+0x130>
    1b70:	469000ef          	jal	ra,27d8 <printf>
    1b74:	46a2                	c.lwsp	a3,8(sp)
    1b76:	00080537          	lui	a0,0x80
    1b7a:	85b6                	c.mv	a1,a3
    1b7c:	23c50513          	addi	a0,a0,572 # 8023c <firCoeffsQ15+0x144>
    1b80:	459000ef          	jal	ra,27d8 <printf>
    1b84:	6502                	c.flwsp	fa0,0(sp)
    1b86:	17f020ef          	jal	ra,4504 <__extendsfdf2>
    1b8a:	0001                	c.nop
    1b8c:	862a                	c.mv	a2,a0
    1b8e:	00080537          	lui	a0,0x80
    1b92:	86ae                	c.mv	a3,a1
    1b94:	26050513          	addi	a0,a0,608 # 80260 <firCoeffsQ15+0x168>
    1b98:	441000ef          	jal	ra,27d8 <printf>
    1b9c:	00c12803          	lw	a6,12(sp)
    1ba0:	00080537          	lui	a0,0x80
    1ba4:	412805b3          	sub	a1,a6,s2
    1ba8:	28450513          	addi	a0,a0,644 # 80284 <firCoeffsQ15+0x18c>
    1bac:	42d000ef          	jal	ra,27d8 <printf>
    1bb0:	01800533          	add	a0,zero,s8
    1bb4:	2b3000ef          	jal	ra,2666 <free>
    1bb8:	01600533          	add	a0,zero,s6
    1bbc:	2ab000ef          	jal	ra,2666 <free>
    1bc0:	01700533          	add	a0,zero,s7
    1bc4:	2a3000ef          	jal	ra,2666 <free>
    1bc8:	00448493          	addi	s1,s1,4
    1bcc:	e7b492e3          	bne	s1,s11,1a30 <main+0x46c>
    1bd0:	00080537          	lui	a0,0x80
    1bd4:	29c50513          	addi	a0,a0,668 # 8029c <firCoeffsQ15+0x1a4>
    1bd8:	401000ef          	jal	ra,27d8 <printf>
    1bdc:	33ca0513          	addi	a0,s4,828
    1be0:	3f9000ef          	jal	ra,27d8 <printf>
    1be4:	00080537          	lui	a0,0x80
    1be8:	2c450513          	addi	a0,a0,708 # 802c4 <firCoeffsQ15+0x1cc>
    1bec:	3ed000ef          	jal	ra,27d8 <printf>
    1bf0:	00080537          	lui	a0,0x80
    1bf4:	2ec50513          	addi	a0,a0,748 # 802ec <firCoeffsQ15+0x1f4>
    1bf8:	3e1000ef          	jal	ra,27d8 <printf>
    1bfc:	000807b7          	lui	a5,0x80
    1c00:	0387a487          	flw	fs1,56(a5) # 80038 <cst_libm_sincosf+0x38>
    1c04:	000807b7          	lui	a5,0x80
    1c08:	03c7a407          	flw	fs0,60(a5) # 8003c <cst_libm_sincosf+0x3c>
    1c0c:	00080cb7          	lui	s9,0x80
    1c10:	00080d37          	lui	s10,0x80
    1c14:	028c8c93          	addi	s9,s9,40 # 80028 <cst_libm_sincosf+0x28>
    1c18:	000aa403          	lw	s0,0(s5)
    1c1c:	00141913          	slli	s2,s0,0x1
    1c20:	01200533          	add	a0,zero,s2
    1c24:	233000ef          	jal	ra,2656 <malloc>
    1c28:	8c2a                	c.mv	s8,a0
    1c2a:	854a                	c.mv	a0,s2
    1c2c:	22b000ef          	jal	ra,2656 <malloc>
    1c30:	4589                	c.li	a1,2
    1c32:	8b2a                	c.mv	s6,a0
    1c34:	00740513          	addi	a0,s0,7
    1c38:	20d000ef          	jal	ra,2644 <calloc>
    1c3c:	8baa                	c.mv	s7,a0
    1c3e:	240c0763          	beqz	s8,1e8c <main+0x8c8>
    1c42:	200b0d63          	beqz	s6,1e5c <main+0x898>
    1c46:	20050b63          	beqz	a0,1e5c <main+0x898>
    1c4a:	04805d63          	blez	s0,1ca4 <main+0x6e0>
    1c4e:	00080937          	lui	s2,0x80
    1c52:	8762                	c.mv	a4,s8
    1c54:	f0000553          	fmv.w.x	fa0,zero
    1c58:	4d81                	c.li	s11,0
    1c5a:	03090913          	addi	s2,s2,48 # 80030 <cst_libm_sincosf+0x30>
    1c5e:	a03d                	c.j	1c8c <main+0x6c8>
    1c60:	01b00533          	add	a0,zero,s11
    1c64:	025020ef          	jal	ra,4488 <__floatsidf>
    1c68:	000ca603          	lw	a2,0(s9)
    1c6c:	004ca683          	lw	a3,4(s9)
    1c70:	134020ef          	jal	ra,3da4 <__muldf3>
    1c74:	00092603          	lw	a2,0(s2)
    1c78:	00492683          	lw	a3,4(s2)
    1c7c:	13d010ef          	jal	ra,35b8 <__divdf3>
    1c80:	195020ef          	jal	ra,4614 <__truncdfsf2>
    1c84:	69c010ef          	jal	ra,3320 <sinf>
    1c88:	00012703          	lw	a4,0(sp)
    1c8c:	10857553          	fmul.s	fa0,fa0,fs0
    1c90:	0709                	c.addi	a4,2
    1c92:	0d85                	c.addi	s11,1
    1c94:	c00517d3          	fcvt.w.s	a5,fa0,rtz
    1c98:	fef71f23          	sh	a5,-2(a4)
    1c9c:	00e12023          	sw	a4,0(sp)
    1ca0:	fdb410e3          	bne	s0,s11,1c60 <main+0x69c>
    1ca4:	8722                	c.mv	a4,s0
    1ca6:	86de                	c.mv	a3,s7
    1ca8:	8f9f960b          	addigp	a2,-1800 # 800f8 <firCoeffsQ15>
    1cac:	45a1                	c.li	a1,8
    1cae:	1008                	c.addi4spn	a0,sp,32
    1cb0:	2a0000ef          	jal	ra,1f50 <riscv_fir_init_q15>
    1cb4:	878a                	c.mv	a5,sp
    1cb6:	0009f737          	lui	a4,0x9f
    1cba:	00f77f63          	bgeu	a4,a5,1cd8 <main+0x714>
    1cbe:	fff61637          	lui	a2,0xfff61
    1cc2:	167d                	c.addi	a2,-1
    1cc4:	97b2                	c.add	a5,a2
    1cc6:	ffc7f613          	andi	a2,a5,-4
    1cca:	0611                	c.addi	a2,4
    1ccc:	0aa00593          	li	a1,170
    1cd0:	0009f537          	lui	a0,0x9f
    1cd4:	0c9000ef          	jal	ra,259c <memset>
    1cd8:	b0005073          	csrwi	mcycle,0
    1cdc:	b0205073          	csrwi	minstret,0
    1ce0:	b0002df3          	csrr	s11,mcycle
    1ce4:	b0202973          	csrr	s2,minstret
    1ce8:	86a2                	c.mv	a3,s0
    1cea:	865a                	c.mv	a2,s6
    1cec:	85e2                	c.mv	a1,s8
    1cee:	1008                	c.addi4spn	a0,sp,32
    1cf0:	62c000ef          	jal	ra,231c <riscv_fir_q15>
    1cf4:	b00027f3          	csrr	a5,mcycle
    1cf8:	b02026f3          	csrr	a3,minstret
    1cfc:	41b78db3          	sub	s11,a5,s11
    1d00:	412686b3          	sub	a3,a3,s2
    1d04:	870a                	c.mv	a4,sp
    1d06:	0009f7b7          	lui	a5,0x9f
    1d0a:	16e7fd63          	bgeu	a5,a4,1e84 <main+0x8c0>
    1d0e:	aaaab637          	lui	a2,0xaaaab
    1d12:	439c                	c.lw	a5,0(a5)
    1d14:	aaa60613          	addi	a2,a2,-1366 # aaaaaaaa <_DATA_LMA_START+0x8aaa5e62>
    1d18:	0009f937          	lui	s2,0x9f
    1d1c:	00c79a63          	bne	a5,a2,1d30 <main+0x76c>
    1d20:	00490913          	addi	s2,s2,4 # 9f004 <__global_pointer$+0x1e804>
    1d24:	00e97663          	bgeu	s2,a4,1d30 <main+0x76c>
    1d28:	00092603          	lw	a2,0(s2)
    1d2c:	fef60ae3          	beq	a2,a5,1d20 <main+0x75c>
    1d30:	0009a783          	lw	a5,0(s3)
    1d34:	d01df553          	fcvt.s.wu	fa0,s11
    1d38:	00080537          	lui	a0,0x80
    1d3c:	85a2                	c.mv	a1,s0
    1d3e:	d017f7d3          	fcvt.s.wu	fa5,a5
    1d42:	32050513          	addi	a0,a0,800 # 80320 <firCoeffsQ15+0x228>
    1d46:	c43a                	c.swsp	a4,8(sp)
    1d48:	c236                	c.swsp	a3,4(sp)
    1d4a:	18f57553          	fdiv.s	fa0,fa0,fa5
    1d4e:	10957553          	fmul.s	fa0,fa0,fs1
    1d52:	e02a                	c.fswsp	fa0,0(sp)
    1d54:	285000ef          	jal	ra,27d8 <printf>
    1d58:	00080537          	lui	a0,0x80
    1d5c:	01b005b3          	add	a1,zero,s11
    1d60:	22850513          	addi	a0,a0,552 # 80228 <firCoeffsQ15+0x130>
    1d64:	275000ef          	jal	ra,27d8 <printf>
    1d68:	4692                	c.lwsp	a3,4(sp)
    1d6a:	00080537          	lui	a0,0x80
    1d6e:	85b6                	c.mv	a1,a3
    1d70:	23c50513          	addi	a0,a0,572 # 8023c <firCoeffsQ15+0x144>
    1d74:	265000ef          	jal	ra,27d8 <printf>
    1d78:	6502                	c.flwsp	fa0,0(sp)
    1d7a:	78a020ef          	jal	ra,4504 <__extendsfdf2>
    1d7e:	0001                	c.nop
    1d80:	862a                	c.mv	a2,a0
    1d82:	00080537          	lui	a0,0x80
    1d86:	86ae                	c.mv	a3,a1
    1d88:	26050513          	addi	a0,a0,608 # 80260 <firCoeffsQ15+0x168>
    1d8c:	24d000ef          	jal	ra,27d8 <printf>
    1d90:	00812703          	lw	a4,8(sp)
    1d94:	00080537          	lui	a0,0x80
    1d98:	412705b3          	sub	a1,a4,s2
    1d9c:	28450513          	addi	a0,a0,644 # 80284 <firCoeffsQ15+0x18c>
    1da0:	239000ef          	jal	ra,27d8 <printf>
    1da4:	01800533          	add	a0,zero,s8
    1da8:	0bf000ef          	jal	ra,2666 <free>
    1dac:	01600533          	add	a0,zero,s6
    1db0:	0b7000ef          	jal	ra,2666 <free>
    1db4:	01700533          	add	a0,zero,s7
    1db8:	0af000ef          	jal	ra,2666 <free>
    1dbc:	004a8a93          	addi	s5,s5,4
    1dc0:	e49a9ce3          	bne	s5,s1,1c18 <main+0x654>
    1dc4:	00080537          	lui	a0,0x80
    1dc8:	34050513          	addi	a0,a0,832 # 80340 <firCoeffsQ15+0x248>
    1dcc:	20d000ef          	jal	ra,27d8 <printf>
    1dd0:	33ca0513          	addi	a0,s4,828
    1dd4:	205000ef          	jal	ra,27d8 <printf>
    1dd8:	00080537          	lui	a0,0x80
    1ddc:	36850513          	addi	a0,a0,872 # 80368 <firCoeffsQ15+0x270>
    1de0:	1f9000ef          	jal	ra,27d8 <printf>
    1de4:	00080537          	lui	a0,0x80
    1de8:	38450513          	addi	a0,a0,900 # 80384 <firCoeffsQ15+0x28c>
    1dec:	1ed000ef          	jal	ra,27d8 <printf>
    1df0:	50f6                	c.lwsp	ra,124(sp)
    1df2:	5466                	c.lwsp	s0,120(sp)
    1df4:	54d6                	c.lwsp	s1,116(sp)
    1df6:	5946                	c.lwsp	s2,112(sp)
    1df8:	59b6                	c.lwsp	s3,108(sp)
    1dfa:	5a26                	c.lwsp	s4,104(sp)
    1dfc:	5a96                	c.lwsp	s5,100(sp)
    1dfe:	5b06                	c.lwsp	s6,96(sp)
    1e00:	4bf6                	c.lwsp	s7,92(sp)
    1e02:	4c66                	c.lwsp	s8,88(sp)
    1e04:	4cd6                	c.lwsp	s9,84(sp)
    1e06:	4d46                	c.lwsp	s10,80(sp)
    1e08:	4db6                	c.lwsp	s11,76(sp)
    1e0a:	7472                	c.flwsp	fs0,60(sp)
    1e0c:	74e2                	c.flwsp	fs1,56(sp)
    1e0e:	4501                	c.li	a0,0
    1e10:	6109                	c.addi16sp	sp,128
    1e12:	8082                	c.jr	ra
    1e14:	00080537          	lui	a0,0x80
    1e18:	008005b3          	add	a1,zero,s0
    1e1c:	3a450513          	addi	a0,a0,932 # 803a4 <firCoeffsQ15+0x2ac>
    1e20:	1b9000ef          	jal	ra,27d8 <printf>
    1e24:	01800533          	add	a0,zero,s8
    1e28:	03f000ef          	jal	ra,2666 <free>
    1e2c:	000b0663          	beqz	s6,1e38 <main+0x874>
    1e30:	01600533          	add	a0,zero,s6
    1e34:	033000ef          	jal	ra,2666 <free>
    1e38:	d80b94e3          	bnez	s7,1bc0 <main+0x5fc>
    1e3c:	d8dff06f          	j	1bc8 <main+0x604>
    1e40:	0009f937          	lui	s2,0x9f
    1e44:	cf5ff06f          	j	1b38 <main+0x574>
    1e48:	00080537          	lui	a0,0x80
    1e4c:	008005b3          	add	a1,zero,s0
    1e50:	3a450513          	addi	a0,a0,932 # 803a4 <firCoeffsQ15+0x2ac>
    1e54:	185000ef          	jal	ra,27d8 <printf>
    1e58:	fd5ff06f          	j	1e2c <main+0x868>
    1e5c:	008005b3          	add	a1,zero,s0
    1e60:	3a4d0513          	addi	a0,s10,932 # 803a4 <firCoeffsQ15+0x2ac>
    1e64:	175000ef          	jal	ra,27d8 <printf>
    1e68:	01800533          	add	a0,zero,s8
    1e6c:	7fa000ef          	jal	ra,2666 <free>
    1e70:	000b0663          	beqz	s6,1e7c <main+0x8b8>
    1e74:	01600533          	add	a0,zero,s6
    1e78:	7ee000ef          	jal	ra,2666 <free>
    1e7c:	f20b9ce3          	bnez	s7,1db4 <main+0x7f0>
    1e80:	f3dff06f          	j	1dbc <main+0x7f8>
    1e84:	0009f937          	lui	s2,0x9f
    1e88:	ea9ff06f          	j	1d30 <main+0x76c>
    1e8c:	008005b3          	add	a1,zero,s0
    1e90:	3a4d0513          	addi	a0,s10,932
    1e94:	145000ef          	jal	ra,27d8 <printf>
    1e98:	fd9ff06f          	j	1e70 <main+0x8ac>
    1e9c:	02000793          	li	a5,32
    1ea0:	0fd4f593          	andi	a1,s1,253
    1ea4:	03900513          	li	a0,57
    1ea8:	00f40123          	sb	a5,2(s0)
    1eac:	8e5fe0ef          	jal	ra,790 <analog_write_reg8>
    1eb0:	869ff06f          	j	1718 <main+0x154>
    1eb4:	00800793          	li	a5,8
    1eb8:	00f40123          	sb	a5,2(s0)
    1ebc:	85dff06f          	j	1718 <main+0x154>
    1ec0:	001fe537          	lui	a0,0x1fe
    1ec4:	0c050513          	addi	a0,a0,192 # 1fe0c0 <FLASH_SIZE+0xfe0c0>
    1ec8:	d44ff0ef          	jal	ra,140c <user_calib_adc_vref.constprop.9>
    1ecc:	001fe537          	lui	a0,0x1fe
    1ed0:	e38ff0ef          	jal	ra,1508 <user_calib_freq_offset.constprop.8>
    1ed4:	9d9ff06f          	j	18ac <main+0x2e8>
    1ed8:	000fe537          	lui	a0,0xfe
    1edc:	0c050513          	addi	a0,a0,192 # fe0c0 <_STACK_TOP+0x5e0c0>
    1ee0:	d2cff0ef          	jal	ra,140c <user_calib_adc_vref.constprop.9>
    1ee4:	000fe537          	lui	a0,0xfe
    1ee8:	e20ff0ef          	jal	ra,1508 <user_calib_freq_offset.constprop.8>
    1eec:	9c1ff06f          	j	18ac <main+0x2e8>
    1ef0:	0007e537          	lui	a0,0x7e
    1ef4:	0c050513          	addi	a0,a0,192 # 7e0c0 <BIN_SIZE+0x78f92>
    1ef8:	d14ff0ef          	jal	ra,140c <user_calib_adc_vref.constprop.9>
    1efc:	0007e537          	lui	a0,0x7e
    1f00:	e08ff0ef          	jal	ra,1508 <user_calib_freq_offset.constprop.8>
    1f04:	9a9ff06f          	j	18ac <main+0x2e8>
    1f08:	0001e537          	lui	a0,0x1e
    1f0c:	0c050513          	addi	a0,a0,192 # 1e0c0 <BIN_SIZE+0x18f92>
    1f10:	cfcff0ef          	jal	ra,140c <user_calib_adc_vref.constprop.9>
    1f14:	0001e537          	lui	a0,0x1e
    1f18:	df0ff0ef          	jal	ra,1508 <user_calib_freq_offset.constprop.8>
    1f1c:	991ff06f          	j	18ac <main+0x2e8>
    1f20:	0000e537          	lui	a0,0xe
    1f24:	0c050513          	addi	a0,a0,192 # e0c0 <BIN_SIZE+0x8f92>
    1f28:	ce4ff0ef          	jal	ra,140c <user_calib_adc_vref.constprop.9>
    1f2c:	0000e537          	lui	a0,0xe
    1f30:	dd8ff0ef          	jal	ra,1508 <user_calib_freq_offset.constprop.8>
    1f34:	979ff06f          	j	18ac <main+0x2e8>
    1f38:	00000513          	li	a0,0
    1f3c:	cd0ff0ef          	jal	ra,140c <user_calib_adc_vref.constprop.9>
    1f40:	96dff06f          	j	18ac <main+0x2e8>
    1f44:	0001                	c.nop
	...

00001f48 <default_irq_entry>:
    1f48:	a001                	c.j	1f48 <default_irq_entry>

00001f4a <trap_handler>:
    1f4a:	a001                	c.j	1f4a <trap_handler>
    1f4c:	0001                	c.nop
	...

00001f50 <riscv_fir_init_q15>:
    1f50:	1141                	c.addi	sp,-16
    1f52:	177d                	c.addi	a4,-1
    1f54:	c422                	c.swsp	s0,8(sp)
    1f56:	c606                	c.swsp	ra,12(sp)
    1f58:	972e                	c.add	a4,a1
    1f5a:	842a                	c.mv	s0,a0
    1f5c:	c510                	c.sw	a2,8(a0)
    1f5e:	87ae                	c.mv	a5,a1
    1f60:	8536                	c.mv	a0,a3
    1f62:	4581                	c.li	a1,0
    1f64:	00171613          	slli	a2,a4,0x1
    1f68:	00f41023          	sh	a5,0(s0)
    1f6c:	630000ef          	jal	ra,259c <memset>
    1f70:	86aa                	c.mv	a3,a0
    1f72:	40b2                	c.lwsp	ra,12(sp)
    1f74:	c054                	c.sw	a3,4(s0)
    1f76:	4422                	c.lwsp	s0,8(sp)
    1f78:	4501                	c.li	a0,0
    1f7a:	0141                	c.addi	sp,16
    1f7c:	8082                	c.jr	ra
	...

00001f80 <riscv_fir_f32>:
    1f80:	00055283          	lhu	t0,0(a0) # e000 <BIN_SIZE+0x8ed2>
    1f84:	7179                	c.addi16sp	sp,-48
    1f86:	00452383          	lw	t2,4(a0)
    1f8a:	00229f13          	slli	t5,t0,0x2
    1f8e:	1f71                	c.addi	t5,-4
    1f90:	d426                	c.swsp	s1,40(sp)
    1f92:	ce52                	c.swsp	s4,28(sp)
    1f94:	d622                	c.swsp	s0,44(sp)
    1f96:	0036da13          	srli	s4,a3,0x3
    1f9a:	d24a                	c.swsp	s2,36(sp)
    1f9c:	d04e                	c.swsp	s3,32(sp)
    1f9e:	e622                	c.fswsp	fs0,12(sp)
    1fa0:	e426                	c.fswsp	fs1,8(sp)
    1fa2:	e24a                	c.fswsp	fs2,4(sp)
    1fa4:	4504                	c.lw	s1,8(a0)
    1fa6:	9f1e                	c.add	t5,t2
    1fa8:	340a0263          	beqz	s4,22ec <riscv_fir_f32+0x36c>
    1fac:	0032d913          	srli	s2,t0,0x3
    1fb0:	00591993          	slli	s3,s2,0x5
    1fb4:	0072f413          	andi	s0,t0,7
    1fb8:	01c38813          	addi	a6,t2,28
    1fbc:	01348eb3          	add	t4,s1,s3
    1fc0:	8fd2                	c.mv	t6,s4
    1fc2:	8e7a                	c.mv	t3,t5
    1fc4:	8332                	c.mv	t1,a2
    1fc6:	88ae                	c.mv	a7,a1
    1fc8:	0008a783          	lw	a5,0(a7)
    1fcc:	02088893          	addi	a7,a7,32
    1fd0:	00fe2023          	sw	a5,0(t3)
    1fd4:	fe48a703          	lw	a4,-28(a7)
    1fd8:	00ee2223          	sw	a4,4(t3)
    1fdc:	fe88a703          	lw	a4,-24(a7)
    1fe0:	00ee2423          	sw	a4,8(t3)
    1fe4:	fec8a703          	lw	a4,-20(a7)
    1fe8:	00ee2623          	sw	a4,12(t3)
    1fec:	ff08a703          	lw	a4,-16(a7)
    1ff0:	00ee2823          	sw	a4,16(t3)
    1ff4:	ff48a703          	lw	a4,-12(a7)
    1ff8:	00ee2a23          	sw	a4,20(t3)
    1ffc:	ff88a703          	lw	a4,-8(a7)
    2000:	f00000d3          	fmv.w.x	ft1,zero
    2004:	00ee2c23          	sw	a4,24(t3)
    2008:	ffc8a703          	lw	a4,-4(a7)
    200c:	00ee2e23          	sw	a4,28(t3)
    2010:	020e0e13          	addi	t3,t3,32
    2014:	fe482807          	flw	fa6,-28(a6)
    2018:	fe882107          	flw	ft2,-24(a6)
    201c:	fec82187          	flw	ft3,-20(a6)
    2020:	ff082207          	flw	ft4,-16(a6)
    2024:	ff482287          	flw	ft5,-12(a6)
    2028:	ff882307          	flw	ft6,-8(a6)
    202c:	ffc82387          	flw	ft7,-4(a6)
    2030:	201087d3          	fmv.s	fa5,ft1
    2034:	20108753          	fmv.s	fa4,ft1
    2038:	201086d3          	fmv.s	fa3,ft1
    203c:	20108653          	fmv.s	fa2,ft1
    2040:	201085d3          	fmv.s	fa1,ft1
    2044:	20108553          	fmv.s	fa0,ft1
    2048:	20108053          	fmv.s	ft0,ft1
    204c:	87c2                	c.mv	a5,a6
    204e:	8726                	c.mv	a4,s1
    2050:	14090a63          	beqz	s2,21a4 <riscv_fir_f32+0x224>
    2054:	0007a907          	flw	fs2,0(a5) # 9f000 <__global_pointer$+0x1e800>
    2058:	6304                	c.flw	fs1,0(a4)
    205a:	6340                	c.flw	fs0,4(a4)
    205c:	02078793          	addi	a5,a5,32
    2060:	0104f043          	fmadd.s	ft0,fs1,fa6,ft0
    2064:	fe47a807          	flw	fa6,-28(a5)
    2068:	5024f543          	fmadd.s	fa0,fs1,ft2,fa0
    206c:	00872f87          	flw	ft11,8(a4) # 9f008 <__global_pointer$+0x1e808>
    2070:	5834f5c3          	fmadd.s	fa1,fs1,ft3,fa1
    2074:	00c72f07          	flw	ft10,12(a4)
    2078:	6044f643          	fmadd.s	fa2,fs1,ft4,fa2
    207c:	01072e87          	flw	ft9,16(a4)
    2080:	6854f6c3          	fmadd.s	fa3,fs1,ft5,fa3
    2084:	01472e07          	flw	ft8,20(a4)
    2088:	7064f743          	fmadd.s	fa4,fs1,ft6,fa4
    208c:	01872887          	flw	fa7,24(a4)
    2090:	7874f7c3          	fmadd.s	fa5,fs1,ft7,fa5
    2094:	02070713          	addi	a4,a4,32
    2098:	0924f4c3          	fmadd.s	fs1,fs1,fs2,ft1
    209c:	ffc72087          	flw	ft1,-4(a4)
    20a0:	00247043          	fmadd.s	ft0,fs0,ft2,ft0
    20a4:	fe87a107          	flw	ft2,-24(a5)
    20a8:	50347543          	fmadd.s	fa0,fs0,ft3,fa0
    20ac:	584475c3          	fmadd.s	fa1,fs0,ft4,fa1
    20b0:	60547643          	fmadd.s	fa2,fs0,ft5,fa2
    20b4:	686476c3          	fmadd.s	fa3,fs0,ft6,fa3
    20b8:	70747743          	fmadd.s	fa4,fs0,ft7,fa4
    20bc:	788977c3          	fmadd.s	fa5,fs2,fs0,fa5
    20c0:	49047443          	fmadd.s	fs0,fs0,fa6,fs1
    20c4:	003ff043          	fmadd.s	ft0,ft11,ft3,ft0
    20c8:	fec7a187          	flw	ft3,-20(a5)
    20cc:	504ff543          	fmadd.s	fa0,ft11,ft4,fa0
    20d0:	585ff5c3          	fmadd.s	fa1,ft11,ft5,fa1
    20d4:	606ff643          	fmadd.s	fa2,ft11,ft6,fa2
    20d8:	687ff6c3          	fmadd.s	fa3,ft11,ft7,fa3
    20dc:	71f97743          	fmadd.s	fa4,fs2,ft11,fa4
    20e0:	79f877c3          	fmadd.s	fa5,fa6,ft11,fa5
    20e4:	402fffc3          	fmadd.s	ft11,ft11,ft2,fs0
    20e8:	004f7043          	fmadd.s	ft0,ft10,ft4,ft0
    20ec:	ff07a207          	flw	ft4,-16(a5)
    20f0:	505f7543          	fmadd.s	fa0,ft10,ft5,fa0
    20f4:	586f75c3          	fmadd.s	fa1,ft10,ft6,fa1
    20f8:	607f7643          	fmadd.s	fa2,ft10,ft7,fa2
    20fc:	69e976c3          	fmadd.s	fa3,fs2,ft10,fa3
    2100:	71e87743          	fmadd.s	fa4,fa6,ft10,fa4
    2104:	79e177c3          	fmadd.s	fa5,ft2,ft10,fa5
    2108:	f83f7f43          	fmadd.s	ft10,ft10,ft3,ft11
    210c:	005ef043          	fmadd.s	ft0,ft9,ft5,ft0
    2110:	ff47a287          	flw	ft5,-12(a5)
    2114:	506ef543          	fmadd.s	fa0,ft9,ft6,fa0
    2118:	587ef5c3          	fmadd.s	fa1,ft9,ft7,fa1
    211c:	61d97643          	fmadd.s	fa2,fs2,ft9,fa2
    2120:	69d876c3          	fmadd.s	fa3,fa6,ft9,fa3
    2124:	71d17743          	fmadd.s	fa4,ft2,ft9,fa4
    2128:	79d1f7c3          	fmadd.s	fa5,ft3,ft9,fa5
    212c:	f04efec3          	fmadd.s	ft9,ft9,ft4,ft10
    2130:	006e7043          	fmadd.s	ft0,ft8,ft6,ft0
    2134:	ff87a307          	flw	ft6,-8(a5)
    2138:	507e7543          	fmadd.s	fa0,ft8,ft7,fa0
    213c:	59c975c3          	fmadd.s	fa1,fs2,ft8,fa1
    2140:	61c87643          	fmadd.s	fa2,fa6,ft8,fa2
    2144:	69c176c3          	fmadd.s	fa3,ft2,ft8,fa3
    2148:	71c1f743          	fmadd.s	fa4,ft3,ft8,fa4
    214c:	79c277c3          	fmadd.s	fa5,ft4,ft8,fa5
    2150:	e85e7e43          	fmadd.s	ft8,ft8,ft5,ft9
    2154:	0078f043          	fmadd.s	ft0,fa7,ft7,ft0
    2158:	ffc7a387          	flw	ft7,-4(a5)
    215c:	51197543          	fmadd.s	fa0,fs2,fa7,fa0
    2160:	591875c3          	fmadd.s	fa1,fa6,fa7,fa1
    2164:	61117643          	fmadd.s	fa2,ft2,fa7,fa2
    2168:	6911f6c3          	fmadd.s	fa3,ft3,fa7,fa3
    216c:	71127743          	fmadd.s	fa4,ft4,fa7,fa4
    2170:	7912f7c3          	fmadd.s	fa5,ft5,fa7,fa5
    2174:	e068f8c3          	fmadd.s	fa7,fa7,ft6,ft8
    2178:	00197043          	fmadd.s	ft0,fs2,ft1,ft0
    217c:	50187543          	fmadd.s	fa0,fa6,ft1,fa0
    2180:	581175c3          	fmadd.s	fa1,ft2,ft1,fa1
    2184:	6011f643          	fmadd.s	fa2,ft3,ft1,fa2
    2188:	681276c3          	fmadd.s	fa3,ft4,ft1,fa3
    218c:	7012f743          	fmadd.s	fa4,ft5,ft1,fa4
    2190:	781377c3          	fmadd.s	fa5,ft6,ft1,fa5
    2194:	8870f0c3          	fmadd.s	ft1,ft1,ft7,fa7
    2198:	ebd71ee3          	bne	a4,t4,2054 <riscv_fir_f32+0xd4>
    219c:	013807b3          	add	a5,a6,s3
    21a0:	01d00733          	add	a4,zero,t4
    21a4:	c821                	c.beqz	s0,21f4 <riscv_fir_f32+0x274>
    21a6:	8522                	c.mv	a0,s0
    21a8:	00072887          	flw	fa7,0(a4)
    21ac:	0007ae07          	flw	ft8,0(a5)
    21b0:	157d                	c.addi	a0,-1
    21b2:	0108f043          	fmadd.s	ft0,fa7,fa6,ft0
    21b6:	0711                	c.addi	a4,4
    21b8:	5028f543          	fmadd.s	fa0,fa7,ft2,fa0
    21bc:	20210853          	fmv.s	fa6,ft2
    21c0:	5838f5c3          	fmadd.s	fa1,fa7,ft3,fa1
    21c4:	20318153          	fmv.s	ft2,ft3
    21c8:	6048f643          	fmadd.s	fa2,fa7,ft4,fa2
    21cc:	204201d3          	fmv.s	ft3,ft4
    21d0:	6858f6c3          	fmadd.s	fa3,fa7,ft5,fa3
    21d4:	20528253          	fmv.s	ft4,ft5
    21d8:	7068f743          	fmadd.s	fa4,fa7,ft6,fa4
    21dc:	206302d3          	fmv.s	ft5,ft6
    21e0:	7878f7c3          	fmadd.s	fa5,fa7,ft7,fa5
    21e4:	20738353          	fmv.s	ft6,ft7
    21e8:	09c8f0c3          	fmadd.s	ft1,fa7,ft8,ft1
    21ec:	21ce03d3          	fmv.s	ft7,ft8
    21f0:	0791                	c.addi	a5,4
    21f2:	f95d                	c.bnez	a0,21a8 <riscv_fir_f32+0x228>
    21f4:	00032027          	fsw	ft0,0(t1)
    21f8:	00a32227          	fsw	fa0,4(t1)
    21fc:	00b32427          	fsw	fa1,8(t1)
    2200:	00c32627          	fsw	fa2,12(t1)
    2204:	00d32827          	fsw	fa3,16(t1)
    2208:	00e32a27          	fsw	fa4,20(t1)
    220c:	00f32c27          	fsw	fa5,24(t1)
    2210:	00132e27          	fsw	ft1,28(t1)
    2214:	1ffd                	c.addi	t6,-1
    2216:	02030313          	addi	t1,t1,32
    221a:	02080813          	addi	a6,a6,32
    221e:	da0f95e3          	bnez	t6,1fc8 <riscv_fir_f32+0x48>
    2222:	005a1793          	slli	a5,s4,0x5
    2226:	95be                	c.add	a1,a5
    2228:	9f3e                	c.add	t5,a5
    222a:	00f38833          	add	a6,t2,a5
    222e:	963e                	c.add	a2,a5
    2230:	8a9d                	c.andi	a3,7
    2232:	c2b9                	c.beqz	a3,2278 <riscv_fir_f32+0x2f8>
    2234:	00269893          	slli	a7,a3,0x2
    2238:	01158333          	add	t1,a1,a7
    223c:	01000533          	add	a0,zero,a6
    2240:	0f11                	c.addi	t5,4
    2242:	419c                	c.lw	a5,0(a1)
    2244:	feff2e23          	sw	a5,-4(t5)
    2248:	0591                	c.addi	a1,4
    224a:	08028963          	beqz	t0,22dc <riscv_fir_f32+0x35c>
    224e:	8696                	c.mv	a3,t0
    2250:	8726                	c.mv	a4,s1
    2252:	87aa                	c.mv	a5,a0
    2254:	f00007d3          	fmv.w.x	fa5,zero
    2258:	6394                	c.flw	fa3,0(a5)
    225a:	6318                	c.flw	fa4,0(a4)
    225c:	16fd                	c.addi	a3,-1
    225e:	0791                	c.addi	a5,4
    2260:	78e6f7c3          	fmadd.s	fa5,fa3,fa4,fa5
    2264:	0711                	c.addi	a4,4
    2266:	faed                	c.bnez	a3,2258 <riscv_fir_f32+0x2d8>
    2268:	e21c                	c.fsw	fa5,0(a2)
    226a:	0511                	c.addi	a0,4
    226c:	00460613          	addi	a2,a2,4
    2270:	fc6598e3          	bne	a1,t1,2240 <riscv_fir_f32+0x2c0>
    2274:	01180833          	add	a6,a6,a7
    2278:	12fd                	c.addi	t0,-1
    227a:	0022d593          	srli	a1,t0,0x2
    227e:	c59d                	c.beqz	a1,22ac <riscv_fir_f32+0x32c>
    2280:	86ae                	c.mv	a3,a1
    2282:	871e                	c.mv	a4,t2
    2284:	010007b3          	add	a5,zero,a6
    2288:	4390                	c.lw	a2,0(a5)
    228a:	07c1                	c.addi	a5,16
    228c:	c310                	c.sw	a2,0(a4)
    228e:	ff47a603          	lw	a2,-12(a5)
    2292:	c350                	c.sw	a2,4(a4)
    2294:	ff87a603          	lw	a2,-8(a5)
    2298:	16fd                	c.addi	a3,-1
    229a:	c710                	c.sw	a2,8(a4)
    229c:	ffc7a603          	lw	a2,-4(a5)
    22a0:	c750                	c.sw	a2,12(a4)
    22a2:	0741                	c.addi	a4,16
    22a4:	f2f5                	c.bnez	a3,2288 <riscv_fir_f32+0x308>
    22a6:	0592                	c.slli	a1,0x4
    22a8:	982e                	c.add	a6,a1
    22aa:	93ae                	c.add	t2,a1
    22ac:	0032f793          	andi	a5,t0,3
    22b0:	00279713          	slli	a4,a5,0x2
    22b4:	9742                	c.add	a4,a6
    22b6:	cb89                	c.beqz	a5,22c8 <riscv_fir_f32+0x348>
    22b8:	0391                	c.addi	t2,4
    22ba:	00082783          	lw	a5,0(a6)
    22be:	0811                	c.addi	a6,4
    22c0:	fef3ae23          	sw	a5,-4(t2)
    22c4:	fee81ae3          	bne	a6,a4,22b8 <riscv_fir_f32+0x338>
    22c8:	5432                	c.lwsp	s0,44(sp)
    22ca:	6432                	c.flwsp	fs0,12(sp)
    22cc:	64a2                	c.flwsp	fs1,8(sp)
    22ce:	6912                	c.flwsp	fs2,4(sp)
    22d0:	54a2                	c.lwsp	s1,40(sp)
    22d2:	5912                	c.lwsp	s2,36(sp)
    22d4:	5982                	c.lwsp	s3,32(sp)
    22d6:	4a72                	c.lwsp	s4,28(sp)
    22d8:	6145                	c.addi16sp	sp,48
    22da:	8082                	c.jr	ra
    22dc:	f00007d3          	fmv.w.x	fa5,zero
    22e0:	e21c                	c.fsw	fa5,0(a2)
    22e2:	0511                	c.addi	a0,4
    22e4:	0611                	c.addi	a2,4
    22e6:	f4659de3          	bne	a1,t1,2240 <riscv_fir_f32+0x2c0>
    22ea:	b769                	c.j	2274 <riscv_fir_f32+0x2f4>
    22ec:	881e                	c.mv	a6,t2
    22ee:	b789                	c.j	2230 <riscv_fir_f32+0x2b0>

000022f0 <riscv_fir_init_f32>:
    22f0:	1141                	c.addi	sp,-16
    22f2:	177d                	c.addi	a4,-1
    22f4:	c422                	c.swsp	s0,8(sp)
    22f6:	c606                	c.swsp	ra,12(sp)
    22f8:	972e                	c.add	a4,a1
    22fa:	842a                	c.mv	s0,a0
    22fc:	c510                	c.sw	a2,8(a0)
    22fe:	87ae                	c.mv	a5,a1
    2300:	00271613          	slli	a2,a4,0x2
    2304:	4581                	c.li	a1,0
    2306:	8536                	c.mv	a0,a3
    2308:	00f41023          	sh	a5,0(s0)
    230c:	290000ef          	jal	ra,259c <memset>
    2310:	40b2                	c.lwsp	ra,12(sp)
    2312:	c048                	c.sw	a0,4(s0)
    2314:	4422                	c.lwsp	s0,8(sp)
    2316:	0141                	c.addi	sp,16
    2318:	8082                	c.jr	ra
	...

0000231c <riscv_fir_q15>:
    231c:	715d                	c.addi16sp	sp,-80
    231e:	c4a6                	c.swsp	s1,72(sp)
    2320:	00055483          	lhu	s1,0(a0)
    2324:	00452883          	lw	a7,4(a0)
    2328:	d85e                	c.swsp	s7,48(sp)
    232a:	00149713          	slli	a4,s1,0x1
    232e:	1779                	c.addi	a4,-2
    2330:	d26a                	c.swsp	s10,36(sp)
    2332:	c6a2                	c.swsp	s0,76(sp)
    2334:	0026dd13          	srli	s10,a3,0x2
    2338:	c2ca                	c.swsp	s2,68(sp)
    233a:	c0ce                	c.swsp	s3,64(sp)
    233c:	de52                	c.swsp	s4,60(sp)
    233e:	dc56                	c.swsp	s5,56(sp)
    2340:	da5a                	c.swsp	s6,52(sp)
    2342:	d662                	c.swsp	s8,44(sp)
    2344:	d466                	c.swsp	s9,40(sp)
    2346:	d06e                	c.swsp	s11,32(sp)
    2348:	87b6                	c.mv	a5,a3
    234a:	00852b83          	lw	s7,8(a0)
    234e:	00e886b3          	add	a3,a7,a4
    2352:	240d0363          	beqz	s10,2598 <riscv_fir_q15+0x27c>
    2356:	0024dc93          	srli	s9,s1,0x2
    235a:	003c9d93          	slli	s11,s9,0x3
    235e:	c63e                	c.swsp	a5,12(sp)
    2360:	ca76                	c.swsp	t4,20(sp)
    2362:	ce7e                	c.swsp	t6,28(sp)
    2364:	0034f713          	andi	a4,s1,3
    2368:	01bb89b3          	add	s3,s7,s11
    236c:	8b32                	c.mv	s6,a2
    236e:	8c6a                	c.mv	s8,s10
    2370:	8a36                	c.mv	s4,a3
    2372:	8ac6                	c.mv	s5,a7
    2374:	892e                	c.mv	s2,a1
    2376:	87ee                	c.mv	a5,s11
    2378:	8ea6                	c.mv	t4,s1
    237a:	8fea                	c.mv	t6,s10
    237c:	c036                	c.swsp	a3,0(sp)
    237e:	c246                	c.swsp	a7,4(sp)
    2380:	c42e                	c.swsp	a1,8(sp)
    2382:	c872                	c.swsp	t3,16(sp)
    2384:	01e12c23          	sw	t5,24(sp)
    2388:	00091683          	lh	a3,0(s2) # 9f000 <__global_pointer$+0x1e800>
    238c:	0921                	c.addi	s2,8
    238e:	0a21                	c.addi	s4,8
    2390:	feda1c23          	sh	a3,-8(s4)
    2394:	ffa91683          	lh	a3,-6(s2)
    2398:	feda1d23          	sh	a3,-6(s4)
    239c:	ffc91683          	lh	a3,-4(s2)
    23a0:	feda1e23          	sh	a3,-4(s4)
    23a4:	ffe91683          	lh	a3,-2(s2)
    23a8:	feda1f23          	sh	a3,-2(s4)
    23ac:	000aa583          	lw	a1,0(s5)
    23b0:	004a8693          	addi	a3,s5,4
    23b4:	4294                	c.lw	a3,0(a3)
    23b6:	0aa1                	c.addi	s5,8
    23b8:	855e                	c.mv	a0,s7
    23ba:	82d6                	c.mv	t0,s5
    23bc:	4801                	c.li	a6,0
    23be:	4881                	c.li	a7,0
    23c0:	4401                	c.li	s0,0
    23c2:	4481                	c.li	s1,0
    23c4:	4301                	c.li	t1,0
    23c6:	4381                	c.li	t2,0
    23c8:	4d01                	c.li	s10,0
    23ca:	4d81                	c.li	s11,0
    23cc:	040c8a63          	beqz	s9,2420 <riscv_fir_q15+0x104>
    23d0:	00052e03          	lw	t3,0(a0)
    23d4:	8dc59d7f          	smalda	s10,a1,t3
    23d8:	8dc6947f          	smalda	s0,a3,t3
    23dc:	3ed59f7f          	pktb16	t5,a1,a3
    23e0:	0002a583          	lw	a1,0(t0)
    23e4:	9dcf137f          	smalxda	t1,t5,t3
    23e8:	3eb69f7f          	pktb16	t5,a3,a1
    23ec:	9dcf187f          	smalxda	a6,t5,t3
    23f0:	00450e13          	addi	t3,a0,4
    23f4:	000e2e03          	lw	t3,0(t3)
    23f8:	0521                	c.addi	a0,8
    23fa:	8dc69d7f          	smalda	s10,a3,t3
    23fe:	00428693          	addi	a3,t0,4
    2402:	4294                	c.lw	a3,0(a3)
    2404:	02a1                	c.addi	t0,8
    2406:	8dc5947f          	smalda	s0,a1,t3
    240a:	9dcf137f          	smalxda	t1,t5,t3
    240e:	3ed59f7f          	pktb16	t5,a1,a3
    2412:	9dcf187f          	smalxda	a6,t5,t3
    2416:	faa99de3          	bne	s3,a0,23d0 <riscv_fir_q15+0xb4>
    241a:	00fa82b3          	add	t0,s5,a5
    241e:	854e                	c.mv	a0,s3
    2420:	c305                	c.beqz	a4,2440 <riscv_fir_q15+0x124>
    2422:	4108                	c.lw	a0,0(a0)
    2424:	8ca59d7f          	smalda	s10,a1,a0
    2428:	8ca6947f          	smalda	s0,a3,a0
    242c:	3ed595ff          	pktb16	a1,a1,a3
    2430:	0002a283          	lw	t0,0(t0)
    2434:	9ca5937f          	smalxda	t1,a1,a0
    2438:	3e5696ff          	pktb16	a3,a3,t0
    243c:	9ca6987f          	smalxda	a6,a3,a0
    2440:	def3037f          	wexti	t1,t1,15
    2444:	e4f3037f          	sclip32	t1,t1,15
    2448:	defd0d7f          	wexti	s10,s10,15
    244c:	e4fd0d7f          	sclip32	s10,s10,15
    2450:	0fa3137f          	pkbb16	t1,t1,s10
    2454:	006b2023          	sw	t1,0(s6)
    2458:	def8087f          	wexti	a6,a6,15
    245c:	e4f8087f          	sclip32	a6,a6,15
    2460:	def4047f          	wexti	s0,s0,15
    2464:	e4f4047f          	sclip32	s0,s0,15
    2468:	0e88187f          	pkbb16	a6,a6,s0
    246c:	004b0693          	addi	a3,s6,4
    2470:	0106a023          	sw	a6,0(a3)
    2474:	1c7d                	c.addi	s8,-1
    2476:	0b21                	c.addi	s6,8
    2478:	f00c18e3          	bnez	s8,2388 <riscv_fir_q15+0x6c>
    247c:	4682                	c.lwsp	a3,0(sp)
    247e:	4892                	c.lwsp	a7,4(sp)
    2480:	45a2                	c.lwsp	a1,8(sp)
    2482:	003f9d13          	slli	s10,t6,0x3
    2486:	47b2                	c.lwsp	a5,12(sp)
    2488:	84f6                	c.mv	s1,t4
    248a:	95ea                	c.add	a1,s10
    248c:	96ea                	c.add	a3,s10
    248e:	01a88433          	add	s0,a7,s10
    2492:	966a                	c.add	a2,s10
    2494:	8b8d                	c.andi	a5,3
    2496:	c3d9                	c.beqz	a5,251c <riscv_fir_q15+0x200>
    2498:	0014d993          	srli	s3,s1,0x1
    249c:	00299293          	slli	t0,s3,0x2
    24a0:	92a2                	c.add	t0,s0
    24a2:	00179913          	slli	s2,a5,0x1
    24a6:	4381                	c.li	t2,0
    24a8:	01100ab3          	add	s5,zero,a7
    24ac:	007587b3          	add	a5,a1,t2
    24b0:	00079503          	lh	a0,0(a5)
    24b4:	00768733          	add	a4,a3,t2
    24b8:	007407b3          	add	a5,s0,t2
    24bc:	00a71023          	sh	a0,0(a4)
    24c0:	0c098a63          	beqz	s3,2594 <riscv_fir_q15+0x278>
    24c4:	835e                	c.mv	t1,s7
    24c6:	4801                	c.li	a6,0
    24c8:	00000893          	li	a7,0
    24cc:	00079503          	lh	a0,0(a5)
    24d0:	00031b03          	lh	s6,0(t1)
    24d4:	00279703          	lh	a4,2(a5)
    24d8:	00231a03          	lh	s4,2(t1)
    24dc:	03650533          	mul	a0,a0,s6
    24e0:	0791                	c.addi	a5,4
    24e2:	03470733          	mul	a4,a4,s4
    24e6:	8e2a                	c.mv	t3,a0
    24e8:	41f55e93          	srai	t4,a0,0x1f
    24ec:	8f3a                	c.mv	t5,a4
    24ee:	c10e187f          	add64	a6,t3,a6
    24f2:	41f75f93          	srai	t6,a4,0x1f
    24f6:	0311                	c.addi	t1,4
    24f8:	c10f187f          	add64	a6,t5,a6
    24fc:	fc5798e3          	bne	a5,t0,24cc <riscv_fir_q15+0x1b0>
    2500:	def8087f          	wexti	a6,a6,15
    2504:	e4f807ff          	sclip32	a5,a6,15
    2508:	00760733          	add	a4,a2,t2
    250c:	00f71023          	sh	a5,0(a4)
    2510:	0389                	c.addi	t2,2
    2512:	0289                	c.addi	t0,2
    2514:	f9239ce3          	bne	t2,s2,24ac <riscv_fir_q15+0x190>
    2518:	88d6                	c.mv	a7,s5
    251a:	941e                	c.add	s0,t2
    251c:	14fd                	c.addi	s1,-1
    251e:	0024d593          	srli	a1,s1,0x2
    2522:	cd8d                	c.beqz	a1,255c <riscv_fir_q15+0x240>
    2524:	86ae                	c.mv	a3,a1
    2526:	8746                	c.mv	a4,a7
    2528:	008007b3          	add	a5,zero,s0
    252c:	00079603          	lh	a2,0(a5)
    2530:	07a1                	c.addi	a5,8
    2532:	16fd                	c.addi	a3,-1
    2534:	00c71023          	sh	a2,0(a4)
    2538:	ffa79603          	lh	a2,-6(a5)
    253c:	0721                	c.addi	a4,8
    253e:	fec71d23          	sh	a2,-6(a4)
    2542:	ffc79603          	lh	a2,-4(a5)
    2546:	fec71e23          	sh	a2,-4(a4)
    254a:	ffe79603          	lh	a2,-2(a5)
    254e:	fec71f23          	sh	a2,-2(a4)
    2552:	fee9                	c.bnez	a3,252c <riscv_fir_q15+0x210>
    2554:	058e                	c.slli	a1,0x3
    2556:	942e                	c.add	s0,a1
    2558:	00b888b3          	add	a7,a7,a1
    255c:	0034f793          	andi	a5,s1,3
    2560:	00179713          	slli	a4,a5,0x1
    2564:	9722                	c.add	a4,s0
    2566:	cb89                	c.beqz	a5,2578 <riscv_fir_q15+0x25c>
    2568:	00041783          	lh	a5,0(s0)
    256c:	0409                	c.addi	s0,2
    256e:	0889                	c.addi	a7,2
    2570:	fef89f23          	sh	a5,-2(a7)
    2574:	fe871ae3          	bne	a4,s0,2568 <riscv_fir_q15+0x24c>
    2578:	4436                	c.lwsp	s0,76(sp)
    257a:	44a6                	c.lwsp	s1,72(sp)
    257c:	4916                	c.lwsp	s2,68(sp)
    257e:	4986                	c.lwsp	s3,64(sp)
    2580:	5a72                	c.lwsp	s4,60(sp)
    2582:	5ae2                	c.lwsp	s5,56(sp)
    2584:	5b52                	c.lwsp	s6,52(sp)
    2586:	5bc2                	c.lwsp	s7,48(sp)
    2588:	5c32                	c.lwsp	s8,44(sp)
    258a:	5ca2                	c.lwsp	s9,40(sp)
    258c:	5d12                	c.lwsp	s10,36(sp)
    258e:	5d82                	c.lwsp	s11,32(sp)
    2590:	6161                	c.addi16sp	sp,80
    2592:	8082                	c.jr	ra
    2594:	4801                	c.li	a6,0
    2596:	b7bd                	c.j	2504 <riscv_fir_q15+0x1e8>
    2598:	8446                	c.mv	s0,a7
    259a:	bded                	c.j	2494 <riscv_fir_q15+0x178>

0000259c <memset>:
    259c:	433d                	c.li	t1,15
    259e:	872a                	c.mv	a4,a0
    25a0:	02c37363          	bgeu	t1,a2,25c6 <memset+0x2a>
    25a4:	00f77793          	andi	a5,a4,15
    25a8:	efbd                	c.bnez	a5,2626 <memset+0x8a>
    25aa:	e5ad                	c.bnez	a1,2614 <memset+0x78>
    25ac:	ff067693          	andi	a3,a2,-16
    25b0:	8a3d                	c.andi	a2,15
    25b2:	96ba                	c.add	a3,a4
    25b4:	c30c                	c.sw	a1,0(a4)
    25b6:	c34c                	c.sw	a1,4(a4)
    25b8:	c70c                	c.sw	a1,8(a4)
    25ba:	c74c                	c.sw	a1,12(a4)
    25bc:	0741                	c.addi	a4,16
    25be:	fed76be3          	bltu	a4,a3,25b4 <memset+0x18>
    25c2:	e211                	c.bnez	a2,25c6 <memset+0x2a>
    25c4:	8082                	c.jr	ra
    25c6:	40c306b3          	sub	a3,t1,a2
    25ca:	068a                	c.slli	a3,0x2
    25cc:	00000297          	auipc	t0,0x0
    25d0:	9696                	c.add	a3,t0
    25d2:	00a68067          	jr	10(a3)
    25d6:	00b70723          	sb	a1,14(a4)
    25da:	00b706a3          	sb	a1,13(a4)
    25de:	00b70623          	sb	a1,12(a4)
    25e2:	00b705a3          	sb	a1,11(a4)
    25e6:	00b70523          	sb	a1,10(a4)
    25ea:	00b704a3          	sb	a1,9(a4)
    25ee:	00b70423          	sb	a1,8(a4)
    25f2:	00b703a3          	sb	a1,7(a4)
    25f6:	00b70323          	sb	a1,6(a4)
    25fa:	00b702a3          	sb	a1,5(a4)
    25fe:	00b70223          	sb	a1,4(a4)
    2602:	00b701a3          	sb	a1,3(a4)
    2606:	00b70123          	sb	a1,2(a4)
    260a:	00b700a3          	sb	a1,1(a4)
    260e:	00b70023          	sb	a1,0(a4)
    2612:	8082                	c.jr	ra
    2614:	0ff5f593          	andi	a1,a1,255
    2618:	00859693          	slli	a3,a1,0x8
    261c:	8dd5                	c.or	a1,a3
    261e:	01059693          	slli	a3,a1,0x10
    2622:	8dd5                	c.or	a1,a3
    2624:	b761                	c.j	25ac <memset+0x10>
    2626:	00279693          	slli	a3,a5,0x2
    262a:	00000297          	auipc	t0,0x0
    262e:	9696                	c.add	a3,t0
    2630:	8286                	c.mv	t0,ra
    2632:	fa8680e7          	jalr	-88(a3)
    2636:	8096                	c.mv	ra,t0
    2638:	17c1                	c.addi	a5,-16
    263a:	8f1d                	c.sub	a4,a5
    263c:	963e                	c.add	a2,a5
    263e:	f8c374e3          	bgeu	t1,a2,25c6 <memset+0x2a>
    2642:	b7a5                	c.j	25aa <memset+0xe>

00002644 <calloc>:
    2644:	388022ef          	jal	t0,49cc <__riscv_save_0>
    2648:	862e                	c.mv	a2,a1
    264a:	85aa                	c.mv	a1,a0
    264c:	cc3fa52b          	lwgp	a0,-832 # 804c0 <_impure_ptr>
    2650:	201d                	c.jal	2676 <_calloc_r>
    2652:	39e0206f          	j	49f0 <__riscv_restore_0>

00002656 <malloc>:
    2656:	376022ef          	jal	t0,49cc <__riscv_save_0>
    265a:	85aa                	c.mv	a1,a0
    265c:	cc3fa52b          	lwgp	a0,-832 # 804c0 <_impure_ptr>
    2660:	20e1                	c.jal	2728 <_malloc_r>
    2662:	38e0206f          	j	49f0 <__riscv_restore_0>

00002666 <free>:
    2666:	366022ef          	jal	t0,49cc <__riscv_save_0>
    266a:	85aa                	c.mv	a1,a0
    266c:	cc3fa52b          	lwgp	a0,-832 # 804c0 <_impure_ptr>
    2670:	2025                	c.jal	2698 <_free_r>
    2672:	37e0206f          	j	49f0 <__riscv_restore_0>

00002676 <_calloc_r>:
    2676:	356022ef          	jal	t0,49cc <__riscv_save_0>
    267a:	02c58633          	mul	a2,a1,a2
    267e:	1141                	c.addi	sp,-16
    2680:	85b2                	c.mv	a1,a2
    2682:	c632                	c.swsp	a2,12(sp)
    2684:	2055                	c.jal	2728 <_malloc_r>
    2686:	842a                	c.mv	s0,a0
    2688:	c501                	c.beqz	a0,2690 <_calloc_r+0x1a>
    268a:	4632                	c.lwsp	a2,12(sp)
    268c:	4581                	c.li	a1,0
    268e:	3739                	c.jal	259c <memset>
    2690:	8522                	c.mv	a0,s0
    2692:	0141                	c.addi	sp,16
    2694:	35c0206f          	j	49f0 <__riscv_restore_0>

00002698 <_free_r>:
    2698:	c5b5                	c.beqz	a1,2704 <_free_r+0x6c>
    269a:	ffc5a703          	lw	a4,-4(a1)
    269e:	ffc58793          	addi	a5,a1,-4
    26a2:	00075363          	bgez	a4,26a8 <_free_r+0x10>
    26a6:	97ba                	c.add	a5,a4
    26a8:	ceffa72b          	lwgp	a4,-788 # 804ec <__malloc_free_list>
    26ac:	85b6                	c.mv	a1,a3
    26ae:	e711                	c.bnez	a4,26ba <_free_r+0x22>
    26b0:	0007a223          	sw	zero,4(a5)
    26b4:	ceffc7ab          	swgp	a5,-788 # 804ec <__malloc_free_list>
    26b8:	8082                	c.jr	ra
    26ba:	02e7f063          	bgeu	a5,a4,26da <_free_r+0x42>
    26be:	4390                	c.lw	a2,0(a5)
    26c0:	00c786b3          	add	a3,a5,a2
    26c4:	00d71663          	bne	a4,a3,26d0 <_free_r+0x38>
    26c8:	4314                	c.lw	a3,0(a4)
    26ca:	4358                	c.lw	a4,4(a4)
    26cc:	96b2                	c.add	a3,a2
    26ce:	c394                	c.sw	a3,0(a5)
    26d0:	c3d8                	c.sw	a4,4(a5)
    26d2:	ceffc7ab          	swgp	a5,-788 # 804ec <__malloc_free_list>
    26d6:	8082                	c.jr	ra
    26d8:	8736                	c.mv	a4,a3
    26da:	4354                	c.lw	a3,4(a4)
    26dc:	c299                	c.beqz	a3,26e2 <_free_r+0x4a>
    26de:	fed7fde3          	bgeu	a5,a3,26d8 <_free_r+0x40>
    26e2:	4310                	c.lw	a2,0(a4)
    26e4:	00c705b3          	add	a1,a4,a2
    26e8:	00f59f63          	bne	a1,a5,2706 <_free_r+0x6e>
    26ec:	439c                	c.lw	a5,0(a5)
    26ee:	97b2                	c.add	a5,a2
    26f0:	c31c                	c.sw	a5,0(a4)
    26f2:	00f70633          	add	a2,a4,a5
    26f6:	00c69763          	bne	a3,a2,2704 <_free_r+0x6c>
    26fa:	4290                	c.lw	a2,0(a3)
    26fc:	97b2                	c.add	a5,a2
    26fe:	c31c                	c.sw	a5,0(a4)
    2700:	42dc                	c.lw	a5,4(a3)
    2702:	c35c                	c.sw	a5,4(a4)
    2704:	8082                	c.jr	ra
    2706:	00b7f663          	bgeu	a5,a1,2712 <_free_r+0x7a>
    270a:	4731                	c.li	a4,12
    270c:	ceefc5ab          	swgp	a4,-792 # 804e8 <__mculib_REENT_errno>
    2710:	8082                	c.jr	ra
    2712:	438c                	c.lw	a1,0(a5)
    2714:	00b78633          	add	a2,a5,a1
    2718:	00c69663          	bne	a3,a2,2724 <_free_r+0x8c>
    271c:	4290                	c.lw	a2,0(a3)
    271e:	42d4                	c.lw	a3,4(a3)
    2720:	962e                	c.add	a2,a1
    2722:	c390                	c.sw	a2,0(a5)
    2724:	c3d4                	c.sw	a3,4(a5)
    2726:	bff1                	c.j	2702 <_free_r+0x6a>

00002728 <_malloc_r>:
    2728:	2a4022ef          	jal	t0,49cc <__riscv_save_0>
    272c:	00358493          	addi	s1,a1,3
    2730:	98f1                	c.andi	s1,-4
    2732:	04a1                	c.addi	s1,8
    2734:	47b1                	c.li	a5,12
    2736:	06f4f263          	bgeu	s1,a5,279a <_malloc_r+0x72>
    273a:	44b1                	c.li	s1,12
    273c:	06b4e163          	bltu	s1,a1,279e <_malloc_r+0x76>
    2740:	ceffa42b          	lwgp	s0,-788 # 804ec <__malloc_free_list>
    2744:	cedf968b          	addigp	a3,-788 # 804ec <__malloc_free_list>
    2748:	87a2                	c.mv	a5,s0
    274a:	cf89                	c.beqz	a5,2764 <_malloc_r+0x3c>
    274c:	4398                	c.lw	a4,0(a5)
    274e:	8f05                	c.sub	a4,s1
    2750:	08074163          	bltz	a4,27d2 <_malloc_r+0xaa>
    2754:	462d                	c.li	a2,11
    2756:	04e67a63          	bgeu	a2,a4,27aa <_malloc_r+0x82>
    275a:	c398                	c.sw	a4,0(a5)
    275c:	00e78433          	add	s0,a5,a4
    2760:	c004                	c.sw	s1,0(s0)
    2762:	e821                	c.bnez	s0,27b2 <_malloc_r+0x8a>
    2764:	cf1f940b          	addigp	s0,-784 # 804f0 <__malloc_sbrk_start>
    2768:	401c                	c.lw	a5,0(s0)
    276a:	e789                	c.bnez	a5,2774 <_malloc_r+0x4c>
    276c:	4501                	c.li	a0,0
    276e:	1a6020ef          	jal	ra,4914 <_sbrk>
    2772:	c008                	c.sw	a0,0(s0)
    2774:	8526                	c.mv	a0,s1
    2776:	597d                	c.li	s2,-1
    2778:	19c020ef          	jal	ra,4914 <_sbrk>
    277c:	03250163          	beq	a0,s2,279e <_malloc_r+0x76>
    2780:	00350413          	addi	s0,a0,3
    2784:	9871                	c.andi	s0,-4
    2786:	00a40863          	beq	s0,a0,2796 <_malloc_r+0x6e>
    278a:	40a40533          	sub	a0,s0,a0
    278e:	186020ef          	jal	ra,4914 <_sbrk>
    2792:	01250663          	beq	a0,s2,279e <_malloc_r+0x76>
    2796:	c004                	c.sw	s1,0(s0)
    2798:	a829                	c.j	27b2 <_malloc_r+0x8a>
    279a:	fa04d1e3          	bgez	s1,273c <_malloc_r+0x14>
    279e:	4731                	c.li	a4,12
    27a0:	4501                	c.li	a0,0
    27a2:	ceefc5ab          	swgp	a4,-792 # 804e8 <__mculib_REENT_errno>
    27a6:	24a0206f          	j	49f0 <__riscv_restore_0>
    27aa:	43d8                	c.lw	a4,4(a5)
    27ac:	02f41063          	bne	s0,a5,27cc <_malloc_r+0xa4>
    27b0:	c298                	c.sw	a4,0(a3)
    27b2:	00b40513          	addi	a0,s0,11
    27b6:	00440793          	addi	a5,s0,4
    27ba:	9961                	c.andi	a0,-8
    27bc:	40f507b3          	sub	a5,a0,a5
    27c0:	d3fd                	c.beqz	a5,27a6 <_malloc_r+0x7e>
    27c2:	943e                	c.add	s0,a5
    27c4:	40f007b3          	neg	a5,a5
    27c8:	c01c                	c.sw	a5,0(s0)
    27ca:	bff1                	c.j	27a6 <_malloc_r+0x7e>
    27cc:	c058                	c.sw	a4,4(s0)
    27ce:	843e                	c.mv	s0,a5
    27d0:	b7cd                	c.j	27b2 <_malloc_r+0x8a>
    27d2:	843e                	c.mv	s0,a5
    27d4:	43dc                	c.lw	a5,4(a5)
    27d6:	bf95                	c.j	274a <_malloc_r+0x22>

000027d8 <printf>:
    27d8:	7139                	c.addi16sp	sp,-64
    27da:	d22e                	c.swsp	a1,36(sp)
    27dc:	104c                	c.addi4spn	a1,sp,36
    27de:	ce06                	c.swsp	ra,28(sp)
    27e0:	d432                	c.swsp	a2,40(sp)
    27e2:	d636                	c.swsp	a3,44(sp)
    27e4:	d83a                	c.swsp	a4,48(sp)
    27e6:	da3e                	c.swsp	a5,52(sp)
    27e8:	dc42                	c.swsp	a6,56(sp)
    27ea:	de46                	c.swsp	a7,60(sp)
    27ec:	c62e                	c.swsp	a1,12(sp)
    27ee:	28e1                	c.jal	28c6 <vprintf>
    27f0:	40f2                	c.lwsp	ra,28(sp)
    27f2:	6121                	c.addi16sp	sp,64
    27f4:	8082                	c.jr	ra

000027f6 <puts>:
    27f6:	1d6022ef          	jal	t0,49cc <__riscv_save_0>
    27fa:	1101                	c.addi	sp,-32
    27fc:	c62a                	c.swsp	a0,12(sp)
    27fe:	203d                	c.jal	282c <strlen>
    2800:	45b2                	c.lwsp	a1,12(sp)
    2802:	862a                	c.mv	a2,a0
    2804:	4505                	c.li	a0,1
    2806:	d77fe0ef          	jal	ra,157c <_write>
    280a:	00054e63          	bltz	a0,2826 <puts+0x30>
    280e:	47a9                	c.li	a5,10
    2810:	4605                	c.li	a2,1
    2812:	01f10593          	addi	a1,sp,31
    2816:	4505                	c.li	a0,1
    2818:	00f10fa3          	sb	a5,31(sp)
    281c:	d61fe0ef          	jal	ra,157c <_write>
    2820:	6105                	c.addi16sp	sp,32
    2822:	1ce0206f          	j	49f0 <__riscv_restore_0>
    2826:	557d                	c.li	a0,-1
    2828:	bfe5                	c.j	2820 <puts+0x2a>
	...

0000282c <strlen>:
    282c:	00357793          	andi	a5,a0,3
    2830:	872a                	c.mv	a4,a0
    2832:	e79d                	c.bnez	a5,2860 <strlen+0x34>
    2834:	0511                	c.addi	a0,4
    2836:	ffc52783          	lw	a5,-4(a0)
    283a:	200787db          	ffb	a5,a5,zero
    283e:	dbfd                	c.beqz	a5,2834 <strlen+0x8>
    2840:	ffc54783          	lbu	a5,-4(a0)
    2844:	40e50733          	sub	a4,a0,a4
    2848:	ffd54683          	lbu	a3,-3(a0)
    284c:	ffe54603          	lbu	a2,-2(a0)
    2850:	c795                	c.beqz	a5,287c <strlen+0x50>
    2852:	c28d                	c.beqz	a3,2874 <strlen+0x48>
    2854:	ca05                	c.beqz	a2,2884 <strlen+0x58>
    2856:	fff70513          	addi	a0,a4,-1
    285a:	8082                	c.jr	ra
    285c:	fc068ce3          	beqz	a3,2834 <strlen+0x8>
    2860:	00054783          	lbu	a5,0(a0)
    2864:	0505                	c.addi	a0,1
    2866:	00357693          	andi	a3,a0,3
    286a:	fbed                	c.bnez	a5,285c <strlen+0x30>
    286c:	8d19                	c.sub	a0,a4
    286e:	157d                	c.addi	a0,-1
    2870:	00008067          	ret
    2874:	ffd70513          	addi	a0,a4,-3
    2878:	00008067          	ret
    287c:	ffc70513          	addi	a0,a4,-4
    2880:	00008067          	ret
    2884:	ffe70513          	addi	a0,a4,-2
    2888:	8082                	c.jr	ra
    288a:	0001                	c.nop

0000288c <__vprintf_help>:
    288c:	140022ef          	jal	t0,49cc <__riscv_save_0>
    2890:	cfffa7ab          	lwgp	a5,-772 # 804fc <__printf_count>
    2894:	0785                	c.addi	a5,1
    2896:	ceffcfab          	swgp	a5,-772 # 804fc <__printf_count>
    289a:	cf9f940b          	addigp	s0,-776 # 804f8 <__vprintf_buf_len>
    289e:	cf7fa5ab          	lwgp	a1,-780 # 804f4 <__vprintf_buf>
    28a2:	401c                	c.lw	a5,0(s0)
    28a4:	00178713          	addi	a4,a5,1
    28a8:	97ae                	c.add	a5,a1
    28aa:	c018                	c.sw	a4,0(s0)
    28ac:	00a78023          	sb	a0,0(a5)
    28b0:	4007695b          	bnec	a4,64,28c2 <__vprintf_help+0x36>
    28b4:	04000613          	li	a2,64
    28b8:	4505                	c.li	a0,1
    28ba:	cc3fe0ef          	jal	ra,157c <_write>
    28be:	00042023          	sw	zero,0(s0)
    28c2:	12e0206f          	j	49f0 <__riscv_restore_0>

000028c6 <vprintf>:
    28c6:	1141                	c.addi	sp,-16
    28c8:	c606                	c.swsp	ra,12(sp)
    28ca:	c422                	c.swsp	s0,8(sp)
    28cc:	c226                	c.swsp	s1,4(sp)
    28ce:	c04a                	c.swsp	s2,0(sp)
    28d0:	0800                	c.addi4spn	s0,sp,16
    28d2:	715d                	c.addi16sp	sp,-80
    28d4:	00f10793          	addi	a5,sp,15
    28d8:	00003637          	lui	a2,0x3
    28dc:	9bc1                	c.andi	a5,-16
    28de:	cf5f948b          	addigp	s1,-780 # 804f4 <__vprintf_buf>
    28e2:	cf9f990b          	addigp	s2,-776 # 804f8 <__vprintf_buf_len>
    28e6:	88c60613          	addi	a2,a2,-1908 # 288c <__vprintf_help>
    28ea:	c09c                	c.sw	a5,0(s1)
    28ec:	00092023          	sw	zero,0(s2)
    28f0:	20ad                	c.jal	295a <__printf_impl>
    28f2:	00092603          	lw	a2,0(s2)
    28f6:	408c                	c.lw	a1,0(s1)
    28f8:	4505                	c.li	a0,1
    28fa:	c83fe0ef          	jal	ra,157c <_write>
    28fe:	cfffa52b          	lwgp	a0,-772 # 804fc <__printf_count>
    2902:	ff040113          	addi	sp,s0,-16
    2906:	40b2                	c.lwsp	ra,12(sp)
    2908:	4422                	c.lwsp	s0,8(sp)
    290a:	4492                	c.lwsp	s1,4(sp)
    290c:	4902                	c.lwsp	s2,0(sp)
    290e:	0141                	c.addi	sp,16
    2910:	8082                	c.jr	ra

00002912 <__print_integral>:
    2912:	0ba022ef          	jal	t0,49cc <__riscv_save_0>
    2916:	1101                	c.addi	sp,-32
    2918:	842a                	c.mv	s0,a0
    291a:	84ae                	c.mv	s1,a1
    291c:	8932                	c.mv	s2,a2
    291e:	c636                	c.swsp	a3,12(sp)
    2920:	85be                	c.mv	a1,a5
    2922:	ca32                	c.swsp	a2,20(sp)
    2924:	853a                	c.mv	a0,a4
    2926:	0830                	c.addi4spn	a2,sp,24
    2928:	214d                	c.jal	2dca <__int_to_poly>
    292a:	46b2                	c.lwsp	a3,12(sp)
    292c:	882a                	c.mv	a6,a0
    292e:	083c                	c.addi4spn	a5,sp,24
    2930:	0858                	c.addi4spn	a4,sp,20
    2932:	864a                	c.mv	a2,s2
    2934:	85a6                	c.mv	a1,s1
    2936:	8522                	c.mv	a0,s0
    2938:	2945                	c.jal	2de8 <__print_integral_poly>
    293a:	bcdf978b          	addigp	a5,-1076 # 803cc <__digits>
    293e:	00a46563          	bltu	s0,a0,2948 <__print_integral+0x36>
    2942:	6105                	c.addi16sp	sp,32
    2944:	0ac0206f          	j	49f0 <__riscv_restore_0>
    2948:	00044703          	lbu	a4,0(s0)
    294c:	0405                	c.addi	s0,1
    294e:	973e                	c.add	a4,a5
    2950:	00070703          	lb	a4,0(a4)
    2954:	fee40fa3          	sb	a4,-1(s0)
    2958:	b7dd                	c.j	293e <__print_integral+0x2c>

0000295a <__printf_impl>:
    295a:	042022ef          	jal	t0,499c <__riscv_save_12>
    295e:	a6010113          	addi	sp,sp,-1440
    2962:	6b05                	c.lui	s6,0x1
    2964:	892a                	c.mv	s2,a0
    2966:	842e                	c.mv	s0,a1
    2968:	89b2                	c.mv	s3,a2
    296a:	01c10a13          	addi	s4,sp,28
    296e:	800b0b13          	addi	s6,s6,-2048 # 800 <analog_read_reg8+0x2c>
    2972:	ce0fcfab          	swgp	zero,-772 # 804fc <__printf_count>
    2976:	c456                	c.swsp	s5,8(sp)
    2978:	00094503          	lbu	a0,0(s2)
    297c:	e509                	c.bnez	a0,2986 <__printf_impl+0x2c>
    297e:	5a010113          	addi	sp,sp,1440
    2982:	0560206f          	j	49d8 <__riscv_restore_12>
    2986:	00190493          	addi	s1,s2,1
    298a:	005555db          	beqc	a0,37,2994 <__printf_impl+0x3a>
    298e:	9982                	c.jalr	s3
    2990:	8926                	c.mv	s2,s1
    2992:	b7dd                	c.j	2978 <__printf_impl+0x1e>
    2994:	00194783          	lbu	a5,1(s2)
    2998:	0057e8db          	bnec	a5,37,29a8 <__printf_impl+0x4e>
    299c:	02500513          	li	a0,37
    29a0:	9982                	c.jalr	s3
    29a2:	00290493          	addi	s1,s2,2
    29a6:	b7ed                	c.j	2990 <__printf_impl+0x36>
    29a8:	4681                	c.li	a3,0
    29aa:	4701                	c.li	a4,0
    29ac:	d002                	c.swsp	zero,32(sp)
    29ae:	0004c783          	lbu	a5,0(s1)
    29b2:	0007e7db          	bnec	a5,32,29c0 <__printf_impl+0x66>
    29b6:	00276713          	ori	a4,a4,2
    29ba:	0485                	c.addi	s1,1
    29bc:	4685                	c.li	a3,1
    29be:	bfc5                	c.j	29ae <__printf_impl+0x54>
    29c0:	00d7e5db          	bnec	a5,45,29ca <__printf_impl+0x70>
    29c4:	00476713          	ori	a4,a4,4
    29c8:	bfcd                	c.j	29ba <__printf_impl+0x60>
    29ca:	00b7e5db          	bnec	a5,43,29d4 <__printf_impl+0x7a>
    29ce:	00876713          	ori	a4,a4,8
    29d2:	b7e5                	c.j	29ba <__printf_impl+0x60>
    29d4:	0037e5db          	bnec	a5,35,29de <__printf_impl+0x84>
    29d8:	01076713          	ori	a4,a4,16
    29dc:	bff9                	c.j	29ba <__printf_impl+0x60>
    29de:	0107e5db          	bnec	a5,48,29e8 <__printf_impl+0x8e>
    29e2:	02076713          	ori	a4,a4,32
    29e6:	bfd1                	c.j	29ba <__printf_impl+0x60>
    29e8:	c291                	c.beqz	a3,29ec <__printf_impl+0x92>
    29ea:	d03a                	c.swsp	a4,32(sp)
    29ec:	04a7eadb          	bnec	a5,42,2a40 <__printf_impl+0xe6>
    29f0:	00042c03          	lw	s8,0(s0)
    29f4:	00440713          	addi	a4,s0,4
    29f8:	000c5863          	bgez	s8,2a08 <__printf_impl+0xae>
    29fc:	5782                	c.lwsp	a5,32(sp)
    29fe:	41800c33          	neg	s8,s8
    2a02:	0047e793          	ori	a5,a5,4
    2a06:	d03e                	c.swsp	a5,32(sp)
    2a08:	0485                	c.addi	s1,1
    2a0a:	843a                	c.mv	s0,a4
    2a0c:	0004c783          	lbu	a5,0(s1)
    2a10:	5cfd                	c.li	s9,-1
    2a12:	06e7e4db          	bnec	a5,46,2a7a <__printf_impl+0x120>
    2a16:	0014c783          	lbu	a5,1(s1)
    2a1a:	04a7dbdb          	beqc	a5,42,2a70 <__printf_impl+0x116>
    2a1e:	0485                	c.addi	s1,1
    2a20:	4c81                	c.li	s9,0
    2a22:	4725                	c.li	a4,9
    2a24:	4629                	c.li	a2,10
    2a26:	0004c783          	lbu	a5,0(s1)
    2a2a:	fd078793          	addi	a5,a5,-48
    2a2e:	0ff7f693          	andi	a3,a5,255
    2a32:	04d76463          	bltu	a4,a3,2a7a <__printf_impl+0x120>
    2a36:	c4cc97ff          	maddr32	a5,s9,a2
    2a3a:	0485                	c.addi	s1,1
    2a3c:	8cbe                	c.mv	s9,a5
    2a3e:	b7e5                	c.j	2a26 <__printf_impl+0xcc>
    2a40:	fd078793          	addi	a5,a5,-48
    2a44:	0ff7f793          	andi	a5,a5,255
    2a48:	4725                	c.li	a4,9
    2a4a:	4c01                	c.li	s8,0
    2a4c:	fcf760e3          	bltu	a4,a5,2a0c <__printf_impl+0xb2>
    2a50:	4725                	c.li	a4,9
    2a52:	4629                	c.li	a2,10
    2a54:	a029                	c.j	2a5e <__printf_impl+0x104>
    2a56:	c4cc17ff          	maddr32	a5,s8,a2
    2a5a:	0485                	c.addi	s1,1
    2a5c:	8c3e                	c.mv	s8,a5
    2a5e:	0004c783          	lbu	a5,0(s1)
    2a62:	fd078793          	addi	a5,a5,-48
    2a66:	0ff7f693          	andi	a3,a5,255
    2a6a:	fed776e3          	bgeu	a4,a3,2a56 <__printf_impl+0xfc>
    2a6e:	bf79                	c.j	2a0c <__printf_impl+0xb2>
    2a70:	401c                	c.lw	a5,0(s0)
    2a72:	0489                	c.addi	s1,2
    2a74:	0411                	c.addi	s0,4
    2a76:	f2fc8cff          	maxw	s9,s9,a5
    2a7a:	43200613          	li	a2,1074
    2a7e:	f0cc867f          	minw	a2,s9,a2
    2a82:	0004c783          	lbu	a5,0(s1)
    2a86:	4487efdb          	bnec	a5,104,2ae4 <__printf_impl+0x18a>
    2a8a:	5782                	c.lwsp	a5,32(sp)
    2a8c:	0014c703          	lbu	a4,1(s1)
    2a90:	448764db          	bnec	a4,104,2ad8 <__printf_impl+0x17e>
    2a94:	0407e793          	ori	a5,a5,64
    2a98:	00248913          	addi	s2,s1,2
    2a9c:	d03e                	c.swsp	a5,32(sp)
    2a9e:	00094503          	lbu	a0,0(s2)
    2aa2:	06700793          	li	a5,103
    2aa6:	0aa7e263          	bltu	a5,a0,2b4a <__printf_impl+0x1f0>
    2aaa:	06500793          	li	a5,101
    2aae:	06f57d63          	bgeu	a0,a5,2b28 <__printf_impl+0x1ce>
    2ab2:	05800793          	li	a5,88
    2ab6:	5785555b          	beqc	a0,88,2c20 <__printf_impl+0x2c6>
    2aba:	04a7ef63          	bltu	a5,a0,2b18 <__printf_impl+0x1be>
    2abe:	04100793          	li	a5,65
    2ac2:	4615535b          	beqc	a0,65,2b28 <__printf_impl+0x1ce>
    2ac6:	00f56763          	bltu	a0,a5,2ad4 <__printf_impl+0x17a>
    2aca:	fbb50793          	addi	a5,a0,-69
    2ace:	4709                	c.li	a4,2
    2ad0:	04f77c63          	bgeu	a4,a5,2b28 <__printf_impl+0x1ce>
    2ad4:	84a2                	c.mv	s1,s0
    2ad6:	a481                	c.j	2d16 <__printf_impl+0x3bc>
    2ad8:	0807e793          	ori	a5,a5,128
    2adc:	d03e                	c.swsp	a5,32(sp)
    2ade:	00148913          	addi	s2,s1,1
    2ae2:	bf75                	c.j	2a9e <__printf_impl+0x144>
    2ae4:	40c7eddb          	bnec	a5,108,2afe <__printf_impl+0x1a4>
    2ae8:	5782                	c.lwsp	a5,32(sp)
    2aea:	0014c703          	lbu	a4,1(s1)
    2aee:	40c765db          	bnec	a4,108,2af8 <__printf_impl+0x19e>
    2af2:	2007e793          	ori	a5,a5,512
    2af6:	b74d                	c.j	2a98 <__printf_impl+0x13e>
    2af8:	1007e793          	ori	a5,a5,256
    2afc:	b7c5                	c.j	2adc <__printf_impl+0x182>
    2afe:	00148913          	addi	s2,s1,1
    2b02:	41a7e7db          	bnec	a5,122,2b10 <__printf_impl+0x1b6>
    2b06:	5782                	c.lwsp	a5,32(sp)
    2b08:	1007e793          	ori	a5,a5,256
    2b0c:	d03e                	c.swsp	a5,32(sp)
    2b0e:	bf41                	c.j	2a9e <__printf_impl+0x144>
    2b10:	ff47dbdb          	beqc	a5,116,2b06 <__printf_impl+0x1ac>
    2b14:	8926                	c.mv	s2,s1
    2b16:	b761                	c.j	2a9e <__printf_impl+0x144>
    2b18:	06300793          	li	a5,99
    2b1c:	50355cdb          	beqc	a0,99,2c34 <__printf_impl+0x2da>
    2b20:	04a7e463          	bltu	a5,a0,2b68 <__printf_impl+0x20e>
    2b24:	fa1568db          	bnec	a0,97,2ad4 <__printf_impl+0x17a>
    2b28:	041d                	c.addi	s0,7
    2b2a:	9861                	c.andi	s0,-8
    2b2c:	00042803          	lw	a6,0(s0)
    2b30:	00442883          	lw	a7,4(s0)
    2b34:	02057b93          	andi	s7,a0,32
    2b38:	87aa                	c.mv	a5,a0
    2b3a:	86c2                	c.mv	a3,a6
    2b3c:	8746                	c.mv	a4,a7
    2b3e:	100c                	c.addi4spn	a1,sp,32
    2b40:	1048                	c.addi4spn	a0,sp,36
    2b42:	00840493          	addi	s1,s0,8
    2b46:	2e15                	c.jal	2e7a <__printf_float_impl>
    2b48:	aa45                	c.j	2cf8 <__printf_impl+0x39e>
    2b4a:	07000793          	li	a5,112
    2b4e:	4d0559db          	beqc	a0,112,2c20 <__printf_impl+0x2c6>
    2b52:	04a7e163          	bltu	a5,a0,2b94 <__printf_impl+0x23a>
    2b56:	06e00793          	li	a5,110
    2b5a:	5ae553db          	beqc	a0,110,2d00 <__printf_impl+0x3a6>
    2b5e:	45a1                	c.li	a1,8
    2b60:	0ca7e163          	bltu	a5,a0,2c22 <__printf_impl+0x2c8>
    2b64:	f69568db          	bnec	a0,105,2ad4 <__printf_impl+0x17a>
    2b68:	5682                	c.lwsp	a3,32(sp)
    2b6a:	0e66f05b          	bbc	a3,6,2c4a <__printf_impl+0x2f0>
    2b6e:	00040703          	lb	a4,0(s0)
    2b72:	00440493          	addi	s1,s0,4
    2b76:	41f75793          	srai	a5,a4,0x1f
    2b7a:	0e07df63          	bgez	a5,2c78 <__printf_impl+0x31e>
    2b7e:	40e00733          	neg	a4,a4
    2b82:	00e035b3          	snez	a1,a4
    2b86:	40f007b3          	neg	a5,a5
    2b8a:	8f8d                	c.sub	a5,a1
    2b8c:	4006e693          	ori	a3,a3,1024
    2b90:	d036                	c.swsp	a3,32(sp)
    2b92:	a0dd                	c.j	2c78 <__printf_impl+0x31e>
    2b94:	515553db          	beqc	a0,117,2c9a <__printf_impl+0x340>
    2b98:	498554db          	beqc	a0,120,2c20 <__printf_impl+0x2c6>
    2b9c:	f3356cdb          	bnec	a0,115,2ad4 <__printf_impl+0x17a>
    2ba0:	00042a83          	lw	s5,0(s0)
    2ba4:	85b2                	c.mv	a1,a2
    2ba6:	8556                	c.mv	a0,s5
    2ba8:	c632                	c.swsp	a2,12(sp)
    2baa:	2fb1                	c.jal	3306 <strnlen>
    2bac:	57fd                	c.li	a5,-1
    2bae:	00440493          	addi	s1,s0,4
    2bb2:	00fc8563          	beq	s9,a5,2bbc <__printf_impl+0x262>
    2bb6:	4632                	c.lwsp	a2,12(sp)
    2bb8:	f0c5057f          	minw	a0,a0,a2
    2bbc:	00aa8433          	add	s0,s5,a0
    2bc0:	4b81                	c.li	s7,0
    2bc2:	5782                	c.lwsp	a5,32(sp)
    2bc4:	02d00693          	li	a3,45
    2bc8:	40a7fb5b          	bbs	a5,10,2bde <__printf_impl+0x284>
    2bcc:	02b00693          	li	a3,43
    2bd0:	4037f75b          	bbs	a5,3,2bde <__printf_impl+0x284>
    2bd4:	8cd2                	c.mv	s9,s4
    2bd6:	0017f85b          	bbc	a5,1,2be6 <__printf_impl+0x28c>
    2bda:	02000693          	li	a3,32
    2bde:	01d10c93          	addi	s9,sp,29
    2be2:	00d10e23          	sb	a3,28(sp)
    2be6:	0167f6b3          	and	a3,a5,s6
    2bea:	ca91                	c.beqz	a3,2bfe <__printf_impl+0x2a4>
    2bec:	03000693          	li	a3,48
    2bf0:	00dc8023          	sb	a3,0(s9)
    2bf4:	05800693          	li	a3,88
    2bf8:	00dc80a3          	sb	a3,1(s9)
    2bfc:	0c89                	c.addi	s9,2
    2bfe:	5627f35b          	bbs	a5,2,2d64 <__printf_impl+0x40a>
    2c02:	41540db3          	sub	s11,s0,s5
    2c06:	4057fa5b          	bbs	a5,5,2c1a <__printf_impl+0x2c0>
    2c0a:	41bc0d33          	sub	s10,s8,s11
    2c0e:	414c87b3          	sub	a5,s9,s4
    2c12:	40fd0d33          	sub	s10,s10,a5
    2c16:	17a04663          	bgtz	s10,2d82 <__printf_impl+0x428>
    2c1a:	8d52                	c.mv	s10,s4
    2c1c:	9c52                	c.add	s8,s4
    2c1e:	aaad                	c.j	2d98 <__printf_impl+0x43e>
    2c20:	45c1                	c.li	a1,16
    2c22:	5782                	c.lwsp	a5,32(sp)
    2c24:	0667fd5b          	bbc	a5,6,2c9e <__printf_impl+0x344>
    2c28:	00044703          	lbu	a4,0(s0)
    2c2c:	00440493          	addi	s1,s0,4
    2c30:	4781                	c.li	a5,0
    2c32:	a859                	c.j	2cc8 <__printf_impl+0x36e>
    2c34:	401c                	c.lw	a5,0(s0)
    2c36:	00440493          	addi	s1,s0,4
    2c3a:	4b81                	c.li	s7,0
    2c3c:	02510413          	addi	s0,sp,37
    2c40:	02f10223          	sb	a5,36(sp)
    2c44:	02410a93          	addi	s5,sp,36
    2c48:	bfad                	c.j	2bc2 <__printf_impl+0x268>
    2c4a:	0076f75b          	bbc	a3,7,2c58 <__printf_impl+0x2fe>
    2c4e:	00440493          	addi	s1,s0,4
    2c52:	00041703          	lh	a4,0(s0)
    2c56:	b705                	c.j	2b76 <__printf_impl+0x21c>
    2c58:	0086f65b          	bbc	a3,8,2c64 <__printf_impl+0x30a>
    2c5c:	00440493          	addi	s1,s0,4
    2c60:	4018                	c.lw	a4,0(s0)
    2c62:	bf11                	c.j	2b76 <__printf_impl+0x21c>
    2c64:	be96fc5b          	bbc	a3,9,2c5c <__printf_impl+0x302>
    2c68:	041d                	c.addi	s0,7
    2c6a:	9861                	c.andi	s0,-8
    2c6c:	405c                	c.lw	a5,4(s0)
    2c6e:	00840493          	addi	s1,s0,8
    2c72:	4018                	c.lw	a4,0(s0)
    2c74:	0007c963          	bltz	a5,2c86 <__printf_impl+0x32c>
    2c78:	56fd                	c.li	a3,-1
    2c7a:	45a9                	c.li	a1,10
    2c7c:	4b81                	c.li	s7,0
    2c7e:	04dc9a63          	bne	s9,a3,2cd2 <__printf_impl+0x378>
    2c82:	4605                	c.li	a2,1
    2c84:	a0b5                	c.j	2cf0 <__printf_impl+0x396>
    2c86:	ee071ce3          	bnez	a4,2b7e <__printf_impl+0x224>
    2c8a:	800005b7          	lui	a1,0x80000
    2c8e:	eeb798e3          	bne	a5,a1,2b7e <__printf_impl+0x224>
    2c92:	4701                	c.li	a4,0
    2c94:	800007b7          	lui	a5,0x80000
    2c98:	bdd5                	c.j	2b8c <__printf_impl+0x232>
    2c9a:	45a9                	c.li	a1,10
    2c9c:	b759                	c.j	2c22 <__printf_impl+0x2c8>
    2c9e:	0077f75b          	bbc	a5,7,2cac <__printf_impl+0x352>
    2ca2:	00440493          	addi	s1,s0,4
    2ca6:	00045703          	lhu	a4,0(s0)
    2caa:	b759                	c.j	2c30 <__printf_impl+0x2d6>
    2cac:	0087f65b          	bbc	a5,8,2cb8 <__printf_impl+0x35e>
    2cb0:	00440493          	addi	s1,s0,4
    2cb4:	4018                	c.lw	a4,0(s0)
    2cb6:	bfad                	c.j	2c30 <__printf_impl+0x2d6>
    2cb8:	be97fc5b          	bbc	a5,9,2cb0 <__printf_impl+0x356>
    2cbc:	041d                	c.addi	s0,7
    2cbe:	9861                	c.andi	s0,-8
    2cc0:	4018                	c.lw	a4,0(s0)
    2cc2:	405c                	c.lw	a5,4(s0)
    2cc4:	00840493          	addi	s1,s0,8
    2cc8:	56fd                	c.li	a3,-1
    2cca:	02057b93          	andi	s7,a0,32
    2cce:	02dc8763          	beq	s9,a3,2cfc <__printf_impl+0x3a2>
    2cd2:	5682                	c.lwsp	a3,32(sp)
    2cd4:	fdf6f693          	andi	a3,a3,-33
    2cd8:	d036                	c.swsp	a3,32(sp)
    2cda:	0105eb5b          	bnec	a1,16,2cf0 <__printf_impl+0x396>
    2cde:	5682                	c.lwsp	a3,32(sp)
    2ce0:	0046f85b          	bbc	a3,4,2cf0 <__printf_impl+0x396>
    2ce4:	00f76533          	or	a0,a4,a5
    2ce8:	c501                	c.beqz	a0,2cf0 <__printf_impl+0x396>
    2cea:	0166e6b3          	or	a3,a3,s6
    2cee:	d036                	c.swsp	a3,32(sp)
    2cf0:	86b2                	c.mv	a3,a2
    2cf2:	5602                	c.lwsp	a2,32(sp)
    2cf4:	1048                	c.addi4spn	a0,sp,36
    2cf6:	3931                	c.jal	2912 <__print_integral>
    2cf8:	842a                	c.mv	s0,a0
    2cfa:	b7a9                	c.j	2c44 <__printf_impl+0x2ea>
    2cfc:	4605                	c.li	a2,1
    2cfe:	bff1                	c.j	2cda <__printf_impl+0x380>
    2d00:	45a2                	c.lwsp	a1,8(sp)
    2d02:	5682                	c.lwsp	a3,32(sp)
    2d04:	00440493          	addi	s1,s0,4
    2d08:	cfffa7ab          	lwgp	a5,-772 # 804fc <__printf_count>
    2d0c:	4018                	c.lw	a4,0(s0)
    2d0e:	0066f85b          	bbc	a3,6,2d1e <__printf_impl+0x3c4>
    2d12:	00f70023          	sb	a5,0(a4)
    2d16:	1040                	c.addi4spn	s0,sp,36
    2d18:	4b81                	c.li	s7,0
    2d1a:	8aa2                	c.mv	s5,s0
    2d1c:	b55d                	c.j	2bc2 <__printf_impl+0x268>
    2d1e:	0076f55b          	bbc	a3,7,2d28 <__printf_impl+0x3ce>
    2d22:	00f71023          	sh	a5,0(a4)
    2d26:	bfc5                	c.j	2d16 <__printf_impl+0x3bc>
    2d28:	c31c                	c.sw	a5,0(a4)
    2d2a:	fe86f65b          	bbs	a3,8,2d16 <__printf_impl+0x3bc>
    2d2e:	be96f45b          	bbc	a3,9,2d16 <__printf_impl+0x3bc>
    2d32:	87fd                	c.srai	a5,0x1f
    2d34:	c35c                	c.sw	a5,4(a4)
    2d36:	b7c5                	c.j	2d16 <__printf_impl+0x3bc>
    2d38:	000dc503          	lbu	a0,0(s11)
    2d3c:	0d85                	c.addi	s11,1
    2d3e:	01756533          	or	a0,a0,s7
    2d42:	9982                	c.jalr	s3
    2d44:	41bc0d33          	sub	s10,s8,s11
    2d48:	ff9de8e3          	bltu	s11,s9,2d38 <__printf_impl+0x3de>
    2d4c:	8c56                	c.mv	s8,s5
    2d4e:	01841e63          	bne	s0,s8,2d6a <__printf_impl+0x410>
    2d52:	41540433          	sub	s0,s0,s5
    2d56:	408d0433          	sub	s0,s10,s0
    2d5a:	00804f63          	bgtz	s0,2d78 <__printf_impl+0x41e>
    2d5e:	0905                	c.addi	s2,1
    2d60:	8426                	c.mv	s0,s1
    2d62:	b919                	c.j	2978 <__printf_impl+0x1e>
    2d64:	8dd2                	c.mv	s11,s4
    2d66:	9c52                	c.add	s8,s4
    2d68:	bff1                	c.j	2d44 <__printf_impl+0x3ea>
    2d6a:	000c4503          	lbu	a0,0(s8)
    2d6e:	0c05                	c.addi	s8,1
    2d70:	01756533          	or	a0,a0,s7
    2d74:	9982                	c.jalr	s3
    2d76:	bfe1                	c.j	2d4e <__printf_impl+0x3f4>
    2d78:	02000513          	li	a0,32
    2d7c:	9982                	c.jalr	s3
    2d7e:	147d                	c.addi	s0,-1
    2d80:	bfe9                	c.j	2d5a <__printf_impl+0x400>
    2d82:	02000513          	li	a0,32
    2d86:	9982                	c.jalr	s3
    2d88:	1d7d                	c.addi	s10,-1
    2d8a:	b571                	c.j	2c16 <__printf_impl+0x2bc>
    2d8c:	000d4503          	lbu	a0,0(s10)
    2d90:	0d05                	c.addi	s10,1
    2d92:	01756533          	or	a0,a0,s7
    2d96:	9982                	c.jalr	s3
    2d98:	41ac07b3          	sub	a5,s8,s10
    2d9c:	ff9d68e3          	bltu	s10,s9,2d8c <__printf_impl+0x432>
    2da0:	5682                	c.lwsp	a3,32(sp)
    2da2:	0056f65b          	bbc	a3,5,2dae <__printf_impl+0x454>
    2da6:	41b78db3          	sub	s11,a5,s11
    2daa:	01b04b63          	bgtz	s11,2dc0 <__printf_impl+0x466>
    2dae:	fb5408e3          	beq	s0,s5,2d5e <__printf_impl+0x404>
    2db2:	000ac503          	lbu	a0,0(s5)
    2db6:	0a85                	c.addi	s5,1
    2db8:	01756533          	or	a0,a0,s7
    2dbc:	9982                	c.jalr	s3
    2dbe:	bfc5                	c.j	2dae <__printf_impl+0x454>
    2dc0:	03000513          	li	a0,48
    2dc4:	9982                	c.jalr	s3
    2dc6:	1dfd                	c.addi	s11,-1
    2dc8:	b7cd                	c.j	2daa <__printf_impl+0x450>

00002dca <__int_to_poly>:
    2dca:	872a                	c.mv	a4,a0
    2dcc:	87ae                	c.mv	a5,a1
    2dce:	4501                	c.li	a0,0
    2dd0:	00f766b3          	or	a3,a4,a5
    2dd4:	e291                	c.bnez	a3,2dd8 <__int_to_poly+0xe>
    2dd6:	8082                	c.jr	ra
    2dd8:	00e61023          	sh	a4,0(a2)
    2ddc:	0505                	c.addi	a0,1
    2dde:	df07077f          	wexti	a4,a4,16
    2de2:	0609                	c.addi	a2,2
    2de4:	83c1                	c.srli	a5,0x10
    2de6:	b7ed                	c.j	2dd0 <__int_to_poly+0x6>

00002de8 <__print_integral_poly>:
    2de8:	3e5012ef          	jal	t0,49cc <__riscv_save_0>
    2dec:	88c2                	c.mv	a7,a6
    2dee:	84ba                	c.mv	s1,a4
    2df0:	187d                	c.addi	a6,-1
    2df2:	0b17875b          	lea.h	a4,a5,a7
    2df6:	8342                	c.mv	t1,a6
    2df8:	4401                	c.li	s0,0
    2dfa:	8e3a                	c.mv	t3,a4
    2dfc:	1779                	c.addi	a4,-2
    2dfe:	02035563          	bgez	t1,2e28 <__print_integral_poly+0x40>
    2e02:	05105163          	blez	a7,2e44 <__print_integral_poly+0x5c>
    2e06:	ffee5703          	lhu	a4,-2(t3)
    2e0a:	eb1d                	c.bnez	a4,2e40 <__print_integral_poly+0x58>
    2e0c:	03005c63          	blez	a6,2e44 <__print_integral_poly+0x5c>
    2e10:	8726                	c.mv	a4,s1
    2e12:	16fd                	c.addi	a3,-1
    2e14:	3fd1                	c.jal	2de8 <__print_integral_poly>
    2e16:	87aa                	c.mv	a5,a0
    2e18:	0505                	c.addi	a0,1
    2e1a:	00878023          	sb	s0,0(a5) # 80000000 <_DATA_LMA_START+0x5fffb3b8>
    2e1e:	409c                	c.lw	a5,0(s1)
    2e20:	0785                	c.addi	a5,1
    2e22:	c09c                	c.sw	a5,0(s1)
    2e24:	3cd0106f          	j	49f0 <__riscv_restore_0>
    2e28:	00075e83          	lhu	t4,0(a4)
    2e2c:	0442                	c.slli	s0,0x10
    2e2e:	9476                	c.add	s0,t4
    2e30:	02b45eb3          	divu	t4,s0,a1
    2e34:	137d                	c.addi	t1,-1
    2e36:	02b47433          	remu	s0,s0,a1
    2e3a:	01d71023          	sh	t4,0(a4)
    2e3e:	bf7d                	c.j	2dfc <__print_integral_poly+0x14>
    2e40:	8846                	c.mv	a6,a7
    2e42:	b7f9                	c.j	2e10 <__print_integral_poly+0x28>
    2e44:	c011                	c.beqz	s0,2e48 <__print_integral_poly+0x60>
    2e46:	16fd                	c.addi	a3,-1
    2e48:	00d04763          	bgtz	a3,2e56 <__print_integral_poly+0x6e>
    2e4c:	0085ee5b          	bnec	a1,8,2e68 <__print_integral_poly+0x80>
    2e50:	00467c5b          	bbc	a2,4,2e68 <__print_integral_poly+0x80>
    2e54:	4685                	c.li	a3,1
    2e56:	87aa                	c.mv	a5,a0
    2e58:	40a78733          	sub	a4,a5,a0
    2e5c:	00d74b63          	blt	a4,a3,2e72 <__print_integral_poly+0x8a>
    2e60:	4781                	c.li	a5,0
    2e62:	f2f686ff          	maxw	a3,a3,a5
    2e66:	9536                	c.add	a0,a3
    2e68:	d85d                	c.beqz	s0,2e1e <__print_integral_poly+0x36>
    2e6a:	00850023          	sb	s0,0(a0)
    2e6e:	0505                	c.addi	a0,1
    2e70:	b77d                	c.j	2e1e <__print_integral_poly+0x36>
    2e72:	0785                	c.addi	a5,1
    2e74:	fe078fa3          	sb	zero,-1(a5)
    2e78:	b7c5                	c.j	2e58 <__print_integral_poly+0x70>

00002e7a <__printf_float_impl>:
    2e7a:	323012ef          	jal	t0,499c <__riscv_save_12>
    2e7e:	0df7fc13          	andi	s8,a5,223
    2e82:	8b2a                	c.mv	s6,a0
    2e84:	892e                	c.mv	s2,a1
    2e86:	7169                	c.addi16sp	sp,-304
    2e88:	84b2                	c.mv	s1,a2
    2e8a:	8536                	c.mv	a0,a3
    2e8c:	85ba                	c.mv	a1,a4
    2e8e:	8a3e                	c.mv	s4,a5
    2e90:	467c6d5b          	bnec	s8,71,2f0a <__printf_float_impl+0x90>
    2e94:	00092983          	lw	s3,0(s2)
    2e98:	0109c993          	xori	s3,s3,16
    2e9c:	1049a9db          	bfoz	s3,s3,4,4
    2ea0:	0604db63          	bgez	s1,2f16 <__printf_float_impl+0x9c>
    2ea4:	4499                	c.li	s1,6
    2ea6:	401c635b          	bnec	s8,65,2eac <__printf_float_impl+0x32>
    2eaa:	44b5                	c.li	s1,13
    2eac:	dff5047f          	wexti	s0,a0,31
    2eb0:	8055                	c.srli	s0,0x15
    2eb2:	8aaa                	c.mv	s5,a0
    2eb4:	4c05ad5b          	bfoz	s10,a1,19,0
    2eb8:	0005d863          	bgez	a1,2ec8 <__printf_float_impl+0x4e>
    2ebc:	00092783          	lw	a5,0(s2)
    2ec0:	4007e793          	ori	a5,a5,1024
    2ec4:	00f92023          	sw	a5,0(s2)
    2ec8:	401c6a5b          	bnec	s8,65,2edc <__printf_float_impl+0x62>
    2ecc:	00092783          	lw	a5,0(s2)
    2ed0:	6705                	c.lui	a4,0x1
    2ed2:	80070713          	addi	a4,a4,-2048 # 800 <analog_read_reg8+0x2c>
    2ed6:	8fd9                	c.or	a5,a4
    2ed8:	00f92023          	sw	a5,0(s2)
    2edc:	7ff00793          	li	a5,2047
    2ee0:	04f41663          	bne	s0,a5,2f2c <__printf_float_impl+0xb2>
    2ee4:	00092783          	lw	a5,0(s2)
    2ee8:	00ad66b3          	or	a3,s10,a0
    2eec:	fdf7f793          	andi	a5,a5,-33
    2ef0:	00f92023          	sw	a5,0(s2)
    2ef4:	c69d                	c.beqz	a3,2f22 <__printf_float_impl+0xa8>
    2ef6:	000805b7          	lui	a1,0x80
    2efa:	3dc58593          	addi	a1,a1,988 # 803dc <__digits+0x10>
    2efe:	855a                	c.mv	a0,s6
    2f00:	2661                	c.jal	3288 <strcpy>
    2f02:	050d                	c.addi	a0,3
    2f04:	6155                	c.addi16sp	sp,304
    2f06:	2d30106f          	j	49d8 <__riscv_restore_12>
    2f0a:	4981                	c.li	s3,0
    2f0c:	f81c6a5b          	bnec	s8,65,2ea0 <__printf_float_impl+0x26>
    2f10:	01f65993          	srli	s3,a2,0x1f
    2f14:	b771                	c.j	2ea0 <__printf_float_impl+0x26>
    2f16:	f8d9                	c.bnez	s1,2eac <__printf_float_impl+0x32>
    2f18:	fb9c0493          	addi	s1,s8,-71
    2f1c:	0014b493          	seqz	s1,s1
    2f20:	b771                	c.j	2eac <__printf_float_impl+0x32>
    2f22:	000805b7          	lui	a1,0x80
    2f26:	3e058593          	addi	a1,a1,992 # 803e0 <__digits+0x14>
    2f2a:	bfd1                	c.j	2efe <__printf_float_impl+0x84>
    2f2c:	e811                	c.bnez	s0,2f40 <__printf_float_impl+0xc6>
    2f2e:	00ad66b3          	or	a3,s10,a0
    2f32:	c0300413          	li	s0,-1021
    2f36:	18069563          	bnez	a3,30c0 <__printf_float_impl+0x246>
    2f3a:	03500413          	li	s0,53
    2f3e:	a829                	c.j	2f58 <__printf_float_impl+0xde>
    2f40:	00100db7          	lui	s11,0x100
    2f44:	01adedb3          	or	s11,s11,s10
    2f48:	c0240413          	addi	s0,s0,-1022
    2f4c:	03400793          	li	a5,52
    2f50:	8aaa                	c.mv	s5,a0
    2f52:	8d6e                	c.mv	s10,s11
    2f54:	1687d463          	bge	a5,s0,30bc <__printf_float_impl+0x242>
    2f58:	fcb40413          	addi	s0,s0,-53
    2f5c:	00445b93          	srli	s7,s0,0x4
    2f60:	001b9c93          	slli	s9,s7,0x1
    2f64:	8666                	c.mv	a2,s9
    2f66:	4581                	c.li	a1,0
    2f68:	1008                	c.addi4spn	a0,sp,32
    2f6a:	e32ff0ef          	jal	ra,259c <memset>
    2f6e:	883d                	c.andi	s0,15
    2f70:	1a0c                	c.addi4spn	a1,sp,304
    2f72:	9cae                	c.add	s9,a1
    2f74:	8622                	c.mv	a2,s0
    2f76:	8556                	c.mv	a0,s5
    2f78:	85ea                	c.mv	a1,s10
    2f7a:	1f3010ef          	jal	ra,496c <__ashldi3>
    2f7e:	4641                	c.li	a2,16
    2f80:	eeac9823          	sh	a0,-272(s9)
    2f84:	1014                	c.addi4spn	a3,sp,32
    2f86:	0b85                	c.addi	s7,1
    2f88:	8e01                	c.sub	a2,s0
    2f8a:	8556                	c.mv	a0,s5
    2f8c:	85ea                	c.mv	a1,s10
    2f8e:	0b768cdb          	lea.h	s9,a3,s7
    2f92:	1ab010ef          	jal	ra,493c <__lshrdi3>
    2f96:	8666                	c.mv	a2,s9
    2f98:	3d0d                	c.jal	2dca <__int_to_poly>
    2f9a:	4c81                	c.li	s9,0
    2f9c:	9baa                	c.add	s7,a0
    2f9e:	57fd                	c.li	a5,-1
    2fa0:	ce3e                	c.swsp	a5,28(sp)
    2fa2:	4429                	c.li	s0,10
    2fa4:	401c635b          	bnec	s8,65,2faa <__printf_float_impl+0x130>
    2fa8:	4441                	c.li	s0,16
    2faa:	885e                	c.mv	a6,s7
    2fac:	101c                	c.addi4spn	a5,sp,32
    2fae:	4685                	c.li	a3,1
    2fb0:	0878                	c.addi4spn	a4,sp,28
    2fb2:	4601                	c.li	a2,0
    2fb4:	85a2                	c.mv	a1,s0
    2fb6:	855a                	c.mv	a0,s6
    2fb8:	3d05                	c.jal	2de8 <__print_integral_poly>
    2fba:	02e00793          	li	a5,46
    2fbe:	00f50023          	sb	a5,0(a0)
    2fc2:	001bbb93          	seqz	s7,s7
    2fc6:	0dba7a13          	andi	s4,s4,219
    2fca:	00150693          	addi	a3,a0,1
    2fce:	87de                	c.mv	a5,s7
    2fd0:	401a535b          	beqc	s4,65,2fd6 <__printf_float_impl+0x15c>
    2fd4:	4781                	c.li	a5,0
    2fd6:	00148713          	addi	a4,s1,1
    2fda:	973e                	c.add	a4,a5
    2fdc:	fffc8893          	addi	a7,s9,-1
    2fe0:	001c9613          	slli	a2,s9,0x1
    2fe4:	112c                	c.addi4spn	a1,sp,168
    2fe6:	95b2                	c.add	a1,a2
    2fe8:	8846                	c.mv	a6,a7
    2fea:	4781                	c.li	a5,0
    2fec:	15f9                	c.addi	a1,-2
    2fee:	18085263          	bgez	a6,3172 <__printf_float_impl+0x2f8>
    2ff2:	01905863          	blez	s9,3002 <__printf_float_impl+0x188>
    2ff6:	1a0c                	c.addi4spn	a1,sp,304
    2ff8:	962e                	c.add	a2,a1
    2ffa:	f7665603          	lhu	a2,-138(a2)
    2ffe:	e211                	c.bnez	a2,3002 <__printf_float_impl+0x188>
    3000:	8cc6                	c.mv	s9,a7
    3002:	180b8163          	beqz	s7,3184 <__printf_float_impl+0x30a>
    3006:	4672                	c.lwsp	a2,28(sp)
    3008:	0017bb93          	seqz	s7,a5
    300c:	167d                	c.addi	a2,-1
    300e:	ce32                	c.swsp	a2,28(sp)
    3010:	0685                	c.addi	a3,1
    3012:	fef68fa3          	sb	a5,-1(a3)
    3016:	f379                	c.bnez	a4,2fdc <__printf_float_impl+0x162>
    3018:	567c695b          	bnec	s8,71,318a <__printf_float_impl+0x310>
    301c:	47f2                	c.lwsp	a5,28(sp)
    301e:	fff48713          	addi	a4,s1,-1
    3022:	1897d663          	bge	a5,s1,31ae <__printf_float_impl+0x334>
    3026:	5671                	c.li	a2,-4
    3028:	18c7c363          	blt	a5,a2,31ae <__printf_float_impl+0x334>
    302c:	40f704b3          	sub	s1,a4,a5
    3030:	04600c13          	li	s8,70
    3034:	0489                	c.addi	s1,2
    3036:	9526                	c.add	a0,s1
    3038:	fff54683          	lbu	a3,-1(a0)
    303c:	40145713          	srai	a4,s0,0x1
    3040:	fff50793          	addi	a5,a0,-1
    3044:	00e6a6b3          	slt	a3,a3,a4
    3048:	0016c693          	xori	a3,a3,1
    304c:	863e                	c.mv	a2,a5
    304e:	1acb7b63          	bgeu	s6,a2,3204 <__printf_float_impl+0x38a>
    3052:	18069763          	bnez	a3,31e0 <__printf_float_impl+0x366>
    3056:	17fd                	c.addi	a5,-1
    3058:	00178513          	addi	a0,a5,1
    305c:	00fb7763          	bgeu	s6,a5,306a <__printf_float_impl+0x1f0>
    3060:	00098563          	beqz	s3,306a <__printf_float_impl+0x1f0>
    3064:	0007c703          	lbu	a4,0(a5)
    3068:	d77d                	c.beqz	a4,3056 <__printf_float_impl+0x1dc>
    306a:	fff54783          	lbu	a5,-1(a0)
    306e:	00e7e7db          	bnec	a5,46,307c <__printf_float_impl+0x202>
    3072:	00092783          	lw	a5,0(s2)
    3076:	4047f35b          	bbs	a5,4,307c <__printf_float_impl+0x202>
    307a:	157d                	c.addi	a0,-1
    307c:	46bd                	c.li	a3,15
    307e:	bcdf970b          	addigp	a4,-1076 # 803cc <__digits>
    3082:	1aab6f63          	bltu	s6,a0,3240 <__printf_float_impl+0x3c6>
    3086:	5c5c685b          	bnec	s8,69,3256 <__printf_float_impl+0x3dc>
    308a:	01850023          	sb	s8,0(a0)
    308e:	4772                	c.lwsp	a4,28(sp)
    3090:	02d00793          	li	a5,45
    3094:	00074463          	bltz	a4,309c <__printf_float_impl+0x222>
    3098:	02b00793          	li	a5,43
    309c:	00f500a3          	sb	a5,1(a0)
    30a0:	47f2                	c.lwsp	a5,28(sp)
    30a2:	4689                	c.li	a3,2
    30a4:	40f00733          	neg	a4,a5
    30a8:	f2f7077f          	maxw	a4,a4,a5
    30ac:	41f75793          	srai	a5,a4,0x1f
    30b0:	4601                	c.li	a2,0
    30b2:	45a9                	c.li	a1,10
    30b4:	0509                	c.addi	a0,2
    30b6:	85dff0ef          	jal	ra,2912 <__print_integral>
    30ba:	b5a9                	c.j	2f04 <__printf_float_impl+0x8a>
    30bc:	06804563          	bgtz	s0,3126 <__printf_float_impl+0x2ac>
    30c0:	40800433          	neg	s0,s0
    30c4:	00445b93          	srli	s7,s0,0x4
    30c8:	001b9d93          	slli	s11,s7,0x1
    30cc:	866e                	c.mv	a2,s11
    30ce:	4581                	c.li	a1,0
    30d0:	1128                	c.addi4spn	a0,sp,168
    30d2:	ccaff0ef          	jal	ra,259c <memset>
    30d6:	112c                	c.addi4spn	a1,sp,168
    30d8:	883d                	c.andi	s0,15
    30da:	9dae                	c.add	s11,a1
    30dc:	02540413          	addi	s0,s0,37
    30e0:	876e                	c.mv	a4,s11
    30e2:	4c81                	c.li	s9,0
    30e4:	001c8793          	addi	a5,s9,1
    30e8:	8622                	c.mv	a2,s0
    30ea:	8556                	c.mv	a0,s5
    30ec:	85ea                	c.mv	a1,s10
    30ee:	c63a                	c.swsp	a4,12(sp)
    30f0:	c43e                	c.swsp	a5,8(sp)
    30f2:	04b010ef          	jal	ra,493c <__lshrdi3>
    30f6:	4732                	c.lwsp	a4,12(sp)
    30f8:	1441                	c.addi	s0,-16
    30fa:	00a71023          	sh	a0,0(a4)
    30fe:	47a2                	c.lwsp	a5,8(sp)
    3100:	0709                	c.addi	a4,2
    3102:	02045063          	bgez	s0,3122 <__printf_float_impl+0x2a8>
    3106:	0afd8ddb          	lea.h	s11,s11,a5
    310a:	40800633          	neg	a2,s0
    310e:	8556                	c.mv	a0,s5
    3110:	85ea                	c.mv	a1,s10
    3112:	0c89                	c.addi	s9,2
    3114:	059010ef          	jal	ra,496c <__ashldi3>
    3118:	9cde                	c.add	s9,s7
    311a:	00ad9023          	sh	a0,0(s11) # 100000 <FLASH_SIZE>
    311e:	4b81                	c.li	s7,0
    3120:	bdbd                	c.j	2f9e <__printf_float_impl+0x124>
    3122:	8cbe                	c.mv	s9,a5
    3124:	b7c1                	c.j	30e4 <__printf_float_impl+0x26a>
    3126:	03500613          	li	a2,53
    312a:	8e01                	c.sub	a2,s0
    312c:	85ee                	c.mv	a1,s11
    312e:	00f010ef          	jal	ra,493c <__lshrdi3>
    3132:	1010                	c.addi4spn	a2,sp,32
    3134:	3959                	c.jal	2dca <__int_to_poly>
    3136:	02500793          	li	a5,37
    313a:	8baa                	c.mv	s7,a0
    313c:	40878433          	sub	s0,a5,s0
    3140:	0a810d13          	addi	s10,sp,168
    3144:	4c81                	c.li	s9,0
    3146:	0c85                	c.addi	s9,1
    3148:	00045b63          	bgez	s0,315e <__printf_float_impl+0x2e4>
    314c:	40800633          	neg	a2,s0
    3150:	8556                	c.mv	a0,s5
    3152:	85ee                	c.mv	a1,s11
    3154:	019010ef          	jal	ra,496c <__ashldi3>
    3158:	00ad1023          	sh	a0,0(s10)
    315c:	b589                	c.j	2f9e <__printf_float_impl+0x124>
    315e:	8622                	c.mv	a2,s0
    3160:	8556                	c.mv	a0,s5
    3162:	85ee                	c.mv	a1,s11
    3164:	7d8010ef          	jal	ra,493c <__lshrdi3>
    3168:	1441                	c.addi	s0,-16
    316a:	00ad1023          	sh	a0,0(s10)
    316e:	0d09                	c.addi	s10,2
    3170:	bfd9                	c.j	3146 <__printf_float_impl+0x2cc>
    3172:	0005d303          	lhu	t1,0(a1)
    3176:	187d                	c.addi	a6,-1
    3178:	c48317ff          	maddr32	a5,t1,s0
    317c:	00f59023          	sh	a5,0(a1)
    3180:	83c1                	c.srli	a5,0x10
    3182:	b5ad                	c.j	2fec <__printf_float_impl+0x172>
    3184:	177d                	c.addi	a4,-1
    3186:	4b81                	c.li	s7,0
    3188:	b561                	c.j	3010 <__printf_float_impl+0x196>
    318a:	8726                	c.mv	a4,s1
    318c:	ea6c545b          	beqc	s8,70,3034 <__printf_float_impl+0x1ba>
    3190:	47f2                	c.lwsp	a5,28(sp)
    3192:	001b0613          	addi	a2,s6,1
    3196:	02f04463          	bgtz	a5,31be <__printf_float_impl+0x344>
    319a:	c785                	c.beqz	a5,31c2 <__printf_float_impl+0x348>
    319c:	40f507b3          	sub	a5,a0,a5
    31a0:	02d7e963          	bltu	a5,a3,31d2 <__printf_float_impl+0x358>
    31a4:	001b0783          	lb	a5,1(s6)
    31a8:	00fb0023          	sb	a5,0(s6)
    31ac:	a819                	c.j	31c2 <__printf_float_impl+0x348>
    31ae:	04500c13          	li	s8,69
    31b2:	bff9                	c.j	3190 <__printf_float_impl+0x316>
    31b4:	fff50783          	lb	a5,-1(a0)
    31b8:	157d                	c.addi	a0,-1
    31ba:	00f500a3          	sb	a5,1(a0)
    31be:	fec51be3          	bne	a0,a2,31b4 <__printf_float_impl+0x33a>
    31c2:	02e00793          	li	a5,46
    31c6:	001b0513          	addi	a0,s6,1
    31ca:	00fb00a3          	sb	a5,1(s6)
    31ce:	84ba                	c.mv	s1,a4
    31d0:	b595                	c.j	3034 <__printf_float_impl+0x1ba>
    31d2:	0785                	c.addi	a5,1
    31d4:	fff7c603          	lbu	a2,-1(a5)
    31d8:	0505                	c.addi	a0,1
    31da:	fec50fa3          	sb	a2,-1(a0)
    31de:	b7c9                	c.j	31a0 <__printf_float_impl+0x326>
    31e0:	167d                	c.addi	a2,-1
    31e2:	00064703          	lbu	a4,0(a2)
    31e6:	a6e754db          	beqc	a4,46,304e <__printf_float_impl+0x1d4>
    31ea:	0705                	c.addi	a4,1
    31ec:	0ff77713          	andi	a4,a4,255
    31f0:	00875663          	bge	a4,s0,31fc <__printf_float_impl+0x382>
    31f4:	00e60023          	sb	a4,0(a2)
    31f8:	4681                	c.li	a3,0
    31fa:	bd91                	c.j	304e <__printf_float_impl+0x1d4>
    31fc:	8f01                	c.sub	a4,s0
    31fe:	00e60023          	sb	a4,0(a2)
    3202:	b5b1                	c.j	304e <__printf_float_impl+0x1d4>
    3204:	873e                	c.mv	a4,a5
    3206:	e40688e3          	beqz	a3,3056 <__printf_float_impl+0x1dc>
    320a:	02eb6363          	bltu	s6,a4,3230 <__printf_float_impl+0x3b6>
    320e:	4705                	c.li	a4,1
    3210:	00eb0023          	sb	a4,0(s6)
    3214:	4772                	c.lwsp	a4,28(sp)
    3216:	0705                	c.addi	a4,1
    3218:	ce3a                	c.swsp	a4,28(sp)
    321a:	426c515b          	beqc	s8,70,323c <__printf_float_impl+0x3c2>
    321e:	001b0703          	lb	a4,1(s6)
    3222:	00eb0123          	sb	a4,2(s6)
    3226:	02e00713          	li	a4,46
    322a:	00eb00a3          	sb	a4,1(s6)
    322e:	b525                	c.j	3056 <__printf_float_impl+0x1dc>
    3230:	fff70683          	lb	a3,-1(a4)
    3234:	177d                	c.addi	a4,-1
    3236:	00d700a3          	sb	a3,1(a4)
    323a:	bfc1                	c.j	320a <__printf_float_impl+0x390>
    323c:	87aa                	c.mv	a5,a0
    323e:	bd21                	c.j	3056 <__printf_float_impl+0x1dc>
    3240:	000b4783          	lbu	a5,0(s6)
    3244:	00f6e763          	bltu	a3,a5,3252 <__printf_float_impl+0x3d8>
    3248:	97ba                	c.add	a5,a4
    324a:	00078783          	lb	a5,0(a5)
    324e:	00fb0023          	sb	a5,0(s6)
    3252:	0b05                	c.addi	s6,1
    3254:	b53d                	c.j	3082 <__printf_float_impl+0x208>
    3256:	ca1c675b          	bnec	s8,65,2f04 <__printf_float_impl+0x8a>
    325a:	05000793          	li	a5,80
    325e:	00f50023          	sb	a5,0(a0)
    3262:	4772                	c.lwsp	a4,28(sp)
    3264:	02d00793          	li	a5,45
    3268:	00074463          	bltz	a4,3270 <__printf_float_impl+0x3f6>
    326c:	02b00793          	li	a5,43
    3270:	00f500a3          	sb	a5,1(a0)
    3274:	47f2                	c.lwsp	a5,28(sp)
    3276:	4685                	c.li	a3,1
    3278:	40f00733          	neg	a4,a5
    327c:	f2f7077f          	maxw	a4,a4,a5
    3280:	070a                	c.slli	a4,0x2
    3282:	41f75793          	srai	a5,a4,0x1f
    3286:	b52d                	c.j	30b0 <__printf_float_impl+0x236>

00003288 <strcpy>:
    3288:	00b567b3          	or	a5,a0,a1
    328c:	8b8d                	c.andi	a5,3
    328e:	e3ad                	c.bnez	a5,32f0 <strcpy+0x68>
    3290:	4198                	c.lw	a4,0(a1)
    3292:	200707db          	ffb	a5,a4,zero
    3296:	e3a9                	c.bnez	a5,32d8 <strcpy+0x50>
    3298:	00a007b3          	add	a5,zero,a0
    329c:	0591                	c.addi	a1,4
    329e:	0791                	c.addi	a5,4
    32a0:	fee7ae23          	sw	a4,-4(a5)
    32a4:	4198                	c.lw	a4,0(a1)
    32a6:	200706db          	ffb	a3,a4,zero
    32aa:	daed                	c.beqz	a3,329c <strcpy+0x14>
    32ac:	0005c703          	lbu	a4,0(a1)
    32b0:	0015c683          	lbu	a3,1(a1)
    32b4:	0025c603          	lbu	a2,2(a1)
    32b8:	00e78023          	sb	a4,0(a5)
    32bc:	00070863          	beqz	a4,32cc <strcpy+0x44>
    32c0:	00d780a3          	sb	a3,1(a5)
    32c4:	c681                	c.beqz	a3,32cc <strcpy+0x44>
    32c6:	00c78123          	sb	a2,2(a5)
    32ca:	e219                	c.bnez	a2,32d0 <strcpy+0x48>
    32cc:	00008067          	ret
    32d0:	000781a3          	sb	zero,3(a5)
    32d4:	00008067          	ret
    32d8:	0005c703          	lbu	a4,0(a1)
    32dc:	87aa                	c.mv	a5,a0
    32de:	0015c683          	lbu	a3,1(a1)
    32e2:	0025c603          	lbu	a2,2(a1)
    32e6:	00e78023          	sb	a4,0(a5)
    32ea:	fb79                	c.bnez	a4,32c0 <strcpy+0x38>
    32ec:	fe1ff06f          	j	32cc <strcpy+0x44>
    32f0:	00a007b3          	add	a5,zero,a0
    32f4:	0005c703          	lbu	a4,0(a1)
    32f8:	0785                	c.addi	a5,1
    32fa:	fee78fa3          	sb	a4,-1(a5)
    32fe:	0585                	c.addi	a1,1
    3300:	fb75                	c.bnez	a4,32f4 <strcpy+0x6c>
    3302:	8082                	c.jr	ra
    3304:	0001                	c.nop

00003306 <strnlen>:
    3306:	95aa                	c.add	a1,a0
    3308:	87aa                	c.mv	a5,a0
    330a:	00b78563          	beq	a5,a1,3314 <strnlen+0xe>
    330e:	0007c703          	lbu	a4,0(a5)
    3312:	e701                	c.bnez	a4,331a <strnlen+0x14>
    3314:	40a78533          	sub	a0,a5,a0
    3318:	8082                	c.jr	ra
    331a:	0785                	c.addi	a5,1
    331c:	b7fd                	c.j	330a <strnlen+0x4>
	...

00003320 <sinf>:
    3320:	3f491737          	lui	a4,0x3f491
    3324:	e00507d3          	fmv.x.w	a5,fa0
    3328:	fda70713          	addi	a4,a4,-38 # 3f490fda <_DATA_LMA_START+0x1f48c392>
    332c:	85be                	c.mv	a1,a5
    332e:	7807a6db          	bfoz	a3,a5,30,0
    3332:	02d76963          	bltu	a4,a3,3364 <sinf+0x44>
    3336:	39800737          	lui	a4,0x39800
    333a:	0ae6e963          	bltu	a3,a4,33ec <sinf+0xcc>
    333e:	10a577d3          	fmul.s	fa5,fa0,fa0
    3342:	801f970b          	addigp	a4,-2048 # 80000 <cst_libm_sincosf>
    3346:	20a505d3          	fmv.s	fa1,fa0
    334a:	6354                	c.flw	fa3,4(a4)
    334c:	6708                	c.flw	fa0,8(a4)
    334e:	6318                	c.flw	fa4,0(a4)
    3350:	68f57543          	fmadd.s	fa0,fa0,fa5,fa3
    3354:	70f57543          	fmadd.s	fa0,fa0,fa5,fa4
    3358:	10f57553          	fmul.s	fa0,fa0,fa5
    335c:	58a5f543          	fmadd.s	fa0,fa1,fa0,fa1
    3360:	00008067          	ret
    3364:	1101                	c.addi	sp,-32
    3366:	46491737          	lui	a4,0x46491
    336a:	ce06                	c.swsp	ra,28(sp)
    336c:	e4870713          	addi	a4,a4,-440 # 46490e48 <_DATA_LMA_START+0x2648c200>
    3370:	0ad76663          	bltu	a4,a3,341c <sinf+0xfc>
    3374:	00080737          	lui	a4,0x80
    3378:	000806b7          	lui	a3,0x80
    337c:	3e46a587          	flw	fa1,996(a3) # 803e4 <__digits+0x18>
    3380:	3fc72787          	flw	fa5,1020(a4) # 803fc <cst_libm_rredf>
    3384:	bfdf970b          	addigp	a4,-1028 # 803fc <cst_libm_rredf>
    3388:	6710                	c.flw	fa2,8(a4)
    338a:	58f577c3          	fmadd.s	fa5,fa0,fa5,fa1
    338e:	6754                	c.flw	fa3,12(a4)
    3390:	6b18                	c.flw	fa4,16(a4)
    3392:	6b48                	c.flw	fa0,20(a4)
    3394:	08b7f7d3          	fsub.s	fa5,fa5,fa1
    3398:	f00785d3          	fmv.w.x	fa1,a5
    339c:	58c7f64b          	fnmsub.s	fa2,fa5,fa2,fa1
    33a0:	c0079753          	fcvt.w.s	a4,fa5,rtz
    33a4:	60d7f6cb          	fnmsub.s	fa3,fa5,fa3,fa2
    33a8:	00177693          	andi	a3,a4,1
    33ac:	00277713          	andi	a4,a4,2
    33b0:	68e7f74b          	fnmsub.s	fa4,fa5,fa4,fa3
    33b4:	70a7f5cb          	fnmsub.s	fa1,fa5,fa0,fa4
    33b8:	e00587d3          	fmv.x.w	a5,fa1
    33bc:	f00785d3          	fmv.w.x	fa1,a5
    33c0:	10b5f7d3          	fmul.s	fa5,fa1,fa1
    33c4:	cec1                	c.beqz	a3,345c <sinf+0x13c>
    33c6:	801f978b          	addigp	a5,-2048 # 80000 <cst_libm_sincosf>
    33ca:	6f88                	c.flw	fa0,24(a5)
    33cc:	6bd0                	c.flw	fa2,20(a5)
    33ce:	6b94                	c.flw	fa3,16(a5)
    33d0:	67d8                	c.flw	fa4,12(a5)
    33d2:	60f57543          	fmadd.s	fa0,fa0,fa5,fa2
    33d6:	68f57543          	fmadd.s	fa0,fa0,fa5,fa3
    33da:	70f57543          	fmadd.s	fa0,fa0,fa5,fa4
    33de:	c319                	c.beqz	a4,33e4 <sinf+0xc4>
    33e0:	20a51553          	fneg.s	fa0,fa0
    33e4:	40f2                	c.lwsp	ra,28(sp)
    33e6:	6105                	c.addi16sp	sp,32
    33e8:	00008067          	ret
    33ec:	00179593          	slli	a1,a5,0x1
    33f0:	ff000737          	lui	a4,0xff000
    33f4:	00e5e863          	bltu	a1,a4,3404 <sinf+0xe4>
    33f8:	00e58863          	beq	a1,a4,3408 <sinf+0xe8>
    33fc:	00a57553          	fadd.s	fa0,fa0,fa0
    3400:	00008067          	ret
    3404:	00008067          	ret
    3408:	02100713          	li	a4,33
    340c:	f0000553          	fmv.w.x	fa0,zero
    3410:	ceefc5ab          	swgp	a4,-792 # 804e8 <__mculib_REENT_errno>
    3414:	18a57553          	fdiv.s	fa0,fa0,fa0
    3418:	00008067          	ret
    341c:	0068                	c.addi4spn	a0,sp,12
    341e:	28b9                	c.jal	347c <ref__mathlib_rredf2>
    3420:	4732                	c.lwsp	a4,12(sp)
    3422:	e00507d3          	fmv.x.w	a5,fa0
    3426:	02075763          	bgez	a4,3454 <sinf+0x134>
    342a:	00179593          	slli	a1,a5,0x1
    342e:	ff000737          	lui	a4,0xff000
    3432:	fae5e9e3          	bltu	a1,a4,33e4 <sinf+0xc4>
    3436:	00e58563          	beq	a1,a4,3440 <sinf+0x120>
    343a:	00a57553          	fadd.s	fa0,fa0,fa0
    343e:	b75d                	c.j	33e4 <sinf+0xc4>
    3440:	f0000553          	fmv.w.x	fa0,zero
    3444:	02100713          	li	a4,33
    3448:	ceefc5ab          	swgp	a4,-792 # 804e8 <__mculib_REENT_errno>
    344c:	18a57553          	fdiv.s	fa0,fa0,fa0
    3450:	f95ff06f          	j	33e4 <sinf+0xc4>
    3454:	00177693          	andi	a3,a4,1
    3458:	8b09                	c.andi	a4,2
    345a:	b78d                	c.j	33bc <sinf+0x9c>
    345c:	801f968b          	addigp	a3,-2048 # 80000 <cst_libm_sincosf>
    3460:	6688                	c.flw	fa0,8(a3)
    3462:	62d4                	c.flw	fa3,4(a3)
    3464:	6298                	c.flw	fa4,0(a3)
    3466:	68f57543          	fmadd.s	fa0,fa0,fa5,fa3
    346a:	70f57543          	fmadd.s	fa0,fa0,fa5,fa4
    346e:	10f57553          	fmul.s	fa0,fa0,fa5
    3472:	58a5f543          	fmadd.s	fa0,fa1,fa0,fa1
    3476:	f72d                	c.bnez	a4,33e0 <sinf+0xc0>
    3478:	b7b5                	c.j	33e4 <sinf+0xc4>
    347a:	0001                	c.nop

0000347c <ref__mathlib_rredf2>:
    347c:	00159713          	slli	a4,a1,0x1
    3480:	ff0007b7          	lui	a5,0xff000
    3484:	12f77663          	bgeu	a4,a5,35b0 <ref__mathlib_rredf2+0x134>
    3488:	7975a7db          	bfoz	a5,a1,30,23
    348c:	f8878793          	addi	a5,a5,-120 # feffff88 <_DATA_LMA_START+0xdeffb340>
    3490:	4057d613          	srai	a2,a5,0x5
    3494:	c15f968b          	addigp	a3,-1004 # 80414 <twooverpi.2618>
    3498:	0cc688db          	lea.w	a7,a3,a2
    349c:	00859313          	slli	t1,a1,0x8
    34a0:	80000e37          	lui	t3,0x80000
    34a4:	8bfd                	c.andi	a5,31
    34a6:	01c36e33          	or	t3,t1,t3
    34aa:	0048a703          	lw	a4,4(a7)
    34ae:	0008a303          	lw	t1,0(a7)
    34b2:	0088a803          	lw	a6,8(a7)
    34b6:	cb8d                	c.beqz	a5,34e8 <ref__mathlib_rredf2+0x6c>
    34b8:	00c8a603          	lw	a2,12(a7)
    34bc:	02000693          	li	a3,32
    34c0:	40f686b3          	sub	a3,a3,a5
    34c4:	00d75eb3          	srl	t4,a4,a3
    34c8:	00d858b3          	srl	a7,a6,a3
    34cc:	00f31333          	sll	t1,t1,a5
    34d0:	00f71733          	sll	a4,a4,a5
    34d4:	00f81833          	sll	a6,a6,a5
    34d8:	00d656b3          	srl	a3,a2,a3
    34dc:	006ee333          	or	t1,t4,t1
    34e0:	00e8e733          	or	a4,a7,a4
    34e4:	0106e833          	or	a6,a3,a6
    34e8:	f0ee167f          	mulr64	a2,t3,a4
    34ec:	f10e187f          	mulr64	a6,t3,a6
    34f0:	f1c3137f          	mulr64	t1,t1,t3
    34f4:	00c88733          	add	a4,a7,a2
    34f8:	006687b3          	add	a5,a3,t1
    34fc:	01173e33          	sltu	t3,a4,a7
    3500:	01c787b3          	add	a5,a5,t3
    3504:	0b176063          	bltu	a4,a7,35a4 <ref__mathlib_rredf2+0x128>
    3508:	00d7b633          	sltu	a2,a5,a3
    350c:	961e                	c.add	a2,t2
    350e:	0137d693          	srli	a3,a5,0x13
    3512:	01a61813          	slli	a6,a2,0x1a
    3516:	06b6                	c.slli	a3,0xd
    3518:	0106e6b3          	or	a3,a3,a6
    351c:	07b6                	c.slli	a5,0xd
    351e:	d006f6d3          	fcvt.s.w	fa3,a3
    3522:	000806b7          	lui	a3,0x80
    3526:	3e86a587          	flw	fa1,1000(a3) # 803e8 <__digits+0x1c>
    352a:	d017f753          	fcvt.s.wu	fa4,a5
    352e:	000807b7          	lui	a5,0x80
    3532:	3ec7a607          	flw	fa2,1004(a5) # 803ec <__digits+0x20>
    3536:	d0177553          	fcvt.s.wu	fa0,a4
    353a:	6685                	c.lui	a3,0x1
    353c:	80068693          	addi	a3,a3,-2048 # 800 <analog_read_reg8+0x2c>
    3540:	68b777c3          	fmadd.s	fa5,fa4,fa1,fa3
    3544:	777d                	c.lui	a4,0xfffff
    3546:	02060613          	addi	a2,a2,32
    354a:	8219                	c.srli	a2,0x6
    354c:	78c577c3          	fmadd.s	fa5,fa0,fa2,fa5
    3550:	e00787d3          	fmv.x.w	a5,fa5
    3554:	97b6                	c.add	a5,a3
    3556:	8ff9                	c.and	a5,a4
    3558:	f00787d3          	fmv.w.x	fa5,a5
    355c:	08d7f6d3          	fsub.s	fa3,fa5,fa3
    3560:	00080737          	lui	a4,0x80
    3564:	68b7774b          	fnmsub.s	fa4,fa4,fa1,fa3
    3568:	70c57747          	fmsub.s	fa4,fa0,fa2,fa4
    356c:	3f072507          	flw	fa0,1008(a4) # 803f0 <__digits+0x24>
    3570:	00080737          	lui	a4,0x80
    3574:	f0078653          	fmv.w.x	fa2,a5
    3578:	10a77753          	fmul.s	fa4,fa4,fa0
    357c:	3f472507          	flw	fa0,1012(a4) # 803f4 <__digits+0x28>
    3580:	00080737          	lui	a4,0x80
    3584:	70a7f543          	fmadd.s	fa0,fa5,fa0,fa4
    3588:	3f872787          	flw	fa5,1016(a4) # 803f8 <__digits+0x2c>
    358c:	50f67543          	fmadd.s	fa0,fa2,fa5,fa0
    3590:	0005d863          	bgez	a1,35a0 <ref__mathlib_rredf2+0x124>
    3594:	20a51553          	fneg.s	fa0,fa0
    3598:	100007b7          	lui	a5,0x10000
    359c:	40c78633          	sub	a2,a5,a2
    35a0:	c110                	c.sw	a2,0(a0)
    35a2:	8082                	c.jr	ra
    35a4:	00f6b633          	sltu	a2,a3,a5
    35a8:	00164613          	xori	a2,a2,1
    35ac:	f61ff06f          	j	350c <ref__mathlib_rredf2+0x90>
    35b0:	57fd                	c.li	a5,-1
    35b2:	c11c                	c.sw	a5,0(a0)
    35b4:	8082                	c.jr	ra
    35b6:	0001                	c.nop

000035b8 <__divdf3>:
    35b8:	1101                	c.addi	sp,-32
    35ba:	ce22                	c.swsp	s0,28(sp)
    35bc:	cc26                	c.swsp	s1,24(sp)
    35be:	ca4a                	c.swsp	s2,20(sp)
    35c0:	c84e                	c.swsp	s3,16(sp)
    35c2:	c652                	c.swsp	s4,12(sp)
    35c4:	00202ef3          	frrm	t4
    35c8:	7945a75b          	bfoz	a4,a1,30,20
    35cc:	4c05a7db          	bfoz	a5,a1,19,0
    35d0:	81fd                	c.srli	a1,0x1f
    35d2:	c37d                	c.beqz	a4,36b8 <__divdf3+0x100>
    35d4:	7ff00813          	li	a6,2047
    35d8:	07070a63          	beq	a4,a6,364c <__divdf3+0x94>
    35dc:	078e                	c.slli	a5,0x3
    35de:	00800837          	lui	a6,0x800
    35e2:	01d55893          	srli	a7,a0,0x1d
    35e6:	0107e7b3          	or	a5,a5,a6
    35ea:	00f8e8b3          	or	a7,a7,a5
    35ee:	050e                	c.slli	a0,0x3
    35f0:	c0170f93          	addi	t6,a4,-1023
    35f4:	4781                	c.li	a5,0
    35f6:	4381                	c.li	t2,0
    35f8:	00000e13          	li	t3,0
    35fc:	7946a85b          	bfoz	a6,a3,30,20
    3600:	4c06a75b          	bfoz	a4,a3,19,0
    3604:	01f6d693          	srli	a3,a3,0x1f
    3608:	06080463          	beqz	a6,3670 <__divdf3+0xb8>
    360c:	7ff00313          	li	t1,2047
    3610:	0e680a63          	beq	a6,t1,3704 <__divdf3+0x14c>
    3614:	070e                	c.slli	a4,0x3
    3616:	00800f37          	lui	t5,0x800
    361a:	01d65313          	srli	t1,a2,0x1d
    361e:	01e76733          	or	a4,a4,t5
    3622:	c0180813          	addi	a6,a6,-1023 # 7ffc01 <FLASH_SIZE+0x6ffc01>
    3626:	00e36733          	or	a4,t1,a4
    362a:	060e                	c.slli	a2,0x3
    362c:	410f8fb3          	sub	t6,t6,a6
    3630:	00000293          	li	t0,0
    3634:	00d5c833          	xor	a6,a1,a3
    3638:	433d                	c.li	t1,15
    363a:	8f42                	c.mv	t5,a6
    363c:	12f36063          	bltu	t1,a5,375c <__divdf3+0x1a4>
    3640:	c35f930b          	addigp	t1,-972 # 80434 <twooverpi.2618+0x20>
    3644:	0cf307db          	lea.w	a5,t1,a5
    3648:	439c                	c.lw	a5,0(a5)
    364a:	8782                	c.jr	a5
    364c:	00a7e8b3          	or	a7,a5,a0
    3650:	0e089a63          	bnez	a7,3744 <__divdf3+0x18c>
    3654:	7946a85b          	bfoz	a6,a3,30,20
    3658:	4c06a75b          	bfoz	a4,a3,19,0
    365c:	47a1                	c.li	a5,8
    365e:	4501                	c.li	a0,0
    3660:	7ff00f93          	li	t6,2047
    3664:	4389                	c.li	t2,2
    3666:	4e01                	c.li	t3,0
    3668:	01f6d693          	srli	a3,a3,0x1f
    366c:	fa0810e3          	bnez	a6,360c <__divdf3+0x54>
    3670:	00c76833          	or	a6,a4,a2
    3674:	0a080663          	beqz	a6,3720 <__divdf3+0x168>
    3678:	af97087f          	clz32	a6,a4
    367c:	00071663          	bnez	a4,3688 <__divdf3+0xd0>
    3680:	af96087f          	clz32	a6,a2
    3684:	02080813          	addi	a6,a6,32
    3688:	ff580293          	addi	t0,a6,-11
    368c:	4371                	c.li	t1,28
    368e:	36534363          	blt	t1,t0,39f4 <__divdf3+0x43c>
    3692:	4375                	c.li	t1,29
    3694:	ff880f13          	addi	t5,a6,-8
    3698:	40530333          	sub	t1,t1,t0
    369c:	00665333          	srl	t1,a2,t1
    36a0:	01e71733          	sll	a4,a4,t5
    36a4:	00e36733          	or	a4,t1,a4
    36a8:	01e61633          	sll	a2,a2,t5
    36ac:	9fc2                	c.add	t6,a6
    36ae:	3f3f8f93          	addi	t6,t6,1011
    36b2:	4281                	c.li	t0,0
    36b4:	f81ff06f          	j	3634 <__divdf3+0x7c>
    36b8:	00a7e8b3          	or	a7,a5,a0
    36bc:	06088e63          	beqz	a7,3738 <__divdf3+0x180>
    36c0:	af97877f          	clz32	a4,a5
    36c4:	00079663          	bnez	a5,36d0 <__divdf3+0x118>
    36c8:	af95077f          	clz32	a4,a0
    36cc:	02070713          	addi	a4,a4,32
    36d0:	ff570313          	addi	t1,a4,-11
    36d4:	4871                	c.li	a6,28
    36d6:	32684563          	blt	a6,t1,3a00 <__divdf3+0x448>
    36da:	48f5                	c.li	a7,29
    36dc:	ff870813          	addi	a6,a4,-8
    36e0:	406888b3          	sub	a7,a7,t1
    36e4:	011558b3          	srl	a7,a0,a7
    36e8:	010797b3          	sll	a5,a5,a6
    36ec:	00f8e8b3          	or	a7,a7,a5
    36f0:	01051533          	sll	a0,a0,a6
    36f4:	c0d00f93          	li	t6,-1011
    36f8:	40ef8fb3          	sub	t6,t6,a4
    36fc:	4781                	c.li	a5,0
    36fe:	4381                	c.li	t2,0
    3700:	4e01                	c.li	t3,0
    3702:	bded                	c.j	35fc <__divdf3+0x44>
    3704:	00c76833          	or	a6,a4,a2
    3708:	801f8f93          	addi	t6,t6,-2047
    370c:	02080063          	beqz	a6,372c <__divdf3+0x174>
    3710:	0037e793          	ori	a5,a5,3
    3714:	428d                	c.li	t0,3
    3716:	f1377f5b          	bbs	a4,19,3634 <__divdf3+0x7c>
    371a:	4e41                	c.li	t3,16
    371c:	f19ff06f          	j	3634 <__divdf3+0x7c>
    3720:	0017e793          	ori	a5,a5,1
    3724:	4701                	c.li	a4,0
    3726:	4601                	c.li	a2,0
    3728:	4285                	c.li	t0,1
    372a:	b729                	c.j	3634 <__divdf3+0x7c>
    372c:	0027e793          	ori	a5,a5,2
    3730:	4701                	c.li	a4,0
    3732:	4601                	c.li	a2,0
    3734:	4289                	c.li	t0,2
    3736:	bdfd                	c.j	3634 <__divdf3+0x7c>
    3738:	4791                	c.li	a5,4
    373a:	4501                	c.li	a0,0
    373c:	4f81                	c.li	t6,0
    373e:	4385                	c.li	t2,1
    3740:	4e01                	c.li	t3,0
    3742:	bd6d                	c.j	35fc <__divdf3+0x44>
    3744:	0137d713          	srli	a4,a5,0x13
    3748:	88be                	c.mv	a7,a5
    374a:	7ff00f93          	li	t6,2047
    374e:	47b1                	c.li	a5,12
    3750:	438d                	c.li	t2,3
    3752:	4e41                	c.li	t3,16
    3754:	ea0704e3          	beqz	a4,35fc <__divdf3+0x44>
    3758:	4e01                	c.li	t3,0
    375a:	b54d                	c.j	35fc <__divdf3+0x44>
    375c:	2f176063          	bltu	a4,a7,3a3c <__divdf3+0x484>
    3760:	2ce88c63          	beq	a7,a4,3a38 <__divdf3+0x480>
    3764:	85aa                	c.mv	a1,a0
    3766:	1ffd                	c.addi	t6,-1
    3768:	00000513          	li	a0,0
    376c:	0722                	c.slli	a4,0x8
    376e:	01865313          	srli	t1,a2,0x18
    3772:	00e36333          	or	t1,t1,a4
    3776:	01035293          	srli	t0,t1,0x10
    377a:	0258d733          	divu	a4,a7,t0
    377e:	3c0323db          	bfoz	t2,t1,15,0
    3782:	00861413          	slli	s0,a2,0x8
    3786:	0105d793          	srli	a5,a1,0x10
    378a:	0258f8b3          	remu	a7,a7,t0
    378e:	02e38633          	mul	a2,t2,a4
    3792:	08c2                	c.slli	a7,0x10
    3794:	0117e7b3          	or	a5,a5,a7
    3798:	00c7fc63          	bgeu	a5,a2,37b0 <__divdf3+0x1f8>
    379c:	979a                	c.add	a5,t1
    379e:	fff70693          	addi	a3,a4,-1
    37a2:	3a67e963          	bltu	a5,t1,3b54 <__divdf3+0x59c>
    37a6:	3ac7f763          	bgeu	a5,a2,3b54 <__divdf3+0x59c>
    37aa:	1779                	c.addi	a4,-2
    37ac:	006787b3          	add	a5,a5,t1
    37b0:	8f91                	c.sub	a5,a2
    37b2:	0257d6b3          	divu	a3,a5,t0
    37b6:	0257f7b3          	remu	a5,a5,t0
    37ba:	02d38933          	mul	s2,t2,a3
    37be:	0eb797ff          	pkbb16	a5,a5,a1
    37c2:	0127fb63          	bgeu	a5,s2,37d8 <__divdf3+0x220>
    37c6:	979a                	c.add	a5,t1
    37c8:	fff68613          	addi	a2,a3,-1
    37cc:	3867e663          	bltu	a5,t1,3b58 <__divdf3+0x5a0>
    37d0:	3927f463          	bgeu	a5,s2,3b58 <__divdf3+0x5a0>
    37d4:	16f9                	c.addi	a3,-2
    37d6:	979a                	c.add	a5,t1
    37d8:	0742                	c.slli	a4,0x10
    37da:	69c1                	c.lui	s3,0x10
    37dc:	8f55                	c.or	a4,a3
    37de:	fff98693          	addi	a3,s3,-1 # ffff <BIN_SIZE+0xaed1>
    37e2:	00d478b3          	and	a7,s0,a3
    37e6:	01075613          	srli	a2,a4,0x10
    37ea:	031605b3          	mul	a1,a2,a7
    37ee:	8ef9                	c.and	a3,a4
    37f0:	01045493          	srli	s1,s0,0x10
    37f4:	412787b3          	sub	a5,a5,s2
    37f8:	03168a33          	mul	s4,a3,a7
    37fc:	892e                	c.mv	s2,a1
    37fe:	c4d4997f          	maddr32	s2,s1,a3
    3802:	02960633          	mul	a2,a2,s1
    3806:	010a5693          	srli	a3,s4,0x10
    380a:	96ca                	c.add	a3,s2
    380c:	00b6f463          	bgeu	a3,a1,3814 <__divdf3+0x25c>
    3810:	01360633          	add	a2,a2,s3
    3814:	69c1                	c.lui	s3,0x10
    3816:	19fd                	c.addi	s3,-1
    3818:	0106d913          	srli	s2,a3,0x10
    381c:	0136f5b3          	and	a1,a3,s3
    3820:	05c2                	c.slli	a1,0x10
    3822:	013a76b3          	and	a3,s4,s3
    3826:	964a                	c.add	a2,s2
    3828:	00d585b3          	add	a1,a1,a3
    382c:	1ec7e463          	bltu	a5,a2,3a14 <__divdf3+0x45c>
    3830:	1cc78e63          	beq	a5,a2,3a0c <__divdf3+0x454>
    3834:	40c786b3          	sub	a3,a5,a2
    3838:	40b505b3          	sub	a1,a0,a1
    383c:	00b53533          	sltu	a0,a0,a1
    3840:	40a68533          	sub	a0,a3,a0
    3844:	3fff8793          	addi	a5,t6,1023
    3848:	3aa30863          	beq	t1,a0,3bf8 <__divdf3+0x640>
    384c:	02555633          	divu	a2,a0,t0
    3850:	0105d693          	srli	a3,a1,0x10
    3854:	02557533          	remu	a0,a0,t0
    3858:	02c38833          	mul	a6,t2,a2
    385c:	0542                	c.slli	a0,0x10
    385e:	8d55                	c.or	a0,a3
    3860:	01057c63          	bgeu	a0,a6,3878 <__divdf3+0x2c0>
    3864:	951a                	c.add	a0,t1
    3866:	fff60693          	addi	a3,a2,-1
    386a:	3a656763          	bltu	a0,t1,3c18 <__divdf3+0x660>
    386e:	3b057563          	bgeu	a0,a6,3c18 <__divdf3+0x660>
    3872:	1679                	c.addi	a2,-2
    3874:	00650533          	add	a0,a0,t1
    3878:	41050533          	sub	a0,a0,a6
    387c:	025556b3          	divu	a3,a0,t0
    3880:	02557533          	remu	a0,a0,t0
    3884:	02d383b3          	mul	t2,t2,a3
    3888:	0eb5157f          	pkbb16	a0,a0,a1
    388c:	00757c63          	bgeu	a0,t2,38a4 <__divdf3+0x2ec>
    3890:	951a                	c.add	a0,t1
    3892:	fff68593          	addi	a1,a3,-1
    3896:	36656f63          	bltu	a0,t1,3c14 <__divdf3+0x65c>
    389a:	36757d63          	bgeu	a0,t2,3c14 <__divdf3+0x65c>
    389e:	16f9                	c.addi	a3,-2
    38a0:	00650533          	add	a0,a0,t1
    38a4:	0642                	c.slli	a2,0x10
    38a6:	8e55                	c.or	a2,a3
    38a8:	01065813          	srli	a6,a2,0x10
    38ac:	031805b3          	mul	a1,a6,a7
    38b0:	3c0626db          	bfoz	a3,a2,15,0
    38b4:	40750533          	sub	a0,a0,t2
    38b8:	02d888b3          	mul	a7,a7,a3
    38bc:	82ae                	c.mv	t0,a1
    38be:	c4d492ff          	maddr32	t0,s1,a3
    38c2:	030484b3          	mul	s1,s1,a6
    38c6:	0108d693          	srli	a3,a7,0x10
    38ca:	9696                	c.add	a3,t0
    38cc:	00b6f463          	bgeu	a3,a1,38d4 <__divdf3+0x31c>
    38d0:	65c1                	c.lui	a1,0x10
    38d2:	94ae                	c.add	s1,a1
    38d4:	6841                	c.lui	a6,0x10
    38d6:	187d                	c.addi	a6,-1
    38d8:	0106d593          	srli	a1,a3,0x10
    38dc:	0106f6b3          	and	a3,a3,a6
    38e0:	06c2                	c.slli	a3,0x10
    38e2:	0108f8b3          	and	a7,a7,a6
    38e6:	94ae                	c.add	s1,a1
    38e8:	00d888b3          	add	a7,a7,a3
    38ec:	22957263          	bgeu	a0,s1,3b10 <__divdf3+0x558>
    38f0:	951a                	c.add	a0,t1
    38f2:	fff60693          	addi	a3,a2,-1
    38f6:	3c656163          	bltu	a0,t1,3cb8 <__divdf3+0x700>
    38fa:	32956963          	bltu	a0,s1,3c2c <__divdf3+0x674>
    38fe:	42950f63          	beq	a0,s1,3d3c <__divdf3+0x784>
    3902:	8636                	c.mv	a2,a3
    3904:	00166613          	ori	a2,a2,1
    3908:	18f05c63          	blez	a5,3aa0 <__divdf3+0x4e8>
    390c:	00767693          	andi	a3,a2,7
    3910:	20069e63          	bnez	a3,3b2c <__divdf3+0x574>
    3914:	01e00833          	add	a6,zero,t5
    3918:	0187785b          	bbc	a4,24,3928 <__divdf3+0x370>
    391c:	ff0007b7          	lui	a5,0xff000
    3920:	17fd                	c.addi	a5,-1
    3922:	8f7d                	c.and	a4,a5
    3924:	400f8793          	addi	a5,t6,1024
    3928:	7fe00693          	li	a3,2046
    392c:	12f6c263          	blt	a3,a5,3a50 <__divdf3+0x498>
    3930:	00365693          	srli	a3,a2,0x3
    3934:	01d71613          	slli	a2,a4,0x1d
    3938:	8e55                	c.or	a2,a3
    393a:	7ff7f793          	andi	a5,a5,2047
    393e:	583726db          	bfoz	a3,a4,22,3
    3942:	a01d                	c.j	3968 <__divdf3+0x3b0>
    3944:	8f2e                	c.mv	t5,a1
    3946:	8746                	c.mv	a4,a7
    3948:	862a                	c.mv	a2,a0
    394a:	829e                	c.mv	t0,t2
    394c:	3822da5b          	beqc	t0,2,3ce0 <__divdf3+0x728>
    3950:	0832da5b          	beqc	t0,3,39e4 <__divdf3+0x42c>
    3954:	3012dc5b          	beqc	t0,1,3c6c <__divdf3+0x6b4>
    3958:	3fff8793          	addi	a5,t6,1023
    395c:	fadff06f          	j	3908 <__divdf3+0x350>
    3960:	7ff00793          	li	a5,2047
    3964:	4681                	c.li	a3,0
    3966:	4601                	c.li	a2,0
    3968:	4581                	c.li	a1,0
    396a:	fff00737          	lui	a4,0xfff00
    396e:	8f6d                	c.and	a4,a1
    3970:	4c06a6db          	bfoz	a3,a3,19,0
    3974:	8f55                	c.or	a4,a3
    3976:	01479693          	slli	a3,a5,0x14
    397a:	801007b7          	lui	a5,0x80100
    397e:	17fd                	c.addi	a5,-1
    3980:	8ff9                	c.and	a5,a4
    3982:	8fd5                	c.or	a5,a3
    3984:	087e                	c.slli	a6,0x1f
    3986:	7807a7db          	bfoz	a5,a5,30,0
    398a:	8532                	c.mv	a0,a2
    398c:	0107e5b3          	or	a1,a5,a6
    3990:	020e1863          	bnez	t3,39c0 <__divdf3+0x408>
    3994:	4472                	c.lwsp	s0,28(sp)
    3996:	44e2                	c.lwsp	s1,24(sp)
    3998:	4952                	c.lwsp	s2,20(sp)
    399a:	49c2                	c.lwsp	s3,16(sp)
    399c:	4a32                	c.lwsp	s4,12(sp)
    399e:	6105                	c.addi16sp	sp,32
    39a0:	00008067          	ret
    39a4:	8f36                	c.mv	t5,a3
    39a6:	b75d                	c.j	394c <__divdf3+0x394>
    39a8:	4781                	c.li	a5,0
    39aa:	4681                	c.li	a3,0
    39ac:	4601                	c.li	a2,0
    39ae:	bf6d                	c.j	3968 <__divdf3+0x3b0>
    39b0:	7ff007b7          	lui	a5,0x7ff00
    39b4:	087e                	c.slli	a6,0x1f
    39b6:	4501                	c.li	a0,0
    39b8:	0107e5b3          	or	a1,a5,a6
    39bc:	008e6e13          	ori	t3,t3,8
    39c0:	001e2073          	csrs	fflags,t3
    39c4:	4472                	c.lwsp	s0,28(sp)
    39c6:	44e2                	c.lwsp	s1,24(sp)
    39c8:	4952                	c.lwsp	s2,20(sp)
    39ca:	49c2                	c.lwsp	s3,16(sp)
    39cc:	4a32                	c.lwsp	s4,12(sp)
    39ce:	6105                	c.addi16sp	sp,32
    39d0:	00008067          	ret
    39d4:	4801                	c.li	a6,0
    39d6:	7ff00793          	li	a5,2047
    39da:	000806b7          	lui	a3,0x80
    39de:	4601                	c.li	a2,0
    39e0:	4e41                	c.li	t3,16
    39e2:	b759                	c.j	3968 <__divdf3+0x3b0>
    39e4:	4801                	c.li	a6,0
    39e6:	7ff00793          	li	a5,2047
    39ea:	000806b7          	lui	a3,0x80
    39ee:	4601                	c.li	a2,0
    39f0:	f79ff06f          	j	3968 <__divdf3+0x3b0>
    39f4:	fd880713          	addi	a4,a6,-40 # ffd8 <BIN_SIZE+0xaeaa>
    39f8:	00e61733          	sll	a4,a2,a4
    39fc:	4601                	c.li	a2,0
    39fe:	b17d                	c.j	36ac <__divdf3+0xf4>
    3a00:	fd870893          	addi	a7,a4,-40 # ffefffd8 <_DATA_LMA_START+0xdfefb390>
    3a04:	011518b3          	sll	a7,a0,a7
    3a08:	4501                	c.li	a0,0
    3a0a:	b1ed                	c.j	36f4 <__divdf3+0x13c>
    3a0c:	00000693          	li	a3,0
    3a10:	e2b574e3          	bgeu	a0,a1,3838 <__divdf3+0x280>
    3a14:	9522                	c.add	a0,s0
    3a16:	008536b3          	sltu	a3,a0,s0
    3a1a:	969a                	c.add	a3,t1
    3a1c:	00d787b3          	add	a5,a5,a3
    3a20:	fff70913          	addi	s2,a4,-1
    3a24:	0ef37c63          	bgeu	t1,a5,3b1c <__divdf3+0x564>
    3a28:	1ec7ea63          	bltu	a5,a2,3c1c <__divdf3+0x664>
    3a2c:	30f60263          	beq	a2,a5,3d30 <__divdf3+0x778>
    3a30:	40c786b3          	sub	a3,a5,a2
    3a34:	874a                	c.mv	a4,s2
    3a36:	b509                	c.j	3838 <__divdf3+0x280>
    3a38:	d2c566e3          	bltu	a0,a2,3764 <__divdf3+0x1ac>
    3a3c:	01f89593          	slli	a1,a7,0x1f
    3a40:	00155793          	srli	a5,a0,0x1
    3a44:	0018d893          	srli	a7,a7,0x1
    3a48:	8ddd                	c.or	a1,a5
    3a4a:	057e                	c.slli	a0,0x1f
    3a4c:	d21ff06f          	j	376c <__divdf3+0x1b4>
    3a50:	122ed45b          	beqc	t4,2,3b78 <__divdf3+0x5c0>
    3a54:	223ed25b          	beqc	t4,3,3c78 <__divdf3+0x6c0>
    3a58:	120e8263          	beqz	t4,3b7c <__divdf3+0x5c4>
    3a5c:	00100737          	lui	a4,0x100
    3a60:	7fe00793          	li	a5,2046
    3a64:	fff70693          	addi	a3,a4,-1 # fffff <_STACK_TOP+0x5ffff>
    3a68:	fff00613          	li	a2,-1
    3a6c:	005e6e13          	ori	t3,t3,5
    3a70:	4581                	c.li	a1,0
    3a72:	fff00737          	lui	a4,0xfff00
    3a76:	8532                	c.mv	a0,a2
