
NMSIS_DSP_Mag_Benchmark.adx:     file format elf32-littleriscv
NMSIS_DSP_Mag_Benchmark.adx
architecture: riscv:rv32, flags 0x00000112:
EXEC_P, HAS_SYMS, D_PAGED
start address 0x20000000

Program Header:
    LOAD off    0x00001000 vaddr 0x20000000 paddr 0x20000000 align 2**12
         filesz 0x0000018a memsz 0x0000018a flags r-x
    LOAD off    0x00002000 vaddr 0x00000000 paddr 0x20000190 align 2**12
         filesz 0x000001bc memsz 0x000001bc flags rwx
    LOAD off    0x00002200 vaddr 0x00000200 paddr 0x20000350 align 2**12
         filesz 0x00003f0c memsz 0x00003f0c flags r-x
    LOAD off    0x00007000 vaddr 0x00080000 paddr 0x20004260 align 2**12
         filesz 0x0000a328 memsz 0x0000a364 flags rw-
    LOAD off    0x00011368 vaddr 0x0008a368 paddr 0x2000e588 align 2**12
         filesz 0x00000022 memsz 0x00000022 flags rw-
    LOAD off    0x00012364 vaddr 0x0008a364 paddr 0x2000e5c4 align 2**12
         filesz 0x00000000 memsz 0x00000004 flags rw-
0x70000000 off    0x000113d3 vaddr 0x00000000 paddr 0x00000000 align 2**0
         filesz 0x00000040 memsz 0x00000000 flags r--

Sections:
Idx Name          Size      VMA       LMA       File off  Algn
  0 .vectors      0000018a  20000000  20000000  00001000  2**2
                  CONTENTS, ALLOC, LOAD, READONLY, CODE
  1 .retention_reset 00000154  00000000  20000190  00002000  2**2
                  CONTENTS, ALLOC, LOAD, READONLY, CODE
  2 .retention_data 00000064  00000158  200002e8  00002158  2**2
                  CONTENTS, ALLOC, LOAD, DATA
  3 .ram_code     00003f0c  00000200  20000350  00002200  2**8
                  CONTENTS, ALLOC, LOAD, READONLY, CODE
  4 .data         0000a328  00080000  20004260  00007000  2**3
                  CONTENTS, ALLOC, LOAD, DATA
  5 .sbss         0000003c  0008a328  2000e588  00011328  2**2
                  ALLOC
  6 .bss          00000004  0008a364  2000e5c4  00012364  2**2
                  ALLOC
  7 .sdk_version  00000022  0008a368  2000e588  00011368  2**2
                  CONTENTS, ALLOC, LOAD, DATA
  8 .comment      00000049  00000000  00000000  0001138a  2**0
                  CONTENTS, READONLY
  9 .riscv.attributes 00000040  00000000  00000000  000113d3  2**0
                  CONTENTS, READONLY
 10 .debug_info   0000a568  00000000  00000000  00011413  2**0
                  CONTENTS, READONLY, DEBUGGING
 11 .debug_abbrev 0000176c  00000000  00000000  0001b97b  2**0
                  CONTENTS, READONLY, DEBUGGING
 12 .debug_loc    000068b2  00000000  00000000  0001d0e7  2**0
                  CONTENTS, READONLY, DEBUGGING
 13 .debug_aranges 00000268  00000000  00000000  000239a0  2**3
                  CONTENTS, READONLY, DEBUGGING
 14 .debug_ranges 000007d0  00000000  00000000  00023c08  2**0
                  CONTENTS, READONLY, DEBUGGING
 15 .debug_line   000073ab  00000000  00000000  000243d8  2**0
                  CONTENTS, READONLY, DEBUGGING
 16 .debug_str    00002c48  00000000  00000000  0002b783  2**0
                  CONTENTS, READONLY, DEBUGGING
 17 .debug_frame  00000408  00000000  00000000  0002e3cc  2**2
                  CONTENTS, READONLY, DEBUGGING
SYMBOL TABLE:
20000000 l    d  .vectors	00000000 .vectors
00000000 l    d  .retention_reset	00000000 .retention_reset
00000158 l    d  .retention_data	00000000 .retention_data
00000200 l    d  .ram_code	00000000 .ram_code
00080000 l    d  .data	00000000 .data
0008a328 l    d  .sbss	00000000 .sbss
0008a364 l    d  .bss	00000000 .bss
0008a368 l    d  .sdk_version	00000000 .sdk_version
00000000 l    d  .comment	00000000 .comment
00000000 l    d  .riscv.attributes	00000000 .riscv.attributes
00000000 l    d  .debug_info	00000000 .debug_info
00000000 l    d  .debug_abbrev	00000000 .debug_abbrev
00000000 l    d  .debug_loc	00000000 .debug_loc
00000000 l    d  .debug_aranges	00000000 .debug_aranges
00000000 l    d  .debug_ranges	00000000 .debug_ranges
00000000 l    d  .debug_line	00000000 .debug_line
00000000 l    d  .debug_str	00000000 .debug_str
00000000 l    d  .debug_frame	00000000 .debug_frame
00000000 l    df *ABS*	00000000 ./boot/cstartup_flash.o
20000028 l       .vectors	00000000 _START
2000008e l       .vectors	00000000 _RETENTION_RESET_INIT
200000a6 l       .vectors	00000000 _RETENTION_RESET_BEGIN
200000b8 l       .vectors	00000000 _RETENTION_DATA_INIT
200000cc l       .vectors	00000000 _RETENTION_DATA_INIT_BEGIN
200000de l       .vectors	00000000 _RAMCODE_INIT
200000f6 l       .vectors	00000000 _RAMCODE_INIT_BEGIN
20000108 l       .vectors	00000000 _DATA_INIT
20000120 l       .vectors	00000000 _DATA_INIT_BEGIN
20000132 l       .vectors	00000000 _ZERO_BSS
20000146 l       .vectors	00000000 _ZERO_BSS_BEGIN
20000152 l       .vectors	00000000 _ZERO_AES
20000166 l       .vectors	00000000 _ZERO_AES_BEGIN
20000172 l       .vectors	00000000 _FILL_STK
20000172 l       .vectors	00000000 _MAIN_FUNC
20000188 l       .vectors	00000000 _END
00000022 l       .retention_reset	00000000 _ISTART
0000002a l       .retention_reset	00000000 _ISWS_USB_DIS
00000088 l       .retention_reset	00000000 _WAKEUP_FLASH
000000a2 l       .retention_reset	00000000 _MSPI_WAIT
000000bc l       .retention_reset	00000000 _WAIT_EFUSE_LOAD_AND_FLASH_WAKEUP_FINISH
000000c2 l       .retention_reset	00000000 _MULTI_ADDRESS_BEGIN
000000d2 l       .retention_reset	00000000 _IZERO_BSS
000000e6 l       .retention_reset	00000000 _IZERO_BSS_BEGIN
000000f2 l       .retention_reset	00000000 _IZERO_AES
00000106 l       .retention_reset	00000000 _IZERO_AES_BEGIN
00000112 l       .retention_reset	00000000 _IFILL_STK
00000112 l       .retention_reset	00000000 _IDATA_INIT
0000012a l       .retention_reset	00000000 _IDATA_INIT_BEGIN
0000013c l       .retention_reset	00000000 _IMAIN_FUNC
00000152 l       .retention_reset	00000000 _IEND
00000040 l       *ABS*	00000000 irqno
00000000 l    df *ABS*	00000000 
00000200 l     F .ram_code	0000001a delay_ms.constprop.12
00000ed8 l     F .ram_code	000000d4 user_calib_adc_vref.constprop.9
0000021a l     F .ram_code	00000010 mspi_fm_data_line
0000022a l     F .ram_code	0000000c mspi_wait.lto_priv.17
0000022a l     F .ram_code	0000000c mspi_wait.lto_priv.18
00000236 l     F .ram_code	00000018 mspi_stop_xip.lto_priv.15
00000236 l     F .ram_code	00000018 mspi_stop_xip.lto_priv.16
0000024e l     F .ram_code	0000002a flash_send_addr
00000278 l     F .ram_code	00000030 flash_send_cmd
000002a8 l     F .ram_code	00000050 clock_set_32k_tick
000002f8 l     F .ram_code	00000044 plic_exit_critical_sec
0000033c l     F .ram_code	00000046 plic_enter_critical_sec
00000382 l     F .ram_code	000000ce flash_mspi_read_ram
00000e04 l     F .ram_code	00000018 flash_read_uid.constprop.7
00000e1c l     F .ram_code	00000020 flash_read_mid
00000e3c l     F .ram_code	0000006a flash_read_mid_uid_with_check
00000ea6 l     F .ram_code	0000001a flash_dread
00000fac l     F .ram_code	0000000e core_interrupt_disable.lto_priv.19
00000fac l     F .ram_code	0000000e core_interrupt_disable.lto_priv.20
00000450 l     F .ram_code	00000032 analog_read_reg32.constprop.5
00000482 l     F .ram_code	0000001a clock_get_32k_tick
0000049c l     F .ram_code	00000076 pm_stimer_recover
00000512 l     F .ram_code	0000003a analog_write_reg8
0000054c l     F .ram_code	00000038 analog_read_reg8
00000584 l     F .ram_code	000000e0 clock_init_ram.constprop.11
00000ec0 l     F .ram_code	0000000c clock_init.constprop.10
00000fba l     F .ram_code	00000046 user_calib_freq_offset.constprop.8
00000664 l     F .ram_code	00000084 pm_wait_bbpll_done
000006e8 l     F .ram_code	0000013c pm_sleep_start
00000824 l     F .ram_code	00000100 dr_putchar
00001000 l     F .ram_code	00000016 gpio_input_dis
00000924 l     F .ram_code	00000298 pm_sleep_wakeup_ram.constprop.4
00000ecc l     F .ram_code	0000000c pm_sleep_wakeup.constprop.3
00001018 l     F .ram_code	000001b0 sys_init.constprop.2
00000158 l     O .retention_data	00000004 flash_read_page
0000015c l     O .retention_data	00000001 g_plic_preempt_en
00000160 l     O .retention_data	00000002 s_flash_preempt_config
00000162 l     O .retention_data	00000001 g_pm_long_suspend
00000164 l     O .retention_data	00000004 g_pm_tick_cur
00000168 l     O .retention_data	00000029 pmcd
00000194 l     O .retention_data	00000004 g_pm_tick_32k_calib
00000198 l     O .retention_data	00000001 g_pm_suspend_power_cfg
0000019c l     O .retention_data	00000008 g_pm_early_wakeup_time_us
000001a4 l     O .retention_data	00000004 g_pm_tick_32k_cur
000001a8 l     O .retention_data	00000001 g_pm_tick_update_en
000001ac l     O .retention_data	00000004 g_pm_r_delay_cycle
000001b0 l     O .retention_data	00000008 g_pm_longsleep_early_wakeup_time_us
00080070 l     O .data	00000018 FFT_SIZES
0008a328 l     O .sbss	00000004 clkFastfreq
0008a32c l     O .sbss	00000004 exception_mcause
0008a330 l     O .sbss	00000004 exception_mdcause
0008a334 l     O .sbss	00000004 exception_mepc
0008a338 l     O .sbss	00000004 exception_mstatus
0008a33c l     O .sbss	00000004 exception_mtval
0008a340 l     O .sbss	00000004 g_chip_version
0008a344 l     O .sbss	00000004 g_pm_status_info
0008a318 l     O .data	00000001 init_flag.5287
0008a31c l     O .data	00000006 sys_clk
0008a368 l     O .sdk_version	00000022 sdk_version
00000000 l    df *ABS*	00000000 riscv_cmplx_mag_q15.c
00001660 l       .ram_code	00000000 $x
00000000 l    df *ABS*	00000000 riscv_sqrt_q31.c
00001748 l       .ram_code	00000000 $x
00000000 l    df *ABS*	00000000 riscv_cfft_q15.c
00001818 l       .ram_code	00000000 $x
000018f4 l       .ram_code	00000000 $x
000019d0 l       .ram_code	00000000 $x
00000000 l    df *ABS*	00000000 riscv_cfft_radix4_q15.c
00001b00 l       .ram_code	00000000 $x
00001d88 l       .ram_code	00000000 $x
00000000 l    df *ABS*	00000000 riscv_cfft_init_q15.c
00002014 l       .ram_code	00000000 $x
00002038 l       .ram_code	00000000 $x
00002060 l       .ram_code	00000000 $x
00002084 l       .ram_code	00000000 $x
000020a8 l       .ram_code	00000000 $x
000020cc l       .ram_code	00000000 $x
000020f0 l       .ram_code	00000000 $x
00002114 l       .ram_code	00000000 $x
00002138 l       .ram_code	00000000 $x
0000215c l       .ram_code	00000000 $x
00000000 l    df *ABS*	00000000 riscv_bitreversal2.c
000021d4 l       .ram_code	00000000 $x
00000000 l    df *ABS*	00000000 sinf.c
00000000 l    df *ABS*	00000000 ref_rredf.c
0008a2a0 l     O .data	00000020 twooverpi.2618
00000000 l    df *ABS*	00000000 muldf3.c
00000000 l    df *ABS*	00000000 fixunsdfsi.c
00000000 l    df *ABS*	00000000 floatsidf.c
00000000 l    df *ABS*	00000000 extendsfdf2.c
00000000 l    df *ABS*	00000000 truncdfsf2.c
00000000 l    df *ABS*	00000000 malloc.c
00000000 l    df *ABS*	00000000 memcpy.c
00000000 l    df *ABS*	00000000 nano-mallocr.c
00000000 l    df *ABS*	00000000 nano-mallocr.c
00000000 l    df *ABS*	00000000 printf.c
00000000 l    df *ABS*	00000000 puts.c
00000000 l    df *ABS*	00000000 strlen.c
00000000 l    df *ABS*	00000000 vprintf.c
00003370 l     F .ram_code	00000038 __vprintf_help
0008a354 l     O .sbss	00000004 __vprintf_buf
0008a358 l     O .sbss	00000004 __vprintf_buf_len
00000000 l    df *ABS*	00000000 printf_impl.c
00000000 l    df *ABS*	00000000 printf_impl_float.c
00000000 l    df *ABS*	00000000 strcpy.c
00000000 l    df *ABS*	00000000 strnlen.c
00000000 l    df *ABS*	00000000 _sbrk.c
0008a360 l     O .sbss	00000004 heap_end.2408
00000000 l    df *ABS*	00000000 libgcc2.c
00000000 l    df *ABS*	00000000 libgcc2.c
00000000 l    df *ABS*	00000000 riscv_common_tables.c
00000000 l    df *ABS*	00000000 riscv_const_structs.c
00000000 l    df *ABS*	00000000 printf_data.c
00000000 l    df *ABS*	00000000 impure.c
0008a364 l     O .bss	00000000 impure_data
00000000 l    df *ABS*	00000000 
00003fb8 l       .ram_code	00000000 _EXECIT_BASE_
00001658  w      .ram_code	00000000 entry_irq55
00001658  w      .ram_code	00000000 entry_irq13
00003cfc g     F .ram_code	00000078 strcpy
00001658  w      .ram_code	00000000 entry_irq15
00003e90 g     F .ram_code	0000002e .hidden __ashldi3
0008a090 g     O .data	000000c0 twiddleCoef_64_q15
00001658  w      .ram_code	00000000 entry_irq27
00001658  w      .ram_code	00000000 entry_irq60
00082398 g     O .data	00000f80 riscvBitRevIndexTable_fixed_2048
00001658  w      .ram_code	00000000 entry_irq1
00001658  w      .ram_code	00000000 entry_irq52
00001658  w      .ram_code	00000000 entry_irq50
00084210 g     O .data	00003000 twiddleCoef_4096_q15
00001658  w      .ram_code	00000000 entry_irq62
000032c4 g     F .ram_code	0000001e printf
00080800 g       .data	00000000 __global_pointer$
00003034 g       .ram_code	00000000 .hidden __riscv_save_8
00001658  w      .ram_code	00000000 entry_irq58
00003080 g       .ram_code	00000000 .hidden __riscv_restore_3
000001bc g       .retention_data	00000000 _RETENTION_DATA_VMA_END
0000306c g       .ram_code	00000000 .hidden __riscv_restore_10
000018f4  w    F .ram_code	000000da riscv_cfft_radix4by2_inverse_q15
000019d0  w    F .ram_code	0000012e riscv_cfft_q15
00084078 g     O .data	000000e0 riscvBitRevIndexTable_fixed_128
00003034 g       .ram_code	00000000 .hidden __riscv_save_11
000841f8 g     O .data	00000018 riscvBitRevIndexTable_fixed_16
000033f2 g     F .ram_code	00000048 __print_integral
0008a240 g     O .data	00000010 riscv_cfft_sR_q15_len64
00000000 g       .retention_reset	00000000 _RETENTION_RESET_VMA_START
00001658  w      .ram_code	00000000 entry_irq10
00001658  w      .ram_code	00000000 entry_irq21
0008a250 g     O .data	00000010 riscv_cfft_sR_q15_len32
00000158 g       .retention_data	00000000 _AES_VMA_START
00002380 g     F .ram_code	0000013a ref__mathlib_rredf2
00001658  w      .ram_code	00000000 entry_irq48
00003080 g       .ram_code	00000000 .hidden __riscv_restore_2
00001658  w      .ram_code	00000000 entry_irq8
00001658  w      .ram_code	00000000 entry_irq33
0008a368 g       .bss	00000000 _BSS_VMA_END
000030a4 g     F .ram_code	000000ee memcpy
20000190 g       *ABS*	00000000 _RETENTION_RESET_LMA_START
00002ba0 g     F .ram_code	0000007a .hidden __floatsidf
00080000 g     O .data	0000001c cst_libm_sincosf
0000343a g     F .ram_code	00000434 __printf_impl
00001658  w      .ram_code	00000000 entry_irq12
000032e2 g     F .ram_code	0000002c puts
00083ad8 g     O .data	000003c0 riscvBitRevIndexTable_fixed_512
0000308c g     F .ram_code	0000000c malloc
00001658  w      .ram_code	00000000 entry_irq14
0000302c g       .ram_code	00000000 .hidden __riscv_save_12
00002b08 g     F .ram_code	00000096 .hidden __fixunsdfsi
00001658  w      .ram_code	00000000 entry_irq2
00001658  w      .ram_code	00000000 entry_irq51
0008a200 g     O .data	00000010 riscv_cfft_sR_q15_len1024
0000306c g       .ram_code	00000000 .hidden __riscv_restore_11
00001658  w      .ram_code	00000000 entry_irq28
0008a1e0 g     O .data	00000010 riscv_cfft_sR_q15_len4096
00001658  w      .ram_code	00000000 entry_irq43
0000305c g       .ram_code	00000000 .hidden __riscv_save_1
00003080 g       .ram_code	00000000 .hidden __riscv_restore_0
00001658  w      .ram_code	00000000 entry_irq20
00003042 g       .ram_code	00000000 .hidden __riscv_save_7
00002114  w    F .ram_code	00000024 riscv_cfft_init_32_q15
0008a328 g       .sbss	00000000 _BSS_VMA_START
00001658  w      .ram_code	00000000 entry_irq63
0008a328 g       .data	00000000 _DATA_VMA_END
00002c1c g     F .ram_code	00000110 .hidden __extendsfdf2
00001658  w      .ram_code	00000000 entry_irq46
00001658  w      .ram_code	00000000 entry_irq31
00001658  w      .ram_code	00000000 entry_irq16
00100000 g       *ABS*	00000000 FLASH_SIZE
00003076 g       .ram_code	00000000 .hidden __riscv_restore_5
00001660  w    F .ram_code	000000e6 riscv_cmplx_mag_q15
0008a210 g     O .data	00000010 riscv_cfft_sR_q15_len512
00080000 g       .data	00000000 _DATA_VMA_START
000841c8 g     O .data	00000030 riscvBitRevIndexTable_fixed_32
00003e38  w    F .ram_code	00000026 _sbrk
00001658  w      .ram_code	00000000 entry_irq53
00001658  w      .ram_code	00000000 entry_irq11
000020cc  w    F .ram_code	00000024 riscv_cfft_init_128_q15
0008a288 g     O .data	00000018 cst_libm_rredf
00000154 g       .retention_reset	00000000 _RETENTION_RESET_VMA_END
00003d76 g     F .ram_code	00000018 strnlen
00003076 g       .ram_code	00000000 .hidden __riscv_restore_6
00001658  w      .ram_code	00000000 entry_irq5
00001658  w      .ram_code	00000000 entry_irq23
00001818  w    F .ram_code	000000da riscv_cfft_radix4by2_q15
0000165a  w      .ram_code	00000000 trap_handler
00001658  w      .ram_code	00000000 entry_irq34
00001b00  w    F .ram_code	00000286 riscv_radix4_butterfly_q15
00003e60 g     F .ram_code	0000002e .hidden __lshrdi3
00001658  w      .ram_code	00000000 entry_irq36
00003034 g       .ram_code	00000000 .hidden __riscv_save_9
00001658  w      .ram_code	00000000 entry_irq44
000033a8 g     F .ram_code	0000004a vprintf
00001658  w      .ram_code	00000000 entry_irq45
00001658  w      .ram_code	00000000 entry_irq26
00003042 g       .ram_code	00000000 .hidden __riscv_save_4
000021d4  w    F .ram_code	0000005a riscv_bitreversal_16
0008a220 g     O .data	00000010 riscv_cfft_sR_q15_len256
00001d88  w    F .ram_code	0000028a riscv_radix4_butterfly_inverse_q15
00001658  w      .ram_code	00000000 entry_irq41
00001658  w      .ram_code	00000000 entry_irq61
20000000 g       .vectors	00000000 BIN_BEGIN
00003192 g     F .ram_code	0000008e _free_r
0000305c g       .ram_code	00000000 .hidden __riscv_save_3
00001658  w      .ram_code	00000000 entry_irq38
00000d00 g       .ram_code	00000000 __vectors
0000e5aa g       *ABS*	00000000 BIN_SIZE
00089f10 g     O .data	00000180 twiddleCoef_128_q15
00002138  w    F .ram_code	00000022 riscv_cfft_init_16_q15
0008a300 g     O .data	00000010 __digits
20000350 g       *ABS*	00000000 _RAMCODE_LMA_START
0008a230 g     O .data	00000010 riscv_cfft_sR_q15_len128
0008a35c g     O .sbss	00000004 __printf_count
00001658  w      .ram_code	00000000 entry_irq59
00002014  w    F .ram_code	00000022 riscv_cfft_init_4096_q15
00001748  w    F .ram_code	000000ce riscv_sqrt_q31
00001658  w      .ram_code	00000000 entry_irq6
000024bc g     F .ram_code	00000648 .hidden __muldf3
00003034 g       .ram_code	00000000 .hidden __riscv_save_10
0008a348 g     O .sbss	00000004 __mculib_REENT_errno
20004260 g       *ABS*	00000000 _DATA_LMA_START
0000388c g     F .ram_code	00000092 __print_integral_poly
20000000 g       *ABS*	00000000 NDS_SAG_LMA_FLASH
00003076 g       .ram_code	00000000 .hidden __riscv_restore_4
0000306c g       .ram_code	00000000 .hidden __riscv_restore_8
00002038  w    F .ram_code	00000026 riscv_cfft_init_2048_q15
00003042 g       .ram_code	00000000 .hidden __riscv_save_6
20000000  w      .vectors	00000000 _RELAX_END_
00003d8e g     F .ram_code	000000aa memset
0000391e g     F .ram_code	000003de __printf_float_impl
0000306c g       .ram_code	00000000 .hidden __riscv_restore_9
00003076 g       .ram_code	00000000 .hidden __riscv_restore_7
000011fa g     F .ram_code	0000045c main
0008a150 g     O .data	00000060 twiddleCoef_32_q15
00001658 g       .ram_code	00000000 default_irq_entry
0008a1b0 g     O .data	00000030 twiddleCoef_16_q15
00002060  w    F .ram_code	00000024 riscv_cfft_init_1024_q15
00001658  w      .ram_code	00000000 entry_irq3
00000bbc g     F .ram_code	000000dc trap_entry
00000158 g       .retention_data	00000000 _AES_VMA_END
0000215c  w    F .ram_code	00000076 riscv_cfft_init_q15
00002d2c g     F .ram_code	00000300 .hidden __truncdfsf2
00001658  w      .ram_code	00000000 entry_irq39
00083318 g     O .data	000007c0 riscvBitRevIndexTable_fixed_1024
00001658  w      .ram_code	00000000 entry_irq49
00003220 g     F .ram_code	000000a4 _malloc_r
00083e98 g     O .data	000001e0 riscvBitRevIndexTable_fixed_256
00001658  w      .ram_code	00000000 entry_irq57
00001658  w      .ram_code	00000000 entry_irq47
200002e8 g       *ABS*	00000000 _RETENTION_DATA_LMA_START
00002084  w    F .ram_code	00000024 riscv_cfft_init_512_q15
20000000 g     F .vectors	00000000 _RESET_ENTRY
00088a10 g     O .data	00000c00 twiddleCoef_1024_q15
00000158 g       .retention_data	00000000 _RETENTION_DATA_VMA_START
00001658  w      .ram_code	00000000 entry_irq4
000a0000 g       *ABS*	00000000 _STACK_TOP
00001658  w      .ram_code	00000000 entry_irq22
00001658  w      .ram_code	00000000 entry_irq30
00084158 g     O .data	00000070 riscvBitRevIndexTable_fixed_64
000020a8  w    F .ram_code	00000024 riscv_cfft_init_256_q15
0008a324 g     O .data	00000004 _impure_ptr
00001658  w      .ram_code	00000000 entry_irq42
00001658  w      .ram_code	00000000 entry_irq24
00002230 g     F .ram_code	0000014e sinf
0000305c g       .ram_code	00000000 .hidden __riscv_save_2
0000410c g       .ram_code	00000000 _RAMCODE_VMA_END
00003fb8  w      .ram_code	00000000 _ITB_BASE_
00003042 g       .ram_code	00000000 .hidden __riscv_save_5
00001658  w      .ram_code	00000000 entry_irq19
000011ca g     F .ram_code	00000030 _write
0008a260 g     O .data	00000010 riscv_cfft_sR_q15_len16
00080398 g     O .data	00000080 sqrt_initial_lut_q31
0008a390 g       .sdk_version	00000000 _end
00001658  w      .ram_code	00000000 entry_irq17
00001658  w      .ram_code	00000000 entry_irq9
00089c10 g     O .data	00000300 twiddleCoef_256_q15
00001658  w      .ram_code	00000000 entry_irq56
00001658  w      .ram_code	00000000 entry_irq35
00001658  w      .ram_code	00000000 entry_irq37
0008a1f0 g     O .data	00000010 riscv_cfft_sR_q15_len2048
000001b8 g     O .retention_data	00000004 g_pm_mspi_cfg
00001658  w      .ram_code	00000000 entry_irq54
00001658  w      .ram_code	00000000 entry_irq40
00080418 g     O .data	00001f80 riscvBitRevIndexTable_fixed_4096
00003068 g       .ram_code	00000000 .hidden __riscv_restore_12
00000200 g       .ram_code	00000000 _RAMCODE_VMA_START
0000305c g       .ram_code	00000000 .hidden __riscv_save_0
00003310 g     F .ram_code	0000005e strlen
00001658  w      .ram_code	00000000 entry_irq29
0008a350 g     O .sbss	00000004 __malloc_sbrk_start
0008a34c g     O .sbss	00000004 __malloc_free_list
00087210 g     O .data	00001800 twiddleCoef_2048_q15
00003080 g       .ram_code	00000000 .hidden __riscv_restore_1
00089610 g     O .data	00000600 twiddleCoef_512_q15
00001658  w      .ram_code	00000000 entry_irq7
000020f0  w    F .ram_code	00000024 riscv_cfft_init_64_q15
00001658  w      .ram_code	00000000 entry_irq32
00000000 g     F .retention_reset	00000000 _IRESET_ENTRY
00001658  w      .ram_code	00000000 entry_irq18
0000386e g     F .ram_code	0000001e __int_to_poly
00003098 g     F .ram_code	0000000c free
00001658  w      .ram_code	00000000 entry_irq25



Disassembly of section .vectors:

20000000 <_RESET_ENTRY>:
20000000:	a025                	c.j	20000028 <_START>
	...
20000016:	0000                	unimp
20000018:	e5aa                	c.fswsp	fa0,200(sp)
2000001a:	0000                	unimp
2000001c:	0000                	unimp
2000001e:	0000                	unimp
20000020:	544c4e4b          	fnmsub.h	ft8,fs8,ft4,fa0,rmm
20000024:	0000                	unimp
20000026:	          	sllw	a4,zero,zero

20000028 <_START>:
20000028:	e0080197          	auipc	gp,0xe0080
2000002c:	7d818193          	addi	gp,gp,2008 # 80800 <__global_pointer$>
20000030:	801002b7          	lui	t0,0x80100
20000034:	70028293          	addi	t0,t0,1792 # 80100700 <_DATA_LMA_START+0x600fc4a0>
20000038:	04000313          	li	t1,64
2000003c:	506280a3          	sb	t1,1281(t0)
20000040:	e00a0297          	auipc	t0,0xe00a0
20000044:	fc028293          	addi	t0,t0,-64 # a0000 <_STACK_TOP>
20000048:	8116                	c.mv	sp,t0
2000004a:	e0004297          	auipc	t0,0xe0004
2000004e:	f6e28293          	addi	t0,t0,-146 # 3fb8 <_ITB_BASE_>
20000052:	80029073          	csrw	uitb,t0
20000056:	6299                	c.lui	t0,0x6
20000058:	3002a2f3          	csrrs	t0,mstatus,t0
2000005c:	00301073          	fssr	zero
20000060:	e0001297          	auipc	t0,0xe0001
20000064:	ca028293          	addi	t0,t0,-864 # d00 <__vectors>
20000068:	30529073          	csrw	mtvec,t0
2000006c:	7d016073          	csrsi	mmisc_ctl,2
20000070:	e40002b7          	lui	t0,0xe4000
20000074:	4309                	c.li	t1,2
20000076:	0062a023          	sw	t1,0(t0) # e4000000 <_DATA_LMA_START+0xc3ffbda0>
2000007a:	7ca022f3          	csrr	t0,mcache_ctl
2000007e:	0012e293          	ori	t0,t0,1
20000082:	0022e293          	ori	t0,t0,2
20000086:	7ca29073          	csrw	mcache_ctl,t0
2000008a:	0000100f          	fence.i

2000008e <_RETENTION_RESET_INIT>:
2000008e:	00000317          	auipc	t1,0x0
20000092:	10230313          	addi	t1,t1,258 # 20000190 <_RETENTION_RESET_LMA_START>
20000096:	e0000397          	auipc	t2,0xe0000
2000009a:	f6a38393          	addi	t2,t2,-150 # 0 <_IRESET_ENTRY>
2000009e:	e0000e17          	auipc	t3,0xe0000
200000a2:	0b6e0e13          	addi	t3,t3,182 # 154 <_RETENTION_RESET_VMA_END>

200000a6 <_RETENTION_RESET_BEGIN>:
200000a6:	01c3f963          	bgeu	t2,t3,200000b8 <_RETENTION_DATA_INIT>
200000aa:	00032283          	lw	t0,0(t1)
200000ae:	0053a023          	sw	t0,0(t2)
200000b2:	0311                	c.addi	t1,4
200000b4:	0391                	c.addi	t2,4
200000b6:	bfc5                	c.j	200000a6 <_RETENTION_RESET_BEGIN>

200000b8 <_RETENTION_DATA_INIT>:
200000b8:	00000317          	auipc	t1,0x0
200000bc:	23030313          	addi	t1,t1,560 # 200002e8 <_RETENTION_DATA_LMA_START>
200000c0:	15800393          	li	t2,344
200000c4:	e0000e17          	auipc	t3,0xe0000
200000c8:	0f8e0e13          	addi	t3,t3,248 # 1bc <_RETENTION_DATA_VMA_END>

200000cc <_RETENTION_DATA_INIT_BEGIN>:
200000cc:	01c3f963          	bgeu	t2,t3,200000de <_RAMCODE_INIT>
200000d0:	00032283          	lw	t0,0(t1)
200000d4:	0053a023          	sw	t0,0(t2)
200000d8:	0311                	c.addi	t1,4
200000da:	0391                	c.addi	t2,4
200000dc:	bfc5                	c.j	200000cc <_RETENTION_DATA_INIT_BEGIN>

200000de <_RAMCODE_INIT>:
200000de:	00000317          	auipc	t1,0x0
200000e2:	27230313          	addi	t1,t1,626 # 20000350 <_RAMCODE_LMA_START>
200000e6:	e0000397          	auipc	t2,0xe0000
200000ea:	11a38393          	addi	t2,t2,282 # 200 <delay_ms.constprop.12>
200000ee:	e0004e17          	auipc	t3,0xe0004
200000f2:	01ee0e13          	addi	t3,t3,30 # 410c <_RAMCODE_VMA_END>

200000f6 <_RAMCODE_INIT_BEGIN>:
200000f6:	01c3f963          	bgeu	t2,t3,20000108 <_DATA_INIT>
200000fa:	00032283          	lw	t0,0(t1)
200000fe:	0053a023          	sw	t0,0(t2)
20000102:	0311                	c.addi	t1,4
20000104:	0391                	c.addi	t2,4
20000106:	bfc5                	c.j	200000f6 <_RAMCODE_INIT_BEGIN>

20000108 <_DATA_INIT>:
20000108:	00004317          	auipc	t1,0x4
2000010c:	15830313          	addi	t1,t1,344 # 20004260 <_DATA_LMA_START>
20000110:	e0080397          	auipc	t2,0xe0080
20000114:	ef038393          	addi	t2,t2,-272 # 80000 <cst_libm_sincosf>
20000118:	e008ae17          	auipc	t3,0xe008a
2000011c:	210e0e13          	addi	t3,t3,528 # 8a328 <_DATA_VMA_END>

20000120 <_DATA_INIT_BEGIN>:
20000120:	01c3f963          	bgeu	t2,t3,20000132 <_ZERO_BSS>
20000124:	00032283          	lw	t0,0(t1)
20000128:	0053a023          	sw	t0,0(t2)
2000012c:	0311                	c.addi	t1,4
2000012e:	0391                	c.addi	t2,4
20000130:	bfc5                	c.j	20000120 <_DATA_INIT_BEGIN>

20000132 <_ZERO_BSS>:
20000132:	000002b7          	lui	t0,0x0
20000136:	e008a397          	auipc	t2,0xe008a
2000013a:	1f238393          	addi	t2,t2,498 # 8a328 <_DATA_VMA_END>
2000013e:	e008ae17          	auipc	t3,0xe008a
20000142:	22ae0e13          	addi	t3,t3,554 # 8a368 <_BSS_VMA_END>

20000146 <_ZERO_BSS_BEGIN>:
20000146:	01c3f663          	bgeu	t2,t3,20000152 <_ZERO_AES>
2000014a:	0053a023          	sw	t0,0(t2)
2000014e:	0391                	c.addi	t2,4
20000150:	bfdd                	c.j	20000146 <_ZERO_BSS_BEGIN>

20000152 <_ZERO_AES>:
20000152:	000002b7          	lui	t0,0x0
20000156:	e0000397          	auipc	t2,0xe0000
2000015a:	00238393          	addi	t2,t2,2 # 158 <_AES_VMA_END>
2000015e:	e0000e17          	auipc	t3,0xe0000
20000162:	ffae0e13          	addi	t3,t3,-6 # 158 <_AES_VMA_END>

20000166 <_ZERO_AES_BEGIN>:
20000166:	01c3f663          	bgeu	t2,t3,20000172 <_FILL_STK>
2000016a:	0053a023          	sw	t0,0(t2)
2000016e:	0391                	c.addi	t2,4
20000170:	bfdd                	c.j	20000166 <_ZERO_AES_BEGIN>

20000172 <_FILL_STK>:
20000172:	0001                	c.nop
20000174:	e0001297          	auipc	t0,0xe0001
20000178:	08628293          	addi	t0,t0,134 # 11fa <main>
2000017c:	9282                	c.jalr	t0
2000017e:	0001                	c.nop
20000180:	0001                	c.nop
20000182:	0001                	c.nop
20000184:	0001                	c.nop
20000186:	0001                	c.nop

20000188 <_END>:
20000188:	a001                	c.j	20000188 <_END>

Disassembly of section .retention_reset:

00000000 <_IRESET_ENTRY>:
   0:	a00d                	c.j	22 <_ISTART>
	...

00000022 <_ISTART>:
  22:	00080197          	auipc	gp,0x80
  26:	7de18193          	addi	gp,gp,2014 # 80800 <__global_pointer$>

0000002a <_ISWS_USB_DIS>:
  2a:	801002b7          	lui	t0,0x80100
  2e:	70028293          	addi	t0,t0,1792 # 80100700 <_DATA_LMA_START+0x600fc4a0>
  32:	04000313          	li	t1,64
  36:	506280a3          	sb	t1,1281(t0)
  3a:	000a0297          	auipc	t0,0xa0
  3e:	fc628293          	addi	t0,t0,-58 # a0000 <_STACK_TOP>
  42:	8116                	c.mv	sp,t0
  44:	00004297          	auipc	t0,0x4
  48:	f7428293          	addi	t0,t0,-140 # 3fb8 <_ITB_BASE_>
  4c:	80029073          	csrw	uitb,t0
  50:	6299                	c.lui	t0,0x6
  52:	3002a2f3          	csrrs	t0,mstatus,t0
  56:	00301073          	fssr	zero
  5a:	00001297          	auipc	t0,0x1
  5e:	ca628293          	addi	t0,t0,-858 # d00 <__vectors>
  62:	30529073          	csrw	mtvec,t0
  66:	7d016073          	csrsi	mmisc_ctl,2
  6a:	e40002b7          	lui	t0,0xe4000
  6e:	4309                	c.li	t1,2
  70:	0062a023          	sw	t1,0(t0) # e4000000 <_DATA_LMA_START+0xc3ffbda0>
  74:	7ca022f3          	csrr	t0,mcache_ctl
  78:	0012e293          	ori	t0,t0,1
  7c:	0022e293          	ori	t0,t0,2
  80:	7ca29073          	csrw	mcache_ctl,t0
  84:	0000100f          	fence.i

00000088 <_WAKEUP_FLASH>:
  88:	801402b7          	lui	t0,0x80140
  8c:	0ff00313          	li	t1,255
  90:	4381                	c.li	t2,0
  92:	0ab00e13          	li	t3,171
  96:	326284a3          	sb	t1,809(t0) # 80140329 <_DATA_LMA_START+0x6013c0c9>
  9a:	107280a3          	sb	t2,257(t0)
  9e:	11c28023          	sb	t3,256(t0)

000000a2 <_MSPI_WAIT>:
  a2:	801402b7          	lui	t0,0x80140
  a6:	10228383          	lb	t2,258(t0) # 80140102 <_DATA_LMA_START+0x6013bea2>
  aa:	4e05                	c.li	t3,1
  ac:	4ec1                	c.li	t4,16
  ae:	fe7e0ae3          	beq	t3,t2,a2 <_MSPI_WAIT>
  b2:	11d280a3          	sb	t4,257(t0)
  b6:	4281                	c.li	t0,0
  b8:	14000313          	li	t1,320

000000bc <_WAIT_EFUSE_LOAD_AND_FLASH_WAKEUP_FINISH>:
  bc:	0285                	c.addi	t0,1
  be:	fe537fe3          	bgeu	t1,t0,bc <_WAIT_EFUSE_LOAD_AND_FLASH_WAKEUP_FINISH>

000000c2 <_MULTI_ADDRESS_BEGIN>:
  c2:	801402b7          	lui	t0,0x80140
  c6:	1b800313          	li	t1,440
  ca:	00032383          	lw	t2,0(t1)
  ce:	1072a223          	sw	t2,260(t0) # 80140104 <_DATA_LMA_START+0x6013bea4>

000000d2 <_IZERO_BSS>:
  d2:	000002b7          	lui	t0,0x0
  d6:	0008a397          	auipc	t2,0x8a
  da:	25238393          	addi	t2,t2,594 # 8a328 <_DATA_VMA_END>
  de:	0008ae17          	auipc	t3,0x8a
  e2:	28ae0e13          	addi	t3,t3,650 # 8a368 <_BSS_VMA_END>

000000e6 <_IZERO_BSS_BEGIN>:
  e6:	01c3f663          	bgeu	t2,t3,f2 <_IZERO_AES>
  ea:	0053a023          	sw	t0,0(t2)
  ee:	0391                	c.addi	t2,4
  f0:	bfdd                	c.j	e6 <_IZERO_BSS_BEGIN>

000000f2 <_IZERO_AES>:
  f2:	000002b7          	lui	t0,0x0
  f6:	00000397          	auipc	t2,0x0
  fa:	06238393          	addi	t2,t2,98 # 158 <_AES_VMA_END>
  fe:	00000e17          	auipc	t3,0x0
 102:	05ae0e13          	addi	t3,t3,90 # 158 <_AES_VMA_END>

00000106 <_IZERO_AES_BEGIN>:
 106:	01c3f663          	bgeu	t2,t3,112 <_IDATA_INIT>
 10a:	0053a023          	sw	t0,0(t2)
 10e:	0391                	c.addi	t2,4
 110:	bfdd                	c.j	106 <_IZERO_AES_BEGIN>

00000112 <_IDATA_INIT>:
 112:	20004317          	auipc	t1,0x20004
 116:	14e30313          	addi	t1,t1,334 # 20004260 <_DATA_LMA_START>
 11a:	00080397          	auipc	t2,0x80
 11e:	ee638393          	addi	t2,t2,-282 # 80000 <cst_libm_sincosf>
 122:	0008ae17          	auipc	t3,0x8a
 126:	206e0e13          	addi	t3,t3,518 # 8a328 <_DATA_VMA_END>

0000012a <_IDATA_INIT_BEGIN>:
 12a:	01c3f963          	bgeu	t2,t3,13c <_IMAIN_FUNC>
 12e:	00032283          	lw	t0,0(t1)
 132:	0053a023          	sw	t0,0(t2)
 136:	0311                	c.addi	t1,4
 138:	0391                	c.addi	t2,4
 13a:	bfc5                	c.j	12a <_IDATA_INIT_BEGIN>

0000013c <_IMAIN_FUNC>:
 13c:	0001                	c.nop
 13e:	00001297          	auipc	t0,0x1
 142:	0bc28293          	addi	t0,t0,188 # 11fa <main>
 146:	9282                	c.jalr	t0
 148:	0001                	c.nop
 14a:	0001                	c.nop
 14c:	0001                	c.nop
 14e:	0001                	c.nop
 150:	0001                	c.nop

00000152 <_IEND>:
 152:	a001                	c.j	152 <_IEND>

Disassembly of section .ram_code:

00000200 <delay_ms.constprop.12>:
     200:	8c00                	exec.it	#6     !
     202:	2007a683          	lw	a3,512(a5)
     206:	0004e7b7          	lui	a5,0x4e
     20a:	8450                	exec.it	#35     !
     20c:	20078793          	addi	a5,a5,512 # 4e200 <BIN_SIZE+0x3fc56>
     210:	8600                	exec.it	#66     !
     212:	8f15                	c.sub	a4,a3
     214:	fee7fee3          	bgeu	a5,a4,210 <delay_ms.constprop.12+0x10>
     218:	8082                	c.jr	ra

0000021a <mspi_fm_data_line>:
     21a:	8800                	exec.it	#4     !
     21c:	8430                	exec.it	#19     !
     21e:	0f37f793          	andi	a5,a5,243
     222:	8d5d                	c.or	a0,a5
     224:	10a700a3          	sb	a0,257(a4)
     228:	8082                	c.jr	ra

0000022a <mspi_wait.lto_priv.17>:
     22a:	8800                	exec.it	#4     !
     22c:	10270783          	lb	a5,258(a4)
     230:	fe07fe5b          	bbs	a5,0,22c <mspi_wait.lto_priv.17+0x2>
     234:	8082                	c.jr	ra

00000236 <mspi_stop_xip.lto_priv.15>:
     236:	8004                	exec.it	#8     !
     238:	3fcd                	c.jal	22a <mspi_wait.lto_priv.17>
     23a:	8800                	exec.it	#4     !
     23c:	8430                	exec.it	#19     !
     23e:	8000                	exec.it	#0     !
     240:	8834                	exec.it	#29     !
     242:	8024                	exec.it	#24     !
     244:	32870783          	lb	a5,808(a4)
     248:	be37fe5b          	bbc	a5,3,244 <mspi_stop_xip.lto_priv.15+0xe>
     24c:	8404                	exec.it	#10     !

0000024e <flash_send_addr>:
     24e:	60f022ef          	jal	t0,305c <__riscv_save_0>
     252:	5d0527db          	bfoz	a5,a0,23,16
     256:	8020                	exec.it	#16     !
     258:	842a                	c.mv	s0,a0
     25a:	10f48023          	sb	a5,256(s1)
     25e:	37f1                	c.jal	22a <mspi_wait.lto_priv.17>
     260:	3c8427db          	bfoz	a5,s0,15,8
     264:	0ff47413          	andi	s0,s0,255
     268:	10f48023          	sb	a5,256(s1)
     26c:	3f7d                	c.jal	22a <mspi_wait.lto_priv.17>
     26e:	10848023          	sb	s0,256(s1)
     272:	3f65                	c.jal	22a <mspi_wait.lto_priv.17>
     274:	60d0206f          	j	3080 <__riscv_restore_0>

00000278 <flash_send_cmd>:
     278:	8004                	exec.it	#8     !
     27a:	8c00                	exec.it	#6     !
     27c:	8460                	exec.it	#50     !
     27e:	8804                	exec.it	#12     !
     280:	8604                	exec.it	#74     !
     282:	8444                	exec.it	#42     !
     284:	0001                	c.nop
     286:	0001                	c.nop
     288:	0001                	c.nop
     28a:	0001                	c.nop
     28c:	0001                	c.nop
     28e:	0001                	c.nop
     290:	0001                	c.nop
     292:	0001                	c.nop
     294:	0001                	c.nop
     296:	0001                	c.nop
     298:	8460                	exec.it	#50     !
     29a:	0ef77713          	andi	a4,a4,239
     29e:	8444                	exec.it	#42     !
     2a0:	10a78023          	sb	a0,256(a5)
     2a4:	3759                	c.jal	22a <mspi_wait.lto_priv.17>
     2a6:	8404                	exec.it	#10     !

000002a8 <clock_set_32k_tick>:
     2a8:	8800                	exec.it	#4     !
     2aa:	8050                	exec.it	#33     !
     2ac:	8000                	exec.it	#0     !
     2ae:	8034                	exec.it	#25     !
     2b0:	8840                	exec.it	#36     !
     2b2:	8c00                	exec.it	#6     !
     2b4:	20b78683          	lb	a3,523(a5)
     2b8:	20b78713          	addi	a4,a5,523
     2bc:	fe66fc5b          	bbs	a3,6,2b4 <clock_set_32k_tick+0xc>
     2c0:	20a7a623          	sw	a0,524(a5)
     2c4:	47a1                	c.li	a5,8
     2c6:	00f70023          	sb	a5,0(a4)
     2ca:	0001                	c.nop
     2cc:	0001                	c.nop
     2ce:	0001                	c.nop
     2d0:	0001                	c.nop
     2d2:	0001                	c.nop
     2d4:	0001                	c.nop
     2d6:	0001                	c.nop
     2d8:	0001                	c.nop
     2da:	0001                	c.nop
     2dc:	0001                	c.nop
     2de:	0001                	c.nop
     2e0:	0001                	c.nop
     2e2:	0001                	c.nop
     2e4:	0001                	c.nop
     2e6:	0001                	c.nop
     2e8:	0001                	c.nop
     2ea:	8800                	exec.it	#4     !
     2ec:	20b70783          	lb	a5,523(a4)
     2f0:	fe37fe5b          	bbs	a5,3,2ec <clock_set_32k_tick+0x44>
     2f4:	00008067          	ret

000002f8 <plic_exit_critical_sec>:
     2f8:	8c20                	exec.it	#22     !
     2fa:	8470                	exec.it	#51     !
     2fc:	8e10                	exec.it	#71     !
     2fe:	8000                	exec.it	#0     !
     300:	c395                	c.beqz	a5,324 <plic_exit_critical_sec+0x2c>
     302:	c10d                	c.beqz	a0,324 <plic_exit_critical_sec+0x2c>
     304:	300027f3          	csrr	a5,mstatus
     308:	8ba1                	c.andi	a5,8
     30a:	8814                	exec.it	#13     !
     30c:	c395                	c.beqz	a5,330 <plic_exit_critical_sec+0x38>
     30e:	8e00                	exec.it	#70     !
     310:	8410                	exec.it	#3     !
     312:	e4200737          	lui	a4,0xe4200
     316:	00b72023          	sw	a1,0(a4) # e4200000 <_DATA_LMA_START+0xc41fbda0>
     31a:	8410                	exec.it	#3     !
     31c:	8464                	exec.it	#58     !
     31e:	8410                	exec.it	#3     !
     320:	00008067          	ret
     324:	ddf5                	c.beqz	a1,320 <plic_exit_critical_sec+0x28>
     326:	3005a5f3          	csrrs	a1,mstatus,a1
     32a:	0ff0000f          	fence
     32e:	bfcd                	c.j	320 <plic_exit_critical_sec+0x28>
     330:	e42007b7          	lui	a5,0xe4200
     334:	c38c                	c.sw	a1,0(a5)
     336:	0ff0000f          	fence
     33a:	b7dd                	c.j	320 <plic_exit_critical_sec+0x28>

0000033c <plic_enter_critical_sec>:
     33c:	8c20                	exec.it	#22     !
     33e:	8470                	exec.it	#51     !
     340:	8e10                	exec.it	#71     !
     342:	8000                	exec.it	#0     !
     344:	c785                	c.beqz	a5,36c <plic_enter_critical_sec+0x30>
     346:	c11d                	c.beqz	a0,36c <plic_enter_critical_sec+0x30>
     348:	e4200737          	lui	a4,0xe4200
     34c:	4308                	c.lw	a0,0(a4)
     34e:	00b57d63          	bgeu	a0,a1,368 <plic_enter_critical_sec+0x2c>
     352:	300027f3          	csrr	a5,mstatus
     356:	8ba1                	c.andi	a5,8
     358:	c395                	c.beqz	a5,37c <plic_enter_critical_sec+0x40>
     35a:	300476f3          	csrrci	a3,mstatus,8
     35e:	8410                	exec.it	#3     !
     360:	c30c                	c.sw	a1,0(a4)
     362:	8410                	exec.it	#3     !
     364:	8464                	exec.it	#58     !
     366:	8410                	exec.it	#3     !
     368:	00008067          	ret
     36c:	30002573          	csrr	a0,mstatus
     370:	8921                	c.andi	a0,8
     372:	d97d                	c.beqz	a0,368 <plic_enter_critical_sec+0x2c>
     374:	8c74                	exec.it	#63     !
     376:	8410                	exec.it	#3     !
     378:	ff1ff06f          	j	368 <plic_enter_critical_sec+0x2c>
     37c:	c30c                	c.sw	a1,0(a4)
     37e:	8410                	exec.it	#3     !
     380:	b7e5                	c.j	368 <plic_enter_critical_sec+0x2c>

00000382 <flash_mspi_read_ram>:
     382:	4b3022ef          	jal	t0,3034 <__riscv_save_10>
     386:	00000937          	lui	s2,0x0
     38a:	8abe                	c.mv	s5,a5
     38c:	15890793          	addi	a5,s2,344 # 158 <_AES_VMA_END>
     390:	8a2a                	c.mv	s4,a0
     392:	84ae                	c.mv	s1,a1
     394:	0087c503          	lbu	a0,8(a5) # e4200008 <_DATA_LMA_START+0xc41fbda8>
     398:	0097c583          	lbu	a1,9(a5)
     39c:	1141                	c.addi	sp,-16
     39e:	c632                	c.swsp	a2,12(sp)
     3a0:	8b36                	c.mv	s6,a3
     3a2:	843a                	c.mv	s0,a4
     3a4:	3f61                	c.jal	33c <plic_enter_critical_sec>
     3a6:	89aa                	c.mv	s3,a0
     3a8:	3579                	c.jal	236 <mspi_stop_xip.lto_priv.15>
     3aa:	8800                	exec.it	#4     !
     3ac:	8430                	exec.it	#19     !
     3ae:	4501                	c.li	a0,0
     3b0:	0fd7f793          	andi	a5,a5,253
     3b4:	8024                	exec.it	#24     !
     3b6:	3595                	c.jal	21a <mspi_fm_data_line>
     3b8:	8552                	c.mv	a0,s4
     3ba:	3d7d                	c.jal	278 <flash_send_cmd>
     3bc:	4632                	c.lwsp	a2,12(sp)
     3be:	15890913          	addi	s2,s2,344
     3c2:	c219                	c.beqz	a2,3c8 <flash_mspi_read_ram+0x46>
     3c4:	8526                	c.mv	a0,s1
     3c6:	3561                	c.jal	24e <flash_send_addr>
     3c8:	4481                	c.li	s1,0
     3ca:	80140bb7          	lui	s7,0x80140
     3ce:	0764e563          	bltu	s1,s6,438 <flash_mspi_read_ram+0xb6>
     3d2:	01ba64db          	bnec	s4,59,3da <flash_mspi_read_ram+0x58>
     3d6:	4511                	c.li	a0,4
     3d8:	3589                	c.jal	21a <mspi_fm_data_line>
     3da:	8020                	exec.it	#16     !
     3dc:	10148783          	lb	a5,257(s1)
     3e0:	9aa2                	c.add	s5,s0
     3e2:	8000                	exec.it	#0     !
     3e4:	0027e793          	ori	a5,a5,2
     3e8:	10f480a3          	sb	a5,257(s1)
     3ec:	10048023          	sb	zero,256(s1)
     3f0:	3d2d                	c.jal	22a <mspi_wait.lto_priv.17>
     3f2:	10148783          	lb	a5,257(s1)
     3f6:	8000                	exec.it	#0     !
     3f8:	8034                	exec.it	#25     !
     3fa:	10f480a3          	sb	a5,257(s1)
     3fe:	3535                	c.jal	22a <mspi_wait.lto_priv.17>
     400:	05541163          	bne	s0,s5,442 <flash_mspi_read_ram+0xc0>
     404:	8800                	exec.it	#4     !
     406:	8430                	exec.it	#19     !
     408:	0fe7f793          	andi	a5,a5,254
     40c:	8024                	exec.it	#24     !
     40e:	01ba64db          	bnec	s4,59,416 <flash_mspi_read_ram+0x94>
     412:	4501                	c.li	a0,0
     414:	3519                	c.jal	21a <mspi_fm_data_line>
     416:	8800                	exec.it	#4     !
     418:	8430                	exec.it	#19     !
     41a:	8000                	exec.it	#0     !
     41c:	8834                	exec.it	#29     !
     41e:	8024                	exec.it	#24     !
     420:	0001                	c.nop
     422:	0001                	c.nop
     424:	0001                	c.nop
     426:	0001                	c.nop
     428:	0001                	c.nop
     42a:	00894503          	lbu	a0,8(s2)
     42e:	85ce                	c.mv	a1,s3
     430:	35e1                	c.jal	2f8 <plic_exit_critical_sec>
     432:	0141                	c.addi	sp,16
     434:	4390206f          	j	306c <__riscv_restore_10>
     438:	100b8023          	sb	zero,256(s7) # 80140100 <_DATA_LMA_START+0x6013bea0>
     43c:	0485                	c.addi	s1,1
     43e:	33f5                	c.jal	22a <mspi_wait.lto_priv.17>
     440:	b779                	c.j	3ce <flash_mspi_read_ram+0x4c>
     442:	10048783          	lb	a5,256(s1)
     446:	0405                	c.addi	s0,1
     448:	fef40fa3          	sb	a5,-1(s0)
     44c:	3bf9                	c.jal	22a <mspi_wait.lto_priv.17>
     44e:	bf4d                	c.j	400 <flash_mspi_read_ram+0x7e>

00000450 <analog_read_reg32.constprop.5>:
     450:	8004                	exec.it	#8     !
     452:	8a14                	exec.it	#77     !
     454:	8800                	exec.it	#4     !
     456:	4691                	c.li	a3,4
     458:	18d701a3          	sb	a3,387(a4) # e4200183 <_DATA_LMA_START+0xc41fbf23>
     45c:	06000693          	li	a3,96
     460:	18d70023          	sb	a3,384(a4)
     464:	87aa                	c.mv	a5,a0
     466:	04000693          	li	a3,64
     46a:	18d70123          	sb	a3,386(a4)
     46e:	18270683          	lb	a3,386(a4)
     472:	fe76fe5b          	bbs	a3,7,46e <analog_read_reg32.constprop.5+0x1e>
     476:	18472503          	lw	a0,388(a4)
     47a:	c399                	c.beqz	a5,480 <analog_read_reg32.constprop.5+0x30>
     47c:	8464                	exec.it	#58     !
     47e:	8410                	exec.it	#3     !
     480:	8404                	exec.it	#10     !

00000482 <clock_get_32k_tick>:
     482:	3db022ef          	jal	t0,305c <__riscv_save_0>
     486:	37e9                	c.jal	450 <analog_read_reg32.constprop.5>
     488:	842a                	c.mv	s0,a0
     48a:	37d9                	c.jal	450 <analog_read_reg32.constprop.5>
     48c:	40850733          	sub	a4,a0,s0
     490:	00a00433          	add	s0,zero,a0
     494:	be176b5b          	bnec	a4,1,48a <clock_get_32k_tick+0x8>
     498:	3e90206f          	j	3080 <__riscv_restore_0>

0000049c <pm_stimer_recover>:
     49c:	8004                	exec.it	#8     !
     49e:	8800                	exec.it	#4     !
     4a0:	4789                	c.li	a5,2
     4a2:	20f70c23          	sb	a5,536(a4)
     4a6:	8050                	exec.it	#33     !
     4a8:	8000                	exec.it	#0     !
     4aa:	8220                	exec.it	#80     !
     4ac:	8840                	exec.it	#36     !
     4ae:	3fd1                	c.jal	482 <clock_get_32k_tick>
     4b0:	8c20                	exec.it	#22     !
     4b2:	15878713          	addi	a4,a5,344
     4b6:	00a74703          	lbu	a4,10(a4)
     4ba:	8470                	exec.it	#51     !
     4bc:	cf01                	c.beqz	a4,4d4 <pm_stimer_recover+0x38>
     4be:	4bd8                	c.lw	a4,20(a5)
     4c0:	5fd0                	c.lw	a2,60(a5)
     4c2:	40e50733          	sub	a4,a0,a4
     4c6:	4b94                	c.lw	a3,16(a5)
     4c8:	0705                	c.addi	a4,1
     4ca:	8315                	c.srli	a4,0x5
     4cc:	c4c716ff          	maddr32	a3,a4,a2
     4d0:	8736                	c.mv	a4,a3
     4d2:	a819                	c.j	4e8 <pm_stimer_recover+0x4c>
     4d4:	4bd8                	c.lw	a4,20(a5)
     4d6:	5fd4                	c.lw	a3,60(a5)
     4d8:	40e50733          	sub	a4,a0,a4
     4dc:	0705                	c.addi	a4,1
     4de:	02d70733          	mul	a4,a4,a3
     4e2:	4b94                	c.lw	a3,16(a5)
     4e4:	8315                	c.srli	a4,0x5
     4e6:	9736                	c.add	a4,a3
     4e8:	c7d8                	c.sw	a4,12(a5)
     4ea:	4bd8                	c.lw	a4,20(a5)
     4ec:	47d4                	c.lw	a3,12(a5)
     4ee:	8054                	exec.it	#41     !
     4f0:	0705                	c.addi	a4,1
     4f2:	0505                	c.addi	a0,1
     4f4:	0685                	c.addi	a3,1
     4f6:	d7c8                	c.sw	a0,44(a5)
     4f8:	d798                	c.sw	a4,40(a5)
     4fa:	8450                	exec.it	#35     !
     4fc:	801407b7          	lui	a5,0x80140
     500:	20d7a023          	sw	a3,512(a5) # 80140200 <_DATA_LMA_START+0x6013bfa0>
     504:	20b60783          	lb	a5,523(a2)
     508:	be77fe5b          	bbc	a5,7,504 <pm_stimer_recover+0x68>
     50c:	20060c23          	sb	zero,536(a2)
     510:	8404                	exec.it	#10     !

00000512 <analog_write_reg8>:
     512:	34b022ef          	jal	t0,305c <__riscv_save_0>
     516:	1141                	c.addi	sp,-16
     518:	842a                	c.mv	s0,a0
     51a:	c62e                	c.swsp	a1,12(sp)
     51c:	8a14                	exec.it	#77     !
     51e:	8c00                	exec.it	#6     !
     520:	18878023          	sb	s0,384(a5)
     524:	45b2                	c.lwsp	a1,12(sp)
     526:	06000713          	li	a4,96
     52a:	18b78223          	sb	a1,388(a5)
     52e:	18e78123          	sb	a4,386(a5)
     532:	18278683          	lb	a3,386(a5)
     536:	fe76fe5b          	bbs	a3,7,532 <analog_write_reg8+0x20>
     53a:	18078123          	sb	zero,386(a5)
     53e:	c501                	c.beqz	a0,546 <analog_write_reg8+0x34>
     540:	30052573          	csrrs	a0,mstatus,a0
     544:	8410                	exec.it	#3     !
     546:	0141                	c.addi	sp,16
     548:	3390206f          	j	3080 <__riscv_restore_0>

0000054c <analog_read_reg8>:
     54c:	311022ef          	jal	t0,305c <__riscv_save_0>
     550:	842a                	c.mv	s0,a0
     552:	8a14                	exec.it	#77     !
     554:	8c00                	exec.it	#6     !
     556:	18878023          	sb	s0,384(a5)
     55a:	4705                	c.li	a4,1
     55c:	18e781a3          	sb	a4,387(a5)
     560:	04000713          	li	a4,64
     564:	18e78123          	sb	a4,386(a5)
     568:	18278703          	lb	a4,386(a5)
     56c:	fe777e5b          	bbs	a4,7,568 <analog_read_reg8+0x1c>
     570:	18478783          	lb	a5,388(a5)
     574:	8000                	exec.it	#0     !
     576:	c501                	c.beqz	a0,57e <analog_read_reg8+0x32>
     578:	30052573          	csrrs	a0,mstatus,a0
     57c:	8410                	exec.it	#3     !
     57e:	853e                	c.mv	a0,a5
     580:	3010206f          	j	3080 <__riscv_restore_0>

00000584 <clock_init_ram.constprop.11>:
     584:	2d9022ef          	jal	t0,305c <__riscv_save_0>
     588:	317d                	c.jal	236 <mspi_stop_xip.lto_priv.15>
     58a:	8020                	exec.it	#16     !
     58c:	1e848783          	lb	a5,488(s1)
     590:	08000513          	li	a0,128
     594:	8bbd                	c.andi	a5,15
     596:	1ef48423          	sb	a5,488(s1)
     59a:	3f4d                	c.jal	54c <analog_read_reg8>
     59c:	0e057593          	andi	a1,a0,224
     5a0:	0105e593          	ori	a1,a1,16
     5a4:	08000513          	li	a0,128
     5a8:	37ad                	c.jal	512 <analog_write_reg8>
     5aa:	4525                	c.li	a0,9
     5ac:	3745                	c.jal	54c <analog_read_reg8>
     5ae:	0f357593          	andi	a1,a0,243
     5b2:	0085e593          	ori	a1,a1,8
     5b6:	4525                	c.li	a0,9
     5b8:	3fa9                	c.jal	512 <analog_write_reg8>
     5ba:	0c000793          	li	a5,192
     5be:	30f28eab          	shgp	a5,39708 # 8a31c <sys_clk>
     5c2:	8014                	exec.it	#9     !
     5c4:	4791                	c.li	a5,4
     5c6:	1ef48da3          	sb	a5,507(s1)
     5ca:	3749                	c.jal	54c <analog_read_reg8>
     5cc:	04056593          	ori	a1,a0,64
     5d0:	8814                	exec.it	#13     !
     5d2:	8014                	exec.it	#9     !
     5d4:	31d2940b          	addigp	s0,39708 # 8a31c <sys_clk>
     5d8:	3f2d                	c.jal	512 <analog_write_reg8>
     5da:	8830                	exec.it	#21     !
     5dc:	3f85                	c.jal	54c <analog_read_reg8>
     5de:	be557e5b          	bbc	a0,5,5da <clock_init_ram.constprop.11+0x56>
     5e2:	8014                	exec.it	#9     !
     5e4:	37a5                	c.jal	54c <analog_read_reg8>
     5e6:	0bf57593          	andi	a1,a0,191
     5ea:	8014                	exec.it	#9     !
     5ec:	371d                	c.jal	512 <analog_write_reg8>
     5ee:	8c00                	exec.it	#6     !
     5f0:	1e978703          	lb	a4,489(a5)
     5f4:	8b3d                	c.andi	a4,15
     5f6:	04076713          	ori	a4,a4,64
     5fa:	1ee784a3          	sb	a4,489(a5)
     5fe:	8870                	exec.it	#53     !
     600:	f8076713          	ori	a4,a4,-128
     604:	8804                	exec.it	#12     !
     606:	8044                	exec.it	#40     !
     608:	8870                	exec.it	#53     !
     60a:	f8076713          	ori	a4,a4,-128
     60e:	8804                	exec.it	#12     !
     610:	8044                	exec.it	#40     !
     612:	8214                	exec.it	#73     !
     614:	8709                	c.srai	a4,0x2
     616:	00e402a3          	sb	a4,5(s0)
     61a:	1d878703          	lb	a4,472(a5)
     61e:	0fb77713          	andi	a4,a4,251
     622:	1ce78c23          	sb	a4,472(a5)
     626:	1d878703          	lb	a4,472(a5)
     62a:	0fc77713          	andi	a4,a4,252
     62e:	1ce78c23          	sb	a4,472(a5)
     632:	8870                	exec.it	#53     !
     634:	0f077713          	andi	a4,a4,240
     638:	00876713          	ori	a4,a4,8
     63c:	8044                	exec.it	#40     !
     63e:	8214                	exec.it	#73     !
     640:	40375713          	srai	a4,a4,0x3
     644:	00e40123          	sb	a4,2(s0)
     648:	8870                	exec.it	#53     !
     64a:	08f77713          	andi	a4,a4,143
     64e:	02076713          	ori	a4,a4,32
     652:	8044                	exec.it	#40     !
     654:	00244783          	lbu	a5,2(s0)
     658:	00f401a3          	sb	a5,3(s0)
     65c:	00f40223          	sb	a5,4(s0)
     660:	2210206f          	j	3080 <__riscv_restore_0>

00000664 <pm_wait_bbpll_done>:
     664:	1f9022ef          	jal	t0,305c <__riscv_save_0>
     668:	1141                	c.addi	sp,-16
     66a:	8014                	exec.it	#9     !
     66c:	35c5                	c.jal	54c <analog_read_reg8>
     66e:	04056593          	ori	a1,a0,64
     672:	892a                	c.mv	s2,a0
     674:	8814                	exec.it	#13     !
     676:	08100513          	li	a0,129
     67a:	0bf97913          	andi	s2,s2,191
     67e:	4481                	c.li	s1,0
     680:	4475                	c.li	s0,29
     682:	3d41                	c.jal	512 <analog_write_reg8>
     684:	000107a3          	sb	zero,15(sp)
     688:	0140006f          	j	69c <pm_wait_bbpll_done+0x38>
     68c:	0001                	c.nop
     68e:	00f10783          	lb	a5,15(sp)
     692:	0785                	c.addi	a5,1
     694:	0ff7f793          	andi	a5,a5,255
     698:	00f107a3          	sb	a5,15(sp)
     69c:	00f10783          	lb	a5,15(sp)
     6a0:	8000                	exec.it	#0     !
     6a2:	fef475e3          	bgeu	s0,a5,68c <pm_wait_bbpll_done+0x28>
     6a6:	8830                	exec.it	#21     !
     6a8:	3555                	c.jal	54c <analog_read_reg8>
     6aa:	4255715b          	bbs	a0,5,6cc <pm_wait_bbpll_done+0x68>
     6ae:	04600593          	li	a1,70
     6b2:	c49d                	c.beqz	s1,6e0 <pm_wait_bbpll_done+0x7c>
     6b4:	0214d45b          	beqc	s1,1,6dc <pm_wait_bbpll_done+0x78>
     6b8:	85ca                	c.mv	a1,s2
     6ba:	08100513          	li	a0,129
     6be:	3d91                	c.jal	512 <analog_write_reg8>
     6c0:	0024da5b          	beqc	s1,2,6d4 <pm_wait_bbpll_done+0x70>
     6c4:	0485                	c.addi	s1,1
     6c6:	0ff4f493          	andi	s1,s1,255
     6ca:	bf6d                	c.j	684 <pm_wait_bbpll_done+0x20>
     6cc:	85ca                	c.mv	a1,s2
     6ce:	08100513          	li	a0,129
     6d2:	3581                	c.jal	512 <analog_write_reg8>
     6d4:	01010113          	addi	sp,sp,16
     6d8:	1a90206f          	j	3080 <__riscv_restore_0>
     6dc:	04300593          	li	a1,67
     6e0:	4505                	c.li	a0,1
     6e2:	3d05                	c.jal	512 <analog_write_reg8>
     6e4:	fe1ff06f          	j	6c4 <pm_wait_bbpll_done+0x60>

000006e8 <pm_sleep_start>:
     6e8:	175022ef          	jal	t0,305c <__riscv_save_0>
     6ec:	3412a72b          	lwgp	a4,39744 # 8a340 <g_chip_version>
     6f0:	000006b7          	lui	a3,0x0
     6f4:	0ff00793          	li	a5,255
     6f8:	ff010113          	addi	sp,sp,-16
     6fc:	1986c583          	lbu	a1,408(a3) # 198 <g_pm_suspend_power_cfg>
     700:	00f71463          	bne	a4,a5,708 <pm_sleep_start+0x20>
     704:	0fe5f593          	andi	a1,a1,254
     708:	8060                	exec.it	#48     !
     70a:	8810                	exec.it	#5     !
     70c:	801406b7          	lui	a3,0x80140
     710:	10268783          	lb	a5,258(a3) # 80140102 <_DATA_LMA_START+0x6013bea2>
     714:	fe07fe5b          	bbs	a5,0,710 <pm_sleep_start+0x28>
     718:	10168703          	lb	a4,257(a3)
     71c:	8c00                	exec.it	#6     !
     71e:	8804                	exec.it	#12     !
     720:	01076713          	ori	a4,a4,16
     724:	10e680a3          	sb	a4,257(a3)
     728:	32878703          	lb	a4,808(a5)
     72c:	be377e5b          	bbc	a4,3,728 <pm_sleep_start+0x40>
     730:	8460                	exec.it	#50     !
     732:	80140437          	lui	s0,0x80140
     736:	0fd77713          	andi	a4,a4,253
     73a:	8444                	exec.it	#42     !
     73c:	8460                	exec.it	#50     !
     73e:	0ef77713          	andi	a4,a4,239
     742:	8444                	exec.it	#42     !
     744:	fb900713          	li	a4,-71
     748:	10e78023          	sb	a4,256(a5)
     74c:	10240783          	lb	a5,258(s0) # 80140102 <_DATA_LMA_START+0x6013bea2>
     750:	fe07fe5b          	bbs	a5,0,74c <pm_sleep_start+0x64>
     754:	10140783          	lb	a5,257(s0)
     758:	452d                	c.li	a0,11
     75a:	8000                	exec.it	#0     !
     75c:	8834                	exec.it	#29     !
     75e:	10f400a3          	sb	a5,257(s0)
     762:	320404a3          	sb	zero,809(s0)
     766:	33dd                	c.jal	54c <analog_read_reg8>
     768:	0fc57593          	andi	a1,a0,252
     76c:	452d                	c.li	a0,11
     76e:	3355                	c.jal	512 <analog_write_reg8>
     770:	8014                	exec.it	#9     !
     772:	3be9                	c.jal	54c <analog_read_reg8>
     774:	f8056593          	ori	a1,a0,-128
     778:	8814                	exec.it	#13     !
     77a:	08100513          	li	a0,129
     77e:	3b51                	c.jal	512 <analog_write_reg8>
     780:	f8000793          	li	a5,-128
     784:	1ef407a3          	sb	a5,495(s0)
     788:	03f00493          	li	s1,63
     78c:	00012423          	sw	zero,8(sp)
     790:	47a2                	c.lwsp	a5,8(sp)
     792:	00f4e763          	bltu	s1,a5,7a0 <pm_sleep_start+0xb8>
     796:	0001                	c.nop
     798:	47a2                	c.lwsp	a5,8(sp)
     79a:	0785                	c.addi	a5,1
     79c:	c43e                	c.swsp	a5,8(sp)
     79e:	bfcd                	c.j	790 <pm_sleep_start+0xa8>
     7a0:	8014                	exec.it	#9     !
     7a2:	336d                	c.jal	54c <analog_read_reg8>
     7a4:	07f57593          	andi	a1,a0,127
     7a8:	8014                	exec.it	#9     !
     7aa:	33a5                	c.jal	512 <analog_write_reg8>
     7ac:	452d                	c.li	a0,11
     7ae:	3b79                	c.jal	54c <analog_read_reg8>
     7b0:	00356593          	ori	a1,a0,3
     7b4:	8814                	exec.it	#13     !
     7b6:	452d                	c.li	a0,11
     7b8:	3ba9                	c.jal	512 <analog_write_reg8>
     7ba:	8200                	exec.it	#64     !
     7bc:	8060                	exec.it	#48     !
     7be:	8810                	exec.it	#5     !
     7c0:	8c00                	exec.it	#6     !
     7c2:	329784a3          	sb	s1,809(a5)
     7c6:	10178683          	lb	a3,257(a5)
     7ca:	8800                	exec.it	#4     !
     7cc:	0ef6f693          	andi	a3,a3,239
     7d0:	10d780a3          	sb	a3,257(a5)
     7d4:	fab00693          	li	a3,-85
     7d8:	10d78023          	sb	a3,256(a5)
     7dc:	10270783          	lb	a5,258(a4)
     7e0:	fe07fe5b          	bbs	a5,0,7dc <pm_sleep_start+0xf4>
     7e4:	8430                	exec.it	#19     !
     7e6:	12b00693          	li	a3,299
     7ea:	8000                	exec.it	#0     !
     7ec:	8834                	exec.it	#29     !
     7ee:	8024                	exec.it	#24     !
     7f0:	00012623          	sw	zero,12(sp)
     7f4:	47b2                	c.lwsp	a5,12(sp)
     7f6:	00f6e763          	bltu	a3,a5,804 <pm_sleep_start+0x11c>
     7fa:	0001                	c.nop
     7fc:	47b2                	c.lwsp	a5,12(sp)
     7fe:	0785                	c.addi	a5,1
     800:	c63e                	c.swsp	a5,12(sp)
     802:	bfcd                	c.j	7f4 <pm_sleep_start+0x10c>
     804:	8830                	exec.it	#21     !
     806:	8c10                	exec.it	#7     !
     808:	be757e5b          	bbc	a0,7,804 <pm_sleep_start+0x11c>
     80c:	8830                	exec.it	#21     !
     80e:	8c10                	exec.it	#7     !
     810:	be757e5b          	bbc	a0,7,80c <pm_sleep_start+0x124>
     814:	8830                	exec.it	#21     !
     816:	3b1d                	c.jal	54c <analog_read_reg8>
     818:	be757e5b          	bbc	a0,7,814 <pm_sleep_start+0x12c>
     81c:	35a1                	c.jal	664 <pm_wait_bbpll_done>
     81e:	0141                	c.addi	sp,16
     820:	0610206f          	j	3080 <__riscv_restore_0>

00000824 <dr_putchar>:
     824:	039022ef          	jal	t0,305c <__riscv_save_0>
     828:	3192990b          	addigp	s2,39704 # 8a318 <init_flag.5287>
     82c:	1141                	c.addi	sp,-16
     82e:	842a                	c.mv	s0,a0
     830:	00094783          	lbu	a5,0(s2)
     834:	0217ef5b          	bnec	a5,1,872 <dr_putchar+0x4e>
     838:	8020                	exec.it	#16     !
     83a:	30648783          	lb	a5,774(s1)
     83e:	4539                	c.li	a0,14
     840:	8000                	exec.it	#0     !
     842:	8034                	exec.it	#25     !
     844:	30f48323          	sb	a5,774(s1)
     848:	3311                	c.jal	54c <analog_read_reg8>
     84a:	0fc57593          	andi	a1,a0,252
     84e:	0015e593          	ori	a1,a1,1
     852:	4539                	c.li	a0,14
     854:	397d                	c.jal	512 <analog_write_reg8>
     856:	30248783          	lb	a5,770(s1)
     85a:	0fe7f793          	andi	a5,a5,254
     85e:	30f48123          	sb	a5,770(s1)
     862:	30348783          	lb	a5,771(s1)
     866:	8000                	exec.it	#0     !
     868:	8034                	exec.it	#25     !
     86a:	30f481a3          	sb	a5,771(s1)
     86e:	00090023          	sb	zero,0(s2)
     872:	8c00                	exec.it	#6     !
     874:	30378703          	lb	a4,771(a5)
     878:	30378783          	lb	a5,771(a5)
     87c:	0fe77713          	andi	a4,a4,254
     880:	8000                	exec.it	#0     !
     882:	8034                	exec.it	#25     !
     884:	00e10223          	sb	a4,4(sp)
     888:	86be                	c.mv	a3,a5
     88a:	4004735b          	bbs	s0,0,890 <dr_putchar+0x6c>
     88e:	86ba                	c.mv	a3,a4
     890:	00d102a3          	sb	a3,5(sp)
     894:	86be                	c.mv	a3,a5
     896:	4014735b          	bbs	s0,1,89c <dr_putchar+0x78>
     89a:	86ba                	c.mv	a3,a4
     89c:	00d10323          	sb	a3,6(sp)
     8a0:	86be                	c.mv	a3,a5
     8a2:	4024735b          	bbs	s0,2,8a8 <dr_putchar+0x84>
     8a6:	86ba                	c.mv	a3,a4
     8a8:	00d103a3          	sb	a3,7(sp)
     8ac:	86be                	c.mv	a3,a5
     8ae:	4034735b          	bbs	s0,3,8b4 <dr_putchar+0x90>
     8b2:	86ba                	c.mv	a3,a4
     8b4:	00d10423          	sb	a3,8(sp)
     8b8:	86be                	c.mv	a3,a5
     8ba:	4044735b          	bbs	s0,4,8c0 <dr_putchar+0x9c>
     8be:	86ba                	c.mv	a3,a4
     8c0:	00d104a3          	sb	a3,9(sp)
     8c4:	86be                	c.mv	a3,a5
     8c6:	4054735b          	bbs	s0,5,8cc <dr_putchar+0xa8>
     8ca:	86ba                	c.mv	a3,a4
     8cc:	00d10523          	sb	a3,10(sp)
     8d0:	86be                	c.mv	a3,a5
     8d2:	4064735b          	bbs	s0,6,8d8 <dr_putchar+0xb4>
     8d6:	86ba                	c.mv	a3,a4
     8d8:	00d105a3          	sb	a3,11(sp)
     8dc:	801d                	c.srli	s0,0x7
     8de:	c011                	c.beqz	s0,8e2 <dr_putchar+0xbe>
     8e0:	873e                	c.mv	a4,a5
     8e2:	00f106a3          	sb	a5,13(sp)
     8e6:	8c00                	exec.it	#6     !
     8e8:	00e10623          	sb	a4,12(sp)
     8ec:	08900593          	li	a1,137
     8f0:	2007a683          	lw	a3,512(a5)
     8f4:	8450                	exec.it	#35     !
     8f6:	4781                	c.li	a5,0
     8f8:	8736                	c.mv	a4,a3
     8fa:	a011                	c.j	8fe <dr_putchar+0xda>
     8fc:	8600                	exec.it	#66     !
     8fe:	40d70533          	sub	a0,a4,a3
     902:	fea5fde3          	bgeu	a1,a0,8fc <dr_putchar+0xd8>
     906:	0048                	c.addi4spn	a0,sp,4
     908:	00f506b3          	add	a3,a0,a5
     90c:	0006c683          	lbu	a3,0(a3)
     910:	0785                	c.addi	a5,1
     912:	30d601a3          	sb	a3,771(a2)
     916:	00a7d45b          	beqc	a5,10,91e <dr_putchar+0xfa>
     91a:	86ba                	c.mv	a3,a4
     91c:	bff1                	c.j	8f8 <dr_putchar+0xd4>
     91e:	0141                	c.addi	sp,16
     920:	7600206f          	j	3080 <__riscv_restore_0>

00000924 <pm_sleep_wakeup_ram.constprop.4>:
     924:	71e022ef          	jal	t0,3042 <__riscv_save_4>
     928:	00a00a33          	add	s4,zero,a0
     92c:	300029f3          	csrr	s3,mstatus
     930:	0089f993          	andi	s3,s3,8
     934:	00098463          	beqz	s3,93c <pm_sleep_wakeup_ram.constprop.4+0x18>
     938:	8c74                	exec.it	#63     !
     93a:	8410                	exec.it	#3     !
     93c:	801407b7          	lui	a5,0x80140
     940:	2147a683          	lw	a3,532(a5) # 80140214 <_DATA_LMA_START+0x6013bfb4>
     944:	def5                	c.beqz	a3,940 <pm_sleep_wakeup_ram.constprop.4+0x1c>
     946:	00000437          	lui	s0,0x0
     94a:	15840693          	addi	a3,s0,344 # 158 <_AES_VMA_END>
     94e:	2147a783          	lw	a5,532(a5)
     952:	52d8                	c.lw	a4,36(a3)
     954:	dadc                	c.sw	a5,52(a3)
     956:	15840413          	addi	s0,s0,344
     95a:	0792                	c.slli	a5,0x4
     95c:	cb11                	c.beqz	a4,970 <pm_sleep_wakeup_ram.constprop.4+0x4c>
     95e:	03844603          	lbu	a2,56(s0)
     962:	4691                	c.li	a3,4
     964:	8f99                	c.sub	a5,a4
     966:	8e91                	c.sub	a3,a2
     968:	40d7d7b3          	sra	a5,a5,a3
     96c:	00e787b3          	add	a5,a5,a4
     970:	d05c                	c.sw	a5,36(s0)
     972:	5044                	c.lw	s1,36(s0)
     974:	4c1c                	c.lw	a5,24(s0)
     976:	8491                	c.srai	s1,0x4
     978:	02f487b3          	mul	a5,s1,a5
     97c:	80140937          	lui	s2,0x80140
     980:	20092a83          	lw	s5,512(s2) # 80140200 <_DATA_LMA_START+0x6013bfa0>
     984:	e0000737          	lui	a4,0xe0000
     988:	415a0ab3          	sub	s5,s4,s5
     98c:	87c9                	c.srai	a5,0x12
     98e:	94be                	c.add	s1,a5
     990:	0486                	c.slli	s1,0x1
     992:	dc44                	c.sw	s1,60(s0)
     994:	01577c63          	bgeu	a4,s5,9ac <pm_sleep_wakeup_ram.constprop.4+0x88>
     998:	00098463          	beqz	s3,9a0 <pm_sleep_wakeup_ram.constprop.4+0x7c>
     99c:	8474                	exec.it	#59     !
     99e:	8410                	exec.it	#3     !
     9a0:	06400513          	li	a0,100
     9a4:	3665                	c.jal	54c <analog_read_reg8>
     9a6:	897d                	c.andi	a0,31
     9a8:	2100006f          	j	bb8 <pm_sleep_wakeup_ram.constprop.4+0x294>
     9ac:	04a41783          	lh	a5,74(s0)
     9b0:	1137a7db          	bfoz	a5,a5,4,19
     9b4:	02faf863          	bgeu	s5,a5,9e4 <pm_sleep_wakeup_ram.constprop.4+0xc0>
     9b8:	45fd                	c.li	a1,31
     9ba:	8c04                	exec.it	#14     !
     9bc:	8020                	exec.it	#16     !
     9be:	20092403          	lw	s0,512(s2)
     9c2:	3e81                	c.jal	512 <analog_write_reg8>
     9c4:	06400513          	li	a0,100
     9c8:	3651                	c.jal	54c <analog_read_reg8>
     9ca:	2004a783          	lw	a5,512(s1)
     9ce:	897d                	c.andi	a0,31
     9d0:	8f81                	c.sub	a5,s0
     9d2:	0157f363          	bgeu	a5,s5,9d8 <pm_sleep_wakeup_ram.constprop.4+0xb4>
     9d6:	d57d                	c.beqz	a0,9c4 <pm_sleep_wakeup_ram.constprop.4+0xa0>
     9d8:	1e098063          	beqz	s3,bb8 <pm_sleep_wakeup_ram.constprop.4+0x294>
     9dc:	8474                	exec.it	#59     !
     9de:	8410                	exec.it	#3     !
     9e0:	1d80006f          	j	bb8 <pm_sleep_wakeup_ram.constprop.4+0x294>
     9e4:	1e890a83          	lb	s5,488(s2)
     9e8:	00faf793          	andi	a5,s5,15
     9ec:	1ef90423          	sb	a5,488(s2)
     9f0:	1d890b03          	lb	s6,472(s2)
     9f4:	0f8b7793          	andi	a5,s6,248
     9f8:	1cf90c23          	sb	a5,472(s2)
     9fc:	4785                	c.li	a5,1
     9fe:	20f90c23          	sb	a5,536(s2)
     a02:	20a90783          	lb	a5,522(s2)
     a06:	0f77f793          	andi	a5,a5,247
     a0a:	20f90523          	sb	a5,522(s2)
     a0e:	3c95                	c.jal	482 <clock_get_32k_tick>
     a10:	20092703          	lw	a4,512(s2)
     a14:	20b90783          	lb	a5,523(s2)
     a18:	5454                	c.lw	a3,44(s0)
     a1a:	8000                	exec.it	#0     !
     a1c:	0027e793          	ori	a5,a5,2
     a20:	c468                	c.sw	a0,76(s0)
     a22:	c458                	c.sw	a4,12(s0)
     a24:	03844603          	lbu	a2,56(s0)
     a28:	40d506b3          	sub	a3,a0,a3
     a2c:	20f905a3          	sb	a5,523(s2)
     a30:	d814                	c.sw	a3,48(s0)
     a32:	e20d                	c.bnez	a2,a54 <pm_sleep_wakeup_ram.constprop.4+0x130>
     a34:	481c                	c.lw	a5,16(s0)
     a36:	cf99                	c.beqz	a5,a54 <pm_sleep_wakeup_ram.constprop.4+0x130>
     a38:	05044783          	lbu	a5,80(s0)
     a3c:	ef81                	c.bnez	a5,a54 <pm_sleep_wakeup_ram.constprop.4+0x130>
     a3e:	01442783          	lw	a5,20(s0)
     a42:	000276b7          	lui	a3,0x27
     a46:	8420                	exec.it	#18     !
     a48:	6c07a7db          	bfoz	a5,a5,27,0
     a4c:	10068693          	addi	a3,a3,256 # 27100 <BIN_SIZE+0x18b56>
     a50:	00f6f863          	bgeu	a3,a5,a60 <pm_sleep_wakeup_ram.constprop.4+0x13c>
     a54:	00176713          	ori	a4,a4,1
     a58:	02040c23          	sb	zero,56(s0)
     a5c:	c848                	c.sw	a0,20(s0)
     a5e:	c818                	c.sw	a4,16(s0)
     a60:	02000593          	li	a1,32
     a64:	04b00513          	li	a0,75
     a68:	346d                	c.jal	512 <analog_write_reg8>
     a6a:	45fd                	c.li	a1,31
     a6c:	8c04                	exec.it	#14     !
     a6e:	3455                	c.jal	512 <analog_write_reg8>
     a70:	03000593          	li	a1,48
     a74:	07e00513          	li	a0,126
     a78:	3c69                	c.jal	512 <analog_write_reg8>
     a7a:	0f900593          	li	a1,249
     a7e:	04d00513          	li	a0,77
     a82:	3c41                	c.jal	512 <analog_write_reg8>
     a84:	4585                	c.li	a1,1
     a86:	8844                	exec.it	#44     !
     a88:	3469                	c.jal	512 <analog_write_reg8>
     a8a:	04841783          	lh	a5,72(s0)
     a8e:	0ee00593          	li	a1,238
     a92:	1137a7db          	bfoz	a5,a5,4,19
     a96:	04c00513          	li	a0,76
     a9a:	40fa0933          	sub	s2,s4,a5
     a9e:	3c95                	c.jal	512 <analog_write_reg8>
     aa0:	05441583          	lh	a1,84(s0)
     aa4:	04000513          	li	a0,64
     aa8:	0ff5f593          	andi	a1,a1,255
     aac:	349d                	c.jal	512 <analog_write_reg8>
     aae:	481c                	c.lw	a5,16(s0)
     ab0:	07ff0737          	lui	a4,0x7ff0
     ab4:	40f907b3          	sub	a5,s2,a5
     ab8:	00f77663          	bgeu	a4,a5,ac4 <pm_sleep_wakeup_ram.constprop.4+0x1a0>
     abc:	4705                	c.li	a4,1
     abe:	00e40523          	sb	a4,10(s0)
     ac2:	a019                	c.j	ac8 <pm_sleep_wakeup_ram.constprop.4+0x1a4>
     ac4:	00040523          	sb	zero,10(s0)
     ac8:	00a44683          	lbu	a3,10(s0)
     acc:	4848                	c.lw	a0,20(s0)
     ace:	5c58                	c.lw	a4,60(s0)
     ad0:	c691                	c.beqz	a3,adc <pm_sleep_wakeup_ram.constprop.4+0x1b8>
     ad2:	02e7d7b3          	divu	a5,a5,a4
     ad6:	0796                	c.slli	a5,0x5
     ad8:	0100006f          	j	ae8 <pm_sleep_wakeup_ram.constprop.4+0x1c4>
     adc:	8085                	c.srli	s1,0x1
     ade:	0796                	c.slli	a5,0x5
     ae0:	009787b3          	add	a5,a5,s1
     ae4:	02e7d7b3          	divu	a5,a5,a4
     ae8:	953e                	c.add	a0,a5
     aea:	fbeff0ef          	jal	ra,2a8 <clock_set_32k_tick>
     aee:	8c04                	exec.it	#14     !
     af0:	3cb1                	c.jal	54c <analog_read_reg8>
     af2:	897d                	c.andi	a0,31
     af4:	e511                	c.bnez	a0,b00 <pm_sleep_wakeup_ram.constprop.4+0x1dc>
     af6:	3ecd                	c.jal	6e8 <pm_sleep_start>
     af8:	4585                	c.li	a1,1
     afa:	8844                	exec.it	#44     !
     afc:	a17ff0ef          	jal	ra,512 <analog_write_reg8>
     b00:	8800                	exec.it	#4     !
     b02:	02000793          	li	a5,32
     b06:	1ef707a3          	sb	a5,495(a4) # 7ff01ef <FLASH_SIZE+0x7ef01ef>
     b0a:	4789                	c.li	a5,2
     b0c:	20f70c23          	sb	a5,536(a4)
     b10:	8050                	exec.it	#33     !
     b12:	8000                	exec.it	#0     !
     b14:	8220                	exec.it	#80     !
     b16:	8840                	exec.it	#36     !
     b18:	32ad                	c.jal	482 <clock_get_32k_tick>
     b1a:	00a44783          	lbu	a5,10(s0)
     b1e:	cb99                	c.beqz	a5,b34 <pm_sleep_wakeup_ram.constprop.4+0x210>
     b20:	485c                	c.lw	a5,20(s0)
     b22:	5c54                	c.lw	a3,60(s0)
     b24:	8420                	exec.it	#18     !
     b26:	4818                	c.lw	a4,16(s0)
     b28:	0785                	c.addi	a5,1
     b2a:	8395                	c.srli	a5,0x5
     b2c:	c4d7977f          	maddr32	a4,a5,a3
     b30:	87ba                	c.mv	a5,a4
     b32:	a819                	c.j	b48 <pm_sleep_wakeup_ram.constprop.4+0x224>
     b34:	485c                	c.lw	a5,20(s0)
     b36:	5c58                	c.lw	a4,60(s0)
     b38:	40f507b3          	sub	a5,a0,a5
     b3c:	0785                	c.addi	a5,1
     b3e:	02e787b3          	mul	a5,a5,a4
     b42:	4818                	c.lw	a4,16(s0)
     b44:	8395                	c.srli	a5,0x5
     b46:	97ba                	c.add	a5,a4
     b48:	c45c                	c.sw	a5,12(s0)
     b4a:	485c                	c.lw	a5,20(s0)
     b4c:	4454                	c.lw	a3,12(s0)
     b4e:	8420                	exec.it	#18     !
     b50:	0785                	c.addi	a5,1
     b52:	0505                	c.addi	a0,1
     b54:	d41c                	c.sw	a5,40(s0)
     b56:	0685                	c.addi	a3,1
     b58:	d448                	c.sw	a0,44(s0)
     b5a:	8c00                	exec.it	#6     !
     b5c:	80140737          	lui	a4,0x80140
     b60:	20d7a023          	sw	a3,512(a5)
     b64:	20b70783          	lb	a5,523(a4) # 8014020b <_DATA_LMA_START+0x6013bfab>
     b68:	be77fe5b          	bbc	a5,7,b64 <pm_sleep_wakeup_ram.constprop.4+0x240>
     b6c:	20070c23          	sb	zero,536(a4)
     b70:	1d670c23          	sb	s6,472(a4)
     b74:	8c04                	exec.it	#14     !
     b76:	1f570423          	sb	s5,488(a4)
     b7a:	8c10                	exec.it	#7     !
     b7c:	3452970b          	addigp	a4,39748 # 8a344 <g_pm_status_info>
     b80:	00a700a3          	sb	a0,1(a4)
     b84:	3452978b          	addigp	a5,39748 # 8a344 <g_pm_status_info>
     b88:	00157c5b          	bbc	a0,1,ba0 <pm_sleep_wakeup_ram.constprop.4+0x27c>
     b8c:	80140637          	lui	a2,0x80140
     b90:	400006b7          	lui	a3,0x40000
     b94:	20062703          	lw	a4,512(a2) # 80140200 <_DATA_LMA_START+0x6013bfa0>
     b98:	41470733          	sub	a4,a4,s4
     b9c:	fee6ece3          	bltu	a3,a4,b94 <pm_sleep_wakeup_ram.constprop.4+0x270>
     ba0:	00098463          	beqz	s3,ba8 <pm_sleep_wakeup_ram.constprop.4+0x284>
     ba4:	8474                	exec.it	#59     !
     ba6:	8410                	exec.it	#3     !
     ba8:	0017c783          	lbu	a5,1(a5)
     bac:	10000513          	li	a0,256
     bb0:	c781                	c.beqz	a5,bb8 <pm_sleep_wakeup_ram.constprop.4+0x294>
     bb2:	40000537          	lui	a0,0x40000
     bb6:	8d5d                	c.or	a0,a5
     bb8:	4be0206f          	j	3076 <__riscv_restore_4>

00000bbc <trap_entry>:
     bbc:	1101                	c.addi	sp,-32
     bbe:	ce2a                	c.swsp	a0,28(sp)
     bc0:	cc2e                	c.swsp	a1,24(sp)
     bc2:	ca32                	c.swsp	a2,20(sp)
     bc4:	c836                	c.swsp	a3,16(sp)
     bc6:	c63a                	c.swsp	a4,12(sp)
     bc8:	c43e                	c.swsp	a5,8(sp)
     bca:	34202773          	csrr	a4,mcause
     bce:	8c20                	exec.it	#22     !
     bd0:	15878693          	addi	a3,a5,344
     bd4:	00468683          	lb	a3,4(a3) # 40000004 <_DATA_LMA_START+0x1fffbda4>
     bd8:	8470                	exec.it	#51     !
     bda:	0ff6f693          	andi	a3,a3,255
     bde:	c2a5                	c.beqz	a3,c3e <trap_entry+0x82>
     be0:	34102673          	csrr	a2,mepc
     be4:	300025f3          	csrr	a1,mstatus
     be8:	7c4026f3          	csrr	a3,mxstatus
     bec:	08075063          	bgez	a4,c6c <trap_entry+0xb0>
     bf0:	7807275b          	bfoz	a4,a4,30,0
     bf4:	0477695b          	bnec	a4,7,c46 <trap_entry+0x8a>
     bf8:	8c40                	exec.it	#38     !
     bfa:	8804                	exec.it	#12     !
     bfc:	c719                	c.beqz	a4,c0a <trap_entry+0x4e>
     bfe:	08000713          	li	a4,128
     c02:	30473773          	csrrc	a4,mie,a4
     c06:	30046773          	csrrsi	a4,mstatus,8
     c0a:	8c40                	exec.it	#38     !
     c0c:	8804                	exec.it	#12     !
     c0e:	c711                	c.beqz	a4,c1a <trap_entry+0x5e>
     c10:	8e00                	exec.it	#70     !
     c12:	08000713          	li	a4,128
     c16:	30472773          	csrrs	a4,mie,a4
     c1a:	8e10                	exec.it	#71     !
     c1c:	8000                	exec.it	#0     !
     c1e:	c799                	c.beqz	a5,c2c <trap_entry+0x70>
     c20:	30059073          	csrw	mstatus,a1
     c24:	34161073          	csrw	mepc,a2
     c28:	7c469073          	csrw	mxstatus,a3
     c2c:	4572                	c.lwsp	a0,28(sp)
     c2e:	45e2                	c.lwsp	a1,24(sp)
     c30:	4652                	c.lwsp	a2,20(sp)
     c32:	46c2                	c.lwsp	a3,16(sp)
     c34:	4732                	c.lwsp	a4,12(sp)
     c36:	47a2                	c.lwsp	a5,8(sp)
     c38:	6105                	c.addi16sp	sp,32
     c3a:	30200073          	mret
     c3e:	4681                	c.li	a3,0
     c40:	4581                	c.li	a1,0
     c42:	4601                	c.li	a2,0
     c44:	b765                	c.j	bec <trap_entry+0x30>
     c46:	0237635b          	bnec	a4,3,c6c <trap_entry+0xb0>
     c4a:	e6600737          	lui	a4,0xe6600
     c4e:	4358                	c.lw	a4,4(a4)
     c50:	8c40                	exec.it	#38     !
     c52:	8804                	exec.it	#12     !
     c54:	c319                	c.beqz	a4,c5a <trap_entry+0x9e>
     c56:	30046773          	csrrsi	a4,mstatus,8
     c5a:	8c40                	exec.it	#38     !
     c5c:	8804                	exec.it	#12     !
     c5e:	c311                	c.beqz	a4,c62 <trap_entry+0xa6>
     c60:	8e00                	exec.it	#70     !
     c62:	e6600737          	lui	a4,0xe6600
     c66:	4505                	c.li	a0,1
     c68:	c348                	c.sw	a0,4(a4)
     c6a:	bf45                	c.j	c1a <trap_entry+0x5e>
     c6c:	34302773          	csrr	a4,mtval
     c70:	32e2ceab          	swgp	a4,39740 # 8a33c <exception_mtval>
     c74:	34102773          	csrr	a4,mepc
     c78:	32e2caab          	swgp	a4,39732 # 8a334 <exception_mepc>
     c7c:	30002773          	csrr	a4,mstatus
     c80:	32e2ccab          	swgp	a4,39736 # 8a338 <exception_mstatus>
     c84:	34202773          	csrr	a4,mcause
     c88:	32e2c6ab          	swgp	a4,39724 # 8a32c <exception_mcause>
     c8c:	7c902773          	csrr	a4,mdcause
     c90:	32e2c8ab          	swgp	a4,39728 # 8a330 <exception_mdcause>
     c94:	0001                	c.nop
     c96:	bffd                	c.j	c94 <trap_entry+0xd8>
     c98:	0001                	c.nop
	...

00000d00 <__vectors>:
     d00:	0bbc                	c.addi4spn	a5,sp,472
     d02:	0000                	unimp
     d04:	1658                	c.addi4spn	a4,sp,804
     d06:	0000                	unimp
     d08:	1658                	c.addi4spn	a4,sp,804
     d0a:	0000                	unimp
     d0c:	1658                	c.addi4spn	a4,sp,804
     d0e:	0000                	unimp
     d10:	1658                	c.addi4spn	a4,sp,804
     d12:	0000                	unimp
     d14:	1658                	c.addi4spn	a4,sp,804
     d16:	0000                	unimp
     d18:	1658                	c.addi4spn	a4,sp,804
     d1a:	0000                	unimp
     d1c:	1658                	c.addi4spn	a4,sp,804
     d1e:	0000                	unimp
     d20:	1658                	c.addi4spn	a4,sp,804
     d22:	0000                	unimp
     d24:	1658                	c.addi4spn	a4,sp,804
     d26:	0000                	unimp
     d28:	1658                	c.addi4spn	a4,sp,804
     d2a:	0000                	unimp
     d2c:	1658                	c.addi4spn	a4,sp,804
     d2e:	0000                	unimp
     d30:	1658                	c.addi4spn	a4,sp,804
     d32:	0000                	unimp
     d34:	1658                	c.addi4spn	a4,sp,804
     d36:	0000                	unimp
     d38:	1658                	c.addi4spn	a4,sp,804
     d3a:	0000                	unimp
     d3c:	1658                	c.addi4spn	a4,sp,804
     d3e:	0000                	unimp
     d40:	1658                	c.addi4spn	a4,sp,804
     d42:	0000                	unimp
     d44:	1658                	c.addi4spn	a4,sp,804
     d46:	0000                	unimp
     d48:	1658                	c.addi4spn	a4,sp,804
     d4a:	0000                	unimp
     d4c:	1658                	c.addi4spn	a4,sp,804
     d4e:	0000                	unimp
     d50:	1658                	c.addi4spn	a4,sp,804
     d52:	0000                	unimp
     d54:	1658                	c.addi4spn	a4,sp,804
     d56:	0000                	unimp
     d58:	1658                	c.addi4spn	a4,sp,804
     d5a:	0000                	unimp
     d5c:	1658                	c.addi4spn	a4,sp,804
     d5e:	0000                	unimp
     d60:	1658                	c.addi4spn	a4,sp,804
     d62:	0000                	unimp
     d64:	1658                	c.addi4spn	a4,sp,804
     d66:	0000                	unimp
     d68:	1658                	c.addi4spn	a4,sp,804
     d6a:	0000                	unimp
     d6c:	1658                	c.addi4spn	a4,sp,804
     d6e:	0000                	unimp
     d70:	1658                	c.addi4spn	a4,sp,804
     d72:	0000                	unimp
     d74:	1658                	c.addi4spn	a4,sp,804
     d76:	0000                	unimp
     d78:	1658                	c.addi4spn	a4,sp,804
     d7a:	0000                	unimp
     d7c:	1658                	c.addi4spn	a4,sp,804
     d7e:	0000                	unimp
     d80:	1658                	c.addi4spn	a4,sp,804
     d82:	0000                	unimp
     d84:	1658                	c.addi4spn	a4,sp,804
     d86:	0000                	unimp
     d88:	1658                	c.addi4spn	a4,sp,804
     d8a:	0000                	unimp
     d8c:	1658                	c.addi4spn	a4,sp,804
     d8e:	0000                	unimp
     d90:	1658                	c.addi4spn	a4,sp,804
     d92:	0000                	unimp
     d94:	1658                	c.addi4spn	a4,sp,804
     d96:	0000                	unimp
     d98:	1658                	c.addi4spn	a4,sp,804
     d9a:	0000                	unimp
     d9c:	1658                	c.addi4spn	a4,sp,804
     d9e:	0000                	unimp
     da0:	1658                	c.addi4spn	a4,sp,804
     da2:	0000                	unimp
     da4:	1658                	c.addi4spn	a4,sp,804
     da6:	0000                	unimp
     da8:	1658                	c.addi4spn	a4,sp,804
     daa:	0000                	unimp
     dac:	1658                	c.addi4spn	a4,sp,804
     dae:	0000                	unimp
     db0:	1658                	c.addi4spn	a4,sp,804
     db2:	0000                	unimp
     db4:	1658                	c.addi4spn	a4,sp,804
     db6:	0000                	unimp
     db8:	1658                	c.addi4spn	a4,sp,804
     dba:	0000                	unimp
     dbc:	1658                	c.addi4spn	a4,sp,804
     dbe:	0000                	unimp
     dc0:	1658                	c.addi4spn	a4,sp,804
     dc2:	0000                	unimp
     dc4:	1658                	c.addi4spn	a4,sp,804
     dc6:	0000                	unimp
     dc8:	1658                	c.addi4spn	a4,sp,804
     dca:	0000                	unimp
     dcc:	1658                	c.addi4spn	a4,sp,804
     dce:	0000                	unimp
     dd0:	1658                	c.addi4spn	a4,sp,804
     dd2:	0000                	unimp
     dd4:	1658                	c.addi4spn	a4,sp,804
     dd6:	0000                	unimp
     dd8:	1658                	c.addi4spn	a4,sp,804
     dda:	0000                	unimp
     ddc:	1658                	c.addi4spn	a4,sp,804
     dde:	0000                	unimp
     de0:	1658                	c.addi4spn	a4,sp,804
     de2:	0000                	unimp
     de4:	1658                	c.addi4spn	a4,sp,804
     de6:	0000                	unimp
     de8:	1658                	c.addi4spn	a4,sp,804
     dea:	0000                	unimp
     dec:	1658                	c.addi4spn	a4,sp,804
     dee:	0000                	unimp
     df0:	1658                	c.addi4spn	a4,sp,804
     df2:	0000                	unimp
     df4:	1658                	c.addi4spn	a4,sp,804
     df6:	0000                	unimp
     df8:	1658                	c.addi4spn	a4,sp,804
     dfa:	0000                	unimp
     dfc:	1658                	c.addi4spn	a4,sp,804
     dfe:	0000                	unimp
     e00:	0001                	c.nop
	...

00000e04 <flash_read_uid.constprop.7>:
     e04:	8004                	exec.it	#8     !
     e06:	872a                	c.mv	a4,a0
     e08:	8c24                	exec.it	#30     !
     e0a:	47c1                	c.li	a5,16
     e0c:	4691                	c.li	a3,4
     e0e:	4601                	c.li	a2,0
     e10:	4581                	c.li	a1,0
     e12:	04b00513          	li	a0,75
     e16:	8a04                	exec.it	#76     !
     e18:	8824                	exec.it	#28     !
     e1a:	8404                	exec.it	#10     !

00000e1c <flash_read_mid>:
     e1c:	8004                	exec.it	#8     !
     e1e:	1141                	c.addi	sp,-16
     e20:	c602                	c.swsp	zero,12(sp)
     e22:	8c24                	exec.it	#30     !
     e24:	478d                	c.li	a5,3
     e26:	0078                	c.addi4spn	a4,sp,12
     e28:	4681                	c.li	a3,0
     e2a:	4601                	c.li	a2,0
     e2c:	4581                	c.li	a1,0
     e2e:	09f00513          	li	a0,159
     e32:	8a04                	exec.it	#76     !
     e34:	8824                	exec.it	#28     !
     e36:	4532                	c.lwsp	a0,12(sp)
     e38:	0141                	c.addi	sp,16
     e3a:	8404                	exec.it	#10     !

00000e3c <flash_read_mid_uid_with_check>:
     e3c:	220022ef          	jal	t0,305c <__riscv_save_0>
     e40:	1141                	c.addi	sp,-16
     e42:	842e                	c.mv	s0,a1
     e44:	84aa                	c.mv	s1,a0
     e46:	4641                	c.li	a2,16
     e48:	861f958b          	addigp	a1,-1952 # 80060 <cst_libm_sincosf+0x60>
     e4c:	850a                	c.mv	a0,sp
     e4e:	8230                	exec.it	#81     !
     e50:	37f1                	c.jal	e1c <flash_read_mid>
     e52:	77c1                	c.lui	a5,0xffff0
     e54:	17fd                	c.addi	a5,-1
     e56:	00146737          	lui	a4,0x146
     e5a:	c088                	c.sw	a0,0(s1)
     e5c:	8fe9                	c.and	a5,a0
     e5e:	08570713          	addi	a4,a4,133 # 146085 <FLASH_SIZE+0x46085>
     e62:	00e78963          	beq	a5,a4,e74 <flash_read_mid_uid_with_check+0x38>
     e66:	00166737          	lui	a4,0x166
     e6a:	08570713          	addi	a4,a4,133 # 166085 <FLASH_SIZE+0x66085>
     e6e:	4781                	c.li	a5,0
     e70:	02e51763          	bne	a0,a4,e9e <flash_read_mid_uid_with_check+0x62>
     e74:	8522                	c.mv	a0,s0
     e76:	3779                	c.jal	e04 <flash_read_uid.constprop.7>
     e78:	85a2                	c.mv	a1,s0
     e7a:	870a                	c.mv	a4,sp
     e7c:	01040693          	addi	a3,s0,16
     e80:	4781                	c.li	a5,0
     e82:	0005c503          	lbu	a0,0(a1)
     e86:	00074603          	lbu	a2,0(a4)
     e8a:	00c51363          	bne	a0,a2,e90 <flash_read_mid_uid_with_check+0x54>
     e8e:	0785                	c.addi	a5,1
     e90:	0585                	c.addi	a1,1
     e92:	0705                	c.addi	a4,1
     e94:	fed597e3          	bne	a1,a3,e82 <flash_read_mid_uid_with_check+0x46>
     e98:	17c1                	c.addi	a5,-16
     e9a:	00f037b3          	snez	a5,a5
     e9e:	853e                	c.mv	a0,a5
     ea0:	0141                	c.addi	sp,16
     ea2:	1de0206f          	j	3080 <__riscv_restore_0>

00000ea6 <flash_dread>:
     ea6:	8004                	exec.it	#8     !
     ea8:	87ae                	c.mv	a5,a1
     eaa:	8732                	c.mv	a4,a2
     eac:	8c24                	exec.it	#30     !
     eae:	4685                	c.li	a3,1
     eb0:	85aa                	c.mv	a1,a0
     eb2:	00100613          	li	a2,1
     eb6:	03b00513          	li	a0,59
     eba:	8a04                	exec.it	#76     !
     ebc:	8824                	exec.it	#28     !
     ebe:	8404                	exec.it	#10     !

00000ec0 <clock_init.constprop.10>:
     ec0:	8004                	exec.it	#8     !
     ec2:	8c24                	exec.it	#30     !
     ec4:	ec0ff0ef          	jal	ra,584 <clock_init_ram.constprop.11>
     ec8:	8824                	exec.it	#28     !
     eca:	8404                	exec.it	#10     !

00000ecc <pm_sleep_wakeup.constprop.3>:
     ecc:	8004                	exec.it	#8     !
     ece:	8c24                	exec.it	#30     !
     ed0:	a55ff0ef          	jal	ra,924 <pm_sleep_wakeup_ram.constprop.4>
     ed4:	8824                	exec.it	#28     !
     ed6:	8404                	exec.it	#10     !

00000ed8 <user_calib_adc_vref.constprop.9>:
     ed8:	8004                	exec.it	#8     !
     eda:	1141                	c.addi	sp,-16
     edc:	c402                	c.swsp	zero,8(sp)
     ede:	00011623          	sh	zero,12(sp)
     ee2:	00010723          	sb	zero,14(sp)
     ee6:	ed11                	c.bnez	a0,f02 <user_calib_adc_vref.constprop.9+0x2a>
     ee8:	8800                	exec.it	#4     !
     eea:	8c60                	exec.it	#54     !
     eec:	8a10                	exec.it	#69     !
     eee:	8210                	exec.it	#65     !
     ef0:	8074                	exec.it	#57     !
     ef2:	4c47a7db          	bfoz	a5,a5,19,4
     ef6:	3807a55b          	bfoz	a0,a5,14,0
     efa:	e92d                	c.bnez	a0,f6c <user_calib_adc_vref.constprop.9+0x94>
     efc:	4501                	c.li	a0,0
     efe:	0141                	c.addi	sp,16
     f00:	8404                	exec.it	#10     !
     f02:	8c20                	exec.it	#22     !
     f04:	1587a783          	lw	a5,344(a5) # ffff0158 <_DATA_LMA_START+0xdffebef8>
     f08:	0030                	c.addi4spn	a2,sp,8
     f0a:	459d                	c.li	a1,7
     f0c:	9782                	c.jalr	a5
     f0e:	00c14503          	lbu	a0,12(sp)
     f12:	1c0537db          	bfos	a5,a0,7,0
     f16:	0407c163          	bltz	a5,f58 <user_calib_adc_vref.constprop.9+0x80>
     f1a:	00e14783          	lbu	a5,14(sp)
     f1e:	00d14703          	lbu	a4,13(sp)
     f22:	07a2                	c.slli	a5,0x8
     f24:	66c1                	c.lui	a3,0x10
     f26:	00e78633          	add	a2,a5,a4
     f2a:	16fd                	c.addi	a3,-1
     f2c:	02d60663          	beq	a2,a3,f58 <user_calib_adc_vref.constprop.9+0x80>
     f30:	fd070713          	addi	a4,a4,-48
     f34:	97ba                	c.add	a5,a4
     f36:	3c07a7db          	bfoz	a5,a5,15,0
     f3a:	0fb00713          	li	a4,251
     f3e:	faf76fe3          	bltu	a4,a5,efc <user_calib_adc_vref.constprop.9+0x24>
     f42:	1531                	c.addi	a0,-20
     f44:	1c05355b          	bfos	a0,a0,7,0
     f48:	57b1                	c.li	a5,-20
     f4a:	faf509e3          	beq	a0,a5,efc <user_calib_adc_vref.constprop.9+0x24>
     f4e:	f9550513          	addi	a0,a0,-107 # 3fffff95 <_DATA_LMA_START+0x1fffbd35>
     f52:	00a03533          	snez	a0,a0
     f56:	b765                	c.j	efe <user_calib_adc_vref.constprop.9+0x26>
     f58:	8800                	exec.it	#4     !
     f5a:	8c60                	exec.it	#54     !
     f5c:	8a10                	exec.it	#69     !
     f5e:	8210                	exec.it	#65     !
     f60:	8074                	exec.it	#57     !
     f62:	4c47a7db          	bfoz	a5,a5,19,4
     f66:	3807a55b          	bfoz	a0,a5,14,0
     f6a:	c50d                	c.beqz	a0,f94 <user_calib_adc_vref.constprop.9+0xbc>
     f6c:	1ff7f793          	andi	a5,a5,511
     f70:	f9b78793          	addi	a5,a5,-101
     f74:	3c07a7db          	bfoz	a5,a5,15,0
     f78:	0c600713          	li	a4,198
     f7c:	f8f760e3          	bltu	a4,a5,efc <user_calib_adc_vref.constprop.9+0x24>
     f80:	8125                	c.srli	a0,0x9
     f82:	1531                	c.addi	a0,-20
     f84:	1c05355b          	bfos	a0,a0,7,0
     f88:	57b1                	c.li	a5,-20
     f8a:	f6f509e3          	beq	a0,a5,efc <user_calib_adc_vref.constprop.9+0x24>
     f8e:	fd550513          	addi	a0,a0,-43
     f92:	b7c1                	c.j	f52 <user_calib_adc_vref.constprop.9+0x7a>
     f94:	00814503          	lbu	a0,8(sp)
     f98:	00914783          	lbu	a5,9(sp)
     f9c:	953e                	c.add	a0,a5
     f9e:	f8050513          	addi	a0,a0,-128
     fa2:	3c05255b          	bfoz	a0,a0,15,0
     fa6:	0fc53513          	sltiu	a0,a0,252
     faa:	bf91                	c.j	efe <user_calib_adc_vref.constprop.9+0x26>

00000fac <core_interrupt_disable.lto_priv.19>:
     fac:	30002573          	csrr	a0,mstatus
     fb0:	8921                	c.andi	a0,8
     fb2:	c119                	c.beqz	a0,fb8 <core_interrupt_disable.lto_priv.19+0xc>
     fb4:	8c74                	exec.it	#63     !
     fb6:	8410                	exec.it	#3     !
     fb8:	8082                	c.jr	ra

00000fba <user_calib_freq_offset.constprop.8>:
     fba:	0a2022ef          	jal	t0,305c <__riscv_save_0>
     fbe:	1141                	c.addi	sp,-16
     fc0:	57fd                	c.li	a5,-1
     fc2:	00f107a3          	sb	a5,15(sp)
     fc6:	8c20                	exec.it	#22     !
     fc8:	1587a783          	lw	a5,344(a5)
     fcc:	00f10613          	addi	a2,sp,15
     fd0:	4585                	c.li	a1,1
     fd2:	9782                	c.jalr	a5
     fd4:	00f14403          	lbu	s0,15(sp)
     fd8:	0ff00793          	li	a5,255
     fdc:	4501                	c.li	a0,0
     fde:	00f40e63          	beq	s0,a5,ffa <user_calib_freq_offset.constprop.8+0x40>
     fe2:	08a00513          	li	a0,138
     fe6:	8c10                	exec.it	#7     !
     fe8:	03f47413          	andi	s0,s0,63
     fec:	04057593          	andi	a1,a0,64
     ff0:	8dc1                	c.or	a1,s0
     ff2:	08a00513          	li	a0,138
     ff6:	8810                	exec.it	#5     !
     ff8:	4505                	c.li	a0,1
     ffa:	0141                	c.addi	sp,16
     ffc:	0840206f          	j	3080 <__riscv_restore_0>

00001000 <gpio_input_dis>:
    1000:	8c00                	exec.it	#6     !
    1002:	30978703          	lb	a4,777(a5)
    1006:	fff54513          	not	a0,a0
    100a:	8d79                	c.and	a0,a4
    100c:	0ff57513          	andi	a0,a0,255
    1010:	30a784a3          	sb	a0,777(a5)
    1014:	8082                	c.jr	ra
	...

00001018 <sys_init.constprop.2>:
    1018:	044022ef          	jal	t0,305c <__riscv_save_0>
    101c:	ffbc07b7          	lui	a5,0xffbc0
    1020:	17fd                	c.addi	a5,-1
    1022:	8800                	exec.it	#4     !
    1024:	1ef72023          	sw	a5,480(a4)
    1028:	4589                	c.li	a1,2
    102a:	08c00513          	li	a0,140
    102e:	1ef72223          	sw	a5,484(a4)
    1032:	8810                	exec.it	#5     !
    1034:	4581                	c.li	a1,0
    1036:	4529                	c.li	a0,10
    1038:	8810                	exec.it	#5     !
    103a:	03b00593          	li	a1,59
    103e:	452d                	c.li	a0,11
    1040:	8810                	exec.it	#5     !
    1042:	4515                	c.li	a0,5
    1044:	8c10                	exec.it	#7     !
    1046:	0f757593          	andi	a1,a0,247
    104a:	4515                	c.li	a0,5
    104c:	8810                	exec.it	#5     !
    104e:	4519                	c.li	a0,6
    1050:	8c10                	exec.it	#7     !
    1052:	03e57593          	andi	a1,a0,62
    1056:	4519                	c.li	a0,6
    1058:	8810                	exec.it	#5     !
    105a:	04500593          	li	a1,69
    105e:	4505                	c.li	a0,1
    1060:	8810                	exec.it	#5     !
    1062:	04c00593          	li	a1,76
    1066:	01c00513          	li	a0,28
    106a:	8810                	exec.it	#5     !
    106c:	001007b7          	lui	a5,0x100
    1070:	44478693          	addi	a3,a5,1092 # 100444 <FLASH_SIZE+0x444>
    1074:	800005b7          	lui	a1,0x80000
    1078:	4e478713          	addi	a4,a5,1252
    107c:	00b6e633          	or	a2,a3,a1
    1080:	00060783          	lb	a5,0(a2)
    1084:	06d1                	c.addi	a3,20
    1086:	8000                	exec.it	#0     !
    1088:	00e7e793          	ori	a5,a5,14
    108c:	00f60023          	sb	a5,0(a2)
    1090:	fee696e3          	bne	a3,a4,107c <sys_init.constprop.2+0x64>
    1094:	801017b7          	lui	a5,0x80101
    1098:	83a78703          	lb	a4,-1990(a5) # 8010083a <_DATA_LMA_START+0x600fc5da>
    109c:	03800513          	li	a0,56
    10a0:	82078d23          	sb	zero,-1990(a5)
    10a4:	8c10                	exec.it	#7     !
    10a6:	842a                	c.mv	s0,a0
    10a8:	8434                	exec.it	#27     !
    10aa:	8c10                	exec.it	#7     !
    10ac:	84aa                	c.mv	s1,a0
    10ae:	0e04795b          	bbc	s0,0,11a0 <sys_init.constprop.2+0x188>
    10b2:	0fe47593          	andi	a1,s0,254
    10b6:	3452940b          	addigp	s0,39748 # 8a344 <g_pm_status_info>
    10ba:	03800513          	li	a0,56
    10be:	0c04f95b          	bbc	s1,0,1190 <sys_init.constprop.2+0x178>
    10c2:	4791                	c.li	a5,4
    10c4:	00f40123          	sb	a5,2(s0)
    10c8:	c4aff0ef          	jal	ra,512 <analog_write_reg8>
    10cc:	00100593          	li	a1,1
    10d0:	8844                	exec.it	#44     !
    10d2:	8810                	exec.it	#5     !
    10d4:	8c04                	exec.it	#14     !
    10d6:	8c10                	exec.it	#7     !
    10d8:	0c3527db          	bfoz	a5,a0,3,3
    10dc:	00a400a3          	sb	a0,1(s0)
    10e0:	00f40023          	sb	a5,0(s0)
    10e4:	8830                	exec.it	#21     !
    10e6:	8c10                	exec.it	#7     !
    10e8:	be757e5b          	bbc	a0,7,10e4 <sys_init.constprop.2+0xcc>
    10ec:	d78ff0ef          	jal	ra,664 <pm_wait_bbpll_done>
    10f0:	00244783          	lbu	a5,2(s0)
    10f4:	0887d85b          	beqc	a5,8,1184 <sys_init.constprop.2+0x16c>
    10f8:	8800                	exec.it	#4     !
    10fa:	8050                	exec.it	#33     !
    10fc:	8000                	exec.it	#0     !
    10fe:	8220                	exec.it	#80     !
    1100:	20f70523          	sb	a5,522(a4)
    1104:	00100793          	li	a5,1
    1108:	20f72023          	sw	a5,512(a4)
    110c:	8020                	exec.it	#16     !
    110e:	1fd48783          	lb	a5,509(s1)
    1112:	8000                	exec.it	#0     !
    1114:	34f2c0ab          	swgp	a5,39744 # 8a340 <g_chip_version>
    1118:	00244703          	lbu	a4,2(s0)
    111c:	0447525b          	beqc	a4,4,1160 <sys_init.constprop.2+0x148>
    1120:	0ff00693          	li	a3,255
    1124:	02d78863          	beq	a5,a3,1154 <sys_init.constprop.2+0x13c>
    1128:	8200                	exec.it	#64     !
    112a:	8060                	exec.it	#48     !
    112c:	8810                	exec.it	#5     !
    112e:	8800                	exec.it	#4     !
    1130:	8c60                	exec.it	#54     !
    1132:	8a10                	exec.it	#69     !
    1134:	8210                	exec.it	#65     !
    1136:	8074                	exec.it	#57     !
    1138:	8bbd                	c.andi	a5,15
    113a:	0037d55b          	beqc	a5,3,1144 <sys_init.constprop.2+0x12c>
    113e:	4725                	c.li	a4,9
    1140:	04f77663          	bgeu	a4,a5,118c <sys_init.constprop.2+0x174>
    1144:	801407b7          	lui	a5,0x80140
    1148:	02000713          	li	a4,32
    114c:	1ee787a3          	sb	a4,495(a5) # 801401ef <_DATA_LMA_START+0x6013bf8f>
    1150:	0000006f          	j	1150 <sys_init.constprop.2+0x138>
    1154:	bc176a5b          	bnec	a4,1,1128 <sys_init.constprop.2+0x110>
    1158:	8060                	exec.it	#48     !
    115a:	8200                	exec.it	#64     !
    115c:	0100006f          	j	116c <sys_init.constprop.2+0x154>
    1160:	8434                	exec.it	#27     !
    1162:	8c10                	exec.it	#7     !
    1164:	00256593          	ori	a1,a0,2
    1168:	8814                	exec.it	#13     !
    116a:	8434                	exec.it	#27     !
    116c:	ba6ff0ef          	jal	ra,512 <analog_write_reg8>
    1170:	2004a503          	lw	a0,512(s1)
    1174:	001877b7          	lui	a5,0x187
    1178:	a0078793          	addi	a5,a5,-1536 # 186a00 <FLASH_SIZE+0x86a00>
    117c:	953e                	c.add	a0,a5
    117e:	33b9                	c.jal	ecc <pm_sleep_wakeup.constprop.3>
    1180:	fa9ff06f          	j	1128 <sys_init.constprop.2+0x110>
    1184:	b18ff0ef          	jal	ra,49c <pm_stimer_recover>
    1188:	f85ff06f          	j	110c <sys_init.constprop.2+0xf4>
    118c:	6f50106f          	j	3080 <__riscv_restore_0>
    1190:	4785                	c.li	a5,1
    1192:	8e14                	exec.it	#79     !
    1194:	8810                	exec.it	#5     !
    1196:	0014e593          	ori	a1,s1,1
    119a:	8814                	exec.it	#13     !
    119c:	8434                	exec.it	#27     !
    119e:	b72d                	c.j	10c8 <sys_init.constprop.2+0xb0>
    11a0:	8844                	exec.it	#44     !
    11a2:	8c10                	exec.it	#7     !
    11a4:	3452940b          	addigp	s0,39748 # 8a344 <g_pm_status_info>
    11a8:	47a1                	c.li	a5,8
    11aa:	0005755b          	bbc	a0,0,11b4 <sys_init.constprop.2+0x19c>
    11ae:	47c1                	c.li	a5,16
    11b0:	4014f65b          	bbs	s1,1,11bc <sys_init.constprop.2+0x1a4>
    11b4:	00f40123          	sb	a5,2(s0)
    11b8:	f15ff06f          	j	10cc <sys_init.constprop.2+0xb4>
    11bc:	0fd4f593          	andi	a1,s1,253
    11c0:	8434                	exec.it	#27     !
    11c2:	02000793          	li	a5,32
    11c6:	bdfd                	c.j	10c4 <sys_init.constprop.2+0xac>
    11c8:	0001                	c.nop

000011ca <_write>:
    11ca:	693012ef          	jal	t0,305c <__riscv_save_0>
    11ce:	1141                	c.addi	sp,-16
    11d0:	842e                	c.mv	s0,a1
    11d2:	40b407b3          	sub	a5,s0,a1
    11d6:	00c7c863          	blt	a5,a2,11e6 <_write+0x1c>
    11da:	4501                	c.li	a0,0
    11dc:	f2a6057f          	maxw	a0,a2,a0
    11e0:	0141                	c.addi	sp,16
    11e2:	69f0106f          	j	3080 <__riscv_restore_0>
    11e6:	00044503          	lbu	a0,0(s0)
    11ea:	c632                	c.swsp	a2,12(sp)
    11ec:	c42e                	c.swsp	a1,8(sp)
    11ee:	e36ff0ef          	jal	ra,824 <dr_putchar>
    11f2:	0405                	c.addi	s0,1
    11f4:	4632                	c.lwsp	a2,12(sp)
    11f6:	45a2                	c.lwsp	a1,8(sp)
    11f8:	bfe9                	c.j	11d2 <_write+0x8>

000011fa <main>:
    11fa:	8204                	exec.it	#72     !
    11fc:	7155                	c.addi16sp	sp,-208
    11fe:	e7a2                	c.fswsp	fs0,204(sp)
    1200:	e5a6                	c.fswsp	fs1,200(sp)
    1202:	e3ca                	c.fswsp	fs2,196(sp)
    1204:	e1ce                	c.fswsp	fs3,192(sp)
    1206:	3d09                	c.jal	1018 <sys_init.constprop.2>
    1208:	453d                	c.li	a0,15
    120a:	8c10                	exec.it	#7     !
    120c:	03f57593          	andi	a1,a0,63
    1210:	0405e593          	ori	a1,a1,64
    1214:	453d                	c.li	a0,15
    1216:	8810                	exec.it	#5     !
    1218:	092c                	c.addi4spn	a1,sp,152
    121a:	1888                	c.addi4spn	a0,sp,112
    121c:	3105                	c.jal	e3c <flash_read_mid_uid_with_check>
    121e:	0ff57513          	andi	a0,a0,255
    1222:	2415645b          	bnec	a0,1,146a <main+0x270>
    1226:	07210783          	lb	a5,114(sp)
    122a:	4719                	c.li	a4,6
    122c:	17c1                	c.addi	a5,-16
    122e:	8000                	exec.it	#0     !
    1230:	22f76d63          	bltu	a4,a5,146a <main+0x270>
    1234:	845f970b          	addigp	a4,-1980 # 80044 <cst_libm_sincosf+0x44>
    1238:	0cf707db          	lea.w	a5,a4,a5
    123c:	439c                	c.lw	a5,0(a5)
    123e:	8782                	c.jr	a5
    1240:	6539                	c.lui	a0,0xe
    1242:	8820                	exec.it	#20     !
    1244:	3951                	c.jal	ed8 <user_calib_adc_vref.constprop.9>
    1246:	6539                	c.lui	a0,0xe
    1248:	3b8d                	c.jal	fba <user_calib_freq_offset.constprop.8>
    124a:	80140437          	lui	s0,0x80140
    124e:	398d                	c.jal	ec0 <clock_init.constprop.10>
    1250:	8c34                	exec.it	#31     !
    1252:	11000513          	li	a0,272
    1256:	8000                	exec.it	#0     !
    1258:	8834                	exec.it	#29     !
    125a:	8c70                	exec.it	#55     !
    125c:	8070                	exec.it	#49     !
    125e:	0ef7f793          	andi	a5,a5,239
    1262:	8454                	exec.it	#43     !
    1264:	3b71                	c.jal	1000 <gpio_input_dis>
    1266:	8c34                	exec.it	#31     !
    1268:	12000513          	li	a0,288
    126c:	8000                	exec.it	#0     !
    126e:	0207e793          	ori	a5,a5,32
    1272:	8c70                	exec.it	#55     !
    1274:	8070                	exec.it	#49     !
    1276:	3292948b          	addigp	s1,39720 # 8a328 <_DATA_VMA_END>
    127a:	0df7f793          	andi	a5,a5,223
    127e:	8454                	exec.it	#43     !
    1280:	3341                	c.jal	1000 <gpio_input_dis>
    1282:	8c34                	exec.it	#31     !
    1284:	14000513          	li	a0,320
    1288:	8000                	exec.it	#0     !
    128a:	0407e793          	ori	a5,a5,64
    128e:	8c70                	exec.it	#55     !
    1290:	8070                	exec.it	#49     !
    1292:	0bf7f793          	andi	a5,a5,191
    1296:	8454                	exec.it	#43     !
    1298:	33a5                	c.jal	1000 <gpio_input_dis>
    129a:	8c34                	exec.it	#31     !
    129c:	18000513          	li	a0,384
    12a0:	f807e793          	ori	a5,a5,-128
    12a4:	8000                	exec.it	#0     !
    12a6:	8c70                	exec.it	#55     !
    12a8:	8070                	exec.it	#49     !
    12aa:	871f998b          	addigp	s3,-1936 # 80070 <FFT_SIZES>
    12ae:	07f7f793          	andi	a5,a5,127
    12b2:	8454                	exec.it	#43     !
    12b4:	33b1                	c.jal	1000 <gpio_input_dis>
    12b6:	00080537          	lui	a0,0x80
    12ba:	08850513          	addi	a0,a0,136 # 80088 <FFT_SIZES+0x18>
    12be:	024020ef          	jal	ra,32e2 <puts>
    12c2:	65a9                	c.lui	a1,0xa
    12c4:	00080537          	lui	a0,0x80
    12c8:	0585                	c.addi	a1,1
    12ca:	08c50513          	addi	a0,a0,140 # 8008c <FFT_SIZES+0x1c>
    12ce:	8010                	exec.it	#1     !
    12d0:	00080537          	lui	a0,0x80
    12d4:	7e400593          	li	a1,2020
    12d8:	0a450513          	addi	a0,a0,164 # 800a4 <FFT_SIZES+0x34>
    12dc:	8010                	exec.it	#1     !
    12de:	000805b7          	lui	a1,0x80
    12e2:	00080537          	lui	a0,0x80
    12e6:	0bc58593          	addi	a1,a1,188 # 800bc <FFT_SIZES+0x4c>
    12ea:	0c850513          	addi	a0,a0,200 # 800c8 <FFT_SIZES+0x58>
    12ee:	8010                	exec.it	#1     !
    12f0:	f11fe0ef          	jal	ra,200 <delay_ms.constprop.12>
    12f4:	3965                	c.jal	fac <core_interrupt_disable.lto_priv.19>
    12f6:	31f2a50b          	lbugp	a0,39710 # 8a31e <sys_clk+0x2>
    12fa:	00080437          	lui	s0,0x80
    12fe:	0a3010ef          	jal	ra,2ba0 <__floatsidf>
    1302:	000807b7          	lui	a5,0x80
    1306:	02078793          	addi	a5,a5,32 # 80020 <cst_libm_sincosf+0x20>
    130a:	4390                	c.lw	a2,0(a5)
    130c:	43d4                	c.lw	a3,4(a5)
    130e:	4c01                	c.li	s8,0
    1310:	8610                	exec.it	#67     !
    1312:	7f6010ef          	jal	ra,2b08 <__fixunsdfsi>
    1316:	c088                	c.sw	a0,0(s1)
    1318:	8440                	exec.it	#34     !
    131a:	8010                	exec.it	#1     !
    131c:	00080537          	lui	a0,0x80
    1320:	0f050513          	addi	a0,a0,240 # 800f0 <FFT_SIZES+0x80>
    1324:	8010                	exec.it	#1     !
    1326:	8440                	exec.it	#34     !
    1328:	8010                	exec.it	#1     !
    132a:	408c                	c.lw	a1,0(s1)
    132c:	00080537          	lui	a0,0x80
    1330:	12050513          	addi	a0,a0,288 # 80120 <FFT_SIZES+0xb0>
    1334:	8010                	exec.it	#1     !
    1336:	8440                	exec.it	#34     !
    1338:	8010                	exec.it	#1     !
    133a:	00080537          	lui	a0,0x80
    133e:	14050513          	addi	a0,a0,320 # 80140 <FFT_SIZES+0xd0>
    1342:	8010                	exec.it	#1     !
    1344:	8440                	exec.it	#34     !
    1346:	8010                	exec.it	#1     !
    1348:	00080537          	lui	a0,0x80
    134c:	16850513          	addi	a0,a0,360 # 80168 <FFT_SIZES+0xf8>
    1350:	8010                	exec.it	#1     !
    1352:	000807b7          	lui	a5,0x80
    1356:	0387a487          	flw	fs1,56(a5) # 80038 <cst_libm_sincosf+0x38>
    135a:	000807b7          	lui	a5,0x80
    135e:	03c7a907          	flw	fs2,60(a5) # 8003c <cst_libm_sincosf+0x3c>
    1362:	8c44                	exec.it	#46     !
    1364:	0407a987          	flw	fs3,64(a5)
    1368:	32929b0b          	addigp	s6,39720 # 8a328 <_DATA_VMA_END>
    136c:	c222                	c.swsp	s0,4(sp)
    136e:	0009a403          	lw	s0,0(s3)
    1372:	00241c93          	slli	s9,s0,0x2
    1376:	8566                	c.mv	a0,s9
    1378:	8c54                	exec.it	#47     !
    137a:	892a                	c.mv	s2,a0
    137c:	8566                	c.mv	a0,s9
    137e:	8c54                	exec.it	#47     !
    1380:	00141d13          	slli	s10,s0,0x1
    1384:	8aaa                	c.mv	s5,a0
    1386:	856a                	c.mv	a0,s10
    1388:	8c54                	exec.it	#47     !
    138a:	84aa                	c.mv	s1,a0
    138c:	856a                	c.mv	a0,s10
    138e:	8c54                	exec.it	#47     !
    1390:	8a2a                	c.mv	s4,a0
    1392:	00090663          	beqz	s2,139e <main+0x1a4>
    1396:	000a8463          	beqz	s5,139e <main+0x1a4>
    139a:	c091                	c.beqz	s1,139e <main+0x1a4>
    139c:	e519                	c.bnez	a0,13aa <main+0x1b0>
    139e:	000806b7          	lui	a3,0x80
    13a2:	85a2                	c.mv	a1,s0
    13a4:	19068513          	addi	a0,a3,400 # 80190 <FFT_SIZES+0x120>
    13a8:	8010                	exec.it	#1     !
    13aa:	00080db7          	lui	s11,0x80
    13ae:	00080bb7          	lui	s7,0x80
    13b2:	8756                	c.mv	a4,s5
    13b4:	4781                	c.li	a5,0
    13b6:	028d8d93          	addi	s11,s11,40 # 80028 <cst_libm_sincosf+0x28>
    13ba:	030b8b93          	addi	s7,s7,48 # 80030 <cst_libm_sincosf+0x30>
    13be:	0a87c963          	blt	a5,s0,1470 <main+0x276>
    13c2:	3c0425db          	bfoz	a1,s0,15,0
    13c6:	0808                	c.addi4spn	a0,sp,16
    13c8:	595000ef          	jal	ra,215c <riscv_cfft_init_q15>
    13cc:	85a2                	c.mv	a1,s0
    13ce:	0e050163          	beqz	a0,14b0 <main+0x2b6>
    13d2:	00080537          	lui	a0,0x80
    13d6:	1c050513          	addi	a0,a0,448 # 801c0 <FFT_SIZES+0x150>
    13da:	8010                	exec.it	#1     !
    13dc:	854a                	c.mv	a0,s2
    13de:	8040                	exec.it	#32     !
    13e0:	8556                	c.mv	a0,s5
    13e2:	8040                	exec.it	#32     !
    13e4:	8526                	c.mv	a0,s1
    13e6:	8040                	exec.it	#32     !
    13e8:	8552                	c.mv	a0,s4
    13ea:	0c05                	c.addi	s8,1
    13ec:	8040                	exec.it	#32     !
    13ee:	0991                	c.addi	s3,4
    13f0:	b66c6f5b          	bnec	s8,6,136e <main+0x174>
    13f4:	00080537          	lui	a0,0x80
    13f8:	32c50513          	addi	a0,a0,812 # 8032c <FFT_SIZES+0x2bc>
    13fc:	8010                	exec.it	#1     !
    13fe:	4492                	c.lwsp	s1,4(sp)
    1400:	35448513          	addi	a0,s1,852
    1404:	8010                	exec.it	#1     !
    1406:	00080537          	lui	a0,0x80
    140a:	35850513          	addi	a0,a0,856 # 80358 <FFT_SIZES+0x2e8>
    140e:	8010                	exec.it	#1     !
    1410:	00080537          	lui	a0,0x80
    1414:	37450513          	addi	a0,a0,884 # 80374 <FFT_SIZES+0x304>
    1418:	8010                	exec.it	#1     !
    141a:	643e                	c.flwsp	fs0,204(sp)
    141c:	64ae                	c.flwsp	fs1,200(sp)
    141e:	691e                	c.flwsp	fs2,196(sp)
    1420:	698e                	c.flwsp	fs3,192(sp)
    1422:	4501                	c.li	a0,0
    1424:	6169                	c.addi16sp	sp,208
    1426:	8e04                	exec.it	#78     !
    1428:	6579                	c.lui	a0,0x1e
    142a:	8820                	exec.it	#20     !
    142c:	8030                	exec.it	#17     !
    142e:	6579                	c.lui	a0,0x1e
    1430:	bd21                	c.j	1248 <main+0x4e>
    1432:	0007e537          	lui	a0,0x7e
    1436:	8820                	exec.it	#20     !
    1438:	8030                	exec.it	#17     !
    143a:	0007e537          	lui	a0,0x7e
    143e:	b529                	c.j	1248 <main+0x4e>
    1440:	000fe537          	lui	a0,0xfe
    1444:	8820                	exec.it	#20     !
    1446:	8030                	exec.it	#17     !
    1448:	000fe537          	lui	a0,0xfe
    144c:	bbf5                	c.j	1248 <main+0x4e>
    144e:	001fe537          	lui	a0,0x1fe
    1452:	8820                	exec.it	#20     !
    1454:	8030                	exec.it	#17     !
    1456:	001fe537          	lui	a0,0x1fe
    145a:	b3fd                	c.j	1248 <main+0x4e>
    145c:	003fe537          	lui	a0,0x3fe
    1460:	8820                	exec.it	#20     !
    1462:	8030                	exec.it	#17     !
    1464:	003fe537          	lui	a0,0x3fe
    1468:	b3c5                	c.j	1248 <main+0x4e>
    146a:	4501                	c.li	a0,0
    146c:	8030                	exec.it	#17     !
    146e:	bbf1                	c.j	124a <main+0x50>
    1470:	853e                	c.mv	a0,a5
    1472:	c43a                	c.swsp	a4,8(sp)
    1474:	c03e                	c.swsp	a5,0(sp)
    1476:	72a010ef          	jal	ra,2ba0 <__floatsidf>
    147a:	000da603          	lw	a2,0(s11)
    147e:	004da683          	lw	a3,4(s11)
    1482:	8610                	exec.it	#67     !
    1484:	004ba683          	lw	a3,4(s7)
    1488:	000ba603          	lw	a2,0(s7)
    148c:	8610                	exec.it	#67     !
    148e:	09f010ef          	jal	ra,2d2c <__truncdfsf2>
    1492:	59f000ef          	jal	ra,2230 <sinf>
    1496:	10957553          	fmul.s	fa0,fa0,fs1
    149a:	4722                	c.lwsp	a4,8(sp)
    149c:	4782                	c.lwsp	a5,0(sp)
    149e:	00071123          	sh	zero,2(a4)
    14a2:	0785                	c.addi	a5,1
    14a4:	c00516d3          	fcvt.w.s	a3,fa0,rtz
    14a8:	0711                	c.addi	a4,4
    14aa:	fed71e23          	sh	a3,-4(a4)
    14ae:	bf01                	c.j	13be <main+0x1c4>
    14b0:	00080537          	lui	a0,0x80
    14b4:	1dc50513          	addi	a0,a0,476 # 801dc <FFT_SIZES+0x16c>
    14b8:	8010                	exec.it	#1     !
    14ba:	aaaabbb7          	lui	s7,0xaaaab
    14be:	4605                	c.li	a2,1
    14c0:	4d81                	c.li	s11,0
    14c2:	aaab8b93          	addi	s7,s7,-1366 # aaaaaaaa <_DATA_LMA_START+0x8aaa684a>
    14c6:	c032                	c.swsp	a2,0(sp)
    14c8:	8666                	c.mv	a2,s9
    14ca:	85d6                	c.mv	a1,s5
    14cc:	854a                	c.mv	a0,s2
    14ce:	8230                	exec.it	#81     !
    14d0:	4685                	c.li	a3,1
    14d2:	4601                	c.li	a2,0
    14d4:	85ca                	c.mv	a1,s2
    14d6:	0808                	c.addi4spn	a0,sp,16
    14d8:	29e5                	c.jal	19d0 <riscv_cfft_q15>
    14da:	868a                	c.mv	a3,sp
    14dc:	0009f737          	lui	a4,0x9f
    14e0:	08d76963          	bltu	a4,a3,1572 <main+0x378>
    14e4:	b0005073          	csrwi	mcycle,0
    14e8:	b0205073          	csrwi	minstret,0
    14ec:	b00026f3          	csrr	a3,mcycle
    14f0:	c636                	c.swsp	a3,12(sp)
    14f2:	b0202773          	csrr	a4,minstret
    14f6:	8622                	c.mv	a2,s0
    14f8:	85a6                	c.mv	a1,s1
    14fa:	854a                	c.mv	a0,s2
    14fc:	c43a                	c.swsp	a4,8(sp)
    14fe:	228d                	c.jal	1660 <riscv_cmplx_mag_q15>
    1500:	b0002673          	csrr	a2,mcycle
    1504:	b0202573          	csrr	a0,minstret
    1508:	46b2                	c.lwsp	a3,12(sp)
    150a:	4722                	c.lwsp	a4,8(sp)
    150c:	8e15                	c.sub	a2,a3
    150e:	8d19                	c.sub	a0,a4
    1510:	858a                	c.mv	a1,sp
    1512:	0009f6b7          	lui	a3,0x9f
    1516:	00b6f563          	bgeu	a3,a1,1520 <main+0x326>
    151a:	4298                	c.lw	a4,0(a3)
    151c:	05770f63          	beq	a4,s7,157a <main+0x380>
    1520:	000b2703          	lw	a4,0(s6)
    1524:	d01677d3          	fcvt.s.wu	fa5,a2
    1528:	101c                	c.addi4spn	a5,sp,32
    152a:	40d586b3          	sub	a3,a1,a3
    152e:	d0177753          	fcvt.s.wu	fa4,a4
    1532:	002d9713          	slli	a4,s11,0x2
    1536:	00e78833          	add	a6,a5,a4
    153a:	00c82023          	sw	a2,0(a6)
    153e:	00b0                	c.addi4spn	a2,sp,72
    1540:	963a                	c.add	a2,a4
    1542:	18e7f7d3          	fdiv.s	fa5,fa5,fa4
    1546:	c208                	c.sw	a0,0(a2)
    1548:	1890                	c.addi4spn	a2,sp,112
    154a:	963a                	c.add	a2,a4
    154c:	c214                	c.sw	a3,0(a2)
    154e:	0934                	c.addi4spn	a3,sp,152
    1550:	9736                	c.add	a4,a3
    1552:	1127f7d3          	fmul.s	fa5,fa5,fs2
    1556:	e31c                	c.fsw	fa5,0(a4)
    1558:	020d9363          	bnez	s11,157e <main+0x384>
    155c:	866a                	c.mv	a2,s10
    155e:	85a6                	c.mv	a1,s1
    1560:	8552                	c.mv	a0,s4
    1562:	8230                	exec.it	#81     !
    1564:	00080537          	lui	a0,0x80
    1568:	1ec50513          	addi	a0,a0,492 # 801ec <FFT_SIZES+0x17c>
    156c:	8010                	exec.it	#1     !
    156e:	4d85                	c.li	s11,1
    1570:	bfa1                	c.j	14c8 <main+0x2ce>
    1572:	01772023          	sw	s7,0(a4) # 9f000 <_end+0x14c70>
    1576:	0711                	c.addi	a4,4
    1578:	b7a5                	c.j	14e0 <main+0x2e6>
    157a:	0691                	c.addi	a3,4
    157c:	bf69                	c.j	1516 <main+0x31c>
    157e:	8626                	c.mv	a2,s1
    1580:	85d2                	c.mv	a1,s4
    1582:	4681                	c.li	a3,0
    1584:	4505                	c.li	a0,1
    1586:	0a86c263          	blt	a3,s0,162a <main+0x430>
    158a:	0d85                	c.addi	s11,1
    158c:	b2adee5b          	bnec	s11,10,14c8 <main+0x2ce>
    1590:	4682                	c.lwsp	a3,0(sp)
    1592:	85a2                	c.mv	a1,s0
    1594:	cecd                	c.beqz	a3,164e <main+0x454>
    1596:	00080537          	lui	a0,0x80
    159a:	21c50513          	addi	a0,a0,540 # 8021c <FFT_SIZES+0x1ac>
    159e:	8010                	exec.it	#1     !
    15a0:	4781                	c.li	a5,0
    15a2:	f0000453          	fmv.w.x	fs0,zero
    15a6:	4b81                	c.li	s7,0
    15a8:	4c81                	c.li	s9,0
    15aa:	4d01                	c.li	s10,0
    15ac:	1014                	c.addi4spn	a3,sp,32
    15ae:	00f68733          	add	a4,a3,a5
    15b2:	4318                	c.lw	a4,0(a4)
    15b4:	00b0                	c.addi4spn	a2,sp,72
    15b6:	9d3a                	c.add	s10,a4
    15b8:	00f60733          	add	a4,a2,a5
    15bc:	4318                	c.lw	a4,0(a4)
    15be:	1894                	c.addi4spn	a3,sp,112
    15c0:	9cba                	c.add	s9,a4
    15c2:	00f68733          	add	a4,a3,a5
    15c6:	4318                	c.lw	a4,0(a4)
    15c8:	0930                	c.addi4spn	a2,sp,152
    15ca:	9bba                	c.add	s7,a4
    15cc:	00f60733          	add	a4,a2,a5
    15d0:	631c                	c.flw	fa5,0(a4)
    15d2:	0791                	c.addi	a5,4
    15d4:	00f47453          	fadd.s	fs0,fs0,fa5
    15d8:	bc87eadb          	bnec	a5,40,15ac <main+0x3b2>
    15dc:	00080537          	lui	a0,0x80
    15e0:	45a9                	c.li	a1,10
    15e2:	29c50513          	addi	a0,a0,668 # 8029c <FFT_SIZES+0x22c>
    15e6:	8010                	exec.it	#1     !
    15e8:	4429                	c.li	s0,10
    15ea:	028d55b3          	divu	a1,s10,s0
    15ee:	00080537          	lui	a0,0x80
    15f2:	2c050513          	addi	a0,a0,704 # 802c0 <FFT_SIZES+0x250>
    15f6:	8010                	exec.it	#1     !
    15f8:	028cd5b3          	divu	a1,s9,s0
    15fc:	00080537          	lui	a0,0x80
    1600:	2d450513          	addi	a0,a0,724 # 802d4 <FFT_SIZES+0x264>
    1604:	8010                	exec.it	#1     !
    1606:	19347553          	fdiv.s	fa0,fs0,fs3
    160a:	612010ef          	jal	ra,2c1c <__extendsfdf2>
    160e:	862a                	c.mv	a2,a0
    1610:	00080537          	lui	a0,0x80
    1614:	86ae                	c.mv	a3,a1
    1616:	2f450513          	addi	a0,a0,756 # 802f4 <FFT_SIZES+0x284>
    161a:	8010                	exec.it	#1     !
    161c:	00080537          	lui	a0,0x80
    1620:	028bd5b3          	divu	a1,s7,s0
    1624:	31050513          	addi	a0,a0,784 # 80310 <FFT_SIZES+0x2a0>
    1628:	bb4d                	c.j	13da <main+0x1e0>
    162a:	00059803          	lh	a6,0(a1)
    162e:	00061703          	lh	a4,0(a2)
    1632:	0589                	c.addi	a1,2
    1634:	41070733          	sub	a4,a4,a6
    1638:	40e00833          	neg	a6,a4
    163c:	f307077f          	maxw	a4,a4,a6
    1640:	0609                	c.addi	a2,2
    1642:	00e54463          	blt	a0,a4,164a <main+0x450>
    1646:	0685                	c.addi	a3,1
    1648:	bf3d                	c.j	1586 <main+0x38c>
    164a:	c002                	c.swsp	zero,0(sp)
    164c:	bf3d                	c.j	158a <main+0x390>
    164e:	8400                	exec.it	#2     !
    1650:	26450513          	addi	a0,a0,612
    1654:	b7a9                	c.j	159e <main+0x3a4>
	...

00001658 <default_irq_entry>:
    1658:	a001                	c.j	1658 <default_irq_entry>

0000165a <trap_handler>:
    165a:	a001                	c.j	165a <trap_handler>
    165c:	0001                	c.nop
	...

00001660 <riscv_cmplx_mag_q15>:
    1660:	7139                	c.addi16sp	sp,-64
    1662:	d64e                	c.swsp	s3,44(sp)
    1664:	d452                	c.swsp	s4,40(sp)
    1666:	d256                	c.swsp	s5,36(sp)
    1668:	d05a                	c.swsp	s6,32(sp)
    166a:	de06                	c.swsp	ra,60(sp)
    166c:	00265b13          	srli	s6,a2,0x2
    1670:	dc22                	c.swsp	s0,56(sp)
    1672:	da26                	c.swsp	s1,52(sp)
    1674:	d84a                	c.swsp	s2,48(sp)
    1676:	ce5e                	c.swsp	s7,28(sp)
    1678:	8ab2                	c.mv	s5,a2
    167a:	8a2a                	c.mv	s4,a0
    167c:	89ae                	c.mv	s3,a1
    167e:	080b0163          	beqz	s6,1700 <riscv_cmplx_mag_q15+0xa0>
    1682:	84aa                	c.mv	s1,a0
    1684:	8bda                	c.mv	s7,s6
    1686:	842e                	c.mv	s0,a1
    1688:	00c10913          	addi	s2,sp,12
    168c:	4088                	c.lw	a0,0(s1)
    168e:	38a5157f          	kmda	a0,a0,a0
    1692:	85ca                	c.mv	a1,s2
    1694:	8105                	c.srli	a0,0x1
    1696:	284d                	c.jal	1748 <riscv_sqrt_q31>
    1698:	00e11783          	lh	a5,14(sp)
    169c:	00448513          	addi	a0,s1,4
    16a0:	00f41023          	sh	a5,0(s0) # 80000 <cst_libm_sincosf>
    16a4:	4108                	c.lw	a0,0(a0)
    16a6:	38a5157f          	kmda	a0,a0,a0
    16aa:	85ca                	c.mv	a1,s2
    16ac:	8105                	c.srli	a0,0x1
    16ae:	2869                	c.jal	1748 <riscv_sqrt_q31>
    16b0:	00e11783          	lh	a5,14(sp)
    16b4:	00848513          	addi	a0,s1,8
    16b8:	00f41123          	sh	a5,2(s0)
    16bc:	4108                	c.lw	a0,0(a0)
    16be:	38a5157f          	kmda	a0,a0,a0
    16c2:	85ca                	c.mv	a1,s2
    16c4:	8105                	c.srli	a0,0x1
    16c6:	2049                	c.jal	1748 <riscv_sqrt_q31>
    16c8:	00e11783          	lh	a5,14(sp)
    16cc:	00c48513          	addi	a0,s1,12
    16d0:	00f41223          	sh	a5,4(s0)
    16d4:	4108                	c.lw	a0,0(a0)
    16d6:	04c1                	c.addi	s1,16
    16d8:	38a5157f          	kmda	a0,a0,a0
    16dc:	85ca                	c.mv	a1,s2
    16de:	8105                	c.srli	a0,0x1
    16e0:	068000ef          	jal	ra,1748 <riscv_sqrt_q31>
    16e4:	00e11783          	lh	a5,14(sp)
    16e8:	1bfd                	c.addi	s7,-1
    16ea:	0421                	c.addi	s0,8
    16ec:	fef41f23          	sh	a5,-2(s0)
    16f0:	f80b9ee3          	bnez	s7,168c <riscv_cmplx_mag_q15+0x2c>
    16f4:	003b1793          	slli	a5,s6,0x3
    16f8:	0b12                	c.slli	s6,0x4
    16fa:	99be                	c.add	s3,a5
    16fc:	016a0a33          	add	s4,s4,s6
    1700:	003afa93          	andi	s5,s5,3
    1704:	020a8663          	beqz	s5,1730 <riscv_cmplx_mag_q15+0xd0>
    1708:	0a86                	c.slli	s5,0x1
    170a:	9ace                	c.add	s5,s3
    170c:	00c10913          	addi	s2,sp,12
    1710:	000a2503          	lw	a0,0(s4)
    1714:	0a11                	c.addi	s4,4
    1716:	38a5157f          	kmda	a0,a0,a0
    171a:	85ca                	c.mv	a1,s2
    171c:	8105                	c.srli	a0,0x1
    171e:	202d                	c.jal	1748 <riscv_sqrt_q31>
    1720:	00e11783          	lh	a5,14(sp)
    1724:	00298993          	addi	s3,s3,2
    1728:	fef99f23          	sh	a5,-2(s3)
    172c:	ff5992e3          	bne	s3,s5,1710 <riscv_cmplx_mag_q15+0xb0>
    1730:	50f2                	c.lwsp	ra,60(sp)
    1732:	5462                	c.lwsp	s0,56(sp)
    1734:	54d2                	c.lwsp	s1,52(sp)
    1736:	5942                	c.lwsp	s2,48(sp)
    1738:	59b2                	c.lwsp	s3,44(sp)
    173a:	5a22                	c.lwsp	s4,40(sp)
    173c:	5a92                	c.lwsp	s5,36(sp)
    173e:	5b02                	c.lwsp	s6,32(sp)
    1740:	4bf2                	c.lwsp	s7,28(sp)
    1742:	6121                	c.addi16sp	sp,64
    1744:	8082                	c.jr	ra
	...

00001748 <riscv_sqrt_q31>:
    1748:	00a04a63          	bgtz	a0,175c <riscv_sqrt_q31+0x14>
    174c:	4701                	c.li	a4,0
    174e:	00a03533          	snez	a0,a0
    1752:	40a00533          	neg	a0,a0
    1756:	c198                	c.sw	a4,0(a1)
    1758:	00008067          	ret
    175c:	af95067f          	clz32	a2,a0
    1760:	fff60813          	addi	a6,a2,-1
    1764:	00187893          	andi	a7,a6,1
    1768:	0a089263          	bnez	a7,180c <riscv_sqrt_q31+0xc4>
    176c:	01051533          	sll	a0,a0,a6
    1770:	41a55793          	srai	a5,a0,0x1a
    1774:	17e1                	c.addi	a5,-8
    1776:	b9818713          	addi	a4,gp,-1128 # 80398 <sqrt_initial_lut_q31>
    177a:	078a                	c.slli	a5,0x2
    177c:	97ba                	c.add	a5,a4
    177e:	4394                	c.lw	a3,0(a5)
    1780:	30000337          	lui	t1,0x30000
    1784:	e0d6977f          	mulsr64	a4,a3,a3
    1788:	dfc7077f          	wexti	a4,a4,28
    178c:	e0e5177f          	mulsr64	a4,a0,a4
    1790:	dff7077f          	wexti	a4,a4,31
    1794:	40e30733          	sub	a4,t1,a4
    1798:	e0d7177f          	mulsr64	a4,a4,a3
    179c:	dfd706ff          	wexti	a3,a4,29
    17a0:	e0d6977f          	mulsr64	a4,a3,a3
    17a4:	dfc7077f          	wexti	a4,a4,28
    17a8:	e0e5177f          	mulsr64	a4,a0,a4
    17ac:	dff7077f          	wexti	a4,a4,31
    17b0:	40e30733          	sub	a4,t1,a4
    17b4:	e0d7177f          	mulsr64	a4,a4,a3
    17b8:	dfd7077f          	wexti	a4,a4,29
    17bc:	e0e71e7f          	mulsr64	t3,a4,a4
    17c0:	dfce0e7f          	wexti	t3,t3,28
    17c4:	e1c51e7f          	mulsr64	t3,a0,t3
    17c8:	dffe0e7f          	wexti	t3,t3,31
    17cc:	41c30333          	sub	t1,t1,t3
    17d0:	e0e3177f          	mulsr64	a4,t1,a4
    17d4:	dfd7077f          	wexti	a4,a4,29
    17d8:	e0e5177f          	mulsr64	a4,a0,a4
    17dc:	dfc7077f          	wexti	a4,a4,28
    17e0:	00089c63          	bnez	a7,17f8 <riscv_sqrt_q31+0xb0>
    17e4:	01f85793          	srli	a5,a6,0x1f
    17e8:	97c2                	c.add	a5,a6
    17ea:	8785                	c.srai	a5,0x1
    17ec:	40f75733          	sra	a4,a4,a5
    17f0:	00000513          	li	a0,0
    17f4:	c198                	c.sw	a4,0(a1)
    17f6:	8082                	c.jr	ra
    17f8:	1679                	c.addi	a2,-2
    17fa:	01f65793          	srli	a5,a2,0x1f
    17fe:	97b2                	c.add	a5,a2
    1800:	8785                	c.srai	a5,0x1
    1802:	40f75733          	sra	a4,a4,a5
    1806:	4501                	c.li	a0,0
    1808:	fedff06f          	j	17f4 <riscv_sqrt_q31+0xac>
    180c:	ffe60713          	addi	a4,a2,-2
    1810:	00e51533          	sll	a0,a0,a4
    1814:	bfb1                	c.j	1770 <riscv_sqrt_q31+0x28>
	...

00001818 <riscv_cfft_radix4by2_q15>:
    1818:	1101                	c.addi	sp,-32
    181a:	ca26                	c.swsp	s1,20(sp)
    181c:	c84a                	c.swsp	s2,16(sp)
    181e:	c64e                	c.swsp	s3,12(sp)
    1820:	0015d913          	srli	s2,a1,0x1
    1824:	00159993          	slli	s3,a1,0x1
    1828:	ce06                	c.swsp	ra,28(sp)
    182a:	cc22                	c.swsp	s0,24(sp)
    182c:	84b2                	c.mv	s1,a2
    182e:	99aa                	c.add	s3,a0
    1830:	0a090263          	beqz	s2,18d4 <riscv_cfft_radix4by2_q15+0xbc>
    1834:	842a                	c.mv	s0,a0
    1836:	884e                	c.mv	a6,s3
    1838:	862a                	c.mv	a2,a0
    183a:	8326                	c.mv	t1,s1
    183c:	88ca                	c.mv	a7,s2
    183e:	4581                	c.li	a1,0
    1840:	00032e03          	lw	t3,0(t1) # 30000000 <_DATA_LMA_START+0xfffbda0>
    1844:	0311                	c.addi	t1,4
    1846:	4218                	c.lw	a4,0(a2)
    1848:	00b7077f          	radd16	a4,a4,a1
    184c:	00082683          	lw	a3,0(a6)
    1850:	00b686ff          	radd16	a3,a3,a1
    1854:	12d707ff          	ksub16	a5,a4,a3
    1858:	00d7077f          	radd16	a4,a4,a3
    185c:	c218                	c.sw	a4,0(a2)
    185e:	0611                	c.addi	a2,4
    1860:	38fe177f          	kmda	a4,t3,a5
    1864:	79c797ff          	smxds	a5,a5,t3
    1868:	8741                	c.srai	a4,0x10
    186a:	3ee797ff          	pktb16	a5,a5,a4
    186e:	00f82023          	sw	a5,0(a6)
    1872:	18fd                	c.addi	a7,-1
    1874:	0811                	c.addi	a6,4
    1876:	fc0895e3          	bnez	a7,1840 <riscv_cfft_radix4by2_q15+0x28>
    187a:	4689                	c.li	a3,2
    187c:	8626                	c.mv	a2,s1
    187e:	85ca                	c.mv	a1,s2
    1880:	8522                	c.mv	a0,s0
    1882:	2cbd                	c.jal	1b00 <riscv_radix4_butterfly_q15>
    1884:	85ca                	c.mv	a1,s2
    1886:	854e                	c.mv	a0,s3
    1888:	4689                	c.li	a3,2
    188a:	8626                	c.mv	a2,s1
    188c:	274000ef          	jal	ra,1b00 <riscv_radix4_butterfly_q15>
    1890:	00391593          	slli	a1,s2,0x3
    1894:	8522                	c.mv	a0,s0
    1896:	95a2                	c.add	a1,s0
    1898:	00051603          	lh	a2,0(a0)
    189c:	00251683          	lh	a3,2(a0)
    18a0:	00451703          	lh	a4,4(a0)
    18a4:	00651783          	lh	a5,6(a0)
    18a8:	0606                	c.slli	a2,0x1
    18aa:	0686                	c.slli	a3,0x1
    18ac:	0706                	c.slli	a4,0x1
    18ae:	0786                	c.slli	a5,0x1
    18b0:	00c51023          	sh	a2,0(a0)
    18b4:	00d51123          	sh	a3,2(a0)
    18b8:	00e51223          	sh	a4,4(a0)
    18bc:	00f51323          	sh	a5,6(a0)
    18c0:	0521                	c.addi	a0,8
    18c2:	fca59be3          	bne	a1,a0,1898 <riscv_cfft_radix4by2_q15+0x80>
    18c6:	40f2                	c.lwsp	ra,28(sp)
    18c8:	4462                	c.lwsp	s0,24(sp)
    18ca:	44d2                	c.lwsp	s1,20(sp)
    18cc:	4942                	c.lwsp	s2,16(sp)
    18ce:	49b2                	c.lwsp	s3,12(sp)
    18d0:	6105                	c.addi16sp	sp,32
    18d2:	8082                	c.jr	ra
    18d4:	4689                	c.li	a3,2
    18d6:	4581                	c.li	a1,0
    18d8:	228000ef          	jal	ra,1b00 <riscv_radix4_butterfly_q15>
    18dc:	4462                	c.lwsp	s0,24(sp)
    18de:	40f2                	c.lwsp	ra,28(sp)
    18e0:	4942                	c.lwsp	s2,16(sp)
    18e2:	8626                	c.mv	a2,s1
    18e4:	854e                	c.mv	a0,s3
    18e6:	44d2                	c.lwsp	s1,20(sp)
    18e8:	49b2                	c.lwsp	s3,12(sp)
    18ea:	4689                	c.li	a3,2
    18ec:	4581                	c.li	a1,0
    18ee:	6105                	c.addi16sp	sp,32
    18f0:	ac01                	c.j	1b00 <riscv_radix4_butterfly_q15>
	...

000018f4 <riscv_cfft_radix4by2_inverse_q15>:
    18f4:	1101                	c.addi	sp,-32
    18f6:	ca26                	c.swsp	s1,20(sp)
    18f8:	c84a                	c.swsp	s2,16(sp)
    18fa:	c64e                	c.swsp	s3,12(sp)
    18fc:	0015d913          	srli	s2,a1,0x1
    1900:	00159993          	slli	s3,a1,0x1
    1904:	ce06                	c.swsp	ra,28(sp)
    1906:	cc22                	c.swsp	s0,24(sp)
    1908:	84b2                	c.mv	s1,a2
    190a:	99aa                	c.add	s3,a0
    190c:	0a090263          	beqz	s2,19b0 <riscv_cfft_radix4by2_inverse_q15+0xbc>
    1910:	842a                	c.mv	s0,a0
    1912:	884e                	c.mv	a6,s3
    1914:	862a                	c.mv	a2,a0
    1916:	8326                	c.mv	t1,s1
    1918:	88ca                	c.mv	a7,s2
    191a:	4581                	c.li	a1,0
    191c:	00032783          	lw	a5,0(t1)
    1920:	0311                	c.addi	t1,4
    1922:	4218                	c.lw	a4,0(a2)
    1924:	00b7077f          	radd16	a4,a4,a1
    1928:	00082683          	lw	a3,0(a6)
    192c:	00b686ff          	radd16	a3,a3,a1
    1930:	12d70e7f          	ksub16	t3,a4,a3
    1934:	00d7077f          	radd16	a4,a4,a3
    1938:	c218                	c.sw	a4,0(a2)
    193a:	0611                	c.addi	a2,4
    193c:	69c7977f          	smdrs	a4,a5,t3
    1940:	3bc797ff          	kmxda	a5,a5,t3
    1944:	8741                	c.srai	a4,0x10
    1946:	3ee797ff          	pktb16	a5,a5,a4
    194a:	00f82023          	sw	a5,0(a6)
    194e:	18fd                	c.addi	a7,-1
    1950:	0811                	c.addi	a6,4
    1952:	fc0895e3          	bnez	a7,191c <riscv_cfft_radix4by2_inverse_q15+0x28>
    1956:	4689                	c.li	a3,2
    1958:	8626                	c.mv	a2,s1
    195a:	85ca                	c.mv	a1,s2
    195c:	8522                	c.mv	a0,s0
    195e:	212d                	c.jal	1d88 <riscv_radix4_butterfly_inverse_q15>
    1960:	85ca                	c.mv	a1,s2
    1962:	854e                	c.mv	a0,s3
    1964:	4689                	c.li	a3,2
    1966:	8626                	c.mv	a2,s1
    1968:	420000ef          	jal	ra,1d88 <riscv_radix4_butterfly_inverse_q15>
    196c:	00391593          	slli	a1,s2,0x3
    1970:	8522                	c.mv	a0,s0
    1972:	95a2                	c.add	a1,s0
    1974:	00051603          	lh	a2,0(a0)
    1978:	00251683          	lh	a3,2(a0)
    197c:	00451703          	lh	a4,4(a0)
    1980:	00651783          	lh	a5,6(a0)
    1984:	0606                	c.slli	a2,0x1
    1986:	0686                	c.slli	a3,0x1
    1988:	0706                	c.slli	a4,0x1
    198a:	0786                	c.slli	a5,0x1
    198c:	00c51023          	sh	a2,0(a0)
    1990:	00d51123          	sh	a3,2(a0)
    1994:	00e51223          	sh	a4,4(a0)
    1998:	00f51323          	sh	a5,6(a0)
    199c:	0521                	c.addi	a0,8
    199e:	fca59be3          	bne	a1,a0,1974 <riscv_cfft_radix4by2_inverse_q15+0x80>
    19a2:	40f2                	c.lwsp	ra,28(sp)
    19a4:	4462                	c.lwsp	s0,24(sp)
    19a6:	44d2                	c.lwsp	s1,20(sp)
    19a8:	4942                	c.lwsp	s2,16(sp)
    19aa:	49b2                	c.lwsp	s3,12(sp)
    19ac:	6105                	c.addi16sp	sp,32
    19ae:	8082                	c.jr	ra
    19b0:	4689                	c.li	a3,2
    19b2:	4581                	c.li	a1,0
    19b4:	3d4000ef          	jal	ra,1d88 <riscv_radix4_butterfly_inverse_q15>
    19b8:	4462                	c.lwsp	s0,24(sp)
    19ba:	40f2                	c.lwsp	ra,28(sp)
    19bc:	4942                	c.lwsp	s2,16(sp)
    19be:	8626                	c.mv	a2,s1
    19c0:	854e                	c.mv	a0,s3
    19c2:	44d2                	c.lwsp	s1,20(sp)
    19c4:	49b2                	c.lwsp	s3,12(sp)
    19c6:	4689                	c.li	a3,2
    19c8:	4581                	c.li	a1,0
    19ca:	6105                	c.addi16sp	sp,32
    19cc:	ae75                	c.j	1d88 <riscv_radix4_butterfly_inverse_q15>
	...

000019d0 <riscv_cfft_q15>:
    19d0:	1141                	c.addi	sp,-16
    19d2:	c422                	c.swsp	s0,8(sp)
    19d4:	c226                	c.swsp	s1,4(sp)
    19d6:	c04a                	c.swsp	s2,0(sp)
    19d8:	4705                	c.li	a4,1
    19da:	c606                	c.swsp	ra,12(sp)
    19dc:	00055783          	lhu	a5,0(a0)
    19e0:	842a                	c.mv	s0,a0
    19e2:	892e                	c.mv	s2,a1
    19e4:	84b6                	c.mv	s1,a3
    19e6:	0ae60163          	beq	a2,a4,1a88 <riscv_cfft_q15+0xb8>
    19ea:	10000713          	li	a4,256
    19ee:	08e78563          	beq	a5,a4,1a78 <riscv_cfft_q15+0xa8>
    19f2:	02f77563          	bgeu	a4,a5,1a1c <riscv_cfft_q15+0x4c>
    19f6:	80078713          	addi	a4,a5,-2048
    19fa:	c32d                	c.beqz	a4,1a5c <riscv_cfft_q15+0x8c>
    19fc:	6685                	c.lui	a3,0x1
    19fe:	80068693          	addi	a3,a3,-2048 # 800 <pm_sleep_start+0x118>
    1a02:	6705                	c.lui	a4,0x1
    1a04:	06f6f263          	bgeu	a3,a5,1a68 <riscv_cfft_q15+0x98>
    1a08:	06e78863          	beq	a5,a4,1a78 <riscv_cfft_q15+0xa8>
    1a0c:	02049463          	bnez	s1,1a34 <riscv_cfft_q15+0x64>
    1a10:	40b2                	c.lwsp	ra,12(sp)
    1a12:	4422                	c.lwsp	s0,8(sp)
    1a14:	4492                	c.lwsp	s1,4(sp)
    1a16:	4902                	c.lwsp	s2,0(sp)
    1a18:	0141                	c.addi	sp,16
    1a1a:	8082                	c.jr	ra
    1a1c:	04000713          	li	a4,64
    1a20:	04e78c63          	beq	a5,a4,1a78 <riscv_cfft_q15+0xa8>
    1a24:	02f77463          	bgeu	a4,a5,1a4c <riscv_cfft_q15+0x7c>
    1a28:	08000713          	li	a4,128
    1a2c:	02e78863          	beq	a5,a4,1a5c <riscv_cfft_q15+0x8c>
    1a30:	fe0480e3          	beqz	s1,1a10 <riscv_cfft_q15+0x40>
    1a34:	00c45583          	lhu	a1,12(s0)
    1a38:	4410                	c.lw	a2,8(s0)
    1a3a:	4422                	c.lwsp	s0,8(sp)
    1a3c:	40b2                	c.lwsp	ra,12(sp)
    1a3e:	4492                	c.lwsp	s1,4(sp)
    1a40:	854a                	c.mv	a0,s2
    1a42:	4902                	c.lwsp	s2,0(sp)
    1a44:	01010113          	addi	sp,sp,16
    1a48:	78c0006f          	j	21d4 <riscv_bitreversal_16>
    1a4c:	01000713          	li	a4,16
    1a50:	02e78463          	beq	a5,a4,1a78 <riscv_cfft_q15+0xa8>
    1a54:	02000713          	li	a4,32
    1a58:	fae79ae3          	bne	a5,a4,1a0c <riscv_cfft_q15+0x3c>
    1a5c:	4050                	c.lw	a2,4(s0)
    1a5e:	85be                	c.mv	a1,a5
    1a60:	854a                	c.mv	a0,s2
    1a62:	3b5d                	c.jal	1818 <riscv_cfft_radix4by2_q15>
    1a64:	fa9ff06f          	j	1a0c <riscv_cfft_q15+0x3c>
    1a68:	20000713          	li	a4,512
    1a6c:	fee788e3          	beq	a5,a4,1a5c <riscv_cfft_q15+0x8c>
    1a70:	40000713          	li	a4,1024
    1a74:	f8e79ce3          	bne	a5,a4,1a0c <riscv_cfft_q15+0x3c>
    1a78:	4050                	c.lw	a2,4(s0)
    1a7a:	4685                	c.li	a3,1
    1a7c:	85be                	c.mv	a1,a5
    1a7e:	854a                	c.mv	a0,s2
    1a80:	080000ef          	jal	ra,1b00 <riscv_radix4_butterfly_q15>
    1a84:	f89ff06f          	j	1a0c <riscv_cfft_q15+0x3c>
    1a88:	10000713          	li	a4,256
    1a8c:	06e78263          	beq	a5,a4,1af0 <riscv_cfft_q15+0x120>
    1a90:	00f77e63          	bgeu	a4,a5,1aac <riscv_cfft_q15+0xdc>
    1a94:	80078713          	addi	a4,a5,-2048
    1a98:	cf15                	c.beqz	a4,1ad4 <riscv_cfft_q15+0x104>
    1a9a:	6685                	c.lui	a3,0x1
    1a9c:	80068693          	addi	a3,a3,-2048 # 800 <pm_sleep_start+0x118>
    1aa0:	6705                	c.lui	a4,0x1
    1aa2:	02f6ff63          	bgeu	a3,a5,1ae0 <riscv_cfft_q15+0x110>
    1aa6:	f6e793e3          	bne	a5,a4,1a0c <riscv_cfft_q15+0x3c>
    1aaa:	a099                	c.j	1af0 <riscv_cfft_q15+0x120>
    1aac:	04000713          	li	a4,64
    1ab0:	04e78063          	beq	a5,a4,1af0 <riscv_cfft_q15+0x120>
    1ab4:	00f77863          	bgeu	a4,a5,1ac4 <riscv_cfft_q15+0xf4>
    1ab8:	08000713          	li	a4,128
    1abc:	00e78c63          	beq	a5,a4,1ad4 <riscv_cfft_q15+0x104>
    1ac0:	f4dff06f          	j	1a0c <riscv_cfft_q15+0x3c>
    1ac4:	01000713          	li	a4,16
    1ac8:	02e78463          	beq	a5,a4,1af0 <riscv_cfft_q15+0x120>
    1acc:	02000713          	li	a4,32
    1ad0:	f2e79ee3          	bne	a5,a4,1a0c <riscv_cfft_q15+0x3c>
    1ad4:	4050                	c.lw	a2,4(s0)
    1ad6:	85be                	c.mv	a1,a5
    1ad8:	854a                	c.mv	a0,s2
    1ada:	3d29                	c.jal	18f4 <riscv_cfft_radix4by2_inverse_q15>
    1adc:	f31ff06f          	j	1a0c <riscv_cfft_q15+0x3c>
    1ae0:	20000713          	li	a4,512
    1ae4:	fee788e3          	beq	a5,a4,1ad4 <riscv_cfft_q15+0x104>
    1ae8:	40000713          	li	a4,1024
    1aec:	f2e790e3          	bne	a5,a4,1a0c <riscv_cfft_q15+0x3c>
    1af0:	4050                	c.lw	a2,4(s0)
    1af2:	4685                	c.li	a3,1
    1af4:	85be                	c.mv	a1,a5
    1af6:	854a                	c.mv	a0,s2
    1af8:	290000ef          	jal	ra,1d88 <riscv_radix4_butterfly_inverse_q15>
    1afc:	bf01                	c.j	1a0c <riscv_cfft_q15+0x3c>
	...

00001b00 <riscv_radix4_butterfly_q15>:
    1b00:	ffc5f313          	andi	t1,a1,-4
    1b04:	7139                	c.addi16sp	sp,-64
    1b06:	00650e33          	add	t3,a0,t1
    1b0a:	8732                	c.mv	a4,a2
    1b0c:	006e0eb3          	add	t4,t3,t1
    1b10:	0025d613          	srli	a2,a1,0x2
    1b14:	dc26                	c.swsp	s1,56(sp)
    1b16:	44b1                	c.li	s1,12
    1b18:	029684b3          	mul	s1,a3,s1
    1b1c:	de22                	c.swsp	s0,60(sp)
    1b1e:	da4a                	c.swsp	s2,52(sp)
    1b20:	d25a                	c.swsp	s6,36(sp)
    1b22:	00369913          	slli	s2,a3,0x3
    1b26:	00269b13          	slli	s6,a3,0x2
    1b2a:	88aa                	c.mv	a7,a0
    1b2c:	9376                	c.add	t1,t4
    1b2e:	843a                	c.mv	s0,a4
    1b30:	83ba                	c.mv	t2,a4
    1b32:	82ba                	c.mv	t0,a4
    1b34:	8f2a                	c.mv	t5,a0
    1b36:	8fb2                	c.mv	t6,a2
    1b38:	4681                	c.li	a3,0
    1b3a:	d84e                	c.swsp	s3,48(sp)
    1b3c:	d652                	c.swsp	s4,44(sp)
    1b3e:	d456                	c.swsp	s5,40(sp)
    1b40:	d05e                	c.swsp	s7,32(sp)
    1b42:	ce62                	c.swsp	s8,28(sp)
    1b44:	cc66                	c.swsp	s9,24(sp)
    1b46:	ca6a                	c.swsp	s10,20(sp)
    1b48:	01b12823          	sw	s11,16(sp)
    1b4c:	000f2783          	lw	a5,0(t5)
    1b50:	00d787ff          	radd16	a5,a5,a3
    1b54:	00d787ff          	radd16	a5,a5,a3
    1b58:	000ea803          	lw	a6,0(t4)
    1b5c:	00d8087f          	radd16	a6,a6,a3
    1b60:	00d8087f          	radd16	a6,a6,a3
    1b64:	1107857f          	kadd16	a0,a5,a6
    1b68:	130787ff          	ksub16	a5,a5,a6
    1b6c:	000e2803          	lw	a6,0(t3)
    1b70:	00d8087f          	radd16	a6,a6,a3
    1b74:	00d8087f          	radd16	a6,a6,a3
    1b78:	00032983          	lw	s3,0(t1)
    1b7c:	00d989ff          	radd16	s3,s3,a3
    1b80:	00d989ff          	radd16	s3,s3,a3
    1b84:	1138087f          	kadd16	a6,a6,s3
    1b88:	010509ff          	radd16	s3,a0,a6
    1b8c:	013f2023          	sw	s3,0(t5)
    1b90:	0f11                	c.addi	t5,4
    1b92:	1305057f          	ksub16	a0,a0,a6
    1b96:	0002a803          	lw	a6,0(t0)
    1b9a:	38a819ff          	kmda	s3,a6,a0
    1b9e:	7905157f          	smxds	a0,a0,a6
    1ba2:	000e2803          	lw	a6,0(t3)
    1ba6:	00d8087f          	radd16	a6,a6,a3
    1baa:	00d8087f          	radd16	a6,a6,a3
    1bae:	4109d993          	srai	s3,s3,0x10
    1bb2:	3f35157f          	pktb16	a0,a0,s3
    1bb6:	00ae2023          	sw	a0,0(t3)
    1bba:	0e11                	c.addi	t3,4
    1bbc:	00032503          	lw	a0,0(t1)
    1bc0:	00d5057f          	radd16	a0,a0,a3
    1bc4:	00d5057f          	radd16	a0,a0,a3
    1bc8:	12a8057f          	ksub16	a0,a6,a0
    1bcc:	14a7887f          	kcras16	a6,a5,a0
    1bd0:	16a787ff          	kcrsa16	a5,a5,a0
    1bd4:	0003a983          	lw	s3,0(t2)
    1bd8:	38f9957f          	kmda	a0,s3,a5
    1bdc:	793797ff          	smxds	a5,a5,s3
    1be0:	8541                	c.srai	a0,0x10
    1be2:	3ea797ff          	pktb16	a5,a5,a0
    1be6:	00fea023          	sw	a5,0(t4)
    1bea:	0e91                	c.addi	t4,4
    1bec:	401c                	c.lw	a5,0(s0)
    1bee:	3907957f          	kmda	a0,a5,a6
    1bf2:	78f817ff          	smxds	a5,a6,a5
    1bf6:	8541                	c.srai	a0,0x10
    1bf8:	3ea797ff          	pktb16	a5,a5,a0
    1bfc:	00f32023          	sw	a5,0(t1)
    1c00:	1ffd                	c.addi	t6,-1
    1c02:	0311                	c.addi	t1,4
    1c04:	92ca                	c.add	t0,s2
    1c06:	93da                	c.add	t2,s6
    1c08:	9426                	c.add	s0,s1
    1c0a:	f40f91e3          	bnez	t6,1b4c <riscv_radix4_butterfly_q15+0x4c>
    1c0e:	4791                	c.li	a5,4
    1c10:	10c7f263          	bgeu	a5,a2,1d14 <riscv_radix4_butterfly_q15+0x214>
    1c14:	8bb2                	c.mv	s7,a2
    1c16:	4db1                	c.li	s11,12
    1c18:	4501                	c.li	a0,0
    1c1a:	86ba                	c.mv	a3,a4
    1c1c:	03bb0cb3          	mul	s9,s6,s11
    1c20:	83de                	c.mv	t2,s7
    1c22:	002bdb93          	srli	s7,s7,0x2
    1c26:	002b1c13          	slli	s8,s6,0x2
    1c2a:	002b9a93          	slli	s5,s7,0x2
    1c2e:	00239e13          	slli	t3,t2,0x2
    1c32:	0b0e                	c.slli	s6,0x3
    1c34:	84c6                	c.mv	s1,a7
    1c36:	8a36                	c.mv	s4,a3
    1c38:	89b6                	c.mv	s3,a3
    1c3a:	8936                	c.mv	s2,a3
    1c3c:	4401                	c.li	s0,0
    1c3e:	87b2                	c.mv	a5,a2
    1c40:	8746                	c.mv	a4,a7
    1c42:	8836                	c.mv	a6,a3
    1c44:	01912623          	sw	s9,12(sp)
    1c48:	00092283          	lw	t0,0(s2)
    1c4c:	0009af83          	lw	t6,0(s3)
    1c50:	000a2f03          	lw	t5,0(s4)
    1c54:	009a86b3          	add	a3,s5,s1
    1c58:	00da88b3          	add	a7,s5,a3
    1c5c:	8326                	c.mv	t1,s1
    1c5e:	011a8633          	add	a2,s5,a7
    1c62:	08b47963          	bgeu	s0,a1,1cf4 <riscv_radix4_butterfly_q15+0x1f4>
    1c66:	8ea2                	c.mv	t4,s0
    1c68:	c256                	c.swsp	s5,4(sp)
    1c6a:	c426                	c.swsp	s1,8(sp)
    1c6c:	00032a83          	lw	s5,0(t1)
    1c70:	0008ac83          	lw	s9,0(a7)
    1c74:	119a84ff          	kadd16	s1,s5,s9
    1c78:	139a8aff          	ksub16	s5,s5,s9
    1c7c:	0006ac83          	lw	s9,0(a3)
    1c80:	00062d03          	lw	s10,0(a2)
    1c84:	11ac8cff          	kadd16	s9,s9,s10
    1c88:	01948d7f          	radd16	s10,s1,s9
    1c8c:	00ad0d7f          	radd16	s10,s10,a0
    1c90:	01a32023          	sw	s10,0(t1)
    1c94:	9372                	c.add	t1,t3
    1c96:	039484ff          	rsub16	s1,s1,s9
    1c9a:	389f9cff          	kmda	s9,t6,s1
    1c9e:	79f494ff          	smxds	s1,s1,t6
    1ca2:	0006ad03          	lw	s10,0(a3)
    1ca6:	410cdc93          	srai	s9,s9,0x10
    1caa:	3f9494ff          	pktb16	s1,s1,s9
    1cae:	c284                	c.sw	s1,0(a3)
    1cb0:	96f2                	c.add	a3,t3
    1cb2:	4204                	c.lw	s1,0(a2)
    1cb4:	129d04ff          	ksub16	s1,s10,s1
    1cb8:	049a8cff          	rcras16	s9,s5,s1
    1cbc:	069a84ff          	rcrsa16	s1,s5,s1
    1cc0:	38929aff          	kmda	s5,t0,s1
    1cc4:	785494ff          	smxds	s1,s1,t0
    1cc8:	410ada93          	srai	s5,s5,0x10
    1ccc:	3f5494ff          	pktb16	s1,s1,s5
    1cd0:	0098a023          	sw	s1,0(a7)
    1cd4:	98f2                	c.add	a7,t3
    1cd6:	399f14ff          	kmda	s1,t5,s9
    1cda:	79ec9cff          	smxds	s9,s9,t5
    1cde:	84c1                	c.srai	s1,0x10
    1ce0:	3e9c9cff          	pktb16	s9,s9,s1
    1ce4:	01962023          	sw	s9,0(a2)
    1ce8:	9e9e                	c.add	t4,t2
    1cea:	9672                	c.add	a2,t3
    1cec:	f8bee0e3          	bltu	t4,a1,1c6c <riscv_radix4_butterfly_q15+0x16c>
    1cf0:	4a92                	c.lwsp	s5,4(sp)
    1cf2:	44a2                	c.lwsp	s1,8(sp)
    1cf4:	46b2                	c.lwsp	a3,12(sp)
    1cf6:	0405                	c.addi	s0,1
    1cf8:	9962                	c.add	s2,s8
    1cfa:	99da                	c.add	s3,s6
    1cfc:	9a36                	c.add	s4,a3
    1cfe:	0491                	c.addi	s1,4
    1d00:	f48b94e3          	bne	s7,s0,1c48 <riscv_radix4_butterfly_q15+0x148>
    1d04:	863e                	c.mv	a2,a5
    1d06:	4791                	c.li	a5,4
    1d08:	88ba                	c.mv	a7,a4
    1d0a:	86c2                	c.mv	a3,a6
    1d0c:	01800b33          	add	s6,zero,s8
    1d10:	f177e6e3          	bltu	a5,s7,1c1c <riscv_radix4_butterfly_q15+0x11c>
    1d14:	0008a783          	lw	a5,0(a7)
    1d18:	00488e93          	addi	t4,a7,4
    1d1c:	000ea703          	lw	a4,0(t4)
    1d20:	00888313          	addi	t1,a7,8
    1d24:	00032e03          	lw	t3,0(t1)
    1d28:	00c88813          	addi	a6,a7,12
    1d2c:	00082583          	lw	a1,0(a6)
    1d30:	11c786ff          	kadd16	a3,a5,t3
    1d34:	10b7057f          	kadd16	a0,a4,a1
    1d38:	00a6857f          	radd16	a0,a3,a0
    1d3c:	00a8a023          	sw	a0,0(a7)
    1d40:	10b7057f          	kadd16	a0,a4,a1
    1d44:	02a686ff          	rsub16	a3,a3,a0
    1d48:	00dea023          	sw	a3,0(t4)
    1d4c:	13c787ff          	ksub16	a5,a5,t3
    1d50:	12b7077f          	ksub16	a4,a4,a1
    1d54:	06e786ff          	rcrsa16	a3,a5,a4
    1d58:	00d32023          	sw	a3,0(t1)
    1d5c:	04e787ff          	rcras16	a5,a5,a4
    1d60:	00f82023          	sw	a5,0(a6)
    1d64:	167d                	c.addi	a2,-1
    1d66:	08c1                	c.addi	a7,16
    1d68:	f655                	c.bnez	a2,1d14 <riscv_radix4_butterfly_q15+0x214>
    1d6a:	5472                	c.lwsp	s0,60(sp)
    1d6c:	54e2                	c.lwsp	s1,56(sp)
    1d6e:	5952                	c.lwsp	s2,52(sp)
    1d70:	59c2                	c.lwsp	s3,48(sp)
    1d72:	5a32                	c.lwsp	s4,44(sp)
    1d74:	5aa2                	c.lwsp	s5,40(sp)
    1d76:	5b12                	c.lwsp	s6,36(sp)
    1d78:	5b82                	c.lwsp	s7,32(sp)
    1d7a:	4c72                	c.lwsp	s8,28(sp)
    1d7c:	4ce2                	c.lwsp	s9,24(sp)
    1d7e:	4d52                	c.lwsp	s10,20(sp)
    1d80:	4dc2                	c.lwsp	s11,16(sp)
    1d82:	6121                	c.addi16sp	sp,64
    1d84:	8082                	c.jr	ra
	...

00001d88 <riscv_radix4_butterfly_inverse_q15>:
    1d88:	ffc5f813          	andi	a6,a1,-4
    1d8c:	7139                	c.addi16sp	sp,-64
    1d8e:	01050333          	add	t1,a0,a6
    1d92:	8732                	c.mv	a4,a2
    1d94:	01030e33          	add	t3,t1,a6
    1d98:	0025d613          	srli	a2,a1,0x2
    1d9c:	de22                	c.swsp	s0,60(sp)
    1d9e:	4431                	c.li	s0,12
    1da0:	02868433          	mul	s0,a3,s0
    1da4:	dc26                	c.swsp	s1,56(sp)
    1da6:	d25a                	c.swsp	s6,36(sp)
    1da8:	00369493          	slli	s1,a3,0x3
    1dac:	00269b13          	slli	s6,a3,0x2
    1db0:	88aa                	c.mv	a7,a0
    1db2:	9872                	c.add	a6,t3
    1db4:	83ba                	c.mv	t2,a4
    1db6:	82ba                	c.mv	t0,a4
    1db8:	8fba                	c.mv	t6,a4
    1dba:	8eaa                	c.mv	t4,a0
    1dbc:	8f32                	c.mv	t5,a2
    1dbe:	4681                	c.li	a3,0
    1dc0:	da4a                	c.swsp	s2,52(sp)
    1dc2:	d84e                	c.swsp	s3,48(sp)
    1dc4:	d652                	c.swsp	s4,44(sp)
    1dc6:	d456                	c.swsp	s5,40(sp)
    1dc8:	d05e                	c.swsp	s7,32(sp)
    1dca:	ce62                	c.swsp	s8,28(sp)
    1dcc:	cc66                	c.swsp	s9,24(sp)
    1dce:	ca6a                	c.swsp	s10,20(sp)
    1dd0:	01b12823          	sw	s11,16(sp)
    1dd4:	000ea783          	lw	a5,0(t4)
    1dd8:	00d787ff          	radd16	a5,a5,a3
    1ddc:	00d787ff          	radd16	a5,a5,a3
    1de0:	000e2503          	lw	a0,0(t3)
    1de4:	00d5057f          	radd16	a0,a0,a3
    1de8:	00d5057f          	radd16	a0,a0,a3
    1dec:	10a7897f          	kadd16	s2,a5,a0
    1df0:	12a787ff          	ksub16	a5,a5,a0
    1df4:	00032503          	lw	a0,0(t1)
    1df8:	00d5057f          	radd16	a0,a0,a3
    1dfc:	00d5057f          	radd16	a0,a0,a3
    1e00:	00082983          	lw	s3,0(a6)
    1e04:	00d989ff          	radd16	s3,s3,a3
    1e08:	00d989ff          	radd16	s3,s3,a3
    1e0c:	1135057f          	kadd16	a0,a0,s3
    1e10:	00a909ff          	radd16	s3,s2,a0
    1e14:	013ea023          	sw	s3,0(t4)
    1e18:	0e91                	c.addi	t4,4
    1e1a:	12a9097f          	ksub16	s2,s2,a0
    1e1e:	000fa503          	lw	a0,0(t6)
    1e22:	692519ff          	smdrs	s3,a0,s2
    1e26:	3b25197f          	kmxda	s2,a0,s2
    1e2a:	00032503          	lw	a0,0(t1)
    1e2e:	00d5057f          	radd16	a0,a0,a3
    1e32:	00d5057f          	radd16	a0,a0,a3
    1e36:	4109d993          	srai	s3,s3,0x10
    1e3a:	3f39197f          	pktb16	s2,s2,s3
    1e3e:	01232023          	sw	s2,0(t1)
    1e42:	0311                	c.addi	t1,4
    1e44:	00082903          	lw	s2,0(a6)
    1e48:	00d9097f          	radd16	s2,s2,a3
    1e4c:	00d9097f          	radd16	s2,s2,a3
    1e50:	1325057f          	ksub16	a0,a0,s2
    1e54:	16a789ff          	kcrsa16	s3,a5,a0
    1e58:	14a787ff          	kcras16	a5,a5,a0
    1e5c:	0002a503          	lw	a0,0(t0)
    1e60:	68f5197f          	smdrs	s2,a0,a5
    1e64:	3af517ff          	kmxda	a5,a0,a5
    1e68:	41095513          	srai	a0,s2,0x10
    1e6c:	3ea797ff          	pktb16	a5,a5,a0
    1e70:	00fe2023          	sw	a5,0(t3)
    1e74:	0e11                	c.addi	t3,4
    1e76:	0003a783          	lw	a5,0(t2)
    1e7a:	6937957f          	smdrs	a0,a5,s3
    1e7e:	3b3797ff          	kmxda	a5,a5,s3
    1e82:	8541                	c.srai	a0,0x10
    1e84:	3ea797ff          	pktb16	a5,a5,a0
    1e88:	00f82023          	sw	a5,0(a6)
    1e8c:	1f7d                	c.addi	t5,-1
    1e8e:	0811                	c.addi	a6,4
    1e90:	9fa6                	c.add	t6,s1
    1e92:	92da                	c.add	t0,s6
    1e94:	93a2                	c.add	t2,s0
    1e96:	f20f1fe3          	bnez	t5,1dd4 <riscv_radix4_butterfly_inverse_q15+0x4c>
    1e9a:	4791                	c.li	a5,4
    1e9c:	10c7f263          	bgeu	a5,a2,1fa0 <riscv_radix4_butterfly_inverse_q15+0x218>
    1ea0:	8bb2                	c.mv	s7,a2
    1ea2:	4db1                	c.li	s11,12
    1ea4:	4501                	c.li	a0,0
    1ea6:	86ba                	c.mv	a3,a4
    1ea8:	03bb0cb3          	mul	s9,s6,s11
    1eac:	83de                	c.mv	t2,s7
    1eae:	002bdb93          	srli	s7,s7,0x2
    1eb2:	002b1c13          	slli	s8,s6,0x2
    1eb6:	002b9a93          	slli	s5,s7,0x2
    1eba:	00239e13          	slli	t3,t2,0x2
    1ebe:	0b0e                	c.slli	s6,0x3
    1ec0:	84c6                	c.mv	s1,a7
    1ec2:	8a36                	c.mv	s4,a3
    1ec4:	89b6                	c.mv	s3,a3
    1ec6:	8936                	c.mv	s2,a3
    1ec8:	4401                	c.li	s0,0
    1eca:	87b2                	c.mv	a5,a2
    1ecc:	8746                	c.mv	a4,a7
    1ece:	8836                	c.mv	a6,a3
    1ed0:	01912623          	sw	s9,12(sp)
    1ed4:	00092283          	lw	t0,0(s2)
    1ed8:	0009af83          	lw	t6,0(s3)
    1edc:	000a2f03          	lw	t5,0(s4)
    1ee0:	009a86b3          	add	a3,s5,s1
    1ee4:	00da88b3          	add	a7,s5,a3
    1ee8:	8326                	c.mv	t1,s1
    1eea:	011a8633          	add	a2,s5,a7
    1eee:	08b47963          	bgeu	s0,a1,1f80 <riscv_radix4_butterfly_inverse_q15+0x1f8>
    1ef2:	8ea2                	c.mv	t4,s0
    1ef4:	c256                	c.swsp	s5,4(sp)
    1ef6:	c426                	c.swsp	s1,8(sp)
    1ef8:	00032a83          	lw	s5,0(t1)
    1efc:	0008ac83          	lw	s9,0(a7)
    1f00:	119a84ff          	kadd16	s1,s5,s9
    1f04:	139a8aff          	ksub16	s5,s5,s9
    1f08:	0006ac83          	lw	s9,0(a3)
    1f0c:	00062d03          	lw	s10,0(a2)
    1f10:	11ac8cff          	kadd16	s9,s9,s10
    1f14:	01948d7f          	radd16	s10,s1,s9
    1f18:	00ad0d7f          	radd16	s10,s10,a0
    1f1c:	01a32023          	sw	s10,0(t1)
    1f20:	9372                	c.add	t1,t3
    1f22:	039484ff          	rsub16	s1,s1,s9
    1f26:	689f9cff          	smdrs	s9,t6,s1
    1f2a:	3a9f94ff          	kmxda	s1,t6,s1
    1f2e:	0006ad03          	lw	s10,0(a3)
    1f32:	410cdc93          	srai	s9,s9,0x10
    1f36:	3f9494ff          	pktb16	s1,s1,s9
    1f3a:	c284                	c.sw	s1,0(a3)
    1f3c:	96f2                	c.add	a3,t3
    1f3e:	4204                	c.lw	s1,0(a2)
    1f40:	129d04ff          	ksub16	s1,s10,s1
    1f44:	069a8cff          	rcrsa16	s9,s5,s1
    1f48:	049a84ff          	rcras16	s1,s5,s1
    1f4c:	68929aff          	smdrs	s5,t0,s1
    1f50:	3a9294ff          	kmxda	s1,t0,s1
    1f54:	410ada93          	srai	s5,s5,0x10
    1f58:	3f5494ff          	pktb16	s1,s1,s5
    1f5c:	0098a023          	sw	s1,0(a7)
    1f60:	98f2                	c.add	a7,t3
    1f62:	699f14ff          	smdrs	s1,t5,s9
    1f66:	3b9f1cff          	kmxda	s9,t5,s9
    1f6a:	84c1                	c.srai	s1,0x10
    1f6c:	3e9c9cff          	pktb16	s9,s9,s1
    1f70:	01962023          	sw	s9,0(a2)
    1f74:	9e9e                	c.add	t4,t2
    1f76:	9672                	c.add	a2,t3
    1f78:	f8bee0e3          	bltu	t4,a1,1ef8 <riscv_radix4_butterfly_inverse_q15+0x170>
    1f7c:	4a92                	c.lwsp	s5,4(sp)
    1f7e:	44a2                	c.lwsp	s1,8(sp)
    1f80:	46b2                	c.lwsp	a3,12(sp)
    1f82:	0405                	c.addi	s0,1
    1f84:	9962                	c.add	s2,s8
    1f86:	99da                	c.add	s3,s6
    1f88:	9a36                	c.add	s4,a3
    1f8a:	0491                	c.addi	s1,4
    1f8c:	f48b94e3          	bne	s7,s0,1ed4 <riscv_radix4_butterfly_inverse_q15+0x14c>
    1f90:	863e                	c.mv	a2,a5
    1f92:	4791                	c.li	a5,4
    1f94:	88ba                	c.mv	a7,a4
    1f96:	86c2                	c.mv	a3,a6
    1f98:	01800b33          	add	s6,zero,s8
    1f9c:	f177e6e3          	bltu	a5,s7,1ea8 <riscv_radix4_butterfly_inverse_q15+0x120>
    1fa0:	0008a783          	lw	a5,0(a7)
    1fa4:	00488e93          	addi	t4,a7,4
    1fa8:	000ea703          	lw	a4,0(t4)
    1fac:	00888313          	addi	t1,a7,8
    1fb0:	00032e03          	lw	t3,0(t1)
    1fb4:	00c88813          	addi	a6,a7,12
    1fb8:	00082583          	lw	a1,0(a6)
    1fbc:	11c786ff          	kadd16	a3,a5,t3
    1fc0:	10b7057f          	kadd16	a0,a4,a1
    1fc4:	00a6857f          	radd16	a0,a3,a0
    1fc8:	00a8a023          	sw	a0,0(a7)
    1fcc:	10b7057f          	kadd16	a0,a4,a1
    1fd0:	02a686ff          	rsub16	a3,a3,a0
    1fd4:	00dea023          	sw	a3,0(t4)
    1fd8:	13c787ff          	ksub16	a5,a5,t3
    1fdc:	12b7077f          	ksub16	a4,a4,a1
    1fe0:	04e786ff          	rcras16	a3,a5,a4
    1fe4:	00d32023          	sw	a3,0(t1)
    1fe8:	06e787ff          	rcrsa16	a5,a5,a4
    1fec:	00f82023          	sw	a5,0(a6)
    1ff0:	167d                	c.addi	a2,-1
    1ff2:	08c1                	c.addi	a7,16
    1ff4:	f655                	c.bnez	a2,1fa0 <riscv_radix4_butterfly_inverse_q15+0x218>
    1ff6:	5472                	c.lwsp	s0,60(sp)
    1ff8:	54e2                	c.lwsp	s1,56(sp)
    1ffa:	5952                	c.lwsp	s2,52(sp)
    1ffc:	59c2                	c.lwsp	s3,48(sp)
    1ffe:	5a32                	c.lwsp	s4,44(sp)
    2000:	5aa2                	c.lwsp	s5,40(sp)
    2002:	5b12                	c.lwsp	s6,36(sp)
    2004:	5b82                	c.lwsp	s7,32(sp)
    2006:	4c72                	c.lwsp	s8,28(sp)
    2008:	4ce2                	c.lwsp	s9,24(sp)
    200a:	4d52                	c.lwsp	s10,20(sp)
    200c:	4dc2                	c.lwsp	s11,16(sp)
    200e:	6121                	c.addi16sp	sp,64
    2010:	8082                	c.jr	ra
	...

00002014 <riscv_cfft_init_4096_q15>:
    2014:	00088797          	auipc	a5,0x88
    2018:	1cc78793          	addi	a5,a5,460 # 8a1e0 <riscv_cfft_sR_q15_len4096>
    201c:	00c7d683          	lhu	a3,12(a5)
    2020:	4798                	c.lw	a4,8(a5)
    2022:	43dc                	c.lw	a5,4(a5)
    2024:	6605                	c.lui	a2,0x1
    2026:	00c51023          	sh	a2,0(a0)
    202a:	00d51623          	sh	a3,12(a0)
    202e:	c15c                	c.sw	a5,4(a0)
    2030:	c518                	c.sw	a4,8(a0)
    2032:	4501                	c.li	a0,0
    2034:	8082                	c.jr	ra
	...

00002038 <riscv_cfft_init_2048_q15>:
    2038:	00088797          	auipc	a5,0x88
    203c:	1b878793          	addi	a5,a5,440 # 8a1f0 <riscv_cfft_sR_q15_len2048>
    2040:	00c7d683          	lhu	a3,12(a5)
    2044:	4798                	c.lw	a4,8(a5)
    2046:	6605                	c.lui	a2,0x1
    2048:	43dc                	c.lw	a5,4(a5)
    204a:	80060613          	addi	a2,a2,-2048 # 800 <pm_sleep_start+0x118>
    204e:	00c51023          	sh	a2,0(a0)
    2052:	00d51623          	sh	a3,12(a0)
    2056:	c15c                	c.sw	a5,4(a0)
    2058:	c518                	c.sw	a4,8(a0)
    205a:	4501                	c.li	a0,0
    205c:	8082                	c.jr	ra
	...

00002060 <riscv_cfft_init_1024_q15>:
    2060:	00088797          	auipc	a5,0x88
    2064:	1a078793          	addi	a5,a5,416 # 8a200 <riscv_cfft_sR_q15_len1024>
    2068:	00c7d683          	lhu	a3,12(a5)
    206c:	4798                	c.lw	a4,8(a5)
    206e:	43dc                	c.lw	a5,4(a5)
    2070:	40000613          	li	a2,1024
    2074:	00c51023          	sh	a2,0(a0)
    2078:	00d51623          	sh	a3,12(a0)
    207c:	c15c                	c.sw	a5,4(a0)
    207e:	c518                	c.sw	a4,8(a0)
    2080:	4501                	c.li	a0,0
    2082:	8082                	c.jr	ra

00002084 <riscv_cfft_init_512_q15>:
    2084:	00088797          	auipc	a5,0x88
    2088:	18c78793          	addi	a5,a5,396 # 8a210 <riscv_cfft_sR_q15_len512>
    208c:	00c7d683          	lhu	a3,12(a5)
    2090:	4798                	c.lw	a4,8(a5)
    2092:	43dc                	c.lw	a5,4(a5)
    2094:	20000613          	li	a2,512
    2098:	00c51023          	sh	a2,0(a0)
    209c:	00d51623          	sh	a3,12(a0)
    20a0:	c15c                	c.sw	a5,4(a0)
    20a2:	c518                	c.sw	a4,8(a0)
    20a4:	4501                	c.li	a0,0
    20a6:	8082                	c.jr	ra

000020a8 <riscv_cfft_init_256_q15>:
    20a8:	00088797          	auipc	a5,0x88
    20ac:	17878793          	addi	a5,a5,376 # 8a220 <riscv_cfft_sR_q15_len256>
    20b0:	00c7d683          	lhu	a3,12(a5)
    20b4:	4798                	c.lw	a4,8(a5)
    20b6:	43dc                	c.lw	a5,4(a5)
    20b8:	10000613          	li	a2,256
    20bc:	00c51023          	sh	a2,0(a0)
    20c0:	00d51623          	sh	a3,12(a0)
    20c4:	c15c                	c.sw	a5,4(a0)
    20c6:	c518                	c.sw	a4,8(a0)
    20c8:	4501                	c.li	a0,0
    20ca:	8082                	c.jr	ra

000020cc <riscv_cfft_init_128_q15>:
    20cc:	00088797          	auipc	a5,0x88
    20d0:	16478793          	addi	a5,a5,356 # 8a230 <riscv_cfft_sR_q15_len128>
    20d4:	00c7d683          	lhu	a3,12(a5)
    20d8:	4798                	c.lw	a4,8(a5)
    20da:	43dc                	c.lw	a5,4(a5)
    20dc:	08000613          	li	a2,128
    20e0:	00c51023          	sh	a2,0(a0)
    20e4:	00d51623          	sh	a3,12(a0)
    20e8:	c15c                	c.sw	a5,4(a0)
    20ea:	c518                	c.sw	a4,8(a0)
    20ec:	4501                	c.li	a0,0
    20ee:	8082                	c.jr	ra

000020f0 <riscv_cfft_init_64_q15>:
    20f0:	00088797          	auipc	a5,0x88
    20f4:	15078793          	addi	a5,a5,336 # 8a240 <riscv_cfft_sR_q15_len64>
    20f8:	00c7d683          	lhu	a3,12(a5)
    20fc:	4798                	c.lw	a4,8(a5)
    20fe:	43dc                	c.lw	a5,4(a5)
    2100:	04000613          	li	a2,64
    2104:	00c51023          	sh	a2,0(a0)
    2108:	00d51623          	sh	a3,12(a0)
    210c:	c15c                	c.sw	a5,4(a0)
    210e:	c518                	c.sw	a4,8(a0)
    2110:	4501                	c.li	a0,0
    2112:	8082                	c.jr	ra

00002114 <riscv_cfft_init_32_q15>:
    2114:	00088797          	auipc	a5,0x88
    2118:	13c78793          	addi	a5,a5,316 # 8a250 <riscv_cfft_sR_q15_len32>
    211c:	00c7d683          	lhu	a3,12(a5)
    2120:	4798                	c.lw	a4,8(a5)
    2122:	43dc                	c.lw	a5,4(a5)
    2124:	02000613          	li	a2,32
    2128:	00c51023          	sh	a2,0(a0)
    212c:	00d51623          	sh	a3,12(a0)
    2130:	c15c                	c.sw	a5,4(a0)
    2132:	c518                	c.sw	a4,8(a0)
    2134:	4501                	c.li	a0,0
    2136:	8082                	c.jr	ra

00002138 <riscv_cfft_init_16_q15>:
    2138:	00088797          	auipc	a5,0x88
    213c:	12878793          	addi	a5,a5,296 # 8a260 <riscv_cfft_sR_q15_len16>
    2140:	00c7d683          	lhu	a3,12(a5)
    2144:	4798                	c.lw	a4,8(a5)
    2146:	43dc                	c.lw	a5,4(a5)
    2148:	4641                	c.li	a2,16
    214a:	00c51023          	sh	a2,0(a0)
    214e:	00d51623          	sh	a3,12(a0)
    2152:	c15c                	c.sw	a5,4(a0)
    2154:	c518                	c.sw	a4,8(a0)
    2156:	4501                	c.li	a0,0
    2158:	8082                	c.jr	ra
	...

0000215c <riscv_cfft_init_q15>:
    215c:	10000793          	li	a5,256
    2160:	04f58e63          	beq	a1,a5,21bc <riscv_cfft_init_q15+0x60>
    2164:	00b7fe63          	bgeu	a5,a1,2180 <riscv_cfft_init_q15+0x24>
    2168:	80058793          	addi	a5,a1,-2048
    216c:	cbb1                	c.beqz	a5,21c0 <riscv_cfft_init_q15+0x64>
    216e:	6705                	c.lui	a4,0x1
    2170:	80070713          	addi	a4,a4,-2048 # 800 <pm_sleep_start+0x118>
    2174:	6785                	c.lui	a5,0x1
    2176:	02b77163          	bgeu	a4,a1,2198 <riscv_cfft_init_q15+0x3c>
    217a:	04f59563          	bne	a1,a5,21c4 <riscv_cfft_init_q15+0x68>
    217e:	bd59                	c.j	2014 <riscv_cfft_init_4096_q15>
    2180:	04000793          	li	a5,64
    2184:	04f58263          	beq	a1,a5,21c8 <riscv_cfft_init_q15+0x6c>
    2188:	02b7f263          	bgeu	a5,a1,21ac <riscv_cfft_init_q15+0x50>
    218c:	08000793          	li	a5,128
    2190:	02f59a63          	bne	a1,a5,21c4 <riscv_cfft_init_q15+0x68>
    2194:	f39ff06f          	j	20cc <riscv_cfft_init_128_q15>
    2198:	20000793          	li	a5,512
    219c:	02f58863          	beq	a1,a5,21cc <riscv_cfft_init_q15+0x70>
    21a0:	40000793          	li	a5,1024
    21a4:	02f59063          	bne	a1,a5,21c4 <riscv_cfft_init_q15+0x68>
    21a8:	eb9ff06f          	j	2060 <riscv_cfft_init_1024_q15>
    21ac:	47c1                	c.li	a5,16
    21ae:	02f58163          	beq	a1,a5,21d0 <riscv_cfft_init_q15+0x74>
    21b2:	02000793          	li	a5,32
    21b6:	00f59763          	bne	a1,a5,21c4 <riscv_cfft_init_q15+0x68>
    21ba:	bfa9                	c.j	2114 <riscv_cfft_init_32_q15>
    21bc:	eedff06f          	j	20a8 <riscv_cfft_init_256_q15>
    21c0:	e79ff06f          	j	2038 <riscv_cfft_init_2048_q15>
    21c4:	557d                	c.li	a0,-1
    21c6:	8082                	c.jr	ra
    21c8:	f29ff06f          	j	20f0 <riscv_cfft_init_64_q15>
    21cc:	eb9ff06f          	j	2084 <riscv_cfft_init_512_q15>
    21d0:	b7a5                	c.j	2138 <riscv_cfft_init_16_q15>
	...

000021d4 <riscv_bitreversal_16>:
    21d4:	cda1                	c.beqz	a1,222c <riscv_bitreversal_16+0x58>
    21d6:	15fd                	c.addi	a1,-1
    21d8:	8185                	c.srli	a1,0x1
    21da:	00259813          	slli	a6,a1,0x2
    21de:	00460793          	addi	a5,a2,4
    21e2:	983e                	c.add	a6,a5
    21e4:	00265783          	lhu	a5,2(a2)
    21e8:	00065703          	lhu	a4,0(a2)
    21ec:	0611                	c.addi	a2,4
    21ee:	8389                	c.srli	a5,0x2
    21f0:	0786                	c.slli	a5,0x1
    21f2:	8309                	c.srli	a4,0x2
    21f4:	00f506b3          	add	a3,a0,a5
    21f8:	0706                	c.slli	a4,0x1
    21fa:	0006d303          	lhu	t1,0(a3)
    21fe:	00e505b3          	add	a1,a0,a4
    2202:	0005d883          	lhu	a7,0(a1)
    2206:	0789                	c.addi	a5,2
    2208:	00659023          	sh	t1,0(a1)
    220c:	97aa                	c.add	a5,a0
    220e:	0709                	c.addi	a4,2
    2210:	01169023          	sh	a7,0(a3)
    2214:	00a70733          	add	a4,a4,a0
    2218:	0007d583          	lhu	a1,0(a5) # 1000 <gpio_input_dis>
    221c:	00075683          	lhu	a3,0(a4)
    2220:	00b71023          	sh	a1,0(a4)
    2224:	00d79023          	sh	a3,0(a5)
    2228:	fac81ee3          	bne	a6,a2,21e4 <riscv_bitreversal_16+0x10>
    222c:	8082                	c.jr	ra
	...

00002230 <sinf>:
    2230:	3f491737          	lui	a4,0x3f491
    2234:	e00507d3          	fmv.x.w	a5,fa0
    2238:	fda70713          	addi	a4,a4,-38 # 3f490fda <_DATA_LMA_START+0x1f48cd7a>
    223c:	85be                	c.mv	a1,a5
    223e:	7807a6db          	bfoz	a3,a5,30,0
    2242:	02d76763          	bltu	a4,a3,2270 <sinf+0x40>
    2246:	39800737          	lui	a4,0x39800
    224a:	0ae6e563          	bltu	a3,a4,22f4 <sinf+0xc4>
    224e:	10a577d3          	fmul.s	fa5,fa0,fa0
    2252:	801f970b          	addigp	a4,-2048 # 80000 <cst_libm_sincosf>
    2256:	20a505d3          	fmv.s	fa1,fa0
    225a:	6354                	c.flw	fa3,4(a4)
    225c:	6708                	c.flw	fa0,8(a4)
    225e:	6318                	c.flw	fa4,0(a4)
    2260:	8a00                	exec.it	#68     !
    2262:	8864                	exec.it	#60     !
    2264:	10f57553          	fmul.s	fa0,fa0,fa5
    2268:	58a5f543          	fmadd.s	fa0,fa1,fa0,fa1
    226c:	00008067          	ret
    2270:	1101                	c.addi	sp,-32
    2272:	46491737          	lui	a4,0x46491
    2276:	ce06                	c.swsp	ra,28(sp)
    2278:	e4870713          	addi	a4,a4,-440 # 46490e48 <_DATA_LMA_START+0x2648cbe8>
    227c:	0ad76463          	bltu	a4,a3,2324 <sinf+0xf4>
    2280:	0008a737          	lui	a4,0x8a
    2284:	0008a6b7          	lui	a3,0x8a
    2288:	2706a587          	flw	fa1,624(a3) # 8a270 <riscv_cfft_sR_q15_len16+0x10>
    228c:	28872787          	flw	fa5,648(a4) # 8a288 <cst_libm_rredf>
    2290:	2892970b          	addigp	a4,39560 # 8a288 <cst_libm_rredf>
    2294:	6710                	c.flw	fa2,8(a4)
    2296:	58f577c3          	fmadd.s	fa5,fa0,fa5,fa1
    229a:	6754                	c.flw	fa3,12(a4)
    229c:	6b18                	c.flw	fa4,16(a4)
    229e:	6b48                	c.flw	fa0,20(a4)
    22a0:	08b7f7d3          	fsub.s	fa5,fa5,fa1
    22a4:	f00785d3          	fmv.w.x	fa1,a5
    22a8:	58c7f64b          	fnmsub.s	fa2,fa5,fa2,fa1
    22ac:	c0079753          	fcvt.w.s	a4,fa5,rtz
    22b0:	60d7f6cb          	fnmsub.s	fa3,fa5,fa3,fa2
    22b4:	00177693          	andi	a3,a4,1
    22b8:	00277713          	andi	a4,a4,2
    22bc:	68e7f74b          	fnmsub.s	fa4,fa5,fa4,fa3
    22c0:	70a7f5cb          	fnmsub.s	fa1,fa5,fa0,fa4
    22c4:	e00587d3          	fmv.x.w	a5,fa1
    22c8:	f00785d3          	fmv.w.x	fa1,a5
    22cc:	10b5f7d3          	fmul.s	fa5,fa1,fa1
    22d0:	cad1                	c.beqz	a3,2364 <sinf+0x134>
    22d2:	801f978b          	addigp	a5,-2048 # 80000 <cst_libm_sincosf>
    22d6:	6f88                	c.flw	fa0,24(a5)
    22d8:	6bd0                	c.flw	fa2,20(a5)
    22da:	6b94                	c.flw	fa3,16(a5)
    22dc:	67d8                	c.flw	fa4,12(a5)
    22de:	60f57543          	fmadd.s	fa0,fa0,fa5,fa2
    22e2:	8a00                	exec.it	#68     !
    22e4:	8864                	exec.it	#60     !
    22e6:	c319                	c.beqz	a4,22ec <sinf+0xbc>
    22e8:	20a51553          	fneg.s	fa0,fa0
    22ec:	40f2                	c.lwsp	ra,28(sp)
    22ee:	6105                	c.addi16sp	sp,32
    22f0:	00008067          	ret
    22f4:	00179593          	slli	a1,a5,0x1
    22f8:	ff000737          	lui	a4,0xff000
    22fc:	00e5e863          	bltu	a1,a4,230c <sinf+0xdc>
    2300:	00e58863          	beq	a1,a4,2310 <sinf+0xe0>
    2304:	00a57553          	fadd.s	fa0,fa0,fa0
    2308:	00008067          	ret
    230c:	00008067          	ret
    2310:	02100713          	li	a4,33
    2314:	f0000553          	fmv.w.x	fa0,zero
    2318:	34e2c4ab          	swgp	a4,39752 # 8a348 <__mculib_REENT_errno>
    231c:	18a57553          	fdiv.s	fa0,fa0,fa0
    2320:	00008067          	ret
    2324:	0068                	c.addi4spn	a0,sp,12
    2326:	28a9                	c.jal	2380 <ref__mathlib_rredf2>
    2328:	4732                	c.lwsp	a4,12(sp)
    232a:	e00507d3          	fmv.x.w	a5,fa0
    232e:	02075763          	bgez	a4,235c <sinf+0x12c>
    2332:	00179593          	slli	a1,a5,0x1
    2336:	ff000737          	lui	a4,0xff000
    233a:	fae5e9e3          	bltu	a1,a4,22ec <sinf+0xbc>
    233e:	00e58563          	beq	a1,a4,2348 <sinf+0x118>
    2342:	00a57553          	fadd.s	fa0,fa0,fa0
    2346:	b75d                	c.j	22ec <sinf+0xbc>
    2348:	f0000553          	fmv.w.x	fa0,zero
    234c:	02100713          	li	a4,33
    2350:	34e2c4ab          	swgp	a4,39752 # 8a348 <__mculib_REENT_errno>
    2354:	18a57553          	fdiv.s	fa0,fa0,fa0
    2358:	f95ff06f          	j	22ec <sinf+0xbc>
    235c:	00177693          	andi	a3,a4,1
    2360:	8b09                	c.andi	a4,2
    2362:	b79d                	c.j	22c8 <sinf+0x98>
    2364:	801f968b          	addigp	a3,-2048 # 80000 <cst_libm_sincosf>
    2368:	6688                	c.flw	fa0,8(a3)
    236a:	62d4                	c.flw	fa3,4(a3)
    236c:	6298                	c.flw	fa4,0(a3)
    236e:	8a00                	exec.it	#68     !
    2370:	8864                	exec.it	#60     !
    2372:	10f57553          	fmul.s	fa0,fa0,fa5
    2376:	58a5f543          	fmadd.s	fa0,fa1,fa0,fa1
    237a:	f73d                	c.bnez	a4,22e8 <sinf+0xb8>
    237c:	bf85                	c.j	22ec <sinf+0xbc>
    237e:	0001                	c.nop

00002380 <ref__mathlib_rredf2>:
    2380:	00159713          	slli	a4,a1,0x1
    2384:	ff0007b7          	lui	a5,0xff000
    2388:	12f77663          	bgeu	a4,a5,24b4 <ref__mathlib_rredf2+0x134>
    238c:	7975a7db          	bfoz	a5,a1,30,23
    2390:	f8878793          	addi	a5,a5,-120 # feffff88 <_DATA_LMA_START+0xdeffbd28>
    2394:	4057d613          	srai	a2,a5,0x5
    2398:	2a12968b          	addigp	a3,39584 # 8a2a0 <twooverpi.2618>
    239c:	0cc688db          	lea.w	a7,a3,a2
    23a0:	00859313          	slli	t1,a1,0x8
    23a4:	80000e37          	lui	t3,0x80000
    23a8:	8bfd                	c.andi	a5,31
    23aa:	01c36e33          	or	t3,t1,t3
    23ae:	0048a703          	lw	a4,4(a7)
    23b2:	0008a303          	lw	t1,0(a7)
    23b6:	0088a803          	lw	a6,8(a7)
    23ba:	cb8d                	c.beqz	a5,23ec <ref__mathlib_rredf2+0x6c>
    23bc:	00c8a603          	lw	a2,12(a7)
    23c0:	02000693          	li	a3,32
    23c4:	40f686b3          	sub	a3,a3,a5
    23c8:	00d75eb3          	srl	t4,a4,a3
    23cc:	00d858b3          	srl	a7,a6,a3
    23d0:	00f31333          	sll	t1,t1,a5
    23d4:	00f71733          	sll	a4,a4,a5
    23d8:	00f81833          	sll	a6,a6,a5
    23dc:	00d656b3          	srl	a3,a2,a3
    23e0:	006ee333          	or	t1,t4,t1
    23e4:	00e8e733          	or	a4,a7,a4
    23e8:	0106e833          	or	a6,a3,a6
    23ec:	f0ee167f          	mulr64	a2,t3,a4
    23f0:	f10e187f          	mulr64	a6,t3,a6
    23f4:	f1c3137f          	mulr64	t1,t1,t3
    23f8:	00c88733          	add	a4,a7,a2
    23fc:	006687b3          	add	a5,a3,t1
    2400:	01173e33          	sltu	t3,a4,a7
    2404:	01c787b3          	add	a5,a5,t3
    2408:	0b176063          	bltu	a4,a7,24a8 <ref__mathlib_rredf2+0x128>
    240c:	00d7b633          	sltu	a2,a5,a3
    2410:	961e                	c.add	a2,t2
    2412:	0137d693          	srli	a3,a5,0x13
    2416:	01a61813          	slli	a6,a2,0x1a
    241a:	06b6                	c.slli	a3,0xd
    241c:	0106e6b3          	or	a3,a3,a6
    2420:	07b6                	c.slli	a5,0xd
    2422:	d006f6d3          	fcvt.s.w	fa3,a3
    2426:	0008a6b7          	lui	a3,0x8a
    242a:	2746a587          	flw	fa1,628(a3) # 8a274 <riscv_cfft_sR_q15_len16+0x14>
    242e:	d017f753          	fcvt.s.wu	fa4,a5
    2432:	0008a7b7          	lui	a5,0x8a
    2436:	2787a607          	flw	fa2,632(a5) # 8a278 <riscv_cfft_sR_q15_len16+0x18>
    243a:	d0177553          	fcvt.s.wu	fa0,a4
    243e:	6685                	c.lui	a3,0x1
    2440:	80068693          	addi	a3,a3,-2048 # 800 <pm_sleep_start+0x118>
    2444:	68b777c3          	fmadd.s	fa5,fa4,fa1,fa3
    2448:	777d                	c.lui	a4,0xfffff
    244a:	02060613          	addi	a2,a2,32
    244e:	8219                	c.srli	a2,0x6
    2450:	78c577c3          	fmadd.s	fa5,fa0,fa2,fa5
    2454:	e00787d3          	fmv.x.w	a5,fa5
    2458:	97b6                	c.add	a5,a3
    245a:	8ff9                	c.and	a5,a4
    245c:	f00787d3          	fmv.w.x	fa5,a5
    2460:	08d7f6d3          	fsub.s	fa3,fa5,fa3
    2464:	0008a737          	lui	a4,0x8a
    2468:	68b7774b          	fnmsub.s	fa4,fa4,fa1,fa3
    246c:	70c57747          	fmsub.s	fa4,fa0,fa2,fa4
    2470:	27c72507          	flw	fa0,636(a4) # 8a27c <riscv_cfft_sR_q15_len16+0x1c>
    2474:	0008a737          	lui	a4,0x8a
    2478:	f0078653          	fmv.w.x	fa2,a5
    247c:	10a77753          	fmul.s	fa4,fa4,fa0
    2480:	28072507          	flw	fa0,640(a4) # 8a280 <riscv_cfft_sR_q15_len16+0x20>
    2484:	0008a737          	lui	a4,0x8a
    2488:	70a7f543          	fmadd.s	fa0,fa5,fa0,fa4
    248c:	28472787          	flw	fa5,644(a4) # 8a284 <riscv_cfft_sR_q15_len16+0x24>
    2490:	50f67543          	fmadd.s	fa0,fa2,fa5,fa0
    2494:	0005d863          	bgez	a1,24a4 <ref__mathlib_rredf2+0x124>
    2498:	20a51553          	fneg.s	fa0,fa0
    249c:	100007b7          	lui	a5,0x10000
    24a0:	40c78633          	sub	a2,a5,a2
    24a4:	c110                	c.sw	a2,0(a0)
    24a6:	8082                	c.jr	ra
    24a8:	00f6b633          	sltu	a2,a3,a5
    24ac:	00164613          	xori	a2,a2,1
    24b0:	f61ff06f          	j	2410 <ref__mathlib_rredf2+0x90>
    24b4:	57fd                	c.li	a5,-1
    24b6:	c11c                	c.sw	a5,0(a0)
    24b8:	8082                	c.jr	ra
    24ba:	0001                	c.nop

000024bc <__muldf3>:
    24bc:	1101                	c.addi	sp,-32
    24be:	ce22                	c.swsp	s0,28(sp)
    24c0:	cc26                	c.swsp	s1,24(sp)
    24c2:	ca4a                	c.swsp	s2,20(sp)
    24c4:	c84e                	c.swsp	s3,16(sp)
    24c6:	c652                	c.swsp	s4,12(sp)
    24c8:	c456                	c.swsp	s5,8(sp)
    24ca:	c25a                	c.swsp	s6,4(sp)
    24cc:	00202373          	frrm	t1
    24d0:	7945a75b          	bfoz	a4,a1,30,20
    24d4:	4c05a7db          	bfoz	a5,a1,19,0
    24d8:	81fd                	c.srli	a1,0x1f
    24da:	10070963          	beqz	a4,25ec <__muldf3+0x130>
    24de:	7ff00813          	li	a6,2047
    24e2:	07070963          	beq	a4,a6,2554 <__muldf3+0x98>
    24e6:	00800837          	lui	a6,0x800
    24ea:	078e                	c.slli	a5,0x3
    24ec:	01d55293          	srli	t0,a0,0x1d
    24f0:	0107e7b3          	or	a5,a5,a6
    24f4:	c0170e13          	addi	t3,a4,-1023
    24f8:	00f2e2b3          	or	t0,t0,a5
    24fc:	050e                	c.slli	a0,0x3
    24fe:	4701                	c.li	a4,0
    2500:	4381                	c.li	t2,0
    2502:	4801                	c.li	a6,0
    2504:	7946a8db          	bfoz	a7,a3,30,20
    2508:	4c06a7db          	bfoz	a5,a3,19,0
    250c:	01f6d693          	srli	a3,a3,0x1f
    2510:	12088a63          	beqz	a7,2644 <__muldf3+0x188>
    2514:	7ff00e93          	li	t4,2047
    2518:	17d88a63          	beq	a7,t4,268c <__muldf3+0x1d0>
    251c:	00800f37          	lui	t5,0x800
    2520:	078e                	c.slli	a5,0x3
    2522:	01d65e93          	srli	t4,a2,0x1d
    2526:	01e7e7b3          	or	a5,a5,t5
    252a:	c0188893          	addi	a7,a7,-1023
    252e:	00fee7b3          	or	a5,t4,a5
    2532:	060e                	c.slli	a2,0x3
    2534:	9e46                	c.add	t3,a7
    2536:	4f01                	c.li	t5,0
    2538:	48bd                	c.li	a7,15
    253a:	00d5ceb3          	xor	t4,a1,a3
    253e:	001e0f93          	addi	t6,t3,1 # 80000001 <_DATA_LMA_START+0x5fffbda1>
    2542:	16e8e363          	bltu	a7,a4,26a8 <__muldf3+0x1ec>
    2546:	2c12988b          	addigp	a7,39616 # 8a2c0 <twooverpi.2618+0x20>
    254a:	0ce8875b          	lea.w	a4,a7,a4
    254e:	4318                	c.lw	a4,0(a4)
    2550:	00070067          	jr	a4
    2554:	00a7e2b3          	or	t0,a5,a0
    2558:	32028263          	beqz	t0,287c <__muldf3+0x3c0>
    255c:	0137d713          	srli	a4,a5,0x13
    2560:	82be                	c.mv	t0,a5
    2562:	46070563          	beqz	a4,29cc <__muldf3+0x510>
    2566:	4731                	c.li	a4,12
    2568:	7ff00e13          	li	t3,2047
    256c:	438d                	c.li	t2,3
    256e:	4801                	c.li	a6,0
    2570:	f95ff06f          	j	2504 <__muldf3+0x48>
    2574:	00d00eb3          	add	t4,zero,a3
    2578:	062f605b          	bnec	t5,2,25d8 <__muldf3+0x11c>
    257c:	88f6                	c.mv	a7,t4
    257e:	7ff00713          	li	a4,2047
    2582:	4781                	c.li	a5,0
    2584:	00000613          	li	a2,0
    2588:	4581                	c.li	a1,0
    258a:	fff006b7          	lui	a3,0xfff00
    258e:	8eed                	c.and	a3,a1
    2590:	4c07a7db          	bfoz	a5,a5,19,0
    2594:	8fd5                	c.or	a5,a3
    2596:	01471693          	slli	a3,a4,0x14
    259a:	80100737          	lui	a4,0x80100
    259e:	177d                	c.addi	a4,-1
    25a0:	8f7d                	c.and	a4,a5
    25a2:	8f55                	c.or	a4,a3
    25a4:	08fe                	c.slli	a7,0x1f
    25a6:	7807275b          	bfoz	a4,a4,30,0
    25aa:	8532                	c.mv	a0,a2
    25ac:	011765b3          	or	a1,a4,a7
    25b0:	3e081e63          	bnez	a6,29ac <__muldf3+0x4f0>
    25b4:	4472                	c.lwsp	s0,28(sp)
    25b6:	44e2                	c.lwsp	s1,24(sp)
    25b8:	4952                	c.lwsp	s2,20(sp)
    25ba:	49c2                	c.lwsp	s3,16(sp)
    25bc:	4a32                	c.lwsp	s4,12(sp)
    25be:	4aa2                	c.lwsp	s5,8(sp)
    25c0:	4b12                	c.lwsp	s6,4(sp)
    25c2:	6105                	c.addi16sp	sp,32
    25c4:	00008067          	ret
    25c8:	00b00eb3          	add	t4,zero,a1
    25cc:	8f1e                	c.mv	t5,t2
    25ce:	8796                	c.mv	a5,t0
    25d0:	00a00633          	add	a2,zero,a0
    25d4:	ba2f545b          	beqc	t5,2,257c <__muldf3+0xc0>
    25d8:	363f525b          	beqc	t5,3,293c <__muldf3+0x480>
    25dc:	221f685b          	bnec	t5,1,280c <__muldf3+0x350>
    25e0:	88f6                	c.mv	a7,t4
    25e2:	4701                	c.li	a4,0
    25e4:	4781                	c.li	a5,0
    25e6:	4601                	c.li	a2,0
    25e8:	fa1ff06f          	j	2588 <__muldf3+0xcc>
    25ec:	00a7e2b3          	or	t0,a5,a0
    25f0:	28028063          	beqz	t0,2870 <__muldf3+0x3b4>
    25f4:	af97877f          	clz32	a4,a5
    25f8:	00079663          	bnez	a5,2604 <__muldf3+0x148>
    25fc:	af95077f          	clz32	a4,a0
    2600:	02070713          	addi	a4,a4,32 # 80100020 <_DATA_LMA_START+0x600fbdc0>
    2604:	ff570893          	addi	a7,a4,-11
    2608:	4871                	c.li	a6,28
    260a:	3b184b63          	blt	a6,a7,29c0 <__muldf3+0x504>
    260e:	42f5                	c.li	t0,29
    2610:	ff870813          	addi	a6,a4,-8
    2614:	411282b3          	sub	t0,t0,a7
    2618:	005552b3          	srl	t0,a0,t0
    261c:	010797b3          	sll	a5,a5,a6
    2620:	00f2e2b3          	or	t0,t0,a5
    2624:	01051533          	sll	a0,a0,a6
    2628:	c0d00e13          	li	t3,-1011
    262c:	7946a8db          	bfoz	a7,a3,30,20
    2630:	40ee0e33          	sub	t3,t3,a4
    2634:	4c06a7db          	bfoz	a5,a3,19,0
    2638:	4701                	c.li	a4,0
    263a:	4381                	c.li	t2,0
    263c:	4801                	c.li	a6,0
    263e:	82fd                	c.srli	a3,0x1f
    2640:	ec089ae3          	bnez	a7,2514 <__muldf3+0x58>
    2644:	00c7e8b3          	or	a7,a5,a2
    2648:	24088263          	beqz	a7,288c <__muldf3+0x3d0>
    264c:	af9788ff          	clz32	a7,a5
    2650:	00079663          	bnez	a5,265c <__muldf3+0x1a0>
    2654:	af9608ff          	clz32	a7,a2
    2658:	02088893          	addi	a7,a7,32
    265c:	ff588f93          	addi	t6,a7,-11
    2660:	4ef1                	c.li	t4,28
    2662:	35fec963          	blt	t4,t6,29b4 <__muldf3+0x4f8>
    2666:	4ef5                	c.li	t4,29
    2668:	ff888f13          	addi	t5,a7,-8
    266c:	41fe8eb3          	sub	t4,t4,t6
    2670:	01d65eb3          	srl	t4,a2,t4
    2674:	01e797b3          	sll	a5,a5,t5
    2678:	00fee7b3          	or	a5,t4,a5
    267c:	01e61633          	sll	a2,a2,t5
    2680:	411e0e33          	sub	t3,t3,a7
    2684:	c0de0e13          	addi	t3,t3,-1011
    2688:	4f01                	c.li	t5,0
    268a:	b57d                	c.j	2538 <__muldf3+0x7c>
    268c:	00c7e8b3          	or	a7,a5,a2
    2690:	7ffe0e13          	addi	t3,t3,2047
    2694:	20088263          	beqz	a7,2898 <__muldf3+0x3dc>
    2698:	00376713          	ori	a4,a4,3
    269c:	4f0d                	c.li	t5,3
    269e:	e937fd5b          	bbs	a5,19,2538 <__muldf3+0x7c>
    26a2:	4841                	c.li	a6,16
    26a4:	e95ff06f          	j	2538 <__muldf3+0x7c>
    26a8:	6f41                	c.lui	t5,0x10
    26aa:	ffff0713          	addi	a4,t5,-1 # ffff <BIN_SIZE+0x1a55>
    26ae:	00e678b3          	and	a7,a2,a4
    26b2:	01055393          	srli	t2,a0,0x10
    26b6:	031385b3          	mul	a1,t2,a7
    26ba:	8d79                	c.and	a0,a4
    26bc:	01065913          	srli	s2,a2,0x10
    26c0:	02a886b3          	mul	a3,a7,a0
    26c4:	862e                	c.mv	a2,a1
    26c6:	c4a9167f          	maddr32	a2,s2,a0
    26ca:	03238733          	mul	a4,t2,s2
    26ce:	0106d413          	srli	s0,a3,0x10
    26d2:	9432                	c.add	s0,a2
    26d4:	00b47463          	bgeu	s0,a1,26dc <__muldf3+0x220>
    26d8:	01e70733          	add	a4,a4,t5
    26dc:	6b41                	c.lui	s6,0x10
    26de:	fffb0f13          	addi	t5,s6,-1 # ffff <BIN_SIZE+0x1a55>
    26e2:	01e7f5b3          	and	a1,a5,t5
    26e6:	02b38a33          	mul	s4,t2,a1
    26ea:	0107d993          	srli	s3,a5,0x10
    26ee:	01e47633          	and	a2,s0,t5
    26f2:	01e6f6b3          	and	a3,a3,t5
    26f6:	0642                	c.slli	a2,0x10
    26f8:	00d60f33          	add	t5,a2,a3
    26fc:	02b50ab3          	mul	s5,a0,a1
    2700:	01045493          	srli	s1,s0,0x10
    2704:	87d2                	c.mv	a5,s4
    2706:	c4a997ff          	maddr32	a5,s3,a0
    270a:	033383b3          	mul	t2,t2,s3
    270e:	010ad693          	srli	a3,s5,0x10
    2712:	96be                	c.add	a3,a5
    2714:	0146f463          	bgeu	a3,s4,271c <__muldf3+0x260>
    2718:	016383b3          	add	t2,t2,s6
    271c:	6b41                	c.lui	s6,0x10
    271e:	fffb0413          	addi	s0,s6,-1 # ffff <BIN_SIZE+0x1a55>
    2722:	0102da13          	srli	s4,t0,0x10
    2726:	0082f7b3          	and	a5,t0,s0
    272a:	031a02b3          	mul	t0,s4,a7
    272e:	0086f633          	and	a2,a3,s0
    2732:	82c1                	c.srli	a3,0x10
    2734:	93b6                	c.add	t2,a3
    2736:	0642                	c.slli	a2,0x10
    2738:	008afab3          	and	s5,s5,s0
    273c:	02f888b3          	mul	a7,a7,a5
    2740:	01560433          	add	s0,a2,s5
    2744:	94a2                	c.add	s1,s0
    2746:	8696                	c.mv	a3,t0
    2748:	c4f916ff          	maddr32	a3,s2,a5
    274c:	03490633          	mul	a2,s2,s4
    2750:	0108d513          	srli	a0,a7,0x10
    2754:	9536                	c.add	a0,a3
    2756:	00557363          	bgeu	a0,t0,275c <__muldf3+0x2a0>
    275a:	965a                	c.add	a2,s6
    275c:	02ba0ab3          	mul	s5,s4,a1
    2760:	6b41                	c.lui	s6,0x10
    2762:	fffb0293          	addi	t0,s6,-1 # ffff <BIN_SIZE+0x1a55>
    2766:	005576b3          	and	a3,a0,t0
    276a:	06c2                	c.slli	a3,0x10
    276c:	0058f8b3          	and	a7,a7,t0
    2770:	02b78933          	mul	s2,a5,a1
    2774:	98b6                	c.add	a7,a3
    2776:	8141                	c.srli	a0,0x10
    2778:	9532                	c.add	a0,a2
    277a:	85d6                	c.mv	a1,s5
    277c:	c4f995ff          	maddr32	a1,s3,a5
    2780:	034982b3          	mul	t0,s3,s4
    2784:	01095693          	srli	a3,s2,0x10
    2788:	00b687b3          	add	a5,a3,a1
    278c:	0157f463          	bgeu	a5,s5,2794 <__muldf3+0x2d8>
    2790:	016282b3          	add	t0,t0,s6
    2794:	65c1                	c.lui	a1,0x10
    2796:	15fd                	c.addi	a1,-1
    2798:	00b7f6b3          	and	a3,a5,a1
    279c:	06c2                	c.slli	a3,0x10
    279e:	00b975b3          	and	a1,s2,a1
    27a2:	9726                	c.add	a4,s1
    27a4:	96ae                	c.add	a3,a1
    27a6:	00873633          	sltu	a2,a4,s0
    27aa:	969e                	c.add	a3,t2
    27ac:	9746                	c.add	a4,a7
    27ae:	00c684b3          	add	s1,a3,a2
    27b2:	011735b3          	sltu	a1,a4,a7
    27b6:	00a488b3          	add	a7,s1,a0
    27ba:	00b88433          	add	s0,a7,a1
    27be:	00c4b633          	sltu	a2,s1,a2
    27c2:	0076b6b3          	sltu	a3,a3,t2
    27c6:	8ed1                	c.or	a3,a2
    27c8:	00b435b3          	sltu	a1,s0,a1
    27cc:	83c1                	c.srli	a5,0x10
    27ce:	00a8b533          	sltu	a0,a7,a0
    27d2:	97b6                	c.add	a5,a3
    27d4:	8dc9                	c.or	a1,a0
    27d6:	00971613          	slli	a2,a4,0x9
    27da:	97ae                	c.add	a5,a1
    27dc:	9796                	c.add	a5,t0
    27de:	01e66633          	or	a2,a2,t5
    27e2:	01745693          	srli	a3,s0,0x17
    27e6:	07a6                	c.slli	a5,0x9
    27e8:	00c03633          	snez	a2,a2
    27ec:	835d                	c.srli	a4,0x17
    27ee:	8e59                	c.or	a2,a4
    27f0:	0426                	c.slli	s0,0x9
    27f2:	8fd5                	c.or	a5,a3
    27f4:	8e41                	c.or	a2,s0
    27f6:	1f87f15b          	bbc	a5,24,29d8 <__muldf3+0x51c>
    27fa:	00165713          	srli	a4,a2,0x1
    27fe:	8a05                	c.andi	a2,1
    2800:	01f79693          	slli	a3,a5,0x1f
    2804:	8e59                	c.or	a2,a4
    2806:	8e55                	c.or	a2,a3
    2808:	0017d793          	srli	a5,a5,0x1
    280c:	3fff8713          	addi	a4,t6,1023
    2810:	0ae05263          	blez	a4,28b4 <__muldf3+0x3f8>
    2814:	00767693          	andi	a3,a2,7
    2818:	c685                	c.beqz	a3,2840 <__muldf3+0x384>
    281a:	00186813          	ori	a6,a6,1
    281e:	1c235f5b          	beqc	t1,2,29fc <__muldf3+0x540>
    2822:	2633535b          	beqc	t1,3,2a88 <__muldf3+0x5cc>
    2826:	00031d63          	bnez	t1,2840 <__muldf3+0x384>
    282a:	00f67693          	andi	a3,a2,15
    282e:	0046d95b          	beqc	a3,4,2840 <__muldf3+0x384>
    2832:	00460693          	addi	a3,a2,4
    2836:	00c6b633          	sltu	a2,a3,a2
    283a:	97b2                	c.add	a5,a2
    283c:	00d00633          	add	a2,zero,a3
    2840:	0187f85b          	bbc	a5,24,2850 <__muldf3+0x394>
    2844:	ff000737          	lui	a4,0xff000
    2848:	177d                	c.addi	a4,-1
    284a:	8ff9                	c.and	a5,a4
    284c:	400f8713          	addi	a4,t6,1024
    2850:	7fe00693          	li	a3,2046
    2854:	88f6                	c.mv	a7,t4
    2856:	18e6c363          	blt	a3,a4,29dc <__muldf3+0x520>
    285a:	00365693          	srli	a3,a2,0x3
    285e:	01d79613          	slli	a2,a5,0x1d
    2862:	8e55                	c.or	a2,a3
    2864:	5837a7db          	bfoz	a5,a5,22,3
    2868:	7ff77713          	andi	a4,a4,2047
    286c:	d1dff06f          	j	2588 <__muldf3+0xcc>
    2870:	4711                	c.li	a4,4
    2872:	4501                	c.li	a0,0
    2874:	4e01                	c.li	t3,0
    2876:	4385                	c.li	t2,1
    2878:	4801                	c.li	a6,0
    287a:	b169                	c.j	2504 <__muldf3+0x48>
    287c:	4721                	c.li	a4,8
    287e:	4501                	c.li	a0,0
    2880:	7ff00e13          	li	t3,2047
    2884:	4389                	c.li	t2,2
    2886:	4801                	c.li	a6,0
    2888:	c7dff06f          	j	2504 <__muldf3+0x48>
    288c:	00176713          	ori	a4,a4,1
    2890:	4781                	c.li	a5,0
    2892:	4601                	c.li	a2,0
    2894:	4f05                	c.li	t5,1
    2896:	b14d                	c.j	2538 <__muldf3+0x7c>
    2898:	00276713          	ori	a4,a4,2
    289c:	4781                	c.li	a5,0
    289e:	4601                	c.li	a2,0
    28a0:	4f09                	c.li	t5,2
    28a2:	b959                	c.j	2538 <__muldf3+0x7c>
    28a4:	4881                	c.li	a7,0
    28a6:	7ff00713          	li	a4,2047
    28aa:	000807b7          	lui	a5,0x80
    28ae:	4601                	c.li	a2,0
    28b0:	4841                	c.li	a6,16
    28b2:	b9d9                	c.j	2588 <__muldf3+0xcc>
    28b4:	4685                	c.li	a3,1
    28b6:	8e99                	c.sub	a3,a4
    28b8:	eb51                	c.bnez	a4,294c <__muldf3+0x490>
    28ba:	00767593          	andi	a1,a2,7
    28be:	873e                	c.mv	a4,a5
    28c0:	00058a63          	beqz	a1,28d4 <__muldf3+0x418>
    28c4:	00186813          	ori	a6,a6,1
    28c8:	1e23565b          	beqc	t1,2,2ab4 <__muldf3+0x5f8>
    28cc:	1c335c5b          	beqc	t1,3,2aa4 <__muldf3+0x5e8>
    28d0:	1e030663          	beqz	t1,2abc <__muldf3+0x600>
    28d4:	01875593          	srli	a1,a4,0x18
    28d8:	0015c593          	xori	a1,a1,1
    28dc:	0015f593          	andi	a1,a1,1
    28e0:	41ef8f93          	addi	t6,t6,1054
    28e4:	01f61733          	sll	a4,a2,t6
    28e8:	00d65533          	srl	a0,a2,a3
    28ec:	01f79fb3          	sll	t6,a5,t6
    28f0:	00e03633          	snez	a2,a4
    28f4:	00afefb3          	or	t6,t6,a0
    28f8:	01f66633          	or	a2,a2,t6
    28fc:	00767713          	andi	a4,a2,7
    2900:	00d7d7b3          	srl	a5,a5,a3
    2904:	00070a63          	beqz	a4,2918 <__muldf3+0x45c>
    2908:	00186813          	ori	a6,a6,1
    290c:	1c23545b          	beqc	t1,2,2ad4 <__muldf3+0x618>
    2910:	1c335e5b          	beqc	t1,3,2aec <__muldf3+0x630>
    2914:	14030a63          	beqz	t1,2a68 <__muldf3+0x5ac>
    2918:	1777fc5b          	bbc	a5,23,2a90 <__muldf3+0x5d4>
    291c:	00186813          	ori	a6,a6,1
    2920:	4705                	c.li	a4,1
    2922:	4781                	c.li	a5,0
    2924:	00000613          	li	a2,0
    2928:	01d008b3          	add	a7,zero,t4
    292c:	c4058ee3          	beqz	a1,2588 <__muldf3+0xcc>
    2930:	84087c5b          	bbc	a6,0,2588 <__muldf3+0xcc>
    2934:	00286813          	ori	a6,a6,2
    2938:	04c0006f          	j	2984 <__muldf3+0x4c8>
    293c:	4881                	c.li	a7,0
    293e:	7ff00713          	li	a4,2047
    2942:	000807b7          	lui	a5,0x80
    2946:	4601                	c.li	a2,0
    2948:	c41ff06f          	j	2588 <__muldf3+0xcc>
    294c:	03800593          	li	a1,56
    2950:	0cd5da63          	bge	a1,a3,2a24 <__muldf3+0x568>
    2954:	8e5d                	c.or	a2,a5
    2956:	c20d                	c.beqz	a2,2978 <__muldf3+0x4bc>
    2958:	00186813          	ori	a6,a6,1
    295c:	01d03633          	snez	a2,t4
    2960:	00235c5b          	beqc	t1,2,2978 <__muldf3+0x4bc>
    2964:	ffd30793          	addi	a5,t1,-3
    2968:	0017b793          	seqz	a5,a5
    296c:	001eb613          	seqz	a2,t4
    2970:	40f007b3          	neg	a5,a5
    2974:	00f67633          	and	a2,a2,a5
    2978:	00286813          	ori	a6,a6,2
    297c:	88f6                	c.mv	a7,t4
    297e:	4701                	c.li	a4,0
    2980:	00000793          	li	a5,0
    2984:	4581                	c.li	a1,0
    2986:	fff006b7          	lui	a3,0xfff00
    298a:	8eed                	c.and	a3,a1
    298c:	4c07a7db          	bfoz	a5,a5,19,0
    2990:	8fd5                	c.or	a5,a3
    2992:	801006b7          	lui	a3,0x80100
    2996:	16fd                	c.addi	a3,-1
    2998:	0752                	c.slli	a4,0x14
    299a:	8efd                	c.and	a3,a5
    299c:	8f55                	c.or	a4,a3
    299e:	08fe                	c.slli	a7,0x1f
    29a0:	7807275b          	bfoz	a4,a4,30,0
    29a4:	00c00533          	add	a0,zero,a2
    29a8:	011765b3          	or	a1,a4,a7
    29ac:	00182073          	csrs	fflags,a6
    29b0:	c05ff06f          	j	25b4 <__muldf3+0xf8>
    29b4:	fd888793          	addi	a5,a7,-40
    29b8:	00f617b3          	sll	a5,a2,a5
    29bc:	4601                	c.li	a2,0
    29be:	b1c9                	c.j	2680 <__muldf3+0x1c4>
    29c0:	fd870793          	addi	a5,a4,-40 # feffffd8 <_DATA_LMA_START+0xdeffbd78>
    29c4:	00f512b3          	sll	t0,a0,a5
    29c8:	4501                	c.li	a0,0
    29ca:	b9b9                	c.j	2628 <__muldf3+0x16c>
    29cc:	4731                	c.li	a4,12
    29ce:	7ff00e13          	li	t3,2047
    29d2:	438d                	c.li	t2,3
    29d4:	4841                	c.li	a6,16
    29d6:	b63d                	c.j	2504 <__muldf3+0x48>
    29d8:	8ff2                	c.mv	t6,t3
    29da:	bd0d                	c.j	280c <__muldf3+0x350>
    29dc:	02235a5b          	beqc	t1,2,2a10 <__muldf3+0x554>
    29e0:	0a33505b          	beqc	t1,3,2a80 <__muldf3+0x5c4>
    29e4:	02030863          	beqz	t1,2a14 <__muldf3+0x558>
    29e8:	001007b7          	lui	a5,0x100
    29ec:	7fe00713          	li	a4,2046
    29f0:	17fd                	c.addi	a5,-1
    29f2:	567d                	c.li	a2,-1
    29f4:	00586813          	ori	a6,a6,5
    29f8:	f8dff06f          	j	2984 <__muldf3+0x4c8>
    29fc:	e40e82e3          	beqz	t4,2840 <__muldf3+0x384>
    2a00:	00860693          	addi	a3,a2,8
    2a04:	00c6b633          	sltu	a2,a3,a2
    2a08:	97b2                	c.add	a5,a2
    2a0a:	8636                	c.mv	a2,a3
    2a0c:	e35ff06f          	j	2840 <__muldf3+0x384>
    2a10:	fc0e8ce3          	beqz	t4,29e8 <__muldf3+0x52c>
    2a14:	7ff00713          	li	a4,2047
    2a18:	4781                	c.li	a5,0
    2a1a:	4601                	c.li	a2,0
    2a1c:	00586813          	ori	a6,a6,5
    2a20:	f65ff06f          	j	2984 <__muldf3+0x4c8>
    2a24:	45fd                	c.li	a1,31
    2a26:	0cd5dd63          	bge	a1,a3,2b00 <__muldf3+0x644>
    2a2a:	5585                	c.li	a1,-31
    2a2c:	40e58733          	sub	a4,a1,a4
    2a30:	00e7d733          	srl	a4,a5,a4
    2a34:	0006d8db          	beqc	a3,32,2a44 <__muldf3+0x588>
    2a38:	43ef8f93          	addi	t6,t6,1086
    2a3c:	01f797b3          	sll	a5,a5,t6
    2a40:	00f66633          	or	a2,a2,a5
    2a44:	00c03633          	snez	a2,a2
    2a48:	8e59                	c.or	a2,a4
    2a4a:	00767793          	andi	a5,a2,7
    2a4e:	c3dd                	c.beqz	a5,2af4 <__muldf3+0x638>
    2a50:	00186813          	ori	a6,a6,1
    2a54:	06235e5b          	beqc	t1,2,2ad0 <__muldf3+0x614>
    2a58:	0833585b          	beqc	t1,3,2ae8 <__muldf3+0x62c>
    2a5c:	4585                	c.li	a1,1
    2a5e:	4781                	c.li	a5,0
    2a60:	02031863          	bnez	t1,2a90 <__muldf3+0x5d4>
    2a64:	4781                	c.li	a5,0
    2a66:	4585                	c.li	a1,1
    2a68:	00f67713          	andi	a4,a2,15
    2a6c:	aa47565b          	beqc	a4,4,2918 <__muldf3+0x45c>
    2a70:	00460713          	addi	a4,a2,4
    2a74:	00c73633          	sltu	a2,a4,a2
    2a78:	97b2                	c.add	a5,a2
    2a7a:	863a                	c.mv	a2,a4
    2a7c:	e9dff06f          	j	2918 <__muldf3+0x45c>
    2a80:	f80e8ae3          	beqz	t4,2a14 <__muldf3+0x558>
    2a84:	f65ff06f          	j	29e8 <__muldf3+0x52c>
    2a88:	da0e9ce3          	bnez	t4,2840 <__muldf3+0x384>
    2a8c:	f75ff06f          	j	2a00 <__muldf3+0x544>
    2a90:	00365713          	srli	a4,a2,0x3
    2a94:	01d79613          	slli	a2,a5,0x1d
    2a98:	8e59                	c.or	a2,a4
    2a9a:	5837a7db          	bfoz	a5,a5,22,3
    2a9e:	4701                	c.li	a4,0
    2aa0:	e89ff06f          	j	2928 <__muldf3+0x46c>
    2aa4:	e20e98e3          	bnez	t4,28d4 <__muldf3+0x418>
    2aa8:	ff863713          	sltiu	a4,a2,-8
    2aac:	00174713          	xori	a4,a4,1
    2ab0:	973e                	c.add	a4,a5
    2ab2:	b50d                	c.j	28d4 <__muldf3+0x418>
    2ab4:	e20e80e3          	beqz	t4,28d4 <__muldf3+0x418>
    2ab8:	ff1ff06f          	j	2aa8 <__muldf3+0x5ec>
    2abc:	00f67593          	andi	a1,a2,15
    2ac0:	a045da5b          	beqc	a1,4,28d4 <__muldf3+0x418>
    2ac4:	ffc63713          	sltiu	a4,a2,-4
    2ac8:	00174713          	xori	a4,a4,1
    2acc:	973e                	c.add	a4,a5
    2ace:	b519                	c.j	28d4 <__muldf3+0x418>
    2ad0:	4781                	c.li	a5,0
    2ad2:	4585                	c.li	a1,1
    2ad4:	e40e82e3          	beqz	t4,2918 <__muldf3+0x45c>
    2ad8:	00860713          	addi	a4,a2,8
    2adc:	00c73633          	sltu	a2,a4,a2
    2ae0:	97b2                	c.add	a5,a2
    2ae2:	863a                	c.mv	a2,a4
    2ae4:	e35ff06f          	j	2918 <__muldf3+0x45c>
    2ae8:	4781                	c.li	a5,0
    2aea:	4585                	c.li	a1,1
    2aec:	e20e96e3          	bnez	t4,2918 <__muldf3+0x45c>
    2af0:	fe9ff06f          	j	2ad8 <__muldf3+0x61c>
    2af4:	820d                	c.srli	a2,0x3
    2af6:	88f6                	c.mv	a7,t4
    2af8:	4701                	c.li	a4,0
    2afa:	4781                	c.li	a5,0
    2afc:	e35ff06f          	j	2930 <__muldf3+0x474>
    2b00:	4585                	c.li	a1,1
    2b02:	bbf9                	c.j	28e0 <__muldf3+0x424>
    2b04:	0001                	c.nop
	...

00002b08 <__fixunsdfsi>:
    2b08:	002027f3          	frrm	a5
    2b0c:	3fe00713          	li	a4,1022
    2b10:	7945a6db          	bfoz	a3,a1,30,20
    2b14:	4c05a7db          	bfoz	a5,a1,19,0
    2b18:	81fd                	c.srli	a1,0x1f
    2b1a:	00d74963          	blt	a4,a3,2b2c <__fixunsdfsi+0x24>
    2b1e:	ce89                	c.beqz	a3,2b38 <__fixunsdfsi+0x30>
    2b20:	4501                	c.li	a0,0
    2b22:	4785                	c.li	a5,1
    2b24:	0017a073          	csrs	fflags,a5
    2b28:	00008067          	ret
    2b2c:	c991                	c.beqz	a1,2b40 <__fixunsdfsi+0x38>
    2b2e:	4501                	c.li	a0,0
    2b30:	47c1                	c.li	a5,16
    2b32:	0017a073          	csrs	fflags,a5
    2b36:	8082                	c.jr	ra
    2b38:	8d5d                	c.or	a0,a5
    2b3a:	f17d                	c.bnez	a0,2b20 <__fixunsdfsi+0x18>
    2b3c:	00008067          	ret
    2b40:	41e00713          	li	a4,1054
    2b44:	02d74863          	blt	a4,a3,2b74 <__fixunsdfsi+0x6c>
    2b48:	43300613          	li	a2,1075
    2b4c:	00100737          	lui	a4,0x100
    2b50:	8e15                	c.sub	a2,a3
    2b52:	45fd                	c.li	a1,31
    2b54:	8f5d                	c.or	a4,a5
    2b56:	02c5c363          	blt	a1,a2,2b7c <__fixunsdfsi+0x74>
    2b5a:	bed68693          	addi	a3,a3,-1043 # 800ffbed <_DATA_LMA_START+0x600fb98d>
    2b5e:	00d517b3          	sll	a5,a0,a3
    2b62:	00d71733          	sll	a4,a4,a3
    2b66:	00c55533          	srl	a0,a0,a2
    2b6a:	00f037b3          	snez	a5,a5
    2b6e:	8d59                	c.or	a0,a4
    2b70:	fbd5                	c.bnez	a5,2b24 <__fixunsdfsi+0x1c>
    2b72:	8082                	c.jr	ra
    2b74:	557d                	c.li	a0,-1
    2b76:	47c1                	c.li	a5,16
    2b78:	fadff06f          	j	2b24 <__fixunsdfsi+0x1c>
    2b7c:	000658db          	beqc	a2,32,2b8c <__fixunsdfsi+0x84>
    2b80:	c0d68793          	addi	a5,a3,-1011
    2b84:	00f717b3          	sll	a5,a4,a5
    2b88:	00f56533          	or	a0,a0,a5
    2b8c:	41300793          	li	a5,1043
    2b90:	40d786b3          	sub	a3,a5,a3
    2b94:	00a037b3          	snez	a5,a0
    2b98:	00d75533          	srl	a0,a4,a3
    2b9c:	bfd1                	c.j	2b70 <__fixunsdfsi+0x68>
    2b9e:	0001                	c.nop

00002ba0 <__floatsidf>:
    2ba0:	c925                	c.beqz	a0,2c10 <__floatsidf+0x70>
    2ba2:	40a007b3          	neg	a5,a0
    2ba6:	01f55613          	srli	a2,a0,0x1f
    2baa:	f2f5057f          	maxw	a0,a0,a5
    2bae:	af95077f          	clz32	a4,a0
    2bb2:	41e00793          	li	a5,1054
    2bb6:	8f99                	c.sub	a5,a4
    2bb8:	46a9                	c.li	a3,10
    2bba:	7ff7f793          	andi	a5,a5,2047
    2bbe:	02e6df63          	bge	a3,a4,2bfc <__floatsidf+0x5c>
    2bc2:	1755                	c.addi	a4,-11
    2bc4:	00e516b3          	sll	a3,a0,a4
    2bc8:	4c06a6db          	bfoz	a3,a3,19,0
    2bcc:	00000713          	li	a4,0
    2bd0:	4581                	c.li	a1,0
    2bd2:	853a                	c.mv	a0,a4
    2bd4:	fff00737          	lui	a4,0xfff00
    2bd8:	8f6d                	c.and	a4,a1
    2bda:	4c06a6db          	bfoz	a3,a3,19,0
    2bde:	8ed9                	c.or	a3,a4
    2be0:	01479713          	slli	a4,a5,0x14
    2be4:	801007b7          	lui	a5,0x80100
    2be8:	17fd                	c.addi	a5,-1
    2bea:	8ff5                	c.and	a5,a3
    2bec:	8fd9                	c.or	a5,a4
    2bee:	7807a7db          	bfoz	a5,a5,30,0
    2bf2:	01f61713          	slli	a4,a2,0x1f
    2bf6:	00e7e5b3          	or	a1,a5,a4
    2bfa:	8082                	c.jr	ra
    2bfc:	46ad                	c.li	a3,11
    2bfe:	8e99                	c.sub	a3,a4
    2c00:	00d556b3          	srl	a3,a0,a3
    2c04:	0755                	c.addi	a4,21
    2c06:	00e51733          	sll	a4,a0,a4
    2c0a:	4c06a6db          	bfoz	a3,a3,19,0
    2c0e:	b7c9                	c.j	2bd0 <__floatsidf+0x30>
    2c10:	4601                	c.li	a2,0
    2c12:	4781                	c.li	a5,0
    2c14:	4681                	c.li	a3,0
    2c16:	4701                	c.li	a4,0
    2c18:	bf65                	c.j	2bd0 <__floatsidf+0x30>
	...

00002c1c <__extendsfdf2>:
    2c1c:	e0050753          	fmv.x.w	a4,fa0
    2c20:	002027f3          	frrm	a5
    2c24:	797727db          	bfoz	a5,a4,30,23
    2c28:	00178593          	addi	a1,a5,1 # 80100001 <_DATA_LMA_START+0x600fbda1>
    2c2c:	0ff5f593          	andi	a1,a1,255
    2c30:	4505                	c.li	a0,1
    2c32:	580726db          	bfoz	a3,a4,22,0
    2c36:	01f75613          	srli	a2,a4,0x1f
    2c3a:	02b55d63          	bge	a0,a1,2c74 <__extendsfdf2+0x58>
    2c3e:	0036d713          	srli	a4,a3,0x3
    2c42:	38078793          	addi	a5,a5,896
    2c46:	06f6                	c.slli	a3,0x1d
    2c48:	4581                	c.li	a1,0
    2c4a:	8536                	c.mv	a0,a3
    2c4c:	fff006b7          	lui	a3,0xfff00
    2c50:	8eed                	c.and	a3,a1
    2c52:	4c07275b          	bfoz	a4,a4,19,0
    2c56:	8ed9                	c.or	a3,a4
    2c58:	51e7a75b          	bfoz	a4,a5,20,30
    2c5c:	801007b7          	lui	a5,0x80100
    2c60:	17fd                	c.addi	a5,-1
    2c62:	8ff5                	c.and	a5,a3
    2c64:	8fd9                	c.or	a5,a4
    2c66:	7807a7db          	bfoz	a5,a5,30,0
    2c6a:	01f61713          	slli	a4,a2,0x1f
    2c6e:	00e7e5b3          	or	a1,a5,a4
    2c72:	8082                	c.jr	ra
    2c74:	e785                	c.bnez	a5,2c9c <__extendsfdf2+0x80>
    2c76:	cabd                	c.beqz	a3,2cec <__extendsfdf2+0xd0>
    2c78:	af9685ff          	clz32	a1,a3
    2c7c:	47a9                	c.li	a5,10
    2c7e:	06b7db63          	bge	a5,a1,2cf4 <__extendsfdf2+0xd8>
    2c82:	ff558713          	addi	a4,a1,-11 # fff5 <BIN_SIZE+0x1a4b>
    2c86:	00e69733          	sll	a4,a3,a4
    2c8a:	4681                	c.li	a3,0
    2c8c:	38900793          	li	a5,905
    2c90:	8f8d                	c.sub	a5,a1
    2c92:	4c07275b          	bfoz	a4,a4,19,0
    2c96:	7ff7f793          	andi	a5,a5,2047
    2c9a:	b77d                	c.j	2c48 <__extendsfdf2+0x2c>
    2c9c:	c6a1                	c.beqz	a3,2ce4 <__extendsfdf2+0xc8>
    2c9e:	00080737          	lui	a4,0x80
    2ca2:	0036d793          	srli	a5,a3,0x3
    2ca6:	00100837          	lui	a6,0x100
    2caa:	8fd9                	c.or	a5,a4
    2cac:	187d                	c.addi	a6,-1
    2cae:	01d69713          	slli	a4,a3,0x1d
    2cb2:	0107f7b3          	and	a5,a5,a6
    2cb6:	4566f95b          	bbs	a3,22,2d08 <__extendsfdf2+0xec>
    2cba:	4581                	c.li	a1,0
    2cbc:	853a                	c.mv	a0,a4
    2cbe:	fff00737          	lui	a4,0xfff00
    2cc2:	8f6d                	c.and	a4,a1
    2cc4:	0107f7b3          	and	a5,a5,a6
    2cc8:	8fd9                	c.or	a5,a4
    2cca:	7ff006b7          	lui	a3,0x7ff00
    2cce:	8edd                	c.or	a3,a5
    2cd0:	01f61713          	slli	a4,a2,0x1f
    2cd4:	7806a6db          	bfoz	a3,a3,30,0
    2cd8:	00e6e5b3          	or	a1,a3,a4
    2cdc:	00186073          	csrsi	fflags,16
    2ce0:	00008067          	ret
    2ce4:	7ff00793          	li	a5,2047
    2ce8:	4701                	c.li	a4,0
    2cea:	bfb9                	c.j	2c48 <__extendsfdf2+0x2c>
    2cec:	4781                	c.li	a5,0
    2cee:	4701                	c.li	a4,0
    2cf0:	f59ff06f          	j	2c48 <__extendsfdf2+0x2c>
    2cf4:	472d                	c.li	a4,11
    2cf6:	8f0d                	c.sub	a4,a1
    2cf8:	01558793          	addi	a5,a1,21
    2cfc:	00e6d733          	srl	a4,a3,a4
    2d00:	00f696b3          	sll	a3,a3,a5
    2d04:	f89ff06f          	j	2c8c <__extendsfdf2+0x70>
    2d08:	4581                	c.li	a1,0
    2d0a:	853a                	c.mv	a0,a4
    2d0c:	fff00737          	lui	a4,0xfff00
    2d10:	8f6d                	c.and	a4,a1
    2d12:	0107f7b3          	and	a5,a5,a6
    2d16:	8fd9                	c.or	a5,a4
    2d18:	7ff006b7          	lui	a3,0x7ff00
    2d1c:	8edd                	c.or	a3,a5
    2d1e:	01f61713          	slli	a4,a2,0x1f
    2d22:	7806a6db          	bfoz	a3,a3,30,0
    2d26:	00e6e5b3          	or	a1,a3,a4
    2d2a:	8082                	c.jr	ra

00002d2c <__truncdfsf2>:
    2d2c:	00202873          	frrm	a6
    2d30:	7945a65b          	bfoz	a2,a1,30,20
    2d34:	00160693          	addi	a3,a2,1
    2d38:	0d65a8db          	bfoz	a7,a1,3,22
    2d3c:	01d55713          	srli	a4,a0,0x1d
    2d40:	7ff6f693          	andi	a3,a3,2047
    2d44:	4785                	c.li	a5,1
    2d46:	01176733          	or	a4,a4,a7
    2d4a:	81fd                	c.srli	a1,0x1f
    2d4c:	00351893          	slli	a7,a0,0x3
    2d50:	0cd7da63          	bge	a5,a3,2e24 <__truncdfsf2+0xf8>
    2d54:	c8060693          	addi	a3,a2,-896
    2d58:	0fe00793          	li	a5,254
    2d5c:	06d7c863          	blt	a5,a3,2dcc <__truncdfsf2+0xa0>
    2d60:	10d05e63          	blez	a3,2e7c <__truncdfsf2+0x150>
    2d64:	051a                	c.slli	a0,0x6
    2d66:	00a03533          	snez	a0,a0
    2d6a:	070e                	c.slli	a4,0x3
    2d6c:	8f49                	c.or	a4,a0
    2d6e:	01d8d893          	srli	a7,a7,0x1d
    2d72:	01176733          	or	a4,a4,a7
    2d76:	00777613          	andi	a2,a4,7
    2d7a:	4781                	c.li	a5,0
    2d7c:	4501                	c.li	a0,0
    2d7e:	ca49                	c.beqz	a2,2e10 <__truncdfsf2+0xe4>
    2d80:	1628505b          	beqc	a6,2,2ee0 <__truncdfsf2+0x1b4>
    2d84:	0838525b          	beqc	a6,3,2e08 <__truncdfsf2+0xdc>
    2d88:	14080463          	beqz	a6,2ed0 <__truncdfsf2+0x1a4>
    2d8c:	04000637          	lui	a2,0x4000
    2d90:	00e67633          	and	a2,a2,a4
    2d94:	28078863          	beqz	a5,3024 <__truncdfsf2+0x2f8>
    2d98:	0027e513          	ori	a0,a5,2
    2d9c:	26060663          	beqz	a2,3008 <__truncdfsf2+0x2dc>
    2da0:	00168693          	addi	a3,a3,1 # 7ff00001 <_DATA_LMA_START+0x5fefbda1>
    2da4:	0ff00613          	li	a2,255
    2da8:	6437275b          	bfoz	a4,a4,25,3
    2dac:	0ff6f793          	andi	a5,a3,255
    2db0:	0ac68a63          	beq	a3,a2,2e64 <__truncdfsf2+0x138>
    2db4:	07de                	c.slli	a5,0x17
    2db6:	5807275b          	bfoz	a4,a4,22,0
    2dba:	05fe                	c.slli	a1,0x1f
    2dbc:	8fd9                	c.or	a5,a4
    2dbe:	8fcd                	c.or	a5,a1
    2dc0:	02051e63          	bnez	a0,2dfc <__truncdfsf2+0xd0>
    2dc4:	f0078553          	fmv.w.x	fa0,a5
    2dc8:	00008067          	ret
    2dcc:	16080c63          	beqz	a6,2f44 <__truncdfsf2+0x218>
    2dd0:	1638545b          	beqc	a6,3,2f38 <__truncdfsf2+0x20c>
    2dd4:	1e285a5b          	beqc	a6,2,2fc8 <__truncdfsf2+0x29c>
    2dd8:	00500513          	li	a0,5
    2ddc:	16080a63          	beqz	a6,2f50 <__truncdfsf2+0x224>
    2de0:	1e385a5b          	beqc	a6,3,2fd4 <__truncdfsf2+0x2a8>
    2de4:	1a285e5b          	beqc	a6,2,2fa0 <__truncdfsf2+0x274>
    2de8:	00800737          	lui	a4,0x800
    2dec:	7f0007b7          	lui	a5,0x7f000
    2df0:	177d                	c.addi	a4,-1
    2df2:	8f5d                	c.or	a4,a5
    2df4:	05fe                	c.slli	a1,0x1f
    2df6:	780727db          	bfoz	a5,a4,30,0
    2dfa:	8fcd                	c.or	a5,a1
    2dfc:	00152073          	csrs	fflags,a0
    2e00:	f0078553          	fmv.w.x	fa0,a5
    2e04:	00008067          	ret
    2e08:	4505                	c.li	a0,1
    2e0a:	e199                	c.bnez	a1,2e10 <__truncdfsf2+0xe4>
    2e0c:	00870713          	addi	a4,a4,8 # 800008 <FLASH_SIZE+0x700008>
    2e10:	04000637          	lui	a2,0x4000
    2e14:	8e79                	c.and	a2,a4
    2e16:	d3d9                	c.beqz	a5,2d9c <__truncdfsf2+0x70>
    2e18:	b805725b          	bbc	a0,0,2d9c <__truncdfsf2+0x70>
    2e1c:	87aa                	c.mv	a5,a0
    2e1e:	0027e513          	ori	a0,a5,2
    2e22:	bfad                	c.j	2d9c <__truncdfsf2+0x70>
    2e24:	011768b3          	or	a7,a4,a7
    2e28:	e615                	c.bnez	a2,2e54 <__truncdfsf2+0x128>
    2e2a:	01f59793          	slli	a5,a1,0x1f
    2e2e:	f8088be3          	beqz	a7,2dc4 <__truncdfsf2+0x98>
    2e32:	1828535b          	beqc	a6,2,2fb8 <__truncdfsf2+0x28c>
    2e36:	1238555b          	beqc	a6,3,2f60 <__truncdfsf2+0x234>
    2e3a:	4705                	c.li	a4,1
    2e3c:	4789                	c.li	a5,2
    2e3e:	4605                	c.li	a2,1
    2e40:	1a080463          	beqz	a6,2fe8 <__truncdfsf2+0x2bc>
    2e44:	83ed                	c.srli	a5,0x1b
    2e46:	0017c793          	xori	a5,a5,1
    2e4a:	8b85                	c.andi	a5,1
    2e4c:	4505                	c.li	a0,1
    2e4e:	4681                	c.li	a3,0
    2e50:	fa05                	c.bnez	a2,2d80 <__truncdfsf2+0x54>
    2e52:	bf7d                	c.j	2e10 <__truncdfsf2+0xe4>
    2e54:	08089a63          	bnez	a7,2ee8 <__truncdfsf2+0x1bc>
    2e58:	05fe                	c.slli	a1,0x1f
    2e5a:	7f8007b7          	lui	a5,0x7f800
    2e5e:	8fcd                	c.or	a5,a1
    2e60:	f65ff06f          	j	2dc4 <__truncdfsf2+0x98>
    2e64:	00556513          	ori	a0,a0,5
    2e68:	f6081ce3          	bnez	a6,2de0 <__truncdfsf2+0xb4>
    2e6c:	05fe                	c.slli	a1,0x1f
    2e6e:	7f8007b7          	lui	a5,0x7f800
    2e72:	8fcd                	c.or	a5,a1
    2e74:	00152073          	csrs	fflags,a0
    2e78:	f89ff06f          	j	2e00 <__truncdfsf2+0xd4>
    2e7c:	57a5                	c.li	a5,-23
    2e7e:	0af6c363          	blt	a3,a5,2f24 <__truncdfsf2+0x1f8>
    2e82:	4579                	c.li	a0,30
    2e84:	008007b7          	lui	a5,0x800
    2e88:	8d15                	c.sub	a0,a3
    2e8a:	437d                	c.li	t1,31
    2e8c:	8fd9                	c.or	a5,a4
    2e8e:	0ea34163          	blt	t1,a0,2f70 <__truncdfsf2+0x244>
    2e92:	c8260613          	addi	a2,a2,-894 # 3fffc82 <FLASH_SIZE+0x3effc82>
    2e96:	00c89733          	sll	a4,a7,a2
    2e9a:	00e03733          	snez	a4,a4
    2e9e:	00c797b3          	sll	a5,a5,a2
    2ea2:	00a8d8b3          	srl	a7,a7,a0
    2ea6:	8f5d                	c.or	a4,a5
    2ea8:	00e8e733          	or	a4,a7,a4
    2eac:	01f59793          	slli	a5,a1,0x1f
    2eb0:	db11                	c.beqz	a4,2dc4 <__truncdfsf2+0x98>
    2eb2:	00171793          	slli	a5,a4,0x1
    2eb6:	0077f693          	andi	a3,a5,7
    2eba:	00777613          	andi	a2,a4,7
    2ebe:	14069763          	bnez	a3,300c <__truncdfsf2+0x2e0>
    2ec2:	83ed                	c.srli	a5,0x1b
    2ec4:	0017c793          	xori	a5,a5,1
    2ec8:	8b85                	c.andi	a5,1
    2eca:	4501                	c.li	a0,0
    2ecc:	4681                	c.li	a3,0
    2ece:	b749                	c.j	2e50 <__truncdfsf2+0x124>
    2ed0:	00f77613          	andi	a2,a4,15
    2ed4:	aa465c5b          	beqc	a2,4,2d8c <__truncdfsf2+0x60>
    2ed8:	00100513          	li	a0,1
    2edc:	0711                	c.addi	a4,4
    2ede:	bf0d                	c.j	2e10 <__truncdfsf2+0xe4>
    2ee0:	4505                	c.li	a0,1
    2ee2:	d59d                	c.beqz	a1,2e10 <__truncdfsf2+0xe4>
    2ee4:	0721                	c.addi	a4,8
    2ee6:	b72d                	c.j	2e10 <__truncdfsf2+0xe4>
    2ee8:	7ff00793          	li	a5,2047
    2eec:	4501                	c.li	a0,0
    2eee:	00f61963          	bne	a2,a5,2f00 <__truncdfsf2+0x1d4>
    2ef2:	00400537          	lui	a0,0x400
    2ef6:	8d79                	c.and	a0,a4
    2ef8:	00153513          	seqz	a0,a0
    2efc:	00451513          	slli	a0,a0,0x4
    2f00:	070e                	c.slli	a4,0x3
    2f02:	020007b7          	lui	a5,0x2000
    2f06:	8f5d                	c.or	a4,a5
    2f08:	0ff00693          	li	a3,255
    2f0c:	0ff00793          	li	a5,255
    2f10:	00375713          	srli	a4,a4,0x3
    2f14:	08f68a63          	beq	a3,a5,2fa8 <__truncdfsf2+0x27c>
    2f18:	5807275b          	bfoz	a4,a4,22,0
    2f1c:	0ff6f793          	andi	a5,a3,255
    2f20:	e95ff06f          	j	2db4 <__truncdfsf2+0x88>
    2f24:	08285a5b          	beqc	a6,2,2fb8 <__truncdfsf2+0x28c>
    2f28:	02385c5b          	beqc	a6,3,2f60 <__truncdfsf2+0x234>
    2f2c:	0a080863          	beqz	a6,2fdc <__truncdfsf2+0x2b0>
    2f30:	4705                	c.li	a4,1
    2f32:	4681                	c.li	a3,0
    2f34:	4785                	c.li	a5,1
    2f36:	b5a9                	c.j	2d80 <__truncdfsf2+0x54>
    2f38:	edb1                	c.bnez	a1,2f94 <__truncdfsf2+0x268>
    2f3a:	7f8007b7          	lui	a5,0x7f800
    2f3e:	4515                	c.li	a0,5
    2f40:	ebdff06f          	j	2dfc <__truncdfsf2+0xd0>
    2f44:	05fe                	c.slli	a1,0x1f
    2f46:	7f8007b7          	lui	a5,0x7f800
    2f4a:	8fcd                	c.or	a5,a1
    2f4c:	4515                	c.li	a0,5
    2f4e:	b57d                	c.j	2dfc <__truncdfsf2+0xd0>
    2f50:	577d                	c.li	a4,-1
    2f52:	4781                	c.li	a5,0
    2f54:	4515                	c.li	a0,5
    2f56:	0fe00693          	li	a3,254
    2f5a:	0711                	c.addi	a4,4
    2f5c:	eb5ff06f          	j	2e10 <__truncdfsf2+0xe4>
    2f60:	4605                	c.li	a2,1
    2f62:	4705                	c.li	a4,1
    2f64:	00200793          	li	a5,2
    2f68:	ec059ee3          	bnez	a1,2e44 <__truncdfsf2+0x118>
    2f6c:	07a1                	c.addi	a5,8
    2f6e:	bdd9                	c.j	2e44 <__truncdfsf2+0x118>
    2f70:	5779                	c.li	a4,-2
    2f72:	8f15                	c.sub	a4,a3
    2f74:	00e7d733          	srl	a4,a5,a4
    2f78:	000558db          	beqc	a0,32,2f88 <__truncdfsf2+0x25c>
    2f7c:	ca260613          	addi	a2,a2,-862
    2f80:	00c797b3          	sll	a5,a5,a2
    2f84:	00f8e8b3          	or	a7,a7,a5
    2f88:	011038b3          	snez	a7,a7
    2f8c:	00e8e733          	or	a4,a7,a4
    2f90:	f1dff06f          	j	2eac <__truncdfsf2+0x180>
    2f94:	577d                	c.li	a4,-1
    2f96:	0fe00693          	li	a3,254
    2f9a:	4515                	c.li	a0,5
    2f9c:	e05ff06f          	j	2da0 <__truncdfsf2+0x74>
    2fa0:	e40584e3          	beqz	a1,2de8 <__truncdfsf2+0xbc>
    2fa4:	4585                	c.li	a1,1
    2fa6:	b5d9                	c.j	2e6c <__truncdfsf2+0x140>
    2fa8:	cf21                	c.beqz	a4,3000 <__truncdfsf2+0x2d4>
    2faa:	4581                	c.li	a1,0
    2fac:	0ff00793          	li	a5,255
    2fb0:	00400737          	lui	a4,0x400
    2fb4:	e01ff06f          	j	2db4 <__truncdfsf2+0x88>
    2fb8:	4605                	c.li	a2,1
    2fba:	4705                	c.li	a4,1
    2fbc:	00200793          	li	a5,2
    2fc0:	e80582e3          	beqz	a1,2e44 <__truncdfsf2+0x118>
    2fc4:	07a1                	c.addi	a5,8
    2fc6:	bdbd                	c.j	2e44 <__truncdfsf2+0x118>
    2fc8:	d5f1                	c.beqz	a1,2f94 <__truncdfsf2+0x268>
    2fca:	ff8007b7          	lui	a5,0xff800
    2fce:	4515                	c.li	a0,5
    2fd0:	e2dff06f          	j	2dfc <__truncdfsf2+0xd0>
    2fd4:	e8058ce3          	beqz	a1,2e6c <__truncdfsf2+0x140>
    2fd8:	e11ff06f          	j	2de8 <__truncdfsf2+0xbc>
    2fdc:	4785                	c.li	a5,1
    2fde:	4681                	c.li	a3,0
    2fe0:	4705                	c.li	a4,1
    2fe2:	4505                	c.li	a0,1
    2fe4:	ef9ff06f          	j	2edc <__truncdfsf2+0x1b0>
    2fe8:	4705                	c.li	a4,1
    2fea:	4789                	c.li	a5,2
    2fec:	00100613          	li	a2,1
    2ff0:	0791                	c.addi	a5,4
    2ff2:	83ed                	c.srli	a5,0x1b
    2ff4:	0017c793          	xori	a5,a5,1
    2ff8:	8b85                	c.andi	a5,1
    2ffa:	4505                	c.li	a0,1
    2ffc:	4681                	c.li	a3,0
    2ffe:	bd89                	c.j	2e50 <__truncdfsf2+0x124>
    3000:	0ff00793          	li	a5,255
    3004:	4701                	c.li	a4,0
    3006:	b37d                	c.j	2db4 <__truncdfsf2+0x88>
    3008:	830d                	c.srli	a4,0x3
    300a:	b739                	c.j	2f18 <__truncdfsf2+0x1ec>
    300c:	ba285a5b          	beqc	a6,2,2fc0 <__truncdfsf2+0x294>
    3010:	b4385c5b          	beqc	a6,3,2f68 <__truncdfsf2+0x23c>
    3014:	e20818e3          	bnez	a6,2e44 <__truncdfsf2+0x118>
    3018:	00f7f693          	andi	a3,a5,15
    301c:	a246d45b          	beqc	a3,4,2e44 <__truncdfsf2+0x118>
    3020:	fd1ff06f          	j	2ff0 <__truncdfsf2+0x2c4>
    3024:	4505                	c.li	a0,1
    3026:	d6061de3          	bnez	a2,2da0 <__truncdfsf2+0x74>
    302a:	b5cd                	c.j	2f0c <__truncdfsf2+0x1e0>

0000302c <__riscv_save_12>:
    302c:	7139                	c.addi16sp	sp,-64
    302e:	4301                	c.li	t1,0
    3030:	c66e                	c.swsp	s11,12(sp)
    3032:	a019                	c.j	3038 <__riscv_save_10+0x4>

00003034 <__riscv_save_10>:
    3034:	7139                	c.addi16sp	sp,-64
    3036:	5341                	c.li	t1,-16
    3038:	c86a                	c.swsp	s10,16(sp)
    303a:	ca66                	c.swsp	s9,20(sp)
    303c:	cc62                	c.swsp	s8,24(sp)
    303e:	ce5e                	c.swsp	s7,28(sp)
    3040:	a019                	c.j	3046 <__riscv_save_4+0x4>

00003042 <__riscv_save_4>:
    3042:	7139                	c.addi16sp	sp,-64
    3044:	5301                	c.li	t1,-32
    3046:	d05a                	c.swsp	s6,32(sp)
    3048:	d256                	c.swsp	s5,36(sp)
    304a:	d452                	c.swsp	s4,40(sp)
    304c:	d64e                	c.swsp	s3,44(sp)
    304e:	d84a                	c.swsp	s2,48(sp)
    3050:	da26                	c.swsp	s1,52(sp)
    3052:	dc22                	c.swsp	s0,56(sp)
    3054:	de06                	c.swsp	ra,60(sp)
    3056:	40610133          	sub	sp,sp,t1
    305a:	8282                	c.jr	t0

0000305c <__riscv_save_0>:
    305c:	1141                	c.addi	sp,-16
    305e:	c04a                	c.swsp	s2,0(sp)
    3060:	c226                	c.swsp	s1,4(sp)
    3062:	c422                	c.swsp	s0,8(sp)
    3064:	c606                	c.swsp	ra,12(sp)
    3066:	8282                	c.jr	t0

00003068 <__riscv_restore_12>:
    3068:	4db2                	c.lwsp	s11,12(sp)
    306a:	0141                	c.addi	sp,16

0000306c <__riscv_restore_10>:
    306c:	4d02                	c.lwsp	s10,0(sp)
    306e:	4c92                	c.lwsp	s9,4(sp)
    3070:	4c22                	c.lwsp	s8,8(sp)
    3072:	4bb2                	c.lwsp	s7,12(sp)
    3074:	0141                	c.addi	sp,16

00003076 <__riscv_restore_4>:
    3076:	4b02                	c.lwsp	s6,0(sp)
    3078:	4a92                	c.lwsp	s5,4(sp)
    307a:	4a22                	c.lwsp	s4,8(sp)
    307c:	49b2                	c.lwsp	s3,12(sp)
    307e:	0141                	c.addi	sp,16

00003080 <__riscv_restore_0>:
    3080:	4902                	c.lwsp	s2,0(sp)
    3082:	4492                	c.lwsp	s1,4(sp)
    3084:	4422                	c.lwsp	s0,8(sp)
    3086:	40b2                	c.lwsp	ra,12(sp)
    3088:	0141                	c.addi	sp,16
    308a:	8082                	c.jr	ra

0000308c <malloc>:
    308c:	8004                	exec.it	#8     !
    308e:	85aa                	c.mv	a1,a0
    3090:	3252a52b          	lwgp	a0,39716 # 8a324 <_impure_ptr>
    3094:	2271                	c.jal	3220 <_malloc_r>
    3096:	b7ed                	c.j	3080 <__riscv_restore_0>

00003098 <free>:
    3098:	8004                	exec.it	#8     !
    309a:	85aa                	c.mv	a1,a0
    309c:	3252a52b          	lwgp	a0,39716 # 8a324 <_impure_ptr>
    30a0:	28cd                	c.jal	3192 <_free_r>
    30a2:	bff9                	c.j	3080 <__riscv_restore_0>

000030a4 <memcpy>:
    30a4:	00a5c7b3          	xor	a5,a1,a0
    30a8:	8b8d                	c.andi	a5,3
    30aa:	00c508b3          	add	a7,a0,a2
    30ae:	ebb9                	c.bnez	a5,3104 <memcpy+0x60>
    30b0:	478d                	c.li	a5,3
    30b2:	04c7f963          	bgeu	a5,a2,3104 <memcpy+0x60>
    30b6:	00357713          	andi	a4,a0,3
    30ba:	87aa                	c.mv	a5,a0
    30bc:	06071063          	bnez	a4,311c <memcpy+0x78>
    30c0:	ffc8f813          	andi	a6,a7,-4
    30c4:	40f806b3          	sub	a3,a6,a5
    30c8:	02000713          	li	a4,32
    30cc:	02000393          	li	t2,32
    30d0:	06d74663          	blt	a4,a3,313c <memcpy+0x98>
    30d4:	0307f463          	bgeu	a5,a6,30fc <memcpy+0x58>
    30d8:	86ae                	c.mv	a3,a1
    30da:	873e                	c.mv	a4,a5
    30dc:	4290                	c.lw	a2,0(a3)
    30de:	0711                	c.addi	a4,4
    30e0:	fec72e23          	sw	a2,-4(a4) # 3ffffc <FLASH_SIZE+0x2ffffc>
    30e4:	0691                	c.addi	a3,4
    30e6:	ff076be3          	bltu	a4,a6,30dc <memcpy+0x38>
    30ea:	fff7c713          	not	a4,a5
    30ee:	983a                	c.add	a6,a4
    30f0:	ffc87813          	andi	a6,a6,-4
    30f4:	0811                	c.addi	a6,4
    30f6:	97c2                	c.add	a5,a6
    30f8:	010585b3          	add	a1,a1,a6
    30fc:	0117e863          	bltu	a5,a7,310c <memcpy+0x68>
    3100:	00008067          	ret
    3104:	ff157ee3          	bgeu	a0,a7,3100 <memcpy+0x5c>
    3108:	00a007b3          	add	a5,zero,a0
    310c:	8c14                	exec.it	#15     !
    310e:	0785                	c.addi	a5,1
    3110:	8850                	exec.it	#37     !
    3112:	0585                	c.addi	a1,1
    3114:	ff17ece3          	bltu	a5,a7,310c <memcpy+0x68>
    3118:	00008067          	ret
    311c:	8c14                	exec.it	#15     !
    311e:	0785                	c.addi	a5,1
    3120:	8850                	exec.it	#37     !
    3122:	0037f713          	andi	a4,a5,3
    3126:	0585                	c.addi	a1,1
    3128:	df41                	c.beqz	a4,30c0 <memcpy+0x1c>
    312a:	8c14                	exec.it	#15     !
    312c:	0785                	c.addi	a5,1
    312e:	8850                	exec.it	#37     !
    3130:	0037f713          	andi	a4,a5,3
    3134:	0585                	c.addi	a1,1
    3136:	f37d                	c.bnez	a4,311c <memcpy+0x78>
    3138:	f89ff06f          	j	30c0 <memcpy+0x1c>
    313c:	4dd8                	c.lw	a4,28(a1)
    313e:	0005a283          	lw	t0,0(a1)
    3142:	0045af83          	lw	t6,4(a1)
    3146:	0085af03          	lw	t5,8(a1)
    314a:	00c5ae83          	lw	t4,12(a1)
    314e:	0105ae03          	lw	t3,16(a1)
    3152:	0145a303          	lw	t1,20(a1)
    3156:	4d90                	c.lw	a2,24(a1)
    3158:	02458593          	addi	a1,a1,36
    315c:	ffc5a683          	lw	a3,-4(a1)
    3160:	02478793          	addi	a5,a5,36 # ff800024 <_DATA_LMA_START+0xdf7fbdc4>
    3164:	fee7ac23          	sw	a4,-8(a5)
    3168:	fc57ae23          	sw	t0,-36(a5)
    316c:	fff7a023          	sw	t6,-32(a5)
    3170:	ffe7a223          	sw	t5,-28(a5)
    3174:	ffd7a423          	sw	t4,-24(a5)
    3178:	ffc7a623          	sw	t3,-20(a5)
    317c:	fe67a823          	sw	t1,-16(a5)
    3180:	fec7aa23          	sw	a2,-12(a5)
    3184:	40f80733          	sub	a4,a6,a5
    3188:	fed7ae23          	sw	a3,-4(a5)
    318c:	fae3c8e3          	blt	t2,a4,313c <memcpy+0x98>
    3190:	b791                	c.j	30d4 <memcpy+0x30>

00003192 <_free_r>:
    3192:	c5b5                	c.beqz	a1,31fe <_free_r+0x6c>
    3194:	ffc5a703          	lw	a4,-4(a1)
    3198:	ffc58793          	addi	a5,a1,-4
    319c:	00075363          	bgez	a4,31a2 <_free_r+0x10>
    31a0:	97ba                	c.add	a5,a4
    31a2:	34d2a72b          	lwgp	a4,39756 # 8a34c <__malloc_free_list>
    31a6:	85b6                	c.mv	a1,a3
    31a8:	e711                	c.bnez	a4,31b4 <_free_r+0x22>
    31aa:	0007a223          	sw	zero,4(a5)
    31ae:	34f2c6ab          	swgp	a5,39756 # 8a34c <__malloc_free_list>
    31b2:	8082                	c.jr	ra
    31b4:	02e7f063          	bgeu	a5,a4,31d4 <_free_r+0x42>
    31b8:	4390                	c.lw	a2,0(a5)
    31ba:	00c786b3          	add	a3,a5,a2
    31be:	00d71663          	bne	a4,a3,31ca <_free_r+0x38>
    31c2:	4314                	c.lw	a3,0(a4)
    31c4:	4358                	c.lw	a4,4(a4)
    31c6:	96b2                	c.add	a3,a2
    31c8:	c394                	c.sw	a3,0(a5)
    31ca:	c3d8                	c.sw	a4,4(a5)
    31cc:	34f2c6ab          	swgp	a5,39756 # 8a34c <__malloc_free_list>
    31d0:	8082                	c.jr	ra
    31d2:	8736                	c.mv	a4,a3
    31d4:	4354                	c.lw	a3,4(a4)
    31d6:	c299                	c.beqz	a3,31dc <_free_r+0x4a>
    31d8:	fed7fde3          	bgeu	a5,a3,31d2 <_free_r+0x40>
    31dc:	4310                	c.lw	a2,0(a4)
    31de:	00c705b3          	add	a1,a4,a2
    31e2:	00f59f63          	bne	a1,a5,3200 <_free_r+0x6e>
    31e6:	439c                	c.lw	a5,0(a5)
    31e8:	97b2                	c.add	a5,a2
    31ea:	c31c                	c.sw	a5,0(a4)
    31ec:	00f70633          	add	a2,a4,a5
    31f0:	00c69763          	bne	a3,a2,31fe <_free_r+0x6c>
    31f4:	4290                	c.lw	a2,0(a3)
    31f6:	97b2                	c.add	a5,a2
    31f8:	c31c                	c.sw	a5,0(a4)
    31fa:	42dc                	c.lw	a5,4(a3)
    31fc:	c35c                	c.sw	a5,4(a4)
    31fe:	8082                	c.jr	ra
    3200:	00b7f563          	bgeu	a5,a1,320a <_free_r+0x78>
    3204:	4731                	c.li	a4,12
    3206:	8424                	exec.it	#26     !
    3208:	8082                	c.jr	ra
    320a:	438c                	c.lw	a1,0(a5)
    320c:	00b78633          	add	a2,a5,a1
    3210:	00c69663          	bne	a3,a2,321c <_free_r+0x8a>
    3214:	4290                	c.lw	a2,0(a3)
    3216:	42d4                	c.lw	a3,4(a3)
    3218:	962e                	c.add	a2,a1
    321a:	c390                	c.sw	a2,0(a5)
    321c:	c3d4                	c.sw	a3,4(a5)
    321e:	bff9                	c.j	31fc <_free_r+0x6a>

00003220 <_malloc_r>:
    3220:	e3dff2ef          	jal	t0,305c <__riscv_save_0>
    3224:	00358493          	addi	s1,a1,3
    3228:	98f1                	c.andi	s1,-4
    322a:	04a1                	c.addi	s1,8
    322c:	47b1                	c.li	a5,12
    322e:	04f4ff63          	bgeu	s1,a5,328c <_malloc_r+0x6c>
    3232:	44b1                	c.li	s1,12
    3234:	04b4ee63          	bltu	s1,a1,3290 <_malloc_r+0x70>
    3238:	34d2a42b          	lwgp	s0,39756 # 8a34c <__malloc_free_list>
    323c:	34d2968b          	addigp	a3,39756 # 8a34c <__malloc_free_list>
    3240:	87a2                	c.mv	a5,s0
    3242:	cf89                	c.beqz	a5,325c <_malloc_r+0x3c>
    3244:	4398                	c.lw	a4,0(a5)
    3246:	8f05                	c.sub	a4,s1
    3248:	06074b63          	bltz	a4,32be <_malloc_r+0x9e>
    324c:	462d                	c.li	a2,11
    324e:	04e67563          	bgeu	a2,a4,3298 <_malloc_r+0x78>
    3252:	c398                	c.sw	a4,0(a5)
    3254:	00e78433          	add	s0,a5,a4
    3258:	c004                	c.sw	s1,0(s0)
    325a:	e039                	c.bnez	s0,32a0 <_malloc_r+0x80>
    325c:	3512940b          	addigp	s0,39760 # 8a350 <__malloc_sbrk_start>
    3260:	401c                	c.lw	a5,0(s0)
    3262:	e781                	c.bnez	a5,326a <_malloc_r+0x4a>
    3264:	4501                	c.li	a0,0
    3266:	8a20                	exec.it	#84     !
    3268:	c008                	c.sw	a0,0(s0)
    326a:	8526                	c.mv	a0,s1
    326c:	597d                	c.li	s2,-1
    326e:	8a20                	exec.it	#84     !
    3270:	03250063          	beq	a0,s2,3290 <_malloc_r+0x70>
    3274:	00350413          	addi	s0,a0,3 # 400003 <FLASH_SIZE+0x300003>
    3278:	9871                	c.andi	s0,-4
    327a:	00a40763          	beq	s0,a0,3288 <_malloc_r+0x68>
    327e:	40a40533          	sub	a0,s0,a0
    3282:	8a20                	exec.it	#84     !
    3284:	01250663          	beq	a0,s2,3290 <_malloc_r+0x70>
    3288:	c004                	c.sw	s1,0(s0)
    328a:	a819                	c.j	32a0 <_malloc_r+0x80>
    328c:	fa04d4e3          	bgez	s1,3234 <_malloc_r+0x14>
    3290:	4731                	c.li	a4,12
    3292:	4501                	c.li	a0,0
    3294:	8424                	exec.it	#26     !
    3296:	b3ed                	c.j	3080 <__riscv_restore_0>
    3298:	43d8                	c.lw	a4,4(a5)
    329a:	00f41f63          	bne	s0,a5,32b8 <_malloc_r+0x98>
    329e:	c298                	c.sw	a4,0(a3)
    32a0:	00b40513          	addi	a0,s0,11
    32a4:	00440793          	addi	a5,s0,4
    32a8:	9961                	c.andi	a0,-8
    32aa:	8420                	exec.it	#18     !
    32ac:	d7ed                	c.beqz	a5,3296 <_malloc_r+0x76>
    32ae:	943e                	c.add	s0,a5
    32b0:	40f007b3          	neg	a5,a5
    32b4:	c01c                	c.sw	a5,0(s0)
    32b6:	b7c5                	c.j	3296 <_malloc_r+0x76>
    32b8:	c058                	c.sw	a4,4(s0)
    32ba:	843e                	c.mv	s0,a5
    32bc:	b7d5                	c.j	32a0 <_malloc_r+0x80>
    32be:	843e                	c.mv	s0,a5
    32c0:	43dc                	c.lw	a5,4(a5)
    32c2:	b741                	c.j	3242 <_malloc_r+0x22>

000032c4 <printf>:
    32c4:	7139                	c.addi16sp	sp,-64
    32c6:	d22e                	c.swsp	a1,36(sp)
    32c8:	104c                	c.addi4spn	a1,sp,36
    32ca:	ce06                	c.swsp	ra,28(sp)
    32cc:	d432                	c.swsp	a2,40(sp)
    32ce:	d636                	c.swsp	a3,44(sp)
    32d0:	d83a                	c.swsp	a4,48(sp)
    32d2:	da3e                	c.swsp	a5,52(sp)
    32d4:	dc42                	c.swsp	a6,56(sp)
    32d6:	de46                	c.swsp	a7,60(sp)
    32d8:	c62e                	c.swsp	a1,12(sp)
    32da:	20f9                	c.jal	33a8 <vprintf>
    32dc:	40f2                	c.lwsp	ra,28(sp)
    32de:	6121                	c.addi16sp	sp,64
    32e0:	8082                	c.jr	ra

000032e2 <puts>:
    32e2:	8004                	exec.it	#8     !
    32e4:	1101                	c.addi	sp,-32
    32e6:	c62a                	c.swsp	a0,12(sp)
    32e8:	2025                	c.jal	3310 <strlen>
    32ea:	45b2                	c.lwsp	a1,12(sp)
    32ec:	862a                	c.mv	a2,a0
    32ee:	4505                	c.li	a0,1
    32f0:	8860                	exec.it	#52     !
    32f2:	00054c63          	bltz	a0,330a <puts+0x28>
    32f6:	47a9                	c.li	a5,10
    32f8:	4605                	c.li	a2,1
    32fa:	01f10593          	addi	a1,sp,31
    32fe:	4505                	c.li	a0,1
    3300:	00f10fa3          	sb	a5,31(sp)
    3304:	8860                	exec.it	#52     !
    3306:	6105                	c.addi16sp	sp,32
    3308:	bba5                	c.j	3080 <__riscv_restore_0>
    330a:	557d                	c.li	a0,-1
    330c:	bfed                	c.j	3306 <puts+0x24>
	...

00003310 <strlen>:
    3310:	00357793          	andi	a5,a0,3
    3314:	872a                	c.mv	a4,a0
    3316:	e79d                	c.bnez	a5,3344 <strlen+0x34>
    3318:	0511                	c.addi	a0,4
    331a:	ffc52783          	lw	a5,-4(a0)
    331e:	200787db          	ffb	a5,a5,zero
    3322:	dbfd                	c.beqz	a5,3318 <strlen+0x8>
    3324:	ffc54783          	lbu	a5,-4(a0)
    3328:	40e50733          	sub	a4,a0,a4
    332c:	ffd54683          	lbu	a3,-3(a0)
    3330:	ffe54603          	lbu	a2,-2(a0)
    3334:	c795                	c.beqz	a5,3360 <strlen+0x50>
    3336:	c28d                	c.beqz	a3,3358 <strlen+0x48>
    3338:	ca05                	c.beqz	a2,3368 <strlen+0x58>
    333a:	fff70513          	addi	a0,a4,-1
    333e:	8082                	c.jr	ra
    3340:	fc068ce3          	beqz	a3,3318 <strlen+0x8>
    3344:	00054783          	lbu	a5,0(a0)
    3348:	0505                	c.addi	a0,1
    334a:	00357693          	andi	a3,a0,3
    334e:	fbed                	c.bnez	a5,3340 <strlen+0x30>
    3350:	8d19                	c.sub	a0,a4
    3352:	157d                	c.addi	a0,-1
    3354:	00008067          	ret
    3358:	ffd70513          	addi	a0,a4,-3
    335c:	00008067          	ret
    3360:	ffc70513          	addi	a0,a4,-4
    3364:	00008067          	ret
    3368:	ffe70513          	addi	a0,a4,-2
    336c:	8082                	c.jr	ra
    336e:	0001                	c.nop

00003370 <__vprintf_help>:
    3370:	cedff2ef          	jal	t0,305c <__riscv_save_0>
    3374:	35d2a7ab          	lwgp	a5,39772 # 8a35c <__printf_count>
    3378:	0785                	c.addi	a5,1
    337a:	34f2ceab          	swgp	a5,39772 # 8a35c <__printf_count>
    337e:	3592940b          	addigp	s0,39768 # 8a358 <__vprintf_buf_len>
    3382:	3552a5ab          	lwgp	a1,39764 # 8a354 <__vprintf_buf>
    3386:	401c                	c.lw	a5,0(s0)
    3388:	00178713          	addi	a4,a5,1
    338c:	97ae                	c.add	a5,a1
    338e:	c018                	c.sw	a4,0(s0)
    3390:	00a78023          	sb	a0,0(a5)
    3394:	4007685b          	bnec	a4,64,33a4 <__vprintf_help+0x34>
    3398:	04000613          	li	a2,64
    339c:	4505                	c.li	a0,1
    339e:	8860                	exec.it	#52     !
    33a0:	00042023          	sw	zero,0(s0)
    33a4:	cddff06f          	j	3080 <__riscv_restore_0>

000033a8 <vprintf>:
    33a8:	1141                	c.addi	sp,-16
    33aa:	c606                	c.swsp	ra,12(sp)
    33ac:	c422                	c.swsp	s0,8(sp)
    33ae:	c226                	c.swsp	s1,4(sp)
    33b0:	c04a                	c.swsp	s2,0(sp)
    33b2:	0800                	c.addi4spn	s0,sp,16
    33b4:	715d                	c.addi16sp	sp,-80
    33b6:	00f10793          	addi	a5,sp,15
    33ba:	00003637          	lui	a2,0x3
    33be:	9bc1                	c.andi	a5,-16
    33c0:	3552948b          	addigp	s1,39764 # 8a354 <__vprintf_buf>
    33c4:	3592990b          	addigp	s2,39768 # 8a358 <__vprintf_buf_len>
    33c8:	37060613          	addi	a2,a2,880 # 3370 <__vprintf_help>
    33cc:	c09c                	c.sw	a5,0(s1)
    33ce:	00092023          	sw	zero,0(s2)
    33d2:	20a5                	c.jal	343a <__printf_impl>
    33d4:	00092603          	lw	a2,0(s2)
    33d8:	408c                	c.lw	a1,0(s1)
    33da:	4505                	c.li	a0,1
    33dc:	8860                	exec.it	#52     !
    33de:	35d2a52b          	lwgp	a0,39772 # 8a35c <__printf_count>
    33e2:	ff040113          	addi	sp,s0,-16
    33e6:	40b2                	c.lwsp	ra,12(sp)
    33e8:	4422                	c.lwsp	s0,8(sp)
    33ea:	4492                	c.lwsp	s1,4(sp)
    33ec:	4902                	c.lwsp	s2,0(sp)
    33ee:	0141                	c.addi	sp,16
    33f0:	8082                	c.jr	ra

000033f2 <__print_integral>:
    33f2:	c6bff2ef          	jal	t0,305c <__riscv_save_0>
    33f6:	1101                	c.addi	sp,-32
    33f8:	842a                	c.mv	s0,a0
    33fa:	84ae                	c.mv	s1,a1
    33fc:	8932                	c.mv	s2,a2
    33fe:	c636                	c.swsp	a3,12(sp)
    3400:	85be                	c.mv	a1,a5
    3402:	ca32                	c.swsp	a2,20(sp)
    3404:	853a                	c.mv	a0,a4
    3406:	0830                	c.addi4spn	a2,sp,24
    3408:	219d                	c.jal	386e <__int_to_poly>
    340a:	46b2                	c.lwsp	a3,12(sp)
    340c:	882a                	c.mv	a6,a0
    340e:	083c                	c.addi4spn	a5,sp,24
    3410:	0858                	c.addi4spn	a4,sp,20
    3412:	864a                	c.mv	a2,s2
    3414:	85a6                	c.mv	a1,s1
    3416:	8522                	c.mv	a0,s0
    3418:	2995                	c.jal	388c <__print_integral_poly>
    341a:	3012978b          	addigp	a5,39680 # 8a300 <__digits>
    341e:	00a46563          	bltu	s0,a0,3428 <__print_integral+0x36>
    3422:	6105                	c.addi16sp	sp,32
    3424:	c5dff06f          	j	3080 <__riscv_restore_0>
    3428:	00044703          	lbu	a4,0(s0)
    342c:	0405                	c.addi	s0,1
    342e:	973e                	c.add	a4,a5
    3430:	00070703          	lb	a4,0(a4)
    3434:	fee40fa3          	sb	a4,-1(s0)
    3438:	b7dd                	c.j	341e <__print_integral+0x2c>

0000343a <__printf_impl>:
    343a:	8204                	exec.it	#72     !
    343c:	a6010113          	addi	sp,sp,-1440
    3440:	6b05                	c.lui	s6,0x1
    3442:	892a                	c.mv	s2,a0
    3444:	842e                	c.mv	s0,a1
    3446:	89b2                	c.mv	s3,a2
    3448:	01c10a13          	addi	s4,sp,28
    344c:	800b0b13          	addi	s6,s6,-2048 # 800 <pm_sleep_start+0x118>
    3450:	3402ceab          	swgp	zero,39772 # 8a35c <__printf_count>
    3454:	c456                	c.swsp	s5,8(sp)
    3456:	00094503          	lbu	a0,0(s2)
    345a:	e501                	c.bnez	a0,3462 <__printf_impl+0x28>
    345c:	5a010113          	addi	sp,sp,1440
    3460:	8e04                	exec.it	#78     !
    3462:	00190493          	addi	s1,s2,1
    3466:	005555db          	beqc	a0,37,3470 <__printf_impl+0x36>
    346a:	9982                	c.jalr	s3
    346c:	8926                	c.mv	s2,s1
    346e:	b7e5                	c.j	3456 <__printf_impl+0x1c>
    3470:	00194783          	lbu	a5,1(s2)
    3474:	0057e8db          	bnec	a5,37,3484 <__printf_impl+0x4a>
    3478:	02500513          	li	a0,37
    347c:	9982                	c.jalr	s3
    347e:	00290493          	addi	s1,s2,2
    3482:	b7ed                	c.j	346c <__printf_impl+0x32>
    3484:	4681                	c.li	a3,0
    3486:	4701                	c.li	a4,0
    3488:	d002                	c.swsp	zero,32(sp)
    348a:	8c30                	exec.it	#23     !
    348c:	0007e7db          	bnec	a5,32,349a <__printf_impl+0x60>
    3490:	00276713          	ori	a4,a4,2
    3494:	0485                	c.addi	s1,1
    3496:	4685                	c.li	a3,1
    3498:	bfcd                	c.j	348a <__printf_impl+0x50>
    349a:	00d7e5db          	bnec	a5,45,34a4 <__printf_impl+0x6a>
    349e:	00476713          	ori	a4,a4,4
    34a2:	bfcd                	c.j	3494 <__printf_impl+0x5a>
    34a4:	00b7e5db          	bnec	a5,43,34ae <__printf_impl+0x74>
    34a8:	00876713          	ori	a4,a4,8
    34ac:	b7e5                	c.j	3494 <__printf_impl+0x5a>
    34ae:	0037e4db          	bnec	a5,35,34b6 <__printf_impl+0x7c>
    34b2:	8604                	exec.it	#74     !
    34b4:	b7c5                	c.j	3494 <__printf_impl+0x5a>
    34b6:	0107e5db          	bnec	a5,48,34c0 <__printf_impl+0x86>
    34ba:	02076713          	ori	a4,a4,32
    34be:	bfd9                	c.j	3494 <__printf_impl+0x5a>
    34c0:	c291                	c.beqz	a3,34c4 <__printf_impl+0x8a>
    34c2:	d03a                	c.swsp	a4,32(sp)
    34c4:	04a7e7db          	bnec	a5,42,3512 <__printf_impl+0xd8>
    34c8:	00042c03          	lw	s8,0(s0)
    34cc:	00440713          	addi	a4,s0,4
    34d0:	000c5863          	bgez	s8,34e0 <__printf_impl+0xa6>
    34d4:	5782                	c.lwsp	a5,32(sp)
    34d6:	41800c33          	neg	s8,s8
    34da:	0047e793          	ori	a5,a5,4
    34de:	d03e                	c.swsp	a5,32(sp)
    34e0:	0485                	c.addi	s1,1
    34e2:	843a                	c.mv	s0,a4
    34e4:	8c30                	exec.it	#23     !
    34e6:	5cfd                	c.li	s9,-1
    34e8:	04e7eedb          	bnec	a5,46,3544 <__printf_impl+0x10a>
    34ec:	0014c783          	lbu	a5,1(s1)
    34f0:	04a7d5db          	beqc	a5,42,353a <__printf_impl+0x100>
    34f4:	0485                	c.addi	s1,1
    34f6:	4c81                	c.li	s9,0
    34f8:	4725                	c.li	a4,9
    34fa:	4629                	c.li	a2,10
    34fc:	8c30                	exec.it	#23     !
    34fe:	8c64                	exec.it	#62     !
    3500:	0ff7f693          	andi	a3,a5,255
    3504:	04d76063          	bltu	a4,a3,3544 <__printf_impl+0x10a>
    3508:	c4cc97ff          	maddr32	a5,s9,a2
    350c:	0485                	c.addi	s1,1
    350e:	8cbe                	c.mv	s9,a5
    3510:	b7f5                	c.j	34fc <__printf_impl+0xc2>
    3512:	8c64                	exec.it	#62     !
    3514:	8000                	exec.it	#0     !
    3516:	4725                	c.li	a4,9
    3518:	4c01                	c.li	s8,0
    351a:	fcf765e3          	bltu	a4,a5,34e4 <__printf_impl+0xaa>
    351e:	4725                	c.li	a4,9
    3520:	4629                	c.li	a2,10
    3522:	a029                	c.j	352c <__printf_impl+0xf2>
    3524:	c4cc17ff          	maddr32	a5,s8,a2
    3528:	0485                	c.addi	s1,1
    352a:	8c3e                	c.mv	s8,a5
    352c:	8c30                	exec.it	#23     !
    352e:	8c64                	exec.it	#62     !
    3530:	0ff7f693          	andi	a3,a5,255
    3534:	fed778e3          	bgeu	a4,a3,3524 <__printf_impl+0xea>
    3538:	b775                	c.j	34e4 <__printf_impl+0xaa>
    353a:	401c                	c.lw	a5,0(s0)
    353c:	0489                	c.addi	s1,2
    353e:	0411                	c.addi	s0,4
    3540:	f2fc8cff          	maxw	s9,s9,a5
    3544:	43200613          	li	a2,1074
    3548:	f0cc867f          	minw	a2,s9,a2
    354c:	8c30                	exec.it	#23     !
    354e:	4487eedb          	bnec	a5,104,35aa <__printf_impl+0x170>
    3552:	5782                	c.lwsp	a5,32(sp)
    3554:	0014c703          	lbu	a4,1(s1)
    3558:	448763db          	bnec	a4,104,359e <__printf_impl+0x164>
    355c:	0407e793          	ori	a5,a5,64
    3560:	00248913          	addi	s2,s1,2
    3564:	d03e                	c.swsp	a5,32(sp)
    3566:	00094503          	lbu	a0,0(s2)
    356a:	06700793          	li	a5,103
    356e:	0aa7e063          	bltu	a5,a0,360e <__printf_impl+0x1d4>
    3572:	8c60                	exec.it	#54     !
    3574:	06f57d63          	bgeu	a0,a5,35ee <__printf_impl+0x1b4>
    3578:	05800793          	li	a5,88
    357c:	5785515b          	beqc	a0,88,36de <__printf_impl+0x2a4>
    3580:	04a7ef63          	bltu	a5,a0,35de <__printf_impl+0x1a4>
    3584:	04100793          	li	a5,65
    3588:	4615535b          	beqc	a0,65,35ee <__printf_impl+0x1b4>
    358c:	00f56763          	bltu	a0,a5,359a <__printf_impl+0x160>
    3590:	fbb50793          	addi	a5,a0,-69
    3594:	4709                	c.li	a4,2
    3596:	04f77c63          	bgeu	a4,a5,35ee <__printf_impl+0x1b4>
    359a:	84a2                	c.mv	s1,s0
    359c:	a41d                	c.j	37c2 <__printf_impl+0x388>
    359e:	0807e793          	ori	a5,a5,128
    35a2:	d03e                	c.swsp	a5,32(sp)
    35a4:	00148913          	addi	s2,s1,1
    35a8:	bf7d                	c.j	3566 <__printf_impl+0x12c>
    35aa:	40c7eddb          	bnec	a5,108,35c4 <__printf_impl+0x18a>
    35ae:	5782                	c.lwsp	a5,32(sp)
    35b0:	0014c703          	lbu	a4,1(s1)
    35b4:	40c765db          	bnec	a4,108,35be <__printf_impl+0x184>
    35b8:	2007e793          	ori	a5,a5,512
