
NMSIS_DSP_cmag_f32_benchmark_N.adx:     file format elf32-littleriscv
NMSIS_DSP_cmag_f32_benchmark_N.adx
architecture: riscv:rv32, flags 0x00000112:
EXEC_P, HAS_SYMS, D_PAGED
start address 0x20000000

Program Header:
    LOAD off    0x00001000 vaddr 0x20000000 paddr 0x20000000 align 2**12
         filesz 0x0000018a memsz 0x0000018a flags r-x
    LOAD off    0x00002000 vaddr 0x00000000 paddr 0x20000190 align 2**12
         filesz 0x000001bc memsz 0x000001bc flags rwx
    LOAD off    0x00002200 vaddr 0x00000200 paddr 0x20000350 align 2**12
         filesz 0x000051c8 memsz 0x000051c8 flags r-x
    LOAD off    0x00008000 vaddr 0x00080000 paddr 0x20005518 align 2**12
         filesz 0x00015800 memsz 0x00015838 flags rw-
    LOAD off    0x0001d838 vaddr 0x00095838 paddr 0x2001ad18 align 2**12
         filesz 0x00000022 memsz 0x00000022 flags rw-
    LOAD off    0x0001e838 vaddr 0x00095838 paddr 0x2001ad50 align 2**12
         filesz 0x00000000 memsz 0x00000000 flags rw-
0x70000000 off    0x0003ece2 vaddr 0x00000000 paddr 0x00000000 align 2**0
         filesz 0x00000040 memsz 0x00000000 flags r--

Sections:
Idx Name          Size      VMA       LMA       File off  Algn
  0 .vectors      0000018a  20000000  20000000  00001000  2**2
                  CONTENTS, ALLOC, LOAD, READONLY, CODE
  1 .retention_reset 00000154  00000000  20000190  00002000  2**2
                  CONTENTS, ALLOC, LOAD, READONLY, CODE
  2 .retention_data 00000064  00000158  200002e8  00002158  2**2
                  CONTENTS, ALLOC, LOAD, DATA
  3 .ram_code     000051c8  00000200  20000350  00002200  2**8
                  CONTENTS, ALLOC, LOAD, READONLY, CODE
  4 .data         00015800  00080000  20005518  00008000  2**3
                  CONTENTS, ALLOC, LOAD, DATA
  5 .sbss         00000038  00095800  2001ad18  0001d800  2**2
                  ALLOC
  6 .bss          00000000  00095838  2001ad50  0001e838  2**2
                  ALLOC
  7 .sdk_version  00000022  00095838  2001ad18  0001d838  2**2
                  CONTENTS, ALLOC, LOAD, DATA
  8 .debug_info   00009dee  00000000  00000000  0001d85a  2**0
                  CONTENTS, READONLY, DEBUGGING
  9 .debug_abbrev 00001a36  00000000  00000000  00027648  2**0
                  CONTENTS, READONLY, DEBUGGING
 10 .debug_loc    000081bb  00000000  00000000  0002907e  2**0
                  CONTENTS, READONLY, DEBUGGING
 11 .debug_aranges 00000380  00000000  00000000  00031240  2**3
                  CONTENTS, READONLY, DEBUGGING
 12 .debug_ranges 00001038  00000000  00000000  000315c0  2**3
                  CONTENTS, READONLY, DEBUGGING
 13 .debug_line   00007f0e  00000000  00000000  000325f8  2**0
                  CONTENTS, READONLY, DEBUGGING
 14 .debug_str    00004793  00000000  00000000  0003a506  2**0
                  CONTENTS, READONLY, DEBUGGING
 15 .comment      00000049  00000000  00000000  0003ec99  2**0
                  CONTENTS, READONLY
 16 .riscv.attributes 00000040  00000000  00000000  0003ece2  2**0
                  CONTENTS, READONLY
 17 .debug_frame  0000076c  00000000  00000000  0003ed24  2**2
                  CONTENTS, READONLY, DEBUGGING
SYMBOL TABLE:
20000000 l    d  .vectors	00000000 .vectors
00000000 l    d  .retention_reset	00000000 .retention_reset
00000158 l    d  .retention_data	00000000 .retention_data
00000200 l    d  .ram_code	00000000 .ram_code
00080000 l    d  .data	00000000 .data
00095800 l    d  .sbss	00000000 .sbss
00095838 l    d  .bss	00000000 .bss
00095838 l    d  .sdk_version	00000000 .sdk_version
00000000 l    d  .debug_info	00000000 .debug_info
00000000 l    d  .debug_abbrev	00000000 .debug_abbrev
00000000 l    d  .debug_loc	00000000 .debug_loc
00000000 l    d  .debug_aranges	00000000 .debug_aranges
00000000 l    d  .debug_ranges	00000000 .debug_ranges
00000000 l    d  .debug_line	00000000 .debug_line
00000000 l    d  .debug_str	00000000 .debug_str
00000000 l    d  .comment	00000000 .comment
00000000 l    d  .riscv.attributes	00000000 .riscv.attributes
00000000 l    d  .debug_frame	00000000 .debug_frame
00000000 l    df *ABS*	00000000 ./boot/cstartup_flash.o
20000028 l       .vectors	00000000 _START
2000008e l       .vectors	00000000 _RETENTION_RESET_INIT
200000a6 l       .vectors	00000000 _RETENTION_RESET_BEGIN
200000b8 l       .vectors	00000000 _RETENTION_DATA_INIT
200000cc l       .vectors	00000000 _RETENTION_DATA_INIT_BEGIN
200000de l       .vectors	00000000 _RAMCODE_INIT
200000f6 l       .vectors	00000000 _RAMCODE_INIT_BEGIN
20000108 l       .vectors	00000000 _DATA_INIT
20000120 l       .vectors	00000000 _DATA_INIT_BEGIN
20000132 l       .vectors	00000000 _ZERO_BSS
20000146 l       .vectors	00000000 _ZERO_BSS_BEGIN
20000152 l       .vectors	00000000 _ZERO_AES
20000166 l       .vectors	00000000 _ZERO_AES_BEGIN
20000172 l       .vectors	00000000 _FILL_STK
20000172 l       .vectors	00000000 _MAIN_FUNC
20000188 l       .vectors	00000000 _END
00000022 l       .retention_reset	00000000 _ISTART
0000002a l       .retention_reset	00000000 _ISWS_USB_DIS
00000088 l       .retention_reset	00000000 _WAKEUP_FLASH
000000a2 l       .retention_reset	00000000 _MSPI_WAIT
000000bc l       .retention_reset	00000000 _WAIT_EFUSE_LOAD_AND_FLASH_WAKEUP_FINISH
000000c2 l       .retention_reset	00000000 _MULTI_ADDRESS_BEGIN
000000d2 l       .retention_reset	00000000 _IZERO_BSS
000000e6 l       .retention_reset	00000000 _IZERO_BSS_BEGIN
000000f2 l       .retention_reset	00000000 _IZERO_AES
00000106 l       .retention_reset	00000000 _IZERO_AES_BEGIN
00000112 l       .retention_reset	00000000 _IFILL_STK
00000112 l       .retention_reset	00000000 _IDATA_INIT
0000012a l       .retention_reset	00000000 _IDATA_INIT_BEGIN
0000013c l       .retention_reset	00000000 _IMAIN_FUNC
00000152 l       .retention_reset	00000000 _IEND
00000040 l       *ABS*	00000000 irqno
00000000 l    df *ABS*	00000000 
00000200 l     F .ram_code	00000024 delay_ms
00000224 l     F .ram_code	00000020 delay_ms.constprop.12
0000130c l     F .ram_code	000000fc user_calib_adc_vref.constprop.9
00000244 l     F .ram_code	00000044 flash_send_addr
00000288 l     F .ram_code	00000048 flash_send_cmd
000002d0 l     F .ram_code	00000060 clock_set_32k_tick
00000330 l     F .ram_code	0000004c analog_read_reg32.constprop.4
0000037c l     F .ram_code	00000024 clock_get_32k_tick
000003a0 l     F .ram_code	00000094 pm_stimer_recover
00000434 l     F .ram_code	00000058 plic_exit_critical_sec
0000048c l     F .ram_code	00000060 plic_enter_critical_sec
000004ec l     F .ram_code	00000180 flash_mspi_read_ram
00001104 l     F .ram_code	00000028 flash_read_uid.constprop.6
0000112c l     F .ram_code	00000028 flash_read_mid
00001154 l     F .ram_code	00000168 flash_read_mid_uid_with_check
0000066c l     F .ram_code	0000014c flash_mspi_read_ram.constprop.7
000012bc l     F .ram_code	00000020 flash_dread
000007b8 l     F .ram_code	00000044 analog_write_reg8
000007fc l     F .ram_code	0000004c analog_read_reg8
00000848 l     F .ram_code	00000140 clock_init_ram.constprop.11
000012dc l     F .ram_code	00000018 clock_init.constprop.10
00001408 l     F .ram_code	00000054 user_calib_freq_offset.constprop.8
00000988 l     F .ram_code	000000b4 pm_wait_bbpll_done
00000a3c l     F .ram_code	00000194 pm_sleep_start
00001460 l     F .ram_code	00000018 gpio_input_dis
00000bd0 l     F .ram_code	00000308 pm_sleep_wakeup_ram.constprop.3
000012f4 l     F .ram_code	00000016 pm_sleep_wakeup.constprop.2
00000158 l     O .retention_data	00000004 flash_read_page
0000015c l     O .retention_data	00000001 g_pm_long_suspend
00000160 l     O .retention_data	00000004 g_pm_tick_cur
00000164 l     O .retention_data	00000029 pmcd
00000190 l     O .retention_data	00000004 g_pm_tick_32k_calib
00000194 l     O .retention_data	00000001 g_plic_preempt_en
00000198 l     O .retention_data	00000002 s_flash_preempt_config
0000019a l     O .retention_data	00000001 g_pm_suspend_power_cfg
0000019c l     O .retention_data	00000008 g_pm_early_wakeup_time_us
000001a4 l     O .retention_data	00000004 g_pm_tick_32k_cur
000001a8 l     O .retention_data	00000001 g_pm_tick_update_en
000001ac l     O .retention_data	00000004 g_pm_r_delay_cycle
000001b0 l     O .retention_data	00000008 g_pm_longsleep_early_wakeup_time_us
00095800 l     O .sbss	00000004 exception_mcause
00095804 l     O .sbss	00000004 exception_mdcause
00095808 l     O .sbss	00000004 exception_mepc
0009580c l     O .sbss	00000004 exception_mstatus
00095810 l     O .sbss	00000004 exception_mtval
00095814 l     O .sbss	00000004 g_chip_version
00095818 l     O .sbss	00000004 g_pm_status_info
000957f0 l     O .data	00000006 sys_clk
00095838 l     O .sdk_version	00000022 sdk_version
00000000 l    df *ABS*	00000000 riscv_cmplx_mag_f32.c
00001c38 l       .ram_code	00000000 $x
00000000 l    df *ABS*	00000000 riscv_cfft_init_f32.c
00001e10 l       .ram_code	00000000 $x
00001e30 l       .ram_code	00000000 $x
00001e54 l       .ram_code	00000000 $x
00001e74 l       .ram_code	00000000 $x
00001e94 l       .ram_code	00000000 $x
00001eb4 l       .ram_code	00000000 $x
00001ed4 l       .ram_code	00000000 $x
00001ef4 l       .ram_code	00000000 $x
00001f14 l       .ram_code	00000000 $x
00001f34 l       .ram_code	00000000 $x
00000000 l    df *ABS*	00000000 riscv_cfft_f32.c
00001fac l       .ram_code	00000000 $x
00000000 l    df *ABS*	00000000 riscv_cfft_radix8_f32.c
00002654 l       .ram_code	00000000 $x
00000000 l    df *ABS*	00000000 riscv_bitreversal2.c
00002c2c l       .ram_code	00000000 $x
00000000 l    df *ABS*	00000000 sinf.c
00000000 l    df *ABS*	00000000 wf_sqrt.c
00000000 l    df *ABS*	00000000 ef_sqrt.c
00000000 l    df *ABS*	00000000 ref_rredf.c
00095738 l     O .data	00000020 twooverpi.2618
00000000 l    df *ABS*	00000000 s_matherr.c
00000000 l    df *ABS*	00000000 divdf3.c
00000000 l    df *ABS*	00000000 gedf2.c
00000000 l    df *ABS*	00000000 muldf3.c
00000000 l    df *ABS*	00000000 floatsidf.c
00000000 l    df *ABS*	00000000 extendsfdf2.c
00000000 l    df *ABS*	00000000 truncdfsf2.c
00000000 l    df *ABS*	00000000 malloc.c
00000000 l    df *ABS*	00000000 memcpy.c
00000000 l    df *ABS*	00000000 nano-mallocr.c
00000000 l    df *ABS*	00000000 nano-mallocr.c
00000000 l    df *ABS*	00000000 printf.c
00000000 l    df *ABS*	00000000 putchar.c
00000000 l    df *ABS*	00000000 vprintf.c
000046c0 l     F .ram_code	0000003a __vprintf_help
00095828 l     O .sbss	00000004 __vprintf_buf
0009582c l     O .sbss	00000004 __vprintf_buf_len
00000000 l    df *ABS*	00000000 printf_impl.c
00000000 l    df *ABS*	00000000 printf_impl_float.c
00000000 l    df *ABS*	00000000 strcpy.c
00000000 l    df *ABS*	00000000 strnlen.c
00000000 l    df *ABS*	00000000 _sbrk.c
00095834 l     O .sbss	00000004 heap_end.2408
00000000 l    df *ABS*	00000000 libgcc2.c
00000000 l    df *ABS*	00000000 libgcc2.c
00000000 l    df *ABS*	00000000 riscv_const_structs.c
00000000 l    df *ABS*	00000000 riscv_common_tables.c
00000000 l    df *ABS*	00000000 printf_data.c
00000000 l    df *ABS*	00000000 s_lib_ver.c
00000000 l    df *ABS*	00000000 impure.c
00095838 l     O .bss	00000000 impure_data
00004698 g     F .ram_code	00000028 putchar
00001c30  w      .ram_code	00000000 entry_irq55
00001c30  w      .ram_code	00000000 entry_irq13
0008577c g     O .data	00008000 twiddleCoef_4096
000050a8 g     F .ram_code	0000007c strcpy
00001c30  w      .ram_code	00000000 entry_irq15
00005240 g     F .ram_code	0000002e .hidden __ashldi3
00080264 g     O .data	00000010 riscv_cfft_sR_f32_len128
00001c30  w      .ram_code	00000000 entry_irq27
00001c30  w      .ram_code	00000000 entry_irq60
00085684 g     O .data	00000070 riscvBitRevIndexTable64
00001c30  w      .ram_code	00000000 entry_irq1
00001c30  w      .ram_code	00000000 entry_irq52
00001c30  w      .ram_code	00000000 entry_irq50
00082224 g     O .data	00001dc0 riscvBitRevIndexTable2048
00001c30  w      .ram_code	00000000 entry_irq62
000802a4 g     O .data	00001f80 riscvBitRevIndexTable4096
0000467a g     F .ram_code	0000001e printf
00080800 g       .data	00000000 __global_pointer$
00005278 g       .ram_code	00000000 .hidden __riscv_save_8
00001c30  w      .ram_code	00000000 entry_irq58
00001fac  w    F .ram_code	000006a8 riscv_cfft_f32
000052c4 g       .ram_code	00000000 .hidden __riscv_restore_3
000001bc g       .retention_data	00000000 _RETENTION_DATA_VMA_END
000052b0 g       .ram_code	00000000 .hidden __riscv_restore_10
00005278 g       .ram_code	00000000 .hidden __riscv_save_11
00003880 g     F .ram_code	000000c6 .hidden __gtdf2
00004746 g     F .ram_code	00000048 __print_integral
0009557c g     O .data	00000100 twiddleCoef_32
00000000 g       .retention_reset	00000000 _RETENTION_RESET_VMA_START
00001c30  w      .ram_code	00000000 entry_irq10
00001c30  w      .ram_code	00000000 entry_irq21
00080214 g     O .data	00000010 riscv_cfft_sR_f32_len4096
00000158 g       .retention_data	00000000 _AES_VMA_START
00002f54 g     F .ram_code	0000013a ref__mathlib_rredf2
00001c30  w      .ram_code	00000000 entry_irq48
00002ddc g     F .ram_code	000000a6 sqrtf
000052c4 g       .ram_code	00000000 .hidden __riscv_restore_2
00001eb4  w    F .ram_code	00000020 riscv_cfft_init_128_f32
00001c30  w      .ram_code	00000000 entry_irq8
00001c30  w      .ram_code	00000000 entry_irq33
00080244 g     O .data	00000010 riscv_cfft_sR_f32_len512
00095838 g       .bss	00000000 _BSS_VMA_END
00004440 g     F .ram_code	000000fa memcpy
20000190 g       *ABS*	00000000 _RETENTION_RESET_LMA_START
00003f94 g     F .ram_code	0000007a .hidden __floatsidf
0009537c g     O .data	00000200 twiddleCoef_64
00080000 g     O .data	0000001c cst_libm_sincosf
0000478e g     F .ram_code	00000470 __printf_impl
000854e4 g     O .data	000001a0 riscvBitRevIndexTable128
00001c30  w      .ram_code	00000000 entry_irq12
00004420 g     F .ram_code	00000010 malloc
0009567c g     O .data	00000080 twiddleCoef_16
00001c30  w      .ram_code	00000000 entry_irq14
00005270 g       .ram_code	00000000 .hidden __riscv_save_12
00001c30  w      .ram_code	00000000 entry_irq2
00001c30  w      .ram_code	00000000 entry_irq51
000052b0 g       .ram_code	00000000 .hidden __riscv_restore_11
00001c30  w      .ram_code	00000000 entry_irq28
00001c30  w      .ram_code	00000000 entry_irq43
000052a0 g       .ram_code	00000000 .hidden __riscv_save_1
000052c4 g       .ram_code	00000000 .hidden __riscv_restore_0
00001c30  w      .ram_code	00000000 entry_irq20
00005286 g       .ram_code	00000000 .hidden __riscv_save_7
00095800 g       .sbss	00000000 _BSS_VMA_START
00001c30  w      .ram_code	00000000 entry_irq63
00002c2c  w    F .ram_code	00000052 riscv_bitreversal_32
00095800 g       .data	00000000 _DATA_VMA_END
00004010 g     F .ram_code	00000110 .hidden __extendsfdf2
00001c30  w      .ram_code	00000000 entry_irq46
00001c30  w      .ram_code	00000000 entry_irq31
00001e74  w    F .ram_code	00000020 riscv_cfft_init_512_f32
00001c30  w      .ram_code	00000000 entry_irq16
000957f8 g     O .data	00000004 __fdlib_version
00100000 g       *ABS*	00000000 FLASH_SIZE
000052ba g       .ram_code	00000000 .hidden __riscv_restore_5
00080000 g       .data	00000000 _DATA_VMA_START
00084df4 g     O .data	00000380 riscvBitRevIndexTable512
000051e8  w    F .ram_code	00000028 _sbrk
00001c30  w      .ram_code	00000000 entry_irq53
00001c30  w      .ram_code	00000000 entry_irq11
00095720 g     O .data	00000018 cst_libm_rredf
00000154 g       .retention_reset	00000000 _RETENTION_RESET_VMA_END
00005126 g     F .ram_code	00000018 strnlen
000052ba g       .ram_code	00000000 .hidden __riscv_restore_6
00001ed4  w    F .ram_code	00000020 riscv_cfft_init_64_f32
00001c30  w      .ram_code	00000000 entry_irq5
00001c30  w      .ram_code	00000000 entry_irq23
00001c32  w      .ram_code	00000000 trap_handler
00001c30  w      .ram_code	00000000 entry_irq34
00005210 g     F .ram_code	0000002e .hidden __lshrdi3
00001c30  w      .ram_code	00000000 entry_irq36
00005278 g       .ram_code	00000000 .hidden __riscv_save_9
00001c30  w      .ram_code	00000000 entry_irq44
00080294 g     O .data	00000010 riscv_cfft_sR_f32_len16
000046fa g     F .ram_code	0000004c vprintf
00001c30  w      .ram_code	00000000 entry_irq45
00001c30  w      .ram_code	00000000 entry_irq26
00005286 g       .ram_code	00000000 .hidden __riscv_save_4
00001e94  w    F .ram_code	00000020 riscv_cfft_init_256_f32
00001c30  w      .ram_code	00000000 entry_irq41
00001c30  w      .ram_code	00000000 entry_irq61
00085754 g     O .data	00000028 riscvBitRevIndexTable16
20000000 g       .vectors	00000000 BIN_BEGIN
0000453a g     F .ram_code	00000090 _free_r
000052a0 g       .ram_code	00000000 .hidden __riscv_save_3
00001c30  w      .ram_code	00000000 entry_irq38
00001000 g       .ram_code	00000000 __vectors
0001ad3a g       *ABS*	00000000 BIN_SIZE
00085174 g     O .data	00000370 riscvBitRevIndexTable256
00094f7c g     O .data	00000400 twiddleCoef_128
000957d8 g     O .data	00000010 __digits
20000350 g       *ABS*	00000000 _RAMCODE_LMA_START
0009477c g     O .data	00000800 twiddleCoef_256
0008d77c g     O .data	00004000 twiddleCoef_2048
00001c38  w    F .ram_code	000001d8 riscv_cmplx_mag_f32
00095830 g     O .sbss	00000004 __printf_count
00001c30  w      .ram_code	00000000 entry_irq59
00003094 g     F .ram_code	000007ea .hidden __divdf3
00001c30  w      .ram_code	00000000 entry_irq6
00003948 g     F .ram_code	00000648 .hidden __muldf3
00005278 g       .ram_code	00000000 .hidden __riscv_save_10
0009581c g     O .sbss	00000004 __mculib_REENT_errno
20005518 g       *ABS*	00000000 _DATA_LMA_START
00004c1c g     F .ram_code	00000090 __print_integral_poly
00001f14  w    F .ram_code	0000001e riscv_cfft_init_16_f32
20000000 g       *ABS*	00000000 NDS_SAG_LMA_FLASH
000052ba g       .ram_code	00000000 .hidden __riscv_restore_4
000052b0 g       .ram_code	00000000 .hidden __riscv_restore_8
00005286 g       .ram_code	00000000 .hidden __riscv_save_6
20000000  w      .vectors	00000000 _RELAX_END_
0000513e g     F .ram_code	000000aa memset
00004cac g     F .ram_code	000003fa __printf_float_impl
00002e84 g     F .ram_code	000000cc __ieee754_sqrtf
000052b0 g       .ram_code	00000000 .hidden __riscv_restore_9
000052ba g       .ram_code	00000000 .hidden __riscv_restore_7
000014a4 g     F .ram_code	0000078a main
00001c30 g       .ram_code	00000000 default_irq_entry
00001c30  w      .ram_code	00000000 entry_irq3
00000ed8 g     F .ram_code	00000100 trap_entry
00000158 g       .retention_data	00000000 _AES_VMA_END
00003090 g     F .ram_code	00000004 matherr
00004120 g     F .ram_code	00000300 .hidden __truncdfsf2
00001c30  w      .ram_code	00000000 entry_irq39
00001c30  w      .ram_code	00000000 entry_irq49
000045ca g     F .ram_code	000000b0 _malloc_r
0009377c g     O .data	00001000 twiddleCoef_512
00001c30  w      .ram_code	00000000 entry_irq57
00001c30  w      .ram_code	00000000 entry_irq47
200002e8 g       *ABS*	00000000 _RETENTION_DATA_LMA_START
000856f4 g     O .data	00000060 riscvBitRevIndexTable32
20000000 g     F .vectors	00000000 _RESET_ENTRY
00000158 g       .retention_data	00000000 _RETENTION_DATA_VMA_START
00001c30  w      .ram_code	00000000 entry_irq4
000a0000 g       *ABS*	00000000 _STACK_TOP
00001c30  w      .ram_code	00000000 entry_irq22
00001e10  w    F .ram_code	0000001e riscv_cfft_init_4096_f32
00001c30  w      .ram_code	00000000 entry_irq30
00080254 g     O .data	00000010 riscv_cfft_sR_f32_len256
00080274 g     O .data	00000010 riscv_cfft_sR_f32_len64
000957fc g     O .data	00000004 _impure_ptr
00080224 g     O .data	00000010 riscv_cfft_sR_f32_len2048
00001c30  w      .ram_code	00000000 entry_irq42
00001c30  w      .ram_code	00000000 entry_irq24
00002c80 g     F .ram_code	0000015a sinf
000052a0 g       .ram_code	00000000 .hidden __riscv_save_2
000053c8 g       .ram_code	00000000 _RAMCODE_VMA_END
00001e54  w    F .ram_code	00000020 riscv_cfft_init_1024_f32
00000000  w      *ABS*	00000000 _ITB_BASE_
00005286 g       .ram_code	00000000 .hidden __riscv_save_5
00001c30  w      .ram_code	00000000 entry_irq19
00080234 g     O .data	00000010 riscv_cfft_sR_f32_len1024
0000147c g     F .ram_code	00000026 _write
00080284 g     O .data	00000010 riscv_cfft_sR_f32_len32
00095860 g       .sdk_version	00000000 _end
00001c30  w      .ram_code	00000000 entry_irq17
00001c30  w      .ram_code	00000000 entry_irq9
00001c30  w      .ram_code	00000000 entry_irq56
00001c30  w      .ram_code	00000000 entry_irq35
00001c30  w      .ram_code	00000000 entry_irq37
000001b8 g     O .retention_data	00000004 g_pm_mspi_cfg
00001c30  w      .ram_code	00000000 entry_irq54
00001c30  w      .ram_code	00000000 entry_irq40
00001e30  w    F .ram_code	00000022 riscv_cfft_init_2048_f32
0009177c g     O .data	00002000 twiddleCoef_1024
000052ac g       .ram_code	00000000 .hidden __riscv_restore_12
00000200 g       .ram_code	00000000 _RAMCODE_VMA_START
000052a0 g       .ram_code	00000000 .hidden __riscv_save_0
00001ef4  w    F .ram_code	00000020 riscv_cfft_init_32_f32
00083fe4 g     O .data	00000e10 riscvBitRevIndexTable1024
00003880 g     F .ram_code	000000c6 .hidden __gedf2
00001c30  w      .ram_code	00000000 entry_irq29
00095824 g     O .sbss	00000004 __malloc_sbrk_start
00002654  w    F .ram_code	000005d8 riscv_radix8_butterfly_f32
00095820 g     O .sbss	00000004 __malloc_free_list
000052c4 g       .ram_code	00000000 .hidden __riscv_restore_1
00001c30  w      .ram_code	00000000 entry_irq7
00001c30  w      .ram_code	00000000 entry_irq32
00000000 g     F .retention_reset	00000000 _IRESET_ENTRY
00001c30  w      .ram_code	00000000 entry_irq18
00004bfe g     F .ram_code	0000001e __int_to_poly
00004430 g     F .ram_code	00000010 free
00001c30  w      .ram_code	00000000 entry_irq25
00001f34 g     F .ram_code	00000076 riscv_cfft_init_f32



Disassembly of section .vectors:

20000000 <_RESET_ENTRY>:
20000000:	a025                	c.j	20000028 <_START>
	...
20000016:	0000                	unimp
20000018:	ad3a                	c.fsdsp	fa4,152(sp)
2000001a:	0001                	c.nop
2000001c:	0000                	unimp
2000001e:	0000                	unimp
20000020:	544c4e4b          	fnmsub.h	ft8,fs8,ft4,fa0,rmm
20000024:	0000                	unimp
20000026:	          	sllw	a4,zero,zero

20000028 <_START>:
20000028:	e0080197          	auipc	gp,0xe0080
2000002c:	7d818193          	addi	gp,gp,2008 # 80800 <__global_pointer$>
20000030:	801002b7          	lui	t0,0x80100
20000034:	70028293          	addi	t0,t0,1792 # 80100700 <_DATA_LMA_START+0x600fb1e8>
20000038:	04000313          	li	t1,64
2000003c:	506280a3          	sb	t1,1281(t0)
20000040:	e00a0297          	auipc	t0,0xe00a0
20000044:	fc028293          	addi	t0,t0,-64 # a0000 <_STACK_TOP>
20000048:	8116                	c.mv	sp,t0
2000004a:	e0000297          	auipc	t0,0xe0000
2000004e:	fb628293          	addi	t0,t0,-74 # 0 <_ITB_BASE_>
20000052:	80029073          	csrw	uitb,t0
20000056:	6299                	c.lui	t0,0x6
20000058:	3002a2f3          	csrrs	t0,mstatus,t0
2000005c:	00301073          	fssr	zero
20000060:	e0001297          	auipc	t0,0xe0001
20000064:	fa028293          	addi	t0,t0,-96 # 1000 <__vectors>
20000068:	30529073          	csrw	mtvec,t0
2000006c:	7d016073          	csrsi	mmisc_ctl,2
20000070:	e40002b7          	lui	t0,0xe4000
20000074:	4309                	c.li	t1,2
20000076:	0062a023          	sw	t1,0(t0) # e4000000 <_DATA_LMA_START+0xc3ffaae8>
2000007a:	7ca022f3          	csrr	t0,mcache_ctl
2000007e:	0012e293          	ori	t0,t0,1
20000082:	0022e293          	ori	t0,t0,2
20000086:	7ca29073          	csrw	mcache_ctl,t0
2000008a:	0000100f          	fence.i

2000008e <_RETENTION_RESET_INIT>:
2000008e:	00000317          	auipc	t1,0x0
20000092:	10230313          	addi	t1,t1,258 # 20000190 <_RETENTION_RESET_LMA_START>
20000096:	e0000397          	auipc	t2,0xe0000
2000009a:	f6a38393          	addi	t2,t2,-150 # 0 <_ITB_BASE_>
2000009e:	e0000e17          	auipc	t3,0xe0000
200000a2:	0b6e0e13          	addi	t3,t3,182 # 154 <_RETENTION_RESET_VMA_END>

200000a6 <_RETENTION_RESET_BEGIN>:
200000a6:	01c3f963          	bgeu	t2,t3,200000b8 <_RETENTION_DATA_INIT>
200000aa:	00032283          	lw	t0,0(t1)
200000ae:	0053a023          	sw	t0,0(t2)
200000b2:	0311                	c.addi	t1,4
200000b4:	0391                	c.addi	t2,4
200000b6:	bfc5                	c.j	200000a6 <_RETENTION_RESET_BEGIN>

200000b8 <_RETENTION_DATA_INIT>:
200000b8:	00000317          	auipc	t1,0x0
200000bc:	23030313          	addi	t1,t1,560 # 200002e8 <_RETENTION_DATA_LMA_START>
200000c0:	15800393          	li	t2,344
200000c4:	e0000e17          	auipc	t3,0xe0000
200000c8:	0f8e0e13          	addi	t3,t3,248 # 1bc <_RETENTION_DATA_VMA_END>

200000cc <_RETENTION_DATA_INIT_BEGIN>:
200000cc:	01c3f963          	bgeu	t2,t3,200000de <_RAMCODE_INIT>
200000d0:	00032283          	lw	t0,0(t1)
200000d4:	0053a023          	sw	t0,0(t2)
200000d8:	0311                	c.addi	t1,4
200000da:	0391                	c.addi	t2,4
200000dc:	bfc5                	c.j	200000cc <_RETENTION_DATA_INIT_BEGIN>

200000de <_RAMCODE_INIT>:
200000de:	00000317          	auipc	t1,0x0
200000e2:	27230313          	addi	t1,t1,626 # 20000350 <_RAMCODE_LMA_START>
200000e6:	e0000397          	auipc	t2,0xe0000
200000ea:	11a38393          	addi	t2,t2,282 # 200 <delay_ms>
200000ee:	e0005e17          	auipc	t3,0xe0005
200000f2:	2dae0e13          	addi	t3,t3,730 # 53c8 <_RAMCODE_VMA_END>

200000f6 <_RAMCODE_INIT_BEGIN>:
200000f6:	01c3f963          	bgeu	t2,t3,20000108 <_DATA_INIT>
200000fa:	00032283          	lw	t0,0(t1)
200000fe:	0053a023          	sw	t0,0(t2)
20000102:	0311                	c.addi	t1,4
20000104:	0391                	c.addi	t2,4
20000106:	bfc5                	c.j	200000f6 <_RAMCODE_INIT_BEGIN>

20000108 <_DATA_INIT>:
20000108:	00005317          	auipc	t1,0x5
2000010c:	41030313          	addi	t1,t1,1040 # 20005518 <_DATA_LMA_START>
20000110:	e0080397          	auipc	t2,0xe0080
20000114:	ef038393          	addi	t2,t2,-272 # 80000 <cst_libm_sincosf>
20000118:	e0095e17          	auipc	t3,0xe0095
2000011c:	6e8e0e13          	addi	t3,t3,1768 # 95800 <_DATA_VMA_END>

20000120 <_DATA_INIT_BEGIN>:
20000120:	01c3f963          	bgeu	t2,t3,20000132 <_ZERO_BSS>
20000124:	00032283          	lw	t0,0(t1)
20000128:	0053a023          	sw	t0,0(t2)
2000012c:	0311                	c.addi	t1,4
2000012e:	0391                	c.addi	t2,4
20000130:	bfc5                	c.j	20000120 <_DATA_INIT_BEGIN>

20000132 <_ZERO_BSS>:
20000132:	000002b7          	lui	t0,0x0
20000136:	e0095397          	auipc	t2,0xe0095
2000013a:	6ca38393          	addi	t2,t2,1738 # 95800 <_DATA_VMA_END>
2000013e:	e0095e17          	auipc	t3,0xe0095
20000142:	6fae0e13          	addi	t3,t3,1786 # 95838 <_BSS_VMA_END>

20000146 <_ZERO_BSS_BEGIN>:
20000146:	01c3f663          	bgeu	t2,t3,20000152 <_ZERO_AES>
2000014a:	0053a023          	sw	t0,0(t2)
2000014e:	0391                	c.addi	t2,4
20000150:	bfdd                	c.j	20000146 <_ZERO_BSS_BEGIN>

20000152 <_ZERO_AES>:
20000152:	000002b7          	lui	t0,0x0
20000156:	e0000397          	auipc	t2,0xe0000
2000015a:	00238393          	addi	t2,t2,2 # 158 <_AES_VMA_END>
2000015e:	e0000e17          	auipc	t3,0xe0000
20000162:	ffae0e13          	addi	t3,t3,-6 # 158 <_AES_VMA_END>

20000166 <_ZERO_AES_BEGIN>:
20000166:	01c3f663          	bgeu	t2,t3,20000172 <_FILL_STK>
2000016a:	0053a023          	sw	t0,0(t2)
2000016e:	0391                	c.addi	t2,4
20000170:	bfdd                	c.j	20000166 <_ZERO_AES_BEGIN>

20000172 <_FILL_STK>:
20000172:	0001                	c.nop
20000174:	e0001297          	auipc	t0,0xe0001
20000178:	33028293          	addi	t0,t0,816 # 14a4 <main>
2000017c:	9282                	c.jalr	t0
2000017e:	0001                	c.nop
20000180:	0001                	c.nop
20000182:	0001                	c.nop
20000184:	0001                	c.nop
20000186:	0001                	c.nop

20000188 <_END>:
20000188:	a001                	c.j	20000188 <_END>

Disassembly of section .retention_reset:

00000000 <_IRESET_ENTRY>:
   0:	a00d                	c.j	22 <_ISTART>
	...

00000022 <_ISTART>:
  22:	00080197          	auipc	gp,0x80
  26:	7de18193          	addi	gp,gp,2014 # 80800 <__global_pointer$>

0000002a <_ISWS_USB_DIS>:
  2a:	801002b7          	lui	t0,0x80100
  2e:	70028293          	addi	t0,t0,1792 # 80100700 <_DATA_LMA_START+0x600fb1e8>
  32:	04000313          	li	t1,64
  36:	506280a3          	sb	t1,1281(t0)
  3a:	000a0297          	auipc	t0,0xa0
  3e:	fc628293          	addi	t0,t0,-58 # a0000 <_STACK_TOP>
  42:	8116                	c.mv	sp,t0
  44:	00000297          	auipc	t0,0x0
  48:	fbc28293          	addi	t0,t0,-68 # 0 <_IRESET_ENTRY>
  4c:	80029073          	csrw	uitb,t0
  50:	6299                	c.lui	t0,0x6
  52:	3002a2f3          	csrrs	t0,mstatus,t0
  56:	00301073          	fssr	zero
  5a:	00001297          	auipc	t0,0x1
  5e:	fa628293          	addi	t0,t0,-90 # 1000 <__vectors>
  62:	30529073          	csrw	mtvec,t0
  66:	7d016073          	csrsi	mmisc_ctl,2
  6a:	e40002b7          	lui	t0,0xe4000
  6e:	4309                	c.li	t1,2
  70:	0062a023          	sw	t1,0(t0) # e4000000 <_DATA_LMA_START+0xc3ffaae8>
  74:	7ca022f3          	csrr	t0,mcache_ctl
  78:	0012e293          	ori	t0,t0,1
  7c:	0022e293          	ori	t0,t0,2
  80:	7ca29073          	csrw	mcache_ctl,t0
  84:	0000100f          	fence.i

00000088 <_WAKEUP_FLASH>:
  88:	801402b7          	lui	t0,0x80140
  8c:	0ff00313          	li	t1,255
  90:	4381                	c.li	t2,0
  92:	0ab00e13          	li	t3,171
  96:	326284a3          	sb	t1,809(t0) # 80140329 <_DATA_LMA_START+0x6013ae11>
  9a:	107280a3          	sb	t2,257(t0)
  9e:	11c28023          	sb	t3,256(t0)

000000a2 <_MSPI_WAIT>:
  a2:	801402b7          	lui	t0,0x80140
  a6:	10228383          	lb	t2,258(t0) # 80140102 <_DATA_LMA_START+0x6013abea>
  aa:	4e05                	c.li	t3,1
  ac:	4ec1                	c.li	t4,16
  ae:	fe7e0ae3          	beq	t3,t2,a2 <_MSPI_WAIT>
  b2:	11d280a3          	sb	t4,257(t0)
  b6:	4281                	c.li	t0,0
  b8:	14000313          	li	t1,320

000000bc <_WAIT_EFUSE_LOAD_AND_FLASH_WAKEUP_FINISH>:
  bc:	0285                	c.addi	t0,1
  be:	fe537fe3          	bgeu	t1,t0,bc <_WAIT_EFUSE_LOAD_AND_FLASH_WAKEUP_FINISH>

000000c2 <_MULTI_ADDRESS_BEGIN>:
  c2:	801402b7          	lui	t0,0x80140
  c6:	1b800313          	li	t1,440
  ca:	00032383          	lw	t2,0(t1)
  ce:	1072a223          	sw	t2,260(t0) # 80140104 <_DATA_LMA_START+0x6013abec>

000000d2 <_IZERO_BSS>:
  d2:	000002b7          	lui	t0,0x0
  d6:	00095397          	auipc	t2,0x95
  da:	72a38393          	addi	t2,t2,1834 # 95800 <_DATA_VMA_END>
  de:	00095e17          	auipc	t3,0x95
  e2:	75ae0e13          	addi	t3,t3,1882 # 95838 <_BSS_VMA_END>

000000e6 <_IZERO_BSS_BEGIN>:
  e6:	01c3f663          	bgeu	t2,t3,f2 <_IZERO_AES>
  ea:	0053a023          	sw	t0,0(t2)
  ee:	0391                	c.addi	t2,4
  f0:	bfdd                	c.j	e6 <_IZERO_BSS_BEGIN>

000000f2 <_IZERO_AES>:
  f2:	000002b7          	lui	t0,0x0
  f6:	00000397          	auipc	t2,0x0
  fa:	06238393          	addi	t2,t2,98 # 158 <_AES_VMA_END>
  fe:	00000e17          	auipc	t3,0x0
 102:	05ae0e13          	addi	t3,t3,90 # 158 <_AES_VMA_END>

00000106 <_IZERO_AES_BEGIN>:
 106:	01c3f663          	bgeu	t2,t3,112 <_IDATA_INIT>
 10a:	0053a023          	sw	t0,0(t2)
 10e:	0391                	c.addi	t2,4
 110:	bfdd                	c.j	106 <_IZERO_AES_BEGIN>

00000112 <_IDATA_INIT>:
 112:	20005317          	auipc	t1,0x20005
 116:	40630313          	addi	t1,t1,1030 # 20005518 <_DATA_LMA_START>
 11a:	00080397          	auipc	t2,0x80
 11e:	ee638393          	addi	t2,t2,-282 # 80000 <cst_libm_sincosf>
 122:	00095e17          	auipc	t3,0x95
 126:	6dee0e13          	addi	t3,t3,1758 # 95800 <_DATA_VMA_END>

0000012a <_IDATA_INIT_BEGIN>:
 12a:	01c3f963          	bgeu	t2,t3,13c <_IMAIN_FUNC>
 12e:	00032283          	lw	t0,0(t1)
 132:	0053a023          	sw	t0,0(t2)
 136:	0311                	c.addi	t1,4
 138:	0391                	c.addi	t2,4
 13a:	bfc5                	c.j	12a <_IDATA_INIT_BEGIN>

0000013c <_IMAIN_FUNC>:
 13c:	0001                	c.nop
 13e:	00001297          	auipc	t0,0x1
 142:	36628293          	addi	t0,t0,870 # 14a4 <main>
 146:	9282                	c.jalr	t0
 148:	0001                	c.nop
 14a:	0001                	c.nop
 14c:	0001                	c.nop
 14e:	0001                	c.nop
 150:	0001                	c.nop

00000152 <_IEND>:
 152:	a001                	c.j	152 <_IEND>

Disassembly of section .ram_code:

00000200 <delay_ms>:
     200:	000047b7          	lui	a5,0x4
     204:	e8078793          	addi	a5,a5,-384 # 3e80 <__muldf3+0x538>
     208:	02f50533          	mul	a0,a0,a5
     20c:	801407b7          	lui	a5,0x80140
     210:	2007a683          	lw	a3,512(a5) # 80140200 <_DATA_LMA_START+0x6013ace8>
     214:	80140737          	lui	a4,0x80140
     218:	20072783          	lw	a5,512(a4) # 80140200 <_DATA_LMA_START+0x6013ace8>
     21c:	8f95                	c.sub	a5,a3
     21e:	fef57de3          	bgeu	a0,a5,218 <delay_ms+0x18>
     222:	8082                	c.jr	ra

00000224 <delay_ms.constprop.12>:
     224:	801407b7          	lui	a5,0x80140
     228:	00027737          	lui	a4,0x27
     22c:	2007a603          	lw	a2,512(a5) # 80140200 <_DATA_LMA_START+0x6013ace8>
     230:	801406b7          	lui	a3,0x80140
     234:	10070713          	addi	a4,a4,256 # 27100 <BIN_SIZE+0xc3c6>
     238:	2006a783          	lw	a5,512(a3) # 80140200 <_DATA_LMA_START+0x6013ace8>
     23c:	8f91                	c.sub	a5,a2
     23e:	fef77de3          	bgeu	a4,a5,238 <delay_ms.constprop.12+0x14>
     242:	8082                	c.jr	ra

00000244 <flash_send_addr>:
     244:	5d05275b          	bfoz	a4,a0,23,16
     248:	801407b7          	lui	a5,0x80140
     24c:	801406b7          	lui	a3,0x80140
     250:	10e78023          	sb	a4,256(a5) # 80140100 <_DATA_LMA_START+0x6013abe8>
     254:	10268783          	lb	a5,258(a3) # 80140102 <_DATA_LMA_START+0x6013abea>
     258:	fe07fe5b          	bbs	a5,0,254 <flash_send_addr+0x10>
     25c:	3c8527db          	bfoz	a5,a0,15,8
     260:	80140737          	lui	a4,0x80140
     264:	10f68023          	sb	a5,256(a3)
     268:	10270783          	lb	a5,258(a4) # 80140102 <_DATA_LMA_START+0x6013abea>
     26c:	fe07fe5b          	bbs	a5,0,268 <flash_send_addr+0x24>
     270:	0ff57513          	andi	a0,a0,255
     274:	801406b7          	lui	a3,0x80140
     278:	10a70023          	sb	a0,256(a4)
     27c:	10268783          	lb	a5,258(a3) # 80140102 <_DATA_LMA_START+0x6013abea>
     280:	fe07fe5b          	bbs	a5,0,27c <flash_send_addr+0x38>
     284:	00008067          	ret

00000288 <flash_send_cmd>:
     288:	801407b7          	lui	a5,0x80140
     28c:	10178703          	lb	a4,257(a5) # 80140101 <_DATA_LMA_START+0x6013abe9>
     290:	0ff77713          	andi	a4,a4,255
     294:	01076713          	ori	a4,a4,16
     298:	10e780a3          	sb	a4,257(a5)
     29c:	0001                	c.nop
     29e:	0001                	c.nop
     2a0:	0001                	c.nop
     2a2:	0001                	c.nop
     2a4:	0001                	c.nop
     2a6:	0001                	c.nop
     2a8:	0001                	c.nop
     2aa:	0001                	c.nop
     2ac:	0001                	c.nop
     2ae:	0001                	c.nop
     2b0:	10178683          	lb	a3,257(a5)
     2b4:	80140737          	lui	a4,0x80140
     2b8:	0ef6f693          	andi	a3,a3,239
     2bc:	10d780a3          	sb	a3,257(a5)
     2c0:	10a78023          	sb	a0,256(a5)
     2c4:	10270783          	lb	a5,258(a4) # 80140102 <_DATA_LMA_START+0x6013abea>
     2c8:	fe07fe5b          	bbs	a5,0,2c4 <flash_send_cmd+0x3c>
     2cc:	00008067          	ret

000002d0 <clock_set_32k_tick>:
     2d0:	801406b7          	lui	a3,0x80140
     2d4:	20a68783          	lb	a5,522(a3) # 8014020a <_DATA_LMA_START+0x6013acf2>
     2d8:	80140737          	lui	a4,0x80140
     2dc:	0ff7f793          	andi	a5,a5,255
     2e0:	0017e793          	ori	a5,a5,1
     2e4:	20f68523          	sb	a5,522(a3)
     2e8:	20b70683          	lb	a3,523(a4) # 8014020b <_DATA_LMA_START+0x6013acf3>
     2ec:	20b70793          	addi	a5,a4,523
     2f0:	fe66fc5b          	bbs	a3,6,2e8 <clock_set_32k_tick+0x18>
     2f4:	20a72623          	sw	a0,524(a4)
     2f8:	4721                	c.li	a4,8
     2fa:	00e78023          	sb	a4,0(a5)
     2fe:	0001                	c.nop
     300:	0001                	c.nop
     302:	0001                	c.nop
     304:	0001                	c.nop
     306:	0001                	c.nop
     308:	0001                	c.nop
     30a:	0001                	c.nop
     30c:	0001                	c.nop
     30e:	0001                	c.nop
     310:	0001                	c.nop
     312:	0001                	c.nop
     314:	0001                	c.nop
     316:	0001                	c.nop
     318:	0001                	c.nop
     31a:	0001                	c.nop
     31c:	00000013          	nop
     320:	801407b7          	lui	a5,0x80140
     324:	20b78703          	lb	a4,523(a5) # 8014020b <_DATA_LMA_START+0x6013acf3>
     328:	fe377e5b          	bbs	a4,3,324 <clock_set_32k_tick+0x54>
     32c:	00008067          	ret

00000330 <analog_read_reg32.constprop.4>:
     330:	300027f3          	csrr	a5,mstatus
     334:	8ba1                	c.andi	a5,8
     336:	c789                	c.beqz	a5,340 <analog_read_reg32.constprop.4+0x10>
     338:	30047773          	csrrci	a4,mstatus,8
     33c:	0ff0000f          	fence
     340:	80140737          	lui	a4,0x80140
     344:	00400693          	li	a3,4
     348:	18d701a3          	sb	a3,387(a4) # 80140183 <_DATA_LMA_START+0x6013ac6b>
     34c:	06000693          	li	a3,96
     350:	18d70023          	sb	a3,384(a4)
     354:	04000613          	li	a2,64
     358:	801406b7          	lui	a3,0x80140
     35c:	18c70123          	sb	a2,386(a4)
     360:	18268703          	lb	a4,386(a3) # 80140182 <_DATA_LMA_START+0x6013ac6a>
     364:	fe777e5b          	bbs	a4,7,360 <analog_read_reg32.constprop.4+0x30>
     368:	1846a503          	lw	a0,388(a3)
     36c:	00078663          	beqz	a5,378 <analog_read_reg32.constprop.4+0x48>
     370:	3007a7f3          	csrrs	a5,mstatus,a5
     374:	0ff0000f          	fence
     378:	00008067          	ret

0000037c <clock_get_32k_tick>:
     37c:	1141                	c.addi	sp,-16
     37e:	c422                	c.swsp	s0,8(sp)
     380:	c606                	c.swsp	ra,12(sp)
     382:	377d                	c.jal	330 <analog_read_reg32.constprop.4>
     384:	00a00433          	add	s0,zero,a0
     388:	fa9ff0ef          	jal	ra,330 <analog_read_reg32.constprop.4>
     38c:	40850733          	sub	a4,a0,s0
     390:	842a                	c.mv	s0,a0
     392:	be176b5b          	bnec	a4,1,388 <clock_get_32k_tick+0xc>
     396:	40b2                	c.lwsp	ra,12(sp)
     398:	4422                	c.lwsp	s0,8(sp)
     39a:	0141                	c.addi	sp,16
     39c:	00008067          	ret

000003a0 <pm_stimer_recover>:
     3a0:	1141                	c.addi	sp,-16
     3a2:	80140737          	lui	a4,0x80140
     3a6:	c606                	c.swsp	ra,12(sp)
     3a8:	4789                	c.li	a5,2
     3aa:	20f70c23          	sb	a5,536(a4) # 80140218 <_DATA_LMA_START+0x6013ad00>
     3ae:	20a70783          	lb	a5,522(a4)
     3b2:	0ff7f793          	andi	a5,a5,255
     3b6:	00c7e793          	ori	a5,a5,12
     3ba:	20f70523          	sb	a5,522(a4)
     3be:	3f7d                	c.jal	37c <clock_get_32k_tick>
     3c0:	000007b7          	lui	a5,0x0
     3c4:	15878713          	addi	a4,a5,344 # 158 <_AES_VMA_END>
     3c8:	00474703          	lbu	a4,4(a4)
     3cc:	15878793          	addi	a5,a5,344
     3d0:	cf01                	c.beqz	a4,3e8 <pm_stimer_recover+0x48>
     3d2:	4b98                	c.lw	a4,16(a5)
     3d4:	5f90                	c.lw	a2,56(a5)
     3d6:	40e50733          	sub	a4,a0,a4
     3da:	47d4                	c.lw	a3,12(a5)
     3dc:	0705                	c.addi	a4,1
     3de:	8315                	c.srli	a4,0x5
     3e0:	c4c716ff          	maddr32	a3,a4,a2
     3e4:	c794                	c.sw	a3,8(a5)
     3e6:	a829                	c.j	400 <pm_stimer_recover+0x60>
     3e8:	4b98                	c.lw	a4,16(a5)
     3ea:	5f94                	c.lw	a3,56(a5)
     3ec:	40e50733          	sub	a4,a0,a4
     3f0:	0705                	c.addi	a4,1
     3f2:	02d70733          	mul	a4,a4,a3
     3f6:	47d4                	c.lw	a3,12(a5)
     3f8:	8315                	c.srli	a4,0x5
     3fa:	9736                	c.add	a4,a3
     3fc:	00e7a423          	sw	a4,8(a5)
     400:	4b98                	c.lw	a4,16(a5)
     402:	4794                	c.lw	a3,8(a5)
     404:	40e50733          	sub	a4,a0,a4
     408:	0705                	c.addi	a4,1
     40a:	0505                	c.addi	a0,1
     40c:	0685                	c.addi	a3,1
     40e:	d788                	c.sw	a0,40(a5)
     410:	02e7a223          	sw	a4,36(a5)
     414:	80140637          	lui	a2,0x80140
     418:	801407b7          	lui	a5,0x80140
     41c:	20d7a023          	sw	a3,512(a5) # 80140200 <_DATA_LMA_START+0x6013ace8>
     420:	20b60783          	lb	a5,523(a2) # 8014020b <_DATA_LMA_START+0x6013acf3>
     424:	be77fe5b          	bbc	a5,7,420 <pm_stimer_recover+0x80>
     428:	20060c23          	sb	zero,536(a2)
     42c:	40b2                	c.lwsp	ra,12(sp)
     42e:	0141                	c.addi	sp,16
     430:	00008067          	ret

00000434 <plic_exit_critical_sec>:
     434:	000007b7          	lui	a5,0x0
     438:	15878793          	addi	a5,a5,344 # 158 <_AES_VMA_END>
     43c:	03c78783          	lb	a5,60(a5)
     440:	0ff7f793          	andi	a5,a5,255
     444:	c795                	c.beqz	a5,470 <plic_exit_critical_sec+0x3c>
     446:	c50d                	c.beqz	a0,470 <plic_exit_critical_sec+0x3c>
     448:	300027f3          	csrr	a5,mstatus
     44c:	8ba1                	c.andi	a5,8
     44e:	0ff5f593          	andi	a1,a1,255
     452:	c78d                	c.beqz	a5,47c <plic_exit_critical_sec+0x48>
     454:	30047773          	csrrci	a4,mstatus,8
     458:	0ff0000f          	fence
     45c:	e4200737          	lui	a4,0xe4200
     460:	c30c                	c.sw	a1,0(a4)
     462:	0ff0000f          	fence
     466:	3007a7f3          	csrrs	a5,mstatus,a5
     46a:	0ff0000f          	fence
     46e:	8082                	c.jr	ra
     470:	cd81                	c.beqz	a1,488 <plic_exit_critical_sec+0x54>
     472:	3005a5f3          	csrrs	a1,mstatus,a1
     476:	0ff0000f          	fence
     47a:	8082                	c.jr	ra
     47c:	e42007b7          	lui	a5,0xe4200
     480:	00b7a023          	sw	a1,0(a5) # e4200000 <_DATA_LMA_START+0xc41faae8>
     484:	0ff0000f          	fence
     488:	00008067          	ret

0000048c <plic_enter_critical_sec>:
     48c:	000007b7          	lui	a5,0x0
     490:	15878793          	addi	a5,a5,344 # 158 <_AES_VMA_END>
     494:	03c78783          	lb	a5,60(a5)
     498:	0ff7f793          	andi	a5,a5,255
     49c:	cb85                	c.beqz	a5,4cc <plic_enter_critical_sec+0x40>
     49e:	c51d                	c.beqz	a0,4cc <plic_enter_critical_sec+0x40>
     4a0:	e4200737          	lui	a4,0xe4200
     4a4:	4308                	c.lw	a0,0(a4)
     4a6:	04b57163          	bgeu	a0,a1,4e8 <plic_enter_critical_sec+0x5c>
     4aa:	300027f3          	csrr	a5,mstatus
     4ae:	8ba1                	c.andi	a5,8
     4b0:	cb85                	c.beqz	a5,4e0 <plic_enter_critical_sec+0x54>
     4b2:	300476f3          	csrrci	a3,mstatus,8
     4b6:	0ff0000f          	fence
     4ba:	c30c                	c.sw	a1,0(a4)
     4bc:	0ff0000f          	fence
     4c0:	3007a7f3          	csrrs	a5,mstatus,a5
     4c4:	0ff0000f          	fence
     4c8:	00008067          	ret
     4cc:	30002573          	csrr	a0,mstatus
     4d0:	8921                	c.andi	a0,8
     4d2:	c919                	c.beqz	a0,4e8 <plic_enter_critical_sec+0x5c>
     4d4:	300477f3          	csrrci	a5,mstatus,8
     4d8:	0ff0000f          	fence
     4dc:	00008067          	ret
     4e0:	00b72023          	sw	a1,0(a4) # e4200000 <_DATA_LMA_START+0xc41faae8>
     4e4:	0ff0000f          	fence
     4e8:	00008067          	ret

000004ec <flash_mspi_read_ram>:
     4ec:	7179                	c.addi16sp	sp,-48
     4ee:	d226                	c.swsp	s1,36(sp)
     4f0:	000004b7          	lui	s1,0x0
     4f4:	15848493          	addi	s1,s1,344 # 158 <_AES_VMA_END>
     4f8:	d04a                	c.swsp	s2,32(sp)
     4fa:	c65e                	c.swsp	s7,12(sp)
     4fc:	892a                	c.mv	s2,a0
     4fe:	8bae                	c.mv	s7,a1
     500:	0404c503          	lbu	a0,64(s1)
     504:	0414c583          	lbu	a1,65(s1)
     508:	d422                	c.swsp	s0,40(sp)
     50a:	ce4e                	c.swsp	s3,28(sp)
     50c:	cc52                	c.swsp	s4,24(sp)
     50e:	ca56                	c.swsp	s5,20(sp)
     510:	c85a                	c.swsp	s6,16(sp)
     512:	d606                	c.swsp	ra,44(sp)
     514:	8b32                	c.mv	s6,a2
     516:	8ab6                	c.mv	s5,a3
     518:	843a                	c.mv	s0,a4
     51a:	8a3e                	c.mv	s4,a5
     51c:	f71ff0ef          	jal	ra,48c <plic_enter_critical_sec>
     520:	80140637          	lui	a2,0x80140
     524:	00a009b3          	add	s3,zero,a0
     528:	10260783          	lb	a5,258(a2) # 80140102 <_DATA_LMA_START+0x6013abea>
     52c:	fe07fe5b          	bbs	a5,0,528 <flash_mspi_read_ram+0x3c>
     530:	10160783          	lb	a5,257(a2)
     534:	80140737          	lui	a4,0x80140
     538:	0ff7f793          	andi	a5,a5,255
     53c:	0107e793          	ori	a5,a5,16
     540:	10f600a3          	sb	a5,257(a2)
     544:	32870783          	lb	a5,808(a4) # 80140328 <_DATA_LMA_START+0x6013ae10>
     548:	be37fe5b          	bbc	a5,3,544 <flash_mspi_read_ram+0x58>
     54c:	10170783          	lb	a5,257(a4)
     550:	854a                	c.mv	a0,s2
     552:	0fd7f793          	andi	a5,a5,253
     556:	10f700a3          	sb	a5,257(a4)
     55a:	10170783          	lb	a5,257(a4)
     55e:	0f37f793          	andi	a5,a5,243
     562:	10f700a3          	sb	a5,257(a4)
     566:	330d                	c.jal	288 <flash_send_cmd>
     568:	0e0b1e63          	bnez	s6,664 <flash_mspi_read_ram+0x178>
     56c:	020a8063          	beqz	s5,58c <flash_mspi_read_ram+0xa0>
     570:	00000713          	li	a4,0
     574:	80140637          	lui	a2,0x80140
     578:	10060023          	sb	zero,256(a2) # 80140100 <_DATA_LMA_START+0x6013abe8>
     57c:	10260783          	lb	a5,258(a2)
     580:	fe07fe5b          	bbs	a5,0,57c <flash_mspi_read_ram+0x90>
     584:	00170713          	addi	a4,a4,1
     588:	ff5718e3          	bne	a4,s5,578 <flash_mspi_read_ram+0x8c>
     58c:	01b96cdb          	bnec	s2,59,5a4 <flash_mspi_read_ram+0xb8>
     590:	80140737          	lui	a4,0x80140
     594:	10170783          	lb	a5,257(a4) # 80140101 <_DATA_LMA_START+0x6013abe9>
     598:	0f37f793          	andi	a5,a5,243
     59c:	0047e793          	ori	a5,a5,4
     5a0:	10f700a3          	sb	a5,257(a4)
     5a4:	801406b7          	lui	a3,0x80140
     5a8:	10168783          	lb	a5,257(a3) # 80140101 <_DATA_LMA_START+0x6013abe9>
     5ac:	80140737          	lui	a4,0x80140
     5b0:	0ff7f793          	andi	a5,a5,255
     5b4:	0027e793          	ori	a5,a5,2
     5b8:	10f680a3          	sb	a5,257(a3)
     5bc:	10068023          	sb	zero,256(a3)
     5c0:	10270783          	lb	a5,258(a4) # 80140102 <_DATA_LMA_START+0x6013abea>
     5c4:	fe07fe5b          	bbs	a5,0,5c0 <flash_mspi_read_ram+0xd4>
     5c8:	10170783          	lb	a5,257(a4)
     5cc:	801406b7          	lui	a3,0x80140
     5d0:	0ff7f793          	andi	a5,a5,255
     5d4:	0017e793          	ori	a5,a5,1
     5d8:	10f700a3          	sb	a5,257(a4)
     5dc:	10268783          	lb	a5,258(a3) # 80140102 <_DATA_LMA_START+0x6013abea>
     5e0:	fe07fe5b          	bbs	a5,0,5dc <flash_mspi_read_ram+0xf0>
     5e4:	020a0263          	beqz	s4,608 <flash_mspi_read_ram+0x11c>
     5e8:	008a0a33          	add	s4,s4,s0
     5ec:	801406b7          	lui	a3,0x80140
     5f0:	10068783          	lb	a5,256(a3) # 80140100 <_DATA_LMA_START+0x6013abe8>
     5f4:	00140413          	addi	s0,s0,1
     5f8:	fef40fa3          	sb	a5,-1(s0)
     5fc:	10268783          	lb	a5,258(a3)
     600:	fe07fe5b          	bbs	a5,0,5fc <flash_mspi_read_ram+0x110>
     604:	ff4416e3          	bne	s0,s4,5f0 <flash_mspi_read_ram+0x104>
     608:	801407b7          	lui	a5,0x80140
     60c:	10178703          	lb	a4,257(a5) # 80140101 <_DATA_LMA_START+0x6013abe9>
     610:	0fe77713          	andi	a4,a4,254
     614:	10e780a3          	sb	a4,257(a5)
     618:	01b968db          	bnec	s2,59,628 <flash_mspi_read_ram+0x13c>
     61c:	10178703          	lb	a4,257(a5)
     620:	0f377713          	andi	a4,a4,243
     624:	10e780a3          	sb	a4,257(a5)
     628:	80140737          	lui	a4,0x80140
     62c:	10170783          	lb	a5,257(a4) # 80140101 <_DATA_LMA_START+0x6013abe9>
     630:	0ff7f793          	andi	a5,a5,255
     634:	0107e793          	ori	a5,a5,16
     638:	10f700a3          	sb	a5,257(a4)
     63c:	0001                	c.nop
     63e:	0001                	c.nop
     640:	0001                	c.nop
     642:	0001                	c.nop
     644:	0001                	c.nop
     646:	5422                	c.lwsp	s0,40(sp)
     648:	0404c503          	lbu	a0,64(s1)
     64c:	50b2                	c.lwsp	ra,44(sp)
     64e:	5492                	c.lwsp	s1,36(sp)
     650:	5902                	c.lwsp	s2,32(sp)
     652:	4a62                	c.lwsp	s4,24(sp)
     654:	4ad2                	c.lwsp	s5,20(sp)
     656:	4b42                	c.lwsp	s6,16(sp)
     658:	4bb2                	c.lwsp	s7,12(sp)
     65a:	85ce                	c.mv	a1,s3
     65c:	49f2                	c.lwsp	s3,28(sp)
     65e:	6145                	c.addi16sp	sp,48
     660:	dd5ff06f          	j	434 <plic_exit_critical_sec>
     664:	855e                	c.mv	a0,s7
     666:	3ef9                	c.jal	244 <flash_send_addr>
     668:	f05ff06f          	j	56c <flash_mspi_read_ram+0x80>

0000066c <flash_mspi_read_ram.constprop.7>:
     66c:	1101                	c.addi	sp,-32
     66e:	c64e                	c.swsp	s3,12(sp)
     670:	000009b7          	lui	s3,0x0
     674:	15898993          	addi	s3,s3,344 # 158 <_AES_VMA_END>
     678:	cc22                	c.swsp	s0,24(sp)
     67a:	c256                	c.swsp	s5,4(sp)
     67c:	842e                	c.mv	s0,a1
     67e:	8aaa                	c.mv	s5,a0
     680:	0419c583          	lbu	a1,65(s3)
     684:	0409c503          	lbu	a0,64(s3)
     688:	c84a                	c.swsp	s2,16(sp)
     68a:	c452                	c.swsp	s4,8(sp)
     68c:	ce06                	c.swsp	ra,28(sp)
     68e:	ca26                	c.swsp	s1,20(sp)
     690:	8932                	c.mv	s2,a2
     692:	3bed                	c.jal	48c <plic_enter_critical_sec>
     694:	80140737          	lui	a4,0x80140
     698:	00a00a33          	add	s4,zero,a0
     69c:	10270783          	lb	a5,258(a4) # 80140102 <_DATA_LMA_START+0x6013abea>
     6a0:	fe07fe5b          	bbs	a5,0,69c <flash_mspi_read_ram.constprop.7+0x30>
     6a4:	10170783          	lb	a5,257(a4)
     6a8:	801404b7          	lui	s1,0x80140
     6ac:	0ff7f793          	andi	a5,a5,255
     6b0:	0107e793          	ori	a5,a5,16
     6b4:	10f700a3          	sb	a5,257(a4)
     6b8:	32848783          	lb	a5,808(s1) # 80140328 <_DATA_LMA_START+0x6013ae10>
     6bc:	be37fe5b          	bbc	a5,3,6b8 <flash_mspi_read_ram.constprop.7+0x4c>
     6c0:	10148783          	lb	a5,257(s1)
     6c4:	03b00513          	li	a0,59
     6c8:	0fd7f793          	andi	a5,a5,253
     6cc:	10f480a3          	sb	a5,257(s1)
     6d0:	10148783          	lb	a5,257(s1)
     6d4:	0f37f793          	andi	a5,a5,243
     6d8:	10f480a3          	sb	a5,257(s1)
     6dc:	badff0ef          	jal	ra,288 <flash_send_cmd>
     6e0:	01500533          	add	a0,zero,s5
     6e4:	b61ff0ef          	jal	ra,244 <flash_send_addr>
     6e8:	80140737          	lui	a4,0x80140
     6ec:	10048023          	sb	zero,256(s1)
     6f0:	10270783          	lb	a5,258(a4) # 80140102 <_DATA_LMA_START+0x6013abea>
     6f4:	fe07fe5b          	bbs	a5,0,6f0 <flash_mspi_read_ram.constprop.7+0x84>
     6f8:	10170783          	lb	a5,257(a4)
     6fc:	801406b7          	lui	a3,0x80140
     700:	0f37f793          	andi	a5,a5,243
     704:	0047e793          	ori	a5,a5,4
     708:	10f700a3          	sb	a5,257(a4)
     70c:	10170783          	lb	a5,257(a4)
     710:	0ff7f793          	andi	a5,a5,255
     714:	0027e793          	ori	a5,a5,2
     718:	10f700a3          	sb	a5,257(a4)
     71c:	10070023          	sb	zero,256(a4)
     720:	10268783          	lb	a5,258(a3) # 80140102 <_DATA_LMA_START+0x6013abea>
     724:	fe07fe5b          	bbs	a5,0,720 <flash_mspi_read_ram.constprop.7+0xb4>
     728:	10168783          	lb	a5,257(a3)
     72c:	80140737          	lui	a4,0x80140
     730:	0ff7f793          	andi	a5,a5,255
     734:	0017e793          	ori	a5,a5,1
     738:	10f680a3          	sb	a5,257(a3)
     73c:	10270783          	lb	a5,258(a4) # 80140102 <_DATA_LMA_START+0x6013abea>
     740:	fe07fe5b          	bbs	a5,0,73c <flash_mspi_read_ram.constprop.7+0xd0>
     744:	02090263          	beqz	s2,768 <flash_mspi_read_ram.constprop.7+0xfc>
     748:	01240633          	add	a2,s0,s2
     74c:	80140737          	lui	a4,0x80140
     750:	10070783          	lb	a5,256(a4) # 80140100 <_DATA_LMA_START+0x6013abe8>
     754:	00140413          	addi	s0,s0,1
     758:	fef40fa3          	sb	a5,-1(s0)
     75c:	10270783          	lb	a5,258(a4)
     760:	fe07fe5b          	bbs	a5,0,75c <flash_mspi_read_ram.constprop.7+0xf0>
     764:	fec416e3          	bne	s0,a2,750 <flash_mspi_read_ram.constprop.7+0xe4>
     768:	801407b7          	lui	a5,0x80140
     76c:	10178703          	lb	a4,257(a5) # 80140101 <_DATA_LMA_START+0x6013abe9>
     770:	0fe77713          	andi	a4,a4,254
     774:	10e780a3          	sb	a4,257(a5)
     778:	10178703          	lb	a4,257(a5)
     77c:	0f377713          	andi	a4,a4,243
     780:	10e780a3          	sb	a4,257(a5)
     784:	10178703          	lb	a4,257(a5)
     788:	0ff77713          	andi	a4,a4,255
     78c:	01076713          	ori	a4,a4,16
     790:	10e780a3          	sb	a4,257(a5)
     794:	0001                	c.nop
     796:	0001                	c.nop
     798:	0001                	c.nop
     79a:	0001                	c.nop
     79c:	0001                	c.nop
     79e:	4462                	c.lwsp	s0,24(sp)
     7a0:	0409c503          	lbu	a0,64(s3)
     7a4:	40f2                	c.lwsp	ra,28(sp)
     7a6:	44d2                	c.lwsp	s1,20(sp)
     7a8:	4942                	c.lwsp	s2,16(sp)
     7aa:	49b2                	c.lwsp	s3,12(sp)
     7ac:	4a92                	c.lwsp	s5,4(sp)
     7ae:	85d2                	c.mv	a1,s4
     7b0:	4a22                	c.lwsp	s4,8(sp)
     7b2:	6105                	c.addi16sp	sp,32
     7b4:	c81ff06f          	j	434 <plic_exit_critical_sec>

000007b8 <analog_write_reg8>:
     7b8:	30002673          	csrr	a2,mstatus
     7bc:	8a21                	c.andi	a2,8
     7be:	c609                	c.beqz	a2,7c8 <analog_write_reg8+0x10>
     7c0:	300477f3          	csrrci	a5,mstatus,8
     7c4:	0ff0000f          	fence
     7c8:	80140737          	lui	a4,0x80140
     7cc:	18a70023          	sb	a0,384(a4) # 80140180 <_DATA_LMA_START+0x6013ac68>
     7d0:	18b70223          	sb	a1,388(a4)
     7d4:	06000693          	li	a3,96
     7d8:	801407b7          	lui	a5,0x80140
     7dc:	18d70123          	sb	a3,386(a4)
     7e0:	18278703          	lb	a4,386(a5) # 80140182 <_DATA_LMA_START+0x6013ac6a>
     7e4:	fe777e5b          	bbs	a4,7,7e0 <analog_write_reg8+0x28>
     7e8:	18078123          	sb	zero,386(a5)
     7ec:	00060663          	beqz	a2,7f8 <analog_write_reg8+0x40>
     7f0:	30062673          	csrrs	a2,mstatus,a2
     7f4:	0ff0000f          	fence
     7f8:	00008067          	ret

000007fc <analog_read_reg8>:
     7fc:	300026f3          	csrr	a3,mstatus
     800:	8aa1                	c.andi	a3,8
     802:	c689                	c.beqz	a3,80c <analog_read_reg8+0x10>
     804:	300477f3          	csrrci	a5,mstatus,8
     808:	0ff0000f          	fence
     80c:	801407b7          	lui	a5,0x80140
     810:	18a78023          	sb	a0,384(a5) # 80140180 <_DATA_LMA_START+0x6013ac68>
     814:	00100713          	li	a4,1
     818:	18e781a3          	sb	a4,387(a5)
     81c:	04000613          	li	a2,64
     820:	80140737          	lui	a4,0x80140
     824:	18c78123          	sb	a2,386(a5)
     828:	18270783          	lb	a5,386(a4) # 80140182 <_DATA_LMA_START+0x6013ac6a>
     82c:	fe77fe5b          	bbs	a5,7,828 <analog_read_reg8+0x2c>
     830:	18470503          	lb	a0,388(a4)
     834:	0ff57513          	andi	a0,a0,255
     838:	00068663          	beqz	a3,844 <analog_read_reg8+0x48>
     83c:	3006a6f3          	csrrs	a3,mstatus,a3
     840:	0ff0000f          	fence
     844:	00008067          	ret

00000848 <clock_init_ram.constprop.11>:
     848:	1141                	c.addi	sp,-16
     84a:	80140737          	lui	a4,0x80140
     84e:	c606                	c.swsp	ra,12(sp)
     850:	c422                	c.swsp	s0,8(sp)
     852:	c226                	c.swsp	s1,4(sp)
     854:	10270783          	lb	a5,258(a4) # 80140102 <_DATA_LMA_START+0x6013abea>
     858:	fe07fe5b          	bbs	a5,0,854 <clock_init_ram.constprop.11+0xc>
     85c:	10170783          	lb	a5,257(a4)
     860:	801404b7          	lui	s1,0x80140
     864:	0ff7f793          	andi	a5,a5,255
     868:	0107e793          	ori	a5,a5,16
     86c:	10f700a3          	sb	a5,257(a4)
     870:	32848783          	lb	a5,808(s1) # 80140328 <_DATA_LMA_START+0x6013ae10>
     874:	be37fe5b          	bbc	a5,3,870 <clock_init_ram.constprop.11+0x28>
     878:	1e848783          	lb	a5,488(s1)
     87c:	08000513          	li	a0,128
     880:	8bbd                	c.andi	a5,15
     882:	1ef48423          	sb	a5,488(s1)
     886:	3f9d                	c.jal	7fc <analog_read_reg8>
     888:	0e057593          	andi	a1,a0,224
     88c:	0105e593          	ori	a1,a1,16
     890:	08000513          	li	a0,128
     894:	f25ff0ef          	jal	ra,7b8 <analog_write_reg8>
     898:	00900513          	li	a0,9
     89c:	f61ff0ef          	jal	ra,7fc <analog_read_reg8>
     8a0:	0f357593          	andi	a1,a0,243
     8a4:	0085e593          	ori	a1,a1,8
     8a8:	4525                	c.li	a0,9
     8aa:	3739                	c.jal	7b8 <analog_write_reg8>
     8ac:	0c000793          	li	a5,192
     8b0:	7f19140b          	addigp	s0,86000 # 957f0 <sys_clk>
     8b4:	00f41023          	sh	a5,0(s0)
     8b8:	08100513          	li	a0,129
     8bc:	4791                	c.li	a5,4
     8be:	1ef48da3          	sb	a5,507(s1)
     8c2:	3f2d                	c.jal	7fc <analog_read_reg8>
     8c4:	04056593          	ori	a1,a0,64
     8c8:	0ff5f593          	andi	a1,a1,255
     8cc:	08100513          	li	a0,129
     8d0:	ee9ff0ef          	jal	ra,7b8 <analog_write_reg8>
     8d4:	08800513          	li	a0,136
     8d8:	f25ff0ef          	jal	ra,7fc <analog_read_reg8>
     8dc:	be557c5b          	bbc	a0,5,8d4 <clock_init_ram.constprop.11+0x8c>
     8e0:	08100513          	li	a0,129
     8e4:	f19ff0ef          	jal	ra,7fc <analog_read_reg8>
     8e8:	0bf57593          	andi	a1,a0,191
     8ec:	08100513          	li	a0,129
     8f0:	ec9ff0ef          	jal	ra,7b8 <analog_write_reg8>
     8f4:	801407b7          	lui	a5,0x80140
     8f8:	1e978703          	lb	a4,489(a5) # 801401e9 <_DATA_LMA_START+0x6013acd1>
     8fc:	8b3d                	c.andi	a4,15
     8fe:	04076713          	ori	a4,a4,64
     902:	1ee784a3          	sb	a4,489(a5)
     906:	1e878703          	lb	a4,488(a5)
     90a:	f8076713          	ori	a4,a4,-128
     90e:	0ff77713          	andi	a4,a4,255
     912:	1ee78423          	sb	a4,488(a5)
     916:	1e878703          	lb	a4,488(a5)
     91a:	f8076713          	ori	a4,a4,-128
     91e:	0ff77713          	andi	a4,a4,255
     922:	1ee78423          	sb	a4,488(a5)
     926:	1d878703          	lb	a4,472(a5)
     92a:	00045683          	lhu	a3,0(s0)
     92e:	0fb77713          	andi	a4,a4,251
     932:	1ce78c23          	sb	a4,472(a5)
     936:	1d878703          	lb	a4,472(a5)
     93a:	8689                	c.srai	a3,0x2
     93c:	00d402a3          	sb	a3,5(s0)
     940:	0fc77713          	andi	a4,a4,252
     944:	1ce78c23          	sb	a4,472(a5)
     948:	1e878703          	lb	a4,488(a5)
     94c:	0f077713          	andi	a4,a4,240
     950:	00876713          	ori	a4,a4,8
     954:	1ee78423          	sb	a4,488(a5)
     958:	1e878703          	lb	a4,488(a5)
     95c:	00045683          	lhu	a3,0(s0)
     960:	08f77713          	andi	a4,a4,143
     964:	868d                	c.srai	a3,0x3
     966:	00d40123          	sb	a3,2(s0)
     96a:	02076713          	ori	a4,a4,32
     96e:	1ee78423          	sb	a4,488(a5)
     972:	0ff6f693          	andi	a3,a3,255
     976:	00d401a3          	sb	a3,3(s0)
     97a:	00d40223          	sb	a3,4(s0)
     97e:	40b2                	c.lwsp	ra,12(sp)
     980:	4422                	c.lwsp	s0,8(sp)
     982:	4492                	c.lwsp	s1,4(sp)
     984:	0141                	c.addi	sp,16
     986:	8082                	c.jr	ra

00000988 <pm_wait_bbpll_done>:
     988:	1101                	c.addi	sp,-32
     98a:	08100513          	li	a0,129
     98e:	cc22                	c.swsp	s0,24(sp)
     990:	ca26                	c.swsp	s1,20(sp)
     992:	c84a                	c.swsp	s2,16(sp)
     994:	ce06                	c.swsp	ra,28(sp)
     996:	359d                	c.jal	7fc <analog_read_reg8>
     998:	04056593          	ori	a1,a0,64
     99c:	892a                	c.mv	s2,a0
     99e:	0ff5f593          	andi	a1,a1,255
     9a2:	08100513          	li	a0,129
     9a6:	0bf97913          	andi	s2,s2,191
     9aa:	4481                	c.li	s1,0
     9ac:	4475                	c.li	s0,29
     9ae:	3529                	c.jal	7b8 <analog_write_reg8>
     9b0:	000107a3          	sb	zero,15(sp)
     9b4:	00f10783          	lb	a5,15(sp)
     9b8:	0ff7f793          	andi	a5,a5,255
     9bc:	02f46063          	bltu	s0,a5,9dc <pm_wait_bbpll_done+0x54>
     9c0:	0001                	c.nop
     9c2:	00f10783          	lb	a5,15(sp)
     9c6:	0785                	c.addi	a5,1
     9c8:	0ff7f793          	andi	a5,a5,255
     9cc:	00f107a3          	sb	a5,15(sp)
     9d0:	00f10783          	lb	a5,15(sp)
     9d4:	0ff7f793          	andi	a5,a5,255
     9d8:	fef474e3          	bgeu	s0,a5,9c0 <pm_wait_bbpll_done+0x38>
     9dc:	08800513          	li	a0,136
     9e0:	e1dff0ef          	jal	ra,7fc <analog_read_reg8>
     9e4:	4255765b          	bbs	a0,5,a10 <pm_wait_bbpll_done+0x88>
     9e8:	cc95                	c.beqz	s1,a24 <pm_wait_bbpll_done+0x9c>
     9ea:	0414d35b          	beqc	s1,1,a30 <pm_wait_bbpll_done+0xa8>
     9ee:	85ca                	c.mv	a1,s2
     9f0:	08100513          	li	a0,129
     9f4:	dc5ff0ef          	jal	ra,7b8 <analog_write_reg8>
     9f8:	0024d65b          	beqc	s1,2,a04 <pm_wait_bbpll_done+0x7c>
     9fc:	0485                	c.addi	s1,1
     9fe:	0ff4f493          	andi	s1,s1,255
     a02:	b77d                	c.j	9b0 <pm_wait_bbpll_done+0x28>
     a04:	40f2                	c.lwsp	ra,28(sp)
     a06:	4462                	c.lwsp	s0,24(sp)
     a08:	44d2                	c.lwsp	s1,20(sp)
     a0a:	4942                	c.lwsp	s2,16(sp)
     a0c:	6105                	c.addi16sp	sp,32
     a0e:	8082                	c.jr	ra
     a10:	4462                	c.lwsp	s0,24(sp)
     a12:	40f2                	c.lwsp	ra,28(sp)
     a14:	44d2                	c.lwsp	s1,20(sp)
     a16:	85ca                	c.mv	a1,s2
     a18:	4942                	c.lwsp	s2,16(sp)
     a1a:	08100513          	li	a0,129
     a1e:	6105                	c.addi16sp	sp,32
     a20:	d99ff06f          	j	7b8 <analog_write_reg8>
     a24:	04600593          	li	a1,70
     a28:	4505                	c.li	a0,1
     a2a:	3379                	c.jal	7b8 <analog_write_reg8>
     a2c:	fd1ff06f          	j	9fc <pm_wait_bbpll_done+0x74>
     a30:	04300593          	li	a1,67
     a34:	4505                	c.li	a0,1
     a36:	3349                	c.jal	7b8 <analog_write_reg8>
     a38:	fc5ff06f          	j	9fc <pm_wait_bbpll_done+0x74>

00000a3c <pm_sleep_start>:
     a3c:	1101                	c.addi	sp,-32
     a3e:	014b272b          	lwgp	a4,86036 # 95814 <g_chip_version>
     a42:	000006b7          	lui	a3,0x0
     a46:	ce06                	c.swsp	ra,28(sp)
     a48:	cc22                	c.swsp	s0,24(sp)
     a4a:	ca26                	c.swsp	s1,20(sp)
     a4c:	0ff00793          	li	a5,255
     a50:	19a6c583          	lbu	a1,410(a3) # 19a <g_pm_suspend_power_cfg>
     a54:	00f71a63          	bne	a4,a5,a68 <pm_sleep_start+0x2c>
     a58:	0fe5f593          	andi	a1,a1,254
     a5c:	07d00513          	li	a0,125
     a60:	d59ff0ef          	jal	ra,7b8 <analog_write_reg8>
     a64:	00c0006f          	j	a70 <pm_sleep_start+0x34>
     a68:	07d00513          	li	a0,125
     a6c:	d4dff0ef          	jal	ra,7b8 <analog_write_reg8>
     a70:	801406b7          	lui	a3,0x80140
     a74:	10268783          	lb	a5,258(a3) # 80140102 <_DATA_LMA_START+0x6013abea>
     a78:	fe07fe5b          	bbs	a5,0,a74 <pm_sleep_start+0x38>
     a7c:	10168703          	lb	a4,257(a3)
     a80:	801407b7          	lui	a5,0x80140
     a84:	0ff77713          	andi	a4,a4,255
     a88:	01076713          	ori	a4,a4,16
     a8c:	10e680a3          	sb	a4,257(a3)
     a90:	32878703          	lb	a4,808(a5) # 80140328 <_DATA_LMA_START+0x6013ae10>
     a94:	be377e5b          	bbc	a4,3,a90 <pm_sleep_start+0x54>
     a98:	10178703          	lb	a4,257(a5)
     a9c:	80140437          	lui	s0,0x80140
     aa0:	0fd77713          	andi	a4,a4,253
     aa4:	10e780a3          	sb	a4,257(a5)
     aa8:	10178703          	lb	a4,257(a5)
     aac:	0ef77713          	andi	a4,a4,239
     ab0:	10e780a3          	sb	a4,257(a5)
     ab4:	fb900713          	li	a4,-71
     ab8:	10e78023          	sb	a4,256(a5)
     abc:	10240783          	lb	a5,258(s0) # 80140102 <_DATA_LMA_START+0x6013abea>
     ac0:	fe07fe5b          	bbs	a5,0,abc <pm_sleep_start+0x80>
     ac4:	10140783          	lb	a5,257(s0)
     ac8:	452d                	c.li	a0,11
     aca:	0ff7f793          	andi	a5,a5,255
     ace:	0107e793          	ori	a5,a5,16
     ad2:	10f400a3          	sb	a5,257(s0)
     ad6:	320404a3          	sb	zero,809(s0)
     ada:	330d                	c.jal	7fc <analog_read_reg8>
     adc:	0fc57593          	andi	a1,a0,252
     ae0:	452d                	c.li	a0,11
     ae2:	39d9                	c.jal	7b8 <analog_write_reg8>
     ae4:	08100513          	li	a0,129
     ae8:	d15ff0ef          	jal	ra,7fc <analog_read_reg8>
     aec:	f8056593          	ori	a1,a0,-128
     af0:	0ff5f593          	andi	a1,a1,255
     af4:	08100513          	li	a0,129
     af8:	cc1ff0ef          	jal	ra,7b8 <analog_write_reg8>
     afc:	f8000793          	li	a5,-128
     b00:	1ef407a3          	sb	a5,495(s0)
     b04:	03f00493          	li	s1,63
     b08:	00012423          	sw	zero,8(sp)
     b0c:	47a2                	c.lwsp	a5,8(sp)
     b0e:	00f4e763          	bltu	s1,a5,b1c <pm_sleep_start+0xe0>
     b12:	0001                	c.nop
     b14:	47a2                	c.lwsp	a5,8(sp)
     b16:	0785                	c.addi	a5,1
     b18:	c43e                	c.swsp	a5,8(sp)
     b1a:	bfcd                	c.j	b0c <pm_sleep_start+0xd0>
     b1c:	08100513          	li	a0,129
     b20:	cddff0ef          	jal	ra,7fc <analog_read_reg8>
     b24:	07f57593          	andi	a1,a0,127
     b28:	08100513          	li	a0,129
     b2c:	c8dff0ef          	jal	ra,7b8 <analog_write_reg8>
     b30:	00b00513          	li	a0,11
     b34:	cc9ff0ef          	jal	ra,7fc <analog_read_reg8>
     b38:	00356593          	ori	a1,a0,3
     b3c:	0ff5f593          	andi	a1,a1,255
     b40:	452d                	c.li	a0,11
     b42:	399d                	c.jal	7b8 <analog_write_reg8>
     b44:	08000593          	li	a1,128
     b48:	07d00513          	li	a0,125
     b4c:	c6dff0ef          	jal	ra,7b8 <analog_write_reg8>
     b50:	801407b7          	lui	a5,0x80140
     b54:	329784a3          	sb	s1,809(a5) # 80140329 <_DATA_LMA_START+0x6013ae11>
     b58:	10178683          	lb	a3,257(a5)
     b5c:	80140737          	lui	a4,0x80140
     b60:	0ef6f693          	andi	a3,a3,239
     b64:	10d780a3          	sb	a3,257(a5)
     b68:	fab00693          	li	a3,-85
     b6c:	10d78023          	sb	a3,256(a5)
     b70:	10270783          	lb	a5,258(a4) # 80140102 <_DATA_LMA_START+0x6013abea>
     b74:	fe07fe5b          	bbs	a5,0,b70 <pm_sleep_start+0x134>
     b78:	10170783          	lb	a5,257(a4)
     b7c:	12b00693          	li	a3,299
     b80:	0ff7f793          	andi	a5,a5,255
     b84:	0107e793          	ori	a5,a5,16
     b88:	10f700a3          	sb	a5,257(a4)
     b8c:	00012623          	sw	zero,12(sp)
     b90:	47b2                	c.lwsp	a5,12(sp)
     b92:	00f6e763          	bltu	a3,a5,ba0 <pm_sleep_start+0x164>
     b96:	0001                	c.nop
     b98:	47b2                	c.lwsp	a5,12(sp)
     b9a:	0785                	c.addi	a5,1
     b9c:	c63e                	c.swsp	a5,12(sp)
     b9e:	bfcd                	c.j	b90 <pm_sleep_start+0x154>
     ba0:	08800513          	li	a0,136
     ba4:	c59ff0ef          	jal	ra,7fc <analog_read_reg8>
     ba8:	be757c5b          	bbc	a0,7,ba0 <pm_sleep_start+0x164>
     bac:	08800513          	li	a0,136
     bb0:	c4dff0ef          	jal	ra,7fc <analog_read_reg8>
     bb4:	be757c5b          	bbc	a0,7,bac <pm_sleep_start+0x170>
     bb8:	08800513          	li	a0,136
     bbc:	c41ff0ef          	jal	ra,7fc <analog_read_reg8>
     bc0:	be757c5b          	bbc	a0,7,bb8 <pm_sleep_start+0x17c>
     bc4:	4462                	c.lwsp	s0,24(sp)
     bc6:	40f2                	c.lwsp	ra,28(sp)
     bc8:	44d2                	c.lwsp	s1,20(sp)
     bca:	6105                	c.addi16sp	sp,32
     bcc:	dbdff06f          	j	988 <pm_wait_bbpll_done>

00000bd0 <pm_sleep_wakeup_ram.constprop.3>:
     bd0:	1101                	c.addi	sp,-32
     bd2:	c452                	c.swsp	s4,8(sp)
     bd4:	8a2a                	c.mv	s4,a0
     bd6:	ce06                	c.swsp	ra,28(sp)
     bd8:	cc22                	c.swsp	s0,24(sp)
     bda:	ca26                	c.swsp	s1,20(sp)
     bdc:	c84a                	c.swsp	s2,16(sp)
     bde:	c64e                	c.swsp	s3,12(sp)
     be0:	c256                	c.swsp	s5,4(sp)
     be2:	c05a                	c.swsp	s6,0(sp)
     be4:	300029f3          	csrr	s3,mstatus
     be8:	0089f993          	andi	s3,s3,8
     bec:	00098663          	beqz	s3,bf8 <pm_sleep_wakeup_ram.constprop.3+0x28>
     bf0:	300477f3          	csrrci	a5,mstatus,8
     bf4:	0ff0000f          	fence
     bf8:	801407b7          	lui	a5,0x80140
     bfc:	2147a683          	lw	a3,532(a5) # 80140214 <_DATA_LMA_START+0x6013acfc>
     c00:	def5                	c.beqz	a3,bfc <pm_sleep_wakeup_ram.constprop.3+0x2c>
     c02:	00000437          	lui	s0,0x0
     c06:	15840693          	addi	a3,s0,344 # 158 <_AES_VMA_END>
     c0a:	2147a783          	lw	a5,532(a5)
     c0e:	5298                	c.lw	a4,32(a3)
     c10:	da9c                	c.sw	a5,48(a3)
     c12:	15840413          	addi	s0,s0,344
     c16:	0792                	c.slli	a5,0x4
     c18:	cb11                	c.beqz	a4,c2c <pm_sleep_wakeup_ram.constprop.3+0x5c>
     c1a:	03444603          	lbu	a2,52(s0)
     c1e:	4691                	c.li	a3,4
     c20:	8f99                	c.sub	a5,a4
     c22:	8e91                	c.sub	a3,a2
     c24:	40d7d7b3          	sra	a5,a5,a3
     c28:	00e787b3          	add	a5,a5,a4
     c2c:	d01c                	c.sw	a5,32(s0)
     c2e:	5004                	c.lw	s1,32(s0)
     c30:	485c                	c.lw	a5,20(s0)
     c32:	8491                	c.srai	s1,0x4
     c34:	02f487b3          	mul	a5,s1,a5
     c38:	80140937          	lui	s2,0x80140
     c3c:	20092a83          	lw	s5,512(s2) # 80140200 <_DATA_LMA_START+0x6013ace8>
     c40:	e0000737          	lui	a4,0xe0000
     c44:	415a0ab3          	sub	s5,s4,s5
     c48:	87c9                	c.srai	a5,0x12
     c4a:	94be                	c.add	s1,a5
     c4c:	0486                	c.slli	s1,0x1
     c4e:	dc04                	c.sw	s1,56(s0)
     c50:	03577063          	bgeu	a4,s5,c70 <pm_sleep_wakeup_ram.constprop.3+0xa0>
     c54:	00098663          	beqz	s3,c60 <pm_sleep_wakeup_ram.constprop.3+0x90>
     c58:	3009a9f3          	csrrs	s3,mstatus,s3
     c5c:	0ff0000f          	fence
     c60:	06400513          	li	a0,100
     c64:	b99ff0ef          	jal	ra,7fc <analog_read_reg8>
     c68:	01f57513          	andi	a0,a0,31
     c6c:	2580006f          	j	ec4 <pm_sleep_wakeup_ram.constprop.3+0x2f4>
     c70:	04a41783          	lh	a5,74(s0)
     c74:	1137a7db          	bfoz	a5,a5,4,19
     c78:	02fafe63          	bgeu	s5,a5,cb4 <pm_sleep_wakeup_ram.constprop.3+0xe4>
     c7c:	45fd                	c.li	a1,31
     c7e:	06400513          	li	a0,100
     c82:	801404b7          	lui	s1,0x80140
     c86:	20092403          	lw	s0,512(s2)
     c8a:	363d                	c.jal	7b8 <analog_write_reg8>
     c8c:	06400513          	li	a0,100
     c90:	b6dff0ef          	jal	ra,7fc <analog_read_reg8>
     c94:	2004a783          	lw	a5,512(s1) # 80140200 <_DATA_LMA_START+0x6013ace8>
     c98:	897d                	c.andi	a0,31
     c9a:	8f81                	c.sub	a5,s0
     c9c:	0157f463          	bgeu	a5,s5,ca4 <pm_sleep_wakeup_ram.constprop.3+0xd4>
     ca0:	fe0506e3          	beqz	a0,c8c <pm_sleep_wakeup_ram.constprop.3+0xbc>
     ca4:	22098063          	beqz	s3,ec4 <pm_sleep_wakeup_ram.constprop.3+0x2f4>
     ca8:	3009a9f3          	csrrs	s3,mstatus,s3
     cac:	0ff0000f          	fence
     cb0:	2140006f          	j	ec4 <pm_sleep_wakeup_ram.constprop.3+0x2f4>
     cb4:	1e890a83          	lb	s5,488(s2)
     cb8:	00faf793          	andi	a5,s5,15
     cbc:	1ef90423          	sb	a5,488(s2)
     cc0:	1d890b03          	lb	s6,472(s2)
     cc4:	0f8b7793          	andi	a5,s6,248
     cc8:	1cf90c23          	sb	a5,472(s2)
     ccc:	00100793          	li	a5,1
     cd0:	20f90c23          	sb	a5,536(s2)
     cd4:	20a90783          	lb	a5,522(s2)
     cd8:	0f77f793          	andi	a5,a5,247
     cdc:	20f90523          	sb	a5,522(s2)
     ce0:	e9cff0ef          	jal	ra,37c <clock_get_32k_tick>
     ce4:	20092703          	lw	a4,512(s2)
     ce8:	20b90783          	lb	a5,523(s2)
     cec:	5414                	c.lw	a3,40(s0)
     cee:	0ff7f793          	andi	a5,a5,255
     cf2:	0027e793          	ori	a5,a5,2
     cf6:	c468                	c.sw	a0,76(s0)
     cf8:	c418                	c.sw	a4,8(s0)
     cfa:	03444603          	lbu	a2,52(s0)
     cfe:	40d506b3          	sub	a3,a0,a3
     d02:	20f905a3          	sb	a5,523(s2)
     d06:	d454                	c.sw	a3,44(s0)
     d08:	e215                	c.bnez	a2,d2c <pm_sleep_wakeup_ram.constprop.3+0x15c>
     d0a:	445c                	c.lw	a5,12(s0)
     d0c:	c385                	c.beqz	a5,d2c <pm_sleep_wakeup_ram.constprop.3+0x15c>
     d0e:	05044783          	lbu	a5,80(s0)
     d12:	ef89                	c.bnez	a5,d2c <pm_sleep_wakeup_ram.constprop.3+0x15c>
     d14:	01042783          	lw	a5,16(s0)
     d18:	000276b7          	lui	a3,0x27
     d1c:	40f507b3          	sub	a5,a0,a5
     d20:	6c07a7db          	bfoz	a5,a5,27,0
     d24:	10068693          	addi	a3,a3,256 # 27100 <BIN_SIZE+0xc3c6>
     d28:	00f6f863          	bgeu	a3,a5,d38 <pm_sleep_wakeup_ram.constprop.3+0x168>
     d2c:	00176713          	ori	a4,a4,1
     d30:	02040a23          	sb	zero,52(s0)
     d34:	c808                	c.sw	a0,16(s0)
     d36:	c458                	c.sw	a4,12(s0)
     d38:	02000593          	li	a1,32
     d3c:	04b00513          	li	a0,75
     d40:	a79ff0ef          	jal	ra,7b8 <analog_write_reg8>
     d44:	45fd                	c.li	a1,31
     d46:	06400513          	li	a0,100
     d4a:	34bd                	c.jal	7b8 <analog_write_reg8>
     d4c:	03000593          	li	a1,48
     d50:	07e00513          	li	a0,126
     d54:	a65ff0ef          	jal	ra,7b8 <analog_write_reg8>
     d58:	0f900593          	li	a1,249
     d5c:	04d00513          	li	a0,77
     d60:	a59ff0ef          	jal	ra,7b8 <analog_write_reg8>
     d64:	4585                	c.li	a1,1
     d66:	07f00513          	li	a0,127
     d6a:	34b9                	c.jal	7b8 <analog_write_reg8>
     d6c:	04841783          	lh	a5,72(s0)
     d70:	0ee00593          	li	a1,238
     d74:	1137a7db          	bfoz	a5,a5,4,19
     d78:	04c00513          	li	a0,76
     d7c:	40fa0933          	sub	s2,s4,a5
     d80:	a39ff0ef          	jal	ra,7b8 <analog_write_reg8>
     d84:	05441583          	lh	a1,84(s0)
     d88:	04000513          	li	a0,64
     d8c:	0ff5f593          	andi	a1,a1,255
     d90:	a29ff0ef          	jal	ra,7b8 <analog_write_reg8>
     d94:	445c                	c.lw	a5,12(s0)
     d96:	07ff0737          	lui	a4,0x7ff0
     d9a:	40f907b3          	sub	a5,s2,a5
     d9e:	00f77763          	bgeu	a4,a5,dac <pm_sleep_wakeup_ram.constprop.3+0x1dc>
     da2:	4705                	c.li	a4,1
     da4:	00e40223          	sb	a4,4(s0)
     da8:	0080006f          	j	db0 <pm_sleep_wakeup_ram.constprop.3+0x1e0>
     dac:	00040223          	sb	zero,4(s0)
     db0:	00444683          	lbu	a3,4(s0)
     db4:	4808                	c.lw	a0,16(s0)
     db6:	5c18                	c.lw	a4,56(s0)
     db8:	c691                	c.beqz	a3,dc4 <pm_sleep_wakeup_ram.constprop.3+0x1f4>
     dba:	02e7d7b3          	divu	a5,a5,a4
     dbe:	0796                	c.slli	a5,0x5
     dc0:	953e                	c.add	a0,a5
     dc2:	a039                	c.j	dd0 <pm_sleep_wakeup_ram.constprop.3+0x200>
     dc4:	8085                	c.srli	s1,0x1
     dc6:	0796                	c.slli	a5,0x5
     dc8:	97a6                	c.add	a5,s1
     dca:	02e7d7b3          	divu	a5,a5,a4
     dce:	953e                	c.add	a0,a5
     dd0:	d00ff0ef          	jal	ra,2d0 <clock_set_32k_tick>
     dd4:	06400513          	li	a0,100
     dd8:	a25ff0ef          	jal	ra,7fc <analog_read_reg8>
     ddc:	01f57513          	andi	a0,a0,31
     de0:	e511                	c.bnez	a0,dec <pm_sleep_wakeup_ram.constprop.3+0x21c>
     de2:	39a9                	c.jal	a3c <pm_sleep_start>
     de4:	4585                	c.li	a1,1
     de6:	07f00513          	li	a0,127
     dea:	32f9                	c.jal	7b8 <analog_write_reg8>
     dec:	80140737          	lui	a4,0x80140
     df0:	02000793          	li	a5,32
     df4:	1ef707a3          	sb	a5,495(a4) # 801401ef <_DATA_LMA_START+0x6013acd7>
     df8:	00200793          	li	a5,2
     dfc:	20f70c23          	sb	a5,536(a4)
     e00:	20a70783          	lb	a5,522(a4)
     e04:	0ff7f793          	andi	a5,a5,255
     e08:	00c7e793          	ori	a5,a5,12
     e0c:	20f70523          	sb	a5,522(a4)
     e10:	d6cff0ef          	jal	ra,37c <clock_get_32k_tick>
     e14:	00444783          	lbu	a5,4(s0)
     e18:	cf81                	c.beqz	a5,e30 <pm_sleep_wakeup_ram.constprop.3+0x260>
     e1a:	481c                	c.lw	a5,16(s0)
     e1c:	5c14                	c.lw	a3,56(s0)
     e1e:	40f507b3          	sub	a5,a0,a5
     e22:	4458                	c.lw	a4,12(s0)
     e24:	0785                	c.addi	a5,1
     e26:	8395                	c.srli	a5,0x5
     e28:	c4d7977f          	maddr32	a4,a5,a3
     e2c:	c418                	c.sw	a4,8(s0)
     e2e:	a829                	c.j	e48 <pm_sleep_wakeup_ram.constprop.3+0x278>
     e30:	481c                	c.lw	a5,16(s0)
     e32:	5c18                	c.lw	a4,56(s0)
     e34:	40f507b3          	sub	a5,a0,a5
     e38:	0785                	c.addi	a5,1
     e3a:	02e787b3          	mul	a5,a5,a4
     e3e:	4458                	c.lw	a4,12(s0)
     e40:	8395                	c.srli	a5,0x5
     e42:	97ba                	c.add	a5,a4
     e44:	00f42423          	sw	a5,8(s0)
     e48:	481c                	c.lw	a5,16(s0)
     e4a:	4414                	c.lw	a3,8(s0)
     e4c:	40f507b3          	sub	a5,a0,a5
     e50:	0785                	c.addi	a5,1
     e52:	0505                	c.addi	a0,1
     e54:	d05c                	c.sw	a5,36(s0)
     e56:	0685                	c.addi	a3,1
     e58:	02a42423          	sw	a0,40(s0)
     e5c:	801407b7          	lui	a5,0x80140
     e60:	80140737          	lui	a4,0x80140
     e64:	20d7a023          	sw	a3,512(a5) # 80140200 <_DATA_LMA_START+0x6013ace8>
     e68:	20b70783          	lb	a5,523(a4) # 8014020b <_DATA_LMA_START+0x6013acf3>
     e6c:	be77fe5b          	bbc	a5,7,e68 <pm_sleep_wakeup_ram.constprop.3+0x298>
     e70:	20070c23          	sb	zero,536(a4)
     e74:	1d670c23          	sb	s6,472(a4)
     e78:	06400513          	li	a0,100
     e7c:	1f570423          	sb	s5,488(a4)
     e80:	97dff0ef          	jal	ra,7fc <analog_read_reg8>
     e84:	018b170b          	addigp	a4,86040 # 95818 <g_pm_status_info>
     e88:	00a700a3          	sb	a0,1(a4)
     e8c:	018b178b          	addigp	a5,86040 # 95818 <g_pm_status_info>
     e90:	00157c5b          	bbc	a0,1,ea8 <pm_sleep_wakeup_ram.constprop.3+0x2d8>
     e94:	80140637          	lui	a2,0x80140
     e98:	400006b7          	lui	a3,0x40000
     e9c:	20062703          	lw	a4,512(a2) # 80140200 <_DATA_LMA_START+0x6013ace8>
     ea0:	41470733          	sub	a4,a4,s4
     ea4:	fee6ece3          	bltu	a3,a4,e9c <pm_sleep_wakeup_ram.constprop.3+0x2cc>
     ea8:	00098663          	beqz	s3,eb4 <pm_sleep_wakeup_ram.constprop.3+0x2e4>
     eac:	3009a9f3          	csrrs	s3,mstatus,s3
     eb0:	0ff0000f          	fence
     eb4:	0017c783          	lbu	a5,1(a5)
     eb8:	10000513          	li	a0,256
     ebc:	c781                	c.beqz	a5,ec4 <pm_sleep_wakeup_ram.constprop.3+0x2f4>
     ebe:	40000537          	lui	a0,0x40000
     ec2:	8d5d                	c.or	a0,a5
     ec4:	40f2                	c.lwsp	ra,28(sp)
     ec6:	4462                	c.lwsp	s0,24(sp)
     ec8:	44d2                	c.lwsp	s1,20(sp)
     eca:	4942                	c.lwsp	s2,16(sp)
     ecc:	49b2                	c.lwsp	s3,12(sp)
     ece:	4a22                	c.lwsp	s4,8(sp)
     ed0:	4a92                	c.lwsp	s5,4(sp)
     ed2:	4b02                	c.lwsp	s6,0(sp)
     ed4:	6105                	c.addi16sp	sp,32
     ed6:	8082                	c.jr	ra

00000ed8 <trap_entry>:
     ed8:	1101                	c.addi	sp,-32
     eda:	ce2a                	c.swsp	a0,28(sp)
     edc:	cc2e                	c.swsp	a1,24(sp)
     ede:	ca32                	c.swsp	a2,20(sp)
     ee0:	c836                	c.swsp	a3,16(sp)
     ee2:	c63a                	c.swsp	a4,12(sp)
     ee4:	c43e                	c.swsp	a5,8(sp)
     ee6:	34202773          	csrr	a4,mcause
     eea:	000007b7          	lui	a5,0x0
     eee:	15878793          	addi	a5,a5,344 # 158 <_AES_VMA_END>
     ef2:	03c78683          	lb	a3,60(a5)
     ef6:	0ff6f693          	andi	a3,a3,255
     efa:	c2dd                	c.beqz	a3,fa0 <trap_entry+0xc8>
     efc:	34102673          	csrr	a2,mepc
     f00:	300025f3          	csrr	a1,mstatus
     f04:	7c4026f3          	csrr	a3,mxstatus
     f08:	02074a63          	bltz	a4,f3c <trap_entry+0x64>
     f0c:	34302773          	csrr	a4,mtval
     f10:	00eb482b          	swgp	a4,86032 # 95810 <exception_mtval>
     f14:	34102773          	csrr	a4,mepc
     f18:	00eb442b          	swgp	a4,86024 # 95808 <exception_mepc>
     f1c:	30002773          	csrr	a4,mstatus
     f20:	00eb462b          	swgp	a4,86028 # 9580c <exception_mstatus>
     f24:	34202773          	csrr	a4,mcause
     f28:	00eb402b          	swgp	a4,86016 # 95800 <_DATA_VMA_END>
     f2c:	7c902773          	csrr	a4,mdcause
     f30:	00eb422b          	swgp	a4,86020 # 95804 <exception_mdcause>
     f34:	0001                	c.nop
     f36:	0001                	c.nop
     f38:	ffdff06f          	j	f34 <trap_entry+0x5c>
     f3c:	7807275b          	bfoz	a4,a4,30,0
     f40:	0677545b          	beqc	a4,7,fa8 <trap_entry+0xd0>
     f44:	bc37645b          	bnec	a4,3,f0c <trap_entry+0x34>
     f48:	e6600737          	lui	a4,0xe6600
     f4c:	4358                	c.lw	a4,4(a4)
     f4e:	03c78703          	lb	a4,60(a5)
     f52:	0ff77713          	andi	a4,a4,255
     f56:	c319                	c.beqz	a4,f5c <trap_entry+0x84>
     f58:	30046773          	csrrsi	a4,mstatus,8
     f5c:	03c78703          	lb	a4,60(a5)
     f60:	0ff77713          	andi	a4,a4,255
     f64:	00070463          	beqz	a4,f6c <trap_entry+0x94>
     f68:	30047773          	csrrci	a4,mstatus,8
     f6c:	e6600737          	lui	a4,0xe6600
     f70:	4505                	c.li	a0,1
     f72:	c348                	c.sw	a0,4(a4)
     f74:	03c78783          	lb	a5,60(a5)
     f78:	0ff7f793          	andi	a5,a5,255
     f7c:	00078863          	beqz	a5,f8c <trap_entry+0xb4>
     f80:	30059073          	csrw	mstatus,a1
     f84:	34161073          	csrw	mepc,a2
     f88:	7c469073          	csrw	mxstatus,a3
     f8c:	4572                	c.lwsp	a0,28(sp)
     f8e:	45e2                	c.lwsp	a1,24(sp)
     f90:	4652                	c.lwsp	a2,20(sp)
     f92:	46c2                	c.lwsp	a3,16(sp)
     f94:	4732                	c.lwsp	a4,12(sp)
     f96:	47a2                	c.lwsp	a5,8(sp)
     f98:	02010113          	addi	sp,sp,32
     f9c:	30200073          	mret
     fa0:	4681                	c.li	a3,0
     fa2:	4581                	c.li	a1,0
     fa4:	4601                	c.li	a2,0
     fa6:	b78d                	c.j	f08 <trap_entry+0x30>
     fa8:	03c78703          	lb	a4,60(a5)
     fac:	0ff77713          	andi	a4,a4,255
     fb0:	00070863          	beqz	a4,fc0 <trap_entry+0xe8>
     fb4:	08000713          	li	a4,128
     fb8:	30473773          	csrrc	a4,mie,a4
     fbc:	30046773          	csrrsi	a4,mstatus,8
     fc0:	03c78703          	lb	a4,60(a5)
     fc4:	0ff77713          	andi	a4,a4,255
     fc8:	d755                	c.beqz	a4,f74 <trap_entry+0x9c>
     fca:	30047773          	csrrci	a4,mstatus,8
     fce:	08000713          	li	a4,128
     fd2:	30472773          	csrrs	a4,mie,a4
     fd6:	bf79                	c.j	f74 <trap_entry+0x9c>
     fd8:	0001                	c.nop
	...

00001000 <__vectors>:
    1000:	0ed8                	c.addi4spn	a4,sp,852
    1002:	0000                	unimp
    1004:	1c30                	c.addi4spn	a2,sp,568
    1006:	0000                	unimp
    1008:	1c30                	c.addi4spn	a2,sp,568
    100a:	0000                	unimp
    100c:	1c30                	c.addi4spn	a2,sp,568
    100e:	0000                	unimp
    1010:	1c30                	c.addi4spn	a2,sp,568
    1012:	0000                	unimp
    1014:	1c30                	c.addi4spn	a2,sp,568
    1016:	0000                	unimp
    1018:	1c30                	c.addi4spn	a2,sp,568
    101a:	0000                	unimp
    101c:	1c30                	c.addi4spn	a2,sp,568
    101e:	0000                	unimp
    1020:	1c30                	c.addi4spn	a2,sp,568
    1022:	0000                	unimp
    1024:	1c30                	c.addi4spn	a2,sp,568
    1026:	0000                	unimp
    1028:	1c30                	c.addi4spn	a2,sp,568
    102a:	0000                	unimp
    102c:	1c30                	c.addi4spn	a2,sp,568
    102e:	0000                	unimp
    1030:	1c30                	c.addi4spn	a2,sp,568
    1032:	0000                	unimp
    1034:	1c30                	c.addi4spn	a2,sp,568
    1036:	0000                	unimp
    1038:	1c30                	c.addi4spn	a2,sp,568
    103a:	0000                	unimp
    103c:	1c30                	c.addi4spn	a2,sp,568
    103e:	0000                	unimp
    1040:	1c30                	c.addi4spn	a2,sp,568
    1042:	0000                	unimp
    1044:	1c30                	c.addi4spn	a2,sp,568
    1046:	0000                	unimp
    1048:	1c30                	c.addi4spn	a2,sp,568
    104a:	0000                	unimp
    104c:	1c30                	c.addi4spn	a2,sp,568
    104e:	0000                	unimp
    1050:	1c30                	c.addi4spn	a2,sp,568
    1052:	0000                	unimp
    1054:	1c30                	c.addi4spn	a2,sp,568
    1056:	0000                	unimp
    1058:	1c30                	c.addi4spn	a2,sp,568
    105a:	0000                	unimp
    105c:	1c30                	c.addi4spn	a2,sp,568
    105e:	0000                	unimp
    1060:	1c30                	c.addi4spn	a2,sp,568
    1062:	0000                	unimp
    1064:	1c30                	c.addi4spn	a2,sp,568
    1066:	0000                	unimp
    1068:	1c30                	c.addi4spn	a2,sp,568
    106a:	0000                	unimp
    106c:	1c30                	c.addi4spn	a2,sp,568
    106e:	0000                	unimp
    1070:	1c30                	c.addi4spn	a2,sp,568
    1072:	0000                	unimp
    1074:	1c30                	c.addi4spn	a2,sp,568
    1076:	0000                	unimp
    1078:	1c30                	c.addi4spn	a2,sp,568
    107a:	0000                	unimp
    107c:	1c30                	c.addi4spn	a2,sp,568
    107e:	0000                	unimp
    1080:	1c30                	c.addi4spn	a2,sp,568
    1082:	0000                	unimp
    1084:	1c30                	c.addi4spn	a2,sp,568
    1086:	0000                	unimp
    1088:	1c30                	c.addi4spn	a2,sp,568
    108a:	0000                	unimp
    108c:	1c30                	c.addi4spn	a2,sp,568
    108e:	0000                	unimp
    1090:	1c30                	c.addi4spn	a2,sp,568
    1092:	0000                	unimp
    1094:	1c30                	c.addi4spn	a2,sp,568
    1096:	0000                	unimp
    1098:	1c30                	c.addi4spn	a2,sp,568
    109a:	0000                	unimp
    109c:	1c30                	c.addi4spn	a2,sp,568
    109e:	0000                	unimp
    10a0:	1c30                	c.addi4spn	a2,sp,568
    10a2:	0000                	unimp
    10a4:	1c30                	c.addi4spn	a2,sp,568
    10a6:	0000                	unimp
    10a8:	1c30                	c.addi4spn	a2,sp,568
    10aa:	0000                	unimp
    10ac:	1c30                	c.addi4spn	a2,sp,568
    10ae:	0000                	unimp
    10b0:	1c30                	c.addi4spn	a2,sp,568
    10b2:	0000                	unimp
    10b4:	1c30                	c.addi4spn	a2,sp,568
    10b6:	0000                	unimp
    10b8:	1c30                	c.addi4spn	a2,sp,568
    10ba:	0000                	unimp
    10bc:	1c30                	c.addi4spn	a2,sp,568
    10be:	0000                	unimp
    10c0:	1c30                	c.addi4spn	a2,sp,568
    10c2:	0000                	unimp
    10c4:	1c30                	c.addi4spn	a2,sp,568
    10c6:	0000                	unimp
    10c8:	1c30                	c.addi4spn	a2,sp,568
    10ca:	0000                	unimp
    10cc:	1c30                	c.addi4spn	a2,sp,568
    10ce:	0000                	unimp
    10d0:	1c30                	c.addi4spn	a2,sp,568
    10d2:	0000                	unimp
    10d4:	1c30                	c.addi4spn	a2,sp,568
    10d6:	0000                	unimp
    10d8:	1c30                	c.addi4spn	a2,sp,568
    10da:	0000                	unimp
    10dc:	1c30                	c.addi4spn	a2,sp,568
    10de:	0000                	unimp
    10e0:	1c30                	c.addi4spn	a2,sp,568
    10e2:	0000                	unimp
    10e4:	1c30                	c.addi4spn	a2,sp,568
    10e6:	0000                	unimp
    10e8:	1c30                	c.addi4spn	a2,sp,568
    10ea:	0000                	unimp
    10ec:	1c30                	c.addi4spn	a2,sp,568
    10ee:	0000                	unimp
    10f0:	1c30                	c.addi4spn	a2,sp,568
    10f2:	0000                	unimp
    10f4:	1c30                	c.addi4spn	a2,sp,568
    10f6:	0000                	unimp
    10f8:	1c30                	c.addi4spn	a2,sp,568
    10fa:	0000                	unimp
    10fc:	1c30                	c.addi4spn	a2,sp,568
    10fe:	0000                	unimp
    1100:	0001                	c.nop
	...

00001104 <flash_read_uid.constprop.6>:
    1104:	1141                	c.addi	sp,-16
    1106:	c606                	c.swsp	ra,12(sp)
    1108:	872a                	c.mv	a4,a0
    110a:	7d047073          	csrci	mmisc_ctl,8
    110e:	47c1                	c.li	a5,16
    1110:	4691                	c.li	a3,4
    1112:	4601                	c.li	a2,0
    1114:	00000593          	li	a1,0
    1118:	04b00513          	li	a0,75
    111c:	bd0ff0ef          	jal	ra,4ec <flash_mspi_read_ram>
    1120:	7d046073          	csrsi	mmisc_ctl,8
    1124:	40b2                	c.lwsp	ra,12(sp)
    1126:	0141                	c.addi	sp,16
    1128:	00008067          	ret

0000112c <flash_read_mid>:
    112c:	1101                	c.addi	sp,-32
    112e:	ce06                	c.swsp	ra,28(sp)
    1130:	c602                	c.swsp	zero,12(sp)
    1132:	7d047073          	csrci	mmisc_ctl,8
    1136:	478d                	c.li	a5,3
    1138:	0078                	c.addi4spn	a4,sp,12
    113a:	4681                	c.li	a3,0
    113c:	4601                	c.li	a2,0
    113e:	4581                	c.li	a1,0
    1140:	09f00513          	li	a0,159
    1144:	ba8ff0ef          	jal	ra,4ec <flash_mspi_read_ram>
    1148:	7d046073          	csrsi	mmisc_ctl,8
    114c:	40f2                	c.lwsp	ra,28(sp)
    114e:	4532                	c.lwsp	a0,12(sp)
    1150:	6105                	c.addi16sp	sp,32
    1152:	8082                	c.jr	ra

00001154 <flash_read_mid_uid_with_check>:
    1154:	839f978b          	addigp	a5,-1992 # 80038 <cst_libm_sincosf+0x38>
    1158:	4798                	c.lw	a4,8(a5)
    115a:	4390                	c.lw	a2,0(a5)
    115c:	43d4                	c.lw	a3,4(a5)
    115e:	47dc                	c.lw	a5,12(a5)
    1160:	1101                	c.addi	sp,-32
    1162:	cc22                	c.swsp	s0,24(sp)
    1164:	ca26                	c.swsp	s1,20(sp)
    1166:	842a                	c.mv	s0,a0
    1168:	c43a                	c.swsp	a4,8(sp)
    116a:	c63e                	c.swsp	a5,12(sp)
    116c:	ce06                	c.swsp	ra,28(sp)
    116e:	84ae                	c.mv	s1,a1
    1170:	c032                	c.swsp	a2,0(sp)
    1172:	c236                	c.swsp	a3,4(sp)
    1174:	fb9ff0ef          	jal	ra,112c <flash_read_mid>
    1178:	77c1                	c.lui	a5,0xffff0
    117a:	17fd                	c.addi	a5,-1
    117c:	00146737          	lui	a4,0x146
    1180:	c008                	c.sw	a0,0(s0)
    1182:	8fe9                	c.and	a5,a0
    1184:	08570713          	addi	a4,a4,133 # 146085 <FLASH_SIZE+0x46085>
    1188:	02e78063          	beq	a5,a4,11a8 <flash_read_mid_uid_with_check+0x54>
    118c:	00166737          	lui	a4,0x166
    1190:	08570713          	addi	a4,a4,133 # 166085 <FLASH_SIZE+0x66085>
    1194:	4781                	c.li	a5,0
    1196:	00e50963          	beq	a0,a4,11a8 <flash_read_mid_uid_with_check+0x54>
    119a:	40f2                	c.lwsp	ra,28(sp)
    119c:	4462                	c.lwsp	s0,24(sp)
    119e:	44d2                	c.lwsp	s1,20(sp)
    11a0:	853e                	c.mv	a0,a5
    11a2:	6105                	c.addi16sp	sp,32
    11a4:	00008067          	ret
    11a8:	8526                	c.mv	a0,s1
    11aa:	3fa9                	c.jal	1104 <flash_read_uid.constprop.6>
    11ac:	0004c783          	lbu	a5,0(s1)
    11b0:	00014603          	lbu	a2,0(sp)
    11b4:	0014c683          	lbu	a3,1(s1)
    11b8:	00114703          	lbu	a4,1(sp)
    11bc:	8f91                	c.sub	a5,a2
    11be:	0017b793          	seqz	a5,a5
    11c2:	00e69363          	bne	a3,a4,11c8 <flash_read_mid_uid_with_check+0x74>
    11c6:	0785                	c.addi	a5,1
    11c8:	0024c683          	lbu	a3,2(s1)
    11cc:	00214703          	lbu	a4,2(sp)
    11d0:	00e69463          	bne	a3,a4,11d8 <flash_read_mid_uid_with_check+0x84>
    11d4:	00178793          	addi	a5,a5,1 # ffff0001 <_DATA_LMA_START+0xdffeaae9>
    11d8:	0034c683          	lbu	a3,3(s1)
    11dc:	00314703          	lbu	a4,3(sp)
    11e0:	00e69463          	bne	a3,a4,11e8 <flash_read_mid_uid_with_check+0x94>
    11e4:	00178793          	addi	a5,a5,1
    11e8:	0044c683          	lbu	a3,4(s1)
    11ec:	00414703          	lbu	a4,4(sp)
    11f0:	00e69463          	bne	a3,a4,11f8 <flash_read_mid_uid_with_check+0xa4>
    11f4:	00178793          	addi	a5,a5,1
    11f8:	0054c683          	lbu	a3,5(s1)
    11fc:	00514703          	lbu	a4,5(sp)
    1200:	00e69463          	bne	a3,a4,1208 <flash_read_mid_uid_with_check+0xb4>
    1204:	00178793          	addi	a5,a5,1
    1208:	0064c683          	lbu	a3,6(s1)
    120c:	00614703          	lbu	a4,6(sp)
    1210:	00e69463          	bne	a3,a4,1218 <flash_read_mid_uid_with_check+0xc4>
    1214:	00178793          	addi	a5,a5,1
    1218:	0074c683          	lbu	a3,7(s1)
    121c:	00714703          	lbu	a4,7(sp)
    1220:	00e69463          	bne	a3,a4,1228 <flash_read_mid_uid_with_check+0xd4>
    1224:	00178793          	addi	a5,a5,1
    1228:	0084c683          	lbu	a3,8(s1)
    122c:	00814703          	lbu	a4,8(sp)
    1230:	00e69463          	bne	a3,a4,1238 <flash_read_mid_uid_with_check+0xe4>
    1234:	00178793          	addi	a5,a5,1
    1238:	0094c683          	lbu	a3,9(s1)
    123c:	00914703          	lbu	a4,9(sp)
    1240:	00e69463          	bne	a3,a4,1248 <flash_read_mid_uid_with_check+0xf4>
    1244:	00178793          	addi	a5,a5,1
    1248:	00a4c683          	lbu	a3,10(s1)
    124c:	00a14703          	lbu	a4,10(sp)
    1250:	00e69463          	bne	a3,a4,1258 <flash_read_mid_uid_with_check+0x104>
    1254:	00178793          	addi	a5,a5,1
    1258:	00b4c683          	lbu	a3,11(s1)
    125c:	00b14703          	lbu	a4,11(sp)
    1260:	00e69463          	bne	a3,a4,1268 <flash_read_mid_uid_with_check+0x114>
    1264:	00178793          	addi	a5,a5,1
    1268:	00c4c683          	lbu	a3,12(s1)
    126c:	00c14703          	lbu	a4,12(sp)
    1270:	00e69463          	bne	a3,a4,1278 <flash_read_mid_uid_with_check+0x124>
    1274:	00178793          	addi	a5,a5,1
    1278:	00d4c683          	lbu	a3,13(s1)
    127c:	00d14703          	lbu	a4,13(sp)
    1280:	00e69463          	bne	a3,a4,1288 <flash_read_mid_uid_with_check+0x134>
    1284:	00178793          	addi	a5,a5,1
    1288:	00e4c683          	lbu	a3,14(s1)
    128c:	00e14703          	lbu	a4,14(sp)
    1290:	00e69463          	bne	a3,a4,1298 <flash_read_mid_uid_with_check+0x144>
    1294:	00178793          	addi	a5,a5,1
    1298:	00f14683          	lbu	a3,15(sp)
    129c:	00f4c703          	lbu	a4,15(s1)
    12a0:	00e69463          	bne	a3,a4,12a8 <flash_read_mid_uid_with_check+0x154>
    12a4:	00178793          	addi	a5,a5,1
    12a8:	40f2                	c.lwsp	ra,28(sp)
    12aa:	4462                	c.lwsp	s0,24(sp)
    12ac:	17c1                	c.addi	a5,-16
    12ae:	00f037b3          	snez	a5,a5
    12b2:	44d2                	c.lwsp	s1,20(sp)
    12b4:	853e                	c.mv	a0,a5
    12b6:	6105                	c.addi16sp	sp,32
    12b8:	00008067          	ret

000012bc <flash_dread>:
    12bc:	1141                	c.addi	sp,-16
    12be:	c606                	c.swsp	ra,12(sp)
    12c0:	87b2                	c.mv	a5,a2
    12c2:	7d047073          	csrci	mmisc_ctl,8
    12c6:	862e                	c.mv	a2,a1
    12c8:	00f005b3          	add	a1,zero,a5
    12cc:	ba0ff0ef          	jal	ra,66c <flash_mspi_read_ram.constprop.7>
    12d0:	7d046073          	csrsi	mmisc_ctl,8
    12d4:	40b2                	c.lwsp	ra,12(sp)
    12d6:	0141                	c.addi	sp,16
    12d8:	00008067          	ret

000012dc <clock_init.constprop.10>:
    12dc:	1141                	c.addi	sp,-16
    12de:	c606                	c.swsp	ra,12(sp)
    12e0:	7d047073          	csrci	mmisc_ctl,8
    12e4:	d64ff0ef          	jal	ra,848 <clock_init_ram.constprop.11>
    12e8:	7d046073          	csrsi	mmisc_ctl,8
    12ec:	40b2                	c.lwsp	ra,12(sp)
    12ee:	0141                	c.addi	sp,16
    12f0:	00008067          	ret

000012f4 <pm_sleep_wakeup.constprop.2>:
    12f4:	1141                	c.addi	sp,-16
    12f6:	c606                	c.swsp	ra,12(sp)
    12f8:	7d047073          	csrci	mmisc_ctl,8
    12fc:	8d5ff0ef          	jal	ra,bd0 <pm_sleep_wakeup_ram.constprop.3>
    1300:	7d046073          	csrsi	mmisc_ctl,8
    1304:	40b2                	c.lwsp	ra,12(sp)
    1306:	0141                	c.addi	sp,16
    1308:	8082                	c.jr	ra
    130a:	0001                	c.nop

0000130c <user_calib_adc_vref.constprop.9>:
    130c:	1101                	c.addi	sp,-32
    130e:	ce06                	c.swsp	ra,28(sp)
    1310:	c402                	c.swsp	zero,8(sp)
    1312:	00011623          	sh	zero,12(sp)
    1316:	00010723          	sb	zero,14(sp)
    131a:	c54d                	c.beqz	a0,13c4 <user_calib_adc_vref.constprop.9+0xb8>
    131c:	000007b7          	lui	a5,0x0
    1320:	1587a783          	lw	a5,344(a5) # 158 <_AES_VMA_END>
    1324:	0030                	c.addi4spn	a2,sp,8
    1326:	459d                	c.li	a1,7
    1328:	9782                	c.jalr	a5
    132a:	00c14783          	lbu	a5,12(sp)
    132e:	1c07b75b          	bfos	a4,a5,7,0
    1332:	04074163          	bltz	a4,1374 <user_calib_adc_vref.constprop.9+0x68>
    1336:	00e14703          	lbu	a4,14(sp)
    133a:	00d14603          	lbu	a2,13(sp)
    133e:	0722                	c.slli	a4,0x8
    1340:	66c1                	c.lui	a3,0x10
    1342:	00c705b3          	add	a1,a4,a2
    1346:	16fd                	c.addi	a3,-1
    1348:	02d58663          	beq	a1,a3,1374 <user_calib_adc_vref.constprop.9+0x68>
    134c:	fd060613          	addi	a2,a2,-48
    1350:	9732                	c.add	a4,a2
    1352:	3c07275b          	bfoz	a4,a4,15,0
    1356:	0fb00693          	li	a3,251
    135a:	08e6e563          	bltu	a3,a4,13e4 <user_calib_adc_vref.constprop.9+0xd8>
    135e:	17b1                	c.addi	a5,-20
    1360:	1c07b7db          	bfos	a5,a5,7,0
    1364:	5731                	c.li	a4,-20
    1366:	06e78f63          	beq	a5,a4,13e4 <user_calib_adc_vref.constprop.9+0xd8>
    136a:	f9578513          	addi	a0,a5,-107
    136e:	00a03533          	snez	a0,a0
    1372:	a89d                	c.j	13e8 <user_calib_adc_vref.constprop.9+0xdc>
    1374:	801407b7          	lui	a5,0x80140
    1378:	06500713          	li	a4,101
    137c:	1ee78a23          	sb	a4,500(a5) # 801401f4 <_DATA_LMA_START+0x6013acdc>
    1380:	1c87a703          	lw	a4,456(a5)
    1384:	1e078a23          	sb	zero,500(a5)
    1388:	4c47275b          	bfoz	a4,a4,19,4
    138c:	380727db          	bfoz	a5,a4,14,0
    1390:	06078063          	beqz	a5,13f0 <user_calib_adc_vref.constprop.9+0xe4>
    1394:	1ff77713          	andi	a4,a4,511
    1398:	f9b70713          	addi	a4,a4,-101
    139c:	3c07275b          	bfoz	a4,a4,15,0
    13a0:	0c600693          	li	a3,198
    13a4:	04e6e063          	bltu	a3,a4,13e4 <user_calib_adc_vref.constprop.9+0xd8>
    13a8:	0097d513          	srli	a0,a5,0x9
    13ac:	1531                	c.addi	a0,-20
    13ae:	1c05355b          	bfos	a0,a0,7,0
    13b2:	57b1                	c.li	a5,-20
    13b4:	02f50863          	beq	a0,a5,13e4 <user_calib_adc_vref.constprop.9+0xd8>
    13b8:	fd550513          	addi	a0,a0,-43 # 3fffffd5 <_DATA_LMA_START+0x1fffaabd>
    13bc:	00a03533          	snez	a0,a0
    13c0:	0280006f          	j	13e8 <user_calib_adc_vref.constprop.9+0xdc>
    13c4:	801407b7          	lui	a5,0x80140
    13c8:	06500713          	li	a4,101
    13cc:	1ee78a23          	sb	a4,500(a5) # 801401f4 <_DATA_LMA_START+0x6013acdc>
    13d0:	1c87a703          	lw	a4,456(a5)
    13d4:	1e078a23          	sb	zero,500(a5)
    13d8:	4c47275b          	bfoz	a4,a4,19,4
    13dc:	380727db          	bfoz	a5,a4,14,0
    13e0:	fa079ae3          	bnez	a5,1394 <user_calib_adc_vref.constprop.9+0x88>
    13e4:	00000513          	li	a0,0
    13e8:	40f2                	c.lwsp	ra,28(sp)
    13ea:	6105                	c.addi16sp	sp,32
    13ec:	00008067          	ret
    13f0:	00814503          	lbu	a0,8(sp)
    13f4:	00914783          	lbu	a5,9(sp)
    13f8:	953e                	c.add	a0,a5
    13fa:	f8050513          	addi	a0,a0,-128
    13fe:	3c05255b          	bfoz	a0,a0,15,0
    1402:	0fc53513          	sltiu	a0,a0,252
    1406:	b7cd                	c.j	13e8 <user_calib_adc_vref.constprop.9+0xdc>

00001408 <user_calib_freq_offset.constprop.8>:
    1408:	000007b7          	lui	a5,0x0
    140c:	1101                	c.addi	sp,-32
    140e:	1587a783          	lw	a5,344(a5) # 158 <_AES_VMA_END>
    1412:	577d                	c.li	a4,-1
    1414:	00f10613          	addi	a2,sp,15
    1418:	4585                	c.li	a1,1
    141a:	cc22                	c.swsp	s0,24(sp)
    141c:	ce06                	c.swsp	ra,28(sp)
    141e:	00e107a3          	sb	a4,15(sp)
    1422:	9782                	c.jalr	a5
    1424:	00f14403          	lbu	s0,15(sp)
    1428:	0ff00793          	li	a5,255
    142c:	00000513          	li	a0,0
    1430:	02f40263          	beq	s0,a5,1454 <user_calib_freq_offset.constprop.8+0x4c>
    1434:	08a00513          	li	a0,138
    1438:	bc4ff0ef          	jal	ra,7fc <analog_read_reg8>
    143c:	03f47413          	andi	s0,s0,63
    1440:	04057593          	andi	a1,a0,64
    1444:	0085e5b3          	or	a1,a1,s0
    1448:	08a00513          	li	a0,138
    144c:	b6cff0ef          	jal	ra,7b8 <analog_write_reg8>
    1450:	00100513          	li	a0,1
    1454:	40f2                	c.lwsp	ra,28(sp)
    1456:	4462                	c.lwsp	s0,24(sp)
    1458:	6105                	c.addi16sp	sp,32
    145a:	8082                	c.jr	ra
    145c:	0001                	c.nop
	...

00001460 <gpio_input_dis>:
    1460:	801407b7          	lui	a5,0x80140
    1464:	30978703          	lb	a4,777(a5) # 80140309 <_DATA_LMA_START+0x6013adf1>
    1468:	fff54513          	not	a0,a0
    146c:	8d79                	c.and	a0,a4
    146e:	0ff57513          	andi	a0,a0,255
    1472:	30a784a3          	sb	a0,777(a5)
    1476:	8082                	c.jr	ra
    1478:	0001                	c.nop
	...

0000147c <_write>:
    147c:	02c05063          	blez	a2,149c <_write+0x20>
    1480:	00c586b3          	add	a3,a1,a2
    1484:	80101737          	lui	a4,0x80101
    1488:	0005c783          	lbu	a5,0(a1)
    148c:	0585                	c.addi	a1,1
    148e:	80f70c23          	sb	a5,-2024(a4) # 80100818 <_DATA_LMA_START+0x600fb300>
    1492:	fed59be3          	bne	a1,a3,1488 <_write+0xc>
    1496:	8532                	c.mv	a0,a2
    1498:	00008067          	ret
    149c:	4601                	c.li	a2,0
    149e:	8532                	c.mv	a0,a2
    14a0:	8082                	c.jr	ra
    14a2:	0001                	c.nop

000014a4 <main>:
    14a4:	7171                	c.addi16sp	sp,-176
    14a6:	ffbc07b7          	lui	a5,0xffbc0
    14aa:	d706                	c.swsp	ra,172(sp)
    14ac:	17fd                	c.addi	a5,-1
    14ae:	80140737          	lui	a4,0x80140
    14b2:	d522                	c.swsp	s0,168(sp)
    14b4:	d326                	c.swsp	s1,164(sp)
    14b6:	d14a                	c.swsp	s2,160(sp)
    14b8:	cf4e                	c.swsp	s3,156(sp)
    14ba:	cd52                	c.swsp	s4,152(sp)
    14bc:	cb56                	c.swsp	s5,148(sp)
    14be:	c95a                	c.swsp	s6,144(sp)
    14c0:	c75e                	c.swsp	s7,140(sp)
    14c2:	c562                	c.swsp	s8,136(sp)
    14c4:	c366                	c.swsp	s9,132(sp)
    14c6:	c16a                	c.swsp	s10,128(sp)
    14c8:	deee                	c.swsp	s11,124(sp)
    14ca:	1ef72023          	sw	a5,480(a4) # 801401e0 <_DATA_LMA_START+0x6013acc8>
    14ce:	4589                	c.li	a1,2
    14d0:	08c00513          	li	a0,140
    14d4:	1ef72223          	sw	a5,484(a4)
    14d8:	ae0ff0ef          	jal	ra,7b8 <analog_write_reg8>
    14dc:	4581                	c.li	a1,0
    14de:	4529                	c.li	a0,10
    14e0:	ad8ff0ef          	jal	ra,7b8 <analog_write_reg8>
    14e4:	03b00593          	li	a1,59
    14e8:	00b00513          	li	a0,11
    14ec:	accff0ef          	jal	ra,7b8 <analog_write_reg8>
    14f0:	00500513          	li	a0,5
    14f4:	b08ff0ef          	jal	ra,7fc <analog_read_reg8>
    14f8:	0f757593          	andi	a1,a0,247
    14fc:	00500513          	li	a0,5
    1500:	ab8ff0ef          	jal	ra,7b8 <analog_write_reg8>
    1504:	00600513          	li	a0,6
    1508:	af4ff0ef          	jal	ra,7fc <analog_read_reg8>
    150c:	03e57593          	andi	a1,a0,62
    1510:	00600513          	li	a0,6
    1514:	aa4ff0ef          	jal	ra,7b8 <analog_write_reg8>
    1518:	04500593          	li	a1,69
    151c:	00100513          	li	a0,1
    1520:	a98ff0ef          	jal	ra,7b8 <analog_write_reg8>
    1524:	04c00593          	li	a1,76
    1528:	01c00513          	li	a0,28
    152c:	a8cff0ef          	jal	ra,7b8 <analog_write_reg8>
    1530:	801007b7          	lui	a5,0x80100
    1534:	44478703          	lb	a4,1092(a5) # 80100444 <_DATA_LMA_START+0x600faf2c>
    1538:	801016b7          	lui	a3,0x80101
    153c:	0ff77713          	andi	a4,a4,255
    1540:	00e76713          	ori	a4,a4,14
    1544:	44e78223          	sb	a4,1092(a5)
    1548:	45878703          	lb	a4,1112(a5)
    154c:	03800513          	li	a0,56
    1550:	0ff77713          	andi	a4,a4,255
    1554:	00e76713          	ori	a4,a4,14
    1558:	44e78c23          	sb	a4,1112(a5)
    155c:	46c78703          	lb	a4,1132(a5)
    1560:	0ff77713          	andi	a4,a4,255
    1564:	00e76713          	ori	a4,a4,14
    1568:	46e78623          	sb	a4,1132(a5)
    156c:	48078703          	lb	a4,1152(a5)
    1570:	0ff77713          	andi	a4,a4,255
    1574:	00e76713          	ori	a4,a4,14
    1578:	48e78023          	sb	a4,1152(a5)
    157c:	49478703          	lb	a4,1172(a5)
    1580:	0ff77713          	andi	a4,a4,255
    1584:	00e76713          	ori	a4,a4,14
    1588:	48e78a23          	sb	a4,1172(a5)
    158c:	4a878703          	lb	a4,1192(a5)
    1590:	0ff77713          	andi	a4,a4,255
    1594:	00e76713          	ori	a4,a4,14
    1598:	4ae78423          	sb	a4,1192(a5)
    159c:	4bc78703          	lb	a4,1212(a5)
    15a0:	0ff77713          	andi	a4,a4,255
    15a4:	00e76713          	ori	a4,a4,14
    15a8:	4ae78e23          	sb	a4,1212(a5)
    15ac:	4d078703          	lb	a4,1232(a5)
    15b0:	0ff77713          	andi	a4,a4,255
    15b4:	00e76713          	ori	a4,a4,14
    15b8:	4ce78823          	sb	a4,1232(a5)
    15bc:	83a68783          	lb	a5,-1990(a3) # 8010083a <_DATA_LMA_START+0x600fb322>
    15c0:	82068d23          	sb	zero,-1990(a3)
    15c4:	a38ff0ef          	jal	ra,7fc <analog_read_reg8>
    15c8:	00a00433          	add	s0,zero,a0
    15cc:	03900513          	li	a0,57
    15d0:	a2cff0ef          	jal	ra,7fc <analog_read_reg8>
    15d4:	84aa                	c.mv	s1,a0
    15d6:	4004745b          	bbs	s0,0,15de <main+0x13a>
    15da:	5ee0006f          	j	1bc8 <main+0x724>
    15de:	0fe47593          	andi	a1,s0,254
    15e2:	018b140b          	addigp	s0,86040 # 95818 <g_pm_status_info>
    15e6:	03800513          	li	a0,56
    15ea:	4004f45b          	bbs	s1,0,15f2 <main+0x14e>
    15ee:	5ba0006f          	j	1ba8 <main+0x704>
    15f2:	4791                	c.li	a5,4
    15f4:	00f40123          	sb	a5,2(s0)
    15f8:	9c0ff0ef          	jal	ra,7b8 <analog_write_reg8>
    15fc:	00100593          	li	a1,1
    1600:	07f00513          	li	a0,127
    1604:	9b4ff0ef          	jal	ra,7b8 <analog_write_reg8>
    1608:	06400513          	li	a0,100
    160c:	9f0ff0ef          	jal	ra,7fc <analog_read_reg8>
    1610:	0c3527db          	bfoz	a5,a0,3,3
    1614:	00a400a3          	sb	a0,1(s0)
    1618:	00f40023          	sb	a5,0(s0)
    161c:	08800513          	li	a0,136
    1620:	9dcff0ef          	jal	ra,7fc <analog_read_reg8>
    1624:	be757c5b          	bbc	a0,7,161c <main+0x178>
    1628:	b60ff0ef          	jal	ra,988 <pm_wait_bbpll_done>
    162c:	00244783          	lbu	a5,2(s0)
    1630:	0a87dc5b          	beqc	a5,8,16e8 <main+0x244>
    1634:	80140737          	lui	a4,0x80140
    1638:	20a70783          	lb	a5,522(a4) # 8014020a <_DATA_LMA_START+0x6013acf2>
    163c:	0ff7f793          	andi	a5,a5,255
    1640:	00c7e793          	ori	a5,a5,12
    1644:	20f70523          	sb	a5,522(a4)
    1648:	00100793          	li	a5,1
    164c:	20f72023          	sw	a5,512(a4)
    1650:	801404b7          	lui	s1,0x80140
    1654:	1fd48783          	lb	a5,509(s1) # 801401fd <_DATA_LMA_START+0x6013ace5>
    1658:	0ff7f793          	andi	a5,a5,255
    165c:	00fb4a2b          	swgp	a5,86036 # 95814 <g_chip_version>
    1660:	00244703          	lbu	a4,2(s0)
    1664:	04475c5b          	beqc	a4,4,16bc <main+0x218>
    1668:	0ff00693          	li	a3,255
    166c:	04d78063          	beq	a5,a3,16ac <main+0x208>
    1670:	08000593          	li	a1,128
    1674:	07d00513          	li	a0,125
    1678:	940ff0ef          	jal	ra,7b8 <analog_write_reg8>
    167c:	80140737          	lui	a4,0x80140
    1680:	06500793          	li	a5,101
    1684:	1ef70a23          	sb	a5,500(a4) # 801401f4 <_DATA_LMA_START+0x6013acdc>
    1688:	1c872783          	lw	a5,456(a4)
    168c:	1e070a23          	sb	zero,500(a4)
    1690:	8bbd                	c.andi	a5,15
    1692:	0037d55b          	beqc	a5,3,169c <main+0x1f8>
    1696:	4725                	c.li	a4,9
    1698:	04f77c63          	bgeu	a4,a5,16f0 <main+0x24c>
    169c:	801407b7          	lui	a5,0x80140
    16a0:	02000713          	li	a4,32
    16a4:	1ee787a3          	sb	a4,495(a5) # 801401ef <_DATA_LMA_START+0x6013acd7>
    16a8:	0000006f          	j	16a8 <main+0x204>
    16ac:	bc17625b          	bnec	a4,1,1670 <main+0x1cc>
    16b0:	07d00513          	li	a0,125
    16b4:	08000593          	li	a1,128
    16b8:	0180006f          	j	16d0 <main+0x22c>
    16bc:	03900513          	li	a0,57
    16c0:	93cff0ef          	jal	ra,7fc <analog_read_reg8>
    16c4:	00256593          	ori	a1,a0,2
    16c8:	0ff5f593          	andi	a1,a1,255
    16cc:	03900513          	li	a0,57
    16d0:	8e8ff0ef          	jal	ra,7b8 <analog_write_reg8>
    16d4:	2004a503          	lw	a0,512(s1)
    16d8:	001877b7          	lui	a5,0x187
    16dc:	a0078793          	addi	a5,a5,-1536 # 186a00 <FLASH_SIZE+0x86a00>
    16e0:	953e                	c.add	a0,a5
    16e2:	3909                	c.jal	12f4 <pm_sleep_wakeup.constprop.2>
    16e4:	f8dff06f          	j	1670 <main+0x1cc>
    16e8:	cb9fe0ef          	jal	ra,3a0 <pm_stimer_recover>
    16ec:	f65ff06f          	j	1650 <main+0x1ac>
    16f0:	00f00513          	li	a0,15
    16f4:	908ff0ef          	jal	ra,7fc <analog_read_reg8>
    16f8:	03f57593          	andi	a1,a0,63
    16fc:	0405e593          	ori	a1,a1,64
    1700:	00f00513          	li	a0,15
    1704:	8b4ff0ef          	jal	ra,7b8 <analog_write_reg8>
    1708:	04810b93          	addi	s7,sp,72
    170c:	85de                	c.mv	a1,s7
    170e:	1808                	c.addi4spn	a0,sp,48
    1710:	a45ff0ef          	jal	ra,1154 <flash_read_mid_uid_with_check>
    1714:	0ff57513          	andi	a0,a0,255
    1718:	0015545b          	beqc	a0,1,1720 <main+0x27c>
    171c:	4cc0006f          	j	1be8 <main+0x744>
    1720:	03214783          	lbu	a5,50(sp)
    1724:	474d                	c.li	a4,19
    1726:	0137e45b          	bnec	a5,19,172e <main+0x28a>
    172a:	4660006f          	j	1b90 <main+0x6ec>
    172e:	44f77163          	bgeu	a4,a5,1b70 <main+0x6cc>
    1732:	4755                	c.li	a4,21
    1734:	0157e45b          	bnec	a5,21,173c <main+0x298>
    1738:	4200006f          	j	1b58 <main+0x6b4>
    173c:	40e7e263          	bltu	a5,a4,1b40 <main+0x69c>
    1740:	0167d45b          	beqc	a5,22,1748 <main+0x2a4>
    1744:	4a40006f          	j	1be8 <main+0x744>
    1748:	003fe537          	lui	a0,0x3fe
    174c:	0c050513          	addi	a0,a0,192 # 3fe0c0 <FLASH_SIZE+0x2fe0c0>
    1750:	bbdff0ef          	jal	ra,130c <user_calib_adc_vref.constprop.9>
    1754:	003fe537          	lui	a0,0x3fe
    1758:	cb1ff0ef          	jal	ra,1408 <user_calib_freq_offset.constprop.8>
    175c:	80140437          	lui	s0,0x80140
    1760:	b7dff0ef          	jal	ra,12dc <clock_init.constprop.10>
    1764:	30e40783          	lb	a5,782(s0) # 8014030e <_DATA_LMA_START+0x6013adf6>
    1768:	11000513          	li	a0,272
    176c:	0ff7f793          	andi	a5,a5,255
    1770:	0107e793          	ori	a5,a5,16
    1774:	30f40723          	sb	a5,782(s0)
    1778:	30a40783          	lb	a5,778(s0)
    177c:	03010913          	addi	s2,sp,48
    1780:	0ef7f793          	andi	a5,a5,239
    1784:	30f40523          	sb	a5,778(s0)
    1788:	cd9ff0ef          	jal	ra,1460 <gpio_input_dis>
    178c:	30e40783          	lb	a5,782(s0)
    1790:	12000513          	li	a0,288
    1794:	0ff7f793          	andi	a5,a5,255
    1798:	0207e793          	ori	a5,a5,32
    179c:	30f40723          	sb	a5,782(s0)
    17a0:	30a40783          	lb	a5,778(s0)
    17a4:	0df7f793          	andi	a5,a5,223
    17a8:	30f40523          	sb	a5,778(s0)
    17ac:	cb5ff0ef          	jal	ra,1460 <gpio_input_dis>
    17b0:	30e40783          	lb	a5,782(s0)
    17b4:	14000513          	li	a0,320
    17b8:	0ff7f793          	andi	a5,a5,255
    17bc:	0407e793          	ori	a5,a5,64
    17c0:	30f40723          	sb	a5,782(s0)
    17c4:	30a40783          	lb	a5,778(s0)
    17c8:	0bf7f793          	andi	a5,a5,191
    17cc:	30f40523          	sb	a5,778(s0)
    17d0:	c91ff0ef          	jal	ra,1460 <gpio_input_dis>
    17d4:	30e40783          	lb	a5,782(s0)
    17d8:	18000513          	li	a0,384
    17dc:	f807e793          	ori	a5,a5,-128
    17e0:	0ff7f793          	andi	a5,a5,255
    17e4:	30f40723          	sb	a5,782(s0)
    17e8:	30a40783          	lb	a5,778(s0)
    17ec:	07f7f793          	andi	a5,a5,127
    17f0:	30f40523          	sb	a5,778(s0)
    17f4:	c6dff0ef          	jal	ra,1460 <gpio_input_dis>
    17f8:	33140783          	lb	a5,817(s0)
    17fc:	00b00513          	li	a0,11
    1800:	0f37f793          	andi	a5,a5,243
    1804:	32f408a3          	sb	a5,817(s0)
    1808:	30640783          	lb	a5,774(s0)
    180c:	0df7f793          	andi	a5,a5,223
    1810:	30f40323          	sb	a5,774(s0)
    1814:	33140783          	lb	a5,817(s0)
    1818:	0cf7f793          	andi	a5,a5,207
    181c:	32f408a3          	sb	a5,817(s0)
    1820:	30640783          	lb	a5,774(s0)
    1824:	0bf7f793          	andi	a5,a5,191
    1828:	30f40323          	sb	a5,774(s0)
    182c:	30140783          	lb	a5,769(s0)
    1830:	0ff7f793          	andi	a5,a5,255
    1834:	0607e793          	ori	a5,a5,96
    1838:	30f400a3          	sb	a5,769(s0)
    183c:	fc1fe0ef          	jal	ra,7fc <analog_read_reg8>
    1840:	f8056593          	ori	a1,a0,-128
    1844:	0ff5f593          	andi	a1,a1,255
    1848:	00b00513          	li	a0,11
    184c:	f6dfe0ef          	jal	ra,7b8 <analog_write_reg8>
    1850:	801017b7          	lui	a5,0x80101
    1854:	c0178703          	lb	a4,-1023(a5) # 80100c01 <_DATA_LMA_START+0x600fb6e9>
    1858:	3e800513          	li	a0,1000
    185c:	f8076713          	ori	a4,a4,-128
    1860:	0ff77713          	andi	a4,a4,255
    1864:	c0e780a3          	sb	a4,-1023(a5)
    1868:	00100713          	li	a4,1
    186c:	82e78e23          	sb	a4,-1988(a5)
    1870:	83d78703          	lb	a4,-1987(a5)
    1874:	0ff77713          	andi	a4,a4,255
    1878:	00176713          	ori	a4,a4,1
    187c:	82e78ea3          	sb	a4,-1987(a5)
    1880:	981fe0ef          	jal	ra,200 <delay_ms>
    1884:	000806b7          	lui	a3,0x80
    1888:	65a9                	c.lui	a1,0xa
    188a:	00080537          	lui	a0,0x80
    188e:	06068693          	addi	a3,a3,96 # 80060 <cst_libm_sincosf+0x60>
    1892:	7e300613          	li	a2,2019
    1896:	0585                	c.addi	a1,1
    1898:	06c50513          	addi	a0,a0,108 # 8006c <cst_libm_sincosf+0x6c>
    189c:	5df020ef          	jal	ra,467a <printf>
    18a0:	00080837          	lui	a6,0x80
    18a4:	02080493          	addi	s1,a6,32 # 80020 <cst_libm_sincosf+0x20>
    18a8:	00080837          	lui	a6,0x80
    18ac:	839f978b          	addigp	a5,-1992 # 80038 <cst_libm_sincosf+0x38>
    18b0:	cc26                	c.swsp	s1,24(sp)
    18b2:	02880493          	addi	s1,a6,40 # 80028 <cst_libm_sincosf+0x28>
    18b6:	4b88                	c.lw	a0,16(a5)
    18b8:	4bcc                	c.lw	a1,20(a5)
    18ba:	4f90                	c.lw	a2,24(a5)
    18bc:	4fd4                	c.lw	a3,28(a5)
    18be:	5398                	c.lw	a4,32(a5)
    18c0:	ce26                	c.swsp	s1,28(sp)
    18c2:	53dc                	c.lw	a5,36(a5)
    18c4:	000804b7          	lui	s1,0x80
    18c8:	03048493          	addi	s1,s1,48 # 80030 <cst_libm_sincosf+0x30>
    18cc:	d82a                	c.swsp	a0,48(sp)
    18ce:	da2e                	c.swsp	a1,52(sp)
    18d0:	dc32                	c.swsp	a2,56(sp)
    18d2:	de36                	c.swsp	a3,60(sp)
    18d4:	c0ba                	c.swsp	a4,64(sp)
    18d6:	c2be                	c.swsp	a5,68(sp)
    18d8:	00092403          	lw	s0,0(s2)
    18dc:	00341693          	slli	a3,s0,0x3
    18e0:	8536                	c.mv	a0,a3
    18e2:	8c36                	c.mv	s8,a3
    18e4:	00d12823          	sw	a3,16(sp)
    18e8:	339020ef          	jal	ra,4420 <malloc>
    18ec:	8a2a                	c.mv	s4,a0
    18ee:	8562                	c.mv	a0,s8
    18f0:	331020ef          	jal	ra,4420 <malloc>
    18f4:	00241693          	slli	a3,s0,0x2
    18f8:	8c2a                	c.mv	s8,a0
    18fa:	8536                	c.mv	a0,a3
    18fc:	8ab6                	c.mv	s5,a3
    18fe:	ca36                	c.swsp	a3,20(sp)
    1900:	321020ef          	jal	ra,4420 <malloc>
    1904:	89aa                	c.mv	s3,a0
    1906:	8556                	c.mv	a0,s5
    1908:	319020ef          	jal	ra,4420 <malloc>
    190c:	8aaa                	c.mv	s5,a0
    190e:	200a0b63          	beqz	s4,1b24 <main+0x680>
    1912:	200c0963          	beqz	s8,1b24 <main+0x680>
    1916:	20098763          	beqz	s3,1b24 <main+0x680>
    191a:	20050563          	beqz	a0,1b24 <main+0x680>
    191e:	04805363          	blez	s0,1964 <main+0x4c0>
    1922:	8ce2                	c.mv	s9,s8
    1924:	f0000553          	fmv.w.x	fa0,zero
    1928:	4b01                	c.li	s6,0
    192a:	a01d                	c.j	1950 <main+0x4ac>
    192c:	668020ef          	jal	ra,3f94 <__floatsidf>
    1930:	4662                	c.lwsp	a2,24(sp)
    1932:	4254                	c.lw	a3,4(a2)
    1934:	00062603          	lw	a2,0(a2)
    1938:	010020ef          	jal	ra,3948 <__muldf3>
    193c:	4672                	c.lwsp	a2,28(sp)
    193e:	4254                	c.lw	a3,4(a2)
    1940:	00062603          	lw	a2,0(a2)
    1944:	004020ef          	jal	ra,3948 <__muldf3>
    1948:	7d8020ef          	jal	ra,4120 <__truncdfsf2>
    194c:	334010ef          	jal	ra,2c80 <sinf>
    1950:	00aca027          	fsw	fa0,0(s9)
    1954:	000ca223          	sw	zero,4(s9)
    1958:	0b05                	c.addi	s6,1
    195a:	855a                	c.mv	a0,s6
    195c:	008c8c93          	addi	s9,s9,8
    1960:	fd6416e3          	bne	s0,s6,192c <main+0x488>
    1964:	3c0425db          	bfoz	a1,s0,15,0
    1968:	02410513          	addi	a0,sp,36
    196c:	5c8000ef          	jal	ra,1f34 <riscv_cfft_init_f32>
    1970:	00080537          	lui	a0,0x80
    1974:	008005b3          	add	a1,zero,s0
    1978:	0e850513          	addi	a0,a0,232 # 800e8 <cst_libm_sincosf+0xe8>
    197c:	4ff020ef          	jal	ra,467a <printf>
    1980:	00000b13          	li	s6,0
    1984:	8a1fe0ef          	jal	ra,224 <delay_ms.constprop.12>
    1988:	c65e                	c.swsp	s7,12(sp)
    198a:	c45e                	c.swsp	s7,8(sp)
    198c:	4642                	c.lwsp	a2,16(sp)
    198e:	85e2                	c.mv	a1,s8
    1990:	01400533          	add	a0,zero,s4
    1994:	2ad020ef          	jal	ra,4440 <memcpy>
    1998:	4685                	c.li	a3,1
    199a:	4601                	c.li	a2,0
    199c:	85d2                	c.mv	a1,s4
    199e:	1048                	c.addi4spn	a0,sp,36
    19a0:	60c000ef          	jal	ra,1fac <riscv_cfft_f32>
    19a4:	b0005073          	csrwi	mcycle,0
    19a8:	b0002cf3          	csrr	s9,mcycle
    19ac:	8622                	c.mv	a2,s0
    19ae:	85ce                	c.mv	a1,s3
    19b0:	8552                	c.mv	a0,s4
    19b2:	2459                	c.jal	1c38 <riscv_cmplx_mag_f32>
    19b4:	b00027f3          	csrr	a5,mcycle
    19b8:	46a2                	c.lwsp	a3,8(sp)
    19ba:	419787b3          	sub	a5,a5,s9
    19be:	c29c                	c.sw	a5,0(a3)
    19c0:	001b0b13          	addi	s6,s6,1
    19c4:	121b5c5b          	beqc	s6,1,1afc <main+0x658>
    19c8:	04805e63          	blez	s0,1a24 <main+0x580>
    19cc:	000aa707          	flw	fa4,0(s5)
    19d0:	0009a787          	flw	fa5,0(s3)
    19d4:	08e7f7d3          	fsub.s	fa5,fa5,fa4
    19d8:	20f7a553          	fabs.s	fa0,fa5
    19dc:	634020ef          	jal	ra,4010 <__extendsfdf2>
    19e0:	4090                	c.lw	a2,0(s1)
    19e2:	40d4                	c.lw	a3,4(s1)
    19e4:	69d010ef          	jal	ra,3880 <__gedf2>
    19e8:	04a04663          	bgtz	a0,1a34 <main+0x590>
    19ec:	00498d93          	addi	s11,s3,4
    19f0:	004a8d13          	addi	s10,s5,4
    19f4:	4c81                	c.li	s9,0
    19f6:	a01d                	c.j	1a1c <main+0x578>
    19f8:	000d2787          	flw	fa5,0(s10)
    19fc:	000da507          	flw	fa0,0(s11)
    1a00:	0d11                	c.addi	s10,4
    1a02:	0d91                	c.addi	s11,4
    1a04:	08f57553          	fsub.s	fa0,fa0,fa5
    1a08:	20a52553          	fabs.s	fa0,fa0
    1a0c:	604020ef          	jal	ra,4010 <__extendsfdf2>
    1a10:	4090                	c.lw	a2,0(s1)
    1a12:	40d4                	c.lw	a3,4(s1)
    1a14:	66d010ef          	jal	ra,3880 <__gedf2>
    1a18:	00a04e63          	bgtz	a0,1a34 <main+0x590>
    1a1c:	001c8c93          	addi	s9,s9,1
    1a20:	fd941ce3          	bne	s0,s9,19f8 <main+0x554>
    1a24:	0eab545b          	beqc	s6,10,1b0c <main+0x668>
    1a28:	4622                	c.lwsp	a2,8(sp)
    1a2a:	00460693          	addi	a3,a2,4
    1a2e:	c436                	c.swsp	a3,8(sp)
    1a30:	f5dff06f          	j	198c <main+0x4e8>
    1a34:	00080537          	lui	a0,0x80
    1a38:	8622                	c.mv	a2,s0
    1a3a:	85da                	c.mv	a1,s6
    1a3c:	1cc50513          	addi	a0,a0,460 # 801cc <cst_libm_sincosf+0x1cc>
    1a40:	43b020ef          	jal	ra,467a <printf>
    1a44:	fe0fe0ef          	jal	ra,224 <delay_ms.constprop.12>
    1a48:	00080537          	lui	a0,0x80
    1a4c:	008005b3          	add	a1,zero,s0
    1a50:	14850513          	addi	a0,a0,328 # 80148 <cst_libm_sincosf+0x148>
    1a54:	427020ef          	jal	ra,467a <printf>
    1a58:	4d01                	c.li	s10,0
    1a5a:	4c81                	c.li	s9,0
    1a5c:	00080b37          	lui	s6,0x80
    1a60:	fc4fe0ef          	jal	ra,224 <delay_ms.constprop.12>
    1a64:	46b2                	c.lwsp	a3,12(sp)
    1a66:	0d05                	c.addi	s10,1
    1a68:	0006ad83          	lw	s11,0(a3)
    1a6c:	85ea                	c.mv	a1,s10
    1a6e:	866e                	c.mv	a2,s11
    1a70:	184b0513          	addi	a0,s6,388 # 80184 <cst_libm_sincosf+0x184>
    1a74:	407020ef          	jal	ra,467a <printf>
    1a78:	facfe0ef          	jal	ra,224 <delay_ms.constprop.12>
    1a7c:	46b2                	c.lwsp	a3,12(sp)
    1a7e:	9cee                	c.add	s9,s11
    1a80:	00468613          	addi	a2,a3,4
    1a84:	c632                	c.swsp	a2,12(sp)
    1a86:	bcad6f5b          	bnec	s10,10,1a64 <main+0x5c0>
    1a8a:	ccccd637          	lui	a2,0xccccd
    1a8e:	ccd60613          	addi	a2,a2,-819 # cccccccd <_DATA_LMA_START+0xaccc77b5>
    1a92:	02ccb633          	mulhu	a2,s9,a2
    1a96:	00080537          	lui	a0,0x80
    1a9a:	85a2                	c.mv	a1,s0
    1a9c:	1a050513          	addi	a0,a0,416 # 801a0 <cst_libm_sincosf+0x1a0>
    1aa0:	0911                	c.addi	s2,4
    1aa2:	820d                	c.srli	a2,0x3
    1aa4:	3d7020ef          	jal	ra,467a <printf>
    1aa8:	f7cfe0ef          	jal	ra,224 <delay_ms.constprop.12>
    1aac:	00a00513          	li	a0,10
    1ab0:	3e9020ef          	jal	ra,4698 <putchar>
    1ab4:	01400533          	add	a0,zero,s4
    1ab8:	179020ef          	jal	ra,4430 <free>
    1abc:	01800533          	add	a0,zero,s8
    1ac0:	171020ef          	jal	ra,4430 <free>
    1ac4:	01300533          	add	a0,zero,s3
    1ac8:	169020ef          	jal	ra,4430 <free>
    1acc:	01500533          	add	a0,zero,s5
    1ad0:	161020ef          	jal	ra,4430 <free>
    1ad4:	e17912e3          	bne	s2,s7,18d8 <main+0x434>
    1ad8:	00000513          	li	a0,0
    1adc:	50ba                	c.lwsp	ra,172(sp)
    1ade:	542a                	c.lwsp	s0,168(sp)
    1ae0:	549a                	c.lwsp	s1,164(sp)
    1ae2:	590a                	c.lwsp	s2,160(sp)
    1ae4:	49fa                	c.lwsp	s3,156(sp)
    1ae6:	4a6a                	c.lwsp	s4,152(sp)
    1ae8:	4ada                	c.lwsp	s5,148(sp)
    1aea:	4b4a                	c.lwsp	s6,144(sp)
    1aec:	4bba                	c.lwsp	s7,140(sp)
    1aee:	4c2a                	c.lwsp	s8,136(sp)
    1af0:	4c9a                	c.lwsp	s9,132(sp)
    1af2:	4d0a                	c.lwsp	s10,128(sp)
    1af4:	5df6                	c.lwsp	s11,124(sp)
    1af6:	614d                	c.addi16sp	sp,176
    1af8:	00008067          	ret
    1afc:	4652                	c.lwsp	a2,20(sp)
    1afe:	85ce                	c.mv	a1,s3
    1b00:	01500533          	add	a0,zero,s5
    1b04:	13d020ef          	jal	ra,4440 <memcpy>
    1b08:	f21ff06f          	j	1a28 <main+0x584>
    1b0c:	00080537          	lui	a0,0x80
    1b10:	008005b3          	add	a1,zero,s0
    1b14:	11050513          	addi	a0,a0,272 # 80110 <cst_libm_sincosf+0x110>
    1b18:	363020ef          	jal	ra,467a <printf>
    1b1c:	f08fe0ef          	jal	ra,224 <delay_ms.constprop.12>
    1b20:	f29ff06f          	j	1a48 <main+0x5a4>
    1b24:	00080537          	lui	a0,0x80
    1b28:	008005b3          	add	a1,zero,s0
    1b2c:	0bc50513          	addi	a0,a0,188 # 800bc <cst_libm_sincosf+0xbc>
    1b30:	34b020ef          	jal	ra,467a <printf>
    1b34:	ef0fe0ef          	jal	ra,224 <delay_ms.constprop.12>
    1b38:	fff00513          	li	a0,-1
    1b3c:	fa1ff06f          	j	1adc <main+0x638>
    1b40:	000fe537          	lui	a0,0xfe
    1b44:	0c050513          	addi	a0,a0,192 # fe0c0 <_STACK_TOP+0x5e0c0>
    1b48:	fc4ff0ef          	jal	ra,130c <user_calib_adc_vref.constprop.9>
    1b4c:	000fe537          	lui	a0,0xfe
    1b50:	8b9ff0ef          	jal	ra,1408 <user_calib_freq_offset.constprop.8>
    1b54:	c09ff06f          	j	175c <main+0x2b8>
    1b58:	001fe537          	lui	a0,0x1fe
    1b5c:	0c050513          	addi	a0,a0,192 # 1fe0c0 <FLASH_SIZE+0xfe0c0>
    1b60:	facff0ef          	jal	ra,130c <user_calib_adc_vref.constprop.9>
    1b64:	001fe537          	lui	a0,0x1fe
    1b68:	8a1ff0ef          	jal	ra,1408 <user_calib_freq_offset.constprop.8>
    1b6c:	bf1ff06f          	j	175c <main+0x2b8>
    1b70:	0907d25b          	beqc	a5,16,1bf4 <main+0x750>
    1b74:	0717ea5b          	bnec	a5,17,1be8 <main+0x744>
    1b78:	0001e537          	lui	a0,0x1e
    1b7c:	0c050513          	addi	a0,a0,192 # 1e0c0 <BIN_SIZE+0x3386>
    1b80:	f8cff0ef          	jal	ra,130c <user_calib_adc_vref.constprop.9>
    1b84:	0001e537          	lui	a0,0x1e
    1b88:	881ff0ef          	jal	ra,1408 <user_calib_freq_offset.constprop.8>
    1b8c:	bd1ff06f          	j	175c <main+0x2b8>
    1b90:	0007e537          	lui	a0,0x7e
    1b94:	0c050513          	addi	a0,a0,192 # 7e0c0 <BIN_SIZE+0x63386>
    1b98:	f74ff0ef          	jal	ra,130c <user_calib_adc_vref.constprop.9>
    1b9c:	0007e537          	lui	a0,0x7e
    1ba0:	869ff0ef          	jal	ra,1408 <user_calib_freq_offset.constprop.8>
    1ba4:	bb9ff06f          	j	175c <main+0x2b8>
    1ba8:	00100793          	li	a5,1
    1bac:	00f40123          	sb	a5,2(s0)
    1bb0:	c09fe0ef          	jal	ra,7b8 <analog_write_reg8>
    1bb4:	0014e593          	ori	a1,s1,1
    1bb8:	0ff5f593          	andi	a1,a1,255
    1bbc:	03900513          	li	a0,57
    1bc0:	bf9fe0ef          	jal	ra,7b8 <analog_write_reg8>
    1bc4:	a39ff06f          	j	15fc <main+0x158>
    1bc8:	07f00513          	li	a0,127
    1bcc:	c31fe0ef          	jal	ra,7fc <analog_read_reg8>
    1bd0:	018b140b          	addigp	s0,86040 # 95818 <g_pm_status_info>
    1bd4:	0405785b          	bbc	a0,0,1c24 <main+0x780>
    1bd8:	4214fa5b          	bbs	s1,1,1c0c <main+0x768>
    1bdc:	01000793          	li	a5,16
    1be0:	00f40123          	sb	a5,2(s0)
    1be4:	a19ff06f          	j	15fc <main+0x158>
    1be8:	00000513          	li	a0,0
    1bec:	f20ff0ef          	jal	ra,130c <user_calib_adc_vref.constprop.9>
    1bf0:	b6dff06f          	j	175c <main+0x2b8>
    1bf4:	0000e537          	lui	a0,0xe
    1bf8:	0c050513          	addi	a0,a0,192 # e0c0 <_RAMCODE_VMA_END+0x8cf8>
    1bfc:	f10ff0ef          	jal	ra,130c <user_calib_adc_vref.constprop.9>
    1c00:	0000e537          	lui	a0,0xe
    1c04:	805ff0ef          	jal	ra,1408 <user_calib_freq_offset.constprop.8>
    1c08:	b55ff06f          	j	175c <main+0x2b8>
    1c0c:	02000793          	li	a5,32
    1c10:	0fd4f593          	andi	a1,s1,253
    1c14:	03900513          	li	a0,57
    1c18:	00f40123          	sb	a5,2(s0)
    1c1c:	b9dfe0ef          	jal	ra,7b8 <analog_write_reg8>
    1c20:	9ddff06f          	j	15fc <main+0x158>
    1c24:	47a1                	c.li	a5,8
    1c26:	00f40123          	sb	a5,2(s0)
    1c2a:	9d3ff06f          	j	15fc <main+0x158>
    1c2e:	0001                	c.nop

00001c30 <default_irq_entry>:
    1c30:	a001                	c.j	1c30 <default_irq_entry>

00001c32 <trap_handler>:
    1c32:	a001                	c.j	1c32 <trap_handler>
    1c34:	0001                	c.nop
	...

00001c38 <riscv_cmplx_mag_f32>:
    1c38:	7139                	c.addi16sp	sp,-64
    1c3a:	d64e                	c.swsp	s3,44(sp)
    1c3c:	de06                	c.swsp	ra,60(sp)
    1c3e:	00265993          	srli	s3,a2,0x2
    1c42:	dc22                	c.swsp	s0,56(sp)
    1c44:	da26                	c.swsp	s1,52(sp)
    1c46:	d84a                	c.swsp	s2,48(sp)
    1c48:	ee22                	c.fswsp	fs0,28(sp)
    1c4a:	0c098563          	beqz	s3,1d14 <riscv_cmplx_mag_f32+0xdc>
    1c4e:	894e                	c.mv	s2,s3
    1c50:	84ae                	c.mv	s1,a1
    1c52:	842a                	c.mv	s0,a0
    1c54:	f0000453          	fmv.w.x	fs0,zero
    1c58:	605c                	c.flw	fa5,4(s0)
    1c5a:	6008                	c.flw	fa0,0(s0)
    1c5c:	10f7f7d3          	fmul.s	fa5,fa5,fa5
    1c60:	78a57543          	fmadd.s	fa0,fa0,fa0,fa5
    1c64:	a0a407d3          	fle.s	a5,fs0,fa0
    1c68:	0e078e63          	beqz	a5,1d64 <riscv_cmplx_mag_f32+0x12c>
    1c6c:	00102773          	frflags	a4
    1c70:	a08517d3          	flt.s	a5,fa0,fs0
    1c74:	00171073          	fsflags	a4
    1c78:	16079863          	bnez	a5,1de8 <riscv_cmplx_mag_f32+0x1b0>
    1c7c:	58057553          	fsqrt.s	fa0,fa0
    1c80:	e088                	c.fsw	fa0,0(s1)
    1c82:	645c                	c.flw	fa5,12(s0)
    1c84:	6408                	c.flw	fa0,8(s0)
    1c86:	10f7f7d3          	fmul.s	fa5,fa5,fa5
    1c8a:	78a57543          	fmadd.s	fa0,fa0,fa0,fa5
    1c8e:	a0a407d3          	fle.s	a5,fs0,fa0
    1c92:	c7ed                	c.beqz	a5,1d7c <riscv_cmplx_mag_f32+0x144>
    1c94:	00102773          	frflags	a4
    1c98:	a08517d3          	flt.s	a5,fa0,fs0
    1c9c:	00171073          	fsflags	a4
    1ca0:	12079a63          	bnez	a5,1dd4 <riscv_cmplx_mag_f32+0x19c>
    1ca4:	58057553          	fsqrt.s	fa0,fa0
    1ca8:	e0c8                	c.fsw	fa0,4(s1)
    1caa:	685c                	c.flw	fa5,20(s0)
    1cac:	6808                	c.flw	fa0,16(s0)
    1cae:	10f7f7d3          	fmul.s	fa5,fa5,fa5
    1cb2:	78a57543          	fmadd.s	fa0,fa0,fa0,fa5
    1cb6:	a0a407d3          	fle.s	a5,fs0,fa0
    1cba:	cfe9                	c.beqz	a5,1d94 <riscv_cmplx_mag_f32+0x15c>
    1cbc:	00102773          	frflags	a4
    1cc0:	a08517d3          	flt.s	a5,fa0,fs0
    1cc4:	00171073          	fsflags	a4
    1cc8:	0e079263          	bnez	a5,1dac <riscv_cmplx_mag_f32+0x174>
    1ccc:	58057553          	fsqrt.s	fa0,fa0
    1cd0:	02040413          	addi	s0,s0,32
    1cd4:	e488                	c.fsw	fa0,8(s1)
    1cd6:	ffc42787          	flw	fa5,-4(s0)
    1cda:	ff842507          	flw	fa0,-8(s0)
    1cde:	04c1                	c.addi	s1,16
    1ce0:	10f7f7d3          	fmul.s	fa5,fa5,fa5
    1ce4:	78a57543          	fmadd.s	fa0,fa0,fa0,fa5
    1ce8:	a0a407d3          	fle.s	a5,fs0,fa0
    1cec:	cbc5                	c.beqz	a5,1d9c <riscv_cmplx_mag_f32+0x164>
    1cee:	00102773          	frflags	a4
    1cf2:	a08517d3          	flt.s	a5,fa0,fs0
    1cf6:	00171073          	fsflags	a4
    1cfa:	e3f9                	c.bnez	a5,1dc0 <riscv_cmplx_mag_f32+0x188>
    1cfc:	58057553          	fsqrt.s	fa0,fa0
    1d00:	197d                	c.addi	s2,-1
    1d02:	fea4ae27          	fsw	fa0,-4(s1)
    1d06:	f40919e3          	bnez	s2,1c58 <riscv_cmplx_mag_f32+0x20>
    1d0a:	00599793          	slli	a5,s3,0x5
    1d0e:	0992                	c.slli	s3,0x4
    1d10:	953e                	c.add	a0,a5
    1d12:	95ce                	c.add	a1,s3
    1d14:	8a0d                	c.andi	a2,3
    1d16:	ce1d                	c.beqz	a2,1d54 <riscv_cmplx_mag_f32+0x11c>
    1d18:	060e                	c.slli	a2,0x3
    1d1a:	962a                	c.add	a2,a0
    1d1c:	f0000453          	fmv.w.x	fs0,zero
    1d20:	6108                	c.flw	fa0,0(a0)
    1d22:	0591                	c.addi	a1,4
    1d24:	0521                	c.addi	a0,8
    1d26:	ffc52787          	flw	fa5,-4(a0) # dffc <_RAMCODE_VMA_END+0x8c34>
    1d2a:	10f7f7d3          	fmul.s	fa5,fa5,fa5
    1d2e:	78a57543          	fmadd.s	fa0,fa0,fa0,fa5
    1d32:	a0a407d3          	fle.s	a5,fs0,fa0
    1d36:	001026f3          	frflags	a3
    1d3a:	a0851753          	flt.s	a4,fa0,fs0
    1d3e:	00169073          	fsflags	a3
    1d42:	c3ad                	c.beqz	a5,1da4 <riscv_cmplx_mag_f32+0x16c>
    1d44:	0a071c63          	bnez	a4,1dfc <riscv_cmplx_mag_f32+0x1c4>
    1d48:	58057553          	fsqrt.s	fa0,fa0
    1d4c:	fea5ae27          	fsw	fa0,-4(a1) # 9ffc <_RAMCODE_VMA_END+0x4c34>
    1d50:	fcc518e3          	bne	a0,a2,1d20 <riscv_cmplx_mag_f32+0xe8>
    1d54:	50f2                	c.lwsp	ra,60(sp)
    1d56:	5462                	c.lwsp	s0,56(sp)
    1d58:	6472                	c.flwsp	fs0,28(sp)
    1d5a:	54d2                	c.lwsp	s1,52(sp)
    1d5c:	5942                	c.lwsp	s2,48(sp)
    1d5e:	59b2                	c.lwsp	s3,44(sp)
    1d60:	6121                	c.addi16sp	sp,64
    1d62:	8082                	c.jr	ra
    1d64:	f0000553          	fmv.w.x	fa0,zero
    1d68:	e088                	c.fsw	fa0,0(s1)
    1d6a:	645c                	c.flw	fa5,12(s0)
    1d6c:	6408                	c.flw	fa0,8(s0)
    1d6e:	10f7f7d3          	fmul.s	fa5,fa5,fa5
    1d72:	78a57543          	fmadd.s	fa0,fa0,fa0,fa5
    1d76:	a0a407d3          	fle.s	a5,fs0,fa0
    1d7a:	ff89                	c.bnez	a5,1c94 <riscv_cmplx_mag_f32+0x5c>
    1d7c:	f0000553          	fmv.w.x	fa0,zero
    1d80:	e0c8                	c.fsw	fa0,4(s1)
    1d82:	685c                	c.flw	fa5,20(s0)
    1d84:	6808                	c.flw	fa0,16(s0)
    1d86:	10f7f7d3          	fmul.s	fa5,fa5,fa5
    1d8a:	78a57543          	fmadd.s	fa0,fa0,fa0,fa5
    1d8e:	a0a407d3          	fle.s	a5,fs0,fa0
    1d92:	f78d                	c.bnez	a5,1cbc <riscv_cmplx_mag_f32+0x84>
    1d94:	f0000553          	fmv.w.x	fa0,zero
    1d98:	f39ff06f          	j	1cd0 <riscv_cmplx_mag_f32+0x98>
    1d9c:	f0000553          	fmv.w.x	fa0,zero
    1da0:	f61ff06f          	j	1d00 <riscv_cmplx_mag_f32+0xc8>
    1da4:	f0000553          	fmv.w.x	fa0,zero
    1da8:	fa5ff06f          	j	1d4c <riscv_cmplx_mag_f32+0x114>
    1dac:	c632                	c.swsp	a2,12(sp)
    1dae:	c42e                	c.swsp	a1,8(sp)
    1db0:	00a12223          	sw	a0,4(sp)
    1db4:	028010ef          	jal	ra,2ddc <sqrtf>
    1db8:	4512                	c.lwsp	a0,4(sp)
    1dba:	45a2                	c.lwsp	a1,8(sp)
    1dbc:	4632                	c.lwsp	a2,12(sp)
    1dbe:	bf09                	c.j	1cd0 <riscv_cmplx_mag_f32+0x98>
    1dc0:	c632                	c.swsp	a2,12(sp)
    1dc2:	c42e                	c.swsp	a1,8(sp)
    1dc4:	00a12223          	sw	a0,4(sp)
    1dc8:	014010ef          	jal	ra,2ddc <sqrtf>
    1dcc:	4512                	c.lwsp	a0,4(sp)
    1dce:	45a2                	c.lwsp	a1,8(sp)
    1dd0:	4632                	c.lwsp	a2,12(sp)
    1dd2:	b73d                	c.j	1d00 <riscv_cmplx_mag_f32+0xc8>
    1dd4:	c632                	c.swsp	a2,12(sp)
    1dd6:	c42e                	c.swsp	a1,8(sp)
    1dd8:	00a12223          	sw	a0,4(sp)
    1ddc:	000010ef          	jal	ra,2ddc <sqrtf>
    1de0:	4512                	c.lwsp	a0,4(sp)
    1de2:	45a2                	c.lwsp	a1,8(sp)
    1de4:	4632                	c.lwsp	a2,12(sp)
    1de6:	b5c9                	c.j	1ca8 <riscv_cmplx_mag_f32+0x70>
    1de8:	c632                	c.swsp	a2,12(sp)
    1dea:	c42e                	c.swsp	a1,8(sp)
    1dec:	00a12223          	sw	a0,4(sp)
    1df0:	7ed000ef          	jal	ra,2ddc <sqrtf>
    1df4:	4512                	c.lwsp	a0,4(sp)
    1df6:	45a2                	c.lwsp	a1,8(sp)
    1df8:	4632                	c.lwsp	a2,12(sp)
    1dfa:	b559                	c.j	1c80 <riscv_cmplx_mag_f32+0x48>
    1dfc:	c62e                	c.swsp	a1,12(sp)
    1dfe:	c42a                	c.swsp	a0,8(sp)
    1e00:	00c12223          	sw	a2,4(sp)
    1e04:	7d9000ef          	jal	ra,2ddc <sqrtf>
    1e08:	4612                	c.lwsp	a2,4(sp)
    1e0a:	4522                	c.lwsp	a0,8(sp)
    1e0c:	45b2                	c.lwsp	a1,12(sp)
    1e0e:	bf3d                	c.j	1d4c <riscv_cmplx_mag_f32+0x114>

00001e10 <riscv_cfft_init_4096_f32>:
    1e10:	a1418793          	addi	a5,gp,-1516 # 80214 <riscv_cfft_sR_f32_len4096>
    1e14:	00c7d683          	lhu	a3,12(a5)
    1e18:	4798                	c.lw	a4,8(a5)
    1e1a:	43dc                	c.lw	a5,4(a5)
    1e1c:	6605                	c.lui	a2,0x1
    1e1e:	00c51023          	sh	a2,0(a0)
    1e22:	00d51623          	sh	a3,12(a0)
    1e26:	c15c                	c.sw	a5,4(a0)
    1e28:	c518                	c.sw	a4,8(a0)
    1e2a:	4501                	c.li	a0,0
    1e2c:	8082                	c.jr	ra
	...

00001e30 <riscv_cfft_init_2048_f32>:
    1e30:	a2418793          	addi	a5,gp,-1500 # 80224 <riscv_cfft_sR_f32_len2048>
    1e34:	00c7d683          	lhu	a3,12(a5)
    1e38:	4798                	c.lw	a4,8(a5)
    1e3a:	6605                	c.lui	a2,0x1
    1e3c:	43dc                	c.lw	a5,4(a5)
    1e3e:	80060613          	addi	a2,a2,-2048 # 800 <analog_read_reg8+0x4>
    1e42:	00c51023          	sh	a2,0(a0)
    1e46:	00d51623          	sh	a3,12(a0)
    1e4a:	c15c                	c.sw	a5,4(a0)
    1e4c:	c518                	c.sw	a4,8(a0)
    1e4e:	4501                	c.li	a0,0
    1e50:	8082                	c.jr	ra
	...

00001e54 <riscv_cfft_init_1024_f32>:
    1e54:	a3418793          	addi	a5,gp,-1484 # 80234 <riscv_cfft_sR_f32_len1024>
    1e58:	00c7d683          	lhu	a3,12(a5)
    1e5c:	4798                	c.lw	a4,8(a5)
    1e5e:	43dc                	c.lw	a5,4(a5)
    1e60:	40000613          	li	a2,1024
    1e64:	00c51023          	sh	a2,0(a0)
    1e68:	00d51623          	sh	a3,12(a0)
    1e6c:	c15c                	c.sw	a5,4(a0)
    1e6e:	c518                	c.sw	a4,8(a0)
    1e70:	4501                	c.li	a0,0
    1e72:	8082                	c.jr	ra

00001e74 <riscv_cfft_init_512_f32>:
    1e74:	a4418793          	addi	a5,gp,-1468 # 80244 <riscv_cfft_sR_f32_len512>
    1e78:	00c7d683          	lhu	a3,12(a5)
    1e7c:	4798                	c.lw	a4,8(a5)
    1e7e:	43dc                	c.lw	a5,4(a5)
    1e80:	20000613          	li	a2,512
    1e84:	00c51023          	sh	a2,0(a0)
    1e88:	00d51623          	sh	a3,12(a0)
    1e8c:	c15c                	c.sw	a5,4(a0)
    1e8e:	c518                	c.sw	a4,8(a0)
    1e90:	4501                	c.li	a0,0
    1e92:	8082                	c.jr	ra

00001e94 <riscv_cfft_init_256_f32>:
    1e94:	a5418793          	addi	a5,gp,-1452 # 80254 <riscv_cfft_sR_f32_len256>
    1e98:	00c7d683          	lhu	a3,12(a5)
    1e9c:	4798                	c.lw	a4,8(a5)
    1e9e:	43dc                	c.lw	a5,4(a5)
    1ea0:	10000613          	li	a2,256
    1ea4:	00c51023          	sh	a2,0(a0)
    1ea8:	00d51623          	sh	a3,12(a0)
    1eac:	c15c                	c.sw	a5,4(a0)
    1eae:	c518                	c.sw	a4,8(a0)
    1eb0:	4501                	c.li	a0,0
    1eb2:	8082                	c.jr	ra

00001eb4 <riscv_cfft_init_128_f32>:
    1eb4:	a6418793          	addi	a5,gp,-1436 # 80264 <riscv_cfft_sR_f32_len128>
    1eb8:	00c7d683          	lhu	a3,12(a5)
    1ebc:	4798                	c.lw	a4,8(a5)
    1ebe:	43dc                	c.lw	a5,4(a5)
    1ec0:	08000613          	li	a2,128
    1ec4:	00c51023          	sh	a2,0(a0)
    1ec8:	00d51623          	sh	a3,12(a0)
    1ecc:	c15c                	c.sw	a5,4(a0)
    1ece:	c518                	c.sw	a4,8(a0)
    1ed0:	4501                	c.li	a0,0
    1ed2:	8082                	c.jr	ra

00001ed4 <riscv_cfft_init_64_f32>:
    1ed4:	a7418793          	addi	a5,gp,-1420 # 80274 <riscv_cfft_sR_f32_len64>
    1ed8:	00c7d683          	lhu	a3,12(a5)
    1edc:	4798                	c.lw	a4,8(a5)
    1ede:	43dc                	c.lw	a5,4(a5)
    1ee0:	04000613          	li	a2,64
    1ee4:	00c51023          	sh	a2,0(a0)
    1ee8:	00d51623          	sh	a3,12(a0)
    1eec:	c15c                	c.sw	a5,4(a0)
    1eee:	c518                	c.sw	a4,8(a0)
    1ef0:	4501                	c.li	a0,0
    1ef2:	8082                	c.jr	ra

00001ef4 <riscv_cfft_init_32_f32>:
    1ef4:	a8418793          	addi	a5,gp,-1404 # 80284 <riscv_cfft_sR_f32_len32>
    1ef8:	00c7d683          	lhu	a3,12(a5)
    1efc:	4798                	c.lw	a4,8(a5)
    1efe:	43dc                	c.lw	a5,4(a5)
    1f00:	02000613          	li	a2,32
    1f04:	00c51023          	sh	a2,0(a0)
    1f08:	00d51623          	sh	a3,12(a0)
    1f0c:	c15c                	c.sw	a5,4(a0)
    1f0e:	c518                	c.sw	a4,8(a0)
    1f10:	4501                	c.li	a0,0
    1f12:	8082                	c.jr	ra

00001f14 <riscv_cfft_init_16_f32>:
    1f14:	a9418793          	addi	a5,gp,-1388 # 80294 <riscv_cfft_sR_f32_len16>
    1f18:	00c7d683          	lhu	a3,12(a5)
    1f1c:	4798                	c.lw	a4,8(a5)
    1f1e:	43dc                	c.lw	a5,4(a5)
    1f20:	4641                	c.li	a2,16
    1f22:	00c51023          	sh	a2,0(a0)
    1f26:	00d51623          	sh	a3,12(a0)
    1f2a:	c15c                	c.sw	a5,4(a0)
    1f2c:	c518                	c.sw	a4,8(a0)
    1f2e:	4501                	c.li	a0,0
    1f30:	8082                	c.jr	ra
	...

00001f34 <riscv_cfft_init_f32>:
    1f34:	10000793          	li	a5,256
    1f38:	04f58e63          	beq	a1,a5,1f94 <riscv_cfft_init_f32+0x60>
    1f3c:	00b7fe63          	bgeu	a5,a1,1f58 <riscv_cfft_init_f32+0x24>
    1f40:	80058793          	addi	a5,a1,-2048
    1f44:	cbb1                	c.beqz	a5,1f98 <riscv_cfft_init_f32+0x64>
    1f46:	6705                	c.lui	a4,0x1
    1f48:	80070713          	addi	a4,a4,-2048 # 800 <analog_read_reg8+0x4>
    1f4c:	6785                	c.lui	a5,0x1
    1f4e:	02b77163          	bgeu	a4,a1,1f70 <riscv_cfft_init_f32+0x3c>
    1f52:	04f59563          	bne	a1,a5,1f9c <riscv_cfft_init_f32+0x68>
    1f56:	bd6d                	c.j	1e10 <riscv_cfft_init_4096_f32>
    1f58:	04000793          	li	a5,64
    1f5c:	04f58263          	beq	a1,a5,1fa0 <riscv_cfft_init_f32+0x6c>
    1f60:	02b7f263          	bgeu	a5,a1,1f84 <riscv_cfft_init_f32+0x50>
    1f64:	08000793          	li	a5,128
    1f68:	02f59a63          	bne	a1,a5,1f9c <riscv_cfft_init_f32+0x68>
    1f6c:	f49ff06f          	j	1eb4 <riscv_cfft_init_128_f32>
    1f70:	20000793          	li	a5,512
    1f74:	02f58863          	beq	a1,a5,1fa4 <riscv_cfft_init_f32+0x70>
    1f78:	40000793          	li	a5,1024
    1f7c:	02f59063          	bne	a1,a5,1f9c <riscv_cfft_init_f32+0x68>
    1f80:	ed5ff06f          	j	1e54 <riscv_cfft_init_1024_f32>
    1f84:	47c1                	c.li	a5,16
    1f86:	02f58163          	beq	a1,a5,1fa8 <riscv_cfft_init_f32+0x74>
    1f8a:	02000793          	li	a5,32
    1f8e:	00f59763          	bne	a1,a5,1f9c <riscv_cfft_init_f32+0x68>
    1f92:	b78d                	c.j	1ef4 <riscv_cfft_init_32_f32>
    1f94:	f01ff06f          	j	1e94 <riscv_cfft_init_256_f32>
    1f98:	e99ff06f          	j	1e30 <riscv_cfft_init_2048_f32>
    1f9c:	557d                	c.li	a0,-1
    1f9e:	8082                	c.jr	ra
    1fa0:	f35ff06f          	j	1ed4 <riscv_cfft_init_64_f32>
    1fa4:	ed1ff06f          	j	1e74 <riscv_cfft_init_512_f32>
    1fa8:	b7b5                	c.j	1f14 <riscv_cfft_init_16_f32>
	...

00001fac <riscv_cfft_f32>:
    1fac:	7159                	c.addi16sp	sp,-112
    1fae:	d4a2                	c.swsp	s0,104(sp)
    1fb0:	d2a6                	c.swsp	s1,100(sp)
    1fb2:	d0ca                	c.swsp	s2,96(sp)
    1fb4:	cece                	c.swsp	s3,92(sp)
    1fb6:	ccd2                	c.swsp	s4,88(sp)
    1fb8:	4785                	c.li	a5,1
    1fba:	d686                	c.swsp	ra,108(sp)
    1fbc:	cad6                	c.swsp	s5,84(sp)
    1fbe:	c8da                	c.swsp	s6,80(sp)
    1fc0:	c6de                	c.swsp	s7,76(sp)
    1fc2:	c4e2                	c.swsp	s8,72(sp)
    1fc4:	c2e6                	c.swsp	s9,68(sp)
    1fc6:	c0ea                	c.swsp	s10,64(sp)
    1fc8:	de6e                	c.swsp	s11,60(sp)
    1fca:	f622                	c.fswsp	fs0,44(sp)
    1fcc:	f426                	c.fswsp	fs1,40(sp)
    1fce:	f24a                	c.fswsp	fs2,36(sp)
    1fd0:	f04e                	c.fswsp	fs3,32(sp)
    1fd2:	ee52                	c.fswsp	fs4,28(sp)
    1fd4:	ec56                	c.fswsp	fs5,24(sp)
    1fd6:	00055483          	lhu	s1,0(a0)
    1fda:	89aa                	c.mv	s3,a0
    1fdc:	8a32                	c.mv	s4,a2
    1fde:	842e                	c.mv	s0,a1
    1fe0:	00d00933          	add	s2,zero,a3
    1fe4:	62f60863          	beq	a2,a5,2614 <riscv_cfft_f32+0x668>
    1fe8:	10000793          	li	a5,256
    1fec:	1ef48263          	beq	s1,a5,21d0 <riscv_cfft_f32+0x224>
    1ff0:	1a97e263          	bltu	a5,s1,2194 <riscv_cfft_f32+0x1e8>
    1ff4:	04000793          	li	a5,64
    1ff8:	1af48a63          	beq	s1,a5,21ac <riscv_cfft_f32+0x200>
    1ffc:	1c97f263          	bgeu	a5,s1,21c0 <riscv_cfft_f32+0x214>
    2000:	08000793          	li	a5,128
    2004:	5af49c63          	bne	s1,a5,25bc <riscv_cfft_f32+0x610>
    2008:	00249a93          	slli	s5,s1,0x2
    200c:	0014d593          	srli	a1,s1,0x1
    2010:	9aa2                	c.add	s5,s0
    2012:	00259713          	slli	a4,a1,0x2
    2016:	0049a603          	lw	a2,4(s3)
    201a:	0034d893          	srli	a7,s1,0x3
    201e:	00ea87b3          	add	a5,s5,a4
    2022:	0892                	c.slli	a7,0x4
    2024:	9722                	c.add	a4,s0
    2026:	98be                	c.add	a7,a5
    2028:	8832                	c.mv	a6,a2
    202a:	8556                	c.mv	a0,s5
    202c:	008006b3          	add	a3,zero,s0
    2030:	00052887          	flw	fa7,0(a0)
    2034:	0006a107          	flw	ft2,0(a3)
    2038:	00452807          	flw	fa6,4(a0)
    203c:	0046a087          	flw	ft1,4(a3)
    2040:	01117ed3          	fadd.s	ft9,ft2,fa7
    2044:	6548                	c.flw	fa0,12(a0)
    2046:	0100fe53          	fadd.s	ft8,ft1,fa6
    204a:	00852387          	flw	ft7,8(a0)
    204e:	6690                	c.flw	fa2,8(a3)
    2050:	66d4                	c.flw	fa3,12(a3)
    2052:	0007a007          	flw	ft0,0(a5) # 1000 <__vectors>
    2056:	00072187          	flw	ft3,0(a4)
    205a:	06c1                	c.addi	a3,16
    205c:	63cc                	c.flw	fa1,4(a5)
    205e:	6798                	c.flw	fa4,8(a5)
    2060:	67dc                	c.flw	fa5,12(a5)
    2062:	00472207          	flw	ft4,4(a4)
    2066:	00872287          	flw	ft5,8(a4)
    206a:	00c72307          	flw	ft6,12(a4)
    206e:	00767f53          	fadd.s	ft10,fa2,ft7
    2072:	ffd6a827          	fsw	ft9,-16(a3)
    2076:	00a6fed3          	fadd.s	ft9,fa3,fa0
    207a:	ffc6aa27          	fsw	ft8,-12(a3)
    207e:	0001fe53          	fadd.s	ft8,ft3,ft0
    2082:	ffe6ac27          	fsw	ft10,-8(a3)
    2086:	0741                	c.addi	a4,16
    2088:	ffd6ae27          	fsw	ft9,-4(a3)
    208c:	00b27f53          	fadd.s	ft10,ft4,fa1
    2090:	ffc72827          	fsw	ft8,-16(a4)
    2094:	00e2fed3          	fadd.s	ft9,ft5,fa4
    2098:	0541                	c.addi	a0,16
    209a:	00f37e53          	fadd.s	ft8,ft6,fa5
    209e:	ffe72a27          	fsw	ft10,-12(a4)
    20a2:	09117153          	fsub.s	ft2,ft2,fa7
    20a6:	ffd72c27          	fsw	ft9,-8(a4)
    20aa:	0900f0d3          	fsub.s	ft1,ft1,fa6
    20ae:	ffc72e27          	fsw	ft8,-4(a4)
    20b2:	08307053          	fsub.s	ft0,ft0,ft3
    20b6:	00482187          	flw	ft3,4(a6)
    20ba:	0845f5d3          	fsub.s	fa1,fa1,ft4
    20be:	00082207          	flw	ft4,0(a6)
    20c2:	10317e53          	fmul.s	ft8,ft2,ft3
    20c6:	07c1                	c.addi	a5,16
    20c8:	1030fed3          	fmul.s	ft9,ft1,ft3
    20cc:	0841                	c.addi	a6,16
    20ce:	10407853          	fmul.s	fa6,ft0,ft4
    20d2:	1045f8d3          	fmul.s	fa7,fa1,ft4
    20d6:	e8417143          	fmadd.s	ft2,ft2,ft4,ft9
    20da:	e040f0c7          	fmsub.s	ft1,ft1,ft4,ft8
    20de:	88307047          	fmsub.s	ft0,ft0,ft3,fa7
    20e2:	fe252827          	fsw	ft2,-16(a0)
    20e6:	8035f5c3          	fmadd.s	fa1,fa1,ft3,fa6
    20ea:	fe152a27          	fsw	ft1,-12(a0)
    20ee:	08a6f6d3          	fsub.s	fa3,fa3,fa0
    20f2:	fe07a827          	fsw	ft0,-16(a5)
    20f6:	08767653          	fsub.s	fa2,fa2,ft7
    20fa:	feb7aa27          	fsw	fa1,-12(a5)
    20fe:	0867f7d3          	fsub.s	fa5,fa5,ft6
    2102:	ffc82587          	flw	fa1,-4(a6)
    2106:	08577753          	fsub.s	fa4,fa4,ft5
    210a:	ff882507          	flw	fa0,-8(a6)
    210e:	10b67153          	fmul.s	ft2,fa2,fa1
    2112:	10b6f1d3          	fmul.s	ft3,fa3,fa1
    2116:	10a7f0d3          	fmul.s	ft1,fa5,fa0
    211a:	10a77053          	fmul.s	ft0,fa4,fa0
    211e:	18a67643          	fmadd.s	fa2,fa2,fa0,ft3
    2122:	10a6f547          	fmsub.s	fa0,fa3,fa0,ft2
    2126:	08b77747          	fmsub.s	fa4,fa4,fa1,ft1
    212a:	fec52c27          	fsw	fa2,-8(a0)
    212e:	00b7f7c3          	fmadd.s	fa5,fa5,fa1,ft0
    2132:	fea52e27          	fsw	fa0,-4(a0)
    2136:	fee7ac27          	fsw	fa4,-8(a5)
    213a:	fef7ae27          	fsw	fa5,-4(a5)
    213e:	ef1799e3          	bne	a5,a7,2030 <riscv_cfft_f32+0x84>
    2142:	05c2                	c.slli	a1,0x10
    2144:	81c1                	c.srli	a1,0x10
    2146:	8522                	c.mv	a0,s0
    2148:	4689                	c.li	a3,2
    214a:	c22e                	c.swsp	a1,4(sp)
    214c:	508000ef          	jal	ra,2654 <riscv_radix8_butterfly_f32>
    2150:	0049a603          	lw	a2,4(s3)
    2154:	4592                	c.lwsp	a1,4(sp)
    2156:	4689                	c.li	a3,2
    2158:	8556                	c.mv	a0,s5
    215a:	29ed                	c.jal	2654 <riscv_radix8_butterfly_f32>
    215c:	4a091263          	bnez	s2,2600 <riscv_cfft_f32+0x654>
    2160:	00100793          	li	a5,1
    2164:	4cfa0e63          	beq	s4,a5,2640 <riscv_cfft_f32+0x694>
    2168:	50b6                	c.lwsp	ra,108(sp)
    216a:	5426                	c.lwsp	s0,104(sp)
    216c:	7432                	c.flwsp	fs0,44(sp)
    216e:	74a2                	c.flwsp	fs1,40(sp)
    2170:	7912                	c.flwsp	fs2,36(sp)
    2172:	7982                	c.flwsp	fs3,32(sp)
    2174:	6a72                	c.flwsp	fs4,28(sp)
    2176:	6ae2                	c.flwsp	fs5,24(sp)
    2178:	5496                	c.lwsp	s1,100(sp)
    217a:	5906                	c.lwsp	s2,96(sp)
    217c:	49f6                	c.lwsp	s3,92(sp)
    217e:	4a66                	c.lwsp	s4,88(sp)
    2180:	4ad6                	c.lwsp	s5,84(sp)
    2182:	4b46                	c.lwsp	s6,80(sp)
    2184:	4bb6                	c.lwsp	s7,76(sp)
    2186:	4c26                	c.lwsp	s8,72(sp)
    2188:	4c96                	c.lwsp	s9,68(sp)
    218a:	4d06                	c.lwsp	s10,64(sp)
    218c:	5df2                	c.lwsp	s11,60(sp)
    218e:	6165                	c.addi16sp	sp,112
    2190:	00008067          	ret
    2194:	80048793          	addi	a5,s1,-2048
    2198:	cf85                	c.beqz	a5,21d0 <riscv_cfft_f32+0x224>
    219a:	6705                	c.lui	a4,0x1
    219c:	80070713          	addi	a4,a4,-2048 # 800 <analog_read_reg8+0x4>
    21a0:	000017b7          	lui	a5,0x1
    21a4:	40977463          	bgeu	a4,s1,25ac <riscv_cfft_f32+0x600>
    21a8:	40f49a63          	bne	s1,a5,25bc <riscv_cfft_f32+0x610>
    21ac:	0049a603          	lw	a2,4(s3)
    21b0:	4685                	c.li	a3,1
    21b2:	85a6                	c.mv	a1,s1
    21b4:	8522                	c.mv	a0,s0
    21b6:	2979                	c.jal	2654 <riscv_radix8_butterfly_f32>
    21b8:	fa0904e3          	beqz	s2,2160 <riscv_cfft_f32+0x1b4>
    21bc:	4440006f          	j	2600 <riscv_cfft_f32+0x654>
    21c0:	01000793          	li	a5,16
    21c4:	e4f482e3          	beq	s1,a5,2008 <riscv_cfft_f32+0x5c>
    21c8:	02000793          	li	a5,32
    21cc:	f8f498e3          	bne	s1,a5,215c <riscv_cfft_f32+0x1b0>
    21d0:	0014d793          	srli	a5,s1,0x1
    21d4:	00279713          	slli	a4,a5,0x2
    21d8:	00e40b33          	add	s6,s0,a4
    21dc:	00eb0ab3          	add	s5,s6,a4
    21e0:	000aa687          	flw	fa3,0(s5)
    21e4:	6018                	c.flw	fa4,0(s0)
    21e6:	000b2007          	flw	ft0,0(s6)
    21ea:	00ea8bb3          	add	s7,s5,a4
    21ee:	00d77653          	fadd.s	fa2,fa4,fa3
    21f2:	000ba507          	flw	fa0,0(s7)
    21f6:	004aa107          	flw	ft2,4(s5)
    21fa:	605c                	c.flw	fa5,4(s0)
    21fc:	08d77753          	fsub.s	fa4,fa4,fa3
    2200:	0049a603          	lw	a2,4(s3)
    2204:	000675d3          	fadd.s	fa1,fa2,ft0
    2208:	004b2207          	flw	ft4,4(s6)
    220c:	0027f6d3          	fadd.s	fa3,fa5,ft2
    2210:	004ba087          	flw	ft1,4(s7)
    2214:	0827f7d3          	fsub.s	fa5,fa5,ft2
    2218:	8385                	c.srli	a5,0x1
    221a:	00a5f5d3          	fadd.s	fa1,fa1,fa0
    221e:	ffe78d93          	addi	s11,a5,-2 # ffe <trap_entry+0x126>
    2222:	004771d3          	fadd.s	ft3,fa4,ft4
    2226:	001ddd93          	srli	s11,s11,0x1
    222a:	0807f153          	fsub.s	ft2,fa5,ft0
    222e:	e00c                	c.fsw	fa1,0(s0)
    2230:	004b2587          	flw	fa1,4(s6)
    2234:	004ba287          	flw	ft5,4(s7)
    2238:	08067653          	fsub.s	fa2,fa2,ft0
    223c:	41b000b3          	neg	ra,s11
    2240:	00b6f5d3          	fadd.s	fa1,fa3,fa1
    2244:	008e                	c.slli	ra,0x3
    2246:	0846f6d3          	fsub.s	fa3,fa3,ft4
    224a:	ffcb8513          	addi	a0,s7,-4
    224e:	08477753          	fsub.s	fa4,fa4,ft4
    2252:	00840c93          	addi	s9,s0,8
    2256:	0007f7d3          	fadd.s	fa5,fa5,ft0
    225a:	008b0393          	addi	t2,s6,8
    225e:	0055f5d3          	fadd.s	fa1,fa1,ft5
    2262:	008a8c13          	addi	s8,s5,8
    2266:	0811f1d3          	fsub.s	ft3,ft3,ft1
    226a:	008b8293          	addi	t0,s7,8
    226e:	00a17153          	fadd.s	ft2,ft2,fa0
    2272:	e04c                	c.fsw	fa1,4(s0)
    2274:	08a67653          	fsub.s	fa2,fa2,fa0
    2278:	003b2027          	fsw	ft3,0(s6)
    227c:	0816f6d3          	fsub.s	fa3,fa3,ft1
    2280:	002b2227          	fsw	ft2,4(s6)
    2284:	00177753          	fadd.s	fa4,fa4,ft1
    2288:	00860d13          	addi	s10,a2,8
    228c:	08a7f7d3          	fsub.s	fa5,fa5,fa0
    2290:	ffc08f93          	addi	t6,ra,-4
    2294:	00caa027          	fsw	fa2,0(s5)
    2298:	00daa227          	fsw	fa3,4(s5)
    229c:	01060e93          	addi	t4,a2,16
    22a0:	01860f13          	addi	t5,a2,24
    22a4:	c23e                	c.swsp	a5,4(sp)
    22a6:	ffcb0313          	addi	t1,s6,-4
    22aa:	ffca8793          	addi	a5,s5,-4
    22ae:	972a                	c.add	a4,a0
    22b0:	9fd6                	c.add	t6,s5
    22b2:	8e6a                	c.mv	t3,s10
    22b4:	8596                	c.mv	a1,t0
    22b6:	869e                	c.mv	a3,t2
    22b8:	88e2                	c.mv	a7,s8
    22ba:	8866                	c.mv	a6,s9
    22bc:	c476                	c.swsp	t4,8(sp)
    22be:	c67a                	c.swsp	t5,12(sp)
    22c0:	00eba027          	fsw	fa4,0(s7)
    22c4:	00fba227          	fsw	fa5,4(s7)
    22c8:	0008a607          	flw	fa2,0(a7)
    22cc:	00082707          	flw	fa4,0(a6)
    22d0:	0006ae07          	flw	ft8,0(a3)
    22d4:	6188                	c.flw	fa0,0(a1)
    22d6:	00c771d3          	fadd.s	ft3,fa4,fa2
    22da:	0048a587          	flw	fa1,4(a7)
    22de:	00482787          	flw	fa5,4(a6)
    22e2:	62c0                	c.flw	fs0,4(a3)
    22e4:	0821                	c.addi	a6,8
    22e6:	01c1f6d3          	fadd.s	fa3,ft3,ft8
    22ea:	06a1                	c.addi	a3,8
    22ec:	00b7f053          	fadd.s	ft0,fa5,fa1
    22f0:	0045af07          	flw	ft10,4(a1)
    22f4:	08b7f5d3          	fsub.s	fa1,fa5,fa1
    22f8:	1361                	c.addi	t1,-8
    22fa:	00a6f6d3          	fadd.s	fa3,fa3,fa0
    22fe:	1561                	c.addi	a0,-8
    2300:	17e1                	c.addi	a5,-8
    2302:	1761                	c.addi	a4,-8
    2304:	08c77653          	fsub.s	fa2,fa4,fa2
    2308:	fed82c27          	fsw	fa3,-8(a6)
    230c:	ffc6a687          	flw	fa3,-4(a3)
    2310:	61dc                	c.flw	fa5,4(a1)
    2312:	09c5f853          	fsub.s	fa6,fa1,ft8
    2316:	0e21                	c.addi	t3,8
    2318:	00d076d3          	fadd.s	fa3,ft0,fa3
    231c:	0ec1                	c.addi	t4,16
    231e:	008678d3          	fadd.s	fa7,fa2,fs0
    2322:	08a1                	c.addi	a7,8
    2324:	00a87853          	fadd.s	fa6,fa6,fa0
    2328:	0f61                	c.addi	t5,24
    232a:	00f6f6d3          	fadd.s	fa3,fa3,fa5
    232e:	05a1                	c.addi	a1,8
    2330:	09e8f8d3          	fsub.s	fa7,fa7,ft10
    2334:	08807053          	fsub.s	ft0,ft0,fs0
    2338:	fed82e27          	fsw	fa3,-4(a6)
    233c:	00852287          	flw	ft5,8(a0)
    2340:	00832087          	flw	ft1,8(t1)
    2344:	0087ae87          	flw	ft9,8(a5)
    2348:	6704                	c.flw	fs1,8(a4)
    234a:	0050f6d3          	fadd.s	fa3,ft1,ft5
    234e:	00452307          	flw	ft6,4(a0)
    2352:	00432107          	flw	ft2,4(t1)
    2356:	0850f0d3          	fsub.s	ft1,ft1,ft5
    235a:	635c                	c.flw	fa5,4(a4)
    235c:	01d6f253          	fadd.s	ft4,fa3,ft9
    2360:	0047af87          	flw	ft11,4(a5)
    2364:	00617753          	fadd.s	fa4,ft2,ft6
    2368:	08617353          	fsub.s	ft6,ft2,ft6
    236c:	009272d3          	fadd.s	ft5,ft4,fs1
    2370:	09f0f153          	fsub.s	ft2,ft1,ft11
    2374:	089ef253          	fsub.s	ft4,ft9,fs1
    2378:	00532427          	fsw	ft5,8(t1)
    237c:	0047a387          	flw	ft7,4(a5)
    2380:	00472907          	flw	fs2,4(a4)
    2384:	00f17153          	fadd.s	ft2,ft2,fa5
    2388:	007773d3          	fadd.s	ft7,fa4,ft7
    238c:	004372d3          	fadd.s	ft5,ft6,ft4
    2390:	09d6f6d3          	fsub.s	fa3,fa3,ft9
    2394:	0123f3d3          	fadd.s	ft7,ft7,fs2
    2398:	09c1f1d3          	fsub.s	ft3,ft3,ft8
    239c:	09f77753          	fsub.s	fa4,fa4,ft11
    23a0:	00732227          	fsw	ft7,4(t1)
    23a4:	ffce2387          	flw	ft7,-4(t3)
    23a8:	ff8e2e87          	flw	ft9,-8(t3)
    23ac:	08a1f1d3          	fsub.s	ft3,ft3,fa0
    23b0:	10787ad3          	fmul.s	fs5,fa6,ft7
    23b4:	1078fa53          	fmul.s	fs4,fa7,ft7
    23b8:	11d2f9d3          	fmul.s	fs3,ft5,ft9
    23bc:	11d17953          	fmul.s	fs2,ft2,ft9
    23c0:	a9d8f8c3          	fmadd.s	fa7,fa7,ft9,fs5
    23c4:	a1d87ec7          	fmsub.s	ft9,fa6,ft9,fs4
    23c8:	98717147          	fmsub.s	ft2,ft2,ft7,fs3
    23cc:	ff16ac27          	fsw	fa7,-8(a3)
    23d0:	9072f2c3          	fmadd.s	ft5,ft5,ft7,fs2
    23d4:	ffd6ae27          	fsw	ft9,-4(a3)
    23d8:	09e07053          	fsub.s	ft0,ft0,ft10
    23dc:	0027a427          	fsw	ft2,8(a5)
    23e0:	08f77753          	fsub.s	fa4,fa4,fa5
    23e4:	0057a227          	fsw	ft5,4(a5)
    23e8:	0896f6d3          	fsub.s	fa3,fa3,fs1
    23ec:	ff4ea107          	flw	ft2,-12(t4)
    23f0:	ff0ea287          	flw	ft5,-16(t4)
    23f4:	01c5f5d3          	fadd.s	fa1,fa1,ft8
    23f8:	102078d3          	fmul.s	fa7,ft0,ft2
    23fc:	1021f853          	fmul.s	fa6,ft3,ft2
    2400:	102773d3          	fmul.s	ft7,fa4,ft2
    2404:	1026f153          	fmul.s	ft2,fa3,ft2
    2408:	08867653          	fsub.s	fa2,fa2,fs0
    240c:	80507047          	fmsub.s	ft0,ft0,ft5,fa6
    2410:	8851f1c3          	fmadd.s	ft3,ft3,ft5,fa7
    2414:	09f7f7d3          	fsub.s	fa5,fa5,ft11
    2418:	1057774b          	fnmsub.s	fa4,fa4,ft5,ft2
    241c:	fe38ac27          	fsw	ft3,-8(a7)
    2420:	3856f6cf          	fnmadd.s	fa3,fa3,ft5,ft7
    2424:	fe08ae27          	fsw	ft0,-4(a7)
    2428:	08a5f5d3          	fsub.s	fa1,fa1,fa0
    242c:	e158                	c.fsw	fa4,4(a0)
    242e:	01e67653          	fadd.s	fa2,fa2,ft10
    2432:	e514                	c.fsw	fa3,8(a0)
    2434:	0817f7d3          	fsub.s	fa5,fa5,ft1
    2438:	fecf2707          	flw	fa4,-20(t5)
    243c:	08627253          	fsub.s	ft4,ft4,ft6
    2440:	fe8f2507          	flw	fa0,-24(t5)
    2444:	10e5f053          	fmul.s	ft0,fa1,fa4
    2448:	10e676d3          	fmul.s	fa3,fa2,fa4
    244c:	10a270d3          	fmul.s	ft1,ft4,fa0
    2450:	10a7f153          	fmul.s	ft2,fa5,fa0
    2454:	00a67643          	fmadd.s	fa2,fa2,fa0,ft0
    2458:	68a5f5c7          	fmsub.s	fa1,fa1,fa0,fa3
    245c:	08e7f7c7          	fmsub.s	fa5,fa5,fa4,ft1
    2460:	fec5ac27          	fsw	fa2,-8(a1)
    2464:	10e27243          	fmadd.s	ft4,ft4,fa4,ft2
    2468:	feb5ae27          	fsw	fa1,-4(a1)
    246c:	e71c                	c.fsw	fa5,8(a4)
    246e:	00472227          	fsw	ft4,4(a4)
    2472:	e5f79be3          	bne	a5,t6,22c8 <riscv_cfft_f32+0x31c>
    2476:	401c8cb3          	sub	s9,s9,ra
    247a:	401c0c33          	sub	s8,s8,ra
    247e:	000c2007          	flw	ft0,0(s8)
    2482:	000ca787          	flw	fa5,0(s9)
    2486:	401383b3          	sub	t2,t2,ra
    248a:	0003a107          	flw	ft2,0(t2)
    248e:	0007f6d3          	fadd.s	fa3,fa5,ft0
    2492:	401282b3          	sub	t0,t0,ra
    2496:	0002a087          	flw	ft1,0(t0)
    249a:	004c2587          	flw	fa1,4(s8)
    249e:	004ca707          	flw	fa4,4(s9)
    24a2:	0026f553          	fadd.s	fa0,fa3,ft2
    24a6:	0043a207          	flw	ft4,4(t2)
    24aa:	00b77653          	fadd.s	fa2,fa4,fa1
    24ae:	0042a187          	flw	ft3,4(t0)
    24b2:	0807f7d3          	fsub.s	fa5,fa5,ft0
    24b6:	401d0d33          	sub	s10,s10,ra
    24ba:	00157553          	fadd.s	fa0,fa0,ft1
    24be:	4722                	c.lwsp	a4,8(sp)
    24c0:	08b77753          	fsub.s	fa4,fa4,fa1
    24c4:	004d9793          	slli	a5,s11,0x4
    24c8:	0047f5d3          	fadd.s	fa1,fa5,ft4
    24cc:	00aca027          	fsw	fa0,0(s9)
    24d0:	0043a007          	flw	ft0,4(t2)
    24d4:	0042a287          	flw	ft5,4(t0)
    24d8:	08277553          	fsub.s	fa0,fa4,ft2
    24dc:	973e                	c.add	a4,a5
    24de:	00067053          	fadd.s	ft0,fa2,ft0
    24e2:	47b2                	c.lwsp	a5,12(sp)
    24e4:	0835f5d3          	fsub.s	fa1,fa1,ft3
    24e8:	46e1                	c.li	a3,24
    24ea:	00157553          	fadd.s	fa0,fa0,ft1
    24ee:	c4dd97ff          	maddr32	a5,s11,a3
    24f2:	00507053          	fadd.s	ft0,ft0,ft5
    24f6:	00415d83          	lhu	s11,4(sp)
    24fa:	0826f6d3          	fsub.s	fa3,fa3,ft2
    24fe:	8522                	c.mv	a0,s0
    2500:	08467653          	fsub.s	fa2,fa2,ft4
    2504:	000ca227          	fsw	ft0,4(s9)
    2508:	004d2007          	flw	ft0,4(s10)
    250c:	000d2287          	flw	ft5,0(s10)
    2510:	0816f6d3          	fsub.s	fa3,fa3,ft1
    2514:	85ee                	c.mv	a1,s11
    2516:	1005f353          	fmul.s	ft6,fa1,ft0
    251a:	4691                	c.li	a3,4
    251c:	10057053          	fmul.s	ft0,fa0,ft0
    2520:	08367653          	fsub.s	fa2,fa2,ft3
    2524:	30557547          	fmsub.s	fa0,fa0,ft5,ft6
    2528:	0055f5c3          	fmadd.s	fa1,fa1,ft5,ft0
    252c:	0847f7d3          	fsub.s	fa5,fa5,ft4
    2530:	00a3a227          	fsw	fa0,4(t2)
    2534:	00277753          	fadd.s	fa4,fa4,ft2
    2538:	00b3a027          	fsw	fa1,0(t2)
    253c:	634c                	c.flw	fa1,4(a4)
    253e:	6308                	c.flw	fa0,0(a4)
    2540:	0037f7d3          	fadd.s	fa5,fa5,ft3
    2544:	10b6f053          	fmul.s	ft0,fa3,fa1
    2548:	10b675d3          	fmul.s	fa1,fa2,fa1
    254c:	08177753          	fsub.s	fa4,fa4,ft1
    2550:	00a67647          	fmsub.s	fa2,fa2,fa0,ft0
    2554:	58a6f6c3          	fmadd.s	fa3,fa3,fa0,fa1
    2558:	00cc2227          	fsw	fa2,4(s8)
    255c:	00dc2027          	fsw	fa3,0(s8)
    2560:	63d4                	c.flw	fa3,4(a5)
    2562:	6390                	c.flw	fa2,0(a5)
    2564:	10d7f5d3          	fmul.s	fa1,fa5,fa3
    2568:	10d776d3          	fmul.s	fa3,fa4,fa3
    256c:	58c77747          	fmsub.s	fa4,fa4,fa2,fa1
    2570:	68c7f7c3          	fmadd.s	fa5,fa5,fa2,fa3
    2574:	00e2a227          	fsw	fa4,4(t0)
    2578:	00f2a027          	fsw	fa5,0(t0)
    257c:	0d8000ef          	jal	ra,2654 <riscv_radix8_butterfly_f32>
    2580:	0049a603          	lw	a2,4(s3)
    2584:	85ee                	c.mv	a1,s11
    2586:	855a                	c.mv	a0,s6
    2588:	4691                	c.li	a3,4
    258a:	20e9                	c.jal	2654 <riscv_radix8_butterfly_f32>
    258c:	0049a603          	lw	a2,4(s3)
    2590:	85ee                	c.mv	a1,s11
    2592:	8556                	c.mv	a0,s5
    2594:	4691                	c.li	a3,4
    2596:	287d                	c.jal	2654 <riscv_radix8_butterfly_f32>
    2598:	0049a603          	lw	a2,4(s3)
    259c:	4691                	c.li	a3,4
    259e:	85ee                	c.mv	a1,s11
    25a0:	855e                	c.mv	a0,s7
    25a2:	284d                	c.jal	2654 <riscv_radix8_butterfly_f32>
    25a4:	ba090ee3          	beqz	s2,2160 <riscv_cfft_f32+0x1b4>
    25a8:	0580006f          	j	2600 <riscv_cfft_f32+0x654>
    25ac:	20000793          	li	a5,512
    25b0:	bef48ee3          	beq	s1,a5,21ac <riscv_cfft_f32+0x200>
    25b4:	40000793          	li	a5,1024
    25b8:	a4f488e3          	beq	s1,a5,2008 <riscv_cfft_f32+0x5c>
    25bc:	04091263          	bnez	s2,2600 <riscv_cfft_f32+0x654>
    25c0:	00100793          	li	a5,1
    25c4:	bafa12e3          	bne	s4,a5,2168 <riscv_cfft_f32+0x1bc>
    25c8:	d014f7d3          	fcvt.s.wu	fa5,s1
    25cc:	0007e797          	auipc	a5,0x7e
    25d0:	c447a687          	flw	fa3,-956(a5) # 80210 <cst_libm_sincosf+0x210>
    25d4:	18f6f6d3          	fdiv.s	fa3,fa3,fa5
    25d8:	00000793          	li	a5,0
    25dc:	605c                	c.flw	fa5,4(s0)
    25de:	6018                	c.flw	fa4,0(s0)
    25e0:	0421                	c.addi	s0,8
    25e2:	20f797d3          	fneg.s	fa5,fa5
    25e6:	0785                	c.addi	a5,1
    25e8:	10d77753          	fmul.s	fa4,fa4,fa3
    25ec:	10d7f7d3          	fmul.s	fa5,fa5,fa3
    25f0:	fee42c27          	fsw	fa4,-8(s0)
    25f4:	fef42e27          	fsw	fa5,-4(s0)
    25f8:	fef492e3          	bne	s1,a5,25dc <riscv_cfft_f32+0x630>
    25fc:	b6dff06f          	j	2168 <riscv_cfft_f32+0x1bc>
    2600:	00c9d583          	lhu	a1,12(s3)
    2604:	0089a603          	lw	a2,8(s3)
    2608:	8522                	c.mv	a0,s0
    260a:	250d                	c.jal	2c2c <riscv_bitreversal_32>
    260c:	4785                	c.li	a5,1
    260e:	b4fa1de3          	bne	s4,a5,2168 <riscv_cfft_f32+0x1bc>
    2612:	a03d                	c.j	2640 <riscv_cfft_f32+0x694>
    2614:	00458793          	addi	a5,a1,4
    2618:	cc81                	c.beqz	s1,2630 <riscv_cfft_f32+0x684>
    261a:	4701                	c.li	a4,0
    261c:	639c                	c.flw	fa5,0(a5)
    261e:	07a1                	c.addi	a5,8
    2620:	0705                	c.addi	a4,1
    2622:	20f797d3          	fneg.s	fa5,fa5
    2626:	fef7ac27          	fsw	fa5,-8(a5)
    262a:	fee499e3          	bne	s1,a4,261c <riscv_cfft_f32+0x670>
    262e:	ba6d                	c.j	1fe8 <riscv_cfft_f32+0x3c>
    2630:	b2068ce3          	beqz	a3,2168 <riscv_cfft_f32+0x1bc>
    2634:	00c55583          	lhu	a1,12(a0)
    2638:	4510                	c.lw	a2,8(a0)
    263a:	8522                	c.mv	a0,s0
    263c:	5f0000ef          	jal	ra,2c2c <riscv_bitreversal_32>
    2640:	d014f7d3          	fcvt.s.wu	fa5,s1
    2644:	0007e797          	auipc	a5,0x7e
    2648:	bcc7a687          	flw	fa3,-1076(a5) # 80210 <cst_libm_sincosf+0x210>
    264c:	18f6f6d3          	fdiv.s	fa3,fa3,fa5
    2650:	f4c1                	c.bnez	s1,25d8 <riscv_cfft_f32+0x62c>
    2652:	be19                	c.j	2168 <riscv_cfft_f32+0x1bc>

00002654 <riscv_radix8_butterfly_f32>:
    2654:	7171                	c.addi16sp	sp,-176
    2656:	00093797          	auipc	a5,0x93
    265a:	0a67a007          	flw	ft0,166(a5) # 956fc <twiddleCoef_16+0x80>
    265e:	00850793          	addi	a5,a0,8
    2662:	c566                	c.swsp	s9,136(sp)
    2664:	c36a                	c.swsp	s10,132(sp)
    2666:	c16e                	c.swsp	s11,128(sp)
    2668:	8cb6                	c.mv	s9,a3
    266a:	8dae                	c.mv	s11,a1
    266c:	8d2e                	c.mv	s10,a1
    266e:	d722                	c.swsp	s0,172(sp)
    2670:	d526                	c.swsp	s1,168(sp)
    2672:	d34a                	c.swsp	s2,164(sp)
    2674:	d14e                	c.swsp	s3,160(sp)
    2676:	cf52                	c.swsp	s4,156(sp)
    2678:	cd56                	c.swsp	s5,152(sp)
    267a:	cb5a                	c.swsp	s6,148(sp)
    267c:	c95e                	c.swsp	s7,144(sp)
    267e:	c762                	c.swsp	s8,140(sp)
    2680:	fea2                	c.fswsp	fs0,124(sp)
    2682:	fca6                	c.fswsp	fs1,120(sp)
    2684:	faca                	c.fswsp	fs2,116(sp)
    2686:	f8ce                	c.fswsp	fs3,112(sp)
    2688:	f6d2                	c.fswsp	fs4,108(sp)
    268a:	f4d6                	c.fswsp	fs5,104(sp)
    268c:	f2da                	c.fswsp	fs6,100(sp)
    268e:	f0de                	c.fswsp	fs7,96(sp)
    2690:	eee2                	c.fswsp	fs8,92(sp)
    2692:	ece6                	c.fswsp	fs9,88(sp)
    2694:	eaea                	c.fswsp	fs10,84(sp)
    2696:	e8ee                	c.fswsp	fs11,80(sp)
    2698:	c832                	c.swsp	a2,16(sp)
    269a:	c0be                	c.swsp	a5,64(sp)
    269c:	003d5713          	srli	a4,s10,0x3
    26a0:	00271613          	slli	a2,a4,0x2
    26a4:	00571693          	slli	a3,a4,0x5
    26a8:	40c70633          	sub	a2,a4,a2
    26ac:	00361e13          	slli	t3,a2,0x3
    26b0:	00d504b3          	add	s1,a0,a3
    26b4:	01c48eb3          	add	t4,s1,t3
    26b8:	00de8333          	add	t1,t4,a3
    26bc:	02800793          	li	a5,40
    26c0:	01c308b3          	add	a7,t1,t3
    26c4:	00d885b3          	add	a1,a7,a3
    26c8:	02f70a33          	mul	s4,a4,a5
    26cc:	03000793          	li	a5,48
    26d0:	02f70933          	mul	s2,a4,a5
    26d4:	01c58633          	add	a2,a1,t3
    26d8:	03800793          	li	a5,56
    26dc:	02f70833          	mul	a6,a4,a5
    26e0:	8fa6                	c.mv	t6,s1
    26e2:	003d1793          	slli	a5,s10,0x3
    26e6:	00371a93          	slli	s5,a4,0x3
    26ea:	00471993          	slli	s3,a4,0x4
    26ee:	96b2                	c.add	a3,a2
    26f0:	8f2a                	c.mv	t5,a0
    26f2:	4281                	c.li	t0,0
    26f4:	000f2707          	flw	fa4,0(t5)
    26f8:	00032507          	flw	fa0,0(t1)
    26fc:	0006a207          	flw	ft4,0(a3)
    2700:	000fa187          	flw	ft3,0(t6)
    2704:	000ea787          	flw	fa5,0(t4)
    2708:	0008a807          	flw	fa6,0(a7)
    270c:	0005af87          	flw	ft11,0(a1)
    2710:	6214                	c.flw	fa3,0(a2)
    2712:	00377153          	fadd.s	ft2,fa4,ft3
    2716:	92ea                	c.add	t0,s10
    2718:	0046f453          	fadd.s	fs0,fa3,ft4
    271c:	00a7f5d3          	fadd.s	fa1,fa5,fa0
    2720:	01f87953          	fadd.s	fs2,fa6,ft11
    2724:	08a7f7d3          	fsub.s	fa5,fa5,fa0
    2728:	0085f553          	fadd.s	fa0,fa1,fs0
    272c:	01217653          	fadd.s	fa2,ft2,fs2
    2730:	083771d3          	fsub.s	ft3,fa4,ft3
    2734:	0846f6d3          	fsub.s	fa3,fa3,ft4
    2738:	00a670d3          	fadd.s	ft1,fa2,fa0
    273c:	08a67553          	fsub.s	fa0,fa2,fa0
    2740:	09217153          	fsub.s	ft2,ft2,fs2
    2744:	001f2027          	fsw	ft1,0(t5)
    2748:	004fae87          	flw	ft9,4(t6)
    274c:	00afa027          	fsw	fa0,0(t6)
    2750:	004f2087          	flw	ft1,4(t5)
    2754:	00432887          	flw	fa7,4(t1)
    2758:	0046a387          	flw	ft7,4(a3)
    275c:	004ea707          	flw	fa4,4(t4)
    2760:	0048a507          	flw	fa0,4(a7)
    2764:	0045a987          	flw	fs3,4(a1)
    2768:	00462287          	flw	ft5,4(a2)
    276c:	01d0fe53          	fadd.s	ft8,ft1,ft9
    2770:	01357253          	fadd.s	ft4,fa0,fs3
    2774:	0072f4d3          	fadd.s	fs1,ft5,ft7
    2778:	01177f53          	fadd.s	ft10,fa4,fa7
    277c:	0872f2d3          	fsub.s	ft5,ft5,ft7
    2780:	09177753          	fsub.s	fa4,fa4,fa7
    2784:	004e73d3          	fadd.s	ft7,ft8,ft4
    2788:	009f78d3          	fadd.s	fa7,ft10,fs1
    278c:	08d7f653          	fsub.s	fa2,fa5,fa3
    2790:	089f7f53          	fsub.s	ft10,ft10,fs1
    2794:	00d7f7d3          	fadd.s	fa5,fa5,fa3
    2798:	0113f6d3          	fadd.s	fa3,ft7,fa7
    279c:	09357553          	fsub.s	fa0,fa0,fs3
    27a0:	00577353          	fadd.s	ft6,fa4,ft5
    27a4:	00df2227          	fsw	fa3,4(t5)
    27a8:	084e7e53          	fsub.s	ft8,ft8,ft4
    27ac:	9f3e                	c.add	t5,a5
    27ae:	0885f5d3          	fsub.s	fa1,fa1,fs0
    27b2:	0913f3d3          	fsub.s	ft7,ft7,fa7
    27b6:	01e176d3          	fadd.s	fa3,ft2,ft10
    27ba:	08577753          	fsub.s	fa4,fa4,ft5
    27be:	007fa227          	fsw	ft7,4(t6)
    27c2:	18067243          	fmadd.s	ft4,fa2,ft0,ft3
    27c6:	00d8a027          	fsw	fa3,0(a7)
    27ca:	500372c3          	fmadd.s	ft5,ft6,ft0,fa0
    27ce:	9fbe                	c.add	t6,a5
    27d0:	09f87853          	fsub.s	fa6,fa6,ft11
    27d4:	09d0f0d3          	fsub.s	ft1,ft1,ft9
    27d8:	09e17153          	fsub.s	ft2,ft2,ft10
    27dc:	1806764b          	fnmsub.s	fa2,fa2,ft0,ft3
    27e0:	5003734b          	fnmsub.s	ft6,ft6,ft0,fa0
    27e4:	0025a027          	fsw	ft2,0(a1)
    27e8:	08be71d3          	fsub.s	ft3,ft8,fa1
    27ec:	01c5f5d3          	fadd.s	fa1,fa1,ft8
    27f0:	08077543          	fmadd.s	fa0,fa4,ft0,ft1
    27f4:	0038a227          	fsw	ft3,4(a7)
    27f8:	8007f6c3          	fmadd.s	fa3,fa5,ft0,fa6
    27fc:	e1cc                	c.fsw	fa1,4(a1)
    27fe:	00527153          	fadd.s	ft2,ft4,ft5
    2802:	98be                	c.add	a7,a5
    2804:	08527253          	fsub.s	ft4,ft4,ft5
    2808:	95be                	c.add	a1,a5
    280a:	080770cb          	fnmsub.s	ft1,fa4,ft0,ft1
    280e:	002ea027          	fsw	ft2,0(t4)
    2812:	00667753          	fadd.s	fa4,fa2,ft6
    2816:	0046a027          	fsw	ft4,0(a3)
    281a:	8007f7cb          	fnmsub.s	fa5,fa5,ft0,fa6
    281e:	08667653          	fsub.s	fa2,fa2,ft6
    2822:	00e32027          	fsw	fa4,0(t1)
    2826:	08d575d3          	fsub.s	fa1,fa0,fa3
    282a:	00a6f6d3          	fadd.s	fa3,fa3,fa0
    282e:	e210                	c.fsw	fa2,0(a2)
    2830:	08f0f753          	fsub.s	fa4,ft1,fa5
    2834:	00bea227          	fsw	fa1,4(t4)
    2838:	0017f7d3          	fadd.s	fa5,fa5,ft1
    283c:	e2d4                	c.fsw	fa3,4(a3)
    283e:	9ebe                	c.add	t4,a5
    2840:	00e32227          	fsw	fa4,4(t1)
    2844:	96be                	c.add	a3,a5
    2846:	e25c                	c.fsw	fa5,4(a2)
    2848:	933e                	c.add	t1,a5
    284a:	963e                	c.add	a2,a5
    284c:	ebb2e4e3          	bltu	t0,s11,26f4 <riscv_radix8_butterfly_f32+0xa0>
    2850:	469d                	c.li	a3,7
    2852:	3ae6f363          	bgeu	a3,a4,2bf8 <riscv_radix8_butterfly_f32+0x5a4>
    2856:	46e1                	c.li	a3,24
    2858:	02dc8b33          	mul	s6,s9,a3
    285c:	02800693          	li	a3,40
    2860:	02dc86b3          	mul	a3,s9,a3
    2864:	04a1                	c.addi	s1,8
    2866:	9a2a                	c.add	s4,a0
    2868:	ce36                	c.swsp	a3,28(sp)
    286a:	46c2                	c.lwsp	a3,16(sp)
    286c:	41c50633          	sub	a2,a0,t3
    2870:	016682b3          	add	t0,a3,s6
    2874:	03000693          	li	a3,48
    2878:	02dc86b3          	mul	a3,s9,a3
    287c:	0621                	c.addi	a2,8
    287e:	004c9f93          	slli	t6,s9,0x4
    2882:	99aa                	c.add	s3,a0
    2884:	982a                	c.add	a6,a0
    2886:	dc26                	c.swsp	s1,56(sp)
    2888:	008a0493          	addi	s1,s4,8
    288c:	ff8a8413          	addi	s0,s5,-8
    2890:	9f96                	c.add	t6,t0
    2892:	992a                	c.add	s2,a0
    2894:	015505b3          	add	a1,a0,s5
    2898:	cc36                	c.swsp	a3,24(sp)
    289a:	da26                	c.swsp	s1,52(sp)
    289c:	003c9693          	slli	a3,s9,0x3
    28a0:	00898493          	addi	s1,s3,8
    28a4:	d032                	c.swsp	a2,32(sp)
    28a6:	00880613          	addi	a2,a6,8
    28aa:	ca22                	c.swsp	s0,20(sp)
    28ac:	d826                	c.swsp	s1,48(sp)
    28ae:	d232                	c.swsp	a2,36(sp)
    28b0:	00890493          	addi	s1,s2,8
    28b4:	00c58613          	addi	a2,a1,12
    28b8:	00df83b3          	add	t2,t6,a3
    28bc:	4e81                	c.li	t4,0
    28be:	4405                	c.li	s0,1
    28c0:	4f01                	c.li	t5,0
    28c2:	d426                	c.swsp	s1,40(sp)
    28c4:	d632                	c.swsp	a2,44(sp)
    28c6:	c2ba                	c.swsp	a4,68(sp)
    28c8:	c4aa                	c.swsp	a0,72(sp)
    28ca:	de66                	c.swsp	s9,60(sp)
    28cc:	04d12623          	sw	a3,76(sp)
    28d0:	5772                	c.lwsp	a4,60(sp)
    28d2:	0042ac87          	flw	fs9,4(t0)
    28d6:	9f3a                	c.add	t5,a4
    28d8:	4761                	c.li	a4,24
    28da:	02ef05b3          	mul	a1,t5,a4
    28de:	4742                	c.lwsp	a4,16(sp)
    28e0:	003f1693          	slli	a3,t5,0x3
    28e4:	00d70333          	add	t1,a4,a3
    28e8:	00d308b3          	add	a7,t1,a3
    28ec:	004f1613          	slli	a2,t5,0x4
    28f0:	002f1713          	slli	a4,t5,0x2
    28f4:	00c88833          	add	a6,a7,a2
    28f8:	40ef0733          	sub	a4,t5,a4
    28fc:	00b80533          	add	a0,a6,a1
    2900:	0712                	c.slli	a4,0x4
    2902:	972a                	c.add	a4,a0
    2904:	96ba                	c.add	a3,a4
    2906:	00472d87          	flw	fs11,4(a4)
    290a:	4706                	c.lwsp	a4,64(sp)
    290c:	00032c03          	lw	s8,0(t1)
    2910:	01d70333          	add	t1,a4,t4
    2914:	5762                	c.lwsp	a4,56(sp)
    2916:	0008ab83          	lw	s7,0(a7)
    291a:	01d708b3          	add	a7,a4,t4
    291e:	5752                	c.lwsp	a4,52(sp)
    2920:	00082a03          	lw	s4,0(a6)
    2924:	01d70833          	add	a6,a4,t4
    2928:	5742                	c.lwsp	a4,48(sp)
    292a:	9636                	c.add	a2,a3
    292c:	4104                	c.lw	s1,0(a0)
    292e:	01d70533          	add	a0,a4,t4
    2932:	5722                	c.lwsp	a4,40(sp)
    2934:	95b2                	c.add	a1,a2
    2936:	0046ad07          	flw	fs10,4(a3)
    293a:	00462c07          	flw	fs8,4(a2)
    293e:	004fab87          	flw	fs7,4(t6)
    2942:	0045aa87          	flw	fs5,4(a1)
    2946:	0043ab07          	flw	fs6,4(t2)
    294a:	01d705b3          	add	a1,a4,t4
    294e:	5702                	c.lwsp	a4,32(sp)
    2950:	21bd8453          	fmv.s	fs0,fs11
    2954:	01d70633          	add	a2,a4,t4
    2958:	5712                	c.lwsp	a4,36(sp)
    295a:	21ad0553          	fmv.s	fa0,fs10
    295e:	219c85d3          	fmv.s	fa1,fs9
    2962:	218c0653          	fmv.s	fa2,fs8
    2966:	217b86d3          	fmv.s	fa3,fs7
    296a:	216b0753          	fmv.s	fa4,fs6
    296e:	215a87d3          	fmv.s	fa5,fs5
    2972:	01d706b3          	add	a3,a4,t4
    2976:	5732                	c.lwsp	a4,44(sp)
    2978:	0002aa83          	lw	s5,0(t0)
    297c:	000fa983          	lw	s3,0(t6)
    2980:	0003a903          	lw	s2,0(t2)
    2984:	f0048dd3          	fmv.w.x	fs11,s1
    2988:	f0090d53          	fmv.w.x	fs10,s2
    298c:	f0098cd3          	fmv.w.x	fs9,s3
    2990:	f00a0c53          	fmv.w.x	fs8,s4
    2994:	f00a8bd3          	fmv.w.x	fs7,s5
    2998:	f00b8b53          	fmv.w.x	fs6,s7
    299c:	f00c0ad3          	fmv.w.x	fs5,s8
    29a0:	8cda                	c.mv	s9,s6
    29a2:	c616                	c.swsp	t0,12(sp)
    29a4:	8b7e                	c.mv	s6,t6
    29a6:	9776                	c.add	a4,t4
    29a8:	8e22                	c.mv	t3,s0
    29aa:	8ffa                	c.mv	t6,t5
    29ac:	01d002b3          	add	t0,zero,t4
    29b0:	e0078c53          	fmv.x.w	s8,fa5
    29b4:	e0070bd3          	fmv.x.w	s7,fa4
    29b8:	e0068ad3          	fmv.x.w	s5,fa3
    29bc:	e0060a53          	fmv.x.w	s4,fa2
    29c0:	e00589d3          	fmv.x.w	s3,fa1
    29c4:	e0050953          	fmv.x.w	s2,fa0
    29c8:	e00404d3          	fmv.x.w	s1,fs0
    29cc:	0008a207          	flw	ft4,0(a7)
    29d0:	00082187          	flw	ft3,0(a6)
    29d4:	0005a087          	flw	ft1,0(a1)
    29d8:	6208                	c.flw	fa0,0(a2)
    29da:	00032587          	flw	fa1,0(t1)
    29de:	ffc72787          	flw	fa5,-4(a4)
    29e2:	6118                	c.flw	fa4,0(a0)
    29e4:	0006a287          	flw	ft5,0(a3)
    29e8:	0045f853          	fadd.s	fa6,fa1,ft4
    29ec:	00432107          	flw	ft2,4(t1)
    29f0:	00177953          	fadd.s	fs2,fa4,ft1
    29f4:	9e6a                	c.add	t3,s10
    29f6:	00557453          	fadd.s	fs0,fa0,ft5
    29fa:	0037f653          	fadd.s	fa2,fa5,ft3
    29fe:	01287f53          	fadd.s	ft10,fa6,fs2
    2a02:	085572d3          	fsub.s	ft5,fa0,ft5
    2a06:	008674d3          	fadd.s	fs1,fa2,fs0
    2a0a:	0845f5d3          	fsub.s	fa1,fa1,ft4
    2a0e:	08177753          	fsub.s	fa4,fa4,ft1
    2a12:	009f7553          	fadd.s	fa0,ft10,fs1
    2a16:	0837f7d3          	fsub.s	fa5,fa5,ft3
    2a1a:	09287853          	fsub.s	fa6,fa6,fs2
    2a1e:	00a32027          	fsw	fa0,0(t1)
    2a22:	00482f87          	flw	ft11,4(a6)
    2a26:	0046ae07          	flw	ft8,4(a3)
    2a2a:	00452087          	flw	ft1,4(a0)
    2a2e:	6308                	c.flw	fa0,0(a4)
    2a30:	00462207          	flw	ft4,4(a2)
    2a34:	0048a387          	flw	ft7,4(a7)
    2a38:	0045a307          	flw	ft6,4(a1)
    2a3c:	09c279d3          	fsub.s	fs3,ft4,ft8
    2a40:	00717ed3          	fadd.s	ft9,ft2,ft7
    2a44:	0060f1d3          	fadd.s	ft3,ft1,ft6
    2a48:	09f578d3          	fsub.s	fa7,fa0,ft11
    2a4c:	01c27253          	fadd.s	ft4,ft4,ft8
    2a50:	01f57553          	fadd.s	fa0,fa0,ft11
    2a54:	087173d3          	fsub.s	ft7,ft2,ft7
    2a58:	0938f153          	fsub.s	ft2,fa7,fs3
    2a5c:	00457a53          	fadd.s	fs4,fa0,ft4
    2a60:	0138f8d3          	fadd.s	fa7,fa7,fs3
    2a64:	003ef9d3          	fadd.s	fs3,ft9,ft3
    2a68:	0857f6d3          	fsub.s	fa3,fa5,ft5
    2a6c:	0860f353          	fsub.s	ft6,ft1,ft6
    2a70:	0057f7d3          	fadd.s	fa5,fa5,ft5
    2a74:	08457553          	fsub.s	fa0,fa0,ft4
    2a78:	0949f953          	fsub.s	fs2,fs3,fs4
    2a7c:	089f7f53          	fsub.s	ft10,ft10,fs1
    2a80:	7007fe43          	fmadd.s	ft8,fa5,ft0,fa4
    2a84:	3008f243          	fmadd.s	ft4,fa7,ft0,ft6
    2a88:	08867653          	fsub.s	fa2,fa2,fs0
    2a8c:	083ef453          	fsub.s	fs0,ft9,ft3
    2a90:	380171c3          	fmadd.s	ft3,ft2,ft0,ft7
    2a94:	5806fec3          	fmadd.s	ft9,fa3,ft0,fa1
    2a98:	5806f6cb          	fnmsub.s	fa3,fa3,ft0,fa1
    2a9c:	00a875d3          	fadd.s	fa1,fa6,fa0
    2aa0:	08a87853          	fsub.s	fa6,fa6,fa0
    2aa4:	f00a0553          	fmv.w.x	fa0,s4
    2aa8:	3008f34b          	fnmsub.s	ft6,fa7,ft0,ft6
    2aac:	11e570d3          	fmul.s	ft1,fa0,ft10
    2ab0:	11257553          	fmul.s	fa0,fa0,fs2
    2ab4:	3801714b          	fnmsub.s	ft2,ft2,ft0,ft7
    2ab8:	004ef4d3          	fadd.s	fs1,ft9,ft4
    2abc:	e0050f53          	fmv.x.w	t5,fa0
    2ac0:	003e78d3          	fadd.s	fa7,ft8,ft3
    2ac4:	f0090553          	fmv.w.x	fa0,s2
    2ac8:	7007f7cb          	fnmsub.s	fa5,fa5,ft0,fa4
    2acc:	084efed3          	fsub.s	ft9,ft9,ft4
    2ad0:	f0048253          	fmv.w.x	ft4,s1
    2ad4:	08c47753          	fsub.s	fa4,fs0,fa2
    2ad8:	0066f2d3          	fadd.s	ft5,fa3,ft6
    2adc:	0866f6d3          	fsub.s	fa3,fa3,ft6
    2ae0:	f00c0353          	fmv.w.x	ft6,s8
    2ae4:	00867653          	fadd.s	fa2,fa2,fs0
    2ae8:	11d373d3          	fmul.s	ft7,ft6,ft9
    2aec:	09c1f453          	fsub.s	fs0,ft3,ft8
    2af0:	0149f9d3          	fadd.s	fs3,fs3,fs4
    2af4:	08f171d3          	fsub.s	ft3,ft2,fa5
    2af8:	11137a53          	fmul.s	fs4,ft6,fa7
    2afc:	f00f0353          	fmv.w.x	ft6,t5
    2b00:	0027f7d3          	fadd.s	fa5,fa5,ft2
    2b04:	01332227          	fsw	fs3,4(t1)
    2b08:	10b57153          	fmul.s	ft2,fa0,fa1
    2b0c:	933e                	c.add	t1,a5
    2b0e:	10e57553          	fmul.s	fa0,fa0,fa4
    2b12:	31ec7f43          	fmadd.s	ft10,fs8,ft10,ft6
    2b16:	f00a8353          	fmv.w.x	ft6,s5
    2b1a:	092c7947          	fmsub.s	fs2,fs8,fs2,ft1
    2b1e:	e0050ed3          	fmv.x.w	t4,fa0
    2b22:	f00b8553          	fmv.w.x	fa0,s7
    2b26:	01e8a027          	fsw	ft10,0(a7)
    2b2a:	f00e8f53          	fmv.w.x	ft10,t4
    2b2e:	f0bb75c3          	fmadd.s	fa1,fs6,fa1,ft10
    2b32:	0128a227          	fsw	fs2,4(a7)
    2b36:	11057e53          	fmul.s	ft8,fa0,fa6
    2b3a:	f00a80d3          	fmv.w.x	ft1,s5
    2b3e:	10c57fd3          	fmul.s	ft11,fa0,fa2
    2b42:	f0048553          	fmv.w.x	fa0,s1
    2b46:	10957553          	fmul.s	fa0,fa0,fs1
    2b4a:	e10c                	c.fsw	fa1,0(a0)
    2b4c:	10827253          	fmul.s	ft4,ft4,fs0
    2b50:	f00985d3          	fmv.w.x	fa1,s3
    2b54:	1050f0d3          	fmul.s	ft1,ft1,ft5
    2b58:	98be                	c.add	a7,a5
    2b5a:	10337353          	fmul.s	ft6,ft6,ft3
    2b5e:	10eb7747          	fmsub.s	fa4,fs6,fa4,ft2
    2b62:	f0098153          	fmv.w.x	ft2,s3
    2b66:	10d17153          	fmul.s	ft2,ft2,fa3
    2b6a:	10f5f5d3          	fmul.s	fa1,fa1,fa5
    2b6e:	e158                	c.fsw	fa4,4(a0)
    2b70:	f90d7843          	fmadd.s	fa6,fs10,fa6,ft11
    2b74:	953e                	c.add	a0,a5
    2b76:	e0cd7647          	fmsub.s	fa2,fs10,fa2,ft8
    2b7a:	209af4c3          	fmadd.s	fs1,fs5,fs1,ft4
    2b7e:	0105a027          	fsw	fa6,0(a1)
    2b82:	508af447          	fmsub.s	fs0,fs5,fs0,fa0
    2b86:	e1d0                	c.fsw	fa2,4(a1)
    2b88:	a1ddfec3          	fmadd.s	ft9,fs11,ft9,fs4
    2b8c:	fe972e27          	fsw	fs1,-4(a4)
    2b90:	391df8c7          	fmsub.s	fa7,fs11,fa7,ft7
    2b94:	e300                	c.fsw	fs0,0(a4)
    2b96:	305cf2c3          	fmadd.s	ft5,fs9,ft5,ft6
    2b9a:	01d6a027          	fsw	ft9,0(a3)
    2b9e:	083cf1c7          	fmsub.s	ft3,fs9,ft3,ft1
    2ba2:	0116a227          	fsw	fa7,4(a3)
    2ba6:	58dbf6c3          	fmadd.s	fa3,fs7,fa3,fa1
    2baa:	00582027          	fsw	ft5,0(a6)
    2bae:	10fbf7c7          	fmsub.s	fa5,fs7,fa5,ft2
    2bb2:	00382227          	fsw	ft3,4(a6)
    2bb6:	95be                	c.add	a1,a5
    2bb8:	e214                	c.fsw	fa3,0(a2)
    2bba:	983e                	c.add	a6,a5
    2bbc:	e25c                	c.fsw	fa5,4(a2)
    2bbe:	96be                	c.add	a3,a5
    2bc0:	963e                	c.add	a2,a5
    2bc2:	973e                	c.add	a4,a5
    2bc4:	e1be64e3          	bltu	t3,s11,29cc <riscv_radix8_butterfly_f32+0x378>
    2bc8:	4772                	c.lwsp	a4,28(sp)
    2bca:	8f7e                	c.mv	t5,t6
    2bcc:	8fda                	c.mv	t6,s6
    2bce:	9fba                	c.add	t6,a4
    2bd0:	4762                	c.lwsp	a4,24(sp)
    2bd2:	8e96                	c.mv	t4,t0
    2bd4:	93ba                	c.add	t2,a4
    2bd6:	42b2                	c.lwsp	t0,12(sp)
    2bd8:	4752                	c.lwsp	a4,20(sp)
    2bda:	0ea1                	c.addi	t4,8
    2bdc:	8b66                	c.mv	s6,s9
    2bde:	0405                	c.addi	s0,1
    2be0:	92e6                	c.add	t0,s9
    2be2:	cfd717e3          	bne	a4,t4,28d0 <riscv_radix8_butterfly_f32+0x27c>
    2be6:	46b6                	c.lwsp	a3,76(sp)
    2be8:	4716                	c.lwsp	a4,68(sp)
    2bea:	01069c93          	slli	s9,a3,0x10
    2bee:	4526                	c.lwsp	a0,72(sp)
    2bf0:	010cdc93          	srli	s9,s9,0x10
    2bf4:	8d3a                	c.mv	s10,a4
    2bf6:	b45d                	c.j	269c <riscv_radix8_butterfly_f32+0x48>
    2bf8:	543a                	c.lwsp	s0,172(sp)
    2bfa:	7476                	c.flwsp	fs0,124(sp)
    2bfc:	74e6                	c.flwsp	fs1,120(sp)
    2bfe:	7956                	c.flwsp	fs2,116(sp)
    2c00:	79c6                	c.flwsp	fs3,112(sp)
    2c02:	7a36                	c.flwsp	fs4,108(sp)
    2c04:	7aa6                	c.flwsp	fs5,104(sp)
    2c06:	7b16                	c.flwsp	fs6,100(sp)
    2c08:	7b86                	c.flwsp	fs7,96(sp)
    2c0a:	6c76                	c.flwsp	fs8,92(sp)
    2c0c:	6ce6                	c.flwsp	fs9,88(sp)
    2c0e:	6d56                	c.flwsp	fs10,84(sp)
    2c10:	6dc6                	c.flwsp	fs11,80(sp)
    2c12:	54aa                	c.lwsp	s1,168(sp)
    2c14:	591a                	c.lwsp	s2,164(sp)
    2c16:	598a                	c.lwsp	s3,160(sp)
    2c18:	4a7a                	c.lwsp	s4,156(sp)
    2c1a:	4aea                	c.lwsp	s5,152(sp)
    2c1c:	4b5a                	c.lwsp	s6,148(sp)
    2c1e:	4bca                	c.lwsp	s7,144(sp)
    2c20:	4c3a                	c.lwsp	s8,140(sp)
    2c22:	4caa                	c.lwsp	s9,136(sp)
    2c24:	4d1a                	c.lwsp	s10,132(sp)
    2c26:	4d8a                	c.lwsp	s11,128(sp)
    2c28:	614d                	c.addi16sp	sp,176
    2c2a:	8082                	c.jr	ra

00002c2c <riscv_bitreversal_32>:
    2c2c:	c9a1                	c.beqz	a1,2c7c <riscv_bitreversal_32+0x50>
    2c2e:	15fd                	c.addi	a1,-1
    2c30:	8185                	c.srli	a1,0x1
    2c32:	00259813          	slli	a6,a1,0x2
    2c36:	00460793          	addi	a5,a2,4
    2c3a:	983e                	c.add	a6,a5
    2c3c:	00265783          	lhu	a5,2(a2)
    2c40:	00065703          	lhu	a4,0(a2)
    2c44:	0611                	c.addi	a2,4
    2c46:	8389                	c.srli	a5,0x2
    2c48:	078a                	c.slli	a5,0x2
    2c4a:	8309                	c.srli	a4,0x2
    2c4c:	00f506b3          	add	a3,a0,a5
    2c50:	070a                	c.slli	a4,0x2
    2c52:	0006a303          	lw	t1,0(a3)
    2c56:	00e505b3          	add	a1,a0,a4
    2c5a:	0005a883          	lw	a7,0(a1)
    2c5e:	0791                	c.addi	a5,4
    2c60:	0065a023          	sw	t1,0(a1)
    2c64:	97aa                	c.add	a5,a0
    2c66:	0711                	c.addi	a4,4
    2c68:	0116a023          	sw	a7,0(a3)
    2c6c:	972a                	c.add	a4,a0
    2c6e:	438c                	c.lw	a1,0(a5)
    2c70:	4314                	c.lw	a3,0(a4)
    2c72:	c30c                	c.sw	a1,0(a4)
    2c74:	00d7a023          	sw	a3,0(a5)
    2c78:	fcc812e3          	bne	a6,a2,2c3c <riscv_bitreversal_32+0x10>
    2c7c:	8082                	c.jr	ra
	...

00002c80 <sinf>:
    2c80:	3f491737          	lui	a4,0x3f491
    2c84:	e00507d3          	fmv.x.w	a5,fa0
    2c88:	fda70713          	addi	a4,a4,-38 # 3f490fda <_DATA_LMA_START+0x1f48bac2>
    2c8c:	85be                	c.mv	a1,a5
    2c8e:	7807a6db          	bfoz	a3,a5,30,0
    2c92:	02d76963          	bltu	a4,a3,2cc4 <sinf+0x44>
    2c96:	39800737          	lui	a4,0x39800
    2c9a:	0ae6e963          	bltu	a3,a4,2d4c <sinf+0xcc>
    2c9e:	10a577d3          	fmul.s	fa5,fa0,fa0
    2ca2:	801f970b          	addigp	a4,-2048 # 80000 <cst_libm_sincosf>
    2ca6:	20a505d3          	fmv.s	fa1,fa0
    2caa:	6354                	c.flw	fa3,4(a4)
    2cac:	6708                	c.flw	fa0,8(a4)
    2cae:	6318                	c.flw	fa4,0(a4)
    2cb0:	68f57543          	fmadd.s	fa0,fa0,fa5,fa3
    2cb4:	70f57543          	fmadd.s	fa0,fa0,fa5,fa4
    2cb8:	10f57553          	fmul.s	fa0,fa0,fa5
    2cbc:	58a5f543          	fmadd.s	fa0,fa1,fa0,fa1
    2cc0:	00008067          	ret
    2cc4:	1101                	c.addi	sp,-32
    2cc6:	46491737          	lui	a4,0x46491
    2cca:	ce06                	c.swsp	ra,28(sp)
    2ccc:	e4870713          	addi	a4,a4,-440 # 46490e48 <_DATA_LMA_START+0x2648b930>
    2cd0:	0ad76663          	bltu	a4,a3,2d7c <sinf+0xfc>
    2cd4:	00095737          	lui	a4,0x95
    2cd8:	000956b7          	lui	a3,0x95
    2cdc:	7006a587          	flw	fa1,1792(a3) # 95700 <twiddleCoef_16+0x84>
    2ce0:	72072787          	flw	fa5,1824(a4) # 95720 <cst_libm_rredf>
    2ce4:	7219170b          	addigp	a4,85792 # 95720 <cst_libm_rredf>
    2ce8:	6710                	c.flw	fa2,8(a4)
    2cea:	58f577c3          	fmadd.s	fa5,fa0,fa5,fa1
    2cee:	6754                	c.flw	fa3,12(a4)
    2cf0:	6b18                	c.flw	fa4,16(a4)
    2cf2:	6b48                	c.flw	fa0,20(a4)
    2cf4:	08b7f7d3          	fsub.s	fa5,fa5,fa1
    2cf8:	f00785d3          	fmv.w.x	fa1,a5
    2cfc:	58c7f64b          	fnmsub.s	fa2,fa5,fa2,fa1
    2d00:	c0079753          	fcvt.w.s	a4,fa5,rtz
    2d04:	60d7f6cb          	fnmsub.s	fa3,fa5,fa3,fa2
    2d08:	00177693          	andi	a3,a4,1
    2d0c:	00277713          	andi	a4,a4,2
    2d10:	68e7f74b          	fnmsub.s	fa4,fa5,fa4,fa3
    2d14:	70a7f5cb          	fnmsub.s	fa1,fa5,fa0,fa4
    2d18:	e00587d3          	fmv.x.w	a5,fa1
    2d1c:	f00785d3          	fmv.w.x	fa1,a5
    2d20:	10b5f7d3          	fmul.s	fa5,fa1,fa1
    2d24:	cec1                	c.beqz	a3,2dbc <sinf+0x13c>
    2d26:	801f978b          	addigp	a5,-2048 # 80000 <cst_libm_sincosf>
    2d2a:	6f88                	c.flw	fa0,24(a5)
    2d2c:	6bd0                	c.flw	fa2,20(a5)
    2d2e:	6b94                	c.flw	fa3,16(a5)
    2d30:	67d8                	c.flw	fa4,12(a5)
    2d32:	60f57543          	fmadd.s	fa0,fa0,fa5,fa2
    2d36:	68f57543          	fmadd.s	fa0,fa0,fa5,fa3
    2d3a:	70f57543          	fmadd.s	fa0,fa0,fa5,fa4
    2d3e:	c319                	c.beqz	a4,2d44 <sinf+0xc4>
    2d40:	20a51553          	fneg.s	fa0,fa0
    2d44:	40f2                	c.lwsp	ra,28(sp)
    2d46:	6105                	c.addi16sp	sp,32
    2d48:	00008067          	ret
    2d4c:	00179593          	slli	a1,a5,0x1
    2d50:	ff000737          	lui	a4,0xff000
    2d54:	00e5e863          	bltu	a1,a4,2d64 <sinf+0xe4>
    2d58:	00e58863          	beq	a1,a4,2d68 <sinf+0xe8>
    2d5c:	00a57553          	fadd.s	fa0,fa0,fa0
    2d60:	00008067          	ret
    2d64:	00008067          	ret
    2d68:	02100713          	li	a4,33
    2d6c:	f0000553          	fmv.w.x	fa0,zero
    2d70:	00eb4e2b          	swgp	a4,86044 # 9581c <__mculib_REENT_errno>
    2d74:	18a57553          	fdiv.s	fa0,fa0,fa0
    2d78:	00008067          	ret
    2d7c:	0068                	c.addi4spn	a0,sp,12
    2d7e:	2ad9                	c.jal	2f54 <ref__mathlib_rredf2>
    2d80:	4732                	c.lwsp	a4,12(sp)
    2d82:	e00507d3          	fmv.x.w	a5,fa0
    2d86:	02075763          	bgez	a4,2db4 <sinf+0x134>
    2d8a:	00179593          	slli	a1,a5,0x1
    2d8e:	ff000737          	lui	a4,0xff000
    2d92:	fae5e9e3          	bltu	a1,a4,2d44 <sinf+0xc4>
    2d96:	00e58563          	beq	a1,a4,2da0 <sinf+0x120>
    2d9a:	00a57553          	fadd.s	fa0,fa0,fa0
    2d9e:	b75d                	c.j	2d44 <sinf+0xc4>
    2da0:	f0000553          	fmv.w.x	fa0,zero
    2da4:	02100713          	li	a4,33
    2da8:	00eb4e2b          	swgp	a4,86044 # 9581c <__mculib_REENT_errno>
    2dac:	18a57553          	fdiv.s	fa0,fa0,fa0
    2db0:	f95ff06f          	j	2d44 <sinf+0xc4>
    2db4:	00177693          	andi	a3,a4,1
    2db8:	8b09                	c.andi	a4,2
    2dba:	b78d                	c.j	2d1c <sinf+0x9c>
    2dbc:	801f968b          	addigp	a3,-2048 # 80000 <cst_libm_sincosf>
    2dc0:	6688                	c.flw	fa0,8(a3)
    2dc2:	62d4                	c.flw	fa3,4(a3)
    2dc4:	6298                	c.flw	fa4,0(a3)
    2dc6:	68f57543          	fmadd.s	fa0,fa0,fa5,fa3
    2dca:	70f57543          	fmadd.s	fa0,fa0,fa5,fa4
    2dce:	10f57553          	fmul.s	fa0,fa0,fa5
    2dd2:	58a5f543          	fmadd.s	fa0,fa1,fa0,fa1
    2dd6:	f72d                	c.bnez	a4,2d40 <sinf+0xc0>
    2dd8:	b7b5                	c.j	2d44 <sinf+0xc4>
    2dda:	0001                	c.nop

00002ddc <sqrtf>:
    2ddc:	715d                	c.addi16sp	sp,-80
    2dde:	c4a2                	c.swsp	s0,72(sp)
    2de0:	fe22                	c.fswsp	fs0,60(sp)
    2de2:	c686                	c.swsp	ra,76(sp)
    2de4:	20a50453          	fmv.s	fs0,fa0
    2de8:	2871                	c.jal	2e84 <__ieee754_sqrtf>
    2dea:	7f99242b          	lwgp	s0,86008 # 957f8 <__fdlib_version>
    2dee:	57fd                	c.li	a5,-1
    2df0:	00f40a63          	beq	s0,a5,2e04 <sqrtf+0x28>
    2df4:	a08427d3          	feq.s	a5,fs0,fs0
    2df8:	c791                	c.beqz	a5,2e04 <sqrtf+0x28>
    2dfa:	f00007d3          	fmv.w.x	fa5,zero
    2dfe:	a0f417d3          	flt.s	a5,fs0,fa5
    2e02:	e799                	c.bnez	a5,2e10 <sqrtf+0x34>
    2e04:	40b6                	c.lwsp	ra,76(sp)
    2e06:	4426                	c.lwsp	s0,72(sp)
    2e08:	7472                	c.flwsp	fs0,60(sp)
    2e0a:	6161                	c.addi16sp	sp,80
    2e0c:	00008067          	ret
    2e10:	4785                	c.li	a5,1
    2e12:	20840553          	fmv.s	fa0,fs0
    2e16:	c43e                	c.swsp	a5,8(sp)
    2e18:	000957b7          	lui	a5,0x95
    2e1c:	70478793          	addi	a5,a5,1796 # 95704 <twiddleCoef_16+0x88>
    2e20:	c63e                	c.swsp	a5,12(sp)
    2e22:	d402                	c.swsp	zero,40(sp)
    2e24:	1ec010ef          	jal	ra,4010 <__extendsfdf2>
    2e28:	cc2a                	c.swsp	a0,24(sp)
    2e2a:	ce2e                	c.swsp	a1,28(sp)
    2e2c:	c82a                	c.swsp	a0,16(sp)
    2e2e:	ca2e                	c.swsp	a1,20(sp)
    2e30:	e405                	c.bnez	s0,2e58 <sqrtf+0x7c>
    2e32:	d002                	c.swsp	zero,32(sp)
    2e34:	02012223          	sw	zero,36(sp)
    2e38:	0028                	c.addi4spn	a0,sp,8
    2e3a:	2c99                	c.jal	3090 <matherr>
    2e3c:	00051663          	bnez	a0,2e48 <sqrtf+0x6c>
    2e40:	02100713          	li	a4,33
    2e44:	00eb4e2b          	swgp	a4,86044 # 9581c <__mculib_REENT_errno>
    2e48:	57a2                	c.lwsp	a5,40(sp)
    2e4a:	c399                	c.beqz	a5,2e50 <sqrtf+0x74>
    2e4c:	00fb4e2b          	swgp	a5,86044 # 9581c <__mculib_REENT_errno>
    2e50:	5502                	c.lwsp	a0,32(sp)
    2e52:	5592                	c.lwsp	a1,36(sp)
    2e54:	0200006f          	j	2e74 <sqrtf+0x98>
    2e58:	4601                	c.li	a2,0
    2e5a:	4681                	c.li	a3,0
    2e5c:	8532                	c.mv	a0,a2
    2e5e:	85b6                	c.mv	a1,a3
    2e60:	2c15                	c.jal	3094 <__divdf3>
    2e62:	d02a                	c.swsp	a0,32(sp)
    2e64:	02b12223          	sw	a1,36(sp)
    2e68:	bc24685b          	bnec	s0,2,2e38 <sqrtf+0x5c>
    2e6c:	02100713          	li	a4,33
    2e70:	00eb4e2b          	swgp	a4,86044 # 9581c <__mculib_REENT_errno>
    2e74:	2ac010ef          	jal	ra,4120 <__truncdfsf2>
    2e78:	40b6                	c.lwsp	ra,76(sp)
    2e7a:	4426                	c.lwsp	s0,72(sp)
    2e7c:	7472                	c.flwsp	fs0,60(sp)
    2e7e:	6161                	c.addi16sp	sp,80
    2e80:	8082                	c.jr	ra
    2e82:	0001                	c.nop

00002e84 <__ieee754_sqrtf>:
    2e84:	e0050753          	fmv.x.w	a4,fa0
    2e88:	7f800637          	lui	a2,0x7f800
    2e8c:	780726db          	bfoz	a3,a4,30,0
    2e90:	1141                	c.addi	sp,-16
    2e92:	0ac6f163          	bgeu	a3,a2,2f34 <__ieee754_sqrtf+0xb0>
    2e96:	cac9                	c.beqz	a3,2f28 <__ieee754_sqrtf+0xa4>
    2e98:	87ba                	c.mv	a5,a4
    2e9a:	0a074363          	bltz	a4,2f40 <__ieee754_sqrtf+0xbc>
    2e9e:	00800737          	lui	a4,0x800
    2ea2:	4177d613          	srai	a2,a5,0x17
    2ea6:	00e6ff63          	bgeu	a3,a4,2ec4 <__ieee754_sqrtf+0x40>
    2eaa:	8f7d                	c.and	a4,a5
    2eac:	c701                	c.beqz	a4,2eb4 <__ieee754_sqrtf+0x30>
    2eae:	a879                	c.j	2f4c <__ieee754_sqrtf+0xc8>
    2eb0:	00d00733          	add	a4,zero,a3
    2eb4:	00179793          	slli	a5,a5,0x1
    2eb8:	00170693          	addi	a3,a4,1 # 800001 <FLASH_SIZE+0x700001>
    2ebc:	bf77fa5b          	bbc	a5,23,2eb0 <__ieee754_sqrtf+0x2c>
    2ec0:	40e60633          	sub	a2,a2,a4
    2ec4:	5807a7db          	bfoz	a5,a5,22,0
    2ec8:	00800737          	lui	a4,0x800
    2ecc:	00f76733          	or	a4,a4,a5
    2ed0:	f8160693          	addi	a3,a2,-127 # 7f7fff81 <_DATA_LMA_START+0x5f7faa69>
    2ed4:	00171793          	slli	a5,a4,0x1
    2ed8:	0006f45b          	bbc	a3,0,2ee0 <__ieee754_sqrtf+0x5c>
    2edc:	00271793          	slli	a5,a4,0x2
    2ee0:	4016d813          	srai	a6,a3,0x1
    2ee4:	4501                	c.li	a0,0
    2ee6:	46e5                	c.li	a3,25
    2ee8:	00000593          	li	a1,0
    2eec:	01000737          	lui	a4,0x1000
    2ef0:	00e58633          	add	a2,a1,a4
    2ef4:	16fd                	c.addi	a3,-1
    2ef6:	00c7c763          	blt	a5,a2,2f04 <__ieee754_sqrtf+0x80>
    2efa:	00e605b3          	add	a1,a2,a4
    2efe:	8f91                	c.sub	a5,a2
    2f00:	00e50533          	add	a0,a0,a4
    2f04:	0786                	c.slli	a5,0x1
    2f06:	8305                	c.srli	a4,0x1
    2f08:	f6e5                	c.bnez	a3,2ef0 <__ieee754_sqrtf+0x6c>
    2f0a:	c399                	c.beqz	a5,2f10 <__ieee754_sqrtf+0x8c>
    2f0c:	0505                	c.addi	a0,1
    2f0e:	9979                	c.andi	a0,-2
    2f10:	8505                	c.srai	a0,0x1
    2f12:	3f0007b7          	lui	a5,0x3f000
    2f16:	953e                	c.add	a0,a5
    2f18:	01781693          	slli	a3,a6,0x17
    2f1c:	9536                	c.add	a0,a3
    2f1e:	c62a                	c.swsp	a0,12(sp)
    2f20:	6532                	c.flwsp	fa0,12(sp)
    2f22:	0141                	c.addi	sp,16
    2f24:	00008067          	ret
    2f28:	e62a                	c.fswsp	fa0,12(sp)
    2f2a:	0001                	c.nop
    2f2c:	6532                	c.flwsp	fa0,12(sp)
    2f2e:	0141                	c.addi	sp,16
    2f30:	00008067          	ret
    2f34:	50a57743          	fmadd.s	fa4,fa0,fa0,fa0
    2f38:	e63a                	c.fswsp	fa4,12(sp)
    2f3a:	6532                	c.flwsp	fa0,12(sp)
    2f3c:	0141                	c.addi	sp,16
    2f3e:	8082                	c.jr	ra
    2f40:	08a577d3          	fsub.s	fa5,fa0,fa0
    2f44:	18f7f5d3          	fdiv.s	fa1,fa5,fa5
    2f48:	e62e                	c.fswsp	fa1,12(sp)
    2f4a:	b7cd                	c.j	2f2c <__ieee754_sqrtf+0xa8>
    2f4c:	577d                	c.li	a4,-1
    2f4e:	bf8d                	c.j	2ec0 <__ieee754_sqrtf+0x3c>
    2f50:	0001                	c.nop
	...

00002f54 <ref__mathlib_rredf2>:
    2f54:	00159713          	slli	a4,a1,0x1
    2f58:	ff0007b7          	lui	a5,0xff000
    2f5c:	12f77663          	bgeu	a4,a5,3088 <ref__mathlib_rredf2+0x134>
    2f60:	7975a7db          	bfoz	a5,a1,30,23
    2f64:	f8878793          	addi	a5,a5,-120 # feffff88 <_DATA_LMA_START+0xdeffaa70>
    2f68:	4057d613          	srai	a2,a5,0x5
    2f6c:	7399168b          	addigp	a3,85816 # 95738 <twooverpi.2618>
    2f70:	0cc688db          	lea.w	a7,a3,a2
    2f74:	00859313          	slli	t1,a1,0x8
    2f78:	80000e37          	lui	t3,0x80000
    2f7c:	8bfd                	c.andi	a5,31
    2f7e:	01c36e33          	or	t3,t1,t3
    2f82:	0048a703          	lw	a4,4(a7)
    2f86:	0008a303          	lw	t1,0(a7)
    2f8a:	0088a803          	lw	a6,8(a7)
    2f8e:	cb8d                	c.beqz	a5,2fc0 <ref__mathlib_rredf2+0x6c>
    2f90:	00c8a603          	lw	a2,12(a7)
    2f94:	02000693          	li	a3,32
    2f98:	40f686b3          	sub	a3,a3,a5
    2f9c:	00d75eb3          	srl	t4,a4,a3
    2fa0:	00d858b3          	srl	a7,a6,a3
    2fa4:	00f31333          	sll	t1,t1,a5
    2fa8:	00f71733          	sll	a4,a4,a5
    2fac:	00f81833          	sll	a6,a6,a5
    2fb0:	00d656b3          	srl	a3,a2,a3
    2fb4:	006ee333          	or	t1,t4,t1
    2fb8:	00e8e733          	or	a4,a7,a4
    2fbc:	0106e833          	or	a6,a3,a6
    2fc0:	f0ee167f          	mulr64	a2,t3,a4
    2fc4:	f10e187f          	mulr64	a6,t3,a6
    2fc8:	f1c3137f          	mulr64	t1,t1,t3
    2fcc:	00c88733          	add	a4,a7,a2
    2fd0:	006687b3          	add	a5,a3,t1
    2fd4:	01173e33          	sltu	t3,a4,a7
    2fd8:	01c787b3          	add	a5,a5,t3
    2fdc:	0b176063          	bltu	a4,a7,307c <ref__mathlib_rredf2+0x128>
    2fe0:	00d7b633          	sltu	a2,a5,a3
    2fe4:	961e                	c.add	a2,t2
    2fe6:	0137d693          	srli	a3,a5,0x13
    2fea:	01a61813          	slli	a6,a2,0x1a
    2fee:	06b6                	c.slli	a3,0xd
    2ff0:	0106e6b3          	or	a3,a3,a6
    2ff4:	07b6                	c.slli	a5,0xd
    2ff6:	d006f6d3          	fcvt.s.w	fa3,a3
    2ffa:	000956b7          	lui	a3,0x95
    2ffe:	70c6a587          	flw	fa1,1804(a3) # 9570c <twiddleCoef_16+0x90>
    3002:	d017f753          	fcvt.s.wu	fa4,a5
    3006:	000957b7          	lui	a5,0x95
    300a:	7107a607          	flw	fa2,1808(a5) # 95710 <twiddleCoef_16+0x94>
    300e:	d0177553          	fcvt.s.wu	fa0,a4
    3012:	6685                	c.lui	a3,0x1
    3014:	80068693          	addi	a3,a3,-2048 # 800 <analog_read_reg8+0x4>
    3018:	68b777c3          	fmadd.s	fa5,fa4,fa1,fa3
    301c:	777d                	c.lui	a4,0xfffff
    301e:	02060613          	addi	a2,a2,32
    3022:	8219                	c.srli	a2,0x6
    3024:	78c577c3          	fmadd.s	fa5,fa0,fa2,fa5
    3028:	e00787d3          	fmv.x.w	a5,fa5
    302c:	97b6                	c.add	a5,a3
    302e:	8ff9                	c.and	a5,a4
    3030:	f00787d3          	fmv.w.x	fa5,a5
    3034:	08d7f6d3          	fsub.s	fa3,fa5,fa3
    3038:	00095737          	lui	a4,0x95
    303c:	68b7774b          	fnmsub.s	fa4,fa4,fa1,fa3
    3040:	70c57747          	fmsub.s	fa4,fa0,fa2,fa4
    3044:	71472507          	flw	fa0,1812(a4) # 95714 <twiddleCoef_16+0x98>
    3048:	00095737          	lui	a4,0x95
    304c:	f0078653          	fmv.w.x	fa2,a5
    3050:	10a77753          	fmul.s	fa4,fa4,fa0
    3054:	71872507          	flw	fa0,1816(a4) # 95718 <twiddleCoef_16+0x9c>
    3058:	00095737          	lui	a4,0x95
    305c:	70a7f543          	fmadd.s	fa0,fa5,fa0,fa4
    3060:	71c72787          	flw	fa5,1820(a4) # 9571c <twiddleCoef_16+0xa0>
    3064:	50f67543          	fmadd.s	fa0,fa2,fa5,fa0
    3068:	0005d863          	bgez	a1,3078 <ref__mathlib_rredf2+0x124>
    306c:	20a51553          	fneg.s	fa0,fa0
    3070:	100007b7          	lui	a5,0x10000
    3074:	40c78633          	sub	a2,a5,a2
    3078:	c110                	c.sw	a2,0(a0)
    307a:	8082                	c.jr	ra
    307c:	00f6b633          	sltu	a2,a3,a5
    3080:	00164613          	xori	a2,a2,1
    3084:	f61ff06f          	j	2fe4 <ref__mathlib_rredf2+0x90>
    3088:	57fd                	c.li	a5,-1
    308a:	c11c                	c.sw	a5,0(a0)
    308c:	8082                	c.jr	ra
    308e:	0001                	c.nop

00003090 <matherr>:
    3090:	4501                	c.li	a0,0
    3092:	8082                	c.jr	ra

00003094 <__divdf3>:
    3094:	1101                	c.addi	sp,-32
    3096:	ce22                	c.swsp	s0,28(sp)
    3098:	cc26                	c.swsp	s1,24(sp)
    309a:	ca4a                	c.swsp	s2,20(sp)
    309c:	c84e                	c.swsp	s3,16(sp)
    309e:	c652                	c.swsp	s4,12(sp)
    30a0:	00202ef3          	frrm	t4
    30a4:	7945a75b          	bfoz	a4,a1,30,20
    30a8:	4c05a7db          	bfoz	a5,a1,19,0
    30ac:	81fd                	c.srli	a1,0x1f
    30ae:	c37d                	c.beqz	a4,3194 <__divdf3+0x100>
    30b0:	7ff00813          	li	a6,2047
    30b4:	07070a63          	beq	a4,a6,3128 <__divdf3+0x94>
    30b8:	078e                	c.slli	a5,0x3
    30ba:	00800837          	lui	a6,0x800
    30be:	01d55893          	srli	a7,a0,0x1d
    30c2:	0107e7b3          	or	a5,a5,a6
    30c6:	00f8e8b3          	or	a7,a7,a5
    30ca:	050e                	c.slli	a0,0x3
    30cc:	c0170f93          	addi	t6,a4,-1023
    30d0:	4781                	c.li	a5,0
    30d2:	4381                	c.li	t2,0
    30d4:	00000e13          	li	t3,0
    30d8:	7946a85b          	bfoz	a6,a3,30,20
    30dc:	4c06a75b          	bfoz	a4,a3,19,0
    30e0:	01f6d693          	srli	a3,a3,0x1f
    30e4:	06080463          	beqz	a6,314c <__divdf3+0xb8>
    30e8:	7ff00313          	li	t1,2047
    30ec:	0e680a63          	beq	a6,t1,31e0 <__divdf3+0x14c>
    30f0:	070e                	c.slli	a4,0x3
    30f2:	00800f37          	lui	t5,0x800
    30f6:	01d65313          	srli	t1,a2,0x1d
    30fa:	01e76733          	or	a4,a4,t5
    30fe:	c0180813          	addi	a6,a6,-1023 # 7ffc01 <FLASH_SIZE+0x6ffc01>
    3102:	00e36733          	or	a4,t1,a4
    3106:	060e                	c.slli	a2,0x3
    3108:	410f8fb3          	sub	t6,t6,a6
    310c:	00000293          	li	t0,0
    3110:	00d5c833          	xor	a6,a1,a3
    3114:	433d                	c.li	t1,15
    3116:	8f42                	c.mv	t5,a6
    3118:	12f36063          	bltu	t1,a5,3238 <__divdf3+0x1a4>
    311c:	7599130b          	addigp	t1,85848 # 95758 <twooverpi.2618+0x20>
    3120:	0cf307db          	lea.w	a5,t1,a5
    3124:	439c                	c.lw	a5,0(a5)
    3126:	8782                	c.jr	a5
    3128:	00a7e8b3          	or	a7,a5,a0
    312c:	0e089a63          	bnez	a7,3220 <__divdf3+0x18c>
    3130:	7946a85b          	bfoz	a6,a3,30,20
    3134:	4c06a75b          	bfoz	a4,a3,19,0
    3138:	47a1                	c.li	a5,8
    313a:	4501                	c.li	a0,0
    313c:	7ff00f93          	li	t6,2047
    3140:	4389                	c.li	t2,2
    3142:	4e01                	c.li	t3,0
    3144:	01f6d693          	srli	a3,a3,0x1f
    3148:	fa0810e3          	bnez	a6,30e8 <__divdf3+0x54>
    314c:	00c76833          	or	a6,a4,a2
    3150:	0a080663          	beqz	a6,31fc <__divdf3+0x168>
    3154:	af97087f          	clz32	a6,a4
    3158:	00071663          	bnez	a4,3164 <__divdf3+0xd0>
    315c:	af96087f          	clz32	a6,a2
    3160:	02080813          	addi	a6,a6,32
    3164:	ff580293          	addi	t0,a6,-11
    3168:	4371                	c.li	t1,28
    316a:	36534363          	blt	t1,t0,34d0 <__divdf3+0x43c>
    316e:	4375                	c.li	t1,29
    3170:	ff880f13          	addi	t5,a6,-8
    3174:	40530333          	sub	t1,t1,t0
    3178:	00665333          	srl	t1,a2,t1
    317c:	01e71733          	sll	a4,a4,t5
    3180:	00e36733          	or	a4,t1,a4
    3184:	01e61633          	sll	a2,a2,t5
    3188:	9fc2                	c.add	t6,a6
    318a:	3f3f8f93          	addi	t6,t6,1011
    318e:	4281                	c.li	t0,0
    3190:	f81ff06f          	j	3110 <__divdf3+0x7c>
    3194:	00a7e8b3          	or	a7,a5,a0
    3198:	06088e63          	beqz	a7,3214 <__divdf3+0x180>
    319c:	af97877f          	clz32	a4,a5
    31a0:	00079663          	bnez	a5,31ac <__divdf3+0x118>
    31a4:	af95077f          	clz32	a4,a0
    31a8:	02070713          	addi	a4,a4,32
    31ac:	ff570313          	addi	t1,a4,-11
    31b0:	4871                	c.li	a6,28
    31b2:	32684563          	blt	a6,t1,34dc <__divdf3+0x448>
    31b6:	48f5                	c.li	a7,29
    31b8:	ff870813          	addi	a6,a4,-8
    31bc:	406888b3          	sub	a7,a7,t1
    31c0:	011558b3          	srl	a7,a0,a7
    31c4:	010797b3          	sll	a5,a5,a6
    31c8:	00f8e8b3          	or	a7,a7,a5
    31cc:	01051533          	sll	a0,a0,a6
    31d0:	c0d00f93          	li	t6,-1011
    31d4:	40ef8fb3          	sub	t6,t6,a4
    31d8:	4781                	c.li	a5,0
    31da:	4381                	c.li	t2,0
    31dc:	4e01                	c.li	t3,0
    31de:	bded                	c.j	30d8 <__divdf3+0x44>
    31e0:	00c76833          	or	a6,a4,a2
    31e4:	801f8f93          	addi	t6,t6,-2047
    31e8:	02080063          	beqz	a6,3208 <__divdf3+0x174>
    31ec:	0037e793          	ori	a5,a5,3
    31f0:	428d                	c.li	t0,3
    31f2:	f1377f5b          	bbs	a4,19,3110 <__divdf3+0x7c>
    31f6:	4e41                	c.li	t3,16
    31f8:	f19ff06f          	j	3110 <__divdf3+0x7c>
    31fc:	0017e793          	ori	a5,a5,1
    3200:	4701                	c.li	a4,0
    3202:	4601                	c.li	a2,0
    3204:	4285                	c.li	t0,1
    3206:	b729                	c.j	3110 <__divdf3+0x7c>
    3208:	0027e793          	ori	a5,a5,2
    320c:	4701                	c.li	a4,0
    320e:	4601                	c.li	a2,0
    3210:	4289                	c.li	t0,2
    3212:	bdfd                	c.j	3110 <__divdf3+0x7c>
    3214:	4791                	c.li	a5,4
    3216:	4501                	c.li	a0,0
    3218:	4f81                	c.li	t6,0
    321a:	4385                	c.li	t2,1
    321c:	4e01                	c.li	t3,0
    321e:	bd6d                	c.j	30d8 <__divdf3+0x44>
    3220:	0137d713          	srli	a4,a5,0x13
    3224:	88be                	c.mv	a7,a5
    3226:	7ff00f93          	li	t6,2047
    322a:	47b1                	c.li	a5,12
    322c:	438d                	c.li	t2,3
    322e:	4e41                	c.li	t3,16
    3230:	ea0704e3          	beqz	a4,30d8 <__divdf3+0x44>
    3234:	4e01                	c.li	t3,0
    3236:	b54d                	c.j	30d8 <__divdf3+0x44>
    3238:	2f176063          	bltu	a4,a7,3518 <__divdf3+0x484>
    323c:	2ce88c63          	beq	a7,a4,3514 <__divdf3+0x480>
    3240:	85aa                	c.mv	a1,a0
    3242:	1ffd                	c.addi	t6,-1
    3244:	00000513          	li	a0,0
    3248:	0722                	c.slli	a4,0x8
    324a:	01865313          	srli	t1,a2,0x18
    324e:	00e36333          	or	t1,t1,a4
    3252:	01035293          	srli	t0,t1,0x10
    3256:	0258d733          	divu	a4,a7,t0
    325a:	3c0323db          	bfoz	t2,t1,15,0
    325e:	00861413          	slli	s0,a2,0x8
    3262:	0105d793          	srli	a5,a1,0x10
    3266:	0258f8b3          	remu	a7,a7,t0
    326a:	02e38633          	mul	a2,t2,a4
    326e:	08c2                	c.slli	a7,0x10
    3270:	0117e7b3          	or	a5,a5,a7
    3274:	00c7fc63          	bgeu	a5,a2,328c <__divdf3+0x1f8>
    3278:	979a                	c.add	a5,t1
    327a:	fff70693          	addi	a3,a4,-1
    327e:	3a67e963          	bltu	a5,t1,3630 <__divdf3+0x59c>
    3282:	3ac7f763          	bgeu	a5,a2,3630 <__divdf3+0x59c>
    3286:	1779                	c.addi	a4,-2
    3288:	006787b3          	add	a5,a5,t1
    328c:	8f91                	c.sub	a5,a2
    328e:	0257d6b3          	divu	a3,a5,t0
    3292:	0257f7b3          	remu	a5,a5,t0
    3296:	02d38933          	mul	s2,t2,a3
    329a:	0eb797ff          	pkbb16	a5,a5,a1
    329e:	0127fb63          	bgeu	a5,s2,32b4 <__divdf3+0x220>
    32a2:	979a                	c.add	a5,t1
    32a4:	fff68613          	addi	a2,a3,-1
    32a8:	3867e663          	bltu	a5,t1,3634 <__divdf3+0x5a0>
    32ac:	3927f463          	bgeu	a5,s2,3634 <__divdf3+0x5a0>
    32b0:	16f9                	c.addi	a3,-2
    32b2:	979a                	c.add	a5,t1
    32b4:	0742                	c.slli	a4,0x10
    32b6:	69c1                	c.lui	s3,0x10
    32b8:	8f55                	c.or	a4,a3
    32ba:	fff98693          	addi	a3,s3,-1 # ffff <_RAMCODE_VMA_END+0xac37>
    32be:	00d478b3          	and	a7,s0,a3
    32c2:	01075613          	srli	a2,a4,0x10
    32c6:	031605b3          	mul	a1,a2,a7
    32ca:	8ef9                	c.and	a3,a4
    32cc:	01045493          	srli	s1,s0,0x10
    32d0:	412787b3          	sub	a5,a5,s2
    32d4:	03168a33          	mul	s4,a3,a7
    32d8:	892e                	c.mv	s2,a1
    32da:	c4d4997f          	maddr32	s2,s1,a3
    32de:	02960633          	mul	a2,a2,s1
    32e2:	010a5693          	srli	a3,s4,0x10
    32e6:	96ca                	c.add	a3,s2
    32e8:	00b6f463          	bgeu	a3,a1,32f0 <__divdf3+0x25c>
    32ec:	01360633          	add	a2,a2,s3
    32f0:	69c1                	c.lui	s3,0x10
    32f2:	19fd                	c.addi	s3,-1
    32f4:	0106d913          	srli	s2,a3,0x10
    32f8:	0136f5b3          	and	a1,a3,s3
    32fc:	05c2                	c.slli	a1,0x10
    32fe:	013a76b3          	and	a3,s4,s3
    3302:	964a                	c.add	a2,s2
    3304:	00d585b3          	add	a1,a1,a3
    3308:	1ec7e463          	bltu	a5,a2,34f0 <__divdf3+0x45c>
    330c:	1cc78e63          	beq	a5,a2,34e8 <__divdf3+0x454>
    3310:	40c786b3          	sub	a3,a5,a2
    3314:	40b505b3          	sub	a1,a0,a1
    3318:	00b53533          	sltu	a0,a0,a1
    331c:	40a68533          	sub	a0,a3,a0
    3320:	3fff8793          	addi	a5,t6,1023
    3324:	3aa30863          	beq	t1,a0,36d4 <__divdf3+0x640>
    3328:	02555633          	divu	a2,a0,t0
    332c:	0105d693          	srli	a3,a1,0x10
    3330:	02557533          	remu	a0,a0,t0
    3334:	02c38833          	mul	a6,t2,a2
    3338:	0542                	c.slli	a0,0x10
    333a:	8d55                	c.or	a0,a3
    333c:	01057c63          	bgeu	a0,a6,3354 <__divdf3+0x2c0>
    3340:	951a                	c.add	a0,t1
    3342:	fff60693          	addi	a3,a2,-1
    3346:	3a656763          	bltu	a0,t1,36f4 <__divdf3+0x660>
    334a:	3b057563          	bgeu	a0,a6,36f4 <__divdf3+0x660>
    334e:	1679                	c.addi	a2,-2
    3350:	00650533          	add	a0,a0,t1
    3354:	41050533          	sub	a0,a0,a6
    3358:	025556b3          	divu	a3,a0,t0
    335c:	02557533          	remu	a0,a0,t0
    3360:	02d383b3          	mul	t2,t2,a3
    3364:	0eb5157f          	pkbb16	a0,a0,a1
    3368:	00757c63          	bgeu	a0,t2,3380 <__divdf3+0x2ec>
    336c:	951a                	c.add	a0,t1
    336e:	fff68593          	addi	a1,a3,-1
    3372:	36656f63          	bltu	a0,t1,36f0 <__divdf3+0x65c>
    3376:	36757d63          	bgeu	a0,t2,36f0 <__divdf3+0x65c>
    337a:	16f9                	c.addi	a3,-2
    337c:	00650533          	add	a0,a0,t1
    3380:	0642                	c.slli	a2,0x10
    3382:	8e55                	c.or	a2,a3
    3384:	01065813          	srli	a6,a2,0x10
    3388:	031805b3          	mul	a1,a6,a7
    338c:	3c0626db          	bfoz	a3,a2,15,0
    3390:	40750533          	sub	a0,a0,t2
    3394:	02d888b3          	mul	a7,a7,a3
    3398:	82ae                	c.mv	t0,a1
    339a:	c4d492ff          	maddr32	t0,s1,a3
    339e:	030484b3          	mul	s1,s1,a6
    33a2:	0108d693          	srli	a3,a7,0x10
    33a6:	9696                	c.add	a3,t0
    33a8:	00b6f463          	bgeu	a3,a1,33b0 <__divdf3+0x31c>
    33ac:	65c1                	c.lui	a1,0x10
    33ae:	94ae                	c.add	s1,a1
    33b0:	6841                	c.lui	a6,0x10
    33b2:	187d                	c.addi	a6,-1
    33b4:	0106d593          	srli	a1,a3,0x10
    33b8:	0106f6b3          	and	a3,a3,a6
    33bc:	06c2                	c.slli	a3,0x10
    33be:	0108f8b3          	and	a7,a7,a6
    33c2:	94ae                	c.add	s1,a1
    33c4:	00d888b3          	add	a7,a7,a3
    33c8:	22957263          	bgeu	a0,s1,35ec <__divdf3+0x558>
    33cc:	951a                	c.add	a0,t1
    33ce:	fff60693          	addi	a3,a2,-1
    33d2:	3c656163          	bltu	a0,t1,3794 <__divdf3+0x700>
    33d6:	32956963          	bltu	a0,s1,3708 <__divdf3+0x674>
    33da:	42950f63          	beq	a0,s1,3818 <__divdf3+0x784>
    33de:	8636                	c.mv	a2,a3
    33e0:	00166613          	ori	a2,a2,1
    33e4:	18f05c63          	blez	a5,357c <__divdf3+0x4e8>
    33e8:	00767693          	andi	a3,a2,7
    33ec:	20069e63          	bnez	a3,3608 <__divdf3+0x574>
    33f0:	01e00833          	add	a6,zero,t5
    33f4:	0187785b          	bbc	a4,24,3404 <__divdf3+0x370>
    33f8:	ff0007b7          	lui	a5,0xff000
    33fc:	17fd                	c.addi	a5,-1
    33fe:	8f7d                	c.and	a4,a5
    3400:	400f8793          	addi	a5,t6,1024
    3404:	7fe00693          	li	a3,2046
    3408:	12f6c263          	blt	a3,a5,352c <__divdf3+0x498>
    340c:	00365693          	srli	a3,a2,0x3
    3410:	01d71613          	slli	a2,a4,0x1d
    3414:	8e55                	c.or	a2,a3
    3416:	7ff7f793          	andi	a5,a5,2047
    341a:	583726db          	bfoz	a3,a4,22,3
    341e:	a01d                	c.j	3444 <__divdf3+0x3b0>
    3420:	8f2e                	c.mv	t5,a1
    3422:	8746                	c.mv	a4,a7
    3424:	862a                	c.mv	a2,a0
    3426:	829e                	c.mv	t0,t2
    3428:	3822da5b          	beqc	t0,2,37bc <__divdf3+0x728>
    342c:	0832da5b          	beqc	t0,3,34c0 <__divdf3+0x42c>
    3430:	3012dc5b          	beqc	t0,1,3748 <__divdf3+0x6b4>
    3434:	3fff8793          	addi	a5,t6,1023
    3438:	fadff06f          	j	33e4 <__divdf3+0x350>
    343c:	7ff00793          	li	a5,2047
    3440:	4681                	c.li	a3,0
    3442:	4601                	c.li	a2,0
    3444:	4581                	c.li	a1,0
    3446:	fff00737          	lui	a4,0xfff00
    344a:	8f6d                	c.and	a4,a1
    344c:	4c06a6db          	bfoz	a3,a3,19,0
    3450:	8f55                	c.or	a4,a3
    3452:	01479693          	slli	a3,a5,0x14
    3456:	801007b7          	lui	a5,0x80100
    345a:	17fd                	c.addi	a5,-1
    345c:	8ff9                	c.and	a5,a4
    345e:	8fd5                	c.or	a5,a3
    3460:	087e                	c.slli	a6,0x1f
    3462:	7807a7db          	bfoz	a5,a5,30,0
    3466:	8532                	c.mv	a0,a2
    3468:	0107e5b3          	or	a1,a5,a6
    346c:	020e1863          	bnez	t3,349c <__divdf3+0x408>
    3470:	4472                	c.lwsp	s0,28(sp)
    3472:	44e2                	c.lwsp	s1,24(sp)
    3474:	4952                	c.lwsp	s2,20(sp)
    3476:	49c2                	c.lwsp	s3,16(sp)
    3478:	4a32                	c.lwsp	s4,12(sp)
    347a:	6105                	c.addi16sp	sp,32
    347c:	00008067          	ret
    3480:	8f36                	c.mv	t5,a3
    3482:	b75d                	c.j	3428 <__divdf3+0x394>
    3484:	4781                	c.li	a5,0
    3486:	4681                	c.li	a3,0
    3488:	4601                	c.li	a2,0
    348a:	bf6d                	c.j	3444 <__divdf3+0x3b0>
    348c:	7ff007b7          	lui	a5,0x7ff00
    3490:	087e                	c.slli	a6,0x1f
    3492:	4501                	c.li	a0,0
    3494:	0107e5b3          	or	a1,a5,a6
    3498:	008e6e13          	ori	t3,t3,8
    349c:	001e2073          	csrs	fflags,t3
    34a0:	4472                	c.lwsp	s0,28(sp)
    34a2:	44e2                	c.lwsp	s1,24(sp)
    34a4:	4952                	c.lwsp	s2,20(sp)
    34a6:	49c2                	c.lwsp	s3,16(sp)
    34a8:	4a32                	c.lwsp	s4,12(sp)
    34aa:	6105                	c.addi16sp	sp,32
    34ac:	00008067          	ret
    34b0:	4801                	c.li	a6,0
    34b2:	7ff00793          	li	a5,2047
    34b6:	000806b7          	lui	a3,0x80
    34ba:	4601                	c.li	a2,0
    34bc:	4e41                	c.li	t3,16
    34be:	b759                	c.j	3444 <__divdf3+0x3b0>
    34c0:	4801                	c.li	a6,0
    34c2:	7ff00793          	li	a5,2047
    34c6:	000806b7          	lui	a3,0x80
    34ca:	4601                	c.li	a2,0
    34cc:	f79ff06f          	j	3444 <__divdf3+0x3b0>
    34d0:	fd880713          	addi	a4,a6,-40 # ffd8 <_RAMCODE_VMA_END+0xac10>
    34d4:	00e61733          	sll	a4,a2,a4
    34d8:	4601                	c.li	a2,0
    34da:	b17d                	c.j	3188 <__divdf3+0xf4>
    34dc:	fd870893          	addi	a7,a4,-40 # ffefffd8 <_DATA_LMA_START+0xdfefaac0>
    34e0:	011518b3          	sll	a7,a0,a7
    34e4:	4501                	c.li	a0,0
    34e6:	b1ed                	c.j	31d0 <__divdf3+0x13c>
    34e8:	00000693          	li	a3,0
    34ec:	e2b574e3          	bgeu	a0,a1,3314 <__divdf3+0x280>
    34f0:	9522                	c.add	a0,s0
    34f2:	008536b3          	sltu	a3,a0,s0
    34f6:	969a                	c.add	a3,t1
    34f8:	00d787b3          	add	a5,a5,a3
    34fc:	fff70913          	addi	s2,a4,-1
    3500:	0ef37c63          	bgeu	t1,a5,35f8 <__divdf3+0x564>
    3504:	1ec7ea63          	bltu	a5,a2,36f8 <__divdf3+0x664>
    3508:	30f60263          	beq	a2,a5,380c <__divdf3+0x778>
    350c:	40c786b3          	sub	a3,a5,a2
    3510:	874a                	c.mv	a4,s2
    3512:	b509                	c.j	3314 <__divdf3+0x280>
    3514:	d2c566e3          	bltu	a0,a2,3240 <__divdf3+0x1ac>
    3518:	01f89593          	slli	a1,a7,0x1f
    351c:	00155793          	srli	a5,a0,0x1
    3520:	0018d893          	srli	a7,a7,0x1
    3524:	8ddd                	c.or	a1,a5
    3526:	057e                	c.slli	a0,0x1f
    3528:	d21ff06f          	j	3248 <__divdf3+0x1b4>
    352c:	122ed45b          	beqc	t4,2,3654 <__divdf3+0x5c0>
    3530:	223ed25b          	beqc	t4,3,3754 <__divdf3+0x6c0>
    3534:	120e8263          	beqz	t4,3658 <__divdf3+0x5c4>
    3538:	00100737          	lui	a4,0x100
    353c:	7fe00793          	li	a5,2046
    3540:	fff70693          	addi	a3,a4,-1 # fffff <_STACK_TOP+0x5ffff>
    3544:	fff00613          	li	a2,-1
    3548:	005e6e13          	ori	t3,t3,5
    354c:	4581                	c.li	a1,0
    354e:	fff00737          	lui	a4,0xfff00
    3552:	8532                	c.mv	a0,a2
    3554:	00b77633          	and	a2,a4,a1
    3558:	4c06a75b          	bfoz	a4,a3,19,0
    355c:	8f51                	c.or	a4,a2
    355e:	80100637          	lui	a2,0x80100
    3562:	167d                	c.addi	a2,-1
    3564:	8e79                	c.and	a2,a4
    3566:	07d2                	c.slli	a5,0x14
    3568:	8fd1                	c.or	a5,a2
    356a:	087e                	c.slli	a6,0x1f
    356c:	7807a7db          	bfoz	a5,a5,30,0
    3570:	0107e5b3          	or	a1,a5,a6
    3574:	001e2073          	csrs	fflags,t3
    3578:	f29ff06f          	j	34a0 <__divdf3+0x40c>
    357c:	efd5                	c.bnez	a5,3638 <__divdf3+0x5a4>
    357e:	00767793          	andi	a5,a2,7
    3582:	86ba                	c.mv	a3,a4
    3584:	24079263          	bnez	a5,37c8 <__divdf3+0x734>
    3588:	01875513          	srli	a0,a4,0x18
    358c:	00154513          	xori	a0,a0,1
    3590:	8905                	c.andi	a0,1
    3592:	4585                	c.li	a1,1
    3594:	41ef8713          	addi	a4,t6,1054
    3598:	00e697b3          	sll	a5,a3,a4
    359c:	00b65833          	srl	a6,a2,a1
    35a0:	00e61733          	sll	a4,a2,a4
    35a4:	00e03733          	snez	a4,a4
    35a8:	0107e633          	or	a2,a5,a6
    35ac:	8e59                	c.or	a2,a4
    35ae:	00767793          	andi	a5,a2,7
    35b2:	00b6d733          	srl	a4,a3,a1
    35b6:	cb89                	c.beqz	a5,35c8 <__divdf3+0x534>
    35b8:	001e6e13          	ori	t3,t3,1
    35bc:	282ed25b          	beqc	t4,2,3840 <__divdf3+0x7ac>
    35c0:	263ed45b          	beqc	t4,3,3828 <__divdf3+0x794>
    35c4:	0e0e8c63          	beqz	t4,36bc <__divdf3+0x628>
    35c8:	2377745b          	bbc	a4,23,37f0 <__divdf3+0x75c>
    35cc:	001e6e13          	ori	t3,t3,1
    35d0:	4785                	c.li	a5,1
    35d2:	4681                	c.li	a3,0
    35d4:	00000613          	li	a2,0
    35d8:	01e00833          	add	a6,zero,t5
    35dc:	e60504e3          	beqz	a0,3444 <__divdf3+0x3b0>
    35e0:	a60e725b          	bbc	t3,0,3444 <__divdf3+0x3b0>
    35e4:	002e6e13          	ori	t3,t3,2
    35e8:	f65ff06f          	j	354c <__divdf3+0x4b8>
    35ec:	de951ae3          	bne	a0,s1,33e0 <__divdf3+0x34c>
    35f0:	de088ae3          	beqz	a7,33e4 <__divdf3+0x350>
    35f4:	dd9ff06f          	j	33cc <__divdf3+0x338>
    35f8:	f0f31ae3          	bne	t1,a5,350c <__divdf3+0x478>
    35fc:	f08574e3          	bgeu	a0,s0,3504 <__divdf3+0x470>
    3600:	40c306b3          	sub	a3,t1,a2
    3604:	874a                	c.mv	a4,s2
    3606:	b339                	c.j	3314 <__divdf3+0x280>
    3608:	001e6e13          	ori	t3,t3,1
    360c:	162ed85b          	beqc	t4,2,377c <__divdf3+0x6e8>
    3610:	143ed85b          	beqc	t4,3,3760 <__divdf3+0x6cc>
    3614:	dc0e9ee3          	bnez	t4,33f0 <__divdf3+0x35c>
    3618:	00f67693          	andi	a3,a2,15
    361c:	887a                	c.mv	a6,t5
    361e:	9c46db5b          	beqc	a3,4,33f4 <__divdf3+0x360>
    3622:	86b2                	c.mv	a3,a2
    3624:	00468613          	addi	a2,a3,4 # 80004 <cst_libm_sincosf+0x4>
    3628:	00d636b3          	sltu	a3,a2,a3
    362c:	9736                	c.add	a4,a3
    362e:	b3d9                	c.j	33f4 <__divdf3+0x360>
    3630:	8736                	c.mv	a4,a3
    3632:	b9a9                	c.j	328c <__divdf3+0x1f8>
    3634:	86b2                	c.mv	a3,a2
    3636:	b9bd                	c.j	32b4 <__divdf3+0x220>
    3638:	4585                	c.li	a1,1
    363a:	8d9d                	c.sub	a1,a5
    363c:	03800693          	li	a3,56
    3640:	02b6da63          	bge	a3,a1,3674 <__divdf3+0x5e0>
    3644:	8e59                	c.or	a2,a4
    3646:	e26d                	c.bnez	a2,3728 <__divdf3+0x694>
    3648:	002e6e13          	ori	t3,t3,2
    364c:	887a                	c.mv	a6,t5
    364e:	4781                	c.li	a5,0
    3650:	4681                	c.li	a3,0
    3652:	bded                	c.j	354c <__divdf3+0x4b8>
    3654:	ee0f02e3          	beqz	t5,3538 <__divdf3+0x4a4>
    3658:	7ff00793          	li	a5,2047
    365c:	4681                	c.li	a3,0
    365e:	4601                	c.li	a2,0
    3660:	ee9ff06f          	j	3548 <__divdf3+0x4b4>
    3664:	4585                	c.li	a1,1
    3666:	8d9d                	c.sub	a1,a5
    3668:	03800693          	li	a3,56
    366c:	0ab6ce63          	blt	a3,a1,3728 <__divdf3+0x694>
    3670:	fff00613          	li	a2,-1
    3674:	46fd                	c.li	a3,31
    3676:	20b6d163          	bge	a3,a1,3878 <__divdf3+0x7e4>
    367a:	5685                	c.li	a3,-31
    367c:	40f687b3          	sub	a5,a3,a5
    3680:	00f757b3          	srl	a5,a4,a5
    3684:	0005d8db          	beqc	a1,32,3694 <__divdf3+0x600>
    3688:	43ef8f93          	addi	t6,t6,1086
    368c:	01f71733          	sll	a4,a4,t6
    3690:	00e66633          	or	a2,a2,a4
    3694:	00c03633          	snez	a2,a2
    3698:	8e5d                	c.or	a2,a5
    369a:	00767793          	andi	a5,a2,7
    369e:	16078163          	beqz	a5,3800 <__divdf3+0x76c>
    36a2:	001e6e13          	ori	t3,t3,1
    36a6:	182edb5b          	beqc	t4,2,383c <__divdf3+0x7a8>
    36aa:	163edd5b          	beqc	t4,3,3824 <__divdf3+0x790>
    36ae:	4505                	c.li	a0,1
    36b0:	4701                	c.li	a4,0
    36b2:	120e9f63          	bnez	t4,37f0 <__divdf3+0x75c>
    36b6:	4505                	c.li	a0,1
    36b8:	00000713          	li	a4,0
    36bc:	00f67793          	andi	a5,a2,15
    36c0:	b047d45b          	beqc	a5,4,35c8 <__divdf3+0x534>
    36c4:	00460793          	addi	a5,a2,4 # 80100004 <_DATA_LMA_START+0x600faaec>
    36c8:	00c7b633          	sltu	a2,a5,a2
    36cc:	9732                	c.add	a4,a2
    36ce:	863e                	c.mv	a2,a5
    36d0:	ef9ff06f          	j	35c8 <__divdf3+0x534>
    36d4:	0cf05463          	blez	a5,379c <__divdf3+0x708>
    36d8:	001e6e13          	ori	t3,t3,1
    36dc:	082ede5b          	beqc	t4,2,3778 <__divdf3+0x6e4>
    36e0:	063ede5b          	beqc	t4,3,375c <__divdf3+0x6c8>
    36e4:	567d                	c.li	a2,-1
    36e6:	d00e95e3          	bnez	t4,33f0 <__divdf3+0x35c>
    36ea:	56fd                	c.li	a3,-1
    36ec:	f39ff06f          	j	3624 <__divdf3+0x590>
    36f0:	86ae                	c.mv	a3,a1
    36f2:	b179                	c.j	3380 <__divdf3+0x2ec>
    36f4:	8636                	c.mv	a2,a3
    36f6:	b9b9                	c.j	3354 <__divdf3+0x2c0>
    36f8:	9522                	c.add	a0,s0
    36fa:	008536b3          	sltu	a3,a0,s0
    36fe:	969a                	c.add	a3,t1
    3700:	97b6                	c.add	a5,a3
    3702:	1779                	c.addi	a4,-2
    3704:	c0dff06f          	j	3310 <__divdf3+0x27c>
    3708:	00141693          	slli	a3,s0,0x1
    370c:	0086b433          	sltu	s0,a3,s0
    3710:	9322                	c.add	t1,s0
    3712:	951a                	c.add	a0,t1
    3714:	1679                	c.addi	a2,-2
    3716:	8436                	c.mv	s0,a3
    3718:	cc9514e3          	bne	a0,s1,33e0 <__divdf3+0x34c>
    371c:	cc8884e3          	beq	a7,s0,33e4 <__divdf3+0x350>
    3720:	00166613          	ori	a2,a2,1
    3724:	cc1ff06f          	j	33e4 <__divdf3+0x350>
    3728:	001e6e13          	ori	t3,t3,1
    372c:	01e03633          	snez	a2,t5
    3730:	b02edc5b          	beqc	t4,2,3648 <__divdf3+0x5b4>
    3734:	ffde8793          	addi	a5,t4,-3
    3738:	0017b793          	seqz	a5,a5
    373c:	001f3613          	seqz	a2,t5
    3740:	40f007b3          	neg	a5,a5
    3744:	8e7d                	c.and	a2,a5
    3746:	b709                	c.j	3648 <__divdf3+0x5b4>
    3748:	887a                	c.mv	a6,t5
    374a:	4781                	c.li	a5,0
    374c:	4681                	c.li	a3,0
    374e:	4601                	c.li	a2,0
    3750:	cf5ff06f          	j	3444 <__divdf3+0x3b0>
    3754:	de0f12e3          	bnez	t5,3538 <__divdf3+0x4a4>
    3758:	f01ff06f          	j	3658 <__divdf3+0x5c4>
    375c:	fff00613          	li	a2,-1
    3760:	4805                	c.li	a6,1
    3762:	c80f19e3          	bnez	t5,33f4 <__divdf3+0x360>
    3766:	00860693          	addi	a3,a2,8
    376a:	00c6b633          	sltu	a2,a3,a2
    376e:	9732                	c.add	a4,a2
    3770:	4801                	c.li	a6,0
    3772:	8636                	c.mv	a2,a3
    3774:	c81ff06f          	j	33f4 <__divdf3+0x360>
    3778:	fff00613          	li	a2,-1
    377c:	4801                	c.li	a6,0
    377e:	c60f0be3          	beqz	t5,33f4 <__divdf3+0x360>
    3782:	00860693          	addi	a3,a2,8
    3786:	00c6b633          	sltu	a2,a3,a2
    378a:	9732                	c.add	a4,a2
    378c:	4805                	c.li	a6,1
    378e:	8636                	c.mv	a2,a3
    3790:	c65ff06f          	j	33f4 <__divdf3+0x360>
    3794:	8636                	c.mv	a2,a3
    3796:	f89503e3          	beq	a0,s1,371c <__divdf3+0x688>
    379a:	b199                	c.j	33e0 <__divdf3+0x34c>
    379c:	ec0794e3          	bnez	a5,3664 <__divdf3+0x5d0>
    37a0:	001e6e13          	ori	t3,t3,1
    37a4:	0a2ede5b          	beqc	t4,2,3860 <__divdf3+0x7cc>
    37a8:	0a3ed05b          	beqc	t4,3,3848 <__divdf3+0x7b4>
    37ac:	0c0e8263          	beqz	t4,3870 <__divdf3+0x7dc>
    37b0:	86ba                	c.mv	a3,a4
    37b2:	567d                	c.li	a2,-1
    37b4:	c0100f93          	li	t6,-1023
    37b8:	dd1ff06f          	j	3588 <__divdf3+0x4f4>
    37bc:	887a                	c.mv	a6,t5
    37be:	7ff00793          	li	a5,2047
    37c2:	4681                	c.li	a3,0
    37c4:	4601                	c.li	a2,0
    37c6:	b9bd                	c.j	3444 <__divdf3+0x3b0>
    37c8:	001e6e13          	ori	t3,t3,1
    37cc:	082ede5b          	beqc	t4,2,3868 <__divdf3+0x7d4>
    37d0:	083ed05b          	beqc	t4,3,3850 <__divdf3+0x7bc>
    37d4:	da0e9ae3          	bnez	t4,3588 <__divdf3+0x4f4>
    37d8:	00f67793          	andi	a5,a2,15
    37dc:	9a47d65b          	beqc	a5,4,3588 <__divdf3+0x4f4>
    37e0:	ffc63793          	sltiu	a5,a2,-4
    37e4:	0017c793          	xori	a5,a5,1
    37e8:	86ba                	c.mv	a3,a4
    37ea:	973e                	c.add	a4,a5
    37ec:	d9dff06f          	j	3588 <__divdf3+0x4f4>
    37f0:	01d71793          	slli	a5,a4,0x1d
    37f4:	820d                	c.srli	a2,0x3
    37f6:	8e5d                	c.or	a2,a5
    37f8:	583726db          	bfoz	a3,a4,22,3
    37fc:	4781                	c.li	a5,0
    37fe:	bbe9                	c.j	35d8 <__divdf3+0x544>
    3800:	820d                	c.srli	a2,0x3
    3802:	887a                	c.mv	a6,t5
    3804:	4781                	c.li	a5,0
    3806:	4681                	c.li	a3,0
    3808:	dd9ff06f          	j	35e0 <__divdf3+0x54c>
    380c:	eeb566e3          	bltu	a0,a1,36f8 <__divdf3+0x664>
    3810:	874a                	c.mv	a4,s2
    3812:	4681                	c.li	a3,0
    3814:	b01ff06f          	j	3314 <__divdf3+0x280>
    3818:	ef1468e3          	bltu	s0,a7,3708 <__divdf3+0x674>
    381c:	8636                	c.mv	a2,a3
    381e:	f08891e3          	bne	a7,s0,3720 <__divdf3+0x68c>
    3822:	b6c9                	c.j	33e4 <__divdf3+0x350>
    3824:	4505                	c.li	a0,1
    3826:	4701                	c.li	a4,0
    3828:	da0f10e3          	bnez	t5,35c8 <__divdf3+0x534>
    382c:	00860793          	addi	a5,a2,8
    3830:	00c7b633          	sltu	a2,a5,a2
    3834:	9732                	c.add	a4,a2
    3836:	863e                	c.mv	a2,a5
    3838:	d91ff06f          	j	35c8 <__divdf3+0x534>
    383c:	4505                	c.li	a0,1
    383e:	4701                	c.li	a4,0
    3840:	d80f04e3          	beqz	t5,35c8 <__divdf3+0x534>
    3844:	fe9ff06f          	j	382c <__divdf3+0x798>
    3848:	86ba                	c.mv	a3,a4
    384a:	c0100f93          	li	t6,-1023
    384e:	567d                	c.li	a2,-1
    3850:	d20f1ce3          	bnez	t5,3588 <__divdf3+0x4f4>
    3854:	ff863793          	sltiu	a5,a2,-8
    3858:	0017c793          	xori	a5,a5,1
    385c:	973e                	c.add	a4,a5
    385e:	b32d                	c.j	3588 <__divdf3+0x4f4>
    3860:	86ba                	c.mv	a3,a4
    3862:	c0100f93          	li	t6,-1023
    3866:	567d                	c.li	a2,-1
    3868:	d20f00e3          	beqz	t5,3588 <__divdf3+0x4f4>
    386c:	fe9ff06f          	j	3854 <__divdf3+0x7c0>
    3870:	c0100f93          	li	t6,-1023
    3874:	567d                	c.li	a2,-1
    3876:	b7ad                	c.j	37e0 <__divdf3+0x74c>
    3878:	86ba                	c.mv	a3,a4
    387a:	4505                	c.li	a0,1
    387c:	bb21                	c.j	3594 <__divdf3+0x500>
	...

00003880 <__gedf2>:
    3880:	002027f3          	frrm	a5
    3884:	001007b7          	lui	a5,0x100
    3888:	17fd                	c.addi	a5,-1
    388a:	7945a85b          	bfoz	a6,a1,30,20
    388e:	7ff00893          	li	a7,2047
    3892:	00f5f333          	and	t1,a1,a5
    3896:	872a                	c.mv	a4,a0
    3898:	8ff5                	c.and	a5,a3
    389a:	7946a55b          	bfoz	a0,a3,30,20
    389e:	81fd                	c.srli	a1,0x1f
    38a0:	01f6d693          	srli	a3,a3,0x1f
    38a4:	03180e63          	beq	a6,a7,38e0 <__gedf2+0x60>
    38a8:	03150463          	beq	a0,a7,38d0 <__gedf2+0x50>
    38ac:	04081063          	bnez	a6,38ec <__gedf2+0x6c>
    38b0:	00e368b3          	or	a7,t1,a4
    38b4:	00051663          	bnez	a0,38c0 <__gedf2+0x40>
    38b8:	00c7ee33          	or	t3,a5,a2
    38bc:	040e0463          	beqz	t3,3904 <__gedf2+0x84>
    38c0:	02088e63          	beqz	a7,38fc <__gedf2+0x7c>
    38c4:	04d58c63          	beq	a1,a3,391c <__gedf2+0x9c>
    38c8:	4505                	c.li	a0,1
    38ca:	e1bd                	c.bnez	a1,3930 <__gedf2+0xb0>
    38cc:	00008067          	ret
    38d0:	00c7e8b3          	or	a7,a5,a2
    38d4:	fc088ce3          	beqz	a7,38ac <__gedf2+0x2c>
    38d8:	00186073          	csrsi	fflags,16
    38dc:	5579                	c.li	a0,-2
    38de:	8082                	c.jr	ra
    38e0:	00e368b3          	or	a7,t1,a4
    38e4:	fe089ae3          	bnez	a7,38d8 <__gedf2+0x58>
    38e8:	03050263          	beq	a0,a6,390c <__gedf2+0x8c>
    38ec:	e505                	c.bnez	a0,3914 <__gedf2+0x94>
    38ee:	00c7e8b3          	or	a7,a5,a2
    38f2:	02089163          	bnez	a7,3914 <__gedf2+0x94>
    38f6:	4505                	c.li	a0,1
    38f8:	d9f1                	c.beqz	a1,38cc <__gedf2+0x4c>
    38fa:	a81d                	c.j	3930 <__gedf2+0xb0>
    38fc:	02068a63          	beqz	a3,3930 <__gedf2+0xb0>
    3900:	4505                	c.li	a0,1
    3902:	8082                	c.jr	ra
    3904:	fc0892e3          	bnez	a7,38c8 <__gedf2+0x48>
    3908:	00008067          	ret
    390c:	00c7e8b3          	or	a7,a5,a2
    3910:	fc0894e3          	bnez	a7,38d8 <__gedf2+0x58>
    3914:	fad59ae3          	bne	a1,a3,38c8 <__gedf2+0x48>
    3918:	fb0548e3          	blt	a0,a6,38c8 <__gedf2+0x48>
    391c:	00a84863          	blt	a6,a0,392c <__gedf2+0xac>
    3920:	fa67e4e3          	bltu	a5,t1,38c8 <__gedf2+0x48>
    3924:	00f30a63          	beq	t1,a5,3938 <__gedf2+0xb8>
    3928:	00f37663          	bgeu	t1,a5,3934 <__gedf2+0xb4>
    392c:	fc059ae3          	bnez	a1,3900 <__gedf2+0x80>
    3930:	557d                	c.li	a0,-1
    3932:	8082                	c.jr	ra
    3934:	4501                	c.li	a0,0
    3936:	8082                	c.jr	ra
    3938:	f8e668e3          	bltu	a2,a4,38c8 <__gedf2+0x48>
    393c:	4501                	c.li	a0,0
    393e:	f8c777e3          	bgeu	a4,a2,38cc <__gedf2+0x4c>
    3942:	fddd                	c.bnez	a1,3900 <__gedf2+0x80>
    3944:	b7f5                	c.j	3930 <__gedf2+0xb0>
	...

00003948 <__muldf3>:
    3948:	1101                	c.addi	sp,-32
    394a:	ce22                	c.swsp	s0,28(sp)
    394c:	cc26                	c.swsp	s1,24(sp)
    394e:	ca4a                	c.swsp	s2,20(sp)
    3950:	c84e                	c.swsp	s3,16(sp)
    3952:	c652                	c.swsp	s4,12(sp)
    3954:	c456                	c.swsp	s5,8(sp)
    3956:	c25a                	c.swsp	s6,4(sp)
    3958:	00202373          	frrm	t1
    395c:	7945a75b          	bfoz	a4,a1,30,20
    3960:	4c05a7db          	bfoz	a5,a1,19,0
    3964:	81fd                	c.srli	a1,0x1f
    3966:	10070963          	beqz	a4,3a78 <__muldf3+0x130>
    396a:	7ff00813          	li	a6,2047
    396e:	07070963          	beq	a4,a6,39e0 <__muldf3+0x98>
    3972:	00800837          	lui	a6,0x800
    3976:	078e                	c.slli	a5,0x3
    3978:	01d55293          	srli	t0,a0,0x1d
    397c:	0107e7b3          	or	a5,a5,a6
    3980:	c0170e13          	addi	t3,a4,-1023 # ffeffc01 <_DATA_LMA_START+0xdfefa6e9>
    3984:	00f2e2b3          	or	t0,t0,a5
    3988:	050e                	c.slli	a0,0x3
    398a:	4701                	c.li	a4,0
    398c:	4381                	c.li	t2,0
    398e:	4801                	c.li	a6,0
    3990:	7946a8db          	bfoz	a7,a3,30,20
    3994:	4c06a7db          	bfoz	a5,a3,19,0
    3998:	01f6d693          	srli	a3,a3,0x1f
    399c:	12088a63          	beqz	a7,3ad0 <__muldf3+0x188>
    39a0:	7ff00e93          	li	t4,2047
    39a4:	17d88a63          	beq	a7,t4,3b18 <__muldf3+0x1d0>
    39a8:	00800f37          	lui	t5,0x800
    39ac:	078e                	c.slli	a5,0x3
    39ae:	01d65e93          	srli	t4,a2,0x1d
    39b2:	01e7e7b3          	or	a5,a5,t5
    39b6:	c0188893          	addi	a7,a7,-1023
    39ba:	00fee7b3          	or	a5,t4,a5
    39be:	060e                	c.slli	a2,0x3
    39c0:	9e46                	c.add	t3,a7
    39c2:	4f01                	c.li	t5,0
    39c4:	48bd                	c.li	a7,15
    39c6:	00d5ceb3          	xor	t4,a1,a3
    39ca:	001e0f93          	addi	t6,t3,1 # 80000001 <_DATA_LMA_START+0x5fffaae9>
    39ce:	16e8e363          	bltu	a7,a4,3b34 <__muldf3+0x1ec>
    39d2:	7999188b          	addigp	a7,85912 # 95798 <twooverpi.2618+0x60>
    39d6:	0ce8875b          	lea.w	a4,a7,a4
    39da:	4318                	c.lw	a4,0(a4)
    39dc:	00070067          	jr	a4
    39e0:	00a7e2b3          	or	t0,a5,a0
    39e4:	32028263          	beqz	t0,3d08 <__muldf3+0x3c0>
    39e8:	0137d713          	srli	a4,a5,0x13
    39ec:	82be                	c.mv	t0,a5
    39ee:	46070563          	beqz	a4,3e58 <__muldf3+0x510>
    39f2:	4731                	c.li	a4,12
    39f4:	7ff00e13          	li	t3,2047
    39f8:	438d                	c.li	t2,3
    39fa:	4801                	c.li	a6,0
    39fc:	f95ff06f          	j	3990 <__muldf3+0x48>
    3a00:	00d00eb3          	add	t4,zero,a3
    3a04:	062f605b          	bnec	t5,2,3a64 <__muldf3+0x11c>
    3a08:	88f6                	c.mv	a7,t4
    3a0a:	7ff00713          	li	a4,2047
    3a0e:	4781                	c.li	a5,0
    3a10:	00000613          	li	a2,0
    3a14:	4581                	c.li	a1,0
    3a16:	fff006b7          	lui	a3,0xfff00
    3a1a:	8eed                	c.and	a3,a1
    3a1c:	4c07a7db          	bfoz	a5,a5,19,0
    3a20:	8fd5                	c.or	a5,a3
    3a22:	01471693          	slli	a3,a4,0x14
    3a26:	80100737          	lui	a4,0x80100
    3a2a:	177d                	c.addi	a4,-1
    3a2c:	8f7d                	c.and	a4,a5
    3a2e:	8f55                	c.or	a4,a3
    3a30:	08fe                	c.slli	a7,0x1f
    3a32:	7807275b          	bfoz	a4,a4,30,0
    3a36:	8532                	c.mv	a0,a2
    3a38:	011765b3          	or	a1,a4,a7
    3a3c:	3e081e63          	bnez	a6,3e38 <__muldf3+0x4f0>
    3a40:	4472                	c.lwsp	s0,28(sp)
    3a42:	44e2                	c.lwsp	s1,24(sp)
    3a44:	4952                	c.lwsp	s2,20(sp)
    3a46:	49c2                	c.lwsp	s3,16(sp)
    3a48:	4a32                	c.lwsp	s4,12(sp)
    3a4a:	4aa2                	c.lwsp	s5,8(sp)
    3a4c:	4b12                	c.lwsp	s6,4(sp)
    3a4e:	6105                	c.addi16sp	sp,32
    3a50:	00008067          	ret
    3a54:	00b00eb3          	add	t4,zero,a1
    3a58:	8f1e                	c.mv	t5,t2
    3a5a:	8796                	c.mv	a5,t0
    3a5c:	00a00633          	add	a2,zero,a0
    3a60:	ba2f545b          	beqc	t5,2,3a08 <__muldf3+0xc0>
    3a64:	363f525b          	beqc	t5,3,3dc8 <__muldf3+0x480>
    3a68:	221f685b          	bnec	t5,1,3c98 <__muldf3+0x350>
    3a6c:	88f6                	c.mv	a7,t4
    3a6e:	4701                	c.li	a4,0
    3a70:	4781                	c.li	a5,0
    3a72:	4601                	c.li	a2,0
    3a74:	fa1ff06f          	j	3a14 <__muldf3+0xcc>
    3a78:	00a7e2b3          	or	t0,a5,a0
    3a7c:	28028063          	beqz	t0,3cfc <__muldf3+0x3b4>
    3a80:	af97877f          	clz32	a4,a5
    3a84:	00079663          	bnez	a5,3a90 <__muldf3+0x148>
    3a88:	af95077f          	clz32	a4,a0
    3a8c:	02070713          	addi	a4,a4,32 # 80100020 <_DATA_LMA_START+0x600fab08>
    3a90:	ff570893          	addi	a7,a4,-11
    3a94:	4871                	c.li	a6,28
    3a96:	3b184b63          	blt	a6,a7,3e4c <__muldf3+0x504>
    3a9a:	42f5                	c.li	t0,29
    3a9c:	ff870813          	addi	a6,a4,-8
    3aa0:	411282b3          	sub	t0,t0,a7
    3aa4:	005552b3          	srl	t0,a0,t0
    3aa8:	010797b3          	sll	a5,a5,a6
    3aac:	00f2e2b3          	or	t0,t0,a5
    3ab0:	01051533          	sll	a0,a0,a6
    3ab4:	c0d00e13          	li	t3,-1011
    3ab8:	7946a8db          	bfoz	a7,a3,30,20
    3abc:	40ee0e33          	sub	t3,t3,a4
    3ac0:	4c06a7db          	bfoz	a5,a3,19,0
    3ac4:	4701                	c.li	a4,0
    3ac6:	4381                	c.li	t2,0
    3ac8:	4801                	c.li	a6,0
    3aca:	82fd                	c.srli	a3,0x1f
    3acc:	ec089ae3          	bnez	a7,39a0 <__muldf3+0x58>
    3ad0:	00c7e8b3          	or	a7,a5,a2
    3ad4:	24088263          	beqz	a7,3d18 <__muldf3+0x3d0>
    3ad8:	af9788ff          	clz32	a7,a5
    3adc:	00079663          	bnez	a5,3ae8 <__muldf3+0x1a0>
    3ae0:	af9608ff          	clz32	a7,a2
    3ae4:	02088893          	addi	a7,a7,32
    3ae8:	ff588f93          	addi	t6,a7,-11
    3aec:	4ef1                	c.li	t4,28
    3aee:	35fec963          	blt	t4,t6,3e40 <__muldf3+0x4f8>
    3af2:	4ef5                	c.li	t4,29
    3af4:	ff888f13          	addi	t5,a7,-8
    3af8:	41fe8eb3          	sub	t4,t4,t6
    3afc:	01d65eb3          	srl	t4,a2,t4
    3b00:	01e797b3          	sll	a5,a5,t5
    3b04:	00fee7b3          	or	a5,t4,a5
    3b08:	01e61633          	sll	a2,a2,t5
    3b0c:	411e0e33          	sub	t3,t3,a7
    3b10:	c0de0e13          	addi	t3,t3,-1011
    3b14:	4f01                	c.li	t5,0
    3b16:	b57d                	c.j	39c4 <__muldf3+0x7c>
    3b18:	00c7e8b3          	or	a7,a5,a2
    3b1c:	7ffe0e13          	addi	t3,t3,2047
    3b20:	20088263          	beqz	a7,3d24 <__muldf3+0x3dc>
    3b24:	00376713          	ori	a4,a4,3
