
RV_NN_Convolution_Benchmark.adx:     file format elf32-littleriscv
RV_NN_Convolution_Benchmark.adx
architecture: riscv:rv32, flags 0x00000112:
EXEC_P, HAS_SYMS, D_PAGED
start address 0x20000000

Program Header:
    LOAD off    0x00001000 vaddr 0x20000000 paddr 0x20000000 align 2**12
         filesz 0x0000018a memsz 0x0000018a flags r-x
    LOAD off    0x00002000 vaddr 0x00000000 paddr 0x20000190 align 2**12
         filesz 0x000001bc memsz 0x000001bc flags rwx
    LOAD off    0x00002200 vaddr 0x00000200 paddr 0x20000350 align 2**12
         filesz 0x0000b090 memsz 0x0000b090 flags r-x
    LOAD off    0x0000e000 vaddr 0x00080000 paddr 0x2000b3e0 align 2**12
         filesz 0x0000bab8 memsz 0x0000baf4 flags rw-
    LOAD off    0x00019af8 vaddr 0x0008baf8 paddr 0x20016e98 align 2**12
         filesz 0x00000022 memsz 0x00000022 flags rw-
    LOAD off    0x0001aaf4 vaddr 0x0008baf4 paddr 0x20016ed4 align 2**12
         filesz 0x00000000 memsz 0x00000004 flags rw-
0x70000000 off    0x00019b63 vaddr 0x00000000 paddr 0x00000000 align 2**0
         filesz 0x00000040 memsz 0x00000000 flags r--

Sections:
Idx Name          Size      VMA       LMA       File off  Algn
  0 .vectors      0000018a  20000000  20000000  00001000  2**2
                  CONTENTS, ALLOC, LOAD, READONLY, CODE
  1 .retention_reset 00000154  00000000  20000190  00002000  2**2
                  CONTENTS, ALLOC, LOAD, READONLY, CODE
  2 .retention_data 00000064  00000158  200002e8  00002158  2**2
                  CONTENTS, ALLOC, LOAD, DATA
  3 .ram_code     0000b090  00000200  20000350  00002200  2**8
                  CONTENTS, ALLOC, LOAD, READONLY, CODE
  4 .data         0000bab8  00080000  2000b3e0  0000e000  2**3
                  CONTENTS, ALLOC, LOAD, DATA
  5 .sbss         0000003c  0008bab8  20016e98  00019ab8  2**2
                  ALLOC
  6 .bss          00000004  0008baf4  20016ed4  0001aaf4  2**2
                  ALLOC
  7 .sdk_version  00000022  0008baf8  20016e98  00019af8  2**2
                  CONTENTS, ALLOC, LOAD, DATA
  8 .comment      00000049  00000000  00000000  00019b1a  2**0
                  CONTENTS, READONLY
  9 .riscv.attributes 00000040  00000000  00000000  00019b63  2**0
                  CONTENTS, READONLY
 10 .debug_info   00002573  00000000  00000000  00019ba3  2**0
                  CONTENTS, READONLY, DEBUGGING
 11 .debug_abbrev 000009b1  00000000  00000000  0001c116  2**0
                  CONTENTS, READONLY, DEBUGGING
 12 .debug_loc    00001d0b  00000000  00000000  0001cac7  2**0
                  CONTENTS, READONLY, DEBUGGING
 13 .debug_aranges 000000e0  00000000  00000000  0001e7d8  2**3
                  CONTENTS, READONLY, DEBUGGING
 14 .debug_ranges 000002c0  00000000  00000000  0001e8b8  2**0
                  CONTENTS, READONLY, DEBUGGING
 15 .debug_line   000013f0  00000000  00000000  0001eb78  2**0
                  CONTENTS, READONLY, DEBUGGING
 16 .debug_str    000010f6  00000000  00000000  0001ff68  2**0
                  CONTENTS, READONLY, DEBUGGING
 17 .debug_frame  000000e8  00000000  00000000  00021060  2**2
                  CONTENTS, READONLY, DEBUGGING
SYMBOL TABLE:
20000000 l    d  .vectors	00000000 .vectors
00000000 l    d  .retention_reset	00000000 .retention_reset
00000158 l    d  .retention_data	00000000 .retention_data
00000200 l    d  .ram_code	00000000 .ram_code
00080000 l    d  .data	00000000 .data
0008bab8 l    d  .sbss	00000000 .sbss
0008baf4 l    d  .bss	00000000 .bss
0008baf8 l    d  .sdk_version	00000000 .sdk_version
00000000 l    d  .comment	00000000 .comment
00000000 l    d  .riscv.attributes	00000000 .riscv.attributes
00000000 l    d  .debug_info	00000000 .debug_info
00000000 l    d  .debug_abbrev	00000000 .debug_abbrev
00000000 l    d  .debug_loc	00000000 .debug_loc
00000000 l    d  .debug_aranges	00000000 .debug_aranges
00000000 l    d  .debug_ranges	00000000 .debug_ranges
00000000 l    d  .debug_line	00000000 .debug_line
00000000 l    d  .debug_str	00000000 .debug_str
00000000 l    d  .debug_frame	00000000 .debug_frame
00000000 l    df *ABS*	00000000 ./boot/cstartup_flash.o
20000028 l       .vectors	00000000 _START
2000008e l       .vectors	00000000 _RETENTION_RESET_INIT
200000a6 l       .vectors	00000000 _RETENTION_RESET_BEGIN
200000b8 l       .vectors	00000000 _RETENTION_DATA_INIT
200000cc l       .vectors	00000000 _RETENTION_DATA_INIT_BEGIN
200000de l       .vectors	00000000 _RAMCODE_INIT
200000f6 l       .vectors	00000000 _RAMCODE_INIT_BEGIN
20000108 l       .vectors	00000000 _DATA_INIT
20000120 l       .vectors	00000000 _DATA_INIT_BEGIN
20000132 l       .vectors	00000000 _ZERO_BSS
20000146 l       .vectors	00000000 _ZERO_BSS_BEGIN
20000152 l       .vectors	00000000 _ZERO_AES
20000166 l       .vectors	00000000 _ZERO_AES_BEGIN
20000172 l       .vectors	00000000 _FILL_STK
20000172 l       .vectors	00000000 _MAIN_FUNC
20000188 l       .vectors	00000000 _END
00000022 l       .retention_reset	00000000 _ISTART
0000002a l       .retention_reset	00000000 _ISWS_USB_DIS
00000088 l       .retention_reset	00000000 _WAKEUP_FLASH
000000a2 l       .retention_reset	00000000 _MSPI_WAIT
000000bc l       .retention_reset	00000000 _WAIT_EFUSE_LOAD_AND_FLASH_WAKEUP_FINISH
000000c2 l       .retention_reset	00000000 _MULTI_ADDRESS_BEGIN
000000d2 l       .retention_reset	00000000 _IZERO_BSS
000000e6 l       .retention_reset	00000000 _IZERO_BSS_BEGIN
000000f2 l       .retention_reset	00000000 _IZERO_AES
00000106 l       .retention_reset	00000000 _IZERO_AES_BEGIN
00000112 l       .retention_reset	00000000 _IFILL_STK
00000112 l       .retention_reset	00000000 _IDATA_INIT
0000012a l       .retention_reset	00000000 _IDATA_INIT_BEGIN
0000013c l       .retention_reset	00000000 _IMAIN_FUNC
00000152 l       .retention_reset	00000000 _IEND
00000040 l       *ABS*	00000000 irqno
00000000 l    df *ABS*	00000000 
00000200 l     F .ram_code	00000020 delay_ms.constprop.12
0000140c l     F .ram_code	000000fc user_calib_adc_vref.constprop.9
00000220 l     F .ram_code	00000044 flash_send_addr
00000264 l     F .ram_code	00000048 flash_send_cmd
000002ac l     F .ram_code	00000060 clock_set_32k_tick
00001508 l     F .ram_code	0000003a measure_stack_usage
00001544 l     F .ram_code	00000026 fill_stack_pattern_to_sp
0000030c l     F .ram_code	0000004c analog_read_reg32.constprop.4
00000358 l     F .ram_code	00000024 clock_get_32k_tick
0000037c l     F .ram_code	00000090 pm_stimer_recover
0000040c l     F .ram_code	00000058 plic_exit_critical_sec
00000464 l     F .ram_code	00000060 plic_enter_critical_sec
000004c4 l     F .ram_code	00000180 flash_mspi_read_ram
00001204 l     F .ram_code	00000028 flash_read_uid.constprop.6
0000122c l     F .ram_code	00000028 flash_read_mid
00001254 l     F .ram_code	00000168 flash_read_mid_uid_with_check
00000644 l     F .ram_code	0000014c flash_mspi_read_ram.constprop.7
000013bc l     F .ram_code	00000020 flash_dread
00000790 l     F .ram_code	00000044 analog_write_reg8
000007d4 l     F .ram_code	0000004c analog_read_reg8
00000820 l     F .ram_code	00000140 clock_init_ram.constprop.11
000013dc l     F .ram_code	00000018 clock_init.constprop.10
0000156c l     F .ram_code	00000054 user_calib_freq_offset.constprop.8
00000960 l     F .ram_code	000000b4 pm_wait_bbpll_done
00000a14 l     F .ram_code	00000194 pm_sleep_start
00000ba8 l     F .ram_code	00000120 dr_putchar
000015c4 l     F .ram_code	00000018 gpio_input_dis
00000cc8 l     F .ram_code	0000030c pm_sleep_wakeup_ram.constprop.3
000013f4 l     F .ram_code	00000016 pm_sleep_wakeup.constprop.2
000015e0 l     F .ram_code	0000000a reset_counters
000015ec l     F .ram_code	00000076 validate.lto_priv.13
000015ec l     F .ram_code	00000076 validate.lto_priv.14
00001664 l     F .ram_code	00000076 validate_s16.lto_priv.15
00001664 l     F .ram_code	00000076 validate_s16.lto_priv.16
000016dc l     F .ram_code	000001c6 dw_int16xint8_dilation_riscv_depthwise_conv_s16
000018a4 l     F .ram_code	000001be dw_int16xint8_riscv_depthwise_conv_s16
00001a64 l     F .ram_code	000001ba conv_3x3_dilation_5x5_input_riscv_convolve_s8
00001c20 l     F .ram_code	0000022e int16xint8_dilation_1_riscv_convolve_s16
000811c0 l     O .data	00001000 int16xint8_dilation_1_input
000821c0 l     O .data	00000e10 int16xint8_dilation_1_output
00085348 l     O .data	00001ef0 int16xint8_weights
00083078 l     O .data	00002260 int16xint8_input
00089508 l     O .data	00001ef0 int16xint8xint32_1_weights
00087238 l     O .data	00002260 int16xint8xint32_1_input
00000158 l     O .retention_data	00000004 flash_read_page
0000015c l     O .retention_data	00000001 g_pm_long_suspend
00000160 l     O .retention_data	00000029 pmcd
0000018c l     O .retention_data	00000004 g_pm_tick_32k_calib
00000190 l     O .retention_data	00000004 g_pm_tick_cur
00000194 l     O .retention_data	00000001 g_plic_preempt_en
00000198 l     O .retention_data	00000002 s_flash_preempt_config
0000019a l     O .retention_data	00000001 g_pm_suspend_power_cfg
0000019c l     O .retention_data	00000008 g_pm_early_wakeup_time_us
000001a4 l     O .retention_data	00000004 g_pm_tick_32k_cur
000001a8 l     O .retention_data	00000001 g_pm_tick_update_en
000001ac l     O .retention_data	00000004 g_pm_r_delay_cycle
000001b0 l     O .retention_data	00000008 g_pm_longsleep_early_wakeup_time_us
0008003c l     O .data	00000028 basic_input
00080064 l     O .data	00000014 basic_output_ref
00080078 l     O .data	000000c8 conv_2x2_dilation_input
00080140 l     O .data	00000048 conv_2x2_dilation_output_ref
00080188 l     O .data	00000024 conv_2x2_dilation_weights
000801ac l     O .data	000000c6 conv_3x3_dilation_5x5_input_input
00080274 l     O .data	000000c6 conv_3x3_dilation_5x5_input_output_ref
000803d4 l     O .data	00000024 conv_3x3_dilation_5x5_input_weights
000803f8 l     O .data	00000024 depthwise_2_biases
0008041c l     O .data	0000005a depthwise_2_input
00080478 l     O .data	00000024 depthwise_2_output_mult
0008049c l     O .data	00000051 depthwise_2_output_ref
000804f0 l     O .data	00000024 depthwise_2_output_shift
00080514 l     O .data	0000006c depthwise_2_weights
00080580 l     O .data	00000031 depthwise_dilation_input
000805b4 l     O .data	00000031 depthwise_dilation_output_ref
000805e8 l     O .data	00000009 depthwise_dilation_weights
000805f4 l     O .data	0000000c depthwise_mult_batches_biases
00080600 l     O .data	0000005a depthwise_mult_batches_input
0008065c l     O .data	0000000c depthwise_mult_batches_output_mult
00080668 l     O .data	00000024 depthwise_mult_batches_output_ref
0008068c l     O .data	0000000c depthwise_mult_batches_output_shift
00080698 l     O .data	00000018 depthwise_mult_batches_weights
000806b0 l     O .data	00000040 dw_int16xint8_biases
000806f0 l     O .data	00000040 dw_int16xint8_dilation_biases
00080730 l     O .data	00000168 dw_int16xint8_dilation_input
00080898 l     O .data	00000020 dw_int16xint8_dilation_output_mult
000808b8 l     O .data	000002d0 dw_int16xint8_dilation_output_ref
00080b88 l     O .data	00000020 dw_int16xint8_dilation_output_shift
00080cb0 l     O .data	00000080 dw_int16xint8_dilation_weights
00080d30 l     O .data	00000168 dw_int16xint8_input
00080e98 l     O .data	00000040 dw_int16xint8_mult4_biases
00080ed8 l     O .data	00000050 dw_int16xint8_mult4_input
00080f28 l     O .data	00000020 dw_int16xint8_mult4_output_mult
00080f48 l     O .data	00000010 dw_int16xint8_mult4_output_ref
00080f58 l     O .data	00000020 dw_int16xint8_mult4_output_shift
00080f78 l     O .data	00000060 dw_int16xint8_mult4_weights
00080fd8 l     O .data	00000020 dw_int16xint8_output_mult
00080ff8 l     O .data	00000090 dw_int16xint8_output_ref
00081088 l     O .data	00000020 dw_int16xint8_output_shift
00081130 l     O .data	00000060 dw_int16xint8_weights
00081190 l     O .data	00000020 int16xint8_bias
000811b0 l     O .data	00000010 int16xint8_dilation_1_bias
00083068 l     O .data	00000010 int16xint8_dilation_1_weights
000852d8 l     O .data	00000050 int16xint8_output
00085328 l     O .data	00000010 int16xint8_output_multiplier
00085338 l     O .data	00000010 int16xint8_output_shift
00089498 l     O .data	00000050 int16xint8xint32_1_output
000894e8 l     O .data	00000010 int16xint8xint32_1_output_multiplier
000894f8 l     O .data	00000010 int16xint8xint32_1_output_shift
0008bab8 l     O .sbss	00000004 clkFastfreq
0008babc l     O .sbss	00000004 exception_mcause
0008bac0 l     O .sbss	00000004 exception_mdcause
0008bac4 l     O .sbss	00000004 exception_mepc
0008bac8 l     O .sbss	00000004 exception_mstatus
0008bacc l     O .sbss	00000004 exception_mtval
0008bad0 l     O .sbss	00000004 g_chip_version
0008bad4 l     O .sbss	00000004 g_pm_status_info
0008ba48 l     O .data	00000001 init_flag.5287
0008ba4c l     O .data	00000006 sys_clk
0008ba58 l     O .data	00000004 basic_biases
0008ba5c l     O .data	00000004 basic_output_mult
0008ba60 l     O .data	00000004 basic_output_shift
0008ba64 l     O .data	00000008 basic_weights
0008ba6c l     O .data	00000008 conv_2x2_dilation_biases
0008ba74 l     O .data	00000008 conv_2x2_dilation_output_mult
0008ba7c l     O .data	00000008 conv_2x2_dilation_output_shift
0008ba84 l     O .data	00000008 conv_3x3_dilation_5x5_input_biases
0008ba8c l     O .data	00000008 conv_3x3_dilation_5x5_input_output_mult
0008ba94 l     O .data	00000008 conv_3x3_dilation_5x5_input_output_shift
0008ba9c l     O .data	00000004 depthwise_dilation_biases
0008baa0 l     O .data	00000004 depthwise_dilation_output_mult
0008baa4 l     O .data	00000004 depthwise_dilation_output_shift
0008baa8 l     O .data	00000008 int16xint8_dilation_1_output_multiplier
0008bab0 l     O .data	00000008 int16xint8_dilation_1_output_shift
0008baf8 l     O .sdk_version	00000022 sdk_version
00000000 l    df *ABS*	00000000 riscv_convolve_wrapper_s16.c.o
00002fc0 l       .ram_code	00000000 $x
00000000 l    df *ABS*	00000000 riscv_convolve_wrapper_s8.c.o
00002fc4 l       .ram_code	00000000 $x
00000000 l    df *ABS*	00000000 riscv_depthwise_conv_get_buffer_sizes_s16.c.o
00003118 l       .ram_code	00000000 $x
0000312c l       .ram_code	00000000 $x
00000000 l    df *ABS*	00000000 riscv_convolve_s16.c.o
0000316c l       .ram_code	00000000 $x
00000000 l    df *ABS*	00000000 riscv_convolve_get_buffer_sizes_s16.c.o
00003620 l       .ram_code	00000000 $x
00000000 l    df *ABS*	00000000 riscv_convolve_1x1_s8_fast.c.o
00003634 l       .ram_code	00000000 $x
00000000 l    df *ABS*	00000000 riscv_convolve_s8.c.o
00003974 l       .ram_code	00000000 $x
00000000 l    df *ABS*	00000000 riscv_nn_mat_mult_kernel_s8_s16.c.o
000040ec l       .ram_code	00000000 $x
00000000 l    df *ABS*	00000000 riscv_convolve_get_buffer_sizes_s8.c.o
000045c0 l       .ram_code	00000000 $x
00000000 l    df *ABS*	00000000 riscv_nn_mat_mult_kernel_s16.c.o
00004650 l       .ram_code	00000000 $x
00000000 l    df *ABS*	00000000 riscv_depthwise_conv_get_buffer_sizes_s8.c.o
00004f68 l       .ram_code	00000000 $x
00004f7c l       .ram_code	00000000 $x
00000000 l    df *ABS*	00000000 riscv_nn_mat_mult_kernel_row_offset_s8_s16.c.o
00004fd0 l       .ram_code	00000000 $x
00000000 l    df *ABS*	00000000 riscv_convolve_1x1_s8.c.o
000054b4 l       .ram_code	00000000 $x
00000000 l    df *ABS*	00000000 riscv_depthwise_conv_wrapper_s8.c.o
000055d8 l       .ram_code	00000000 $x
00000000 l    df *ABS*	00000000 riscv_depthwise_conv_wrapper_s16.c.o
000056b0 l       .ram_code	00000000 $x
00000000 l    df *ABS*	00000000 riscv_convolve_1_x_n_s8.c.o
00005744 l       .ram_code	00000000 $x
00000000 l    df *ABS*	00000000 riscv_nn_mat_mult_nt_t_s8.c.o
00005798 l       .ram_code	00000000 $x
00000000 l    df *ABS*	00000000 riscv_s8_to_s16_unordered_with_offset.c.o
000064dc l       .ram_code	00000000 $x
00000000 l    df *ABS*	00000000 riscv_depthwise_conv_s16.c.o
00006560 l       .ram_code	00000000 $x
00000000 l    df *ABS*	00000000 riscv_depthwise_conv_s8.c.o
00006988 l       .ram_code	00000000 $x
00006988 l     F .ram_code	000003be depthwise_conv_s8_mult_4
00006d48 l       .ram_code	00000000 $x
00000000 l    df *ABS*	00000000 riscv_depthwise_conv_s8_opt.c.o
000071b0 l       .ram_code	00000000 $x
00000000 l    df *ABS*	00000000 riscv_depthwise_conv_3x3_s8.c.o
00007890 l       .ram_code	00000000 $x
00000000 l    df *ABS*	00000000 riscv_depthwise_conv_fast_s16.c.o
00009078 l       .ram_code	00000000 $x
00000000 l    df *ABS*	00000000 riscv_q7_to_q15_with_offset.c.o
00009964 l       .ram_code	00000000 $x
00000000 l    df *ABS*	00000000 memcpy.c
00000000 l    df *ABS*	00000000 malloc.c
00000000 l    df *ABS*	00000000 nano-mallocr.c
00000000 l    df *ABS*	00000000 nano-mallocr.c
00000000 l    df *ABS*	00000000 printf.c
00000000 l    df *ABS*	00000000 puts.c
00000000 l    df *ABS*	00000000 strlen.c
00000000 l    df *ABS*	00000000 vprintf.c
00009da4 l     F .ram_code	0000003a __vprintf_help
0008bae0 l     O .sbss	00000004 __vprintf_buf
0008bae4 l     O .sbss	00000004 __vprintf_buf_len
00000000 l    df *ABS*	00000000 printf_impl.c
00000000 l    df *ABS*	00000000 printf_impl_float.c
00000000 l    df *ABS*	00000000 strcpy.c
00000000 l    df *ABS*	00000000 strnlen.c
00000000 l    df *ABS*	00000000 muldf3.c
00000000 l    df *ABS*	00000000 fixunsdfsi.c
00000000 l    df *ABS*	00000000 floatsidf.c
00000000 l    df *ABS*	00000000 extendsfdf2.c
00000000 l    df *ABS*	00000000 _sbrk.c
0008baf0 l     O .sbss	00000004 heap_end.2408
00000000 l    df *ABS*	00000000 libgcc2.c
00000000 l    df *ABS*	00000000 libgcc2.c
00000000 l    df *ABS*	00000000 printf_data.c
00000000 l    df *ABS*	00000000 impure.c
0008baf4 l     O .bss	00000000 impure_data
00002fb8  w      .ram_code	00000000 entry_irq55
00002fb8  w      .ram_code	00000000 entry_irq13
00002fc0 g     F .ram_code	00000002 riscv_convolve_wrapper_s16
0000a7a8 g     F .ram_code	0000007c strcpy
00002fb8  w      .ram_code	00000000 entry_irq15
0000b108 g     F .ram_code	0000002e .hidden __ashldi3
00002fb8  w      .ram_code	00000000 entry_irq27
00002fb8  w      .ram_code	00000000 entry_irq60
00002fb8  w      .ram_code	00000000 entry_irq1
00002fb8  w      .ram_code	00000000 entry_irq52
00002fb8  w      .ram_code	00000000 entry_irq50
00002fb8  w      .ram_code	00000000 entry_irq62
00009cf0 g     F .ram_code	0000001e printf
00080800 g       .data	00000000 __global_pointer$
0000b140 g       .ram_code	00000000 .hidden __riscv_save_8
00002fb8  w      .ram_code	00000000 entry_irq58
00003118 g     F .ram_code	00000012 riscv_depthwise_conv_fast_s16_get_buffer_size
0000b18c g       .ram_code	00000000 .hidden __riscv_restore_3
00009964 g     F .ram_code	00000088 riscv_q7_to_q15_with_offset
000001bc g       .retention_data	00000000 _RETENTION_DATA_VMA_END
0000b178 g       .ram_code	00000000 .hidden __riscv_restore_10
0000b140 g       .ram_code	00000000 .hidden __riscv_save_11
00009e2a g     F .ram_code	00000048 __print_integral
00000000 g       .retention_reset	00000000 _RETENTION_RESET_VMA_START
00002fb8  w      .ram_code	00000000 entry_irq10
00002fb8  w      .ram_code	00000000 entry_irq21
00000158 g       .retention_data	00000000 _AES_VMA_START
00002fb8  w      .ram_code	00000000 entry_irq48
0000b18c g       .ram_code	00000000 .hidden __riscv_restore_2
00002fb8  w      .ram_code	00000000 entry_irq8
00002fb8  w      .ram_code	00000000 entry_irq33
0008baf8 g       .bss	00000000 _BSS_VMA_END
000099ec g     F .ram_code	000000fa memcpy
20000190 g       *ABS*	00000000 _RETENTION_RESET_LMA_START
0000af24 g     F .ram_code	0000007a .hidden __floatsidf
00009e72 g     F .ram_code	00000472 __printf_impl
00002fb8  w      .ram_code	00000000 entry_irq12
00009d0e g     F .ram_code	00000034 puts
00002fc4 g     F .ram_code	00000154 riscv_convolve_wrapper_s8
00009b90 g     F .ram_code	00000010 malloc
00002fb8  w      .ram_code	00000000 entry_irq14
0000b138 g       .ram_code	00000000 .hidden __riscv_save_12
0000ae8c g     F .ram_code	00000096 .hidden __fixunsdfsi
00002fb8  w      .ram_code	00000000 entry_irq2
00002fb8  w      .ram_code	00000000 entry_irq51
0000b178 g       .ram_code	00000000 .hidden __riscv_restore_11
00002fb8  w      .ram_code	00000000 entry_irq28
00002fb8  w      .ram_code	00000000 entry_irq43
0000b168 g       .ram_code	00000000 .hidden __riscv_save_1
0000b18c g       .ram_code	00000000 .hidden __riscv_restore_0
00002fb8  w      .ram_code	00000000 entry_irq20
0000b14e g       .ram_code	00000000 .hidden __riscv_save_7
0008bab8 g       .sbss	00000000 _BSS_VMA_START
00002fb8  w      .ram_code	00000000 entry_irq63
0008bab8 g       .data	00000000 _DATA_VMA_END
0000afa0 g     F .ram_code	00000110 .hidden __extendsfdf2
00002fb8  w      .ram_code	00000000 entry_irq46
00002fb8  w      .ram_code	00000000 entry_irq31
00002fb8  w      .ram_code	00000000 entry_irq16
00100000 g       *ABS*	00000000 FLASH_SIZE
0000b182 g       .ram_code	00000000 .hidden __riscv_restore_5
00080000 g       .data	00000000 _DATA_VMA_START
000055d8 g     F .ram_code	000000d8 riscv_depthwise_conv_wrapper_s8
0000b0b0  w    F .ram_code	00000028 _sbrk
00002fb8  w      .ram_code	00000000 entry_irq53
00002fb8  w      .ram_code	00000000 entry_irq11
00000154 g       .retention_reset	00000000 _RETENTION_RESET_VMA_END
0000a826 g     F .ram_code	00000018 strnlen
0000b182 g       .ram_code	00000000 .hidden __riscv_restore_6
00006560 g     F .ram_code	00000426 riscv_depthwise_conv_s16
0000316c g     F .ram_code	000004b4 riscv_convolve_s16
00002fb8  w      .ram_code	00000000 entry_irq5
00002fb8  w      .ram_code	00000000 entry_irq23
00002fba  w      .ram_code	00000000 trap_handler
00002fb8  w      .ram_code	00000000 entry_irq34
0000b0d8 g     F .ram_code	0000002e .hidden __lshrdi3
00002fb8  w      .ram_code	00000000 entry_irq36
0000b140 g       .ram_code	00000000 .hidden __riscv_save_9
00002fb8  w      .ram_code	00000000 entry_irq44
00005798 g     F .ram_code	00000d44 riscv_nn_mat_mult_nt_t_s8
00009dde g     F .ram_code	0000004c vprintf
00002fb8  w      .ram_code	00000000 entry_irq45
00002fb8  w      .ram_code	00000000 entry_irq26
0000b14e g       .ram_code	00000000 .hidden __riscv_save_4
00002fb8  w      .ram_code	00000000 entry_irq41
00006d48 g     F .ram_code	00000466 riscv_depthwise_conv_s8
00007890 g     F .ram_code	000017e6 riscv_depthwise_conv_3x3_s8
00002fb8  w      .ram_code	00000000 entry_irq61
20000000 g       .vectors	00000000 BIN_BEGIN
00009bb0 g     F .ram_code	00000090 _free_r
00004fd0 g     F .ram_code	000004e4 riscv_nn_mat_mult_kernel_row_offset_s8_s16
0000b168 g       .ram_code	00000000 .hidden __riscv_save_3
000054b4 g     F .ram_code	00000124 riscv_convolve_1x1_s8
00002fb8  w      .ram_code	00000000 entry_irq38
00001100 g       .ram_code	00000000 __vectors
00016eba g       *ABS*	00000000 BIN_SIZE
0008b9f0 g     O .data	00000010 __digits
20000350 g       *ABS*	00000000 _RAMCODE_LMA_START
000045c0 g     F .ram_code	0000008e riscv_convolve_wrapper_s8_get_buffer_size
00005744 g     F .ram_code	00000054 riscv_convolve_1_x_n_s8
0008baec g     O .sbss	00000004 __printf_count
00002fb8  w      .ram_code	00000000 entry_irq59
00002fb8  w      .ram_code	00000000 entry_irq6
0000a840 g     F .ram_code	00000648 .hidden __muldf3
0000b140 g       .ram_code	00000000 .hidden __riscv_save_10
0008bae8 g     O .sbss	00000004 __mculib_REENT_errno
2000b3e0 g       *ABS*	00000000 _DATA_LMA_START
0000a302 g     F .ram_code	00000092 __print_integral_poly
20000000 g       *ABS*	00000000 NDS_SAG_LMA_FLASH
0000b182 g       .ram_code	00000000 .hidden __riscv_restore_4
0000b178 g       .ram_code	00000000 .hidden __riscv_restore_8
00009078 g     F .ram_code	000008ec riscv_depthwise_conv_fast_s16
0000b14e g       .ram_code	00000000 .hidden __riscv_save_6
00004f68 g     F .ram_code	00000012 riscv_depthwise_conv_s8_opt_get_buffer_size
20000000  w      .vectors	00000000 _RELAX_END_
0000a394 g     F .ram_code	00000414 __printf_float_impl
00009ae6 g     F .ram_code	000000aa memset
0000b178 g       .ram_code	00000000 .hidden __riscv_restore_9
0000b182 g       .ram_code	00000000 .hidden __riscv_restore_7
00001e98 g     F .ram_code	0000111c main
00002fb8 g       .ram_code	00000000 default_irq_entry
00002fb8  w      .ram_code	00000000 entry_irq3
00000fd4 g     F .ram_code	00000100 trap_entry
00000158 g       .retention_data	00000000 _AES_VMA_END
000064dc g     F .ram_code	00000084 riscv_s8_to_s16_unordered_with_offset
00002fb8  w      .ram_code	00000000 entry_irq39
00002fb8  w      .ram_code	00000000 entry_irq49
00009c40 g     F .ram_code	000000b0 _malloc_r
00004f7c g     F .ram_code	00000054 riscv_depthwise_conv_wrapper_s8_get_buffer_size
0000312c g     F .ram_code	0000003e riscv_depthwise_conv_wrapper_s16_get_buffer_size
00002fb8  w      .ram_code	00000000 entry_irq57
00002fb8  w      .ram_code	00000000 entry_irq47
200002e8 g       *ABS*	00000000 _RETENTION_DATA_LMA_START
20000000 g     F .vectors	00000000 _RESET_ENTRY
00004650 g     F .ram_code	00000916 riscv_nn_mat_mult_kernel_s16
00000158 g       .retention_data	00000000 _RETENTION_DATA_VMA_START
00002fb8  w      .ram_code	00000000 entry_irq4
000a0000 g       *ABS*	00000000 _STACK_TOP
00002fb8  w      .ram_code	00000000 entry_irq22
00002fb8  w      .ram_code	00000000 entry_irq30
0008ba54 g     O .data	00000004 _impure_ptr
00002fb8  w      .ram_code	00000000 entry_irq42
000056b0 g     F .ram_code	00000094 riscv_depthwise_conv_wrapper_s16
00002fb8  w      .ram_code	00000000 entry_irq24
000040ec g     F .ram_code	000004d4 riscv_nn_mat_mult_kernel_s8_s16
0000b168 g       .ram_code	00000000 .hidden __riscv_save_2
0000b290 g       .ram_code	00000000 _RAMCODE_VMA_END
00000000  w      *ABS*	00000000 _ITB_BASE_
0000b14e g       .ram_code	00000000 .hidden __riscv_save_5
00002fb8  w      .ram_code	00000000 entry_irq19
00003620 g     F .ram_code	00000012 riscv_convolve_wrapper_s16_get_buffer_size
00001e50 g     F .ram_code	00000048 _write
0008bb20 g       .sdk_version	00000000 _end
00002fb8  w      .ram_code	00000000 entry_irq17
00002fb8  w      .ram_code	00000000 entry_irq9
000071b0 g     F .ram_code	000006e0 riscv_depthwise_conv_s8_opt
00002fb8  w      .ram_code	00000000 entry_irq56
00002fb8  w      .ram_code	00000000 entry_irq35
00002fb8  w      .ram_code	00000000 entry_irq37
000001b8 g     O .retention_data	00000004 g_pm_mspi_cfg
00002fb8  w      .ram_code	00000000 entry_irq54
00002fb8  w      .ram_code	00000000 entry_irq40
0000b174 g       .ram_code	00000000 .hidden __riscv_restore_12
00000200 g       .ram_code	00000000 _RAMCODE_VMA_START
0000b168 g       .ram_code	00000000 .hidden __riscv_save_0
00009d44 g     F .ram_code	0000005e strlen
00002fb8  w      .ram_code	00000000 entry_irq29
0008badc g     O .sbss	00000004 __malloc_sbrk_start
00003974 g     F .ram_code	00000778 riscv_convolve_s8
0008bad8 g     O .sbss	00000004 __malloc_free_list
0000b18c g       .ram_code	00000000 .hidden __riscv_restore_1
00003634 g     F .ram_code	00000340 riscv_convolve_1x1_s8_fast
00002fb8  w      .ram_code	00000000 entry_irq7
00002fb8  w      .ram_code	00000000 entry_irq32
00000000 g     F .retention_reset	00000000 _IRESET_ENTRY
00002fb8  w      .ram_code	00000000 entry_irq18
0000a2e4 g     F .ram_code	0000001e __int_to_poly
00009ba0 g     F .ram_code	00000010 free
00002fb8  w      .ram_code	00000000 entry_irq25



Disassembly of section .vectors:

20000000 <_RESET_ENTRY>:
20000000:	a025                	c.j	20000028 <_START>
	...
20000016:	0000                	unimp
20000018:	6eba                	c.flwsp	ft9,140(sp)
2000001a:	0001                	c.nop
2000001c:	0000                	unimp
2000001e:	0000                	unimp
20000020:	544c4e4b          	fnmsub.h	ft8,fs8,ft4,fa0,rmm
20000024:	0000                	unimp
20000026:	          	sllw	a4,zero,zero

20000028 <_START>:
20000028:	e0080197          	auipc	gp,0xe0080
2000002c:	7d818193          	addi	gp,gp,2008 # 80800 <__global_pointer$>
20000030:	801002b7          	lui	t0,0x80100
20000034:	70028293          	addi	t0,t0,1792 # 80100700 <_DATA_LMA_START+0x600f5320>
20000038:	04000313          	li	t1,64
2000003c:	506280a3          	sb	t1,1281(t0)
20000040:	e00a0297          	auipc	t0,0xe00a0
20000044:	fc028293          	addi	t0,t0,-64 # a0000 <_STACK_TOP>
20000048:	8116                	c.mv	sp,t0
2000004a:	e0000297          	auipc	t0,0xe0000
2000004e:	fb628293          	addi	t0,t0,-74 # 0 <_ITB_BASE_>
20000052:	80029073          	csrw	uitb,t0
20000056:	6299                	c.lui	t0,0x6
20000058:	3002a2f3          	csrrs	t0,mstatus,t0
2000005c:	00301073          	fssr	zero
20000060:	e0001297          	auipc	t0,0xe0001
20000064:	0a028293          	addi	t0,t0,160 # 1100 <__vectors>
20000068:	30529073          	csrw	mtvec,t0
2000006c:	7d016073          	csrsi	mmisc_ctl,2
20000070:	e40002b7          	lui	t0,0xe4000
20000074:	4309                	c.li	t1,2
20000076:	0062a023          	sw	t1,0(t0) # e4000000 <_DATA_LMA_START+0xc3ff4c20>
2000007a:	7ca022f3          	csrr	t0,mcache_ctl
2000007e:	0012e293          	ori	t0,t0,1
20000082:	0022e293          	ori	t0,t0,2
20000086:	7ca29073          	csrw	mcache_ctl,t0
2000008a:	0000100f          	fence.i

2000008e <_RETENTION_RESET_INIT>:
2000008e:	00000317          	auipc	t1,0x0
20000092:	10230313          	addi	t1,t1,258 # 20000190 <_RETENTION_RESET_LMA_START>
20000096:	e0000397          	auipc	t2,0xe0000
2000009a:	f6a38393          	addi	t2,t2,-150 # 0 <_ITB_BASE_>
2000009e:	e0000e17          	auipc	t3,0xe0000
200000a2:	0b6e0e13          	addi	t3,t3,182 # 154 <_RETENTION_RESET_VMA_END>

200000a6 <_RETENTION_RESET_BEGIN>:
200000a6:	01c3f963          	bgeu	t2,t3,200000b8 <_RETENTION_DATA_INIT>
200000aa:	00032283          	lw	t0,0(t1)
200000ae:	0053a023          	sw	t0,0(t2)
200000b2:	0311                	c.addi	t1,4
200000b4:	0391                	c.addi	t2,4
200000b6:	bfc5                	c.j	200000a6 <_RETENTION_RESET_BEGIN>

200000b8 <_RETENTION_DATA_INIT>:
200000b8:	00000317          	auipc	t1,0x0
200000bc:	23030313          	addi	t1,t1,560 # 200002e8 <_RETENTION_DATA_LMA_START>
200000c0:	15800393          	li	t2,344
200000c4:	e0000e17          	auipc	t3,0xe0000
200000c8:	0f8e0e13          	addi	t3,t3,248 # 1bc <_RETENTION_DATA_VMA_END>

200000cc <_RETENTION_DATA_INIT_BEGIN>:
200000cc:	01c3f963          	bgeu	t2,t3,200000de <_RAMCODE_INIT>
200000d0:	00032283          	lw	t0,0(t1)
200000d4:	0053a023          	sw	t0,0(t2)
200000d8:	0311                	c.addi	t1,4
200000da:	0391                	c.addi	t2,4
200000dc:	bfc5                	c.j	200000cc <_RETENTION_DATA_INIT_BEGIN>

200000de <_RAMCODE_INIT>:
200000de:	00000317          	auipc	t1,0x0
200000e2:	27230313          	addi	t1,t1,626 # 20000350 <_RAMCODE_LMA_START>
200000e6:	e0000397          	auipc	t2,0xe0000
200000ea:	11a38393          	addi	t2,t2,282 # 200 <delay_ms.constprop.12>
200000ee:	e000be17          	auipc	t3,0xe000b
200000f2:	1a2e0e13          	addi	t3,t3,418 # b290 <_RAMCODE_VMA_END>

200000f6 <_RAMCODE_INIT_BEGIN>:
200000f6:	01c3f963          	bgeu	t2,t3,20000108 <_DATA_INIT>
200000fa:	00032283          	lw	t0,0(t1)
200000fe:	0053a023          	sw	t0,0(t2)
20000102:	0311                	c.addi	t1,4
20000104:	0391                	c.addi	t2,4
20000106:	bfc5                	c.j	200000f6 <_RAMCODE_INIT_BEGIN>

20000108 <_DATA_INIT>:
20000108:	0000b317          	auipc	t1,0xb
2000010c:	2d830313          	addi	t1,t1,728 # 2000b3e0 <_DATA_LMA_START>
20000110:	e0080397          	auipc	t2,0xe0080
20000114:	ef038393          	addi	t2,t2,-272 # 80000 <_DATA_VMA_START>
20000118:	e008ce17          	auipc	t3,0xe008c
2000011c:	9a0e0e13          	addi	t3,t3,-1632 # 8bab8 <_DATA_VMA_END>

20000120 <_DATA_INIT_BEGIN>:
20000120:	01c3f963          	bgeu	t2,t3,20000132 <_ZERO_BSS>
20000124:	00032283          	lw	t0,0(t1)
20000128:	0053a023          	sw	t0,0(t2)
2000012c:	0311                	c.addi	t1,4
2000012e:	0391                	c.addi	t2,4
20000130:	bfc5                	c.j	20000120 <_DATA_INIT_BEGIN>

20000132 <_ZERO_BSS>:
20000132:	000002b7          	lui	t0,0x0
20000136:	e008c397          	auipc	t2,0xe008c
2000013a:	98238393          	addi	t2,t2,-1662 # 8bab8 <_DATA_VMA_END>
2000013e:	e008ce17          	auipc	t3,0xe008c
20000142:	9bae0e13          	addi	t3,t3,-1606 # 8baf8 <_BSS_VMA_END>

20000146 <_ZERO_BSS_BEGIN>:
20000146:	01c3f663          	bgeu	t2,t3,20000152 <_ZERO_AES>
2000014a:	0053a023          	sw	t0,0(t2)
2000014e:	0391                	c.addi	t2,4
20000150:	bfdd                	c.j	20000146 <_ZERO_BSS_BEGIN>

20000152 <_ZERO_AES>:
20000152:	000002b7          	lui	t0,0x0
20000156:	e0000397          	auipc	t2,0xe0000
2000015a:	00238393          	addi	t2,t2,2 # 158 <_AES_VMA_END>
2000015e:	e0000e17          	auipc	t3,0xe0000
20000162:	ffae0e13          	addi	t3,t3,-6 # 158 <_AES_VMA_END>

20000166 <_ZERO_AES_BEGIN>:
20000166:	01c3f663          	bgeu	t2,t3,20000172 <_FILL_STK>
2000016a:	0053a023          	sw	t0,0(t2)
2000016e:	0391                	c.addi	t2,4
20000170:	bfdd                	c.j	20000166 <_ZERO_AES_BEGIN>

20000172 <_FILL_STK>:
20000172:	0001                	c.nop
20000174:	e0002297          	auipc	t0,0xe0002
20000178:	d2428293          	addi	t0,t0,-732 # 1e98 <main>
2000017c:	9282                	c.jalr	t0
2000017e:	0001                	c.nop
20000180:	0001                	c.nop
20000182:	0001                	c.nop
20000184:	0001                	c.nop
20000186:	0001                	c.nop

20000188 <_END>:
20000188:	a001                	c.j	20000188 <_END>

Disassembly of section .retention_reset:

00000000 <_IRESET_ENTRY>:
   0:	a00d                	c.j	22 <_ISTART>
	...

00000022 <_ISTART>:
  22:	00080197          	auipc	gp,0x80
  26:	7de18193          	addi	gp,gp,2014 # 80800 <__global_pointer$>

0000002a <_ISWS_USB_DIS>:
  2a:	801002b7          	lui	t0,0x80100
  2e:	70028293          	addi	t0,t0,1792 # 80100700 <_DATA_LMA_START+0x600f5320>
  32:	04000313          	li	t1,64
  36:	506280a3          	sb	t1,1281(t0)
  3a:	000a0297          	auipc	t0,0xa0
  3e:	fc628293          	addi	t0,t0,-58 # a0000 <_STACK_TOP>
  42:	8116                	c.mv	sp,t0
  44:	00000297          	auipc	t0,0x0
  48:	fbc28293          	addi	t0,t0,-68 # 0 <_IRESET_ENTRY>
  4c:	80029073          	csrw	uitb,t0
  50:	6299                	c.lui	t0,0x6
  52:	3002a2f3          	csrrs	t0,mstatus,t0
  56:	00301073          	fssr	zero
  5a:	00001297          	auipc	t0,0x1
  5e:	0a628293          	addi	t0,t0,166 # 1100 <__vectors>
  62:	30529073          	csrw	mtvec,t0
  66:	7d016073          	csrsi	mmisc_ctl,2
  6a:	e40002b7          	lui	t0,0xe4000
  6e:	4309                	c.li	t1,2
  70:	0062a023          	sw	t1,0(t0) # e4000000 <_DATA_LMA_START+0xc3ff4c20>
  74:	7ca022f3          	csrr	t0,mcache_ctl
  78:	0012e293          	ori	t0,t0,1
  7c:	0022e293          	ori	t0,t0,2
  80:	7ca29073          	csrw	mcache_ctl,t0
  84:	0000100f          	fence.i

00000088 <_WAKEUP_FLASH>:
  88:	801402b7          	lui	t0,0x80140
  8c:	0ff00313          	li	t1,255
  90:	4381                	c.li	t2,0
  92:	0ab00e13          	li	t3,171
  96:	326284a3          	sb	t1,809(t0) # 80140329 <_DATA_LMA_START+0x60134f49>
  9a:	107280a3          	sb	t2,257(t0)
  9e:	11c28023          	sb	t3,256(t0)

000000a2 <_MSPI_WAIT>:
  a2:	801402b7          	lui	t0,0x80140
  a6:	10228383          	lb	t2,258(t0) # 80140102 <_DATA_LMA_START+0x60134d22>
  aa:	4e05                	c.li	t3,1
  ac:	4ec1                	c.li	t4,16
  ae:	fe7e0ae3          	beq	t3,t2,a2 <_MSPI_WAIT>
  b2:	11d280a3          	sb	t4,257(t0)
  b6:	4281                	c.li	t0,0
  b8:	14000313          	li	t1,320

000000bc <_WAIT_EFUSE_LOAD_AND_FLASH_WAKEUP_FINISH>:
  bc:	0285                	c.addi	t0,1
  be:	fe537fe3          	bgeu	t1,t0,bc <_WAIT_EFUSE_LOAD_AND_FLASH_WAKEUP_FINISH>

000000c2 <_MULTI_ADDRESS_BEGIN>:
  c2:	801402b7          	lui	t0,0x80140
  c6:	1b800313          	li	t1,440
  ca:	00032383          	lw	t2,0(t1)
  ce:	1072a223          	sw	t2,260(t0) # 80140104 <_DATA_LMA_START+0x60134d24>

000000d2 <_IZERO_BSS>:
  d2:	000002b7          	lui	t0,0x0
  d6:	0008c397          	auipc	t2,0x8c
  da:	9e238393          	addi	t2,t2,-1566 # 8bab8 <_DATA_VMA_END>
  de:	0008ce17          	auipc	t3,0x8c
  e2:	a1ae0e13          	addi	t3,t3,-1510 # 8baf8 <_BSS_VMA_END>

000000e6 <_IZERO_BSS_BEGIN>:
  e6:	01c3f663          	bgeu	t2,t3,f2 <_IZERO_AES>
  ea:	0053a023          	sw	t0,0(t2)
  ee:	0391                	c.addi	t2,4
  f0:	bfdd                	c.j	e6 <_IZERO_BSS_BEGIN>

000000f2 <_IZERO_AES>:
  f2:	000002b7          	lui	t0,0x0
  f6:	00000397          	auipc	t2,0x0
  fa:	06238393          	addi	t2,t2,98 # 158 <_AES_VMA_END>
  fe:	00000e17          	auipc	t3,0x0
 102:	05ae0e13          	addi	t3,t3,90 # 158 <_AES_VMA_END>

00000106 <_IZERO_AES_BEGIN>:
 106:	01c3f663          	bgeu	t2,t3,112 <_IDATA_INIT>
 10a:	0053a023          	sw	t0,0(t2)
 10e:	0391                	c.addi	t2,4
 110:	bfdd                	c.j	106 <_IZERO_AES_BEGIN>

00000112 <_IDATA_INIT>:
 112:	2000b317          	auipc	t1,0x2000b
 116:	2ce30313          	addi	t1,t1,718 # 2000b3e0 <_DATA_LMA_START>
 11a:	00080397          	auipc	t2,0x80
 11e:	ee638393          	addi	t2,t2,-282 # 80000 <_DATA_VMA_START>
 122:	0008ce17          	auipc	t3,0x8c
 126:	996e0e13          	addi	t3,t3,-1642 # 8bab8 <_DATA_VMA_END>

0000012a <_IDATA_INIT_BEGIN>:
 12a:	01c3f963          	bgeu	t2,t3,13c <_IMAIN_FUNC>
 12e:	00032283          	lw	t0,0(t1)
 132:	0053a023          	sw	t0,0(t2)
 136:	0311                	c.addi	t1,4
 138:	0391                	c.addi	t2,4
 13a:	bfc5                	c.j	12a <_IDATA_INIT_BEGIN>

0000013c <_IMAIN_FUNC>:
 13c:	0001                	c.nop
 13e:	00002297          	auipc	t0,0x2
 142:	d5a28293          	addi	t0,t0,-678 # 1e98 <main>
 146:	9282                	c.jalr	t0
 148:	0001                	c.nop
 14a:	0001                	c.nop
 14c:	0001                	c.nop
 14e:	0001                	c.nop
 150:	0001                	c.nop

00000152 <_IEND>:
 152:	a001                	c.j	152 <_IEND>

Disassembly of section .ram_code:

00000200 <delay_ms.constprop.12>:
     200:	801407b7          	lui	a5,0x80140
     204:	0004e737          	lui	a4,0x4e
     208:	2007a603          	lw	a2,512(a5) # 80140200 <_DATA_LMA_START+0x60134e20>
     20c:	801406b7          	lui	a3,0x80140
     210:	20070713          	addi	a4,a4,512 # 4e200 <BIN_SIZE+0x37346>
     214:	2006a783          	lw	a5,512(a3) # 80140200 <_DATA_LMA_START+0x60134e20>
     218:	8f91                	c.sub	a5,a2
     21a:	fef77de3          	bgeu	a4,a5,214 <delay_ms.constprop.12+0x14>
     21e:	8082                	c.jr	ra

00000220 <flash_send_addr>:
     220:	5d05275b          	bfoz	a4,a0,23,16
     224:	801407b7          	lui	a5,0x80140
     228:	801406b7          	lui	a3,0x80140
     22c:	10e78023          	sb	a4,256(a5) # 80140100 <_DATA_LMA_START+0x60134d20>
     230:	10268783          	lb	a5,258(a3) # 80140102 <_DATA_LMA_START+0x60134d22>
     234:	fe07fe5b          	bbs	a5,0,230 <flash_send_addr+0x10>
     238:	3c8527db          	bfoz	a5,a0,15,8
     23c:	80140737          	lui	a4,0x80140
     240:	10f68023          	sb	a5,256(a3)
     244:	10270783          	lb	a5,258(a4) # 80140102 <_DATA_LMA_START+0x60134d22>
     248:	fe07fe5b          	bbs	a5,0,244 <flash_send_addr+0x24>
     24c:	0ff57513          	andi	a0,a0,255
     250:	801406b7          	lui	a3,0x80140
     254:	10a70023          	sb	a0,256(a4)
     258:	10268783          	lb	a5,258(a3) # 80140102 <_DATA_LMA_START+0x60134d22>
     25c:	fe07fe5b          	bbs	a5,0,258 <flash_send_addr+0x38>
     260:	00008067          	ret

00000264 <flash_send_cmd>:
     264:	801407b7          	lui	a5,0x80140
     268:	10178703          	lb	a4,257(a5) # 80140101 <_DATA_LMA_START+0x60134d21>
     26c:	0ff77713          	andi	a4,a4,255
     270:	01076713          	ori	a4,a4,16
     274:	10e780a3          	sb	a4,257(a5)
     278:	0001                	c.nop
     27a:	0001                	c.nop
     27c:	0001                	c.nop
     27e:	0001                	c.nop
     280:	0001                	c.nop
     282:	0001                	c.nop
     284:	0001                	c.nop
     286:	0001                	c.nop
     288:	0001                	c.nop
     28a:	0001                	c.nop
     28c:	10178683          	lb	a3,257(a5)
     290:	80140737          	lui	a4,0x80140
     294:	0ef6f693          	andi	a3,a3,239
     298:	10d780a3          	sb	a3,257(a5)
     29c:	10a78023          	sb	a0,256(a5)
     2a0:	10270783          	lb	a5,258(a4) # 80140102 <_DATA_LMA_START+0x60134d22>
     2a4:	fe07fe5b          	bbs	a5,0,2a0 <flash_send_cmd+0x3c>
     2a8:	00008067          	ret

000002ac <clock_set_32k_tick>:
     2ac:	801406b7          	lui	a3,0x80140
     2b0:	20a68783          	lb	a5,522(a3) # 8014020a <_DATA_LMA_START+0x60134e2a>
     2b4:	80140737          	lui	a4,0x80140
     2b8:	0ff7f793          	andi	a5,a5,255
     2bc:	0017e793          	ori	a5,a5,1
     2c0:	20f68523          	sb	a5,522(a3)
     2c4:	20b70683          	lb	a3,523(a4) # 8014020b <_DATA_LMA_START+0x60134e2b>
     2c8:	20b70793          	addi	a5,a4,523
     2cc:	fe66fc5b          	bbs	a3,6,2c4 <clock_set_32k_tick+0x18>
     2d0:	20a72623          	sw	a0,524(a4)
     2d4:	4721                	c.li	a4,8
     2d6:	00e78023          	sb	a4,0(a5)
     2da:	0001                	c.nop
     2dc:	0001                	c.nop
     2de:	0001                	c.nop
     2e0:	0001                	c.nop
     2e2:	0001                	c.nop
     2e4:	0001                	c.nop
     2e6:	0001                	c.nop
     2e8:	0001                	c.nop
     2ea:	0001                	c.nop
     2ec:	0001                	c.nop
     2ee:	0001                	c.nop
     2f0:	0001                	c.nop
     2f2:	0001                	c.nop
     2f4:	0001                	c.nop
     2f6:	0001                	c.nop
     2f8:	00000013          	nop
     2fc:	801407b7          	lui	a5,0x80140
     300:	20b78703          	lb	a4,523(a5) # 8014020b <_DATA_LMA_START+0x60134e2b>
     304:	fe377e5b          	bbs	a4,3,300 <clock_set_32k_tick+0x54>
     308:	00008067          	ret

0000030c <analog_read_reg32.constprop.4>:
     30c:	300027f3          	csrr	a5,mstatus
     310:	8ba1                	c.andi	a5,8
     312:	c789                	c.beqz	a5,31c <analog_read_reg32.constprop.4+0x10>
     314:	30047773          	csrrci	a4,mstatus,8
     318:	0ff0000f          	fence
     31c:	80140737          	lui	a4,0x80140
     320:	00400693          	li	a3,4
     324:	18d701a3          	sb	a3,387(a4) # 80140183 <_DATA_LMA_START+0x60134da3>
     328:	06000693          	li	a3,96
     32c:	18d70023          	sb	a3,384(a4)
     330:	04000613          	li	a2,64
     334:	801406b7          	lui	a3,0x80140
     338:	18c70123          	sb	a2,386(a4)
     33c:	18268703          	lb	a4,386(a3) # 80140182 <_DATA_LMA_START+0x60134da2>
     340:	fe777e5b          	bbs	a4,7,33c <analog_read_reg32.constprop.4+0x30>
     344:	1846a503          	lw	a0,388(a3)
     348:	00078663          	beqz	a5,354 <analog_read_reg32.constprop.4+0x48>
     34c:	3007a7f3          	csrrs	a5,mstatus,a5
     350:	0ff0000f          	fence
     354:	00008067          	ret

00000358 <clock_get_32k_tick>:
     358:	1141                	c.addi	sp,-16
     35a:	c422                	c.swsp	s0,8(sp)
     35c:	c606                	c.swsp	ra,12(sp)
     35e:	377d                	c.jal	30c <analog_read_reg32.constprop.4>
     360:	00a00433          	add	s0,zero,a0
     364:	fa9ff0ef          	jal	ra,30c <analog_read_reg32.constprop.4>
     368:	40850733          	sub	a4,a0,s0
     36c:	842a                	c.mv	s0,a0
     36e:	be176b5b          	bnec	a4,1,364 <clock_get_32k_tick+0xc>
     372:	40b2                	c.lwsp	ra,12(sp)
     374:	4422                	c.lwsp	s0,8(sp)
     376:	0141                	c.addi	sp,16
     378:	00008067          	ret

0000037c <pm_stimer_recover>:
     37c:	1141                	c.addi	sp,-16
     37e:	80140737          	lui	a4,0x80140
     382:	c606                	c.swsp	ra,12(sp)
     384:	4789                	c.li	a5,2
     386:	20f70c23          	sb	a5,536(a4) # 80140218 <_DATA_LMA_START+0x60134e38>
     38a:	20a70783          	lb	a5,522(a4)
     38e:	0ff7f793          	andi	a5,a5,255
     392:	00c7e793          	ori	a5,a5,12
     396:	20f70523          	sb	a5,522(a4)
     39a:	3f7d                	c.jal	358 <clock_get_32k_tick>
     39c:	00000737          	lui	a4,0x0
     3a0:	15870793          	addi	a5,a4,344 # 158 <_AES_VMA_END>
     3a4:	0047c783          	lbu	a5,4(a5)
     3a8:	15870713          	addi	a4,a4,344
     3ac:	cf81                	c.beqz	a5,3c4 <pm_stimer_recover+0x48>
     3ae:	4754                	c.lw	a3,12(a4)
     3b0:	5b50                	c.lw	a2,52(a4)
     3b2:	40d506b3          	sub	a3,a0,a3
     3b6:	471c                	c.lw	a5,8(a4)
     3b8:	0685                	c.addi	a3,1
     3ba:	8295                	c.srli	a3,0x5
     3bc:	c4c697ff          	maddr32	a5,a3,a2
     3c0:	0180006f          	j	3d8 <pm_stimer_recover+0x5c>
     3c4:	475c                	c.lw	a5,12(a4)
     3c6:	5b54                	c.lw	a3,52(a4)
     3c8:	40f507b3          	sub	a5,a0,a5
     3cc:	0785                	c.addi	a5,1
     3ce:	02d787b3          	mul	a5,a5,a3
     3d2:	4714                	c.lw	a3,8(a4)
     3d4:	8395                	c.srli	a5,0x5
     3d6:	97b6                	c.add	a5,a3
     3d8:	4754                	c.lw	a3,12(a4)
     3da:	00150593          	addi	a1,a0,1
     3de:	8d15                	c.sub	a0,a3
     3e0:	0505                	c.addi	a0,1
     3e2:	00178613          	addi	a2,a5,1
     3e6:	df1c                	c.sw	a5,56(a4)
     3e8:	d34c                	c.sw	a1,36(a4)
     3ea:	d308                	c.sw	a0,32(a4)
     3ec:	801407b7          	lui	a5,0x80140
     3f0:	801406b7          	lui	a3,0x80140
     3f4:	20c7a023          	sw	a2,512(a5) # 80140200 <_DATA_LMA_START+0x60134e20>
     3f8:	20b68783          	lb	a5,523(a3) # 8014020b <_DATA_LMA_START+0x60134e2b>
     3fc:	be77fe5b          	bbc	a5,7,3f8 <pm_stimer_recover+0x7c>
     400:	20068c23          	sb	zero,536(a3)
     404:	40b2                	c.lwsp	ra,12(sp)
     406:	0141                	c.addi	sp,16
     408:	00008067          	ret

0000040c <plic_exit_critical_sec>:
     40c:	000007b7          	lui	a5,0x0
     410:	15878793          	addi	a5,a5,344 # 158 <_AES_VMA_END>
     414:	03c78783          	lb	a5,60(a5)
     418:	0ff7f793          	andi	a5,a5,255
     41c:	c795                	c.beqz	a5,448 <plic_exit_critical_sec+0x3c>
     41e:	c50d                	c.beqz	a0,448 <plic_exit_critical_sec+0x3c>
     420:	300027f3          	csrr	a5,mstatus
     424:	8ba1                	c.andi	a5,8
     426:	0ff5f593          	andi	a1,a1,255
     42a:	c78d                	c.beqz	a5,454 <plic_exit_critical_sec+0x48>
     42c:	30047773          	csrrci	a4,mstatus,8
     430:	0ff0000f          	fence
     434:	e4200737          	lui	a4,0xe4200
     438:	c30c                	c.sw	a1,0(a4)
     43a:	0ff0000f          	fence
     43e:	3007a7f3          	csrrs	a5,mstatus,a5
     442:	0ff0000f          	fence
     446:	8082                	c.jr	ra
     448:	cd81                	c.beqz	a1,460 <plic_exit_critical_sec+0x54>
     44a:	3005a5f3          	csrrs	a1,mstatus,a1
     44e:	0ff0000f          	fence
     452:	8082                	c.jr	ra
     454:	e42007b7          	lui	a5,0xe4200
     458:	00b7a023          	sw	a1,0(a5) # e4200000 <_DATA_LMA_START+0xc41f4c20>
     45c:	0ff0000f          	fence
     460:	00008067          	ret

00000464 <plic_enter_critical_sec>:
     464:	000007b7          	lui	a5,0x0
     468:	15878793          	addi	a5,a5,344 # 158 <_AES_VMA_END>
     46c:	03c78783          	lb	a5,60(a5)
     470:	0ff7f793          	andi	a5,a5,255
     474:	cb85                	c.beqz	a5,4a4 <plic_enter_critical_sec+0x40>
     476:	c51d                	c.beqz	a0,4a4 <plic_enter_critical_sec+0x40>
     478:	e4200737          	lui	a4,0xe4200
     47c:	4308                	c.lw	a0,0(a4)
     47e:	04b57163          	bgeu	a0,a1,4c0 <plic_enter_critical_sec+0x5c>
     482:	300027f3          	csrr	a5,mstatus
     486:	8ba1                	c.andi	a5,8
     488:	cb85                	c.beqz	a5,4b8 <plic_enter_critical_sec+0x54>
     48a:	300476f3          	csrrci	a3,mstatus,8
     48e:	0ff0000f          	fence
     492:	c30c                	c.sw	a1,0(a4)
     494:	0ff0000f          	fence
     498:	3007a7f3          	csrrs	a5,mstatus,a5
     49c:	0ff0000f          	fence
     4a0:	00008067          	ret
     4a4:	30002573          	csrr	a0,mstatus
     4a8:	8921                	c.andi	a0,8
     4aa:	c919                	c.beqz	a0,4c0 <plic_enter_critical_sec+0x5c>
     4ac:	300477f3          	csrrci	a5,mstatus,8
     4b0:	0ff0000f          	fence
     4b4:	00008067          	ret
     4b8:	00b72023          	sw	a1,0(a4) # e4200000 <_DATA_LMA_START+0xc41f4c20>
     4bc:	0ff0000f          	fence
     4c0:	00008067          	ret

000004c4 <flash_mspi_read_ram>:
     4c4:	7179                	c.addi16sp	sp,-48
     4c6:	d226                	c.swsp	s1,36(sp)
     4c8:	000004b7          	lui	s1,0x0
     4cc:	15848493          	addi	s1,s1,344 # 158 <_AES_VMA_END>
     4d0:	d04a                	c.swsp	s2,32(sp)
     4d2:	c65e                	c.swsp	s7,12(sp)
     4d4:	892a                	c.mv	s2,a0
     4d6:	8bae                	c.mv	s7,a1
     4d8:	0404c503          	lbu	a0,64(s1)
     4dc:	0414c583          	lbu	a1,65(s1)
     4e0:	d422                	c.swsp	s0,40(sp)
     4e2:	ce4e                	c.swsp	s3,28(sp)
     4e4:	cc52                	c.swsp	s4,24(sp)
     4e6:	ca56                	c.swsp	s5,20(sp)
     4e8:	c85a                	c.swsp	s6,16(sp)
     4ea:	d606                	c.swsp	ra,44(sp)
     4ec:	8b32                	c.mv	s6,a2
     4ee:	8ab6                	c.mv	s5,a3
     4f0:	843a                	c.mv	s0,a4
     4f2:	8a3e                	c.mv	s4,a5
     4f4:	f71ff0ef          	jal	ra,464 <plic_enter_critical_sec>
     4f8:	80140637          	lui	a2,0x80140
     4fc:	00a009b3          	add	s3,zero,a0
     500:	10260783          	lb	a5,258(a2) # 80140102 <_DATA_LMA_START+0x60134d22>
     504:	fe07fe5b          	bbs	a5,0,500 <flash_mspi_read_ram+0x3c>
     508:	10160783          	lb	a5,257(a2)
     50c:	80140737          	lui	a4,0x80140
     510:	0ff7f793          	andi	a5,a5,255
     514:	0107e793          	ori	a5,a5,16
     518:	10f600a3          	sb	a5,257(a2)
     51c:	32870783          	lb	a5,808(a4) # 80140328 <_DATA_LMA_START+0x60134f48>
     520:	be37fe5b          	bbc	a5,3,51c <flash_mspi_read_ram+0x58>
     524:	10170783          	lb	a5,257(a4)
     528:	854a                	c.mv	a0,s2
     52a:	0fd7f793          	andi	a5,a5,253
     52e:	10f700a3          	sb	a5,257(a4)
     532:	10170783          	lb	a5,257(a4)
     536:	0f37f793          	andi	a5,a5,243
     53a:	10f700a3          	sb	a5,257(a4)
     53e:	331d                	c.jal	264 <flash_send_cmd>
     540:	0e0b1e63          	bnez	s6,63c <flash_mspi_read_ram+0x178>
     544:	020a8063          	beqz	s5,564 <flash_mspi_read_ram+0xa0>
     548:	00000713          	li	a4,0
     54c:	80140637          	lui	a2,0x80140
     550:	10060023          	sb	zero,256(a2) # 80140100 <_DATA_LMA_START+0x60134d20>
     554:	10260783          	lb	a5,258(a2)
     558:	fe07fe5b          	bbs	a5,0,554 <flash_mspi_read_ram+0x90>
     55c:	00170713          	addi	a4,a4,1
     560:	ff5718e3          	bne	a4,s5,550 <flash_mspi_read_ram+0x8c>
     564:	01b96cdb          	bnec	s2,59,57c <flash_mspi_read_ram+0xb8>
     568:	80140737          	lui	a4,0x80140
     56c:	10170783          	lb	a5,257(a4) # 80140101 <_DATA_LMA_START+0x60134d21>
     570:	0f37f793          	andi	a5,a5,243
     574:	0047e793          	ori	a5,a5,4
     578:	10f700a3          	sb	a5,257(a4)
     57c:	801406b7          	lui	a3,0x80140
     580:	10168783          	lb	a5,257(a3) # 80140101 <_DATA_LMA_START+0x60134d21>
     584:	80140737          	lui	a4,0x80140
     588:	0ff7f793          	andi	a5,a5,255
     58c:	0027e793          	ori	a5,a5,2
     590:	10f680a3          	sb	a5,257(a3)
     594:	10068023          	sb	zero,256(a3)
     598:	10270783          	lb	a5,258(a4) # 80140102 <_DATA_LMA_START+0x60134d22>
     59c:	fe07fe5b          	bbs	a5,0,598 <flash_mspi_read_ram+0xd4>
     5a0:	10170783          	lb	a5,257(a4)
     5a4:	801406b7          	lui	a3,0x80140
     5a8:	0ff7f793          	andi	a5,a5,255
     5ac:	0017e793          	ori	a5,a5,1
     5b0:	10f700a3          	sb	a5,257(a4)
     5b4:	10268783          	lb	a5,258(a3) # 80140102 <_DATA_LMA_START+0x60134d22>
     5b8:	fe07fe5b          	bbs	a5,0,5b4 <flash_mspi_read_ram+0xf0>
     5bc:	020a0263          	beqz	s4,5e0 <flash_mspi_read_ram+0x11c>
     5c0:	008a0a33          	add	s4,s4,s0
     5c4:	801406b7          	lui	a3,0x80140
     5c8:	10068783          	lb	a5,256(a3) # 80140100 <_DATA_LMA_START+0x60134d20>
     5cc:	00140413          	addi	s0,s0,1
     5d0:	fef40fa3          	sb	a5,-1(s0)
     5d4:	10268783          	lb	a5,258(a3)
     5d8:	fe07fe5b          	bbs	a5,0,5d4 <flash_mspi_read_ram+0x110>
     5dc:	ff4416e3          	bne	s0,s4,5c8 <flash_mspi_read_ram+0x104>
     5e0:	801407b7          	lui	a5,0x80140
     5e4:	10178703          	lb	a4,257(a5) # 80140101 <_DATA_LMA_START+0x60134d21>
     5e8:	0fe77713          	andi	a4,a4,254
     5ec:	10e780a3          	sb	a4,257(a5)
     5f0:	01b968db          	bnec	s2,59,600 <flash_mspi_read_ram+0x13c>
     5f4:	10178703          	lb	a4,257(a5)
     5f8:	0f377713          	andi	a4,a4,243
     5fc:	10e780a3          	sb	a4,257(a5)
     600:	80140737          	lui	a4,0x80140
     604:	10170783          	lb	a5,257(a4) # 80140101 <_DATA_LMA_START+0x60134d21>
     608:	0ff7f793          	andi	a5,a5,255
     60c:	0107e793          	ori	a5,a5,16
     610:	10f700a3          	sb	a5,257(a4)
     614:	0001                	c.nop
     616:	0001                	c.nop
     618:	0001                	c.nop
     61a:	0001                	c.nop
     61c:	0001                	c.nop
     61e:	5422                	c.lwsp	s0,40(sp)
     620:	0404c503          	lbu	a0,64(s1)
     624:	50b2                	c.lwsp	ra,44(sp)
     626:	5492                	c.lwsp	s1,36(sp)
     628:	5902                	c.lwsp	s2,32(sp)
     62a:	4a62                	c.lwsp	s4,24(sp)
     62c:	4ad2                	c.lwsp	s5,20(sp)
     62e:	4b42                	c.lwsp	s6,16(sp)
     630:	4bb2                	c.lwsp	s7,12(sp)
     632:	85ce                	c.mv	a1,s3
     634:	49f2                	c.lwsp	s3,28(sp)
     636:	6145                	c.addi16sp	sp,48
     638:	dd5ff06f          	j	40c <plic_exit_critical_sec>
     63c:	855e                	c.mv	a0,s7
     63e:	36cd                	c.jal	220 <flash_send_addr>
     640:	f05ff06f          	j	544 <flash_mspi_read_ram+0x80>

00000644 <flash_mspi_read_ram.constprop.7>:
     644:	1101                	c.addi	sp,-32
     646:	c64e                	c.swsp	s3,12(sp)
     648:	000009b7          	lui	s3,0x0
     64c:	15898993          	addi	s3,s3,344 # 158 <_AES_VMA_END>
     650:	cc22                	c.swsp	s0,24(sp)
     652:	c256                	c.swsp	s5,4(sp)
     654:	842e                	c.mv	s0,a1
     656:	8aaa                	c.mv	s5,a0
     658:	0419c583          	lbu	a1,65(s3)
     65c:	0409c503          	lbu	a0,64(s3)
     660:	c84a                	c.swsp	s2,16(sp)
     662:	c452                	c.swsp	s4,8(sp)
     664:	ce06                	c.swsp	ra,28(sp)
     666:	ca26                	c.swsp	s1,20(sp)
     668:	8932                	c.mv	s2,a2
     66a:	3bed                	c.jal	464 <plic_enter_critical_sec>
     66c:	80140737          	lui	a4,0x80140
     670:	00a00a33          	add	s4,zero,a0
     674:	10270783          	lb	a5,258(a4) # 80140102 <_DATA_LMA_START+0x60134d22>
     678:	fe07fe5b          	bbs	a5,0,674 <flash_mspi_read_ram.constprop.7+0x30>
     67c:	10170783          	lb	a5,257(a4)
     680:	801404b7          	lui	s1,0x80140
     684:	0ff7f793          	andi	a5,a5,255
     688:	0107e793          	ori	a5,a5,16
     68c:	10f700a3          	sb	a5,257(a4)
     690:	32848783          	lb	a5,808(s1) # 80140328 <_DATA_LMA_START+0x60134f48>
     694:	be37fe5b          	bbc	a5,3,690 <flash_mspi_read_ram.constprop.7+0x4c>
     698:	10148783          	lb	a5,257(s1)
     69c:	03b00513          	li	a0,59
     6a0:	0fd7f793          	andi	a5,a5,253
     6a4:	10f480a3          	sb	a5,257(s1)
     6a8:	10148783          	lb	a5,257(s1)
     6ac:	0f37f793          	andi	a5,a5,243
     6b0:	10f480a3          	sb	a5,257(s1)
     6b4:	bb1ff0ef          	jal	ra,264 <flash_send_cmd>
     6b8:	01500533          	add	a0,zero,s5
     6bc:	b65ff0ef          	jal	ra,220 <flash_send_addr>
     6c0:	80140737          	lui	a4,0x80140
     6c4:	10048023          	sb	zero,256(s1)
     6c8:	10270783          	lb	a5,258(a4) # 80140102 <_DATA_LMA_START+0x60134d22>
     6cc:	fe07fe5b          	bbs	a5,0,6c8 <flash_mspi_read_ram.constprop.7+0x84>
     6d0:	10170783          	lb	a5,257(a4)
     6d4:	801406b7          	lui	a3,0x80140
     6d8:	0f37f793          	andi	a5,a5,243
     6dc:	0047e793          	ori	a5,a5,4
     6e0:	10f700a3          	sb	a5,257(a4)
     6e4:	10170783          	lb	a5,257(a4)
     6e8:	0ff7f793          	andi	a5,a5,255
     6ec:	0027e793          	ori	a5,a5,2
     6f0:	10f700a3          	sb	a5,257(a4)
     6f4:	10070023          	sb	zero,256(a4)
     6f8:	10268783          	lb	a5,258(a3) # 80140102 <_DATA_LMA_START+0x60134d22>
     6fc:	fe07fe5b          	bbs	a5,0,6f8 <flash_mspi_read_ram.constprop.7+0xb4>
     700:	10168783          	lb	a5,257(a3)
     704:	80140737          	lui	a4,0x80140
     708:	0ff7f793          	andi	a5,a5,255
     70c:	0017e793          	ori	a5,a5,1
     710:	10f680a3          	sb	a5,257(a3)
     714:	10270783          	lb	a5,258(a4) # 80140102 <_DATA_LMA_START+0x60134d22>
     718:	fe07fe5b          	bbs	a5,0,714 <flash_mspi_read_ram.constprop.7+0xd0>
     71c:	02090263          	beqz	s2,740 <flash_mspi_read_ram.constprop.7+0xfc>
     720:	01240633          	add	a2,s0,s2
     724:	80140737          	lui	a4,0x80140
     728:	10070783          	lb	a5,256(a4) # 80140100 <_DATA_LMA_START+0x60134d20>
     72c:	00140413          	addi	s0,s0,1
     730:	fef40fa3          	sb	a5,-1(s0)
     734:	10270783          	lb	a5,258(a4)
     738:	fe07fe5b          	bbs	a5,0,734 <flash_mspi_read_ram.constprop.7+0xf0>
     73c:	fec416e3          	bne	s0,a2,728 <flash_mspi_read_ram.constprop.7+0xe4>
     740:	801407b7          	lui	a5,0x80140
     744:	10178703          	lb	a4,257(a5) # 80140101 <_DATA_LMA_START+0x60134d21>
     748:	0fe77713          	andi	a4,a4,254
     74c:	10e780a3          	sb	a4,257(a5)
     750:	10178703          	lb	a4,257(a5)
     754:	0f377713          	andi	a4,a4,243
     758:	10e780a3          	sb	a4,257(a5)
     75c:	10178703          	lb	a4,257(a5)
     760:	0ff77713          	andi	a4,a4,255
     764:	01076713          	ori	a4,a4,16
     768:	10e780a3          	sb	a4,257(a5)
     76c:	0001                	c.nop
     76e:	0001                	c.nop
     770:	0001                	c.nop
     772:	0001                	c.nop
     774:	0001                	c.nop
     776:	4462                	c.lwsp	s0,24(sp)
     778:	0409c503          	lbu	a0,64(s3)
     77c:	40f2                	c.lwsp	ra,28(sp)
     77e:	44d2                	c.lwsp	s1,20(sp)
     780:	4942                	c.lwsp	s2,16(sp)
     782:	49b2                	c.lwsp	s3,12(sp)
     784:	4a92                	c.lwsp	s5,4(sp)
     786:	85d2                	c.mv	a1,s4
     788:	4a22                	c.lwsp	s4,8(sp)
     78a:	6105                	c.addi16sp	sp,32
     78c:	c81ff06f          	j	40c <plic_exit_critical_sec>

00000790 <analog_write_reg8>:
     790:	30002673          	csrr	a2,mstatus
     794:	8a21                	c.andi	a2,8
     796:	c609                	c.beqz	a2,7a0 <analog_write_reg8+0x10>
     798:	300477f3          	csrrci	a5,mstatus,8
     79c:	0ff0000f          	fence
     7a0:	80140737          	lui	a4,0x80140
     7a4:	18a70023          	sb	a0,384(a4) # 80140180 <_DATA_LMA_START+0x60134da0>
     7a8:	18b70223          	sb	a1,388(a4)
     7ac:	06000693          	li	a3,96
     7b0:	801407b7          	lui	a5,0x80140
     7b4:	18d70123          	sb	a3,386(a4)
     7b8:	18278703          	lb	a4,386(a5) # 80140182 <_DATA_LMA_START+0x60134da2>
     7bc:	fe777e5b          	bbs	a4,7,7b8 <analog_write_reg8+0x28>
     7c0:	18078123          	sb	zero,386(a5)
     7c4:	00060663          	beqz	a2,7d0 <analog_write_reg8+0x40>
     7c8:	30062673          	csrrs	a2,mstatus,a2
     7cc:	0ff0000f          	fence
     7d0:	00008067          	ret

000007d4 <analog_read_reg8>:
     7d4:	300026f3          	csrr	a3,mstatus
     7d8:	8aa1                	c.andi	a3,8
     7da:	c689                	c.beqz	a3,7e4 <analog_read_reg8+0x10>
     7dc:	300477f3          	csrrci	a5,mstatus,8
     7e0:	0ff0000f          	fence
     7e4:	801407b7          	lui	a5,0x80140
     7e8:	18a78023          	sb	a0,384(a5) # 80140180 <_DATA_LMA_START+0x60134da0>
     7ec:	00100713          	li	a4,1
     7f0:	18e781a3          	sb	a4,387(a5)
     7f4:	04000613          	li	a2,64
     7f8:	80140737          	lui	a4,0x80140
     7fc:	18c78123          	sb	a2,386(a5)
     800:	18270783          	lb	a5,386(a4) # 80140182 <_DATA_LMA_START+0x60134da2>
     804:	fe77fe5b          	bbs	a5,7,800 <analog_read_reg8+0x2c>
     808:	18470503          	lb	a0,388(a4)
     80c:	0ff57513          	andi	a0,a0,255
     810:	00068663          	beqz	a3,81c <analog_read_reg8+0x48>
     814:	3006a6f3          	csrrs	a3,mstatus,a3
     818:	0ff0000f          	fence
     81c:	00008067          	ret

00000820 <clock_init_ram.constprop.11>:
     820:	1141                	c.addi	sp,-16
     822:	80140737          	lui	a4,0x80140
     826:	c606                	c.swsp	ra,12(sp)
     828:	c422                	c.swsp	s0,8(sp)
     82a:	c226                	c.swsp	s1,4(sp)
     82c:	10270783          	lb	a5,258(a4) # 80140102 <_DATA_LMA_START+0x60134d22>
     830:	fe07fe5b          	bbs	a5,0,82c <clock_init_ram.constprop.11+0xc>
     834:	10170783          	lb	a5,257(a4)
     838:	801404b7          	lui	s1,0x80140
     83c:	0ff7f793          	andi	a5,a5,255
     840:	0107e793          	ori	a5,a5,16
     844:	10f700a3          	sb	a5,257(a4)
     848:	32848783          	lb	a5,808(s1) # 80140328 <_DATA_LMA_START+0x60134f48>
     84c:	be37fe5b          	bbc	a5,3,848 <clock_init_ram.constprop.11+0x28>
     850:	1e848783          	lb	a5,488(s1)
     854:	08000513          	li	a0,128
     858:	8bbd                	c.andi	a5,15
     85a:	1ef48423          	sb	a5,488(s1)
     85e:	3f9d                	c.jal	7d4 <analog_read_reg8>
     860:	0e057593          	andi	a1,a0,224
     864:	0105e593          	ori	a1,a1,16
     868:	08000513          	li	a0,128
     86c:	f25ff0ef          	jal	ra,790 <analog_write_reg8>
     870:	00900513          	li	a0,9
     874:	f61ff0ef          	jal	ra,7d4 <analog_read_reg8>
     878:	0f357593          	andi	a1,a0,243
     87c:	0085e593          	ori	a1,a1,8
     880:	4525                	c.li	a0,9
     882:	3739                	c.jal	790 <analog_write_reg8>
     884:	0c000793          	li	a5,192
     888:	24c6940b          	addigp	s0,45644 # 8ba4c <sys_clk>
     88c:	00f41023          	sh	a5,0(s0)
     890:	08100513          	li	a0,129
     894:	4791                	c.li	a5,4
     896:	1ef48da3          	sb	a5,507(s1)
     89a:	3f2d                	c.jal	7d4 <analog_read_reg8>
     89c:	04056593          	ori	a1,a0,64
     8a0:	0ff5f593          	andi	a1,a1,255
     8a4:	08100513          	li	a0,129
     8a8:	ee9ff0ef          	jal	ra,790 <analog_write_reg8>
     8ac:	08800513          	li	a0,136
     8b0:	f25ff0ef          	jal	ra,7d4 <analog_read_reg8>
     8b4:	be557c5b          	bbc	a0,5,8ac <clock_init_ram.constprop.11+0x8c>
     8b8:	08100513          	li	a0,129
     8bc:	f19ff0ef          	jal	ra,7d4 <analog_read_reg8>
     8c0:	0bf57593          	andi	a1,a0,191
     8c4:	08100513          	li	a0,129
     8c8:	ec9ff0ef          	jal	ra,790 <analog_write_reg8>
     8cc:	801407b7          	lui	a5,0x80140
     8d0:	1e978703          	lb	a4,489(a5) # 801401e9 <_DATA_LMA_START+0x60134e09>
     8d4:	8b3d                	c.andi	a4,15
     8d6:	04076713          	ori	a4,a4,64
     8da:	1ee784a3          	sb	a4,489(a5)
     8de:	1e878703          	lb	a4,488(a5)
     8e2:	f8076713          	ori	a4,a4,-128
     8e6:	0ff77713          	andi	a4,a4,255
     8ea:	1ee78423          	sb	a4,488(a5)
     8ee:	1e878703          	lb	a4,488(a5)
     8f2:	f8076713          	ori	a4,a4,-128
     8f6:	0ff77713          	andi	a4,a4,255
     8fa:	1ee78423          	sb	a4,488(a5)
     8fe:	1d878703          	lb	a4,472(a5)
     902:	00045683          	lhu	a3,0(s0)
     906:	0fb77713          	andi	a4,a4,251
     90a:	1ce78c23          	sb	a4,472(a5)
     90e:	1d878703          	lb	a4,472(a5)
     912:	8689                	c.srai	a3,0x2
     914:	00d402a3          	sb	a3,5(s0)
     918:	0fc77713          	andi	a4,a4,252
     91c:	1ce78c23          	sb	a4,472(a5)
     920:	1e878703          	lb	a4,488(a5)
     924:	0f077713          	andi	a4,a4,240
     928:	00876713          	ori	a4,a4,8
     92c:	1ee78423          	sb	a4,488(a5)
     930:	1e878703          	lb	a4,488(a5)
     934:	00045683          	lhu	a3,0(s0)
     938:	08f77713          	andi	a4,a4,143
     93c:	868d                	c.srai	a3,0x3
     93e:	00d40123          	sb	a3,2(s0)
     942:	02076713          	ori	a4,a4,32
     946:	1ee78423          	sb	a4,488(a5)
     94a:	0ff6f693          	andi	a3,a3,255
     94e:	00d401a3          	sb	a3,3(s0)
     952:	00d40223          	sb	a3,4(s0)
     956:	40b2                	c.lwsp	ra,12(sp)
     958:	4422                	c.lwsp	s0,8(sp)
     95a:	4492                	c.lwsp	s1,4(sp)
     95c:	0141                	c.addi	sp,16
     95e:	8082                	c.jr	ra

00000960 <pm_wait_bbpll_done>:
     960:	1101                	c.addi	sp,-32
     962:	08100513          	li	a0,129
     966:	cc22                	c.swsp	s0,24(sp)
     968:	ca26                	c.swsp	s1,20(sp)
     96a:	c84a                	c.swsp	s2,16(sp)
     96c:	ce06                	c.swsp	ra,28(sp)
     96e:	359d                	c.jal	7d4 <analog_read_reg8>
     970:	04056593          	ori	a1,a0,64
     974:	892a                	c.mv	s2,a0
     976:	0ff5f593          	andi	a1,a1,255
     97a:	08100513          	li	a0,129
     97e:	0bf97913          	andi	s2,s2,191
     982:	4481                	c.li	s1,0
     984:	4475                	c.li	s0,29
     986:	3529                	c.jal	790 <analog_write_reg8>
     988:	000107a3          	sb	zero,15(sp)
     98c:	00f10783          	lb	a5,15(sp)
     990:	0ff7f793          	andi	a5,a5,255
     994:	02f46063          	bltu	s0,a5,9b4 <pm_wait_bbpll_done+0x54>
     998:	0001                	c.nop
     99a:	00f10783          	lb	a5,15(sp)
     99e:	0785                	c.addi	a5,1
     9a0:	0ff7f793          	andi	a5,a5,255
     9a4:	00f107a3          	sb	a5,15(sp)
     9a8:	00f10783          	lb	a5,15(sp)
     9ac:	0ff7f793          	andi	a5,a5,255
     9b0:	fef474e3          	bgeu	s0,a5,998 <pm_wait_bbpll_done+0x38>
     9b4:	08800513          	li	a0,136
     9b8:	e1dff0ef          	jal	ra,7d4 <analog_read_reg8>
     9bc:	4255765b          	bbs	a0,5,9e8 <pm_wait_bbpll_done+0x88>
     9c0:	cc95                	c.beqz	s1,9fc <pm_wait_bbpll_done+0x9c>
     9c2:	0414d35b          	beqc	s1,1,a08 <pm_wait_bbpll_done+0xa8>
     9c6:	85ca                	c.mv	a1,s2
     9c8:	08100513          	li	a0,129
     9cc:	dc5ff0ef          	jal	ra,790 <analog_write_reg8>
     9d0:	0024d65b          	beqc	s1,2,9dc <pm_wait_bbpll_done+0x7c>
     9d4:	0485                	c.addi	s1,1
     9d6:	0ff4f493          	andi	s1,s1,255
     9da:	b77d                	c.j	988 <pm_wait_bbpll_done+0x28>
     9dc:	40f2                	c.lwsp	ra,28(sp)
     9de:	4462                	c.lwsp	s0,24(sp)
     9e0:	44d2                	c.lwsp	s1,20(sp)
     9e2:	4942                	c.lwsp	s2,16(sp)
     9e4:	6105                	c.addi16sp	sp,32
     9e6:	8082                	c.jr	ra
     9e8:	4462                	c.lwsp	s0,24(sp)
     9ea:	40f2                	c.lwsp	ra,28(sp)
     9ec:	44d2                	c.lwsp	s1,20(sp)
     9ee:	85ca                	c.mv	a1,s2
     9f0:	4942                	c.lwsp	s2,16(sp)
     9f2:	08100513          	li	a0,129
     9f6:	6105                	c.addi16sp	sp,32
     9f8:	d99ff06f          	j	790 <analog_write_reg8>
     9fc:	04600593          	li	a1,70
     a00:	4505                	c.li	a0,1
     a02:	3379                	c.jal	790 <analog_write_reg8>
     a04:	fd1ff06f          	j	9d4 <pm_wait_bbpll_done+0x74>
     a08:	04300593          	li	a1,67
     a0c:	4505                	c.li	a0,1
     a0e:	3349                	c.jal	790 <analog_write_reg8>
     a10:	fc5ff06f          	j	9d4 <pm_wait_bbpll_done+0x74>

00000a14 <pm_sleep_start>:
     a14:	1101                	c.addi	sp,-32
     a16:	2d06a72b          	lwgp	a4,45776 # 8bad0 <g_chip_version>
     a1a:	000006b7          	lui	a3,0x0
     a1e:	ce06                	c.swsp	ra,28(sp)
     a20:	cc22                	c.swsp	s0,24(sp)
     a22:	ca26                	c.swsp	s1,20(sp)
     a24:	0ff00793          	li	a5,255
     a28:	19a6c583          	lbu	a1,410(a3) # 19a <g_pm_suspend_power_cfg>
     a2c:	00f71a63          	bne	a4,a5,a40 <pm_sleep_start+0x2c>
     a30:	0fe5f593          	andi	a1,a1,254
     a34:	07d00513          	li	a0,125
     a38:	d59ff0ef          	jal	ra,790 <analog_write_reg8>
     a3c:	00c0006f          	j	a48 <pm_sleep_start+0x34>
     a40:	07d00513          	li	a0,125
     a44:	d4dff0ef          	jal	ra,790 <analog_write_reg8>
     a48:	801406b7          	lui	a3,0x80140
     a4c:	10268783          	lb	a5,258(a3) # 80140102 <_DATA_LMA_START+0x60134d22>
     a50:	fe07fe5b          	bbs	a5,0,a4c <pm_sleep_start+0x38>
     a54:	10168703          	lb	a4,257(a3)
     a58:	801407b7          	lui	a5,0x80140
     a5c:	0ff77713          	andi	a4,a4,255
     a60:	01076713          	ori	a4,a4,16
     a64:	10e680a3          	sb	a4,257(a3)
     a68:	32878703          	lb	a4,808(a5) # 80140328 <_DATA_LMA_START+0x60134f48>
     a6c:	be377e5b          	bbc	a4,3,a68 <pm_sleep_start+0x54>
     a70:	10178703          	lb	a4,257(a5)
     a74:	80140437          	lui	s0,0x80140
     a78:	0fd77713          	andi	a4,a4,253
     a7c:	10e780a3          	sb	a4,257(a5)
     a80:	10178703          	lb	a4,257(a5)
     a84:	0ef77713          	andi	a4,a4,239
     a88:	10e780a3          	sb	a4,257(a5)
     a8c:	fb900713          	li	a4,-71
     a90:	10e78023          	sb	a4,256(a5)
     a94:	10240783          	lb	a5,258(s0) # 80140102 <_DATA_LMA_START+0x60134d22>
     a98:	fe07fe5b          	bbs	a5,0,a94 <pm_sleep_start+0x80>
     a9c:	10140783          	lb	a5,257(s0)
     aa0:	452d                	c.li	a0,11
     aa2:	0ff7f793          	andi	a5,a5,255
     aa6:	0107e793          	ori	a5,a5,16
     aaa:	10f400a3          	sb	a5,257(s0)
     aae:	320404a3          	sb	zero,809(s0)
     ab2:	330d                	c.jal	7d4 <analog_read_reg8>
     ab4:	0fc57593          	andi	a1,a0,252
     ab8:	452d                	c.li	a0,11
     aba:	39d9                	c.jal	790 <analog_write_reg8>
     abc:	08100513          	li	a0,129
     ac0:	d15ff0ef          	jal	ra,7d4 <analog_read_reg8>
     ac4:	f8056593          	ori	a1,a0,-128
     ac8:	0ff5f593          	andi	a1,a1,255
     acc:	08100513          	li	a0,129
     ad0:	cc1ff0ef          	jal	ra,790 <analog_write_reg8>
     ad4:	f8000793          	li	a5,-128
     ad8:	1ef407a3          	sb	a5,495(s0)
     adc:	03f00493          	li	s1,63
     ae0:	00012423          	sw	zero,8(sp)
     ae4:	47a2                	c.lwsp	a5,8(sp)
     ae6:	00f4e763          	bltu	s1,a5,af4 <pm_sleep_start+0xe0>
     aea:	0001                	c.nop
     aec:	47a2                	c.lwsp	a5,8(sp)
     aee:	0785                	c.addi	a5,1
     af0:	c43e                	c.swsp	a5,8(sp)
     af2:	bfcd                	c.j	ae4 <pm_sleep_start+0xd0>
     af4:	08100513          	li	a0,129
     af8:	cddff0ef          	jal	ra,7d4 <analog_read_reg8>
     afc:	07f57593          	andi	a1,a0,127
     b00:	08100513          	li	a0,129
     b04:	c8dff0ef          	jal	ra,790 <analog_write_reg8>
     b08:	00b00513          	li	a0,11
     b0c:	cc9ff0ef          	jal	ra,7d4 <analog_read_reg8>
     b10:	00356593          	ori	a1,a0,3
     b14:	0ff5f593          	andi	a1,a1,255
     b18:	452d                	c.li	a0,11
     b1a:	399d                	c.jal	790 <analog_write_reg8>
     b1c:	08000593          	li	a1,128
     b20:	07d00513          	li	a0,125
     b24:	c6dff0ef          	jal	ra,790 <analog_write_reg8>
     b28:	801407b7          	lui	a5,0x80140
     b2c:	329784a3          	sb	s1,809(a5) # 80140329 <_DATA_LMA_START+0x60134f49>
     b30:	10178683          	lb	a3,257(a5)
     b34:	80140737          	lui	a4,0x80140
     b38:	0ef6f693          	andi	a3,a3,239
     b3c:	10d780a3          	sb	a3,257(a5)
     b40:	fab00693          	li	a3,-85
     b44:	10d78023          	sb	a3,256(a5)
     b48:	10270783          	lb	a5,258(a4) # 80140102 <_DATA_LMA_START+0x60134d22>
     b4c:	fe07fe5b          	bbs	a5,0,b48 <pm_sleep_start+0x134>
     b50:	10170783          	lb	a5,257(a4)
     b54:	12b00693          	li	a3,299
     b58:	0ff7f793          	andi	a5,a5,255
     b5c:	0107e793          	ori	a5,a5,16
     b60:	10f700a3          	sb	a5,257(a4)
     b64:	00012623          	sw	zero,12(sp)
     b68:	47b2                	c.lwsp	a5,12(sp)
     b6a:	00f6e763          	bltu	a3,a5,b78 <pm_sleep_start+0x164>
     b6e:	0001                	c.nop
     b70:	47b2                	c.lwsp	a5,12(sp)
     b72:	0785                	c.addi	a5,1
     b74:	c63e                	c.swsp	a5,12(sp)
     b76:	bfcd                	c.j	b68 <pm_sleep_start+0x154>
     b78:	08800513          	li	a0,136
     b7c:	c59ff0ef          	jal	ra,7d4 <analog_read_reg8>
     b80:	be757c5b          	bbc	a0,7,b78 <pm_sleep_start+0x164>
     b84:	08800513          	li	a0,136
     b88:	c4dff0ef          	jal	ra,7d4 <analog_read_reg8>
     b8c:	be757c5b          	bbc	a0,7,b84 <pm_sleep_start+0x170>
     b90:	08800513          	li	a0,136
     b94:	c41ff0ef          	jal	ra,7d4 <analog_read_reg8>
     b98:	be757c5b          	bbc	a0,7,b90 <pm_sleep_start+0x17c>
     b9c:	4462                	c.lwsp	s0,24(sp)
     b9e:	40f2                	c.lwsp	ra,28(sp)
     ba0:	44d2                	c.lwsp	s1,20(sp)
     ba2:	6105                	c.addi16sp	sp,32
     ba4:	dbdff06f          	j	960 <pm_wait_bbpll_done>

00000ba8 <dr_putchar>:
     ba8:	1101                	c.addi	sp,-32
     baa:	ca26                	c.swsp	s1,20(sp)
     bac:	cc22                	c.swsp	s0,24(sp)
     bae:	ce06                	c.swsp	ra,28(sp)
     bb0:	c84a                	c.swsp	s2,16(sp)
     bb2:	2486948b          	addigp	s1,45640 # 8ba48 <init_flag.5287>
     bb6:	842a                	c.mv	s0,a0
     bb8:	0004c783          	lbu	a5,0(s1)
     bbc:	0c17d25b          	beqc	a5,1,c80 <dr_putchar+0xd8>
     bc0:	801407b7          	lui	a5,0x80140
     bc4:	30378703          	lb	a4,771(a5) # 80140303 <_DATA_LMA_START+0x60134f23>
     bc8:	30378783          	lb	a5,771(a5)
     bcc:	0fe77713          	andi	a4,a4,254
     bd0:	0ff7f793          	andi	a5,a5,255
     bd4:	0017e793          	ori	a5,a5,1
     bd8:	00e10223          	sb	a4,4(sp)
     bdc:	86be                	c.mv	a3,a5
     bde:	4004735b          	bbs	s0,0,be4 <dr_putchar+0x3c>
     be2:	86ba                	c.mv	a3,a4
     be4:	00d102a3          	sb	a3,5(sp)
     be8:	86be                	c.mv	a3,a5
     bea:	4014735b          	bbs	s0,1,bf0 <dr_putchar+0x48>
     bee:	86ba                	c.mv	a3,a4
     bf0:	00d10323          	sb	a3,6(sp)
     bf4:	86be                	c.mv	a3,a5
     bf6:	4024735b          	bbs	s0,2,bfc <dr_putchar+0x54>
     bfa:	86ba                	c.mv	a3,a4
     bfc:	00d103a3          	sb	a3,7(sp)
     c00:	86be                	c.mv	a3,a5
     c02:	4034735b          	bbs	s0,3,c08 <dr_putchar+0x60>
     c06:	86ba                	c.mv	a3,a4
     c08:	00d10423          	sb	a3,8(sp)
     c0c:	86be                	c.mv	a3,a5
     c0e:	4044735b          	bbs	s0,4,c14 <dr_putchar+0x6c>
     c12:	86ba                	c.mv	a3,a4
     c14:	00d104a3          	sb	a3,9(sp)
     c18:	86be                	c.mv	a3,a5
     c1a:	4054735b          	bbs	s0,5,c20 <dr_putchar+0x78>
     c1e:	86ba                	c.mv	a3,a4
     c20:	00d10523          	sb	a3,10(sp)
     c24:	86be                	c.mv	a3,a5
     c26:	4064735b          	bbs	s0,6,c2c <dr_putchar+0x84>
     c2a:	86ba                	c.mv	a3,a4
     c2c:	00d105a3          	sb	a3,11(sp)
     c30:	801d                	c.srli	s0,0x7
     c32:	c019                	c.beqz	s0,c38 <dr_putchar+0x90>
     c34:	00f00733          	add	a4,zero,a5
     c38:	00f106a3          	sb	a5,13(sp)
     c3c:	801407b7          	lui	a5,0x80140
     c40:	00e10623          	sb	a4,12(sp)
     c44:	2007a603          	lw	a2,512(a5) # 80140200 <_DATA_LMA_START+0x60134e20>
     c48:	00410513          	addi	a0,sp,4
     c4c:	00e10813          	addi	a6,sp,14
     c50:	801406b7          	lui	a3,0x80140
     c54:	08900593          	li	a1,137
     c58:	2006a783          	lw	a5,512(a3) # 80140200 <_DATA_LMA_START+0x60134e20>
     c5c:	40c78733          	sub	a4,a5,a2
     c60:	fee5fce3          	bgeu	a1,a4,c58 <dr_putchar+0xb0>
     c64:	00054703          	lbu	a4,0(a0)
     c68:	0505                	c.addi	a0,1
     c6a:	30e681a3          	sb	a4,771(a3)
     c6e:	863e                	c.mv	a2,a5
     c70:	ff0514e3          	bne	a0,a6,c58 <dr_putchar+0xb0>
     c74:	40f2                	c.lwsp	ra,28(sp)
     c76:	4462                	c.lwsp	s0,24(sp)
     c78:	44d2                	c.lwsp	s1,20(sp)
     c7a:	4942                	c.lwsp	s2,16(sp)
     c7c:	6105                	c.addi16sp	sp,32
     c7e:	8082                	c.jr	ra
     c80:	80140937          	lui	s2,0x80140
     c84:	30690783          	lb	a5,774(s2) # 80140306 <_DATA_LMA_START+0x60134f26>
     c88:	4539                	c.li	a0,14
     c8a:	0ff7f793          	andi	a5,a5,255
     c8e:	0017e793          	ori	a5,a5,1
     c92:	30f90323          	sb	a5,774(s2)
     c96:	3e3d                	c.jal	7d4 <analog_read_reg8>
     c98:	0fc57593          	andi	a1,a0,252
     c9c:	0015e593          	ori	a1,a1,1
     ca0:	4539                	c.li	a0,14
     ca2:	34fd                	c.jal	790 <analog_write_reg8>
     ca4:	30290783          	lb	a5,770(s2)
     ca8:	0fe7f793          	andi	a5,a5,254
     cac:	30f90123          	sb	a5,770(s2)
     cb0:	30390783          	lb	a5,771(s2)
     cb4:	0ff7f793          	andi	a5,a5,255
     cb8:	0017e793          	ori	a5,a5,1
     cbc:	30f901a3          	sb	a5,771(s2)
     cc0:	00048023          	sb	zero,0(s1)
     cc4:	efdff06f          	j	bc0 <dr_putchar+0x18>

00000cc8 <pm_sleep_wakeup_ram.constprop.3>:
     cc8:	1101                	c.addi	sp,-32
     cca:	c452                	c.swsp	s4,8(sp)
     ccc:	8a2a                	c.mv	s4,a0
     cce:	ce06                	c.swsp	ra,28(sp)
     cd0:	cc22                	c.swsp	s0,24(sp)
     cd2:	ca26                	c.swsp	s1,20(sp)
     cd4:	c84a                	c.swsp	s2,16(sp)
     cd6:	c64e                	c.swsp	s3,12(sp)
     cd8:	c256                	c.swsp	s5,4(sp)
     cda:	c05a                	c.swsp	s6,0(sp)
     cdc:	300029f3          	csrr	s3,mstatus
     ce0:	0089f993          	andi	s3,s3,8
     ce4:	00098663          	beqz	s3,cf0 <pm_sleep_wakeup_ram.constprop.3+0x28>
     ce8:	300477f3          	csrrci	a5,mstatus,8
     cec:	0ff0000f          	fence
     cf0:	801407b7          	lui	a5,0x80140
     cf4:	2147a683          	lw	a3,532(a5) # 80140214 <_DATA_LMA_START+0x60134e34>
     cf8:	def5                	c.beqz	a3,cf4 <pm_sleep_wakeup_ram.constprop.3+0x2c>
     cfa:	00000437          	lui	s0,0x0
     cfe:	15840693          	addi	a3,s0,344 # 158 <_AES_VMA_END>
     d02:	2147a783          	lw	a5,532(a5)
     d06:	4ed8                	c.lw	a4,28(a3)
     d08:	d6dc                	c.sw	a5,44(a3)
     d0a:	15840413          	addi	s0,s0,344
     d0e:	0792                	c.slli	a5,0x4
     d10:	cb11                	c.beqz	a4,d24 <pm_sleep_wakeup_ram.constprop.3+0x5c>
     d12:	03044603          	lbu	a2,48(s0)
     d16:	4691                	c.li	a3,4
     d18:	8f99                	c.sub	a5,a4
     d1a:	8e91                	c.sub	a3,a2
     d1c:	40d7d7b3          	sra	a5,a5,a3
     d20:	00e787b3          	add	a5,a5,a4
     d24:	4818                	c.lw	a4,16(s0)
     d26:	4047d493          	srai	s1,a5,0x4
     d2a:	02e48733          	mul	a4,s1,a4
     d2e:	80140937          	lui	s2,0x80140
     d32:	20092a83          	lw	s5,512(s2) # 80140200 <_DATA_LMA_START+0x60134e20>
     d36:	cc5c                	c.sw	a5,28(s0)
     d38:	415a0ab3          	sub	s5,s4,s5
     d3c:	e00006b7          	lui	a3,0xe0000
     d40:	41275793          	srai	a5,a4,0x12
     d44:	94be                	c.add	s1,a5
     d46:	0486                	c.slli	s1,0x1
     d48:	02942a23          	sw	s1,52(s0)
     d4c:	0356f063          	bgeu	a3,s5,d6c <pm_sleep_wakeup_ram.constprop.3+0xa4>
     d50:	00098663          	beqz	s3,d5c <pm_sleep_wakeup_ram.constprop.3+0x94>
     d54:	3009a9f3          	csrrs	s3,mstatus,s3
     d58:	0ff0000f          	fence
     d5c:	06400513          	li	a0,100
     d60:	a75ff0ef          	jal	ra,7d4 <analog_read_reg8>
     d64:	01f57513          	andi	a0,a0,31
     d68:	2580006f          	j	fc0 <pm_sleep_wakeup_ram.constprop.3+0x2f8>
     d6c:	04a41783          	lh	a5,74(s0)
     d70:	1137a7db          	bfoz	a5,a5,4,19
     d74:	02fafe63          	bgeu	s5,a5,db0 <pm_sleep_wakeup_ram.constprop.3+0xe8>
     d78:	45fd                	c.li	a1,31
     d7a:	06400513          	li	a0,100
     d7e:	801404b7          	lui	s1,0x80140
     d82:	20092403          	lw	s0,512(s2)
     d86:	3429                	c.jal	790 <analog_write_reg8>
     d88:	06400513          	li	a0,100
     d8c:	a49ff0ef          	jal	ra,7d4 <analog_read_reg8>
     d90:	2004a783          	lw	a5,512(s1) # 80140200 <_DATA_LMA_START+0x60134e20>
     d94:	897d                	c.andi	a0,31
     d96:	8f81                	c.sub	a5,s0
     d98:	0157f463          	bgeu	a5,s5,da0 <pm_sleep_wakeup_ram.constprop.3+0xd8>
     d9c:	fe0506e3          	beqz	a0,d88 <pm_sleep_wakeup_ram.constprop.3+0xc0>
     da0:	22098063          	beqz	s3,fc0 <pm_sleep_wakeup_ram.constprop.3+0x2f8>
     da4:	3009a9f3          	csrrs	s3,mstatus,s3
     da8:	0ff0000f          	fence
     dac:	2140006f          	j	fc0 <pm_sleep_wakeup_ram.constprop.3+0x2f8>
     db0:	1e890a83          	lb	s5,488(s2)
     db4:	00faf793          	andi	a5,s5,15
     db8:	1ef90423          	sb	a5,488(s2)
     dbc:	1d890b03          	lb	s6,472(s2)
     dc0:	0f8b7793          	andi	a5,s6,248
     dc4:	1cf90c23          	sb	a5,472(s2)
     dc8:	00100793          	li	a5,1
     dcc:	20f90c23          	sb	a5,536(s2)
     dd0:	20a90783          	lb	a5,522(s2)
     dd4:	0f77f793          	andi	a5,a5,247
     dd8:	20f90523          	sb	a5,522(s2)
     ddc:	d7cff0ef          	jal	ra,358 <clock_get_32k_tick>
     de0:	20092703          	lw	a4,512(s2)
     de4:	20b90783          	lb	a5,523(s2)
     de8:	5054                	c.lw	a3,36(s0)
     dea:	0ff7f793          	andi	a5,a5,255
     dee:	0027e793          	ori	a5,a5,2
     df2:	c468                	c.sw	a0,76(s0)
     df4:	dc18                	c.sw	a4,56(s0)
     df6:	03044603          	lbu	a2,48(s0)
     dfa:	40d506b3          	sub	a3,a0,a3
     dfe:	20f905a3          	sb	a5,523(s2)
     e02:	d414                	c.sw	a3,40(s0)
     e04:	e215                	c.bnez	a2,e28 <pm_sleep_wakeup_ram.constprop.3+0x160>
     e06:	441c                	c.lw	a5,8(s0)
     e08:	c385                	c.beqz	a5,e28 <pm_sleep_wakeup_ram.constprop.3+0x160>
     e0a:	05044783          	lbu	a5,80(s0)
     e0e:	ef89                	c.bnez	a5,e28 <pm_sleep_wakeup_ram.constprop.3+0x160>
     e10:	00c42783          	lw	a5,12(s0)
     e14:	000276b7          	lui	a3,0x27
     e18:	40f507b3          	sub	a5,a0,a5
     e1c:	6c07a7db          	bfoz	a5,a5,27,0
     e20:	10068693          	addi	a3,a3,256 # 27100 <BIN_SIZE+0x10246>
     e24:	00f6f863          	bgeu	a3,a5,e34 <pm_sleep_wakeup_ram.constprop.3+0x16c>
     e28:	00176713          	ori	a4,a4,1
     e2c:	02040823          	sb	zero,48(s0)
     e30:	c448                	c.sw	a0,12(s0)
     e32:	c418                	c.sw	a4,8(s0)
     e34:	02000593          	li	a1,32
     e38:	04b00513          	li	a0,75
     e3c:	955ff0ef          	jal	ra,790 <analog_write_reg8>
     e40:	45fd                	c.li	a1,31
     e42:	06400513          	li	a0,100
     e46:	32a9                	c.jal	790 <analog_write_reg8>
     e48:	03000593          	li	a1,48
     e4c:	07e00513          	li	a0,126
     e50:	941ff0ef          	jal	ra,790 <analog_write_reg8>
     e54:	0f900593          	li	a1,249
     e58:	04d00513          	li	a0,77
     e5c:	935ff0ef          	jal	ra,790 <analog_write_reg8>
     e60:	4585                	c.li	a1,1
     e62:	07f00513          	li	a0,127
     e66:	322d                	c.jal	790 <analog_write_reg8>
     e68:	04841783          	lh	a5,72(s0)
     e6c:	0ee00593          	li	a1,238
     e70:	1137a7db          	bfoz	a5,a5,4,19
     e74:	04c00513          	li	a0,76
     e78:	40fa0933          	sub	s2,s4,a5
     e7c:	915ff0ef          	jal	ra,790 <analog_write_reg8>
     e80:	05441583          	lh	a1,84(s0)
     e84:	04000513          	li	a0,64
     e88:	0ff5f593          	andi	a1,a1,255
     e8c:	905ff0ef          	jal	ra,790 <analog_write_reg8>
     e90:	441c                	c.lw	a5,8(s0)
     e92:	07ff06b7          	lui	a3,0x7ff0
     e96:	40f907b3          	sub	a5,s2,a5
     e9a:	00168713          	addi	a4,a3,1 # 7ff0001 <FLASH_SIZE+0x7ef0001>
     e9e:	00e7b733          	sltu	a4,a5,a4
     ea2:	00174713          	xori	a4,a4,1
     ea6:	00e40223          	sb	a4,4(s0)
     eaa:	00f6f963          	bgeu	a3,a5,ebc <pm_sleep_wakeup_ram.constprop.3+0x1f4>
     eae:	5858                	c.lw	a4,52(s0)
     eb0:	4448                	c.lw	a0,12(s0)
     eb2:	02e7d7b3          	divu	a5,a5,a4
     eb6:	0796                	c.slli	a5,0x5
     eb8:	953e                	c.add	a0,a5
     eba:	a809                	c.j	ecc <pm_sleep_wakeup_ram.constprop.3+0x204>
     ebc:	5848                	c.lw	a0,52(s0)
     ebe:	8085                	c.srli	s1,0x1
     ec0:	0796                	c.slli	a5,0x5
     ec2:	97a6                	c.add	a5,s1
     ec4:	02a7d7b3          	divu	a5,a5,a0
     ec8:	4448                	c.lw	a0,12(s0)
     eca:	953e                	c.add	a0,a5
     ecc:	be0ff0ef          	jal	ra,2ac <clock_set_32k_tick>
     ed0:	06400513          	li	a0,100
     ed4:	901ff0ef          	jal	ra,7d4 <analog_read_reg8>
     ed8:	01f57513          	andi	a0,a0,31
     edc:	e901                	c.bnez	a0,eec <pm_sleep_wakeup_ram.constprop.3+0x224>
     ede:	3e1d                	c.jal	a14 <pm_sleep_start>
     ee0:	00100593          	li	a1,1
     ee4:	07f00513          	li	a0,127
     ee8:	8a9ff0ef          	jal	ra,790 <analog_write_reg8>
     eec:	80140737          	lui	a4,0x80140
     ef0:	02000793          	li	a5,32
     ef4:	1ef707a3          	sb	a5,495(a4) # 801401ef <_DATA_LMA_START+0x60134e0f>
     ef8:	00200793          	li	a5,2
     efc:	20f70c23          	sb	a5,536(a4)
     f00:	20a70783          	lb	a5,522(a4)
     f04:	0ff7f793          	andi	a5,a5,255
     f08:	00c7e793          	ori	a5,a5,12
     f0c:	20f70523          	sb	a5,522(a4)
     f10:	c48ff0ef          	jal	ra,358 <clock_get_32k_tick>
     f14:	00444783          	lbu	a5,4(s0)
     f18:	cf81                	c.beqz	a5,f30 <pm_sleep_wakeup_ram.constprop.3+0x268>
     f1a:	4458                	c.lw	a4,12(s0)
     f1c:	5854                	c.lw	a3,52(s0)
     f1e:	40e50733          	sub	a4,a0,a4
     f22:	441c                	c.lw	a5,8(s0)
     f24:	0705                	c.addi	a4,1
     f26:	8315                	c.srli	a4,0x5
     f28:	c4d717ff          	maddr32	a5,a4,a3
     f2c:	0180006f          	j	f44 <pm_sleep_wakeup_ram.constprop.3+0x27c>
     f30:	445c                	c.lw	a5,12(s0)
     f32:	5858                	c.lw	a4,52(s0)
     f34:	40f507b3          	sub	a5,a0,a5
     f38:	0785                	c.addi	a5,1
     f3a:	02e787b3          	mul	a5,a5,a4
     f3e:	4418                	c.lw	a4,8(s0)
     f40:	8395                	c.srli	a5,0x5
     f42:	97ba                	c.add	a5,a4
     f44:	4458                	c.lw	a4,12(s0)
     f46:	00150613          	addi	a2,a0,1
     f4a:	8d19                	c.sub	a0,a4
     f4c:	0505                	c.addi	a0,1
     f4e:	00178693          	addi	a3,a5,1
     f52:	dc1c                	c.sw	a5,56(s0)
     f54:	d050                	c.sw	a2,36(s0)
     f56:	d008                	c.sw	a0,32(s0)
     f58:	801407b7          	lui	a5,0x80140
     f5c:	80140737          	lui	a4,0x80140
     f60:	20d7a023          	sw	a3,512(a5) # 80140200 <_DATA_LMA_START+0x60134e20>
     f64:	20b70783          	lb	a5,523(a4) # 8014020b <_DATA_LMA_START+0x60134e2b>
     f68:	be77fe5b          	bbc	a5,7,f64 <pm_sleep_wakeup_ram.constprop.3+0x29c>
     f6c:	20070c23          	sb	zero,536(a4)
     f70:	1d670c23          	sb	s6,472(a4)
     f74:	06400513          	li	a0,100
     f78:	1f570423          	sb	s5,488(a4)
     f7c:	859ff0ef          	jal	ra,7d4 <analog_read_reg8>
     f80:	2d46970b          	addigp	a4,45780 # 8bad4 <g_pm_status_info>
     f84:	00a700a3          	sb	a0,1(a4)
     f88:	2d46978b          	addigp	a5,45780 # 8bad4 <g_pm_status_info>
     f8c:	00157c5b          	bbc	a0,1,fa4 <pm_sleep_wakeup_ram.constprop.3+0x2dc>
     f90:	80140637          	lui	a2,0x80140
     f94:	400006b7          	lui	a3,0x40000
     f98:	20062703          	lw	a4,512(a2) # 80140200 <_DATA_LMA_START+0x60134e20>
     f9c:	41470733          	sub	a4,a4,s4
     fa0:	fee6ece3          	bltu	a3,a4,f98 <pm_sleep_wakeup_ram.constprop.3+0x2d0>
     fa4:	00098663          	beqz	s3,fb0 <pm_sleep_wakeup_ram.constprop.3+0x2e8>
     fa8:	3009a9f3          	csrrs	s3,mstatus,s3
     fac:	0ff0000f          	fence
     fb0:	0017c783          	lbu	a5,1(a5)
     fb4:	10000513          	li	a0,256
     fb8:	c781                	c.beqz	a5,fc0 <pm_sleep_wakeup_ram.constprop.3+0x2f8>
     fba:	40000537          	lui	a0,0x40000
     fbe:	8d5d                	c.or	a0,a5
     fc0:	40f2                	c.lwsp	ra,28(sp)
     fc2:	4462                	c.lwsp	s0,24(sp)
     fc4:	44d2                	c.lwsp	s1,20(sp)
     fc6:	4942                	c.lwsp	s2,16(sp)
     fc8:	49b2                	c.lwsp	s3,12(sp)
     fca:	4a22                	c.lwsp	s4,8(sp)
     fcc:	4a92                	c.lwsp	s5,4(sp)
     fce:	4b02                	c.lwsp	s6,0(sp)
     fd0:	6105                	c.addi16sp	sp,32
     fd2:	8082                	c.jr	ra

00000fd4 <trap_entry>:
     fd4:	1101                	c.addi	sp,-32
     fd6:	ce2a                	c.swsp	a0,28(sp)
     fd8:	cc2e                	c.swsp	a1,24(sp)
     fda:	ca32                	c.swsp	a2,20(sp)
     fdc:	c836                	c.swsp	a3,16(sp)
     fde:	c63a                	c.swsp	a4,12(sp)
     fe0:	c43e                	c.swsp	a5,8(sp)
     fe2:	34202773          	csrr	a4,mcause
     fe6:	000007b7          	lui	a5,0x0
     fea:	15878793          	addi	a5,a5,344 # 158 <_AES_VMA_END>
     fee:	03c78683          	lb	a3,60(a5)
     ff2:	0ff6f693          	andi	a3,a3,255
     ff6:	c2dd                	c.beqz	a3,109c <trap_entry+0xc8>
     ff8:	34102673          	csrr	a2,mepc
     ffc:	300025f3          	csrr	a1,mstatus
    1000:	7c4026f3          	csrr	a3,mxstatus
    1004:	02074a63          	bltz	a4,1038 <trap_entry+0x64>
    1008:	34302773          	csrr	a4,mtval
    100c:	2ce6c62b          	swgp	a4,45772 # 8bacc <exception_mtval>
    1010:	34102773          	csrr	a4,mepc
    1014:	2ce6c22b          	swgp	a4,45764 # 8bac4 <exception_mepc>
    1018:	30002773          	csrr	a4,mstatus
    101c:	2ce6c42b          	swgp	a4,45768 # 8bac8 <exception_mstatus>
    1020:	34202773          	csrr	a4,mcause
    1024:	2ae6ce2b          	swgp	a4,45756 # 8babc <exception_mcause>
    1028:	7c902773          	csrr	a4,mdcause
    102c:	2ce6c02b          	swgp	a4,45760 # 8bac0 <exception_mdcause>
    1030:	0001                	c.nop
    1032:	0001                	c.nop
    1034:	ffdff06f          	j	1030 <trap_entry+0x5c>
    1038:	7807275b          	bfoz	a4,a4,30,0
    103c:	0677545b          	beqc	a4,7,10a4 <trap_entry+0xd0>
    1040:	bc37645b          	bnec	a4,3,1008 <trap_entry+0x34>
    1044:	e6600737          	lui	a4,0xe6600
    1048:	4358                	c.lw	a4,4(a4)
    104a:	03c78703          	lb	a4,60(a5)
    104e:	0ff77713          	andi	a4,a4,255
    1052:	c319                	c.beqz	a4,1058 <trap_entry+0x84>
    1054:	30046773          	csrrsi	a4,mstatus,8
    1058:	03c78703          	lb	a4,60(a5)
    105c:	0ff77713          	andi	a4,a4,255
    1060:	00070463          	beqz	a4,1068 <trap_entry+0x94>
    1064:	30047773          	csrrci	a4,mstatus,8
    1068:	e6600737          	lui	a4,0xe6600
    106c:	4505                	c.li	a0,1
    106e:	c348                	c.sw	a0,4(a4)
    1070:	03c78783          	lb	a5,60(a5)
    1074:	0ff7f793          	andi	a5,a5,255
    1078:	00078863          	beqz	a5,1088 <trap_entry+0xb4>
    107c:	30059073          	csrw	mstatus,a1
    1080:	34161073          	csrw	mepc,a2
    1084:	7c469073          	csrw	mxstatus,a3
    1088:	4572                	c.lwsp	a0,28(sp)
    108a:	45e2                	c.lwsp	a1,24(sp)
    108c:	4652                	c.lwsp	a2,20(sp)
    108e:	46c2                	c.lwsp	a3,16(sp)
    1090:	4732                	c.lwsp	a4,12(sp)
    1092:	47a2                	c.lwsp	a5,8(sp)
    1094:	02010113          	addi	sp,sp,32
    1098:	30200073          	mret
    109c:	4681                	c.li	a3,0
    109e:	4581                	c.li	a1,0
    10a0:	4601                	c.li	a2,0
    10a2:	b78d                	c.j	1004 <trap_entry+0x30>
    10a4:	03c78703          	lb	a4,60(a5)
    10a8:	0ff77713          	andi	a4,a4,255
    10ac:	00070863          	beqz	a4,10bc <trap_entry+0xe8>
    10b0:	08000713          	li	a4,128
    10b4:	30473773          	csrrc	a4,mie,a4
    10b8:	30046773          	csrrsi	a4,mstatus,8
    10bc:	03c78703          	lb	a4,60(a5)
    10c0:	0ff77713          	andi	a4,a4,255
    10c4:	d755                	c.beqz	a4,1070 <trap_entry+0x9c>
    10c6:	30047773          	csrrci	a4,mstatus,8
    10ca:	08000713          	li	a4,128
    10ce:	30472773          	csrrs	a4,mie,a4
    10d2:	bf79                	c.j	1070 <trap_entry+0x9c>
    10d4:	0001                	c.nop
	...

00001100 <__vectors>:
    1100:	0fd4                	c.addi4spn	a3,sp,980
    1102:	0000                	unimp
    1104:	2fb8                	c.fld	fa4,88(a5)
    1106:	0000                	unimp
    1108:	2fb8                	c.fld	fa4,88(a5)
    110a:	0000                	unimp
    110c:	2fb8                	c.fld	fa4,88(a5)
    110e:	0000                	unimp
    1110:	2fb8                	c.fld	fa4,88(a5)
    1112:	0000                	unimp
    1114:	2fb8                	c.fld	fa4,88(a5)
    1116:	0000                	unimp
    1118:	2fb8                	c.fld	fa4,88(a5)
    111a:	0000                	unimp
    111c:	2fb8                	c.fld	fa4,88(a5)
    111e:	0000                	unimp
    1120:	2fb8                	c.fld	fa4,88(a5)
    1122:	0000                	unimp
    1124:	2fb8                	c.fld	fa4,88(a5)
    1126:	0000                	unimp
    1128:	2fb8                	c.fld	fa4,88(a5)
    112a:	0000                	unimp
    112c:	2fb8                	c.fld	fa4,88(a5)
    112e:	0000                	unimp
    1130:	2fb8                	c.fld	fa4,88(a5)
    1132:	0000                	unimp
    1134:	2fb8                	c.fld	fa4,88(a5)
    1136:	0000                	unimp
    1138:	2fb8                	c.fld	fa4,88(a5)
    113a:	0000                	unimp
    113c:	2fb8                	c.fld	fa4,88(a5)
    113e:	0000                	unimp
    1140:	2fb8                	c.fld	fa4,88(a5)
    1142:	0000                	unimp
    1144:	2fb8                	c.fld	fa4,88(a5)
    1146:	0000                	unimp
    1148:	2fb8                	c.fld	fa4,88(a5)
    114a:	0000                	unimp
    114c:	2fb8                	c.fld	fa4,88(a5)
    114e:	0000                	unimp
    1150:	2fb8                	c.fld	fa4,88(a5)
    1152:	0000                	unimp
    1154:	2fb8                	c.fld	fa4,88(a5)
    1156:	0000                	unimp
    1158:	2fb8                	c.fld	fa4,88(a5)
    115a:	0000                	unimp
    115c:	2fb8                	c.fld	fa4,88(a5)
    115e:	0000                	unimp
    1160:	2fb8                	c.fld	fa4,88(a5)
    1162:	0000                	unimp
    1164:	2fb8                	c.fld	fa4,88(a5)
    1166:	0000                	unimp
    1168:	2fb8                	c.fld	fa4,88(a5)
    116a:	0000                	unimp
    116c:	2fb8                	c.fld	fa4,88(a5)
    116e:	0000                	unimp
    1170:	2fb8                	c.fld	fa4,88(a5)
    1172:	0000                	unimp
    1174:	2fb8                	c.fld	fa4,88(a5)
    1176:	0000                	unimp
    1178:	2fb8                	c.fld	fa4,88(a5)
    117a:	0000                	unimp
    117c:	2fb8                	c.fld	fa4,88(a5)
    117e:	0000                	unimp
    1180:	2fb8                	c.fld	fa4,88(a5)
    1182:	0000                	unimp
    1184:	2fb8                	c.fld	fa4,88(a5)
    1186:	0000                	unimp
    1188:	2fb8                	c.fld	fa4,88(a5)
    118a:	0000                	unimp
    118c:	2fb8                	c.fld	fa4,88(a5)
    118e:	0000                	unimp
    1190:	2fb8                	c.fld	fa4,88(a5)
    1192:	0000                	unimp
    1194:	2fb8                	c.fld	fa4,88(a5)
    1196:	0000                	unimp
    1198:	2fb8                	c.fld	fa4,88(a5)
    119a:	0000                	unimp
    119c:	2fb8                	c.fld	fa4,88(a5)
    119e:	0000                	unimp
    11a0:	2fb8                	c.fld	fa4,88(a5)
    11a2:	0000                	unimp
    11a4:	2fb8                	c.fld	fa4,88(a5)
    11a6:	0000                	unimp
    11a8:	2fb8                	c.fld	fa4,88(a5)
    11aa:	0000                	unimp
    11ac:	2fb8                	c.fld	fa4,88(a5)
    11ae:	0000                	unimp
    11b0:	2fb8                	c.fld	fa4,88(a5)
    11b2:	0000                	unimp
    11b4:	2fb8                	c.fld	fa4,88(a5)
    11b6:	0000                	unimp
    11b8:	2fb8                	c.fld	fa4,88(a5)
    11ba:	0000                	unimp
    11bc:	2fb8                	c.fld	fa4,88(a5)
    11be:	0000                	unimp
    11c0:	2fb8                	c.fld	fa4,88(a5)
    11c2:	0000                	unimp
    11c4:	2fb8                	c.fld	fa4,88(a5)
    11c6:	0000                	unimp
    11c8:	2fb8                	c.fld	fa4,88(a5)
    11ca:	0000                	unimp
    11cc:	2fb8                	c.fld	fa4,88(a5)
    11ce:	0000                	unimp
    11d0:	2fb8                	c.fld	fa4,88(a5)
    11d2:	0000                	unimp
    11d4:	2fb8                	c.fld	fa4,88(a5)
    11d6:	0000                	unimp
    11d8:	2fb8                	c.fld	fa4,88(a5)
    11da:	0000                	unimp
    11dc:	2fb8                	c.fld	fa4,88(a5)
    11de:	0000                	unimp
    11e0:	2fb8                	c.fld	fa4,88(a5)
    11e2:	0000                	unimp
    11e4:	2fb8                	c.fld	fa4,88(a5)
    11e6:	0000                	unimp
    11e8:	2fb8                	c.fld	fa4,88(a5)
    11ea:	0000                	unimp
    11ec:	2fb8                	c.fld	fa4,88(a5)
    11ee:	0000                	unimp
    11f0:	2fb8                	c.fld	fa4,88(a5)
    11f2:	0000                	unimp
    11f4:	2fb8                	c.fld	fa4,88(a5)
    11f6:	0000                	unimp
    11f8:	2fb8                	c.fld	fa4,88(a5)
    11fa:	0000                	unimp
    11fc:	2fb8                	c.fld	fa4,88(a5)
    11fe:	0000                	unimp
    1200:	0001                	c.nop
	...

00001204 <flash_read_uid.constprop.6>:
    1204:	1141                	c.addi	sp,-16
    1206:	c606                	c.swsp	ra,12(sp)
    1208:	872a                	c.mv	a4,a0
    120a:	7d047073          	csrci	mmisc_ctl,8
    120e:	47c1                	c.li	a5,16
    1210:	4691                	c.li	a3,4
    1212:	4601                	c.li	a2,0
    1214:	00000593          	li	a1,0
    1218:	04b00513          	li	a0,75
    121c:	aa8ff0ef          	jal	ra,4c4 <flash_mspi_read_ram>
    1220:	7d046073          	csrsi	mmisc_ctl,8
    1224:	40b2                	c.lwsp	ra,12(sp)
    1226:	0141                	c.addi	sp,16
    1228:	00008067          	ret

0000122c <flash_read_mid>:
    122c:	1101                	c.addi	sp,-32
    122e:	ce06                	c.swsp	ra,28(sp)
    1230:	c602                	c.swsp	zero,12(sp)
    1232:	7d047073          	csrci	mmisc_ctl,8
    1236:	478d                	c.li	a5,3
    1238:	0078                	c.addi4spn	a4,sp,12
    123a:	4681                	c.li	a3,0
    123c:	4601                	c.li	a2,0
    123e:	4581                	c.li	a1,0
    1240:	09f00513          	li	a0,159
    1244:	a80ff0ef          	jal	ra,4c4 <flash_mspi_read_ram>
    1248:	7d046073          	csrsi	mmisc_ctl,8
    124c:	40f2                	c.lwsp	ra,28(sp)
    124e:	4532                	c.lwsp	a0,12(sp)
    1250:	6105                	c.addi16sp	sp,32
    1252:	8082                	c.jr	ra

00001254 <flash_read_mid_uid_with_check>:
    1254:	82df978b          	addigp	a5,-2004 # 8002c <_DATA_VMA_START+0x2c>
    1258:	4798                	c.lw	a4,8(a5)
    125a:	4390                	c.lw	a2,0(a5)
    125c:	43d4                	c.lw	a3,4(a5)
    125e:	47dc                	c.lw	a5,12(a5)
    1260:	1101                	c.addi	sp,-32
    1262:	cc22                	c.swsp	s0,24(sp)
    1264:	ca26                	c.swsp	s1,20(sp)
    1266:	842a                	c.mv	s0,a0
    1268:	c43a                	c.swsp	a4,8(sp)
    126a:	c63e                	c.swsp	a5,12(sp)
    126c:	ce06                	c.swsp	ra,28(sp)
    126e:	84ae                	c.mv	s1,a1
    1270:	c032                	c.swsp	a2,0(sp)
    1272:	c236                	c.swsp	a3,4(sp)
    1274:	fb9ff0ef          	jal	ra,122c <flash_read_mid>
    1278:	77c1                	c.lui	a5,0xffff0
    127a:	17fd                	c.addi	a5,-1
    127c:	00146737          	lui	a4,0x146
    1280:	c008                	c.sw	a0,0(s0)
    1282:	8fe9                	c.and	a5,a0
    1284:	08570713          	addi	a4,a4,133 # 146085 <FLASH_SIZE+0x46085>
    1288:	02e78063          	beq	a5,a4,12a8 <flash_read_mid_uid_with_check+0x54>
    128c:	00166737          	lui	a4,0x166
    1290:	08570713          	addi	a4,a4,133 # 166085 <FLASH_SIZE+0x66085>
    1294:	4781                	c.li	a5,0
    1296:	00e50963          	beq	a0,a4,12a8 <flash_read_mid_uid_with_check+0x54>
    129a:	40f2                	c.lwsp	ra,28(sp)
    129c:	4462                	c.lwsp	s0,24(sp)
    129e:	44d2                	c.lwsp	s1,20(sp)
    12a0:	853e                	c.mv	a0,a5
    12a2:	6105                	c.addi16sp	sp,32
    12a4:	00008067          	ret
    12a8:	8526                	c.mv	a0,s1
    12aa:	3fa9                	c.jal	1204 <flash_read_uid.constprop.6>
    12ac:	0004c783          	lbu	a5,0(s1)
    12b0:	00014603          	lbu	a2,0(sp)
    12b4:	0014c683          	lbu	a3,1(s1)
    12b8:	00114703          	lbu	a4,1(sp)
    12bc:	8f91                	c.sub	a5,a2
    12be:	0017b793          	seqz	a5,a5
    12c2:	00e69363          	bne	a3,a4,12c8 <flash_read_mid_uid_with_check+0x74>
    12c6:	0785                	c.addi	a5,1
    12c8:	0024c683          	lbu	a3,2(s1)
    12cc:	00214703          	lbu	a4,2(sp)
    12d0:	00e69463          	bne	a3,a4,12d8 <flash_read_mid_uid_with_check+0x84>
    12d4:	00178793          	addi	a5,a5,1 # ffff0001 <_DATA_LMA_START+0xdffe4c21>
    12d8:	0034c683          	lbu	a3,3(s1)
    12dc:	00314703          	lbu	a4,3(sp)
    12e0:	00e69463          	bne	a3,a4,12e8 <flash_read_mid_uid_with_check+0x94>
    12e4:	00178793          	addi	a5,a5,1
    12e8:	0044c683          	lbu	a3,4(s1)
    12ec:	00414703          	lbu	a4,4(sp)
    12f0:	00e69463          	bne	a3,a4,12f8 <flash_read_mid_uid_with_check+0xa4>
    12f4:	00178793          	addi	a5,a5,1
    12f8:	0054c683          	lbu	a3,5(s1)
    12fc:	00514703          	lbu	a4,5(sp)
    1300:	00e69463          	bne	a3,a4,1308 <flash_read_mid_uid_with_check+0xb4>
    1304:	00178793          	addi	a5,a5,1
    1308:	0064c683          	lbu	a3,6(s1)
    130c:	00614703          	lbu	a4,6(sp)
    1310:	00e69463          	bne	a3,a4,1318 <flash_read_mid_uid_with_check+0xc4>
    1314:	00178793          	addi	a5,a5,1
    1318:	0074c683          	lbu	a3,7(s1)
    131c:	00714703          	lbu	a4,7(sp)
    1320:	00e69463          	bne	a3,a4,1328 <flash_read_mid_uid_with_check+0xd4>
    1324:	00178793          	addi	a5,a5,1
    1328:	0084c683          	lbu	a3,8(s1)
    132c:	00814703          	lbu	a4,8(sp)
    1330:	00e69463          	bne	a3,a4,1338 <flash_read_mid_uid_with_check+0xe4>
    1334:	00178793          	addi	a5,a5,1
    1338:	0094c683          	lbu	a3,9(s1)
    133c:	00914703          	lbu	a4,9(sp)
    1340:	00e69463          	bne	a3,a4,1348 <flash_read_mid_uid_with_check+0xf4>
    1344:	00178793          	addi	a5,a5,1
    1348:	00a4c683          	lbu	a3,10(s1)
    134c:	00a14703          	lbu	a4,10(sp)
    1350:	00e69463          	bne	a3,a4,1358 <flash_read_mid_uid_with_check+0x104>
    1354:	00178793          	addi	a5,a5,1
    1358:	00b4c683          	lbu	a3,11(s1)
    135c:	00b14703          	lbu	a4,11(sp)
    1360:	00e69463          	bne	a3,a4,1368 <flash_read_mid_uid_with_check+0x114>
    1364:	00178793          	addi	a5,a5,1
    1368:	00c4c683          	lbu	a3,12(s1)
    136c:	00c14703          	lbu	a4,12(sp)
    1370:	00e69463          	bne	a3,a4,1378 <flash_read_mid_uid_with_check+0x124>
    1374:	00178793          	addi	a5,a5,1
    1378:	00d4c683          	lbu	a3,13(s1)
    137c:	00d14703          	lbu	a4,13(sp)
    1380:	00e69463          	bne	a3,a4,1388 <flash_read_mid_uid_with_check+0x134>
    1384:	00178793          	addi	a5,a5,1
    1388:	00e4c683          	lbu	a3,14(s1)
    138c:	00e14703          	lbu	a4,14(sp)
    1390:	00e69463          	bne	a3,a4,1398 <flash_read_mid_uid_with_check+0x144>
    1394:	00178793          	addi	a5,a5,1
    1398:	00f14683          	lbu	a3,15(sp)
    139c:	00f4c703          	lbu	a4,15(s1)
    13a0:	00e69463          	bne	a3,a4,13a8 <flash_read_mid_uid_with_check+0x154>
    13a4:	00178793          	addi	a5,a5,1
    13a8:	40f2                	c.lwsp	ra,28(sp)
    13aa:	4462                	c.lwsp	s0,24(sp)
    13ac:	17c1                	c.addi	a5,-16
    13ae:	00f037b3          	snez	a5,a5
    13b2:	44d2                	c.lwsp	s1,20(sp)
    13b4:	853e                	c.mv	a0,a5
    13b6:	6105                	c.addi16sp	sp,32
    13b8:	00008067          	ret

000013bc <flash_dread>:
    13bc:	1141                	c.addi	sp,-16
    13be:	c606                	c.swsp	ra,12(sp)
    13c0:	87b2                	c.mv	a5,a2
    13c2:	7d047073          	csrci	mmisc_ctl,8
    13c6:	862e                	c.mv	a2,a1
    13c8:	00f005b3          	add	a1,zero,a5
    13cc:	a78ff0ef          	jal	ra,644 <flash_mspi_read_ram.constprop.7>
    13d0:	7d046073          	csrsi	mmisc_ctl,8
    13d4:	40b2                	c.lwsp	ra,12(sp)
    13d6:	0141                	c.addi	sp,16
    13d8:	00008067          	ret

000013dc <clock_init.constprop.10>:
    13dc:	1141                	c.addi	sp,-16
    13de:	c606                	c.swsp	ra,12(sp)
    13e0:	7d047073          	csrci	mmisc_ctl,8
    13e4:	c3cff0ef          	jal	ra,820 <clock_init_ram.constprop.11>
    13e8:	7d046073          	csrsi	mmisc_ctl,8
    13ec:	40b2                	c.lwsp	ra,12(sp)
    13ee:	0141                	c.addi	sp,16
    13f0:	00008067          	ret

000013f4 <pm_sleep_wakeup.constprop.2>:
    13f4:	1141                	c.addi	sp,-16
    13f6:	c606                	c.swsp	ra,12(sp)
    13f8:	7d047073          	csrci	mmisc_ctl,8
    13fc:	8cdff0ef          	jal	ra,cc8 <pm_sleep_wakeup_ram.constprop.3>
    1400:	7d046073          	csrsi	mmisc_ctl,8
    1404:	40b2                	c.lwsp	ra,12(sp)
    1406:	0141                	c.addi	sp,16
    1408:	8082                	c.jr	ra
    140a:	0001                	c.nop

0000140c <user_calib_adc_vref.constprop.9>:
    140c:	1101                	c.addi	sp,-32
    140e:	ce06                	c.swsp	ra,28(sp)
    1410:	c402                	c.swsp	zero,8(sp)
    1412:	00011623          	sh	zero,12(sp)
    1416:	00010723          	sb	zero,14(sp)
    141a:	c54d                	c.beqz	a0,14c4 <user_calib_adc_vref.constprop.9+0xb8>
    141c:	000007b7          	lui	a5,0x0
    1420:	1587a783          	lw	a5,344(a5) # 158 <_AES_VMA_END>
    1424:	0030                	c.addi4spn	a2,sp,8
    1426:	459d                	c.li	a1,7
    1428:	9782                	c.jalr	a5
    142a:	00c14783          	lbu	a5,12(sp)
    142e:	1c07b75b          	bfos	a4,a5,7,0
    1432:	04074163          	bltz	a4,1474 <user_calib_adc_vref.constprop.9+0x68>
    1436:	00e14703          	lbu	a4,14(sp)
    143a:	00d14603          	lbu	a2,13(sp)
    143e:	0722                	c.slli	a4,0x8
    1440:	66c1                	c.lui	a3,0x10
    1442:	00c705b3          	add	a1,a4,a2
    1446:	16fd                	c.addi	a3,-1
    1448:	02d58663          	beq	a1,a3,1474 <user_calib_adc_vref.constprop.9+0x68>
    144c:	fd060613          	addi	a2,a2,-48
    1450:	9732                	c.add	a4,a2
    1452:	3c07275b          	bfoz	a4,a4,15,0
    1456:	0fb00693          	li	a3,251
    145a:	08e6e563          	bltu	a3,a4,14e4 <user_calib_adc_vref.constprop.9+0xd8>
    145e:	17b1                	c.addi	a5,-20
    1460:	1c07b7db          	bfos	a5,a5,7,0
    1464:	5731                	c.li	a4,-20
    1466:	06e78f63          	beq	a5,a4,14e4 <user_calib_adc_vref.constprop.9+0xd8>
    146a:	f9578513          	addi	a0,a5,-107
    146e:	00a03533          	snez	a0,a0
    1472:	a89d                	c.j	14e8 <user_calib_adc_vref.constprop.9+0xdc>
    1474:	801407b7          	lui	a5,0x80140
    1478:	06500713          	li	a4,101
    147c:	1ee78a23          	sb	a4,500(a5) # 801401f4 <_DATA_LMA_START+0x60134e14>
    1480:	1c87a703          	lw	a4,456(a5)
    1484:	1e078a23          	sb	zero,500(a5)
    1488:	4c47275b          	bfoz	a4,a4,19,4
    148c:	380727db          	bfoz	a5,a4,14,0
    1490:	06078063          	beqz	a5,14f0 <user_calib_adc_vref.constprop.9+0xe4>
    1494:	1ff77713          	andi	a4,a4,511
    1498:	f9b70713          	addi	a4,a4,-101
    149c:	3c07275b          	bfoz	a4,a4,15,0
    14a0:	0c600693          	li	a3,198
    14a4:	04e6e063          	bltu	a3,a4,14e4 <user_calib_adc_vref.constprop.9+0xd8>
    14a8:	0097d513          	srli	a0,a5,0x9
    14ac:	1531                	c.addi	a0,-20
    14ae:	1c05355b          	bfos	a0,a0,7,0
    14b2:	57b1                	c.li	a5,-20
    14b4:	02f50863          	beq	a0,a5,14e4 <user_calib_adc_vref.constprop.9+0xd8>
    14b8:	fd550513          	addi	a0,a0,-43 # 3fffffd5 <_DATA_LMA_START+0x1fff4bf5>
    14bc:	00a03533          	snez	a0,a0
    14c0:	0280006f          	j	14e8 <user_calib_adc_vref.constprop.9+0xdc>
    14c4:	801407b7          	lui	a5,0x80140
    14c8:	06500713          	li	a4,101
    14cc:	1ee78a23          	sb	a4,500(a5) # 801401f4 <_DATA_LMA_START+0x60134e14>
    14d0:	1c87a703          	lw	a4,456(a5)
    14d4:	1e078a23          	sb	zero,500(a5)
    14d8:	4c47275b          	bfoz	a4,a4,19,4
    14dc:	380727db          	bfoz	a5,a4,14,0
    14e0:	fa079ae3          	bnez	a5,1494 <user_calib_adc_vref.constprop.9+0x88>
    14e4:	00000513          	li	a0,0
    14e8:	40f2                	c.lwsp	ra,28(sp)
    14ea:	6105                	c.addi16sp	sp,32
    14ec:	00008067          	ret
    14f0:	00814503          	lbu	a0,8(sp)
    14f4:	00914783          	lbu	a5,9(sp)
    14f8:	953e                	c.add	a0,a5
    14fa:	f8050513          	addi	a0,a0,-128
    14fe:	3c05255b          	bfoz	a0,a0,15,0
    1502:	0fc53513          	sltiu	a0,a0,252
    1506:	b7cd                	c.j	14e8 <user_calib_adc_vref.constprop.9+0xdc>

00001508 <measure_stack_usage>:
    1508:	850a                	c.mv	a0,sp
    150a:	0009f7b7          	lui	a5,0x9f
    150e:	02a7f763          	bgeu	a5,a0,153c <measure_stack_usage+0x34>
    1512:	4394                	c.lw	a3,0(a5)
    1514:	aaaab7b7          	lui	a5,0xaaaab
    1518:	aaa78793          	addi	a5,a5,-1366 # aaaaaaaa <_DATA_LMA_START+0x8aa9f6ca>
    151c:	02f69063          	bne	a3,a5,153c <measure_stack_usage+0x34>
    1520:	0009f7b7          	lui	a5,0x9f
    1524:	00c0006f          	j	1530 <measure_stack_usage+0x28>
    1528:	0007a703          	lw	a4,0(a5) # 9f000 <_end+0x134e0>
    152c:	00d71663          	bne	a4,a3,1538 <measure_stack_usage+0x30>
    1530:	00478793          	addi	a5,a5,4
    1534:	fea7eae3          	bltu	a5,a0,1528 <measure_stack_usage+0x20>
    1538:	8d1d                	c.sub	a0,a5
    153a:	8082                	c.jr	ra
    153c:	0009f7b7          	lui	a5,0x9f
    1540:	bfe5                	c.j	1538 <measure_stack_usage+0x30>
    1542:	0001                	c.nop

00001544 <fill_stack_pattern_to_sp>:
    1544:	860a                	c.mv	a2,sp
    1546:	0009f7b7          	lui	a5,0x9f
    154a:	00c7ff63          	bgeu	a5,a2,1568 <fill_stack_pattern_to_sp+0x24>
    154e:	fff617b7          	lui	a5,0xfff61
    1552:	17fd                	c.addi	a5,-1
    1554:	963e                	c.add	a2,a5
    1556:	9a71                	c.andi	a2,-4
    1558:	00460613          	addi	a2,a2,4
    155c:	0aa00593          	li	a1,170
    1560:	0009f537          	lui	a0,0x9f
    1564:	5820806f          	j	9ae6 <memset>
    1568:	8082                	c.jr	ra
	...

0000156c <user_calib_freq_offset.constprop.8>:
    156c:	000007b7          	lui	a5,0x0
    1570:	1101                	c.addi	sp,-32
    1572:	1587a783          	lw	a5,344(a5) # 158 <_AES_VMA_END>
    1576:	577d                	c.li	a4,-1
    1578:	00f10613          	addi	a2,sp,15
    157c:	4585                	c.li	a1,1
    157e:	cc22                	c.swsp	s0,24(sp)
    1580:	ce06                	c.swsp	ra,28(sp)
    1582:	00e107a3          	sb	a4,15(sp)
    1586:	9782                	c.jalr	a5
    1588:	00f14403          	lbu	s0,15(sp)
    158c:	0ff00793          	li	a5,255
    1590:	00000513          	li	a0,0
    1594:	02f40263          	beq	s0,a5,15b8 <user_calib_freq_offset.constprop.8+0x4c>
    1598:	08a00513          	li	a0,138
    159c:	a38ff0ef          	jal	ra,7d4 <analog_read_reg8>
    15a0:	03f47413          	andi	s0,s0,63
    15a4:	04057593          	andi	a1,a0,64
    15a8:	0085e5b3          	or	a1,a1,s0
    15ac:	08a00513          	li	a0,138
    15b0:	9e0ff0ef          	jal	ra,790 <analog_write_reg8>
    15b4:	00100513          	li	a0,1
    15b8:	40f2                	c.lwsp	ra,28(sp)
    15ba:	4462                	c.lwsp	s0,24(sp)
    15bc:	6105                	c.addi16sp	sp,32
    15be:	8082                	c.jr	ra
    15c0:	0001                	c.nop
	...

000015c4 <gpio_input_dis>:
    15c4:	801407b7          	lui	a5,0x80140
    15c8:	30978703          	lb	a4,777(a5) # 80140309 <_DATA_LMA_START+0x60134f29>
    15cc:	fff54513          	not	a0,a0
    15d0:	8d79                	c.and	a0,a4
    15d2:	0ff57513          	andi	a0,a0,255
    15d6:	30a784a3          	sb	a0,777(a5)
    15da:	8082                	c.jr	ra
    15dc:	0001                	c.nop
	...

000015e0 <reset_counters>:
    15e0:	b0005073          	csrwi	mcycle,0
    15e4:	b0205073          	csrwi	minstret,0
    15e8:	8082                	c.jr	ra
	...

000015ec <validate.lto_priv.13>:
    15ec:	1101                	c.addi	sp,-32
    15ee:	cc22                	c.swsp	s0,24(sp)
    15f0:	ca26                	c.swsp	s1,20(sp)
    15f2:	c84a                	c.swsp	s2,16(sp)
    15f4:	c64e                	c.swsp	s3,12(sp)
    15f6:	c452                	c.swsp	s4,8(sp)
    15f8:	c256                	c.swsp	s5,4(sp)
    15fa:	c05a                	c.swsp	s6,0(sp)
    15fc:	89b2                	c.mv	s3,a2
    15fe:	892a                	c.mv	s2,a0
    1600:	84ae                	c.mv	s1,a1
    1602:	4401                	c.li	s0,0
    1604:	4a01                	c.li	s4,0
    1606:	4b05                	c.li	s6,1
    1608:	0008cab7          	lui	s5,0x8c
    160c:	00112e23          	sw	ra,28(sp)
    1610:	00090703          	lb	a4,0(s2)
    1614:	00048783          	lb	a5,0(s1)
    1618:	85a2                	c.mv	a1,s0
    161a:	86be                	c.mv	a3,a5
    161c:	0405                	c.addi	s0,1
    161e:	863a                	c.mv	a2,a4
    1620:	9b8a8513          	addi	a0,s5,-1608 # 8b9b8 <int16xint8xint32_1_weights+0x24b0>
    1624:	00f70663          	beq	a4,a5,1630 <validate.lto_priv.13+0x44>
    1628:	0a05                	c.addi	s4,1
    162a:	4b01                	c.li	s6,0
    162c:	6c4080ef          	jal	ra,9cf0 <printf>
    1630:	0905                	c.addi	s2,1
    1632:	0485                	c.addi	s1,1
    1634:	fc899ee3          	bne	s3,s0,1610 <validate.lto_priv.13+0x24>
    1638:	000b1a63          	bnez	s6,164c <validate.lto_priv.13+0x60>
    163c:	0008c537          	lui	a0,0x8c
    1640:	864e                	c.mv	a2,s3
    1642:	85d2                	c.mv	a1,s4
    1644:	9dc50513          	addi	a0,a0,-1572 # 8b9dc <int16xint8xint32_1_weights+0x24d4>
    1648:	6a8080ef          	jal	ra,9cf0 <printf>
    164c:	40f2                	c.lwsp	ra,28(sp)
    164e:	4462                	c.lwsp	s0,24(sp)
    1650:	855a                	c.mv	a0,s6
    1652:	44d2                	c.lwsp	s1,20(sp)
    1654:	4942                	c.lwsp	s2,16(sp)
    1656:	49b2                	c.lwsp	s3,12(sp)
    1658:	4a22                	c.lwsp	s4,8(sp)
    165a:	4a92                	c.lwsp	s5,4(sp)
    165c:	4b02                	c.lwsp	s6,0(sp)
    165e:	6105                	c.addi16sp	sp,32
    1660:	8082                	c.jr	ra
	...

00001664 <validate_s16.lto_priv.15>:
    1664:	1101                	c.addi	sp,-32
    1666:	cc22                	c.swsp	s0,24(sp)
    1668:	ca26                	c.swsp	s1,20(sp)
    166a:	c84a                	c.swsp	s2,16(sp)
    166c:	c64e                	c.swsp	s3,12(sp)
    166e:	c452                	c.swsp	s4,8(sp)
    1670:	c256                	c.swsp	s5,4(sp)
    1672:	c05a                	c.swsp	s6,0(sp)
    1674:	89b2                	c.mv	s3,a2
    1676:	892a                	c.mv	s2,a0
    1678:	84ae                	c.mv	s1,a1
    167a:	4401                	c.li	s0,0
    167c:	4a01                	c.li	s4,0
    167e:	4b05                	c.li	s6,1
    1680:	0008cab7          	lui	s5,0x8c
    1684:	00112e23          	sw	ra,28(sp)
    1688:	00091703          	lh	a4,0(s2)
    168c:	00049783          	lh	a5,0(s1)
    1690:	85a2                	c.mv	a1,s0
    1692:	86be                	c.mv	a3,a5
    1694:	0405                	c.addi	s0,1
    1696:	863a                	c.mv	a2,a4
    1698:	9b8a8513          	addi	a0,s5,-1608 # 8b9b8 <int16xint8xint32_1_weights+0x24b0>
    169c:	00f70663          	beq	a4,a5,16a8 <validate_s16.lto_priv.15+0x44>
    16a0:	0a05                	c.addi	s4,1
    16a2:	4b01                	c.li	s6,0
    16a4:	64c080ef          	jal	ra,9cf0 <printf>
    16a8:	0909                	c.addi	s2,2
    16aa:	0489                	c.addi	s1,2
    16ac:	fc899ee3          	bne	s3,s0,1688 <validate_s16.lto_priv.15+0x24>
    16b0:	000b1a63          	bnez	s6,16c4 <validate_s16.lto_priv.15+0x60>
    16b4:	0008c537          	lui	a0,0x8c
    16b8:	864e                	c.mv	a2,s3
    16ba:	85d2                	c.mv	a1,s4
    16bc:	9dc50513          	addi	a0,a0,-1572 # 8b9dc <int16xint8xint32_1_weights+0x24d4>
    16c0:	630080ef          	jal	ra,9cf0 <printf>
    16c4:	40f2                	c.lwsp	ra,28(sp)
    16c6:	4462                	c.lwsp	s0,24(sp)
    16c8:	855a                	c.mv	a0,s6
    16ca:	44d2                	c.lwsp	s1,20(sp)
    16cc:	4942                	c.lwsp	s2,16(sp)
    16ce:	49b2                	c.lwsp	s3,12(sp)
    16d0:	4a22                	c.lwsp	s4,8(sp)
    16d2:	4a92                	c.lwsp	s5,4(sp)
    16d4:	4b02                	c.lwsp	s6,0(sp)
    16d6:	6105                	c.addi16sp	sp,32
    16d8:	8082                	c.jr	ra
	...

000016dc <dw_int16xint8_dilation_riscv_depthwise_conv_s16>:
    16dc:	c7010113          	addi	sp,sp,-912
    16e0:	38912223          	sw	s1,900(sp)
    16e4:	0904                	c.addi4spn	s1,sp,144
    16e6:	2d000613          	li	a2,720
    16ea:	4581                	c.li	a1,0
    16ec:	00900533          	add	a0,zero,s1
    16f0:	38112623          	sw	ra,908(sp)
    16f4:	39212023          	sw	s2,896(sp)
    16f8:	37312e23          	sw	s3,892(sp)
    16fc:	38812423          	sw	s0,904(sp)
    1700:	37412c23          	sw	s4,888(sp)
    1704:	37512a23          	sw	s5,884(sp)
    1708:	37612823          	sw	s6,880(sp)
    170c:	37712623          	sw	s7,876(sp)
    1710:	3d6080ef          	jal	ra,9ae6 <memset>
    1714:	4791                	c.li	a5,4
    1716:	d0be                	c.swsp	a5,96(sp)
    1718:	c6be                	c.swsp	a5,76(sp)
    171a:	c4be                	c.swsp	a5,72(sp)
    171c:	dcbe                	c.swsp	a5,120(sp)
    171e:	77e1                	c.lui	a5,0xffff8
    1720:	04478793          	addi	a5,a5,68 # ffff8044 <_DATA_LMA_START+0xdffecc64>
    1724:	c53e                	c.swsp	a5,136(sp)
    1726:	67a1                	c.lui	a5,0x8
    1728:	17fd                	c.addi	a5,-1
    172a:	c73e                	c.swsp	a5,140(sp)
    172c:	0980178b          	addigp	a5,152 # 80898 <dw_int16xint8_dilation_output_mult>
    1730:	4315                	c.li	t1,5
    1732:	ca3e                	c.swsp	a5,20(sp)
    1734:	02410913          	addi	s2,sp,36
    1738:	4705                	c.li	a4,1
    173a:	4e25                	c.li	t3,9
    173c:	488d                	c.li	a7,3
    173e:	4809                	c.li	a6,2
    1740:	3880178b          	addigp	a5,904 # 80b88 <dw_int16xint8_dilation_output_shift>
    1744:	86ca                	c.mv	a3,s2
    1746:	00d0                	c.addi4spn	a2,sp,68
    1748:	08cc                	c.addi4spn	a1,sp,84
    174a:	cc9a                	c.swsp	t1,88(sp)
    174c:	d41a                	c.swsp	t1,40(sp)
    174e:	10c8                	c.addi4spn	a0,sp,100
    1750:	4321                	c.li	t1,8
    1752:	caba                	c.swsp	a4,84(sp)
    1754:	cef2                	c.swsp	t3,92(sp)
    1756:	d672                	c.swsp	t3,44(sp)
    1758:	d81a                	c.swsp	t1,48(sp)
    175a:	dec6                	c.swsp	a7,124(sp)
    175c:	d8ba                	c.swsp	a4,112(sp)
    175e:	daba                	c.swsp	a4,116(sp)
    1760:	c146                	c.swsp	a7,128(sp)
    1762:	c342                	c.swsp	a6,132(sp)
    1764:	d6c2                	c.swsp	a6,108(sp)
    1766:	cc3e                	c.swsp	a5,24(sp)
    1768:	da02                	c.swsp	zero,52(sp)
    176a:	dc02                	c.swsp	zero,56(sp)
    176c:	de02                	c.swsp	zero,60(sp)
    176e:	c082                	c.swsp	zero,64(sp)
    1770:	d282                	c.swsp	zero,100(sp)
    1772:	d482                	c.swsp	zero,104(sp)
    1774:	1b9010ef          	jal	ra,312c <riscv_depthwise_conv_wrapper_s16_get_buffer_size>
    1778:	00a009b3          	add	s3,zero,a0
    177c:	414080ef          	jal	ra,9b90 <malloc>
    1780:	d04e                	c.swsp	s3,32(sp)
    1782:	ce2a                	c.swsp	a0,28(sp)
    1784:	e5dff0ef          	jal	ra,15e0 <reset_counters>
    1788:	dbdff0ef          	jal	ra,1544 <fill_stack_pattern_to_sp>
    178c:	b0002b73          	csrr	s6,mcycle
    1790:	b0202af3          	csrr	s5,minstret
    1794:	ef1f930b          	addigp	t1,-272 # 806f0 <dw_int16xint8_dilation_biases>
    1798:	03410893          	addi	a7,sp,52
    179c:	4b00180b          	addigp	a6,1200 # 80cb0 <dw_int16xint8_dilation_weights>
    17a0:	00dc                	c.addi4spn	a5,sp,68
    17a2:	f31f970b          	addigp	a4,-208 # 80730 <dw_int16xint8_dilation_input>
    17a6:	08d4                	c.addi4spn	a3,sp,84
    17a8:	0850                	c.addi4spn	a2,sp,20
    17aa:	10cc                	c.addi4spn	a1,sp,100
    17ac:	0868                	c.addi4spn	a0,sp,28
    17ae:	c426                	c.swsp	s1,8(sp)
    17b0:	c24a                	c.swsp	s2,4(sp)
    17b2:	c01a                	c.swsp	t1,0(sp)
    17b4:	6fd030ef          	jal	ra,56b0 <riscv_depthwise_conv_wrapper_s16>
    17b8:	b0002473          	csrr	s0,mcycle
    17bc:	b0202bf3          	csrr	s7,minstret
    17c0:	d49ff0ef          	jal	ra,1508 <measure_stack_usage>
    17c4:	8a2a                	c.mv	s4,a0
    17c6:	4572                	c.lwsp	a0,28(sp)
    17c8:	2b86a92b          	lwgp	s2,45752 # 8bab8 <_DATA_VMA_END>
    17cc:	c911                	c.beqz	a0,17e0 <dw_int16xint8_dilation_riscv_depthwise_conv_s16+0x104>
    17ce:	864e                	c.mv	a2,s3
    17d0:	00000593          	li	a1,0
    17d4:	312080ef          	jal	ra,9ae6 <memset>
    17d8:	01c12503          	lw	a0,28(sp)
    17dc:	3c4080ef          	jal	ra,9ba0 <free>
    17e0:	0008b537          	lui	a0,0x8b
    17e4:	5f050513          	addi	a0,a0,1520 # 8b5f0 <int16xint8xint32_1_weights+0x20e8>
    17e8:	508080ef          	jal	ra,9cf0 <printf>
    17ec:	16800613          	li	a2,360
    17f0:	0b80158b          	addigp	a1,184 # 808b8 <dw_int16xint8_dilation_output_ref>
    17f4:	8526                	c.mv	a0,s1
    17f6:	35bd                	c.jal	1664 <validate_s16.lto_priv.15>
    17f8:	02051e63          	bnez	a0,1834 <dw_int16xint8_dilation_riscv_depthwise_conv_s16+0x158>
    17fc:	00081537          	lui	a0,0x81
    1800:	c6450513          	addi	a0,a0,-924 # 80c64 <dw_int16xint8_dilation_output_shift+0xdc>
    1804:	4ec080ef          	jal	ra,9cf0 <printf>
    1808:	38c12083          	lw	ra,908(sp)
    180c:	38812403          	lw	s0,904(sp)
    1810:	38412483          	lw	s1,900(sp)
    1814:	38012903          	lw	s2,896(sp)
    1818:	37c12983          	lw	s3,892(sp)
    181c:	37812a03          	lw	s4,888(sp)
    1820:	37412a83          	lw	s5,884(sp)
    1824:	37012b03          	lw	s6,880(sp)
    1828:	36c12b83          	lw	s7,876(sp)
    182c:	39010113          	addi	sp,sp,912
    1830:	00008067          	ret
    1834:	00081537          	lui	a0,0x81
    1838:	ba850513          	addi	a0,a0,-1112 # 80ba8 <dw_int16xint8_dilation_output_shift+0x20>
    183c:	4b4080ef          	jal	ra,9cf0 <printf>
    1840:	41640433          	sub	s0,s0,s6
    1844:	00081537          	lui	a0,0x81
    1848:	008005b3          	add	a1,zero,s0
    184c:	bf450513          	addi	a0,a0,-1036 # 80bf4 <dw_int16xint8_dilation_output_shift+0x6c>
    1850:	4a0080ef          	jal	ra,9cf0 <printf>
    1854:	00081537          	lui	a0,0x81
    1858:	415b85b3          	sub	a1,s7,s5
    185c:	c0850513          	addi	a0,a0,-1016 # 80c08 <dw_int16xint8_dilation_output_shift+0x80>
    1860:	490080ef          	jal	ra,9cf0 <printf>
    1864:	d0197553          	fcvt.s.wu	fa0,s2
    1868:	000807b7          	lui	a5,0x80
    186c:	d01477d3          	fcvt.s.wu	fa5,s0
    1870:	18a7f7d3          	fdiv.s	fa5,fa5,fa0
    1874:	0007a507          	flw	fa0,0(a5) # 80000 <_DATA_VMA_START>
    1878:	10a7f553          	fmul.s	fa0,fa5,fa0
    187c:	724090ef          	jal	ra,afa0 <__extendsfdf2>
    1880:	862a                	c.mv	a2,a0
    1882:	00081537          	lui	a0,0x81
    1886:	86ae                	c.mv	a3,a1
    1888:	c2450513          	addi	a0,a0,-988 # 80c24 <dw_int16xint8_dilation_output_shift+0x9c>
    188c:	464080ef          	jal	ra,9cf0 <printf>
    1890:	00081537          	lui	a0,0x81
    1894:	014005b3          	add	a1,zero,s4
    1898:	c4850513          	addi	a0,a0,-952 # 80c48 <dw_int16xint8_dilation_output_shift+0xc0>
    189c:	454080ef          	jal	ra,9cf0 <printf>
    18a0:	b7a5                	c.j	1808 <dw_int16xint8_dilation_riscv_depthwise_conv_s16+0x12c>
	...

000018a4 <dw_int16xint8_riscv_depthwise_conv_s16>:
    18a4:	714d                	c.addi16sp	sp,-336
    18a6:	14912223          	sw	s1,324(sp)
    18aa:	0904                	c.addi4spn	s1,sp,144
    18ac:	09000613          	li	a2,144
    18b0:	4581                	c.li	a1,0
    18b2:	8526                	c.mv	a0,s1
    18b4:	14112623          	sw	ra,332(sp)
    18b8:	15212023          	sw	s2,320(sp)
    18bc:	13312e23          	sw	s3,316(sp)
    18c0:	14812423          	sw	s0,328(sp)
    18c4:	13412c23          	sw	s4,312(sp)
    18c8:	13512a23          	sw	s5,308(sp)
    18cc:	13612823          	sw	s6,304(sp)
    18d0:	13712623          	sw	s7,300(sp)
    18d4:	212080ef          	jal	ra,9ae6 <memset>
    18d8:	4785                	c.li	a5,1
    18da:	cabe                	c.swsp	a5,84(sp)
    18dc:	debe                	c.swsp	a5,124(sp)
    18de:	c13e                	c.swsp	a5,128(sp)
    18e0:	c33e                	c.swsp	a5,132(sp)
    18e2:	77ed                	c.lui	a5,0xffffb
    18e4:	d8978793          	addi	a5,a5,-631 # ffffad89 <_DATA_LMA_START+0xdffef9a9>
    18e8:	c53e                	c.swsp	a5,136(sp)
    18ea:	67a1                	c.lui	a5,0x8
    18ec:	17fd                	c.addi	a5,-1
    18ee:	c73e                	c.swsp	a5,140(sp)
    18f0:	7d80178b          	addigp	a5,2008 # 80fd8 <dw_int16xint8_output_mult>
    18f4:	4891                	c.li	a7,4
    18f6:	ca3e                	c.swsp	a5,20(sp)
    18f8:	02410913          	addi	s2,sp,36
    18fc:	4325                	c.li	t1,9
    18fe:	470d                	c.li	a4,3
    1900:	4809                	c.li	a6,2
    1902:	0890178b          	addigp	a5,2184 # 81088 <dw_int16xint8_output_shift>
    1906:	86ca                	c.mv	a3,s2
    1908:	00d0                	c.addi4spn	a2,sp,68
    190a:	08cc                	c.addi4spn	a1,sp,84
    190c:	ce9a                	c.swsp	t1,92(sp)
    190e:	d0c6                	c.swsp	a7,96(sp)
    1910:	4315                	c.li	t1,5
    1912:	c4c6                	c.swsp	a7,72(sp)
    1914:	10c8                	c.addi4spn	a0,sp,100
    1916:	48a1                	c.li	a7,8
    1918:	cc9a                	c.swsp	t1,88(sp)
    191a:	c6ba                	c.swsp	a4,76(sp)
    191c:	d63a                	c.swsp	a4,44(sp)
    191e:	d43a                	c.swsp	a4,40(sp)
    1920:	d846                	c.swsp	a7,48(sp)
    1922:	d8ba                	c.swsp	a4,112(sp)
    1924:	dac2                	c.swsp	a6,116(sp)
    1926:	d6c2                	c.swsp	a6,108(sp)
    1928:	cc3e                	c.swsp	a5,24(sp)
    192a:	da02                	c.swsp	zero,52(sp)
    192c:	dc02                	c.swsp	zero,56(sp)
    192e:	de02                	c.swsp	zero,60(sp)
    1930:	c082                	c.swsp	zero,64(sp)
    1932:	dc82                	c.swsp	zero,120(sp)
    1934:	d282                	c.swsp	zero,100(sp)
    1936:	d482                	c.swsp	zero,104(sp)
    1938:	7f4010ef          	jal	ra,312c <riscv_depthwise_conv_wrapper_s16_get_buffer_size>
    193c:	00a009b3          	add	s3,zero,a0
    1940:	250080ef          	jal	ra,9b90 <malloc>
    1944:	d04e                	c.swsp	s3,32(sp)
    1946:	ce2a                	c.swsp	a0,28(sp)
    1948:	c99ff0ef          	jal	ra,15e0 <reset_counters>
    194c:	bf9ff0ef          	jal	ra,1544 <fill_stack_pattern_to_sp>
    1950:	b0002b73          	csrr	s6,mcycle
    1954:	b0202af3          	csrr	s5,minstret
    1958:	eb1f930b          	addigp	t1,-336 # 806b0 <dw_int16xint8_biases>
    195c:	03410893          	addi	a7,sp,52
    1960:	1310180b          	addigp	a6,2352 # 81130 <dw_int16xint8_weights>
    1964:	00dc                	c.addi4spn	a5,sp,68
    1966:	5300170b          	addigp	a4,1328 # 80d30 <dw_int16xint8_input>
    196a:	08d4                	c.addi4spn	a3,sp,84
    196c:	0850                	c.addi4spn	a2,sp,20
    196e:	10cc                	c.addi4spn	a1,sp,100
    1970:	0868                	c.addi4spn	a0,sp,28
    1972:	c426                	c.swsp	s1,8(sp)
    1974:	c24a                	c.swsp	s2,4(sp)
    1976:	c01a                	c.swsp	t1,0(sp)
    1978:	539030ef          	jal	ra,56b0 <riscv_depthwise_conv_wrapper_s16>
    197c:	b0002473          	csrr	s0,mcycle
    1980:	b0202bf3          	csrr	s7,minstret
    1984:	b85ff0ef          	jal	ra,1508 <measure_stack_usage>
    1988:	8a2a                	c.mv	s4,a0
    198a:	4572                	c.lwsp	a0,28(sp)
    198c:	2b86a92b          	lwgp	s2,45752 # 8bab8 <_DATA_VMA_END>
    1990:	c911                	c.beqz	a0,19a4 <dw_int16xint8_riscv_depthwise_conv_s16+0x100>
    1992:	864e                	c.mv	a2,s3
    1994:	00000593          	li	a1,0
    1998:	14e080ef          	jal	ra,9ae6 <memset>
    199c:	01c12503          	lw	a0,28(sp)
    19a0:	200080ef          	jal	ra,9ba0 <free>
    19a4:	0008b537          	lui	a0,0x8b
    19a8:	5f050513          	addi	a0,a0,1520 # 8b5f0 <int16xint8xint32_1_weights+0x20e8>
    19ac:	344080ef          	jal	ra,9cf0 <printf>
    19b0:	04800613          	li	a2,72
    19b4:	7f80158b          	addigp	a1,2040 # 80ff8 <dw_int16xint8_output_ref>
    19b8:	8526                	c.mv	a0,s1
    19ba:	316d                	c.jal	1664 <validate_s16.lto_priv.15>
    19bc:	02051c63          	bnez	a0,19f4 <dw_int16xint8_riscv_depthwise_conv_s16+0x150>
    19c0:	00081537          	lui	a0,0x81
    19c4:	0ec50513          	addi	a0,a0,236 # 810ec <dw_int16xint8_output_shift+0x64>
    19c8:	328080ef          	jal	ra,9cf0 <printf>
    19cc:	14c12083          	lw	ra,332(sp)
    19d0:	14812403          	lw	s0,328(sp)
    19d4:	14412483          	lw	s1,324(sp)
    19d8:	14012903          	lw	s2,320(sp)
    19dc:	13c12983          	lw	s3,316(sp)
    19e0:	13812a03          	lw	s4,312(sp)
    19e4:	13412a83          	lw	s5,308(sp)
    19e8:	13012b03          	lw	s6,304(sp)
    19ec:	12c12b83          	lw	s7,300(sp)
    19f0:	6171                	c.addi16sp	sp,336
    19f2:	8082                	c.jr	ra
    19f4:	00081537          	lui	a0,0x81
    19f8:	0a850513          	addi	a0,a0,168 # 810a8 <dw_int16xint8_output_shift+0x20>
    19fc:	2f4080ef          	jal	ra,9cf0 <printf>
    1a00:	41640433          	sub	s0,s0,s6
    1a04:	00081537          	lui	a0,0x81
    1a08:	008005b3          	add	a1,zero,s0
    1a0c:	bf450513          	addi	a0,a0,-1036 # 80bf4 <dw_int16xint8_dilation_output_shift+0x6c>
    1a10:	2e0080ef          	jal	ra,9cf0 <printf>
    1a14:	00081537          	lui	a0,0x81
    1a18:	415b85b3          	sub	a1,s7,s5
    1a1c:	c0850513          	addi	a0,a0,-1016 # 80c08 <dw_int16xint8_dilation_output_shift+0x80>
    1a20:	2d0080ef          	jal	ra,9cf0 <printf>
    1a24:	d0197553          	fcvt.s.wu	fa0,s2
    1a28:	000807b7          	lui	a5,0x80
    1a2c:	d01477d3          	fcvt.s.wu	fa5,s0
    1a30:	18a7f7d3          	fdiv.s	fa5,fa5,fa0
    1a34:	0007a507          	flw	fa0,0(a5) # 80000 <_DATA_VMA_START>
    1a38:	10a7f553          	fmul.s	fa0,fa5,fa0
    1a3c:	564090ef          	jal	ra,afa0 <__extendsfdf2>
    1a40:	862a                	c.mv	a2,a0
    1a42:	00081537          	lui	a0,0x81
    1a46:	86ae                	c.mv	a3,a1
    1a48:	c2450513          	addi	a0,a0,-988 # 80c24 <dw_int16xint8_dilation_output_shift+0x9c>
    1a4c:	2a4080ef          	jal	ra,9cf0 <printf>
    1a50:	00081537          	lui	a0,0x81
    1a54:	014005b3          	add	a1,zero,s4
    1a58:	c4850513          	addi	a0,a0,-952 # 80c48 <dw_int16xint8_dilation_output_shift+0xc0>
    1a5c:	294080ef          	jal	ra,9cf0 <printf>
    1a60:	b7b5                	c.j	19cc <dw_int16xint8_riscv_depthwise_conv_s16+0x128>
	...

00001a64 <conv_3x3_dilation_5x5_input_riscv_convolve_s8>:
    1a64:	7109                	c.addi16sp	sp,-384
    1a66:	16912a23          	sw	s1,372(sp)
    1a6a:	0124                	c.addi4spn	s1,sp,136
    1a6c:	0c600613          	li	a2,198
    1a70:	4581                	c.li	a1,0
    1a72:	8526                	c.mv	a0,s1
    1a74:	16112e23          	sw	ra,380(sp)
    1a78:	17212823          	sw	s2,368(sp)
    1a7c:	17612023          	sw	s6,352(sp)
    1a80:	16812c23          	sw	s0,376(sp)
    1a84:	17312623          	sw	s3,364(sp)
    1a88:	17412423          	sw	s4,360(sp)
    1a8c:	17512223          	sw	s5,356(sp)
    1a90:	15712e23          	sw	s7,348(sp)
    1a94:	052080ef          	jal	ra,9ae6 <memset>
    1a98:	4789                	c.li	a5,2
    1a9a:	cebe                	c.swsp	a5,92(sp)
    1a9c:	c6be                	c.swsp	a5,76(sp)
    1a9e:	d63e                	c.swsp	a5,44(sp)
    1aa0:	d8be                	c.swsp	a5,112(sp)
    1aa2:	dabe                	c.swsp	a5,116(sp)
    1aa4:	dcbe                	c.swsp	a5,120(sp)
    1aa6:	debe                	c.swsp	a5,124(sp)
    1aa8:	08000793          	li	a5,128
    1aac:	d0be                	c.swsp	a5,96(sp)
    1aae:	5799                	c.li	a5,-26
    1ab0:	d2be                	c.swsp	a5,100(sp)
    1ab2:	fc300793          	li	a5,-61
    1ab6:	c13e                	c.swsp	a5,128(sp)
    1ab8:	06b00793          	li	a5,107
    1abc:	c33e                	c.swsp	a5,132(sp)
    1abe:	28c6978b          	addigp	a5,45708 # 8ba8c <conv_3x3_dilation_5x5_input_output_mult>
    1ac2:	c83e                	c.swsp	a5,16(sp)
    1ac4:	02010913          	addi	s2,sp,32
    1ac8:	4705                	c.li	a4,1
    1aca:	48a5                	c.li	a7,9
    1acc:	482d                	c.li	a6,11
    1ace:	430d                	c.li	t1,3
    1ad0:	2946978b          	addigp	a5,45716 # 8ba94 <conv_3x3_dilation_5x5_input_output_shift>
    1ad4:	86ca                	c.mv	a3,s2
    1ad6:	0090                	c.addi4spn	a2,sp,64
    1ad8:	088c                	c.addi4spn	a1,sp,80
    1ada:	1088                	c.addi4spn	a0,sp,96
    1adc:	c8ba                	c.swsp	a4,80(sp)
    1ade:	ccc6                	c.swsp	a7,88(sp)
    1ae0:	cac2                	c.swsp	a6,84(sp)
    1ae2:	c49a                	c.swsp	t1,72(sp)
    1ae4:	c29a                	c.swsp	t1,68(sp)
    1ae6:	d446                	c.swsp	a7,40(sp)
    1ae8:	d242                	c.swsp	a6,36(sp)
    1aea:	d4ba                	c.swsp	a4,104(sp)
    1aec:	d6ba                	c.swsp	a4,108(sp)
    1aee:	ca3e                	c.swsp	a5,20(sp)
    1af0:	2d1020ef          	jal	ra,45c0 <riscv_convolve_wrapper_s8_get_buffer_size>
    1af4:	00a00b33          	add	s6,zero,a0
    1af8:	098080ef          	jal	ra,9b90 <malloc>
    1afc:	ce02                	c.swsp	zero,28(sp)
    1afe:	cc2a                	c.swsp	a0,24(sp)
    1b00:	ae1ff0ef          	jal	ra,15e0 <reset_counters>
    1b04:	a41ff0ef          	jal	ra,1544 <fill_stack_pattern_to_sp>
    1b08:	b0002af3          	csrr	s5,mcycle
    1b0c:	b0202a73          	csrr	s4,minstret
    1b10:	2846930b          	addigp	t1,45700 # 8ba84 <conv_3x3_dilation_5x5_input_biases>
    1b14:	03010893          	addi	a7,sp,48
    1b18:	bd5f980b          	addigp	a6,-1068 # 803d4 <conv_3x3_dilation_5x5_input_weights>
    1b1c:	009c                	c.addi4spn	a5,sp,64
    1b1e:	9adf970b          	addigp	a4,-1620 # 801ac <conv_3x3_dilation_5x5_input_input>
    1b22:	0894                	c.addi4spn	a3,sp,80
    1b24:	0810                	c.addi4spn	a2,sp,16
    1b26:	108c                	c.addi4spn	a1,sp,96
    1b28:	0828                	c.addi4spn	a0,sp,24
    1b2a:	c426                	c.swsp	s1,8(sp)
    1b2c:	c24a                	c.swsp	s2,4(sp)
    1b2e:	c01a                	c.swsp	t1,0(sp)
    1b30:	494010ef          	jal	ra,2fc4 <riscv_convolve_wrapper_s8>
    1b34:	b0002473          	csrr	s0,mcycle
    1b38:	b0202bf3          	csrr	s7,minstret
    1b3c:	9cdff0ef          	jal	ra,1508 <measure_stack_usage>
    1b40:	89aa                	c.mv	s3,a0
    1b42:	4562                	c.lwsp	a0,24(sp)
    1b44:	2b86a92b          	lwgp	s2,45752 # 8bab8 <_DATA_VMA_END>
    1b48:	c911                	c.beqz	a0,1b5c <conv_3x3_dilation_5x5_input_riscv_convolve_s8+0xf8>
    1b4a:	865a                	c.mv	a2,s6
    1b4c:	00000593          	li	a1,0
    1b50:	797070ef          	jal	ra,9ae6 <memset>
    1b54:	01812503          	lw	a0,24(sp)
    1b58:	048080ef          	jal	ra,9ba0 <free>
    1b5c:	0008b537          	lui	a0,0x8b
    1b60:	5f050513          	addi	a0,a0,1520 # 8b5f0 <int16xint8xint32_1_weights+0x20e8>
    1b64:	18c080ef          	jal	ra,9cf0 <printf>
    1b68:	0c600613          	li	a2,198
    1b6c:	a75f958b          	addigp	a1,-1420 # 80274 <conv_3x3_dilation_5x5_input_output_ref>
    1b70:	00900533          	add	a0,zero,s1
    1b74:	a79ff0ef          	jal	ra,15ec <validate.lto_priv.13>
    1b78:	02051c63          	bnez	a0,1bb0 <conv_3x3_dilation_5x5_input_riscv_convolve_s8+0x14c>
    1b7c:	00080537          	lui	a0,0x80
    1b80:	38850513          	addi	a0,a0,904 # 80388 <conv_3x3_dilation_5x5_input_output_ref+0x114>
    1b84:	16c080ef          	jal	ra,9cf0 <printf>
    1b88:	17c12083          	lw	ra,380(sp)
    1b8c:	17812403          	lw	s0,376(sp)
    1b90:	17412483          	lw	s1,372(sp)
    1b94:	17012903          	lw	s2,368(sp)
    1b98:	16c12983          	lw	s3,364(sp)
    1b9c:	16812a03          	lw	s4,360(sp)
    1ba0:	16412a83          	lw	s5,356(sp)
    1ba4:	16012b03          	lw	s6,352(sp)
    1ba8:	15c12b83          	lw	s7,348(sp)
    1bac:	6119                	c.addi16sp	sp,384
    1bae:	8082                	c.jr	ra
    1bb0:	00080537          	lui	a0,0x80
    1bb4:	33c50513          	addi	a0,a0,828 # 8033c <conv_3x3_dilation_5x5_input_output_ref+0xc8>
    1bb8:	138080ef          	jal	ra,9cf0 <printf>
    1bbc:	41540433          	sub	s0,s0,s5
    1bc0:	00081537          	lui	a0,0x81
    1bc4:	008005b3          	add	a1,zero,s0
    1bc8:	bf450513          	addi	a0,a0,-1036 # 80bf4 <dw_int16xint8_dilation_output_shift+0x6c>
    1bcc:	124080ef          	jal	ra,9cf0 <printf>
    1bd0:	00081537          	lui	a0,0x81
    1bd4:	414b85b3          	sub	a1,s7,s4
    1bd8:	c0850513          	addi	a0,a0,-1016 # 80c08 <dw_int16xint8_dilation_output_shift+0x80>
    1bdc:	114080ef          	jal	ra,9cf0 <printf>
    1be0:	d0197553          	fcvt.s.wu	fa0,s2
    1be4:	000807b7          	lui	a5,0x80
    1be8:	d01477d3          	fcvt.s.wu	fa5,s0
    1bec:	18a7f7d3          	fdiv.s	fa5,fa5,fa0
    1bf0:	0007a507          	flw	fa0,0(a5) # 80000 <_DATA_VMA_START>
    1bf4:	10a7f553          	fmul.s	fa0,fa5,fa0
    1bf8:	3a8090ef          	jal	ra,afa0 <__extendsfdf2>
    1bfc:	862a                	c.mv	a2,a0
    1bfe:	00081537          	lui	a0,0x81
    1c02:	86ae                	c.mv	a3,a1
    1c04:	c2450513          	addi	a0,a0,-988 # 80c24 <dw_int16xint8_dilation_output_shift+0x9c>
    1c08:	0e8080ef          	jal	ra,9cf0 <printf>
    1c0c:	00081537          	lui	a0,0x81
    1c10:	013005b3          	add	a1,zero,s3
    1c14:	c4850513          	addi	a0,a0,-952 # 80c48 <dw_int16xint8_dilation_output_shift+0xc0>
    1c18:	0d8080ef          	jal	ra,9cf0 <printf>
    1c1c:	b7b5                	c.j	1b88 <conv_3x3_dilation_5x5_input_riscv_convolve_s8+0x124>
	...

00001c20 <int16xint8_dilation_1_riscv_convolve_s16>:
    1c20:	81010113          	addi	sp,sp,-2032
    1c24:	7e912223          	sw	s1,2020(sp)
    1c28:	6485                	c.lui	s1,0x1
    1c2a:	7e112623          	sw	ra,2028(sp)
    1c2e:	7e812423          	sw	s0,2024(sp)
    1c32:	7f212023          	sw	s2,2016(sp)
    1c36:	7d312e23          	sw	s3,2012(sp)
    1c3a:	7d412c23          	sw	s4,2008(sp)
    1c3e:	7d512a23          	sw	s5,2004(sp)
    1c42:	7d612823          	sw	s6,2000(sp)
    1c46:	7d712623          	sw	s7,1996(sp)
    1c4a:	7d812423          	sw	s8,1992(sp)
    1c4e:	7d912223          	sw	s9,1988(sp)
    1c52:	e1048493          	addi	s1,s1,-496 # e10 <pm_sleep_wakeup_ram.constprop.3+0x148>
    1c56:	92010113          	addi	sp,sp,-1760
    1c5a:	8626                	c.mv	a2,s1
    1c5c:	4581                	c.li	a1,0
    1c5e:	0908                	c.addi4spn	a0,sp,144
    1c60:	687070ef          	jal	ra,9ae6 <memset>
    1c64:	4785                	c.li	a5,1
    1c66:	6c85                	c.lui	s9,0x1
    1c68:	ccbe                	c.swsp	a5,88(sp)
    1c6a:	d8be                	c.swsp	a5,112(sp)
    1c6c:	dabe                	c.swsp	a5,116(sp)
    1c6e:	77e1                	c.lui	a5,0xffff8
    1c70:	747d                	c.lui	s0,0xfffff
    1c72:	c53e                	c.swsp	a5,136(sp)
    1c74:	ea0c8693          	addi	a3,s9,-352 # ea0 <pm_sleep_wakeup_ram.constprop.3+0x1d8>
    1c78:	67a1                	c.lui	a5,0x8
    1c7a:	968a                	c.add	a3,sp
    1c7c:	18840913          	addi	s2,s0,392 # fffff188 <_DATA_LMA_START+0xdfff3da8>
    1c80:	17fd                	c.addi	a5,-1
    1c82:	9936                	c.add	s2,a3
    1c84:	c73e                	c.swsp	a5,140(sp)
    1c86:	ea0c8693          	addi	a3,s9,-352
    1c8a:	968a                	c.add	a3,sp
    1c8c:	1a840a93          	addi	s5,s0,424
    1c90:	1b840a13          	addi	s4,s0,440
    1c94:	1c840993          	addi	s3,s0,456
    1c98:	2a86978b          	addigp	a5,45736 # 8baa8 <int16xint8_dilation_1_output_multiplier>
    1c9c:	9ab6                	c.add	s5,a3
    1c9e:	9a36                	c.add	s4,a3
    1ca0:	99b6                	c.add	s3,a3
    1ca2:	cc3e                	c.swsp	a5,24(sp)
    1ca4:	4709                	c.li	a4,2
    1ca6:	02000313          	li	t1,32
    1caa:	48f9                	c.li	a7,30
    1cac:	1b10180b          	addigp	a6,2480 # 811b0 <int16xint8_dilation_1_bias>
    1cb0:	2b06978b          	addigp	a5,45744 # 8bab0 <int16xint8_dilation_1_output_shift>
    1cb4:	86ca                	c.mv	a3,s2
    1cb6:	8656                	c.mv	a2,s5
    1cb8:	85d2                	c.mv	a1,s4
    1cba:	854e                	c.mv	a0,s3
    1cbc:	c842                	c.swsp	a6,16(sp)
    1cbe:	d09a                	c.swsp	t1,96(sp)
    1cc0:	ce9a                	c.swsp	t1,92(sp)
    1cc2:	d2ba                	c.swsp	a4,100(sp)
    1cc4:	c8ba                	c.swsp	a4,80(sp)
    1cc6:	c6ba                	c.swsp	a4,76(sp)
    1cc8:	d846                	c.swsp	a7,48(sp)
    1cca:	d646                	c.swsp	a7,44(sp)
    1ccc:	da3a                	c.swsp	a4,52(sp)
    1cce:	c13a                	c.swsp	a4,128(sp)
    1cd0:	c33a                	c.swsp	a4,132(sp)
    1cd2:	ce3e                	c.swsp	a5,28(sp)
    1cd4:	00010a23          	sb	zero,20(sp)
    1cd8:	dc82                	c.swsp	zero,120(sp)
    1cda:	de82                	c.swsp	zero,124(sp)
    1cdc:	d482                	c.swsp	zero,104(sp)
    1cde:	d682                	c.swsp	zero,108(sp)
    1ce0:	141010ef          	jal	ra,3620 <riscv_convolve_wrapper_s16_get_buffer_size>
    1ce4:	00a00b33          	add	s6,zero,a0
    1ce8:	6a9070ef          	jal	ra,9b90 <malloc>
    1cec:	02a12023          	sw	a0,32(sp)
    1cf0:	8f1ff0ef          	jal	ra,15e0 <reset_counters>
    1cf4:	851ff0ef          	jal	ra,1544 <fill_stack_pattern_to_sp>
    1cf8:	b0002c73          	csrr	s8,mcycle
    1cfc:	b0202bf3          	csrr	s7,minstret
    1d00:	ea0c8693          	addi	a3,s9,-352
    1d04:	ea0c8593          	addi	a1,s9,-352
    1d08:	ea0c8e13          	addi	t3,s9,-352
    1d0c:	968a                	c.add	a3,sp
    1d0e:	958a                	c.add	a1,sp
    1d10:	9e0a                	c.add	t3,sp
    1d12:	19840893          	addi	a7,s0,408
    1d16:	17840613          	addi	a2,s0,376
    1d1a:	18040513          	addi	a0,s0,384
    1d1e:	17040413          	addi	s0,s0,368
    1d22:	9436                	c.add	s0,a3
    1d24:	409684b3          	sub	s1,a3,s1
    1d28:	98b6                	c.add	a7,a3
    1d2a:	962e                	c.add	a2,a1
    1d2c:	0694180b          	addigp	a6,10344 # 83068 <int16xint8_dilation_1_weights>
    1d30:	87d6                	c.mv	a5,s5
    1d32:	1c10170b          	addigp	a4,2496 # 811c0 <int16xint8_dilation_1_input>
    1d36:	86d2                	c.mv	a3,s4
    1d38:	85ce                	c.mv	a1,s3
    1d3a:	9572                	c.add	a0,t3
    1d3c:	c426                	c.swsp	s1,8(sp)
    1d3e:	c24a                	c.swsp	s2,4(sp)
    1d40:	00812023          	sw	s0,0(sp)
    1d44:	27c010ef          	jal	ra,2fc0 <riscv_convolve_wrapper_s16>
    1d48:	b0002473          	csrr	s0,mcycle
    1d4c:	b02029f3          	csrr	s3,minstret
    1d50:	fb8ff0ef          	jal	ra,1508 <measure_stack_usage>
    1d54:	892a                	c.mv	s2,a0
    1d56:	5502                	c.lwsp	a0,32(sp)
    1d58:	2b86a4ab          	lwgp	s1,45752 # 8bab8 <_DATA_VMA_END>
    1d5c:	c911                	c.beqz	a0,1d70 <int16xint8_dilation_1_riscv_convolve_s16+0x150>
    1d5e:	865a                	c.mv	a2,s6
    1d60:	00000593          	li	a1,0
    1d64:	583070ef          	jal	ra,9ae6 <memset>
    1d68:	02012503          	lw	a0,32(sp)
    1d6c:	635070ef          	jal	ra,9ba0 <free>
    1d70:	0008b537          	lui	a0,0x8b
    1d74:	5f050513          	addi	a0,a0,1520 # 8b5f0 <int16xint8xint32_1_weights+0x20e8>
    1d78:	779070ef          	jal	ra,9cf0 <printf>
    1d7c:	6685                	c.lui	a3,0x1
    1d7e:	757d                	c.lui	a0,0xfffff
    1d80:	ea068693          	addi	a3,a3,-352 # ea0 <pm_sleep_wakeup_ram.constprop.3+0x1d8>
    1d84:	1f050513          	addi	a0,a0,496 # fffff1f0 <_DATA_LMA_START+0xdfff3e10>
    1d88:	968a                	c.add	a3,sp
    1d8a:	70800613          	li	a2,1800
    1d8e:	1c12158b          	addigp	a1,6592 # 821c0 <int16xint8_dilation_1_output>
    1d92:	9536                	c.add	a0,a3
    1d94:	8d1ff0ef          	jal	ra,1664 <validate_s16.lto_priv.15>
    1d98:	04051463          	bnez	a0,1de0 <int16xint8_dilation_1_riscv_convolve_s16+0x1c0>
    1d9c:	00083537          	lui	a0,0x83
    1da0:	01c50513          	addi	a0,a0,28 # 8301c <int16xint8_dilation_1_output+0xe5c>
    1da4:	74d070ef          	jal	ra,9cf0 <printf>
    1da8:	6e010113          	addi	sp,sp,1760
    1dac:	7ec12083          	lw	ra,2028(sp)
    1db0:	7e812403          	lw	s0,2024(sp)
    1db4:	7e412483          	lw	s1,2020(sp)
    1db8:	7e012903          	lw	s2,2016(sp)
    1dbc:	7dc12983          	lw	s3,2012(sp)
    1dc0:	7d812a03          	lw	s4,2008(sp)
    1dc4:	7d412a83          	lw	s5,2004(sp)
    1dc8:	7d012b03          	lw	s6,2000(sp)
    1dcc:	7cc12b83          	lw	s7,1996(sp)
    1dd0:	7c812c03          	lw	s8,1992(sp)
    1dd4:	7c412c83          	lw	s9,1988(sp)
    1dd8:	7f010113          	addi	sp,sp,2032
    1ddc:	00008067          	ret
    1de0:	00083537          	lui	a0,0x83
    1de4:	fd050513          	addi	a0,a0,-48 # 82fd0 <int16xint8_dilation_1_output+0xe10>
    1de8:	709070ef          	jal	ra,9cf0 <printf>
    1dec:	41840c33          	sub	s8,s0,s8
    1df0:	00081537          	lui	a0,0x81
    1df4:	018005b3          	add	a1,zero,s8
    1df8:	bf450513          	addi	a0,a0,-1036 # 80bf4 <dw_int16xint8_dilation_output_shift+0x6c>
    1dfc:	6f5070ef          	jal	ra,9cf0 <printf>
    1e00:	00081537          	lui	a0,0x81
    1e04:	417985b3          	sub	a1,s3,s7
    1e08:	c0850513          	addi	a0,a0,-1016 # 80c08 <dw_int16xint8_dilation_output_shift+0x80>
    1e0c:	6e5070ef          	jal	ra,9cf0 <printf>
    1e10:	d014f553          	fcvt.s.wu	fa0,s1
    1e14:	000807b7          	lui	a5,0x80
    1e18:	d01c77d3          	fcvt.s.wu	fa5,s8
    1e1c:	18a7f7d3          	fdiv.s	fa5,fa5,fa0
    1e20:	0007a507          	flw	fa0,0(a5) # 80000 <_DATA_VMA_START>
    1e24:	10a7f553          	fmul.s	fa0,fa5,fa0
    1e28:	178090ef          	jal	ra,afa0 <__extendsfdf2>
    1e2c:	862a                	c.mv	a2,a0
    1e2e:	00081537          	lui	a0,0x81
    1e32:	86ae                	c.mv	a3,a1
    1e34:	c2450513          	addi	a0,a0,-988 # 80c24 <dw_int16xint8_dilation_output_shift+0x9c>
    1e38:	6b9070ef          	jal	ra,9cf0 <printf>
    1e3c:	00081537          	lui	a0,0x81
    1e40:	012005b3          	add	a1,zero,s2
    1e44:	c4850513          	addi	a0,a0,-952 # 80c48 <dw_int16xint8_dilation_output_shift+0xc0>
    1e48:	6a9070ef          	jal	ra,9cf0 <printf>
    1e4c:	bfb1                	c.j	1da8 <int16xint8_dilation_1_riscv_convolve_s16+0x188>
	...

00001e50 <_write>:
    1e50:	1141                	c.addi	sp,-16
    1e52:	c606                	c.swsp	ra,12(sp)
    1e54:	c422                	c.swsp	s0,8(sp)
    1e56:	c226                	c.swsp	s1,4(sp)
    1e58:	c04a                	c.swsp	s2,0(sp)
    1e5a:	02c05763          	blez	a2,1e88 <_write+0x38>
    1e5e:	8932                	c.mv	s2,a2
    1e60:	00b00433          	add	s0,zero,a1
    1e64:	00c584b3          	add	s1,a1,a2
    1e68:	00044503          	lbu	a0,0(s0)
    1e6c:	00140413          	addi	s0,s0,1
    1e70:	d39fe0ef          	jal	ra,ba8 <dr_putchar>
    1e74:	fe941ae3          	bne	s0,s1,1e68 <_write+0x18>
    1e78:	40b2                	c.lwsp	ra,12(sp)
    1e7a:	4422                	c.lwsp	s0,8(sp)
    1e7c:	854a                	c.mv	a0,s2
    1e7e:	4492                	c.lwsp	s1,4(sp)
    1e80:	4902                	c.lwsp	s2,0(sp)
    1e82:	0141                	c.addi	sp,16
    1e84:	00008067          	ret
    1e88:	40b2                	c.lwsp	ra,12(sp)
    1e8a:	4422                	c.lwsp	s0,8(sp)
    1e8c:	4901                	c.li	s2,0
    1e8e:	854a                	c.mv	a0,s2
    1e90:	4492                	c.lwsp	s1,4(sp)
    1e92:	4902                	c.lwsp	s2,0(sp)
    1e94:	0141                	c.addi	sp,16
    1e96:	8082                	c.jr	ra

00001e98 <main>:
    1e98:	7169                	c.addi16sp	sp,-304
    1e9a:	ffbc07b7          	lui	a5,0xffbc0
    1e9e:	12112623          	sw	ra,300(sp)
    1ea2:	17fd                	c.addi	a5,-1
    1ea4:	80140737          	lui	a4,0x80140
    1ea8:	12812423          	sw	s0,296(sp)
    1eac:	12912223          	sw	s1,292(sp)
    1eb0:	13212023          	sw	s2,288(sp)
    1eb4:	11312e23          	sw	s3,284(sp)
    1eb8:	11412c23          	sw	s4,280(sp)
    1ebc:	11512a23          	sw	s5,276(sp)
    1ec0:	11612823          	sw	s6,272(sp)
    1ec4:	11712623          	sw	s7,268(sp)
    1ec8:	11812423          	sw	s8,264(sp)
    1ecc:	11912223          	sw	s9,260(sp)
    1ed0:	11a12023          	sw	s10,256(sp)
    1ed4:	ffa2                	c.fswsp	fs0,252(sp)
    1ed6:	1ef72023          	sw	a5,480(a4) # 801401e0 <_DATA_LMA_START+0x60134e00>
    1eda:	4589                	c.li	a1,2
    1edc:	08c00513          	li	a0,140
    1ee0:	1ef72223          	sw	a5,484(a4)
    1ee4:	8adfe0ef          	jal	ra,790 <analog_write_reg8>
    1ee8:	4581                	c.li	a1,0
    1eea:	4529                	c.li	a0,10
    1eec:	8a5fe0ef          	jal	ra,790 <analog_write_reg8>
    1ef0:	03b00593          	li	a1,59
    1ef4:	00b00513          	li	a0,11
    1ef8:	899fe0ef          	jal	ra,790 <analog_write_reg8>
    1efc:	00500513          	li	a0,5
    1f00:	8d5fe0ef          	jal	ra,7d4 <analog_read_reg8>
    1f04:	0f757593          	andi	a1,a0,247
    1f08:	00500513          	li	a0,5
    1f0c:	885fe0ef          	jal	ra,790 <analog_write_reg8>
    1f10:	00600513          	li	a0,6
    1f14:	8c1fe0ef          	jal	ra,7d4 <analog_read_reg8>
    1f18:	03e57593          	andi	a1,a0,62
    1f1c:	00600513          	li	a0,6
    1f20:	871fe0ef          	jal	ra,790 <analog_write_reg8>
    1f24:	04500593          	li	a1,69
    1f28:	00100513          	li	a0,1
    1f2c:	865fe0ef          	jal	ra,790 <analog_write_reg8>
    1f30:	04c00593          	li	a1,76
    1f34:	01c00513          	li	a0,28
    1f38:	859fe0ef          	jal	ra,790 <analog_write_reg8>
    1f3c:	801007b7          	lui	a5,0x80100
    1f40:	44478703          	lb	a4,1092(a5) # 80100444 <_DATA_LMA_START+0x600f5064>
    1f44:	801016b7          	lui	a3,0x80101
    1f48:	0ff77713          	andi	a4,a4,255
    1f4c:	00e76713          	ori	a4,a4,14
    1f50:	44e78223          	sb	a4,1092(a5)
    1f54:	45878703          	lb	a4,1112(a5)
    1f58:	03800513          	li	a0,56
    1f5c:	0ff77713          	andi	a4,a4,255
    1f60:	00e76713          	ori	a4,a4,14
    1f64:	44e78c23          	sb	a4,1112(a5)
    1f68:	46c78703          	lb	a4,1132(a5)
    1f6c:	0ff77713          	andi	a4,a4,255
    1f70:	00e76713          	ori	a4,a4,14
    1f74:	46e78623          	sb	a4,1132(a5)
    1f78:	48078703          	lb	a4,1152(a5)
    1f7c:	0ff77713          	andi	a4,a4,255
    1f80:	00e76713          	ori	a4,a4,14
    1f84:	48e78023          	sb	a4,1152(a5)
    1f88:	49478703          	lb	a4,1172(a5)
    1f8c:	0ff77713          	andi	a4,a4,255
    1f90:	00e76713          	ori	a4,a4,14
    1f94:	48e78a23          	sb	a4,1172(a5)
    1f98:	4a878703          	lb	a4,1192(a5)
    1f9c:	0ff77713          	andi	a4,a4,255
    1fa0:	00e76713          	ori	a4,a4,14
    1fa4:	4ae78423          	sb	a4,1192(a5)
    1fa8:	4bc78703          	lb	a4,1212(a5)
    1fac:	0ff77713          	andi	a4,a4,255
    1fb0:	00e76713          	ori	a4,a4,14
    1fb4:	4ae78e23          	sb	a4,1212(a5)
    1fb8:	4d078703          	lb	a4,1232(a5)
    1fbc:	0ff77713          	andi	a4,a4,255
    1fc0:	00e76713          	ori	a4,a4,14
    1fc4:	4ce78823          	sb	a4,1232(a5)
    1fc8:	83a68783          	lb	a5,-1990(a3) # 8010083a <_DATA_LMA_START+0x600f545a>
    1fcc:	82068d23          	sb	zero,-1990(a3)
    1fd0:	805fe0ef          	jal	ra,7d4 <analog_read_reg8>
    1fd4:	00a00433          	add	s0,zero,a0
    1fd8:	03900513          	li	a0,57
    1fdc:	ff8fe0ef          	jal	ra,7d4 <analog_read_reg8>
    1fe0:	84aa                	c.mv	s1,a0
    1fe2:	1804735b          	bbc	s0,0,2168 <main+0x2d0>
    1fe6:	0fe47593          	andi	a1,s0,254
    1fea:	2d46940b          	addigp	s0,45780 # 8bad4 <g_pm_status_info>
    1fee:	03800513          	li	a0,56
    1ff2:	1404fb5b          	bbc	s1,0,2148 <main+0x2b0>
    1ff6:	4791                	c.li	a5,4
    1ff8:	00f40123          	sb	a5,2(s0)
    1ffc:	f94fe0ef          	jal	ra,790 <analog_write_reg8>
    2000:	00100593          	li	a1,1
    2004:	07f00513          	li	a0,127
    2008:	f88fe0ef          	jal	ra,790 <analog_write_reg8>
    200c:	06400513          	li	a0,100
    2010:	fc4fe0ef          	jal	ra,7d4 <analog_read_reg8>
    2014:	0c3527db          	bfoz	a5,a0,3,3
    2018:	00a400a3          	sb	a0,1(s0)
    201c:	00f40023          	sb	a5,0(s0)
    2020:	08800513          	li	a0,136
    2024:	fb0fe0ef          	jal	ra,7d4 <analog_read_reg8>
    2028:	be757c5b          	bbc	a0,7,2020 <main+0x188>
    202c:	935fe0ef          	jal	ra,960 <pm_wait_bbpll_done>
    2030:	00244783          	lbu	a5,2(s0)
    2034:	0a87de5b          	beqc	a5,8,20f0 <main+0x258>
    2038:	80140737          	lui	a4,0x80140
    203c:	20a70783          	lb	a5,522(a4) # 8014020a <_DATA_LMA_START+0x60134e2a>
    2040:	0ff7f793          	andi	a5,a5,255
    2044:	00c7e793          	ori	a5,a5,12
    2048:	20f70523          	sb	a5,522(a4)
    204c:	00100793          	li	a5,1
    2050:	20f72023          	sw	a5,512(a4)
    2054:	801404b7          	lui	s1,0x80140
    2058:	1fd48783          	lb	a5,509(s1) # 801401fd <_DATA_LMA_START+0x60134e1d>
    205c:	0ff7f793          	andi	a5,a5,255
    2060:	2cf6c82b          	swgp	a5,45776 # 8bad0 <g_chip_version>
    2064:	00244703          	lbu	a4,2(s0)
    2068:	04475c5b          	beqc	a4,4,20c0 <main+0x228>
    206c:	0ff00693          	li	a3,255
    2070:	04d78063          	beq	a5,a3,20b0 <main+0x218>
    2074:	08000593          	li	a1,128
    2078:	07d00513          	li	a0,125
    207c:	f14fe0ef          	jal	ra,790 <analog_write_reg8>
    2080:	80140737          	lui	a4,0x80140
    2084:	06500793          	li	a5,101
    2088:	1ef70a23          	sb	a5,500(a4) # 801401f4 <_DATA_LMA_START+0x60134e14>
    208c:	1c872783          	lw	a5,456(a4)
    2090:	1e070a23          	sb	zero,500(a4)
    2094:	8bbd                	c.andi	a5,15
    2096:	0037d55b          	beqc	a5,3,20a0 <main+0x208>
    209a:	4725                	c.li	a4,9
    209c:	04f77e63          	bgeu	a4,a5,20f8 <main+0x260>
    20a0:	801407b7          	lui	a5,0x80140
    20a4:	02000713          	li	a4,32
    20a8:	1ee787a3          	sb	a4,495(a5) # 801401ef <_DATA_LMA_START+0x60134e0f>
    20ac:	0000006f          	j	20ac <main+0x214>
    20b0:	bc17625b          	bnec	a4,1,2074 <main+0x1dc>
    20b4:	07d00513          	li	a0,125
    20b8:	08000593          	li	a1,128
    20bc:	0180006f          	j	20d4 <main+0x23c>
    20c0:	03900513          	li	a0,57
    20c4:	f10fe0ef          	jal	ra,7d4 <analog_read_reg8>
    20c8:	00256593          	ori	a1,a0,2
    20cc:	0ff5f593          	andi	a1,a1,255
    20d0:	03900513          	li	a0,57
    20d4:	ebcfe0ef          	jal	ra,790 <analog_write_reg8>
    20d8:	2004a503          	lw	a0,512(s1)
    20dc:	001877b7          	lui	a5,0x187
    20e0:	a0078793          	addi	a5,a5,-1536 # 186a00 <FLASH_SIZE+0x86a00>
    20e4:	00f50533          	add	a0,a0,a5
    20e8:	b0cff0ef          	jal	ra,13f4 <pm_sleep_wakeup.constprop.2>
    20ec:	f89ff06f          	j	2074 <main+0x1dc>
    20f0:	a8cfe0ef          	jal	ra,37c <pm_stimer_recover>
    20f4:	f61ff06f          	j	2054 <main+0x1bc>
    20f8:	00f00513          	li	a0,15
    20fc:	ed8fe0ef          	jal	ra,7d4 <analog_read_reg8>
    2100:	03f57593          	andi	a1,a0,63
    2104:	0405e593          	ori	a1,a1,64
    2108:	00f00513          	li	a0,15
    210c:	e84fe0ef          	jal	ra,790 <analog_write_reg8>
    2110:	0960                	c.addi4spn	s0,sp,156
    2112:	85a2                	c.mv	a1,s0
    2114:	07010513          	addi	a0,sp,112
    2118:	93cff0ef          	jal	ra,1254 <flash_read_mid_uid_with_check>
    211c:	0ff57513          	andi	a0,a0,255
    2120:	0015545b          	beqc	a0,1,2128 <main+0x290>
    2124:	6850006f          	j	2fa8 <main+0x1110>
    2128:	07210783          	lb	a5,114(sp)
    212c:	4719                	c.li	a4,6
    212e:	17c1                	c.addi	a5,-16
    2130:	0ff7f793          	andi	a5,a5,255
    2134:	00f77463          	bgeu	a4,a5,213c <main+0x2a4>
    2138:	6710006f          	j	2fa8 <main+0x1110>
    213c:	811f970b          	addigp	a4,-2032 # 80010 <_DATA_VMA_START+0x10>
    2140:	0cf707db          	lea.w	a5,a4,a5
    2144:	439c                	c.lw	a5,0(a5)
    2146:	8782                	c.jr	a5
    2148:	00100793          	li	a5,1
    214c:	00f40123          	sb	a5,2(s0)
    2150:	e40fe0ef          	jal	ra,790 <analog_write_reg8>
    2154:	0014e593          	ori	a1,s1,1
    2158:	0ff5f593          	andi	a1,a1,255
    215c:	03900513          	li	a0,57
    2160:	e30fe0ef          	jal	ra,790 <analog_write_reg8>
    2164:	e9dff06f          	j	2000 <main+0x168>
    2168:	07f00513          	li	a0,127
    216c:	e68fe0ef          	jal	ra,7d4 <analog_read_reg8>
    2170:	2d46940b          	addigp	s0,45780 # 8bad4 <g_pm_status_info>
    2174:	4005745b          	bbs	a0,0,217c <main+0x2e4>
    2178:	5ad0006f          	j	2f24 <main+0x108c>
    217c:	0014f45b          	bbc	s1,1,2184 <main+0x2ec>
    2180:	58d0006f          	j	2f0c <main+0x1074>
    2184:	47c1                	c.li	a5,16
    2186:	00f40123          	sb	a5,2(s0)
    218a:	bd9d                	c.j	2000 <main+0x168>
    218c:	003fe537          	lui	a0,0x3fe
    2190:	0c050513          	addi	a0,a0,192 # 3fe0c0 <FLASH_SIZE+0x2fe0c0>
    2194:	a78ff0ef          	jal	ra,140c <user_calib_adc_vref.constprop.9>
    2198:	003fe537          	lui	a0,0x3fe
    219c:	bd0ff0ef          	jal	ra,156c <user_calib_freq_offset.constprop.8>
    21a0:	801404b7          	lui	s1,0x80140
    21a4:	a38ff0ef          	jal	ra,13dc <clock_init.constprop.10>
    21a8:	30e48783          	lb	a5,782(s1) # 8014030e <_DATA_LMA_START+0x60134f2e>
    21ac:	11000513          	li	a0,272
    21b0:	0ff7f793          	andi	a5,a5,255
    21b4:	0107e793          	ori	a5,a5,16
    21b8:	30f48723          	sb	a5,782(s1)
    21bc:	30a48783          	lb	a5,778(s1)
    21c0:	0ef7f793          	andi	a5,a5,239
    21c4:	30f48523          	sb	a5,778(s1)
    21c8:	bfcff0ef          	jal	ra,15c4 <gpio_input_dis>
    21cc:	30e48783          	lb	a5,782(s1)
    21d0:	12000513          	li	a0,288
    21d4:	0ff7f793          	andi	a5,a5,255
    21d8:	0207e793          	ori	a5,a5,32
    21dc:	30f48723          	sb	a5,782(s1)
    21e0:	30a48783          	lb	a5,778(s1)
    21e4:	0df7f793          	andi	a5,a5,223
    21e8:	30f48523          	sb	a5,778(s1)
    21ec:	bd8ff0ef          	jal	ra,15c4 <gpio_input_dis>
    21f0:	30e48783          	lb	a5,782(s1)
    21f4:	14000513          	li	a0,320
    21f8:	0ff7f793          	andi	a5,a5,255
    21fc:	0407e793          	ori	a5,a5,64
    2200:	30f48723          	sb	a5,782(s1)
    2204:	30a48783          	lb	a5,778(s1)
    2208:	0bf7f793          	andi	a5,a5,191
    220c:	30f48523          	sb	a5,778(s1)
    2210:	bb4ff0ef          	jal	ra,15c4 <gpio_input_dis>
    2214:	30e48783          	lb	a5,782(s1)
    2218:	18000513          	li	a0,384
    221c:	f807e793          	ori	a5,a5,-128
    2220:	0ff7f793          	andi	a5,a5,255
    2224:	30f48723          	sb	a5,782(s1)
    2228:	30a48783          	lb	a5,778(s1)
    222c:	07f7f793          	andi	a5,a5,127
    2230:	30f48523          	sb	a5,778(s1)
    2234:	b90ff0ef          	jal	ra,15c4 <gpio_input_dis>
    2238:	0008b537          	lui	a0,0x8b
    223c:	3f850513          	addi	a0,a0,1016 # 8b3f8 <int16xint8xint32_1_weights+0x1ef0>
    2240:	2cf070ef          	jal	ra,9d0e <puts>
    2244:	65a9                	c.lui	a1,0xa
    2246:	0008b537          	lui	a0,0x8b
    224a:	0585                	c.addi	a1,1
    224c:	3fc50513          	addi	a0,a0,1020 # 8b3fc <int16xint8xint32_1_weights+0x1ef4>
    2250:	2a1070ef          	jal	ra,9cf0 <printf>
    2254:	0008b537          	lui	a0,0x8b
    2258:	7e400593          	li	a1,2020
    225c:	41450513          	addi	a0,a0,1044 # 8b414 <int16xint8xint32_1_weights+0x1f0c>
    2260:	291070ef          	jal	ra,9cf0 <printf>
    2264:	0008b5b7          	lui	a1,0x8b
    2268:	0008b537          	lui	a0,0x8b
    226c:	42c58593          	addi	a1,a1,1068 # 8b42c <int16xint8xint32_1_weights+0x1f24>
    2270:	43850513          	addi	a0,a0,1080 # 8b438 <int16xint8xint32_1_weights+0x1f30>
    2274:	27d070ef          	jal	ra,9cf0 <printf>
    2278:	f89fd0ef          	jal	ra,200 <delay_ms.constprop.12>
    227c:	300027f3          	csrr	a5,mstatus
    2280:	0037f65b          	bbc	a5,3,228c <main+0x3f4>
    2284:	300477f3          	csrrci	a5,mstatus,8
    2288:	0ff0000f          	fence
    228c:	24e6a50b          	lbugp	a0,45646 # 8ba4e <sys_clk+0x2>
    2290:	495080ef          	jal	ra,af24 <__floatsidf>
    2294:	000807b7          	lui	a5,0x80
    2298:	00878793          	addi	a5,a5,8 # 80008 <_DATA_VMA_START+0x8>
    229c:	4390                	c.lw	a2,0(a5)
    229e:	43d4                	c.lw	a3,4(a5)
    22a0:	0008b9b7          	lui	s3,0x8b
    22a4:	59c080ef          	jal	ra,a840 <__muldf3>
    22a8:	2b869a0b          	addigp	s4,45752 # 8bab8 <_DATA_VMA_END>
    22ac:	3e1080ef          	jal	ra,ae8c <__fixunsdfsi>
    22b0:	00aa2023          	sw	a0,0(s4)
    22b4:	5f098513          	addi	a0,s3,1520 # 8b5f0 <int16xint8xint32_1_weights+0x20e8>
    22b8:	239070ef          	jal	ra,9cf0 <printf>
    22bc:	0008b537          	lui	a0,0x8b
    22c0:	46050513          	addi	a0,a0,1120 # 8b460 <int16xint8xint32_1_weights+0x1f58>
    22c4:	22d070ef          	jal	ra,9cf0 <printf>
    22c8:	5f098513          	addi	a0,s3,1520
    22cc:	225070ef          	jal	ra,9cf0 <printf>
    22d0:	000a2583          	lw	a1,0(s4)
    22d4:	0008b537          	lui	a0,0x8b
    22d8:	49c50513          	addi	a0,a0,1180 # 8b49c <int16xint8xint32_1_weights+0x1f94>
    22dc:	215070ef          	jal	ra,9cf0 <printf>
    22e0:	5f098513          	addi	a0,s3,1520
    22e4:	20d070ef          	jal	ra,9cf0 <printf>
    22e8:	0008b537          	lui	a0,0x8b
    22ec:	4bc50513          	addi	a0,a0,1212 # 8b4bc <int16xint8xint32_1_weights+0x1fb4>
    22f0:	201070ef          	jal	ra,9cf0 <printf>
    22f4:	4785                	c.li	a5,1
    22f6:	d83e                	c.swsp	a5,48(sp)
    22f8:	de3e                	c.swsp	a5,60(sp)
    22fa:	c6be                	c.swsp	a5,76(sp)
    22fc:	d6be                	c.swsp	a5,108(sp)
    22fe:	d33e                	c.swsp	a5,164(sp)
    2300:	d53e                	c.swsp	a5,168(sp)
    2302:	db3e                	c.swsp	a5,180(sp)
    2304:	dd3e                	c.swsp	a5,184(sp)
    2306:	08000793          	li	a5,128
    230a:	cf3e                	c.swsp	a5,156(sp)
    230c:	f8000793          	li	a5,-128
    2310:	df3e                	c.swsp	a5,188(sp)
    2312:	25c6978b          	addigp	a5,45660 # 8ba5c <basic_output_mult>
    2316:	d43e                	c.swsp	a5,40(sp)
    2318:	06010913          	addi	s2,sp,96
    231c:	1804                	c.addi4spn	s1,sp,48
    231e:	4321                	c.li	t1,8
    2320:	4815                	c.li	a6,5
    2322:	4891                	c.li	a7,4
    2324:	07f00713          	li	a4,127
    2328:	2606978b          	addigp	a5,45664 # 8ba60 <basic_output_shift>
    232c:	86ca                	c.mv	a3,s2
    232e:	0090                	c.addi4spn	a2,sp,64
    2330:	85a6                	c.mv	a1,s1
    2332:	da1a                	c.swsp	t1,52(sp)
    2334:	8522                	c.mv	a0,s0
    2336:	4309                	c.li	t1,2
    2338:	dc42                	c.swsp	a6,56(sp)
    233a:	c49a                	c.swsp	t1,72(sp)
    233c:	c2c6                	c.swsp	a7,68(sp)
    233e:	d4c6                	c.swsp	a7,104(sp)
    2340:	d2c2                	c.swsp	a6,100(sp)
    2342:	d13a                	c.swsp	a4,160(sp)
    2344:	c1ba                	c.swsp	a4,192(sp)
    2346:	d63e                	c.swsp	a5,44(sp)
    2348:	d882                	c.swsp	zero,112(sp)
    234a:	da82                	c.swsp	zero,116(sp)
    234c:	dc82                	c.swsp	zero,120(sp)
    234e:	de82                	c.swsp	zero,124(sp)
    2350:	c102                	c.swsp	zero,128(sp)
    2352:	d702                	c.swsp	zero,172(sp)
    2354:	0a012823          	sw	zero,176(sp)
    2358:	268020ef          	jal	ra,45c0 <riscv_convolve_wrapper_s8_get_buffer_size>
    235c:	00a00cb3          	add	s9,zero,a0
    2360:	031070ef          	jal	ra,9b90 <malloc>
    2364:	d202                	c.swsp	zero,36(sp)
    2366:	d02a                	c.swsp	a0,32(sp)
    2368:	a78ff0ef          	jal	ra,15e0 <reset_counters>
    236c:	9d8ff0ef          	jal	ra,1544 <fill_stack_pattern_to_sp>
    2370:	b0002b73          	csrr	s6,mcycle
    2374:	b0202af3          	csrr	s5,minstret
    2378:	07010e13          	addi	t3,sp,112
    237c:	2586930b          	addigp	t1,45656 # 8ba58 <basic_biases>
    2380:	05010893          	addi	a7,sp,80
    2384:	2646980b          	addigp	a6,45668 # 8ba64 <basic_weights>
    2388:	009c                	c.addi4spn	a5,sp,64
    238a:	83df970b          	addigp	a4,-1988 # 8003c <basic_input>
    238e:	86a6                	c.mv	a3,s1
    2390:	1030                	c.addi4spn	a2,sp,40
    2392:	85a2                	c.mv	a1,s0
    2394:	1008                	c.addi4spn	a0,sp,32
    2396:	c472                	c.swsp	t3,8(sp)
    2398:	c24a                	c.swsp	s2,4(sp)
    239a:	c01a                	c.swsp	t1,0(sp)
    239c:	429000ef          	jal	ra,2fc4 <riscv_convolve_wrapper_s8>
    23a0:	b00027f3          	csrr	a5,mcycle
    23a4:	b0202bf3          	csrr	s7,minstret
    23a8:	41678b33          	sub	s6,a5,s6
    23ac:	95cff0ef          	jal	ra,1508 <measure_stack_usage>
    23b0:	000a2783          	lw	a5,0(s4)
    23b4:	d01b7453          	fcvt.s.wu	fs0,s6
    23b8:	415b8bb3          	sub	s7,s7,s5
    23bc:	00080ab7          	lui	s5,0x80
    23c0:	d017f753          	fcvt.s.wu	fa4,a5
    23c4:	000aa787          	flw	fa5,0(s5) # 80000 <_DATA_VMA_START>
    23c8:	8c2a                	c.mv	s8,a0
    23ca:	5502                	c.lwsp	a0,32(sp)
    23cc:	18e47453          	fdiv.s	fs0,fs0,fa4
    23d0:	10f47453          	fmul.s	fs0,fs0,fa5
    23d4:	c911                	c.beqz	a0,23e8 <main+0x550>
    23d6:	8666                	c.mv	a2,s9
    23d8:	00000593          	li	a1,0
    23dc:	70a070ef          	jal	ra,9ae6 <memset>
    23e0:	02012503          	lw	a0,32(sp)
    23e4:	7bc070ef          	jal	ra,9ba0 <free>
    23e8:	5f098513          	addi	a0,s3,1520
    23ec:	105070ef          	jal	ra,9cf0 <printf>
    23f0:	4651                	c.li	a2,20
    23f2:	865f958b          	addigp	a1,-1948 # 80064 <basic_output_ref>
    23f6:	1888                	c.addi4spn	a0,sp,112
    23f8:	9f4ff0ef          	jal	ra,15ec <validate.lto_priv.13>
    23fc:	2a051ce3          	bnez	a0,2eb4 <main+0x101c>
    2400:	0008b537          	lui	a0,0x8b
    2404:	51850513          	addi	a0,a0,1304 # 8b518 <int16xint8xint32_1_weights+0x2010>
    2408:	0e9070ef          	jal	ra,9cf0 <printf>
    240c:	04800613          	li	a2,72
    2410:	4581                	c.li	a1,0
    2412:	8522                	c.mv	a0,s0
    2414:	6d2070ef          	jal	ra,9ae6 <memset>
    2418:	4789                	c.li	a5,2
    241a:	de3e                	c.swsp	a5,60(sp)
    241c:	c6be                	c.swsp	a5,76(sp)
    241e:	d6be                	c.swsp	a5,108(sp)
    2420:	c53e                	c.swsp	a5,136(sp)
    2422:	c73e                	c.swsp	a5,140(sp)
    2424:	08000793          	li	a5,128
    2428:	d8be                	c.swsp	a5,112(sp)
    242a:	f8000793          	li	a5,-128
    242e:	dabe                	c.swsp	a5,116(sp)
    2430:	fc300793          	li	a5,-61
    2434:	c93e                	c.swsp	a5,144(sp)
    2436:	06b00793          	li	a5,107
    243a:	cb3e                	c.swsp	a5,148(sp)
    243c:	2746978b          	addigp	a5,45684 # 8ba74 <conv_2x2_dilation_output_mult>
    2440:	d43e                	c.swsp	a5,40(sp)
    2442:	4705                	c.li	a4,1
    2444:	4329                	c.li	t1,10
    2446:	488d                	c.li	a7,3
    2448:	4819                	c.li	a6,6
    244a:	27c6978b          	addigp	a5,45692 # 8ba7c <conv_2x2_dilation_output_shift>
    244e:	86ca                	c.mv	a3,s2
    2450:	0090                	c.addi4spn	a2,sp,64
    2452:	85a6                	c.mv	a1,s1
    2454:	1888                	c.addi4spn	a0,sp,112
    2456:	d83a                	c.swsp	a4,48(sp)
    2458:	dc1a                	c.swsp	t1,56(sp)
    245a:	da1a                	c.swsp	t1,52(sp)
    245c:	c4c6                	c.swsp	a7,72(sp)
    245e:	c2c6                	c.swsp	a7,68(sp)
    2460:	d4c2                	c.swsp	a6,104(sp)
    2462:	d2c2                	c.swsp	a6,100(sp)
    2464:	dcba                	c.swsp	a4,120(sp)
    2466:	deba                	c.swsp	a4,124(sp)
    2468:	d63e                	c.swsp	a5,44(sp)
    246a:	c102                	c.swsp	zero,128(sp)
    246c:	08012223          	sw	zero,132(sp)
    2470:	150020ef          	jal	ra,45c0 <riscv_convolve_wrapper_s8_get_buffer_size>
    2474:	00a00cb3          	add	s9,zero,a0
    2478:	718070ef          	jal	ra,9b90 <malloc>
    247c:	d202                	c.swsp	zero,36(sp)
    247e:	d02a                	c.swsp	a0,32(sp)
    2480:	960ff0ef          	jal	ra,15e0 <reset_counters>
    2484:	8c0ff0ef          	jal	ra,1544 <fill_stack_pattern_to_sp>
    2488:	b0002b73          	csrr	s6,mcycle
    248c:	b0202bf3          	csrr	s7,minstret
    2490:	26c6930b          	addigp	t1,45676 # 8ba6c <conv_2x2_dilation_biases>
    2494:	05010893          	addi	a7,sp,80
    2498:	989f980b          	addigp	a6,-1656 # 80188 <conv_2x2_dilation_weights>
    249c:	009c                	c.addi4spn	a5,sp,64
    249e:	879f970b          	addigp	a4,-1928 # 80078 <conv_2x2_dilation_input>
    24a2:	86a6                	c.mv	a3,s1
    24a4:	1030                	c.addi4spn	a2,sp,40
    24a6:	188c                	c.addi4spn	a1,sp,112
    24a8:	1008                	c.addi4spn	a0,sp,32
    24aa:	c422                	c.swsp	s0,8(sp)
    24ac:	c24a                	c.swsp	s2,4(sp)
    24ae:	c01a                	c.swsp	t1,0(sp)
    24b0:	315000ef          	jal	ra,2fc4 <riscv_convolve_wrapper_s8>
    24b4:	b0002773          	csrr	a4,mcycle
    24b8:	b02027f3          	csrr	a5,minstret
    24bc:	41670b33          	sub	s6,a4,s6
    24c0:	41778bb3          	sub	s7,a5,s7
    24c4:	844ff0ef          	jal	ra,1508 <measure_stack_usage>
    24c8:	000a2783          	lw	a5,0(s4)
    24cc:	d01b7453          	fcvt.s.wu	fs0,s6
    24d0:	000aa787          	flw	fa5,0(s5)
    24d4:	8c2a                	c.mv	s8,a0
    24d6:	d017f753          	fcvt.s.wu	fa4,a5
    24da:	5502                	c.lwsp	a0,32(sp)
    24dc:	18e47453          	fdiv.s	fs0,fs0,fa4
    24e0:	10f47453          	fmul.s	fs0,fs0,fa5
    24e4:	c911                	c.beqz	a0,24f8 <main+0x660>
    24e6:	8666                	c.mv	a2,s9
    24e8:	00000593          	li	a1,0
    24ec:	5fa070ef          	jal	ra,9ae6 <memset>
    24f0:	02012503          	lw	a0,32(sp)
    24f4:	6ac070ef          	jal	ra,9ba0 <free>
    24f8:	5f098513          	addi	a0,s3,1520
    24fc:	7f4070ef          	jal	ra,9cf0 <printf>
    2500:	04800613          	li	a2,72
    2504:	941f958b          	addigp	a1,-1728 # 80140 <conv_2x2_dilation_output_ref>
    2508:	00800533          	add	a0,zero,s0
    250c:	8e0ff0ef          	jal	ra,15ec <validate.lto_priv.13>
    2510:	140516e3          	bnez	a0,2e5c <main+0xfc4>
    2514:	0008b537          	lui	a0,0x8b
    2518:	58c50513          	addi	a0,a0,1420 # 8b58c <int16xint8xint32_1_weights+0x2084>
    251c:	7d4070ef          	jal	ra,9cf0 <printf>
    2520:	d44ff0ef          	jal	ra,1a64 <conv_3x3_dilation_5x5_input_riscv_convolve_s8>
    2524:	5f098513          	addi	a0,s3,1520
    2528:	7c8070ef          	jal	ra,9cf0 <printf>
    252c:	0008b537          	lui	a0,0x8b
    2530:	5cc50513          	addi	a0,a0,1484 # 8b5cc <int16xint8xint32_1_weights+0x20c4>
    2534:	7bc070ef          	jal	ra,9cf0 <printf>
    2538:	05000613          	li	a2,80
    253c:	4581                	c.li	a1,0
    253e:	8522                	c.mv	a0,s0
    2540:	5a6070ef          	jal	ra,9ae6 <memset>
    2544:	4785                	c.li	a5,1
    2546:	d83e                	c.swsp	a5,48(sp)
    2548:	dcbe                	c.swsp	a5,120(sp)
    254a:	debe                	c.swsp	a5,124(sp)
    254c:	c53e                	c.swsp	a5,136(sp)
    254e:	c73e                	c.swsp	a5,140(sp)
    2550:	1910170b          	addigp	a4,2448 # 81190 <int16xint8_bias>
    2554:	77e1                	c.lui	a5,0xffff8
    2556:	d43a                	c.swsp	a4,40(sp)
    2558:	c93e                	c.swsp	a5,144(sp)
    255a:	4729                	c.li	a4,10
    255c:	67a1                	c.lui	a5,0x8
    255e:	dc3a                	c.swsp	a4,56(sp)
    2560:	17fd                	c.addi	a5,-1
    2562:	4721                	c.li	a4,8
    2564:	da3a                	c.swsp	a4,52(sp)
    2566:	cb3e                	c.swsp	a5,148(sp)
    2568:	03700713          	li	a4,55
    256c:	de3a                	c.swsp	a4,60(sp)
    256e:	3298178b          	addigp	a5,19240 # 85328 <int16xint8_output_multiplier>
    2572:	4725                	c.li	a4,9
    2574:	c4ba                	c.swsp	a4,72(sp)
    2576:	d03e                	c.swsp	a5,32(sp)
    2578:	4709                	c.li	a4,2
    257a:	4811                	c.li	a6,4
    257c:	3398178b          	addigp	a5,19256 # 85338 <int16xint8_output_shift>
    2580:	86ca                	c.mv	a3,s2
    2582:	0090                	c.addi4spn	a2,sp,64
    2584:	85a6                	c.mv	a1,s1
    2586:	d4ba                	c.swsp	a4,104(sp)
    2588:	1888                	c.addi4spn	a0,sp,112
    258a:	4715                	c.li	a4,5
    258c:	c2c2                	c.swsp	a6,68(sp)
    258e:	d2ba                	c.swsp	a4,100(sp)
    2590:	d6c2                	c.swsp	a6,108(sp)
    2592:	d23e                	c.swsp	a5,36(sp)
    2594:	02010623          	sb	zero,44(sp)
    2598:	c102                	c.swsp	zero,128(sp)
    259a:	c302                	c.swsp	zero,132(sp)
    259c:	d882                	c.swsp	zero,112(sp)
    259e:	da82                	c.swsp	zero,116(sp)
    25a0:	080010ef          	jal	ra,3620 <riscv_convolve_wrapper_s16_get_buffer_size>
    25a4:	00a00d33          	add	s10,zero,a0
    25a8:	5e8070ef          	jal	ra,9b90 <malloc>
    25ac:	00a12c23          	sw	a0,24(sp)
    25b0:	830ff0ef          	jal	ra,15e0 <reset_counters>
    25b4:	f91fe0ef          	jal	ra,1544 <fill_stack_pattern_to_sp>
    25b8:	b0002b73          	csrr	s6,mcycle
    25bc:	b0202bf3          	csrr	s7,minstret
    25c0:	02810e93          	addi	t4,sp,40
    25c4:	05010893          	addi	a7,sp,80
    25c8:	3498180b          	addigp	a6,19272 # 85348 <int16xint8_weights>
    25cc:	009c                	c.addi4spn	a5,sp,64
    25ce:	0794170b          	addigp	a4,10360 # 83078 <int16xint8_input>
    25d2:	86a6                	c.mv	a3,s1
    25d4:	1010                	c.addi4spn	a2,sp,32
    25d6:	188c                	c.addi4spn	a1,sp,112
    25d8:	0828                	c.addi4spn	a0,sp,24
    25da:	c422                	c.swsp	s0,8(sp)
    25dc:	c24a                	c.swsp	s2,4(sp)
    25de:	c076                	c.swsp	t4,0(sp)
    25e0:	1e1000ef          	jal	ra,2fc0 <riscv_convolve_wrapper_s16>
    25e4:	00a00cb3          	add	s9,zero,a0
    25e8:	b0002773          	csrr	a4,mcycle
    25ec:	b02027f3          	csrr	a5,minstret
    25f0:	41670b33          	sub	s6,a4,s6
    25f4:	41778bb3          	sub	s7,a5,s7
    25f8:	f11fe0ef          	jal	ra,1508 <measure_stack_usage>
    25fc:	000a2783          	lw	a5,0(s4)
    2600:	d01b7453          	fcvt.s.wu	fs0,s6
    2604:	000aa787          	flw	fa5,0(s5)
    2608:	8c2a                	c.mv	s8,a0
    260a:	d017f753          	fcvt.s.wu	fa4,a5
    260e:	4562                	c.lwsp	a0,24(sp)
    2610:	18e47453          	fdiv.s	fs0,fs0,fa4
    2614:	10f47453          	fmul.s	fs0,fs0,fa5
    2618:	c911                	c.beqz	a0,262c <main+0x794>
    261a:	866a                	c.mv	a2,s10
    261c:	00000593          	li	a1,0
    2620:	4c6070ef          	jal	ra,9ae6 <memset>
    2624:	01812503          	lw	a0,24(sp)
    2628:	578070ef          	jal	ra,9ba0 <free>
    262c:	5f098513          	addi	a0,s3,1520
    2630:	6c0070ef          	jal	ra,9cf0 <printf>
    2634:	000c9c63          	bnez	s9,264c <main+0x7b4>
    2638:	02800613          	li	a2,40
    263c:	2d98158b          	addigp	a1,19160 # 852d8 <int16xint8_output>
    2640:	00800533          	add	a0,zero,s0
    2644:	820ff0ef          	jal	ra,1664 <validate_s16.lto_priv.15>
    2648:	7a051e63          	bnez	a0,2e04 <main+0xf6c>
    264c:	0008b537          	lui	a0,0x8b
    2650:	62850513          	addi	a0,a0,1576 # 8b628 <int16xint8xint32_1_weights+0x2120>
    2654:	69c070ef          	jal	ra,9cf0 <printf>
    2658:	dc8ff0ef          	jal	ra,1c20 <int16xint8_dilation_1_riscv_convolve_s16>
    265c:	05000613          	li	a2,80
    2660:	4581                	c.li	a1,0
    2662:	8522                	c.mv	a0,s0
    2664:	482070ef          	jal	ra,9ae6 <memset>
    2668:	4785                	c.li	a5,1
    266a:	d83e                	c.swsp	a5,48(sp)
    266c:	dcbe                	c.swsp	a5,120(sp)
    266e:	debe                	c.swsp	a5,124(sp)
    2670:	c53e                	c.swsp	a5,136(sp)
    2672:	c73e                	c.swsp	a5,140(sp)
    2674:	4805                	c.li	a6,1
    2676:	77e1                	c.lui	a5,0xffff8
    2678:	03010623          	sb	a6,44(sp)
    267c:	c93e                	c.swsp	a5,144(sp)
    267e:	4829                	c.li	a6,10
    2680:	67a1                	c.lui	a5,0x8
    2682:	dc42                	c.swsp	a6,56(sp)
    2684:	17fd                	c.addi	a5,-1
    2686:	4821                	c.li	a6,8
    2688:	da42                	c.swsp	a6,52(sp)
    268a:	cb3e                	c.swsp	a5,148(sp)
    268c:	03700813          	li	a6,55
    2690:	de42                	c.swsp	a6,60(sp)
    2692:	4e90978b          	addigp	a5,36072 # 894e8 <int16xint8xint32_1_output_multiplier>
    2696:	4825                	c.li	a6,9
    2698:	c4c2                	c.swsp	a6,72(sp)
    269a:	d03e                	c.swsp	a5,32(sp)
    269c:	4809                	c.li	a6,2
    269e:	4711                	c.li	a4,4
    26a0:	4f90978b          	addigp	a5,36088 # 894f8 <int16xint8xint32_1_output_shift>
    26a4:	86ca                	c.mv	a3,s2
    26a6:	0090                	c.addi4spn	a2,sp,64
    26a8:	85a6                	c.mv	a1,s1
    26aa:	d4c2                	c.swsp	a6,104(sp)
    26ac:	1888                	c.addi4spn	a0,sp,112
    26ae:	4815                	c.li	a6,5
    26b0:	c2ba                	c.swsp	a4,68(sp)
    26b2:	d2c2                	c.swsp	a6,100(sp)
    26b4:	d6ba                	c.swsp	a4,108(sp)
    26b6:	d23e                	c.swsp	a5,36(sp)
    26b8:	d402                	c.swsp	zero,40(sp)
    26ba:	c102                	c.swsp	zero,128(sp)
    26bc:	c302                	c.swsp	zero,132(sp)
    26be:	d882                	c.swsp	zero,112(sp)
    26c0:	06012a23          	sw	zero,116(sp)
    26c4:	75d000ef          	jal	ra,3620 <riscv_convolve_wrapper_s16_get_buffer_size>
    26c8:	00a00cb3          	add	s9,zero,a0
    26cc:	4c4070ef          	jal	ra,9b90 <malloc>
    26d0:	00a12c23          	sw	a0,24(sp)
    26d4:	f0dfe0ef          	jal	ra,15e0 <reset_counters>
    26d8:	e6dfe0ef          	jal	ra,1544 <fill_stack_pattern_to_sp>
    26dc:	b0002b73          	csrr	s6,mcycle
    26e0:	b0202bf3          	csrr	s7,minstret
    26e4:	02810f13          	addi	t5,sp,40
    26e8:	05010893          	addi	a7,sp,80
    26ec:	5090980b          	addigp	a6,36104 # 89508 <int16xint8xint32_1_weights>
    26f0:	009c                	c.addi4spn	a5,sp,64
    26f2:	239c170b          	addigp	a4,27192 # 87238 <int16xint8xint32_1_input>
    26f6:	86a6                	c.mv	a3,s1
    26f8:	1010                	c.addi4spn	a2,sp,32
    26fa:	188c                	c.addi4spn	a1,sp,112
    26fc:	0828                	c.addi4spn	a0,sp,24
    26fe:	c422                	c.swsp	s0,8(sp)
    2700:	c24a                	c.swsp	s2,4(sp)
    2702:	c07a                	c.swsp	t5,0(sp)
    2704:	0bd000ef          	jal	ra,2fc0 <riscv_convolve_wrapper_s16>
    2708:	b0002773          	csrr	a4,mcycle
    270c:	b02027f3          	csrr	a5,minstret
    2710:	41670b33          	sub	s6,a4,s6
    2714:	41778bb3          	sub	s7,a5,s7
    2718:	df1fe0ef          	jal	ra,1508 <measure_stack_usage>
    271c:	000a2783          	lw	a5,0(s4)
    2720:	d01b7453          	fcvt.s.wu	fs0,s6
    2724:	000aa787          	flw	fa5,0(s5)
    2728:	8c2a                	c.mv	s8,a0
    272a:	d017f753          	fcvt.s.wu	fa4,a5
    272e:	4562                	c.lwsp	a0,24(sp)
    2730:	18e47453          	fdiv.s	fs0,fs0,fa4
    2734:	10f47453          	fmul.s	fs0,fs0,fa5
    2738:	c911                	c.beqz	a0,274c <main+0x8b4>
    273a:	8666                	c.mv	a2,s9
    273c:	00000593          	li	a1,0
    2740:	3a6070ef          	jal	ra,9ae6 <memset>
    2744:	01812503          	lw	a0,24(sp)
    2748:	458070ef          	jal	ra,9ba0 <free>
    274c:	5f098513          	addi	a0,s3,1520
    2750:	5a0070ef          	jal	ra,9cf0 <printf>
    2754:	02800613          	li	a2,40
    2758:	4990958b          	addigp	a1,35992 # 89498 <int16xint8xint32_1_output>
    275c:	00800533          	add	a0,zero,s0
    2760:	f05fe0ef          	jal	ra,1664 <validate_s16.lto_priv.15>
    2764:	64051463          	bnez	a0,2dac <main+0xf14>
    2768:	0008b537          	lui	a0,0x8b
    276c:	6a850513          	addi	a0,a0,1704 # 8b6a8 <int16xint8xint32_1_weights+0x21a0>
    2770:	580070ef          	jal	ra,9cf0 <printf>
    2774:	5f098513          	addi	a0,s3,1520
    2778:	578070ef          	jal	ra,9cf0 <printf>
    277c:	0008b537          	lui	a0,0x8b
    2780:	6f450513          	addi	a0,a0,1780 # 8b6f4 <int16xint8xint32_1_weights+0x21ec>
    2784:	56c070ef          	jal	ra,9cf0 <printf>
    2788:	05100613          	li	a2,81
    278c:	4581                	c.li	a1,0
    278e:	8522                	c.mv	a0,s0
    2790:	356070ef          	jal	ra,9ae6 <memset>
    2794:	478d                	c.li	a5,3
    2796:	de3e                	c.swsp	a5,60(sp)
    2798:	c4be                	c.swsp	a5,72(sp)
    279a:	d4be                	c.swsp	a5,104(sp)
    279c:	d2be                	c.swsp	a5,100(sp)
    279e:	dcbe                	c.swsp	a5,120(sp)
    27a0:	08000793          	li	a5,128
    27a4:	d8be                	c.swsp	a5,112(sp)
    27a6:	47bd                	c.li	a5,15
    27a8:	dabe                	c.swsp	a5,116(sp)
    27aa:	fb700793          	li	a5,-73
    27ae:	cb3e                	c.swsp	a5,148(sp)
    27b0:	07f00793          	li	a5,127
    27b4:	cd3e                	c.swsp	a5,152(sp)
    27b6:	4899                	c.li	a7,6
    27b8:	dc46                	c.swsp	a7,56(sp)
    27ba:	c79f978b          	addigp	a5,-904 # 80478 <depthwise_2_output_mult>
    27be:	4895                	c.li	a7,5
    27c0:	da46                	c.swsp	a7,52(sp)
    27c2:	d43e                	c.swsp	a5,40(sp)
    27c4:	4891                	c.li	a7,4
    27c6:	4705                	c.li	a4,1
    27c8:	4809                	c.li	a6,2
    27ca:	cf1f978b          	addigp	a5,-784 # 804f0 <depthwise_2_output_shift>
    27ce:	86ca                	c.mv	a3,s2
    27d0:	0090                	c.addi4spn	a2,sp,64
    27d2:	85a6                	c.mv	a1,s1
    27d4:	c2c6                	c.swsp	a7,68(sp)
    27d6:	1888                	c.addi4spn	a0,sp,112
    27d8:	48a5                	c.li	a7,9
    27da:	d83a                	c.swsp	a4,48(sp)
    27dc:	d6c6                	c.swsp	a7,108(sp)
    27de:	c53a                	c.swsp	a4,136(sp)
    27e0:	dec2                	c.swsp	a6,124(sp)
    27e2:	c142                	c.swsp	a6,128(sp)
    27e4:	c73a                	c.swsp	a4,140(sp)
    27e6:	c93a                	c.swsp	a4,144(sp)
    27e8:	d63e                	c.swsp	a5,44(sp)
    27ea:	c882                	c.swsp	zero,80(sp)
    27ec:	ca82                	c.swsp	zero,84(sp)
    27ee:	cc82                	c.swsp	zero,88(sp)
    27f0:	ce82                	c.swsp	zero,92(sp)
    27f2:	c302                	c.swsp	zero,132(sp)
    27f4:	788020ef          	jal	ra,4f7c <riscv_depthwise_conv_wrapper_s8_get_buffer_size>
    27f8:	00a00c33          	add	s8,zero,a0
    27fc:	394070ef          	jal	ra,9b90 <malloc>
    2800:	d262                	c.swsp	s8,36(sp)
    2802:	d02a                	c.swsp	a0,32(sp)
    2804:	dddfe0ef          	jal	ra,15e0 <reset_counters>
    2808:	d3dfe0ef          	jal	ra,1544 <fill_stack_pattern_to_sp>
    280c:	b0002b73          	csrr	s6,mcycle
    2810:	b0202bf3          	csrr	s7,minstret
    2814:	bf9f930b          	addigp	t1,-1032 # 803f8 <depthwise_2_biases>
    2818:	05010893          	addi	a7,sp,80
    281c:	d15f980b          	addigp	a6,-748 # 80514 <depthwise_2_weights>
    2820:	009c                	c.addi4spn	a5,sp,64
    2822:	c1df970b          	addigp	a4,-996 # 8041c <depthwise_2_input>
    2826:	86a6                	c.mv	a3,s1
    2828:	1030                	c.addi4spn	a2,sp,40
    282a:	188c                	c.addi4spn	a1,sp,112
    282c:	1008                	c.addi4spn	a0,sp,32
    282e:	c422                	c.swsp	s0,8(sp)
    2830:	c24a                	c.swsp	s2,4(sp)
    2832:	c01a                	c.swsp	t1,0(sp)
    2834:	5a5020ef          	jal	ra,55d8 <riscv_depthwise_conv_wrapper_s8>
    2838:	b0002773          	csrr	a4,mcycle
    283c:	b02027f3          	csrr	a5,minstret
    2840:	41670b33          	sub	s6,a4,s6
    2844:	41778bb3          	sub	s7,a5,s7
    2848:	cc1fe0ef          	jal	ra,1508 <measure_stack_usage>
    284c:	000a2783          	lw	a5,0(s4)
    2850:	d01b7453          	fcvt.s.wu	fs0,s6
    2854:	000aa787          	flw	fa5,0(s5)
    2858:	8caa                	c.mv	s9,a0
    285a:	d017f753          	fcvt.s.wu	fa4,a5
    285e:	5502                	c.lwsp	a0,32(sp)
    2860:	18e47453          	fdiv.s	fs0,fs0,fa4
    2864:	10f47453          	fmul.s	fs0,fs0,fa5
    2868:	c911                	c.beqz	a0,287c <main+0x9e4>
    286a:	8662                	c.mv	a2,s8
    286c:	00000593          	li	a1,0
    2870:	276070ef          	jal	ra,9ae6 <memset>
    2874:	02012503          	lw	a0,32(sp)
    2878:	328070ef          	jal	ra,9ba0 <free>
    287c:	5f098513          	addi	a0,s3,1520
    2880:	470070ef          	jal	ra,9cf0 <printf>
    2884:	05100613          	li	a2,81
    2888:	c9df958b          	addigp	a1,-868 # 8049c <depthwise_2_output_ref>
    288c:	00800533          	add	a0,zero,s0
    2890:	d5dfe0ef          	jal	ra,15ec <validate.lto_priv.13>
    2894:	4c051063          	bnez	a0,2d54 <main+0xebc>
    2898:	0008b537          	lui	a0,0x8b
    289c:	76450513          	addi	a0,a0,1892 # 8b764 <int16xint8xint32_1_weights+0x225c>
    28a0:	450070ef          	jal	ra,9cf0 <printf>
    28a4:	02400613          	li	a2,36
    28a8:	4581                	c.li	a1,0
    28aa:	1888                	c.addi4spn	a0,sp,112
    28ac:	23a070ef          	jal	ra,9ae6 <memset>
    28b0:	4789                	c.li	a5,2
    28b2:	d83e                	c.swsp	a5,48(sp)
    28b4:	c4be                	c.swsp	a5,72(sp)
    28b6:	d4be                	c.swsp	a5,104(sp)
    28b8:	d53e                	c.swsp	a5,168(sp)
    28ba:	d73e                	c.swsp	a5,172(sp)
    28bc:	08000793          	li	a5,128
    28c0:	cf3e                	c.swsp	a5,156(sp)
    28c2:	fd700793          	li	a5,-41
    28c6:	d13e                	c.swsp	a5,160(sp)
    28c8:	f8000793          	li	a5,-128
    28cc:	c1be                	c.swsp	a5,192(sp)
    28ce:	07f00793          	li	a5,127
    28d2:	c3be                	c.swsp	a5,196(sp)
    28d4:	e5df978b          	addigp	a5,-420 # 8065c <depthwise_mult_batches_output_mult>
    28d8:	d43e                	c.swsp	a5,40(sp)
    28da:	4895                	c.li	a7,5
    28dc:	480d                	c.li	a6,3
    28de:	4705                	c.li	a4,1
    28e0:	e8df978b          	addigp	a5,-372 # 8068c <depthwise_mult_batches_output_shift>
    28e4:	86ca                	c.mv	a3,s2
    28e6:	0090                	c.addi4spn	a2,sp,64
    28e8:	85a6                	c.mv	a1,s1
    28ea:	da46                	c.swsp	a7,52(sp)
    28ec:	8522                	c.mv	a0,s0
    28ee:	4891                	c.li	a7,4
    28f0:	dc42                	c.swsp	a6,56(sp)
    28f2:	de42                	c.swsp	a6,60(sp)
    28f4:	c2c6                	c.swsp	a7,68(sp)
    28f6:	d2c2                	c.swsp	a6,100(sp)
    28f8:	d6c2                	c.swsp	a6,108(sp)
    28fa:	db3a                	c.swsp	a4,180(sp)
    28fc:	dd3a                	c.swsp	a4,184(sp)
    28fe:	df3a                	c.swsp	a4,188(sp)
    2900:	d33a                	c.swsp	a4,164(sp)
    2902:	d63e                	c.swsp	a5,44(sp)
    2904:	c882                	c.swsp	zero,80(sp)
    2906:	ca82                	c.swsp	zero,84(sp)
    2908:	cc82                	c.swsp	zero,88(sp)
    290a:	ce82                	c.swsp	zero,92(sp)
    290c:	0a012823          	sw	zero,176(sp)
    2910:	66c020ef          	jal	ra,4f7c <riscv_depthwise_conv_wrapper_s8_get_buffer_size>
    2914:	00a00c33          	add	s8,zero,a0
    2918:	278070ef          	jal	ra,9b90 <malloc>
    291c:	d262                	c.swsp	s8,36(sp)
    291e:	d02a                	c.swsp	a0,32(sp)
    2920:	cc1fe0ef          	jal	ra,15e0 <reset_counters>
    2924:	c21fe0ef          	jal	ra,1544 <fill_stack_pattern_to_sp>
    2928:	b0002b73          	csrr	s6,mcycle
    292c:	b0202bf3          	csrr	s7,minstret
    2930:	07010f93          	addi	t6,sp,112
    2934:	df5f930b          	addigp	t1,-524 # 805f4 <depthwise_mult_batches_biases>
    2938:	05010893          	addi	a7,sp,80
    293c:	e99f980b          	addigp	a6,-360 # 80698 <depthwise_mult_batches_weights>
    2940:	009c                	c.addi4spn	a5,sp,64
    2942:	e01f970b          	addigp	a4,-512 # 80600 <depthwise_mult_batches_input>
    2946:	86a6                	c.mv	a3,s1
    2948:	1030                	c.addi4spn	a2,sp,40
    294a:	85a2                	c.mv	a1,s0
    294c:	1008                	c.addi4spn	a0,sp,32
    294e:	c47e                	c.swsp	t6,8(sp)
    2950:	c24a                	c.swsp	s2,4(sp)
    2952:	c01a                	c.swsp	t1,0(sp)
    2954:	485020ef          	jal	ra,55d8 <riscv_depthwise_conv_wrapper_s8>
    2958:	b0002773          	csrr	a4,mcycle
    295c:	b02027f3          	csrr	a5,minstret
    2960:	41670b33          	sub	s6,a4,s6
    2964:	41778bb3          	sub	s7,a5,s7
    2968:	ba1fe0ef          	jal	ra,1508 <measure_stack_usage>
    296c:	000a2783          	lw	a5,0(s4)
    2970:	d01b7453          	fcvt.s.wu	fs0,s6
    2974:	000aa787          	flw	fa5,0(s5)
    2978:	8caa                	c.mv	s9,a0
    297a:	d017f753          	fcvt.s.wu	fa4,a5
    297e:	5502                	c.lwsp	a0,32(sp)
    2980:	18e47453          	fdiv.s	fs0,fs0,fa4
    2984:	10f47453          	fmul.s	fs0,fs0,fa5
    2988:	c911                	c.beqz	a0,299c <main+0xb04>
    298a:	8662                	c.mv	a2,s8
    298c:	00000593          	li	a1,0
    2990:	156070ef          	jal	ra,9ae6 <memset>
    2994:	02012503          	lw	a0,32(sp)
    2998:	208070ef          	jal	ra,9ba0 <free>
    299c:	5f098513          	addi	a0,s3,1520
    29a0:	350070ef          	jal	ra,9cf0 <printf>
    29a4:	02400613          	li	a2,36
    29a8:	e69f958b          	addigp	a1,-408 # 80668 <depthwise_mult_batches_output_ref>
    29ac:	07010513          	addi	a0,sp,112
    29b0:	c3dfe0ef          	jal	ra,15ec <validate.lto_priv.13>
    29b4:	34051463          	bnez	a0,2cfc <main+0xe64>
    29b8:	0008b537          	lui	a0,0x8b
    29bc:	7f050513          	addi	a0,a0,2032 # 8b7f0 <int16xint8xint32_1_weights+0x22e8>
    29c0:	330070ef          	jal	ra,9cf0 <printf>
    29c4:	03100613          	li	a2,49
    29c8:	4581                	c.li	a1,0
    29ca:	8522                	c.mv	a0,s0
    29cc:	11a070ef          	jal	ra,9ae6 <memset>
    29d0:	4785                	c.li	a5,1
    29d2:	d83e                	c.swsp	a5,48(sp)
    29d4:	de3e                	c.swsp	a5,60(sp)
    29d6:	d6be                	c.swsp	a5,108(sp)
    29d8:	debe                	c.swsp	a5,124(sp)
    29da:	c13e                	c.swsp	a5,128(sp)
    29dc:	dcbe                	c.swsp	a5,120(sp)
    29de:	08000793          	li	a5,128
    29e2:	d8be                	c.swsp	a5,112(sp)
    29e4:	f9500793          	li	a5,-107
    29e8:	dabe                	c.swsp	a5,116(sp)
    29ea:	fba00793          	li	a5,-70
    29ee:	cb3e                	c.swsp	a5,148(sp)
    29f0:	07f00793          	li	a5,127
    29f4:	cd3e                	c.swsp	a5,152(sp)
    29f6:	2a06978b          	addigp	a5,45728 # 8baa0 <depthwise_dilation_output_mult>
    29fa:	d43e                	c.swsp	a5,40(sp)
    29fc:	481d                	c.li	a6,7
    29fe:	4709                	c.li	a4,2
    2a00:	488d                	c.li	a7,3
    2a02:	2a46978b          	addigp	a5,45732 # 8baa4 <depthwise_dilation_output_shift>
    2a06:	86ca                	c.mv	a3,s2
    2a08:	0090                	c.addi4spn	a2,sp,64
    2a0a:	85a6                	c.mv	a1,s1
    2a0c:	1888                	c.addi4spn	a0,sp,112
    2a0e:	dc42                	c.swsp	a6,56(sp)
    2a10:	da42                	c.swsp	a6,52(sp)
    2a12:	c4c6                	c.swsp	a7,72(sp)
    2a14:	c2c6                	c.swsp	a7,68(sp)
    2a16:	d4c2                	c.swsp	a6,104(sp)
    2a18:	d2c2                	c.swsp	a6,100(sp)
    2a1a:	c33a                	c.swsp	a4,132(sp)
    2a1c:	c53a                	c.swsp	a4,136(sp)
    2a1e:	c73a                	c.swsp	a4,140(sp)
    2a20:	c93a                	c.swsp	a4,144(sp)
    2a22:	d63e                	c.swsp	a5,44(sp)
    2a24:	c882                	c.swsp	zero,80(sp)
    2a26:	ca82                	c.swsp	zero,84(sp)
    2a28:	cc82                	c.swsp	zero,88(sp)
    2a2a:	ce82                	c.swsp	zero,92(sp)
    2a2c:	550020ef          	jal	ra,4f7c <riscv_depthwise_conv_wrapper_s8_get_buffer_size>
    2a30:	00a00c33          	add	s8,zero,a0
    2a34:	15c070ef          	jal	ra,9b90 <malloc>
    2a38:	d262                	c.swsp	s8,36(sp)
    2a3a:	d02a                	c.swsp	a0,32(sp)
    2a3c:	ba5fe0ef          	jal	ra,15e0 <reset_counters>
    2a40:	b05fe0ef          	jal	ra,1544 <fill_stack_pattern_to_sp>
    2a44:	b0002b73          	csrr	s6,mcycle
    2a48:	b0202bf3          	csrr	s7,minstret
    2a4c:	29c6930b          	addigp	t1,45724 # 8ba9c <depthwise_dilation_biases>
    2a50:	05010893          	addi	a7,sp,80
    2a54:	de9f980b          	addigp	a6,-536 # 805e8 <depthwise_dilation_weights>
    2a58:	009c                	c.addi4spn	a5,sp,64
    2a5a:	d81f970b          	addigp	a4,-640 # 80580 <depthwise_dilation_input>
    2a5e:	86a6                	c.mv	a3,s1
    2a60:	1030                	c.addi4spn	a2,sp,40
    2a62:	188c                	c.addi4spn	a1,sp,112
    2a64:	1008                	c.addi4spn	a0,sp,32
    2a66:	c422                	c.swsp	s0,8(sp)
    2a68:	c24a                	c.swsp	s2,4(sp)
    2a6a:	c01a                	c.swsp	t1,0(sp)
    2a6c:	36d020ef          	jal	ra,55d8 <riscv_depthwise_conv_wrapper_s8>
    2a70:	b0002773          	csrr	a4,mcycle
    2a74:	b02027f3          	csrr	a5,minstret
    2a78:	41670b33          	sub	s6,a4,s6
    2a7c:	41778bb3          	sub	s7,a5,s7
    2a80:	a89fe0ef          	jal	ra,1508 <measure_stack_usage>
    2a84:	000a2783          	lw	a5,0(s4)
    2a88:	d01b7453          	fcvt.s.wu	fs0,s6
    2a8c:	000aa787          	flw	fa5,0(s5)
    2a90:	8caa                	c.mv	s9,a0
    2a92:	d017f753          	fcvt.s.wu	fa4,a5
    2a96:	5502                	c.lwsp	a0,32(sp)
    2a98:	18e47453          	fdiv.s	fs0,fs0,fa4
    2a9c:	10f47453          	fmul.s	fs0,fs0,fa5
    2aa0:	c911                	c.beqz	a0,2ab4 <main+0xc1c>
    2aa2:	8662                	c.mv	a2,s8
    2aa4:	00000593          	li	a1,0
    2aa8:	03e070ef          	jal	ra,9ae6 <memset>
    2aac:	02012503          	lw	a0,32(sp)
    2ab0:	0f0070ef          	jal	ra,9ba0 <free>
    2ab4:	5f098513          	addi	a0,s3,1520
    2ab8:	238070ef          	jal	ra,9cf0 <printf>
    2abc:	03100613          	li	a2,49
    2ac0:	db5f958b          	addigp	a1,-588 # 805b4 <depthwise_dilation_output_ref>
    2ac4:	00800533          	add	a0,zero,s0
    2ac8:	b25fe0ef          	jal	ra,15ec <validate.lto_priv.13>
    2acc:	18051063          	bnez	a0,2c4c <main+0xdb4>
    2ad0:	0008c537          	lui	a0,0x8c
    2ad4:	88450513          	addi	a0,a0,-1916 # 8b884 <int16xint8xint32_1_weights+0x237c>
    2ad8:	218070ef          	jal	ra,9cf0 <printf>
    2adc:	5f098513          	addi	a0,s3,1520
    2ae0:	210070ef          	jal	ra,9cf0 <printf>
    2ae4:	0008c537          	lui	a0,0x8c
    2ae8:	8cc50513          	addi	a0,a0,-1844 # 8b8cc <int16xint8xint32_1_weights+0x23c4>
    2aec:	204070ef          	jal	ra,9cf0 <printf>
    2af0:	db5fe0ef          	jal	ra,18a4 <dw_int16xint8_riscv_depthwise_conv_s16>
    2af4:	4785                	c.li	a5,1
    2af6:	c0be                	c.swsp	a5,64(sp)
    2af8:	dcbe                	c.swsp	a5,120(sp)
    2afa:	dabe                	c.swsp	a5,116(sp)
    2afc:	dd3e                	c.swsp	a5,184(sp)
    2afe:	df3e                	c.swsp	a5,188(sp)
    2b00:	77e1                	c.lui	a5,0xffff8
    2b02:	0785                	c.addi	a5,1
    2b04:	c1be                	c.swsp	a5,192(sp)
    2b06:	67a1                	c.lui	a5,0x8
    2b08:	17fd                	c.addi	a5,-1
    2b0a:	c3be                	c.swsp	a5,196(sp)
    2b0c:	7280178b          	addigp	a5,1832 # 80f28 <dw_int16xint8_mult4_output_mult>
    2b10:	d43e                	c.swsp	a5,40(sp)
    2b12:	4315                	c.li	t1,5
    2b14:	4711                	c.li	a4,4
    2b16:	4809                	c.li	a6,2
    2b18:	488d                	c.li	a7,3
    2b1a:	7580178b          	addigp	a5,1880 # 80f58 <dw_int16xint8_mult4_output_shift>
    2b1e:	1894                	c.addi4spn	a3,sp,112
    2b20:	0890                	c.addi4spn	a2,sp,80
    2b22:	008c                	c.addi4spn	a1,sp,64
    2b24:	c29a                	c.swsp	t1,68(sp)
    2b26:	8522                	c.mv	a0,s0
    2b28:	4321                	c.li	t1,8
    2b2a:	c4ba                	c.swsp	a4,72(sp)
    2b2c:	c6c2                	c.swsp	a6,76(sp)
    2b2e:	ccc6                	c.swsp	a7,88(sp)
    2b30:	caba                	c.swsp	a4,84(sp)
    2b32:	de9a                	c.swsp	t1,124(sp)
    2b34:	d546                	c.swsp	a7,168(sp)
    2b36:	d742                	c.swsp	a6,172(sp)
    2b38:	d33a                	c.swsp	a4,164(sp)
    2b3a:	d63e                	c.swsp	a5,44(sp)
    2b3c:	d802                	c.swsp	zero,48(sp)
    2b3e:	da02                	c.swsp	zero,52(sp)
    2b40:	dc02                	c.swsp	zero,56(sp)
    2b42:	de02                	c.swsp	zero,60(sp)
    2b44:	d082                	c.swsp	zero,96(sp)
    2b46:	d282                	c.swsp	zero,100(sp)
    2b48:	d482                	c.swsp	zero,104(sp)
    2b4a:	d682                	c.swsp	zero,108(sp)
    2b4c:	d902                	c.swsp	zero,176(sp)
    2b4e:	db02                	c.swsp	zero,180(sp)
    2b50:	cf02                	c.swsp	zero,156(sp)
    2b52:	d102                	c.swsp	zero,160(sp)
    2b54:	5d8000ef          	jal	ra,312c <riscv_depthwise_conv_wrapper_s16_get_buffer_size>
    2b58:	00a00bb3          	add	s7,zero,a0
    2b5c:	034070ef          	jal	ra,9b90 <malloc>
    2b60:	d25e                	c.swsp	s7,36(sp)
    2b62:	d02a                	c.swsp	a0,32(sp)
    2b64:	a7dfe0ef          	jal	ra,15e0 <reset_counters>
    2b68:	9ddfe0ef          	jal	ra,1544 <fill_stack_pattern_to_sp>
    2b6c:	b0002c73          	csrr	s8,mcycle
    2b70:	b0202b73          	csrr	s6,minstret
    2b74:	85a2                	c.mv	a1,s0
    2b76:	6980130b          	addigp	t1,1688 # 80e98 <dw_int16xint8_mult4_biases>
    2b7a:	88ca                	c.mv	a7,s2
    2b7c:	7780180b          	addigp	a6,1912 # 80f78 <dw_int16xint8_mult4_weights>
    2b80:	089c                	c.addi4spn	a5,sp,80
    2b82:	6d80170b          	addigp	a4,1752 # 80ed8 <dw_int16xint8_mult4_input>
    2b86:	0094                	c.addi4spn	a3,sp,64
    2b88:	1030                	c.addi4spn	a2,sp,40
    2b8a:	1008                	c.addi4spn	a0,sp,32
    2b8c:	1880                	c.addi4spn	s0,sp,112
    2b8e:	c426                	c.swsp	s1,8(sp)
    2b90:	c222                	c.swsp	s0,4(sp)
    2b92:	c01a                	c.swsp	t1,0(sp)
    2b94:	31d020ef          	jal	ra,56b0 <riscv_depthwise_conv_wrapper_s16>
    2b98:	b0002973          	csrr	s2,mcycle
    2b9c:	b02027f3          	csrr	a5,minstret
    2ba0:	41678b33          	sub	s6,a5,s6
    2ba4:	965fe0ef          	jal	ra,1508 <measure_stack_usage>
    2ba8:	000a2783          	lw	a5,0(s4)
    2bac:	41890933          	sub	s2,s2,s8
    2bb0:	d01977d3          	fcvt.s.wu	fa5,s2
    2bb4:	000aa407          	flw	fs0,0(s5)
    2bb8:	8c2a                	c.mv	s8,a0
    2bba:	d017f753          	fcvt.s.wu	fa4,a5
    2bbe:	5502                	c.lwsp	a0,32(sp)
    2bc0:	18e7f7d3          	fdiv.s	fa5,fa5,fa4
    2bc4:	1087f453          	fmul.s	fs0,fa5,fs0
    2bc8:	c911                	c.beqz	a0,2bdc <main+0xd44>
    2bca:	865e                	c.mv	a2,s7
    2bcc:	00000593          	li	a1,0
    2bd0:	717060ef          	jal	ra,9ae6 <memset>
    2bd4:	02012503          	lw	a0,32(sp)
    2bd8:	7c9060ef          	jal	ra,9ba0 <free>
    2bdc:	5f098513          	addi	a0,s3,1520
    2be0:	110070ef          	jal	ra,9cf0 <printf>
    2be4:	4621                	c.li	a2,8
    2be6:	7480158b          	addigp	a1,1864 # 80f48 <dw_int16xint8_mult4_output_ref>
    2bea:	8526                	c.mv	a0,s1
    2bec:	a79fe0ef          	jal	ra,1664 <validate_s16.lto_priv.15>
    2bf0:	0a051a63          	bnez	a0,2ca4 <main+0xe0c>
    2bf4:	0008c537          	lui	a0,0x8c
    2bf8:	94850513          	addi	a0,a0,-1720 # 8b948 <int16xint8xint32_1_weights+0x2440>
    2bfc:	0f4070ef          	jal	ra,9cf0 <printf>
    2c00:	addfe0ef          	jal	ra,16dc <dw_int16xint8_dilation_riscv_depthwise_conv_s16>
    2c04:	0008c537          	lui	a0,0x8c
    2c08:	99050513          	addi	a0,a0,-1648 # 8b990 <int16xint8xint32_1_weights+0x2488>
    2c0c:	0e4070ef          	jal	ra,9cf0 <printf>
    2c10:	df0fd0ef          	jal	ra,200 <delay_ms.constprop.12>
    2c14:	12c12083          	lw	ra,300(sp)
    2c18:	12812403          	lw	s0,296(sp)
    2c1c:	12412483          	lw	s1,292(sp)
    2c20:	12012903          	lw	s2,288(sp)
    2c24:	11c12983          	lw	s3,284(sp)
    2c28:	11812a03          	lw	s4,280(sp)
    2c2c:	11412a83          	lw	s5,276(sp)
    2c30:	11012b03          	lw	s6,272(sp)
    2c34:	10c12b83          	lw	s7,268(sp)
    2c38:	10812c03          	lw	s8,264(sp)
    2c3c:	10412c83          	lw	s9,260(sp)
    2c40:	10012d03          	lw	s10,256(sp)
    2c44:	747e                	c.flwsp	fs0,252(sp)
    2c46:	4501                	c.li	a0,0
    2c48:	6155                	c.addi16sp	sp,304
    2c4a:	8082                	c.jr	ra
    2c4c:	0008c537          	lui	a0,0x8c
    2c50:	83c50513          	addi	a0,a0,-1988 # 8b83c <int16xint8xint32_1_weights+0x2334>
    2c54:	09c070ef          	jal	ra,9cf0 <printf>
    2c58:	00081537          	lui	a0,0x81
    2c5c:	016005b3          	add	a1,zero,s6
    2c60:	bf450513          	addi	a0,a0,-1036 # 80bf4 <dw_int16xint8_dilation_output_shift+0x6c>
    2c64:	08c070ef          	jal	ra,9cf0 <printf>
    2c68:	00081537          	lui	a0,0x81
    2c6c:	017005b3          	add	a1,zero,s7
    2c70:	c0850513          	addi	a0,a0,-1016 # 80c08 <dw_int16xint8_dilation_output_shift+0x80>
    2c74:	07c070ef          	jal	ra,9cf0 <printf>
    2c78:	20840553          	fmv.s	fa0,fs0
    2c7c:	324080ef          	jal	ra,afa0 <__extendsfdf2>
    2c80:	862a                	c.mv	a2,a0
    2c82:	00081537          	lui	a0,0x81
    2c86:	86ae                	c.mv	a3,a1
    2c88:	c2450513          	addi	a0,a0,-988 # 80c24 <dw_int16xint8_dilation_output_shift+0x9c>
    2c8c:	064070ef          	jal	ra,9cf0 <printf>
    2c90:	00081537          	lui	a0,0x81
    2c94:	019005b3          	add	a1,zero,s9
    2c98:	c4850513          	addi	a0,a0,-952 # 80c48 <dw_int16xint8_dilation_output_shift+0xc0>
    2c9c:	054070ef          	jal	ra,9cf0 <printf>
    2ca0:	e3dff06f          	j	2adc <main+0xc44>
    2ca4:	0008c537          	lui	a0,0x8c
    2ca8:	90050513          	addi	a0,a0,-1792 # 8b900 <int16xint8xint32_1_weights+0x23f8>
    2cac:	044070ef          	jal	ra,9cf0 <printf>
    2cb0:	00081537          	lui	a0,0x81
    2cb4:	012005b3          	add	a1,zero,s2
    2cb8:	bf450513          	addi	a0,a0,-1036 # 80bf4 <dw_int16xint8_dilation_output_shift+0x6c>
    2cbc:	034070ef          	jal	ra,9cf0 <printf>
    2cc0:	00081537          	lui	a0,0x81
    2cc4:	016005b3          	add	a1,zero,s6
    2cc8:	c0850513          	addi	a0,a0,-1016 # 80c08 <dw_int16xint8_dilation_output_shift+0x80>
    2ccc:	024070ef          	jal	ra,9cf0 <printf>
    2cd0:	20840553          	fmv.s	fa0,fs0
    2cd4:	2cc080ef          	jal	ra,afa0 <__extendsfdf2>
    2cd8:	862a                	c.mv	a2,a0
    2cda:	00081537          	lui	a0,0x81
    2cde:	86ae                	c.mv	a3,a1
    2ce0:	c2450513          	addi	a0,a0,-988 # 80c24 <dw_int16xint8_dilation_output_shift+0x9c>
    2ce4:	00c070ef          	jal	ra,9cf0 <printf>
    2ce8:	00081537          	lui	a0,0x81
    2cec:	018005b3          	add	a1,zero,s8
    2cf0:	c4850513          	addi	a0,a0,-952 # 80c48 <dw_int16xint8_dilation_output_shift+0xc0>
    2cf4:	7fd060ef          	jal	ra,9cf0 <printf>
    2cf8:	f09ff06f          	j	2c00 <main+0xd68>
    2cfc:	0008b537          	lui	a0,0x8b
    2d00:	7a450513          	addi	a0,a0,1956 # 8b7a4 <int16xint8xint32_1_weights+0x229c>
    2d04:	7ed060ef          	jal	ra,9cf0 <printf>
    2d08:	00081537          	lui	a0,0x81
    2d0c:	016005b3          	add	a1,zero,s6
    2d10:	bf450513          	addi	a0,a0,-1036 # 80bf4 <dw_int16xint8_dilation_output_shift+0x6c>
    2d14:	7dd060ef          	jal	ra,9cf0 <printf>
    2d18:	00081537          	lui	a0,0x81
    2d1c:	017005b3          	add	a1,zero,s7
    2d20:	c0850513          	addi	a0,a0,-1016 # 80c08 <dw_int16xint8_dilation_output_shift+0x80>
    2d24:	7cd060ef          	jal	ra,9cf0 <printf>
    2d28:	20840553          	fmv.s	fa0,fs0
    2d2c:	274080ef          	jal	ra,afa0 <__extendsfdf2>
    2d30:	862a                	c.mv	a2,a0
    2d32:	00081537          	lui	a0,0x81
    2d36:	86ae                	c.mv	a3,a1
    2d38:	c2450513          	addi	a0,a0,-988 # 80c24 <dw_int16xint8_dilation_output_shift+0x9c>
    2d3c:	7b5060ef          	jal	ra,9cf0 <printf>
    2d40:	00081537          	lui	a0,0x81
    2d44:	019005b3          	add	a1,zero,s9
    2d48:	c4850513          	addi	a0,a0,-952 # 80c48 <dw_int16xint8_dilation_output_shift+0xc0>
    2d4c:	7a5060ef          	jal	ra,9cf0 <printf>
    2d50:	c75ff06f          	j	29c4 <main+0xb2c>
    2d54:	0008b537          	lui	a0,0x8b
    2d58:	72450513          	addi	a0,a0,1828 # 8b724 <int16xint8xint32_1_weights+0x221c>
    2d5c:	795060ef          	jal	ra,9cf0 <printf>
    2d60:	00081537          	lui	a0,0x81
    2d64:	016005b3          	add	a1,zero,s6
    2d68:	bf450513          	addi	a0,a0,-1036 # 80bf4 <dw_int16xint8_dilation_output_shift+0x6c>
    2d6c:	785060ef          	jal	ra,9cf0 <printf>
    2d70:	00081537          	lui	a0,0x81
    2d74:	017005b3          	add	a1,zero,s7
    2d78:	c0850513          	addi	a0,a0,-1016 # 80c08 <dw_int16xint8_dilation_output_shift+0x80>
    2d7c:	775060ef          	jal	ra,9cf0 <printf>
    2d80:	20840553          	fmv.s	fa0,fs0
    2d84:	21c080ef          	jal	ra,afa0 <__extendsfdf2>
    2d88:	862a                	c.mv	a2,a0
    2d8a:	00081537          	lui	a0,0x81
    2d8e:	86ae                	c.mv	a3,a1
    2d90:	c2450513          	addi	a0,a0,-988 # 80c24 <dw_int16xint8_dilation_output_shift+0x9c>
    2d94:	75d060ef          	jal	ra,9cf0 <printf>
    2d98:	00081537          	lui	a0,0x81
    2d9c:	019005b3          	add	a1,zero,s9
    2da0:	c4850513          	addi	a0,a0,-952 # 80c48 <dw_int16xint8_dilation_output_shift+0xc0>
    2da4:	74d060ef          	jal	ra,9cf0 <printf>
    2da8:	afdff06f          	j	28a4 <main+0xa0c>
    2dac:	0008b537          	lui	a0,0x8b
    2db0:	65c50513          	addi	a0,a0,1628 # 8b65c <int16xint8xint32_1_weights+0x2154>
    2db4:	73d060ef          	jal	ra,9cf0 <printf>
    2db8:	00081537          	lui	a0,0x81
    2dbc:	016005b3          	add	a1,zero,s6
    2dc0:	bf450513          	addi	a0,a0,-1036 # 80bf4 <dw_int16xint8_dilation_output_shift+0x6c>
    2dc4:	72d060ef          	jal	ra,9cf0 <printf>
    2dc8:	00081537          	lui	a0,0x81
    2dcc:	017005b3          	add	a1,zero,s7
    2dd0:	c0850513          	addi	a0,a0,-1016 # 80c08 <dw_int16xint8_dilation_output_shift+0x80>
    2dd4:	71d060ef          	jal	ra,9cf0 <printf>
    2dd8:	20840553          	fmv.s	fa0,fs0
    2ddc:	1c4080ef          	jal	ra,afa0 <__extendsfdf2>
    2de0:	862a                	c.mv	a2,a0
    2de2:	00081537          	lui	a0,0x81
    2de6:	86ae                	c.mv	a3,a1
    2de8:	c2450513          	addi	a0,a0,-988 # 80c24 <dw_int16xint8_dilation_output_shift+0x9c>
    2dec:	705060ef          	jal	ra,9cf0 <printf>
    2df0:	00081537          	lui	a0,0x81
    2df4:	018005b3          	add	a1,zero,s8
    2df8:	c4850513          	addi	a0,a0,-952 # 80c48 <dw_int16xint8_dilation_output_shift+0xc0>
    2dfc:	6f5060ef          	jal	ra,9cf0 <printf>
    2e00:	975ff06f          	j	2774 <main+0x8dc>
    2e04:	0008b537          	lui	a0,0x8b
    2e08:	5f450513          	addi	a0,a0,1524 # 8b5f4 <int16xint8xint32_1_weights+0x20ec>
    2e0c:	6e5060ef          	jal	ra,9cf0 <printf>
    2e10:	00081537          	lui	a0,0x81
    2e14:	016005b3          	add	a1,zero,s6
    2e18:	bf450513          	addi	a0,a0,-1036 # 80bf4 <dw_int16xint8_dilation_output_shift+0x6c>
    2e1c:	6d5060ef          	jal	ra,9cf0 <printf>
    2e20:	00081537          	lui	a0,0x81
    2e24:	017005b3          	add	a1,zero,s7
    2e28:	c0850513          	addi	a0,a0,-1016 # 80c08 <dw_int16xint8_dilation_output_shift+0x80>
    2e2c:	6c5060ef          	jal	ra,9cf0 <printf>
    2e30:	20840553          	fmv.s	fa0,fs0
    2e34:	16c080ef          	jal	ra,afa0 <__extendsfdf2>
    2e38:	862a                	c.mv	a2,a0
    2e3a:	00081537          	lui	a0,0x81
    2e3e:	86ae                	c.mv	a3,a1
    2e40:	c2450513          	addi	a0,a0,-988 # 80c24 <dw_int16xint8_dilation_output_shift+0x9c>
    2e44:	6ad060ef          	jal	ra,9cf0 <printf>
    2e48:	00081537          	lui	a0,0x81
    2e4c:	018005b3          	add	a1,zero,s8
    2e50:	c4850513          	addi	a0,a0,-952 # 80c48 <dw_int16xint8_dilation_output_shift+0xc0>
    2e54:	69d060ef          	jal	ra,9cf0 <printf>
    2e58:	801ff06f          	j	2658 <main+0x7c0>
    2e5c:	0008b537          	lui	a0,0x8b
    2e60:	54c50513          	addi	a0,a0,1356 # 8b54c <int16xint8xint32_1_weights+0x2044>
    2e64:	68d060ef          	jal	ra,9cf0 <printf>
    2e68:	00081537          	lui	a0,0x81
    2e6c:	016005b3          	add	a1,zero,s6
    2e70:	bf450513          	addi	a0,a0,-1036 # 80bf4 <dw_int16xint8_dilation_output_shift+0x6c>
    2e74:	67d060ef          	jal	ra,9cf0 <printf>
    2e78:	00081537          	lui	a0,0x81
    2e7c:	017005b3          	add	a1,zero,s7
    2e80:	c0850513          	addi	a0,a0,-1016 # 80c08 <dw_int16xint8_dilation_output_shift+0x80>
    2e84:	66d060ef          	jal	ra,9cf0 <printf>
    2e88:	20840553          	fmv.s	fa0,fs0
    2e8c:	114080ef          	jal	ra,afa0 <__extendsfdf2>
    2e90:	862a                	c.mv	a2,a0
    2e92:	00081537          	lui	a0,0x81
    2e96:	86ae                	c.mv	a3,a1
    2e98:	c2450513          	addi	a0,a0,-988 # 80c24 <dw_int16xint8_dilation_output_shift+0x9c>
    2e9c:	655060ef          	jal	ra,9cf0 <printf>
    2ea0:	00081537          	lui	a0,0x81
    2ea4:	018005b3          	add	a1,zero,s8
    2ea8:	c4850513          	addi	a0,a0,-952 # 80c48 <dw_int16xint8_dilation_output_shift+0xc0>
    2eac:	645060ef          	jal	ra,9cf0 <printf>
    2eb0:	e70ff06f          	j	2520 <main+0x688>
    2eb4:	0008b537          	lui	a0,0x8b
    2eb8:	4e450513          	addi	a0,a0,1252 # 8b4e4 <int16xint8xint32_1_weights+0x1fdc>
    2ebc:	635060ef          	jal	ra,9cf0 <printf>
    2ec0:	00081537          	lui	a0,0x81
    2ec4:	016005b3          	add	a1,zero,s6
    2ec8:	bf450513          	addi	a0,a0,-1036 # 80bf4 <dw_int16xint8_dilation_output_shift+0x6c>
    2ecc:	625060ef          	jal	ra,9cf0 <printf>
    2ed0:	00081537          	lui	a0,0x81
    2ed4:	017005b3          	add	a1,zero,s7
    2ed8:	c0850513          	addi	a0,a0,-1016 # 80c08 <dw_int16xint8_dilation_output_shift+0x80>
    2edc:	615060ef          	jal	ra,9cf0 <printf>
    2ee0:	20840553          	fmv.s	fa0,fs0
    2ee4:	0bc080ef          	jal	ra,afa0 <__extendsfdf2>
    2ee8:	862a                	c.mv	a2,a0
    2eea:	00081537          	lui	a0,0x81
    2eee:	86ae                	c.mv	a3,a1
    2ef0:	c2450513          	addi	a0,a0,-988 # 80c24 <dw_int16xint8_dilation_output_shift+0x9c>
    2ef4:	5fd060ef          	jal	ra,9cf0 <printf>
    2ef8:	00081537          	lui	a0,0x81
    2efc:	018005b3          	add	a1,zero,s8
    2f00:	c4850513          	addi	a0,a0,-952 # 80c48 <dw_int16xint8_dilation_output_shift+0xc0>
    2f04:	5ed060ef          	jal	ra,9cf0 <printf>
    2f08:	d04ff06f          	j	240c <main+0x574>
    2f0c:	02000793          	li	a5,32
    2f10:	0fd4f593          	andi	a1,s1,253
    2f14:	03900513          	li	a0,57
    2f18:	00f40123          	sb	a5,2(s0)
    2f1c:	875fd0ef          	jal	ra,790 <analog_write_reg8>
    2f20:	8e0ff06f          	j	2000 <main+0x168>
    2f24:	00800793          	li	a5,8
    2f28:	00f40123          	sb	a5,2(s0)
    2f2c:	8d4ff06f          	j	2000 <main+0x168>
    2f30:	001fe537          	lui	a0,0x1fe
    2f34:	0c050513          	addi	a0,a0,192 # 1fe0c0 <FLASH_SIZE+0xfe0c0>
    2f38:	cd4fe0ef          	jal	ra,140c <user_calib_adc_vref.constprop.9>
    2f3c:	001fe537          	lui	a0,0x1fe
    2f40:	e2cfe0ef          	jal	ra,156c <user_calib_freq_offset.constprop.8>
    2f44:	a5cff06f          	j	21a0 <main+0x308>
    2f48:	000fe537          	lui	a0,0xfe
    2f4c:	0c050513          	addi	a0,a0,192 # fe0c0 <_STACK_TOP+0x5e0c0>
    2f50:	cbcfe0ef          	jal	ra,140c <user_calib_adc_vref.constprop.9>
    2f54:	000fe537          	lui	a0,0xfe
    2f58:	e14fe0ef          	jal	ra,156c <user_calib_freq_offset.constprop.8>
    2f5c:	a44ff06f          	j	21a0 <main+0x308>
    2f60:	0007e537          	lui	a0,0x7e
    2f64:	0c050513          	addi	a0,a0,192 # 7e0c0 <BIN_SIZE+0x67206>
    2f68:	ca4fe0ef          	jal	ra,140c <user_calib_adc_vref.constprop.9>
    2f6c:	0007e537          	lui	a0,0x7e
    2f70:	dfcfe0ef          	jal	ra,156c <user_calib_freq_offset.constprop.8>
    2f74:	a2cff06f          	j	21a0 <main+0x308>
    2f78:	0001e537          	lui	a0,0x1e
    2f7c:	0c050513          	addi	a0,a0,192 # 1e0c0 <BIN_SIZE+0x7206>
    2f80:	c8cfe0ef          	jal	ra,140c <user_calib_adc_vref.constprop.9>
    2f84:	0001e537          	lui	a0,0x1e
    2f88:	de4fe0ef          	jal	ra,156c <user_calib_freq_offset.constprop.8>
    2f8c:	a14ff06f          	j	21a0 <main+0x308>
    2f90:	0000e537          	lui	a0,0xe
    2f94:	0c050513          	addi	a0,a0,192 # e0c0 <_RAMCODE_VMA_END+0x2e30>
    2f98:	c74fe0ef          	jal	ra,140c <user_calib_adc_vref.constprop.9>
    2f9c:	0000e537          	lui	a0,0xe
    2fa0:	dccfe0ef          	jal	ra,156c <user_calib_freq_offset.constprop.8>
    2fa4:	9fcff06f          	j	21a0 <main+0x308>
    2fa8:	00000513          	li	a0,0
    2fac:	c60fe0ef          	jal	ra,140c <user_calib_adc_vref.constprop.9>
    2fb0:	9f0ff06f          	j	21a0 <main+0x308>
    2fb4:	0001                	c.nop
	...

00002fb8 <default_irq_entry>:
    2fb8:	a001                	c.j	2fb8 <default_irq_entry>

00002fba <trap_handler>:
    2fba:	a001                	c.j	2fba <trap_handler>
    2fbc:	0001                	c.nop
	...

00002fc0 <riscv_convolve_wrapper_s16>:
    2fc0:	a275                	c.j	316c <riscv_convolve_s16>
	...

00002fc4 <riscv_convolve_wrapper_s8>:
    2fc4:	7179                	c.addi16sp	sp,-48
    2fc6:	0105a283          	lw	t0,16(a1)
    2fca:	d422                	c.swsp	s0,40(sp)
    2fcc:	d226                	c.swsp	s1,36(sp)
    2fce:	d04a                	c.swsp	s2,32(sp)
    2fd0:	ce4e                	c.swsp	s3,28(sp)
    2fd2:	cc52                	c.swsp	s4,24(sp)
    2fd4:	d606                	c.swsp	ra,44(sp)
    2fd6:	ca56                	c.swsp	s5,20(sp)
    2fd8:	c85a                	c.swsp	s6,16(sp)
    2fda:	5942                	c.lwsp	s2,48(sp)
    2fdc:	59d2                	c.lwsp	s3,52(sp)
    2fde:	5a62                	c.lwsp	s4,56(sp)
    2fe0:	832e                	c.mv	t1,a1
    2fe2:	83aa                	c.mv	t2,a0
    2fe4:	8432                	c.mv	s0,a2
    2fe6:	8e36                	c.mv	t3,a3
    2fe8:	84ba                	c.mv	s1,a4
    2fea:	8ebe                	c.mv	t4,a5
    2fec:	8f42                	c.mv	t5,a6
    2fee:	8fc6                	c.mv	t6,a7
    2ff0:	00029663          	bnez	t0,2ffc <riscv_convolve_wrapper_s8+0x38>
    2ff4:	0145a283          	lw	t0,20(a1)
    2ff8:	04028863          	beqz	t0,3048 <riscv_convolve_wrapper_s8+0x84>
    2ffc:	004e2783          	lw	a5,4(t3)
    3000:	00100713          	li	a4,1
    3004:	00e79a63          	bne	a5,a4,3018 <riscv_convolve_wrapper_s8+0x54>
    3008:	01832703          	lw	a4,24(t1)
    300c:	00f71663          	bne	a4,a5,3018 <riscv_convolve_wrapper_s8+0x54>
    3010:	004ea783          	lw	a5,4(t4)
    3014:	06e78263          	beq	a5,a4,3078 <riscv_convolve_wrapper_s8+0xb4>
    3018:	8726                	c.mv	a4,s1
    301a:	8622                	c.mv	a2,s0
    301c:	88fe                	c.mv	a7,t6
    301e:	887a                	c.mv	a6,t5
    3020:	87f6                	c.mv	a5,t4
    3022:	86f2                	c.mv	a3,t3
    3024:	851e                	c.mv	a0,t2
    3026:	859a                	c.mv	a1,t1
    3028:	c652                	c.swsp	s4,12(sp)
    302a:	c44e                	c.swsp	s3,8(sp)
    302c:	c04a                	c.swsp	s2,0(sp)
    302e:	c202                	c.swsp	zero,4(sp)
    3030:	145000ef          	jal	ra,3974 <riscv_convolve_s8>
    3034:	50b2                	c.lwsp	ra,44(sp)
    3036:	5422                	c.lwsp	s0,40(sp)
    3038:	5492                	c.lwsp	s1,36(sp)
    303a:	5902                	c.lwsp	s2,32(sp)
    303c:	49f2                	c.lwsp	s3,28(sp)
    303e:	4a62                	c.lwsp	s4,24(sp)
    3040:	4ad2                	c.lwsp	s5,20(sp)
    3042:	4b42                	c.lwsp	s6,16(sp)
    3044:	6145                	c.addi16sp	sp,48
    3046:	8082                	c.jr	ra
    3048:	0087a283          	lw	t0,8(a5) # 8008 <riscv_depthwise_conv_3x3_s8+0x778>
    304c:	00100a93          	li	s5,1
    3050:	fb5296e3          	bne	t0,s5,2ffc <riscv_convolve_wrapper_s8+0x38>
    3054:	0047aa83          	lw	s5,4(a5)
    3058:	fa5a92e3          	bne	s5,t0,2ffc <riscv_convolve_wrapper_s8+0x38>
    305c:	0185a283          	lw	t0,24(a1)
    3060:	fb529ce3          	bne	t0,s5,3018 <riscv_convolve_wrapper_s8+0x54>
    3064:	01c5aa83          	lw	s5,28(a1)
    3068:	045a8a63          	beq	s5,t0,30bc <riscv_convolve_wrapper_s8+0xf8>
    306c:	004e2703          	lw	a4,4(t3)
    3070:	00100793          	li	a5,1
    3074:	faf712e3          	bne	a4,a5,3018 <riscv_convolve_wrapper_s8+0x54>
    3078:	00ce2703          	lw	a4,12(t3)
    307c:	00832783          	lw	a5,8(t1)
    3080:	02f707b3          	mul	a5,a4,a5
    3084:	8b8d                	c.andi	a5,3
    3086:	fbc9                	c.bnez	a5,3018 <riscv_convolve_wrapper_s8+0x54>
    3088:	00cea783          	lw	a5,12(t4)
    308c:	f8f716e3          	bne	a4,a5,3018 <riscv_convolve_wrapper_s8+0x54>
    3090:	8622                	c.mv	a2,s0
    3092:	5422                	c.lwsp	s0,40(sp)
    3094:	dc52                	c.swsp	s4,56(sp)
    3096:	da4e                	c.swsp	s3,52(sp)
    3098:	d84a                	c.swsp	s2,48(sp)
    309a:	50b2                	c.lwsp	ra,44(sp)
    309c:	5902                	c.lwsp	s2,32(sp)
    309e:	49f2                	c.lwsp	s3,28(sp)
    30a0:	4a62                	c.lwsp	s4,24(sp)
    30a2:	4ad2                	c.lwsp	s5,20(sp)
    30a4:	4b42                	c.lwsp	s6,16(sp)
    30a6:	8726                	c.mv	a4,s1
    30a8:	5492                	c.lwsp	s1,36(sp)
    30aa:	88fe                	c.mv	a7,t6
    30ac:	887a                	c.mv	a6,t5
    30ae:	87f6                	c.mv	a5,t4
    30b0:	86f2                	c.mv	a3,t3
    30b2:	859a                	c.mv	a1,t1
    30b4:	851e                	c.mv	a0,t2
    30b6:	6145                	c.addi16sp	sp,48
    30b8:	68c0206f          	j	5744 <riscv_convolve_1_x_n_s8>
    30bc:	00c7a283          	lw	t0,12(a5)
    30c0:	00c6ab03          	lw	s6,12(a3)
    30c4:	fa5b14e3          	bne	s6,t0,306c <riscv_convolve_wrapper_s8+0xa8>
    30c8:	0085a283          	lw	t0,8(a1)
    30cc:	01529663          	bne	t0,s5,30d8 <riscv_convolve_wrapper_s8+0x114>
    30d0:	00c5aa83          	lw	s5,12(a1)
    30d4:	025a8863          	beq	s5,t0,3104 <riscv_convolve_wrapper_s8+0x140>
    30d8:	8622                	c.mv	a2,s0
    30da:	5422                	c.lwsp	s0,40(sp)
    30dc:	dc52                	c.swsp	s4,56(sp)
    30de:	da4e                	c.swsp	s3,52(sp)
    30e0:	d84a                	c.swsp	s2,48(sp)
    30e2:	50b2                	c.lwsp	ra,44(sp)
    30e4:	5902                	c.lwsp	s2,32(sp)
    30e6:	49f2                	c.lwsp	s3,28(sp)
    30e8:	4a62                	c.lwsp	s4,24(sp)
    30ea:	4ad2                	c.lwsp	s5,20(sp)
    30ec:	4b42                	c.lwsp	s6,16(sp)
    30ee:	8726                	c.mv	a4,s1
    30f0:	5492                	c.lwsp	s1,36(sp)
    30f2:	88fe                	c.mv	a7,t6
    30f4:	887a                	c.mv	a6,t5
    30f6:	87f6                	c.mv	a5,t4
    30f8:	86f2                	c.mv	a3,t3
    30fa:	859a                	c.mv	a1,t1
    30fc:	851e                	c.mv	a0,t2
    30fe:	6145                	c.addi16sp	sp,48
    3100:	3b40206f          	j	54b4 <riscv_convolve_1x1_s8>
    3104:	5422                	c.lwsp	s0,40(sp)
    3106:	50b2                	c.lwsp	ra,44(sp)
    3108:	5492                	c.lwsp	s1,36(sp)
    310a:	5902                	c.lwsp	s2,32(sp)
    310c:	49f2                	c.lwsp	s3,28(sp)
    310e:	4a62                	c.lwsp	s4,24(sp)
    3110:	4ad2                	c.lwsp	s5,20(sp)
    3112:	4b42                	c.lwsp	s6,16(sp)
    3114:	6145                	c.addi16sp	sp,48
    3116:	ab39                	c.j	3634 <riscv_convolve_1x1_s8_fast>

00003118 <riscv_depthwise_conv_fast_s16_get_buffer_size>:
    3118:	4548                	c.lw	a0,12(a0)
    311a:	4598                	c.lw	a4,8(a1)
    311c:	41dc                	c.lw	a5,4(a1)
    311e:	02e50533          	mul	a0,a0,a4
    3122:	02f50533          	mul	a0,a0,a5
    3126:	0506                	c.slli	a0,0x1
    3128:	8082                	c.jr	ra
	...

0000312c <riscv_depthwise_conv_wrapper_s16_get_buffer_size>:
    312c:	4518                	c.lw	a4,8(a0)
    312e:	4685                	c.li	a3,1
    3130:	87aa                	c.mv	a5,a0
    3132:	4501                	c.li	a0,0
    3134:	00d70463          	beq	a4,a3,313c <riscv_depthwise_conv_wrapper_s16_get_buffer_size+0x10>
    3138:	00008067          	ret
    313c:	4fd4                	c.lw	a3,28(a5)
    313e:	4501                	c.li	a0,0
    3140:	fee69ce3          	bne	a3,a4,3138 <riscv_depthwise_conv_wrapper_s16_get_buffer_size+0xc>
    3144:	539c                	c.lw	a5,32(a5)
    3146:	fed799e3          	bne	a5,a3,3138 <riscv_depthwise_conv_wrapper_s16_get_buffer_size+0xc>
    314a:	461c                	c.lw	a5,8(a2)
    314c:	4258                	c.lw	a4,4(a2)
    314e:	1ff00693          	li	a3,511
    3152:	02e78633          	mul	a2,a5,a4
    3156:	fec6c1e3          	blt	a3,a2,3138 <riscv_depthwise_conv_wrapper_s16_get_buffer_size+0xc>
    315a:	45d4                	c.lw	a3,12(a1)
    315c:	02d787b3          	mul	a5,a5,a3
    3160:	02e787b3          	mul	a5,a5,a4
    3164:	00179513          	slli	a0,a5,0x1
    3168:	8082                	c.jr	ra
	...

0000316c <riscv_convolve_s16>:
    316c:	4108                	c.lw	a0,0(a0)
    316e:	7111                	c.addi16sp	sp,-256
    3170:	dda2                	c.swsp	s0,248(sp)
    3172:	d0aa                	c.swsp	a0,96(sp)
    3174:	842a                	c.mv	s0,a0
    3176:	df86                	c.swsp	ra,252(sp)
    3178:	dba6                	c.swsp	s1,244(sp)
    317a:	d9ca                	c.swsp	s2,240(sp)
    317c:	d7ce                	c.swsp	s3,236(sp)
    317e:	d5d2                	c.swsp	s4,232(sp)
    3180:	d3d6                	c.swsp	s5,228(sp)
    3182:	d1da                	c.swsp	s6,224(sp)
    3184:	cfde                	c.swsp	s7,220(sp)
    3186:	cde2                	c.swsp	s8,216(sp)
    3188:	cbe6                	c.swsp	s9,212(sp)
    318a:	c9ea                	c.swsp	s10,208(sp)
    318c:	c7ee                	c.swsp	s11,204(sp)
    318e:	10412503          	lw	a0,260(sp)
    3192:	48040563          	beqz	s0,361c <riscv_convolve_s16+0x4b0>
    3196:	43c4                	c.lw	s1,4(a5)
    3198:	46c0                	c.lw	s0,12(a3)
    319a:	0087ac03          	lw	s8,8(a5)
    319e:	029407b3          	mul	a5,s0,s1
    31a2:	ce26                	c.swsp	s1,28(sp)
    31a4:	4684                	c.lw	s1,8(a3)
    31a6:	038787b3          	mul	a5,a5,s8
    31aa:	0006ad83          	lw	s11,0(a3)
    31ae:	0185ac83          	lw	s9,24(a1)
    31b2:	d6be                	c.swsp	a5,108(sp)
    31b4:	42dc                	c.lw	a5,4(a3)
    31b6:	0145ad03          	lw	s10,20(a1)
    31ba:	dc3e                	c.swsp	a5,56(sp)
    31bc:	451c                	c.lw	a5,8(a0)
    31be:	d626                	c.swsp	s1,44(sp)
    31c0:	c6be                	c.swsp	a5,76(sp)
    31c2:	415c                	c.lw	a5,4(a0)
    31c4:	d4be                	c.swsp	a5,104(sp)
    31c6:	455c                	c.lw	a5,12(a0)
    31c8:	d2be                	c.swsp	a5,100(sp)
    31ca:	4ddc                	c.lw	a5,28(a1)
    31cc:	d03e                	c.swsp	a5,32(sp)
    31ce:	499c                	c.lw	a5,16(a1)
    31d0:	c53e                	c.swsp	a5,136(sp)
    31d2:	459c                	c.lw	a5,8(a1)
    31d4:	c8be                	c.swsp	a5,80(sp)
    31d6:	45dc                	c.lw	a5,12(a1)
    31d8:	c73e                	c.swsp	a5,140(sp)
    31da:	519c                	c.lw	a5,32(a1)
    31dc:	d8be                	c.swsp	a5,112(sp)
    31de:	51dc                	c.lw	a5,36(a1)
    31e0:	dabe                	c.swsp	a5,116(sp)
    31e2:	421c                	c.lw	a5,0(a2)
    31e4:	dcbe                	c.swsp	a5,120(sp)
    31e6:	425c                	c.lw	a5,4(a2)
    31e8:	debe                	c.swsp	a5,124(sp)
    31ea:	19b05363          	blez	s11,3370 <riscv_convolve_s16+0x204>
    31ee:	4636                	c.lwsp	a2,76(sp)
    31f0:	853a                	c.mv	a0,a4
    31f2:	5726                	c.lwsp	a4,104(sp)
    31f4:	46ba                	c.lwsp	a3,140(sp)
    31f6:	02c70733          	mul	a4,a4,a2
    31fa:	5602                	c.lwsp	a2,32(sp)
    31fc:	029407b3          	mul	a5,s0,s1
    3200:	02d486b3          	mul	a3,s1,a3
    3204:	02960633          	mul	a2,a2,s1
    3208:	03a485b3          	mul	a1,s1,s10
    320c:	54e2                	c.lwsp	s1,56(sp)
    320e:	c342                	c.swsp	a6,132(sp)
    3210:	02978833          	mul	a6,a5,s1
    3214:	87ba                	c.mv	a5,a4
    3216:	5716                	c.lwsp	a4,100(sp)
    3218:	028686b3          	mul	a3,a3,s0
    321c:	02e788b3          	mul	a7,a5,a4
    3220:	47c6                	c.lwsp	a5,80(sp)
    3222:	472a                	c.lwsp	a4,136(sp)
    3224:	02f40333          	mul	t1,s0,a5
    3228:	40b007b3          	neg	a5,a1
    322c:	8f99                	c.sub	a5,a4
    322e:	02860633          	mul	a2,a2,s0
    3232:	03940e33          	mul	t3,s0,s9
    3236:	872a                	c.mv	a4,a0
    3238:	0406                	c.slli	s0,0x1
    323a:	c487977f          	maddr32	a4,a5,s0
    323e:	028c07b3          	mul	a5,s8,s0
    3242:	001e1b93          	slli	s7,t3,0x1
    3246:	8f6e                	c.mv	t5,s11
    3248:	d43e                	c.swsp	a5,40(sp)
    324a:	00181793          	slli	a5,a6,0x1
    324e:	cf3e                	c.swsp	a5,156(sp)
    3250:	00189793          	slli	a5,a7,0x1
    3254:	d53e                	c.swsp	a5,168(sp)
    3256:	00169793          	slli	a5,a3,0x1
    325a:	d73e                	c.swsp	a5,172(sp)
    325c:	00131793          	slli	a5,t1,0x1
    3260:	cabe                	c.swsp	a5,84(sp)
    3262:	00161793          	slli	a5,a2,0x1
    3266:	d23e                	c.swsp	a5,36(sp)
    3268:	8fea                	c.mv	t6,s10
    326a:	4781                	c.li	a5,0
    326c:	56a6                	c.lwsp	a3,104(sp)
    326e:	0ed05563          	blez	a3,3358 <riscv_convolve_s16+0x1ec>
    3272:	10812503          	lw	a0,264(sp)
    3276:	5d06                	c.lwsp	s10,96(sp)
    3278:	41f00db3          	neg	s11,t6
    327c:	4681                	c.li	a3,0
    327e:	c13a                	c.swsp	a4,128(sp)
    3280:	cd02                	c.swsp	zero,152(sp)
    3282:	ccaa                	c.swsp	a0,88(sp)
    3284:	d97a                	c.swsp	t5,176(sp)
    3286:	db7e                	c.swsp	t6,180(sp)
    3288:	dd3e                	c.swsp	a5,184(sp)
    328a:	df3a                	c.swsp	a4,188(sp)
    328c:	47aa                	c.lwsp	a5,136(sp)
    328e:	430a                	c.lwsp	t1,128(sp)
    3290:	40f007b3          	neg	a5,a5
    3294:	d83e                	c.swsp	a5,48(sp)
    3296:	47b6                	c.lwsp	a5,76(sp)
    3298:	00000e13          	li	t3,0
    329c:	08f05a63          	blez	a5,3330 <riscv_convolve_s16+0x1c4>
    32a0:	47f2                	c.lwsp	a5,28(sp)
    32a2:	8a6e                	c.mv	s4,s11
    32a4:	8b1a                	c.mv	s6,t1
    32a6:	4a81                	c.li	s5,0
    32a8:	06f05663          	blez	a5,3314 <riscv_convolve_s16+0x1a8>
    32ac:	c4ee                	c.swsp	s11,72(sp)
    32ae:	8dea                	c.mv	s11,s10
    32b0:	8d56                	c.mv	s10,s5
    32b2:	8ad2                	c.mv	s5,s4
    32b4:	de1a                	c.swsp	t1,60(sp)
    32b6:	c0b6                	c.swsp	a3,64(sp)
    32b8:	05c12223          	sw	t3,68(sp)
    32bc:	03805e63          	blez	s8,32f8 <riscv_convolve_s16+0x18c>
    32c0:	0c0ac863          	bltz	s5,3390 <riscv_convolve_s16+0x224>
    32c4:	57e2                	c.lwsp	a5,56(sp)
    32c6:	0afad763          	bge	s5,a5,3374 <riscv_convolve_s16+0x208>
    32ca:	5942                	c.lwsp	s2,48(sp)
    32cc:	89da                	c.mv	s3,s6
    32ce:	8a6e                	c.mv	s4,s11
    32d0:	00000493          	li	s1,0
    32d4:	8552                	c.mv	a0,s4
    32d6:	8622                	c.mv	a2,s0
    32d8:	4581                	c.li	a1,0
    32da:	00094563          	bltz	s2,32e4 <riscv_convolve_s16+0x178>
    32de:	57b2                	c.lwsp	a5,44(sp)
    32e0:	0cf94663          	blt	s2,a5,33ac <riscv_convolve_s16+0x240>
    32e4:	003060ef          	jal	ra,9ae6 <memset>
    32e8:	0485                	c.addi	s1,1
    32ea:	9a22                	c.add	s4,s0
    32ec:	9966                	c.add	s2,s9
    32ee:	99de                	c.add	s3,s7
    32f0:	fe9c12e3          	bne	s8,s1,32d4 <riscv_convolve_s16+0x168>
    32f4:	57a2                	c.lwsp	a5,40(sp)
    32f6:	9dbe                	c.add	s11,a5
    32f8:	5792                	c.lwsp	a5,36(sp)
    32fa:	0d05                	c.addi	s10,1
    32fc:	9b3e                	c.add	s6,a5
    32fe:	5782                	c.lwsp	a5,32(sp)
    3300:	9abe                	c.add	s5,a5
    3302:	47f2                	c.lwsp	a5,28(sp)
    3304:	fba79ce3          	bne	a5,s10,32bc <riscv_convolve_s16+0x150>
    3308:	8d6e                	c.mv	s10,s11
    330a:	5372                	c.lwsp	t1,60(sp)
    330c:	4686                	c.lwsp	a3,64(sp)
    330e:	4e16                	c.lwsp	t3,68(sp)
    3310:	04812d83          	lw	s11,72(sp)
    3314:	0685                	c.addi	a3,1
    3316:	4789                	c.li	a5,2
    3318:	0af68063          	beq	a3,a5,33b8 <riscv_convolve_s16+0x24c>
    331c:	47d6                	c.lwsp	a5,84(sp)
    331e:	4746                	c.lwsp	a4,80(sp)
    3320:	933e                	c.add	t1,a5
    3322:	57c2                	c.lwsp	a5,48(sp)
    3324:	0e05                	c.addi	t3,1
    3326:	97ba                	c.add	a5,a4
    3328:	d83e                	c.swsp	a5,48(sp)
    332a:	47b6                	c.lwsp	a5,76(sp)
    332c:	f7c79ae3          	bne	a5,t3,32a0 <riscv_convolve_s16+0x134>
    3330:	47e6                	c.lwsp	a5,88(sp)
    3332:	c7e9                	c.beqz	a5,33fc <riscv_convolve_s16+0x290>
    3334:	470a                	c.lwsp	a4,128(sp)
    3336:	563a                	c.lwsp	a2,172(sp)
    3338:	47ea                	c.lwsp	a5,152(sp)
    333a:	9732                	c.add	a4,a2
    333c:	c13a                	c.swsp	a4,128(sp)
    333e:	473a                	c.lwsp	a4,140(sp)
    3340:	0785                	c.addi	a5,1
    3342:	9dba                	c.add	s11,a4
    3344:	5726                	c.lwsp	a4,104(sp)
    3346:	cd3e                	c.swsp	a5,152(sp)
    3348:	f4f712e3          	bne	a4,a5,328c <riscv_convolve_s16+0x120>
    334c:	4566                	c.lwsp	a0,88(sp)
    334e:	5f4a                	c.lwsp	t5,176(sp)
    3350:	5fda                	c.lwsp	t6,180(sp)
    3352:	57ea                	c.lwsp	a5,184(sp)
    3354:	577a                	c.lwsp	a4,188(sp)
    3356:	e6e9                	c.bnez	a3,3420 <riscv_convolve_s16+0x2b4>
    3358:	10812683          	lw	a3,264(sp)
    335c:	562a                	c.lwsp	a2,168(sp)
    335e:	0785                	c.addi	a5,1
    3360:	96b2                	c.add	a3,a2
    3362:	10d12423          	sw	a3,264(sp)
    3366:	46fa                	c.lwsp	a3,156(sp)
    3368:	00d70733          	add	a4,a4,a3
    336c:	f0ff10e3          	bne	t5,a5,326c <riscv_convolve_s16+0x100>
    3370:	4501                	c.li	a0,0
    3372:	a079                	c.j	3400 <riscv_convolve_s16+0x294>
    3374:	8a6e                	c.mv	s4,s11
    3376:	4481                	c.li	s1,0
    3378:	8552                	c.mv	a0,s4
    337a:	0485                	c.addi	s1,1
    337c:	8622                	c.mv	a2,s0
    337e:	4581                	c.li	a1,0
    3380:	008a0a33          	add	s4,s4,s0
    3384:	762060ef          	jal	ra,9ae6 <memset>
    3388:	fe9c18e3          	bne	s8,s1,3378 <riscv_convolve_s16+0x20c>
    338c:	f69ff06f          	j	32f4 <riscv_convolve_s16+0x188>
    3390:	84ee                	c.mv	s1,s11
    3392:	4a01                	c.li	s4,0
    3394:	8526                	c.mv	a0,s1
    3396:	0a05                	c.addi	s4,1
    3398:	8622                	c.mv	a2,s0
    339a:	4581                	c.li	a1,0
    339c:	008484b3          	add	s1,s1,s0
    33a0:	746060ef          	jal	ra,9ae6 <memset>
    33a4:	ff4c18e3          	bne	s8,s4,3394 <riscv_convolve_s16+0x228>
    33a8:	f4dff06f          	j	32f4 <riscv_convolve_s16+0x188>
    33ac:	013005b3          	add	a1,zero,s3
    33b0:	63c060ef          	jal	ra,99ec <memcpy>
    33b4:	f35ff06f          	j	32e8 <riscv_convolve_s16+0x17c>
    33b8:	44e6                	c.lwsp	s1,88(sp)
    33ba:	57c6                	c.lwsp	a5,112(sp)
    33bc:	c226                	c.swsp	s1,4(sp)
    33be:	10012483          	lw	s1,256(sp)
    33c2:	5766                	c.lwsp	a4,120(sp)
    33c4:	c026                	c.swsp	s1,0(sp)
    33c6:	44d6                	c.lwsp	s1,84(sp)
    33c8:	56f6                	c.lwsp	a3,124(sp)
    33ca:	58b6                	c.lwsp	a7,108(sp)
    33cc:	5856                	c.lwsp	a6,116(sp)
    33ce:	5616                	c.lwsp	a2,100(sp)
    33d0:	5586                	c.lwsp	a1,96(sp)
    33d2:	451a                	c.lwsp	a0,132(sp)
    33d4:	0e05                	c.addi	t3,1
    33d6:	9326                	c.add	t1,s1
    33d8:	c0f2                	c.swsp	t3,64(sp)
    33da:	de1a                	c.swsp	t1,60(sp)
    33dc:	274010ef          	jal	ra,4650 <riscv_nn_mat_mult_kernel_s16>
    33e0:	57c2                	c.lwsp	a5,48(sp)
    33e2:	4746                	c.lwsp	a4,80(sp)
    33e4:	4e06                	c.lwsp	t3,64(sp)
    33e6:	97ba                	c.add	a5,a4
    33e8:	d83e                	c.swsp	a5,48(sp)
    33ea:	47b6                	c.lwsp	a5,76(sp)
    33ec:	ccaa                	c.swsp	a0,88(sp)
    33ee:	5372                	c.lwsp	t1,60(sp)
    33f0:	5d06                	c.lwsp	s10,96(sp)
    33f2:	4681                	c.li	a3,0
    33f4:	ebc796e3          	bne	a5,t3,32a0 <riscv_convolve_s16+0x134>
    33f8:	47e6                	c.lwsp	a5,88(sp)
    33fa:	ff8d                	c.bnez	a5,3334 <riscv_convolve_s16+0x1c8>
    33fc:	ffe00513          	li	a0,-2
    3400:	50fe                	c.lwsp	ra,252(sp)
    3402:	546e                	c.lwsp	s0,248(sp)
    3404:	54de                	c.lwsp	s1,244(sp)
    3406:	594e                	c.lwsp	s2,240(sp)
    3408:	59be                	c.lwsp	s3,236(sp)
    340a:	5a2e                	c.lwsp	s4,232(sp)
    340c:	5a9e                	c.lwsp	s5,228(sp)
    340e:	5b0e                	c.lwsp	s6,224(sp)
    3410:	4bfe                	c.lwsp	s7,220(sp)
    3412:	4c6e                	c.lwsp	s8,216(sp)
    3414:	4cde                	c.lwsp	s9,212(sp)
    3416:	4d4e                	c.lwsp	s10,208(sp)
    3418:	4dbe                	c.lwsp	s11,204(sp)
    341a:	6111                	c.addi16sp	sp,256
    341c:	00008067          	ret
    3420:	10012683          	lw	a3,256(sp)
    3424:	0006a283          	lw	t0,0(a3)
    3428:	0046c683          	lbu	a3,4(a3)
    342c:	c0b6                	c.swsp	a3,64(sp)
    342e:	5696                	c.lwsp	a3,100(sp)
    3430:	f2d054e3          	blez	a3,3358 <riscv_convolve_s16+0x1ec>
    3434:	55b6                	c.lwsp	a1,108(sp)
    3436:	5b06                	c.lwsp	s6,96(sp)
    3438:	4025dd13          	srai	s10,a1,0x2
    343c:	0686                	c.slli	a3,0x1
    343e:	96aa                	c.add	a3,a0
    3440:	003d1613          	slli	a2,s10,0x3
    3444:	0035f313          	andi	t1,a1,3
    3448:	de36                	c.swsp	a3,60(sp)
    344a:	58f6                	c.lwsp	a7,124(sp)
    344c:	00cb06b3          	add	a3,s6,a2
    3450:	5866                	c.lwsp	a6,120(sp)
    3452:	459a                	c.lwsp	a1,132(sp)
    3454:	590a                	c.lwsp	s2,160(sp)
    3456:	599a                	c.lwsp	s3,164(sp)
    3458:	c4b6                	c.swsp	a3,72(sp)
    345a:	8e16                	c.mv	t3,t0
    345c:	002d1693          	slli	a3,s10,0x2
    3460:	8396                	c.mv	t2,t0
    3462:	4d85                	c.li	s11,1
    3464:	04d12223          	sw	a3,68(sp)
    3468:	1a0d0663          	beqz	s10,3614 <riscv_convolve_s16+0x4a8>
    346c:	8eda                	c.mv	t4,s6
    346e:	cece                	c.swsp	s3,92(sp)
    3470:	8aea                	c.mv	s5,s10
    3472:	89da                	c.mv	s3,s6
    3474:	8a2e                	c.mv	s4,a1
    3476:	8b3a                	c.mv	s6,a4
    3478:	4681                	c.li	a3,0
    347a:	873e                	c.mv	a4,a5
    347c:	87de                	c.mv	a5,s7
    347e:	d822                	c.swsp	s0,48(sp)
    3480:	05212c23          	sw	s2,88(sp)
    3484:	000a2603          	lw	a2,0(s4)
    3488:	c932                	c.swsp	a2,144(sp)
    348a:	cb32                	c.swsp	a2,148(sp)
    348c:	444a                	c.lwsp	s0,144(sp)
    348e:	44da                	c.lwsp	s1,148(sp)
    3490:	0a11                	c.addi	s4,4
    3492:	de8404ff          	wexti	s1,s0,8
    3496:	ac9484ff          	sunpkd820	s1,s1
    349a:	ac96067f          	sunpkd820	a2,a2
    349e:	2ec49bff          	pktt16	s7,s1,a2
    34a2:	0ec4967f          	pkbb16	a2,s1,a2
    34a6:	000ea483          	lw	s1,0(t4)
    34aa:	489616ff          	kmada	a3,a2,s1
    34ae:	004e8613          	addi	a2,t4,4
    34b2:	4210                	c.lw	a2,0(a2)
    34b4:	0ea1                	c.addi	t4,8
    34b6:	48cb96ff          	kmada	a3,s7,a2
    34ba:	1afd                	c.addi	s5,-1
    34bc:	fc0a94e3          	bnez	s5,3484 <riscv_convolve_s16+0x318>
    34c0:	4616                	c.lwsp	a2,68(sp)
    34c2:	8bbe                	c.mv	s7,a5
    34c4:	95b2                	c.add	a1,a2
    34c6:	87ba                	c.mv	a5,a4
    34c8:	5442                	c.lwsp	s0,48(sp)
    34ca:	875a                	c.mv	a4,s6
    34cc:	4966                	c.lwsp	s2,88(sp)
    34ce:	8b4e                	c.mv	s6,s3
    34d0:	4626                	c.lwsp	a2,72(sp)
    34d2:	49f6                	c.lwsp	s3,92(sp)
    34d4:	02030c63          	beqz	t1,350c <riscv_convolve_s16+0x3a0>
    34d8:	00061483          	lh	s1,0(a2)
    34dc:	00058e83          	lb	t4,0(a1)
    34e0:	c5d496ff          	maddr32	a3,s1,t4
    34e4:	03b30263          	beq	t1,s11,3508 <riscv_convolve_s16+0x39c>
    34e8:	00261483          	lh	s1,2(a2)
    34ec:	00158e83          	lb	t4,1(a1)
    34f0:	c5d496ff          	maddr32	a3,s1,t4
    34f4:	00200493          	li	s1,2
    34f8:	00930863          	beq	t1,s1,3508 <riscv_convolve_s16+0x39c>
    34fc:	00258e83          	lb	t4,2(a1)
    3500:	00461603          	lh	a2,4(a2)
    3504:	c4ce96ff          	maddr32	a3,t4,a2
    3508:	006585b3          	add	a1,a1,t1
    350c:	4606                	c.lwsp	a2,64(sp)
    350e:	ce3d                	c.beqz	a2,358c <riscv_convolve_s16+0x420>
    3510:	00028663          	beqz	t0,351c <riscv_convolve_s16+0x3b0>
    3514:	000e2603          	lw	a2,0(t3)
    3518:	00c686b3          	add	a3,a3,a2
    351c:	0008ae83          	lw	t4,0(a7)
    3520:	00082483          	lw	s1,0(a6)
    3524:	4a81                	c.li	s5,0
    3526:	f35e8a7f          	maxw	s4,t4,s5
    352a:	01469a33          	sll	s4,a3,s4
    352e:	40000637          	lui	a2,0x40000
    3532:	4681                	c.li	a3,0
    3534:	849a167f          	smar64	a2,s4,s1
    3538:	41d00eb3          	neg	t4,t4
    353c:	f35e8eff          	maxw	t4,t4,s5
    3540:	01dd94b3          	sll	s1,s11,t4
    3544:	dff6067f          	wexti	a2,a2,31
    3548:	fff48693          	addi	a3,s1,-1
    354c:	4016d493          	srai	s1,a3,0x1
    3550:	00062a13          	slti	s4,a2,0
    3554:	8ef1                	c.and	a3,a2
    3556:	94d2                	c.add	s1,s4
    3558:	41d65633          	sra	a2,a2,t4
    355c:	00d4a6b3          	slt	a3,s1,a3
    3560:	00d60633          	add	a2,a2,a3
    3564:	56c6                	c.lwsp	a3,112(sp)
    3566:	0509                	c.addi	a0,2
    3568:	f2d6067f          	maxw	a2,a2,a3
    356c:	56d6                	c.lwsp	a3,116(sp)
    356e:	0891                	c.addi	a7,4
    3570:	f0c686ff          	minw	a3,a3,a2
    3574:	fed51f23          	sh	a3,-2(a0) # dffe <_RAMCODE_VMA_END+0x2d6e>
    3578:	56f2                	c.lwsp	a3,60(sp)
    357a:	0811                	c.addi	a6,4
    357c:	0e11                	c.addi	t3,4
    357e:	03a1                	c.addi	t2,8
    3580:	eea694e3          	bne	a3,a0,3468 <riscv_convolve_s16+0x2fc>
    3584:	d14a                	c.swsp	s2,160(sp)
    3586:	d34e                	c.swsp	s3,164(sp)
    3588:	dd1ff06f          	j	3358 <riscv_convolve_s16+0x1ec>
    358c:	00d00933          	add	s2,zero,a3
    3590:	41f6d993          	srai	s3,a3,0x1f
    3594:	00028863          	beqz	t0,35a4 <riscv_convolve_s16+0x438>
    3598:	0003a603          	lw	a2,0(t2)
    359c:	0043a683          	lw	a3,4(t2)
    35a0:	c0c9197f          	add64	s2,s2,a2
    35a4:	00082e83          	lw	t4,0(a6)
    35a8:	7fff06b7          	lui	a3,0x7fff0
    35ac:	04dede63          	bge	t4,a3,3608 <riscv_convolve_s16+0x49c>
    35b0:	66a1                	c.lui	a3,0x8
    35b2:	9eb6                	c.add	t4,a3
    35b4:	410eda13          	srai	s4,t4,0x10
    35b8:	41fede93          	srai	t4,t4,0x1f
    35bc:	032e8eb3          	mul	t4,t4,s2
    35c0:	f149167f          	mulr64	a2,s2,s4
    35c4:	0008a483          	lw	s1,0(a7)
    35c8:	da36                	c.swsp	a3,52(sp)
    35ca:	46b9                	c.li	a3,14
    35cc:	c53a1eff          	maddr32	t4,s4,s3
    35d0:	409684b3          	sub	s1,a3,s1
    35d4:	56d2                	c.lwsp	a3,52(sp)
    35d6:	fe048a13          	addi	s4,s1,-32
    35da:	96f6                	c.add	a3,t4
    35dc:	d832                	c.swsp	a2,48(sp)
    35de:	da36                	c.swsp	a3,52(sp)
    35e0:	4146d633          	sra	a2,a3,s4
    35e4:	000a5e63          	bgez	s4,3600 <riscv_convolve_s16+0x494>
    35e8:	5ad2                	c.lwsp	s5,52(sp)
    35ea:	467d                	c.li	a2,31
    35ec:	5a42                	c.lwsp	s4,48(sp)
    35ee:	40960eb3          	sub	t4,a2,s1
    35f2:	001a9693          	slli	a3,s5,0x1
    35f6:	01d696b3          	sll	a3,a3,t4
    35fa:	009a5633          	srl	a2,s4,s1
    35fe:	8e55                	c.or	a2,a3
    3600:	0605                	c.addi	a2,1
    3602:	8605                	c.srai	a2,0x1
    3604:	f61ff06f          	j	3564 <riscv_convolve_s16+0x3f8>
    3608:	66a1                	c.lui	a3,0x8
    360a:	fff68a13          	addi	s4,a3,-1 # 7fff <riscv_depthwise_conv_3x3_s8+0x76f>
    360e:	4e81                	c.li	t4,0
    3610:	fadff06f          	j	35bc <riscv_convolve_s16+0x450>
