
RV_NN_Convolution_Benchmark.adx:     file format elf32-littleriscv
RV_NN_Convolution_Benchmark.adx
architecture: riscv:rv32, flags 0x00000112:
EXEC_P, HAS_SYMS, D_PAGED
start address 0x20000000

Program Header:
    LOAD off    0x00001000 vaddr 0x20000000 paddr 0x20000000 align 2**12
         filesz 0x0000018a memsz 0x0000018a flags r-x
    LOAD off    0x00002000 vaddr 0x00000000 paddr 0x20000190 align 2**12
         filesz 0x000001bc memsz 0x000001bc flags rwx
    LOAD off    0x00002200 vaddr 0x00000200 paddr 0x20000350 align 2**12
         filesz 0x0000b090 memsz 0x0000b090 flags r-x
    LOAD off    0x0000e000 vaddr 0x00080000 paddr 0x2000b3e0 align 2**12
         filesz 0x0000bab8 memsz 0x0000baf4 flags rw-
    LOAD off    0x00019af8 vaddr 0x0008baf8 paddr 0x20016e98 align 2**12
         filesz 0x00000022 memsz 0x00000022 flags rw-
    LOAD off    0x0001aaf4 vaddr 0x0008baf4 paddr 0x20016ed4 align 2**12
         filesz 0x00000000 memsz 0x00000004 flags rw-
0x70000000 off    0x00019b63 vaddr 0x00000000 paddr 0x00000000 align 2**0
         filesz 0x00000040 memsz 0x00000000 flags r--

Sections:
Idx Name          Size      VMA       LMA       File off  Algn
  0 .vectors      0000018a  20000000  20000000  00001000  2**2
                  CONTENTS, ALLOC, LOAD, READONLY, CODE
  1 .retention_reset 00000154  00000000  20000190  00002000  2**2
                  CONTENTS, ALLOC, LOAD, READONLY, CODE
  2 .retention_data 00000064  00000158  200002e8  00002158  2**2
                  CONTENTS, ALLOC, LOAD, DATA
  3 .ram_code     0000b090  00000200  20000350  00002200  2**8
                  CONTENTS, ALLOC, LOAD, READONLY, CODE
  4 .data         0000bab8  00080000  2000b3e0  0000e000  2**3
                  CONTENTS, ALLOC, LOAD, DATA
  5 .sbss         0000003c  0008bab8  20016e98  00019ab8  2**2
                  ALLOC
  6 .bss          00000004  0008baf4  20016ed4  0001aaf4  2**2
                  ALLOC
  7 .sdk_version  00000022  0008baf8  20016e98  00019af8  2**2
                  CONTENTS, ALLOC, LOAD, DATA
  8 .comment      00000049  00000000  00000000  00019b1a  2**0
                  CONTENTS, READONLY
  9 .riscv.attributes 00000040  00000000  00000000  00019b63  2**0
                  CONTENTS, READONLY
 10 .debug_info   00002573  00000000  00000000  00019ba3  2**0
                  CONTENTS, READONLY, DEBUGGING
 11 .debug_abbrev 000009b1  00000000  00000000  0001c116  2**0
                  CONTENTS, READONLY, DEBUGGING
 12 .debug_loc    00001d0b  00000000  00000000  0001cac7  2**0
                  CONTENTS, READONLY, DEBUGGING
 13 .debug_aranges 000000e0  00000000  00000000  0001e7d8  2**3
                  CONTENTS, READONLY, DEBUGGING
 14 .debug_ranges 000002c0  00000000  00000000  0001e8b8  2**0
                  CONTENTS, READONLY, DEBUGGING
 15 .debug_line   000013f0  00000000  00000000  0001eb78  2**0
                  CONTENTS, READONLY, DEBUGGING
 16 .debug_str    000010f6  00000000  00000000  0001ff68  2**0
                  CONTENTS, READONLY, DEBUGGING
 17 .debug_frame  000000e8  00000000  00000000  00021060  2**2
                  CONTENTS, READONLY, DEBUGGING
SYMBOL TABLE:
20000000 l    d  .vectors	00000000 .vectors
00000000 l    d  .retention_reset	00000000 .retention_reset
00000158 l    d  .retention_data	00000000 .retention_data
00000200 l    d  .ram_code	00000000 .ram_code
00080000 l    d  .data	00000000 .data
0008bab8 l    d  .sbss	00000000 .sbss
0008baf4 l    d  .bss	00000000 .bss
0008baf8 l    d  .sdk_version	00000000 .sdk_version
00000000 l    d  .comment	00000000 .comment
00000000 l    d  .riscv.attributes	00000000 .riscv.attributes
00000000 l    d  .debug_info	00000000 .debug_info
00000000 l    d  .debug_abbrev	00000000 .debug_abbrev
00000000 l    d  .debug_loc	00000000 .debug_loc
00000000 l    d  .debug_aranges	00000000 .debug_aranges
00000000 l    d  .debug_ranges	00000000 .debug_ranges
00000000 l    d  .debug_line	00000000 .debug_line
00000000 l    d  .debug_str	00000000 .debug_str
00000000 l    d  .debug_frame	00000000 .debug_frame
00000000 l    df *ABS*	00000000 ./boot/cstartup_flash.o
20000028 l       .vectors	00000000 _START
2000008e l       .vectors	00000000 _RETENTION_RESET_INIT
200000a6 l       .vectors	00000000 _RETENTION_RESET_BEGIN
200000b8 l       .vectors	00000000 _RETENTION_DATA_INIT
200000cc l       .vectors	00000000 _RETENTION_DATA_INIT_BEGIN
200000de l       .vectors	00000000 _RAMCODE_INIT
200000f6 l       .vectors	00000000 _RAMCODE_INIT_BEGIN
20000108 l       .vectors	00000000 _DATA_INIT
20000120 l       .vectors	00000000 _DATA_INIT_BEGIN
20000132 l       .vectors	00000000 _ZERO_BSS
20000146 l       .vectors	00000000 _ZERO_BSS_BEGIN
20000152 l       .vectors	00000000 _ZERO_AES
20000166 l       .vectors	00000000 _ZERO_AES_BEGIN
20000172 l       .vectors	00000000 _FILL_STK
20000172 l       .vectors	00000000 _MAIN_FUNC
20000188 l       .vectors	00000000 _END
00000022 l       .retention_reset	00000000 _ISTART
0000002a l       .retention_reset	00000000 _ISWS_USB_DIS
00000088 l       .retention_reset	00000000 _WAKEUP_FLASH
000000a2 l       .retention_reset	00000000 _MSPI_WAIT
000000bc l       .retention_reset	00000000 _WAIT_EFUSE_LOAD_AND_FLASH_WAKEUP_FINISH
000000c2 l       .retention_reset	00000000 _MULTI_ADDRESS_BEGIN
000000d2 l       .retention_reset	00000000 _IZERO_BSS
000000e6 l       .retention_reset	00000000 _IZERO_BSS_BEGIN
000000f2 l       .retention_reset	00000000 _IZERO_AES
00000106 l       .retention_reset	00000000 _IZERO_AES_BEGIN
00000112 l       .retention_reset	00000000 _IFILL_STK
00000112 l       .retention_reset	00000000 _IDATA_INIT
0000012a l       .retention_reset	00000000 _IDATA_INIT_BEGIN
0000013c l       .retention_reset	00000000 _IMAIN_FUNC
00000152 l       .retention_reset	00000000 _IEND
00000040 l       *ABS*	00000000 irqno
00000000 l    df *ABS*	00000000 
00000200 l     F .ram_code	00000020 delay_ms.constprop.12
0000140c l     F .ram_code	000000fc user_calib_adc_vref.constprop.9
00000220 l     F .ram_code	00000044 flash_send_addr
00000264 l     F .ram_code	00000048 flash_send_cmd
000002ac l     F .ram_code	00000060 clock_set_32k_tick
00001508 l     F .ram_code	0000003a measure_stack_usage
00001544 l     F .ram_code	00000026 fill_stack_pattern_to_sp
0000030c l     F .ram_code	0000004c analog_read_reg32.constprop.4
00000358 l     F .ram_code	00000024 clock_get_32k_tick
0000037c l     F .ram_code	00000090 pm_stimer_recover
0000040c l     F .ram_code	00000058 plic_exit_critical_sec
00000464 l     F .ram_code	00000060 plic_enter_critical_sec
000004c4 l     F .ram_code	00000180 flash_mspi_read_ram
00001204 l     F .ram_code	00000028 flash_read_uid.constprop.6
0000122c l     F .ram_code	00000028 flash_read_mid
00001254 l     F .ram_code	00000168 flash_read_mid_uid_with_check
00000644 l     F .ram_code	0000014c flash_mspi_read_ram.constprop.7
000013bc l     F .ram_code	00000020 flash_dread
00000790 l     F .ram_code	00000044 analog_write_reg8
000007d4 l     F .ram_code	0000004c analog_read_reg8
00000820 l     F .ram_code	00000140 clock_init_ram.constprop.11
000013dc l     F .ram_code	00000018 clock_init.constprop.10
0000156c l     F .ram_code	00000054 user_calib_freq_offset.constprop.8
00000960 l     F .ram_code	000000b4 pm_wait_bbpll_done
00000a14 l     F .ram_code	00000194 pm_sleep_start
00000ba8 l     F .ram_code	00000120 dr_putchar
000015c4 l     F .ram_code	00000018 gpio_input_dis
00000cc8 l     F .ram_code	0000030c pm_sleep_wakeup_ram.constprop.3
000013f4 l     F .ram_code	00000016 pm_sleep_wakeup.constprop.2
000015e0 l     F .ram_code	0000000a reset_counters
000015ec l     F .ram_code	00000076 validate.lto_priv.13
000015ec l     F .ram_code	00000076 validate.lto_priv.14
00001664 l     F .ram_code	00000076 validate_s16.lto_priv.15
00001664 l     F .ram_code	00000076 validate_s16.lto_priv.16
000016dc l     F .ram_code	000001c6 dw_int16xint8_dilation_riscv_depthwise_conv_s16
000018a4 l     F .ram_code	000001be dw_int16xint8_riscv_depthwise_conv_s16
00001a64 l     F .ram_code	000001ba conv_3x3_dilation_5x5_input_riscv_convolve_s8
00001c20 l     F .ram_code	0000022e int16xint8_dilation_1_riscv_convolve_s16
000811c0 l     O .data	00001000 int16xint8_dilation_1_input
000821c0 l     O .data	00000e10 int16xint8_dilation_1_output
00085348 l     O .data	00001ef0 int16xint8_weights
00083078 l     O .data	00002260 int16xint8_input
00089508 l     O .data	00001ef0 int16xint8xint32_1_weights
00087238 l     O .data	00002260 int16xint8xint32_1_input
00000158 l     O .retention_data	00000004 flash_read_page
0000015c l     O .retention_data	00000001 g_pm_long_suspend
00000160 l     O .retention_data	00000029 pmcd
0000018c l     O .retention_data	00000004 g_pm_tick_32k_calib
00000190 l     O .retention_data	00000004 g_pm_tick_cur
00000194 l     O .retention_data	00000001 g_plic_preempt_en
00000198 l     O .retention_data	00000002 s_flash_preempt_config
0000019a l     O .retention_data	00000001 g_pm_suspend_power_cfg
0000019c l     O .retention_data	00000008 g_pm_early_wakeup_time_us
000001a4 l     O .retention_data	00000004 g_pm_tick_32k_cur
000001a8 l     O .retention_data	00000001 g_pm_tick_update_en
000001ac l     O .retention_data	00000004 g_pm_r_delay_cycle
000001b0 l     O .retention_data	00000008 g_pm_longsleep_early_wakeup_time_us
0008003c l     O .data	00000028 basic_input
00080064 l     O .data	00000014 basic_output_ref
00080078 l     O .data	000000c8 conv_2x2_dilation_input
00080140 l     O .data	00000048 conv_2x2_dilation_output_ref
00080188 l     O .data	00000024 conv_2x2_dilation_weights
000801ac l     O .data	000000c6 conv_3x3_dilation_5x5_input_input
00080274 l     O .data	000000c6 conv_3x3_dilation_5x5_input_output_ref
000803d4 l     O .data	00000024 conv_3x3_dilation_5x5_input_weights
000803f8 l     O .data	00000024 depthwise_2_biases
0008041c l     O .data	0000005a depthwise_2_input
00080478 l     O .data	00000024 depthwise_2_output_mult
0008049c l     O .data	00000051 depthwise_2_output_ref
000804f0 l     O .data	00000024 depthwise_2_output_shift
00080514 l     O .data	0000006c depthwise_2_weights
00080580 l     O .data	00000031 depthwise_dilation_input
000805b4 l     O .data	00000031 depthwise_dilation_output_ref
000805e8 l     O .data	00000009 depthwise_dilation_weights
000805f4 l     O .data	0000000c depthwise_mult_batches_biases
00080600 l     O .data	0000005a depthwise_mult_batches_input
0008065c l     O .data	0000000c depthwise_mult_batches_output_mult
00080668 l     O .data	00000024 depthwise_mult_batches_output_ref
0008068c l     O .data	0000000c depthwise_mult_batches_output_shift
00080698 l     O .data	00000018 depthwise_mult_batches_weights
000806b0 l     O .data	00000040 dw_int16xint8_biases
000806f0 l     O .data	00000040 dw_int16xint8_dilation_biases
00080730 l     O .data	00000168 dw_int16xint8_dilation_input
00080898 l     O .data	00000020 dw_int16xint8_dilation_output_mult
000808b8 l     O .data	000002d0 dw_int16xint8_dilation_output_ref
00080b88 l     O .data	00000020 dw_int16xint8_dilation_output_shift
00080cb0 l     O .data	00000080 dw_int16xint8_dilation_weights
00080d30 l     O .data	00000168 dw_int16xint8_input
00080e98 l     O .data	00000040 dw_int16xint8_mult4_biases
00080ed8 l     O .data	00000050 dw_int16xint8_mult4_input
00080f28 l     O .data	00000020 dw_int16xint8_mult4_output_mult
00080f48 l     O .data	00000010 dw_int16xint8_mult4_output_ref
00080f58 l     O .data	00000020 dw_int16xint8_mult4_output_shift
00080f78 l     O .data	00000060 dw_int16xint8_mult4_weights
00080fd8 l     O .data	00000020 dw_int16xint8_output_mult
00080ff8 l     O .data	00000090 dw_int16xint8_output_ref
00081088 l     O .data	00000020 dw_int16xint8_output_shift
00081130 l     O .data	00000060 dw_int16xint8_weights
00081190 l     O .data	00000020 int16xint8_bias
000811b0 l     O .data	00000010 int16xint8_dilation_1_bias
00083068 l     O .data	00000010 int16xint8_dilation_1_weights
000852d8 l     O .data	00000050 int16xint8_output
00085328 l     O .data	00000010 int16xint8_output_multiplier
00085338 l     O .data	00000010 int16xint8_output_shift
00089498 l     O .data	00000050 int16xint8xint32_1_output
000894e8 l     O .data	00000010 int16xint8xint32_1_output_multiplier
000894f8 l     O .data	00000010 int16xint8xint32_1_output_shift
0008bab8 l     O .sbss	00000004 clkFastfreq
0008babc l     O .sbss	00000004 exception_mcause
0008bac0 l     O .sbss	00000004 exception_mdcause
0008bac4 l     O .sbss	00000004 exception_mepc
0008bac8 l     O .sbss	00000004 exception_mstatus
0008bacc l     O .sbss	00000004 exception_mtval
0008bad0 l     O .sbss	00000004 g_chip_version
0008bad4 l     O .sbss	00000004 g_pm_status_info
0008ba48 l     O .data	00000001 init_flag.5287
0008ba4c l     O .data	00000006 sys_clk
0008ba58 l     O .data	00000004 basic_biases
0008ba5c l     O .data	00000004 basic_output_mult
0008ba60 l     O .data	00000004 basic_output_shift
0008ba64 l     O .data	00000008 basic_weights
0008ba6c l     O .data	00000008 conv_2x2_dilation_biases
0008ba74 l     O .data	00000008 conv_2x2_dilation_output_mult
0008ba7c l     O .data	00000008 conv_2x2_dilation_output_shift
0008ba84 l     O .data	00000008 conv_3x3_dilation_5x5_input_biases
0008ba8c l     O .data	00000008 conv_3x3_dilation_5x5_input_output_mult
0008ba94 l     O .data	00000008 conv_3x3_dilation_5x5_input_output_shift
0008ba9c l     O .data	00000004 depthwise_dilation_biases
0008baa0 l     O .data	00000004 depthwise_dilation_output_mult
0008baa4 l     O .data	00000004 depthwise_dilation_output_shift
0008baa8 l     O .data	00000008 int16xint8_dilation_1_output_multiplier
0008bab0 l     O .data	00000008 int16xint8_dilation_1_output_shift
0008baf8 l     O .sdk_version	00000022 sdk_version
00000000 l    df *ABS*	00000000 riscv_convolve_wrapper_s16.c.o
00002fc0 l       .ram_code	00000000 $x
00000000 l    df *ABS*	00000000 riscv_convolve_wrapper_s8.c.o
00002fc4 l       .ram_code	00000000 $x
00000000 l    df *ABS*	00000000 riscv_depthwise_conv_get_buffer_sizes_s16.c.o
00003118 l       .ram_code	00000000 $x
0000312c l       .ram_code	00000000 $x
00000000 l    df *ABS*	00000000 riscv_convolve_s16.c.o
0000316c l       .ram_code	00000000 $x
00000000 l    df *ABS*	00000000 riscv_convolve_get_buffer_sizes_s16.c.o
00003620 l       .ram_code	00000000 $x
00000000 l    df *ABS*	00000000 riscv_convolve_1x1_s8_fast.c.o
00003634 l       .ram_code	00000000 $x
00000000 l    df *ABS*	00000000 riscv_convolve_s8.c.o
00003974 l       .ram_code	00000000 $x
00000000 l    df *ABS*	00000000 riscv_nn_mat_mult_kernel_s8_s16.c.o
000040ec l       .ram_code	00000000 $x
00000000 l    df *ABS*	00000000 riscv_convolve_get_buffer_sizes_s8.c.o
000045c0 l       .ram_code	00000000 $x
00000000 l    df *ABS*	00000000 riscv_nn_mat_mult_kernel_s16.c.o
00004650 l       .ram_code	00000000 $x
00000000 l    df *ABS*	00000000 riscv_depthwise_conv_get_buffer_sizes_s8.c.o
00004f68 l       .ram_code	00000000 $x
00004f7c l       .ram_code	00000000 $x
00000000 l    df *ABS*	00000000 riscv_nn_mat_mult_kernel_row_offset_s8_s16.c.o
00004fd0 l       .ram_code	00000000 $x
00000000 l    df *ABS*	00000000 riscv_convolve_1x1_s8.c.o
000054b4 l       .ram_code	00000000 $x
00000000 l    df *ABS*	00000000 riscv_depthwise_conv_wrapper_s8.c.o
000055d8 l       .ram_code	00000000 $x
00000000 l    df *ABS*	00000000 riscv_depthwise_conv_wrapper_s16.c.o
000056b0 l       .ram_code	00000000 $x
00000000 l    df *ABS*	00000000 riscv_convolve_1_x_n_s8.c.o
00005744 l       .ram_code	00000000 $x
00000000 l    df *ABS*	00000000 riscv_nn_mat_mult_nt_t_s8.c.o
00005798 l       .ram_code	00000000 $x
00000000 l    df *ABS*	00000000 riscv_s8_to_s16_unordered_with_offset.c.o
000064dc l       .ram_code	00000000 $x
00000000 l    df *ABS*	00000000 riscv_depthwise_conv_s16.c.o
00006560 l       .ram_code	00000000 $x
00000000 l    df *ABS*	00000000 riscv_depthwise_conv_s8.c.o
00006988 l       .ram_code	00000000 $x
00006988 l     F .ram_code	000003be depthwise_conv_s8_mult_4
00006d48 l       .ram_code	00000000 $x
00000000 l    df *ABS*	00000000 riscv_depthwise_conv_s8_opt.c.o
000071b0 l       .ram_code	00000000 $x
00000000 l    df *ABS*	00000000 riscv_depthwise_conv_3x3_s8.c.o
00007890 l       .ram_code	00000000 $x
00000000 l    df *ABS*	00000000 riscv_depthwise_conv_fast_s16.c.o
00009078 l       .ram_code	00000000 $x
00000000 l    df *ABS*	00000000 riscv_q7_to_q15_with_offset.c.o
00009964 l       .ram_code	00000000 $x
00000000 l    df *ABS*	00000000 memcpy.c
00000000 l    df *ABS*	00000000 malloc.c
00000000 l    df *ABS*	00000000 nano-mallocr.c
00000000 l    df *ABS*	00000000 nano-mallocr.c
00000000 l    df *ABS*	00000000 printf.c
00000000 l    df *ABS*	00000000 puts.c
00000000 l    df *ABS*	00000000 strlen.c
00000000 l    df *ABS*	00000000 vprintf.c
00009da4 l     F .ram_code	0000003a __vprintf_help
0008bae0 l     O .sbss	00000004 __vprintf_buf
0008bae4 l     O .sbss	00000004 __vprintf_buf_len
00000000 l    df *ABS*	00000000 printf_impl.c
00000000 l    df *ABS*	00000000 printf_impl_float.c
00000000 l    df *ABS*	00000000 strcpy.c
00000000 l    df *ABS*	00000000 strnlen.c
00000000 l    df *ABS*	00000000 muldf3.c
00000000 l    df *ABS*	00000000 fixunsdfsi.c
00000000 l    df *ABS*	00000000 floatsidf.c
00000000 l    df *ABS*	00000000 extendsfdf2.c
00000000 l    df *ABS*	00000000 _sbrk.c
0008baf0 l     O .sbss	00000004 heap_end.2408
00000000 l    df *ABS*	00000000 libgcc2.c
00000000 l    df *ABS*	00000000 libgcc2.c
00000000 l    df *ABS*	00000000 printf_data.c
00000000 l    df *ABS*	00000000 impure.c
0008baf4 l     O .bss	00000000 impure_data
00002fb8  w      .ram_code	00000000 entry_irq55
00002fb8  w      .ram_code	00000000 entry_irq13
00002fc0 g     F .ram_code	00000002 riscv_convolve_wrapper_s16
0000a7a8 g     F .ram_code	0000007c strcpy
00002fb8  w      .ram_code	00000000 entry_irq15
0000b108 g     F .ram_code	0000002e .hidden __ashldi3
00002fb8  w      .ram_code	00000000 entry_irq27
00002fb8  w      .ram_code	00000000 entry_irq60
00002fb8  w      .ram_code	00000000 entry_irq1
00002fb8  w      .ram_code	00000000 entry_irq52
00002fb8  w      .ram_code	00000000 entry_irq50
00002fb8  w      .ram_code	00000000 entry_irq62
00009cf0 g     F .ram_code	0000001e printf
00080800 g       .data	00000000 __global_pointer$
0000b140 g       .ram_code	00000000 .hidden __riscv_save_8
00002fb8  w      .ram_code	00000000 entry_irq58
00003118 g     F .ram_code	00000012 riscv_depthwise_conv_fast_s16_get_buffer_size
0000b18c g       .ram_code	00000000 .hidden __riscv_restore_3
00009964 g     F .ram_code	00000088 riscv_q7_to_q15_with_offset
000001bc g       .retention_data	00000000 _RETENTION_DATA_VMA_END
0000b178 g       .ram_code	00000000 .hidden __riscv_restore_10
0000b140 g       .ram_code	00000000 .hidden __riscv_save_11
00009e2a g     F .ram_code	00000048 __print_integral
00000000 g       .retention_reset	00000000 _RETENTION_RESET_VMA_START
00002fb8  w      .ram_code	00000000 entry_irq10
00002fb8  w      .ram_code	00000000 entry_irq21
00000158 g       .retention_data	00000000 _AES_VMA_START
00002fb8  w      .ram_code	00000000 entry_irq48
0000b18c g       .ram_code	00000000 .hidden __riscv_restore_2
00002fb8  w      .ram_code	00000000 entry_irq8
00002fb8  w      .ram_code	00000000 entry_irq33
0008baf8 g       .bss	00000000 _BSS_VMA_END
000099ec g     F .ram_code	000000fa memcpy
20000190 g       *ABS*	00000000 _RETENTION_RESET_LMA_START
0000af24 g     F .ram_code	0000007a .hidden __floatsidf
00009e72 g     F .ram_code	00000472 __printf_impl
00002fb8  w      .ram_code	00000000 entry_irq12
00009d0e g     F .ram_code	00000034 puts
00002fc4 g     F .ram_code	00000154 riscv_convolve_wrapper_s8
00009b90 g     F .ram_code	00000010 malloc
00002fb8  w      .ram_code	00000000 entry_irq14
0000b138 g       .ram_code	00000000 .hidden __riscv_save_12
0000ae8c g     F .ram_code	00000096 .hidden __fixunsdfsi
00002fb8  w      .ram_code	00000000 entry_irq2
00002fb8  w      .ram_code	00000000 entry_irq51
0000b178 g       .ram_code	00000000 .hidden __riscv_restore_11
00002fb8  w      .ram_code	00000000 entry_irq28
00002fb8  w      .ram_code	00000000 entry_irq43
0000b168 g       .ram_code	00000000 .hidden __riscv_save_1
0000b18c g       .ram_code	00000000 .hidden __riscv_restore_0
00002fb8  w      .ram_code	00000000 entry_irq20
0000b14e g       .ram_code	00000000 .hidden __riscv_save_7
0008bab8 g       .sbss	00000000 _BSS_VMA_START
00002fb8  w      .ram_code	00000000 entry_irq63
0008bab8 g       .data	00000000 _DATA_VMA_END
0000afa0 g     F .ram_code	00000110 .hidden __extendsfdf2
00002fb8  w      .ram_code	00000000 entry_irq46
00002fb8  w      .ram_code	00000000 entry_irq31
00002fb8  w      .ram_code	00000000 entry_irq16
00100000 g       *ABS*	00000000 FLASH_SIZE
0000b182 g       .ram_code	00000000 .hidden __riscv_restore_5
00080000 g       .data	00000000 _DATA_VMA_START
000055d8 g     F .ram_code	000000d8 riscv_depthwise_conv_wrapper_s8
0000b0b0  w    F .ram_code	00000028 _sbrk
00002fb8  w      .ram_code	00000000 entry_irq53
00002fb8  w      .ram_code	00000000 entry_irq11
00000154 g       .retention_reset	00000000 _RETENTION_RESET_VMA_END
0000a826 g     F .ram_code	00000018 strnlen
0000b182 g       .ram_code	00000000 .hidden __riscv_restore_6
00006560 g     F .ram_code	00000426 riscv_depthwise_conv_s16
0000316c g     F .ram_code	000004b4 riscv_convolve_s16
00002fb8  w      .ram_code	00000000 entry_irq5
00002fb8  w      .ram_code	00000000 entry_irq23
00002fba  w      .ram_code	00000000 trap_handler
00002fb8  w      .ram_code	00000000 entry_irq34
0000b0d8 g     F .ram_code	0000002e .hidden __lshrdi3
00002fb8  w      .ram_code	00000000 entry_irq36
0000b140 g       .ram_code	00000000 .hidden __riscv_save_9
00002fb8  w      .ram_code	00000000 entry_irq44
00005798 g     F .ram_code	00000d44 riscv_nn_mat_mult_nt_t_s8
00009dde g     F .ram_code	0000004c vprintf
00002fb8  w      .ram_code	00000000 entry_irq45
00002fb8  w      .ram_code	00000000 entry_irq26
0000b14e g       .ram_code	00000000 .hidden __riscv_save_4
00002fb8  w      .ram_code	00000000 entry_irq41
00006d48 g     F .ram_code	00000466 riscv_depthwise_conv_s8
00007890 g     F .ram_code	000017e6 riscv_depthwise_conv_3x3_s8
00002fb8  w      .ram_code	00000000 entry_irq61
20000000 g       .vectors	00000000 BIN_BEGIN
00009bb0 g     F .ram_code	00000090 _free_r
00004fd0 g     F .ram_code	000004e4 riscv_nn_mat_mult_kernel_row_offset_s8_s16
0000b168 g       .ram_code	00000000 .hidden __riscv_save_3
000054b4 g     F .ram_code	00000124 riscv_convolve_1x1_s8
00002fb8  w      .ram_code	00000000 entry_irq38
00001100 g       .ram_code	00000000 __vectors
00016eba g       *ABS*	00000000 BIN_SIZE
0008b9f0 g     O .data	00000010 __digits
20000350 g       *ABS*	00000000 _RAMCODE_LMA_START
000045c0 g     F .ram_code	0000008e riscv_convolve_wrapper_s8_get_buffer_size
00005744 g     F .ram_code	00000054 riscv_convolve_1_x_n_s8
0008baec g     O .sbss	00000004 __printf_count
00002fb8  w      .ram_code	00000000 entry_irq59
00002fb8  w      .ram_code	00000000 entry_irq6
0000a840 g     F .ram_code	00000648 .hidden __muldf3
0000b140 g       .ram_code	00000000 .hidden __riscv_save_10
0008bae8 g     O .sbss	00000004 __mculib_REENT_errno
2000b3e0 g       *ABS*	00000000 _DATA_LMA_START
0000a302 g     F .ram_code	00000092 __print_integral_poly
20000000 g       *ABS*	00000000 NDS_SAG_LMA_FLASH
0000b182 g       .ram_code	00000000 .hidden __riscv_restore_4
0000b178 g       .ram_code	00000000 .hidden __riscv_restore_8
00009078 g     F .ram_code	000008ec riscv_depthwise_conv_fast_s16
0000b14e g       .ram_code	00000000 .hidden __riscv_save_6
00004f68 g     F .ram_code	00000012 riscv_depthwise_conv_s8_opt_get_buffer_size
20000000  w      .vectors	00000000 _RELAX_END_
0000a394 g     F .ram_code	00000414 __printf_float_impl
00009ae6 g     F .ram_code	000000aa memset
0000b178 g       .ram_code	00000000 .hidden __riscv_restore_9
0000b182 g       .ram_code	00000000 .hidden __riscv_restore_7
00001e98 g     F .ram_code	0000111c main
00002fb8 g       .ram_code	00000000 default_irq_entry
00002fb8  w      .ram_code	00000000 entry_irq3
00000fd4 g     F .ram_code	00000100 trap_entry
00000158 g       .retention_data	00000000 _AES_VMA_END
000064dc g     F .ram_code	00000084 riscv_s8_to_s16_unordered_with_offset
00002fb8  w      .ram_code	00000000 entry_irq39
00002fb8  w      .ram_code	00000000 entry_irq49
00009c40 g     F .ram_code	000000b0 _malloc_r
00004f7c g     F .ram_code	00000054 riscv_depthwise_conv_wrapper_s8_get_buffer_size
0000312c g     F .ram_code	0000003e riscv_depthwise_conv_wrapper_s16_get_buffer_size
00002fb8  w      .ram_code	00000000 entry_irq57
00002fb8  w      .ram_code	00000000 entry_irq47
200002e8 g       *ABS*	00000000 _RETENTION_DATA_LMA_START
20000000 g     F .vectors	00000000 _RESET_ENTRY
00004650 g     F .ram_code	00000916 riscv_nn_mat_mult_kernel_s16
00000158 g       .retention_data	00000000 _RETENTION_DATA_VMA_START
00002fb8  w      .ram_code	00000000 entry_irq4
000a0000 g       *ABS*	00000000 _STACK_TOP
00002fb8  w      .ram_code	00000000 entry_irq22
00002fb8  w      .ram_code	00000000 entry_irq30
0008ba54 g     O .data	00000004 _impure_ptr
00002fb8  w      .ram_code	00000000 entry_irq42
000056b0 g     F .ram_code	00000094 riscv_depthwise_conv_wrapper_s16
00002fb8  w      .ram_code	00000000 entry_irq24
000040ec g     F .ram_code	000004d4 riscv_nn_mat_mult_kernel_s8_s16
0000b168 g       .ram_code	00000000 .hidden __riscv_save_2
0000b290 g       .ram_code	00000000 _RAMCODE_VMA_END
00000000  w      *ABS*	00000000 _ITB_BASE_
0000b14e g       .ram_code	00000000 .hidden __riscv_save_5
00002fb8  w      .ram_code	00000000 entry_irq19
00003620 g     F .ram_code	00000012 riscv_convolve_wrapper_s16_get_buffer_size
00001e50 g     F .ram_code	00000048 _write
0008bb20 g       .sdk_version	00000000 _end
00002fb8  w      .ram_code	00000000 entry_irq17
00002fb8  w      .ram_code	00000000 entry_irq9
000071b0 g     F .ram_code	000006e0 riscv_depthwise_conv_s8_opt
00002fb8  w      .ram_code	00000000 entry_irq56
00002fb8  w      .ram_code	00000000 entry_irq35
00002fb8  w      .ram_code	00000000 entry_irq37
000001b8 g     O .retention_data	00000004 g_pm_mspi_cfg
00002fb8  w      .ram_code	00000000 entry_irq54
00002fb8  w      .ram_code	00000000 entry_irq40
0000b174 g       .ram_code	00000000 .hidden __riscv_restore_12
00000200 g       .ram_code	00000000 _RAMCODE_VMA_START
0000b168 g       .ram_code	00000000 .hidden __riscv_save_0
00009d44 g     F .ram_code	0000005e strlen
00002fb8  w      .ram_code	00000000 entry_irq29
0008badc g     O .sbss	00000004 __malloc_sbrk_start
00003974 g     F .ram_code	00000778 riscv_convolve_s8
0008bad8 g     O .sbss	00000004 __malloc_free_list
0000b18c g       .ram_code	00000000 .hidden __riscv_restore_1
00003634 g     F .ram_code	00000340 riscv_convolve_1x1_s8_fast
00002fb8  w      .ram_code	00000000 entry_irq7
00002fb8  w      .ram_code	00000000 entry_irq32
00000000 g     F .retention_reset	00000000 _IRESET_ENTRY
00002fb8  w      .ram_code	00000000 entry_irq18
0000a2e4 g     F .ram_code	0000001e __int_to_poly
00009ba0 g     F .ram_code	00000010 free
00002fb8  w      .ram_code	00000000 entry_irq25



Disassembly of section .vectors:

20000000 <_RESET_ENTRY>:
20000000:	a025                	c.j	20000028 <_START>
	...
20000016:	0000                	unimp
20000018:	6eba                	c.flwsp	ft9,140(sp)
2000001a:	0001                	c.nop
2000001c:	0000                	unimp
2000001e:	0000                	unimp
20000020:	544c4e4b          	fnmsub.h	ft8,fs8,ft4,fa0,rmm
20000024:	0000                	unimp
20000026:	          	sllw	a4,zero,zero

20000028 <_START>:
20000028:	e0080197          	auipc	gp,0xe0080
2000002c:	7d818193          	addi	gp,gp,2008 # 80800 <__global_pointer$>
20000030:	801002b7          	lui	t0,0x80100
20000034:	70028293          	addi	t0,t0,1792 # 80100700 <_DATA_LMA_START+0x600f5320>
20000038:	04000313          	li	t1,64
2000003c:	506280a3          	sb	t1,1281(t0)
20000040:	e00a0297          	auipc	t0,0xe00a0
20000044:	fc028293          	addi	t0,t0,-64 # a0000 <_STACK_TOP>
20000048:	8116                	c.mv	sp,t0
2000004a:	e0000297          	auipc	t0,0xe0000
2000004e:	fb628293          	addi	t0,t0,-74 # 0 <_ITB_BASE_>
20000052:	80029073          	csrw	uitb,t0
20000056:	6299                	c.lui	t0,0x6
20000058:	3002a2f3          	csrrs	t0,mstatus,t0
2000005c:	00301073          	fssr	zero
20000060:	e0001297          	auipc	t0,0xe0001
20000064:	0a028293          	addi	t0,t0,160 # 1100 <__vectors>
20000068:	30529073          	csrw	mtvec,t0
2000006c:	7d016073          	csrsi	mmisc_ctl,2
20000070:	e40002b7          	lui	t0,0xe4000
20000074:	4309                	c.li	t1,2
20000076:	0062a023          	sw	t1,0(t0) # e4000000 <_DATA_LMA_START+0xc3ff4c20>
2000007a:	7ca022f3          	csrr	t0,mcache_ctl
2000007e:	0012e293          	ori	t0,t0,1
20000082:	0022e293          	ori	t0,t0,2
20000086:	7ca29073          	csrw	mcache_ctl,t0
2000008a:	0000100f          	fence.i

2000008e <_RETENTION_RESET_INIT>:
2000008e:	00000317          	auipc	t1,0x0
20000092:	10230313          	addi	t1,t1,258 # 20000190 <_RETENTION_RESET_LMA_START>
20000096:	e0000397          	auipc	t2,0xe0000
2000009a:	f6a38393          	addi	t2,t2,-150 # 0 <_ITB_BASE_>
2000009e:	e0000e17          	auipc	t3,0xe0000
200000a2:	0b6e0e13          	addi	t3,t3,182 # 154 <_RETENTION_RESET_VMA_END>

200000a6 <_RETENTION_RESET_BEGIN>:
200000a6:	01c3f963          	bgeu	t2,t3,200000b8 <_RETENTION_DATA_INIT>
200000aa:	00032283          	lw	t0,0(t1)
200000ae:	0053a023          	sw	t0,0(t2)
200000b2:	0311                	c.addi	t1,4
200000b4:	0391                	c.addi	t2,4
200000b6:	bfc5                	c.j	200000a6 <_RETENTION_RESET_BEGIN>

200000b8 <_RETENTION_DATA_INIT>:
200000b8:	00000317          	auipc	t1,0x0
200000bc:	23030313          	addi	t1,t1,560 # 200002e8 <_RETENTION_DATA_LMA_START>
200000c0:	15800393          	li	t2,344
200000c4:	e0000e17          	auipc	t3,0xe0000
200000c8:	0f8e0e13          	addi	t3,t3,248 # 1bc <_RETENTION_DATA_VMA_END>

200000cc <_RETENTION_DATA_INIT_BEGIN>:
200000cc:	01c3f963          	bgeu	t2,t3,200000de <_RAMCODE_INIT>
200000d0:	00032283          	lw	t0,0(t1)
200000d4:	0053a023          	sw	t0,0(t2)
200000d8:	0311                	c.addi	t1,4
200000da:	0391                	c.addi	t2,4
200000dc:	bfc5                	c.j	200000cc <_RETENTION_DATA_INIT_BEGIN>

200000de <_RAMCODE_INIT>:
200000de:	00000317          	auipc	t1,0x0
200000e2:	27230313          	addi	t1,t1,626 # 20000350 <_RAMCODE_LMA_START>
200000e6:	e0000397          	auipc	t2,0xe0000
200000ea:	11a38393          	addi	t2,t2,282 # 200 <delay_ms.constprop.12>
200000ee:	e000be17          	auipc	t3,0xe000b
200000f2:	1a2e0e13          	addi	t3,t3,418 # b290 <_RAMCODE_VMA_END>

200000f6 <_RAMCODE_INIT_BEGIN>:
200000f6:	01c3f963          	bgeu	t2,t3,20000108 <_DATA_INIT>
200000fa:	00032283          	lw	t0,0(t1)
200000fe:	0053a023          	sw	t0,0(t2)
20000102:	0311                	c.addi	t1,4
20000104:	0391                	c.addi	t2,4
20000106:	bfc5                	c.j	200000f6 <_RAMCODE_INIT_BEGIN>

20000108 <_DATA_INIT>:
20000108:	0000b317          	auipc	t1,0xb
2000010c:	2d830313          	addi	t1,t1,728 # 2000b3e0 <_DATA_LMA_START>
20000110:	e0080397          	auipc	t2,0xe0080
20000114:	ef038393          	addi	t2,t2,-272 # 80000 <_DATA_VMA_START>
20000118:	e008ce17          	auipc	t3,0xe008c
2000011c:	9a0e0e13          	addi	t3,t3,-1632 # 8bab8 <_DATA_VMA_END>

20000120 <_DATA_INIT_BEGIN>:
20000120:	01c3f963          	bgeu	t2,t3,20000132 <_ZERO_BSS>
20000124:	00032283          	lw	t0,0(t1)
20000128:	0053a023          	sw	t0,0(t2)
2000012c:	0311                	c.addi	t1,4
2000012e:	0391                	c.addi	t2,4
20000130:	bfc5                	c.j	20000120 <_DATA_INIT_BEGIN>

20000132 <_ZERO_BSS>:
20000132:	000002b7          	lui	t0,0x0
20000136:	e008c397          	auipc	t2,0xe008c
2000013a:	98238393          	addi	t2,t2,-1662 # 8bab8 <_DATA_VMA_END>
2000013e:	e008ce17          	auipc	t3,0xe008c
20000142:	9bae0e13          	addi	t3,t3,-1606 # 8baf8 <_BSS_VMA_END>

20000146 <_ZERO_BSS_BEGIN>:
20000146:	01c3f663          	bgeu	t2,t3,20000152 <_ZERO_AES>
2000014a:	0053a023          	sw	t0,0(t2)
2000014e:	0391                	c.addi	t2,4
20000150:	bfdd                	c.j	20000146 <_ZERO_BSS_BEGIN>

20000152 <_ZERO_AES>:
20000152:	000002b7          	lui	t0,0x0
20000156:	e0000397          	auipc	t2,0xe0000
2000015a:	00238393          	addi	t2,t2,2 # 158 <_AES_VMA_END>
2000015e:	e0000e17          	auipc	t3,0xe0000
20000162:	ffae0e13          	addi	t3,t3,-6 # 158 <_AES_VMA_END>

20000166 <_ZERO_AES_BEGIN>:
20000166:	01c3f663          	bgeu	t2,t3,20000172 <_FILL_STK>
2000016a:	0053a023          	sw	t0,0(t2)
2000016e:	0391                	c.addi	t2,4
20000170:	bfdd                	c.j	20000166 <_ZERO_AES_BEGIN>

20000172 <_FILL_STK>:
20000172:	0001                	c.nop
20000174:	e0002297          	auipc	t0,0xe0002
20000178:	d2428293          	addi	t0,t0,-732 # 1e98 <main>
2000017c:	9282                	c.jalr	t0
2000017e:	0001                	c.nop
20000180:	0001                	c.nop
20000182:	0001                	c.nop
20000184:	0001                	c.nop
20000186:	0001                	c.nop

20000188 <_END>:
20000188:	a001                	c.j	20000188 <_END>

Disassembly of section .retention_reset:

00000000 <_IRESET_ENTRY>:
   0:	a00d                	c.j	22 <_ISTART>
	...

00000022 <_ISTART>:
  22:	00080197          	auipc	gp,0x80
  26:	7de18193          	addi	gp,gp,2014 # 80800 <__global_pointer$>

0000002a <_ISWS_USB_DIS>:
  2a:	801002b7          	lui	t0,0x80100
  2e:	70028293          	addi	t0,t0,1792 # 80100700 <_DATA_LMA_START+0x600f5320>
  32:	04000313          	li	t1,64
  36:	506280a3          	sb	t1,1281(t0)
  3a:	000a0297          	auipc	t0,0xa0
  3e:	fc628293          	addi	t0,t0,-58 # a0000 <_STACK_TOP>
  42:	8116                	c.mv	sp,t0
  44:	00000297          	auipc	t0,0x0
  48:	fbc28293          	addi	t0,t0,-68 # 0 <_IRESET_ENTRY>
  4c:	80029073          	csrw	uitb,t0
  50:	6299                	c.lui	t0,0x6
  52:	3002a2f3          	csrrs	t0,mstatus,t0
  56:	00301073          	fssr	zero
  5a:	00001297          	auipc	t0,0x1
  5e:	0a628293          	addi	t0,t0,166 # 1100 <__vectors>
  62:	30529073          	csrw	mtvec,t0
  66:	7d016073          	csrsi	mmisc_ctl,2
  6a:	e40002b7          	lui	t0,0xe4000
  6e:	4309                	c.li	t1,2
  70:	0062a023          	sw	t1,0(t0) # e4000000 <_DATA_LMA_START+0xc3ff4c20>
  74:	7ca022f3          	csrr	t0,mcache_ctl
  78:	0012e293          	ori	t0,t0,1
  7c:	0022e293          	ori	t0,t0,2
  80:	7ca29073          	csrw	mcache_ctl,t0
  84:	0000100f          	fence.i

00000088 <_WAKEUP_FLASH>:
  88:	801402b7          	lui	t0,0x80140
  8c:	0ff00313          	li	t1,255
  90:	4381                	c.li	t2,0
  92:	0ab00e13          	li	t3,171
  96:	326284a3          	sb	t1,809(t0) # 80140329 <_DATA_LMA_START+0x60134f49>
  9a:	107280a3          	sb	t2,257(t0)
  9e:	11c28023          	sb	t3,256(t0)

000000a2 <_MSPI_WAIT>:
  a2:	801402b7          	lui	t0,0x80140
  a6:	10228383          	lb	t2,258(t0) # 80140102 <_DATA_LMA_START+0x60134d22>
  aa:	4e05                	c.li	t3,1
  ac:	4ec1                	c.li	t4,16
  ae:	fe7e0ae3          	beq	t3,t2,a2 <_MSPI_WAIT>
  b2:	11d280a3          	sb	t4,257(t0)
  b6:	4281                	c.li	t0,0
  b8:	14000313          	li	t1,320

000000bc <_WAIT_EFUSE_LOAD_AND_FLASH_WAKEUP_FINISH>:
  bc:	0285                	c.addi	t0,1
  be:	fe537fe3          	bgeu	t1,t0,bc <_WAIT_EFUSE_LOAD_AND_FLASH_WAKEUP_FINISH>

000000c2 <_MULTI_ADDRESS_BEGIN>:
  c2:	801402b7          	lui	t0,0x80140
  c6:	1b800313          	li	t1,440
  ca:	00032383          	lw	t2,0(t1)
  ce:	1072a223          	sw	t2,260(t0) # 80140104 <_DATA_LMA_START+0x60134d24>

000000d2 <_IZERO_BSS>:
  d2:	000002b7          	lui	t0,0x0
  d6:	0008c397          	auipc	t2,0x8c
  da:	9e238393          	addi	t2,t2,-1566 # 8bab8 <_DATA_VMA_END>
  de:	0008ce17          	auipc	t3,0x8c
  e2:	a1ae0e13          	addi	t3,t3,-1510 # 8baf8 <_BSS_VMA_END>

000000e6 <_IZERO_BSS_BEGIN>:
  e6:	01c3f663          	bgeu	t2,t3,f2 <_IZERO_AES>
  ea:	0053a023          	sw	t0,0(t2)
  ee:	0391                	c.addi	t2,4
  f0:	bfdd                	c.j	e6 <_IZERO_BSS_BEGIN>

000000f2 <_IZERO_AES>:
  f2:	000002b7          	lui	t0,0x0
  f6:	00000397          	auipc	t2,0x0
  fa:	06238393          	addi	t2,t2,98 # 158 <_AES_VMA_END>
  fe:	00000e17          	auipc	t3,0x0
 102:	05ae0e13          	addi	t3,t3,90 # 158 <_AES_VMA_END>

00000106 <_IZERO_AES_BEGIN>:
 106:	01c3f663          	bgeu	t2,t3,112 <_IDATA_INIT>
 10a:	0053a023          	sw	t0,0(t2)
 10e:	0391                	c.addi	t2,4
 110:	bfdd                	c.j	106 <_IZERO_AES_BEGIN>

00000112 <_IDATA_INIT>:
 112:	2000b317          	auipc	t1,0x2000b
 116:	2ce30313          	addi	t1,t1,718 # 2000b3e0 <_DATA_LMA_START>
 11a:	00080397          	auipc	t2,0x80
 11e:	ee638393          	addi	t2,t2,-282 # 80000 <_DATA_VMA_START>
 122:	0008ce17          	auipc	t3,0x8c
 126:	996e0e13          	addi	t3,t3,-1642 # 8bab8 <_DATA_VMA_END>

0000012a <_IDATA_INIT_BEGIN>:
 12a:	01c3f963          	bgeu	t2,t3,13c <_IMAIN_FUNC>
 12e:	00032283          	lw	t0,0(t1)
 132:	0053a023          	sw	t0,0(t2)
 136:	0311                	c.addi	t1,4
 138:	0391                	c.addi	t2,4
 13a:	bfc5                	c.j	12a <_IDATA_INIT_BEGIN>

0000013c <_IMAIN_FUNC>:
 13c:	0001                	c.nop
 13e:	00002297          	auipc	t0,0x2
 142:	d5a28293          	addi	t0,t0,-678 # 1e98 <main>
 146:	9282                	c.jalr	t0
 148:	0001                	c.nop
 14a:	0001                	c.nop
 14c:	0001                	c.nop
 14e:	0001                	c.nop
 150:	0001                	c.nop

00000152 <_IEND>:
 152:	a001                	c.j	152 <_IEND>

Disassembly of section .ram_code:

00000200 <delay_ms.constprop.12>:
     200:	801407b7          	lui	a5,0x80140
     204:	0004e737          	lui	a4,0x4e
     208:	2007a603          	lw	a2,512(a5) # 80140200 <_DATA_LMA_START+0x60134e20>
     20c:	801406b7          	lui	a3,0x80140
     210:	20070713          	addi	a4,a4,512 # 4e200 <BIN_SIZE+0x37346>
     214:	2006a783          	lw	a5,512(a3) # 80140200 <_DATA_LMA_START+0x60134e20>
     218:	8f91                	c.sub	a5,a2
     21a:	fef77de3          	bgeu	a4,a5,214 <delay_ms.constprop.12+0x14>
     21e:	8082                	c.jr	ra

00000220 <flash_send_addr>:
     220:	5d05275b          	bfoz	a4,a0,23,16
     224:	801407b7          	lui	a5,0x80140
     228:	801406b7          	lui	a3,0x80140
     22c:	10e78023          	sb	a4,256(a5) # 80140100 <_DATA_LMA_START+0x60134d20>
     230:	10268783          	lb	a5,258(a3) # 80140102 <_DATA_LMA_START+0x60134d22>
     234:	fe07fe5b          	bbs	a5,0,230 <flash_send_addr+0x10>
     238:	3c8527db          	bfoz	a5,a0,15,8
     23c:	80140737          	lui	a4,0x80140
     240:	10f68023          	sb	a5,256(a3)
     244:	10270783          	lb	a5,258(a4) # 80140102 <_DATA_LMA_START+0x60134d22>
     248:	fe07fe5b          	bbs	a5,0,244 <flash_send_addr+0x24>
     24c:	0ff57513          	andi	a0,a0,255
     250:	801406b7          	lui	a3,0x80140
     254:	10a70023          	sb	a0,256(a4)
     258:	10268783          	lb	a5,258(a3) # 80140102 <_DATA_LMA_START+0x60134d22>
     25c:	fe07fe5b          	bbs	a5,0,258 <flash_send_addr+0x38>
     260:	00008067          	ret

00000264 <flash_send_cmd>:
     264:	801407b7          	lui	a5,0x80140
     268:	10178703          	lb	a4,257(a5) # 80140101 <_DATA_LMA_START+0x60134d21>
     26c:	0ff77713          	andi	a4,a4,255
     270:	01076713          	ori	a4,a4,16
     274:	10e780a3          	sb	a4,257(a5)
     278:	0001                	c.nop
     27a:	0001                	c.nop
     27c:	0001                	c.nop
     27e:	0001                	c.nop
     280:	0001                	c.nop
     282:	0001                	c.nop
     284:	0001                	c.nop
     286:	0001                	c.nop
     288:	0001                	c.nop
     28a:	0001                	c.nop
     28c:	10178683          	lb	a3,257(a5)
     290:	80140737          	lui	a4,0x80140
     294:	0ef6f693          	andi	a3,a3,239
     298:	10d780a3          	sb	a3,257(a5)
     29c:	10a78023          	sb	a0,256(a5)
     2a0:	10270783          	lb	a5,258(a4) # 80140102 <_DATA_LMA_START+0x60134d22>
     2a4:	fe07fe5b          	bbs	a5,0,2a0 <flash_send_cmd+0x3c>
     2a8:	00008067          	ret

000002ac <clock_set_32k_tick>:
     2ac:	801406b7          	lui	a3,0x80140
     2b0:	20a68783          	lb	a5,522(a3) # 8014020a <_DATA_LMA_START+0x60134e2a>
     2b4:	80140737          	lui	a4,0x80140
     2b8:	0ff7f793          	andi	a5,a5,255
     2bc:	0017e793          	ori	a5,a5,1
     2c0:	20f68523          	sb	a5,522(a3)
     2c4:	20b70683          	lb	a3,523(a4) # 8014020b <_DATA_LMA_START+0x60134e2b>
     2c8:	20b70793          	addi	a5,a4,523
     2cc:	fe66fc5b          	bbs	a3,6,2c4 <clock_set_32k_tick+0x18>
     2d0:	20a72623          	sw	a0,524(a4)
     2d4:	4721                	c.li	a4,8
     2d6:	00e78023          	sb	a4,0(a5)
     2da:	0001                	c.nop
     2dc:	0001                	c.nop
     2de:	0001                	c.nop
     2e0:	0001                	c.nop
     2e2:	0001                	c.nop
     2e4:	0001                	c.nop
     2e6:	0001                	c.nop
     2e8:	0001                	c.nop
     2ea:	0001                	c.nop
     2ec:	0001                	c.nop
     2ee:	0001                	c.nop
     2f0:	0001                	c.nop
     2f2:	0001                	c.nop
     2f4:	0001                	c.nop
     2f6:	0001                	c.nop
     2f8:	00000013          	nop
     2fc:	801407b7          	lui	a5,0x80140
     300:	20b78703          	lb	a4,523(a5) # 8014020b <_DATA_LMA_START+0x60134e2b>
     304:	fe377e5b          	bbs	a4,3,300 <clock_set_32k_tick+0x54>
     308:	00008067          	ret

0000030c <analog_read_reg32.constprop.4>:
     30c:	300027f3          	csrr	a5,mstatus
     310:	8ba1                	c.andi	a5,8
     312:	c789                	c.beqz	a5,31c <analog_read_reg32.constprop.4+0x10>
     314:	30047773          	csrrci	a4,mstatus,8
     318:	0ff0000f          	fence
     31c:	80140737          	lui	a4,0x80140
     320:	00400693          	li	a3,4
     324:	18d701a3          	sb	a3,387(a4) # 80140183 <_DATA_LMA_START+0x60134da3>
     328:	06000693          	li	a3,96
     32c:	18d70023          	sb	a3,384(a4)
     330:	04000613          	li	a2,64
     334:	801406b7          	lui	a3,0x80140
     338:	18c70123          	sb	a2,386(a4)
     33c:	18268703          	lb	a4,386(a3) # 80140182 <_DATA_LMA_START+0x60134da2>
     340:	fe777e5b          	bbs	a4,7,33c <analog_read_reg32.constprop.4+0x30>
     344:	1846a503          	lw	a0,388(a3)
     348:	00078663          	beqz	a5,354 <analog_read_reg32.constprop.4+0x48>
     34c:	3007a7f3          	csrrs	a5,mstatus,a5
     350:	0ff0000f          	fence
     354:	00008067          	ret

00000358 <clock_get_32k_tick>:
     358:	1141                	c.addi	sp,-16
     35a:	c422                	c.swsp	s0,8(sp)
     35c:	c606                	c.swsp	ra,12(sp)
     35e:	377d                	c.jal	30c <analog_read_reg32.constprop.4>
     360:	00a00433          	add	s0,zero,a0
     364:	fa9ff0ef          	jal	ra,30c <analog_read_reg32.constprop.4>
     368:	40850733          	sub	a4,a0,s0
     36c:	842a                	c.mv	s0,a0
     36e:	be176b5b          	bnec	a4,1,364 <clock_get_32k_tick+0xc>
     372:	40b2                	c.lwsp	ra,12(sp)
     374:	4422                	c.lwsp	s0,8(sp)
     376:	0141                	c.addi	sp,16
     378:	00008067          	ret

0000037c <pm_stimer_recover>:
     37c:	1141                	c.addi	sp,-16
     37e:	80140737          	lui	a4,0x80140
     382:	c606                	c.swsp	ra,12(sp)
     384:	4789                	c.li	a5,2
     386:	20f70c23          	sb	a5,536(a4) # 80140218 <_DATA_LMA_START+0x60134e38>
     38a:	20a70783          	lb	a5,522(a4)
     38e:	0ff7f793          	andi	a5,a5,255
     392:	00c7e793          	ori	a5,a5,12
     396:	20f70523          	sb	a5,522(a4)
     39a:	3f7d                	c.jal	358 <clock_get_32k_tick>
     39c:	00000737          	lui	a4,0x0
     3a0:	15870793          	addi	a5,a4,344 # 158 <_AES_VMA_END>
     3a4:	0047c783          	lbu	a5,4(a5)
     3a8:	15870713          	addi	a4,a4,344
     3ac:	cf81                	c.beqz	a5,3c4 <pm_stimer_recover+0x48>
     3ae:	4754                	c.lw	a3,12(a4)
     3b0:	5b50                	c.lw	a2,52(a4)
     3b2:	40d506b3          	sub	a3,a0,a3
     3b6:	471c                	c.lw	a5,8(a4)
     3b8:	0685                	c.addi	a3,1
     3ba:	8295                	c.srli	a3,0x5
     3bc:	c4c697ff          	maddr32	a5,a3,a2
     3c0:	0180006f          	j	3d8 <pm_stimer_recover+0x5c>
     3c4:	475c                	c.lw	a5,12(a4)
     3c6:	5b54                	c.lw	a3,52(a4)
     3c8:	40f507b3          	sub	a5,a0,a5
     3cc:	0785                	c.addi	a5,1
     3ce:	02d787b3          	mul	a5,a5,a3
     3d2:	4714                	c.lw	a3,8(a4)
     3d4:	8395                	c.srli	a5,0x5
     3d6:	97b6                	c.add	a5,a3
     3d8:	4754                	c.lw	a3,12(a4)
     3da:	00150593          	addi	a1,a0,1
     3de:	8d15                	c.sub	a0,a3
     3e0:	0505                	c.addi	a0,1
     3e2:	00178613          	addi	a2,a5,1
     3e6:	df1c                	c.sw	a5,56(a4)
     3e8:	d34c                	c.sw	a1,36(a4)
     3ea:	d308                	c.sw	a0,32(a4)
     3ec:	801407b7          	lui	a5,0x80140
     3f0:	801406b7          	lui	a3,0x80140
     3f4:	20c7a023          	sw	a2,512(a5) # 80140200 <_DATA_LMA_START+0x60134e20>
     3f8:	20b68783          	lb	a5,523(a3) # 8014020b <_DATA_LMA_START+0x60134e2b>
     3fc:	be77fe5b          	bbc	a5,7,3f8 <pm_stimer_recover+0x7c>
     400:	20068c23          	sb	zero,536(a3)
     404:	40b2                	c.lwsp	ra,12(sp)
     406:	0141                	c.addi	sp,16
     408:	00008067          	ret

0000040c <plic_exit_critical_sec>:
     40c:	000007b7          	lui	a5,0x0
     410:	15878793          	addi	a5,a5,344 # 158 <_AES_VMA_END>
     414:	03c78783          	lb	a5,60(a5)
     418:	0ff7f793          	andi	a5,a5,255
     41c:	c795                	c.beqz	a5,448 <plic_exit_critical_sec+0x3c>
     41e:	c50d                	c.beqz	a0,448 <plic_exit_critical_sec+0x3c>
     420:	300027f3          	csrr	a5,mstatus
     424:	8ba1                	c.andi	a5,8
     426:	0ff5f593          	andi	a1,a1,255
     42a:	c78d                	c.beqz	a5,454 <plic_exit_critical_sec+0x48>
     42c:	30047773          	csrrci	a4,mstatus,8
     430:	0ff0000f          	fence
     434:	e4200737          	lui	a4,0xe4200
     438:	c30c                	c.sw	a1,0(a4)
     43a:	0ff0000f          	fence
     43e:	3007a7f3          	csrrs	a5,mstatus,a5
     442:	0ff0000f          	fence
     446:	8082                	c.jr	ra
     448:	cd81                	c.beqz	a1,460 <plic_exit_critical_sec+0x54>
     44a:	3005a5f3          	csrrs	a1,mstatus,a1
     44e:	0ff0000f          	fence
     452:	8082                	c.jr	ra
     454:	e42007b7          	lui	a5,0xe4200
     458:	00b7a023          	sw	a1,0(a5) # e4200000 <_DATA_LMA_START+0xc41f4c20>
     45c:	0ff0000f          	fence
     460:	00008067          	ret

00000464 <plic_enter_critical_sec>:
     464:	000007b7          	lui	a5,0x0
     468:	15878793          	addi	a5,a5,344 # 158 <_AES_VMA_END>
     46c:	03c78783          	lb	a5,60(a5)
     470:	0ff7f793          	andi	a5,a5,255
     474:	cb85                	c.beqz	a5,4a4 <plic_enter_critical_sec+0x40>
     476:	c51d                	c.beqz	a0,4a4 <plic_enter_critical_sec+0x40>
     478:	e4200737          	lui	a4,0xe4200
     47c:	4308                	c.lw	a0,0(a4)
     47e:	04b57163          	bgeu	a0,a1,4c0 <plic_enter_critical_sec+0x5c>
     482:	300027f3          	csrr	a5,mstatus
     486:	8ba1                	c.andi	a5,8
     488:	cb85                	c.beqz	a5,4b8 <plic_enter_critical_sec+0x54>
     48a:	300476f3          	csrrci	a3,mstatus,8
     48e:	0ff0000f          	fence
     492:	c30c                	c.sw	a1,0(a4)
     494:	0ff0000f          	fence
     498:	3007a7f3          	csrrs	a5,mstatus,a5
     49c:	0ff0000f          	fence
     4a0:	00008067          	ret
     4a4:	30002573          	csrr	a0,mstatus
     4a8:	8921                	c.andi	a0,8
     4aa:	c919                	c.beqz	a0,4c0 <plic_enter_critical_sec+0x5c>
     4ac:	300477f3          	csrrci	a5,mstatus,8
     4b0:	0ff0000f          	fence
     4b4:	00008067          	ret
     4b8:	00b72023          	sw	a1,0(a4) # e4200000 <_DATA_LMA_START+0xc41f4c20>
     4bc:	0ff0000f          	fence
     4c0:	00008067          	ret

000004c4 <flash_mspi_read_ram>:
     4c4:	7179                	c.addi16sp	sp,-48
     4c6:	d226                	c.swsp	s1,36(sp)
     4c8:	000004b7          	lui	s1,0x0
     4cc:	15848493          	addi	s1,s1,344 # 158 <_AES_VMA_END>
     4d0:	d04a                	c.swsp	s2,32(sp)
     4d2:	c65e                	c.swsp	s7,12(sp)
     4d4:	892a                	c.mv	s2,a0
     4d6:	8bae                	c.mv	s7,a1
     4d8:	0404c503          	lbu	a0,64(s1)
     4dc:	0414c583          	lbu	a1,65(s1)
     4e0:	d422                	c.swsp	s0,40(sp)
     4e2:	ce4e                	c.swsp	s3,28(sp)
     4e4:	cc52                	c.swsp	s4,24(sp)
     4e6:	ca56                	c.swsp	s5,20(sp)
     4e8:	c85a                	c.swsp	s6,16(sp)
     4ea:	d606                	c.swsp	ra,44(sp)
     4ec:	8b32                	c.mv	s6,a2
     4ee:	8ab6                	c.mv	s5,a3
     4f0:	843a                	c.mv	s0,a4
     4f2:	8a3e                	c.mv	s4,a5
     4f4:	f71ff0ef          	jal	ra,464 <plic_enter_critical_sec>
     4f8:	80140637          	lui	a2,0x80140
     4fc:	00a009b3          	add	s3,zero,a0
     500:	10260783          	lb	a5,258(a2) # 80140102 <_DATA_LMA_START+0x60134d22>
     504:	fe07fe5b          	bbs	a5,0,500 <flash_mspi_read_ram+0x3c>
     508:	10160783          	lb	a5,257(a2)
     50c:	80140737          	lui	a4,0x80140
     510:	0ff7f793          	andi	a5,a5,255
     514:	0107e793          	ori	a5,a5,16
     518:	10f600a3          	sb	a5,257(a2)
     51c:	32870783          	lb	a5,808(a4) # 80140328 <_DATA_LMA_START+0x60134f48>
     520:	be37fe5b          	bbc	a5,3,51c <flash_mspi_read_ram+0x58>
     524:	10170783          	lb	a5,257(a4)
     528:	854a                	c.mv	a0,s2
     52a:	0fd7f793          	andi	a5,a5,253
     52e:	10f700a3          	sb	a5,257(a4)
     532:	10170783          	lb	a5,257(a4)
     536:	0f37f793          	andi	a5,a5,243
     53a:	10f700a3          	sb	a5,257(a4)
     53e:	331d                	c.jal	264 <flash_send_cmd>
     540:	0e0b1e63          	bnez	s6,63c <flash_mspi_read_ram+0x178>
     544:	020a8063          	beqz	s5,564 <flash_mspi_read_ram+0xa0>
     548:	00000713          	li	a4,0
     54c:	80140637          	lui	a2,0x80140
     550:	10060023          	sb	zero,256(a2) # 80140100 <_DATA_LMA_START+0x60134d20>
     554:	10260783          	lb	a5,258(a2)
     558:	fe07fe5b          	bbs	a5,0,554 <flash_mspi_read_ram+0x90>
     55c:	00170713          	addi	a4,a4,1
     560:	ff5718e3          	bne	a4,s5,550 <flash_mspi_read_ram+0x8c>
     564:	01b96cdb          	bnec	s2,59,57c <flash_mspi_read_ram+0xb8>
     568:	80140737          	lui	a4,0x80140
     56c:	10170783          	lb	a5,257(a4) # 80140101 <_DATA_LMA_START+0x60134d21>
     570:	0f37f793          	andi	a5,a5,243
     574:	0047e793          	ori	a5,a5,4
     578:	10f700a3          	sb	a5,257(a4)
     57c:	801406b7          	lui	a3,0x80140
     580:	10168783          	lb	a5,257(a3) # 80140101 <_DATA_LMA_START+0x60134d21>
     584:	80140737          	lui	a4,0x80140
     588:	0ff7f793          	andi	a5,a5,255
     58c:	0027e793          	ori	a5,a5,2
     590:	10f680a3          	sb	a5,257(a3)
     594:	10068023          	sb	zero,256(a3)
     598:	10270783          	lb	a5,258(a4) # 80140102 <_DATA_LMA_START+0x60134d22>
     59c:	fe07fe5b          	bbs	a5,0,598 <flash_mspi_read_ram+0xd4>
     5a0:	10170783          	lb	a5,257(a4)
     5a4:	801406b7          	lui	a3,0x80140
     5a8:	0ff7f793          	andi	a5,a5,255
     5ac:	0017e793          	ori	a5,a5,1
     5b0:	10f700a3          	sb	a5,257(a4)
     5b4:	10268783          	lb	a5,258(a3) # 80140102 <_DATA_LMA_START+0x60134d22>
     5b8:	fe07fe5b          	bbs	a5,0,5b4 <flash_mspi_read_ram+0xf0>
     5bc:	020a0263          	beqz	s4,5e0 <flash_mspi_read_ram+0x11c>
     5c0:	008a0a33          	add	s4,s4,s0
     5c4:	801406b7          	lui	a3,0x80140
     5c8:	10068783          	lb	a5,256(a3) # 80140100 <_DATA_LMA_START+0x60134d20>
     5cc:	00140413          	addi	s0,s0,1
     5d0:	fef40fa3          	sb	a5,-1(s0)
     5d4:	10268783          	lb	a5,258(a3)
     5d8:	fe07fe5b          	bbs	a5,0,5d4 <flash_mspi_read_ram+0x110>
     5dc:	ff4416e3          	bne	s0,s4,5c8 <flash_mspi_read_ram+0x104>
     5e0:	801407b7          	lui	a5,0x80140
     5e4:	10178703          	lb	a4,257(a5) # 80140101 <_DATA_LMA_START+0x60134d21>
     5e8:	0fe77713          	andi	a4,a4,254
     5ec:	10e780a3          	sb	a4,257(a5)
     5f0:	01b968db          	bnec	s2,59,600 <flash_mspi_read_ram+0x13c>
     5f4:	10178703          	lb	a4,257(a5)
     5f8:	0f377713          	andi	a4,a4,243
     5fc:	10e780a3          	sb	a4,257(a5)
     600:	80140737          	lui	a4,0x80140
     604:	10170783          	lb	a5,257(a4) # 80140101 <_DATA_LMA_START+0x60134d21>
     608:	0ff7f793          	andi	a5,a5,255
     60c:	0107e793          	ori	a5,a5,16
     610:	10f700a3          	sb	a5,257(a4)
     614:	0001                	c.nop
     616:	0001                	c.nop
     618:	0001                	c.nop
     61a:	0001                	c.nop
     61c:	0001                	c.nop
     61e:	5422                	c.lwsp	s0,40(sp)
     620:	0404c503          	lbu	a0,64(s1)
     624:	50b2                	c.lwsp	ra,44(sp)
     626:	5492                	c.lwsp	s1,36(sp)
     628:	5902                	c.lwsp	s2,32(sp)
     62a:	4a62                	c.lwsp	s4,24(sp)
     62c:	4ad2                	c.lwsp	s5,20(sp)
     62e:	4b42                	c.lwsp	s6,16(sp)
     630:	4bb2                	c.lwsp	s7,12(sp)
     632:	85ce                	c.mv	a1,s3
     634:	49f2                	c.lwsp	s3,28(sp)
     636:	6145                	c.addi16sp	sp,48
     638:	dd5ff06f          	j	40c <plic_exit_critical_sec>
     63c:	855e                	c.mv	a0,s7
     63e:	36cd                	c.jal	220 <flash_send_addr>
     640:	f05ff06f          	j	544 <flash_mspi_read_ram+0x80>

00000644 <flash_mspi_read_ram.constprop.7>:
     644:	1101                	c.addi	sp,-32
     646:	c64e                	c.swsp	s3,12(sp)
     648:	000009b7          	lui	s3,0x0
     64c:	15898993          	addi	s3,s3,344 # 158 <_AES_VMA_END>
     650:	cc22                	c.swsp	s0,24(sp)
     652:	c256                	c.swsp	s5,4(sp)
     654:	842e                	c.mv	s0,a1
     656:	8aaa                	c.mv	s5,a0
     658:	0419c583          	lbu	a1,65(s3)
     65c:	0409c503          	lbu	a0,64(s3)
     660:	c84a                	c.swsp	s2,16(sp)
     662:	c452                	c.swsp	s4,8(sp)
     664:	ce06                	c.swsp	ra,28(sp)
     666:	ca26                	c.swsp	s1,20(sp)
     668:	8932                	c.mv	s2,a2
     66a:	3bed                	c.jal	464 <plic_enter_critical_sec>
     66c:	80140737          	lui	a4,0x80140
     670:	00a00a33          	add	s4,zero,a0
     674:	10270783          	lb	a5,258(a4) # 80140102 <_DATA_LMA_START+0x60134d22>
     678:	fe07fe5b          	bbs	a5,0,674 <flash_mspi_read_ram.constprop.7+0x30>
     67c:	10170783          	lb	a5,257(a4)
     680:	801404b7          	lui	s1,0x80140
     684:	0ff7f793          	andi	a5,a5,255
     688:	0107e793          	ori	a5,a5,16
     68c:	10f700a3          	sb	a5,257(a4)
     690:	32848783          	lb	a5,808(s1) # 80140328 <_DATA_LMA_START+0x60134f48>
     694:	be37fe5b          	bbc	a5,3,690 <flash_mspi_read_ram.constprop.7+0x4c>
     698:	10148783          	lb	a5,257(s1)
     69c:	03b00513          	li	a0,59
     6a0:	0fd7f793          	andi	a5,a5,253
     6a4:	10f480a3          	sb	a5,257(s1)
     6a8:	10148783          	lb	a5,257(s1)
     6ac:	0f37f793          	andi	a5,a5,243
     6b0:	10f480a3          	sb	a5,257(s1)
     6b4:	bb1ff0ef          	jal	ra,264 <flash_send_cmd>
     6b8:	01500533          	add	a0,zero,s5
     6bc:	b65ff0ef          	jal	ra,220 <flash_send_addr>
     6c0:	80140737          	lui	a4,0x80140
     6c4:	10048023          	sb	zero,256(s1)
     6c8:	10270783          	lb	a5,258(a4) # 80140102 <_DATA_LMA_START+0x60134d22>
     6cc:	fe07fe5b          	bbs	a5,0,6c8 <flash_mspi_read_ram.constprop.7+0x84>
     6d0:	10170783          	lb	a5,257(a4)
     6d4:	801406b7          	lui	a3,0x80140
     6d8:	0f37f793          	andi	a5,a5,243
     6dc:	0047e793          	ori	a5,a5,4
     6e0:	10f700a3          	sb	a5,257(a4)
     6e4:	10170783          	lb	a5,257(a4)
     6e8:	0ff7f793          	andi	a5,a5,255
     6ec:	0027e793          	ori	a5,a5,2
     6f0:	10f700a3          	sb	a5,257(a4)
     6f4:	10070023          	sb	zero,256(a4)
     6f8:	10268783          	lb	a5,258(a3) # 80140102 <_DATA_LMA_START+0x60134d22>
     6fc:	fe07fe5b          	bbs	a5,0,6f8 <flash_mspi_read_ram.constprop.7+0xb4>
     700:	10168783          	lb	a5,257(a3)
     704:	80140737          	lui	a4,0x80140
     708:	0ff7f793          	andi	a5,a5,255
     70c:	0017e793          	ori	a5,a5,1
     710:	10f680a3          	sb	a5,257(a3)
     714:	10270783          	lb	a5,258(a4) # 80140102 <_DATA_LMA_START+0x60134d22>
     718:	fe07fe5b          	bbs	a5,0,714 <flash_mspi_read_ram.constprop.7+0xd0>
     71c:	02090263          	beqz	s2,740 <flash_mspi_read_ram.constprop.7+0xfc>
     720:	01240633          	add	a2,s0,s2
     724:	80140737          	lui	a4,0x80140
     728:	10070783          	lb	a5,256(a4) # 80140100 <_DATA_LMA_START+0x60134d20>
     72c:	00140413          	addi	s0,s0,1
     730:	fef40fa3          	sb	a5,-1(s0)
     734:	10270783          	lb	a5,258(a4)
     738:	fe07fe5b          	bbs	a5,0,734 <flash_mspi_read_ram.constprop.7+0xf0>
     73c:	fec416e3          	bne	s0,a2,728 <flash_mspi_read_ram.constprop.7+0xe4>
     740:	801407b7          	lui	a5,0x80140
     744:	10178703          	lb	a4,257(a5) # 80140101 <_DATA_LMA_START+0x60134d21>
     748:	0fe77713          	andi	a4,a4,254
     74c:	10e780a3          	sb	a4,257(a5)
     750:	10178703          	lb	a4,257(a5)
     754:	0f377713          	andi	a4,a4,243
     758:	10e780a3          	sb	a4,257(a5)
     75c:	10178703          	lb	a4,257(a5)
     760:	0ff77713          	andi	a4,a4,255
     764:	01076713          	ori	a4,a4,16
     768:	10e780a3          	sb	a4,257(a5)
     76c:	0001                	c.nop
     76e:	0001                	c.nop
     770:	0001                	c.nop
     772:	0001                	c.nop
     774:	0001                	c.nop
     776:	4462                	c.lwsp	s0,24(sp)
     778:	0409c503          	lbu	a0,64(s3)
     77c:	40f2                	c.lwsp	ra,28(sp)
     77e:	44d2                	c.lwsp	s1,20(sp)
     780:	4942                	c.lwsp	s2,16(sp)
     782:	49b2                	c.lwsp	s3,12(sp)
     784:	4a92                	c.lwsp	s5,4(sp)
     786:	85d2                	c.mv	a1,s4
     788:	4a22                	c.lwsp	s4,8(sp)
     78a:	6105                	c.addi16sp	sp,32
     78c:	c81ff06f          	j	40c <plic_exit_critical_sec>

00000790 <analog_write_reg8>:
     790:	30002673          	csrr	a2,mstatus
     794:	8a21                	c.andi	a2,8
     796:	c609                	c.beqz	a2,7a0 <analog_write_reg8+0x10>
     798:	300477f3          	csrrci	a5,mstatus,8
     79c:	0ff0000f          	fence
     7a0:	80140737          	lui	a4,0x80140
     7a4:	18a70023          	sb	a0,384(a4) # 80140180 <_DATA_LMA_START+0x60134da0>
     7a8:	18b70223          	sb	a1,388(a4)
     7ac:	06000693          	li	a3,96
     7b0:	801407b7          	lui	a5,0x80140
     7b4:	18d70123          	sb	a3,386(a4)
     7b8:	18278703          	lb	a4,386(a5) # 80140182 <_DATA_LMA_START+0x60134da2>
     7bc:	fe777e5b          	bbs	a4,7,7b8 <analog_write_reg8+0x28>
     7c0:	18078123          	sb	zero,386(a5)
     7c4:	00060663          	beqz	a2,7d0 <analog_write_reg8+0x40>
     7c8:	30062673          	csrrs	a2,mstatus,a2
     7cc:	0ff0000f          	fence
     7d0:	00008067          	ret

000007d4 <analog_read_reg8>:
     7d4:	300026f3          	csrr	a3,mstatus
     7d8:	8aa1                	c.andi	a3,8
     7da:	c689                	c.beqz	a3,7e4 <analog_read_reg8+0x10>
     7dc:	300477f3          	csrrci	a5,mstatus,8
     7e0:	0ff0000f          	fence
     7e4:	801407b7          	lui	a5,0x80140
     7e8:	18a78023          	sb	a0,384(a5) # 80140180 <_DATA_LMA_START+0x60134da0>
     7ec:	00100713          	li	a4,1
     7f0:	18e781a3          	sb	a4,387(a5)
     7f4:	04000613          	li	a2,64
     7f8:	80140737          	lui	a4,0x80140
     7fc:	18c78123          	sb	a2,386(a5)
     800:	18270783          	lb	a5,386(a4) # 80140182 <_DATA_LMA_START+0x60134da2>
     804:	fe77fe5b          	bbs	a5,7,800 <analog_read_reg8+0x2c>
     808:	18470503          	lb	a0,388(a4)
     80c:	0ff57513          	andi	a0,a0,255
     810:	00068663          	beqz	a3,81c <analog_read_reg8+0x48>
     814:	3006a6f3          	csrrs	a3,mstatus,a3
     818:	0ff0000f          	fence
     81c:	00008067          	ret

00000820 <clock_init_ram.constprop.11>:
     820:	1141                	c.addi	sp,-16
     822:	80140737          	lui	a4,0x80140
     826:	c606                	c.swsp	ra,12(sp)
     828:	c422                	c.swsp	s0,8(sp)
     82a:	c226                	c.swsp	s1,4(sp)
     82c:	10270783          	lb	a5,258(a4) # 80140102 <_DATA_LMA_START+0x60134d22>
     830:	fe07fe5b          	bbs	a5,0,82c <clock_init_ram.constprop.11+0xc>
     834:	10170783          	lb	a5,257(a4)
     838:	801404b7          	lui	s1,0x80140
     83c:	0ff7f793          	andi	a5,a5,255
     840:	0107e793          	ori	a5,a5,16
     844:	10f700a3          	sb	a5,257(a4)
     848:	32848783          	lb	a5,808(s1) # 80140328 <_DATA_LMA_START+0x60134f48>
     84c:	be37fe5b          	bbc	a5,3,848 <clock_init_ram.constprop.11+0x28>
     850:	1e848783          	lb	a5,488(s1)
     854:	08000513          	li	a0,128
     858:	8bbd                	c.andi	a5,15
     85a:	1ef48423          	sb	a5,488(s1)
     85e:	3f9d                	c.jal	7d4 <analog_read_reg8>
     860:	0e057593          	andi	a1,a0,224
     864:	0105e593          	ori	a1,a1,16
     868:	08000513          	li	a0,128
     86c:	f25ff0ef          	jal	ra,790 <analog_write_reg8>
     870:	00900513          	li	a0,9
     874:	f61ff0ef          	jal	ra,7d4 <analog_read_reg8>
     878:	0f357593          	andi	a1,a0,243
     87c:	0085e593          	ori	a1,a1,8
     880:	4525                	c.li	a0,9
     882:	3739                	c.jal	790 <analog_write_reg8>
     884:	0c000793          	li	a5,192
     888:	24c6940b          	addigp	s0,45644 # 8ba4c <sys_clk>
     88c:	00f41023          	sh	a5,0(s0)
     890:	08100513          	li	a0,129
     894:	4791                	c.li	a5,4
     896:	1ef48da3          	sb	a5,507(s1)
     89a:	3f2d                	c.jal	7d4 <analog_read_reg8>
     89c:	04056593          	ori	a1,a0,64
     8a0:	0ff5f593          	andi	a1,a1,255
     8a4:	08100513          	li	a0,129
     8a8:	ee9ff0ef          	jal	ra,790 <analog_write_reg8>
     8ac:	08800513          	li	a0,136
     8b0:	f25ff0ef          	jal	ra,7d4 <analog_read_reg8>
     8b4:	be557c5b          	bbc	a0,5,8ac <clock_init_ram.constprop.11+0x8c>
     8b8:	08100513          	li	a0,129
     8bc:	f19ff0ef          	jal	ra,7d4 <analog_read_reg8>
     8c0:	0bf57593          	andi	a1,a0,191
     8c4:	08100513          	li	a0,129
     8c8:	ec9ff0ef          	jal	ra,790 <analog_write_reg8>
     8cc:	801407b7          	lui	a5,0x80140
     8d0:	1e978703          	lb	a4,489(a5) # 801401e9 <_DATA_LMA_START+0x60134e09>
     8d4:	8b3d                	c.andi	a4,15
     8d6:	04076713          	ori	a4,a4,64
     8da:	1ee784a3          	sb	a4,489(a5)
     8de:	1e878703          	lb	a4,488(a5)
     8e2:	f8076713          	ori	a4,a4,-128
     8e6:	0ff77713          	andi	a4,a4,255
     8ea:	1ee78423          	sb	a4,488(a5)
     8ee:	1e878703          	lb	a4,488(a5)
     8f2:	f8076713          	ori	a4,a4,-128
     8f6:	0ff77713          	andi	a4,a4,255
     8fa:	1ee78423          	sb	a4,488(a5)
     8fe:	1d878703          	lb	a4,472(a5)
     902:	00045683          	lhu	a3,0(s0)
     906:	0fb77713          	andi	a4,a4,251
     90a:	1ce78c23          	sb	a4,472(a5)
     90e:	1d878703          	lb	a4,472(a5)
     912:	8689                	c.srai	a3,0x2
     914:	00d402a3          	sb	a3,5(s0)
     918:	0fc77713          	andi	a4,a4,252
     91c:	1ce78c23          	sb	a4,472(a5)
     920:	1e878703          	lb	a4,488(a5)
     924:	0f077713          	andi	a4,a4,240
     928:	00876713          	ori	a4,a4,8
     92c:	1ee78423          	sb	a4,488(a5)
     930:	1e878703          	lb	a4,488(a5)
     934:	00045683          	lhu	a3,0(s0)
     938:	08f77713          	andi	a4,a4,143
     93c:	868d                	c.srai	a3,0x3
     93e:	00d40123          	sb	a3,2(s0)
     942:	02076713          	ori	a4,a4,32
     946:	1ee78423          	sb	a4,488(a5)
     94a:	0ff6f693          	andi	a3,a3,255
     94e:	00d401a3          	sb	a3,3(s0)
     952:	00d40223          	sb	a3,4(s0)
     956:	40b2                	c.lwsp	ra,12(sp)
     958:	4422                	c.lwsp	s0,8(sp)
     95a:	4492                	c.lwsp	s1,4(sp)
     95c:	0141                	c.addi	sp,16
     95e:	8082                	c.jr	ra

00000960 <pm_wait_bbpll_done>:
     960:	1101                	c.addi	sp,-32
     962:	08100513          	li	a0,129
     966:	cc22                	c.swsp	s0,24(sp)
     968:	ca26                	c.swsp	s1,20(sp)
     96a:	c84a                	c.swsp	s2,16(sp)
     96c:	ce06                	c.swsp	ra,28(sp)
     96e:	359d                	c.jal	7d4 <analog_read_reg8>
     970:	04056593          	ori	a1,a0,64
     974:	892a                	c.mv	s2,a0
     976:	0ff5f593          	andi	a1,a1,255
     97a:	08100513          	li	a0,129
     97e:	0bf97913          	andi	s2,s2,191
     982:	4481                	c.li	s1,0
     984:	4475                	c.li	s0,29
     986:	3529                	c.jal	790 <analog_write_reg8>
     988:	000107a3          	sb	zero,15(sp)
     98c:	00f10783          	lb	a5,15(sp)
     990:	0ff7f793          	andi	a5,a5,255
     994:	02f46063          	bltu	s0,a5,9b4 <pm_wait_bbpll_done+0x54>
     998:	0001                	c.nop
     99a:	00f10783          	lb	a5,15(sp)
     99e:	0785                	c.addi	a5,1
     9a0:	0ff7f793          	andi	a5,a5,255
     9a4:	00f107a3          	sb	a5,15(sp)
     9a8:	00f10783          	lb	a5,15(sp)
     9ac:	0ff7f793          	andi	a5,a5,255
     9b0:	fef474e3          	bgeu	s0,a5,998 <pm_wait_bbpll_done+0x38>
     9b4:	08800513          	li	a0,136
     9b8:	e1dff0ef          	jal	ra,7d4 <analog_read_reg8>
     9bc:	4255765b          	bbs	a0,5,9e8 <pm_wait_bbpll_done+0x88>
     9c0:	cc95                	c.beqz	s1,9fc <pm_wait_bbpll_done+0x9c>
     9c2:	0414d35b          	beqc	s1,1,a08 <pm_wait_bbpll_done+0xa8>
     9c6:	85ca                	c.mv	a1,s2
     9c8:	08100513          	li	a0,129
     9cc:	dc5ff0ef          	jal	ra,790 <analog_write_reg8>
     9d0:	0024d65b          	beqc	s1,2,9dc <pm_wait_bbpll_done+0x7c>
     9d4:	0485                	c.addi	s1,1
     9d6:	0ff4f493          	andi	s1,s1,255
     9da:	b77d                	c.j	988 <pm_wait_bbpll_done+0x28>
     9dc:	40f2                	c.lwsp	ra,28(sp)
     9de:	4462                	c.lwsp	s0,24(sp)
     9e0:	44d2                	c.lwsp	s1,20(sp)
     9e2:	4942                	c.lwsp	s2,16(sp)
     9e4:	6105                	c.addi16sp	sp,32
     9e6:	8082                	c.jr	ra
     9e8:	4462                	c.lwsp	s0,24(sp)
     9ea:	40f2                	c.lwsp	ra,28(sp)
     9ec:	44d2                	c.lwsp	s1,20(sp)
     9ee:	85ca                	c.mv	a1,s2
     9f0:	4942                	c.lwsp	s2,16(sp)
     9f2:	08100513          	li	a0,129
     9f6:	6105                	c.addi16sp	sp,32
     9f8:	d99ff06f          	j	790 <analog_write_reg8>
     9fc:	04600593          	li	a1,70
     a00:	4505                	c.li	a0,1
     a02:	3379                	c.jal	790 <analog_write_reg8>
     a04:	fd1ff06f          	j	9d4 <pm_wait_bbpll_done+0x74>
     a08:	04300593          	li	a1,67
     a0c:	4505                	c.li	a0,1
     a0e:	3349                	c.jal	790 <analog_write_reg8>
     a10:	fc5ff06f          	j	9d4 <pm_wait_bbpll_done+0x74>

00000a14 <pm_sleep_start>:
     a14:	1101                	c.addi	sp,-32
     a16:	2d06a72b          	lwgp	a4,45776 # 8bad0 <g_chip_version>
     a1a:	000006b7          	lui	a3,0x0
     a1e:	ce06                	c.swsp	ra,28(sp)
     a20:	cc22                	c.swsp	s0,24(sp)
     a22:	ca26                	c.swsp	s1,20(sp)
     a24:	0ff00793          	li	a5,255
     a28:	19a6c583          	lbu	a1,410(a3) # 19a <g_pm_suspend_power_cfg>
     a2c:	00f71a63          	bne	a4,a5,a40 <pm_sleep_start+0x2c>
     a30:	0fe5f593          	andi	a1,a1,254
     a34:	07d00513          	li	a0,125
     a38:	d59ff0ef          	jal	ra,790 <analog_write_reg8>
     a3c:	00c0006f          	j	a48 <pm_sleep_start+0x34>
     a40:	07d00513          	li	a0,125
     a44:	d4dff0ef          	jal	ra,790 <analog_write_reg8>
     a48:	801406b7          	lui	a3,0x80140
     a4c:	10268783          	lb	a5,258(a3) # 80140102 <_DATA_LMA_START+0x60134d22>
     a50:	fe07fe5b          	bbs	a5,0,a4c <pm_sleep_start+0x38>
     a54:	10168703          	lb	a4,257(a3)
     a58:	801407b7          	lui	a5,0x80140
     a5c:	0ff77713          	andi	a4,a4,255
     a60:	01076713          	ori	a4,a4,16
     a64:	10e680a3          	sb	a4,257(a3)
     a68:	32878703          	lb	a4,808(a5) # 80140328 <_DATA_LMA_START+0x60134f48>
     a6c:	be377e5b          	bbc	a4,3,a68 <pm_sleep_start+0x54>
     a70:	10178703          	lb	a4,257(a5)
     a74:	80140437          	lui	s0,0x80140
     a78:	0fd77713          	andi	a4,a4,253
     a7c:	10e780a3          	sb	a4,257(a5)
     a80:	10178703          	lb	a4,257(a5)
     a84:	0ef77713          	andi	a4,a4,239
     a88:	10e780a3          	sb	a4,257(a5)
     a8c:	fb900713          	li	a4,-71
     a90:	10e78023          	sb	a4,256(a5)
     a94:	10240783          	lb	a5,258(s0) # 80140102 <_DATA_LMA_START+0x60134d22>
     a98:	fe07fe5b          	bbs	a5,0,a94 <pm_sleep_start+0x80>
     a9c:	10140783          	lb	a5,257(s0)
     aa0:	452d                	c.li	a0,11
     aa2:	0ff7f793          	andi	a5,a5,255
     aa6:	0107e793          	ori	a5,a5,16
     aaa:	10f400a3          	sb	a5,257(s0)
     aae:	320404a3          	sb	zero,809(s0)
     ab2:	330d                	c.jal	7d4 <analog_read_reg8>
     ab4:	0fc57593          	andi	a1,a0,252
     ab8:	452d                	c.li	a0,11
     aba:	39d9                	c.jal	790 <analog_write_reg8>
     abc:	08100513          	li	a0,129
     ac0:	d15ff0ef          	jal	ra,7d4 <analog_read_reg8>
     ac4:	f8056593          	ori	a1,a0,-128
     ac8:	0ff5f593          	andi	a1,a1,255
     acc:	08100513          	li	a0,129
     ad0:	cc1ff0ef          	jal	ra,790 <analog_write_reg8>
     ad4:	f8000793          	li	a5,-128
     ad8:	1ef407a3          	sb	a5,495(s0)
     adc:	03f00493          	li	s1,63
     ae0:	00012423          	sw	zero,8(sp)
     ae4:	47a2                	c.lwsp	a5,8(sp)
     ae6:	00f4e763          	bltu	s1,a5,af4 <pm_sleep_start+0xe0>
     aea:	0001                	c.nop
     aec:	47a2                	c.lwsp	a5,8(sp)
     aee:	0785                	c.addi	a5,1
     af0:	c43e                	c.swsp	a5,8(sp)
     af2:	bfcd                	c.j	ae4 <pm_sleep_start+0xd0>
     af4:	08100513          	li	a0,129
     af8:	cddff0ef          	jal	ra,7d4 <analog_read_reg8>
     afc:	07f57593          	andi	a1,a0,127
     b00:	08100513          	li	a0,129
     b04:	c8dff0ef          	jal	ra,790 <analog_write_reg8>
     b08:	00b00513          	li	a0,11
     b0c:	cc9ff0ef          	jal	ra,7d4 <analog_read_reg8>
     b10:	00356593          	ori	a1,a0,3
     b14:	0ff5f593          	andi	a1,a1,255
     b18:	452d                	c.li	a0,11
     b1a:	399d                	c.jal	790 <analog_write_reg8>
     b1c:	08000593          	li	a1,128
     b20:	07d00513          	li	a0,125
     b24:	c6dff0ef          	jal	ra,790 <analog_write_reg8>
     b28:	801407b7          	lui	a5,0x80140
     b2c:	329784a3          	sb	s1,809(a5) # 80140329 <_DATA_LMA_START+0x60134f49>
     b30:	10178683          	lb	a3,257(a5)
     b34:	80140737          	lui	a4,0x80140
     b38:	0ef6f693          	andi	a3,a3,239
     b3c:	10d780a3          	sb	a3,257(a5)
     b40:	fab00693          	li	a3,-85
     b44:	10d78023          	sb	a3,256(a5)
     b48:	10270783          	lb	a5,258(a4) # 80140102 <_DATA_LMA_START+0x60134d22>
     b4c:	fe07fe5b          	bbs	a5,0,b48 <pm_sleep_start+0x134>
     b50:	10170783          	lb	a5,257(a4)
     b54:	12b00693          	li	a3,299
     b58:	0ff7f793          	andi	a5,a5,255
     b5c:	0107e793          	ori	a5,a5,16
     b60:	10f700a3          	sb	a5,257(a4)
     b64:	00012623          	sw	zero,12(sp)
     b68:	47b2                	c.lwsp	a5,12(sp)
     b6a:	00f6e763          	bltu	a3,a5,b78 <pm_sleep_start+0x164>
     b6e:	0001                	c.nop
     b70:	47b2                	c.lwsp	a5,12(sp)
     b72:	0785                	c.addi	a5,1
     b74:	c63e                	c.swsp	a5,12(sp)
     b76:	bfcd                	c.j	b68 <pm_sleep_start+0x154>
     b78:	08800513          	li	a0,136
     b7c:	c59ff0ef          	jal	ra,7d4 <analog_read_reg8>
     b80:	be757c5b          	bbc	a0,7,b78 <pm_sleep_start+0x164>
     b84:	08800513          	li	a0,136
     b88:	c4dff0ef          	jal	ra,7d4 <analog_read_reg8>
     b8c:	be757c5b          	bbc	a0,7,b84 <pm_sleep_start+0x170>
     b90:	08800513          	li	a0,136
     b94:	c41ff0ef          	jal	ra,7d4 <analog_read_reg8>
     b98:	be757c5b          	bbc	a0,7,b90 <pm_sleep_start+0x17c>
     b9c:	4462                	c.lwsp	s0,24(sp)
     b9e:	40f2                	c.lwsp	ra,28(sp)
     ba0:	44d2                	c.lwsp	s1,20(sp)
     ba2:	6105                	c.addi16sp	sp,32
     ba4:	dbdff06f          	j	960 <pm_wait_bbpll_done>

00000ba8 <dr_putchar>:
     ba8:	1101                	c.addi	sp,-32
     baa:	ca26                	c.swsp	s1,20(sp)
     bac:	cc22                	c.swsp	s0,24(sp)
     bae:	ce06                	c.swsp	ra,28(sp)
     bb0:	c84a                	c.swsp	s2,16(sp)
     bb2:	2486948b          	addigp	s1,45640 # 8ba48 <init_flag.5287>
     bb6:	842a                	c.mv	s0,a0
     bb8:	0004c783          	lbu	a5,0(s1)
     bbc:	0c17d25b          	beqc	a5,1,c80 <dr_putchar+0xd8>
     bc0:	801407b7          	lui	a5,0x80140
     bc4:	30378703          	lb	a4,771(a5) # 80140303 <_DATA_LMA_START+0x60134f23>
     bc8:	30378783          	lb	a5,771(a5)
     bcc:	0fe77713          	andi	a4,a4,254
     bd0:	0ff7f793          	andi	a5,a5,255
     bd4:	0017e793          	ori	a5,a5,1
     bd8:	00e10223          	sb	a4,4(sp)
     bdc:	86be                	c.mv	a3,a5
     bde:	4004735b          	bbs	s0,0,be4 <dr_putchar+0x3c>
     be2:	86ba                	c.mv	a3,a4
     be4:	00d102a3          	sb	a3,5(sp)
     be8:	86be                	c.mv	a3,a5
     bea:	4014735b          	bbs	s0,1,bf0 <dr_putchar+0x48>
     bee:	86ba                	c.mv	a3,a4
     bf0:	00d10323          	sb	a3,6(sp)
     bf4:	86be                	c.mv	a3,a5
     bf6:	4024735b          	bbs	s0,2,bfc <dr_putchar+0x54>
     bfa:	86ba                	c.mv	a3,a4
     bfc:	00d103a3          	sb	a3,7(sp)
     c00:	86be                	c.mv	a3,a5
     c02:	4034735b          	bbs	s0,3,c08 <dr_putchar+0x60>
     c06:	86ba                	c.mv	a3,a4
     c08:	00d10423          	sb	a3,8(sp)
     c0c:	86be                	c.mv	a3,a5
     c0e:	4044735b          	bbs	s0,4,c14 <dr_putchar+0x6c>
     c12:	86ba                	c.mv	a3,a4
     c14:	00d104a3          	sb	a3,9(sp)
     c18:	86be                	c.mv	a3,a5
     c1a:	4054735b          	bbs	s0,5,c20 <dr_putchar+0x78>
     c1e:	86ba                	c.mv	a3,a4
     c20:	00d10523          	sb	a3,10(sp)
     c24:	86be                	c.mv	a3,a5
     c26:	4064735b          	bbs	s0,6,c2c <dr_putchar+0x84>
     c2a:	86ba                	c.mv	a3,a4
     c2c:	00d105a3          	sb	a3,11(sp)
     c30:	801d                	c.srli	s0,0x7
     c32:	c019                	c.beqz	s0,c38 <dr_putchar+0x90>
     c34:	00f00733          	add	a4,zero,a5
     c38:	00f106a3          	sb	a5,13(sp)
     c3c:	801407b7          	lui	a5,0x80140
     c40:	00e10623          	sb	a4,12(sp)
     c44:	2007a603          	lw	a2,512(a5) # 80140200 <_DATA_LMA_START+0x60134e20>
     c48:	00410513          	addi	a0,sp,4
     c4c:	00e10813          	addi	a6,sp,14
     c50:	801406b7          	lui	a3,0x80140
     c54:	08900593          	li	a1,137
     c58:	2006a783          	lw	a5,512(a3) # 80140200 <_DATA_LMA_START+0x60134e20>
     c5c:	40c78733          	sub	a4,a5,a2
     c60:	fee5fce3          	bgeu	a1,a4,c58 <dr_putchar+0xb0>
     c64:	00054703          	lbu	a4,0(a0)
     c68:	0505                	c.addi	a0,1
     c6a:	30e681a3          	sb	a4,771(a3)
     c6e:	863e                	c.mv	a2,a5
     c70:	ff0514e3          	bne	a0,a6,c58 <dr_putchar+0xb0>
     c74:	40f2                	c.lwsp	ra,28(sp)
     c76:	4462                	c.lwsp	s0,24(sp)
     c78:	44d2                	c.lwsp	s1,20(sp)
     c7a:	4942                	c.lwsp	s2,16(sp)
     c7c:	6105                	c.addi16sp	sp,32
     c7e:	8082                	c.jr	ra
     c80:	80140937          	lui	s2,0x80140
     c84:	30690783          	lb	a5,774(s2) # 80140306 <_DATA_LMA_START+0x60134f26>
     c88:	4539                	c.li	a0,14
     c8a:	0ff7f793          	andi	a5,a5,255
     c8e:	0017e793          	ori	a5,a5,1
     c92:	30f90323          	sb	a5,774(s2)
     c96:	3e3d                	c.jal	7d4 <analog_read_reg8>
     c98:	0fc57593          	andi	a1,a0,252
     c9c:	0015e593          	ori	a1,a1,1
     ca0:	4539                	c.li	a0,14
     ca2:	34fd                	c.jal	790 <analog_write_reg8>
     ca4:	30290783          	lb	a5,770(s2)
     ca8:	0fe7f793          	andi	a5,a5,254
     cac:	30f90123          	sb	a5,770(s2)
     cb0:	30390783          	lb	a5,771(s2)
     cb4:	0ff7f793          	andi	a5,a5,255
     cb8:	0017e793          	ori	a5,a5,1
     cbc:	30f901a3          	sb	a5,771(s2)
     cc0:	00048023          	sb	zero,0(s1)
     cc4:	efdff06f          	j	bc0 <dr_putchar+0x18>

00000cc8 <pm_sleep_wakeup_ram.constprop.3>:
     cc8:	1101                	c.addi	sp,-32
     cca:	c452                	c.swsp	s4,8(sp)
     ccc:	8a2a                	c.mv	s4,a0
     cce:	ce06                	c.swsp	ra,28(sp)
     cd0:	cc22                	c.swsp	s0,24(sp)
     cd2:	ca26                	c.swsp	s1,20(sp)
     cd4:	c84a                	c.swsp	s2,16(sp)
     cd6:	c64e                	c.swsp	s3,12(sp)
     cd8:	c256                	c.swsp	s5,4(sp)
     cda:	c05a                	c.swsp	s6,0(sp)
     cdc:	300029f3          	csrr	s3,mstatus
     ce0:	0089f993          	andi	s3,s3,8
     ce4:	00098663          	beqz	s3,cf0 <pm_sleep_wakeup_ram.constprop.3+0x28>
     ce8:	300477f3          	csrrci	a5,mstatus,8
     cec:	0ff0000f          	fence
     cf0:	801407b7          	lui	a5,0x80140
     cf4:	2147a683          	lw	a3,532(a5) # 80140214 <_DATA_LMA_START+0x60134e34>
     cf8:	def5                	c.beqz	a3,cf4 <pm_sleep_wakeup_ram.constprop.3+0x2c>
     cfa:	00000437          	lui	s0,0x0
     cfe:	15840693          	addi	a3,s0,344 # 158 <_AES_VMA_END>
     d02:	2147a783          	lw	a5,532(a5)
     d06:	4ed8                	c.lw	a4,28(a3)
     d08:	d6dc                	c.sw	a5,44(a3)
     d0a:	15840413          	addi	s0,s0,344
     d0e:	0792                	c.slli	a5,0x4
     d10:	cb11                	c.beqz	a4,d24 <pm_sleep_wakeup_ram.constprop.3+0x5c>
     d12:	03044603          	lbu	a2,48(s0)
     d16:	4691                	c.li	a3,4
     d18:	8f99                	c.sub	a5,a4
     d1a:	8e91                	c.sub	a3,a2
     d1c:	40d7d7b3          	sra	a5,a5,a3
     d20:	00e787b3          	add	a5,a5,a4
     d24:	4818                	c.lw	a4,16(s0)
     d26:	4047d493          	srai	s1,a5,0x4
     d2a:	02e48733          	mul	a4,s1,a4
     d2e:	80140937          	lui	s2,0x80140
     d32:	20092a83          	lw	s5,512(s2) # 80140200 <_DATA_LMA_START+0x60134e20>
     d36:	cc5c                	c.sw	a5,28(s0)
     d38:	415a0ab3          	sub	s5,s4,s5
     d3c:	e00006b7          	lui	a3,0xe0000
     d40:	41275793          	srai	a5,a4,0x12
     d44:	94be                	c.add	s1,a5
     d46:	0486                	c.slli	s1,0x1
     d48:	02942a23          	sw	s1,52(s0)
     d4c:	0356f063          	bgeu	a3,s5,d6c <pm_sleep_wakeup_ram.constprop.3+0xa4>
     d50:	00098663          	beqz	s3,d5c <pm_sleep_wakeup_ram.constprop.3+0x94>
     d54:	3009a9f3          	csrrs	s3,mstatus,s3
     d58:	0ff0000f          	fence
     d5c:	06400513          	li	a0,100
     d60:	a75ff0ef          	jal	ra,7d4 <analog_read_reg8>
     d64:	01f57513          	andi	a0,a0,31
     d68:	2580006f          	j	fc0 <pm_sleep_wakeup_ram.constprop.3+0x2f8>
     d6c:	04a41783          	lh	a5,74(s0)
     d70:	1137a7db          	bfoz	a5,a5,4,19
     d74:	02fafe63          	bgeu	s5,a5,db0 <pm_sleep_wakeup_ram.constprop.3+0xe8>
     d78:	45fd                	c.li	a1,31
     d7a:	06400513          	li	a0,100
     d7e:	801404b7          	lui	s1,0x80140
     d82:	20092403          	lw	s0,512(s2)
     d86:	3429                	c.jal	790 <analog_write_reg8>
     d88:	06400513          	li	a0,100
     d8c:	a49ff0ef          	jal	ra,7d4 <analog_read_reg8>
     d90:	2004a783          	lw	a5,512(s1) # 80140200 <_DATA_LMA_START+0x60134e20>
     d94:	897d                	c.andi	a0,31
     d96:	8f81                	c.sub	a5,s0
     d98:	0157f463          	bgeu	a5,s5,da0 <pm_sleep_wakeup_ram.constprop.3+0xd8>
     d9c:	fe0506e3          	beqz	a0,d88 <pm_sleep_wakeup_ram.constprop.3+0xc0>
     da0:	22098063          	beqz	s3,fc0 <pm_sleep_wakeup_ram.constprop.3+0x2f8>
     da4:	3009a9f3          	csrrs	s3,mstatus,s3
     da8:	0ff0000f          	fence
     dac:	2140006f          	j	fc0 <pm_sleep_wakeup_ram.constprop.3+0x2f8>
     db0:	1e890a83          	lb	s5,488(s2)
     db4:	00faf793          	andi	a5,s5,15
     db8:	1ef90423          	sb	a5,488(s2)
     dbc:	1d890b03          	lb	s6,472(s2)
     dc0:	0f8b7793          	andi	a5,s6,248
     dc4:	1cf90c23          	sb	a5,472(s2)
     dc8:	00100793          	li	a5,1
     dcc:	20f90c23          	sb	a5,536(s2)
     dd0:	20a90783          	lb	a5,522(s2)
     dd4:	0f77f793          	andi	a5,a5,247
     dd8:	20f90523          	sb	a5,522(s2)
     ddc:	d7cff0ef          	jal	ra,358 <clock_get_32k_tick>
     de0:	20092703          	lw	a4,512(s2)
     de4:	20b90783          	lb	a5,523(s2)
     de8:	5054                	c.lw	a3,36(s0)
     dea:	0ff7f793          	andi	a5,a5,255
     dee:	0027e793          	ori	a5,a5,2
     df2:	c468                	c.sw	a0,76(s0)
     df4:	dc18                	c.sw	a4,56(s0)
     df6:	03044603          	lbu	a2,48(s0)
     dfa:	40d506b3          	sub	a3,a0,a3
     dfe:	20f905a3          	sb	a5,523(s2)
     e02:	d414                	c.sw	a3,40(s0)
     e04:	e215                	c.bnez	a2,e28 <pm_sleep_wakeup_ram.constprop.3+0x160>
     e06:	441c                	c.lw	a5,8(s0)
     e08:	c385                	c.beqz	a5,e28 <pm_sleep_wakeup_ram.constprop.3+0x160>
     e0a:	05044783          	lbu	a5,80(s0)
     e0e:	ef89                	c.bnez	a5,e28 <pm_sleep_wakeup_ram.constprop.3+0x160>
     e10:	00c42783          	lw	a5,12(s0)
     e14:	000276b7          	lui	a3,0x27
     e18:	40f507b3          	sub	a5,a0,a5
     e1c:	6c07a7db          	bfoz	a5,a5,27,0
     e20:	10068693          	addi	a3,a3,256 # 27100 <BIN_SIZE+0x10246>
     e24:	00f6f863          	bgeu	a3,a5,e34 <pm_sleep_wakeup_ram.constprop.3+0x16c>
     e28:	00176713          	ori	a4,a4,1
     e2c:	02040823          	sb	zero,48(s0)
     e30:	c448                	c.sw	a0,12(s0)
     e32:	c418                	c.sw	a4,8(s0)
     e34:	02000593          	li	a1,32
     e38:	04b00513          	li	a0,75
     e3c:	955ff0ef          	jal	ra,790 <analog_write_reg8>
     e40:	45fd                	c.li	a1,31
     e42:	06400513          	li	a0,100
     e46:	32a9                	c.jal	790 <analog_write_reg8>
     e48:	03000593          	li	a1,48
     e4c:	07e00513          	li	a0,126
     e50:	941ff0ef          	jal	ra,790 <analog_write_reg8>
     e54:	0f900593          	li	a1,249
     e58:	04d00513          	li	a0,77
     e5c:	935ff0ef          	jal	ra,790 <analog_write_reg8>
     e60:	4585                	c.li	a1,1
     e62:	07f00513          	li	a0,127
     e66:	322d                	c.jal	790 <analog_write_reg8>
     e68:	04841783          	lh	a5,72(s0)
     e6c:	0ee00593          	li	a1,238
     e70:	1137a7db          	bfoz	a5,a5,4,19
     e74:	04c00513          	li	a0,76
     e78:	40fa0933          	sub	s2,s4,a5
     e7c:	915ff0ef          	jal	ra,790 <analog_write_reg8>
     e80:	05441583          	lh	a1,84(s0)
     e84:	04000513          	li	a0,64
     e88:	0ff5f593          	andi	a1,a1,255
     e8c:	905ff0ef          	jal	ra,790 <analog_write_reg8>
     e90:	441c                	c.lw	a5,8(s0)
     e92:	07ff06b7          	lui	a3,0x7ff0
     e96:	40f907b3          	sub	a5,s2,a5
     e9a:	00168713          	addi	a4,a3,1 # 7ff0001 <FLASH_SIZE+0x7ef0001>
     e9e:	00e7b733          	sltu	a4,a5,a4
     ea2:	00174713          	xori	a4,a4,1
     ea6:	00e40223          	sb	a4,4(s0)
     eaa:	00f6f963          	bgeu	a3,a5,ebc <pm_sleep_wakeup_ram.constprop.3+0x1f4>
     eae:	5858                	c.lw	a4,52(s0)
     eb0:	4448                	c.lw	a0,12(s0)
     eb2:	02e7d7b3          	divu	a5,a5,a4
     eb6:	0796                	c.slli	a5,0x5
     eb8:	953e                	c.add	a0,a5
     eba:	a809                	c.j	ecc <pm_sleep_wakeup_ram.constprop.3+0x204>
     ebc:	5848                	c.lw	a0,52(s0)
     ebe:	8085                	c.srli	s1,0x1
     ec0:	0796                	c.slli	a5,0x5
     ec2:	97a6                	c.add	a5,s1
     ec4:	02a7d7b3          	divu	a5,a5,a0
     ec8:	4448                	c.lw	a0,12(s0)
     eca:	953e                	c.add	a0,a5
     ecc:	be0ff0ef          	jal	ra,2ac <clock_set_32k_tick>
     ed0:	06400513          	li	a0,100
     ed4:	901ff0ef          	jal	ra,7d4 <analog_read_reg8>
     ed8:	01f57513          	andi	a0,a0,31
     edc:	e901                	c.bnez	a0,eec <pm_sleep_wakeup_ram.constprop.3+0x224>
     ede:	3e1d                	c.jal	a14 <pm_sleep_start>
     ee0:	00100593          	li	a1,1
     ee4:	07f00513          	li	a0,127
     ee8:	8a9ff0ef          	jal	ra,790 <analog_write_reg8>
     eec:	80140737          	lui	a4,0x80140
     ef0:	02000793          	li	a5,32
     ef4:	1ef707a3          	sb	a5,495(a4) # 801401ef <_DATA_LMA_START+0x60134e0f>
     ef8:	00200793          	li	a5,2
     efc:	20f70c23          	sb	a5,536(a4)
     f00:	20a70783          	lb	a5,522(a4)
     f04:	0ff7f793          	andi	a5,a5,255
     f08:	00c7e793          	ori	a5,a5,12
     f0c:	20f70523          	sb	a5,522(a4)
     f10:	c48ff0ef          	jal	ra,358 <clock_get_32k_tick>
     f14:	00444783          	lbu	a5,4(s0)
     f18:	cf81                	c.beqz	a5,f30 <pm_sleep_wakeup_ram.constprop.3+0x268>
     f1a:	4458                	c.lw	a4,12(s0)
     f1c:	5854                	c.lw	a3,52(s0)
     f1e:	40e50733          	sub	a4,a0,a4
     f22:	441c                	c.lw	a5,8(s0)
     f24:	0705                	c.addi	a4,1
     f26:	8315                	c.srli	a4,0x5
     f28:	c4d717ff          	maddr32	a5,a4,a3
     f2c:	0180006f          	j	f44 <pm_sleep_wakeup_ram.constprop.3+0x27c>
     f30:	445c                	c.lw	a5,12(s0)
     f32:	5858                	c.lw	a4,52(s0)
     f34:	40f507b3          	sub	a5,a0,a5
     f38:	0785                	c.addi	a5,1
     f3a:	02e787b3          	mul	a5,a5,a4
     f3e:	4418                	c.lw	a4,8(s0)
     f40:	8395                	c.srli	a5,0x5
     f42:	97ba                	c.add	a5,a4
     f44:	4458                	c.lw	a4,12(s0)
     f46:	00150613          	addi	a2,a0,1
     f4a:	8d19                	c.sub	a0,a4
     f4c:	0505                	c.addi	a0,1
     f4e:	00178693          	addi	a3,a5,1
     f52:	dc1c                	c.sw	a5,56(s0)
     f54:	d050                	c.sw	a2,36(s0)
     f56:	d008                	c.sw	a0,32(s0)
     f58:	801407b7          	lui	a5,0x80140
     f5c:	80140737          	lui	a4,0x80140
     f60:	20d7a023          	sw	a3,512(a5) # 80140200 <_DATA_LMA_START+0x60134e20>
     f64:	20b70783          	lb	a5,523(a4) # 8014020b <_DATA_LMA_START+0x60134e2b>
     f68:	be77fe5b          	bbc	a5,7,f64 <pm_sleep_wakeup_ram.constprop.3+0x29c>
     f6c:	20070c23          	sb	zero,536(a4)
     f70:	1d670c23          	sb	s6,472(a4)
     f74:	06400513          	li	a0,100
     f78:	1f570423          	sb	s5,488(a4)
     f7c:	859ff0ef          	jal	ra,7d4 <analog_read_reg8>
     f80:	2d46970b          	addigp	a4,45780 # 8bad4 <g_pm_status_info>
     f84:	00a700a3          	sb	a0,1(a4)
     f88:	2d46978b          	addigp	a5,45780 # 8bad4 <g_pm_status_info>
     f8c:	00157c5b          	bbc	a0,1,fa4 <pm_sleep_wakeup_ram.constprop.3+0x2dc>
     f90:	80140637          	lui	a2,0x80140
     f94:	400006b7          	lui	a3,0x40000
     f98:	20062703          	lw	a4,512(a2) # 80140200 <_DATA_LMA_START+0x60134e20>
     f9c:	41470733          	sub	a4,a4,s4
     fa0:	fee6ece3          	bltu	a3,a4,f98 <pm_sleep_wakeup_ram.constprop.3+0x2d0>
     fa4:	00098663          	beqz	s3,fb0 <pm_sleep_wakeup_ram.constprop.3+0x2e8>
     fa8:	3009a9f3          	csrrs	s3,mstatus,s3
     fac:	0ff0000f          	fence
     fb0:	0017c783          	lbu	a5,1(a5)
     fb4:	10000513          	li	a0,256
     fb8:	c781                	c.beqz	a5,fc0 <pm_sleep_wakeup_ram.constprop.3+0x2f8>
     fba:	40000537          	lui	a0,0x40000
     fbe:	8d5d                	c.or	a0,a5
     fc0:	40f2                	c.lwsp	ra,28(sp)
     fc2:	4462                	c.lwsp	s0,24(sp)
     fc4:	44d2                	c.lwsp	s1,20(sp)
     fc6:	4942                	c.lwsp	s2,16(sp)
     fc8:	49b2                	c.lwsp	s3,12(sp)
     fca:	4a22                	c.lwsp	s4,8(sp)
     fcc:	4a92                	c.lwsp	s5,4(sp)
     fce:	4b02                	c.lwsp	s6,0(sp)
     fd0:	6105                	c.addi16sp	sp,32
     fd2:	8082                	c.jr	ra

00000fd4 <trap_entry>:
     fd4:	1101                	c.addi	sp,-32
     fd6:	ce2a                	c.swsp	a0,28(sp)
     fd8:	cc2e                	c.swsp	a1,24(sp)
     fda:	ca32                	c.swsp	a2,20(sp)
     fdc:	c836                	c.swsp	a3,16(sp)
     fde:	c63a                	c.swsp	a4,12(sp)
     fe0:	c43e                	c.swsp	a5,8(sp)
     fe2:	34202773          	csrr	a4,mcause
     fe6:	000007b7          	lui	a5,0x0
     fea:	15878793          	addi	a5,a5,344 # 158 <_AES_VMA_END>
     fee:	03c78683          	lb	a3,60(a5)
     ff2:	0ff6f693          	andi	a3,a3,255
     ff6:	c2dd                	c.beqz	a3,109c <trap_entry+0xc8>
     ff8:	34102673          	csrr	a2,mepc
     ffc:	300025f3          	csrr	a1,mstatus
    1000:	7c4026f3          	csrr	a3,mxstatus
    1004:	02074a63          	bltz	a4,1038 <trap_entry+0x64>
    1008:	34302773          	csrr	a4,mtval
    100c:	2ce6c62b          	swgp	a4,45772 # 8bacc <exception_mtval>
    1010:	34102773          	csrr	a4,mepc
    1014:	2ce6c22b          	swgp	a4,45764 # 8bac4 <exception_mepc>
    1018:	30002773          	csrr	a4,mstatus
    101c:	2ce6c42b          	swgp	a4,45768 # 8bac8 <exception_mstatus>
    1020:	34202773          	csrr	a4,mcause
    1024:	2ae6ce2b          	swgp	a4,45756 # 8babc <exception_mcause>
    1028:	7c902773          	csrr	a4,mdcause
    102c:	2ce6c02b          	swgp	a4,45760 # 8bac0 <exception_mdcause>
    1030:	0001                	c.nop
    1032:	0001                	c.nop
    1034:	ffdff06f          	j	1030 <trap_entry+0x5c>
    1038:	7807275b          	bfoz	a4,a4,30,0
    103c:	0677545b          	beqc	a4,7,10a4 <trap_entry+0xd0>
    1040:	bc37645b          	bnec	a4,3,1008 <trap_entry+0x34>
    1044:	e6600737          	lui	a4,0xe6600
    1048:	4358                	c.lw	a4,4(a4)
    104a:	03c78703          	lb	a4,60(a5)
    104e:	0ff77713          	andi	a4,a4,255
    1052:	c319                	c.beqz	a4,1058 <trap_entry+0x84>
    1054:	30046773          	csrrsi	a4,mstatus,8
    1058:	03c78703          	lb	a4,60(a5)
    105c:	0ff77713          	andi	a4,a4,255
    1060:	00070463          	beqz	a4,1068 <trap_entry+0x94>
    1064:	30047773          	csrrci	a4,mstatus,8
    1068:	e6600737          	lui	a4,0xe6600
    106c:	4505                	c.li	a0,1
    106e:	c348                	c.sw	a0,4(a4)
    1070:	03c78783          	lb	a5,60(a5)
    1074:	0ff7f793          	andi	a5,a5,255
    1078:	00078863          	beqz	a5,1088 <trap_entry+0xb4>
    107c:	30059073          	csrw	mstatus,a1
    1080:	34161073          	csrw	mepc,a2
    1084:	7c469073          	csrw	mxstatus,a3
    1088:	4572                	c.lwsp	a0,28(sp)
    108a:	45e2                	c.lwsp	a1,24(sp)
    108c:	4652                	c.lwsp	a2,20(sp)
    108e:	46c2                	c.lwsp	a3,16(sp)
    1090:	4732                	c.lwsp	a4,12(sp)
    1092:	47a2                	c.lwsp	a5,8(sp)
    1094:	02010113          	addi	sp,sp,32
    1098:	30200073          	mret
    109c:	4681                	c.li	a3,0
    109e:	4581                	c.li	a1,0
    10a0:	4601                	c.li	a2,0
    10a2:	b78d                	c.j	1004 <trap_entry+0x30>
    10a4:	03c78703          	lb	a4,60(a5)
    10a8:	0ff77713          	andi	a4,a4,255
    10ac:	00070863          	beqz	a4,10bc <trap_entry+0xe8>
    10b0:	08000713          	li	a4,128
    10b4:	30473773          	csrrc	a4,mie,a4
    10b8:	30046773          	csrrsi	a4,mstatus,8
    10bc:	03c78703          	lb	a4,60(a5)
    10c0:	0ff77713          	andi	a4,a4,255
    10c4:	d755                	c.beqz	a4,1070 <trap_entry+0x9c>
    10c6:	30047773          	csrrci	a4,mstatus,8
    10ca:	08000713          	li	a4,128
    10ce:	30472773          	csrrs	a4,mie,a4
    10d2:	bf79                	c.j	1070 <trap_entry+0x9c>
    10d4:	0001                	c.nop
	...

00001100 <__vectors>:
    1100:	0fd4                	c.addi4spn	a3,sp,980
    1102:	0000                	unimp
    1104:	2fb8                	c.fld	fa4,88(a5)
    1106:	0000                	unimp
    1108:	2fb8                	c.fld	fa4,88(a5)
    110a:	0000                	unimp
    110c:	2fb8                	c.fld	fa4,88(a5)
    110e:	0000                	unimp
    1110:	2fb8                	c.fld	fa4,88(a5)
    1112:	0000                	unimp
    1114:	2fb8                	c.fld	fa4,88(a5)
    1116:	0000                	unimp
    1118:	2fb8                	c.fld	fa4,88(a5)
    111a:	0000                	unimp
    111c:	2fb8                	c.fld	fa4,88(a5)
    111e:	0000                	unimp
    1120:	2fb8                	c.fld	fa4,88(a5)
    1122:	0000                	unimp
    1124:	2fb8                	c.fld	fa4,88(a5)
    1126:	0000                	unimp
    1128:	2fb8                	c.fld	fa4,88(a5)
    112a:	0000                	unimp
    112c:	2fb8                	c.fld	fa4,88(a5)
    112e:	0000                	unimp
    1130:	2fb8                	c.fld	fa4,88(a5)
    1132:	0000                	unimp
    1134:	2fb8                	c.fld	fa4,88(a5)
    1136:	0000                	unimp
    1138:	2fb8                	c.fld	fa4,88(a5)
    113a:	0000                	unimp
    113c:	2fb8                	c.fld	fa4,88(a5)
    113e:	0000                	unimp
    1140:	2fb8                	c.fld	fa4,88(a5)
    1142:	0000                	unimp
    1144:	2fb8                	c.fld	fa4,88(a5)
    1146:	0000                	unimp
    1148:	2fb8                	c.fld	fa4,88(a5)
    114a:	0000                	unimp
    114c:	2fb8                	c.fld	fa4,88(a5)
    114e:	0000                	unimp
    1150:	2fb8                	c.fld	fa4,88(a5)
    1152:	0000                	unimp
    1154:	2fb8                	c.fld	fa4,88(a5)
    1156:	0000                	unimp
    1158:	2fb8                	c.fld	fa4,88(a5)
    115a:	0000                	unimp
    115c:	2fb8                	c.fld	fa4,88(a5)
    115e:	0000                	unimp
    1160:	2fb8                	c.fld	fa4,88(a5)
    1162:	0000                	unimp
    1164:	2fb8                	c.fld	fa4,88(a5)
    1166:	0000                	unimp
    1168:	2fb8                	c.fld	fa4,88(a5)
    116a:	0000                	unimp
    116c:	2fb8                	c.fld	fa4,88(a5)
    116e:	0000                	unimp
    1170:	2fb8                	c.fld	fa4,88(a5)
    1172:	0000                	unimp
    1174:	2fb8                	c.fld	fa4,88(a5)
    1176:	0000                	unimp
    1178:	2fb8                	c.fld	fa4,88(a5)
    117a:	0000                	unimp
    117c:	2fb8                	c.fld	fa4,88(a5)
    117e:	0000                	unimp
    1180:	2fb8                	c.fld	fa4,88(a5)
    1182:	0000                	unimp
    1184:	2fb8                	c.fld	fa4,88(a5)
    1186:	0000                	unimp
    1188:	2fb8                	c.fld	fa4,88(a5)
    118a:	0000                	unimp
    118c:	2fb8                	c.fld	fa4,88(a5)
    118e:	0000                	unimp
    1190:	2fb8                	c.fld	fa4,88(a5)
    1192:	0000                	unimp
    1194:	2fb8                	c.fld	fa4,88(a5)
    1196:	0000                	unimp
    1198:	2fb8                	c.fld	fa4,88(a5)
    119a:	0000                	unimp
    119c:	2fb8                	c.fld	fa4,88(a5)
    119e:	0000                	unimp
    11a0:	2fb8                	c.fld	fa4,88(a5)
    11a2:	0000                	unimp
    11a4:	2fb8                	c.fld	fa4,88(a5)
    11a6:	0000                	unimp
    11a8:	2fb8                	c.fld	fa4,88(a5)
    11aa:	0000                	unimp
    11ac:	2fb8                	c.fld	fa4,88(a5)
    11ae:	0000                	unimp
    11b0:	2fb8                	c.fld	fa4,88(a5)
    11b2:	0000                	unimp
    11b4:	2fb8                	c.fld	fa4,88(a5)
    11b6:	0000                	unimp
    11b8:	2fb8                	c.fld	fa4,88(a5)
    11ba:	0000                	unimp
    11bc:	2fb8                	c.fld	fa4,88(a5)
    11be:	0000                	unimp
    11c0:	2fb8                	c.fld	fa4,88(a5)
    11c2:	0000                	unimp
    11c4:	2fb8                	c.fld	fa4,88(a5)
    11c6:	0000                	unimp
    11c8:	2fb8                	c.fld	fa4,88(a5)
    11ca:	0000                	unimp
    11cc:	2fb8                	c.fld	fa4,88(a5)
    11ce:	0000                	unimp
    11d0:	2fb8                	c.fld	fa4,88(a5)
    11d2:	0000                	unimp
    11d4:	2fb8                	c.fld	fa4,88(a5)
    11d6:	0000                	unimp
    11d8:	2fb8                	c.fld	fa4,88(a5)
    11da:	0000                	unimp
    11dc:	2fb8                	c.fld	fa4,88(a5)
    11de:	0000                	unimp
    11e0:	2fb8                	c.fld	fa4,88(a5)
    11e2:	0000                	unimp
    11e4:	2fb8                	c.fld	fa4,88(a5)
    11e6:	0000                	unimp
    11e8:	2fb8                	c.fld	fa4,88(a5)
    11ea:	0000                	unimp
    11ec:	2fb8                	c.fld	fa4,88(a5)
    11ee:	0000                	unimp
    11f0:	2fb8                	c.fld	fa4,88(a5)
    11f2:	0000                	unimp
    11f4:	2fb8                	c.fld	fa4,88(a5)
    11f6:	0000                	unimp
    11f8:	2fb8                	c.fld	fa4,88(a5)
    11fa:	0000                	unimp
    11fc:	2fb8                	c.fld	fa4,88(a5)
    11fe:	0000                	unimp
    1200:	0001                	c.nop
	...

00001204 <flash_read_uid.constprop.6>:
    1204:	1141                	c.addi	sp,-16
    1206:	c606                	c.swsp	ra,12(sp)
    1208:	872a                	c.mv	a4,a0
    120a:	7d047073          	csrci	mmisc_ctl,8
    120e:	47c1                	c.li	a5,16
    1210:	4691                	c.li	a3,4
    1212:	4601                	c.li	a2,0
    1214:	00000593          	li	a1,0
    1218:	04b00513          	li	a0,75
    121c:	aa8ff0ef          	jal	ra,4c4 <flash_mspi_read_ram>
    1220:	7d046073          	csrsi	mmisc_ctl,8
    1224:	40b2                	c.lwsp	ra,12(sp)
    1226:	0141                	c.addi	sp,16
    1228:	00008067          	ret

0000122c <flash_read_mid>:
    122c:	1101                	c.addi	sp,-32
    122e:	ce06                	c.swsp	ra,28(sp)
    1230:	c602                	c.swsp	zero,12(sp)
    1232:	7d047073          	csrci	mmisc_ctl,8
    1236:	478d                	c.li	a5,3
    1238:	0078                	c.addi4spn	a4,sp,12
    123a:	4681                	c.li	a3,0
    123c:	4601                	c.li	a2,0
    123e:	4581                	c.li	a1,0
    1240:	09f00513          	li	a0,159
    1244:	a80ff0ef          	jal	ra,4c4 <flash_mspi_read_ram>
    1248:	7d046073          	csrsi	mmisc_ctl,8
    124c:	40f2                	c.lwsp	ra,28(sp)
    124e:	4532                	c.lwsp	a0,12(sp)
    1250:	6105                	c.addi16sp	sp,32
    1252:	8082                	c.jr	ra

00001254 <flash_read_mid_uid_with_check>:
    1254:	82df978b          	addigp	a5,-2004 # 8002c <_DATA_VMA_START+0x2c>
    1258:	4798                	c.lw	a4,8(a5)
    125a:	4390                	c.lw	a2,0(a5)
    125c:	43d4                	c.lw	a3,4(a5)
    125e:	47dc                	c.lw	a5,12(a5)
    1260:	1101                	c.addi	sp,-32
    1262:	cc22                	c.swsp	s0,24(sp)
    1264:	ca26                	c.swsp	s1,20(sp)
    1266:	842a                	c.mv	s0,a0
    1268:	c43a                	c.swsp	a4,8(sp)
    126a:	c63e                	c.swsp	a5,12(sp)
    126c:	ce06                	c.swsp	ra,28(sp)
    126e:	84ae                	c.mv	s1,a1
    1270:	c032                	c.swsp	a2,0(sp)
    1272:	c236                	c.swsp	a3,4(sp)
    1274:	fb9ff0ef          	jal	ra,122c <flash_read_mid>
    1278:	77c1                	c.lui	a5,0xffff0
    127a:	17fd                	c.addi	a5,-1
    127c:	00146737          	lui	a4,0x146
    1280:	c008                	c.sw	a0,0(s0)
    1282:	8fe9                	c.and	a5,a0
    1284:	08570713          	addi	a4,a4,133 # 146085 <FLASH_SIZE+0x46085>
    1288:	02e78063          	beq	a5,a4,12a8 <flash_read_mid_uid_with_check+0x54>
    128c:	00166737          	lui	a4,0x166
    1290:	08570713          	addi	a4,a4,133 # 166085 <FLASH_SIZE+0x66085>
    1294:	4781                	c.li	a5,0
    1296:	00e50963          	beq	a0,a4,12a8 <flash_read_mid_uid_with_check+0x54>
    129a:	40f2                	c.lwsp	ra,28(sp)
    129c:	4462                	c.lwsp	s0,24(sp)
    129e:	44d2                	c.lwsp	s1,20(sp)
    12a0:	853e                	c.mv	a0,a5
    12a2:	6105                	c.addi16sp	sp,32
    12a4:	00008067          	ret
    12a8:	8526                	c.mv	a0,s1
    12aa:	3fa9                	c.jal	1204 <flash_read_uid.constprop.6>
    12ac:	0004c783          	lbu	a5,0(s1)
    12b0:	00014603          	lbu	a2,0(sp)
    12b4:	0014c683          	lbu	a3,1(s1)
    12b8:	00114703          	lbu	a4,1(sp)
    12bc:	8f91                	c.sub	a5,a2
    12be:	0017b793          	seqz	a5,a5
    12c2:	00e69363          	bne	a3,a4,12c8 <flash_read_mid_uid_with_check+0x74>
    12c6:	0785                	c.addi	a5,1
    12c8:	0024c683          	lbu	a3,2(s1)
    12cc:	00214703          	lbu	a4,2(sp)
    12d0:	00e69463          	bne	a3,a4,12d8 <flash_read_mid_uid_with_check+0x84>
    12d4:	00178793          	addi	a5,a5,1 # ffff0001 <_DATA_LMA_START+0xdffe4c21>
    12d8:	0034c683          	lbu	a3,3(s1)
    12dc:	00314703          	lbu	a4,3(sp)
    12e0:	00e69463          	bne	a3,a4,12e8 <flash_read_mid_uid_with_check+0x94>
    12e4:	00178793          	addi	a5,a5,1
    12e8:	0044c683          	lbu	a3,4(s1)
    12ec:	00414703          	lbu	a4,4(sp)
    12f0:	00e69463          	bne	a3,a4,12f8 <flash_read_mid_uid_with_check+0xa4>
    12f4:	00178793          	addi	a5,a5,1
    12f8:	0054c683          	lbu	a3,5(s1)
    12fc:	00514703          	lbu	a4,5(sp)
    1300:	00e69463          	bne	a3,a4,1308 <flash_read_mid_uid_with_check+0xb4>
    1304:	00178793          	addi	a5,a5,1
    1308:	0064c683          	lbu	a3,6(s1)
    130c:	00614703          	lbu	a4,6(sp)
    1310:	00e69463          	bne	a3,a4,1318 <flash_read_mid_uid_with_check+0xc4>
    1314:	00178793          	addi	a5,a5,1
    1318:	0074c683          	lbu	a3,7(s1)
    131c:	00714703          	lbu	a4,7(sp)
    1320:	00e69463          	bne	a3,a4,1328 <flash_read_mid_uid_with_check+0xd4>
    1324:	00178793          	addi	a5,a5,1
    1328:	0084c683          	lbu	a3,8(s1)
    132c:	00814703          	lbu	a4,8(sp)
    1330:	00e69463          	bne	a3,a4,1338 <flash_read_mid_uid_with_check+0xe4>
    1334:	00178793          	addi	a5,a5,1
    1338:	0094c683          	lbu	a3,9(s1)
    133c:	00914703          	lbu	a4,9(sp)
    1340:	00e69463          	bne	a3,a4,1348 <flash_read_mid_uid_with_check+0xf4>
    1344:	00178793          	addi	a5,a5,1
    1348:	00a4c683          	lbu	a3,10(s1)
    134c:	00a14703          	lbu	a4,10(sp)
    1350:	00e69463          	bne	a3,a4,1358 <flash_read_mid_uid_with_check+0x104>
    1354:	00178793          	addi	a5,a5,1
    1358:	00b4c683          	lbu	a3,11(s1)
    135c:	00b14703          	lbu	a4,11(sp)
    1360:	00e69463          	bne	a3,a4,1368 <flash_read_mid_uid_with_check+0x114>
    1364:	00178793          	addi	a5,a5,1
    1368:	00c4c683          	lbu	a3,12(s1)
    136c:	00c14703          	lbu	a4,12(sp)
    1370:	00e69463          	bne	a3,a4,1378 <flash_read_mid_uid_with_check+0x124>
    1374:	00178793          	addi	a5,a5,1
    1378:	00d4c683          	lbu	a3,13(s1)
    137c:	00d14703          	lbu	a4,13(sp)
    1380:	00e69463          	bne	a3,a4,1388 <flash_read_mid_uid_with_check+0x134>
    1384:	00178793          	addi	a5,a5,1
    1388:	00e4c683          	lbu	a3,14(s1)
    138c:	00e14703          	lbu	a4,14(sp)
    1390:	00e69463          	bne	a3,a4,1398 <flash_read_mid_uid_with_check+0x144>
    1394:	00178793          	addi	a5,a5,1
    1398:	00f14683          	lbu	a3,15(sp)
    139c:	00f4c703          	lbu	a4,15(s1)
    13a0:	00e69463          	bne	a3,a4,13a8 <flash_read_mid_uid_with_check+0x154>
    13a4:	00178793          	addi	a5,a5,1
    13a8:	40f2                	c.lwsp	ra,28(sp)
    13aa:	4462                	c.lwsp	s0,24(sp)
    13ac:	17c1                	c.addi	a5,-16
    13ae:	00f037b3          	snez	a5,a5
    13b2:	44d2                	c.lwsp	s1,20(sp)
    13b4:	853e                	c.mv	a0,a5
    13b6:	6105                	c.addi16sp	sp,32
    13b8:	00008067          	ret

000013bc <flash_dread>:
    13bc:	1141                	c.addi	sp,-16
    13be:	c606                	c.swsp	ra,12(sp)
    13c0:	87b2                	c.mv	a5,a2
    13c2:	7d047073          	csrci	mmisc_ctl,8
    13c6:	862e                	c.mv	a2,a1
    13c8:	00f005b3          	add	a1,zero,a5
    13cc:	a78ff0ef          	jal	ra,644 <flash_mspi_read_ram.constprop.7>
    13d0:	7d046073          	csrsi	mmisc_ctl,8
    13d4:	40b2                	c.lwsp	ra,12(sp)
    13d6:	0141                	c.addi	sp,16
    13d8:	00008067          	ret

000013dc <clock_init.constprop.10>:
    13dc:	1141                	c.addi	sp,-16
    13de:	c606                	c.swsp	ra,12(sp)
    13e0:	7d047073          	csrci	mmisc_ctl,8
    13e4:	c3cff0ef          	jal	ra,820 <clock_init_ram.constprop.11>
    13e8:	7d046073          	csrsi	mmisc_ctl,8
    13ec:	40b2                	c.lwsp	ra,12(sp)
    13ee:	0141                	c.addi	sp,16
    13f0:	00008067          	ret

000013f4 <pm_sleep_wakeup.constprop.2>:
    13f4:	1141                	c.addi	sp,-16
    13f6:	c606                	c.swsp	ra,12(sp)
    13f8:	7d047073          	csrci	mmisc_ctl,8
    13fc:	8cdff0ef          	jal	ra,cc8 <pm_sleep_wakeup_ram.constprop.3>
    1400:	7d046073          	csrsi	mmisc_ctl,8
    1404:	40b2                	c.lwsp	ra,12(sp)
    1406:	0141                	c.addi	sp,16
    1408:	8082                	c.jr	ra
    140a:	0001                	c.nop

0000140c <user_calib_adc_vref.constprop.9>:
    140c:	1101                	c.addi	sp,-32
    140e:	ce06                	c.swsp	ra,28(sp)
    1410:	c402                	c.swsp	zero,8(sp)
    1412:	00011623          	sh	zero,12(sp)
    1416:	00010723          	sb	zero,14(sp)
    141a:	c54d                	c.beqz	a0,14c4 <user_calib_adc_vref.constprop.9+0xb8>
    141c:	000007b7          	lui	a5,0x0
    1420:	1587a783          	lw	a5,344(a5) # 158 <_AES_VMA_END>
    1424:	0030                	c.addi4spn	a2,sp,8
    1426:	459d                	c.li	a1,7
    1428:	9782                	c.jalr	a5
    142a:	00c14783          	lbu	a5,12(sp)
    142e:	1c07b75b          	bfos	a4,a5,7,0
    1432:	04074163          	bltz	a4,1474 <user_calib_adc_vref.constprop.9+0x68>
    1436:	00e14703          	lbu	a4,14(sp)
    143a:	00d14603          	lbu	a2,13(sp)
    143e:	0722                	c.slli	a4,0x8
    1440:	66c1                	c.lui	a3,0x10
    1442:	00c705b3          	add	a1,a4,a2
    1446:	16fd                	c.addi	a3,-1
    1448:	02d58663          	beq	a1,a3,1474 <user_calib_adc_vref.constprop.9+0x68>
    144c:	fd060613          	addi	a2,a2,-48
    1450:	9732                	c.add	a4,a2
    1452:	3c07275b          	bfoz	a4,a4,15,0
    1456:	0fb00693          	li	a3,251
    145a:	08e6e563          	bltu	a3,a4,14e4 <user_calib_adc_vref.constprop.9+0xd8>
    145e:	17b1                	c.addi	a5,-20
    1460:	1c07b7db          	bfos	a5,a5,7,0
    1464:	5731                	c.li	a4,-20
    1466:	06e78f63          	beq	a5,a4,14e4 <user_calib_adc_vref.constprop.9+0xd8>
    146a:	f9578513          	addi	a0,a5,-107
    146e:	00a03533          	snez	a0,a0
    1472:	a89d                	c.j	14e8 <user_calib_adc_vref.constprop.9+0xdc>
    1474:	801407b7          	lui	a5,0x80140
    1478:	06500713          	li	a4,101
    147c:	1ee78a23          	sb	a4,500(a5) # 801401f4 <_DATA_LMA_START+0x60134e14>
    1480:	1c87a703          	lw	a4,456(a5)
    1484:	1e078a23          	sb	zero,500(a5)
    1488:	4c47275b          	bfoz	a4,a4,19,4
    148c:	380727db          	bfoz	a5,a4,14,0
    1490:	06078063          	beqz	a5,14f0 <user_calib_adc_vref.constprop.9+0xe4>
    1494:	1ff77713          	andi	a4,a4,511
    1498:	f9b70713          	addi	a4,a4,-101
    149c:	3c07275b          	bfoz	a4,a4,15,0
    14a0:	0c600693          	li	a3,198
    14a4:	04e6e063          	bltu	a3,a4,14e4 <user_calib_adc_vref.constprop.9+0xd8>
    14a8:	0097d513          	srli	a0,a5,0x9
    14ac:	1531                	c.addi	a0,-20
    14ae:	1c05355b          	bfos	a0,a0,7,0
    14b2:	57b1                	c.li	a5,-20
    14b4:	02f50863          	beq	a0,a5,14e4 <user_calib_adc_vref.constprop.9+0xd8>
    14b8:	fd550513          	addi	a0,a0,-43 # 3fffffd5 <_DATA_LMA_START+0x1fff4bf5>
    14bc:	00a03533          	snez	a0,a0
    14c0:	0280006f          	j	14e8 <user_calib_adc_vref.constprop.9+0xdc>
    14c4:	801407b7          	lui	a5,0x80140
    14c8:	06500713          	li	a4,101
    14cc:	1ee78a23          	sb	a4,500(a5) # 801401f4 <_DATA_LMA_START+0x60134e14>
    14d0:	1c87a703          	lw	a4,456(a5)
    14d4:	1e078a23          	sb	zero,500(a5)
    14d8:	4c47275b          	bfoz	a4,a4,19,4
    14dc:	380727db          	bfoz	a5,a4,14,0
    14e0:	fa079ae3          	bnez	a5,1494 <user_calib_adc_vref.constprop.9+0x88>
    14e4:	00000513          	li	a0,0
    14e8:	40f2                	c.lwsp	ra,28(sp)
    14ea:	6105                	c.addi16sp	sp,32
    14ec:	00008067          	ret
    14f0:	00814503          	lbu	a0,8(sp)
    14f4:	00914783          	lbu	a5,9(sp)
    14f8:	953e                	c.add	a0,a5
    14fa:	f8050513          	addi	a0,a0,-128
    14fe:	3c05255b          	bfoz	a0,a0,15,0
    1502:	0fc53513          	sltiu	a0,a0,252
    1506:	b7cd                	c.j	14e8 <user_calib_adc_vref.constprop.9+0xdc>

00001508 <measure_stack_usage>:
    1508:	850a                	c.mv	a0,sp
    150a:	0009f7b7          	lui	a5,0x9f
    150e:	02a7f763          	bgeu	a5,a0,153c <measure_stack_usage+0x34>
    1512:	4394                	c.lw	a3,0(a5)
    1514:	aaaab7b7          	lui	a5,0xaaaab
    1518:	aaa78793          	addi	a5,a5,-1366 # aaaaaaaa <_DATA_LMA_START+0x8aa9f6ca>
    151c:	02f69063          	bne	a3,a5,153c <measure_stack_usage+0x34>
    1520:	0009f7b7          	lui	a5,0x9f
    1524:	00c0006f          	j	1530 <measure_stack_usage+0x28>
    1528:	0007a703          	lw	a4,0(a5) # 9f000 <_end+0x134e0>
    152c:	00d71663          	bne	a4,a3,1538 <measure_stack_usage+0x30>
    1530:	00478793          	addi	a5,a5,4
    1534:	fea7eae3          	bltu	a5,a0,1528 <measure_stack_usage+0x20>
    1538:	8d1d                	c.sub	a0,a5
    153a:	8082                	c.jr	ra
    153c:	0009f7b7          	lui	a5,0x9f
    1540:	bfe5                	c.j	1538 <measure_stack_usage+0x30>
    1542:	0001                	c.nop

00001544 <fill_stack_pattern_to_sp>:
    1544:	860a                	c.mv	a2,sp
    1546:	0009f7b7          	lui	a5,0x9f
    154a:	00c7ff63          	bgeu	a5,a2,1568 <fill_stack_pattern_to_sp+0x24>
    154e:	fff617b7          	lui	a5,0xfff61
    1552:	17fd                	c.addi	a5,-1
    1554:	963e                	c.add	a2,a5
    1556:	9a71                	c.andi	a2,-4
    1558:	00460613          	addi	a2,a2,4
    155c:	0aa00593          	li	a1,170
    1560:	0009f537          	lui	a0,0x9f
    1564:	5820806f          	j	9ae6 <memset>
    1568:	8082                	c.jr	ra
	...

0000156c <user_calib_freq_offset.constprop.8>:
    156c:	000007b7          	lui	a5,0x0
    1570:	1101                	c.addi	sp,-32
    1572:	1587a783          	lw	a5,344(a5) # 158 <_AES_VMA_END>
    1576:	577d                	c.li	a4,-1
    1578:	00f10613          	addi	a2,sp,15
    157c:	4585                	c.li	a1,1
    157e:	cc22                	c.swsp	s0,24(sp)
    1580:	ce06                	c.swsp	ra,28(sp)
    1582:	00e107a3          	sb	a4,15(sp)
    1586:	9782                	c.jalr	a5
    1588:	00f14403          	lbu	s0,15(sp)
    158c:	0ff00793          	li	a5,255
    1590:	00000513          	li	a0,0
    1594:	02f40263          	beq	s0,a5,15b8 <user_calib_freq_offset.constprop.8+0x4c>
    1598:	08a00513          	li	a0,138
    159c:	a38ff0ef          	jal	ra,7d4 <analog_read_reg8>
    15a0:	03f47413          	andi	s0,s0,63
    15a4:	04057593          	andi	a1,a0,64
    15a8:	0085e5b3          	or	a1,a1,s0
    15ac:	08a00513          	li	a0,138
    15b0:	9e0ff0ef          	jal	ra,790 <analog_write_reg8>
    15b4:	00100513          	li	a0,1
    15b8:	40f2                	c.lwsp	ra,28(sp)
    15ba:	4462                	c.lwsp	s0,24(sp)
    15bc:	6105                	c.addi16sp	sp,32
    15be:	8082                	c.jr	ra
    15c0:	0001                	c.nop
	...

000015c4 <gpio_input_dis>:
    15c4:	801407b7          	lui	a5,0x80140
    15c8:	30978703          	lb	a4,777(a5) # 80140309 <_DATA_LMA_START+0x60134f29>
    15cc:	fff54513          	not	a0,a0
    15d0:	8d79                	c.and	a0,a4
    15d2:	0ff57513          	andi	a0,a0,255
    15d6:	30a784a3          	sb	a0,777(a5)
    15da:	8082                	c.jr	ra
    15dc:	0001                	c.nop
	...

000015e0 <reset_counters>:
    15e0:	b0005073          	csrwi	mcycle,0
    15e4:	b0205073          	csrwi	minstret,0
    15e8:	8082                	c.jr	ra
	...

000015ec <validate.lto_priv.13>:
    15ec:	1101                	c.addi	sp,-32
    15ee:	cc22                	c.swsp	s0,24(sp)
    15f0:	ca26                	c.swsp	s1,20(sp)
    15f2:	c84a                	c.swsp	s2,16(sp)
    15f4:	c64e                	c.swsp	s3,12(sp)
    15f6:	c452                	c.swsp	s4,8(sp)
    15f8:	c256                	c.swsp	s5,4(sp)
    15fa:	c05a                	c.swsp	s6,0(sp)
    15fc:	89b2                	c.mv	s3,a2
    15fe:	892a                	c.mv	s2,a0
    1600:	84ae                	c.mv	s1,a1
    1602:	4401                	c.li	s0,0
    1604:	4a01                	c.li	s4,0
    1606:	4b05                	c.li	s6,1
    1608:	0008cab7          	lui	s5,0x8c
    160c:	00112e23          	sw	ra,28(sp)
    1610:	00090703          	lb	a4,0(s2)
    1614:	00048783          	lb	a5,0(s1)
    1618:	85a2                	c.mv	a1,s0
    161a:	86be                	c.mv	a3,a5
    161c:	0405                	c.addi	s0,1
    161e:	863a                	c.mv	a2,a4
    1620:	9b8a8513          	addi	a0,s5,-1608 # 8b9b8 <int16xint8xint32_1_weights+0x24b0>
    1624:	00f70663          	beq	a4,a5,1630 <validate.lto_priv.13+0x44>
    1628:	0a05                	c.addi	s4,1
    162a:	4b01                	c.li	s6,0
    162c:	6c4080ef          	jal	ra,9cf0 <printf>
    1630:	0905                	c.addi	s2,1
    1632:	0485                	c.addi	s1,1
    1634:	fc899ee3          	bne	s3,s0,1610 <validate.lto_priv.13+0x24>
    1638:	000b1a63          	bnez	s6,164c <validate.lto_priv.13+0x60>
    163c:	0008c537          	lui	a0,0x8c
    1640:	864e                	c.mv	a2,s3
    1642:	85d2                	c.mv	a1,s4
    1644:	9dc50513          	addi	a0,a0,-1572 # 8b9dc <int16xint8xint32_1_weights+0x24d4>
    1648:	6a8080ef          	jal	ra,9cf0 <printf>
    164c:	40f2                	c.lwsp	ra,28(sp)
    164e:	4462                	c.lwsp	s0,24(sp)
    1650:	855a                	c.mv	a0,s6
    1652:	44d2                	c.lwsp	s1,20(sp)
    1654:	4942                	c.lwsp	s2,16(sp)
    1656:	49b2                	c.lwsp	s3,12(sp)
    1658:	4a22                	c.lwsp	s4,8(sp)
    165a:	4a92                	c.lwsp	s5,4(sp)
    165c:	4b02                	c.lwsp	s6,0(sp)
    165e:	6105                	c.addi16sp	sp,32
    1660:	8082                	c.jr	ra
	...

00001664 <validate_s16.lto_priv.15>:
    1664:	1101                	c.addi	sp,-32
    1666:	cc22                	c.swsp	s0,24(sp)
    1668:	ca26                	c.swsp	s1,20(sp)
    166a:	c84a                	c.swsp	s2,16(sp)
    166c:	c64e                	c.swsp	s3,12(sp)
    166e:	c452                	c.swsp	s4,8(sp)
    1670:	c256                	c.swsp	s5,4(sp)
    1672:	c05a                	c.swsp	s6,0(sp)
    1674:	89b2                	c.mv	s3,a2
    1676:	892a                	c.mv	s2,a0
    1678:	84ae                	c.mv	s1,a1
    167a:	4401                	c.li	s0,0
    167c:	4a01                	c.li	s4,0
    167e:	4b05                	c.li	s6,1
    1680:	0008cab7          	lui	s5,0x8c
    1684:	00112e23          	sw	ra,28(sp)
    1688:	00091703          	lh	a4,0(s2)
    168c:	00049783          	lh	a5,0(s1)
    1690:	85a2                	c.mv	a1,s0
    1692:	86be                	c.mv	a3,a5
    1694:	0405                	c.addi	s0,1
    1696:	863a                	c.mv	a2,a4
    1698:	9b8a8513          	addi	a0,s5,-1608 # 8b9b8 <int16xint8xint32_1_weights+0x24b0>
    169c:	00f70663          	beq	a4,a5,16a8 <validate_s16.lto_priv.15+0x44>
    16a0:	0a05                	c.addi	s4,1
    16a2:	4b01                	c.li	s6,0
    16a4:	64c080ef          	jal	ra,9cf0 <printf>
    16a8:	0909                	c.addi	s2,2
    16aa:	0489                	c.addi	s1,2
    16ac:	fc899ee3          	bne	s3,s0,1688 <validate_s16.lto_priv.15+0x24>
    16b0:	000b1a63          	bnez	s6,16c4 <validate_s16.lto_priv.15+0x60>
    16b4:	0008c537          	lui	a0,0x8c
    16b8:	864e                	c.mv	a2,s3
    16ba:	85d2                	c.mv	a1,s4
    16bc:	9dc50513          	addi	a0,a0,-1572 # 8b9dc <int16xint8xint32_1_weights+0x24d4>
    16c0:	630080ef          	jal	ra,9cf0 <printf>
    16c4:	40f2                	c.lwsp	ra,28(sp)
    16c6:	4462                	c.lwsp	s0,24(sp)
    16c8:	855a                	c.mv	a0,s6
    16ca:	44d2                	c.lwsp	s1,20(sp)
    16cc:	4942                	c.lwsp	s2,16(sp)
    16ce:	49b2                	c.lwsp	s3,12(sp)
    16d0:	4a22                	c.lwsp	s4,8(sp)
    16d2:	4a92                	c.lwsp	s5,4(sp)
    16d4:	4b02                	c.lwsp	s6,0(sp)
    16d6:	6105                	c.addi16sp	sp,32
    16d8:	8082                	c.jr	ra
	...

000016dc <dw_int16xint8_dilation_riscv_depthwise_conv_s16>:
    16dc:	c7010113          	addi	sp,sp,-912
    16e0:	38912223          	sw	s1,900(sp)
    16e4:	0904                	c.addi4spn	s1,sp,144
    16e6:	2d000613          	li	a2,720
    16ea:	4581                	c.li	a1,0
    16ec:	00900533          	add	a0,zero,s1
    16f0:	38112623          	sw	ra,908(sp)
    16f4:	39212023          	sw	s2,896(sp)
    16f8:	37312e23          	sw	s3,892(sp)
    16fc:	38812423          	sw	s0,904(sp)
    1700:	37412c23          	sw	s4,888(sp)
    1704:	37512a23          	sw	s5,884(sp)
    1708:	37612823          	sw	s6,880(sp)
    170c:	37712623          	sw	s7,876(sp)
    1710:	3d6080ef          	jal	ra,9ae6 <memset>
    1714:	4791                	c.li	a5,4
    1716:	d0be                	c.swsp	a5,96(sp)
    1718:	c6be                	c.swsp	a5,76(sp)
    171a:	c4be                	c.swsp	a5,72(sp)
    171c:	dcbe                	c.swsp	a5,120(sp)
    171e:	77e1                	c.lui	a5,0xffff8
    1720:	04478793          	addi	a5,a5,68 # ffff8044 <_DATA_LMA_START+0xdffecc64>
    1724:	c53e                	c.swsp	a5,136(sp)
    1726:	67a1                	c.lui	a5,0x8
    1728:	17fd                	c.addi	a5,-1
    172a:	c73e                	c.swsp	a5,140(sp)
    172c:	0980178b          	addigp	a5,152 # 80898 <dw_int16xint8_dilation_output_mult>
    1730:	4315                	c.li	t1,5
    1732:	ca3e                	c.swsp	a5,20(sp)
    1734:	02410913          	addi	s2,sp,36
    1738:	4705                	c.li	a4,1
    173a:	4e25                	c.li	t3,9
    173c:	488d                	c.li	a7,3
    173e:	4809                	c.li	a6,2
    1740:	3880178b          	addigp	a5,904 # 80b88 <dw_int16xint8_dilation_output_shift>
    1744:	86ca                	c.mv	a3,s2
    1746:	00d0                	c.addi4spn	a2,sp,68
    1748:	08cc                	c.addi4spn	a1,sp,84
    174a:	cc9a                	c.swsp	t1,88(sp)
    174c:	d41a                	c.swsp	t1,40(sp)
    174e:	10c8                	c.addi4spn	a0,sp,100
    1750:	4321                	c.li	t1,8
    1752:	caba                	c.swsp	a4,84(sp)
    1754:	cef2                	c.swsp	t3,92(sp)
    1756:	d672                	c.swsp	t3,44(sp)
    1758:	d81a                	c.swsp	t1,48(sp)
    175a:	dec6                	c.swsp	a7,124(sp)
    175c:	d8ba                	c.swsp	a4,112(sp)
    175e:	daba                	c.swsp	a4,116(sp)
    1760:	c146                	c.swsp	a7,128(sp)
    1762:	c342                	c.swsp	a6,132(sp)
    1764:	d6c2                	c.swsp	a6,108(sp)
    1766:	cc3e                	c.swsp	a5,24(sp)
    1768:	da02                	c.swsp	zero,52(sp)
    176a:	dc02                	c.swsp	zero,56(sp)
    176c:	de02                	c.swsp	zero,60(sp)
    176e:	c082                	c.swsp	zero,64(sp)
    1770:	d282                	c.swsp	zero,100(sp)
    1772:	d482                	c.swsp	zero,104(sp)
    1774:	1b9010ef          	jal	ra,312c <riscv_depthwise_conv_wrapper_s16_get_buffer_size>
    1778:	00a009b3          	add	s3,zero,a0
    177c:	414080ef          	jal	ra,9b90 <malloc>
    1780:	d04e                	c.swsp	s3,32(sp)
    1782:	ce2a                	c.swsp	a0,28(sp)
    1784:	e5dff0ef          	jal	ra,15e0 <reset_counters>
    1788:	dbdff0ef          	jal	ra,1544 <fill_stack_pattern_to_sp>
    178c:	b0002b73          	csrr	s6,mcycle
    1790:	b0202af3          	csrr	s5,minstret
    1794:	ef1f930b          	addigp	t1,-272 # 806f0 <dw_int16xint8_dilation_biases>
    1798:	03410893          	addi	a7,sp,52
    179c:	4b00180b          	addigp	a6,1200 # 80cb0 <dw_int16xint8_dilation_weights>
    17a0:	00dc                	c.addi4spn	a5,sp,68
    17a2:	f31f970b          	addigp	a4,-208 # 80730 <dw_int16xint8_dilation_input>
    17a6:	08d4                	c.addi4spn	a3,sp,84
    17a8:	0850                	c.addi4spn	a2,sp,20
    17aa:	10cc                	c.addi4spn	a1,sp,100
    17ac:	0868                	c.addi4spn	a0,sp,28
    17ae:	c426                	c.swsp	s1,8(sp)
    17b0:	c24a                	c.swsp	s2,4(sp)
    17b2:	c01a                	c.swsp	t1,0(sp)
    17b4:	6fd030ef          	jal	ra,56b0 <riscv_depthwise_conv_wrapper_s16>
    17b8:	b0002473          	csrr	s0,mcycle
    17bc:	b0202bf3          	csrr	s7,minstret
    17c0:	d49ff0ef          	jal	ra,1508 <measure_stack_usage>
    17c4:	8a2a                	c.mv	s4,a0
    17c6:	4572                	c.lwsp	a0,28(sp)
    17c8:	2b86a92b          	lwgp	s2,45752 # 8bab8 <_DATA_VMA_END>
    17cc:	c911                	c.beqz	a0,17e0 <dw_int16xint8_dilation_riscv_depthwise_conv_s16+0x104>
    17ce:	864e                	c.mv	a2,s3
    17d0:	00000593          	li	a1,0
    17d4:	312080ef          	jal	ra,9ae6 <memset>
    17d8:	01c12503          	lw	a0,28(sp)
    17dc:	3c4080ef          	jal	ra,9ba0 <free>
    17e0:	0008b537          	lui	a0,0x8b
    17e4:	5f050513          	addi	a0,a0,1520 # 8b5f0 <int16xint8xint32_1_weights+0x20e8>
    17e8:	508080ef          	jal	ra,9cf0 <printf>
    17ec:	16800613          	li	a2,360
    17f0:	0b80158b          	addigp	a1,184 # 808b8 <dw_int16xint8_dilation_output_ref>
    17f4:	8526                	c.mv	a0,s1
    17f6:	35bd                	c.jal	1664 <validate_s16.lto_priv.15>
    17f8:	02051e63          	bnez	a0,1834 <dw_int16xint8_dilation_riscv_depthwise_conv_s16+0x158>
    17fc:	00081537          	lui	a0,0x81
    1800:	c6450513          	addi	a0,a0,-924 # 80c64 <dw_int16xint8_dilation_output_shift+0xdc>
    1804:	4ec080ef          	jal	ra,9cf0 <printf>
    1808:	38c12083          	lw	ra,908(sp)
    180c:	38812403          	lw	s0,904(sp)
    1810:	38412483          	lw	s1,900(sp)
    1814:	38012903          	lw	s2,896(sp)
    1818:	37c12983          	lw	s3,892(sp)
    181c:	37812a03          	lw	s4,888(sp)
    1820:	37412a83          	lw	s5,884(sp)
    1824:	37012b03          	lw	s6,880(sp)
    1828:	36c12b83          	lw	s7,876(sp)
    182c:	39010113          	addi	sp,sp,912
    1830:	00008067          	ret
    1834:	00081537          	lui	a0,0x81
    1838:	ba850513          	addi	a0,a0,-1112 # 80ba8 <dw_int16xint8_dilation_output_shift+0x20>
    183c:	4b4080ef          	jal	ra,9cf0 <printf>
    1840:	41640433          	sub	s0,s0,s6
    1844:	00081537          	lui	a0,0x81
    1848:	008005b3          	add	a1,zero,s0
    184c:	bf450513          	addi	a0,a0,-1036 # 80bf4 <dw_int16xint8_dilation_output_shift+0x6c>
    1850:	4a0080ef          	jal	ra,9cf0 <printf>
    1854:	00081537          	lui	a0,0x81
    1858:	415b85b3          	sub	a1,s7,s5
    185c:	c0850513          	addi	a0,a0,-1016 # 80c08 <dw_int16xint8_dilation_output_shift+0x80>
    1860:	490080ef          	jal	ra,9cf0 <printf>
    1864:	d0197553          	fcvt.s.wu	fa0,s2
    1868:	000807b7          	lui	a5,0x80
    186c:	d01477d3          	fcvt.s.wu	fa5,s0
    1870:	18a7f7d3          	fdiv.s	fa5,fa5,fa0
    1874:	0007a507          	flw	fa0,0(a5) # 80000 <_DATA_VMA_START>
    1878:	10a7f553          	fmul.s	fa0,fa5,fa0
    187c:	724090ef          	jal	ra,afa0 <__extendsfdf2>
    1880:	862a                	c.mv	a2,a0
    1882:	00081537          	lui	a0,0x81
    1886:	86ae                	c.mv	a3,a1
    1888:	c2450513          	addi	a0,a0,-988 # 80c24 <dw_int16xint8_dilation_output_shift+0x9c>
    188c:	464080ef          	jal	ra,9cf0 <printf>
    1890:	00081537          	lui	a0,0x81
    1894:	014005b3          	add	a1,zero,s4
    1898:	c4850513          	addi	a0,a0,-952 # 80c48 <dw_int16xint8_dilation_output_shift+0xc0>
    189c:	454080ef          	jal	ra,9cf0 <printf>
    18a0:	b7a5                	c.j	1808 <dw_int16xint8_dilation_riscv_depthwise_conv_s16+0x12c>
	...

000018a4 <dw_int16xint8_riscv_depthwise_conv_s16>:
    18a4:	714d                	c.addi16sp	sp,-336
    18a6:	14912223          	sw	s1,324(sp)
    18aa:	0904                	c.addi4spn	s1,sp,144
    18ac:	09000613          	li	a2,144
    18b0:	4581                	c.li	a1,0
    18b2:	8526                	c.mv	a0,s1
    18b4:	14112623          	sw	ra,332(sp)
    18b8:	15212023          	sw	s2,320(sp)
    18bc:	13312e23          	sw	s3,316(sp)
    18c0:	14812423          	sw	s0,328(sp)
    18c4:	13412c23          	sw	s4,312(sp)
    18c8:	13512a23          	sw	s5,308(sp)
    18cc:	13612823          	sw	s6,304(sp)
    18d0:	13712623          	sw	s7,300(sp)
    18d4:	212080ef          	jal	ra,9ae6 <memset>
    18d8:	4785                	c.li	a5,1
    18da:	cabe                	c.swsp	a5,84(sp)
    18dc:	debe                	c.swsp	a5,124(sp)
    18de:	c13e                	c.swsp	a5,128(sp)
    18e0:	c33e                	c.swsp	a5,132(sp)
    18e2:	77ed                	c.lui	a5,0xffffb
    18e4:	d8978793          	addi	a5,a5,-631 # ffffad89 <_DATA_LMA_START+0xdffef9a9>
    18e8:	c53e                	c.swsp	a5,136(sp)
    18ea:	67a1                	c.lui	a5,0x8
    18ec:	17fd                	c.addi	a5,-1
    18ee:	c73e                	c.swsp	a5,140(sp)
    18f0:	7d80178b          	addigp	a5,2008 # 80fd8 <dw_int16xint8_output_mult>
    18f4:	4891                	c.li	a7,4
    18f6:	ca3e                	c.swsp	a5,20(sp)
    18f8:	02410913          	addi	s2,sp,36
    18fc:	4325                	c.li	t1,9
    18fe:	470d                	c.li	a4,3
    1900:	4809                	c.li	a6,2
    1902:	0890178b          	addigp	a5,2184 # 81088 <dw_int16xint8_output_shift>
    1906:	86ca                	c.mv	a3,s2
    1908:	00d0                	c.addi4spn	a2,sp,68
    190a:	08cc                	c.addi4spn	a1,sp,84
    190c:	ce9a                	c.swsp	t1,92(sp)
    190e:	d0c6                	c.swsp	a7,96(sp)
    1910:	4315                	c.li	t1,5
    1912:	c4c6                	c.swsp	a7,72(sp)
    1914:	10c8                	c.addi4spn	a0,sp,100
    1916:	48a1                	c.li	a7,8
    1918:	cc9a                	c.swsp	t1,88(sp)
    191a:	c6ba                	c.swsp	a4,76(sp)
    191c:	d63a                	c.swsp	a4,44(sp)
    191e:	d43a                	c.swsp	a4,40(sp)
    1920:	d846                	c.swsp	a7,48(sp)
    1922:	d8ba                	c.swsp	a4,112(sp)
    1924:	dac2                	c.swsp	a6,116(sp)
    1926:	d6c2                	c.swsp	a6,108(sp)
    1928:	cc3e                	c.swsp	a5,24(sp)
    192a:	da02                	c.swsp	zero,52(sp)
    192c:	dc02                	c.swsp	zero,56(sp)
    192e:	de02                	c.swsp	zero,60(sp)
    1930:	c082                	c.swsp	zero,64(sp)
    1932:	dc82                	c.swsp	zero,120(sp)
    1934:	d282                	c.swsp	zero,100(sp)
    1936:	d482                	c.swsp	zero,104(sp)
    1938:	7f4010ef          	jal	ra,312c <riscv_depthwise_conv_wrapper_s16_get_buffer_size>
    193c:	00a009b3          	add	s3,zero,a0
    1940:	250080ef          	jal	ra,9b90 <malloc>
    1944:	d04e                	c.swsp	s3,32(sp)
    1946:	ce2a                	c.swsp	a0,28(sp)
    1948:	c99ff0ef          	jal	ra,15e0 <reset_counters>
    194c:	bf9ff0ef          	jal	ra,1544 <fill_stack_pattern_to_sp>
    1950:	b0002b73          	csrr	s6,mcycle
    1954:	b0202af3          	csrr	s5,minstret
    1958:	eb1f930b          	addigp	t1,-336 # 806b0 <dw_int16xint8_biases>
    195c:	03410893          	addi	a7,sp,52
    1960:	1310180b          	addigp	a6,2352 # 81130 <dw_int16xint8_weights>
    1964:	00dc                	c.addi4spn	a5,sp,68
    1966:	5300170b          	addigp	a4,1328 # 80d30 <dw_int16xint8_input>
    196a:	08d4                	c.addi4spn	a3,sp,84
    196c:	0850                	c.addi4spn	a2,sp,20
    196e:	10cc                	c.addi4spn	a1,sp,100
    1970:	0868                	c.addi4spn	a0,sp,28
    1972:	c426                	c.swsp	s1,8(sp)
    1974:	c24a                	c.swsp	s2,4(sp)
    1976:	c01a                	c.swsp	t1,0(sp)
    1978:	539030ef          	jal	ra,56b0 <riscv_depthwise_conv_wrapper_s16>
    197c:	b0002473          	csrr	s0,mcycle
    1980:	b0202bf3          	csrr	s7,minstret
    1984:	b85ff0ef          	jal	ra,1508 <measure_stack_usage>
    1988:	8a2a                	c.mv	s4,a0
    198a:	4572                	c.lwsp	a0,28(sp)
    198c:	2b86a92b          	lwgp	s2,45752 # 8bab8 <_DATA_VMA_END>
    1990:	c911                	c.beqz	a0,19a4 <dw_int16xint8_riscv_depthwise_conv_s16+0x100>
    1992:	864e                	c.mv	a2,s3
    1994:	00000593          	li	a1,0
    1998:	14e080ef          	jal	ra,9ae6 <memset>
    199c:	01c12503          	lw	a0,28(sp)
    19a0:	200080ef          	jal	ra,9ba0 <free>
    19a4:	0008b537          	lui	a0,0x8b
    19a8:	5f050513          	addi	a0,a0,1520 # 8b5f0 <int16xint8xint32_1_weights+0x20e8>
    19ac:	344080ef          	jal	ra,9cf0 <printf>
    19b0:	04800613          	li	a2,72
    19b4:	7f80158b          	addigp	a1,2040 # 80ff8 <dw_int16xint8_output_ref>
    19b8:	8526                	c.mv	a0,s1
    19ba:	316d                	c.jal	1664 <validate_s16.lto_priv.15>
    19bc:	02051c63          	bnez	a0,19f4 <dw_int16xint8_riscv_depthwise_conv_s16+0x150>
    19c0:	00081537          	lui	a0,0x81
    19c4:	0ec50513          	addi	a0,a0,236 # 810ec <dw_int16xint8_output_shift+0x64>
    19c8:	328080ef          	jal	ra,9cf0 <printf>
    19cc:	14c12083          	lw	ra,332(sp)
    19d0:	14812403          	lw	s0,328(sp)
    19d4:	14412483          	lw	s1,324(sp)
    19d8:	14012903          	lw	s2,320(sp)
    19dc:	13c12983          	lw	s3,316(sp)
    19e0:	13812a03          	lw	s4,312(sp)
    19e4:	13412a83          	lw	s5,308(sp)
    19e8:	13012b03          	lw	s6,304(sp)
    19ec:	12c12b83          	lw	s7,300(sp)
    19f0:	6171                	c.addi16sp	sp,336
    19f2:	8082                	c.jr	ra
    19f4:	00081537          	lui	a0,0x81
    19f8:	0a850513          	addi	a0,a0,168 # 810a8 <dw_int16xint8_output_shift+0x20>
    19fc:	2f4080ef          	jal	ra,9cf0 <printf>
    1a00:	41640433          	sub	s0,s0,s6
    1a04:	00081537          	lui	a0,0x81
    1a08:	008005b3          	add	a1,zero,s0
    1a0c:	bf450513          	addi	a0,a0,-1036 # 80bf4 <dw_int16xint8_dilation_output_shift+0x6c>
    1a10:	2e0080ef          	jal	ra,9cf0 <printf>
    1a14:	00081537          	lui	a0,0x81
    1a18:	415b85b3          	sub	a1,s7,s5
    1a1c:	c0850513          	addi	a0,a0,-1016 # 80c08 <dw_int16xint8_dilation_output_shift+0x80>
    1a20:	2d0080ef          	jal	ra,9cf0 <printf>
    1a24:	d0197553          	fcvt.s.wu	fa0,s2
    1a28:	000807b7          	lui	a5,0x80
    1a2c:	d01477d3          	fcvt.s.wu	fa5,s0
    1a30:	18a7f7d3          	fdiv.s	fa5,fa5,fa0
    1a34:	0007a507          	flw	fa0,0(a5) # 80000 <_DATA_VMA_START>
    1a38:	10a7f553          	fmul.s	fa0,fa5,fa0
    1a3c:	564090ef          	jal	ra,afa0 <__extendsfdf2>
    1a40:	862a                	c.mv	a2,a0
    1a42:	00081537          	lui	a0,0x81
    1a46:	86ae                	c.mv	a3,a1
    1a48:	c2450513          	addi	a0,a0,-988 # 80c24 <dw_int16xint8_dilation_output_shift+0x9c>
    1a4c:	2a4080ef          	jal	ra,9cf0 <printf>
    1a50:	00081537          	lui	a0,0x81
    1a54:	014005b3          	add	a1,zero,s4
    1a58:	c4850513          	addi	a0,a0,-952 # 80c48 <dw_int16xint8_dilation_output_shift+0xc0>
    1a5c:	294080ef          	jal	ra,9cf0 <printf>
    1a60:	b7b5                	c.j	19cc <dw_int16xint8_riscv_depthwise_conv_s16+0x128>
	...

00001a64 <conv_3x3_dilation_5x5_input_riscv_convolve_s8>:
    1a64:	7109                	c.addi16sp	sp,-384
    1a66:	16912a23          	sw	s1,372(sp)
    1a6a:	0124                	c.addi4spn	s1,sp,136
    1a6c:	0c600613          	li	a2,198
    1a70:	4581                	c.li	a1,0
    1a72:	8526                	c.mv	a0,s1
    1a74:	16112e23          	sw	ra,380(sp)
    1a78:	17212823          	sw	s2,368(sp)
    1a7c:	17612023          	sw	s6,352(sp)
    1a80:	16812c23          	sw	s0,376(sp)
    1a84:	17312623          	sw	s3,364(sp)
    1a88:	17412423          	sw	s4,360(sp)
    1a8c:	17512223          	sw	s5,356(sp)
    1a90:	15712e23          	sw	s7,348(sp)
    1a94:	052080ef          	jal	ra,9ae6 <memset>
    1a98:	4789                	c.li	a5,2
    1a9a:	cebe                	c.swsp	a5,92(sp)
    1a9c:	c6be                	c.swsp	a5,76(sp)
    1a9e:	d63e                	c.swsp	a5,44(sp)
    1aa0:	d8be                	c.swsp	a5,112(sp)
    1aa2:	dabe                	c.swsp	a5,116(sp)
    1aa4:	dcbe                	c.swsp	a5,120(sp)
    1aa6:	debe                	c.swsp	a5,124(sp)
    1aa8:	08000793          	li	a5,128
    1aac:	d0be                	c.swsp	a5,96(sp)
    1aae:	5799                	c.li	a5,-26
    1ab0:	d2be                	c.swsp	a5,100(sp)
    1ab2:	fc300793          	li	a5,-61
    1ab6:	c13e                	c.swsp	a5,128(sp)
    1ab8:	06b00793          	li	a5,107
    1abc:	c33e                	c.swsp	a5,132(sp)
    1abe:	28c6978b          	addigp	a5,45708 # 8ba8c <conv_3x3_dilation_5x5_input_output_mult>
    1ac2:	c83e                	c.swsp	a5,16(sp)
    1ac4:	02010913          	addi	s2,sp,32
    1ac8:	4705                	c.li	a4,1
    1aca:	48a5                	c.li	a7,9
    1acc:	482d                	c.li	a6,11
    1ace:	430d                	c.li	t1,3
    1ad0:	2946978b          	addigp	a5,45716 # 8ba94 <conv_3x3_dilation_5x5_input_output_shift>
    1ad4:	86ca                	c.mv	a3,s2
    1ad6:	0090                	c.addi4spn	a2,sp,64
    1ad8:	088c                	c.addi4spn	a1,sp,80
    1ada:	1088                	c.addi4spn	a0,sp,96
    1adc:	c8ba                	c.swsp	a4,80(sp)
    1ade:	ccc6                	c.swsp	a7,88(sp)
    1ae0:	cac2                	c.swsp	a6,84(sp)
    1ae2:	c49a                	c.swsp	t1,72(sp)
    1ae4:	c29a                	c.swsp	t1,68(sp)
    1ae6:	d446                	c.swsp	a7,40(sp)
    1ae8:	d242                	c.swsp	a6,36(sp)
    1aea:	d4ba                	c.swsp	a4,104(sp)
    1aec:	d6ba                	c.swsp	a4,108(sp)
    1aee:	ca3e                	c.swsp	a5,20(sp)
    1af0:	2d1020ef          	jal	ra,45c0 <riscv_convolve_wrapper_s8_get_buffer_size>
    1af4:	00a00b33          	add	s6,zero,a0
    1af8:	098080ef          	jal	ra,9b90 <malloc>
    1afc:	ce02                	c.swsp	zero,28(sp)
    1afe:	cc2a                	c.swsp	a0,24(sp)
    1b00:	ae1ff0ef          	jal	ra,15e0 <reset_counters>
    1b04:	a41ff0ef          	jal	ra,1544 <fill_stack_pattern_to_sp>
    1b08:	b0002af3          	csrr	s5,mcycle
    1b0c:	b0202a73          	csrr	s4,minstret
    1b10:	2846930b          	addigp	t1,45700 # 8ba84 <conv_3x3_dilation_5x5_input_biases>
    1b14:	03010893          	addi	a7,sp,48
    1b18:	bd5f980b          	addigp	a6,-1068 # 803d4 <conv_3x3_dilation_5x5_input_weights>
    1b1c:	009c                	c.addi4spn	a5,sp,64
    1b1e:	9adf970b          	addigp	a4,-1620 # 801ac <conv_3x3_dilation_5x5_input_input>
    1b22:	0894                	c.addi4spn	a3,sp,80
    1b24:	0810                	c.addi4spn	a2,sp,16
    1b26:	108c                	c.addi4spn	a1,sp,96
    1b28:	0828                	c.addi4spn	a0,sp,24
    1b2a:	c426                	c.swsp	s1,8(sp)
    1b2c:	c24a                	c.swsp	s2,4(sp)
    1b2e:	c01a                	c.swsp	t1,0(sp)
    1b30:	494010ef          	jal	ra,2fc4 <riscv_convolve_wrapper_s8>
    1b34:	b0002473          	csrr	s0,mcycle
    1b38:	b0202bf3          	csrr	s7,minstret
    1b3c:	9cdff0ef          	jal	ra,1508 <measure_stack_usage>
    1b40:	89aa                	c.mv	s3,a0
    1b42:	4562                	c.lwsp	a0,24(sp)
    1b44:	2b86a92b          	lwgp	s2,45752 # 8bab8 <_DATA_VMA_END>
    1b48:	c911                	c.beqz	a0,1b5c <conv_3x3_dilation_5x5_input_riscv_convolve_s8+0xf8>
    1b4a:	865a                	c.mv	a2,s6
    1b4c:	00000593          	li	a1,0
    1b50:	797070ef          	jal	ra,9ae6 <memset>
    1b54:	01812503          	lw	a0,24(sp)
    1b58:	048080ef          	jal	ra,9ba0 <free>
    1b5c:	0008b537          	lui	a0,0x8b
    1b60:	5f050513          	addi	a0,a0,1520 # 8b5f0 <int16xint8xint32_1_weights+0x20e8>
    1b64:	18c080ef          	jal	ra,9cf0 <printf>
    1b68:	0c600613          	li	a2,198
    1b6c:	a75f958b          	addigp	a1,-1420 # 80274 <conv_3x3_dilation_5x5_input_output_ref>
    1b70:	00900533          	add	a0,zero,s1
    1b74:	a79ff0ef          	jal	ra,15ec <validate.lto_priv.13>
    1b78:	02051c63          	bnez	a0,1bb0 <conv_3x3_dilation_5x5_input_riscv_convolve_s8+0x14c>
    1b7c:	00080537          	lui	a0,0x80
    1b80:	38850513          	addi	a0,a0,904 # 80388 <conv_3x3_dilation_5x5_input_output_ref+0x114>
    1b84:	16c080ef          	jal	ra,9cf0 <printf>
    1b88:	17c12083          	lw	ra,380(sp)
    1b8c:	17812403          	lw	s0,376(sp)
    1b90:	17412483          	lw	s1,372(sp)
    1b94:	17012903          	lw	s2,368(sp)
    1b98:	16c12983          	lw	s3,364(sp)
    1b9c:	16812a03          	lw	s4,360(sp)
    1ba0:	16412a83          	lw	s5,356(sp)
    1ba4:	16012b03          	lw	s6,352(sp)
    1ba8:	15c12b83          	lw	s7,348(sp)
    1bac:	6119                	c.addi16sp	sp,384
    1bae:	8082                	c.jr	ra
    1bb0:	00080537          	lui	a0,0x80
    1bb4:	33c50513          	addi	a0,a0,828 # 8033c <conv_3x3_dilation_5x5_input_output_ref+0xc8>
    1bb8:	138080ef          	jal	ra,9cf0 <printf>
    1bbc:	41540433          	sub	s0,s0,s5
    1bc0:	00081537          	lui	a0,0x81
    1bc4:	008005b3          	add	a1,zero,s0
    1bc8:	bf450513          	addi	a0,a0,-1036 # 80bf4 <dw_int16xint8_dilation_output_shift+0x6c>
    1bcc:	124080ef          	jal	ra,9cf0 <printf>
    1bd0:	00081537          	lui	a0,0x81
    1bd4:	414b85b3          	sub	a1,s7,s4
    1bd8:	c0850513          	addi	a0,a0,-1016 # 80c08 <dw_int16xint8_dilation_output_shift+0x80>
    1bdc:	114080ef          	jal	ra,9cf0 <printf>
    1be0:	d0197553          	fcvt.s.wu	fa0,s2
    1be4:	000807b7          	lui	a5,0x80
    1be8:	d01477d3          	fcvt.s.wu	fa5,s0
    1bec:	18a7f7d3          	fdiv.s	fa5,fa5,fa0
    1bf0:	0007a507          	flw	fa0,0(a5) # 80000 <_DATA_VMA_START>
    1bf4:	10a7f553          	fmul.s	fa0,fa5,fa0
    1bf8:	3a8090ef          	jal	ra,afa0 <__extendsfdf2>
    1bfc:	862a                	c.mv	a2,a0
    1bfe:	00081537          	lui	a0,0x81
    1c02:	86ae                	c.mv	a3,a1
    1c04:	c2450513          	addi	a0,a0,-988 # 80c24 <dw_int16xint8_dilation_output_shift+0x9c>
    1c08:	0e8080ef          	jal	ra,9cf0 <printf>
    1c0c:	00081537          	lui	a0,0x81
    1c10:	013005b3          	add	a1,zero,s3
    1c14:	c4850513          	addi	a0,a0,-952 # 80c48 <dw_int16xint8_dilation_output_shift+0xc0>
    1c18:	0d8080ef          	jal	ra,9cf0 <printf>
    1c1c:	b7b5                	c.j	1b88 <conv_3x3_dilation_5x5_input_riscv_convolve_s8+0x124>
	...

00001c20 <int16xint8_dilation_1_riscv_convolve_s16>:
    1c20:	81010113          	addi	sp,sp,-2032
    1c24:	7e912223          	sw	s1,2020(sp)
    1c28:	6485                	c.lui	s1,0x1
    1c2a:	7e112623          	sw	ra,2028(sp)
    1c2e:	7e812423          	sw	s0,2024(sp)
    1c32:	7f212023          	sw	s2,2016(sp)
    1c36:	7d312e23          	sw	s3,2012(sp)
    1c3a:	7d412c23          	sw	s4,2008(sp)
    1c3e:	7d512a23          	sw	s5,2004(sp)
    1c42:	7d612823          	sw	s6,2000(sp)
    1c46:	7d712623          	sw	s7,1996(sp)
    1c4a:	7d812423          	sw	s8,1992(sp)
    1c4e:	7d912223          	sw	s9,1988(sp)
    1c52:	e1048493          	addi	s1,s1,-496 # e10 <pm_sleep_wakeup_ram.constprop.3+0x148>
    1c56:	92010113          	addi	sp,sp,-1760
    1c5a:	8626                	c.mv	a2,s1
    1c5c:	4581                	c.li	a1,0
    1c5e:	0908                	c.addi4spn	a0,sp,144
    1c60:	687070ef          	jal	ra,9ae6 <memset>
    1c64:	4785                	c.li	a5,1
    1c66:	6c85                	c.lui	s9,0x1
    1c68:	ccbe                	c.swsp	a5,88(sp)
    1c6a:	d8be                	c.swsp	a5,112(sp)
    1c6c:	dabe                	c.swsp	a5,116(sp)
    1c6e:	77e1                	c.lui	a5,0xffff8
    1c70:	747d                	c.lui	s0,0xfffff
    1c72:	c53e                	c.swsp	a5,136(sp)
    1c74:	ea0c8693          	addi	a3,s9,-352 # ea0 <pm_sleep_wakeup_ram.constprop.3+0x1d8>
    1c78:	67a1                	c.lui	a5,0x8
    1c7a:	968a                	c.add	a3,sp
    1c7c:	18840913          	addi	s2,s0,392 # fffff188 <_DATA_LMA_START+0xdfff3da8>
    1c80:	17fd                	c.addi	a5,-1
    1c82:	9936                	c.add	s2,a3
    1c84:	c73e                	c.swsp	a5,140(sp)
    1c86:	ea0c8693          	addi	a3,s9,-352
    1c8a:	968a                	c.add	a3,sp
    1c8c:	1a840a93          	addi	s5,s0,424
    1c90:	1b840a13          	addi	s4,s0,440
    1c94:	1c840993          	addi	s3,s0,456
    1c98:	2a86978b          	addigp	a5,45736 # 8baa8 <int16xint8_dilation_1_output_multiplier>
    1c9c:	9ab6                	c.add	s5,a3
    1c9e:	9a36                	c.add	s4,a3
    1ca0:	99b6                	c.add	s3,a3
    1ca2:	cc3e                	c.swsp	a5,24(sp)
    1ca4:	4709                	c.li	a4,2
    1ca6:	02000313          	li	t1,32
    1caa:	48f9                	c.li	a7,30
    1cac:	1b10180b          	addigp	a6,2480 # 811b0 <int16xint8_dilation_1_bias>
    1cb0:	2b06978b          	addigp	a5,45744 # 8bab0 <int16xint8_dilation_1_output_shift>
    1cb4:	86ca                	c.mv	a3,s2
    1cb6:	8656                	c.mv	a2,s5
    1cb8:	85d2                	c.mv	a1,s4
    1cba:	854e                	c.mv	a0,s3
    1cbc:	c842                	c.swsp	a6,16(sp)
    1cbe:	d09a                	c.swsp	t1,96(sp)
    1cc0:	ce9a                	c.swsp	t1,92(sp)
    1cc2:	d2ba                	c.swsp	a4,100(sp)
    1cc4:	c8ba                	c.swsp	a4,80(sp)
    1cc6:	c6ba                	c.swsp	a4,76(sp)
    1cc8:	d846                	c.swsp	a7,48(sp)
    1cca:	d646                	c.swsp	a7,44(sp)
    1ccc:	da3a                	c.swsp	a4,52(sp)
    1cce:	c13a                	c.swsp	a4,128(sp)
    1cd0:	c33a                	c.swsp	a4,132(sp)
    1cd2:	ce3e                	c.swsp	a5,28(sp)
    1cd4:	00010a23          	sb	zero,20(sp)
    1cd8:	dc82                	c.swsp	zero,120(sp)
    1cda:	de82                	c.swsp	zero,124(sp)
    1cdc:	d482                	c.swsp	zero,104(sp)
    1cde:	d682                	c.swsp	zero,108(sp)
    1ce0:	141010ef          	jal	ra,3620 <riscv_convolve_wrapper_s16_get_buffer_size>
    1ce4:	00a00b33          	add	s6,zero,a0
    1ce8:	6a9070ef          	jal	ra,9b90 <malloc>
    1cec:	02a12023          	sw	a0,32(sp)
    1cf0:	8f1ff0ef          	jal	ra,15e0 <reset_counters>
    1cf4:	851ff0ef          	jal	ra,1544 <fill_stack_pattern_to_sp>
    1cf8:	b0002c73          	csrr	s8,mcycle
    1cfc:	b0202bf3          	csrr	s7,minstret
    1d00:	ea0c8693          	addi	a3,s9,-352
    1d04:	ea0c8593          	addi	a1,s9,-352
    1d08:	ea0c8e13          	addi	t3,s9,-352
    1d0c:	968a                	c.add	a3,sp
    1d0e:	958a                	c.add	a1,sp
    1d10:	9e0a                	c.add	t3,sp
    1d12:	19840893          	addi	a7,s0,408
    1d16:	17840613          	addi	a2,s0,376
    1d1a:	18040513          	addi	a0,s0,384
    1d1e:	17040413          	addi	s0,s0,368
    1d22:	9436                	c.add	s0,a3
    1d24:	409684b3          	sub	s1,a3,s1
    1d28:	98b6                	c.add	a7,a3
    1d2a:	962e                	c.add	a2,a1
    1d2c:	0694180b          	addigp	a6,10344 # 83068 <int16xint8_dilation_1_weights>
    1d30:	87d6                	c.mv	a5,s5
    1d32:	1c10170b          	addigp	a4,2496 # 811c0 <int16xint8_dilation_1_input>
    1d36:	86d2                	c.mv	a3,s4
    1d38:	85ce                	c.mv	a1,s3
    1d3a:	9572                	c.add	a0,t3
    1d3c:	c426                	c.swsp	s1,8(sp)
    1d3e:	c24a                	c.swsp	s2,4(sp)
    1d40:	00812023          	sw	s0,0(sp)
    1d44:	27c010ef          	jal	ra,2fc0 <riscv_convolve_wrapper_s16>
    1d48:	b0002473          	csrr	s0,mcycle
    1d4c:	b02029f3          	csrr	s3,minstret
    1d50:	fb8ff0ef          	jal	ra,1508 <measure_stack_usage>
    1d54:	892a                	c.mv	s2,a0
    1d56:	5502                	c.lwsp	a0,32(sp)
    1d58:	2b86a4ab          	lwgp	s1,45752 # 8bab8 <_DATA_VMA_END>
    1d5c:	c911                	c.beqz	a0,1d70 <int16xint8_dilation_1_riscv_convolve_s16+0x150>
    1d5e:	865a                	c.mv	a2,s6
    1d60:	00000593          	li	a1,0
    1d64:	583070ef          	jal	ra,9ae6 <memset>
    1d68:	02012503          	lw	a0,32(sp)
    1d6c:	635070ef          	jal	ra,9ba0 <free>
    1d70:	0008b537          	lui	a0,0x8b
    1d74:	5f050513          	addi	a0,a0,1520 # 8b5f0 <int16xint8xint32_1_weights+0x20e8>
    1d78:	779070ef          	jal	ra,9cf0 <printf>
    1d7c:	6685                	c.lui	a3,0x1
    1d7e:	757d                	c.lui	a0,0xfffff
    1d80:	ea068693          	addi	a3,a3,-352 # ea0 <pm_sleep_wakeup_ram.constprop.3+0x1d8>
    1d84:	1f050513          	addi	a0,a0,496 # fffff1f0 <_DATA_LMA_START+0xdfff3e10>
    1d88:	968a                	c.add	a3,sp
    1d8a:	70800613          	li	a2,1800
    1d8e:	1c12158b          	addigp	a1,6592 # 821c0 <int16xint8_dilation_1_output>
    1d92:	9536                	c.add	a0,a3
    1d94:	8d1ff0ef          	jal	ra,1664 <validate_s16.lto_priv.15>
    1d98:	04051463          	bnez	a0,1de0 <int16xint8_dilation_1_riscv_convolve_s16+0x1c0>
    1d9c:	00083537          	lui	a0,0x83
    1da0:	01c50513          	addi	a0,a0,28 # 8301c <int16xint8_dilation_1_output+0xe5c>
    1da4:	74d070ef          	jal	ra,9cf0 <printf>
    1da8:	6e010113          	addi	sp,sp,1760
    1dac:	7ec12083          	lw	ra,2028(sp)
    1db0:	7e812403          	lw	s0,2024(sp)
    1db4:	7e412483          	lw	s1,2020(sp)
    1db8:	7e012903          	lw	s2,2016(sp)
    1dbc:	7dc12983          	lw	s3,2012(sp)
    1dc0:	7d812a03          	lw	s4,2008(sp)
    1dc4:	7d412a83          	lw	s5,2004(sp)
    1dc8:	7d012b03          	lw	s6,2000(sp)
    1dcc:	7cc12b83          	lw	s7,1996(sp)
    1dd0:	7c812c03          	lw	s8,1992(sp)
    1dd4:	7c412c83          	lw	s9,1988(sp)
    1dd8:	7f010113          	addi	sp,sp,2032
    1ddc:	00008067          	ret
    1de0:	00083537          	lui	a0,0x83
    1de4:	fd050513          	addi	a0,a0,-48 # 82fd0 <int16xint8_dilation_1_output+0xe10>
    1de8:	709070ef          	jal	ra,9cf0 <printf>
    1dec:	41840c33          	sub	s8,s0,s8
    1df0:	00081537          	lui	a0,0x81
    1df4:	018005b3          	add	a1,zero,s8
    1df8:	bf450513          	addi	a0,a0,-1036 # 80bf4 <dw_int16xint8_dilation_output_shift+0x6c>
    1dfc:	6f5070ef          	jal	ra,9cf0 <printf>
    1e00:	00081537          	lui	a0,0x81
    1e04:	417985b3          	sub	a1,s3,s7
    1e08:	c0850513          	addi	a0,a0,-1016 # 80c08 <dw_int16xint8_dilation_output_shift+0x80>
    1e0c:	6e5070ef          	jal	ra,9cf0 <printf>
    1e10:	d014f553          	fcvt.s.wu	fa0,s1
    1e14:	000807b7          	lui	a5,0x80
    1e18:	d01c77d3          	fcvt.s.wu	fa5,s8
    1e1c:	18a7f7d3          	fdiv.s	fa5,fa5,fa0
    1e20:	0007a507          	flw	fa0,0(a5) # 80000 <_DATA_VMA_START>
    1e24:	10a7f553          	fmul.s	fa0,fa5,fa0
    1e28:	178090ef          	jal	ra,afa0 <__extendsfdf2>
    1e2c:	862a                	c.mv	a2,a0
    1e2e:	00081537          	lui	a0,0x81
    1e32:	86ae                	c.mv	a3,a1
    1e34:	c2450513          	addi	a0,a0,-988 # 80c24 <dw_int16xint8_dilation_output_shift+0x9c>
    1e38:	6b9070ef          	jal	ra,9cf0 <printf>
    1e3c:	00081537          	lui	a0,0x81
    1e40:	012005b3          	add	a1,zero,s2
    1e44:	c4850513          	addi	a0,a0,-952 # 80c48 <dw_int16xint8_dilation_output_shift+0xc0>
    1e48:	6a9070ef          	jal	ra,9cf0 <printf>
    1e4c:	bfb1                	c.j	1da8 <int16xint8_dilation_1_riscv_convolve_s16+0x188>
	...

00001e50 <_write>:
    1e50:	1141                	c.addi	sp,-16
    1e52:	c606                	c.swsp	ra,12(sp)
    1e54:	c422                	c.swsp	s0,8(sp)
    1e56:	c226                	c.swsp	s1,4(sp)
    1e58:	c04a                	c.swsp	s2,0(sp)
    1e5a:	02c05763          	blez	a2,1e88 <_write+0x38>
    1e5e:	8932                	c.mv	s2,a2
    1e60:	00b00433          	add	s0,zero,a1
    1e64:	00c584b3          	add	s1,a1,a2
    1e68:	00044503          	lbu	a0,0(s0)
    1e6c:	00140413          	addi	s0,s0,1
    1e70:	d39fe0ef          	jal	ra,ba8 <dr_putchar>
    1e74:	fe941ae3          	bne	s0,s1,1e68 <_write+0x18>
    1e78:	40b2                	c.lwsp	ra,12(sp)
    1e7a:	4422                	c.lwsp	s0,8(sp)
    1e7c:	854a                	c.mv	a0,s2
    1e7e:	4492                	c.lwsp	s1,4(sp)
    1e80:	4902                	c.lwsp	s2,0(sp)
    1e82:	0141                	c.addi	sp,16
    1e84:	00008067          	ret
    1e88:	40b2                	c.lwsp	ra,12(sp)
    1e8a:	4422                	c.lwsp	s0,8(sp)
    1e8c:	4901                	c.li	s2,0
    1e8e:	854a                	c.mv	a0,s2
    1e90:	4492                	c.lwsp	s1,4(sp)
    1e92:	4902                	c.lwsp	s2,0(sp)
    1e94:	0141                	c.addi	sp,16
    1e96:	8082                	c.jr	ra

00001e98 <main>:
    1e98:	7169                	c.addi16sp	sp,-304
    1e9a:	ffbc07b7          	lui	a5,0xffbc0
    1e9e:	12112623          	sw	ra,300(sp)
    1ea2:	17fd                	c.addi	a5,-1
    1ea4:	80140737          	lui	a4,0x80140
    1ea8:	12812423          	sw	s0,296(sp)
    1eac:	12912223          	sw	s1,292(sp)
    1eb0:	13212023          	sw	s2,288(sp)
    1eb4:	11312e23          	sw	s3,284(sp)
    1eb8:	11412c23          	sw	s4,280(sp)
    1ebc:	11512a23          	sw	s5,276(sp)
    1ec0:	11612823          	sw	s6,272(sp)
    1ec4:	11712623          	sw	s7,268(sp)
    1ec8:	11812423          	sw	s8,264(sp)
    1ecc:	11912223          	sw	s9,260(sp)
    1ed0:	11a12023          	sw	s10,256(sp)
    1ed4:	ffa2                	c.fswsp	fs0,252(sp)
    1ed6:	1ef72023          	sw	a5,480(a4) # 801401e0 <_DATA_LMA_START+0x60134e00>
    1eda:	4589                	c.li	a1,2
    1edc:	08c00513          	li	a0,140
    1ee0:	1ef72223          	sw	a5,484(a4)
    1ee4:	8adfe0ef          	jal	ra,790 <analog_write_reg8>
    1ee8:	4581                	c.li	a1,0
    1eea:	4529                	c.li	a0,10
    1eec:	8a5fe0ef          	jal	ra,790 <analog_write_reg8>
    1ef0:	03b00593          	li	a1,59
    1ef4:	00b00513          	li	a0,11
    1ef8:	899fe0ef          	jal	ra,790 <analog_write_reg8>
    1efc:	00500513          	li	a0,5
    1f00:	8d5fe0ef          	jal	ra,7d4 <analog_read_reg8>
    1f04:	0f757593          	andi	a1,a0,247
    1f08:	00500513          	li	a0,5
    1f0c:	885fe0ef          	jal	ra,790 <analog_write_reg8>
    1f10:	00600513          	li	a0,6
    1f14:	8c1fe0ef          	jal	ra,7d4 <analog_read_reg8>
    1f18:	03e57593          	andi	a1,a0,62
    1f1c:	00600513          	li	a0,6
    1f20:	871fe0ef          	jal	ra,790 <analog_write_reg8>
    1f24:	04500593          	li	a1,69
    1f28:	00100513          	li	a0,1
    1f2c:	865fe0ef          	jal	ra,790 <analog_write_reg8>
    1f30:	04c00593          	li	a1,76
    1f34:	01c00513          	li	a0,28
    1f38:	859fe0ef          	jal	ra,790 <analog_write_reg8>
    1f3c:	801007b7          	lui	a5,0x80100
    1f40:	44478703          	lb	a4,1092(a5) # 80100444 <_DATA_LMA_START+0x600f5064>
    1f44:	801016b7          	lui	a3,0x80101
    1f48:	0ff77713          	andi	a4,a4,255
    1f4c:	00e76713          	ori	a4,a4,14
    1f50:	44e78223          	sb	a4,1092(a5)
    1f54:	45878703          	lb	a4,1112(a5)
    1f58:	03800513          	li	a0,56
    1f5c:	0ff77713          	andi	a4,a4,255
    1f60:	00e76713          	ori	a4,a4,14
    1f64:	44e78c23          	sb	a4,1112(a5)
    1f68:	46c78703          	lb	a4,1132(a5)
    1f6c:	0ff77713          	andi	a4,a4,255
    1f70:	00e76713          	ori	a4,a4,14
    1f74:	46e78623          	sb	a4,1132(a5)
    1f78:	48078703          	lb	a4,1152(a5)
    1f7c:	0ff77713          	andi	a4,a4,255
    1f80:	00e76713          	ori	a4,a4,14
    1f84:	48e78023          	sb	a4,1152(a5)
    1f88:	49478703          	lb	a4,1172(a5)
    1f8c:	0ff77713          	andi	a4,a4,255
    1f90:	00e76713          	ori	a4,a4,14
    1f94:	48e78a23          	sb	a4,1172(a5)
    1f98:	4a878703          	lb	a4,1192(a5)
    1f9c:	0ff77713          	andi	a4,a4,255
    1fa0:	00e76713          	ori	a4,a4,14
    1fa4:	4ae78423          	sb	a4,1192(a5)
    1fa8:	4bc78703          	lb	a4,1212(a5)
    1fac:	0ff77713          	andi	a4,a4,255
    1fb0:	00e76713          	ori	a4,a4,14
    1fb4:	4ae78e23          	sb	a4,1212(a5)
    1fb8:	4d078703          	lb	a4,1232(a5)
    1fbc:	0ff77713          	andi	a4,a4,255
    1fc0:	00e76713          	ori	a4,a4,14
    1fc4:	4ce78823          	sb	a4,1232(a5)
    1fc8:	83a68783          	lb	a5,-1990(a3) # 8010083a <_DATA_LMA_START+0x600f545a>
    1fcc:	82068d23          	sb	zero,-1990(a3)
    1fd0:	805fe0ef          	jal	ra,7d4 <analog_read_reg8>
    1fd4:	00a00433          	add	s0,zero,a0
    1fd8:	03900513          	li	a0,57
    1fdc:	ff8fe0ef          	jal	ra,7d4 <analog_read_reg8>
    1fe0:	84aa                	c.mv	s1,a0
    1fe2:	1804735b          	bbc	s0,0,2168 <main+0x2d0>
    1fe6:	0fe47593          	andi	a1,s0,254
    1fea:	2d46940b          	addigp	s0,45780 # 8bad4 <g_pm_status_info>
    1fee:	03800513          	li	a0,56
    1ff2:	1404fb5b          	bbc	s1,0,2148 <main+0x2b0>
    1ff6:	4791                	c.li	a5,4
    1ff8:	00f40123          	sb	a5,2(s0)
    1ffc:	f94fe0ef          	jal	ra,790 <analog_write_reg8>
    2000:	00100593          	li	a1,1
    2004:	07f00513          	li	a0,127
    2008:	f88fe0ef          	jal	ra,790 <analog_write_reg8>
    200c:	06400513          	li	a0,100
    2010:	fc4fe0ef          	jal	ra,7d4 <analog_read_reg8>
    2014:	0c3527db          	bfoz	a5,a0,3,3
    2018:	00a400a3          	sb	a0,1(s0)
    201c:	00f40023          	sb	a5,0(s0)
    2020:	08800513          	li	a0,136
    2024:	fb0fe0ef          	jal	ra,7d4 <analog_read_reg8>
    2028:	be757c5b          	bbc	a0,7,2020 <main+0x188>
    202c:	935fe0ef          	jal	ra,960 <pm_wait_bbpll_done>
    2030:	00244783          	lbu	a5,2(s0)
    2034:	0a87de5b          	beqc	a5,8,20f0 <main+0x258>
    2038:	80140737          	lui	a4,0x80140
    203c:	20a70783          	lb	a5,522(a4) # 8014020a <_DATA_LMA_START+0x60134e2a>
    2040:	0ff7f793          	andi	a5,a5,255
    2044:	00c7e793          	ori	a5,a5,12
    2048:	20f70523          	sb	a5,522(a4)
    204c:	00100793          	li	a5,1
    2050:	20f72023          	sw	a5,512(a4)
    2054:	801404b7          	lui	s1,0x80140
    2058:	1fd48783          	lb	a5,509(s1) # 801401fd <_DATA_LMA_START+0x60134e1d>
    205c:	0ff7f793          	andi	a5,a5,255
    2060:	2cf6c82b          	swgp	a5,45776 # 8bad0 <g_chip_version>
    2064:	00244703          	lbu	a4,2(s0)
    2068:	04475c5b          	beqc	a4,4,20c0 <main+0x228>
    206c:	0ff00693          	li	a3,255
    2070:	04d78063          	beq	a5,a3,20b0 <main+0x218>
    2074:	08000593          	li	a1,128
    2078:	07d00513          	li	a0,125
    207c:	f14fe0ef          	jal	ra,790 <analog_write_reg8>
    2080:	80140737          	lui	a4,0x80140
    2084:	06500793          	li	a5,101
    2088:	1ef70a23          	sb	a5,500(a4) # 801401f4 <_DATA_LMA_START+0x60134e14>
    208c:	1c872783          	lw	a5,456(a4)
    2090:	1e070a23          	sb	zero,500(a4)
    2094:	8bbd                	c.andi	a5,15
    2096:	0037d55b          	beqc	a5,3,20a0 <main+0x208>
    209a:	4725                	c.li	a4,9
    209c:	04f77e63          	bgeu	a4,a5,20f8 <main+0x260>
    20a0:	801407b7          	lui	a5,0x80140
    20a4:	02000713          	li	a4,32
    20a8:	1ee787a3          	sb	a4,495(a5) # 801401ef <_DATA_LMA_START+0x60134e0f>
    20ac:	0000006f          	j	20ac <main+0x214>
    20b0:	bc17625b          	bnec	a4,1,2074 <main+0x1dc>
    20b4:	07d00513          	li	a0,125
    20b8:	08000593          	li	a1,128
    20bc:	0180006f          	j	20d4 <main+0x23c>
    20c0:	03900513          	li	a0,57
    20c4:	f10fe0ef          	jal	ra,7d4 <analog_read_reg8>
    20c8:	00256593          	ori	a1,a0,2
    20cc:	0ff5f593          	andi	a1,a1,255
    20d0:	03900513          	li	a0,57
    20d4:	ebcfe0ef          	jal	ra,790 <analog_write_reg8>
    20d8:	2004a503          	lw	a0,512(s1)
    20dc:	001877b7          	lui	a5,0x187
    20e0:	a0078793          	addi	a5,a5,-1536 # 186a00 <FLASH_SIZE+0x86a00>
    20e4:	00f50533          	add	a0,a0,a5
    20e8:	b0cff0ef          	jal	ra,13f4 <pm_sleep_wakeup.constprop.2>
    20ec:	f89ff06f          	j	2074 <main+0x1dc>
    20f0:	a8cfe0ef          	jal	ra,37c <pm_stimer_recover>
    20f4:	f61ff06f          	j	2054 <main+0x1bc>
    20f8:	00f00513          	li	a0,15
    20fc:	ed8fe0ef          	jal	ra,7d4 <analog_read_reg8>
    2100:	03f57593          	andi	a1,a0,63
    2104:	0405e593          	ori	a1,a1,64
    2108:	00f00513          	li	a0,15
    210c:	e84fe0ef          	jal	ra,790 <analog_write_reg8>
    2110:	0960                	c.addi4spn	s0,sp,156
    2112:	85a2                	c.mv	a1,s0
    2114:	07010513          	addi	a0,sp,112
    2118:	93cff0ef          	jal	ra,1254 <flash_read_mid_uid_with_check>
    211c:	0ff57513          	andi	a0,a0,255
    2120:	0015545b          	beqc	a0,1,2128 <main+0x290>
    2124:	6850006f          	j	2fa8 <main+0x1110>
    2128:	07210783          	lb	a5,114(sp)
    212c:	4719                	c.li	a4,6
    212e:	17c1                	c.addi	a5,-16
    2130:	0ff7f793          	andi	a5,a5,255
    2134:	00f77463          	bgeu	a4,a5,213c <main+0x2a4>
    2138:	6710006f          	j	2fa8 <main+0x1110>
    213c:	811f970b          	addigp	a4,-2032 # 80010 <_DATA_VMA_START+0x10>
    2140:	0cf707db          	lea.w	a5,a4,a5
    2144:	439c                	c.lw	a5,0(a5)
    2146:	8782                	c.jr	a5
    2148:	00100793          	li	a5,1
    214c:	00f40123          	sb	a5,2(s0)
    2150:	e40fe0ef          	jal	ra,790 <analog_write_reg8>
    2154:	0014e593          	ori	a1,s1,1
    2158:	0ff5f593          	andi	a1,a1,255
    215c:	03900513          	li	a0,57
    2160:	e30fe0ef          	jal	ra,790 <analog_write_reg8>
    2164:	e9dff06f          	j	2000 <main+0x168>
    2168:	07f00513          	li	a0,127
    216c:	e68fe0ef          	jal	ra,7d4 <analog_read_reg8>
    2170:	2d46940b          	addigp	s0,45780 # 8bad4 <g_pm_status_info>
    2174:	4005745b          	bbs	a0,0,217c <main+0x2e4>
    2178:	5ad0006f          	j	2f24 <main+0x108c>
    217c:	0014f45b          	bbc	s1,1,2184 <main+0x2ec>
    2180:	58d0006f          	j	2f0c <main+0x1074>
    2184:	47c1                	c.li	a5,16
    2186:	00f40123          	sb	a5,2(s0)
    218a:	bd9d                	c.j	2000 <main+0x168>
    218c:	003fe537          	lui	a0,0x3fe
    2190:	0c050513          	addi	a0,a0,192 # 3fe0c0 <FLASH_SIZE+0x2fe0c0>
    2194:	a78ff0ef          	jal	ra,140c <user_calib_adc_vref.constprop.9>
    2198:	003fe537          	lui	a0,0x3fe
    219c:	bd0ff0ef          	jal	ra,156c <user_calib_freq_offset.constprop.8>
    21a0:	801404b7          	lui	s1,0x80140
    21a4:	a38ff0ef          	jal	ra,13dc <clock_init.constprop.10>
    21a8:	30e48783          	lb	a5,782(s1) # 8014030e <_DATA_LMA_START+0x60134f2e>
    21ac:	11000513          	li	a0,272
    21b0:	0ff7f793          	andi	a5,a5,255
    21b4:	0107e793          	ori	a5,a5,16
    21b8:	30f48723          	sb	a5,782(s1)
    21bc:	30a48783          	lb	a5,778(s1)
    21c0:	0ef7f793          	andi	a5,a5,239
    21c4:	30f48523          	sb	a5,778(s1)
    21c8:	bfcff0ef          	jal	ra,15c4 <gpio_input_dis>
    21cc:	30e48783          	lb	a5,782(s1)
    21d0:	12000513          	li	a0,288
    21d4:	0ff7f793          	andi	a5,a5,255
    21d8:	0207e793          	ori	a5,a5,32
    21dc:	30f48723          	sb	a5,782(s1)
    21e0:	30a48783          	lb	a5,778(s1)
    21e4:	0df7f793          	andi	a5,a5,223
    21e8:	30f48523          	sb	a5,778(s1)
    21ec:	bd8ff0ef          	jal	ra,15c4 <gpio_input_dis>
    21f0:	30e48783          	lb	a5,782(s1)
    21f4:	14000513          	li	a0,320
    21f8:	0ff7f793          	andi	a5,a5,255
    21fc:	0407e793          	ori	a5,a5,64
    2200:	30f48723          	sb	a5,782(s1)
    2204:	30a48783          	lb	a5,778(s1)
    2208:	0bf7f793          	andi	a5,a5,191
    220c:	30f48523          	sb	a5,778(s1)
    2210:	bb4ff0ef          	jal	ra,15c4 <gpio_input_dis>
    2214:	30e48783          	lb	a5,782(s1)
    2218:	18000513          	li	a0,384
    221c:	f807e793          	ori	a5,a5,-128
    2220:	0ff7f793          	andi	a5,a5,255
    2224:	30f48723          	sb	a5,782(s1)
    2228:	30a48783          	lb	a5,778(s1)
    222c:	07f7f793          	andi	a5,a5,127
    2230:	30f48523          	sb	a5,778(s1)
    2234:	b90ff0ef          	jal	ra,15c4 <gpio_input_dis>
    2238:	0008b537          	lui	a0,0x8b
    223c:	3f850513          	addi	a0,a0,1016 # 8b3f8 <int16xint8xint32_1_weights+0x1ef0>
    2240:	2cf070ef          	jal	ra,9d0e <puts>
    2244:	65a9                	c.lui	a1,0xa
    2246:	0008b537          	lui	a0,0x8b
    224a:	0585                	c.addi	a1,1
    224c:	3fc50513          	addi	a0,a0,1020 # 8b3fc <int16xint8xint32_1_weights+0x1ef4>
    2250:	2a1070ef          	jal	ra,9cf0 <printf>
    2254:	0008b537          	lui	a0,0x8b
    2258:	7e400593          	li	a1,2020
    225c:	41450513          	addi	a0,a0,1044 # 8b414 <int16xint8xint32_1_weights+0x1f0c>
    2260:	291070ef          	jal	ra,9cf0 <printf>
    2264:	0008b5b7          	lui	a1,0x8b
    2268:	0008b537          	lui	a0,0x8b
    226c:	42c58593          	addi	a1,a1,1068 # 8b42c <int16xint8xint32_1_weights+0x1f24>
    2270:	43850513          	addi	a0,a0,1080 # 8b438 <int16xint8xint32_1_weights+0x1f30>
    2274:	27d070ef          	jal	ra,9cf0 <printf>
    2278:	f89fd0ef          	jal	ra,200 <delay_ms.constprop.12>
    227c:	300027f3          	csrr	a5,mstatus
    2280:	0037f65b          	bbc	a5,3,228c <main+0x3f4>
    2284:	300477f3          	csrrci	a5,mstatus,8
    2288:	0ff0000f          	fence
    228c:	24e6a50b          	lbugp	a0,45646 # 8ba4e <sys_clk+0x2>
    2290:	495080ef          	jal	ra,af24 <__floatsidf>
    2294:	000807b7          	lui	a5,0x80
    2298:	00878793          	addi	a5,a5,8 # 80008 <_DATA_VMA_START+0x8>
    229c:	4390                	c.lw	a2,0(a5)
    229e:	43d4                	c.lw	a3,4(a5)
    22a0:	0008b9b7          	lui	s3,0x8b
    22a4:	59c080ef          	jal	ra,a840 <__muldf3>
    22a8:	2b869a0b          	addigp	s4,45752 # 8bab8 <_DATA_VMA_END>
    22ac:	3e1080ef          	jal	ra,ae8c <__fixunsdfsi>
    22b0:	00aa2023          	sw	a0,0(s4)
    22b4:	5f098513          	addi	a0,s3,1520 # 8b5f0 <int16xint8xint32_1_weights+0x20e8>
    22b8:	239070ef          	jal	ra,9cf0 <printf>
    22bc:	0008b537          	lui	a0,0x8b
    22c0:	46050513          	addi	a0,a0,1120 # 8b460 <int16xint8xint32_1_weights+0x1f58>
    22c4:	22d070ef          	jal	ra,9cf0 <printf>
    22c8:	5f098513          	addi	a0,s3,1520
    22cc:	225070ef          	jal	ra,9cf0 <printf>
    22d0:	000a2583          	lw	a1,0(s4)
    22d4:	0008b537          	lui	a0,0x8b
    22d8:	49c50513          	addi	a0,a0,1180 # 8b49c <int16xint8xint32_1_weights+0x1f94>
    22dc:	215070ef          	jal	ra,9cf0 <printf>
    22e0:	5f098513          	addi	a0,s3,1520
    22e4:	20d070ef          	jal	ra,9cf0 <printf>
    22e8:	0008b537          	lui	a0,0x8b
    22ec:	4bc50513          	addi	a0,a0,1212 # 8b4bc <int16xint8xint32_1_weights+0x1fb4>
    22f0:	201070ef          	jal	ra,9cf0 <printf>
    22f4:	4785                	c.li	a5,1
    22f6:	d83e                	c.swsp	a5,48(sp)
    22f8:	de3e                	c.swsp	a5,60(sp)
    22fa:	c6be                	c.swsp	a5,76(sp)
    22fc:	d6be                	c.swsp	a5,108(sp)
    22fe:	d33e                	c.swsp	a5,164(sp)
    2300:	d53e                	c.swsp	a5,168(sp)
    2302:	db3e                	c.swsp	a5,180(sp)
    2304:	dd3e                	c.swsp	a5,184(sp)
    2306:	08000793          	li	a5,128
    230a:	cf3e                	c.swsp	a5,156(sp)
    230c:	f8000793          	li	a5,-128
    2310:	df3e                	c.swsp	a5,188(sp)
    2312:	25c6978b          	addigp	a5,45660 # 8ba5c <basic_output_mult>
    2316:	d43e                	c.swsp	a5,40(sp)
    2318:	06010913          	addi	s2,sp,96
    231c:	1804                	c.addi4spn	s1,sp,48
    231e:	4321                	c.li	t1,8
    2320:	4815                	c.li	a6,5
    2322:	4891                	c.li	a7,4
    2324:	07f00713          	li	a4,127
    2328:	2606978b          	addigp	a5,45664 # 8ba60 <basic_output_shift>
    232c:	86ca                	c.mv	a3,s2
    232e:	0090                	c.addi4spn	a2,sp,64
    2330:	85a6                	c.mv	a1,s1
    2332:	da1a                	c.swsp	t1,52(sp)
    2334:	8522                	c.mv	a0,s0
    2336:	4309                	c.li	t1,2
    2338:	dc42                	c.swsp	a6,56(sp)
    233a:	c49a                	c.swsp	t1,72(sp)
    233c:	c2c6                	c.swsp	a7,68(sp)
    233e:	d4c6                	c.swsp	a7,104(sp)
    2340:	d2c2                	c.swsp	a6,100(sp)
    2342:	d13a                	c.swsp	a4,160(sp)
    2344:	c1ba                	c.swsp	a4,192(sp)
    2346:	d63e                	c.swsp	a5,44(sp)
    2348:	d882                	c.swsp	zero,112(sp)
    234a:	da82                	c.swsp	zero,116(sp)
    234c:	dc82                	c.swsp	zero,120(sp)
    234e:	de82                	c.swsp	zero,124(sp)
    2350:	c102                	c.swsp	zero,128(sp)
    2352:	d702                	c.swsp	zero,172(sp)
    2354:	0a012823          	sw	zero,176(sp)
    2358:	268020ef          	jal	ra,45c0 <riscv_convolve_wrapper_s8_get_buffer_size>
    235c:	00a00cb3          	add	s9,zero,a0
    2360:	031070ef          	jal	ra,9b90 <malloc>
    2364:	d202                	c.swsp	zero,36(sp)
    2366:	d02a                	c.swsp	a0,32(sp)
    2368:	a78ff0ef          	jal	ra,15e0 <reset_counters>
    236c:	9d8ff0ef          	jal	ra,1544 <fill_stack_pattern_to_sp>
    2370:	b0002b73          	csrr	s6,mcycle
    2374:	b0202af3          	csrr	s5,minstret
    2378:	07010e13          	addi	t3,sp,112
    237c:	2586930b          	addigp	t1,45656 # 8ba58 <basic_biases>
    2380:	05010893          	addi	a7,sp,80
    2384:	2646980b          	addigp	a6,45668 # 8ba64 <basic_weights>
    2388:	009c                	c.addi4spn	a5,sp,64
    238a:	83df970b          	addigp	a4,-1988 # 8003c <basic_input>
    238e:	86a6                	c.mv	a3,s1
    2390:	1030                	c.addi4spn	a2,sp,40
    2392:	85a2                	c.mv	a1,s0
    2394:	1008                	c.addi4spn	a0,sp,32
    2396:	c472                	c.swsp	t3,8(sp)
    2398:	c24a                	c.swsp	s2,4(sp)
    239a:	c01a                	c.swsp	t1,0(sp)
    239c:	429000ef          	jal	ra,2fc4 <riscv_convolve_wrapper_s8>
    23a0:	b00027f3          	csrr	a5,mcycle
    23a4:	b0202bf3          	csrr	s7,minstret
    23a8:	41678b33          	sub	s6,a5,s6
    23ac:	95cff0ef          	jal	ra,1508 <measure_stack_usage>
    23b0:	000a2783          	lw	a5,0(s4)
    23b4:	d01b7453          	fcvt.s.wu	fs0,s6
    23b8:	415b8bb3          	sub	s7,s7,s5
    23bc:	00080ab7          	lui	s5,0x80
    23c0:	d017f753          	fcvt.s.wu	fa4,a5
    23c4:	000aa787          	flw	fa5,0(s5) # 80000 <_DATA_VMA_START>
    23c8:	8c2a                	c.mv	s8,a0
    23ca:	5502                	c.lwsp	a0,32(sp)
    23cc:	18e47453          	fdiv.s	fs0,fs0,fa4
    23d0:	10f47453          	fmul.s	fs0,fs0,fa5
    23d4:	c911                	c.beqz	a0,23e8 <main+0x550>
    23d6:	8666                	c.mv	a2,s9
    23d8:	00000593          	li	a1,0
    23dc:	70a070ef          	jal	ra,9ae6 <memset>
    23e0:	02012503          	lw	a0,32(sp)
    23e4:	7bc070ef          	jal	ra,9ba0 <free>
    23e8:	5f098513          	addi	a0,s3,1520
    23ec:	105070ef          	jal	ra,9cf0 <printf>
    23f0:	4651                	c.li	a2,20
    23f2:	865f958b          	addigp	a1,-1948 # 80064 <basic_output_ref>
    23f6:	1888                	c.addi4spn	a0,sp,112
    23f8:	9f4ff0ef          	jal	ra,15ec <validate.lto_priv.13>
    23fc:	2a051ce3          	bnez	a0,2eb4 <main+0x101c>
    2400:	0008b537          	lui	a0,0x8b
    2404:	51850513          	addi	a0,a0,1304 # 8b518 <int16xint8xint32_1_weights+0x2010>
    2408:	0e9070ef          	jal	ra,9cf0 <printf>
    240c:	04800613          	li	a2,72
    2410:	4581                	c.li	a1,0
    2412:	8522                	c.mv	a0,s0
    2414:	6d2070ef          	jal	ra,9ae6 <memset>
    2418:	4789                	c.li	a5,2
    241a:	de3e                	c.swsp	a5,60(sp)
    241c:	c6be                	c.swsp	a5,76(sp)
    241e:	d6be                	c.swsp	a5,108(sp)
    2420:	c53e                	c.swsp	a5,136(sp)
    2422:	c73e                	c.swsp	a5,140(sp)
    2424:	08000793          	li	a5,128
    2428:	d8be                	c.swsp	a5,112(sp)
    242a:	f8000793          	li	a5,-128
    242e:	dabe                	c.swsp	a5,116(sp)
    2430:	fc300793          	li	a5,-61
    2434:	c93e                	c.swsp	a5,144(sp)
    2436:	06b00793          	li	a5,107
    243a:	cb3e                	c.swsp	a5,148(sp)
    243c:	2746978b          	addigp	a5,45684 # 8ba74 <conv_2x2_dilation_output_mult>
    2440:	d43e                	c.swsp	a5,40(sp)
    2442:	4705                	c.li	a4,1
    2444:	4329                	c.li	t1,10
    2446:	488d                	c.li	a7,3
    2448:	4819                	c.li	a6,6
    244a:	27c6978b          	addigp	a5,45692 # 8ba7c <conv_2x2_dilation_output_shift>
    244e:	86ca                	c.mv	a3,s2
    2450:	0090                	c.addi4spn	a2,sp,64
    2452:	85a6                	c.mv	a1,s1
    2454:	1888                	c.addi4spn	a0,sp,112
    2456:	d83a                	c.swsp	a4,48(sp)
    2458:	dc1a                	c.swsp	t1,56(sp)
    245a:	da1a                	c.swsp	t1,52(sp)
    245c:	c4c6                	c.swsp	a7,72(sp)
    245e:	c2c6                	c.swsp	a7,68(sp)
    2460:	d4c2                	c.swsp	a6,104(sp)
    2462:	d2c2                	c.swsp	a6,100(sp)
    2464:	dcba                	c.swsp	a4,120(sp)
    2466:	deba                	c.swsp	a4,124(sp)
    2468:	d63e                	c.swsp	a5,44(sp)
    246a:	c102                	c.swsp	zero,128(sp)
    246c:	08012223          	sw	zero,132(sp)
    2470:	150020ef          	jal	ra,45c0 <riscv_convolve_wrapper_s8_get_buffer_size>
    2474:	00a00cb3          	add	s9,zero,a0
    2478:	718070ef          	jal	ra,9b90 <malloc>
    247c:	d202                	c.swsp	zero,36(sp)
    247e:	d02a                	c.swsp	a0,32(sp)
    2480:	960ff0ef          	jal	ra,15e0 <reset_counters>
    2484:	8c0ff0ef          	jal	ra,1544 <fill_stack_pattern_to_sp>
    2488:	b0002b73          	csrr	s6,mcycle
    248c:	b0202bf3          	csrr	s7,minstret
    2490:	26c6930b          	addigp	t1,45676 # 8ba6c <conv_2x2_dilation_biases>
    2494:	05010893          	addi	a7,sp,80
    2498:	989f980b          	addigp	a6,-1656 # 80188 <conv_2x2_dilation_weights>
    249c:	009c                	c.addi4spn	a5,sp,64
    249e:	879f970b          	addigp	a4,-1928 # 80078 <conv_2x2_dilation_input>
    24a2:	86a6                	c.mv	a3,s1
    24a4:	1030                	c.addi4spn	a2,sp,40
    24a6:	188c                	c.addi4spn	a1,sp,112
    24a8:	1008                	c.addi4spn	a0,sp,32
    24aa:	c422                	c.swsp	s0,8(sp)
    24ac:	c24a                	c.swsp	s2,4(sp)
    24ae:	c01a                	c.swsp	t1,0(sp)
    24b0:	315000ef          	jal	ra,2fc4 <riscv_convolve_wrapper_s8>
    24b4:	b0002773          	csrr	a4,mcycle
    24b8:	b02027f3          	csrr	a5,minstret
    24bc:	41670b33          	sub	s6,a4,s6
    24c0:	41778bb3          	sub	s7,a5,s7
    24c4:	844ff0ef          	jal	ra,1508 <measure_stack_usage>
    24c8:	000a2783          	lw	a5,0(s4)
    24cc:	d01b7453          	fcvt.s.wu	fs0,s6
    24d0:	000aa787          	flw	fa5,0(s5)
    24d4:	8c2a                	c.mv	s8,a0
    24d6:	d017f753          	fcvt.s.wu	fa4,a5
    24da:	5502                	c.lwsp	a0,32(sp)
    24dc:	18e47453          	fdiv.s	fs0,fs0,fa4
    24e0:	10f47453          	fmul.s	fs0,fs0,fa5
    24e4:	c911                	c.beqz	a0,24f8 <main+0x660>
    24e6:	8666                	c.mv	a2,s9
    24e8:	00000593          	li	a1,0
    24ec:	5fa070ef          	jal	ra,9ae6 <memset>
    24f0:	02012503          	lw	a0,32(sp)
    24f4:	6ac070ef          	jal	ra,9ba0 <free>
    24f8:	5f098513          	addi	a0,s3,1520
    24fc:	7f4070ef          	jal	ra,9cf0 <printf>
    2500:	04800613          	li	a2,72
    2504:	941f958b          	addigp	a1,-1728 # 80140 <conv_2x2_dilation_output_ref>
    2508:	00800533          	add	a0,zero,s0
    250c:	8e0ff0ef          	jal	ra,15ec <validate.lto_priv.13>
    2510:	140516e3          	bnez	a0,2e5c <main+0xfc4>
    2514:	0008b537          	lui	a0,0x8b
    2518:	58c50513          	addi	a0,a0,1420 # 8b58c <int16xint8xint32_1_weights+0x2084>
    251c:	7d4070ef          	jal	ra,9cf0 <printf>
    2520:	d44ff0ef          	jal	ra,1a64 <conv_3x3_dilation_5x5_input_riscv_convolve_s8>
    2524:	5f098513          	addi	a0,s3,1520
    2528:	7c8070ef          	jal	ra,9cf0 <printf>
    252c:	0008b537          	lui	a0,0x8b
    2530:	5cc50513          	addi	a0,a0,1484 # 8b5cc <int16xint8xint32_1_weights+0x20c4>
    2534:	7bc070ef          	jal	ra,9cf0 <printf>
    2538:	05000613          	li	a2,80
    253c:	4581                	c.li	a1,0
    253e:	8522                	c.mv	a0,s0
    2540:	5a6070ef          	jal	ra,9ae6 <memset>
    2544:	4785                	c.li	a5,1
    2546:	d83e                	c.swsp	a5,48(sp)
    2548:	dcbe                	c.swsp	a5,120(sp)
    254a:	debe                	c.swsp	a5,124(sp)
    254c:	c53e                	c.swsp	a5,136(sp)
    254e:	c73e                	c.swsp	a5,140(sp)
    2550:	1910170b          	addigp	a4,2448 # 81190 <int16xint8_bias>
    2554:	77e1                	c.lui	a5,0xffff8
    2556:	d43a                	c.swsp	a4,40(sp)
    2558:	c93e                	c.swsp	a5,144(sp)
    255a:	4729                	c.li	a4,10
    255c:	67a1                	c.lui	a5,0x8
    255e:	dc3a                	c.swsp	a4,56(sp)
    2560:	17fd                	c.addi	a5,-1
    2562:	4721                	c.li	a4,8
    2564:	da3a                	c.swsp	a4,52(sp)
    2566:	cb3e                	c.swsp	a5,148(sp)
    2568:	03700713          	li	a4,55
    256c:	de3a                	c.swsp	a4,60(sp)
    256e:	3298178b          	addigp	a5,19240 # 85328 <int16xint8_output_multiplier>
    2572:	4725                	c.li	a4,9
    2574:	c4ba                	c.swsp	a4,72(sp)
    2576:	d03e                	c.swsp	a5,32(sp)
    2578:	4709                	c.li	a4,2
    257a:	4811                	c.li	a6,4
    257c:	3398178b          	addigp	a5,19256 # 85338 <int16xint8_output_shift>
    2580:	86ca                	c.mv	a3,s2
    2582:	0090                	c.addi4spn	a2,sp,64
    2584:	85a6                	c.mv	a1,s1
    2586:	d4ba                	c.swsp	a4,104(sp)
    2588:	1888                	c.addi4spn	a0,sp,112
    258a:	4715                	c.li	a4,5
    258c:	c2c2                	c.swsp	a6,68(sp)
    258e:	d2ba                	c.swsp	a4,100(sp)
    2590:	d6c2                	c.swsp	a6,108(sp)
    2592:	d23e                	c.swsp	a5,36(sp)
    2594:	02010623          	sb	zero,44(sp)
    2598:	c102                	c.swsp	zero,128(sp)
    259a:	c302                	c.swsp	zero,132(sp)
    259c:	d882                	c.swsp	zero,112(sp)
    259e:	da82                	c.swsp	zero,116(sp)
    25a0:	080010ef          	jal	ra,3620 <riscv_convolve_wrapper_s16_get_buffer_size>
    25a4:	00a00d33          	add	s10,zero,a0
    25a8:	5e8070ef          	jal	ra,9b90 <malloc>
    25ac:	00a12c23          	sw	a0,24(sp)
    25b0:	830ff0ef          	jal	ra,15e0 <reset_counters>
    25b4:	f91fe0ef          	jal	ra,1544 <fill_stack_pattern_to_sp>
    25b8:	b0002b73          	csrr	s6,mcycle
    25bc:	b0202bf3          	csrr	s7,minstret
    25c0:	02810e93          	addi	t4,sp,40
    25c4:	05010893          	addi	a7,sp,80
    25c8:	3498180b          	addigp	a6,19272 # 85348 <int16xint8_weights>
    25cc:	009c                	c.addi4spn	a5,sp,64
    25ce:	0794170b          	addigp	a4,10360 # 83078 <int16xint8_input>
    25d2:	86a6                	c.mv	a3,s1
    25d4:	1010                	c.addi4spn	a2,sp,32
    25d6:	188c                	c.addi4spn	a1,sp,112
    25d8:	0828                	c.addi4spn	a0,sp,24
    25da:	c422                	c.swsp	s0,8(sp)
    25dc:	c24a                	c.swsp	s2,4(sp)
    25de:	c076                	c.swsp	t4,0(sp)
    25e0:	1e1000ef          	jal	ra,2fc0 <riscv_convolve_wrapper_s16>
    25e4:	00a00cb3          	add	s9,zero,a0
    25e8:	b0002773          	csrr	a4,mcycle
    25ec:	b02027f3          	csrr	a5,minstret
    25f0:	41670b33          	sub	s6,a4,s6
    25f4:	41778bb3          	sub	s7,a5,s7
    25f8:	f11fe0ef          	jal	ra,1508 <measure_stack_usage>
    25fc:	000a2783          	lw	a5,0(s4)
    2600:	d01b7453          	fcvt.s.wu	fs0,s6
    2604:	000aa787          	flw	fa5,0(s5)
    2608:	8c2a                	c.mv	s8,a0
    260a:	d017f753          	fcvt.s.wu	fa4,a5
    260e:	4562                	c.lwsp	a0,24(sp)
    2610:	18e47453          	fdiv.s	fs0,fs0,fa4
    2614:	10f47453          	fmul.s	fs0,fs0,fa5
    2618:	c911                	c.beqz	a0,262c <main+0x794>
    261a:	866a                	c.mv	a2,s10
    261c:	00000593          	li	a1,0
    2620:	4c6070ef          	jal	ra,9ae6 <memset>
    2624:	01812503          	lw	a0,24(sp)
    2628:	578070ef          	jal	ra,9ba0 <free>
    262c:	5f098513          	addi	a0,s3,1520
    2630:	6c0070ef          	jal	ra,9cf0 <printf>
    2634:	000c9c63          	bnez	s9,264c <main+0x7b4>
    2638:	02800613          	li	a2,40
    263c:	2d98158b          	addigp	a1,19160 # 852d8 <int16xint8_output>
    2640:	00800533          	add	a0,zero,s0
    2644:	820ff0ef          	jal	ra,1664 <validate_s16.lto_priv.15>
    2648:	7a051e63          	bnez	a0,2e04 <main+0xf6c>
    264c:	0008b537          	lui	a0,0x8b
    2650:	62850513          	addi	a0,a0,1576 # 8b628 <int16xint8xint32_1_weights+0x2120>
    2654:	69c070ef          	jal	ra,9cf0 <printf>
    2658:	dc8ff0ef          	jal	ra,1c20 <int16xint8_dilation_1_riscv_convolve_s16>
    265c:	05000613          	li	a2,80
    2660:	4581                	c.li	a1,0
    2662:	8522                	c.mv	a0,s0
    2664:	482070ef          	jal	ra,9ae6 <memset>
    2668:	4785                	c.li	a5,1
    266a:	d83e                	c.swsp	a5,48(sp)
    266c:	dcbe                	c.swsp	a5,120(sp)
    266e:	debe                	c.swsp	a5,124(sp)
    2670:	c53e                	c.swsp	a5,136(sp)
    2672:	c73e                	c.swsp	a5,140(sp)
    2674:	4805                	c.li	a6,1
    2676:	77e1                	c.lui	a5,0xffff8
    2678:	03010623          	sb	a6,44(sp)
    267c:	c93e                	c.swsp	a5,144(sp)
    267e:	4829                	c.li	a6,10
    2680:	67a1                	c.lui	a5,0x8
    2682:	dc42                	c.swsp	a6,56(sp)
    2684:	17fd                	c.addi	a5,-1
    2686:	4821                	c.li	a6,8
    2688:	da42                	c.swsp	a6,52(sp)
    268a:	cb3e                	c.swsp	a5,148(sp)
    268c:	03700813          	li	a6,55
    2690:	de42                	c.swsp	a6,60(sp)
    2692:	4e90978b          	addigp	a5,36072 # 894e8 <int16xint8xint32_1_output_multiplier>
    2696:	4825                	c.li	a6,9
    2698:	c4c2                	c.swsp	a6,72(sp)
    269a:	d03e                	c.swsp	a5,32(sp)
    269c:	4809                	c.li	a6,2
    269e:	4711                	c.li	a4,4
    26a0:	4f90978b          	addigp	a5,36088 # 894f8 <int16xint8xint32_1_output_shift>
    26a4:	86ca                	c.mv	a3,s2
    26a6:	0090                	c.addi4spn	a2,sp,64
    26a8:	85a6                	c.mv	a1,s1
    26aa:	d4c2                	c.swsp	a6,104(sp)
    26ac:	1888                	c.addi4spn	a0,sp,112
    26ae:	4815                	c.li	a6,5
    26b0:	c2ba                	c.swsp	a4,68(sp)
    26b2:	d2c2                	c.swsp	a6,100(sp)
    26b4:	d6ba                	c.swsp	a4,108(sp)
    26b6:	d23e                	c.swsp	a5,36(sp)
    26b8:	d402                	c.swsp	zero,40(sp)
    26ba:	c102                	c.swsp	zero,128(sp)
    26bc:	c302                	c.swsp	zero,132(sp)
    26be:	d882                	c.swsp	zero,112(sp)
    26c0:	06012a23          	sw	zero,116(sp)
    26c4:	75d000ef          	jal	ra,3620 <riscv_convolve_wrapper_s16_get_buffer_size>
    26c8:	00a00cb3          	add	s9,zero,a0
    26cc:	4c4070ef          	jal	ra,9b90 <malloc>
    26d0:	00a12c23          	sw	a0,24(sp)
    26d4:	f0dfe0ef          	jal	ra,15e0 <reset_counters>
    26d8:	e6dfe0ef          	jal	ra,1544 <fill_stack_pattern_to_sp>
    26dc:	b0002b73          	csrr	s6,mcycle
    26e0:	b0202bf3          	csrr	s7,minstret
    26e4:	02810f13          	addi	t5,sp,40
    26e8:	05010893          	addi	a7,sp,80
    26ec:	5090980b          	addigp	a6,36104 # 89508 <int16xint8xint32_1_weights>
    26f0:	009c                	c.addi4spn	a5,sp,64
    26f2:	239c170b          	addigp	a4,27192 # 87238 <int16xint8xint32_1_input>
    26f6:	86a6                	c.mv	a3,s1
    26f8:	1010                	c.addi4spn	a2,sp,32
    26fa:	188c                	c.addi4spn	a1,sp,112
    26fc:	0828                	c.addi4spn	a0,sp,24
    26fe:	c422                	c.swsp	s0,8(sp)
    2700:	c24a                	c.swsp	s2,4(sp)
    2702:	c07a                	c.swsp	t5,0(sp)
    2704:	0bd000ef          	jal	ra,2fc0 <riscv_convolve_wrapper_s16>
    2708:	b0002773          	csrr	a4,mcycle
    270c:	b02027f3          	csrr	a5,minstret
    2710:	41670b33          	sub	s6,a4,s6
    2714:	41778bb3          	sub	s7,a5,s7
    2718:	df1fe0ef          	jal	ra,1508 <measure_stack_usage>
    271c:	000a2783          	lw	a5,0(s4)
    2720:	d01b7453          	fcvt.s.wu	fs0,s6
    2724:	000aa787          	flw	fa5,0(s5)
    2728:	8c2a                	c.mv	s8,a0
    272a:	d017f753          	fcvt.s.wu	fa4,a5
    272e:	4562                	c.lwsp	a0,24(sp)
    2730:	18e47453          	fdiv.s	fs0,fs0,fa4
    2734:	10f47453          	fmul.s	fs0,fs0,fa5
    2738:	c911                	c.beqz	a0,274c <main+0x8b4>
    273a:	8666                	c.mv	a2,s9
    273c:	00000593          	li	a1,0
    2740:	3a6070ef          	jal	ra,9ae6 <memset>
    2744:	01812503          	lw	a0,24(sp)
    2748:	458070ef          	jal	ra,9ba0 <free>
    274c:	5f098513          	addi	a0,s3,1520
    2750:	5a0070ef          	jal	ra,9cf0 <printf>
    2754:	02800613          	li	a2,40
    2758:	4990958b          	addigp	a1,35992 # 89498 <int16xint8xint32_1_output>
    275c:	00800533          	add	a0,zero,s0
    2760:	f05fe0ef          	jal	ra,1664 <validate_s16.lto_priv.15>
    2764:	64051463          	bnez	a0,2dac <main+0xf14>
    2768:	0008b537          	lui	a0,0x8b
    276c:	6a850513          	addi	a0,a0,1704 # 8b6a8 <int16xint8xint32_1_weights+0x21a0>
    2770:	580070ef          	jal	ra,9cf0 <printf>
    2774:	5f098513          	addi	a0,s3,1520
    2778:	578070ef          	jal	ra,9cf0 <printf>
    277c:	0008b537          	lui	a0,0x8b
    2780:	6f450513          	addi	a0,a0,1780 # 8b6f4 <int16xint8xint32_1_weights+0x21ec>
    2784:	56c070ef          	jal	ra,9cf0 <printf>
    2788:	05100613          	li	a2,81
    278c:	4581                	c.li	a1,0
    278e:	8522                	c.mv	a0,s0
    2790:	356070ef          	jal	ra,9ae6 <memset>
    2794:	478d                	c.li	a5,3
    2796:	de3e                	c.swsp	a5,60(sp)
    2798:	c4be                	c.swsp	a5,72(sp)
    279a:	d4be                	c.swsp	a5,104(sp)
    279c:	d2be                	c.swsp	a5,100(sp)
    279e:	dcbe                	c.swsp	a5,120(sp)
    27a0:	08000793          	li	a5,128
    27a4:	d8be                	c.swsp	a5,112(sp)
    27a6:	47bd                	c.li	a5,15
    27a8:	dabe                	c.swsp	a5,116(sp)
    27aa:	fb700793          	li	a5,-73
    27ae:	cb3e                	c.swsp	a5,148(sp)
    27b0:	07f00793          	li	a5,127
    27b4:	cd3e                	c.swsp	a5,152(sp)
    27b6:	4899                	c.li	a7,6
    27b8:	dc46                	c.swsp	a7,56(sp)
    27ba:	c79f978b          	addigp	a5,-904 # 80478 <depthwise_2_output_mult>
    27be:	4895                	c.li	a7,5
    27c0:	da46                	c.swsp	a7,52(sp)
    27c2:	d43e                	c.swsp	a5,40(sp)
    27c4:	4891                	c.li	a7,4
    27c6:	4705                	c.li	a4,1
    27c8:	4809                	c.li	a6,2
    27ca:	cf1f978b          	addigp	a5,-784 # 804f0 <depthwise_2_output_shift>
    27ce:	86ca                	c.mv	a3,s2
    27d0:	0090                	c.addi4spn	a2,sp,64
    27d2:	85a6                	c.mv	a1,s1
    27d4:	c2c6                	c.swsp	a7,68(sp)
    27d6:	1888                	c.addi4spn	a0,sp,112
    27d8:	48a5                	c.li	a7,9
    27da:	d83a                	c.swsp	a4,48(sp)
    27dc:	d6c6                	c.swsp	a7,108(sp)
    27de:	c53a                	c.swsp	a4,136(sp)
    27e0:	dec2                	c.swsp	a6,124(sp)
    27e2:	c142                	c.swsp	a6,128(sp)
    27e4:	c73a                	c.swsp	a4,140(sp)
    27e6:	c93a                	c.swsp	a4,144(sp)
    27e8:	d63e                	c.swsp	a5,44(sp)
    27ea:	c882                	c.swsp	zero,80(sp)
    27ec:	ca82                	c.swsp	zero,84(sp)
    27ee:	cc82                	c.swsp	zero,88(sp)
    27f0:	ce82                	c.swsp	zero,92(sp)
    27f2:	c302                	c.swsp	zero,132(sp)
    27f4:	788020ef          	jal	ra,4f7c <riscv_depthwise_conv_wrapper_s8_get_buffer_size>
    27f8:	00a00c33          	add	s8,zero,a0
    27fc:	394070ef          	jal	ra,9b90 <malloc>
    2800:	d262                	c.swsp	s8,36(sp)
    2802:	d02a                	c.swsp	a0,32(sp)
    2804:	dddfe0ef          	jal	ra,15e0 <reset_counters>
    2808:	d3dfe0ef          	jal	ra,1544 <fill_stack_pattern_to_sp>
    280c:	b0002b73          	csrr	s6,mcycle
    2810:	b0202bf3          	csrr	s7,minstret
    2814:	bf9f930b          	addigp	t1,-1032 # 803f8 <depthwise_2_biases>
    2818:	05010893          	addi	a7,sp,80
    281c:	d15f980b          	addigp	a6,-748 # 80514 <depthwise_2_weights>
    2820:	009c                	c.addi4spn	a5,sp,64
    2822:	c1df970b          	addigp	a4,-996 # 8041c <depthwise_2_input>
    2826:	86a6                	c.mv	a3,s1
    2828:	1030                	c.addi4spn	a2,sp,40
    282a:	188c                	c.addi4spn	a1,sp,112
    282c:	1008                	c.addi4spn	a0,sp,32
    282e:	c422                	c.swsp	s0,8(sp)
    2830:	c24a                	c.swsp	s2,4(sp)
    2832:	c01a                	c.swsp	t1,0(sp)
    2834:	5a5020ef          	jal	ra,55d8 <riscv_depthwise_conv_wrapper_s8>
    2838:	b0002773          	csrr	a4,mcycle
    283c:	b02027f3          	csrr	a5,minstret
    2840:	41670b33          	sub	s6,a4,s6
    2844:	41778bb3          	sub	s7,a5,s7
    2848:	cc1fe0ef          	jal	ra,1508 <measure_stack_usage>
    284c:	000a2783          	lw	a5,0(s4)
    2850:	d01b7453          	fcvt.s.wu	fs0,s6
    2854:	000aa787          	flw	fa5,0(s5)
    2858:	8caa                	c.mv	s9,a0
    285a:	d017f753          	fcvt.s.wu	fa4,a5
    285e:	5502                	c.lwsp	a0,32(sp)
    2860:	18e47453          	fdiv.s	fs0,fs0,fa4
    2864:	10f47453          	fmul.s	fs0,fs0,fa5
    2868:	c911                	c.beqz	a0,287c <main+0x9e4>
    286a:	8662                	c.mv	a2,s8
    286c:	00000593          	li	a1,0
    2870:	276070ef          	jal	ra,9ae6 <memset>
    2874:	02012503          	lw	a0,32(sp)
    2878:	328070ef          	jal	ra,9ba0 <free>
    287c:	5f098513          	addi	a0,s3,1520
    2880:	470070ef          	jal	ra,9cf0 <printf>
    2884:	05100613          	li	a2,81
    2888:	c9df958b          	addigp	a1,-868 # 8049c <depthwise_2_output_ref>
    288c:	00800533          	add	a0,zero,s0
    2890:	d5dfe0ef          	jal	ra,15ec <validate.lto_priv.13>
    2894:	4c051063          	bnez	a0,2d54 <main+0xebc>
    2898:	0008b537          	lui	a0,0x8b
    289c:	76450513          	addi	a0,a0,1892 # 8b764 <int16xint8xint32_1_weights+0x225c>
    28a0:	450070ef          	jal	ra,9cf0 <printf>
    28a4:	02400613          	li	a2,36
    28a8:	4581                	c.li	a1,0
    28aa:	1888                	c.addi4spn	a0,sp,112
    28ac:	23a070ef          	jal	ra,9ae6 <memset>
    28b0:	4789                	c.li	a5,2
    28b2:	d83e                	c.swsp	a5,48(sp)
    28b4:	c4be                	c.swsp	a5,72(sp)
    28b6:	d4be                	c.swsp	a5,104(sp)
    28b8:	d53e                	c.swsp	a5,168(sp)
    28ba:	d73e                	c.swsp	a5,172(sp)
    28bc:	08000793          	li	a5,128
    28c0:	cf3e                	c.swsp	a5,156(sp)
    28c2:	fd700793          	li	a5,-41
    28c6:	d13e                	c.swsp	a5,160(sp)
    28c8:	f8000793          	li	a5,-128
    28cc:	c1be                	c.swsp	a5,192(sp)
    28ce:	07f00793          	li	a5,127
    28d2:	c3be                	c.swsp	a5,196(sp)
    28d4:	e5df978b          	addigp	a5,-420 # 8065c <depthwise_mult_batches_output_mult>
    28d8:	d43e                	c.swsp	a5,40(sp)
    28da:	4895                	c.li	a7,5
    28dc:	480d                	c.li	a6,3
    28de:	4705                	c.li	a4,1
    28e0:	e8df978b          	addigp	a5,-372 # 8068c <depthwise_mult_batches_output_shift>
    28e4:	86ca                	c.mv	a3,s2
    28e6:	0090                	c.addi4spn	a2,sp,64
    28e8:	85a6                	c.mv	a1,s1
    28ea:	da46                	c.swsp	a7,52(sp)
    28ec:	8522                	c.mv	a0,s0
    28ee:	4891                	c.li	a7,4
    28f0:	dc42                	c.swsp	a6,56(sp)
    28f2:	de42                	c.swsp	a6,60(sp)
    28f4:	c2c6                	c.swsp	a7,68(sp)
    28f6:	d2c2                	c.swsp	a6,100(sp)
    28f8:	d6c2                	c.swsp	a6,108(sp)
    28fa:	db3a                	c.swsp	a4,180(sp)
    28fc:	dd3a                	c.swsp	a4,184(sp)
    28fe:	df3a                	c.swsp	a4,188(sp)
    2900:	d33a                	c.swsp	a4,164(sp)
    2902:	d63e                	c.swsp	a5,44(sp)
    2904:	c882                	c.swsp	zero,80(sp)
    2906:	ca82                	c.swsp	zero,84(sp)
    2908:	cc82                	c.swsp	zero,88(sp)
    290a:	ce82                	c.swsp	zero,92(sp)
    290c:	0a012823          	sw	zero,176(sp)
    2910:	66c020ef          	jal	ra,4f7c <riscv_depthwise_conv_wrapper_s8_get_buffer_size>
    2914:	00a00c33          	add	s8,zero,a0
    2918:	278070ef          	jal	ra,9b90 <malloc>
    291c:	d262                	c.swsp	s8,36(sp)
    291e:	d02a                	c.swsp	a0,32(sp)
    2920:	cc1fe0ef          	jal	ra,15e0 <reset_counters>
    2924:	c21fe0ef          	jal	ra,1544 <fill_stack_pattern_to_sp>
    2928:	b0002b73          	csrr	s6,mcycle
    292c:	b0202bf3          	csrr	s7,minstret
    2930:	07010f93          	addi	t6,sp,112
    2934:	df5f930b          	addigp	t1,-524 # 805f4 <depthwise_mult_batches_biases>
    2938:	05010893          	addi	a7,sp,80
    293c:	e99f980b          	addigp	a6,-360 # 80698 <depthwise_mult_batches_weights>
    2940:	009c                	c.addi4spn	a5,sp,64
    2942:	e01f970b          	addigp	a4,-512 # 80600 <depthwise_mult_batches_input>
    2946:	86a6                	c.mv	a3,s1
    2948:	1030                	c.addi4spn	a2,sp,40
    294a:	85a2                	c.mv	a1,s0
    294c:	1008                	c.addi4spn	a0,sp,32
    294e:	c47e                	c.swsp	t6,8(sp)
    2950:	c24a                	c.swsp	s2,4(sp)
    2952:	c01a                	c.swsp	t1,0(sp)
    2954:	485020ef          	jal	ra,55d8 <riscv_depthwise_conv_wrapper_s8>
    2958:	b0002773          	csrr	a4,mcycle
    295c:	b02027f3          	csrr	a5,minstret
    2960:	41670b33          	sub	s6,a4,s6
    2964:	41778bb3          	sub	s7,a5,s7
    2968:	ba1fe0ef          	jal	ra,1508 <measure_stack_usage>
    296c:	000a2783          	lw	a5,0(s4)
    2970:	d01b7453          	fcvt.s.wu	fs0,s6
    2974:	000aa787          	flw	fa5,0(s5)
    2978:	8caa                	c.mv	s9,a0
    297a:	d017f753          	fcvt.s.wu	fa4,a5
    297e:	5502                	c.lwsp	a0,32(sp)
    2980:	18e47453          	fdiv.s	fs0,fs0,fa4
    2984:	10f47453          	fmul.s	fs0,fs0,fa5
    2988:	c911                	c.beqz	a0,299c <main+0xb04>
    298a:	8662                	c.mv	a2,s8
    298c:	00000593          	li	a1,0
    2990:	156070ef          	jal	ra,9ae6 <memset>
    2994:	02012503          	lw	a0,32(sp)
    2998:	208070ef          	jal	ra,9ba0 <free>
    299c:	5f098513          	addi	a0,s3,1520
    29a0:	350070ef          	jal	ra,9cf0 <printf>
    29a4:	02400613          	li	a2,36
    29a8:	e69f958b          	addigp	a1,-408 # 80668 <depthwise_mult_batches_output_ref>
    29ac:	07010513          	addi	a0,sp,112
    29b0:	c3dfe0ef          	jal	ra,15ec <validate.lto_priv.13>
    29b4:	34051463          	bnez	a0,2cfc <main+0xe64>
    29b8:	0008b537          	lui	a0,0x8b
    29bc:	7f050513          	addi	a0,a0,2032 # 8b7f0 <int16xint8xint32_1_weights+0x22e8>
    29c0:	330070ef          	jal	ra,9cf0 <printf>
    29c4:	03100613          	li	a2,49
    29c8:	4581                	c.li	a1,0
    29ca:	8522                	c.mv	a0,s0
    29cc:	11a070ef          	jal	ra,9ae6 <memset>
    29d0:	4785                	c.li	a5,1
    29d2:	d83e                	c.swsp	a5,48(sp)
    29d4:	de3e                	c.swsp	a5,60(sp)
    29d6:	d6be                	c.swsp	a5,108(sp)
    29d8:	debe                	c.swsp	a5,124(sp)
    29da:	c13e                	c.swsp	a5,128(sp)
    29dc:	dcbe                	c.swsp	a5,120(sp)
    29de:	08000793          	li	a5,128
    29e2:	d8be                	c.swsp	a5,112(sp)
    29e4:	f9500793          	li	a5,-107
    29e8:	dabe                	c.swsp	a5,116(sp)
    29ea:	fba00793          	li	a5,-70
    29ee:	cb3e                	c.swsp	a5,148(sp)
    29f0:	07f00793          	li	a5,127
    29f4:	cd3e                	c.swsp	a5,152(sp)
    29f6:	2a06978b          	addigp	a5,45728 # 8baa0 <depthwise_dilation_output_mult>
    29fa:	d43e                	c.swsp	a5,40(sp)
    29fc:	481d                	c.li	a6,7
    29fe:	4709                	c.li	a4,2
    2a00:	488d                	c.li	a7,3
    2a02:	2a46978b          	addigp	a5,45732 # 8baa4 <depthwise_dilation_output_shift>
    2a06:	86ca                	c.mv	a3,s2
    2a08:	0090                	c.addi4spn	a2,sp,64
    2a0a:	85a6                	c.mv	a1,s1
    2a0c:	1888                	c.addi4spn	a0,sp,112
    2a0e:	dc42                	c.swsp	a6,56(sp)
    2a10:	da42                	c.swsp	a6,52(sp)
    2a12:	c4c6                	c.swsp	a7,72(sp)
    2a14:	c2c6                	c.swsp	a7,68(sp)
    2a16:	d4c2                	c.swsp	a6,104(sp)
    2a18:	d2c2                	c.swsp	a6,100(sp)
    2a1a:	c33a                	c.swsp	a4,132(sp)
    2a1c:	c53a                	c.swsp	a4,136(sp)
    2a1e:	c73a                	c.swsp	a4,140(sp)
    2a20:	c93a                	c.swsp	a4,144(sp)
    2a22:	d63e                	c.swsp	a5,44(sp)
    2a24:	c882                	c.swsp	zero,80(sp)
    2a26:	ca82                	c.swsp	zero,84(sp)
    2a28:	cc82                	c.swsp	zero,88(sp)
    2a2a:	ce82                	c.swsp	zero,92(sp)
    2a2c:	550020ef          	jal	ra,4f7c <riscv_depthwise_conv_wrapper_s8_get_buffer_size>
    2a30:	00a00c33          	add	s8,zero,a0
    2a34:	15c070ef          	jal	ra,9b90 <malloc>
    2a38:	d262                	c.swsp	s8,36(sp)
    2a3a:	d02a                	c.swsp	a0,32(sp)
    2a3c:	ba5fe0ef          	jal	ra,15e0 <reset_counters>
    2a40:	b05fe0ef          	jal	ra,1544 <fill_stack_pattern_to_sp>
    2a44:	b0002b73          	csrr	s6,mcycle
    2a48:	b0202bf3          	csrr	s7,minstret
    2a4c:	29c6930b          	addigp	t1,45724 # 8ba9c <depthwise_dilation_biases>
    2a50:	05010893          	addi	a7,sp,80
    2a54:	de9f980b          	addigp	a6,-536 # 805e8 <depthwise_dilation_weights>
    2a58:	009c                	c.addi4spn	a5,sp,64
    2a5a:	d81f970b          	addigp	a4,-640 # 80580 <depthwise_dilation_input>
    2a5e:	86a6                	c.mv	a3,s1
    2a60:	1030                	c.addi4spn	a2,sp,40
    2a62:	188c                	c.addi4spn	a1,sp,112
    2a64:	1008                	c.addi4spn	a0,sp,32
    2a66:	c422                	c.swsp	s0,8(sp)
    2a68:	c24a                	c.swsp	s2,4(sp)
    2a6a:	c01a                	c.swsp	t1,0(sp)
    2a6c:	36d020ef          	jal	ra,55d8 <riscv_depthwise_conv_wrapper_s8>
    2a70:	b0002773          	csrr	a4,mcycle
    2a74:	b02027f3          	csrr	a5,minstret
    2a78:	41670b33          	sub	s6,a4,s6
    2a7c:	41778bb3          	sub	s7,a5,s7
    2a80:	a89fe0ef          	jal	ra,1508 <measure_stack_usage>
    2a84:	000a2783          	lw	a5,0(s4)
    2a88:	d01b7453          	fcvt.s.wu	fs0,s6
    2a8c:	000aa787          	flw	fa5,0(s5)
    2a90:	8caa                	c.mv	s9,a0
    2a92:	d017f753          	fcvt.s.wu	fa4,a5
    2a96:	5502                	c.lwsp	a0,32(sp)
    2a98:	18e47453          	fdiv.s	fs0,fs0,fa4
    2a9c:	10f47453          	fmul.s	fs0,fs0,fa5
    2aa0:	c911                	c.beqz	a0,2ab4 <main+0xc1c>
    2aa2:	8662                	c.mv	a2,s8
    2aa4:	00000593          	li	a1,0
    2aa8:	03e070ef          	jal	ra,9ae6 <memset>
    2aac:	02012503          	lw	a0,32(sp)
    2ab0:	0f0070ef          	jal	ra,9ba0 <free>
    2ab4:	5f098513          	addi	a0,s3,1520
    2ab8:	238070ef          	jal	ra,9cf0 <printf>
    2abc:	03100613          	li	a2,49
    2ac0:	db5f958b          	addigp	a1,-588 # 805b4 <depthwise_dilation_output_ref>
    2ac4:	00800533          	add	a0,zero,s0
    2ac8:	b25fe0ef          	jal	ra,15ec <validate.lto_priv.13>
    2acc:	18051063          	bnez	a0,2c4c <main+0xdb4>
    2ad0:	0008c537          	lui	a0,0x8c
    2ad4:	88450513          	addi	a0,a0,-1916 # 8b884 <int16xint8xint32_1_weights+0x237c>
    2ad8:	218070ef          	jal	ra,9cf0 <printf>
    2adc:	5f098513          	addi	a0,s3,1520
    2ae0:	210070ef          	jal	ra,9cf0 <printf>
    2ae4:	0008c537          	lui	a0,0x8c
    2ae8:	8cc50513          	addi	a0,a0,-1844 # 8b8cc <int16xint8xint32_1_weights+0x23c4>
    2aec:	204070ef          	jal	ra,9cf0 <printf>
    2af0:	db5fe0ef          	jal	ra,18a4 <dw_int16xint8_riscv_depthwise_conv_s16>
    2af4:	4785                	c.li	a5,1
    2af6:	c0be                	c.swsp	a5,64(sp)
    2af8:	dcbe                	c.swsp	a5,120(sp)
    2afa:	dabe                	c.swsp	a5,116(sp)
    2afc:	dd3e                	c.swsp	a5,184(sp)
    2afe:	df3e                	c.swsp	a5,188(sp)
    2b00:	77e1                	c.lui	a5,0xffff8
    2b02:	0785                	c.addi	a5,1
    2b04:	c1be                	c.swsp	a5,192(sp)
    2b06:	67a1                	c.lui	a5,0x8
    2b08:	17fd                	c.addi	a5,-1
    2b0a:	c3be                	c.swsp	a5,196(sp)
    2b0c:	7280178b          	addigp	a5,1832 # 80f28 <dw_int16xint8_mult4_output_mult>
    2b10:	d43e                	c.swsp	a5,40(sp)
    2b12:	4315                	c.li	t1,5
    2b14:	4711                	c.li	a4,4
    2b16:	4809                	c.li	a6,2
    2b18:	488d                	c.li	a7,3
    2b1a:	7580178b          	addigp	a5,1880 # 80f58 <dw_int16xint8_mult4_output_shift>
    2b1e:	1894                	c.addi4spn	a3,sp,112
    2b20:	0890                	c.addi4spn	a2,sp,80
    2b22:	008c                	c.addi4spn	a1,sp,64
    2b24:	c29a                	c.swsp	t1,68(sp)
    2b26:	8522                	c.mv	a0,s0
    2b28:	4321                	c.li	t1,8
    2b2a:	c4ba                	c.swsp	a4,72(sp)
    2b2c:	c6c2                	c.swsp	a6,76(sp)
    2b2e:	ccc6                	c.swsp	a7,88(sp)
    2b30:	caba                	c.swsp	a4,84(sp)
    2b32:	de9a                	c.swsp	t1,124(sp)
    2b34:	d546                	c.swsp	a7,168(sp)
    2b36:	d742                	c.swsp	a6,172(sp)
    2b38:	d33a                	c.swsp	a4,164(sp)
    2b3a:	d63e                	c.swsp	a5,44(sp)
    2b3c:	d802                	c.swsp	zero,48(sp)
    2b3e:	da02                	c.swsp	zero,52(sp)
    2b40:	dc02                	c.swsp	zero,56(sp)
    2b42:	de02                	c.swsp	zero,60(sp)
    2b44:	d082                	c.swsp	zero,96(sp)
    2b46:	d282                	c.swsp	zero,100(sp)
    2b48:	d482                	c.swsp	zero,104(sp)
    2b4a:	d682                	c.swsp	zero,108(sp)
    2b4c:	d902                	c.swsp	zero,176(sp)
    2b4e:	db02                	c.swsp	zero,180(sp)
    2b50:	cf02                	c.swsp	zero,156(sp)
    2b52:	d102                	c.swsp	zero,160(sp)
    2b54:	5d8000ef          	jal	ra,312c <riscv_depthwise_conv_wrapper_s16_get_buffer_size>
    2b58:	00a00bb3          	add	s7,zero,a0
    2b5c:	034070ef          	jal	ra,9b90 <malloc>
    2b60:	d25e                	c.swsp	s7,36(sp)
    2b62:	d02a                	c.swsp	a0,32(sp)
    2b64:	a7dfe0ef          	jal	ra,15e0 <reset_counters>
    2b68:	9ddfe0ef          	jal	ra,1544 <fill_stack_pattern_to_sp>
    2b6c:	b0002c73          	csrr	s8,mcycle
    2b70:	b0202b73          	csrr	s6,minstret
    2b74:	85a2                	c.mv	a1,s0
    2b76:	6980130b          	addigp	t1,1688 # 80e98 <dw_int16xint8_mult4_biases>
    2b7a:	88ca                	c.mv	a7,s2
    2b7c:	7780180b          	addigp	a6,1912 # 80f78 <dw_int16xint8_mult4_weights>
    2b80:	089c                	c.addi4spn	a5,sp,80
    2b82:	6d80170b          	addigp	a4,1752 # 80ed8 <dw_int16xint8_mult4_input>
    2b86:	0094                	c.addi4spn	a3,sp,64
    2b88:	1030                	c.addi4spn	a2,sp,40
    2b8a:	1008                	c.addi4spn	a0,sp,32
    2b8c:	1880                	c.addi4spn	s0,sp,112
    2b8e:	c426                	c.swsp	s1,8(sp)
    2b90:	c222                	c.swsp	s0,4(sp)
    2b92:	c01a                	c.swsp	t1,0(sp)
    2b94:	31d020ef          	jal	ra,56b0 <riscv_depthwise_conv_wrapper_s16>
    2b98:	b0002973          	csrr	s2,mcycle
    2b9c:	b02027f3          	csrr	a5,minstret
    2ba0:	41678b33          	sub	s6,a5,s6
    2ba4:	965fe0ef          	jal	ra,1508 <measure_stack_usage>
    2ba8:	000a2783          	lw	a5,0(s4)
    2bac:	41890933          	sub	s2,s2,s8
    2bb0:	d01977d3          	fcvt.s.wu	fa5,s2
    2bb4:	000aa407          	flw	fs0,0(s5)
    2bb8:	8c2a                	c.mv	s8,a0
    2bba:	d017f753          	fcvt.s.wu	fa4,a5
    2bbe:	5502                	c.lwsp	a0,32(sp)
    2bc0:	18e7f7d3          	fdiv.s	fa5,fa5,fa4
    2bc4:	1087f453          	fmul.s	fs0,fa5,fs0
    2bc8:	c911                	c.beqz	a0,2bdc <main+0xd44>
    2bca:	865e                	c.mv	a2,s7
    2bcc:	00000593          	li	a1,0
    2bd0:	717060ef          	jal	ra,9ae6 <memset>
    2bd4:	02012503          	lw	a0,32(sp)
    2bd8:	7c9060ef          	jal	ra,9ba0 <free>
    2bdc:	5f098513          	addi	a0,s3,1520
    2be0:	110070ef          	jal	ra,9cf0 <printf>
    2be4:	4621                	c.li	a2,8
    2be6:	7480158b          	addigp	a1,1864 # 80f48 <dw_int16xint8_mult4_output_ref>
    2bea:	8526                	c.mv	a0,s1
    2bec:	a79fe0ef          	jal	ra,1664 <validate_s16.lto_priv.15>
    2bf0:	0a051a63          	bnez	a0,2ca4 <main+0xe0c>
    2bf4:	0008c537          	lui	a0,0x8c
    2bf8:	94850513          	addi	a0,a0,-1720 # 8b948 <int16xint8xint32_1_weights+0x2440>
    2bfc:	0f4070ef          	jal	ra,9cf0 <printf>
    2c00:	addfe0ef          	jal	ra,16dc <dw_int16xint8_dilation_riscv_depthwise_conv_s16>
    2c04:	0008c537          	lui	a0,0x8c
    2c08:	99050513          	addi	a0,a0,-1648 # 8b990 <int16xint8xint32_1_weights+0x2488>
    2c0c:	0e4070ef          	jal	ra,9cf0 <printf>
    2c10:	df0fd0ef          	jal	ra,200 <delay_ms.constprop.12>
    2c14:	12c12083          	lw	ra,300(sp)
    2c18:	12812403          	lw	s0,296(sp)
    2c1c:	12412483          	lw	s1,292(sp)
    2c20:	12012903          	lw	s2,288(sp)
    2c24:	11c12983          	lw	s3,284(sp)
    2c28:	11812a03          	lw	s4,280(sp)
    2c2c:	11412a83          	lw	s5,276(sp)
    2c30:	11012b03          	lw	s6,272(sp)
    2c34:	10c12b83          	lw	s7,268(sp)
    2c38:	10812c03          	lw	s8,264(sp)
    2c3c:	10412c83          	lw	s9,260(sp)
    2c40:	10012d03          	lw	s10,256(sp)
    2c44:	747e                	c.flwsp	fs0,252(sp)
    2c46:	4501                	c.li	a0,0
    2c48:	6155                	c.addi16sp	sp,304
    2c4a:	8082                	c.jr	ra
    2c4c:	0008c537          	lui	a0,0x8c
    2c50:	83c50513          	addi	a0,a0,-1988 # 8b83c <int16xint8xint32_1_weights+0x2334>
    2c54:	09c070ef          	jal	ra,9cf0 <printf>
    2c58:	00081537          	lui	a0,0x81
    2c5c:	016005b3          	add	a1,zero,s6
    2c60:	bf450513          	addi	a0,a0,-1036 # 80bf4 <dw_int16xint8_dilation_output_shift+0x6c>
    2c64:	08c070ef          	jal	ra,9cf0 <printf>
    2c68:	00081537          	lui	a0,0x81
    2c6c:	017005b3          	add	a1,zero,s7
    2c70:	c0850513          	addi	a0,a0,-1016 # 80c08 <dw_int16xint8_dilation_output_shift+0x80>
    2c74:	07c070ef          	jal	ra,9cf0 <printf>
    2c78:	20840553          	fmv.s	fa0,fs0
    2c7c:	324080ef          	jal	ra,afa0 <__extendsfdf2>
    2c80:	862a                	c.mv	a2,a0
    2c82:	00081537          	lui	a0,0x81
    2c86:	86ae                	c.mv	a3,a1
    2c88:	c2450513          	addi	a0,a0,-988 # 80c24 <dw_int16xint8_dilation_output_shift+0x9c>
    2c8c:	064070ef          	jal	ra,9cf0 <printf>
    2c90:	00081537          	lui	a0,0x81
    2c94:	019005b3          	add	a1,zero,s9
    2c98:	c4850513          	addi	a0,a0,-952 # 80c48 <dw_int16xint8_dilation_output_shift+0xc0>
    2c9c:	054070ef          	jal	ra,9cf0 <printf>
    2ca0:	e3dff06f          	j	2adc <main+0xc44>
    2ca4:	0008c537          	lui	a0,0x8c
    2ca8:	90050513          	addi	a0,a0,-1792 # 8b900 <int16xint8xint32_1_weights+0x23f8>
    2cac:	044070ef          	jal	ra,9cf0 <printf>
    2cb0:	00081537          	lui	a0,0x81
    2cb4:	012005b3          	add	a1,zero,s2
    2cb8:	bf450513          	addi	a0,a0,-1036 # 80bf4 <dw_int16xint8_dilation_output_shift+0x6c>
    2cbc:	034070ef          	jal	ra,9cf0 <printf>
    2cc0:	00081537          	lui	a0,0x81
    2cc4:	016005b3          	add	a1,zero,s6
    2cc8:	c0850513          	addi	a0,a0,-1016 # 80c08 <dw_int16xint8_dilation_output_shift+0x80>
    2ccc:	024070ef          	jal	ra,9cf0 <printf>
    2cd0:	20840553          	fmv.s	fa0,fs0
    2cd4:	2cc080ef          	jal	ra,afa0 <__extendsfdf2>
    2cd8:	862a                	c.mv	a2,a0
    2cda:	00081537          	lui	a0,0x81
    2cde:	86ae                	c.mv	a3,a1
    2ce0:	c2450513          	addi	a0,a0,-988 # 80c24 <dw_int16xint8_dilation_output_shift+0x9c>
    2ce4:	00c070ef          	jal	ra,9cf0 <printf>
    2ce8:	00081537          	lui	a0,0x81
    2cec:	018005b3          	add	a1,zero,s8
    2cf0:	c4850513          	addi	a0,a0,-952 # 80c48 <dw_int16xint8_dilation_output_shift+0xc0>
    2cf4:	7fd060ef          	jal	ra,9cf0 <printf>
    2cf8:	f09ff06f          	j	2c00 <main+0xd68>
    2cfc:	0008b537          	lui	a0,0x8b
    2d00:	7a450513          	addi	a0,a0,1956 # 8b7a4 <int16xint8xint32_1_weights+0x229c>
    2d04:	7ed060ef          	jal	ra,9cf0 <printf>
    2d08:	00081537          	lui	a0,0x81
    2d0c:	016005b3          	add	a1,zero,s6
    2d10:	bf450513          	addi	a0,a0,-1036 # 80bf4 <dw_int16xint8_dilation_output_shift+0x6c>
    2d14:	7dd060ef          	jal	ra,9cf0 <printf>
    2d18:	00081537          	lui	a0,0x81
    2d1c:	017005b3          	add	a1,zero,s7
    2d20:	c0850513          	addi	a0,a0,-1016 # 80c08 <dw_int16xint8_dilation_output_shift+0x80>
    2d24:	7cd060ef          	jal	ra,9cf0 <printf>
    2d28:	20840553          	fmv.s	fa0,fs0
    2d2c:	274080ef          	jal	ra,afa0 <__extendsfdf2>
    2d30:	862a                	c.mv	a2,a0
    2d32:	00081537          	lui	a0,0x81
    2d36:	86ae                	c.mv	a3,a1
    2d38:	c2450513          	addi	a0,a0,-988 # 80c24 <dw_int16xint8_dilation_output_shift+0x9c>
    2d3c:	7b5060ef          	jal	ra,9cf0 <printf>
    2d40:	00081537          	lui	a0,0x81
    2d44:	019005b3          	add	a1,zero,s9
    2d48:	c4850513          	addi	a0,a0,-952 # 80c48 <dw_int16xint8_dilation_output_shift+0xc0>
    2d4c:	7a5060ef          	jal	ra,9cf0 <printf>
    2d50:	c75ff06f          	j	29c4 <main+0xb2c>
    2d54:	0008b537          	lui	a0,0x8b
    2d58:	72450513          	addi	a0,a0,1828 # 8b724 <int16xint8xint32_1_weights+0x221c>
    2d5c:	795060ef          	jal	ra,9cf0 <printf>
    2d60:	00081537          	lui	a0,0x81
    2d64:	016005b3          	add	a1,zero,s6
    2d68:	bf450513          	addi	a0,a0,-1036 # 80bf4 <dw_int16xint8_dilation_output_shift+0x6c>
    2d6c:	785060ef          	jal	ra,9cf0 <printf>
    2d70:	00081537          	lui	a0,0x81
    2d74:	017005b3          	add	a1,zero,s7
    2d78:	c0850513          	addi	a0,a0,-1016 # 80c08 <dw_int16xint8_dilation_output_shift+0x80>
    2d7c:	775060ef          	jal	ra,9cf0 <printf>
    2d80:	20840553          	fmv.s	fa0,fs0
    2d84:	21c080ef          	jal	ra,afa0 <__extendsfdf2>
    2d88:	862a                	c.mv	a2,a0
    2d8a:	00081537          	lui	a0,0x81
    2d8e:	86ae                	c.mv	a3,a1
    2d90:	c2450513          	addi	a0,a0,-988 # 80c24 <dw_int16xint8_dilation_output_shift+0x9c>
    2d94:	75d060ef          	jal	ra,9cf0 <printf>
    2d98:	00081537          	lui	a0,0x81
    2d9c:	019005b3          	add	a1,zero,s9
    2da0:	c4850513          	addi	a0,a0,-952 # 80c48 <dw_int16xint8_dilation_output_shift+0xc0>
    2da4:	74d060ef          	jal	ra,9cf0 <printf>
    2da8:	afdff06f          	j	28a4 <main+0xa0c>
    2dac:	0008b537          	lui	a0,0x8b
    2db0:	65c50513          	addi	a0,a0,1628 # 8b65c <int16xint8xint32_1_weights+0x2154>
    2db4:	73d060ef          	jal	ra,9cf0 <printf>
    2db8:	00081537          	lui	a0,0x81
    2dbc:	016005b3          	add	a1,zero,s6
    2dc0:	bf450513          	addi	a0,a0,-1036 # 80bf4 <dw_int16xint8_dilation_output_shift+0x6c>
    2dc4:	72d060ef          	jal	ra,9cf0 <printf>
    2dc8:	00081537          	lui	a0,0x81
    2dcc:	017005b3          	add	a1,zero,s7
    2dd0:	c0850513          	addi	a0,a0,-1016 # 80c08 <dw_int16xint8_dilation_output_shift+0x80>
    2dd4:	71d060ef          	jal	ra,9cf0 <printf>
    2dd8:	20840553          	fmv.s	fa0,fs0
    2ddc:	1c4080ef          	jal	ra,afa0 <__extendsfdf2>
    2de0:	862a                	c.mv	a2,a0
    2de2:	00081537          	lui	a0,0x81
    2de6:	86ae                	c.mv	a3,a1
    2de8:	c2450513          	addi	a0,a0,-988 # 80c24 <dw_int16xint8_dilation_output_shift+0x9c>
    2dec:	705060ef          	jal	ra,9cf0 <printf>
    2df0:	00081537          	lui	a0,0x81
    2df4:	018005b3          	add	a1,zero,s8
    2df8:	c4850513          	addi	a0,a0,-952 # 80c48 <dw_int16xint8_dilation_output_shift+0xc0>
    2dfc:	6f5060ef          	jal	ra,9cf0 <printf>
    2e00:	975ff06f          	j	2774 <main+0x8dc>
    2e04:	0008b537          	lui	a0,0x8b
    2e08:	5f450513          	addi	a0,a0,1524 # 8b5f4 <int16xint8xint32_1_weights+0x20ec>
    2e0c:	6e5060ef          	jal	ra,9cf0 <printf>
    2e10:	00081537          	lui	a0,0x81
    2e14:	016005b3          	add	a1,zero,s6
    2e18:	bf450513          	addi	a0,a0,-1036 # 80bf4 <dw_int16xint8_dilation_output_shift+0x6c>
    2e1c:	6d5060ef          	jal	ra,9cf0 <printf>
    2e20:	00081537          	lui	a0,0x81
    2e24:	017005b3          	add	a1,zero,s7
    2e28:	c0850513          	addi	a0,a0,-1016 # 80c08 <dw_int16xint8_dilation_output_shift+0x80>
    2e2c:	6c5060ef          	jal	ra,9cf0 <printf>
    2e30:	20840553          	fmv.s	fa0,fs0
    2e34:	16c080ef          	jal	ra,afa0 <__extendsfdf2>
    2e38:	862a                	c.mv	a2,a0
    2e3a:	00081537          	lui	a0,0x81
    2e3e:	86ae                	c.mv	a3,a1
    2e40:	c2450513          	addi	a0,a0,-988 # 80c24 <dw_int16xint8_dilation_output_shift+0x9c>
    2e44:	6ad060ef          	jal	ra,9cf0 <printf>
    2e48:	00081537          	lui	a0,0x81
    2e4c:	018005b3          	add	a1,zero,s8
    2e50:	c4850513          	addi	a0,a0,-952 # 80c48 <dw_int16xint8_dilation_output_shift+0xc0>
    2e54:	69d060ef          	jal	ra,9cf0 <printf>
    2e58:	801ff06f          	j	2658 <main+0x7c0>
    2e5c:	0008b537          	lui	a0,0x8b
    2e60:	54c50513          	addi	a0,a0,1356 # 8b54c <int16xint8xint32_1_weights+0x2044>
    2e64:	68d060ef          	jal	ra,9cf0 <printf>
    2e68:	00081537          	lui	a0,0x81
    2e6c:	016005b3          	add	a1,zero,s6
    2e70:	bf450513          	addi	a0,a0,-1036 # 80bf4 <dw_int16xint8_dilation_output_shift+0x6c>
    2e74:	67d060ef          	jal	ra,9cf0 <printf>
    2e78:	00081537          	lui	a0,0x81
    2e7c:	017005b3          	add	a1,zero,s7
    2e80:	c0850513          	addi	a0,a0,-1016 # 80c08 <dw_int16xint8_dilation_output_shift+0x80>
    2e84:	66d060ef          	jal	ra,9cf0 <printf>
    2e88:	20840553          	fmv.s	fa0,fs0
    2e8c:	114080ef          	jal	ra,afa0 <__extendsfdf2>
    2e90:	862a                	c.mv	a2,a0
    2e92:	00081537          	lui	a0,0x81
    2e96:	86ae                	c.mv	a3,a1
    2e98:	c2450513          	addi	a0,a0,-988 # 80c24 <dw_int16xint8_dilation_output_shift+0x9c>
    2e9c:	655060ef          	jal	ra,9cf0 <printf>
    2ea0:	00081537          	lui	a0,0x81
    2ea4:	018005b3          	add	a1,zero,s8
    2ea8:	c4850513          	addi	a0,a0,-952 # 80c48 <dw_int16xint8_dilation_output_shift+0xc0>
    2eac:	645060ef          	jal	ra,9cf0 <printf>
    2eb0:	e70ff06f          	j	2520 <main+0x688>
    2eb4:	0008b537          	lui	a0,0x8b
    2eb8:	4e450513          	addi	a0,a0,1252 # 8b4e4 <int16xint8xint32_1_weights+0x1fdc>
    2ebc:	635060ef          	jal	ra,9cf0 <printf>
    2ec0:	00081537          	lui	a0,0x81
    2ec4:	016005b3          	add	a1,zero,s6
    2ec8:	bf450513          	addi	a0,a0,-1036 # 80bf4 <dw_int16xint8_dilation_output_shift+0x6c>
    2ecc:	625060ef          	jal	ra,9cf0 <printf>
    2ed0:	00081537          	lui	a0,0x81
    2ed4:	017005b3          	add	a1,zero,s7
    2ed8:	c0850513          	addi	a0,a0,-1016 # 80c08 <dw_int16xint8_dilation_output_shift+0x80>
    2edc:	615060ef          	jal	ra,9cf0 <printf>
    2ee0:	20840553          	fmv.s	fa0,fs0
    2ee4:	0bc080ef          	jal	ra,afa0 <__extendsfdf2>
    2ee8:	862a                	c.mv	a2,a0
    2eea:	00081537          	lui	a0,0x81
    2eee:	86ae                	c.mv	a3,a1
    2ef0:	c2450513          	addi	a0,a0,-988 # 80c24 <dw_int16xint8_dilation_output_shift+0x9c>
    2ef4:	5fd060ef          	jal	ra,9cf0 <printf>
    2ef8:	00081537          	lui	a0,0x81
    2efc:	018005b3          	add	a1,zero,s8
    2f00:	c4850513          	addi	a0,a0,-952 # 80c48 <dw_int16xint8_dilation_output_shift+0xc0>
    2f04:	5ed060ef          	jal	ra,9cf0 <printf>
    2f08:	d04ff06f          	j	240c <main+0x574>
    2f0c:	02000793          	li	a5,32
    2f10:	0fd4f593          	andi	a1,s1,253
    2f14:	03900513          	li	a0,57
    2f18:	00f40123          	sb	a5,2(s0)
    2f1c:	875fd0ef          	jal	ra,790 <analog_write_reg8>
    2f20:	8e0ff06f          	j	2000 <main+0x168>
    2f24:	00800793          	li	a5,8
    2f28:	00f40123          	sb	a5,2(s0)
    2f2c:	8d4ff06f          	j	2000 <main+0x168>
    2f30:	001fe537          	lui	a0,0x1fe
    2f34:	0c050513          	addi	a0,a0,192 # 1fe0c0 <FLASH_SIZE+0xfe0c0>
    2f38:	cd4fe0ef          	jal	ra,140c <user_calib_adc_vref.constprop.9>
    2f3c:	001fe537          	lui	a0,0x1fe
    2f40:	e2cfe0ef          	jal	ra,156c <user_calib_freq_offset.constprop.8>
    2f44:	a5cff06f          	j	21a0 <main+0x308>
    2f48:	000fe537          	lui	a0,0xfe
    2f4c:	0c050513          	addi	a0,a0,192 # fe0c0 <_STACK_TOP+0x5e0c0>
    2f50:	cbcfe0ef          	jal	ra,140c <user_calib_adc_vref.constprop.9>
    2f54:	000fe537          	lui	a0,0xfe
    2f58:	e14fe0ef          	jal	ra,156c <user_calib_freq_offset.constprop.8>
    2f5c:	a44ff06f          	j	21a0 <main+0x308>
    2f60:	0007e537          	lui	a0,0x7e
    2f64:	0c050513          	addi	a0,a0,192 # 7e0c0 <BIN_SIZE+0x67206>
    2f68:	ca4fe0ef          	jal	ra,140c <user_calib_adc_vref.constprop.9>
    2f6c:	0007e537          	lui	a0,0x7e
    2f70:	dfcfe0ef          	jal	ra,156c <user_calib_freq_offset.constprop.8>
    2f74:	a2cff06f          	j	21a0 <main+0x308>
    2f78:	0001e537          	lui	a0,0x1e
    2f7c:	0c050513          	addi	a0,a0,192 # 1e0c0 <BIN_SIZE+0x7206>
    2f80:	c8cfe0ef          	jal	ra,140c <user_calib_adc_vref.constprop.9>
    2f84:	0001e537          	lui	a0,0x1e
    2f88:	de4fe0ef          	jal	ra,156c <user_calib_freq_offset.constprop.8>
    2f8c:	a14ff06f          	j	21a0 <main+0x308>
    2f90:	0000e537          	lui	a0,0xe
    2f94:	0c050513          	addi	a0,a0,192 # e0c0 <_RAMCODE_VMA_END+0x2e30>
    2f98:	c74fe0ef          	jal	ra,140c <user_calib_adc_vref.constprop.9>
    2f9c:	0000e537          	lui	a0,0xe
    2fa0:	dccfe0ef          	jal	ra,156c <user_calib_freq_offset.constprop.8>
    2fa4:	9fcff06f          	j	21a0 <main+0x308>
    2fa8:	00000513          	li	a0,0
    2fac:	c60fe0ef          	jal	ra,140c <user_calib_adc_vref.constprop.9>
    2fb0:	9f0ff06f          	j	21a0 <main+0x308>
    2fb4:	0001                	c.nop
	...

00002fb8 <default_irq_entry>:
    2fb8:	a001                	c.j	2fb8 <default_irq_entry>

00002fba <trap_handler>:
    2fba:	a001                	c.j	2fba <trap_handler>
    2fbc:	0001                	c.nop
	...

00002fc0 <riscv_convolve_wrapper_s16>:
    2fc0:	a275                	c.j	316c <riscv_convolve_s16>
	...

00002fc4 <riscv_convolve_wrapper_s8>:
    2fc4:	7179                	c.addi16sp	sp,-48
    2fc6:	0105a283          	lw	t0,16(a1)
    2fca:	d422                	c.swsp	s0,40(sp)
    2fcc:	d226                	c.swsp	s1,36(sp)
    2fce:	d04a                	c.swsp	s2,32(sp)
    2fd0:	ce4e                	c.swsp	s3,28(sp)
    2fd2:	cc52                	c.swsp	s4,24(sp)
    2fd4:	d606                	c.swsp	ra,44(sp)
    2fd6:	ca56                	c.swsp	s5,20(sp)
    2fd8:	c85a                	c.swsp	s6,16(sp)
    2fda:	5942                	c.lwsp	s2,48(sp)
    2fdc:	59d2                	c.lwsp	s3,52(sp)
    2fde:	5a62                	c.lwsp	s4,56(sp)
    2fe0:	832e                	c.mv	t1,a1
    2fe2:	83aa                	c.mv	t2,a0
    2fe4:	8432                	c.mv	s0,a2
    2fe6:	8e36                	c.mv	t3,a3
    2fe8:	84ba                	c.mv	s1,a4
    2fea:	8ebe                	c.mv	t4,a5
    2fec:	8f42                	c.mv	t5,a6
    2fee:	8fc6                	c.mv	t6,a7
    2ff0:	00029663          	bnez	t0,2ffc <riscv_convolve_wrapper_s8+0x38>
    2ff4:	0145a283          	lw	t0,20(a1)
    2ff8:	04028863          	beqz	t0,3048 <riscv_convolve_wrapper_s8+0x84>
    2ffc:	004e2783          	lw	a5,4(t3)
    3000:	00100713          	li	a4,1
    3004:	00e79a63          	bne	a5,a4,3018 <riscv_convolve_wrapper_s8+0x54>
    3008:	01832703          	lw	a4,24(t1)
    300c:	00f71663          	bne	a4,a5,3018 <riscv_convolve_wrapper_s8+0x54>
    3010:	004ea783          	lw	a5,4(t4)
    3014:	06e78263          	beq	a5,a4,3078 <riscv_convolve_wrapper_s8+0xb4>
    3018:	8726                	c.mv	a4,s1
    301a:	8622                	c.mv	a2,s0
    301c:	88fe                	c.mv	a7,t6
    301e:	887a                	c.mv	a6,t5
    3020:	87f6                	c.mv	a5,t4
    3022:	86f2                	c.mv	a3,t3
    3024:	851e                	c.mv	a0,t2
    3026:	859a                	c.mv	a1,t1
    3028:	c652                	c.swsp	s4,12(sp)
    302a:	c44e                	c.swsp	s3,8(sp)
    302c:	c04a                	c.swsp	s2,0(sp)
    302e:	c202                	c.swsp	zero,4(sp)
    3030:	145000ef          	jal	ra,3974 <riscv_convolve_s8>
    3034:	50b2                	c.lwsp	ra,44(sp)
    3036:	5422                	c.lwsp	s0,40(sp)
    3038:	5492                	c.lwsp	s1,36(sp)
    303a:	5902                	c.lwsp	s2,32(sp)
    303c:	49f2                	c.lwsp	s3,28(sp)
    303e:	4a62                	c.lwsp	s4,24(sp)
    3040:	4ad2                	c.lwsp	s5,20(sp)
    3042:	4b42                	c.lwsp	s6,16(sp)
    3044:	6145                	c.addi16sp	sp,48
    3046:	8082                	c.jr	ra
    3048:	0087a283          	lw	t0,8(a5) # 8008 <riscv_depthwise_conv_3x3_s8+0x778>
    304c:	00100a93          	li	s5,1
    3050:	fb5296e3          	bne	t0,s5,2ffc <riscv_convolve_wrapper_s8+0x38>
    3054:	0047aa83          	lw	s5,4(a5)
    3058:	fa5a92e3          	bne	s5,t0,2ffc <riscv_convolve_wrapper_s8+0x38>
    305c:	0185a283          	lw	t0,24(a1)
    3060:	fb529ce3          	bne	t0,s5,3018 <riscv_convolve_wrapper_s8+0x54>
    3064:	01c5aa83          	lw	s5,28(a1)
    3068:	045a8a63          	beq	s5,t0,30bc <riscv_convolve_wrapper_s8+0xf8>
    306c:	004e2703          	lw	a4,4(t3)
    3070:	00100793          	li	a5,1
    3074:	faf712e3          	bne	a4,a5,3018 <riscv_convolve_wrapper_s8+0x54>
    3078:	00ce2703          	lw	a4,12(t3)
    307c:	00832783          	lw	a5,8(t1)
    3080:	02f707b3          	mul	a5,a4,a5
    3084:	8b8d                	c.andi	a5,3
    3086:	fbc9                	c.bnez	a5,3018 <riscv_convolve_wrapper_s8+0x54>
    3088:	00cea783          	lw	a5,12(t4)
    308c:	f8f716e3          	bne	a4,a5,3018 <riscv_convolve_wrapper_s8+0x54>
    3090:	8622                	c.mv	a2,s0
    3092:	5422                	c.lwsp	s0,40(sp)
    3094:	dc52                	c.swsp	s4,56(sp)
    3096:	da4e                	c.swsp	s3,52(sp)
    3098:	d84a                	c.swsp	s2,48(sp)
    309a:	50b2                	c.lwsp	ra,44(sp)
    309c:	5902                	c.lwsp	s2,32(sp)
    309e:	49f2                	c.lwsp	s3,28(sp)
    30a0:	4a62                	c.lwsp	s4,24(sp)
    30a2:	4ad2                	c.lwsp	s5,20(sp)
    30a4:	4b42                	c.lwsp	s6,16(sp)
    30a6:	8726                	c.mv	a4,s1
    30a8:	5492                	c.lwsp	s1,36(sp)
    30aa:	88fe                	c.mv	a7,t6
    30ac:	887a                	c.mv	a6,t5
    30ae:	87f6                	c.mv	a5,t4
    30b0:	86f2                	c.mv	a3,t3
    30b2:	859a                	c.mv	a1,t1
    30b4:	851e                	c.mv	a0,t2
    30b6:	6145                	c.addi16sp	sp,48
    30b8:	68c0206f          	j	5744 <riscv_convolve_1_x_n_s8>
    30bc:	00c7a283          	lw	t0,12(a5)
    30c0:	00c6ab03          	lw	s6,12(a3)
    30c4:	fa5b14e3          	bne	s6,t0,306c <riscv_convolve_wrapper_s8+0xa8>
    30c8:	0085a283          	lw	t0,8(a1)
    30cc:	01529663          	bne	t0,s5,30d8 <riscv_convolve_wrapper_s8+0x114>
    30d0:	00c5aa83          	lw	s5,12(a1)
    30d4:	025a8863          	beq	s5,t0,3104 <riscv_convolve_wrapper_s8+0x140>
    30d8:	8622                	c.mv	a2,s0
    30da:	5422                	c.lwsp	s0,40(sp)
    30dc:	dc52                	c.swsp	s4,56(sp)
    30de:	da4e                	c.swsp	s3,52(sp)
    30e0:	d84a                	c.swsp	s2,48(sp)
    30e2:	50b2                	c.lwsp	ra,44(sp)
    30e4:	5902                	c.lwsp	s2,32(sp)
    30e6:	49f2                	c.lwsp	s3,28(sp)
    30e8:	4a62                	c.lwsp	s4,24(sp)
    30ea:	4ad2                	c.lwsp	s5,20(sp)
    30ec:	4b42                	c.lwsp	s6,16(sp)
    30ee:	8726                	c.mv	a4,s1
    30f0:	5492                	c.lwsp	s1,36(sp)
    30f2:	88fe                	c.mv	a7,t6
    30f4:	887a                	c.mv	a6,t5
    30f6:	87f6                	c.mv	a5,t4
    30f8:	86f2                	c.mv	a3,t3
    30fa:	859a                	c.mv	a1,t1
    30fc:	851e                	c.mv	a0,t2
    30fe:	6145                	c.addi16sp	sp,48
    3100:	3b40206f          	j	54b4 <riscv_convolve_1x1_s8>
    3104:	5422                	c.lwsp	s0,40(sp)
    3106:	50b2                	c.lwsp	ra,44(sp)
    3108:	5492                	c.lwsp	s1,36(sp)
    310a:	5902                	c.lwsp	s2,32(sp)
    310c:	49f2                	c.lwsp	s3,28(sp)
    310e:	4a62                	c.lwsp	s4,24(sp)
    3110:	4ad2                	c.lwsp	s5,20(sp)
    3112:	4b42                	c.lwsp	s6,16(sp)
    3114:	6145                	c.addi16sp	sp,48
    3116:	ab39                	c.j	3634 <riscv_convolve_1x1_s8_fast>

00003118 <riscv_depthwise_conv_fast_s16_get_buffer_size>:
    3118:	4548                	c.lw	a0,12(a0)
    311a:	4598                	c.lw	a4,8(a1)
    311c:	41dc                	c.lw	a5,4(a1)
    311e:	02e50533          	mul	a0,a0,a4
    3122:	02f50533          	mul	a0,a0,a5
    3126:	0506                	c.slli	a0,0x1
    3128:	8082                	c.jr	ra
	...

0000312c <riscv_depthwise_conv_wrapper_s16_get_buffer_size>:
    312c:	4518                	c.lw	a4,8(a0)
    312e:	4685                	c.li	a3,1
    3130:	87aa                	c.mv	a5,a0
    3132:	4501                	c.li	a0,0
    3134:	00d70463          	beq	a4,a3,313c <riscv_depthwise_conv_wrapper_s16_get_buffer_size+0x10>
    3138:	00008067          	ret
    313c:	4fd4                	c.lw	a3,28(a5)
    313e:	4501                	c.li	a0,0
    3140:	fee69ce3          	bne	a3,a4,3138 <riscv_depthwise_conv_wrapper_s16_get_buffer_size+0xc>
    3144:	539c                	c.lw	a5,32(a5)
    3146:	fed799e3          	bne	a5,a3,3138 <riscv_depthwise_conv_wrapper_s16_get_buffer_size+0xc>
    314a:	461c                	c.lw	a5,8(a2)
    314c:	4258                	c.lw	a4,4(a2)
    314e:	1ff00693          	li	a3,511
    3152:	02e78633          	mul	a2,a5,a4
    3156:	fec6c1e3          	blt	a3,a2,3138 <riscv_depthwise_conv_wrapper_s16_get_buffer_size+0xc>
    315a:	45d4                	c.lw	a3,12(a1)
    315c:	02d787b3          	mul	a5,a5,a3
    3160:	02e787b3          	mul	a5,a5,a4
    3164:	00179513          	slli	a0,a5,0x1
    3168:	8082                	c.jr	ra
	...

0000316c <riscv_convolve_s16>:
    316c:	4108                	c.lw	a0,0(a0)
    316e:	7111                	c.addi16sp	sp,-256
    3170:	dda2                	c.swsp	s0,248(sp)
    3172:	d0aa                	c.swsp	a0,96(sp)
    3174:	842a                	c.mv	s0,a0
    3176:	df86                	c.swsp	ra,252(sp)
    3178:	dba6                	c.swsp	s1,244(sp)
    317a:	d9ca                	c.swsp	s2,240(sp)
    317c:	d7ce                	c.swsp	s3,236(sp)
    317e:	d5d2                	c.swsp	s4,232(sp)
    3180:	d3d6                	c.swsp	s5,228(sp)
    3182:	d1da                	c.swsp	s6,224(sp)
    3184:	cfde                	c.swsp	s7,220(sp)
    3186:	cde2                	c.swsp	s8,216(sp)
    3188:	cbe6                	c.swsp	s9,212(sp)
    318a:	c9ea                	c.swsp	s10,208(sp)
    318c:	c7ee                	c.swsp	s11,204(sp)
    318e:	10412503          	lw	a0,260(sp)
    3192:	48040563          	beqz	s0,361c <riscv_convolve_s16+0x4b0>
    3196:	43c4                	c.lw	s1,4(a5)
    3198:	46c0                	c.lw	s0,12(a3)
    319a:	0087ac03          	lw	s8,8(a5)
    319e:	029407b3          	mul	a5,s0,s1
    31a2:	ce26                	c.swsp	s1,28(sp)
    31a4:	4684                	c.lw	s1,8(a3)
    31a6:	038787b3          	mul	a5,a5,s8
    31aa:	0006ad83          	lw	s11,0(a3)
    31ae:	0185ac83          	lw	s9,24(a1)
    31b2:	d6be                	c.swsp	a5,108(sp)
    31b4:	42dc                	c.lw	a5,4(a3)
    31b6:	0145ad03          	lw	s10,20(a1)
    31ba:	dc3e                	c.swsp	a5,56(sp)
    31bc:	451c                	c.lw	a5,8(a0)
    31be:	d626                	c.swsp	s1,44(sp)
    31c0:	c6be                	c.swsp	a5,76(sp)
    31c2:	415c                	c.lw	a5,4(a0)
    31c4:	d4be                	c.swsp	a5,104(sp)
    31c6:	455c                	c.lw	a5,12(a0)
    31c8:	d2be                	c.swsp	a5,100(sp)
    31ca:	4ddc                	c.lw	a5,28(a1)
    31cc:	d03e                	c.swsp	a5,32(sp)
    31ce:	499c                	c.lw	a5,16(a1)
    31d0:	c53e                	c.swsp	a5,136(sp)
    31d2:	459c                	c.lw	a5,8(a1)
    31d4:	c8be                	c.swsp	a5,80(sp)
    31d6:	45dc                	c.lw	a5,12(a1)
    31d8:	c73e                	c.swsp	a5,140(sp)
    31da:	519c                	c.lw	a5,32(a1)
    31dc:	d8be                	c.swsp	a5,112(sp)
    31de:	51dc                	c.lw	a5,36(a1)
    31e0:	dabe                	c.swsp	a5,116(sp)
    31e2:	421c                	c.lw	a5,0(a2)
    31e4:	dcbe                	c.swsp	a5,120(sp)
    31e6:	425c                	c.lw	a5,4(a2)
    31e8:	debe                	c.swsp	a5,124(sp)
    31ea:	19b05363          	blez	s11,3370 <riscv_convolve_s16+0x204>
    31ee:	4636                	c.lwsp	a2,76(sp)
    31f0:	853a                	c.mv	a0,a4
    31f2:	5726                	c.lwsp	a4,104(sp)
    31f4:	46ba                	c.lwsp	a3,140(sp)
    31f6:	02c70733          	mul	a4,a4,a2
    31fa:	5602                	c.lwsp	a2,32(sp)
    31fc:	029407b3          	mul	a5,s0,s1
    3200:	02d486b3          	mul	a3,s1,a3
    3204:	02960633          	mul	a2,a2,s1
    3208:	03a485b3          	mul	a1,s1,s10
    320c:	54e2                	c.lwsp	s1,56(sp)
    320e:	c342                	c.swsp	a6,132(sp)
    3210:	02978833          	mul	a6,a5,s1
    3214:	87ba                	c.mv	a5,a4
    3216:	5716                	c.lwsp	a4,100(sp)
    3218:	028686b3          	mul	a3,a3,s0
    321c:	02e788b3          	mul	a7,a5,a4
    3220:	47c6                	c.lwsp	a5,80(sp)
    3222:	472a                	c.lwsp	a4,136(sp)
    3224:	02f40333          	mul	t1,s0,a5
    3228:	40b007b3          	neg	a5,a1
    322c:	8f99                	c.sub	a5,a4
    322e:	02860633          	mul	a2,a2,s0
    3232:	03940e33          	mul	t3,s0,s9
    3236:	872a                	c.mv	a4,a0
    3238:	0406                	c.slli	s0,0x1
    323a:	c487977f          	maddr32	a4,a5,s0
    323e:	028c07b3          	mul	a5,s8,s0
    3242:	001e1b93          	slli	s7,t3,0x1
    3246:	8f6e                	c.mv	t5,s11
    3248:	d43e                	c.swsp	a5,40(sp)
    324a:	00181793          	slli	a5,a6,0x1
    324e:	cf3e                	c.swsp	a5,156(sp)
    3250:	00189793          	slli	a5,a7,0x1
    3254:	d53e                	c.swsp	a5,168(sp)
    3256:	00169793          	slli	a5,a3,0x1
    325a:	d73e                	c.swsp	a5,172(sp)
    325c:	00131793          	slli	a5,t1,0x1
    3260:	cabe                	c.swsp	a5,84(sp)
    3262:	00161793          	slli	a5,a2,0x1
    3266:	d23e                	c.swsp	a5,36(sp)
    3268:	8fea                	c.mv	t6,s10
    326a:	4781                	c.li	a5,0
    326c:	56a6                	c.lwsp	a3,104(sp)
    326e:	0ed05563          	blez	a3,3358 <riscv_convolve_s16+0x1ec>
    3272:	10812503          	lw	a0,264(sp)
    3276:	5d06                	c.lwsp	s10,96(sp)
    3278:	41f00db3          	neg	s11,t6
    327c:	4681                	c.li	a3,0
    327e:	c13a                	c.swsp	a4,128(sp)
    3280:	cd02                	c.swsp	zero,152(sp)
    3282:	ccaa                	c.swsp	a0,88(sp)
    3284:	d97a                	c.swsp	t5,176(sp)
    3286:	db7e                	c.swsp	t6,180(sp)
    3288:	dd3e                	c.swsp	a5,184(sp)
    328a:	df3a                	c.swsp	a4,188(sp)
    328c:	47aa                	c.lwsp	a5,136(sp)
    328e:	430a                	c.lwsp	t1,128(sp)
    3290:	40f007b3          	neg	a5,a5
    3294:	d83e                	c.swsp	a5,48(sp)
    3296:	47b6                	c.lwsp	a5,76(sp)
    3298:	00000e13          	li	t3,0
    329c:	08f05a63          	blez	a5,3330 <riscv_convolve_s16+0x1c4>
    32a0:	47f2                	c.lwsp	a5,28(sp)
    32a2:	8a6e                	c.mv	s4,s11
    32a4:	8b1a                	c.mv	s6,t1
    32a6:	4a81                	c.li	s5,0
    32a8:	06f05663          	blez	a5,3314 <riscv_convolve_s16+0x1a8>
    32ac:	c4ee                	c.swsp	s11,72(sp)
    32ae:	8dea                	c.mv	s11,s10
    32b0:	8d56                	c.mv	s10,s5
    32b2:	8ad2                	c.mv	s5,s4
    32b4:	de1a                	c.swsp	t1,60(sp)
    32b6:	c0b6                	c.swsp	a3,64(sp)
    32b8:	05c12223          	sw	t3,68(sp)
    32bc:	03805e63          	blez	s8,32f8 <riscv_convolve_s16+0x18c>
    32c0:	0c0ac863          	bltz	s5,3390 <riscv_convolve_s16+0x224>
    32c4:	57e2                	c.lwsp	a5,56(sp)
    32c6:	0afad763          	bge	s5,a5,3374 <riscv_convolve_s16+0x208>
    32ca:	5942                	c.lwsp	s2,48(sp)
    32cc:	89da                	c.mv	s3,s6
    32ce:	8a6e                	c.mv	s4,s11
    32d0:	00000493          	li	s1,0
    32d4:	8552                	c.mv	a0,s4
    32d6:	8622                	c.mv	a2,s0
    32d8:	4581                	c.li	a1,0
    32da:	00094563          	bltz	s2,32e4 <riscv_convolve_s16+0x178>
    32de:	57b2                	c.lwsp	a5,44(sp)
    32e0:	0cf94663          	blt	s2,a5,33ac <riscv_convolve_s16+0x240>
    32e4:	003060ef          	jal	ra,9ae6 <memset>
    32e8:	0485                	c.addi	s1,1
    32ea:	9a22                	c.add	s4,s0
    32ec:	9966                	c.add	s2,s9
    32ee:	99de                	c.add	s3,s7
    32f0:	fe9c12e3          	bne	s8,s1,32d4 <riscv_convolve_s16+0x168>
    32f4:	57a2                	c.lwsp	a5,40(sp)
    32f6:	9dbe                	c.add	s11,a5
    32f8:	5792                	c.lwsp	a5,36(sp)
    32fa:	0d05                	c.addi	s10,1
    32fc:	9b3e                	c.add	s6,a5
    32fe:	5782                	c.lwsp	a5,32(sp)
    3300:	9abe                	c.add	s5,a5
    3302:	47f2                	c.lwsp	a5,28(sp)
    3304:	fba79ce3          	bne	a5,s10,32bc <riscv_convolve_s16+0x150>
    3308:	8d6e                	c.mv	s10,s11
    330a:	5372                	c.lwsp	t1,60(sp)
    330c:	4686                	c.lwsp	a3,64(sp)
    330e:	4e16                	c.lwsp	t3,68(sp)
    3310:	04812d83          	lw	s11,72(sp)
    3314:	0685                	c.addi	a3,1
    3316:	4789                	c.li	a5,2
    3318:	0af68063          	beq	a3,a5,33b8 <riscv_convolve_s16+0x24c>
    331c:	47d6                	c.lwsp	a5,84(sp)
    331e:	4746                	c.lwsp	a4,80(sp)
    3320:	933e                	c.add	t1,a5
    3322:	57c2                	c.lwsp	a5,48(sp)
    3324:	0e05                	c.addi	t3,1
    3326:	97ba                	c.add	a5,a4
    3328:	d83e                	c.swsp	a5,48(sp)
    332a:	47b6                	c.lwsp	a5,76(sp)
    332c:	f7c79ae3          	bne	a5,t3,32a0 <riscv_convolve_s16+0x134>
    3330:	47e6                	c.lwsp	a5,88(sp)
    3332:	c7e9                	c.beqz	a5,33fc <riscv_convolve_s16+0x290>
    3334:	470a                	c.lwsp	a4,128(sp)
    3336:	563a                	c.lwsp	a2,172(sp)
    3338:	47ea                	c.lwsp	a5,152(sp)
    333a:	9732                	c.add	a4,a2
    333c:	c13a                	c.swsp	a4,128(sp)
    333e:	473a                	c.lwsp	a4,140(sp)
    3340:	0785                	c.addi	a5,1
    3342:	9dba                	c.add	s11,a4
    3344:	5726                	c.lwsp	a4,104(sp)
    3346:	cd3e                	c.swsp	a5,152(sp)
    3348:	f4f712e3          	bne	a4,a5,328c <riscv_convolve_s16+0x120>
    334c:	4566                	c.lwsp	a0,88(sp)
    334e:	5f4a                	c.lwsp	t5,176(sp)
    3350:	5fda                	c.lwsp	t6,180(sp)
    3352:	57ea                	c.lwsp	a5,184(sp)
    3354:	577a                	c.lwsp	a4,188(sp)
    3356:	e6e9                	c.bnez	a3,3420 <riscv_convolve_s16+0x2b4>
    3358:	10812683          	lw	a3,264(sp)
    335c:	562a                	c.lwsp	a2,168(sp)
    335e:	0785                	c.addi	a5,1
    3360:	96b2                	c.add	a3,a2
    3362:	10d12423          	sw	a3,264(sp)
    3366:	46fa                	c.lwsp	a3,156(sp)
    3368:	00d70733          	add	a4,a4,a3
    336c:	f0ff10e3          	bne	t5,a5,326c <riscv_convolve_s16+0x100>
    3370:	4501                	c.li	a0,0
    3372:	a079                	c.j	3400 <riscv_convolve_s16+0x294>
    3374:	8a6e                	c.mv	s4,s11
    3376:	4481                	c.li	s1,0
    3378:	8552                	c.mv	a0,s4
    337a:	0485                	c.addi	s1,1
    337c:	8622                	c.mv	a2,s0
    337e:	4581                	c.li	a1,0
    3380:	008a0a33          	add	s4,s4,s0
    3384:	762060ef          	jal	ra,9ae6 <memset>
    3388:	fe9c18e3          	bne	s8,s1,3378 <riscv_convolve_s16+0x20c>
    338c:	f69ff06f          	j	32f4 <riscv_convolve_s16+0x188>
    3390:	84ee                	c.mv	s1,s11
    3392:	4a01                	c.li	s4,0
    3394:	8526                	c.mv	a0,s1
    3396:	0a05                	c.addi	s4,1
    3398:	8622                	c.mv	a2,s0
    339a:	4581                	c.li	a1,0
    339c:	008484b3          	add	s1,s1,s0
    33a0:	746060ef          	jal	ra,9ae6 <memset>
    33a4:	ff4c18e3          	bne	s8,s4,3394 <riscv_convolve_s16+0x228>
    33a8:	f4dff06f          	j	32f4 <riscv_convolve_s16+0x188>
    33ac:	013005b3          	add	a1,zero,s3
    33b0:	63c060ef          	jal	ra,99ec <memcpy>
    33b4:	f35ff06f          	j	32e8 <riscv_convolve_s16+0x17c>
    33b8:	44e6                	c.lwsp	s1,88(sp)
    33ba:	57c6                	c.lwsp	a5,112(sp)
    33bc:	c226                	c.swsp	s1,4(sp)
    33be:	10012483          	lw	s1,256(sp)
    33c2:	5766                	c.lwsp	a4,120(sp)
    33c4:	c026                	c.swsp	s1,0(sp)
    33c6:	44d6                	c.lwsp	s1,84(sp)
    33c8:	56f6                	c.lwsp	a3,124(sp)
    33ca:	58b6                	c.lwsp	a7,108(sp)
    33cc:	5856                	c.lwsp	a6,116(sp)
    33ce:	5616                	c.lwsp	a2,100(sp)
    33d0:	5586                	c.lwsp	a1,96(sp)
    33d2:	451a                	c.lwsp	a0,132(sp)
    33d4:	0e05                	c.addi	t3,1
    33d6:	9326                	c.add	t1,s1
    33d8:	c0f2                	c.swsp	t3,64(sp)
    33da:	de1a                	c.swsp	t1,60(sp)
    33dc:	274010ef          	jal	ra,4650 <riscv_nn_mat_mult_kernel_s16>
    33e0:	57c2                	c.lwsp	a5,48(sp)
    33e2:	4746                	c.lwsp	a4,80(sp)
    33e4:	4e06                	c.lwsp	t3,64(sp)
    33e6:	97ba                	c.add	a5,a4
    33e8:	d83e                	c.swsp	a5,48(sp)
    33ea:	47b6                	c.lwsp	a5,76(sp)
    33ec:	ccaa                	c.swsp	a0,88(sp)
    33ee:	5372                	c.lwsp	t1,60(sp)
    33f0:	5d06                	c.lwsp	s10,96(sp)
    33f2:	4681                	c.li	a3,0
    33f4:	ebc796e3          	bne	a5,t3,32a0 <riscv_convolve_s16+0x134>
    33f8:	47e6                	c.lwsp	a5,88(sp)
    33fa:	ff8d                	c.bnez	a5,3334 <riscv_convolve_s16+0x1c8>
    33fc:	ffe00513          	li	a0,-2
    3400:	50fe                	c.lwsp	ra,252(sp)
    3402:	546e                	c.lwsp	s0,248(sp)
    3404:	54de                	c.lwsp	s1,244(sp)
    3406:	594e                	c.lwsp	s2,240(sp)
    3408:	59be                	c.lwsp	s3,236(sp)
    340a:	5a2e                	c.lwsp	s4,232(sp)
    340c:	5a9e                	c.lwsp	s5,228(sp)
    340e:	5b0e                	c.lwsp	s6,224(sp)
    3410:	4bfe                	c.lwsp	s7,220(sp)
    3412:	4c6e                	c.lwsp	s8,216(sp)
    3414:	4cde                	c.lwsp	s9,212(sp)
    3416:	4d4e                	c.lwsp	s10,208(sp)
    3418:	4dbe                	c.lwsp	s11,204(sp)
    341a:	6111                	c.addi16sp	sp,256
    341c:	00008067          	ret
    3420:	10012683          	lw	a3,256(sp)
    3424:	0006a283          	lw	t0,0(a3)
    3428:	0046c683          	lbu	a3,4(a3)
    342c:	c0b6                	c.swsp	a3,64(sp)
    342e:	5696                	c.lwsp	a3,100(sp)
    3430:	f2d054e3          	blez	a3,3358 <riscv_convolve_s16+0x1ec>
    3434:	55b6                	c.lwsp	a1,108(sp)
    3436:	5b06                	c.lwsp	s6,96(sp)
    3438:	4025dd13          	srai	s10,a1,0x2
    343c:	0686                	c.slli	a3,0x1
    343e:	96aa                	c.add	a3,a0
    3440:	003d1613          	slli	a2,s10,0x3
    3444:	0035f313          	andi	t1,a1,3
    3448:	de36                	c.swsp	a3,60(sp)
    344a:	58f6                	c.lwsp	a7,124(sp)
    344c:	00cb06b3          	add	a3,s6,a2
    3450:	5866                	c.lwsp	a6,120(sp)
    3452:	459a                	c.lwsp	a1,132(sp)
    3454:	590a                	c.lwsp	s2,160(sp)
    3456:	599a                	c.lwsp	s3,164(sp)
    3458:	c4b6                	c.swsp	a3,72(sp)
    345a:	8e16                	c.mv	t3,t0
    345c:	002d1693          	slli	a3,s10,0x2
    3460:	8396                	c.mv	t2,t0
    3462:	4d85                	c.li	s11,1
    3464:	04d12223          	sw	a3,68(sp)
    3468:	1a0d0663          	beqz	s10,3614 <riscv_convolve_s16+0x4a8>
    346c:	8eda                	c.mv	t4,s6
    346e:	cece                	c.swsp	s3,92(sp)
    3470:	8aea                	c.mv	s5,s10
    3472:	89da                	c.mv	s3,s6
    3474:	8a2e                	c.mv	s4,a1
    3476:	8b3a                	c.mv	s6,a4
    3478:	4681                	c.li	a3,0
    347a:	873e                	c.mv	a4,a5
    347c:	87de                	c.mv	a5,s7
    347e:	d822                	c.swsp	s0,48(sp)
    3480:	05212c23          	sw	s2,88(sp)
    3484:	000a2603          	lw	a2,0(s4)
    3488:	c932                	c.swsp	a2,144(sp)
    348a:	cb32                	c.swsp	a2,148(sp)
    348c:	444a                	c.lwsp	s0,144(sp)
    348e:	44da                	c.lwsp	s1,148(sp)
    3490:	0a11                	c.addi	s4,4
    3492:	de8404ff          	wexti	s1,s0,8
    3496:	ac9484ff          	sunpkd820	s1,s1
    349a:	ac96067f          	sunpkd820	a2,a2
    349e:	2ec49bff          	pktt16	s7,s1,a2
    34a2:	0ec4967f          	pkbb16	a2,s1,a2
    34a6:	000ea483          	lw	s1,0(t4)
    34aa:	489616ff          	kmada	a3,a2,s1
    34ae:	004e8613          	addi	a2,t4,4
    34b2:	4210                	c.lw	a2,0(a2)
    34b4:	0ea1                	c.addi	t4,8
    34b6:	48cb96ff          	kmada	a3,s7,a2
    34ba:	1afd                	c.addi	s5,-1
    34bc:	fc0a94e3          	bnez	s5,3484 <riscv_convolve_s16+0x318>
    34c0:	4616                	c.lwsp	a2,68(sp)
    34c2:	8bbe                	c.mv	s7,a5
    34c4:	95b2                	c.add	a1,a2
    34c6:	87ba                	c.mv	a5,a4
    34c8:	5442                	c.lwsp	s0,48(sp)
    34ca:	875a                	c.mv	a4,s6
    34cc:	4966                	c.lwsp	s2,88(sp)
    34ce:	8b4e                	c.mv	s6,s3
    34d0:	4626                	c.lwsp	a2,72(sp)
    34d2:	49f6                	c.lwsp	s3,92(sp)
    34d4:	02030c63          	beqz	t1,350c <riscv_convolve_s16+0x3a0>
    34d8:	00061483          	lh	s1,0(a2)
    34dc:	00058e83          	lb	t4,0(a1)
    34e0:	c5d496ff          	maddr32	a3,s1,t4
    34e4:	03b30263          	beq	t1,s11,3508 <riscv_convolve_s16+0x39c>
    34e8:	00261483          	lh	s1,2(a2)
    34ec:	00158e83          	lb	t4,1(a1)
    34f0:	c5d496ff          	maddr32	a3,s1,t4
    34f4:	00200493          	li	s1,2
    34f8:	00930863          	beq	t1,s1,3508 <riscv_convolve_s16+0x39c>
    34fc:	00258e83          	lb	t4,2(a1)
    3500:	00461603          	lh	a2,4(a2)
    3504:	c4ce96ff          	maddr32	a3,t4,a2
    3508:	006585b3          	add	a1,a1,t1
    350c:	4606                	c.lwsp	a2,64(sp)
    350e:	ce3d                	c.beqz	a2,358c <riscv_convolve_s16+0x420>
    3510:	00028663          	beqz	t0,351c <riscv_convolve_s16+0x3b0>
    3514:	000e2603          	lw	a2,0(t3)
    3518:	00c686b3          	add	a3,a3,a2
    351c:	0008ae83          	lw	t4,0(a7)
    3520:	00082483          	lw	s1,0(a6)
    3524:	4a81                	c.li	s5,0
    3526:	f35e8a7f          	maxw	s4,t4,s5
    352a:	01469a33          	sll	s4,a3,s4
    352e:	40000637          	lui	a2,0x40000
    3532:	4681                	c.li	a3,0
    3534:	849a167f          	smar64	a2,s4,s1
    3538:	41d00eb3          	neg	t4,t4
    353c:	f35e8eff          	maxw	t4,t4,s5
    3540:	01dd94b3          	sll	s1,s11,t4
    3544:	dff6067f          	wexti	a2,a2,31
    3548:	fff48693          	addi	a3,s1,-1
    354c:	4016d493          	srai	s1,a3,0x1
    3550:	00062a13          	slti	s4,a2,0
    3554:	8ef1                	c.and	a3,a2
    3556:	94d2                	c.add	s1,s4
    3558:	41d65633          	sra	a2,a2,t4
    355c:	00d4a6b3          	slt	a3,s1,a3
    3560:	00d60633          	add	a2,a2,a3
    3564:	56c6                	c.lwsp	a3,112(sp)
    3566:	0509                	c.addi	a0,2
    3568:	f2d6067f          	maxw	a2,a2,a3
    356c:	56d6                	c.lwsp	a3,116(sp)
    356e:	0891                	c.addi	a7,4
    3570:	f0c686ff          	minw	a3,a3,a2
    3574:	fed51f23          	sh	a3,-2(a0) # dffe <_RAMCODE_VMA_END+0x2d6e>
    3578:	56f2                	c.lwsp	a3,60(sp)
    357a:	0811                	c.addi	a6,4
    357c:	0e11                	c.addi	t3,4
    357e:	03a1                	c.addi	t2,8
    3580:	eea694e3          	bne	a3,a0,3468 <riscv_convolve_s16+0x2fc>
    3584:	d14a                	c.swsp	s2,160(sp)
    3586:	d34e                	c.swsp	s3,164(sp)
    3588:	dd1ff06f          	j	3358 <riscv_convolve_s16+0x1ec>
    358c:	00d00933          	add	s2,zero,a3
    3590:	41f6d993          	srai	s3,a3,0x1f
    3594:	00028863          	beqz	t0,35a4 <riscv_convolve_s16+0x438>
    3598:	0003a603          	lw	a2,0(t2)
    359c:	0043a683          	lw	a3,4(t2)
    35a0:	c0c9197f          	add64	s2,s2,a2
    35a4:	00082e83          	lw	t4,0(a6)
    35a8:	7fff06b7          	lui	a3,0x7fff0
    35ac:	04dede63          	bge	t4,a3,3608 <riscv_convolve_s16+0x49c>
    35b0:	66a1                	c.lui	a3,0x8
    35b2:	9eb6                	c.add	t4,a3
    35b4:	410eda13          	srai	s4,t4,0x10
    35b8:	41fede93          	srai	t4,t4,0x1f
    35bc:	032e8eb3          	mul	t4,t4,s2
    35c0:	f149167f          	mulr64	a2,s2,s4
    35c4:	0008a483          	lw	s1,0(a7)
    35c8:	da36                	c.swsp	a3,52(sp)
    35ca:	46b9                	c.li	a3,14
    35cc:	c53a1eff          	maddr32	t4,s4,s3
    35d0:	409684b3          	sub	s1,a3,s1
    35d4:	56d2                	c.lwsp	a3,52(sp)
    35d6:	fe048a13          	addi	s4,s1,-32
    35da:	96f6                	c.add	a3,t4
    35dc:	d832                	c.swsp	a2,48(sp)
    35de:	da36                	c.swsp	a3,52(sp)
    35e0:	4146d633          	sra	a2,a3,s4
    35e4:	000a5e63          	bgez	s4,3600 <riscv_convolve_s16+0x494>
    35e8:	5ad2                	c.lwsp	s5,52(sp)
    35ea:	467d                	c.li	a2,31
    35ec:	5a42                	c.lwsp	s4,48(sp)
    35ee:	40960eb3          	sub	t4,a2,s1
    35f2:	001a9693          	slli	a3,s5,0x1
    35f6:	01d696b3          	sll	a3,a3,t4
    35fa:	009a5633          	srl	a2,s4,s1
    35fe:	8e55                	c.or	a2,a3
    3600:	0605                	c.addi	a2,1
    3602:	8605                	c.srai	a2,0x1
    3604:	f61ff06f          	j	3564 <riscv_convolve_s16+0x3f8>
    3608:	66a1                	c.lui	a3,0x8
    360a:	fff68a13          	addi	s4,a3,-1 # 7fff <riscv_depthwise_conv_3x3_s8+0x76f>
    360e:	4e81                	c.li	t4,0
    3610:	fadff06f          	j	35bc <riscv_convolve_s16+0x450>
    3614:	865a                	c.mv	a2,s6
    3616:	4681                	c.li	a3,0
    3618:	ebdff06f          	j	34d4 <riscv_convolve_s16+0x368>
    361c:	557d                	c.li	a0,-1
    361e:	b3cd                	c.j	3400 <riscv_convolve_s16+0x294>

00003620 <riscv_convolve_wrapper_s16_get_buffer_size>:
    3620:	45c8                	c.lw	a0,12(a1)
    3622:	4618                	c.lw	a4,8(a2)
    3624:	425c                	c.lw	a5,4(a2)
    3626:	02e50533          	mul	a0,a0,a4
    362a:	02f50533          	mul	a0,a0,a5
    362e:	050a                	c.slli	a0,0x2
    3630:	8082                	c.jr	ra
	...

00003634 <riscv_convolve_1x1_s8_fast>:
    3634:	7171                	c.addi16sp	sp,-176
    3636:	d326                	c.swsp	s1,164(sp)
    3638:	84ae                	c.mv	s1,a1
    363a:	498c                	c.lw	a1,16(a1)
    363c:	d706                	c.swsp	ra,172(sp)
    363e:	d522                	c.swsp	s0,168(sp)
    3640:	d14a                	c.swsp	s2,160(sp)
    3642:	cf4e                	c.swsp	s3,156(sp)
    3644:	cd52                	c.swsp	s4,152(sp)
    3646:	cb56                	c.swsp	s5,148(sp)
    3648:	c95a                	c.swsp	s6,144(sp)
    364a:	c75e                	c.swsp	s7,140(sp)
    364c:	c562                	c.swsp	s8,136(sp)
    364e:	c366                	c.swsp	s9,132(sp)
    3650:	c16a                	c.swsp	s10,128(sp)
    3652:	deee                	c.swsp	s11,124(sp)
    3654:	dc42                	c.swsp	a6,56(sp)
    3656:	30059b63          	bnez	a1,396c <riscv_convolve_1x1_s8_fast+0x338>
    365a:	0144aa83          	lw	s5,20(s1)
    365e:	300a9763          	bnez	s5,396c <riscv_convolve_1x1_s8_fast+0x338>
    3662:	8d3a                	c.mv	s10,a4
    3664:	4498                	c.lw	a4,8(s1)
    3666:	87b6                	c.mv	a5,a3
    3668:	4685                	c.li	a3,1
    366a:	30d71163          	bne	a4,a3,396c <riscv_convolve_1x1_s8_fast+0x338>
    366e:	44d4                	c.lw	a3,12(s1)
    3670:	2ee69e63          	bne	a3,a4,396c <riscv_convolve_1x1_s8_fast+0x338>
    3674:	575a                	c.lwsp	a4,180(sp)
    3676:	4114                	c.lw	a3,0(a0)
    3678:	00c72883          	lw	a7,12(a4)
    367c:	8b32                	c.mv	s6,a2
    367e:	47c0                	c.lw	s0,12(a5)
    3680:	4798                	c.lw	a4,8(a5)
    3682:	43d0                	c.lw	a2,4(a5)
    3684:	0007a803          	lw	a6,0(a5)
    3688:	8c36                	c.mv	s8,a3
    368a:	2a068163          	beqz	a3,392c <riscv_convolve_1x1_s8_fast+0x2f8>
    368e:	028706b3          	mul	a3,a4,s0
    3692:	c0b6                	c.swsp	a3,64(sp)
    3694:	56da                	c.lwsp	a3,180(sp)
    3696:	42cc                	c.lw	a1,4(a3)
    3698:	0086a903          	lw	s2,8(a3)
    369c:	11005063          	blez	a6,379c <riscv_convolve_1x1_s8_fast+0x168>
    36a0:	02b906b3          	mul	a3,s2,a1
    36a4:	d4d6                	c.swsp	s5,104(sp)
    36a6:	00141a13          	slli	s4,s0,0x1
    36aa:	8ac6                	c.mv	s5,a7
    36ac:	4989                	c.li	s3,2
    36ae:	88ea                	c.mv	a7,s10
    36b0:	8d26                	c.mv	s10,s1
    36b2:	84da                	c.mv	s1,s6
    36b4:	c8b6                	c.swsp	a3,80(sp)
    36b6:	c282                	c.swsp	zero,68(sp)
    36b8:	cac2                	c.swsp	a6,84(sp)
    36ba:	de2e                	c.swsp	a1,60(sp)
    36bc:	ccaa                	c.swsp	a0,88(sp)
    36be:	cebe                	c.swsp	a5,92(sp)
    36c0:	57f2                	c.lwsp	a5,60(sp)
    36c2:	06f05963          	blez	a5,3734 <riscv_convolve_1x1_s8_fast+0x100>
    36c6:	556a                	c.lwsp	a0,184(sp)
    36c8:	010a9793          	slli	a5,s5,0x10
    36cc:	4b01                	c.li	s6,0
    36ce:	83c1                	c.srli	a5,0x10
    36d0:	c4d6                	c.swsp	s5,72(sp)
    36d2:	8cda                	c.mv	s9,s6
    36d4:	8aaa                	c.mv	s5,a0
    36d6:	8be2                	c.mv	s7,s8
    36d8:	d802                	c.swsp	zero,48(sp)
    36da:	d446                	c.swsp	a7,40(sp)
    36dc:	da3e                	c.swsp	a5,52(sp)
    36de:	c6c6                	c.swsp	a7,76(sp)
    36e0:	5da2                	c.lwsp	s11,40(sp)
    36e2:	4b01                	c.li	s6,0
    36e4:	03205263          	blez	s2,3708 <riscv_convolve_1x1_s8_fast+0xd4>
    36e8:	000d1683          	lh	a3,0(s10)
    36ec:	85de                	c.mv	a1,s7
    36ee:	856e                	c.mv	a0,s11
    36f0:	8622                	c.mv	a2,s0
    36f2:	0c85                	c.addi	s9,1
    36f4:	014b8bb3          	add	s7,s7,s4
    36f8:	5e5020ef          	jal	ra,64dc <riscv_s8_to_s16_unordered_with_offset>
    36fc:	073c8263          	beq	s9,s3,3760 <riscv_convolve_1x1_s8_fast+0x12c>
    3700:	0b05                	c.addi	s6,1
    3702:	9da2                	c.add	s11,s0
    3704:	ff6912e3          	bne	s2,s6,36e8 <riscv_convolve_1x1_s8_fast+0xb4>
    3708:	080a8863          	beqz	s5,3798 <riscv_convolve_1x1_s8_fast+0x164>
    370c:	5722                	c.lwsp	a4,40(sp)
    370e:	4686                	c.lwsp	a3,64(sp)
    3710:	57c2                	c.lwsp	a5,48(sp)
    3712:	9736                	c.add	a4,a3
    3714:	0785                	c.addi	a5,1
    3716:	d43a                	c.swsp	a4,40(sp)
    3718:	5772                	c.lwsp	a4,60(sp)
    371a:	d83e                	c.swsp	a5,48(sp)
    371c:	fcf712e3          	bne	a4,a5,36e0 <riscv_convolve_1x1_s8_fast+0xac>
    3720:	8556                	c.mv	a0,s5
    3722:	48b6                	c.lwsp	a7,76(sp)
    3724:	04812a83          	lw	s5,72(sp)
    3728:	080c9a63          	bnez	s9,37bc <riscv_convolve_1x1_s8_fast+0x188>
    372c:	47f6                	c.lwsp	a5,92(sp)
    372e:	4798                	c.lw	a4,8(a5)
    3730:	0047a603          	lw	a2,4(a5)
    3734:	57ea                	c.lwsp	a5,184(sp)
    3736:	46c6                	c.lwsp	a3,80(sp)
    3738:	02c705b3          	mul	a1,a4,a2
    373c:	c55697ff          	maddr32	a5,a3,s5
    3740:	46d6                	c.lwsp	a3,84(sp)
    3742:	dd3e                	c.swsp	a5,184(sp)
    3744:	4796                	c.lwsp	a5,68(sp)
    3746:	c48598ff          	maddr32	a7,a1,s0
    374a:	0785                	c.addi	a5,1
    374c:	c2be                	c.swsp	a5,68(sp)
    374e:	22f68163          	beq	a3,a5,3970 <riscv_convolve_1x1_s8_fast+0x33c>
    3752:	57da                	c.lwsp	a5,180(sp)
    3754:	00c7aa83          	lw	s5,12(a5)
    3758:	47e6                	c.lwsp	a5,88(sp)
    375a:	439c                	c.lw	a5,0(a5)
    375c:	8c3e                	c.mv	s8,a5
    375e:	b78d                	c.j	36c0 <riscv_convolve_1x1_s8_fast+0x8c>
    3760:	024d1883          	lh	a7,36(s10)
    3764:	020d1803          	lh	a6,32(s10)
    3768:	004d2783          	lw	a5,4(s10)
    376c:	4098                	c.lw	a4,0(s1)
    376e:	40d4                	c.lw	a3,4(s1)
    3770:	534a                	c.lwsp	t1,176(sp)
    3772:	5652                	c.lwsp	a2,52(sp)
    3774:	5562                	c.lwsp	a0,56(sp)
    3776:	85e2                	c.mv	a1,s8
    3778:	0b05                	c.addi	s6,1
    377a:	c656                	c.swsp	s5,12(sp)
    377c:	c41a                	c.swsp	t1,8(sp)
    377e:	c222                	c.swsp	s0,4(sp)
    3780:	c022                	c.swsp	s0,0(sp)
    3782:	9da2                	c.add	s11,s0
    3784:	169000ef          	jal	ra,40ec <riscv_nn_mat_mult_kernel_s8_s16>
    3788:	8be2                	c.mv	s7,s8
    378a:	8aaa                	c.mv	s5,a0
    378c:	00000c93          	li	s9,0
    3790:	f5691ce3          	bne	s2,s6,36e8 <riscv_convolve_1x1_s8_fast+0xb4>
    3794:	f60a9ce3          	bnez	s5,370c <riscv_convolve_1x1_s8_fast+0xd8>
    3798:	ffe00a93          	li	s5,-2
    379c:	50ba                	c.lwsp	ra,172(sp)
    379e:	542a                	c.lwsp	s0,168(sp)
    37a0:	549a                	c.lwsp	s1,164(sp)
    37a2:	590a                	c.lwsp	s2,160(sp)
    37a4:	49fa                	c.lwsp	s3,156(sp)
    37a6:	4a6a                	c.lwsp	s4,152(sp)
    37a8:	4b4a                	c.lwsp	s6,144(sp)
    37aa:	4bba                	c.lwsp	s7,140(sp)
    37ac:	4c2a                	c.lwsp	s8,136(sp)
    37ae:	4c9a                	c.lwsp	s9,132(sp)
    37b0:	4d0a                	c.lwsp	s10,128(sp)
    37b2:	5df6                	c.lwsp	s11,124(sp)
    37b4:	8556                	c.mv	a0,s5
    37b6:	4ada                	c.lwsp	s5,148(sp)
    37b8:	614d                	c.addi16sp	sp,176
    37ba:	8082                	c.jr	ra
    37bc:	f75058e3          	blez	s5,372c <riscv_convolve_1x1_s8_fast+0xf8>
    37c0:	40245713          	srai	a4,s0,0x2
    37c4:	01071b93          	slli	s7,a4,0x10
    37c8:	010bdb93          	srli	s7,s7,0x10
    37cc:	fffb8713          	addi	a4,s7,-1
    37d0:	0742                	c.slli	a4,0x10
    37d2:	00347f93          	andi	t6,s0,3
    37d6:	8341                	c.srli	a4,0x10
    37d8:	0705                	c.addi	a4,1
    37da:	ffff8593          	addi	a1,t6,-1
    37de:	01059793          	slli	a5,a1,0x10
    37e2:	00371613          	slli	a2,a4,0x3
    37e6:	83c1                	c.srli	a5,0x10
    37e8:	9662                	c.add	a2,s8
    37ea:	00271593          	slli	a1,a4,0x2
    37ee:	da22                	c.swsp	s0,52(sp)
    37f0:	5862                	c.lwsp	a6,56(sp)
    37f2:	8462                	c.mv	s0,s8
    37f4:	534a                	c.lwsp	t1,176(sp)
    37f6:	5c06                	c.lwsp	s8,96(sp)
    37f8:	5c96                	c.lwsp	s9,100(sp)
    37fa:	01550f33          	add	t5,a0,s5
    37fe:	d852                	c.swsp	s4,48(sp)
    3800:	c4d6                	c.swsp	s5,72(sp)
    3802:	c6ca                	c.swsp	s2,76(sp)
    3804:	4281                	c.li	t0,0
    3806:	00178d93          	addi	s11,a5,1
    380a:	4b09                	c.li	s6,2
    380c:	4381                	c.li	t2,0
    380e:	40000e37          	lui	t3,0x40000
    3812:	4e81                	c.li	t4,0
    3814:	4685                	c.li	a3,1
    3816:	8abe                	c.mv	s5,a5
    3818:	892e                	c.mv	s2,a1
    381a:	8a32                	c.mv	s4,a2
    381c:	07112623          	sw	a7,108(sp)
    3820:	4701                	c.li	a4,0
    3822:	00030563          	beqz	t1,382c <riscv_convolve_1x1_s8_fast+0x1f8>
    3826:	005307b3          	add	a5,t1,t0
    382a:	4398                	c.lw	a4,0(a5)
    382c:	0e0b8c63          	beqz	s7,3924 <riscv_convolve_1x1_s8_fast+0x2f0>
    3830:	012808b3          	add	a7,a6,s2
    3834:	8622                	c.mv	a2,s0
    3836:	d472                	c.swsp	t3,40(sp)
    3838:	03d12623          	sw	t4,44(sp)
    383c:	00082783          	lw	a5,0(a6)
    3840:	8c3e                	c.mv	s8,a5
    3842:	8cbe                	c.mv	s9,a5
    3844:	0811                	c.addi	a6,4
    3846:	de8c05ff          	wexti	a1,s8,8
    384a:	ac9585ff          	sunpkd820	a1,a1
    384e:	ac9787ff          	sunpkd820	a5,a5
    3852:	00062e83          	lw	t4,0(a2) # 40000000 <_DATA_LMA_START+0x1fff4c20>
    3856:	49d7977f          	kmada	a4,a5,t4
    385a:	00460793          	addi	a5,a2,4
    385e:	439c                	c.lw	a5,0(a5)
    3860:	0621                	c.addi	a2,8
    3862:	48f5977f          	kmada	a4,a1,a5
    3866:	fd181be3          	bne	a6,a7,383c <riscv_convolve_1x1_s8_fast+0x208>
    386a:	5e22                	c.lwsp	t3,40(sp)
    386c:	5eb2                	c.lwsp	t4,44(sp)
    386e:	87d2                	c.mv	a5,s4
    3870:	01100833          	add	a6,zero,a7
    3874:	020f8a63          	beqz	t6,38a8 <riscv_convolve_1x1_s8_fast+0x274>
    3878:	00079583          	lh	a1,0(a5)
    387c:	00088603          	lb	a2,0(a7)
    3880:	c4c5977f          	maddr32	a4,a1,a2
    3884:	020a8063          	beqz	s5,38a4 <riscv_convolve_1x1_s8_fast+0x270>
    3888:	00279583          	lh	a1,2(a5)
    388c:	00188603          	lb	a2,1(a7)
    3890:	c4c5977f          	maddr32	a4,a1,a2
    3894:	016f8863          	beq	t6,s6,38a4 <riscv_convolve_1x1_s8_fast+0x270>
    3898:	00288603          	lb	a2,2(a7)
    389c:	00479783          	lh	a5,4(a5)
    38a0:	c4f6177f          	maddr32	a4,a2,a5
    38a4:	01b88833          	add	a6,a7,s11
    38a8:	40dc                	c.lw	a5,4(s1)
    38aa:	408c                	c.lw	a1,0(s1)
    38ac:	9796                	c.add	a5,t0
    38ae:	4390                	c.lw	a2,0(a5)
    38b0:	005587b3          	add	a5,a1,t0
    38b4:	438c                	c.lw	a1,0(a5)
    38b6:	f27607ff          	maxw	a5,a2,t2
    38ba:	00f718b3          	sll	a7,a4,a5
    38be:	8772                	c.mv	a4,t3
    38c0:	87f6                	c.mv	a5,t4
    38c2:	84b8977f          	smar64	a4,a7,a1
    38c6:	40c00633          	neg	a2,a2
    38ca:	f276067f          	maxw	a2,a2,t2
    38ce:	00c695b3          	sll	a1,a3,a2
    38d2:	dff7077f          	wexti	a4,a4,31
    38d6:	fff58793          	addi	a5,a1,-1
    38da:	4017d593          	srai	a1,a5,0x1
    38de:	00072893          	slti	a7,a4,0
    38e2:	8ff9                	c.and	a5,a4
    38e4:	95c6                	c.add	a1,a7
    38e6:	00f5a7b3          	slt	a5,a1,a5
    38ea:	40c75733          	sra	a4,a4,a2
    38ee:	973e                	c.add	a4,a5
    38f0:	004d2783          	lw	a5,4(s10)
    38f4:	020d2603          	lw	a2,32(s10)
    38f8:	024d2583          	lw	a1,36(s10)
    38fc:	97ba                	c.add	a5,a4
    38fe:	f2c787ff          	maxw	a5,a5,a2
    3902:	0505                	c.addi	a0,1
    3904:	f0b787ff          	minw	a5,a5,a1
    3908:	fef50fa3          	sb	a5,-1(a0)
    390c:	0291                	c.addi	t0,4
    390e:	f1e519e3          	bne	a0,t5,3820 <riscv_convolve_1x1_s8_fast+0x1ec>
    3912:	5a42                	c.lwsp	s4,48(sp)
    3914:	5452                	c.lwsp	s0,52(sp)
    3916:	4aa6                	c.lwsp	s5,72(sp)
    3918:	4936                	c.lwsp	s2,76(sp)
    391a:	58b6                	c.lwsp	a7,108(sp)
    391c:	d0e2                	c.swsp	s8,96(sp)
    391e:	d2e6                	c.swsp	s9,100(sp)
    3920:	e0dff06f          	j	372c <riscv_convolve_1x1_s8_fast+0xf8>
    3924:	87a2                	c.mv	a5,s0
    3926:	88c2                	c.mv	a7,a6
    3928:	f49ff06f          	j	3870 <riscv_convolve_1x1_s8_fast+0x23c>
    392c:	02c70733          	mul	a4,a4,a2
    3930:	0244af03          	lw	t5,36(s1)
    3934:	0204ae83          	lw	t4,32(s1)
    3938:	03070833          	mul	a6,a4,a6
    393c:	0044ae03          	lw	t3,4(s1)
    3940:	0004a303          	lw	t1,0(s1)
    3944:	004b2783          	lw	a5,4(s6)
    3948:	000b2703          	lw	a4,0(s6)
    394c:	56ea                	c.lwsp	a3,184(sp)
    394e:	564a                	c.lwsp	a2,176(sp)
    3950:	55e2                	c.lwsp	a1,56(sp)
    3952:	856a                	c.mv	a0,s10
    3954:	cc22                	c.swsp	s0,24(sp)
    3956:	ca46                	c.swsp	a7,20(sp)
    3958:	c87a                	c.swsp	t5,16(sp)
    395a:	c676                	c.swsp	t4,12(sp)
    395c:	c472                	c.swsp	t3,8(sp)
    395e:	c21a                	c.swsp	t1,4(sp)
    3960:	00812023          	sw	s0,0(sp)
    3964:	635010ef          	jal	ra,5798 <riscv_nn_mat_mult_nt_t_s8>
    3968:	e35ff06f          	j	379c <riscv_convolve_1x1_s8_fast+0x168>
    396c:	5afd                	c.li	s5,-1
    396e:	b53d                	c.j	379c <riscv_convolve_1x1_s8_fast+0x168>
    3970:	5aa6                	c.lwsp	s5,104(sp)
    3972:	b52d                	c.j	379c <riscv_convolve_1x1_s8_fast+0x168>

00003974 <riscv_convolve_s8>:
    3974:	4108                	c.lw	a0,0(a0)
    3976:	7125                	c.addi16sp	sp,-416
    3978:	18812c23          	sw	s0,408(sp)
    397c:	19512223          	sw	s5,388(sp)
    3980:	842a                	c.mv	s0,a0
    3982:	d12a                	c.swsp	a0,160(sp)
    3984:	18112e23          	sw	ra,412(sp)
    3988:	18912a23          	sw	s1,404(sp)
    398c:	19212823          	sw	s2,400(sp)
    3990:	19312623          	sw	s3,396(sp)
    3994:	19412423          	sw	s4,392(sp)
    3998:	19612023          	sw	s6,384(sp)
    399c:	17712e23          	sw	s7,380(sp)
    39a0:	17812c23          	sw	s8,376(sp)
    39a4:	17912a23          	sw	s9,372(sp)
    39a8:	17a12823          	sw	s10,368(sp)
    39ac:	17b12623          	sw	s11,364(sp)
    39b0:	d2ba                	c.swsp	a4,100(sp)
    39b2:	1a412503          	lw	a0,420(sp)
    39b6:	1a812883          	lw	a7,424(sp)
    39ba:	1ac12a83          	lw	s5,428(sp)
    39be:	72040563          	beqz	s0,40e8 <riscv_convolve_s8+0x774>
    39c2:	00c6ae03          	lw	t3,12(a3)
    39c6:	00c7a303          	lw	t1,12(a5)
    39ca:	010e1e93          	slli	t4,t3,0x10
    39ce:	01031713          	slli	a4,t1,0x10
    39d2:	010ede93          	srli	t4,t4,0x10
    39d6:	8341                	c.srli	a4,0x10
    39d8:	02eed433          	divu	s0,t4,a4
    39dc:	6741                	c.lui	a4,0x10
    39de:	177d                	c.addi	a4,-1
    39e0:	00ee7eb3          	and	t4,t3,a4
    39e4:	0087ae03          	lw	t3,8(a5)
    39e8:	43dc                	c.lw	a5,4(a5)
    39ea:	00ee74b3          	and	s1,t3,a4
    39ee:	8ff9                	c.and	a5,a4
    39f0:	d63e                	c.swsp	a5,44(sp)
    39f2:	02f487b3          	mul	a5,s1,a5
    39f6:	00e37bb3          	and	s7,t1,a4
    39fa:	89c2                	c.mv	s3,a6
    39fc:	037787b3          	mul	a5,a5,s7
    3a00:	00c8a803          	lw	a6,12(a7)
    3a04:	0006ae03          	lw	t3,0(a3)
    3a08:	dfc2                	c.swsp	a6,252(sp)
    3a0a:	cebe                	c.swsp	a5,92(sp)
    3a0c:	00e87833          	and	a6,a6,a4
    3a10:	469c                	c.lw	a5,8(a3)
    3a12:	42d8                	c.lw	a4,4(a3)
    3a14:	4dd4                	c.lw	a3,28(a1)
    3a16:	0088af03          	lw	t5,8(a7)
    3a1a:	d836                	c.swsp	a3,48(sp)
    3a1c:	41d4                	c.lw	a3,4(a1)
    3a1e:	0048a303          	lw	t1,4(a7)
    3a22:	c3b6                	c.swsp	a3,196(sp)
    3a24:	5194                	c.lw	a3,32(a1)
    3a26:	00062903          	lw	s2,0(a2)
    3a2a:	10d12223          	sw	a3,260(sp)
    3a2e:	51d4                	c.lw	a3,36(a1)
    3a30:	0105af83          	lw	t6,16(a1)
    3a34:	d1b6                	c.swsp	a3,224(sp)
    3a36:	4194                	c.lw	a3,0(a1)
    3a38:	0145a883          	lw	a7,20(a1)
    3a3c:	d3b6                	c.swsp	a3,228(sp)
    3a3e:	0085a383          	lw	t2,8(a1)
    3a42:	00c5a283          	lw	t0,12(a1)
    3a46:	0185ac03          	lw	s8,24(a1)
    3a4a:	dd22                	c.swsp	s0,184(sp)
    3a4c:	d4f6                	c.swsp	t4,104(sp)
    3a4e:	cbc2                	c.swsp	a6,212(sp)
    3a50:	424c                	c.lw	a1,4(a2)
    3a52:	02884633          	div	a2,a6,s0
    3a56:	028ee6b3          	rem	a3,t4,s0
    3a5a:	cfb2                	c.swsp	a2,220(sp)
    3a5c:	68069663          	bnez	a3,40e8 <riscv_convolve_s8+0x774>
    3a60:	02886433          	rem	s0,a6,s0
    3a64:	68041263          	bnez	s0,40e8 <riscv_convolve_s8+0x774>
    3a68:	66050c63          	beqz	a0,40e0 <riscv_convolve_s8+0x76c>
    3a6c:	4150                	c.lw	a2,4(a0)
    3a6e:	4514                	c.lw	a3,8(a0)
    3a70:	1679                	c.addi	a2,-2
    3a72:	16f9                	c.addi	a3,-2
    3a74:	00163613          	seqz	a2,a2
    3a78:	0016b693          	seqz	a3,a3
    3a7c:	c8b2                	c.swsp	a2,80(sp)
    3a7e:	d0b6                	c.swsp	a3,96(sp)
    3a80:	66c1                	c.lui	a3,0x10
    3a82:	16fd                	c.addi	a3,-1
    3a84:	5606                	c.lwsp	a2,96(sp)
    3a86:	00d7fa33          	and	s4,a5,a3
    3a8a:	40ca5633          	sra	a2,s4,a2
    3a8e:	47f6                	c.lwsp	a5,92(sp)
    3a90:	8f75                	c.and	a4,a3
    3a92:	d332                	c.swsp	a2,164(sp)
    3a94:	4646                	c.lwsp	a2,80(sp)
    3a96:	de3a                	c.swsp	a4,60(sp)
    3a98:	0037f693          	andi	a3,a5,3
    3a9c:	0af12a23          	sw	a5,180(sp)
    3aa0:	40c75733          	sra	a4,a4,a2
    3aa4:	62069a63          	bnez	a3,40d8 <riscv_convolve_s8+0x764>
    3aa8:	5fc05a63          	blez	t3,409c <riscv_convolve_s8+0x728>
    3aac:	67c1                	c.lui	a5,0x10
    3aae:	17fd                	c.addi	a5,-1
    3ab0:	4b76                	c.lwsp	s6,92(sp)
    3ab2:	00f8f633          	and	a2,a7,a5
    3ab6:	02ca0533          	mul	a0,s4,a2
    3aba:	c332                	c.swsp	a2,132(sp)
    3abc:	402b5613          	srai	a2,s6,0x2
    3ac0:	0642                	c.slli	a2,0x10
    3ac2:	8241                	c.srli	a2,0x10
    3ac4:	589a                	c.lwsp	a7,164(sp)
    3ac6:	12c12023          	sw	a2,288(sp)
    3aca:	167d                	c.addi	a2,-1
    3acc:	00ff7f33          	and	t5,t5,a5
    3ad0:	031708b3          	mul	a7,a4,a7
    3ad4:	00f37333          	and	t1,t1,a5
    3ad8:	40a00733          	neg	a4,a0
    3adc:	00fff533          	and	a0,t6,a5
    3ae0:	00f2ffb3          	and	t6,t0,a5
    3ae4:	00f3f2b3          	and	t0,t2,a5
    3ae8:	01061793          	slli	a5,a2,0x10
    3aec:	03748cb3          	mul	s9,s1,s7
    3af0:	83c1                	c.srli	a5,0x10
    3af2:	d59a                	c.swsp	t1,232(sp)
    3af4:	d6fa                	c.swsp	t5,108(sp)
    3af6:	03e30333          	mul	t1,t1,t5
    3afa:	40a70f33          	sub	t5,a4,a0
    3afe:	00178713          	addi	a4,a5,1 # 10001 <_RAMCODE_VMA_END+0x4d71>
    3b02:	57b2                	c.lwsp	a5,44(sp)
    3b04:	43fe                	c.lwsp	t2,220(sp)
    3b06:	039787b3          	mul	a5,a5,s9
    3b0a:	5ea6                	c.lwsp	t4,104(sp)
    3b0c:	10a12a23          	sw	a0,276(sp)
    3b10:	c1be                	c.swsp	a5,192(sp)
    3b12:	027b07b3          	mul	a5,s6,t2
    3b16:	03da0833          	mul	a6,s4,t4
    3b1a:	03d88633          	mul	a2,a7,t4
    3b1e:	12f12223          	sw	a5,292(sp)
    3b22:	47de                	c.lwsp	a5,212(sp)
    3b24:	038e8b33          	mul	s6,t4,s8
    3b28:	02f30533          	mul	a0,t1,a5
    3b2c:	87c2                	c.mv	a5,a6
    3b2e:	030f8833          	mul	a6,t6,a6
    3b32:	531e                	c.lwsp	t1,228(sp)
    3b34:	03df0f33          	mul	t5,t5,t4
    3b38:	11012423          	sw	a6,264(sp)
    3b3c:	025e8833          	mul	a6,t4,t0
    3b40:	5e8a                	c.lwsp	t4,160(sp)
    3b42:	40600333          	neg	t1,t1
    3b46:	dec2                	c.swsp	a6,124(sp)
    3b48:	5842                	c.lwsp	a6,48(sp)
    3b4a:	fff68893          	addi	a7,a3,-1 # ffff <_RAMCODE_VMA_END+0x4d6f>
    3b4e:	02f807b3          	mul	a5,a6,a5
    3b52:	01069d13          	slli	s10,a3,0x10
    3b56:	dc66                	c.swsp	s9,56(sp)
    3b58:	da3e                	c.swsp	a5,52(sp)
    3b5a:	57da                	c.lwsp	a5,180(sp)
    3b5c:	01831c93          	slli	s9,t1,0x18
    3b60:	00179813          	slli	a6,a5,0x1
    3b64:	00371793          	slli	a5,a4,0x3
    3b68:	97f6                	c.add	a5,t4
    3b6a:	070a                	c.slli	a4,0x2
    3b6c:	010d5d13          	srli	s10,s10,0x10
    3b70:	418cdc93          	srai	s9,s9,0x18
    3b74:	12e12423          	sw	a4,296(sp)
    3b78:	12f12623          	sw	a5,300(sp)
    3b7c:	4701                	c.li	a4,0
    3b7e:	01089793          	slli	a5,a7,0x10
    3b82:	00239693          	slli	a3,t2,0x2
    3b86:	83c1                	c.srli	a5,0x10
    3b88:	8de2                	c.mv	s11,s8
    3b8a:	83ea                	c.mv	t2,s10
    3b8c:	8c26                	c.mv	s8,s1
    3b8e:	cf42                	c.swsp	a6,156(sp)
    3b90:	12b12c23          	sw	a1,312(sp)
    3b94:	9876                	c.add	a6,t4
    3b96:	85d6                	c.mv	a1,s5
    3b98:	84ba                	c.mv	s1,a4
    3b9a:	8ada                	c.mv	s5,s6
    3b9c:	8d66                	c.mv	s10,s9
    3b9e:	8b32                	c.mv	s6,a2
    3ba0:	864e                	c.mv	a2,s3
    3ba2:	89d2                	c.mv	s3,s4
    3ba4:	11f12623          	sw	t6,268(sp)
    3ba8:	c116                	c.swsp	t0,128(sp)
    3baa:	df42                	c.swsp	a6,188(sp)
    3bac:	10d12023          	sw	a3,256(sp)
    3bb0:	10f12823          	sw	a5,272(sp)
    3bb4:	11212c23          	sw	s2,280(sp)
    3bb8:	12812e23          	sw	s0,316(sp)
    3bbc:	57ea                	c.lwsp	a5,184(sp)
    3bbe:	20078d63          	beqz	a5,3dd8 <riscv_convolve_s8+0x464>
    3bc2:	13812683          	lw	a3,312(sp)
    3bc6:	5796                	c.lwsp	a5,100(sp)
    3bc8:	547a                	c.lwsp	s0,188(sp)
    3bca:	d936                	c.swsp	a3,176(sp)
    3bcc:	11812683          	lw	a3,280(sp)
    3bd0:	01e78733          	add	a4,a5,t5
    3bd4:	4781                	c.li	a5,0
    3bd6:	5e8a                	c.lwsp	t4,160(sp)
    3bd8:	d736                	c.swsp	a3,172(sp)
    3bda:	d9ba                	c.swsp	a4,240(sp)
    3bdc:	1a012683          	lw	a3,416(sp)
    3be0:	8722                	c.mv	a4,s0
    3be2:	10f12e23          	sw	a5,284(sp)
    3be6:	87d6                	c.mv	a5,s5
    3be8:	846e                	c.mv	s0,s11
    3bea:	8aa6                	c.mv	s5,s1
    3bec:	892e                	c.mv	s2,a1
    3bee:	82b2                	c.mv	t0,a2
    3bf0:	881e                	c.mv	a6,t2
    3bf2:	8332                	c.mv	t1,a2
    3bf4:	84be                	c.mv	s1,a5
    3bf6:	8dba                	c.mv	s11,a4
    3bf8:	d536                	c.swsp	a3,168(sp)
    3bfa:	ccf6                	c.swsp	t4,88(sp)
    3bfc:	15e12023          	sw	t5,320(sp)
    3c00:	14a12223          	sw	a0,324(sp)
    3c04:	15c12423          	sw	t3,328(sp)
    3c08:	57ae                	c.lwsp	a5,232(sp)
    3c0a:	854a                	c.mv	a0,s2
    3c0c:	48078463          	beqz	a5,4094 <riscv_convolve_s8+0x720>
    3c10:	10411783          	lh	a5,260(sp)
    3c14:	574e                	c.lwsp	a4,240(sp)
    3c16:	4681                	c.li	a3,0
    3c18:	4601                	c.li	a2,0
    3c1a:	c682                	c.swsp	zero,76(sp)
    3c1c:	c9be                	c.swsp	a5,208(sp)
    3c1e:	15212623          	sw	s2,332(sp)
    3c22:	15512823          	sw	s5,336(sp)
    3c26:	15012a23          	sw	a6,340(sp)
    3c2a:	c796                	c.swsp	t0,204(sp)
    3c2c:	15612c23          	sw	s6,344(sp)
    3c30:	14612e23          	sw	t1,348(sp)
    3c34:	1ab12623          	sw	a1,428(sp)
    3c38:	03a12423          	sw	s10,40(sp)
    3c3c:	57b6                	c.lwsp	a5,108(sp)
    3c3e:	10078763          	beqz	a5,3d4c <riscv_convolve_s8+0x3d8>
    3c42:	47f6                	c.lwsp	a5,92(sp)
    3c44:	c4ba                	c.swsp	a4,72(sp)
    3c46:	40f007b3          	neg	a5,a5
    3c4a:	d8be                	c.swsp	a5,112(sp)
    3c4c:	0e411783          	lh	a5,228(sp)
    3c50:	ca82                	c.swsp	zero,84(sp)
    3c52:	cb2a                	c.swsp	a0,148(sp)
    3c54:	dabe                	c.swsp	a5,116(sp)
    3c56:	11412783          	lw	a5,276(sp)
    3c5a:	dcb2                	c.swsp	a2,120(sp)
    3c5c:	40f007b3          	neg	a5,a5
    3c60:	c0be                	c.swsp	a5,64(sp)
    3c62:	0e011783          	lh	a5,224(sp)
    3c66:	dbb6                	c.swsp	a3,244(sp)
    3c68:	ddba                	c.swsp	a4,248(sp)
    3c6a:	c5be                	c.swsp	a5,200(sp)
    3c6c:	0fc15783          	lhu	a5,252(sp)
    3c70:	d7be                	c.swsp	a5,236(sp)
    3c72:	0dc15783          	lhu	a5,220(sp)
    3c76:	cdbe                	c.swsp	a5,216(sp)
    3c78:	4746                	c.lwsp	a4,80(sp)
    3c7a:	4785                	c.li	a5,1
    3c7c:	1af70263          	beq	a4,a5,3e20 <riscv_convolve_s8+0x4ac>
    3c80:	5706                	c.lwsp	a4,96(sp)
    3c82:	18f70f63          	beq	a4,a5,3e20 <riscv_convolve_s8+0x4ac>
    3c86:	57b2                	c.lwsp	a5,44(sp)
    3c88:	cfa5                	c.beqz	a5,3d00 <riscv_convolve_s8+0x38c>
    3c8a:	57e6                	c.lwsp	a5,120(sp)
    3c8c:	471a                	c.lwsp	a4,132(sp)
    3c8e:	4d01                	c.li	s10,0
    3c90:	40e78b33          	sub	s6,a5,a4
    3c94:	876e                	c.mv	a4,s11
    3c96:	47a6                	c.lwsp	a5,72(sp)
    3c98:	8dea                	c.mv	s11,s10
    3c9a:	8d3a                	c.mv	s10,a4
    3c9c:	040c0863          	beqz	s8,3cec <riscv_convolve_s8+0x378>
    3ca0:	5772                	c.lwsp	a4,60(sp)
    3ca2:	14eb7563          	bgeu	s6,a4,3dec <riscv_convolve_s8+0x478>
    3ca6:	4c81                	c.li	s9,0
    3ca8:	c2da                	c.swsp	s6,68(sp)
    3caa:	4906                	c.lwsp	s2,64(sp)
    3cac:	8b66                	c.mv	s6,s9
    3cae:	8a3e                	c.mv	s4,a5
    3cb0:	8aea                	c.mv	s5,s10
    3cb2:	8cbe                	c.mv	s9,a5
    3cb4:	0140006f          	j	3cc8 <riscv_convolve_s8+0x354>
    3cb8:	0b05                	c.addi	s6,1
    3cba:	9ade                	c.add	s5,s7
    3cbc:	9922                	c.add	s2,s0
    3cbe:	9a26                	c.add	s4,s1
    3cc0:	627050ef          	jal	ra,9ae6 <memset>
    3cc4:	036c0063          	beq	s8,s6,3ce4 <riscv_convolve_s8+0x370>
    3cc8:	55a2                	c.lwsp	a1,40(sp)
    3cca:	865e                	c.mv	a2,s7
    3ccc:	8556                	c.mv	a0,s5
    3cce:	ff3975e3          	bgeu	s2,s3,3cb8 <riscv_convolve_s8+0x344>
    3cd2:	85d2                	c.mv	a1,s4
    3cd4:	0b05                	c.addi	s6,1
    3cd6:	9ade                	c.add	s5,s7
    3cd8:	9922                	c.add	s2,s0
    3cda:	9a26                	c.add	s4,s1
    3cdc:	511050ef          	jal	ra,99ec <memcpy>
    3ce0:	ff6c14e3          	bne	s8,s6,3cc8 <riscv_convolve_s8+0x354>
    3ce4:	5762                	c.lwsp	a4,56(sp)
    3ce6:	4b16                	c.lwsp	s6,68(sp)
    3ce8:	87e6                	c.mv	a5,s9
    3cea:	9d3a                	c.add	s10,a4
    3cec:	5752                	c.lwsp	a4,52(sp)
    3cee:	0d85                	c.addi	s11,1
    3cf0:	97ba                	c.add	a5,a4
    3cf2:	5742                	c.lwsp	a4,48(sp)
    3cf4:	9b3a                	c.add	s6,a4
    3cf6:	5732                	c.lwsp	a4,44(sp)
    3cf8:	fbb712e3          	bne	a4,s11,3c9c <riscv_convolve_s8+0x328>
    3cfc:	01a00db3          	add	s11,zero,s10
    3d00:	57c6                	c.lwsp	a5,112(sp)
    3d02:	4966                	c.lwsp	s2,88(sp)
    3d04:	56d6                	c.lwsp	a3,116(sp)
    3d06:	4676                	c.lwsp	a2,92(sp)
    3d08:	00fd8533          	add	a0,s11,a5
    3d0c:	012005b3          	add	a1,zero,s2
    3d10:	7cc020ef          	jal	ra,64dc <riscv_s8_to_s16_unordered_with_offset>
    3d14:	47b6                	c.lwsp	a5,76(sp)
    3d16:	0785                	c.addi	a5,1
    3d18:	873e                	c.mv	a4,a5
    3d1a:	c6be                	c.swsp	a5,76(sp)
    3d1c:	4789                	c.li	a5,2
    3d1e:	1cf70763          	beq	a4,a5,3eec <riscv_convolve_s8+0x578>
    3d22:	47fa                	c.lwsp	a5,156(sp)
    3d24:	97ca                	c.add	a5,s2
    3d26:	ccbe                	c.swsp	a5,88(sp)
    3d28:	4726                	c.lwsp	a4,72(sp)
    3d2a:	56f6                	c.lwsp	a3,124(sp)
    3d2c:	47d6                	c.lwsp	a5,84(sp)
    3d2e:	9736                	c.add	a4,a3
    3d30:	c4ba                	c.swsp	a4,72(sp)
    3d32:	468a                	c.lwsp	a3,128(sp)
    3d34:	4706                	c.lwsp	a4,64(sp)
    3d36:	0785                	c.addi	a5,1
    3d38:	9736                	c.add	a4,a3
    3d3a:	c0ba                	c.swsp	a4,64(sp)
    3d3c:	5736                	c.lwsp	a4,108(sp)
    3d3e:	cabe                	c.swsp	a5,84(sp)
    3d40:	f2e79ce3          	bne	a5,a4,3c78 <riscv_convolve_s8+0x304>
    3d44:	455a                	c.lwsp	a0,148(sp)
    3d46:	5666                	c.lwsp	a2,120(sp)
    3d48:	56de                	c.lwsp	a3,244(sp)
    3d4a:	576e                	c.lwsp	a4,248(sp)
    3d4c:	10812783          	lw	a5,264(sp)
    3d50:	0685                	c.addi	a3,1
    3d52:	973e                	c.add	a4,a5
    3d54:	10c12783          	lw	a5,268(sp)
    3d58:	963e                	c.add	a2,a5
    3d5a:	57ae                	c.lwsp	a5,232(sp)
    3d5c:	eef690e3          	bne	a3,a5,3c3c <riscv_convolve_s8+0x2c8>
    3d60:	14c12903          	lw	s2,332(sp)
    3d64:	15012a83          	lw	s5,336(sp)
    3d68:	15412803          	lw	a6,340(sp)
    3d6c:	42be                	c.lwsp	t0,204(sp)
    3d6e:	15812b03          	lw	s6,344(sp)
    3d72:	15c12303          	lw	t1,348(sp)
    3d76:	1ac12583          	lw	a1,428(sp)
    3d7a:	5d22                	c.lwsp	s10,40(sp)
    3d7c:	30050e63          	beqz	a0,4098 <riscv_convolve_s8+0x724>
    3d80:	04c12783          	lw	a5,76(sp)
    3d84:	1c079863          	bnez	a5,3f54 <riscv_convolve_s8+0x5e0>
    3d88:	11c12783          	lw	a5,284(sp)
    3d8c:	56aa                	c.lwsp	a3,168(sp)
    3d8e:	00178713          	addi	a4,a5,1
    3d92:	12412783          	lw	a5,292(sp)
    3d96:	10e12e23          	sw	a4,284(sp)
    3d9a:	92be                	c.add	t0,a5
    3d9c:	10012783          	lw	a5,256(sp)
    3da0:	96be                	c.add	a3,a5
    3da2:	d536                	c.swsp	a3,168(sp)
    3da4:	56ba                	c.lwsp	a3,172(sp)
    3da6:	96be                	c.add	a3,a5
    3da8:	d736                	c.swsp	a3,172(sp)
    3daa:	56ca                	c.lwsp	a3,176(sp)
    3dac:	97b6                	c.add	a5,a3
    3dae:	d93e                	c.swsp	a5,176(sp)
    3db0:	47fe                	c.lwsp	a5,220(sp)
    3db2:	993e                	c.add	s2,a5
    3db4:	57ce                	c.lwsp	a5,240(sp)
    3db6:	97de                	c.add	a5,s7
    3db8:	d9be                	c.swsp	a5,240(sp)
    3dba:	57ea                	c.lwsp	a5,184(sp)
    3dbc:	e4e796e3          	bne	a5,a4,3c08 <riscv_convolve_s8+0x294>
    3dc0:	87a6                	c.mv	a5,s1
    3dc2:	14012f03          	lw	t5,320(sp)
    3dc6:	14412503          	lw	a0,324(sp)
    3dca:	14812e03          	lw	t3,328(sp)
    3dce:	84d6                	c.mv	s1,s5
    3dd0:	8da2                	c.mv	s11,s0
    3dd2:	83c2                	c.mv	t2,a6
    3dd4:	861a                	c.mv	a2,t1
    3dd6:	8abe                	c.mv	s5,a5
    3dd8:	5796                	c.lwsp	a5,100(sp)
    3dda:	0485                	c.addi	s1,1
    3ddc:	97da                	c.add	a5,s6
    3dde:	d2be                	c.swsp	a5,100(sp)
    3de0:	95aa                	c.add	a1,a0
    3de2:	dc9e1de3          	bne	t3,s1,3bbc <riscv_convolve_s8+0x248>
    3de6:	13c12403          	lw	s0,316(sp)
    3dea:	ac4d                	c.j	409c <riscv_convolve_s8+0x728>
    3dec:	5922                	c.lwsp	s2,40(sp)
    3dee:	4c81                	c.li	s9,0
    3df0:	8aea                	c.mv	s5,s10
    3df2:	8a3e                	c.mv	s4,a5
    3df4:	8556                	c.mv	a0,s5
    3df6:	0c85                	c.addi	s9,1
    3df8:	865e                	c.mv	a2,s7
    3dfa:	85ca                	c.mv	a1,s2
    3dfc:	017a8ab3          	add	s5,s5,s7
    3e00:	4e7050ef          	jal	ra,9ae6 <memset>
    3e04:	ff9c18e3          	bne	s8,s9,3df4 <riscv_convolve_s8+0x480>
    3e08:	5762                	c.lwsp	a4,56(sp)
    3e0a:	87d2                	c.mv	a5,s4
    3e0c:	9d3a                	c.add	s10,a4
    3e0e:	5752                	c.lwsp	a4,52(sp)
    3e10:	0d85                	c.addi	s11,1
    3e12:	97ba                	c.add	a5,a4
    3e14:	5742                	c.lwsp	a4,48(sp)
    3e16:	9b3a                	c.add	s6,a4
    3e18:	5732                	c.lwsp	a4,44(sp)
    3e1a:	e9b711e3          	bne	a4,s11,3c9c <riscv_convolve_s8+0x328>
    3e1e:	bdf9                	c.j	3cfc <riscv_convolve_s8+0x388>
    3e20:	460e                	c.lwsp	a2,192(sp)
    3e22:	55a2                	c.lwsp	a1,40(sp)
    3e24:	01b00533          	add	a0,zero,s11
    3e28:	4bf050ef          	jal	ra,9ae6 <memset>
    3e2c:	5632                	c.lwsp	a2,44(sp)
    3e2e:	ec0609e3          	beqz	a2,3d00 <riscv_convolve_s8+0x38c>
    3e32:	471a                	c.lwsp	a4,132(sp)
    3e34:	57e6                	c.lwsp	a5,120(sp)
    3e36:	8d62                	c.mv	s10,s8
    3e38:	8f99                	c.sub	a5,a4
    3e3a:	4701                	c.li	a4,0
    3e3c:	8c22                	c.mv	s8,s0
    3e3e:	8cba                	c.mv	s9,a4
    3e40:	844e                	c.mv	s0,s3
    3e42:	55f2                	c.lwsp	a1,60(sp)
    3e44:	59e2                	c.lwsp	s3,56(sp)
    3e46:	5742                	c.lwsp	a4,48(sp)
    3e48:	8abe                	c.mv	s5,a5
    3e4a:	cd26                	c.swsp	s1,152(sp)
    3e4c:	00bafa63          	bgeu	s5,a1,3e60 <riscv_convolve_s8+0x4ec>
    3e50:	001af793          	andi	a5,s5,1
    3e54:	c395                	c.beqz	a5,3e78 <riscv_convolve_s8+0x504>
    3e56:	47c6                	c.lwsp	a5,80(sp)
    3e58:	00100693          	li	a3,1
    3e5c:	00d79e63          	bne	a5,a3,3e78 <riscv_convolve_s8+0x504>
    3e60:	013d8db3          	add	s11,s11,s3
    3e64:	0c85                	c.addi	s9,1
    3e66:	9aba                	c.add	s5,a4
    3e68:	ff9612e3          	bne	a2,s9,3e4c <riscv_convolve_s8+0x4d8>
    3e6c:	89a2                	c.mv	s3,s0
    3e6e:	44ea                	c.lwsp	s1,152(sp)
    3e70:	8462                	c.mv	s0,s8
    3e72:	8c6a                	c.mv	s8,s10
    3e74:	e8dff06f          	j	3d00 <riscv_convolve_s8+0x38c>
    3e78:	47c6                	c.lwsp	a5,80(sp)
    3e7a:	40fad333          	sra	t1,s5,a5
    3e7e:	fe0d03e3          	beqz	s10,3e64 <riscv_convolve_s8+0x4f0>
    3e82:	579a                	c.lwsp	a5,164(sp)
    3e84:	4906                	c.lwsp	s2,64(sp)
    3e86:	02f304b3          	mul	s1,t1,a5
    3e8a:	87d6                	c.mv	a5,s5
    3e8c:	c2ce                	c.swsp	s3,68(sp)
    3e8e:	8b26                	c.mv	s6,s1
    3e90:	5486                	c.lwsp	s1,96(sp)
    3e92:	89ea                	c.mv	s3,s10
    3e94:	8ade                	c.mv	s5,s7
    3e96:	4a01                	c.li	s4,0
    3e98:	8ba2                	c.mv	s7,s0
    3e9a:	8d6e                	c.mv	s10,s11
    3e9c:	8462                	c.mv	s0,s8
    3e9e:	8c3e                	c.mv	s8,a5
    3ea0:	c53a                	c.swsp	a4,136(sp)
    3ea2:	c732                	c.swsp	a2,140(sp)
    3ea4:	08b12823          	sw	a1,144(sp)
    3ea8:	0a05                	c.addi	s4,1
    3eaa:	00197713          	andi	a4,s2,1
    3eae:	01797f63          	bgeu	s2,s7,3ecc <riscv_convolve_s8+0x558>
    3eb2:	5596                	c.lwsp	a1,100(sp)
    3eb4:	57a6                	c.lwsp	a5,104(sp)
    3eb6:	409956b3          	sra	a3,s2,s1
    3eba:	96da                	c.add	a3,s6
    3ebc:	c4f695ff          	maddr32	a1,a3,a5
    3ec0:	856a                	c.mv	a0,s10
    3ec2:	8656                	c.mv	a2,s5
    3ec4:	c311                	c.beqz	a4,3ec8 <riscv_convolve_s8+0x554>
    3ec6:	e099                	c.bnez	s1,3ecc <riscv_convolve_s8+0x558>
    3ec8:	325050ef          	jal	ra,99ec <memcpy>
    3ecc:	9d56                	c.add	s10,s5
    3ece:	9922                	c.add	s2,s0
    3ed0:	fd499ce3          	bne	s3,s4,3ea8 <riscv_convolve_s8+0x534>
    3ed4:	87e2                	c.mv	a5,s8
    3ed6:	8d4e                	c.mv	s10,s3
    3ed8:	8c22                	c.mv	s8,s0
    3eda:	472a                	c.lwsp	a4,136(sp)
    3edc:	845e                	c.mv	s0,s7
    3ede:	4996                	c.lwsp	s3,68(sp)
    3ee0:	8bd6                	c.mv	s7,s5
    3ee2:	463a                	c.lwsp	a2,140(sp)
    3ee4:	45ca                	c.lwsp	a1,144(sp)
    3ee6:	8abe                	c.mv	s5,a5
    3ee8:	f79ff06f          	j	3e60 <riscv_convolve_s8+0x4ec>
    3eec:	57ea                	c.lwsp	a5,184(sp)
    3eee:	4705                	c.li	a4,1
    3ef0:	48ae                	c.lwsp	a7,200(sp)
    3ef2:	484e                	c.lwsp	a6,208(sp)
    3ef4:	02e78a63          	beq	a5,a4,3f28 <riscv_convolve_s8+0x5b4>
    3ef8:	435a                	c.lwsp	t1,148(sp)
    3efa:	590a                	c.lwsp	s2,160(sp)
    3efc:	c81a                	c.swsp	t1,16(sp)
    3efe:	435e                	c.lwsp	t1,212(sp)
    3f00:	479e                	c.lwsp	a5,196(sp)
    3f02:	c61a                	c.swsp	t1,12(sp)
    3f04:	532a                	c.lwsp	t1,168(sp)
    3f06:	573a                	c.lwsp	a4,172(sp)
    3f08:	c41a                	c.swsp	t1,8(sp)
    3f0a:	535a                	c.lwsp	t1,180(sp)
    3f0c:	56ca                	c.lwsp	a3,176(sp)
    3f0e:	c21a                	c.swsp	t1,4(sp)
    3f10:	466e                	c.lwsp	a2,216(sp)
    3f12:	4376                	c.lwsp	t1,92(sp)
    3f14:	453e                	c.lwsp	a0,204(sp)
    3f16:	85ca                	c.mv	a1,s2
    3f18:	c01a                	c.swsp	t1,0(sp)
    3f1a:	c682                	c.swsp	zero,76(sp)
    3f1c:	0b4010ef          	jal	ra,4fd0 <riscv_nn_mat_mult_kernel_row_offset_s8_s16>
    3f20:	5dfa                	c.lwsp	s11,188(sp)
    3f22:	cb2a                	c.swsp	a0,148(sp)
    3f24:	ccca                	c.swsp	s2,88(sp)
    3f26:	b509                	c.j	3d28 <riscv_convolve_s8+0x3b4>
    3f28:	435a                	c.lwsp	t1,148(sp)
    3f2a:	590a                	c.lwsp	s2,160(sp)
    3f2c:	c61a                	c.swsp	t1,12(sp)
    3f2e:	532a                	c.lwsp	t1,168(sp)
    3f30:	479e                	c.lwsp	a5,196(sp)
    3f32:	c41a                	c.swsp	t1,8(sp)
    3f34:	535a                	c.lwsp	t1,180(sp)
    3f36:	573a                	c.lwsp	a4,172(sp)
    3f38:	c21a                	c.swsp	t1,4(sp)
    3f3a:	56ca                	c.lwsp	a3,176(sp)
    3f3c:	4376                	c.lwsp	t1,92(sp)
    3f3e:	563e                	c.lwsp	a2,236(sp)
    3f40:	453e                	c.lwsp	a0,204(sp)
    3f42:	85ca                	c.mv	a1,s2
    3f44:	c01a                	c.swsp	t1,0(sp)
    3f46:	c682                	c.swsp	zero,76(sp)
    3f48:	1a4000ef          	jal	ra,40ec <riscv_nn_mat_mult_kernel_s8_s16>
    3f4c:	5dfa                	c.lwsp	s11,188(sp)
    3f4e:	cb2a                	c.swsp	a0,148(sp)
    3f50:	ccca                	c.swsp	s2,88(sp)
    3f52:	bbd9                	c.j	3d28 <riscv_convolve_s8+0x3b4>
    3f54:	47fe                	c.lwsp	a5,220(sp)
    3f56:	12078763          	beqz	a5,4084 <riscv_convolve_s8+0x710>
    3f5a:	11012783          	lw	a5,272(sp)
    3f5e:	8cce                	c.mv	s9,s3
    3f60:	d44a                	c.swsp	s2,40(sp)
    3f62:	13412983          	lw	s3,308(sp)
    3f66:	13012903          	lw	s2,304(sp)
    3f6a:	8696                	c.mv	a3,t0
    3f6c:	4881                	c.li	a7,0
    3f6e:	00178e13          	addi	t3,a5,1
    3f72:	4f89                	c.li	t6,2
    3f74:	4e81                	c.li	t4,0
    3f76:	4f05                	c.li	t5,1
    3f78:	00800db3          	add	s11,zero,s0
    3f7c:	57aa                	c.lwsp	a5,168(sp)
    3f7e:	4601                	c.li	a2,0
    3f80:	c781                	c.beqz	a5,3f88 <riscv_convolve_s8+0x614>
    3f82:	97c6                	c.add	a5,a7
    3f84:	0007a603          	lw	a2,0(a5)
    3f88:	12012783          	lw	a5,288(sp)
    3f8c:	10078063          	beqz	a5,408c <riscv_convolve_s8+0x718>
    3f90:	12812783          	lw	a5,296(sp)
    3f94:	538a                	c.lwsp	t2,160(sp)
    3f96:	97b6                	c.add	a5,a3
    3f98:	1ab12623          	sw	a1,428(sp)
    3f9c:	4298                	c.lw	a4,0(a3)
    3f9e:	893a                	c.mv	s2,a4
    3fa0:	89ba                	c.mv	s3,a4
    3fa2:	0691                	c.addi	a3,4
    3fa4:	de89047f          	wexti	s0,s2,8
    3fa8:	ac94047f          	sunpkd820	s0,s0
    3fac:	ac97077f          	sunpkd820	a4,a4
    3fb0:	0003a583          	lw	a1,0(t2)
    3fb4:	48b7167f          	kmada	a2,a4,a1
    3fb8:	00438713          	addi	a4,t2,4
    3fbc:	4318                	c.lw	a4,0(a4)
    3fbe:	03a1                	c.addi	t2,8
    3fc0:	48e4167f          	kmada	a2,s0,a4
    3fc4:	fcf69ce3          	bne	a3,a5,3f9c <riscv_convolve_s8+0x628>
    3fc8:	1ac12583          	lw	a1,428(sp)
    3fcc:	12c12703          	lw	a4,300(sp)
    3fd0:	86be                	c.mv	a3,a5
    3fd2:	02080b63          	beqz	a6,4008 <riscv_convolve_s8+0x694>
    3fd6:	00078683          	lb	a3,0(a5)
    3fda:	00071383          	lh	t2,0(a4) # 10000 <_RAMCODE_VMA_END+0x4d70>
    3fde:	c4d3967f          	maddr32	a2,t2,a3
    3fe2:	11012683          	lw	a3,272(sp)
    3fe6:	ce99                	c.beqz	a3,4004 <riscv_convolve_s8+0x690>
    3fe8:	00271383          	lh	t2,2(a4)
    3fec:	00178683          	lb	a3,1(a5)
    3ff0:	c4d3967f          	maddr32	a2,t2,a3
    3ff4:	01f80863          	beq	a6,t6,4004 <riscv_convolve_s8+0x690>
    3ff8:	00278683          	lb	a3,2(a5)
    3ffc:	00471703          	lh	a4,4(a4)
    4000:	c4e6967f          	maddr32	a2,a3,a4
    4004:	01c786b3          	add	a3,a5,t3
    4008:	57ca                	c.lwsp	a5,176(sp)
    400a:	40000737          	lui	a4,0x40000
    400e:	97c6                	c.add	a5,a7
    4010:	0007a383          	lw	t2,0(a5)
    4014:	57ba                	c.lwsp	a5,172(sp)
    4016:	0505                	c.addi	a0,1
    4018:	97c6                	c.add	a5,a7
    401a:	4380                	c.lw	s0,0(a5)
    401c:	f3d387ff          	maxw	a5,t2,t4
    4020:	00f61633          	sll	a2,a2,a5
    4024:	4781                	c.li	a5,0
    4026:	8486177f          	smar64	a4,a2,s0
    402a:	40700633          	neg	a2,t2
    402e:	f3d6067f          	maxw	a2,a2,t4
    4032:	00cf13b3          	sll	t2,t5,a2
    4036:	dff7077f          	wexti	a4,a4,31
    403a:	fff38793          	addi	a5,t2,-1
    403e:	4017d393          	srai	t2,a5,0x1
    4042:	00072413          	slti	s0,a4,0
    4046:	8ff9                	c.and	a5,a4
    4048:	93a2                	c.add	t2,s0
    404a:	00f3a7b3          	slt	a5,t2,a5
    404e:	40c75733          	sra	a4,a4,a2
    4052:	973e                	c.add	a4,a5
    4054:	479e                	c.lwsp	a5,196(sp)
    4056:	0891                	c.addi	a7,4
    4058:	97ba                	c.add	a5,a4
    405a:	10412703          	lw	a4,260(sp)
    405e:	f2f707ff          	maxw	a5,a4,a5
    4062:	570e                	c.lwsp	a4,224(sp)
    4064:	f0f707ff          	minw	a5,a4,a5
    4068:	fef50fa3          	sb	a5,-1(a0)
    406c:	10012783          	lw	a5,256(sp)
    4070:	f11796e3          	bne	a5,a7,3f7c <riscv_convolve_s8+0x608>
    4074:	13212823          	sw	s2,304(sp)
    4078:	5922                	c.lwsp	s2,40(sp)
    407a:	13312a23          	sw	s3,308(sp)
    407e:	846e                	c.mv	s0,s11
    4080:	019009b3          	add	s3,zero,s9
    4084:	578a                	c.lwsp	a5,160(sp)
    4086:	5dfa                	c.lwsp	s11,188(sp)
    4088:	ccbe                	c.swsp	a5,88(sp)
    408a:	b9fd                	c.j	3d88 <riscv_convolve_s8+0x414>
    408c:	570a                	c.lwsp	a4,160(sp)
    408e:	87b6                	c.mv	a5,a3
    4090:	f41ff06f          	j	3fd0 <riscv_convolve_s8+0x65c>
    4094:	ce091ae3          	bnez	s2,3d88 <riscv_convolve_s8+0x414>
    4098:	ffe00413          	li	s0,-2
    409c:	19c12083          	lw	ra,412(sp)
    40a0:	8522                	c.mv	a0,s0
    40a2:	19812403          	lw	s0,408(sp)
    40a6:	19412483          	lw	s1,404(sp)
    40aa:	19012903          	lw	s2,400(sp)
    40ae:	18c12983          	lw	s3,396(sp)
    40b2:	18812a03          	lw	s4,392(sp)
    40b6:	18412a83          	lw	s5,388(sp)
    40ba:	18012b03          	lw	s6,384(sp)
    40be:	17c12b83          	lw	s7,380(sp)
    40c2:	17812c03          	lw	s8,376(sp)
    40c6:	17412c83          	lw	s9,372(sp)
    40ca:	17012d03          	lw	s10,368(sp)
    40ce:	16c12d83          	lw	s11,364(sp)
    40d2:	611d                	c.addi16sp	sp,416
    40d4:	00008067          	ret
    40d8:	0791                	c.addi	a5,4
    40da:	8f95                	c.sub	a5,a3
    40dc:	db3e                	c.swsp	a5,180(sp)
    40de:	b2e9                	c.j	3aa8 <riscv_convolve_s8+0x134>
    40e0:	d082                	c.swsp	zero,96(sp)
    40e2:	c882                	c.swsp	zero,80(sp)
    40e4:	99dff06f          	j	3a80 <riscv_convolve_s8+0x10c>
    40e8:	547d                	c.li	s0,-1
    40ea:	bf4d                	c.j	409c <riscv_convolve_s8+0x728>

000040ec <riscv_nn_mat_mult_kernel_s8_s16>:
    40ec:	7119                	c.addi16sp	sp,-128
    40ee:	dea2                	c.swsp	s0,124(sp)
    40f0:	443a                	c.lwsp	s0,140(sp)
    40f2:	82b2                	c.mv	t0,a2
    40f4:	dca6                	c.swsp	s1,120(sp)
    40f6:	daca                	c.swsp	s2,116(sp)
    40f8:	00165493          	srli	s1,a2,0x1
    40fc:	d0de                	c.swsp	s7,96(sp)
    40fe:	cee2                	c.swsp	s8,92(sp)
    4100:	caea                	c.swsp	s10,84(sp)
    4102:	c8ee                	c.swsp	s11,80(sp)
    4104:	d8ce                	c.swsp	s3,112(sp)
    4106:	d6d2                	c.swsp	s4,108(sp)
    4108:	d4d6                	c.swsp	s5,104(sp)
    410a:	d2da                	c.swsp	s6,100(sp)
    410c:	cce6                	c.swsp	s9,88(sp)
    410e:	cc2e                	c.swsp	a1,24(sp)
    4110:	491a                	c.lwsp	s2,132(sp)
    4112:	462a                	c.lwsp	a2,136(sp)
    4114:	8fb6                	c.mv	t6,a3
    4116:	8bbe                	c.mv	s7,a5
    4118:	8d42                	c.mv	s10,a6
    411a:	8dc6                	c.mv	s11,a7
    411c:	00540c33          	add	s8,s0,t0
    4120:	48048c63          	beqz	s1,45b8 <riscv_nn_mat_mult_kernel_s8_s16+0x4cc>
    4124:	478a                	c.lwsp	a5,128(sp)
    4126:	882e                	c.mv	a6,a1
    4128:	4027d893          	srai	a7,a5,0x2
    412c:	00191793          	slli	a5,s2,0x1
    4130:	00f58f33          	add	t5,a1,a5
    4134:	00389693          	slli	a3,a7,0x3
    4138:	458a                	c.lwsp	a1,128(sp)
    413a:	d27a                	c.swsp	t5,36(sp)
    413c:	9f36                	c.add	t5,a3
    413e:	96c2                	c.add	a3,a6
    4140:	00149793          	slli	a5,s1,0x1
    4144:	d636                	c.swsp	a3,44(sp)
    4146:	00289693          	slli	a3,a7,0x2
    414a:	898d                	c.andi	a1,3
    414c:	00fc09b3          	add	s3,s8,a5
    4150:	d436                	c.swsp	a3,40(sp)
    4152:	8b3a                	c.mv	s6,a4
    4154:	86a2                	c.mv	a3,s0
    4156:	8a7e                	c.mv	s4,t6
    4158:	4c85                	c.li	s9,1
    415a:	4a81                	c.li	s5,0
    415c:	d046                	c.swsp	a7,32(sp)
    415e:	ce4e                	c.swsp	s3,28(sp)
    4160:	d87a                	c.swsp	t5,48(sp)
    4162:	da26                	c.swsp	s1,52(sp)
    4164:	c42e                	c.swsp	a1,8(sp)
    4166:	dc3e                	c.swsp	a5,56(sp)
    4168:	de16                	c.swsp	t0,60(sp)
    416a:	c0fe                	c.swsp	t6,64(sp)
    416c:	04e12223          	sw	a4,68(sp)
    4170:	478a                	c.lwsp	a5,128(sp)
    4172:	00f509b3          	add	s3,a0,a5
    4176:	42060563          	beqz	a2,45a0 <riscv_nn_mat_mult_kernel_s8_s16+0x4b4>
    417a:	5902                	c.lwsp	s2,32(sp)
    417c:	00062803          	lw	a6,0(a2)
    4180:	424c                	c.lw	a1,4(a2)
    4182:	0621                	c.addi	a2,8
    4184:	42090463          	beqz	s2,45ac <riscv_nn_mat_mult_kernel_s8_s16+0x4c0>
    4188:	5292                	c.lwsp	t0,36(sp)
    418a:	4fe2                	c.lwsp	t6,24(sp)
    418c:	ca6e                	c.swsp	s11,20(sp)
    418e:	88ae                	c.mv	a7,a1
    4190:	8dea                	c.mv	s11,s10
    4192:	8f42                	c.mv	t5,a6
    4194:	8d5e                	c.mv	s10,s7
    4196:	84ce                	c.mv	s1,s3
    4198:	842a                	c.mv	s0,a0
    419a:	8baa                	c.mv	s7,a0
    419c:	c636                	c.swsp	a3,12(sp)
    419e:	c862                	c.swsp	s8,16(sp)
    41a0:	08c12423          	sw	a2,136(sp)
    41a4:	000fa503          	lw	a0,0(t6)
    41a8:	0002a603          	lw	a2,0(t0)
    41ac:	4018                	c.lw	a4,0(s0)
    41ae:	833a                	c.mv	t1,a4
    41b0:	83ba                	c.mv	t2,a4
    41b2:	0411                	c.addi	s0,4
    41b4:	de830c7f          	wexti	s8,t1,8
    41b8:	ac9c0c7f          	sunpkd820	s8,s8
    41bc:	ac97077f          	sunpkd820	a4,a4
    41c0:	409c                	c.lw	a5,0(s1)
    41c2:	8e3e                	c.mv	t3,a5
    41c4:	8ebe                	c.mv	t4,a5
    41c6:	0491                	c.addi	s1,4
    41c8:	de8e06ff          	wexti	a3,t3,8
    41cc:	ac9686ff          	sunpkd820	a3,a3
    41d0:	ac9787ff          	sunpkd820	a5,a5
    41d4:	48a7187f          	kmada	a6,a4,a0
    41d8:	48c71f7f          	kmada	t5,a4,a2
    41dc:	48a795ff          	kmada	a1,a5,a0
    41e0:	48c798ff          	kmada	a7,a5,a2
    41e4:	004f8713          	addi	a4,t6,4
    41e8:	4318                	c.lw	a4,0(a4)
    41ea:	0fa1                	c.addi	t6,8
    41ec:	00428793          	addi	a5,t0,4
    41f0:	439c                	c.lw	a5,0(a5)
    41f2:	02a1                	c.addi	t0,8
    41f4:	48ec187f          	kmada	a6,s8,a4
    41f8:	48fc1f7f          	kmada	t5,s8,a5
    41fc:	48e695ff          	kmada	a1,a3,a4
    4200:	48f698ff          	kmada	a7,a3,a5
    4204:	197d                	c.addi	s2,-1
    4206:	f8091fe3          	bnez	s2,41a4 <riscv_nn_mat_mult_kernel_s8_s16+0xb8>
    420a:	57a2                	c.lwsp	a5,40(sp)
    420c:	855e                	c.mv	a0,s7
    420e:	99be                	c.add	s3,a5
    4210:	8bea                	c.mv	s7,s10
    4212:	953e                	c.add	a0,a5
    4214:	8d6e                	c.mv	s10,s11
    4216:	46b2                	c.lwsp	a3,12(sp)
    4218:	4c42                	c.lwsp	s8,16(sp)
    421a:	4dd2                	c.lwsp	s11,20(sp)
    421c:	462a                	c.lwsp	a2,136(sp)
    421e:	57c2                	c.lwsp	a5,48(sp)
    4220:	02c12703          	lw	a4,44(sp)
    4224:	4922                	c.lwsp	s2,8(sp)
    4226:	06090963          	beqz	s2,4298 <riscv_nn_mat_mult_kernel_s8_s16+0x1ac>
    422a:	00050483          	lb	s1,0(a0)
    422e:	00071403          	lh	s0,0(a4) # 40000000 <_DATA_LMA_START+0x1fff4c20>
    4232:	00079f83          	lh	t6,0(a5)
    4236:	00098283          	lb	t0,0(s3)
    423a:	c494187f          	maddr32	a6,s0,s1
    423e:	c49f9f7f          	maddr32	t5,t6,s1
    4242:	c48295ff          	maddr32	a1,t0,s0
    4246:	c5f298ff          	maddr32	a7,t0,t6
    424a:	05990563          	beq	s2,s9,4294 <riscv_nn_mat_mult_kernel_s8_s16+0x1a8>
    424e:	00271403          	lh	s0,2(a4)
    4252:	00150483          	lb	s1,1(a0)
    4256:	00198283          	lb	t0,1(s3)
    425a:	00279f83          	lh	t6,2(a5)
    425e:	c494187f          	maddr32	a6,s0,s1
    4262:	c48295ff          	maddr32	a1,t0,s0
    4266:	4409                	c.li	s0,2
    4268:	c49f9f7f          	maddr32	t5,t6,s1
    426c:	c5f298ff          	maddr32	a7,t0,t6
    4270:	02890263          	beq	s2,s0,4294 <riscv_nn_mat_mult_kernel_s8_s16+0x1a8>
    4274:	00250f83          	lb	t6,2(a0)
    4278:	00471703          	lh	a4,4(a4)
    427c:	00479783          	lh	a5,4(a5)
    4280:	00298283          	lb	t0,2(s3)
    4284:	c4ef987f          	maddr32	a6,t6,a4
    4288:	c4ff9f7f          	maddr32	t5,t6,a5
    428c:	c45715ff          	maddr32	a1,a4,t0
    4290:	c45798ff          	maddr32	a7,a5,t0
    4294:	47a2                	c.lwsp	a5,8(sp)
    4296:	953e                	c.add	a0,a5
    4298:	000a2f83          	lw	t6,0(s4)
    429c:	000b2283          	lw	t0,0(s6)
    42a0:	f35f87ff          	maxw	a5,t6,s5
    42a4:	00f81833          	sll	a6,a6,a5
    42a8:	40000737          	lui	a4,0x40000
    42ac:	4781                	c.li	a5,0
    42ae:	8458177f          	smar64	a4,a6,t0
    42b2:	41f00833          	neg	a6,t6
    42b6:	f358087f          	maxw	a6,a6,s5
    42ba:	010c9fb3          	sll	t6,s9,a6
    42be:	dff7077f          	wexti	a4,a4,31
    42c2:	ffff8793          	addi	a5,t6,-1
    42c6:	4017df93          	srai	t6,a5,0x1
    42ca:	00072293          	slti	t0,a4,0
    42ce:	8ff9                	c.and	a5,a4
    42d0:	9f96                	c.add	t6,t0
    42d2:	00ffa7b3          	slt	a5,t6,a5
    42d6:	41075733          	sra	a4,a4,a6
    42da:	973e                	c.add	a4,a5
    42dc:	975e                	c.add	a4,s7
    42de:	f3a7077f          	maxw	a4,a4,s10
    42e2:	f1b7077f          	minw	a4,a4,s11
    42e6:	00e68023          	sb	a4,0(a3)
    42ea:	000a2803          	lw	a6,0(s4)
    42ee:	000b2f83          	lw	t6,0(s6)
    42f2:	f35807ff          	maxw	a5,a6,s5
    42f6:	00ff1f33          	sll	t5,t5,a5
    42fa:	40000737          	lui	a4,0x40000
    42fe:	4781                	c.li	a5,0
    4300:	85ff177f          	smar64	a4,t5,t6
    4304:	41000833          	neg	a6,a6
    4308:	f358087f          	maxw	a6,a6,s5
    430c:	010c9f33          	sll	t5,s9,a6
    4310:	dff7077f          	wexti	a4,a4,31
    4314:	ffff0793          	addi	a5,t5,-1
    4318:	4017df13          	srai	t5,a5,0x1
    431c:	00072f93          	slti	t6,a4,0
    4320:	8ff9                	c.and	a5,a4
    4322:	9f7e                	c.add	t5,t6
    4324:	00ff27b3          	slt	a5,t5,a5
    4328:	41075733          	sra	a4,a4,a6
    432c:	973e                	c.add	a4,a5
    432e:	975e                	c.add	a4,s7
    4330:	f3a7077f          	maxw	a4,a4,s10
    4334:	f1b7077f          	minw	a4,a4,s11
    4338:	00ec0023          	sb	a4,0(s8)
    433c:	004a2803          	lw	a6,4(s4)
    4340:	004b2f03          	lw	t5,4(s6)
    4344:	f35807ff          	maxw	a5,a6,s5
    4348:	00f595b3          	sll	a1,a1,a5
    434c:	40000737          	lui	a4,0x40000
    4350:	4781                	c.li	a5,0
    4352:	85e5977f          	smar64	a4,a1,t5
    4356:	410005b3          	neg	a1,a6
    435a:	f35585ff          	maxw	a1,a1,s5
    435e:	00bc9833          	sll	a6,s9,a1
    4362:	dff7077f          	wexti	a4,a4,31
    4366:	fff80793          	addi	a5,a6,-1
    436a:	00072f13          	slti	t5,a4,0
    436e:	4017d813          	srai	a6,a5,0x1
    4372:	987a                	c.add	a6,t5
    4374:	8ff9                	c.and	a5,a4
    4376:	00f827b3          	slt	a5,a6,a5
    437a:	40b75733          	sra	a4,a4,a1
    437e:	973e                	c.add	a4,a5
    4380:	975e                	c.add	a4,s7
    4382:	f3a7077f          	maxw	a4,a4,s10
    4386:	f1b7077f          	minw	a4,a4,s11
    438a:	00e680a3          	sb	a4,1(a3)
    438e:	004a2583          	lw	a1,4(s4)
    4392:	004b2f03          	lw	t5,4(s6)
    4396:	f355887f          	maxw	a6,a1,s5
    439a:	01089833          	sll	a6,a7,a6
    439e:	40000737          	lui	a4,0x40000
    43a2:	4781                	c.li	a5,0
    43a4:	85e8177f          	smar64	a4,a6,t5
    43a8:	40b005b3          	neg	a1,a1
    43ac:	f35585ff          	maxw	a1,a1,s5
    43b0:	00bc9833          	sll	a6,s9,a1
    43b4:	dff7077f          	wexti	a4,a4,31
    43b8:	fff80793          	addi	a5,a6,-1
    43bc:	4017d813          	srai	a6,a5,0x1
    43c0:	00072893          	slti	a7,a4,0
    43c4:	8ff9                	c.and	a5,a4
    43c6:	9846                	c.add	a6,a7
    43c8:	00f827b3          	slt	a5,a6,a5
    43cc:	40b75733          	sra	a4,a4,a1
    43d0:	973e                	c.add	a4,a5
    43d2:	975e                	c.add	a4,s7
    43d4:	478a                	c.lwsp	a5,128(sp)
    43d6:	f3a7077f          	maxw	a4,a4,s10
    43da:	0c09                	c.addi	s8,2
    43dc:	f1b7077f          	minw	a4,a4,s11
    43e0:	953e                	c.add	a0,a5
    43e2:	47f2                	c.lwsp	a5,28(sp)
    43e4:	feec0fa3          	sb	a4,-1(s8)
    43e8:	0689                	c.addi	a3,2
    43ea:	0b21                	c.addi	s6,8
    43ec:	0a21                	c.addi	s4,8
    43ee:	d8fc11e3          	bne	s8,a5,4170 <riscv_nn_mat_mult_kernel_s8_s16+0x84>
    43f2:	54d2                	c.lwsp	s1,52(sp)
    43f4:	57e2                	c.lwsp	a5,56(sp)
    43f6:	4f86                	c.lwsp	t6,64(sp)
    43f8:	4716                	c.lwsp	a4,68(sp)
    43fa:	443a                	c.lwsp	s0,140(sp)
    43fc:	048e                	c.slli	s1,0x3
    43fe:	52f2                	c.lwsp	t0,60(sp)
    4400:	491a                	c.lwsp	s2,132(sp)
    4402:	943e                	c.add	s0,a5
    4404:	9726                	c.add	a4,s1
    4406:	9fa6                	c.add	t6,s1
    4408:	0012f793          	andi	a5,t0,1
    440c:	16078a63          	beqz	a5,4580 <riscv_nn_mat_mult_kernel_s8_s16+0x494>
    4410:	47e2                	c.lwsp	a5,24(sp)
    4412:	00191e93          	slli	t4,s2,0x1
    4416:	9ebe                	c.add	t4,a5
    4418:	4681                	c.li	a3,0
    441a:	c219                	c.beqz	a2,4420 <riscv_nn_mat_mult_kernel_s8_s16+0x334>
    441c:	00062683          	lw	a3,0(a2)
    4420:	478a                	c.lwsp	a5,128(sp)
    4422:	4027d393          	srai	t2,a5,0x2
    4426:	18038b63          	beqz	t2,45bc <riscv_nn_mat_mult_kernel_s8_s16+0x4d0>
    442a:	4862                	c.lwsp	a6,24(sp)
    442c:	88f6                	c.mv	a7,t4
    442e:	8f1e                	c.mv	t5,t2
    4430:	85b6                	c.mv	a1,a3
    4432:	8e2a                	c.mv	t3,a0
    4434:	00082483          	lw	s1,0(a6)
    4438:	0008a303          	lw	t1,0(a7)
    443c:	000e2783          	lw	a5,0(t3) # 40000000 <_DATA_LMA_START+0x1fff4c20>
    4440:	893e                	c.mv	s2,a5
    4442:	89be                	c.mv	s3,a5
    4444:	0e11                	c.addi	t3,4
    4446:	de89067f          	wexti	a2,s2,8
    444a:	ac96067f          	sunpkd820	a2,a2
    444e:	ac9787ff          	sunpkd820	a5,a5
    4452:	489796ff          	kmada	a3,a5,s1
    4456:	486795ff          	kmada	a1,a5,t1
    445a:	00480313          	addi	t1,a6,4
    445e:	00032303          	lw	t1,0(t1)
    4462:	0821                	c.addi	a6,8
    4464:	00488793          	addi	a5,a7,4
    4468:	439c                	c.lw	a5,0(a5)
    446a:	08a1                	c.addi	a7,8
    446c:	486616ff          	kmada	a3,a2,t1
    4470:	48f615ff          	kmada	a1,a2,a5
    4474:	1f7d                	c.addi	t5,-1
    4476:	fa0f1fe3          	bnez	t5,4434 <riscv_nn_mat_mult_kernel_s8_s16+0x348>
    447a:	4662                	c.lwsp	a2,24(sp)
    447c:	00339793          	slli	a5,t2,0x3
    4480:	038a                	c.slli	t2,0x2
    4482:	9ebe                	c.add	t4,a5
    4484:	951e                	c.add	a0,t2
    4486:	97b2                	c.add	a5,a2
    4488:	00f12c23          	sw	a5,24(sp)
    448c:	478a                	c.lwsp	a5,128(sp)
    448e:	8b8d                	c.andi	a5,3
    4490:	c7b1                	c.beqz	a5,44dc <riscv_nn_mat_mult_kernel_s8_s16+0x3f0>
    4492:	44e2                	c.lwsp	s1,24(sp)
    4494:	00050603          	lb	a2,0(a0)
    4498:	00049303          	lh	t1,0(s1)
    449c:	000e9883          	lh	a7,0(t4)
    44a0:	4805                	c.li	a6,1
    44a2:	c4c316ff          	maddr32	a3,t1,a2
    44a6:	c4c895ff          	maddr32	a1,a7,a2
    44aa:	03078963          	beq	a5,a6,44dc <riscv_nn_mat_mult_kernel_s8_s16+0x3f0>
    44ae:	00150603          	lb	a2,1(a0)
    44b2:	00249303          	lh	t1,2(s1)
    44b6:	002e9883          	lh	a7,2(t4)
    44ba:	4809                	c.li	a6,2
    44bc:	c4c316ff          	maddr32	a3,t1,a2
    44c0:	c4c895ff          	maddr32	a1,a7,a2
    44c4:	01078c63          	beq	a5,a6,44dc <riscv_nn_mat_mult_kernel_s8_s16+0x3f0>
    44c8:	00250783          	lb	a5,2(a0)
    44cc:	004e9603          	lh	a2,4(t4)
    44d0:	00449503          	lh	a0,4(s1)
    44d4:	c4f615ff          	maddr32	a1,a2,a5
    44d8:	c4f516ff          	maddr32	a3,a0,a5
    44dc:	000fae03          	lw	t3,0(t6)
    44e0:	431c                	c.lw	a5,0(a4)
    44e2:	4501                	c.li	a0,0
    44e4:	f2ae067f          	maxw	a2,t3,a0
    44e8:	40000837          	lui	a6,0x40000
    44ec:	4881                	c.li	a7,0
    44ee:	00c696b3          	sll	a3,a3,a2
    44f2:	8342                	c.mv	t1,a6
    44f4:	83c6                	c.mv	t2,a7
    44f6:	84f6937f          	smar64	t1,a3,a5
    44fa:	41c00e33          	neg	t3,t3
    44fe:	4685                	c.li	a3,1
    4500:	f2ae0e7f          	maxw	t3,t3,a0
    4504:	01c69633          	sll	a2,a3,t3
    4508:	dff307ff          	wexti	a5,t1,31
    450c:	167d                	c.addi	a2,-1
    450e:	40165313          	srai	t1,a2,0x1
    4512:	0007ae93          	slti	t4,a5,0
    4516:	8e7d                	c.and	a2,a5
    4518:	9376                	c.add	t1,t4
    451a:	00c32633          	slt	a2,t1,a2
    451e:	41c7d7b3          	sra	a5,a5,t3
    4522:	97b2                	c.add	a5,a2
    4524:	97de                	c.add	a5,s7
    4526:	f2fd07ff          	maxw	a5,s10,a5
    452a:	f0fd87ff          	minw	a5,s11,a5
    452e:	00f40023          	sb	a5,0(s0)
    4532:	000fa783          	lw	a5,0(t6)
    4536:	4318                	c.lw	a4,0(a4)
    4538:	f2a7867f          	maxw	a2,a5,a0
    453c:	00c595b3          	sll	a1,a1,a2
    4540:	84e5987f          	smar64	a6,a1,a4
    4544:	40f00733          	neg	a4,a5
    4548:	f2a7077f          	maxw	a4,a4,a0
    454c:	00e697b3          	sll	a5,a3,a4
    4550:	dff8087f          	wexti	a6,a6,31
    4554:	17fd                	c.addi	a5,-1
    4556:	4017d693          	srai	a3,a5,0x1
    455a:	00082613          	slti	a2,a6,0
    455e:	0107f7b3          	and	a5,a5,a6
    4562:	96b2                	c.add	a3,a2
    4564:	00f6a7b3          	slt	a5,a3,a5
    4568:	40e85733          	sra	a4,a6,a4
    456c:	973e                	c.add	a4,a5
    456e:	9bba                	c.add	s7,a4
    4570:	47f2                	c.lwsp	a5,28(sp)
    4572:	f37d0d7f          	maxw	s10,s10,s7
    4576:	f1ad8dff          	minw	s11,s11,s10
    457a:	0405                	c.addi	s0,1
    457c:	01b78023          	sb	s11,0(a5)
    4580:	00540533          	add	a0,s0,t0
    4584:	5476                	c.lwsp	s0,124(sp)
    4586:	54e6                	c.lwsp	s1,120(sp)
    4588:	5956                	c.lwsp	s2,116(sp)
    458a:	59c6                	c.lwsp	s3,112(sp)
    458c:	5a36                	c.lwsp	s4,108(sp)
    458e:	5aa6                	c.lwsp	s5,104(sp)
    4590:	5b16                	c.lwsp	s6,100(sp)
    4592:	5b86                	c.lwsp	s7,96(sp)
    4594:	4c76                	c.lwsp	s8,92(sp)
    4596:	4ce6                	c.lwsp	s9,88(sp)
    4598:	4d56                	c.lwsp	s10,84(sp)
    459a:	4dc6                	c.lwsp	s11,80(sp)
    459c:	6109                	c.addi16sp	sp,128
    459e:	8082                	c.jr	ra
    45a0:	5902                	c.lwsp	s2,32(sp)
    45a2:	4581                	c.li	a1,0
    45a4:	00000813          	li	a6,0
    45a8:	be0910e3          	bnez	s2,4188 <riscv_nn_mat_mult_kernel_s8_s16+0x9c>
    45ac:	5792                	c.lwsp	a5,36(sp)
    45ae:	4762                	c.lwsp	a4,24(sp)
    45b0:	88ae                	c.mv	a7,a1
    45b2:	8f42                	c.mv	t5,a6
    45b4:	c71ff06f          	j	4224 <riscv_nn_mat_mult_kernel_s8_s16+0x138>
    45b8:	ce62                	c.swsp	s8,28(sp)
    45ba:	b5b9                	c.j	4408 <riscv_nn_mat_mult_kernel_s8_s16+0x31c>
    45bc:	85b6                	c.mv	a1,a3
    45be:	b5f9                	c.j	448c <riscv_nn_mat_mult_kernel_s8_s16+0x3a0>

000045c0 <riscv_convolve_wrapper_s8_get_buffer_size>:
    45c0:	491c                	c.lw	a5,16(a0)
    45c2:	4618                	c.lw	a4,8(a2)
    45c4:	00462803          	lw	a6,4(a2)
    45c8:	86aa                	c.mv	a3,a0
    45ca:	e799                	c.bnez	a5,45d8 <riscv_convolve_wrapper_s8_get_buffer_size+0x18>
    45cc:	4948                	c.lw	a0,20(a0)
    45ce:	e509                	c.bnez	a0,45d8 <riscv_convolve_wrapper_s8_get_buffer_size+0x18>
    45d0:	00100793          	li	a5,1
    45d4:	02f70e63          	beq	a4,a5,4610 <riscv_convolve_wrapper_s8_get_buffer_size+0x50>
    45d8:	41d0                	c.lw	a2,4(a1)
    45da:	4505                	c.li	a0,1
    45dc:	45dc                	c.lw	a5,12(a1)
    45de:	00a61763          	bne	a2,a0,45ec <riscv_convolve_wrapper_s8_get_buffer_size+0x2c>
    45e2:	4e8c                	c.lw	a1,24(a3)
    45e4:	00c59463          	bne	a1,a2,45ec <riscv_convolve_wrapper_s8_get_buffer_size+0x2c>
    45e8:	04b80063          	beq	a6,a1,4628 <riscv_convolve_wrapper_s8_get_buffer_size+0x68>
    45ec:	03070733          	mul	a4,a4,a6
    45f0:	02f70533          	mul	a0,a4,a5
    45f4:	00357793          	andi	a5,a0,3
    45f8:	cb91                	c.beqz	a5,460c <riscv_convolve_wrapper_s8_get_buffer_size+0x4c>
    45fa:	41f55713          	srai	a4,a0,0x1f
    45fe:	8379                	c.srli	a4,0x1e
    4600:	00e507b3          	add	a5,a0,a4
    4604:	8b8d                	c.andi	a5,3
    4606:	0511                	c.addi	a0,4
    4608:	8f99                	c.sub	a5,a4
    460a:	8d1d                	c.sub	a0,a5
    460c:	050a                	c.slli	a0,0x2
    460e:	8082                	c.jr	ra
    4610:	fce814e3          	bne	a6,a4,45d8 <riscv_convolve_wrapper_s8_get_buffer_size+0x18>
    4614:	4e9c                	c.lw	a5,24(a3)
    4616:	01079f63          	bne	a5,a6,4634 <riscv_convolve_wrapper_s8_get_buffer_size+0x74>
    461a:	4ed0                	c.lw	a2,28(a3)
    461c:	00f60e63          	beq	a2,a5,4638 <riscv_convolve_wrapper_s8_get_buffer_size+0x78>
    4620:	41dc                	c.lw	a5,4(a1)
    4622:	00e79963          	bne	a5,a4,4634 <riscv_convolve_wrapper_s8_get_buffer_size+0x74>
    4626:	45dc                	c.lw	a5,12(a1)
    4628:	4694                	c.lw	a3,8(a3)
    462a:	02d786b3          	mul	a3,a5,a3
    462e:	8a8d                	c.andi	a3,3
    4630:	fed5                	c.bnez	a3,45ec <riscv_convolve_wrapper_s8_get_buffer_size+0x2c>
    4632:	bf7d                	c.j	45f0 <riscv_convolve_wrapper_s8_get_buffer_size+0x30>
    4634:	45dc                	c.lw	a5,12(a1)
    4636:	bf5d                	c.j	45ec <riscv_convolve_wrapper_s8_get_buffer_size+0x2c>
    4638:	469c                	c.lw	a5,8(a3)
    463a:	00c79563          	bne	a5,a2,4644 <riscv_convolve_wrapper_s8_get_buffer_size+0x84>
    463e:	46d8                	c.lw	a4,12(a3)
    4640:	00f70463          	beq	a4,a5,4648 <riscv_convolve_wrapper_s8_get_buffer_size+0x88>
    4644:	00008067          	ret
    4648:	45c8                	c.lw	a0,12(a1)
    464a:	050a                	c.slli	a0,0x2
    464c:	8082                	c.jr	ra
	...

00004650 <riscv_nn_mat_mult_kernel_s16>:
    4650:	712d                	c.addi16sp	sp,-288
    4652:	12012303          	lw	t1,288(sp)
    4656:	10812e23          	sw	s0,284(sp)
    465a:	10912c23          	sw	s1,280(sp)
    465e:	00032403          	lw	s0,0(t1)
    4662:	00434483          	lbu	s1,4(t1)
    4666:	11212a23          	sw	s2,276(sp)
    466a:	dde6                	c.swsp	s9,248(sp)
    466c:	c2a2                	c.swsp	s0,68(sp)
    466e:	8cc6                	c.mv	s9,a7
    4670:	dc2e                	c.swsp	a1,56(sp)
    4672:	11312823          	sw	s3,272(sp)
    4676:	11412623          	sw	s4,268(sp)
    467a:	11512423          	sw	s5,264(sp)
    467e:	11612223          	sw	s6,260(sp)
    4682:	11712023          	sw	s7,256(sp)
    4686:	dfe2                	c.swsp	s8,252(sp)
    4688:	dbea                	c.swsp	s10,244(sp)
    468a:	d9ee                	c.swsp	s11,240(sp)
    468c:	c0a6                	c.swsp	s1,64(sp)
    468e:	12412883          	lw	a7,292(sp)
    4692:	82b6                	c.mv	t0,a3
    4694:	85ba                	c.mv	a1,a4
    4696:	893e                	c.mv	s2,a5
    4698:	8466                	c.mv	s0,s9
    469a:	e489                	c.bnez	s1,46a4 <riscv_nn_mat_mult_kernel_s16+0x54>
    469c:	20000793          	li	a5,512
    46a0:	f0fc847f          	minw	s0,s9,a5
    46a4:	01f65793          	srli	a5,a2,0x1f
    46a8:	97b2                	c.add	a5,a2
    46aa:	00161b93          	slli	s7,a2,0x1
    46ae:	4017d393          	srai	t2,a5,0x1
    46b2:	e00c8c13          	addi	s8,s9,-512
    46b6:	017884b3          	add	s1,a7,s7
    46ba:	080387e3          	beqz	t2,4f48 <riscv_nn_mat_mult_kernel_s16+0x8f8>
    46be:	41f45793          	srai	a5,s0,0x1f
    46c2:	8b8d                	c.andi	a5,3
    46c4:	97a2                	c.add	a5,s0
    46c6:	8789                	c.srai	a5,0x2
    46c8:	07c2                	c.slli	a5,0x10
    46ca:	83c1                	c.srli	a5,0x10
    46cc:	c4be                	c.swsp	a5,72(sp)
    46ce:	17fd                	c.addi	a5,-1
    46d0:	07c2                	c.slli	a5,0x10
    46d2:	00347713          	andi	a4,s0,3
    46d6:	83c1                	c.srli	a5,0x10
    46d8:	5d62                	c.lwsp	s10,56(sp)
    46da:	0785                	c.addi	a5,1
    46dc:	c6ba                	c.swsp	a4,76(sp)
    46de:	177d                	c.addi	a4,-1
    46e0:	01071313          	slli	t1,a4,0x10
    46e4:	001c9693          	slli	a3,s9,0x1
    46e8:	00379713          	slli	a4,a5,0x3
    46ec:	078a                	c.slli	a5,0x2
    46ee:	96ea                	c.add	a3,s10
    46f0:	01035313          	srli	t1,t1,0x10
    46f4:	d63e                	c.swsp	a5,44(sp)
    46f6:	00ed07b3          	add	a5,s10,a4
    46fa:	d09a                	c.swsp	t1,96(sp)
    46fc:	cebe                	c.swsp	a5,92(sp)
    46fe:	0305                	c.addi	t1,1
    4700:	00e687b3          	add	a5,a3,a4
    4704:	ccbe                	c.swsp	a5,88(sp)
    4706:	00131793          	slli	a5,t1,0x1
    470a:	d2be                	c.swsp	a5,100(sp)
    470c:	4796                	c.lwsp	a5,68(sp)
    470e:	010c1993          	slli	s3,s8,0x10
    4712:	0109d993          	srli	s3,s3,0x10
    4716:	cabe                	c.swsp	a5,84(sp)
    4718:	4db2                	c.lwsp	s11,12(sp)
    471a:	010c1793          	slli	a5,s8,0x10
    471e:	83c1                	c.srli	a5,0x10
    4720:	d6ce                	c.swsp	s3,108(sp)
    4722:	dd5e                	c.swsp	s7,184(sp)
    4724:	00448993          	addi	s3,s1,4
    4728:	00828b13          	addi	s6,t0,8
    472c:	00858a93          	addi	s5,a1,8
    4730:	00488a13          	addi	s4,a7,4
    4734:	8b9e                	c.mv	s7,t2
    4736:	4d22                	c.lwsp	s10,8(sp)
    4738:	c8b6                	c.swsp	a3,80(sp)
    473a:	d49a                	c.swsp	t1,104(sp)
    473c:	db3e                	c.swsp	a5,180(sp)
    473e:	df22                	c.swsp	s0,188(sp)
    4740:	c1e2                	c.swsp	s8,192(sp)
    4742:	c39e                	c.swsp	t2,196(sp)
    4744:	c5a6                	c.swsp	s1,200(sp)
    4746:	c44e                	c.swsp	s3,8(sp)
    4748:	c7b2                	c.swsp	a2,204(sp)
    474a:	c996                	c.swsp	t0,208(sp)
    474c:	cbae                	c.swsp	a1,212(sp)
    474e:	de4a                	c.swsp	s2,60(sp)
    4750:	13112223          	sw	a7,292(sp)
    4754:	47a6                	c.lwsp	a5,72(sp)
    4756:	01950c33          	add	s8,a0,s9
    475a:	6c078b63          	beqz	a5,4e30 <riscv_nn_mat_mult_kernel_s16+0x7e0>
    475e:	57b2                	c.lwsp	a5,44(sp)
    4760:	4446                	c.lwsp	s0,80(sp)
    4762:	53e2                	c.lwsp	t2,56(sp)
    4764:	d86a                	c.swsp	s10,48(sp)
    4766:	da6e                	c.swsp	s11,52(sp)
    4768:	00f508b3          	add	a7,a0,a5
    476c:	8de6                	c.mv	s11,s9
    476e:	84e2                	c.mv	s1,s8
    4770:	4301                	c.li	t1,0
    4772:	4601                	c.li	a2,0
    4774:	4281                	c.li	t0,0
    4776:	4581                	c.li	a1,0
    4778:	8d52                	c.mv	s10,s4
    477a:	8cc2                	c.mv	s9,a6
    477c:	0003a803          	lw	a6,0(t2)
    4780:	00042903          	lw	s2,0(s0)
    4784:	411c                	c.lw	a5,0(a0)
    4786:	8e3e                	c.mv	t3,a5
    4788:	8ebe                	c.mv	t4,a5
    478a:	0511                	c.addi	a0,4
    478c:	de8e077f          	wexti	a4,t3,8
    4790:	ac97077f          	sunpkd820	a4,a4
    4794:	ac9787ff          	sunpkd820	a5,a5
    4798:	2ef71a7f          	pktt16	s4,a4,a5
    479c:	0ef7177f          	pkbb16	a4,a4,a5
    47a0:	4094                	c.lw	a3,0(s1)
    47a2:	8f36                	c.mv	t5,a3
    47a4:	8fb6                	c.mv	t6,a3
    47a6:	0491                	c.addi	s1,4
    47a8:	de8f07ff          	wexti	a5,t5,8
    47ac:	ac9787ff          	sunpkd820	a5,a5
    47b0:	ac9686ff          	sunpkd820	a3,a3
    47b4:	2ed799ff          	pktt16	s3,a5,a3
    47b8:	0ed797ff          	pkbb16	a5,a5,a3
    47bc:	490715ff          	kmada	a1,a4,a6
    47c0:	492712ff          	kmada	t0,a4,s2
    47c4:	4907967f          	kmada	a2,a5,a6
    47c8:	4927937f          	kmada	t1,a5,s2
    47cc:	00438713          	addi	a4,t2,4
    47d0:	4318                	c.lw	a4,0(a4)
    47d2:	03a1                	c.addi	t2,8
    47d4:	00440793          	addi	a5,s0,4
    47d8:	439c                	c.lw	a5,0(a5)
    47da:	0421                	c.addi	s0,8
    47dc:	48ea15ff          	kmada	a1,s4,a4
    47e0:	48fa12ff          	kmada	t0,s4,a5
    47e4:	48e9967f          	kmada	a2,s3,a4
    47e8:	48f9937f          	kmada	t1,s3,a5
    47ec:	f91518e3          	bne	a0,a7,477c <riscv_nn_mat_mult_kernel_s16+0x12c>
    47f0:	57b2                	c.lwsp	a5,44(sp)
    47f2:	8a6a                	c.mv	s4,s10
    47f4:	8866                	c.mv	a6,s9
    47f6:	9c3e                	c.add	s8,a5
    47f8:	8cee                	c.mv	s9,s11
    47fa:	5d42                	c.lwsp	s10,48(sp)
    47fc:	5dd2                	c.lwsp	s11,52(sp)
    47fe:	4766                	c.lwsp	a4,88(sp)
    4800:	05c12783          	lw	a5,92(sp)
    4804:	44b6                	c.lwsp	s1,76(sp)
    4806:	ccad                	c.beqz	s1,4880 <riscv_nn_mat_mult_kernel_s16+0x230>
    4808:	00071683          	lh	a3,0(a4) # 40000000 <_DATA_LMA_START+0x1fff4c20>
    480c:	00088403          	lb	s0,0(a7)
    4810:	000c0503          	lb	a0,0(s8)
    4814:	00079383          	lh	t2,0(a5)
    4818:	c48692ff          	maddr32	t0,a3,s0
    481c:	c4d5137f          	maddr32	t1,a0,a3
    4820:	5686                	c.lwsp	a3,96(sp)
    4822:	c48395ff          	maddr32	a1,t2,s0
    4826:	c475167f          	maddr32	a2,a0,t2
    482a:	c6a9                	c.beqz	a3,4874 <riscv_nn_mat_mult_kernel_s16+0x224>
    482c:	00271683          	lh	a3,2(a4)
    4830:	00188403          	lb	s0,1(a7)
    4834:	001c0503          	lb	a0,1(s8)
    4838:	00279383          	lh	t2,2(a5)
    483c:	c48692ff          	maddr32	t0,a3,s0
    4840:	c4d5137f          	maddr32	t1,a0,a3
    4844:	00200693          	li	a3,2
    4848:	c48395ff          	maddr32	a1,t2,s0
    484c:	c475167f          	maddr32	a2,a0,t2
    4850:	02d48263          	beq	s1,a3,4874 <riscv_nn_mat_mult_kernel_s16+0x224>
    4854:	00288403          	lb	s0,2(a7)
    4858:	00479383          	lh	t2,4(a5)
    485c:	00471503          	lh	a0,4(a4)
    4860:	002c0683          	lb	a3,2(s8)
    4864:	c47415ff          	maddr32	a1,s0,t2
    4868:	c4a412ff          	maddr32	t0,s0,a0
    486c:	c4d3967f          	maddr32	a2,t2,a3
    4870:	c4d5137f          	maddr32	t1,a0,a3
    4874:	56a6                	c.lwsp	a3,104(sp)
    4876:	98b6                	c.add	a7,a3
    4878:	9c36                	c.add	s8,a3
    487a:	5696                	c.lwsp	a3,100(sp)
    487c:	97b6                	c.add	a5,a3
    487e:	9736                	c.add	a4,a3
    4880:	4686                	c.lwsp	a3,64(sp)
    4882:	30068f63          	beqz	a3,4ba0 <riscv_nn_mat_mult_kernel_s16+0x550>
    4886:	46d6                	c.lwsp	a3,84(sp)
    4888:	ca91                	c.beqz	a3,489c <riscv_nn_mat_mult_kernel_s16+0x24c>
    488a:	4298                	c.lw	a4,0(a3)
    488c:	42dc                	c.lw	a5,4(a3)
    488e:	95ba                	c.add	a1,a4
    4890:	92ba                	c.add	t0,a4
    4892:	963e                	c.add	a2,a5
    4894:	00868713          	addi	a4,a3,8
    4898:	933e                	c.add	t1,a5
    489a:	caba                	c.swsp	a4,84(sp)
    489c:	ff8b2383          	lw	t2,-8(s6)
    48a0:	ff8aa703          	lw	a4,-8(s5)
    48a4:	4501                	c.li	a0,0
    48a6:	ffcb2403          	lw	s0,-4(s6)
    48aa:	f2a387ff          	maxw	a5,t2,a0
    48ae:	ffcaa483          	lw	s1,-4(s5)
    48b2:	00f595b3          	sll	a1,a1,a5
    48b6:	40000937          	lui	s2,0x40000
    48ba:	4981                	c.li	s3,0
    48bc:	407003b3          	neg	t2,t2
    48c0:	84e5997f          	smar64	s2,a1,a4
    48c4:	f2a406ff          	maxw	a3,s0,a0
    48c8:	f2a383ff          	maxw	t2,t2,a0
    48cc:	00f297b3          	sll	a5,t0,a5
    48d0:	4581                	c.li	a1,0
    48d2:	82aa                	c.mv	t0,a0
    48d4:	40000537          	lui	a0,0x40000
    48d8:	84e7957f          	smar64	a0,a5,a4
    48dc:	00d61633          	sll	a2,a2,a3
    48e0:	40000737          	lui	a4,0x40000
    48e4:	4781                	c.li	a5,0
    48e6:	8496177f          	smar64	a4,a2,s1
    48ea:	00d31333          	sll	t1,t1,a3
    48ee:	40000637          	lui	a2,0x40000
    48f2:	4681                	c.li	a3,0
    48f4:	8493167f          	smar64	a2,t1,s1
    48f8:	40800433          	neg	s0,s0
    48fc:	f254047f          	maxw	s0,s0,t0
    4900:	4485                	c.li	s1,1
    4902:	007492b3          	sll	t0,s1,t2
    4906:	008494b3          	sll	s1,s1,s0
    490a:	dff9037f          	wexti	t1,s2,31
    490e:	dff5057f          	wexti	a0,a0,31
    4912:	dff7077f          	wexti	a4,a4,31
    4916:	dff6067f          	wexti	a2,a2,31
    491a:	12fd                	c.addi	t0,-1
    491c:	fff48593          	addi	a1,s1,-1
    4920:	4012d793          	srai	a5,t0,0x1
    4924:	4015d493          	srai	s1,a1,0x1
    4928:	0062f9b3          	and	s3,t0,t1
    492c:	00062913          	slti	s2,a2,0
    4930:	00032693          	slti	a3,t1,0
    4934:	00072c13          	slti	s8,a4,0
    4938:	40735333          	sra	t1,t1,t2
    493c:	96be                	c.add	a3,a5
    493e:	9c26                	c.add	s8,s1
    4940:	d81a                	c.swsp	t1,48(sp)
    4942:	94ca                	c.add	s1,s2
    4944:	00052313          	slti	t1,a0,0
    4948:	5942                	c.lwsp	s2,48(sp)
    494a:	979a                	c.add	a5,t1
    494c:	0136a6b3          	slt	a3,a3,s3
    4950:	00e5f333          	and	t1,a1,a4
    4954:	8df1                	c.and	a1,a2
    4956:	9936                	c.add	s2,a3
    4958:	40875733          	sra	a4,a4,s0
    495c:	56f2                	c.lwsp	a3,60(sp)
    495e:	006c2333          	slt	t1,s8,t1
    4962:	40865633          	sra	a2,a2,s0
    4966:	00b4a5b3          	slt	a1,s1,a1
    496a:	00a2f2b3          	and	t0,t0,a0
    496e:	971a                	c.add	a4,t1
    4970:	962e                	c.add	a2,a1
    4972:	0057a2b3          	slt	t0,a5,t0
    4976:	f2e6877f          	maxw	a4,a3,a4
    497a:	f32687ff          	maxw	a5,a3,s2
    497e:	f2c6867f          	maxw	a2,a3,a2
    4982:	40755533          	sra	a0,a0,t2
    4986:	f0f807ff          	minw	a5,a6,a5
    498a:	9516                	c.add	a0,t0
    498c:	f0e8077f          	minw	a4,a6,a4
    4990:	f0c8067f          	minw	a2,a6,a2
    4994:	f2a6857f          	maxw	a0,a3,a0
    4998:	fefa1e23          	sh	a5,-4(s4)
    499c:	46a2                	c.lwsp	a3,8(sp)
    499e:	0742                	c.slli	a4,0x10
    49a0:	01061793          	slli	a5,a2,0x10
    49a4:	f0a8057f          	minw	a0,a6,a0
    49a8:	8741                	c.srai	a4,0x10
    49aa:	87c1                	c.srai	a5,0x10
    49ac:	fea69e23          	sh	a0,-4(a3)
    49b0:	feea1f23          	sh	a4,-2(s4)
    49b4:	4722                	c.lwsp	a4,8(sp)
    49b6:	1bfd                	c.addi	s7,-1
    49b8:	fef71f23          	sh	a5,-2(a4) # 3ffffffe <_DATA_LMA_START+0x1fff4c1e>
    49bc:	00470793          	addi	a5,a4,4
    49c0:	c43e                	c.swsp	a5,8(sp)
    49c2:	01988533          	add	a0,a7,s9
    49c6:	0b21                	c.addi	s6,8
    49c8:	0aa1                	c.addi	s5,8
    49ca:	0a11                	c.addi	s4,4
    49cc:	d80b94e3          	bnez	s7,4754 <riscv_nn_mat_mult_kernel_s16+0x104>
    49d0:	439e                	c.lwsp	t2,196(sp)
    49d2:	44ae                	c.lwsp	s1,200(sp)
    49d4:	42ce                	c.lwsp	t0,208(sp)
    49d6:	45de                	c.lwsp	a1,212(sp)
    49d8:	12412883          	lw	a7,292(sp)
    49dc:	00339793          	slli	a5,t2,0x3
    49e0:	5bea                	c.lwsp	s7,184(sp)
    49e2:	038a                	c.slli	t2,0x2
    49e4:	547a                	c.lwsp	s0,188(sp)
    49e6:	4c0e                	c.lwsp	s8,192(sp)
    49e8:	463e                	c.lwsp	a2,204(sp)
    49ea:	5972                	c.lwsp	s2,60(sp)
    49ec:	92be                	c.add	t0,a5
    49ee:	95be                	c.add	a1,a5
    49f0:	989e                	c.add	a7,t2
    49f2:	949e                	c.add	s1,t2
    49f4:	8a05                	c.andi	a2,1
    49f6:	16060d63          	beqz	a2,4b70 <riscv_nn_mat_mult_kernel_s16+0x520>
    49fa:	40245f93          	srai	t6,s0,0x2
    49fe:	56e2                	c.lwsp	a3,56(sp)
    4a00:	010f9793          	slli	a5,t6,0x10
    4a04:	001c9f13          	slli	t5,s9,0x1
    4a08:	83c1                	c.srli	a5,0x10
    4a0a:	9f36                	c.add	t5,a3
    4a0c:	52078a63          	beqz	a5,4f40 <riscv_nn_mat_mult_kernel_s16+0x8f0>
    4a10:	00279e93          	slli	t4,a5,0x2
    4a14:	8fbe                	c.mv	t6,a5
    4a16:	9eaa                	c.add	t4,a0
    4a18:	867a                	c.mv	a2,t5
    4a1a:	4e01                	c.li	t3,0
    4a1c:	4301                	c.li	t1,0
    4a1e:	83a6                	c.mv	t2,s1
    4a20:	0006aa83          	lw	s5,0(a3)
    4a24:	00062a03          	lw	s4,0(a2) # 40000000 <_DATA_LMA_START+0x1fff4c20>
    4a28:	4118                	c.lw	a4,0(a0)
    4a2a:	843a                	c.mv	s0,a4
    4a2c:	84ba                	c.mv	s1,a4
    4a2e:	0511                	c.addi	a0,4
    4a30:	de8407ff          	wexti	a5,s0,8
    4a34:	ac9787ff          	sunpkd820	a5,a5
    4a38:	ac97077f          	sunpkd820	a4,a4
    4a3c:	2ee799ff          	pktt16	s3,a5,a4
    4a40:	0ee797ff          	pkbb16	a5,a5,a4
    4a44:	4957937f          	kmada	t1,a5,s5
    4a48:	49479e7f          	kmada	t3,a5,s4
    4a4c:	00468713          	addi	a4,a3,4
    4a50:	4318                	c.lw	a4,0(a4)
    4a52:	06a1                	c.addi	a3,8
    4a54:	00460793          	addi	a5,a2,4
    4a58:	439c                	c.lw	a5,0(a5)
    4a5a:	0621                	c.addi	a2,8
    4a5c:	48e9937f          	kmada	t1,s3,a4
    4a60:	48f99e7f          	kmada	t3,s3,a5
    4a64:	fbd51ee3          	bne	a0,t4,4a20 <riscv_nn_mat_mult_kernel_s16+0x3d0>
    4a68:	57e2                	c.lwsp	a5,56(sp)
    4a6a:	0f8e                	c.slli	t6,0x3
    4a6c:	97fe                	c.add	a5,t6
    4a6e:	849e                	c.mv	s1,t2
    4a70:	9f7e                	c.add	t5,t6
    4a72:	dc3e                	c.swsp	a5,56(sp)
    4a74:	003cf793          	andi	a5,s9,3
    4a78:	c3a5                	c.beqz	a5,4ad8 <riscv_nn_mat_mult_kernel_s16+0x488>
    4a7a:	5462                	c.lwsp	s0,56(sp)
    4a7c:	000e8683          	lb	a3,0(t4)
    4a80:	00041503          	lh	a0,0(s0)
    4a84:	000f1603          	lh	a2,0(t5)
    4a88:	fff78713          	addi	a4,a5,-1
    4a8c:	0742                	c.slli	a4,0x10
    4a8e:	8341                	c.srli	a4,0x10
    4a90:	c4d5137f          	maddr32	t1,a0,a3
    4a94:	c4d61e7f          	maddr32	t3,a2,a3
    4a98:	cb05                	c.beqz	a4,4ac8 <riscv_nn_mat_mult_kernel_s16+0x478>
    4a9a:	001e8703          	lb	a4,1(t4)
    4a9e:	00241503          	lh	a0,2(s0)
    4aa2:	002f1603          	lh	a2,2(t5)
    4aa6:	4689                	c.li	a3,2
    4aa8:	c4e5137f          	maddr32	t1,a0,a4
    4aac:	c4e61e7f          	maddr32	t3,a2,a4
    4ab0:	00d78c63          	beq	a5,a3,4ac8 <riscv_nn_mat_mult_kernel_s16+0x478>
    4ab4:	002e8703          	lb	a4,2(t4)
    4ab8:	00441603          	lh	a2,4(s0)
    4abc:	004f1683          	lh	a3,4(t5)
    4ac0:	c4e6137f          	maddr32	t1,a2,a4
    4ac4:	c4e69e7f          	maddr32	t3,a3,a4
    4ac8:	00179713          	slli	a4,a5,0x1
    4acc:	9ebe                	c.add	t4,a5
    4ace:	57e2                	c.lwsp	a5,56(sp)
    4ad0:	9f3a                	c.add	t5,a4
    4ad2:	97ba                	c.add	a5,a4
    4ad4:	02f12c23          	sw	a5,56(sp)
    4ad8:	4786                	c.lwsp	a5,64(sp)
    4ada:	36078363          	beqz	a5,4e40 <riscv_nn_mat_mult_kernel_s16+0x7f0>
    4ade:	47d6                	c.lwsp	a5,84(sp)
    4ae0:	c781                	c.beqz	a5,4ae8 <riscv_nn_mat_mult_kernel_s16+0x498>
    4ae2:	439c                	c.lw	a5,0(a5)
    4ae4:	933e                	c.add	t1,a5
    4ae6:	9e3e                	c.add	t3,a5
    4ae8:	0002a503          	lw	a0,0(t0)
    4aec:	0005ae83          	lw	t4,0(a1)
    4af0:	4701                	c.li	a4,0
    4af2:	f2e507ff          	maxw	a5,a0,a4
    4af6:	40000f37          	lui	t5,0x40000
    4afa:	4f81                	c.li	t6,0
    4afc:	00f31333          	sll	t1,t1,a5
    4b00:	867a                	c.mv	a2,t5
    4b02:	86fe                	c.mv	a3,t6
    4b04:	85d3167f          	smar64	a2,t1,t4
    4b08:	00fe15b3          	sll	a1,t3,a5
    4b0c:	40a00533          	neg	a0,a0
    4b10:	85d59f7f          	smar64	t5,a1,t4
    4b14:	f2e5057f          	maxw	a0,a0,a4
    4b18:	4585                	c.li	a1,1
    4b1a:	00a595b3          	sll	a1,a1,a0
    4b1e:	dff6067f          	wexti	a2,a2,31
    4b22:	fff58693          	addi	a3,a1,-1
    4b26:	dfff07ff          	wexti	a5,t5,31
    4b2a:	4016d593          	srai	a1,a3,0x1
    4b2e:	00062e13          	slti	t3,a2,0
    4b32:	9e2e                	c.add	t3,a1
    4b34:	00c6f333          	and	t1,a3,a2
    4b38:	0007ae93          	slti	t4,a5,0
    4b3c:	40a65733          	sra	a4,a2,a0
    4b40:	8efd                	c.and	a3,a5
    4b42:	006e2633          	slt	a2,t3,t1
    4b46:	95f6                	c.add	a1,t4
    4b48:	9732                	c.add	a4,a2
    4b4a:	40a7d7b3          	sra	a5,a5,a0
    4b4e:	00d5a6b3          	slt	a3,a1,a3
    4b52:	97b6                	c.add	a5,a3
    4b54:	f2e9077f          	maxw	a4,s2,a4
    4b58:	f0e8077f          	minw	a4,a6,a4
    4b5c:	f2f907ff          	maxw	a5,s2,a5
    4b60:	00e89023          	sh	a4,0(a7)
    4b64:	f0f807ff          	minw	a5,a6,a5
    4b68:	00288893          	addi	a7,a7,2
    4b6c:	00f49023          	sh	a5,0(s1)
    4b70:	11c12403          	lw	s0,284(sp)
    4b74:	11812483          	lw	s1,280(sp)
    4b78:	11412903          	lw	s2,276(sp)
    4b7c:	11012983          	lw	s3,272(sp)
    4b80:	10c12a03          	lw	s4,268(sp)
    4b84:	10812a83          	lw	s5,264(sp)
    4b88:	10412b03          	lw	s6,260(sp)
    4b8c:	5c7e                	c.lwsp	s8,252(sp)
    4b8e:	5cee                	c.lwsp	s9,248(sp)
    4b90:	5d5e                	c.lwsp	s10,244(sp)
    4b92:	5dce                	c.lwsp	s11,240(sp)
    4b94:	01788533          	add	a0,a7,s7
    4b98:	10012b83          	lw	s7,256(sp)
    4b9c:	6115                	c.addi16sp	sp,288
    4b9e:	8082                	c.jr	ra
    4ba0:	41f2d693          	srai	a3,t0,0x1f
    4ba4:	ca36                	c.swsp	a3,20(sp)
    4ba6:	41f65693          	srai	a3,a2,0x1f
    4baa:	ce36                	c.swsp	a3,28(sp)
    4bac:	41f35693          	srai	a3,t1,0x1f
    4bb0:	d236                	c.swsp	a3,36(sp)
    4bb2:	c816                	c.swsp	t0,16(sp)
    4bb4:	20000693          	li	a3,512
    4bb8:	cc32                	c.swsp	a2,24(sp)
    4bba:	d01a                	c.swsp	t1,32(sp)
    4bbc:	00b00d33          	add	s10,zero,a1
    4bc0:	41f5dd93          	srai	s11,a1,0x1f
    4bc4:	1b96c663          	blt	a3,s9,4d70 <riscv_nn_mat_mult_kernel_s16+0x720>
    4bc8:	4596                	c.lwsp	a1,68(sp)
    4bca:	c99d                	c.beqz	a1,4c00 <riscv_nn_mat_mult_kernel_s16+0x5b0>
    4bcc:	4190                	c.lw	a2,0(a1)
    4bce:	41d4                	c.lw	a3,4(a1)
    4bd0:	4598                	c.lw	a4,8(a1)
    4bd2:	45dc                	c.lw	a5,12(a1)
    4bd4:	05c1                	c.addi	a1,16
    4bd6:	4542                	c.lwsp	a0,16(sp)
    4bd8:	c2ae                	c.swsp	a1,68(sp)
    4bda:	45d2                	c.lwsp	a1,20(sp)
    4bdc:	c0cd1d7f          	add64	s10,s10,a2
    4be0:	c0c5167f          	add64	a2,a0,a2
    4be4:	c832                	c.swsp	a2,16(sp)
    4be6:	ca36                	c.swsp	a3,20(sp)
    4be8:	4662                	c.lwsp	a2,24(sp)
    4bea:	46f2                	c.lwsp	a3,28(sp)
    4bec:	c0e6167f          	add64	a2,a2,a4
    4bf0:	cc32                	c.swsp	a2,24(sp)
    4bf2:	ce36                	c.swsp	a3,28(sp)
    4bf4:	5602                	c.lwsp	a2,32(sp)
    4bf6:	5692                	c.lwsp	a3,36(sp)
    4bf8:	c0e6177f          	add64	a4,a2,a4
    4bfc:	d03a                	c.swsp	a4,32(sp)
    4bfe:	d23e                	c.swsp	a5,36(sp)
    4c00:	ff8aa683          	lw	a3,-8(s5)
    4c04:	7fff07b7          	lui	a5,0x7fff0
    4c08:	12f6d663          	bge	a3,a5,4d34 <riscv_nn_mat_mult_kernel_s16+0x6e4>
    4c0c:	67a1                	c.lui	a5,0x8
    4c0e:	96be                	c.add	a3,a5
    4c10:	4106d293          	srai	t0,a3,0x10
    4c14:	41f6d693          	srai	a3,a3,0x1f
    4c18:	03a68633          	mul	a2,a3,s10
    4c1c:	ff8b2583          	lw	a1,-8(s6)
    4c20:	47b9                	c.li	a5,14
    4c22:	c5b2967f          	maddr32	a2,t0,s11
    4c26:	f05d147f          	mulr64	s0,s10,t0
    4c2a:	40b78333          	sub	t1,a5,a1
    4c2e:	fe030593          	addi	a1,t1,-32
    4c32:	94b2                	c.add	s1,a2
    4c34:	40b4d733          	sra	a4,s1,a1
    4c38:	0005dc63          	bgez	a1,4c50 <riscv_nn_mat_mult_kernel_s16+0x600>
    4c3c:	47fd                	c.li	a5,31
    4c3e:	00149613          	slli	a2,s1,0x1
    4c42:	406787b3          	sub	a5,a5,t1
    4c46:	00f617b3          	sll	a5,a2,a5
    4c4a:	00645733          	srl	a4,s0,t1
    4c4e:	8f5d                	c.or	a4,a5
    4c50:	4442                	c.lwsp	s0,16(sp)
    4c52:	44d2                	c.lwsp	s1,20(sp)
    4c54:	028687b3          	mul	a5,a3,s0
    4c58:	0705                	c.addi	a4,1
    4c5a:	f054167f          	mulr64	a2,s0,t0
    4c5e:	c49297ff          	maddr32	a5,t0,s1
    4c62:	40175513          	srai	a0,a4,0x1
    4c66:	96be                	c.add	a3,a5
    4c68:	0c05cc63          	bltz	a1,4d40 <riscv_nn_mat_mult_kernel_s16+0x6f0>
    4c6c:	40b6d5b3          	sra	a1,a3,a1
    4c70:	ffcaa683          	lw	a3,-4(s5)
    4c74:	0585                	c.addi	a1,1
    4c76:	7fff07b7          	lui	a5,0x7fff0
    4c7a:	4015d313          	srai	t1,a1,0x1
    4c7e:	0af6d563          	bge	a3,a5,4d28 <riscv_nn_mat_mult_kernel_s16+0x6d8>
    4c82:	67a1                	c.lui	a5,0x8
    4c84:	96be                	c.add	a3,a5
    4c86:	4106d293          	srai	t0,a3,0x10
    4c8a:	86fd                	c.srai	a3,0x1f
    4c8c:	4762                	c.lwsp	a4,24(sp)
    4c8e:	47f2                	c.lwsp	a5,28(sp)
    4c90:	02e68633          	mul	a2,a3,a4
    4c94:	ffcb2583          	lw	a1,-4(s6)
    4c98:	f057147f          	mulr64	s0,a4,t0
    4c9c:	c4f2967f          	maddr32	a2,t0,a5
    4ca0:	47b9                	c.li	a5,14
    4ca2:	40b783b3          	sub	t2,a5,a1
    4ca6:	fe038593          	addi	a1,t2,-32
    4caa:	94b2                	c.add	s1,a2
    4cac:	40b4d733          	sra	a4,s1,a1
    4cb0:	0005dc63          	bgez	a1,4cc8 <riscv_nn_mat_mult_kernel_s16+0x678>
    4cb4:	47fd                	c.li	a5,31
    4cb6:	00149613          	slli	a2,s1,0x1
    4cba:	407787b3          	sub	a5,a5,t2
    4cbe:	00f617b3          	sll	a5,a2,a5
    4cc2:	00745733          	srl	a4,s0,t2
    4cc6:	8f5d                	c.or	a4,a5
    4cc8:	5402                	c.lwsp	s0,32(sp)
    4cca:	5492                	c.lwsp	s1,36(sp)
    4ccc:	028687b3          	mul	a5,a3,s0
    4cd0:	86a6                	c.mv	a3,s1
    4cd2:	f054147f          	mulr64	s0,s0,t0
    4cd6:	c4d297ff          	maddr32	a5,t0,a3
    4cda:	0705                	c.addi	a4,1
    4cdc:	00f484b3          	add	s1,s1,a5
    4ce0:	0605cc63          	bltz	a1,4d58 <riscv_nn_mat_mult_kernel_s16+0x708>
    4ce4:	40b4d5b3          	sra	a1,s1,a1
    4ce8:	56f2                	c.lwsp	a3,60(sp)
    4cea:	00158793          	addi	a5,a1,1
    4cee:	8705                	c.srai	a4,0x1
    4cf0:	8785                	c.srai	a5,0x1
    4cf2:	f2a6857f          	maxw	a0,a3,a0
    4cf6:	f2d7077f          	maxw	a4,a4,a3
    4cfa:	f2d787ff          	maxw	a5,a5,a3
    4cfe:	f266837f          	maxw	t1,a3,t1
    4d02:	f0a8057f          	minw	a0,a6,a0
    4d06:	46a2                	c.lwsp	a3,8(sp)
    4d08:	f0e8077f          	minw	a4,a6,a4
    4d0c:	f0f807ff          	minw	a5,a6,a5
    4d10:	f068037f          	minw	t1,a6,t1
    4d14:	0742                	c.slli	a4,0x10
    4d16:	07c2                	c.slli	a5,0x10
    4d18:	feaa1e23          	sh	a0,-4(s4)
    4d1c:	8741                	c.srai	a4,0x10
    4d1e:	87c1                	c.srai	a5,0x10
    4d20:	fe669e23          	sh	t1,-4(a3)
    4d24:	c8dff06f          	j	49b0 <riscv_nn_mat_mult_kernel_s16+0x360>
    4d28:	67a1                	c.lui	a5,0x8
    4d2a:	fff78293          	addi	t0,a5,-1 # 7fff <riscv_depthwise_conv_3x3_s8+0x76f>
    4d2e:	4681                	c.li	a3,0
    4d30:	f5dff06f          	j	4c8c <riscv_nn_mat_mult_kernel_s16+0x63c>
    4d34:	67a1                	c.lui	a5,0x8
    4d36:	fff78293          	addi	t0,a5,-1 # 7fff <riscv_depthwise_conv_3x3_s8+0x76f>
    4d3a:	4681                	c.li	a3,0
    4d3c:	eddff06f          	j	4c18 <riscv_nn_mat_mult_kernel_s16+0x5c8>
    4d40:	47fd                	c.li	a5,31
    4d42:	00169713          	slli	a4,a3,0x1
    4d46:	406787b3          	sub	a5,a5,t1
    4d4a:	00f717b3          	sll	a5,a4,a5
    4d4e:	006655b3          	srl	a1,a2,t1
    4d52:	8ddd                	c.or	a1,a5
    4d54:	f1dff06f          	j	4c70 <riscv_nn_mat_mult_kernel_s16+0x620>
    4d58:	47fd                	c.li	a5,31
    4d5a:	00149693          	slli	a3,s1,0x1
    4d5e:	407787b3          	sub	a5,a5,t2
    4d62:	00f697b3          	sll	a5,a3,a5
    4d66:	007455b3          	srl	a1,s0,t2
    4d6a:	8ddd                	c.or	a1,a5
    4d6c:	f7dff06f          	j	4ce8 <riscv_nn_mat_mult_kernel_s16+0x698>
    4d70:	56b6                	c.lwsp	a3,108(sp)
    4d72:	e4068be3          	beqz	a3,4bc8 <riscv_nn_mat_mult_kernel_s16+0x578>
    4d76:	56da                	c.lwsp	a3,180(sp)
    4d78:	cb56                	c.swsp	s5,148(sp)
    4d7a:	00d882b3          	add	t0,a7,a3
    4d7e:	cd52                	c.swsp	s4,152(sp)
    4d80:	44d2                	c.lwsp	s1,20(sp)
    4d82:	4962                	c.lwsp	s2,24(sp)
    4d84:	49f2                	c.lwsp	s3,28(sp)
    4d86:	5a02                	c.lwsp	s4,32(sp)
    4d88:	5a92                	c.lwsp	s5,36(sp)
    4d8a:	4442                	c.lwsp	s0,16(sp)
    4d8c:	c816                	c.swsp	t0,16(sp)
    4d8e:	82ba                	c.mv	t0,a4
    4d90:	873e                	c.mv	a4,a5
    4d92:	87c6                	c.mv	a5,a7
    4d94:	d85e                	c.swsp	s7,48(sp)
    4d96:	c95a                	c.swsp	s6,144(sp)
    4d98:	cf42                	c.swsp	a6,156(sp)
    4d9a:	d966                	c.swsp	s9,176(sp)
    4d9c:	d172                	c.swsp	t3,160(sp)
    4d9e:	d376                	c.swsp	t4,164(sp)
    4da0:	d57a                	c.swsp	t5,168(sp)
    4da2:	d77e                	c.swsp	t6,172(sp)
    4da4:	00078c83          	lb	s9,0(a5)
    4da8:	00071b83          	lh	s7,0(a4)
    4dac:	00029b03          	lh	s6,0(t0)
    4db0:	000c0e83          	lb	t4,0(s8)
    4db4:	037c8fb3          	mul	t6,s9,s7
    4db8:	036c8cb3          	mul	s9,s9,s6
    4dbc:	03db8bb3          	mul	s7,s7,t4
    4dc0:	03db0b33          	mul	s6,s6,t4
    4dc4:	4e42                	c.lwsp	t3,16(sp)
    4dc6:	867e                	c.mv	a2,t6
    4dc8:	8566                	c.mv	a0,s9
    4dca:	885e                	c.mv	a6,s7
    4dcc:	835a                	c.mv	t1,s6
    4dce:	41ffd693          	srai	a3,t6,0x1f
    4dd2:	41fcd593          	srai	a1,s9,0x1f
    4dd6:	41fbd893          	srai	a7,s7,0x1f
    4dda:	41fb5393          	srai	t2,s6,0x1f
    4dde:	0785                	c.addi	a5,1
    4de0:	0709                	c.addi	a4,2
    4de2:	0c05                	c.addi	s8,1
    4de4:	0289                	c.addi	t0,2
    4de6:	c0cd1d7f          	add64	s10,s10,a2
    4dea:	c0a4147f          	add64	s0,s0,a0
    4dee:	c109197f          	add64	s2,s2,a6
    4df2:	c06a1a7f          	add64	s4,s4,t1
    4df6:	fbc797e3          	bne	a5,t3,4da4 <riscv_nn_mat_mult_kernel_s16+0x754>
    4dfa:	d052                	c.swsp	s4,32(sp)
    4dfc:	d256                	c.swsp	s5,36(sp)
    4dfe:	c142                	c.swsp	a6,128(sp)
    4e00:	c346                	c.swsp	a7,132(sp)
    4e02:	5bc2                	c.lwsp	s7,48(sp)
    4e04:	4b4a                	c.lwsp	s6,144(sp)
    4e06:	4ada                	c.lwsp	s5,148(sp)
    4e08:	4a6a                	c.lwsp	s4,152(sp)
    4e0a:	5cca                	c.lwsp	s9,176(sp)
    4e0c:	5e0a                	c.lwsp	t3,160(sp)
    4e0e:	5e9a                	c.lwsp	t4,164(sp)
    4e10:	5f2a                	c.lwsp	t5,168(sp)
    4e12:	5fba                	c.lwsp	t6,172(sp)
    4e14:	487a                	c.lwsp	a6,156(sp)
    4e16:	88be                	c.mv	a7,a5
    4e18:	c822                	c.swsp	s0,16(sp)
    4e1a:	ca26                	c.swsp	s1,20(sp)
    4e1c:	cc4a                	c.swsp	s2,24(sp)
    4e1e:	ce4e                	c.swsp	s3,28(sp)
    4e20:	d8b2                	c.swsp	a2,112(sp)
    4e22:	dab6                	c.swsp	a3,116(sp)
    4e24:	dcaa                	c.swsp	a0,120(sp)
    4e26:	deae                	c.swsp	a1,124(sp)
    4e28:	c51a                	c.swsp	t1,136(sp)
    4e2a:	c71e                	c.swsp	t2,140(sp)
    4e2c:	d9dff06f          	j	4bc8 <riscv_nn_mat_mult_kernel_s16+0x578>
    4e30:	4746                	c.lwsp	a4,80(sp)
    4e32:	57e2                	c.lwsp	a5,56(sp)
    4e34:	88aa                	c.mv	a7,a0
    4e36:	4301                	c.li	t1,0
    4e38:	4601                	c.li	a2,0
    4e3a:	4281                	c.li	t0,0
    4e3c:	4581                	c.li	a1,0
    4e3e:	b2d9                	c.j	4804 <riscv_nn_mat_mult_kernel_s16+0x1b4>
    4e40:	20000513          	li	a0,512
    4e44:	871a                	c.mv	a4,t1
    4e46:	8672                	c.mv	a2,t3
    4e48:	41f35793          	srai	a5,t1,0x1f
    4e4c:	41fe5693          	srai	a3,t3,0x1f
    4e50:	05955463          	bge	a0,s9,4e98 <riscv_nn_mat_mult_kernel_s16+0x848>
    4e54:	010c1513          	slli	a0,s8,0x10
    4e58:	8141                	c.srli	a0,0x10
    4e5a:	cd1d                	c.beqz	a0,4e98 <riscv_nn_mat_mult_kernel_s16+0x848>
    4e5c:	5fe2                	c.lwsp	t6,56(sp)
    4e5e:	00ae8e33          	add	t3,t4,a0
    4e62:	89a6                	c.mv	s3,s1
    4e64:	000e8383          	lb	t2,0(t4)
    4e68:	000f9303          	lh	t1,0(t6)
    4e6c:	000f1503          	lh	a0,0(t5) # 40000000 <_DATA_LMA_START+0x1fff4c20>
    4e70:	0e85                	c.addi	t4,1
    4e72:	02730333          	mul	t1,t1,t2
    4e76:	02750533          	mul	a0,a0,t2
    4e7a:	0f89                	c.addi	t6,2
    4e7c:	841a                	c.mv	s0,t1
    4e7e:	8a2a                	c.mv	s4,a0
    4e80:	41f35493          	srai	s1,t1,0x1f
    4e84:	41f55a93          	srai	s5,a0,0x1f
    4e88:	0f09                	c.addi	t5,2
    4e8a:	c087177f          	add64	a4,a4,s0
    4e8e:	c146167f          	add64	a2,a2,s4
    4e92:	fdce99e3          	bne	t4,t3,4e64 <riscv_nn_mat_mult_kernel_s16+0x814>
    4e96:	84ce                	c.mv	s1,s3
    4e98:	4516                	c.lwsp	a0,68(sp)
    4e9a:	c909                	c.beqz	a0,4eac <riscv_nn_mat_mult_kernel_s16+0x85c>
    4e9c:	00052303          	lw	t1,0(a0) # 40000000 <_DATA_LMA_START+0x1fff4c20>
    4ea0:	00452383          	lw	t2,4(a0)
    4ea4:	c067177f          	add64	a4,a4,t1
    4ea8:	c066167f          	add64	a2,a2,t1
    4eac:	418c                	c.lw	a1,0(a1)
    4eae:	7fff0537          	lui	a0,0x7fff0
    4eb2:	08a5c163          	blt	a1,a0,4f34 <riscv_nn_mat_mult_kernel_s16+0x8e4>
    4eb6:	6f21                	c.lui	t5,0x8
    4eb8:	1f7d                	c.addi	t5,-1
    4eba:	4581                	c.li	a1,0
    4ebc:	02e58533          	mul	a0,a1,a4
    4ec0:	0002a303          	lw	t1,0(t0)
    4ec4:	4e39                	c.li	t3,14
    4ec6:	c4ff157f          	maddr32	a0,t5,a5
    4eca:	406e0e33          	sub	t3,t3,t1
    4ece:	f1e7137f          	mulr64	t1,a4,t5
    4ed2:	fe0e0e93          	addi	t4,t3,-32
    4ed6:	93aa                	c.add	t2,a0
    4ed8:	41d3d733          	sra	a4,t2,t4
    4edc:	000edc63          	bgez	t4,4ef4 <riscv_nn_mat_mult_kernel_s16+0x8a4>
    4ee0:	457d                	c.li	a0,31
    4ee2:	00139793          	slli	a5,t2,0x1
    4ee6:	41c50533          	sub	a0,a0,t3
    4eea:	00a797b3          	sll	a5,a5,a0
    4eee:	01c35733          	srl	a4,t1,t3
    4ef2:	8f5d                	c.or	a4,a5
    4ef4:	02c58333          	mul	t1,a1,a2
    4ef8:	00170793          	addi	a5,a4,1
    4efc:	f1e6157f          	mulr64	a0,a2,t5
    4f00:	871a                	c.mv	a4,t1
    4f02:	c4df177f          	maddr32	a4,t5,a3
    4f06:	95ba                	c.add	a1,a4
    4f08:	040ec463          	bltz	t4,4f50 <riscv_nn_mat_mult_kernel_s16+0x900>
    4f0c:	41d5d533          	sra	a0,a1,t4
    4f10:	0505                	c.addi	a0,1
    4f12:	8785                	c.srai	a5,0x1
    4f14:	f32787ff          	maxw	a5,a5,s2
    4f18:	40155713          	srai	a4,a0,0x1
    4f1c:	f10787ff          	minw	a5,a5,a6
    4f20:	f327077f          	maxw	a4,a4,s2
    4f24:	00f89023          	sh	a5,0(a7)
    4f28:	f0e8087f          	minw	a6,a6,a4
    4f2c:	0889                	c.addi	a7,2
    4f2e:	01049023          	sh	a6,0(s1)
    4f32:	b93d                	c.j	4b70 <riscv_nn_mat_mult_kernel_s16+0x520>
    4f34:	6521                	c.lui	a0,0x8
    4f36:	95aa                	c.add	a1,a0
    4f38:	4105df13          	srai	t5,a1,0x10
    4f3c:	85fd                	c.srai	a1,0x1f
    4f3e:	bfbd                	c.j	4ebc <riscv_nn_mat_mult_kernel_s16+0x86c>
    4f40:	8eaa                	c.mv	t4,a0
    4f42:	4e01                	c.li	t3,0
    4f44:	4301                	c.li	t1,0
    4f46:	b63d                	c.j	4a74 <riscv_nn_mat_mult_kernel_s16+0x424>
    4f48:	4796                	c.lwsp	a5,68(sp)
    4f4a:	cabe                	c.swsp	a5,84(sp)
    4f4c:	aa9ff06f          	j	49f4 <riscv_nn_mat_mult_kernel_s16+0x3a4>
    4f50:	46fd                	c.li	a3,31
    4f52:	00159713          	slli	a4,a1,0x1
    4f56:	41c686b3          	sub	a3,a3,t3
    4f5a:	00d71733          	sll	a4,a4,a3
    4f5e:	01c55533          	srl	a0,a0,t3
    4f62:	8d59                	c.or	a0,a4
    4f64:	b775                	c.j	4f10 <riscv_nn_mat_mult_kernel_s16+0x8c0>
	...

00004f68 <riscv_depthwise_conv_s8_opt_get_buffer_size>:
    4f68:	4548                	c.lw	a0,12(a0)
    4f6a:	4598                	c.lw	a4,8(a1)
    4f6c:	41dc                	c.lw	a5,4(a1)
    4f6e:	02e50533          	mul	a0,a0,a4
    4f72:	02f50533          	mul	a0,a0,a5
    4f76:	0506                	c.slli	a0,0x1
    4f78:	8082                	c.jr	ra
	...

00004f7c <riscv_depthwise_conv_wrapper_s8_get_buffer_size>:
    4f7c:	45dc                	c.lw	a5,12(a1)
    4f7e:	46d8                	c.lw	a4,12(a3)
    4f80:	00e78663          	beq	a5,a4,4f8c <riscv_depthwise_conv_wrapper_s8_get_buffer_size+0x10>
    4f84:	00000713          	li	a4,0
    4f88:	853a                	c.mv	a0,a4
    4f8a:	8082                	c.jr	ra
    4f8c:	4194                	c.lw	a3,0(a1)
    4f8e:	4585                	c.li	a1,1
    4f90:	4701                	c.li	a4,0
    4f92:	feb69be3          	bne	a3,a1,4f88 <riscv_depthwise_conv_wrapper_s8_get_buffer_size+0xc>
    4f96:	4d4c                	c.lw	a1,28(a0)
    4f98:	fed598e3          	bne	a1,a3,4f88 <riscv_depthwise_conv_wrapper_s8_get_buffer_size+0xc>
    4f9c:	5114                	c.lw	a3,32(a0)
    4f9e:	feb695e3          	bne	a3,a1,4f88 <riscv_depthwise_conv_wrapper_s8_get_buffer_size+0xc>
    4fa2:	460c                	c.lw	a1,8(a2)
    4fa4:	480d                	c.li	a6,3
    4fa6:	4250                	c.lw	a2,4(a2)
    4fa8:	01058a63          	beq	a1,a6,4fbc <riscv_depthwise_conv_wrapper_s8_get_buffer_size+0x40>
    4fac:	02b787b3          	mul	a5,a5,a1
    4fb0:	02c787b3          	mul	a5,a5,a2
    4fb4:	00179713          	slli	a4,a5,0x1
    4fb8:	fd1ff06f          	j	4f88 <riscv_depthwise_conv_wrapper_s8_get_buffer_size+0xc>
    4fbc:	feb618e3          	bne	a2,a1,4fac <riscv_depthwise_conv_wrapper_s8_get_buffer_size+0x30>
    4fc0:	01852803          	lw	a6,24(a0) # 8018 <riscv_depthwise_conv_3x3_s8+0x788>
    4fc4:	ff06c4e3          	blt	a3,a6,4fac <riscv_depthwise_conv_wrapper_s8_get_buffer_size+0x30>
    4fc8:	4948                	c.lw	a0,20(a0)
    4fca:	fea6c1e3          	blt	a3,a0,4fac <riscv_depthwise_conv_wrapper_s8_get_buffer_size+0x30>
    4fce:	bf6d                	c.j	4f88 <riscv_depthwise_conv_wrapper_s8_get_buffer_size+0xc>

00004fd0 <riscv_nn_mat_mult_kernel_row_offset_s8_s16>:
    4fd0:	7119                	c.addi16sp	sp,-128
    4fd2:	42ca                	c.lwsp	t0,144(sp)
    4fd4:	daca                	c.swsp	s2,116(sp)
    4fd6:	493a                	c.lwsp	s2,140(sp)
    4fd8:	dea2                	c.swsp	s0,124(sp)
    4fda:	dca6                	c.swsp	s1,120(sp)
    4fdc:	d8ce                	c.swsp	s3,112(sp)
    4fde:	00165493          	srli	s1,a2,0x1
    4fe2:	d0de                	c.swsp	s7,96(sp)
    4fe4:	cee2                	c.swsp	s8,92(sp)
    4fe6:	caea                	c.swsp	s10,84(sp)
    4fe8:	c8ee                	c.swsp	s11,80(sp)
    4fea:	d6d2                	c.swsp	s4,108(sp)
    4fec:	d4d6                	c.swsp	s5,104(sp)
    4fee:	d2da                	c.swsp	s6,100(sp)
    4ff0:	cce6                	c.swsp	s9,88(sp)
    4ff2:	cc2e                	c.swsp	a1,24(sp)
    4ff4:	8432                	c.mv	s0,a2
    4ff6:	499a                	c.lwsp	s3,132(sp)
    4ff8:	462a                	c.lwsp	a2,136(sp)
    4ffa:	8fb6                	c.mv	t6,a3
    4ffc:	8bbe                	c.mv	s7,a5
    4ffe:	8d42                	c.mv	s10,a6
    5000:	8dc6                	c.mv	s11,a7
    5002:	01228c33          	add	s8,t0,s2
    5006:	4a048363          	beqz	s1,54ac <riscv_nn_mat_mult_kernel_row_offset_s8_s16+0x4dc>
    500a:	478a                	c.lwsp	a5,128(sp)
    500c:	468a                	c.lwsp	a3,128(sp)
    500e:	87fd                	c.srai	a5,0x1f
    5010:	8b8d                	c.andi	a5,3
    5012:	97b6                	c.add	a5,a3
    5014:	4027d893          	srai	a7,a5,0x2
    5018:	00199793          	slli	a5,s3,0x1
    501c:	00f58f33          	add	t5,a1,a5
    5020:	00389693          	slli	a3,a7,0x3
    5024:	882e                	c.mv	a6,a1
    5026:	00149793          	slli	a5,s1,0x1
    502a:	458a                	c.lwsp	a1,128(sp)
    502c:	d27a                	c.swsp	t5,36(sp)
    502e:	9f36                	c.add	t5,a3
    5030:	96c2                	c.add	a3,a6
    5032:	00fc0a33          	add	s4,s8,a5
    5036:	d636                	c.swsp	a3,44(sp)
    5038:	00289693          	slli	a3,a7,0x2
    503c:	898d                	c.andi	a1,3
    503e:	ce52                	c.swsp	s4,28(sp)
    5040:	d436                	c.swsp	a3,40(sp)
    5042:	8b3a                	c.mv	s6,a4
    5044:	8696                	c.mv	a3,t0
    5046:	8a7e                	c.mv	s4,t6
    5048:	4c85                	c.li	s9,1
    504a:	4a81                	c.li	s5,0
    504c:	d046                	c.swsp	a7,32(sp)
    504e:	d87a                	c.swsp	t5,48(sp)
    5050:	da26                	c.swsp	s1,52(sp)
    5052:	c42e                	c.swsp	a1,8(sp)
    5054:	dc3e                	c.swsp	a5,56(sp)
    5056:	de22                	c.swsp	s0,60(sp)
    5058:	c0fe                	c.swsp	t6,64(sp)
    505a:	c2ba                	c.swsp	a4,68(sp)
    505c:	478a                	c.lwsp	a5,128(sp)
    505e:	00f509b3          	add	s3,a0,a5
    5062:	42060963          	beqz	a2,5494 <riscv_nn_mat_mult_kernel_row_offset_s8_s16+0x4c4>
    5066:	5902                	c.lwsp	s2,32(sp)
    5068:	00062803          	lw	a6,0(a2)
    506c:	424c                	c.lw	a1,4(a2)
    506e:	0621                	c.addi	a2,8
    5070:	42090863          	beqz	s2,54a0 <riscv_nn_mat_mult_kernel_row_offset_s8_s16+0x4d0>
    5074:	5292                	c.lwsp	t0,36(sp)
    5076:	4fe2                	c.lwsp	t6,24(sp)
    5078:	ca6e                	c.swsp	s11,20(sp)
    507a:	88ae                	c.mv	a7,a1
    507c:	8dea                	c.mv	s11,s10
    507e:	8f42                	c.mv	t5,a6
    5080:	8d5e                	c.mv	s10,s7
    5082:	84ce                	c.mv	s1,s3
    5084:	842a                	c.mv	s0,a0
    5086:	8baa                	c.mv	s7,a0
    5088:	c636                	c.swsp	a3,12(sp)
    508a:	c862                	c.swsp	s8,16(sp)
    508c:	08c12423          	sw	a2,136(sp)
    5090:	000fa503          	lw	a0,0(t6)
    5094:	0002a603          	lw	a2,0(t0)
    5098:	4018                	c.lw	a4,0(s0)
    509a:	833a                	c.mv	t1,a4
    509c:	83ba                	c.mv	t2,a4
    509e:	0411                	c.addi	s0,4
    50a0:	de830c7f          	wexti	s8,t1,8
    50a4:	ac9c0c7f          	sunpkd820	s8,s8
    50a8:	ac97077f          	sunpkd820	a4,a4
    50ac:	409c                	c.lw	a5,0(s1)
    50ae:	8e3e                	c.mv	t3,a5
    50b0:	8ebe                	c.mv	t4,a5
    50b2:	0491                	c.addi	s1,4
    50b4:	de8e06ff          	wexti	a3,t3,8
    50b8:	ac9686ff          	sunpkd820	a3,a3
    50bc:	ac9787ff          	sunpkd820	a5,a5
    50c0:	48a7187f          	kmada	a6,a4,a0
    50c4:	48c71f7f          	kmada	t5,a4,a2
    50c8:	48a795ff          	kmada	a1,a5,a0
    50cc:	48c798ff          	kmada	a7,a5,a2
    50d0:	004f8713          	addi	a4,t6,4
    50d4:	4318                	c.lw	a4,0(a4)
    50d6:	0fa1                	c.addi	t6,8
    50d8:	00428793          	addi	a5,t0,4
    50dc:	439c                	c.lw	a5,0(a5)
    50de:	02a1                	c.addi	t0,8
    50e0:	48ec187f          	kmada	a6,s8,a4
    50e4:	48fc1f7f          	kmada	t5,s8,a5
    50e8:	48e695ff          	kmada	a1,a3,a4
    50ec:	48f698ff          	kmada	a7,a3,a5
    50f0:	197d                	c.addi	s2,-1
    50f2:	f8091fe3          	bnez	s2,5090 <riscv_nn_mat_mult_kernel_row_offset_s8_s16+0xc0>
    50f6:	57a2                	c.lwsp	a5,40(sp)
    50f8:	855e                	c.mv	a0,s7
    50fa:	99be                	c.add	s3,a5
    50fc:	8bea                	c.mv	s7,s10
    50fe:	953e                	c.add	a0,a5
    5100:	8d6e                	c.mv	s10,s11
    5102:	46b2                	c.lwsp	a3,12(sp)
    5104:	4c42                	c.lwsp	s8,16(sp)
    5106:	4dd2                	c.lwsp	s11,20(sp)
    5108:	462a                	c.lwsp	a2,136(sp)
    510a:	57c2                	c.lwsp	a5,48(sp)
    510c:	02c12703          	lw	a4,44(sp)
    5110:	4922                	c.lwsp	s2,8(sp)
    5112:	06090963          	beqz	s2,5184 <riscv_nn_mat_mult_kernel_row_offset_s8_s16+0x1b4>
    5116:	00050483          	lb	s1,0(a0)
    511a:	00071403          	lh	s0,0(a4)
    511e:	00079f83          	lh	t6,0(a5)
    5122:	00098283          	lb	t0,0(s3)
    5126:	c494187f          	maddr32	a6,s0,s1
    512a:	c49f9f7f          	maddr32	t5,t6,s1
    512e:	c48295ff          	maddr32	a1,t0,s0
    5132:	c5f298ff          	maddr32	a7,t0,t6
    5136:	05990563          	beq	s2,s9,5180 <riscv_nn_mat_mult_kernel_row_offset_s8_s16+0x1b0>
    513a:	00271403          	lh	s0,2(a4)
    513e:	00150483          	lb	s1,1(a0)
    5142:	00198283          	lb	t0,1(s3)
    5146:	00279f83          	lh	t6,2(a5)
    514a:	c494187f          	maddr32	a6,s0,s1
    514e:	c48295ff          	maddr32	a1,t0,s0
    5152:	4409                	c.li	s0,2
    5154:	c49f9f7f          	maddr32	t5,t6,s1
    5158:	c5f298ff          	maddr32	a7,t0,t6
    515c:	02890263          	beq	s2,s0,5180 <riscv_nn_mat_mult_kernel_row_offset_s8_s16+0x1b0>
    5160:	00250f83          	lb	t6,2(a0)
    5164:	00471703          	lh	a4,4(a4)
    5168:	00479783          	lh	a5,4(a5)
    516c:	00298283          	lb	t0,2(s3)
    5170:	c4ef987f          	maddr32	a6,t6,a4
    5174:	c4ff9f7f          	maddr32	t5,t6,a5
    5178:	c45715ff          	maddr32	a1,a4,t0
    517c:	c45798ff          	maddr32	a7,a5,t0
    5180:	47a2                	c.lwsp	a5,8(sp)
    5182:	953e                	c.add	a0,a5
    5184:	000a2f83          	lw	t6,0(s4)
    5188:	000b2283          	lw	t0,0(s6)
    518c:	f35f87ff          	maxw	a5,t6,s5
    5190:	00f81833          	sll	a6,a6,a5
    5194:	40000737          	lui	a4,0x40000
    5198:	4781                	c.li	a5,0
    519a:	8458177f          	smar64	a4,a6,t0
    519e:	41f00833          	neg	a6,t6
    51a2:	f358087f          	maxw	a6,a6,s5
    51a6:	010c9fb3          	sll	t6,s9,a6
    51aa:	dff7077f          	wexti	a4,a4,31
    51ae:	ffff8793          	addi	a5,t6,-1
    51b2:	4017df93          	srai	t6,a5,0x1
    51b6:	00072293          	slti	t0,a4,0
    51ba:	8ff9                	c.and	a5,a4
    51bc:	9f96                	c.add	t6,t0
    51be:	00ffa7b3          	slt	a5,t6,a5
    51c2:	41075733          	sra	a4,a4,a6
    51c6:	973e                	c.add	a4,a5
    51c8:	975e                	c.add	a4,s7
    51ca:	f3a7077f          	maxw	a4,a4,s10
    51ce:	f1b7077f          	minw	a4,a4,s11
    51d2:	00e68023          	sb	a4,0(a3)
    51d6:	000a2803          	lw	a6,0(s4)
    51da:	000b2f83          	lw	t6,0(s6)
    51de:	f35807ff          	maxw	a5,a6,s5
    51e2:	00ff1f33          	sll	t5,t5,a5
    51e6:	40000737          	lui	a4,0x40000
    51ea:	4781                	c.li	a5,0
    51ec:	85ff177f          	smar64	a4,t5,t6
    51f0:	41000833          	neg	a6,a6
    51f4:	f358087f          	maxw	a6,a6,s5
    51f8:	010c9f33          	sll	t5,s9,a6
    51fc:	dff7077f          	wexti	a4,a4,31
    5200:	ffff0793          	addi	a5,t5,-1 # 7fff <riscv_depthwise_conv_3x3_s8+0x76f>
    5204:	4017df13          	srai	t5,a5,0x1
    5208:	00072f93          	slti	t6,a4,0
    520c:	8ff9                	c.and	a5,a4
    520e:	9f7e                	c.add	t5,t6
    5210:	00ff27b3          	slt	a5,t5,a5
    5214:	41075733          	sra	a4,a4,a6
    5218:	973e                	c.add	a4,a5
    521a:	975e                	c.add	a4,s7
    521c:	f3a7077f          	maxw	a4,a4,s10
    5220:	f1b7077f          	minw	a4,a4,s11
    5224:	00ec0023          	sb	a4,0(s8)
    5228:	004a2803          	lw	a6,4(s4)
    522c:	004b2f03          	lw	t5,4(s6)
    5230:	f35807ff          	maxw	a5,a6,s5
    5234:	00f595b3          	sll	a1,a1,a5
    5238:	40000737          	lui	a4,0x40000
    523c:	4781                	c.li	a5,0
    523e:	85e5977f          	smar64	a4,a1,t5
    5242:	410005b3          	neg	a1,a6
    5246:	f35585ff          	maxw	a1,a1,s5
    524a:	00bc9833          	sll	a6,s9,a1
    524e:	dff7077f          	wexti	a4,a4,31
    5252:	fff80793          	addi	a5,a6,-1 # 3fffffff <_DATA_LMA_START+0x1fff4c1f>
    5256:	00072f13          	slti	t5,a4,0
    525a:	4017d813          	srai	a6,a5,0x1
    525e:	987a                	c.add	a6,t5
    5260:	8ff9                	c.and	a5,a4
    5262:	00f827b3          	slt	a5,a6,a5
    5266:	40b75733          	sra	a4,a4,a1
    526a:	973e                	c.add	a4,a5
    526c:	975e                	c.add	a4,s7
    526e:	f3a7077f          	maxw	a4,a4,s10
    5272:	f1b7077f          	minw	a4,a4,s11
    5276:	00e680a3          	sb	a4,1(a3)
    527a:	004a2583          	lw	a1,4(s4)
    527e:	004b2f03          	lw	t5,4(s6)
    5282:	f355887f          	maxw	a6,a1,s5
    5286:	01089833          	sll	a6,a7,a6
    528a:	40000737          	lui	a4,0x40000
    528e:	4781                	c.li	a5,0
    5290:	85e8177f          	smar64	a4,a6,t5
    5294:	40b005b3          	neg	a1,a1
    5298:	f35585ff          	maxw	a1,a1,s5
    529c:	00bc9833          	sll	a6,s9,a1
    52a0:	dff7077f          	wexti	a4,a4,31
    52a4:	fff80793          	addi	a5,a6,-1
    52a8:	4017d813          	srai	a6,a5,0x1
    52ac:	00072893          	slti	a7,a4,0
    52b0:	8ff9                	c.and	a5,a4
    52b2:	9846                	c.add	a6,a7
    52b4:	00f827b3          	slt	a5,a6,a5
    52b8:	40b75733          	sra	a4,a4,a1
    52bc:	973e                	c.add	a4,a5
    52be:	975e                	c.add	a4,s7
    52c0:	478a                	c.lwsp	a5,128(sp)
    52c2:	f3a7077f          	maxw	a4,a4,s10
    52c6:	0c09                	c.addi	s8,2
    52c8:	f1b7077f          	minw	a4,a4,s11
    52cc:	953e                	c.add	a0,a5
    52ce:	47f2                	c.lwsp	a5,28(sp)
    52d0:	feec0fa3          	sb	a4,-1(s8)
    52d4:	0689                	c.addi	a3,2
    52d6:	0b21                	c.addi	s6,8
    52d8:	0a21                	c.addi	s4,8
    52da:	d8fc11e3          	bne	s8,a5,505c <riscv_nn_mat_mult_kernel_row_offset_s8_s16+0x8c>
    52de:	54d2                	c.lwsp	s1,52(sp)
    52e0:	57e2                	c.lwsp	a5,56(sp)
    52e2:	4f86                	c.lwsp	t6,64(sp)
    52e4:	4716                	c.lwsp	a4,68(sp)
    52e6:	42ca                	c.lwsp	t0,144(sp)
    52e8:	048e                	c.slli	s1,0x3
    52ea:	5472                	c.lwsp	s0,60(sp)
    52ec:	499a                	c.lwsp	s3,132(sp)
    52ee:	493a                	c.lwsp	s2,140(sp)
    52f0:	92be                	c.add	t0,a5
    52f2:	9726                	c.add	a4,s1
    52f4:	009f8fb3          	add	t6,t6,s1
    52f8:	00147793          	andi	a5,s0,1
    52fc:	16078863          	beqz	a5,546c <riscv_nn_mat_mult_kernel_row_offset_s8_s16+0x49c>
    5300:	47e2                	c.lwsp	a5,24(sp)
    5302:	00199e13          	slli	t3,s3,0x1
    5306:	9e3e                	c.add	t3,a5
    5308:	4681                	c.li	a3,0
    530a:	c219                	c.beqz	a2,5310 <riscv_nn_mat_mult_kernel_row_offset_s8_s16+0x340>
    530c:	00062683          	lw	a3,0(a2)
    5310:	478a                	c.lwsp	a5,128(sp)
    5312:	4027df13          	srai	t5,a5,0x2
    5316:	180f0d63          	beqz	t5,54b0 <riscv_nn_mat_mult_kernel_row_offset_s8_s16+0x4e0>
    531a:	45e2                	c.lwsp	a1,24(sp)
    531c:	8872                	c.mv	a6,t3
    531e:	8efa                	c.mv	t4,t5
    5320:	8336                	c.mv	t1,a3
    5322:	88aa                	c.mv	a7,a0
    5324:	4184                	c.lw	s1,0(a1)
    5326:	00082383          	lw	t2,0(a6)
    532a:	0008a783          	lw	a5,0(a7)
    532e:	8a3e                	c.mv	s4,a5
    5330:	8abe                	c.mv	s5,a5
    5332:	0891                	c.addi	a7,4
    5334:	de8a067f          	wexti	a2,s4,8
    5338:	ac96067f          	sunpkd820	a2,a2
    533c:	ac9787ff          	sunpkd820	a5,a5
    5340:	489796ff          	kmada	a3,a5,s1
    5344:	4877937f          	kmada	t1,a5,t2
    5348:	00458393          	addi	t2,a1,4
    534c:	0003a383          	lw	t2,0(t2)
    5350:	05a1                	c.addi	a1,8
    5352:	00480793          	addi	a5,a6,4
    5356:	439c                	c.lw	a5,0(a5)
    5358:	0821                	c.addi	a6,8
    535a:	487616ff          	kmada	a3,a2,t2
    535e:	48f6137f          	kmada	t1,a2,a5
    5362:	1efd                	c.addi	t4,-1
    5364:	fc0e90e3          	bnez	t4,5324 <riscv_nn_mat_mult_kernel_row_offset_s8_s16+0x354>
    5368:	4662                	c.lwsp	a2,24(sp)
    536a:	003f1793          	slli	a5,t5,0x3
    536e:	0f0a                	c.slli	t5,0x2
    5370:	9e3e                	c.add	t3,a5
    5372:	957a                	c.add	a0,t5
    5374:	97b2                	c.add	a5,a2
    5376:	cc3e                	c.swsp	a5,24(sp)
    5378:	478a                	c.lwsp	a5,128(sp)
    537a:	8b8d                	c.andi	a5,3
    537c:	c7b1                	c.beqz	a5,53c8 <riscv_nn_mat_mult_kernel_row_offset_s8_s16+0x3f8>
    537e:	44e2                	c.lwsp	s1,24(sp)
    5380:	00050603          	lb	a2,0(a0)
    5384:	00049883          	lh	a7,0(s1)
    5388:	000e1803          	lh	a6,0(t3)
    538c:	4585                	c.li	a1,1
    538e:	c4c896ff          	maddr32	a3,a7,a2
    5392:	c4c8137f          	maddr32	t1,a6,a2
    5396:	02b78963          	beq	a5,a1,53c8 <riscv_nn_mat_mult_kernel_row_offset_s8_s16+0x3f8>
    539a:	00150603          	lb	a2,1(a0)
    539e:	00249883          	lh	a7,2(s1)
    53a2:	002e1803          	lh	a6,2(t3)
    53a6:	4589                	c.li	a1,2
    53a8:	c4c896ff          	maddr32	a3,a7,a2
    53ac:	c4c8137f          	maddr32	t1,a6,a2
    53b0:	00b78c63          	beq	a5,a1,53c8 <riscv_nn_mat_mult_kernel_row_offset_s8_s16+0x3f8>
    53b4:	00250783          	lb	a5,2(a0)
    53b8:	00449583          	lh	a1,4(s1)
    53bc:	004e1603          	lh	a2,4(t3)
    53c0:	c4f596ff          	maddr32	a3,a1,a5
    53c4:	c4f6137f          	maddr32	t1,a2,a5
    53c8:	000fae83          	lw	t4,0(t6)
    53cc:	431c                	c.lw	a5,0(a4)
    53ce:	4e01                	c.li	t3,0
    53d0:	f3ce867f          	maxw	a2,t4,t3
    53d4:	40000537          	lui	a0,0x40000
    53d8:	4581                	c.li	a1,0
    53da:	00c696b3          	sll	a3,a3,a2
    53de:	882a                	c.mv	a6,a0
    53e0:	88ae                	c.mv	a7,a1
    53e2:	84f6987f          	smar64	a6,a3,a5
    53e6:	41d00eb3          	neg	t4,t4
    53ea:	4685                	c.li	a3,1
    53ec:	f3ce8eff          	maxw	t4,t4,t3
    53f0:	01d69633          	sll	a2,a3,t4
    53f4:	dff807ff          	wexti	a5,a6,31
    53f8:	167d                	c.addi	a2,-1
    53fa:	40165813          	srai	a6,a2,0x1
    53fe:	0007a893          	slti	a7,a5,0
    5402:	8e7d                	c.and	a2,a5
    5404:	9846                	c.add	a6,a7
    5406:	00c82633          	slt	a2,a6,a2
    540a:	41d7d7b3          	sra	a5,a5,t4
    540e:	97b2                	c.add	a5,a2
    5410:	97de                	c.add	a5,s7
    5412:	f2fd07ff          	maxw	a5,s10,a5
    5416:	f0fd87ff          	minw	a5,s11,a5
    541a:	00f28023          	sb	a5,0(t0)
    541e:	000fa783          	lw	a5,0(t6)
    5422:	4318                	c.lw	a4,0(a4)
    5424:	f3c7867f          	maxw	a2,a5,t3
    5428:	00c31333          	sll	t1,t1,a2
    542c:	84e3157f          	smar64	a0,t1,a4
    5430:	40f00733          	neg	a4,a5
    5434:	f3c7077f          	maxw	a4,a4,t3
    5438:	00e697b3          	sll	a5,a3,a4
    543c:	dff5057f          	wexti	a0,a0,31
    5440:	17fd                	c.addi	a5,-1
    5442:	4017d693          	srai	a3,a5,0x1
    5446:	00052613          	slti	a2,a0,0
    544a:	8fe9                	c.and	a5,a0
    544c:	96b2                	c.add	a3,a2
    544e:	00f6a7b3          	slt	a5,a3,a5
    5452:	40e55733          	sra	a4,a0,a4
    5456:	973e                	c.add	a4,a5
    5458:	9bba                	c.add	s7,a4
    545a:	47f2                	c.lwsp	a5,28(sp)
    545c:	f37d0d7f          	maxw	s10,s10,s7
    5460:	f1ad8dff          	minw	s11,s11,s10
    5464:	00128293          	addi	t0,t0,1
    5468:	01b78023          	sb	s11,0(a5)
    546c:	0906                	c.slli	s2,0x1
    546e:	40890933          	sub	s2,s2,s0
    5472:	5476                	c.lwsp	s0,124(sp)
    5474:	54e6                	c.lwsp	s1,120(sp)
    5476:	59c6                	c.lwsp	s3,112(sp)
    5478:	5a36                	c.lwsp	s4,108(sp)
    547a:	5aa6                	c.lwsp	s5,104(sp)
    547c:	5b16                	c.lwsp	s6,100(sp)
    547e:	5b86                	c.lwsp	s7,96(sp)
    5480:	4c76                	c.lwsp	s8,92(sp)
    5482:	4ce6                	c.lwsp	s9,88(sp)
    5484:	4d56                	c.lwsp	s10,84(sp)
    5486:	4dc6                	c.lwsp	s11,80(sp)
    5488:	01228533          	add	a0,t0,s2
    548c:	5956                	c.lwsp	s2,116(sp)
    548e:	6109                	c.addi16sp	sp,128
    5490:	00008067          	ret
    5494:	5902                	c.lwsp	s2,32(sp)
    5496:	4581                	c.li	a1,0
    5498:	00000813          	li	a6,0
    549c:	bc091ce3          	bnez	s2,5074 <riscv_nn_mat_mult_kernel_row_offset_s8_s16+0xa4>
    54a0:	5792                	c.lwsp	a5,36(sp)
    54a2:	4762                	c.lwsp	a4,24(sp)
    54a4:	88ae                	c.mv	a7,a1
    54a6:	8f42                	c.mv	t5,a6
    54a8:	c69ff06f          	j	5110 <riscv_nn_mat_mult_kernel_row_offset_s8_s16+0x140>
    54ac:	ce62                	c.swsp	s8,28(sp)
    54ae:	b5a9                	c.j	52f8 <riscv_nn_mat_mult_kernel_row_offset_s8_s16+0x328>
    54b0:	8336                	c.mv	t1,a3
    54b2:	b5d9                	c.j	5378 <riscv_nn_mat_mult_kernel_row_offset_s8_s16+0x3a8>

000054b4 <riscv_convolve_1x1_s8>:
    54b4:	7119                	c.addi16sp	sp,-128
    54b6:	4988                	c.lw	a0,16(a1)
    54b8:	d6ce                	c.swsp	s3,108(sp)
    54ba:	de86                	c.swsp	ra,124(sp)
    54bc:	dca2                	c.swsp	s0,120(sp)
    54be:	daa6                	c.swsp	s1,116(sp)
    54c0:	d8ca                	c.swsp	s2,112(sp)
    54c2:	d4d2                	c.swsp	s4,104(sp)
    54c4:	d2d6                	c.swsp	s5,100(sp)
    54c6:	d0da                	c.swsp	s6,96(sp)
    54c8:	cede                	c.swsp	s7,92(sp)
    54ca:	cce2                	c.swsp	s8,88(sp)
    54cc:	cae6                	c.swsp	s9,84(sp)
    54ce:	c8ea                	c.swsp	s10,80(sp)
    54d0:	c6ee                	c.swsp	s11,76(sp)
    54d2:	479a                	c.lwsp	a5,132(sp)
    54d4:	49aa                	c.lwsp	s3,136(sp)
    54d6:	0e051f63          	bnez	a0,55d4 <riscv_convolve_1x1_s8+0x120>
    54da:	49c8                	c.lw	a0,20(a1)
    54dc:	0e051c63          	bnez	a0,55d4 <riscv_convolve_1x1_s8+0x120>
    54e0:	4688                	c.lw	a0,8(a3)
    54e2:	00c5ac83          	lw	s9,12(a1)
    54e6:	0087ad83          	lw	s11,8(a5)
    54ea:	03950cb3          	mul	s9,a0,s9
    54ee:	00c7aa83          	lw	s5,12(a5)
    54f2:	00c6ad03          	lw	s10,12(a3)
    54f6:	0006ae03          	lw	t3,0(a3)
    54fa:	03ac8cb3          	mul	s9,s9,s10
    54fe:	035d8c33          	mul	s8,s11,s5
    5502:	0085ab83          	lw	s7,8(a1)
    5506:	0047ab03          	lw	s6,4(a5)
    550a:	0dc05363          	blez	t3,55d0 <riscv_convolve_1x1_s8+0x11c>
    550e:	8a32                	c.mv	s4,a2
    5510:	03ab8bb3          	mul	s7,s7,s10
    5514:	87d2                	c.mv	a5,s4
    5516:	842e                	c.mv	s0,a1
    5518:	8a5a                	c.mv	s4,s6
    551a:	4581                	c.li	a1,0
    551c:	8b56                	c.mv	s6,s5
    551e:	4601                	c.li	a2,0
    5520:	8abe                	c.mv	s5,a5
    5522:	d442                	c.swsp	a6,40(sp)
    5524:	03c12e23          	sw	t3,60(sp)
    5528:	02a60533          	mul	a0,a2,a0
    552c:	0046a803          	lw	a6,4(a3)
    5530:	893a                	c.mv	s2,a4
    5532:	c505197f          	maddr32	s2,a0,a6
    5536:	09405563          	blez	s4,55c0 <riscv_convolve_1x1_s8+0x10c>
    553a:	c54e                	c.swsp	s3,136(sp)
    553c:	4481                	c.li	s1,0
    553e:	89ca                	c.mv	s3,s2
    5540:	d62e                	c.swsp	a1,44(sp)
    5542:	895a                	c.mv	s2,s6
    5544:	d832                	c.swsp	a2,48(sp)
    5546:	4b2a                	c.lwsp	s6,136(sp)
    5548:	da36                	c.swsp	a3,52(sp)
    554a:	dc3a                	c.swsp	a4,56(sp)
    554c:	00c0006f          	j	5558 <riscv_convolve_1x1_s8+0xa4>
    5550:	99e6                	c.add	s3,s9
    5552:	9b62                	c.add	s6,s8
    5554:	069a0063          	beq	s4,s1,55b4 <riscv_convolve_1x1_s8+0x100>
    5558:	02442283          	lw	t0,36(s0)
    555c:	02042f83          	lw	t6,32(s0)
    5560:	00442f03          	lw	t5,4(s0)
    5564:	00042e83          	lw	t4,0(s0)
    5568:	004aa783          	lw	a5,4(s5)
    556c:	000aa703          	lw	a4,0(s5)
    5570:	460a                	c.lwsp	a2,128(sp)
    5572:	55a2                	c.lwsp	a1,40(sp)
    5574:	86da                	c.mv	a3,s6
    5576:	854e                	c.mv	a0,s3
    5578:	88ca                	c.mv	a7,s2
    557a:	886e                	c.mv	a6,s11
    557c:	cc5e                	c.swsp	s7,24(sp)
    557e:	ca4a                	c.swsp	s2,20(sp)
    5580:	c816                	c.swsp	t0,16(sp)
    5582:	c67e                	c.swsp	t6,12(sp)
    5584:	c47a                	c.swsp	t5,8(sp)
    5586:	c276                	c.swsp	t4,4(sp)
    5588:	c06a                	c.swsp	s10,0(sp)
    558a:	0485                	c.addi	s1,1
    558c:	20c000ef          	jal	ra,5798 <riscv_nn_mat_mult_nt_t_s8>
    5590:	fc0500e3          	beqz	a0,5550 <riscv_convolve_1x1_s8+0x9c>
    5594:	50f6                	c.lwsp	ra,124(sp)
    5596:	5466                	c.lwsp	s0,120(sp)
    5598:	54d6                	c.lwsp	s1,116(sp)
    559a:	5946                	c.lwsp	s2,112(sp)
    559c:	59b6                	c.lwsp	s3,108(sp)
    559e:	5a26                	c.lwsp	s4,104(sp)
    55a0:	5a96                	c.lwsp	s5,100(sp)
    55a2:	5b06                	c.lwsp	s6,96(sp)
    55a4:	4bf6                	c.lwsp	s7,92(sp)
    55a6:	4c66                	c.lwsp	s8,88(sp)
    55a8:	4cd6                	c.lwsp	s9,84(sp)
    55aa:	4d46                	c.lwsp	s10,80(sp)
    55ac:	4db6                	c.lwsp	s11,76(sp)
    55ae:	6109                	c.addi16sp	sp,128
    55b0:	00008067          	ret
    55b4:	55b2                	c.lwsp	a1,44(sp)
    55b6:	5642                	c.lwsp	a2,48(sp)
    55b8:	56d2                	c.lwsp	a3,52(sp)
    55ba:	5762                	c.lwsp	a4,56(sp)
    55bc:	89da                	c.mv	s3,s6
    55be:	8b4a                	c.mv	s6,s2
    55c0:	57f2                	c.lwsp	a5,60(sp)
    55c2:	0585                	c.addi	a1,1
    55c4:	966a                	c.add	a2,s10
    55c6:	00b78563          	beq	a5,a1,55d0 <riscv_convolve_1x1_s8+0x11c>
    55ca:	4688                	c.lw	a0,8(a3)
    55cc:	f5dff06f          	j	5528 <riscv_convolve_1x1_s8+0x74>
    55d0:	4501                	c.li	a0,0
    55d2:	b7c9                	c.j	5594 <riscv_convolve_1x1_s8+0xe0>
    55d4:	557d                	c.li	a0,-1
    55d6:	bf7d                	c.j	5594 <riscv_convolve_1x1_s8+0xe0>

000055d8 <riscv_depthwise_conv_wrapper_s8>:
    55d8:	1101                	c.addi	sp,-32
    55da:	0085ae03          	lw	t3,8(a1)
    55de:	ce22                	c.swsp	s0,28(sp)
    55e0:	cc26                	c.swsp	s1,24(sp)
    55e2:	ca4a                	c.swsp	s2,20(sp)
    55e4:	c84e                	c.swsp	s3,16(sp)
    55e6:	c652                	c.swsp	s4,12(sp)
    55e8:	c456                	c.swsp	s5,8(sp)
    55ea:	4f85                	c.li	t6,1
    55ec:	c25a                	c.swsp	s6,4(sp)
    55ee:	5282                	c.lwsp	t0,32(sp)
    55f0:	5392                	c.lwsp	t2,36(sp)
    55f2:	5422                	c.lwsp	s0,40(sp)
    55f4:	832e                	c.mv	t1,a1
    55f6:	84aa                	c.mv	s1,a0
    55f8:	8932                	c.mv	s2,a2
    55fa:	8eb6                	c.mv	t4,a3
    55fc:	89ba                	c.mv	s3,a4
    55fe:	8f3e                	c.mv	t5,a5
    5600:	8a42                	c.mv	s4,a6
    5602:	8ac6                	c.mv	s5,a7
    5604:	01fe1663          	bne	t3,t6,5610 <riscv_depthwise_conv_wrapper_s8+0x38>
    5608:	0006af83          	lw	t6,0(a3)
    560c:	03cf8863          	beq	t6,t3,563c <riscv_depthwise_conv_wrapper_s8+0x64>
    5610:	d422                	c.swsp	s0,40(sp)
    5612:	4472                	c.lwsp	s0,28(sp)
    5614:	4b12                	c.lwsp	s6,4(sp)
    5616:	d21e                	c.swsp	t2,36(sp)
    5618:	d016                	c.swsp	t0,32(sp)
    561a:	88d6                	c.mv	a7,s5
    561c:	8852                	c.mv	a6,s4
    561e:	4aa2                	c.lwsp	s5,8(sp)
    5620:	4a32                	c.lwsp	s4,12(sp)
    5622:	874e                	c.mv	a4,s3
    5624:	864a                	c.mv	a2,s2
    5626:	49c2                	c.lwsp	s3,16(sp)
    5628:	4952                	c.lwsp	s2,20(sp)
    562a:	8526                	c.mv	a0,s1
    562c:	44e2                	c.lwsp	s1,24(sp)
    562e:	87fa                	c.mv	a5,t5
    5630:	86f6                	c.mv	a3,t4
    5632:	859a                	c.mv	a1,t1
    5634:	02010113          	addi	sp,sp,32
    5638:	7100106f          	j	6d48 <riscv_depthwise_conv_s8>
    563c:	01c5ae03          	lw	t3,28(a1)
    5640:	fdfe18e3          	bne	t3,t6,5610 <riscv_depthwise_conv_wrapper_s8+0x38>
    5644:	0205af83          	lw	t6,32(a1)
    5648:	fdcf94e3          	bne	t6,t3,5610 <riscv_depthwise_conv_wrapper_s8+0x38>
    564c:	0087ae03          	lw	t3,8(a5)
    5650:	00300b13          	li	s6,3
    5654:	016e1663          	bne	t3,s6,5660 <riscv_depthwise_conv_wrapper_s8+0x88>
    5658:	0047ab03          	lw	s6,4(a5)
    565c:	03cb0863          	beq	s6,t3,568c <riscv_depthwise_conv_wrapper_s8+0xb4>
    5660:	d422                	c.swsp	s0,40(sp)
    5662:	4472                	c.lwsp	s0,28(sp)
    5664:	4b12                	c.lwsp	s6,4(sp)
    5666:	d21e                	c.swsp	t2,36(sp)
    5668:	d016                	c.swsp	t0,32(sp)
    566a:	88d6                	c.mv	a7,s5
    566c:	8852                	c.mv	a6,s4
    566e:	4aa2                	c.lwsp	s5,8(sp)
    5670:	4a32                	c.lwsp	s4,12(sp)
    5672:	874e                	c.mv	a4,s3
    5674:	864a                	c.mv	a2,s2
    5676:	49c2                	c.lwsp	s3,16(sp)
    5678:	4952                	c.lwsp	s2,20(sp)
    567a:	8526                	c.mv	a0,s1
    567c:	44e2                	c.lwsp	s1,24(sp)
    567e:	87fa                	c.mv	a5,t5
    5680:	86f6                	c.mv	a3,t4
    5682:	859a                	c.mv	a1,t1
    5684:	02010113          	addi	sp,sp,32
    5688:	3290106f          	j	71b0 <riscv_depthwise_conv_s8_opt>
    568c:	0185ae03          	lw	t3,24(a1)
    5690:	fdcfc8e3          	blt	t6,t3,5660 <riscv_depthwise_conv_wrapper_s8+0x88>
    5694:	0145ae03          	lw	t3,20(a1)
    5698:	fdcfc4e3          	blt	t6,t3,5660 <riscv_depthwise_conv_wrapper_s8+0x88>
    569c:	4472                	c.lwsp	s0,28(sp)
    569e:	44e2                	c.lwsp	s1,24(sp)
    56a0:	4952                	c.lwsp	s2,20(sp)
    56a2:	49c2                	c.lwsp	s3,16(sp)
    56a4:	4a32                	c.lwsp	s4,12(sp)
    56a6:	4aa2                	c.lwsp	s5,8(sp)
    56a8:	4b12                	c.lwsp	s6,4(sp)
    56aa:	6105                	c.addi16sp	sp,32
    56ac:	1e40206f          	j	7890 <riscv_depthwise_conv_3x3_s8>

000056b0 <riscv_depthwise_conv_wrapper_s16>:
    56b0:	1101                	c.addi	sp,-32
    56b2:	0085ae03          	lw	t3,8(a1)
    56b6:	ce22                	c.swsp	s0,28(sp)
    56b8:	cc26                	c.swsp	s1,24(sp)
    56ba:	ca4a                	c.swsp	s2,20(sp)
    56bc:	c84e                	c.swsp	s3,16(sp)
    56be:	c652                	c.swsp	s4,12(sp)
    56c0:	c456                	c.swsp	s5,8(sp)
    56c2:	4f05                	c.li	t5,1
    56c4:	c25a                	c.swsp	s6,4(sp)
    56c6:	5f82                	c.lwsp	t6,32(sp)
    56c8:	5292                	c.lwsp	t0,36(sp)
    56ca:	53a2                	c.lwsp	t2,40(sp)
    56cc:	832e                	c.mv	t1,a1
    56ce:	842a                	c.mv	s0,a0
    56d0:	84b2                	c.mv	s1,a2
    56d2:	8936                	c.mv	s2,a3
    56d4:	89ba                	c.mv	s3,a4
    56d6:	8ebe                	c.mv	t4,a5
    56d8:	8a42                	c.mv	s4,a6
    56da:	8ac6                	c.mv	s5,a7
    56dc:	01ee1663          	bne	t3,t5,56e8 <riscv_depthwise_conv_wrapper_s16+0x38>
    56e0:	01c5af03          	lw	t5,28(a1)
    56e4:	03cf0863          	beq	t5,t3,5714 <riscv_depthwise_conv_wrapper_s16+0x64>
    56e8:	8522                	c.mv	a0,s0
    56ea:	4472                	c.lwsp	s0,28(sp)
    56ec:	4b12                	c.lwsp	s6,4(sp)
    56ee:	d41e                	c.swsp	t2,40(sp)
    56f0:	d216                	c.swsp	t0,36(sp)
    56f2:	d07e                	c.swsp	t6,32(sp)
    56f4:	88d6                	c.mv	a7,s5
    56f6:	8852                	c.mv	a6,s4
    56f8:	4aa2                	c.lwsp	s5,8(sp)
    56fa:	4a32                	c.lwsp	s4,12(sp)
    56fc:	874e                	c.mv	a4,s3
    56fe:	86ca                	c.mv	a3,s2
    5700:	49c2                	c.lwsp	s3,16(sp)
    5702:	4952                	c.lwsp	s2,20(sp)
    5704:	8626                	c.mv	a2,s1
    5706:	44e2                	c.lwsp	s1,24(sp)
    5708:	87f6                	c.mv	a5,t4
    570a:	859a                	c.mv	a1,t1
    570c:	02010113          	addi	sp,sp,32
    5710:	6510006f          	j	6560 <riscv_depthwise_conv_s16>
    5714:	0205ae03          	lw	t3,32(a1)
    5718:	fdee18e3          	bne	t3,t5,56e8 <riscv_depthwise_conv_wrapper_s16+0x38>
    571c:	0087ae03          	lw	t3,8(a5)
    5720:	0047ab03          	lw	s6,4(a5)
    5724:	1ff00f13          	li	t5,511
    5728:	036e0e33          	mul	t3,t3,s6
    572c:	fbcf4ee3          	blt	t5,t3,56e8 <riscv_depthwise_conv_wrapper_s16+0x38>
    5730:	4472                	c.lwsp	s0,28(sp)
    5732:	44e2                	c.lwsp	s1,24(sp)
    5734:	4952                	c.lwsp	s2,20(sp)
    5736:	49c2                	c.lwsp	s3,16(sp)
    5738:	4a32                	c.lwsp	s4,12(sp)
    573a:	4aa2                	c.lwsp	s5,8(sp)
    573c:	4b12                	c.lwsp	s6,4(sp)
    573e:	6105                	c.addi16sp	sp,32
    5740:	1390306f          	j	9078 <riscv_depthwise_conv_fast_s16>

00005744 <riscv_convolve_1_x_n_s8>:
    5744:	0046a303          	lw	t1,4(a3)
    5748:	4f05                	c.li	t5,1
    574a:	05e31563          	bne	t1,t5,5794 <riscv_convolve_1_x_n_s8+0x50>
    574e:	0185af03          	lw	t5,24(a1)
    5752:	046f1163          	bne	t5,t1,5794 <riscv_convolve_1_x_n_s8+0x50>
    5756:	00052303          	lw	t1,0(a0) # 40000000 <_DATA_LMA_START+0x1fff4c20>
    575a:	02030d63          	beqz	t1,5794 <riscv_convolve_1_x_n_s8+0x50>
    575e:	0085a303          	lw	t1,8(a1)
    5762:	02030963          	beqz	t1,5794 <riscv_convolve_1_x_n_s8+0x50>
    5766:	00c6ae03          	lw	t3,12(a3)
    576a:	03c30333          	mul	t1,t1,t3
    576e:	00337313          	andi	t1,t1,3
    5772:	02031163          	bnez	t1,5794 <riscv_convolve_1_x_n_s8+0x50>
    5776:	1101                	c.addi	sp,-32
    5778:	5322                	c.lwsp	t1,40(sp)
    577a:	ce06                	c.swsp	ra,28(sp)
    577c:	c61a                	c.swsp	t1,12(sp)
    577e:	5312                	c.lwsp	t1,36(sp)
    5780:	c202                	c.swsp	zero,4(sp)
    5782:	c41a                	c.swsp	t1,8(sp)
    5784:	5302                	c.lwsp	t1,32(sp)
    5786:	c01a                	c.swsp	t1,0(sp)
    5788:	9ecfe0ef          	jal	ra,3974 <riscv_convolve_s8>
    578c:	40f2                	c.lwsp	ra,28(sp)
    578e:	6105                	c.addi16sp	sp,32
    5790:	00008067          	ret
    5794:	557d                	c.li	a0,-1
    5796:	8082                	c.jr	ra

00005798 <riscv_nn_mat_mult_nt_t_s8>:
    5798:	7101                	c.addi16sp	sp,-512
    579a:	1f412623          	sw	s4,492(sp)
    579e:	1f512423          	sw	s5,488(sp)
    57a2:	1f612223          	sw	s6,484(sp)
    57a6:	8ac6                	c.mv	s5,a7
    57a8:	1f712023          	sw	s7,480(sp)
    57ac:	4885                	c.li	a7,1
    57ae:	1e812e23          	sw	s0,508(sp)
    57b2:	1e912c23          	sw	s1,504(sp)
    57b6:	1f212a23          	sw	s2,500(sp)
    57ba:	1f312823          	sw	s3,496(sp)
    57be:	1d812e23          	sw	s8,476(sp)
    57c2:	1d912c23          	sw	s9,472(sp)
    57c6:	1da12a23          	sw	s10,468(sp)
    57ca:	1db12823          	sw	s11,464(sp)
    57ce:	14c12823          	sw	a2,336(sp)
    57d2:	8b2a                	c.mv	s6,a0
    57d4:	8a36                	c.mv	s4,a3
    57d6:	853e                	c.mv	a0,a5
    57d8:	20412b83          	lw	s7,516(sp)
    57dc:	86ba                	c.mv	a3,a4
    57de:	87c2                	c.mv	a5,a6
    57e0:	3f58d0e3          	bge	a7,s5,63c0 <riscv_nn_mat_mult_nt_t_s8+0xc28>
    57e4:	40185713          	srai	a4,a6,0x1
    57e8:	03570eb3          	mul	t4,a4,s5
    57ec:	14e12c23          	sw	a4,344(sp)
    57f0:	20012703          	lw	a4,512(sp)
    57f4:	20012283          	lw	t0,512(sp)
    57f8:	1741                	c.addi	a4,-16
    57fa:	9b41                	c.andi	a4,-16
    57fc:	0741                	c.addi	a4,16
    57fe:	deba                	c.swsp	a4,124(sp)
    5800:	001e9713          	slli	a4,t4,0x1
    5804:	1ae12823          	sw	a4,432(sp)
    5808:	ffd28713          	addi	a4,t0,-3
    580c:	21812803          	lw	a6,536(sp)
    5810:	10e12223          	sw	a4,260(sp)
    5814:	21812703          	lw	a4,536(sp)
    5818:	ffea8893          	addi	a7,s5,-2
    581c:	0711                	c.addi	a4,4
    581e:	20012303          	lw	t1,512(sp)
    5822:	0806                	c.slli	a6,0x1
    5824:	40580833          	sub	a6,a6,t0
    5828:	ffe8fe13          	andi	t3,a7,-2
    582c:	d2ba                	c.swsp	a4,100(sp)
    582e:	21812703          	lw	a4,536(sp)
    5832:	0311                	c.addi	t1,4
    5834:	8cb2                	c.mv	s9,a2
    5836:	11012423          	sw	a6,264(sp)
    583a:	014e0633          	add	a2,t3,s4
    583e:	0017f813          	andi	a6,a5,1
    5842:	00870393          	addi	t2,a4,8 # 40000008 <_DATA_LMA_START+0x1fff4c28>
    5846:	8c52                	c.mv	s8,s4
    5848:	932e                	c.add	t1,a1
    584a:	1771                	c.addi	a4,-4
    584c:	15012e23          	sw	a6,348(sp)
    5850:	16c12023          	sw	a2,352(sp)
    5854:	00129813          	slli	a6,t0,0x1
    5858:	001a9613          	slli	a2,s5,0x1
    585c:	1cf12623          	sw	a5,460(sp)
    5860:	20012783          	lw	a5,512(sp)
    5864:	15612a23          	sw	s6,340(sp)
    5868:	1b012a23          	sw	a6,436(sp)
    586c:	ddb6                	c.swsp	a3,248(sp)
    586e:	dbaa                	c.swsp	a0,244(sp)
    5870:	df9a                	c.swsp	t1,252(sp)
    5872:	10c12623          	sw	a2,268(sp)
    5876:	d5ae                	c.swsp	a1,232(sp)
    5878:	d0ba                	c.swsp	a4,96(sp)
    587a:	1b112c23          	sw	a7,440(sp)
    587e:	1ab12e23          	sw	a1,444(sp)
    5882:	1d412023          	sw	s4,448(sp)
    5886:	1cd12223          	sw	a3,452(sp)
    588a:	1ca12423          	sw	a0,456(sp)
    588e:	17512223          	sw	s5,356(sp)
    5892:	d49e                	c.swsp	t2,104(sp)
    5894:	d6e2                	c.swsp	s8,108(sp)
    5896:	12f1                	c.addi	t0,-4
    5898:	01000b33          	add	s6,zero,a6
    589c:	64f05c63          	blez	a5,5ef4 <riscv_nn_mat_mult_nt_t_s8+0x75c>
    58a0:	562e                	c.lwsp	a2,232(sp)
    58a2:	85be                	c.mv	a1,a5
    58a4:	4701                	c.li	a4,0
    58a6:	87b2                	c.mv	a5,a2
    58a8:	4681                	c.li	a3,0
    58aa:	00b60533          	add	a0,a2,a1
    58ae:	882e                	c.mv	a6,a1
    58b0:	01078633          	add	a2,a5,a6
    58b4:	00078583          	lb	a1,0(a5)
    58b8:	00060603          	lb	a2,0(a2)
    58bc:	0785                	c.addi	a5,1
    58be:	96ae                	c.add	a3,a1
    58c0:	9732                	c.add	a4,a2
    58c2:	fef517e3          	bne	a0,a5,58b0 <riscv_nn_mat_mult_nt_t_s8+0x118>
    58c6:	02db87b3          	mul	a5,s7,a3
    58ca:	d9be                	c.swsp	a5,240(sp)
    58cc:	02eb87b3          	mul	a5,s7,a4
    58d0:	0ef12623          	sw	a5,236(sp)
    58d4:	15012783          	lw	a5,336(sp)
    58d8:	cf81                	c.beqz	a5,58f0 <riscv_nn_mat_mult_nt_t_s8+0x158>
    58da:	56ce                	c.lwsp	a3,240(sp)
    58dc:	000ca703          	lw	a4,0(s9)
    58e0:	004ca783          	lw	a5,4(s9)
    58e4:	9736                	c.add	a4,a3
    58e6:	d9ba                	c.swsp	a4,240(sp)
    58e8:	573e                	c.lwsp	a4,236(sp)
    58ea:	97ba                	c.add	a5,a4
    58ec:	0ef12623          	sw	a5,236(sp)
    58f0:	15812783          	lw	a5,344(sp)
    58f4:	3c0788e3          	beqz	a5,64c4 <riscv_nn_mat_mult_nt_t_s8+0xd2c>
    58f8:	16412703          	lw	a4,356(sp)
    58fc:	56f6                	c.lwsp	a3,124(sp)
    58fe:	9762                	c.add	a4,s8
    5900:	d8ba                	c.swsp	a4,112(sp)
    5902:	572e                	c.lwsp	a4,232(sp)
    5904:	15412583          	lw	a1,340(sp)
    5908:	9736                	c.add	a4,a3
    590a:	14e12023          	sw	a4,320(sp)
    590e:	dcbe                	c.swsp	a5,120(sp)
    5910:	15612223          	sw	s6,324(sp)
    5914:	15912423          	sw	s9,328(sp)
    5918:	15812623          	sw	s8,332(sp)
    591c:	21712223          	sw	s7,516(sp)
    5920:	10512023          	sw	t0,256(sp)
    5924:	20012783          	lw	a5,512(sp)
    5928:	473d                	c.li	a4,15
    592a:	5cf75b63          	bge	a4,a5,5f00 <riscv_nn_mat_mult_nt_t_s8+0x768>
    592e:	57f6                	c.lwsp	a5,124(sp)
    5930:	573e                	c.lwsp	a4,236(sp)
    5932:	00f58533          	add	a0,a1,a5
    5936:	582e                	c.lwsp	a6,232(sp)
    5938:	57ce                	c.lwsp	a5,240(sp)
    593a:	58fe                	c.lwsp	a7,252(sp)
    593c:	863a                	c.mv	a2,a4
    593e:	86be                	c.mv	a3,a5
    5940:	873e                	c.mv	a4,a5
    5942:	ceaa                	c.swsp	a0,92(sp)
    5944:	87b2                	c.mv	a5,a2
    5946:	852e                	c.mv	a0,a1
    5948:	85c2                	c.mv	a1,a6
    594a:	8846                	c.mv	a6,a7
    594c:	c47a                	c.swsp	t5,8(sp)
    594e:	c67e                	c.swsp	t6,12(sp)
    5950:	0005a303          	lw	t1,0(a1)
    5954:	ac9303ff          	sunpkd820	t2,t1
    5958:	00052283          	lw	t0,0(a0)
    595c:	ac928e7f          	sunpkd820	t3,t0
    5960:	ffc80893          	addi	a7,a6,-4
    5964:	0008a883          	lw	a7,0(a7)
    5968:	891a                	c.mv	s2,t1
    596a:	899a                	c.mv	s3,t1
    596c:	de89037f          	wexti	t1,s2,8
    5970:	ac93037f          	sunpkd820	t1,t1
    5974:	8d16                	c.mv	s10,t0
    5976:	8d96                	c.mv	s11,t0
    5978:	de8d02ff          	wexti	t0,s10,8
    597c:	ac9282ff          	sunpkd820	t0,t0
    5980:	487e16ff          	kmada	a3,t3,t2
    5984:	ac988eff          	sunpkd820	t4,a7
    5988:	486296ff          	kmada	a3,t0,t1
    598c:	8446                	c.mv	s0,a7
    598e:	84c6                	c.mv	s1,a7
    5990:	de8408ff          	wexti	a7,s0,8
    5994:	ac9888ff          	sunpkd820	a7,a7
    5998:	49de167f          	kmada	a2,t3,t4
    599c:	4912967f          	kmada	a2,t0,a7
    59a0:	21812e03          	lw	t3,536(sp)
    59a4:	01c502b3          	add	t0,a0,t3
    59a8:	0002a283          	lw	t0,0(t0)
    59ac:	ac928e7f          	sunpkd820	t3,t0
    59b0:	c416                	c.swsp	t0,8(sp)
    59b2:	c616                	c.swsp	t0,12(sp)
    59b4:	4f22                	c.lwsp	t5,8(sp)
    59b6:	4fb2                	c.lwsp	t6,12(sp)
    59b8:	de8f02ff          	wexti	t0,t5,8
    59bc:	ac9282ff          	sunpkd820	t0,t0
    59c0:	487e177f          	kmada	a4,t3,t2
    59c4:	49de17ff          	kmada	a5,t3,t4
    59c8:	4862977f          	kmada	a4,t0,t1
    59cc:	00458313          	addi	t1,a1,4
    59d0:	00032303          	lw	t1,0(t1)
    59d4:	491297ff          	kmada	a5,t0,a7
    59d8:	00082883          	lw	a7,0(a6)
    59dc:	ac9303ff          	sunpkd820	t2,t1
    59e0:	00450293          	addi	t0,a0,4
    59e4:	0002a283          	lw	t0,0(t0)
    59e8:	ac928e7f          	sunpkd820	t3,t0
    59ec:	c81a                	c.swsp	t1,16(sp)
    59ee:	ca1a                	c.swsp	t1,20(sp)
    59f0:	4f42                	c.lwsp	t5,16(sp)
    59f2:	4fd2                	c.lwsp	t6,20(sp)
    59f4:	de8f037f          	wexti	t1,t5,8
    59f8:	ac93037f          	sunpkd820	t1,t1
    59fc:	cc16                	c.swsp	t0,24(sp)
    59fe:	ce16                	c.swsp	t0,28(sp)
    5a00:	4f62                	c.lwsp	t5,24(sp)
    5a02:	4ff2                	c.lwsp	t6,28(sp)
    5a04:	de8f02ff          	wexti	t0,t5,8
    5a08:	ac9282ff          	sunpkd820	t0,t0
    5a0c:	487e16ff          	kmada	a3,t3,t2
    5a10:	ac988eff          	sunpkd820	t4,a7
    5a14:	486296ff          	kmada	a3,t0,t1
    5a18:	d046                	c.swsp	a7,32(sp)
    5a1a:	d246                	c.swsp	a7,36(sp)
    5a1c:	5f02                	c.lwsp	t5,32(sp)
    5a1e:	5f92                	c.lwsp	t6,36(sp)
    5a20:	de8f08ff          	wexti	a7,t5,8
    5a24:	ac9888ff          	sunpkd820	a7,a7
    5a28:	49de167f          	kmada	a2,t3,t4
    5a2c:	4912967f          	kmada	a2,t0,a7
    5a30:	5e16                	c.lwsp	t3,100(sp)
    5a32:	01c502b3          	add	t0,a0,t3
    5a36:	0002a283          	lw	t0,0(t0)
    5a3a:	ac928e7f          	sunpkd820	t3,t0
    5a3e:	8c16                	c.mv	s8,t0
    5a40:	8c96                	c.mv	s9,t0
    5a42:	de8c02ff          	wexti	t0,s8,8
    5a46:	ac9282ff          	sunpkd820	t0,t0
    5a4a:	487e177f          	kmada	a4,t3,t2
    5a4e:	49de17ff          	kmada	a5,t3,t4
    5a52:	4862977f          	kmada	a4,t0,t1
    5a56:	00858313          	addi	t1,a1,8
    5a5a:	00032303          	lw	t1,0(t1)
    5a5e:	491297ff          	kmada	a5,t0,a7
    5a62:	00480293          	addi	t0,a6,4
    5a66:	0002a883          	lw	a7,0(t0)
    5a6a:	ac9303ff          	sunpkd820	t2,t1
    5a6e:	00850293          	addi	t0,a0,8
    5a72:	0002a283          	lw	t0,0(t0)
    5a76:	ac928e7f          	sunpkd820	t3,t0
    5a7a:	8b1a                	c.mv	s6,t1
    5a7c:	8b9a                	c.mv	s7,t1
    5a7e:	de8b037f          	wexti	t1,s6,8
    5a82:	ac93037f          	sunpkd820	t1,t1
    5a86:	8a16                	c.mv	s4,t0
    5a88:	8a96                	c.mv	s5,t0
    5a8a:	de8a02ff          	wexti	t0,s4,8
    5a8e:	ac9282ff          	sunpkd820	t0,t0
    5a92:	487e16ff          	kmada	a3,t3,t2
    5a96:	ac988eff          	sunpkd820	t4,a7
    5a9a:	486296ff          	kmada	a3,t0,t1
    5a9e:	d446                	c.swsp	a7,40(sp)
    5aa0:	d646                	c.swsp	a7,44(sp)
    5aa2:	5f22                	c.lwsp	t5,40(sp)
    5aa4:	5fb2                	c.lwsp	t6,44(sp)
    5aa6:	de8f08ff          	wexti	a7,t5,8
    5aaa:	ac9888ff          	sunpkd820	a7,a7
    5aae:	49de167f          	kmada	a2,t3,t4
    5ab2:	4912967f          	kmada	a2,t0,a7
    5ab6:	5e26                	c.lwsp	t3,104(sp)
    5ab8:	01c502b3          	add	t0,a0,t3
    5abc:	0002a283          	lw	t0,0(t0)
    5ac0:	ac928e7f          	sunpkd820	t3,t0
    5ac4:	d816                	c.swsp	t0,48(sp)
    5ac6:	da16                	c.swsp	t0,52(sp)
    5ac8:	5f42                	c.lwsp	t5,48(sp)
    5aca:	5fd2                	c.lwsp	t6,52(sp)
    5acc:	de8f02ff          	wexti	t0,t5,8
    5ad0:	ac9282ff          	sunpkd820	t0,t0
    5ad4:	487e177f          	kmada	a4,t3,t2
    5ad8:	49de17ff          	kmada	a5,t3,t4
    5adc:	4862977f          	kmada	a4,t0,t1
    5ae0:	00c58313          	addi	t1,a1,12
    5ae4:	00032303          	lw	t1,0(t1)
    5ae8:	05c1                	c.addi	a1,16
    5aea:	491297ff          	kmada	a5,t0,a7
    5aee:	00880293          	addi	t0,a6,8
    5af2:	0002a883          	lw	a7,0(t0)
    5af6:	ac930eff          	sunpkd820	t4,t1
    5afa:	00c50293          	addi	t0,a0,12
    5afe:	0002a283          	lw	t0,0(t0)
    5b02:	0541                	c.addi	a0,16
    5b04:	ac9283ff          	sunpkd820	t2,t0
    5b08:	dc1a                	c.swsp	t1,56(sp)
    5b0a:	de1a                	c.swsp	t1,60(sp)
    5b0c:	5f62                	c.lwsp	t5,56(sp)
    5b0e:	5ff2                	c.lwsp	t6,60(sp)
    5b10:	de8f037f          	wexti	t1,t5,8
    5b14:	ac93037f          	sunpkd820	t1,t1
    5b18:	c096                	c.swsp	t0,64(sp)
    5b1a:	c296                	c.swsp	t0,68(sp)
    5b1c:	4f06                	c.lwsp	t5,64(sp)
    5b1e:	4f96                	c.lwsp	t6,68(sp)
    5b20:	de8f02ff          	wexti	t0,t5,8
    5b24:	ac9282ff          	sunpkd820	t0,t0
    5b28:	49d396ff          	kmada	a3,t2,t4
    5b2c:	ac988e7f          	sunpkd820	t3,a7
    5b30:	486296ff          	kmada	a3,t0,t1
    5b34:	c4c6                	c.swsp	a7,72(sp)
    5b36:	c6c6                	c.swsp	a7,76(sp)
    5b38:	4f26                	c.lwsp	t5,72(sp)
    5b3a:	4fb6                	c.lwsp	t6,76(sp)
    5b3c:	de8f08ff          	wexti	a7,t5,8
    5b40:	ac9888ff          	sunpkd820	a7,a7
    5b44:	49c3967f          	kmada	a2,t2,t3
    5b48:	4912967f          	kmada	a2,t0,a7
    5b4c:	5f06                	c.lwsp	t5,96(sp)
    5b4e:	01e502b3          	add	t0,a0,t5
    5b52:	0002a283          	lw	t0,0(t0)
    5b56:	ac9283ff          	sunpkd820	t2,t0
    5b5a:	c896                	c.swsp	t0,80(sp)
    5b5c:	ca96                	c.swsp	t0,84(sp)
    5b5e:	4f46                	c.lwsp	t5,80(sp)
    5b60:	4fd6                	c.lwsp	t6,84(sp)
    5b62:	de8f02ff          	wexti	t0,t5,8
    5b66:	ac9282ff          	sunpkd820	t0,t0
    5b6a:	49d3977f          	kmada	a4,t2,t4
    5b6e:	49c397ff          	kmada	a5,t2,t3
    5b72:	4862977f          	kmada	a4,t0,t1
    5b76:	491297ff          	kmada	a5,t0,a7
    5b7a:	48f6                	c.lwsp	a7,92(sp)
    5b7c:	0841                	c.addi	a6,16
    5b7e:	dd1519e3          	bne	a0,a7,5950 <riscv_nn_mat_mult_nt_t_s8+0x1b8>
    5b82:	85b2                	c.mv	a1,a2
    5b84:	c55a                	c.swsp	s6,136(sp)
    5b86:	c75e                	c.swsp	s7,140(sp)
    5b88:	4f22                	c.lwsp	t5,8(sp)
    5b8a:	4fb2                	c.lwsp	t6,12(sp)
    5b8c:	14012b83          	lw	s7,320(sp)
    5b90:	5b76                	c.lwsp	s6,124(sp)
    5b92:	863e                	c.mv	a2,a5
    5b94:	8546                	c.mv	a0,a7
    5b96:	87b6                	c.mv	a5,a3
    5b98:	86ba                	c.mv	a3,a4
    5b9a:	872e                	c.mv	a4,a1
    5b9c:	c162                	c.swsp	s8,128(sp)
    5b9e:	c366                	c.swsp	s9,132(sp)
    5ba0:	c952                	c.swsp	s4,144(sp)
    5ba2:	cb56                	c.swsp	s5,148(sp)
    5ba4:	10412583          	lw	a1,260(sp)
    5ba8:	34bb5a63          	bge	s6,a1,5efc <riscv_nn_mat_mult_nt_t_s8+0x764>
    5bac:	10012803          	lw	a6,256(sp)
    5bb0:	d3fe                	c.swsp	t6,228(sp)
    5bb2:	41680c33          	sub	s8,a6,s6
    5bb6:	002c5c13          	srli	s8,s8,0x2
    5bba:	001c0c93          	addi	s9,s8,1
    5bbe:	0c8a                	c.slli	s9,0x2
    5bc0:	019505b3          	add	a1,a0,s9
    5bc4:	5f86                	c.lwsp	t6,96(sp)
    5bc6:	c7ce                	c.swsp	s3,204(sp)
    5bc8:	cfa6                	c.swsp	s1,220(sp)
    5bca:	89c2                	c.mv	s3,a6
    5bcc:	84ae                	c.mv	s1,a1
    5bce:	85de                	c.mv	a1,s7
    5bd0:	c45a                	c.swsp	s6,8(sp)
    5bd2:	cede                	c.swsp	s7,92(sp)
    5bd4:	dd66                	c.swsp	s9,184(sp)
    5bd6:	c1e2                	c.swsp	s8,192(sp)
    5bd8:	c5ca                	c.swsp	s2,200(sp)
    5bda:	c9ea                	c.swsp	s10,208(sp)
    5bdc:	cbee                	c.swsp	s11,212(sp)
    5bde:	cda2                	c.swsp	s0,216(sp)
    5be0:	0fe12023          	sw	t5,224(sp)
    5be4:	0005a303          	lw	t1,0(a1)
    5be8:	0591                	c.addi	a1,4
    5bea:	ac9302ff          	sunpkd820	t0,t1
    5bee:	00052803          	lw	a6,0(a0)
    5bf2:	0511                	c.addi	a0,4
    5bf4:	ac980dff          	sunpkd820	s11,a6
    5bf8:	013588b3          	add	a7,a1,s3
    5bfc:	0008a883          	lw	a7,0(a7)
    5c00:	8e1a                	c.mv	t3,t1
    5c02:	8e9a                	c.mv	t4,t1
    5c04:	de8e03ff          	wexti	t2,t3,8
    5c08:	ac9383ff          	sunpkd820	t2,t2
    5c0c:	8a42                	c.mv	s4,a6
    5c0e:	8ac2                	c.mv	s5,a6
    5c10:	de8a087f          	wexti	a6,s4,8
    5c14:	ac98087f          	sunpkd820	a6,a6
    5c18:	485d97ff          	kmada	a5,s11,t0
    5c1c:	ac98837f          	sunpkd820	t1,a7
    5c20:	487817ff          	kmada	a5,a6,t2
    5c24:	8b46                	c.mv	s6,a7
    5c26:	8bc6                	c.mv	s7,a7
    5c28:	de8b08ff          	wexti	a7,s6,8
    5c2c:	ac9888ff          	sunpkd820	a7,a7
    5c30:	486d977f          	kmada	a4,s11,t1
    5c34:	4918177f          	kmada	a4,a6,a7
    5c38:	01f50833          	add	a6,a0,t6
    5c3c:	00082803          	lw	a6,0(a6)
    5c40:	ac980dff          	sunpkd820	s11,a6
    5c44:	8c42                	c.mv	s8,a6
    5c46:	8cc2                	c.mv	s9,a6
    5c48:	de8c087f          	wexti	a6,s8,8
    5c4c:	ac98087f          	sunpkd820	a6,a6
    5c50:	485d96ff          	kmada	a3,s11,t0
    5c54:	486d967f          	kmada	a2,s11,t1
    5c58:	487816ff          	kmada	a3,a6,t2
    5c5c:	4918167f          	kmada	a2,a6,a7
    5c60:	f89512e3          	bne	a0,s1,5be4 <riscv_nn_mat_mult_nt_t_s8+0x44c>
    5c64:	d55a                	c.swsp	s6,168(sp)
    5c66:	d962                	c.swsp	s8,176(sp)
    5c68:	4b22                	c.lwsp	s6,8(sp)
    5c6a:	4c0e                	c.lwsp	s8,192(sp)
    5c6c:	d75e                	c.swsp	s7,172(sp)
    5c6e:	db66                	c.swsp	s9,180(sp)
    5c70:	4bf6                	c.lwsp	s7,92(sp)
    5c72:	5cea                	c.lwsp	s9,184(sp)
    5c74:	85a6                	c.mv	a1,s1
    5c76:	0b11                	c.addi	s6,4
    5c78:	0c0a                	c.slli	s8,0x2
    5c7a:	492e                	c.lwsp	s2,200(sp)
    5c7c:	49be                	c.lwsp	s3,204(sp)
    5c7e:	4d4e                	c.lwsp	s10,208(sp)
    5c80:	4dde                	c.lwsp	s11,212(sp)
    5c82:	446e                	c.lwsp	s0,216(sp)
    5c84:	44fe                	c.lwsp	s1,220(sp)
    5c86:	5f0e                	c.lwsp	t5,224(sp)
    5c88:	5f9e                	c.lwsp	t6,228(sp)
    5c8a:	9b62                	c.add	s6,s8
    5c8c:	9be6                	c.add	s7,s9
    5c8e:	cd72                	c.swsp	t3,152(sp)
    5c90:	cf76                	c.swsp	t4,156(sp)
    5c92:	d152                	c.swsp	s4,160(sp)
    5c94:	0b512223          	sw	s5,164(sp)
    5c98:	20012503          	lw	a0,512(sp)
    5c9c:	0aab5a63          	bge	s6,a0,5d50 <riscv_nn_mat_mult_nt_t_s8+0x5b8>
    5ca0:	00ab8833          	add	a6,s7,a0
    5ca4:	832a                	c.mv	t1,a0
    5ca6:	21812503          	lw	a0,536(sp)
    5caa:	00080883          	lb	a7,0(a6)
    5cae:	952e                	c.add	a0,a1
    5cb0:	00058c03          	lb	s8,0(a1)
    5cb4:	00050e03          	lb	t3,0(a0)
    5cb8:	000b8e83          	lb	t4,0(s7)
    5cbc:	c588977f          	maddr32	a4,a7,s8
    5cc0:	c51e167f          	maddr32	a2,t3,a7
    5cc4:	001b0893          	addi	a7,s6,1
    5cc8:	c58e97ff          	maddr32	a5,t4,s8
    5ccc:	c5de16ff          	maddr32	a3,t3,t4
    5cd0:	0668da63          	bge	a7,t1,5d44 <riscv_nn_mat_mult_nt_t_s8+0x5ac>
    5cd4:	00180883          	lb	a7,1(a6)
    5cd8:	00158c03          	lb	s8,1(a1)
    5cdc:	00150e03          	lb	t3,1(a0)
    5ce0:	001b8e83          	lb	t4,1(s7)
    5ce4:	c588977f          	maddr32	a4,a7,s8
    5ce8:	c51e167f          	maddr32	a2,t3,a7
    5cec:	002b0893          	addi	a7,s6,2
    5cf0:	c58e97ff          	maddr32	a5,t4,s8
    5cf4:	c5de16ff          	maddr32	a3,t3,t4
    5cf8:	0468d663          	bge	a7,t1,5d44 <riscv_nn_mat_mult_nt_t_s8+0x5ac>
    5cfc:	00280883          	lb	a7,2(a6)
    5d00:	00258c03          	lb	s8,2(a1)
    5d04:	00250e03          	lb	t3,2(a0)
    5d08:	002b8e83          	lb	t4,2(s7)
    5d0c:	c588977f          	maddr32	a4,a7,s8
    5d10:	c51e167f          	maddr32	a2,t3,a7
    5d14:	003b0893          	addi	a7,s6,3
    5d18:	c58e97ff          	maddr32	a5,t4,s8
    5d1c:	c5de16ff          	maddr32	a3,t3,t4
    5d20:	0268d263          	bge	a7,t1,5d44 <riscv_nn_mat_mult_nt_t_s8+0x5ac>
    5d24:	00358883          	lb	a7,3(a1)
    5d28:	003b8e03          	lb	t3,3(s7)
    5d2c:	00380803          	lb	a6,3(a6)
    5d30:	00350503          	lb	a0,3(a0)
    5d34:	c5c897ff          	maddr32	a5,a7,t3
    5d38:	c508977f          	maddr32	a4,a7,a6
    5d3c:	c4ae16ff          	maddr32	a3,t3,a0
    5d40:	c4a8167f          	maddr32	a2,a6,a0
    5d44:	20012503          	lw	a0,512(sp)
    5d48:	41650b33          	sub	s6,a0,s6
    5d4c:	016585b3          	add	a1,a1,s6
    5d50:	555e                	c.lwsp	a0,244(sp)
    5d52:	4281                	c.li	t0,0
    5d54:	00052b03          	lw	s6,0(a0)
    5d58:	00452e83          	lw	t4,4(a0)
    5d5c:	556e                	c.lwsp	a0,248(sp)
    5d5e:	f25b0e7f          	maxw	t3,s6,t0
    5d62:	00052883          	lw	a7,0(a0)
    5d66:	4148                	c.lw	a0,4(a0)
    5d68:	f25e887f          	maxw	a6,t4,t0
    5d6c:	01c797b3          	sll	a5,a5,t3
    5d70:	01071733          	sll	a4,a4,a6
    5d74:	40000c37          	lui	s8,0x40000
    5d78:	4c81                	c.li	s9,0
    5d7a:	40000337          	lui	t1,0x40000
    5d7e:	4381                	c.li	t2,0
    5d80:	85179c7f          	smar64	s8,a5,a7
    5d84:	84a7137f          	smar64	t1,a4,a0
    5d88:	01c69e33          	sll	t3,a3,t3
    5d8c:	01061833          	sll	a6,a2,a6
    5d90:	4681                	c.li	a3,0
    5d92:	40000637          	lui	a2,0x40000
    5d96:	40000737          	lui	a4,0x40000
    5d9a:	4781                	c.li	a5,0
    5d9c:	851e167f          	smar64	a2,t3,a7
    5da0:	84a8177f          	smar64	a4,a6,a0
    5da4:	41600b33          	neg	s6,s6
    5da8:	41d00eb3          	neg	t4,t4
    5dac:	f25b0b7f          	maxw	s6,s6,t0
    5db0:	f25e8eff          	maxw	t4,t4,t0
    5db4:	4505                	c.li	a0,1
    5db6:	01651e33          	sll	t3,a0,s6
    5dba:	01d518b3          	sll	a7,a0,t4
    5dbe:	dff6067f          	wexti	a2,a2,31
    5dc2:	dff3057f          	wexti	a0,t1,31
    5dc6:	dff7077f          	wexti	a4,a4,31
    5dca:	dffc087f          	wexti	a6,s8,31
    5dce:	1e7d                	c.addi	t3,-1
    5dd0:	18fd                	c.addi	a7,-1
    5dd2:	401e5b93          	srai	s7,t3,0x1
    5dd6:	4018d693          	srai	a3,a7,0x1
    5dda:	00052793          	slti	a5,a0,0
    5dde:	00082c13          	slti	s8,a6,0
    5de2:	00062393          	slti	t2,a2,0
    5de6:	00072a13          	slti	s4,a4,0
    5dea:	018b8333          	add	t1,s7,s8
    5dee:	00f682b3          	add	t0,a3,a5
    5df2:	00a8fc33          	and	s8,a7,a0
    5df6:	010e7cb3          	and	s9,t3,a6
    5dfa:	00e8f8b3          	and	a7,a7,a4
    5dfe:	00ce7e33          	and	t3,t3,a2
    5e02:	96d2                	c.add	a3,s4
    5e04:	9b9e                	c.add	s7,t2
    5e06:	0116a8b3          	slt	a7,a3,a7
    5e0a:	416857b3          	sra	a5,a6,s6
    5e0e:	20812683          	lw	a3,520(sp)
    5e12:	01932cb3          	slt	s9,t1,s9
    5e16:	41d55533          	sra	a0,a0,t4
    5e1a:	0182ac33          	slt	s8,t0,s8
    5e1e:	41665633          	sra	a2,a2,s6
    5e22:	01cbae33          	slt	t3,s7,t3
    5e26:	41d75733          	sra	a4,a4,t4
    5e2a:	97e6                	c.add	a5,s9
    5e2c:	9562                	c.add	a0,s8
    5e2e:	9672                	c.add	a2,t3
    5e30:	9746                	c.add	a4,a7
    5e32:	97b6                	c.add	a5,a3
    5e34:	9536                	c.add	a0,a3
    5e36:	9636                	c.add	a2,a3
    5e38:	9736                	c.add	a4,a3
    5e3a:	20c12683          	lw	a3,524(sp)
    5e3e:	f2f687ff          	maxw	a5,a3,a5
    5e42:	f2a6857f          	maxw	a0,a3,a0
    5e46:	f2c6867f          	maxw	a2,a3,a2
    5e4a:	f2e6877f          	maxw	a4,a3,a4
    5e4e:	21012683          	lw	a3,528(sp)
    5e52:	f0f687ff          	minw	a5,a3,a5
    5e56:	f0a6857f          	minw	a0,a3,a0
    5e5a:	56b6                	c.lwsp	a3,108(sp)
    5e5c:	00f68023          	sb	a5,0(a3)
    5e60:	00a680a3          	sb	a0,1(a3)
    5e64:	87b6                	c.mv	a5,a3
    5e66:	21012683          	lw	a3,528(sp)
    5e6a:	f0c6867f          	minw	a2,a3,a2
    5e6e:	f0e6877f          	minw	a4,a3,a4
    5e72:	56c6                	c.lwsp	a3,112(sp)
    5e74:	00c68023          	sb	a2,0(a3)
    5e78:	10c12603          	lw	a2,268(sp)
    5e7c:	00e680a3          	sb	a4,1(a3)
    5e80:	97b2                	c.add	a5,a2
    5e82:	5766                	c.lwsp	a4,120(sp)
    5e84:	d6be                	c.swsp	a5,108(sp)
    5e86:	10812783          	lw	a5,264(sp)
    5e8a:	177d                	c.addi	a4,-1
    5e8c:	95be                	c.add	a1,a5
    5e8e:	00c687b3          	add	a5,a3,a2
    5e92:	dcba                	c.swsp	a4,120(sp)
    5e94:	d8be                	c.swsp	a5,112(sp)
    5e96:	a80717e3          	bnez	a4,5924 <riscv_nn_mat_mult_nt_t_s8+0x18c>
    5e9a:	14c12c03          	lw	s8,332(sp)
    5e9e:	1b012783          	lw	a5,432(sp)
    5ea2:	14412b03          	lw	s6,324(sp)
    5ea6:	14812c83          	lw	s9,328(sp)
    5eaa:	20412b83          	lw	s7,516(sp)
    5eae:	10012283          	lw	t0,256(sp)
    5eb2:	97e2                	c.add	a5,s8
    5eb4:	06f12623          	sw	a5,108(sp)
    5eb8:	15c12783          	lw	a5,348(sp)
    5ebc:	04079a63          	bnez	a5,5f10 <riscv_nn_mat_mult_nt_t_s8+0x778>
    5ec0:	576e                	c.lwsp	a4,248(sp)
    5ec2:	57ae                	c.lwsp	a5,232(sp)
    5ec4:	0721                	c.addi	a4,8
    5ec6:	ddba                	c.swsp	a4,248(sp)
    5ec8:	575e                	c.lwsp	a4,244(sp)
    5eca:	97da                	c.add	a5,s6
    5ecc:	0721                	c.addi	a4,8
    5ece:	dbba                	c.swsp	a4,244(sp)
    5ed0:	577e                	c.lwsp	a4,252(sp)
    5ed2:	d5be                	c.swsp	a5,232(sp)
    5ed4:	975a                	c.add	a4,s6
    5ed6:	dfba                	c.swsp	a4,252(sp)
    5ed8:	16012703          	lw	a4,352(sp)
    5edc:	002c0793          	addi	a5,s8,2 # 40000002 <_DATA_LMA_START+0x1fff4c22>
    5ee0:	0ca1                	c.addi	s9,8
    5ee2:	4b870563          	beq	a4,s8,638c <riscv_nn_mat_mult_nt_t_s8+0xbf4>
    5ee6:	8c3e                	c.mv	s8,a5
    5ee8:	20012783          	lw	a5,512(sp)
    5eec:	07812623          	sw	s8,108(sp)
    5ef0:	9af048e3          	bgtz	a5,58a0 <riscv_nn_mat_mult_nt_t_s8+0x108>
    5ef4:	d782                	c.swsp	zero,236(sp)
    5ef6:	d982                	c.swsp	zero,240(sp)
    5ef8:	9ddff06f          	j	58d4 <riscv_nn_mat_mult_nt_t_s8+0x13c>
    5efc:	85aa                	c.mv	a1,a0
    5efe:	bb69                	c.j	5c98 <riscv_nn_mat_mult_nt_t_s8+0x500>
    5f00:	573e                	c.lwsp	a4,236(sp)
    5f02:	57ce                	c.lwsp	a5,240(sp)
    5f04:	5bae                	c.lwsp	s7,232(sp)
    5f06:	852e                	c.mv	a0,a1
    5f08:	863a                	c.mv	a2,a4
    5f0a:	86be                	c.mv	a3,a5
    5f0c:	4b01                	c.li	s6,0
    5f0e:	b959                	c.j	5ba4 <riscv_nn_mat_mult_nt_t_s8+0x40c>
    5f10:	20012783          	lw	a5,512(sp)
    5f14:	473d                	c.li	a4,15
    5f16:	5af75f63          	bge	a4,a5,64d4 <riscv_nn_mat_mult_nt_t_s8+0xd3c>
    5f1a:	57f6                	c.lwsp	a5,124(sp)
    5f1c:	5e2e                	c.lwsp	t3,232(sp)
    5f1e:	00f58eb3          	add	t4,a1,a5
    5f22:	c3ee                	c.swsp	s11,196(sp)
    5f24:	cbfe                	c.swsp	t6,212(sp)
    5f26:	57fe                	c.lwsp	a5,252(sp)
    5f28:	5dbe                	c.lwsp	s11,236(sp)
    5f2a:	5fce                	c.lwsp	t6,240(sp)
    5f2c:	df4e                	c.swsp	s3,188(sp)
    5f2e:	c7a6                	c.swsp	s1,204(sp)
    5f30:	89f2                	c.mv	s3,t3
    5f32:	84ae                	c.mv	s1,a1
    5f34:	ceda                	c.swsp	s6,92(sp)
    5f36:	c476                	c.swsp	t4,8(sp)
    5f38:	dce6                	c.swsp	s9,120(sp)
    5f3a:	d8e2                	c.swsp	s8,112(sp)
    5f3c:	21712223          	sw	s7,516(sp)
    5f40:	dd4a                	c.swsp	s2,184(sp)
    5f42:	c1ea                	c.swsp	s10,192(sp)
    5f44:	c5a2                	c.swsp	s0,200(sp)
    5f46:	c9fa                	c.swsp	t5,208(sp)
    5f48:	0c512c23          	sw	t0,216(sp)
    5f4c:	0009a603          	lw	a2,0(s3)
    5f50:	ffc78293          	addi	t0,a5,-4
    5f54:	0002a283          	lw	t0,0(t0)
    5f58:	4098                	c.lw	a4,0(s1)
    5f5a:	ac96047f          	sunpkd820	s0,a2
    5f5e:	ac9706ff          	sunpkd820	a3,a4
    5f62:	ac928f7f          	sunpkd820	t5,t0
    5f66:	10c12823          	sw	a2,272(sp)
    5f6a:	10c12a23          	sw	a2,276(sp)
    5f6e:	11012503          	lw	a0,272(sp)
    5f72:	11412583          	lw	a1,276(sp)
    5f76:	de85067f          	wexti	a2,a0,8
    5f7a:	ac96067f          	sunpkd820	a2,a2
    5f7e:	10e12c23          	sw	a4,280(sp)
    5f82:	10e12e23          	sw	a4,284(sp)
    5f86:	11812503          	lw	a0,280(sp)
    5f8a:	11c12583          	lw	a1,284(sp)
    5f8e:	de85077f          	wexti	a4,a0,8
    5f92:	ac97077f          	sunpkd820	a4,a4
    5f96:	12512023          	sw	t0,288(sp)
    5f9a:	12512223          	sw	t0,292(sp)
    5f9e:	12012503          	lw	a0,288(sp)
    5fa2:	12412583          	lw	a1,292(sp)
    5fa6:	de8502ff          	wexti	t0,a0,8
    5faa:	ac9282ff          	sunpkd820	t0,t0
    5fae:	48869fff          	kmada	t6,a3,s0
    5fb2:	48c71fff          	kmada	t6,a4,a2
    5fb6:	49e69dff          	kmada	s11,a3,t5
    5fba:	48571dff          	kmada	s11,a4,t0
    5fbe:	00498293          	addi	t0,s3,4
    5fc2:	0002a603          	lw	a2,0(t0)
    5fc6:	4398                	c.lw	a4,0(a5)
    5fc8:	00448293          	addi	t0,s1,4
    5fcc:	0002a283          	lw	t0,0(t0)
    5fd0:	ac9605ff          	sunpkd820	a1,a2
    5fd4:	ac9286ff          	sunpkd820	a3,t0
    5fd8:	ac97057f          	sunpkd820	a0,a4
    5fdc:	8c32                	c.mv	s8,a2
    5fde:	8cb2                	c.mv	s9,a2
    5fe0:	de8c067f          	wexti	a2,s8,8
    5fe4:	ac96067f          	sunpkd820	a2,a2
    5fe8:	8b16                	c.mv	s6,t0
    5fea:	8b96                	c.mv	s7,t0
    5fec:	de8b02ff          	wexti	t0,s6,8
    5ff0:	ac9282ff          	sunpkd820	t0,t0
    5ff4:	8a3a                	c.mv	s4,a4
    5ff6:	8aba                	c.mv	s5,a4
    5ff8:	de8a077f          	wexti	a4,s4,8
    5ffc:	ac97077f          	sunpkd820	a4,a4
    6000:	48b69fff          	kmada	t6,a3,a1
    6004:	48c29fff          	kmada	t6,t0,a2
    6008:	48a69dff          	kmada	s11,a3,a0
    600c:	48e29dff          	kmada	s11,t0,a4
    6010:	00898293          	addi	t0,s3,8
    6014:	0002a603          	lw	a2,0(t0)
    6018:	00478293          	addi	t0,a5,4
    601c:	0002a283          	lw	t0,0(t0)
    6020:	00848713          	addi	a4,s1,8
    6024:	4318                	c.lw	a4,0(a4)
    6026:	ac96047f          	sunpkd820	s0,a2
    602a:	ac9706ff          	sunpkd820	a3,a4
    602e:	ac928f7f          	sunpkd820	t5,t0
    6032:	12c12423          	sw	a2,296(sp)
    6036:	12c12623          	sw	a2,300(sp)
    603a:	12812503          	lw	a0,296(sp)
    603e:	12c12583          	lw	a1,300(sp)
    6042:	de85067f          	wexti	a2,a0,8
    6046:	ac96067f          	sunpkd820	a2,a2
    604a:	12e12823          	sw	a4,304(sp)
    604e:	12e12a23          	sw	a4,308(sp)
    6052:	13012503          	lw	a0,304(sp)
    6056:	13412583          	lw	a1,308(sp)
    605a:	de85077f          	wexti	a4,a0,8
    605e:	ac97077f          	sunpkd820	a4,a4
    6062:	12512c23          	sw	t0,312(sp)
    6066:	12512e23          	sw	t0,316(sp)
    606a:	13812503          	lw	a0,312(sp)
    606e:	13c12583          	lw	a1,316(sp)
    6072:	de8502ff          	wexti	t0,a0,8
    6076:	ac9282ff          	sunpkd820	t0,t0
    607a:	48869fff          	kmada	t6,a3,s0
    607e:	48c71fff          	kmada	t6,a4,a2
    6082:	49e69dff          	kmada	s11,a3,t5
    6086:	48571dff          	kmada	s11,a4,t0
    608a:	00c98293          	addi	t0,s3,12
    608e:	0002a603          	lw	a2,0(t0)
    6092:	09c1                	c.addi	s3,16
    6094:	00878293          	addi	t0,a5,8
    6098:	0002a283          	lw	t0,0(t0)
    609c:	00c48713          	addi	a4,s1,12
    60a0:	4318                	c.lw	a4,0(a4)
    60a2:	04c1                	c.addi	s1,16
    60a4:	ac9605ff          	sunpkd820	a1,a2
    60a8:	ac9706ff          	sunpkd820	a3,a4
    60ac:	ac92857f          	sunpkd820	a0,t0
    60b0:	8832                	c.mv	a6,a2
    60b2:	88b2                	c.mv	a7,a2
    60b4:	de88067f          	wexti	a2,a6,8
    60b8:	ac96067f          	sunpkd820	a2,a2
    60bc:	833a                	c.mv	t1,a4
    60be:	83ba                	c.mv	t2,a4
    60c0:	de83077f          	wexti	a4,t1,8
    60c4:	ac97077f          	sunpkd820	a4,a4
    60c8:	8e16                	c.mv	t3,t0
    60ca:	8e96                	c.mv	t4,t0
    60cc:	de8e02ff          	wexti	t0,t3,8
    60d0:	ac9282ff          	sunpkd820	t0,t0
    60d4:	48b69fff          	kmada	t6,a3,a1
    60d8:	48c71fff          	kmada	t6,a4,a2
    60dc:	48a69dff          	kmada	s11,a3,a0
    60e0:	48571dff          	kmada	s11,a4,t0
    60e4:	4722                	c.lwsp	a4,8(sp)
    60e6:	07c1                	c.addi	a5,16
    60e8:	e6e492e3          	bne	s1,a4,5f4c <riscv_nn_mat_mult_nt_t_s8+0x7b4>
    60ec:	57ae                	c.lwsp	a5,232(sp)
    60ee:	55f6                	c.lwsp	a1,124(sp)
    60f0:	d7ee                	c.swsp	s11,236(sp)
    60f2:	d9fe                	c.swsp	t6,240(sp)
    60f4:	17812423          	sw	s8,360(sp)
    60f8:	17912623          	sw	s9,364(sp)
    60fc:	17612823          	sw	s6,368(sp)
    6100:	17712a23          	sw	s7,372(sp)
    6104:	596a                	c.lwsp	s2,184(sp)
    6106:	59fa                	c.lwsp	s3,188(sp)
    6108:	4d0e                	c.lwsp	s10,192(sp)
    610a:	4d9e                	c.lwsp	s11,196(sp)
    610c:	442e                	c.lwsp	s0,200(sp)
    610e:	44be                	c.lwsp	s1,204(sp)
    6110:	4f4e                	c.lwsp	t5,208(sp)
    6112:	4fde                	c.lwsp	t6,212(sp)
    6114:	5c46                	c.lwsp	s8,112(sp)
    6116:	5ce6                	c.lwsp	s9,120(sp)
    6118:	4b76                	c.lwsp	s6,92(sp)
    611a:	20412b83          	lw	s7,516(sp)
    611e:	42ee                	c.lwsp	t0,216(sp)
    6120:	19d12a23          	sw	t4,404(sp)
    6124:	00b78533          	add	a0,a5,a1
    6128:	00e00eb3          	add	t4,zero,a4
    612c:	17412c23          	sw	s4,376(sp)
    6130:	17512e23          	sw	s5,380(sp)
    6134:	19012023          	sw	a6,384(sp)
    6138:	19112223          	sw	a7,388(sp)
    613c:	18612423          	sw	t1,392(sp)
    6140:	18712623          	sw	t2,396(sp)
    6144:	19c12823          	sw	t3,400(sp)
    6148:	10412783          	lw	a5,260(sp)
    614c:	38f5d263          	bge	a1,a5,64d0 <riscv_nn_mat_mult_nt_t_s8+0xd38>
    6150:	40b287b3          	sub	a5,t0,a1
    6154:	0027d613          	srli	a2,a5,0x2
    6158:	00160793          	addi	a5,a2,1 # 40000001 <_DATA_LMA_START+0x1fff4c21>
    615c:	00279813          	slli	a6,a5,0x2
    6160:	010e88b3          	add	a7,t4,a6
    6164:	dcb2                	c.swsp	a2,120(sp)
    6166:	c3a6                	c.swsp	s1,196(sp)
    6168:	563e                	c.lwsp	a2,236(sp)
    616a:	84ae                	c.mv	s1,a1
    616c:	55ce                	c.lwsp	a1,240(sp)
    616e:	dace                	c.swsp	s3,116(sp)
    6170:	df6e                	c.swsp	s11,188(sp)
    6172:	c7fe                	c.swsp	t6,204(sp)
    6174:	86aa                	c.mv	a3,a0
    6176:	83c6                	c.mv	t2,a7
    6178:	8ade                	c.mv	s5,s7
    617a:	89aa                	c.mv	s3,a0
    617c:	8de6                	c.mv	s11,s9
    617e:	8fda                	c.mv	t6,s6
    6180:	8a16                	c.mv	s4,t0
    6182:	c462                	c.swsp	s8,8(sp)
    6184:	cec2                	c.swsp	a6,92(sp)
    6186:	d8ca                	c.swsp	s2,112(sp)
    6188:	dd6a                	c.swsp	s10,184(sp)
    618a:	c1a2                	c.swsp	s0,192(sp)
    618c:	0de12423          	sw	t5,200(sp)
    6190:	4288                	c.lw	a0,0(a3)
    6192:	0691                	c.addi	a3,4
    6194:	014687b3          	add	a5,a3,s4
    6198:	439c                	c.lw	a5,0(a5)
    619a:	000ea703          	lw	a4,0(t4)
    619e:	0e91                	c.addi	t4,4
    61a0:	ac9502ff          	sunpkd820	t0,a0
    61a4:	ac970e7f          	sunpkd820	t3,a4
    61a8:	ac97837f          	sunpkd820	t1,a5
    61ac:	882a                	c.mv	a6,a0
    61ae:	88aa                	c.mv	a7,a0
    61b0:	de88057f          	wexti	a0,a6,8
    61b4:	ac95057f          	sunpkd820	a0,a0
    61b8:	8b3a                	c.mv	s6,a4
    61ba:	8bba                	c.mv	s7,a4
    61bc:	de8b077f          	wexti	a4,s6,8
    61c0:	ac97077f          	sunpkd820	a4,a4
    61c4:	8c3e                	c.mv	s8,a5
    61c6:	8cbe                	c.mv	s9,a5
    61c8:	de8c07ff          	wexti	a5,s8,8
    61cc:	ac9787ff          	sunpkd820	a5,a5
    61d0:	485e15ff          	kmada	a1,t3,t0
    61d4:	48a715ff          	kmada	a1,a4,a0
    61d8:	486e167f          	kmada	a2,t3,t1
    61dc:	48f7167f          	kmada	a2,a4,a5
    61e0:	fa7e98e3          	bne	t4,t2,6190 <riscv_nn_mat_mult_nt_t_s8+0x9f8>
    61e4:	d7b2                	c.swsp	a2,236(sp)
    61e6:	5666                	c.lwsp	a2,120(sp)
    61e8:	d9ae                	c.swsp	a1,240(sp)
    61ea:	19012c23          	sw	a6,408(sp)
    61ee:	85a6                	c.mv	a1,s1
    61f0:	4876                	c.lwsp	a6,92(sp)
    61f2:	854e                	c.mv	a0,s3
    61f4:	00458713          	addi	a4,a1,4
    61f8:	00261793          	slli	a5,a2,0x2
    61fc:	1b612023          	sw	s6,416(sp)
    6200:	1b812423          	sw	s8,424(sp)
    6204:	8b7e                	c.mv	s6,t6
    6206:	1b912623          	sw	s9,428(sp)
    620a:	5946                	c.lwsp	s2,112(sp)
    620c:	8cee                	c.mv	s9,s11
    620e:	59d6                	c.lwsp	s3,116(sp)
    6210:	440e                	c.lwsp	s0,192(sp)
    6212:	449e                	c.lwsp	s1,196(sp)
    6214:	4f2e                	c.lwsp	t5,200(sp)
    6216:	4fbe                	c.lwsp	t6,204(sp)
    6218:	4c22                	c.lwsp	s8,8(sp)
    621a:	5d6a                	c.lwsp	s10,184(sp)
    621c:	5dfa                	c.lwsp	s11,188(sp)
    621e:	19112e23          	sw	a7,412(sp)
    6222:	1b712223          	sw	s7,420(sp)
    6226:	889e                	c.mv	a7,t2
    6228:	8bd6                	c.mv	s7,s5
    622a:	82d2                	c.mv	t0,s4
    622c:	00e785b3          	add	a1,a5,a4
    6230:	01050533          	add	a0,a0,a6
    6234:	20012783          	lw	a5,512(sp)
    6238:	08f5da63          	bge	a1,a5,62cc <riscv_nn_mat_mult_nt_t_s8+0xb34>
    623c:	00f50833          	add	a6,a0,a5
    6240:	00088703          	lb	a4,0(a7)
    6244:	534e                	c.lwsp	t1,240(sp)
    6246:	5e3e                	c.lwsp	t3,236(sp)
    6248:	00050603          	lb	a2,0(a0)
    624c:	00080683          	lb	a3,0(a6)
    6250:	00158793          	addi	a5,a1,1
    6254:	c4e6137f          	maddr32	t1,a2,a4
    6258:	c4e69e7f          	maddr32	t3,a3,a4
    625c:	20012703          	lw	a4,512(sp)
    6260:	d99a                	c.swsp	t1,240(sp)
    6262:	d7f2                	c.swsp	t3,236(sp)
    6264:	06e7d463          	bge	a5,a4,62cc <riscv_nn_mat_mult_nt_t_s8+0xb34>
    6268:	00188703          	lb	a4,1(a7)
    626c:	00150603          	lb	a2,1(a0)
    6270:	00180683          	lb	a3,1(a6)
    6274:	00258793          	addi	a5,a1,2
    6278:	c4e6137f          	maddr32	t1,a2,a4
    627c:	c4e69e7f          	maddr32	t3,a3,a4
    6280:	20012703          	lw	a4,512(sp)
    6284:	d99a                	c.swsp	t1,240(sp)
    6286:	d7f2                	c.swsp	t3,236(sp)
    6288:	04e7d263          	bge	a5,a4,62cc <riscv_nn_mat_mult_nt_t_s8+0xb34>
    628c:	00288703          	lb	a4,2(a7)
    6290:	00280603          	lb	a2,2(a6)
    6294:	00250683          	lb	a3,2(a0)
    6298:	00358793          	addi	a5,a1,3
    629c:	859a                	c.mv	a1,t1
    629e:	c4e61e7f          	maddr32	t3,a2,a4
    62a2:	c4e695ff          	maddr32	a1,a3,a4
    62a6:	20012703          	lw	a4,512(sp)
    62aa:	d9ae                	c.swsp	a1,240(sp)
    62ac:	d7f2                	c.swsp	t3,236(sp)
    62ae:	8672                	c.mv	a2,t3
    62b0:	00e7de63          	bge	a5,a4,62cc <riscv_nn_mat_mult_nt_t_s8+0xb34>
    62b4:	00388703          	lb	a4,3(a7)
    62b8:	00350683          	lb	a3,3(a0)
    62bc:	00380783          	lb	a5,3(a6)
    62c0:	c4e695ff          	maddr32	a1,a3,a4
    62c4:	c4e7967f          	maddr32	a2,a5,a4
    62c8:	d9ae                	c.swsp	a1,240(sp)
    62ca:	d7b2                	c.swsp	a2,236(sp)
    62cc:	57de                	c.lwsp	a5,244(sp)
    62ce:	4301                	c.li	t1,0
    62d0:	4390                	c.lw	a2,0(a5)
    62d2:	0047a803          	lw	a6,4(a5)
    62d6:	57ee                	c.lwsp	a5,248(sp)
    62d8:	55ce                	c.lwsp	a1,240(sp)
    62da:	4398                	c.lw	a4,0(a5)
    62dc:	0047a883          	lw	a7,4(a5)
    62e0:	f26607ff          	maxw	a5,a2,t1
    62e4:	00f597b3          	sll	a5,a1,a5
    62e8:	55be                	c.lwsp	a1,236(sp)
    62ea:	f26806ff          	maxw	a3,a6,t1
    62ee:	00d596b3          	sll	a3,a1,a3
    62f2:	40000537          	lui	a0,0x40000
    62f6:	4581                	c.li	a1,0
    62f8:	84e7957f          	smar64	a0,a5,a4
    62fc:	40000737          	lui	a4,0x40000
    6300:	4781                	c.li	a5,0
    6302:	8516977f          	smar64	a4,a3,a7
    6306:	40c00e33          	neg	t3,a2
    630a:	41000eb3          	neg	t4,a6
    630e:	f26e0e7f          	maxw	t3,t3,t1
    6312:	f26e8eff          	maxw	t4,t4,t1
    6316:	4685                	c.li	a3,1
    6318:	01c69633          	sll	a2,a3,t3
    631c:	01d696b3          	sll	a3,a3,t4
    6320:	dff505ff          	wexti	a1,a0,31
    6324:	fff68893          	addi	a7,a3,-1
    6328:	dff7057f          	wexti	a0,a4,31
    632c:	fff60793          	addi	a5,a2,-1
    6330:	4017d613          	srai	a2,a5,0x1
    6334:	0005a693          	slti	a3,a1,0
    6338:	00052713          	slti	a4,a0,0
    633c:	4018d813          	srai	a6,a7,0x1
    6340:	8fed                	c.and	a5,a1
    6342:	9636                	c.add	a2,a3
    6344:	983a                	c.add	a6,a4
    6346:	00a8f6b3          	and	a3,a7,a0
    634a:	00f62633          	slt	a2,a2,a5
    634e:	00d826b3          	slt	a3,a6,a3
    6352:	41d557b3          	sra	a5,a0,t4
    6356:	97b6                	c.add	a5,a3
    6358:	41c5d733          	sra	a4,a1,t3
    635c:	20812683          	lw	a3,520(sp)
    6360:	9732                	c.add	a4,a2
    6362:	9736                	c.add	a4,a3
    6364:	97b6                	c.add	a5,a3
    6366:	20c12683          	lw	a3,524(sp)
    636a:	f2e6877f          	maxw	a4,a3,a4
    636e:	f2f687ff          	maxw	a5,a3,a5
    6372:	21012683          	lw	a3,528(sp)
    6376:	f0e6877f          	minw	a4,a3,a4
    637a:	f0f687ff          	minw	a5,a3,a5
    637e:	56b6                	c.lwsp	a3,108(sp)
    6380:	00e68023          	sb	a4,0(a3)
    6384:	00f680a3          	sb	a5,1(a3)
    6388:	b39ff06f          	j	5ec0 <riscv_nn_mat_mult_nt_t_s8+0x728>
    638c:	1b812883          	lw	a7,440(sp)
    6390:	1bc12583          	lw	a1,444(sp)
    6394:	1b412603          	lw	a2,436(sp)
    6398:	0018d713          	srli	a4,a7,0x1
    639c:	0705                	c.addi	a4,1
    639e:	1c012a03          	lw	s4,448(sp)
    63a2:	00171813          	slli	a6,a4,0x1
    63a6:	15412b03          	lw	s6,340(sp)
    63aa:	1c412683          	lw	a3,452(sp)
    63ae:	1c812503          	lw	a0,456(sp)
    63b2:	1cc12783          	lw	a5,460(sp)
    63b6:	16412a83          	lw	s5,356(sp)
    63ba:	c4e615ff          	maddr32	a1,a2,a4
    63be:	9a42                	c.add	s4,a6
    63c0:	001af713          	andi	a4,s5,1
    63c4:	c761                	c.beqz	a4,648c <riscv_nn_mat_mult_nt_t_s8+0xcf4>
    63c6:	0cf05363          	blez	a5,648c <riscv_nn_mat_mult_nt_t_s8+0xcf4>
    63ca:	20012603          	lw	a2,512(sp)
    63ce:	15012383          	lw	t2,336(sp)
    63d2:	21812703          	lw	a4,536(sp)
    63d6:	002a9293          	slli	t0,s5,0x2
    63da:	12f1                	c.addi	t0,-4
    63dc:	20812983          	lw	s3,520(sp)
    63e0:	20c12c03          	lw	s8,524(sp)
    63e4:	21012c83          	lw	s9,528(sp)
    63e8:	00538433          	add	s0,t2,t0
    63ec:	9696                	c.add	a3,t0
    63ee:	40c70f33          	sub	t5,a4,a2
    63f2:	92aa                	c.add	t0,a0
    63f4:	4e81                	c.li	t4,0
    63f6:	4f81                	c.li	t6,0
    63f8:	40000837          	lui	a6,0x40000
    63fc:	4881                	c.li	a7,0
    63fe:	4905                	c.li	s2,1
    6400:	84be                	c.mv	s1,a5
    6402:	8e32                	c.mv	t3,a2
    6404:	4501                	c.li	a0,0
    6406:	00038363          	beqz	t2,640c <riscv_nn_mat_mult_nt_t_s8+0xc74>
    640a:	4008                	c.lw	a0,0(s0)
    640c:	0dc05063          	blez	t3,64cc <riscv_nn_mat_mult_nt_t_s8+0xd34>
    6410:	01cb0333          	add	t1,s6,t3
    6414:	00b00633          	add	a2,zero,a1
    6418:	000b0703          	lb	a4,0(s6)
    641c:	00060783          	lb	a5,0(a2)
    6420:	0b05                	c.addi	s6,1
    6422:	975e                	c.add	a4,s7
    6424:	c4f7157f          	maddr32	a0,a4,a5
    6428:	00160613          	addi	a2,a2,1
    642c:	fe6b16e3          	bne	s6,t1,6418 <riscv_nn_mat_mult_nt_t_s8+0xc80>
    6430:	0002a603          	lw	a2,0(t0)
    6434:	0006ab03          	lw	s6,0(a3)
    6438:	f3f607ff          	maxw	a5,a2,t6
    643c:	00f51533          	sll	a0,a0,a5
    6440:	8742                	c.mv	a4,a6
    6442:	87c6                	c.mv	a5,a7
    6444:	8565177f          	smar64	a4,a0,s6
    6448:	40c00533          	neg	a0,a2
    644c:	f3f5057f          	maxw	a0,a0,t6
    6450:	00a91633          	sll	a2,s2,a0
    6454:	dff707ff          	wexti	a5,a4,31
    6458:	fff60713          	addi	a4,a2,-1
    645c:	0007ab13          	slti	s6,a5,0
    6460:	40175613          	srai	a2,a4,0x1
    6464:	965a                	c.add	a2,s6
    6466:	8f7d                	c.and	a4,a5
    6468:	00e62733          	slt	a4,a2,a4
    646c:	40a7d7b3          	sra	a5,a5,a0
    6470:	97ba                	c.add	a5,a4
    6472:	97ce                	c.add	a5,s3
    6474:	f38787ff          	maxw	a5,a5,s8
    6478:	f19787ff          	minw	a5,a5,s9
    647c:	00fa0023          	sb	a5,0(s4)
    6480:	0e85                	c.addi	t4,1
    6482:	01e30b33          	add	s6,t1,t5
    6486:	9a56                	c.add	s4,s5
    6488:	f7d49ee3          	bne	s1,t4,6404 <riscv_nn_mat_mult_nt_t_s8+0xc6c>
    648c:	1fc12403          	lw	s0,508(sp)
    6490:	1f812483          	lw	s1,504(sp)
    6494:	1f412903          	lw	s2,500(sp)
    6498:	1f012983          	lw	s3,496(sp)
    649c:	1ec12a03          	lw	s4,492(sp)
    64a0:	1e812a83          	lw	s5,488(sp)
    64a4:	1e412b03          	lw	s6,484(sp)
    64a8:	1e012b83          	lw	s7,480(sp)
    64ac:	1dc12c03          	lw	s8,476(sp)
    64b0:	1d812c83          	lw	s9,472(sp)
    64b4:	1d412d03          	lw	s10,468(sp)
    64b8:	1d012d83          	lw	s11,464(sp)
    64bc:	4501                	c.li	a0,0
    64be:	20010113          	addi	sp,sp,512
    64c2:	8082                	c.jr	ra
    64c4:	15412583          	lw	a1,340(sp)
    64c8:	9f1ff06f          	j	5eb8 <riscv_nn_mat_mult_nt_t_s8+0x720>
    64cc:	835a                	c.mv	t1,s6
    64ce:	b78d                	c.j	6430 <riscv_nn_mat_mult_nt_t_s8+0xc98>
    64d0:	88f6                	c.mv	a7,t4
    64d2:	b38d                	c.j	6234 <riscv_nn_mat_mult_nt_t_s8+0xa9c>
    64d4:	8eae                	c.mv	t4,a1
    64d6:	552e                	c.lwsp	a0,232(sp)
    64d8:	4581                	c.li	a1,0
    64da:	b1bd                	c.j	6148 <riscv_nn_mat_mult_nt_t_s8+0x9b0>

000064dc <riscv_s8_to_s16_unordered_with_offset>:
    64dc:	40265e93          	srai	t4,a2,0x2
    64e0:	0ed698ff          	pkbb16	a7,a3,a3
    64e4:	07d05c63          	blez	t4,655c <riscv_s8_to_s16_unordered_with_offset+0x80>
    64e8:	002e9e13          	slli	t3,t4,0x2
    64ec:	9e2a                	c.add	t3,a0
    64ee:	872e                	c.mv	a4,a1
    64f0:	411c                	c.lw	a5,0(a0)
    64f2:	0511                	c.addi	a0,4
    64f4:	ac97887f          	sunpkd820	a6,a5
    64f8:	4108887f          	add16	a6,a7,a6
    64fc:	833e                	c.mv	t1,a5
    64fe:	83be                	c.mv	t2,a5
    6500:	de8307ff          	wexti	a5,t1,8
    6504:	ac9787ff          	sunpkd820	a5,a5
    6508:	40f887ff          	add16	a5,a7,a5
    650c:	01072023          	sw	a6,0(a4) # 40000000 <_DATA_LMA_START+0x1fff4c20>
    6510:	00470813          	addi	a6,a4,4
    6514:	00f82023          	sw	a5,0(a6) # 40000000 <_DATA_LMA_START+0x1fff4c20>
    6518:	0721                	c.addi	a4,8
    651a:	fdc51be3          	bne	a0,t3,64f0 <riscv_s8_to_s16_unordered_with_offset+0x14>
    651e:	0e8e                	c.slli	t4,0x3
    6520:	01d585b3          	add	a1,a1,t4
    6524:	8a0d                	c.andi	a2,3
    6526:	ca0d                	c.beqz	a2,6558 <riscv_s8_to_s16_unordered_with_offset+0x7c>
    6528:	000e0783          	lb	a5,0(t3)
    652c:	06c2                	c.slli	a3,0x10
    652e:	82c1                	c.srli	a3,0x10
    6530:	97b6                	c.add	a5,a3
    6532:	4705                	c.li	a4,1
    6534:	00f59023          	sh	a5,0(a1)
    6538:	02e60063          	beq	a2,a4,6558 <riscv_s8_to_s16_unordered_with_offset+0x7c>
    653c:	001e0783          	lb	a5,1(t3)
    6540:	4709                	c.li	a4,2
    6542:	97b6                	c.add	a5,a3
    6544:	00f59123          	sh	a5,2(a1)
    6548:	00e60863          	beq	a2,a4,6558 <riscv_s8_to_s16_unordered_with_offset+0x7c>
    654c:	002e0783          	lb	a5,2(t3)
    6550:	00f686b3          	add	a3,a3,a5
    6554:	00d59223          	sh	a3,4(a1)
    6558:	00008067          	ret
    655c:	8e2a                	c.mv	t3,a0
    655e:	b7d9                	c.j	6524 <riscv_s8_to_s16_unordered_with_offset+0x48>

00006560 <riscv_depthwise_conv_s16>:
    6560:	01c5a303          	lw	t1,28(a1)
    6564:	7115                	c.addi16sp	sp,-224
    6566:	0205ae83          	lw	t4,32(a1)
    656a:	df62                	c.swsp	s8,188(sp)
    656c:	8c3a                	c.mv	s8,a4
    656e:	01031713          	slli	a4,t1,0x10
    6572:	8341                	c.srli	a4,0x10
    6574:	0006ae03          	lw	t3,0(a3)
    6578:	68c1                	c.lui	a7,0x10
    657a:	de3a                	c.swsp	a4,60(sp)
    657c:	010e9713          	slli	a4,t4,0x10
    6580:	551e                	c.lwsp	a0,228(sp)
    6582:	18fd                	c.addi	a7,-1
    6584:	8341                	c.srli	a4,0x10
    6586:	cfa2                	c.swsp	s0,220(sp)
    6588:	cda6                	c.swsp	s1,216(sp)
    658a:	cbca                	c.swsp	s2,212(sp)
    658c:	c9ce                	c.swsp	s3,208(sp)
    658e:	dd66                	c.swsp	s9,184(sp)
    6590:	011e7e33          	and	t3,t3,a7
    6594:	c7d2                	c.swsp	s4,204(sp)
    6596:	c5d6                	c.swsp	s5,200(sp)
    6598:	c3da                	c.swsp	s6,196(sp)
    659a:	c1de                	c.swsp	s7,192(sp)
    659c:	db6a                	c.swsp	s10,180(sp)
    659e:	d96e                	c.swsp	s11,176(sp)
    65a0:	ccc2                	c.swsp	a6,88(sp)
    65a2:	c0ba                	c.swsp	a4,64(sp)
    65a4:	0086a903          	lw	s2,8(a3)
    65a8:	42c4                	c.lw	s1,4(a3)
    65aa:	00c6a383          	lw	t2,12(a3)
    65ae:	00852f03          	lw	t5,8(a0) # 40000008 <_DATA_LMA_START+0x1fff4c28>
    65b2:	0145d983          	lhu	s3,20(a1)
    65b6:	0185d403          	lhu	s0,24(a1)
    65ba:	00c5d283          	lhu	t0,12(a1)
    65be:	0105df83          	lhu	t6,16(a1)
    65c2:	5cae                	c.lwsp	s9,232(sp)
    65c4:	4594                	c.lw	a3,8(a1)
    65c6:	4148                	c.lw	a0,4(a0)
    65c8:	360e0c63          	beqz	t3,6940 <riscv_depthwise_conv_s16+0x3e0>
    65cc:	01197bb3          	and	s7,s2,a7
    65d0:	0114f733          	and	a4,s1,a7
    65d4:	02eb8833          	mul	a6,s7,a4
    65d8:	0113fa33          	and	s4,t2,a7
    65dc:	0116f6b3          	and	a3,a3,a7
    65e0:	03480833          	mul	a6,a6,s4
    65e4:	01157533          	and	a0,a0,a7
    65e8:	03468db3          	mul	s11,a3,s4
    65ec:	011f7f33          	and	t5,t5,a7
    65f0:	0806                	c.slli	a6,0x1
    65f2:	34050763          	beqz	a0,6940 <riscv_depthwise_conv_s16+0x3e0>
    65f6:	01137ab3          	and	s5,t1,a7
    65fa:	0087a303          	lw	t1,8(a5)
    65fe:	43c4                	c.lw	s1,4(a5)
    6600:	01137d33          	and	s10,t1,a7
    6604:	03ad87b3          	mul	a5,s11,s10
    6608:	037a03b3          	mul	t2,s4,s7
    660c:	011efb33          	and	s6,t4,a7
    6610:	c6be                	c.swsp	a5,76(sp)
    6612:	51dc                	c.lw	a5,36(a1)
    6614:	03638eb3          	mul	t4,t2,s6
    6618:	da3e                	c.swsp	a5,52(sp)
    661a:	559c                	c.lw	a5,40(a1)
    661c:	034a83b3          	mul	t2,s5,s4
    6620:	dc3e                	c.swsp	a5,56(sp)
    6622:	00169793          	slli	a5,a3,0x1
    6626:	40800333          	neg	t1,s0
    662a:	00462903          	lw	s2,4(a2)
    662e:	41300433          	neg	s0,s3
    6632:	c4be                	c.swsp	a5,72(sp)
    6634:	00062983          	lw	s3,0(a2)
    6638:	001e9793          	slli	a5,t4,0x1
    663c:	0114f633          	and	a2,s1,a7
    6640:	01031593          	slli	a1,t1,0x10
    6644:	0442                	c.slli	s0,0x10
    6646:	c8be                	c.swsp	a5,80(sp)
    6648:	d232                	c.swsp	a2,36(sp)
    664a:	00139793          	slli	a5,t2,0x1
    664e:	8662                	c.mv	a2,s8
    6650:	cabe                	c.swsp	a5,84(sp)
    6652:	8c5a                	c.mv	s8,s6
    6654:	d8c2                	c.swsp	a6,112(sp)
    6656:	8b52                	c.mv	s6,s4
    6658:	882a                	c.mv	a6,a0
    665a:	d45e                	c.swsp	s7,40(sp)
    665c:	853a                	c.mv	a0,a4
    665e:	8be6                	c.mv	s7,s9
    6660:	4781                	c.li	a5,0
    6662:	8cee                	c.mv	s9,s11
    6664:	81c1                	c.srli	a1,0x10
    6666:	8dea                	c.mv	s11,s10
    6668:	8041                	c.srli	s0,0x10
    666a:	8396                	c.mv	t2,t0
    666c:	877a                	c.mv	a4,t5
    666e:	8d56                	c.mv	s10,s5
    6670:	00c00a33          	add	s4,zero,a2
    6674:	88e6                	c.mv	a7,s9
    6676:	862e                	c.mv	a2,a1
    6678:	8cda                	c.mv	s9,s6
    667a:	832e                	c.mv	t1,a1
    667c:	dabe                	c.swsp	a5,116(sp)
    667e:	85a2                	c.mv	a1,s0
    6680:	4a81                	c.li	s5,0
    6682:	8462                	c.mv	s0,s8
    6684:	87ca                	c.mv	a5,s2
    6686:	8c5e                	c.mv	s8,s7
    6688:	8b46                	c.mv	s6,a7
    668a:	d652                	c.swsp	s4,44(sp)
    668c:	01061b93          	slli	s7,a2,0x10
    6690:	410bdb93          	srai	s7,s7,0x10
    6694:	28070063          	beqz	a4,6914 <riscv_depthwise_conv_s16+0x3b4>
    6698:	c802                	c.swsp	zero,16(sp)
    669a:	01704563          	bgtz	s7,66a4 <riscv_depthwise_conv_s16+0x144>
    669e:	417004b3          	neg	s1,s7
    66a2:	c826                	c.swsp	s1,16(sp)
    66a4:	5e92                	c.lwsp	t4,36(sp)
    66a6:	417504b3          	sub	s1,a0,s7
    66aa:	41740933          	sub	s2,s0,s7
    66ae:	00940a33          	add	s4,s0,s1
    66b2:	f1d484ff          	minw	s1,s1,t4
    66b6:	d2a6                	c.swsp	s1,100(sp)
    66b8:	fff90493          	addi	s1,s2,-1 # 3fffffff <_DATA_LMA_START+0x1fff4c1f>
    66bc:	8eaa                	c.mv	t4,a0
    66be:	d4a6                	c.swsp	s1,104(sp)
    66c0:	dede                	c.swsp	s7,124(sp)
    66c2:	fffa0493          	addi	s1,s4,-1
    66c6:	88ae                	c.mv	a7,a1
    66c8:	4f01                	c.li	t5,0
    66ca:	8bda                	c.mv	s7,s6
    66cc:	8532                	c.mv	a0,a2
    66ce:	d6a6                	c.swsp	s1,108(sp)
    66d0:	dcfe                	c.swsp	t6,120(sp)
    66d2:	d84e                	c.swsp	s3,48(sp)
    66d4:	c156                	c.swsp	s5,128(sp)
    66d6:	c372                	c.swsp	t3,132(sp)
    66d8:	01089a93          	slli	s5,a7,0x10
    66dc:	410ada93          	srai	s5,s5,0x10
    66e0:	200c8c63          	beqz	s9,68f8 <riscv_depthwise_conv_s16+0x398>
    66e4:	ca02                	c.swsp	zero,20(sp)
    66e6:	01504563          	bgtz	s5,66f0 <riscv_depthwise_conv_s16+0x190>
    66ea:	41500633          	neg	a2,s5
    66ee:	ca32                	c.swsp	a2,20(sp)
    66f0:	5622                	c.lwsp	a2,40(sp)
    66f2:	c71e                	c.swsp	t2,140(sp)
    66f4:	415609b3          	sub	s3,a2,s5
    66f8:	013d04b3          	add	s1,s10,s3
    66fc:	f1b98e7f          	minw	t3,s3,s11
    6700:	14fd                	c.addi	s1,-1
    6702:	415d09b3          	sub	s3,s10,s5
    6706:	d0a6                	c.swsp	s1,96(sp)
    6708:	c97a                	c.swsp	t5,144(sp)
    670a:	4601                	c.li	a2,0
    670c:	4b01                	c.li	s6,0
    670e:	19fd                	c.addi	s3,-1
    6710:	84f6                	c.mv	s1,t4
    6712:	83aa                	c.mv	t2,a0
    6714:	8f1a                	c.mv	t5,t1
    6716:	cef2                	c.swsp	t3,92(sp)
    6718:	08e12423          	sw	a4,136(sp)
    671c:	1c068463          	beqz	a3,68e4 <riscv_depthwise_conv_s16+0x384>
    6720:	5742                	c.lwsp	a4,48(sp)
    6722:	00261313          	slli	t1,a2,0x2
    6726:	006702b3          	add	t0,a4,t1
    672a:	4726                	c.lwsp	a4,72(sp)
    672c:	8a1e                	c.mv	s4,t2
    672e:	9762                	c.add	a4,s8
    6730:	83a6                	c.mv	t2,s1
    6732:	933e                	c.add	t1,a5
    6734:	8fb2                	c.mv	t6,a2
    6736:	8946                	c.mv	s2,a7
    6738:	8e32                	c.mv	t3,a2
    673a:	84ae                	c.mv	s1,a1
    673c:	c2ba                	c.swsp	a4,68(sp)
    673e:	cb3e                	c.swsp	a5,148(sp)
    6740:	cd36                	c.swsp	a3,152(sp)
    6742:	cf42                	c.swsp	a6,156(sp)
    6744:	0002a783          	lw	a5,0(t0)
    6748:	7fff0737          	lui	a4,0x7fff0
    674c:	20e7da63          	bge	a5,a4,6960 <riscv_depthwise_conv_s16+0x400>
    6750:	6721                	c.lui	a4,0x8
    6752:	97ba                	c.add	a5,a4
    6754:	4107de93          	srai	t4,a5,0x10
    6758:	87fd                	c.srai	a5,0x1f
    675a:	d03e                	c.swsp	a5,32(sp)
    675c:	57f2                	c.lwsp	a5,60(sp)
    675e:	4705                	c.li	a4,1
    6760:	20f77863          	bgeu	a4,a5,6970 <riscv_depthwise_conv_s16+0x410>
    6764:	5786                	c.lwsp	a5,96(sp)
    6766:	03a9c6b3          	div	a3,s3,s10
    676a:	4705                	c.li	a4,1
    676c:	03a7c633          	div	a2,a5,s10
    6770:	4781                	c.li	a5,0
    6772:	f2f686ff          	maxw	a3,a3,a5
    6776:	f1b607ff          	minw	a5,a2,s11
    677a:	c63e                	c.swsp	a5,12(sp)
    677c:	04012783          	lw	a5,64(sp)
    6780:	20f77063          	bgeu	a4,a5,6980 <riscv_depthwise_conv_s16+0x420>
    6784:	57a6                	c.lwsp	a5,104(sp)
    6786:	5736                	c.lwsp	a4,108(sp)
    6788:	0287c7b3          	div	a5,a5,s0
    678c:	028745b3          	div	a1,a4,s0
    6790:	4701                	c.li	a4,0
    6792:	f2e787ff          	maxw	a5,a5,a4
    6796:	5712                	c.lwsp	a4,36(sp)
    6798:	f0e585ff          	minw	a1,a1,a4
    679c:	570e                	c.lwsp	a4,224(sp)
    679e:	4801                	c.li	a6,0
    67a0:	4881                	c.li	a7,0
    67a2:	cb09                	c.beqz	a4,67b4 <riscv_depthwise_conv_s16+0x254>
    67a4:	863a                	c.mv	a2,a4
    67a6:	003f9713          	slli	a4,t6,0x3
    67aa:	9732                	c.add	a4,a2
    67ac:	00072803          	lw	a6,0(a4) # 8000 <riscv_depthwise_conv_3x3_s8+0x770>
    67b0:	00472883          	lw	a7,4(a4)
    67b4:	0ab7da63          	bge	a5,a1,6868 <riscv_depthwise_conv_s16+0x308>
    67b8:	5576                	c.lwsp	a0,124(sp)
    67ba:	8756                	c.mv	a4,s5
    67bc:	5622                	c.lwsp	a2,40(sp)
    67be:	c487957f          	maddr32	a0,a5,s0
    67c2:	c4dd177f          	maddr32	a4,s10,a3
    67c6:	c246                	c.swsp	a7,4(sp)
    67c8:	88e6                	c.mv	a7,s9
    67ca:	c4c5177f          	maddr32	a4,a0,a2
    67ce:	8536                	c.mv	a0,a3
    67d0:	c5b7957f          	maddr32	a0,a5,s11
    67d4:	c03a                	c.swsp	a4,0(sp)
    67d6:	872a                	c.mv	a4,a0
    67d8:	857e                	c.mv	a0,t6
    67da:	c577157f          	maddr32	a0,a4,s7
    67de:	4702                	c.lwsp	a4,0(sp)
    67e0:	865a                	c.mv	a2,s6
    67e2:	d156                	c.swsp	s5,160(sp)
    67e4:	c597167f          	maddr32	a2,a4,s9
    67e8:	c042                	c.swsp	a6,0(sp)
    67ea:	8732                	c.mv	a4,a2
    67ec:	4666                	c.lwsp	a2,88(sp)
    67ee:	0706                	c.slli	a4,0x1
    67f0:	9532                	c.add	a0,a2
    67f2:	5632                	c.lwsp	a2,44(sp)
    67f4:	d35a                	c.swsp	s6,164(sp)
    67f6:	9732                	c.add	a4,a2
    67f8:	00c12603          	lw	a2,12(sp)
    67fc:	04c6da63          	bge	a3,a2,6850 <riscv_depthwise_conv_s16+0x2f0>
    6800:	8ab6                	c.mv	s5,a3
    6802:	8846                	c.mv	a6,a7
    6804:	8caa                	c.mv	s9,a0
    6806:	8b3a                	c.mv	s6,a4
    6808:	88be                	c.mv	a7,a5
    680a:	86ae                	c.mv	a3,a1
    680c:	d52a                	c.swsp	a0,168(sp)
    680e:	d73a                	c.swsp	a4,172(sp)
    6810:	01512623          	sw	s5,12(sp)
    6814:	000c8703          	lb	a4,0(s9)
    6818:	000b1783          	lh	a5,0(s6)
    681c:	45d6                	c.lwsp	a1,84(sp)
    681e:	0a85                	c.addi	s5,1
    6820:	02e787b3          	mul	a5,a5,a4
    6824:	9b2e                	c.add	s6,a1
    6826:	4702                	c.lwsp	a4,0(sp)
    6828:	cc3e                	c.swsp	a5,24(sp)
    682a:	87fd                	c.srai	a5,0x1f
    682c:	ce3e                	c.swsp	a5,28(sp)
    682e:	4562                	c.lwsp	a0,24(sp)
    6830:	4792                	c.lwsp	a5,4(sp)
    6832:	45f2                	c.lwsp	a1,28(sp)
    6834:	9cde                	c.add	s9,s7
    6836:	c0a7177f          	add64	a4,a4,a0
    683a:	c03a                	c.swsp	a4,0(sp)
    683c:	c23e                	c.swsp	a5,4(sp)
    683e:	fcca9be3          	bne	s5,a2,6814 <riscv_depthwise_conv_s16+0x2b4>
    6842:	87c6                	c.mv	a5,a7
    6844:	88c2                	c.mv	a7,a6
    6846:	4832                	c.lwsp	a6,12(sp)
    6848:	552a                	c.lwsp	a0,168(sp)
    684a:	573a                	c.lwsp	a4,172(sp)
    684c:	85b6                	c.mv	a1,a3
    684e:	86c2                	c.mv	a3,a6
    6850:	4846                	c.lwsp	a6,80(sp)
    6852:	0785                	c.addi	a5,1
    6854:	9742                	c.add	a4,a6
    6856:	4836                	c.lwsp	a6,76(sp)
    6858:	9542                	c.add	a0,a6
    685a:	fab791e3          	bne	a5,a1,67fc <riscv_depthwise_conv_s16+0x29c>
    685e:	8cc6                	c.mv	s9,a7
    6860:	5a8a                	c.lwsp	s5,160(sp)
    6862:	4802                	c.lwsp	a6,0(sp)
    6864:	4892                	c.lwsp	a7,4(sp)
    6866:	5b1a                	c.lwsp	s6,164(sp)
    6868:	5782                	c.lwsp	a5,32(sp)
    686a:	00032603          	lw	a2,0(t1) # 40000000 <_DATA_LMA_START+0x1fff4c20>
    686e:	030786b3          	mul	a3,a5,a6
    6872:	f1d8177f          	mulr64	a4,a6,t4
    6876:	c23e                	c.swsp	a5,4(sp)
    6878:	c51e96ff          	maddr32	a3,t4,a7
    687c:	47b9                	c.li	a5,14
    687e:	85b6                	c.mv	a1,a3
    6880:	40c786b3          	sub	a3,a5,a2
    6884:	4792                	c.lwsp	a5,4(sp)
    6886:	fe068613          	addi	a2,a3,-32
    688a:	97ae                	c.add	a5,a1
    688c:	c03a                	c.swsp	a4,0(sp)
    688e:	c23e                	c.swsp	a5,4(sp)
    6890:	40c7d733          	sra	a4,a5,a2
    6894:	00065e63          	bgez	a2,68b0 <riscv_depthwise_conv_s16+0x350>
    6898:	4592                	c.lwsp	a1,4(sp)
    689a:	477d                	c.li	a4,31
    689c:	4502                	c.lwsp	a0,0(sp)
    689e:	40d70633          	sub	a2,a4,a3
    68a2:	00159793          	slli	a5,a1,0x1
    68a6:	00c797b3          	sll	a5,a5,a2
    68aa:	00d55733          	srl	a4,a0,a3
    68ae:	8f5d                	c.or	a4,a5
    68b0:	00170793          	addi	a5,a4,1
    68b4:	5752                	c.lwsp	a4,52(sp)
    68b6:	8785                	c.srai	a5,0x1
    68b8:	f2e787ff          	maxw	a5,a5,a4
    68bc:	5762                	c.lwsp	a4,56(sp)
    68be:	0c09                	c.addi	s8,2
    68c0:	f0f707ff          	minw	a5,a4,a5
    68c4:	fefc1f23          	sh	a5,-2(s8)
    68c8:	4796                	c.lwsp	a5,68(sp)
    68ca:	0291                	c.addi	t0,4
    68cc:	0311                	c.addi	t1,4
    68ce:	0f85                	c.addi	t6,1
    68d0:	e6fc1ae3          	bne	s8,a5,6744 <riscv_depthwise_conv_s16+0x1e4>
    68d4:	47da                	c.lwsp	a5,148(sp)
    68d6:	46ea                	c.lwsp	a3,152(sp)
    68d8:	487a                	c.lwsp	a6,156(sp)
    68da:	85a6                	c.mv	a1,s1
    68dc:	88ca                	c.mv	a7,s2
    68de:	849e                	c.mv	s1,t2
    68e0:	8672                	c.mv	a2,t3
    68e2:	83d2                	c.mv	t2,s4
    68e4:	0b05                	c.addi	s6,1
    68e6:	9636                	c.add	a2,a3
    68e8:	e36c9ae3          	bne	s9,s6,671c <riscv_depthwise_conv_s16+0x1bc>
    68ec:	851e                	c.mv	a0,t2
    68ee:	837a                	c.mv	t1,t5
    68f0:	472a                	c.lwsp	a4,136(sp)
    68f2:	43ba                	c.lwsp	t2,140(sp)
    68f4:	4f4a                	c.lwsp	t5,144(sp)
    68f6:	8ea6                	c.mv	t4,s1
    68f8:	989e                	c.add	a7,t2
    68fa:	08c2                	c.slli	a7,0x10
    68fc:	0f05                	c.addi	t5,1
    68fe:	0108d893          	srli	a7,a7,0x10
    6902:	dde71be3          	bne	a4,t5,66d8 <riscv_depthwise_conv_s16+0x178>
    6906:	5fe6                	c.lwsp	t6,120(sp)
    6908:	59c2                	c.lwsp	s3,48(sp)
    690a:	4a8a                	c.lwsp	s5,128(sp)
    690c:	4e1a                	c.lwsp	t3,132(sp)
    690e:	862a                	c.mv	a2,a0
    6910:	8b5e                	c.mv	s6,s7
    6912:	8576                	c.mv	a0,t4
    6914:	967e                	c.add	a2,t6
    6916:	0642                	c.slli	a2,0x10
    6918:	0a85                	c.addi	s5,1
    691a:	8241                	c.srli	a2,0x10
    691c:	d70a98e3          	bne	s5,a6,668c <riscv_depthwise_conv_s16+0x12c>
    6920:	865a                	c.mv	a2,s6
    6922:	893e                	c.mv	s2,a5
    6924:	57d6                	c.lwsp	a5,116(sp)
    6926:	5a32                	c.lwsp	s4,44(sp)
    6928:	8b66                	c.mv	s6,s9
    692a:	8cb2                	c.mv	s9,a2
    692c:	5646                	c.lwsp	a2,112(sp)
    692e:	0785                	c.addi	a5,1
    6930:	8be2                	c.mv	s7,s8
    6932:	9a32                	c.add	s4,a2
    6934:	8c22                	c.mv	s8,s0
    6936:	842e                	c.mv	s0,a1
    6938:	006005b3          	add	a1,zero,t1
    693c:	d2fe1ce3          	bne	t3,a5,6674 <riscv_depthwise_conv_s16+0x114>
    6940:	447e                	c.lwsp	s0,220(sp)
    6942:	44ee                	c.lwsp	s1,216(sp)
    6944:	495e                	c.lwsp	s2,212(sp)
    6946:	49ce                	c.lwsp	s3,208(sp)
    6948:	4a3e                	c.lwsp	s4,204(sp)
    694a:	4aae                	c.lwsp	s5,200(sp)
    694c:	4b1e                	c.lwsp	s6,196(sp)
    694e:	4b8e                	c.lwsp	s7,192(sp)
    6950:	5c7a                	c.lwsp	s8,188(sp)
    6952:	5cea                	c.lwsp	s9,184(sp)
    6954:	5d5a                	c.lwsp	s10,180(sp)
    6956:	5dca                	c.lwsp	s11,176(sp)
    6958:	4501                	c.li	a0,0
    695a:	612d                	c.addi16sp	sp,224
    695c:	00008067          	ret
    6960:	67a1                	c.lui	a5,0x8
    6962:	fff78e93          	addi	t4,a5,-1 # 7fff <riscv_depthwise_conv_3x3_s8+0x76f>
    6966:	57f2                	c.lwsp	a5,60(sp)
    6968:	4705                	c.li	a4,1
    696a:	d002                	c.swsp	zero,32(sp)
    696c:	def76ce3          	bltu	a4,a5,6764 <riscv_depthwise_conv_s16+0x204>
    6970:	47f6                	c.lwsp	a5,92(sp)
    6972:	4705                	c.li	a4,1
    6974:	c63e                	c.swsp	a5,12(sp)
    6976:	4786                	c.lwsp	a5,64(sp)
    6978:	01412683          	lw	a3,20(sp)
    697c:	e0f764e3          	bltu	a4,a5,6784 <riscv_depthwise_conv_s16+0x224>
    6980:	5596                	c.lwsp	a1,100(sp)
    6982:	47c2                	c.lwsp	a5,16(sp)
    6984:	bd21                	c.j	679c <riscv_depthwise_conv_s16+0x23c>
	...

00006988 <depthwise_conv_s8_mult_4>:
    6988:	7131                	c.addi16sp	sp,-192
    698a:	cd66                	c.swsp	s9,152(sp)
    698c:	5cae                	c.lwsp	s9,232(sp)
    698e:	db4a                	c.swsp	s2,180(sp)
    6990:	d35a                	c.swsp	s6,164(sp)
    6992:	cb6a                	c.swsp	s10,148(sp)
    6994:	df22                	c.swsp	s0,188(sp)
    6996:	dd26                	c.swsp	s1,184(sp)
    6998:	d94e                	c.swsp	s3,176(sp)
    699a:	d752                	c.swsp	s4,172(sp)
    699c:	d556                	c.swsp	s5,168(sp)
    699e:	d15e                	c.swsp	s7,160(sp)
    69a0:	cf62                	c.swsp	s8,156(sp)
    69a2:	c96e                	c.swsp	s11,144(sp)
    69a4:	4e2e                	c.lwsp	t3,200(sp)
    69a6:	4b1e                	c.lwsp	s6,196(sp)
    69a8:	42ce                	c.lwsp	t0,208(sp)
    69aa:	4d6e                	c.lwsp	s10,216(sp)
    69ac:	5f1e                	c.lwsp	t5,228(sp)
    69ae:	594e                	c.lwsp	s2,240(sp)
    69b0:	37905863          	blez	s9,6d20 <depthwise_conv_s8_mult_4+0x398>
    69b4:	02f889b3          	mul	s3,a7,a5
    69b8:	8abe                	c.mv	s5,a5
    69ba:	02b68a33          	mul	s4,a3,a1
    69be:	8bb6                	c.mv	s7,a3
    69c0:	8346                	c.mv	t1,a7
    69c2:	416007b3          	neg	a5,s6
    69c6:	35e05d63          	blez	t5,6d20 <depthwise_conv_s8_mult_4+0x398>
    69ca:	fff80693          	addi	a3,a6,-1
    69ce:	84aa                	c.mv	s1,a0
    69d0:	8289                	c.srli	a3,0x2
    69d2:	453e                	c.lwsp	a0,204(sp)
    69d4:	0685                	c.addi	a3,1
    69d6:	9672                	c.add	a2,t3
    69d8:	02ab8c33          	mul	s8,s7,a0
    69dc:	da32                	c.swsp	a2,52(sp)
    69de:	00269613          	slli	a2,a3,0x2
    69e2:	0692                	c.slli	a3,0x4
    69e4:	c2b2                	c.swsp	a2,68(sp)
    69e6:	c4b6                	c.swsp	a3,72(sp)
    69e8:	01658633          	add	a2,a1,s6
    69ec:	46be                	c.lwsp	a3,204(sp)
    69ee:	03778433          	mul	s0,a5,s7
    69f2:	8eba                	c.mv	t4,a4
    69f4:	c8a6                	c.swsp	s1,80(sp)
    69f6:	41c00733          	neg	a4,t3
    69fa:	84ca                	c.mv	s1,s2
    69fc:	87f2                	c.mv	a5,t3
    69fe:	8956                	c.mv	s2,s5
    6a00:	4501                	c.li	a0,0
    6a02:	8ab2                	c.mv	s5,a2
    6a04:	4d81                	c.li	s11,0
    6a06:	8666                	c.mv	a2,s9
    6a08:	8cea                	c.mv	s9,s10
    6a0a:	8d5e                	c.mv	s10,s7
    6a0c:	05812623          	sw	s8,76(sp)
    6a10:	f3b788ff          	maxw	a7,a5,s11
    6a14:	011705b3          	add	a1,a4,a7
    6a18:	8e76                	c.mv	t3,t4
    6a1a:	03458c33          	mul	s8,a1,s4
    6a1e:	c5199e7f          	maddr32	t3,s3,a7
    6a22:	55d2                	c.lwsp	a1,52(sp)
    6a24:	d646                	c.swsp	a7,44(sp)
    6a26:	488e                	c.lwsp	a7,192(sp)
    6a28:	d2e2                	c.swsp	s8,100(sp)
    6a2a:	f1158bff          	minw	s7,a1,a7
    6a2e:	8c66                	c.mv	s8,s9
    6a30:	d4f6                	c.swsp	t4,104(sp)
    6a32:	85da                	c.mv	a1,s6
    6a34:	8fa2                	c.mv	t6,s0
    6a36:	4381                	c.li	t2,0
    6a38:	8e96                	c.mv	t4,t0
    6a3a:	8cde                	c.mv	s9,s7
    6a3c:	88b2                	c.mv	a7,a2
    6a3e:	dc56                	c.swsp	s5,56(sp)
    6a40:	caba                	c.swsp	a4,84(sp)
    6a42:	ccaa                	c.swsp	a0,88(sp)
    6a44:	cebe                	c.swsp	a5,92(sp)
    6a46:	d0a2                	c.swsp	s0,96(sp)
    6a48:	0d612223          	sw	s6,196(sp)
    6a4c:	f3b58b7f          	maxw	s6,a1,s11
    6a50:	29205c63          	blez	s2,6ce8 <depthwise_conv_s8_mult_4+0x360>
    6a54:	5796                	c.lwsp	a5,100(sp)
    6a56:	4646                	c.lwsp	a2,80(sp)
    6a58:	00ff8733          	add	a4,t6,a5
    6a5c:	c56d177f          	maddr32	a4,s10,s6
    6a60:	87f2                	c.mv	a5,t3
    6a62:	c56917ff          	maddr32	a5,s2,s6
    6a66:	9732                	c.add	a4,a2
    6a68:	457e                	c.lwsp	a0,220(sp)
    6a6a:	560e                	c.lwsp	a2,224(sp)
    6a6c:	c0be                	c.swsp	a5,64(sp)
    6a6e:	d43a                	c.swsp	a4,40(sp)
    6a70:	57e2                	c.lwsp	a5,56(sp)
    6a72:	475e                	c.lwsp	a4,212(sp)
    6a74:	daae                	c.swsp	a1,116(sp)
    6a76:	d03a                	c.swsp	a4,32(sp)
    6a78:	c7b6                	c.swsp	a3,204(sp)
    6a7a:	4701                	c.li	a4,0
    6a7c:	f06787ff          	minw	a5,a5,t1
    6a80:	8bd2                	c.mv	s7,s4
    6a82:	85aa                	c.mv	a1,a0
    6a84:	86b2                	c.mv	a3,a2
    6a86:	d69e                	c.swsp	t2,108(sp)
    6a88:	de3a                	c.swsp	a4,60(sp)
    6a8a:	d8fe                	c.swsp	t6,112(sp)
    6a8c:	07512c23          	sw	s5,120(sp)
    6a90:	23005e63          	blez	a6,6ccc <depthwise_conv_s8_mult_4+0x344>
    6a94:	5772                	c.lwsp	a4,60(sp)
    6a96:	4606                	c.lwsp	a2,64(sp)
    6a98:	5a82                	c.lwsp	s5,32(sp)
    6a9a:	9732                	c.add	a4,a2
    6a9c:	c63a                	c.swsp	a4,12(sp)
    6a9e:	4716                	c.lwsp	a4,68(sp)
    6aa0:	8436                	c.mv	s0,a3
    6aa2:	9762                	c.add	a4,s8
    6aa4:	82ae                	c.mv	t0,a1
    6aa6:	d83a                	c.swsp	a4,48(sp)
    6aa8:	d23e                	c.swsp	a5,36(sp)
    6aaa:	deae                	c.swsp	a1,124(sp)
    6aac:	c136                	c.swsp	a3,128(sp)
    6aae:	c372                	c.swsp	t3,132(sp)
    6ab0:	c542                	c.swsp	a6,136(sp)
    6ab2:	c71a                	c.swsp	t1,140(sp)
    6ab4:	c9f6                	c.swsp	t4,208(sp)
    6ab6:	d3fa                	c.swsp	t5,228(sp)
    6ab8:	0f112423          	sw	a7,232(sp)
    6abc:	280a8063          	beqz	s5,6d3c <depthwise_conv_s8_mult_4+0x3b4>
    6ac0:	000aa303          	lw	t1,0(s5)
    6ac4:	004aa883          	lw	a7,4(s5)
    6ac8:	008aa803          	lw	a6,8(s5)
    6acc:	00caa503          	lw	a0,12(s5)
    6ad0:	010a8a93          	addi	s5,s5,16
    6ad4:	5e32                	c.lwsp	t3,44(sp)
    6ad6:	059e5d63          	bge	t3,s9,6b30 <depthwise_conv_s8_mult_4+0x1a8>
    6ada:	5f22                	c.lwsp	t5,40(sp)
    6adc:	4eb2                	c.lwsp	t4,12(sp)
    6ade:	5792                	c.lwsp	a5,36(sp)
    6ae0:	03512023          	sw	s5,32(sp)
    6ae4:	86f6                	c.mv	a3,t4
    6ae6:	02fb5d63          	bge	s6,a5,6b20 <depthwise_conv_s8_mult_4+0x198>
    6aea:	85fa                	c.mv	a1,t5
    6aec:	01600633          	add	a2,zero,s6
    6af0:	00058703          	lb	a4,0(a1)
    6af4:	00068a83          	lb	s5,0(a3)
    6af8:	00168a03          	lb	s4,1(a3)
    6afc:	00268383          	lb	t2,2(a3)
    6b00:	00368f83          	lb	t6,3(a3)
    6b04:	9726                	c.add	a4,s1
    6b06:	0605                	c.addi	a2,1
    6b08:	c4ea937f          	maddr32	t1,s5,a4
    6b0c:	c4ea18ff          	maddr32	a7,s4,a4
    6b10:	c4e3987f          	maddr32	a6,t2,a4
    6b14:	c4ef957f          	maddr32	a0,t6,a4
    6b18:	96ca                	c.add	a3,s2
    6b1a:	95ea                	c.add	a1,s10
    6b1c:	fcf61ae3          	bne	a2,a5,6af0 <depthwise_conv_s8_mult_4+0x168>
    6b20:	0e05                	c.addi	t3,1
    6b22:	9ece                	c.add	t4,s3
    6b24:	9f5e                	c.add	t5,s7
    6b26:	fb9e1fe3          	bne	t3,s9,6ae4 <depthwise_conv_s8_mult_4+0x15c>
    6b2a:	5a82                	c.lwsp	s5,32(sp)
    6b2c:	02f12223          	sw	a5,36(sp)
    6b30:	0082a383          	lw	t2,8(t0)
    6b34:	0002ae03          	lw	t3,0(t0)
    6b38:	f3b386ff          	maxw	a3,t2,s11
    6b3c:	00d816b3          	sll	a3,a6,a3
    6b40:	00042803          	lw	a6,0(s0)
    6b44:	f3be05ff          	maxw	a1,t3,s11
    6b48:	0042ae83          	lw	t4,4(t0)
    6b4c:	00b315b3          	sll	a1,t1,a1
    6b50:	40000f37          	lui	t5,0x40000
    6b54:	4f81                	c.li	t6,0
    6b56:	85059f7f          	smar64	t5,a1,a6
    6b5a:	404c                	c.lw	a1,4(s0)
    6b5c:	f3be867f          	maxw	a2,t4,s11
    6b60:	00c89633          	sll	a2,a7,a2
    6b64:	40000837          	lui	a6,0x40000
    6b68:	4881                	c.li	a7,0
    6b6a:	84b6187f          	smar64	a6,a2,a1
    6b6e:	4410                	c.lw	a2,8(s0)
    6b70:	00c2aa03          	lw	s4,12(t0)
    6b74:	c842                	c.swsp	a6,16(sp)
    6b76:	ca46                	c.swsp	a7,20(sp)
    6b78:	40000837          	lui	a6,0x40000
    6b7c:	4881                	c.li	a7,0
    6b7e:	84c6987f          	smar64	a6,a3,a2
    6b82:	f3ba077f          	maxw	a4,s4,s11
    6b86:	407006b3          	neg	a3,t2
    6b8a:	00e51733          	sll	a4,a0,a4
    6b8e:	41d005b3          	neg	a1,t4
    6b92:	f3b6857f          	maxw	a0,a3,s11
    6b96:	4e85                	c.li	t4,1
    6b98:	cc42                	c.swsp	a6,24(sp)
    6b9a:	ce46                	c.swsp	a7,28(sp)
    6b9c:	00ae9833          	sll	a6,t4,a0
    6ba0:	00c42883          	lw	a7,12(s0)
    6ba4:	d02a                	c.swsp	a0,32(sp)
    6ba6:	dfff057f          	wexti	a0,t5,31
    6baa:	4f42                	c.lwsp	t5,16(sp)
    6bac:	4fd2                	c.lwsp	t6,20(sp)
    6bae:	41c00e33          	neg	t3,t3
    6bb2:	40000637          	lui	a2,0x40000
    6bb6:	4681                	c.li	a3,0
    6bb8:	dfff03ff          	wexti	t2,t5,31
    6bbc:	8517167f          	smar64	a2,a4,a7
    6bc0:	4f62                	c.lwsp	t5,24(sp)
    6bc2:	4ff2                	c.lwsp	t6,28(sp)
    6bc4:	f3be0e7f          	maxw	t3,t3,s11
    6bc8:	41400a33          	neg	s4,s4
    6bcc:	01ce9333          	sll	t1,t4,t3
    6bd0:	f3b585ff          	maxw	a1,a1,s11
    6bd4:	f3ba0a7f          	maxw	s4,s4,s11
    6bd8:	879e                	c.mv	a5,t2
    6bda:	00be98b3          	sll	a7,t4,a1
    6bde:	137d                	c.addi	t1,-1
    6be0:	014e9eb3          	sll	t4,t4,s4
    6be4:	dfff077f          	wexti	a4,t5,31
    6be8:	dff6067f          	wexti	a2,a2,31
    6bec:	cc3e                	c.swsp	a5,24(sp)
    6bee:	fffe8693          	addi	a3,t4,-1
    6bf2:	40135f93          	srai	t6,t1,0x1
    6bf6:	0003ae93          	slti	t4,t2,0
    6bfa:	00a37333          	and	t1,t1,a0
    6bfe:	00052393          	slti	t2,a0,0
    6c02:	41c55533          	sra	a0,a0,t3
    6c06:	4e62                	c.lwsp	t3,24(sp)
    6c08:	c876                	c.swsp	t4,16(sp)
    6c0a:	18fd                	c.addi	a7,-1
    6c0c:	187d                	c.addi	a6,-1
    6c0e:	9f9e                	c.add	t6,t2
    6c10:	43c2                	c.lwsp	t2,16(sp)
    6c12:	4018df13          	srai	t5,a7,0x1
    6c16:	40185e93          	srai	t4,a6,0x1
    6c1a:	00f8f8b3          	and	a7,a7,a5
    6c1e:	40be55b3          	sra	a1,t3,a1
    6c22:	00072793          	slti	a5,a4,0
    6c26:	5e02                	c.lwsp	t3,32(sp)
    6c28:	9f1e                	c.add	t5,t2
    6c2a:	00e87833          	and	a6,a6,a4
    6c2e:	9ebe                	c.add	t4,a5
    6c30:	4016d393          	srai	t2,a3,0x1
    6c34:	00062793          	slti	a5,a2,0
    6c38:	93be                	c.add	t2,a5
    6c3a:	006fa333          	slt	t1,t6,t1
    6c3e:	57be                	c.lwsp	a5,236(sp)
    6c40:	011f28b3          	slt	a7,t5,a7
    6c44:	41c75733          	sra	a4,a4,t3
    6c48:	010ea833          	slt	a6,t4,a6
    6c4c:	951a                	c.add	a0,t1
    6c4e:	95c6                	c.add	a1,a7
    6c50:	9742                	c.add	a4,a6
    6c52:	953e                	c.add	a0,a5
    6c54:	95be                	c.add	a1,a5
    6c56:	973e                	c.add	a4,a5
    6c58:	57de                	c.lwsp	a5,244(sp)
    6c5a:	8ef1                	c.and	a3,a2
    6c5c:	f2f5057f          	maxw	a0,a0,a5
    6c60:	f2f585ff          	maxw	a1,a1,a5
    6c64:	f2f7077f          	maxw	a4,a4,a5
    6c68:	41465633          	sra	a2,a2,s4
    6c6c:	57be                	c.lwsp	a5,236(sp)
    6c6e:	00d3a6b3          	slt	a3,t2,a3
    6c72:	9636                	c.add	a2,a3
    6c74:	963e                	c.add	a2,a5
    6c76:	57ee                	c.lwsp	a5,248(sp)
    6c78:	0c11                	c.addi	s8,4
    6c7a:	f0f5057f          	minw	a0,a0,a5
    6c7e:	feac0e23          	sb	a0,-4(s8)
    6c82:	f0f585ff          	minw	a1,a1,a5
    6c86:	f0f7077f          	minw	a4,a4,a5
    6c8a:	57de                	c.lwsp	a5,244(sp)
    6c8c:	febc0ea3          	sb	a1,-3(s8)
    6c90:	f2f6067f          	maxw	a2,a2,a5
    6c94:	57ee                	c.lwsp	a5,248(sp)
    6c96:	0441                	c.addi	s0,16
    6c98:	feec0f23          	sb	a4,-2(s8)
    6c9c:	f0f6067f          	minw	a2,a2,a5
    6ca0:	02c1                	c.addi	t0,16
    6ca2:	fecc0fa3          	sb	a2,-1(s8)
    6ca6:	47b2                	c.lwsp	a5,12(sp)
    6ca8:	0791                	c.addi	a5,4
    6caa:	c63e                	c.swsp	a5,12(sp)
    6cac:	57c2                	c.lwsp	a5,48(sp)
    6cae:	e0fc17e3          	bne	s8,a5,6abc <depthwise_conv_s8_mult_4+0x134>
    6cb2:	4726                	c.lwsp	a4,72(sp)
    6cb4:	55f6                	c.lwsp	a1,124(sp)
    6cb6:	468a                	c.lwsp	a3,128(sp)
    6cb8:	5792                	c.lwsp	a5,36(sp)
    6cba:	4e1a                	c.lwsp	t3,132(sp)
    6cbc:	482a                	c.lwsp	a6,136(sp)
    6cbe:	433a                	c.lwsp	t1,140(sp)
    6cc0:	4ece                	c.lwsp	t4,208(sp)
    6cc2:	5f1e                	c.lwsp	t5,228(sp)
    6cc4:	58ae                	c.lwsp	a7,232(sp)
    6cc6:	96ba                	c.add	a3,a4
    6cc8:	95ba                	c.add	a1,a4
    6cca:	d056                	c.swsp	s5,32(sp)
    6ccc:	5772                	c.lwsp	a4,60(sp)
    6cce:	5622                	c.lwsp	a2,40(sp)
    6cd0:	9742                	c.add	a4,a6
    6cd2:	0605                	c.addi	a2,1
    6cd4:	de3a                	c.swsp	a4,60(sp)
    6cd6:	d432                	c.swsp	a2,40(sp)
    6cd8:	db274ce3          	blt	a4,s2,6a90 <depthwise_conv_s8_mult_4+0x108>
    6cdc:	53b6                	c.lwsp	t2,108(sp)
    6cde:	5fc6                	c.lwsp	t6,112(sp)
    6ce0:	55d6                	c.lwsp	a1,116(sp)
    6ce2:	46be                	c.lwsp	a3,204(sp)
    6ce4:	5ae6                	c.lwsp	s5,120(sp)
    6ce6:	8a5e                	c.mv	s4,s7
    6ce8:	57e2                	c.lwsp	a5,56(sp)
    6cea:	0385                	c.addi	t2,1
    6cec:	8f95                	c.sub	a5,a3
    6cee:	dc3e                	c.swsp	a5,56(sp)
    6cf0:	47b6                	c.lwsp	a5,76(sp)
    6cf2:	8d95                	c.sub	a1,a3
    6cf4:	9fbe                	c.add	t6,a5
    6cf6:	d47f1be3          	bne	t5,t2,6a4c <depthwise_conv_s8_mult_4+0xc4>
    6cfa:	55d2                	c.lwsp	a1,52(sp)
    6cfc:	82f6                	c.mv	t0,t4
    6cfe:	4566                	c.lwsp	a0,88(sp)
    6d00:	4756                	c.lwsp	a4,84(sp)
    6d02:	47f6                	c.lwsp	a5,92(sp)
    6d04:	405585b3          	sub	a1,a1,t0
    6d08:	0505                	c.addi	a0,1
    6d0a:	da2e                	c.swsp	a1,52(sp)
    6d0c:	5406                	c.lwsp	s0,96(sp)
    6d0e:	4b1e                	c.lwsp	s6,196(sp)
    6d10:	5ea6                	c.lwsp	t4,104(sp)
    6d12:	8ce2                	c.mv	s9,s8
    6d14:	8646                	c.mv	a2,a7
    6d16:	9716                	c.add	a4,t0
    6d18:	405787b3          	sub	a5,a5,t0
    6d1c:	cea89ae3          	bne	a7,a0,6a10 <depthwise_conv_s8_mult_4+0x88>
    6d20:	547a                	c.lwsp	s0,188(sp)
    6d22:	54ea                	c.lwsp	s1,184(sp)
    6d24:	595a                	c.lwsp	s2,180(sp)
    6d26:	59ca                	c.lwsp	s3,176(sp)
    6d28:	5a3a                	c.lwsp	s4,172(sp)
    6d2a:	5aaa                	c.lwsp	s5,168(sp)
    6d2c:	5b1a                	c.lwsp	s6,164(sp)
    6d2e:	5b8a                	c.lwsp	s7,160(sp)
    6d30:	4c7a                	c.lwsp	s8,156(sp)
    6d32:	4cea                	c.lwsp	s9,152(sp)
    6d34:	4d5a                	c.lwsp	s10,148(sp)
    6d36:	4dca                	c.lwsp	s11,144(sp)
    6d38:	6129                	c.addi16sp	sp,192
    6d3a:	8082                	c.jr	ra
    6d3c:	4501                	c.li	a0,0
    6d3e:	4801                	c.li	a6,0
    6d40:	4881                	c.li	a7,0
    6d42:	4301                	c.li	t1,0
    6d44:	bb41                	c.j	6ad4 <depthwise_conv_s8_mult_4+0x14c>
	...

00006d48 <riscv_depthwise_conv_s8>:
    6d48:	712d                	c.addi16sp	sp,-288
    6d4a:	82b2                	c.mv	t0,a2
    6d4c:	0087a883          	lw	a7,8(a5)
    6d50:	11412423          	sw	s4,264(sp)
    6d54:	0047aa03          	lw	s4,4(a5)
    6d58:	0042a783          	lw	a5,4(t0)
    6d5c:	11512223          	sw	s5,260(sp)
    6d60:	c8be                	c.swsp	a5,80(sp)
    6d62:	12412a83          	lw	s5,292(sp)
    6d66:	0002a783          	lw	a5,0(t0)
    6d6a:	852e                	c.mv	a0,a1
    6d6c:	01c5af03          	lw	t5,28(a1)
    6d70:	0006a303          	lw	t1,0(a3)
    6d74:	42d0                	c.lw	a2,4(a3)
    6d76:	10812c23          	sw	s0,280(sp)
    6d7a:	10912a23          	sw	s1,276(sp)
    6d7e:	5180                	c.lw	s0,32(a1)
    6d80:	4584                	c.lw	s1,8(a1)
    6d82:	11212823          	sw	s2,272(sp)
    6d86:	468c                	c.lw	a1,8(a3)
    6d88:	11312623          	sw	s3,268(sp)
    6d8c:	cabe                	c.swsp	a5,84(sp)
    6d8e:	46d4                	c.lw	a3,12(a3)
    6d90:	01452903          	lw	s2,20(a0)
    6d94:	01852e03          	lw	t3,24(a0)
    6d98:	00c52e83          	lw	t4,12(a0)
    6d9c:	01052f83          	lw	t6,16(a0)
    6da0:	008aa283          	lw	t0,8(s5)
    6da4:	10112e23          	sw	ra,284(sp)
    6da8:	11612023          	sw	s6,256(sp)
    6dac:	dfde                	c.swsp	s7,252(sp)
    6dae:	dde2                	c.swsp	s8,248(sp)
    6db0:	dbe6                	c.swsp	s9,244(sp)
    6db2:	d9ea                	c.swsp	s10,240(sp)
    6db4:	d7ee                	c.swsp	s11,236(sp)
    6db6:	004aa383          	lw	t2,4(s5)
    6dba:	415c                	c.lw	a5,4(a0)
    6dbc:	0034f993          	andi	s3,s1,3
    6dc0:	ccbe                	c.swsp	a5,88(sp)
    6dc2:	411c                	c.lw	a5,0(a0)
    6dc4:	c2ba                	c.swsp	a4,68(sp)
    6dc6:	cebe                	c.swsp	a5,92(sp)
    6dc8:	515c                	c.lw	a5,36(a0)
    6dca:	d4c2                	c.swsp	a6,104(sp)
    6dcc:	d0be                	c.swsp	a5,96(sp)
    6dce:	551c                	c.lw	a5,40(a0)
    6dd0:	d2be                	c.swsp	a5,100(sp)
    6dd2:	010f1793          	slli	a5,t5,0x10
    6dd6:	83c1                	c.srli	a5,0x10
    6dd8:	c13e                	c.swsp	a5,128(sp)
    6dda:	01041793          	slli	a5,s0,0x10
    6dde:	83c1                	c.srli	a5,0x10
    6de0:	c33e                	c.swsp	a5,132(sp)
    6de2:	00099563          	bnez	s3,6dec <riscv_depthwise_conv_s8+0xa4>
    6de6:	4785                	c.li	a5,1
    6de8:	36f30063          	beq	t1,a5,7148 <riscv_depthwise_conv_s8+0x400>
    6dec:	0342                	c.slli	t1,0x10
    6dee:	01091813          	slli	a6,s2,0x10
    6df2:	0e42                	c.slli	t3,0x10
    6df4:	0ec2                	c.slli	t4,0x10
    6df6:	010f9513          	slli	a0,t6,0x10
    6dfa:	01035313          	srli	t1,t1,0x10
    6dfe:	01085813          	srli	a6,a6,0x10
    6e02:	010e5e13          	srli	t3,t3,0x10
    6e06:	010ede93          	srli	t4,t4,0x10
    6e0a:	8141                	c.srli	a0,0x10
    6e0c:	2e030e63          	beqz	t1,7108 <riscv_depthwise_conv_s8+0x3c0>
    6e10:	67c1                	c.lui	a5,0x10
    6e12:	17fd                	c.addi	a5,-1
    6e14:	00f5f933          	and	s2,a1,a5
    6e18:	00f67fb3          	and	t6,a2,a5
    6e1c:	03f90633          	mul	a2,s2,t6
    6e20:	00f6fcb3          	and	s9,a3,a5
    6e24:	00f4f733          	and	a4,s1,a5
    6e28:	00f3f3b3          	and	t2,t2,a5
    6e2c:	03970c33          	mul	s8,a4,s9
    6e30:	03960633          	mul	a2,a2,s9
    6e34:	00f2f9b3          	and	s3,t0,a5
    6e38:	2c038863          	beqz	t2,7108 <riscv_depthwise_conv_s8+0x3c0>
    6e3c:	032c86b3          	mul	a3,s9,s2
    6e40:	00f47d33          	and	s10,s0,a5
    6e44:	00f8fab3          	and	s5,a7,a5
    6e48:	03a686b3          	mul	a3,a3,s10
    6e4c:	00ff7db3          	and	s11,t5,a5
    6e50:	41c005b3          	neg	a1,t3
    6e54:	c936                	c.swsp	a3,144(sp)
    6e56:	035c06b3          	mul	a3,s8,s5
    6e5a:	41000833          	neg	a6,a6
    6e5e:	00fa7a33          	and	s4,s4,a5
    6e62:	c736                	c.swsp	a3,140(sp)
    6e64:	039d86b3          	mul	a3,s11,s9
    6e68:	05c2                	c.slli	a1,0x10
    6e6a:	01081413          	slli	s0,a6,0x10
    6e6e:	c536                	c.swsp	a3,136(sp)
    6e70:	dad2                	c.swsp	s4,116(sp)
    6e72:	4f01                	c.li	t5,0
    6e74:	8a66                	c.mv	s4,s9
    6e76:	4681                	c.li	a3,0
    6e78:	8cea                	c.mv	s9,s10
    6e7a:	81c1                	c.srli	a1,0x10
    6e7c:	8d56                	c.mv	s10,s5
    6e7e:	4b81                	c.li	s7,0
    6e80:	8041                	c.srli	s0,0x10
    6e82:	8aca                	c.mv	s5,s2
    6e84:	87d6                	c.mv	a5,s5
    6e86:	8832                	c.mv	a6,a2
    6e88:	8ad2                	c.mv	s5,s4
    6e8a:	82ae                	c.mv	t0,a1
    6e8c:	4901                	c.li	s2,0
    6e8e:	8e36                	c.mv	t3,a3
    6e90:	862e                	c.mv	a2,a1
    6e92:	8a3e                	c.mv	s4,a5
    6e94:	c6e2                	c.swsp	s8,76(sp)
    6e96:	dc9e                	c.swsp	t2,120(sp)
    6e98:	01029c13          	slli	s8,t0,0x10
    6e9c:	410c5c13          	srai	s8,s8,0x10
    6ea0:	22098c63          	beqz	s3,70d8 <riscv_depthwise_conv_s8+0x390>
    6ea4:	d682                	c.swsp	zero,108(sp)
    6ea6:	01804563          	bgtz	s8,6eb0 <riscv_depthwise_conv_s8+0x168>
    6eaa:	418007b3          	neg	a5,s8
    6eae:	d6be                	c.swsp	a5,108(sp)
    6eb0:	57d6                	c.lwsp	a5,116(sp)
    6eb2:	418f86b3          	sub	a3,t6,s8
    6eb6:	f0f687ff          	minw	a5,a3,a5
    6eba:	418c83b3          	sub	t2,s9,s8
    6ebe:	00dc84b3          	add	s1,s9,a3
    6ec2:	d33e                	c.swsp	a5,164(sp)
    6ec4:	fff38793          	addi	a5,t2,-1
    6ec8:	d53e                	c.swsp	a5,168(sp)
    6eca:	85a2                	c.mv	a1,s0
    6ecc:	fff48793          	addi	a5,s1,-1
    6ed0:	4881                	c.li	a7,0
    6ed2:	86b2                	c.mv	a3,a2
    6ed4:	d73e                	c.swsp	a5,172(sp)
    6ed6:	dece                	c.swsp	s3,124(sp)
    6ed8:	d92a                	c.swsp	a0,176(sp)
    6eda:	c4ba                	c.swsp	a4,72(sp)
    6edc:	0b212a23          	sw	s2,180(sp)
    6ee0:	01059913          	slli	s2,a1,0x10
    6ee4:	41095913          	srai	s2,s2,0x10
    6ee8:	1c0a8c63          	beqz	s5,70c0 <riscv_depthwise_conv_s8+0x378>
    6eec:	d882                	c.swsp	zero,112(sp)
    6eee:	01204563          	bgtz	s2,6ef8 <riscv_depthwise_conv_s8+0x1b0>
    6ef2:	412007b3          	neg	a5,s2
    6ef6:	d8be                	c.swsp	a5,112(sp)
    6ef8:	412a04b3          	sub	s1,s4,s2
    6efc:	009d87b3          	add	a5,s11,s1
    6f00:	f1a4877f          	minw	a4,s1,s10
    6f04:	17fd                	c.addi	a5,-1
    6f06:	4501                	c.li	a0,0
    6f08:	412d84b3          	sub	s1,s11,s2
    6f0c:	d13e                	c.swsp	a5,160(sp)
    6f0e:	c5c2                	c.swsp	a6,200(sp)
    6f10:	4981                	c.li	s3,0
    6f12:	887e                	c.mv	a6,t6
    6f14:	14fd                	c.addi	s1,-1
    6f16:	8faa                	c.mv	t6,a0
    6f18:	87b6                	c.mv	a5,a3
    6f1a:	cf3a                	c.swsp	a4,156(sp)
    6f1c:	dd76                	c.swsp	t4,184(sp)
    6f1e:	df72                	c.swsp	t3,188(sp)
    6f20:	c1c6                	c.swsp	a7,192(sp)
    6f22:	c39a                	c.swsp	t1,196(sp)
    6f24:	4726                	c.lwsp	a4,72(sp)
    6f26:	18070363          	beqz	a4,70ac <riscv_depthwise_conv_s8+0x364>
    6f2a:	4756                	c.lwsp	a4,84(sp)
    6f2c:	002f9513          	slli	a0,t6,0x2
    6f30:	00a70e33          	add	t3,a4,a0
    6f34:	4746                	c.lwsp	a4,80(sp)
    6f36:	86fe                	c.mv	a3,t6
    6f38:	953a                	c.add	a0,a4
    6f3a:	41ff0733          	sub	a4,t5,t6
    6f3e:	cd3a                	c.swsp	a4,152(sp)
    6f40:	4726                	c.lwsp	a4,72(sp)
    6f42:	8396                	c.mv	t2,t0
    6f44:	c7fa                	c.swsp	t5,204(sp)
    6f46:	9fba                	c.add	t6,a4
    6f48:	8ec2                	c.mv	t4,a6
    6f4a:	82ae                	c.mv	t0,a1
    6f4c:	00f00f33          	add	t5,zero,a5
    6f50:	478a                	c.lwsp	a5,128(sp)
    6f52:	4705                	c.li	a4,1
    6f54:	1ef77663          	bgeu	a4,a5,7140 <riscv_depthwise_conv_s8+0x3f8>
    6f58:	0a012783          	lw	a5,160(sp)
    6f5c:	03b4c733          	div	a4,s1,s11
    6f60:	03b7c633          	div	a2,a5,s11
    6f64:	f377077f          	maxw	a4,a4,s7
    6f68:	f1a6067f          	minw	a2,a2,s10
    6f6c:	479a                	c.lwsp	a5,132(sp)
    6f6e:	4585                	c.li	a1,1
    6f70:	1cf5f463          	bgeu	a1,a5,7138 <riscv_depthwise_conv_s8+0x3f0>
    6f74:	57aa                	c.lwsp	a5,168(sp)
    6f76:	55ba                	c.lwsp	a1,172(sp)
    6f78:	0397c7b3          	div	a5,a5,s9
    6f7c:	07412803          	lw	a6,116(sp)
    6f80:	0395c5b3          	div	a1,a1,s9
    6f84:	f37787ff          	maxw	a5,a5,s7
    6f88:	f10585ff          	minw	a1,a1,a6
    6f8c:	12012883          	lw	a7,288(sp)
    6f90:	4801                	c.li	a6,0
    6f92:	00088763          	beqz	a7,6fa0 <riscv_depthwise_conv_s8+0x258>
    6f96:	00269813          	slli	a6,a3,0x2
    6f9a:	9846                	c.add	a6,a7
    6f9c:	00082803          	lw	a6,0(a6) # 40000000 <_DATA_LMA_START+0x1fff4c20>
    6fa0:	08b7d863          	bge	a5,a1,7030 <riscv_depthwise_conv_s8+0x2e8>
    6fa4:	8362                	c.mv	t1,s8
    6fa6:	88ca                	c.mv	a7,s2
    6fa8:	c597937f          	maddr32	t1,a5,s9
    6fac:	c4ed98ff          	maddr32	a7,s11,a4
    6fb0:	4b36                	c.lwsp	s6,76(sp)
    6fb2:	c9e2                	c.swsp	s8,208(sp)
    6fb4:	c54318ff          	maddr32	a7,t1,s4
    6fb8:	833a                	c.mv	t1,a4
    6fba:	c5a7937f          	maddr32	t1,a5,s10
    6fbe:	cb46                	c.swsp	a7,148(sp)
    6fc0:	889a                	c.mv	a7,t1
    6fc2:	8336                	c.mv	t1,a3
    6fc4:	c568937f          	maddr32	t1,a7,s6
    6fc8:	48da                	c.lwsp	a7,148(sp)
    6fca:	8b4e                	c.mv	s6,s3
    6fcc:	cb56                	c.swsp	s5,148(sp)
    6fce:	c5589b7f          	maddr32	s6,a7,s5
    6fd2:	8c52                	c.mv	s8,s4
    6fd4:	88da                	c.mv	a7,s6
    6fd6:	5b26                	c.lwsp	s6,104(sp)
    6fd8:	8ace                	c.mv	s5,s3
    6fda:	935a                	c.add	t1,s6
    6fdc:	4b16                	c.lwsp	s6,68(sp)
    6fde:	cbca                	c.swsp	s2,212(sp)
    6fe0:	016888b3          	add	a7,a7,s6
    6fe4:	02c75a63          	bge	a4,a2,7018 <riscv_depthwise_conv_s8+0x2d0>
    6fe8:	8a1a                	c.mv	s4,t1
    6fea:	89c6                	c.mv	s3,a7
    6fec:	893a                	c.mv	s2,a4
    6fee:	cdbe                	c.swsp	a5,216(sp)
    6ff0:	0ce12e23          	sw	a4,220(sp)
    6ff4:	00098783          	lb	a5,0(s3)
    6ff8:	000a0b03          	lb	s6,0(s4)
    6ffc:	4776                	c.lwsp	a4,92(sp)
    6ffe:	0905                	c.addi	s2,1
    7000:	97ba                	c.add	a5,a4
    7002:	c567987f          	maddr32	a6,a5,s6
    7006:	47aa                	c.lwsp	a5,136(sp)
    7008:	99be                	c.add	s3,a5
    700a:	47b6                	c.lwsp	a5,76(sp)
    700c:	9a3e                	c.add	s4,a5
    700e:	fec913e3          	bne	s2,a2,6ff4 <riscv_depthwise_conv_s8+0x2ac>
    7012:	47ee                	c.lwsp	a5,216(sp)
    7014:	0dc12703          	lw	a4,220(sp)
    7018:	494a                	c.lwsp	s2,144(sp)
    701a:	0785                	c.addi	a5,1
    701c:	98ca                	c.add	a7,s2
    701e:	493a                	c.lwsp	s2,140(sp)
    7020:	934a                	c.add	t1,s2
    7022:	fcb791e3          	bne	a5,a1,6fe4 <riscv_depthwise_conv_s8+0x29c>
    7026:	89d6                	c.mv	s3,s5
    7028:	8a62                	c.mv	s4,s8
    702a:	495e                	c.lwsp	s2,212(sp)
    702c:	4ada                	c.lwsp	s5,148(sp)
    702e:	4c4e                	c.lwsp	s8,208(sp)
    7030:	410c                	c.lw	a1,0(a0)
    7032:	000e2883          	lw	a7,0(t3)
    7036:	f375867f          	maxw	a2,a1,s7
    703a:	00c81633          	sll	a2,a6,a2
    703e:	40000737          	lui	a4,0x40000
    7042:	4781                	c.li	a5,0
    7044:	8516177f          	smar64	a4,a2,a7
    7048:	40b00633          	neg	a2,a1
    704c:	f376067f          	maxw	a2,a2,s7
    7050:	4585                	c.li	a1,1
    7052:	00c595b3          	sll	a1,a1,a2
    7056:	dff7077f          	wexti	a4,a4,31
    705a:	fff58793          	addi	a5,a1,-1
    705e:	4017d593          	srai	a1,a5,0x1
    7062:	00072813          	slti	a6,a4,0
    7066:	8ff9                	c.and	a5,a4
    7068:	95c2                	c.add	a1,a6
    706a:	40c75733          	sra	a4,a4,a2
    706e:	00f5a7b3          	slt	a5,a1,a5
    7072:	973e                	c.add	a4,a5
    7074:	47e6                	c.lwsp	a5,88(sp)
    7076:	0e11                	c.addi	t3,4
    7078:	973e                	c.add	a4,a5
    707a:	47ea                	c.lwsp	a5,152(sp)
    707c:	0511                	c.addi	a0,4
    707e:	00d78633          	add	a2,a5,a3
    7082:	5786                	c.lwsp	a5,96(sp)
    7084:	0685                	c.addi	a3,1
    7086:	f2f707ff          	maxw	a5,a4,a5
    708a:	12812703          	lw	a4,296(sp)
    708e:	9732                	c.add	a4,a2
    7090:	5616                	c.lwsp	a2,100(sp)
    7092:	f0c787ff          	minw	a5,a5,a2
    7096:	00f70023          	sb	a5,0(a4) # 40000000 <_DATA_LMA_START+0x1fff4c20>
    709a:	eadf9be3          	bne	t6,a3,6f50 <riscv_depthwise_conv_s8+0x208>
    709e:	4726                	c.lwsp	a4,72(sp)
    70a0:	87fa                	c.mv	a5,t5
    70a2:	4f3e                	c.lwsp	t5,204(sp)
    70a4:	8596                	c.mv	a1,t0
    70a6:	8876                	c.mv	a6,t4
    70a8:	829e                	c.mv	t0,t2
    70aa:	9f3a                	c.add	t5,a4
    70ac:	0985                	c.addi	s3,1
    70ae:	e73a9be3          	bne	s5,s3,6f24 <riscv_depthwise_conv_s8+0x1dc>
    70b2:	8fc2                	c.mv	t6,a6
    70b4:	5eea                	c.lwsp	t4,184(sp)
    70b6:	5e7a                	c.lwsp	t3,188(sp)
    70b8:	488e                	c.lwsp	a7,192(sp)
    70ba:	431e                	c.lwsp	t1,196(sp)
    70bc:	482e                	c.lwsp	a6,200(sp)
    70be:	86be                	c.mv	a3,a5
    70c0:	95f6                	c.add	a1,t4
    70c2:	57f6                	c.lwsp	a5,124(sp)
    70c4:	05c2                	c.slli	a1,0x10
    70c6:	0885                	c.addi	a7,1
    70c8:	81c1                	c.srli	a1,0x10
    70ca:	e1179be3          	bne	a5,a7,6ee0 <riscv_depthwise_conv_s8+0x198>
    70ce:	554a                	c.lwsp	a0,176(sp)
    70d0:	4726                	c.lwsp	a4,72(sp)
    70d2:	595a                	c.lwsp	s2,180(sp)
    70d4:	89be                	c.mv	s3,a5
    70d6:	8636                	c.mv	a2,a3
    70d8:	00a286b3          	add	a3,t0,a0
    70dc:	57e6                	c.lwsp	a5,120(sp)
    70de:	01069293          	slli	t0,a3,0x10
    70e2:	0905                	c.addi	s2,1
    70e4:	0102d293          	srli	t0,t0,0x10
    70e8:	db2798e3          	bne	a5,s2,6e98 <riscv_depthwise_conv_s8+0x150>
    70ec:	83be                	c.mv	t2,a5
    70ee:	87d2                	c.mv	a5,s4
    70f0:	8a56                	c.mv	s4,s5
    70f2:	8abe                	c.mv	s5,a5
    70f4:	4796                	c.lwsp	a5,68(sp)
    70f6:	001e0693          	addi	a3,t3,1
    70fa:	97c2                	c.add	a5,a6
    70fc:	c2be                	c.swsp	a5,68(sp)
    70fe:	85b2                	c.mv	a1,a2
    7100:	4c36                	c.lwsp	s8,76(sp)
    7102:	8642                	c.mv	a2,a6
    7104:	d86690e3          	bne	a3,t1,6e84 <riscv_depthwise_conv_s8+0x13c>
    7108:	11c12083          	lw	ra,284(sp)
    710c:	11812403          	lw	s0,280(sp)
    7110:	11412483          	lw	s1,276(sp)
    7114:	11012903          	lw	s2,272(sp)
    7118:	10c12983          	lw	s3,268(sp)
    711c:	10812a03          	lw	s4,264(sp)
    7120:	10412a83          	lw	s5,260(sp)
    7124:	10012b03          	lw	s6,256(sp)
    7128:	5bfe                	c.lwsp	s7,252(sp)
    712a:	5c6e                	c.lwsp	s8,248(sp)
    712c:	5cde                	c.lwsp	s9,244(sp)
    712e:	5d4e                	c.lwsp	s10,240(sp)
    7130:	5dbe                	c.lwsp	s11,236(sp)
    7132:	4501                	c.li	a0,0
    7134:	6115                	c.addi16sp	sp,288
    7136:	8082                	c.jr	ra
    7138:	559a                	c.lwsp	a1,164(sp)
    713a:	57b6                	c.lwsp	a5,108(sp)
    713c:	e51ff06f          	j	6f8c <riscv_depthwise_conv_s8+0x244>
    7140:	467a                	c.lwsp	a2,156(sp)
    7142:	5746                	c.lwsp	a4,112(sp)
    7144:	e29ff06f          	j	6f6c <riscv_depthwise_conv_s8+0x224>
    7148:	026f0063          	beq	t5,t1,7168 <riscv_depthwise_conv_s8+0x420>
    714c:	01091813          	slli	a6,s2,0x10
    7150:	0e42                	c.slli	t3,0x10
    7152:	0ec2                	c.slli	t4,0x10
    7154:	010f9513          	slli	a0,t6,0x10
    7158:	01085813          	srli	a6,a6,0x10
    715c:	010e5e13          	srli	t3,t3,0x10
    7160:	010ede93          	srli	t4,t4,0x10
    7164:	8141                	c.srli	a0,0x10
    7166:	b16d                	c.j	6e10 <riscv_depthwise_conv_s8+0xc8>
    7168:	ffe412e3          	bne	s0,t5,714c <riscv_depthwise_conv_s8+0x404>
    716c:	5416                	c.lwsp	s0,100(sp)
    716e:	00caa783          	lw	a5,12(s5)
    7172:	dc22                	c.swsp	s0,56(sp)
    7174:	5406                	c.lwsp	s0,96(sp)
    7176:	4516                	c.lwsp	a0,68(sp)
    7178:	da22                	c.swsp	s0,52(sp)
    717a:	4476                	c.lwsp	s0,92(sp)
    717c:	8742                	c.mv	a4,a6
    717e:	d822                	c.swsp	s0,48(sp)
    7180:	4466                	c.lwsp	s0,88(sp)
    7182:	8826                	c.mv	a6,s1
    7184:	d622                	c.swsp	s0,44(sp)
    7186:	4456                	c.lwsp	s0,84(sp)
    7188:	d41e                	c.swsp	t2,40(sp)
    718a:	d022                	c.swsp	s0,32(sp)
    718c:	4446                	c.lwsp	s0,80(sp)
    718e:	d216                	c.swsp	t0,36(sp)
    7190:	ce22                	c.swsp	s0,28(sp)
    7192:	12812403          	lw	s0,296(sp)
    7196:	c87e                	c.swsp	t6,16(sp)
    7198:	cc22                	c.swsp	s0,24(sp)
    719a:	12012403          	lw	s0,288(sp)
    719e:	c676                	c.swsp	t4,12(sp)
    71a0:	ca22                	c.swsp	s0,20(sp)
    71a2:	c472                	c.swsp	t3,8(sp)
    71a4:	c24a                	c.swsp	s2,4(sp)
    71a6:	c052                	c.swsp	s4,0(sp)
    71a8:	fe0ff0ef          	jal	ra,6988 <depthwise_conv_s8_mult_4>
    71ac:	bfb1                	c.j	7108 <riscv_depthwise_conv_s8+0x3c0>
	...

000071b0 <riscv_depthwise_conv_s8_opt>:
    71b0:	712d                	c.addi16sp	sp,-288
    71b2:	11412423          	sw	s4,264(sp)
    71b6:	12412a03          	lw	s4,292(sp)
    71ba:	10812c23          	sw	s0,280(sp)
    71be:	d9ea                	c.swsp	s10,240(sp)
    71c0:	00ca2403          	lw	s0,12(s4)
    71c4:	00c6ad03          	lw	s10,12(a3)
    71c8:	10112e23          	sw	ra,284(sp)
    71cc:	10912a23          	sw	s1,276(sp)
    71d0:	11212823          	sw	s2,272(sp)
    71d4:	11312623          	sw	s3,268(sp)
    71d8:	11512223          	sw	s5,260(sp)
    71dc:	11612023          	sw	s6,256(sp)
    71e0:	dfde                	c.swsp	s7,252(sp)
    71e2:	dde2                	c.swsp	s8,248(sp)
    71e4:	dbe6                	c.swsp	s9,244(sp)
    71e6:	d7ee                	c.swsp	s11,236(sp)
    71e8:	12812383          	lw	t2,296(sp)
    71ec:	6a8d1063          	bne	s10,s0,788c <riscv_depthwise_conv_s8_opt+0x6dc>
    71f0:	8abe                	c.mv	s5,a5
    71f2:	411c                	c.lw	a5,0(a0)
    71f4:	c0c2                	c.swsp	a6,64(sp)
    71f6:	d13a                	c.swsp	a4,160(sp)
    71f8:	c63e                	c.swsp	a5,12(sp)
    71fa:	84b2                	c.mv	s1,a2
    71fc:	8e2e                	c.mv	t3,a1
    71fe:	8b2a                	c.mv	s6,a0
    7200:	00d00bb3          	add	s7,zero,a3
    7204:	66078263          	beqz	a5,7868 <riscv_depthwise_conv_s8_opt+0x6b8>
    7208:	008aa783          	lw	a5,8(s5)
    720c:	008a2703          	lw	a4,8(s4)
    7210:	da3e                	c.swsp	a5,52(sp)
    7212:	004aa783          	lw	a5,4(s5)
    7216:	004a2683          	lw	a3,4(s4)
    721a:	d8be                	c.swsp	a5,112(sp)
    721c:	daba                	c.swsp	a4,116(sp)
    721e:	018e2583          	lw	a1,24(t3)
    7222:	010e2783          	lw	a5,16(t3)
    7226:	5cd05d63          	blez	a3,7800 <riscv_depthwise_conv_s8_opt+0x650>
    722a:	5ed2                	c.lwsp	t4,52(sp)
    722c:	5746                	c.lwsp	a4,112(sp)
    722e:	41f45513          	srai	a0,s0,0x1f
    7232:	03d70733          	mul	a4,a4,t4
    7236:	890d                	c.andi	a0,3
    7238:	001d1d93          	slli	s11,s10,0x1
    723c:	01f75813          	srli	a6,a4,0x1f
    7240:	983a                	c.add	a6,a4
    7242:	40185813          	srai	a6,a6,0x1
    7246:	01081313          	slli	t1,a6,0x10
    724a:	9522                	c.add	a0,s0
    724c:	004d8813          	addi	a6,s11,4
    7250:	8509                	c.srai	a0,0x2
    7252:	dd42                	c.swsp	a6,184(sp)
    7254:	01071813          	slli	a6,a4,0x10
    7258:	01085813          	srli	a6,a6,0x10
    725c:	8b05                	c.andi	a4,1
    725e:	0542                	c.slli	a0,0x10
    7260:	8141                	c.srli	a0,0x10
    7262:	01035313          	srli	t1,t1,0x10
    7266:	002d1f13          	slli	t5,s10,0x2
    726a:	d342                	c.swsp	a6,164(sp)
    726c:	c4ba                	c.swsp	a4,72(sp)
    726e:	01079813          	slli	a6,a5,0x10
    7272:	00347713          	andi	a4,s0,3
    7276:	57d6                	c.lwsp	a5,116(sp)
    7278:	01059893          	slli	a7,a1,0x10
    727c:	c12a                	c.swsp	a0,128(sp)
    727e:	c29a                	c.swsp	t1,68(sp)
    7280:	df7a                	c.swsp	t5,188(sp)
    7282:	d4ba                	c.swsp	a4,104(sp)
    7284:	03ae8633          	mul	a2,t4,s10
    7288:	01085813          	srli	a6,a6,0x10
    728c:	0108d893          	srli	a7,a7,0x10
    7290:	56f05863          	blez	a5,7800 <riscv_depthwise_conv_s8_opt+0x650>
    7294:	fff30793          	addi	a5,t1,-1
    7298:	07c2                	c.slli	a5,0x10
    729a:	fff50593          	addi	a1,a0,-1
    729e:	83c1                	c.srli	a5,0x10
    72a0:	00178713          	addi	a4,a5,1 # 10001 <_RAMCODE_VMA_END+0x4d71>
    72a4:	008baf83          	lw	t6,8(s7)
    72a8:	01059793          	slli	a5,a1,0x10
    72ac:	83c1                	c.srli	a5,0x10
    72ae:	00178593          	addi	a1,a5,1
    72b2:	03fd07b3          	mul	a5,s10,t6
    72b6:	842a                	c.mv	s0,a0
    72b8:	fffe8513          	addi	a0,t4,-1
    72bc:	c6be                	c.swsp	a5,76(sp)
    72be:	03a507b3          	mul	a5,a0,s10
    72c2:	00241513          	slli	a0,s0,0x2
    72c6:	0044ae83          	lw	t4,4(s1)
    72ca:	c8be                	c.swsp	a5,80(sp)
    72cc:	02ed87b3          	mul	a5,s11,a4
    72d0:	4084                	c.lw	s1,0(s1)
    72d2:	014e2303          	lw	t1,20(t3)
    72d6:	ccbe                	c.swsp	a5,88(sp)
    72d8:	02ef07b3          	mul	a5,t5,a4
    72dc:	004e2403          	lw	s0,4(t3)
    72e0:	00459713          	slli	a4,a1,0x4
    72e4:	cabe                	c.swsp	a5,84(sp)
    72e6:	00ce5783          	lhu	a5,12(t3)
    72ea:	40600333          	neg	t1,t1
    72ee:	028e2b03          	lw	s6,40(t3)
    72f2:	c53e                	c.swsp	a5,136(sp)
    72f4:	000e1783          	lh	a5,0(t3)
    72f8:	dea6                	c.swsp	s1,124(sp)
    72fa:	de22                	c.swsp	s0,60(sp)
    72fc:	c83e                	c.swsp	a5,16(sp)
    72fe:	411007b3          	neg	a5,a7
    7302:	004ba883          	lw	a7,4(s7)
    7306:	01079b93          	slli	s7,a5,0x10
    730a:	00259793          	slli	a5,a1,0x2
    730e:	c93e                	c.swsp	a5,144(sp)
    7310:	01051793          	slli	a5,a0,0x10
    7314:	83c1                	c.srli	a5,0x10
    7316:	cf3e                	c.swsp	a5,156(sp)
    7318:	00e487b3          	add	a5,s1,a4
    731c:	010bdb93          	srli	s7,s7,0x10
    7320:	024e2403          	lw	s0,36(t3)
    7324:	01031493          	slli	s1,t1,0x10
    7328:	cd3e                	c.swsp	a5,152(sp)
    732a:	00ee87b3          	add	a5,t4,a4
    732e:	4701                	c.li	a4,0
    7330:	80c1                	c.srli	s1,0x10
    7332:	8a5e                	c.mv	s4,s7
    7334:	c3b6                	c.swsp	a3,196(sp)
    7336:	85b2                	c.mv	a1,a2
    7338:	86ba                	c.mv	a3,a4
    733a:	8b9e                	c.mv	s7,t2
    733c:	c77e                	c.swsp	t6,140(sp)
    733e:	dcf6                	c.swsp	t4,120(sp)
    7340:	d6a2                	c.swsp	s0,108(sp)
    7342:	cb3e                	c.swsp	a5,148(sp)
    7344:	c1c6                	c.swsp	a7,192(sp)
    7346:	c5da                	c.swsp	s6,200(sp)
    7348:	0c912623          	sw	s1,204(sp)
    734c:	010a1793          	slli	a5,s4,0x10
    7350:	470e                	c.lwsp	a4,192(sp)
    7352:	5646                	c.lwsp	a2,112(sp)
    7354:	87c1                	c.srai	a5,0x10
    7356:	8f1d                	c.sub	a4,a5
    7358:	c33a                	c.swsp	a4,132(sp)
    735a:	f0e6077f          	minw	a4,a2,a4
    735e:	d2be                	c.swsp	a5,100(sp)
    7360:	dc3a                	c.swsp	a4,56(sp)
    7362:	40f007b3          	neg	a5,a5
    7366:	40e60733          	sub	a4,a2,a4
    736a:	02b70733          	mul	a4,a4,a1
    736e:	02b78633          	mul	a2,a5,a1
    7372:	db3e                	c.swsp	a5,180(sp)
    7374:	cdd2                	c.swsp	s4,216(sp)
    7376:	47be                	c.lwsp	a5,204(sp)
    7378:	54ea                	c.lwsp	s1,184(sp)
    737a:	4b2e                	c.lwsp	s6,200(sp)
    737c:	5a7a                	c.lwsp	s4,188(sp)
    737e:	0706                	c.slli	a4,0x1
    7380:	d532                	c.swsp	a2,168(sp)
    7382:	4401                	c.li	s0,0
    7384:	0606                	c.slli	a2,0x1
    7386:	d732                	c.swsp	a2,172(sp)
    7388:	d93a                	c.swsp	a4,176(sp)
    738a:	d082                	c.swsp	zero,96(sp)
    738c:	c9b6                	c.swsp	a3,208(sp)
    738e:	cbae                	c.swsp	a1,212(sp)
    7390:	cebe                	c.swsp	a5,92(sp)
    7392:	cfc2                	c.swsp	a6,220(sp)
    7394:	cc4a                	c.swsp	s2,24(sp)
    7396:	ce4e                	c.swsp	s3,28(sp)
    7398:	5696                	c.lwsp	a3,100(sp)
    739a:	05c11803          	lh	a6,92(sp)
    739e:	4701                	c.li	a4,0
    73a0:	4781                	c.li	a5,0
    73a2:	0206d163          	bgez	a3,73c4 <riscv_depthwise_conv_s8_opt+0x214>
    73a6:	575a                	c.lwsp	a4,180(sp)
    73a8:	57aa                	c.lwsp	a5,168(sp)
    73aa:	563a                	c.lwsp	a2,172(sp)
    73ac:	4532                	c.lwsp	a0,12(sp)
    73ae:	4581                	c.li	a1,0
    73b0:	d242                	c.swsp	a6,36(sp)
    73b2:	d03a                	c.swsp	a4,32(sp)
    73b4:	00f12a23          	sw	a5,20(sp)
    73b8:	72e020ef          	jal	ra,9ae6 <memset>
    73bc:	5812                	c.lwsp	a6,36(sp)
    73be:	5702                	c.lwsp	a4,32(sp)
    73c0:	01412783          	lw	a5,20(sp)
    73c4:	56e2                	c.lwsp	a3,56(sp)
    73c6:	0ad75363          	bge	a4,a3,746c <riscv_depthwise_conv_s8_opt+0x2bc>
    73ca:	5696                	c.lwsp	a3,100(sp)
    73cc:	85c2                	c.mv	a1,a6
    73ce:	00e68633          	add	a2,a3,a4
    73d2:	46ba                	c.lwsp	a3,140(sp)
    73d4:	d026                	c.swsp	s1,32(sp)
    73d6:	d252                	c.swsp	s4,36(sp)
    73d8:	c4d615ff          	maddr32	a1,a2,a3
    73dc:	5652                	c.lwsp	a2,52(sp)
    73de:	d85a                	c.swsp	s6,48(sp)
    73e0:	01060ab3          	add	s5,a2,a6
    73e4:	560a                	c.lwsp	a2,160(sp)
    73e6:	84b6                	c.mv	s1,a3
    73e8:	8a3a                	c.mv	s4,a4
    73ea:	c5a5967f          	maddr32	a2,a1,s10
    73ee:	ca42                	c.swsp	a6,20(sp)
    73f0:	8b32                	c.mv	s6,a2
    73f2:	13712423          	sw	s7,296(sp)
    73f6:	d462                	c.swsp	s8,40(sp)
    73f8:	03912623          	sw	s9,44(sp)
    73fc:	5752                	c.lwsp	a4,52(sp)
    73fe:	04e05963          	blez	a4,7450 <riscv_depthwise_conv_s8_opt+0x2a0>
    7402:	4732                	c.lwsp	a4,12(sp)
    7404:	00179893          	slli	a7,a5,0x1
    7408:	4bd2                	c.lwsp	s7,20(sp)
    740a:	011709b3          	add	s3,a4,a7
    740e:	8cda                	c.mv	s9,s6
    7410:	893e                	c.mv	s2,a5
    7412:	a809                	c.j	7424 <riscv_depthwise_conv_s8_opt+0x274>
    7414:	0b85                	c.addi	s7,1
    7416:	99ee                	c.add	s3,s11
    7418:	01ac8cb3          	add	s9,s9,s10
    741c:	6ca020ef          	jal	ra,9ae6 <memset>
    7420:	037a8463          	beq	s5,s7,7448 <riscv_depthwise_conv_s8_opt+0x298>
    7424:	866e                	c.mv	a2,s11
    7426:	4581                	c.li	a1,0
    7428:	854e                	c.mv	a0,s3
    742a:	fe0bc5e3          	bltz	s7,7414 <riscv_depthwise_conv_s8_opt+0x264>
    742e:	fe9bd3e3          	bge	s7,s1,7414 <riscv_depthwise_conv_s8_opt+0x264>
    7432:	46c2                	c.lwsp	a3,16(sp)
    7434:	85ce                	c.mv	a1,s3
    7436:	8566                	c.mv	a0,s9
    7438:	866a                	c.mv	a2,s10
    743a:	0b85                	c.addi	s7,1
    743c:	99ee                	c.add	s3,s11
    743e:	9cea                	c.add	s9,s10
    7440:	524020ef          	jal	ra,9964 <riscv_q7_to_q15_with_offset>
    7444:	ff7a90e3          	bne	s5,s7,7424 <riscv_depthwise_conv_s8_opt+0x274>
    7448:	4746                	c.lwsp	a4,80(sp)
    744a:	012d07b3          	add	a5,s10,s2
    744e:	97ba                	c.add	a5,a4
    7450:	4736                	c.lwsp	a4,76(sp)
    7452:	0a05                	c.addi	s4,1
    7454:	9b3a                	c.add	s6,a4
    7456:	5762                	c.lwsp	a4,56(sp)
    7458:	faea12e3          	bne	s4,a4,73fc <riscv_depthwise_conv_s8_opt+0x24c>
    745c:	5482                	c.lwsp	s1,32(sp)
    745e:	5a12                	c.lwsp	s4,36(sp)
    7460:	5b42                	c.lwsp	s6,48(sp)
    7462:	12812b83          	lw	s7,296(sp)
    7466:	5c22                	c.lwsp	s8,40(sp)
    7468:	02c12c83          	lw	s9,44(sp)
    746c:	5746                	c.lwsp	a4,112(sp)
    746e:	469a                	c.lwsp	a3,132(sp)
    7470:	3ce6c863          	blt	a3,a4,7840 <riscv_depthwise_conv_s8_opt+0x690>
    7474:	08012783          	lw	a5,128(sp)
    7478:	3e078063          	beqz	a5,7858 <riscv_depthwise_conv_s8_opt+0x6a8>
    747c:	47ca                	c.lwsp	a5,144(sp)
    747e:	5f76                	c.lwsp	t5,124(sp)
    7480:	5ee6                	c.lwsp	t4,120(sp)
    7482:	12012883          	lw	a7,288(sp)
    7486:	5536                	c.lwsp	a0,108(sp)
    7488:	4962                	c.lwsp	s2,24(sp)
    748a:	49f2                	c.lwsp	s3,28(sp)
    748c:	97de                	c.add	a5,s7
    748e:	4581                	c.li	a1,0
    7490:	02f12423          	sw	a5,40(sp)
    7494:	3a088063          	beqz	a7,7834 <riscv_depthwise_conv_s8_opt+0x684>
    7498:	0008a383          	lw	t2,0(a7) # 10000 <_RAMCODE_VMA_END+0x4d70>
    749c:	0048a283          	lw	t0,4(a7)
    74a0:	0088af83          	lw	t6,8(a7)
    74a4:	00c8ae03          	lw	t3,12(a7)
    74a8:	01088893          	addi	a7,a7,16
    74ac:	4706                	c.lwsp	a4,64(sp)
    74ae:	00458793          	addi	a5,a1,4
    74b2:	00b70ab3          	add	s5,a4,a1
    74b6:	4616                	c.lwsp	a2,68(sp)
    74b8:	4732                	c.lwsp	a4,12(sp)
    74ba:	00159313          	slli	t1,a1,0x1
    74be:	01079593          	slli	a1,a5,0x10
    74c2:	933a                	c.add	t1,a4
    74c4:	81c1                	c.srli	a1,0x10
    74c6:	c24d                	c.beqz	a2,7568 <riscv_depthwise_conv_s8_opt+0x3b8>
    74c8:	8856                	c.mv	a6,s5
    74ca:	869a                	c.mv	a3,t1
    74cc:	ca76                	c.swsp	t4,20(sp)
    74ce:	cc2e                	c.swsp	a1,24(sp)
    74d0:	d046                	c.swsp	a7,32(sp)
    74d2:	d22a                	c.swsp	a0,36(sp)
    74d4:	02612823          	sw	t1,48(sp)
    74d8:	00082583          	lw	a1,0(a6)
    74dc:	01a80733          	add	a4,a6,s10
    74e0:	4318                	c.lw	a4,0(a4)
    74e2:	0006a303          	lw	t1,0(a3)
    74e6:	00dd87b3          	add	a5,s11,a3
    74ea:	439c                	c.lw	a5,0(a5)
    74ec:	ac9588ff          	sunpkd820	a7,a1
    74f0:	8c2e                	c.mv	s8,a1
    74f2:	8cae                	c.mv	s9,a1
    74f4:	de8c05ff          	wexti	a1,s8,8
    74f8:	ac9585ff          	sunpkd820	a1,a1
    74fc:	ac970eff          	sunpkd820	t4,a4
    7500:	893a                	c.mv	s2,a4
    7502:	89ba                	c.mv	s3,a4
    7504:	de89077f          	wexti	a4,s2,8
    7508:	ac97077f          	sunpkd820	a4,a4
    750c:	0ef3157f          	pkbb16	a0,t1,a5
    7510:	2e6797ff          	pktt16	a5,a5,t1
    7514:	0fd8937f          	pkbb16	t1,a7,t4
    7518:	486513ff          	kmada	t2,a0,t1
    751c:	0eb7157f          	pkbb16	a0,a4,a1
    7520:	48a792ff          	kmada	t0,a5,a0
    7524:	00468793          	addi	a5,a3,4
    7528:	0007a303          	lw	t1,0(a5)
    752c:	00d487b3          	add	a5,s1,a3
    7530:	439c                	c.lw	a5,0(a5)
    7532:	0ef3157f          	pkbb16	a0,t1,a5
    7536:	2e6797ff          	pktt16	a5,a5,t1
    753a:	2fd898ff          	pktt16	a7,a7,t4
    753e:	49151fff          	kmada	t6,a0,a7
    7542:	2eb7177f          	pktt16	a4,a4,a1
    7546:	48e79e7f          	kmada	t3,a5,a4
    754a:	167d                	c.addi	a2,-1
    754c:	0642                	c.slli	a2,0x10
    754e:	8241                	c.srli	a2,0x10
    7550:	986e                	c.add	a6,s11
    7552:	96d2                	c.add	a3,s4
    7554:	f251                	c.bnez	a2,74d8 <riscv_depthwise_conv_s8_opt+0x328>
    7556:	47e6                	c.lwsp	a5,88(sp)
    7558:	5342                	c.lwsp	t1,48(sp)
    755a:	9abe                	c.add	s5,a5
    755c:	47d6                	c.lwsp	a5,84(sp)
    755e:	4ed2                	c.lwsp	t4,20(sp)
    7560:	45e2                	c.lwsp	a1,24(sp)
    7562:	5882                	c.lwsp	a7,32(sp)
    7564:	5512                	c.lwsp	a0,36(sp)
    7566:	933e                	c.add	t1,a5
    7568:	47a6                	c.lwsp	a5,72(sp)
    756a:	cf8d                	c.beqz	a5,75a4 <riscv_depthwise_conv_s8_opt+0x3f4>
    756c:	002a8703          	lb	a4,2(s5)
    7570:	000a8783          	lb	a5,0(s5)
    7574:	00031803          	lh	a6,0(t1)
    7578:	ca3a                	c.swsp	a4,20(sp)
    757a:	00431703          	lh	a4,4(t1)
    757e:	001a8603          	lb	a2,1(s5)
    7582:	00231683          	lh	a3,2(t1)
    7586:	003a8a83          	lb	s5,3(s5)
    758a:	00631303          	lh	t1,6(t1)
    758e:	c50793ff          	maddr32	t2,a5,a6
    7592:	87ba                	c.mv	a5,a4
    7594:	01412703          	lw	a4,20(sp)
    7598:	c4d612ff          	maddr32	t0,a2,a3
    759c:	c46a9e7f          	maddr32	t3,s5,t1
    75a0:	c4f71fff          	maddr32	t6,a4,a5
    75a4:	000ea683          	lw	a3,0(t4)
    75a8:	000f2803          	lw	a6,0(t5) # 40000000 <_DATA_LMA_START+0x1fff4c20>
    75ac:	f286867f          	maxw	a2,a3,s0
    75b0:	00c39633          	sll	a2,t2,a2
    75b4:	40000737          	lui	a4,0x40000
    75b8:	4781                	c.li	a5,0
    75ba:	8506177f          	smar64	a4,a2,a6
    75be:	40d006b3          	neg	a3,a3
    75c2:	4305                	c.li	t1,1
    75c4:	f28686ff          	maxw	a3,a3,s0
    75c8:	00d31633          	sll	a2,t1,a3
    75cc:	dff7077f          	wexti	a4,a4,31
    75d0:	fff60793          	addi	a5,a2,-1 # 3fffffff <_DATA_LMA_START+0x1fff4c1f>
    75d4:	00072813          	slti	a6,a4,0
    75d8:	4017d613          	srai	a2,a5,0x1
    75dc:	9642                	c.add	a2,a6
    75de:	8ff9                	c.and	a5,a4
    75e0:	53f2                	c.lwsp	t2,60(sp)
    75e2:	00f627b3          	slt	a5,a2,a5
    75e6:	40d75733          	sra	a4,a4,a3
    75ea:	973e                	c.add	a4,a5
    75ec:	971e                	c.add	a4,t2
    75ee:	f2e5077f          	maxw	a4,a0,a4
    75f2:	f0eb077f          	minw	a4,s6,a4
    75f6:	00eb8023          	sb	a4,0(s7)
    75fa:	004ea683          	lw	a3,4(t4)
    75fe:	004f2803          	lw	a6,4(t5)
    7602:	f286867f          	maxw	a2,a3,s0
    7606:	00c29633          	sll	a2,t0,a2
    760a:	40000737          	lui	a4,0x40000
    760e:	4781                	c.li	a5,0
    7610:	8506177f          	smar64	a4,a2,a6
    7614:	40d006b3          	neg	a3,a3
    7618:	f28686ff          	maxw	a3,a3,s0
    761c:	00d31633          	sll	a2,t1,a3
    7620:	dff7077f          	wexti	a4,a4,31
    7624:	fff60793          	addi	a5,a2,-1
    7628:	00072813          	slti	a6,a4,0
    762c:	4017d613          	srai	a2,a5,0x1
    7630:	9642                	c.add	a2,a6
    7632:	8ff9                	c.and	a5,a4
    7634:	00f627b3          	slt	a5,a2,a5
    7638:	40d75733          	sra	a4,a4,a3
    763c:	973e                	c.add	a4,a5
    763e:	971e                	c.add	a4,t2
    7640:	f2e5077f          	maxw	a4,a0,a4
    7644:	f0eb077f          	minw	a4,s6,a4
    7648:	00eb80a3          	sb	a4,1(s7)
    764c:	008ea683          	lw	a3,8(t4)
    7650:	008f2803          	lw	a6,8(t5)
    7654:	f286867f          	maxw	a2,a3,s0
    7658:	00cf9633          	sll	a2,t6,a2
    765c:	40000737          	lui	a4,0x40000
    7660:	4781                	c.li	a5,0
    7662:	8506177f          	smar64	a4,a2,a6
    7666:	40d006b3          	neg	a3,a3
    766a:	f28686ff          	maxw	a3,a3,s0
    766e:	00d31633          	sll	a2,t1,a3
    7672:	dff7077f          	wexti	a4,a4,31
    7676:	fff60793          	addi	a5,a2,-1
    767a:	00072813          	slti	a6,a4,0
    767e:	4017d613          	srai	a2,a5,0x1
    7682:	9642                	c.add	a2,a6
    7684:	8ff9                	c.and	a5,a4
    7686:	00f627b3          	slt	a5,a2,a5
    768a:	40d75733          	sra	a4,a4,a3
    768e:	973e                	c.add	a4,a5
    7690:	971e                	c.add	a4,t2
    7692:	f2e5077f          	maxw	a4,a0,a4
    7696:	f0eb077f          	minw	a4,s6,a4
    769a:	0ec1                	c.addi	t4,16
    769c:	00eb8123          	sb	a4,2(s7)
    76a0:	ffcea683          	lw	a3,-4(t4)
    76a4:	00cf2803          	lw	a6,12(t5)
    76a8:	f286867f          	maxw	a2,a3,s0
    76ac:	00ce1633          	sll	a2,t3,a2
    76b0:	40000737          	lui	a4,0x40000
    76b4:	4781                	c.li	a5,0
    76b6:	8506177f          	smar64	a4,a2,a6
    76ba:	40d006b3          	neg	a3,a3
    76be:	f28686ff          	maxw	a3,a3,s0
    76c2:	00d31633          	sll	a2,t1,a3
    76c6:	dff7077f          	wexti	a4,a4,31
    76ca:	fff60793          	addi	a5,a2,-1
    76ce:	4017d613          	srai	a2,a5,0x1
    76d2:	00072813          	slti	a6,a4,0
    76d6:	8ff9                	c.and	a5,a4
    76d8:	9642                	c.add	a2,a6
    76da:	00f627b3          	slt	a5,a2,a5
    76de:	40d75733          	sra	a4,a4,a3
    76e2:	973e                	c.add	a4,a5
    76e4:	971e                	c.add	a4,t2
    76e6:	f2e5077f          	maxw	a4,a0,a4
    76ea:	0b91                	c.addi	s7,4
    76ec:	f0eb077f          	minw	a4,s6,a4
    76f0:	57a2                	c.lwsp	a5,40(sp)
    76f2:	feeb8fa3          	sb	a4,-1(s7)
    76f6:	0f41                	c.addi	t5,16
    76f8:	d8fb9ee3          	bne	s7,a5,7494 <riscv_depthwise_conv_s8_opt+0x2e4>
    76fc:	457a                	c.lwsp	a0,156(sp)
    76fe:	436a                	c.lwsp	t1,152(sp)
    7700:	485a                	c.lwsp	a6,148(sp)
    7702:	8e3e                	c.mv	t3,a5
    7704:	cc4a                	c.swsp	s2,24(sp)
    7706:	ce4e                	c.swsp	s3,28(sp)
    7708:	57a6                	c.lwsp	a5,104(sp)
    770a:	8bf2                	c.mv	s7,t3
    770c:	cfd5                	c.beqz	a5,77c8 <riscv_depthwise_conv_s8_opt+0x618>
    770e:	00f50eb3          	add	t4,a0,a5
    7712:	0ec2                	c.slli	t4,0x10
    7714:	43b2                	c.lwsp	t2,12(sp)
    7716:	569a                	c.lwsp	a3,164(sp)
    7718:	55f2                	c.lwsp	a1,60(sp)
    771a:	52b6                	c.lwsp	t0,108(sp)
    771c:	4a86                	c.lwsp	s5,64(sp)
    771e:	010ede93          	srli	t4,t4,0x10
    7722:	4f05                	c.li	t5,1
    7724:	87aa                	c.mv	a5,a0
    7726:	4b81                	c.li	s7,0
    7728:	00088663          	beqz	a7,7734 <riscv_depthwise_conv_s8_opt+0x584>
    772c:	0008ab83          	lw	s7,0(a7)
    7730:	00488893          	addi	a7,a7,4
    7734:	0505                	c.addi	a0,1
    7736:	0542                	c.slli	a0,0x10
    7738:	8141                	c.srli	a0,0x10
    773a:	c29d                	c.beqz	a3,7760 <riscv_depthwise_conv_s8_opt+0x5b0>
    773c:	00179713          	slli	a4,a5,0x1
    7740:	971e                	c.add	a4,t2
    7742:	97d6                	c.add	a5,s5
    7744:	00000613          	li	a2,0
    7748:	00078983          	lb	s3,0(a5)
    774c:	00071903          	lh	s2,0(a4) # 40000000 <_DATA_LMA_START+0x1fff4c20>
    7750:	0605                	c.addi	a2,1
    7752:	97ea                	c.add	a5,s10
    7754:	c5299bff          	maddr32	s7,s3,s2
    7758:	01b70733          	add	a4,a4,s11
    775c:	fec696e3          	bne	a3,a2,7748 <riscv_depthwise_conv_s8_opt+0x598>
    7760:	00082603          	lw	a2,0(a6)
    7764:	00032903          	lw	s2,0(t1)
    7768:	f28607ff          	maxw	a5,a2,s0
    776c:	00fb9bb3          	sll	s7,s7,a5
    7770:	40000737          	lui	a4,0x40000
    7774:	4781                	c.li	a5,0
    7776:	852b977f          	smar64	a4,s7,s2
    777a:	40c00633          	neg	a2,a2
    777e:	f286067f          	maxw	a2,a2,s0
    7782:	00cf1bb3          	sll	s7,t5,a2
    7786:	dff7077f          	wexti	a4,a4,31
    778a:	fffb8793          	addi	a5,s7,-1
    778e:	4017db93          	srai	s7,a5,0x1
    7792:	00072993          	slti	s3,a4,0
    7796:	8ff9                	c.and	a5,a4
    7798:	9bce                	c.add	s7,s3
    779a:	00fba7b3          	slt	a5,s7,a5
    779e:	40c75733          	sra	a4,a4,a2
    77a2:	973e                	c.add	a4,a5
    77a4:	00e587b3          	add	a5,a1,a4
    77a8:	f2f287ff          	maxw	a5,t0,a5
    77ac:	0e05                	c.addi	t3,1
    77ae:	f0fb07ff          	minw	a5,s6,a5
    77b2:	fefe0fa3          	sb	a5,-1(t3)
    77b6:	0311                	c.addi	t1,4
    77b8:	0811                	c.addi	a6,4
    77ba:	f7d515e3          	bne	a0,t4,7724 <riscv_depthwise_conv_s8_opt+0x574>
    77be:	57a2                	c.lwsp	a5,40(sp)
    77c0:	06812703          	lw	a4,104(sp)
    77c4:	00e78bb3          	add	s7,a5,a4
    77c8:	47f6                	c.lwsp	a5,92(sp)
    77ca:	472a                	c.lwsp	a4,136(sp)
    77cc:	97ba                	c.add	a5,a4
    77ce:	07c2                	c.slli	a5,0x10
    77d0:	5706                	c.lwsp	a4,96(sp)
    77d2:	83c1                	c.srli	a5,0x10
    77d4:	0705                	c.addi	a4,1
    77d6:	cebe                	c.swsp	a5,92(sp)
    77d8:	57d6                	c.lwsp	a5,116(sp)
    77da:	d0ba                	c.swsp	a4,96(sp)
    77dc:	bae79ee3          	bne	a5,a4,7398 <riscv_depthwise_conv_s8_opt+0x1e8>
    77e0:	4a6e                	c.lwsp	s4,216(sp)
    77e2:	487e                	c.lwsp	a6,220(sp)
    77e4:	46ce                	c.lwsp	a3,208(sp)
    77e6:	010a07b3          	add	a5,s4,a6
    77ea:	01079a13          	slli	s4,a5,0x10
    77ee:	479e                	c.lwsp	a5,196(sp)
    77f0:	0685                	c.addi	a3,1
    77f2:	45de                	c.lwsp	a1,212(sp)
    77f4:	4962                	c.lwsp	s2,24(sp)
    77f6:	49f2                	c.lwsp	s3,28(sp)
    77f8:	010a5a13          	srli	s4,s4,0x10
    77fc:	b4d798e3          	bne	a5,a3,734c <riscv_depthwise_conv_s8_opt+0x19c>
    7800:	00000513          	li	a0,0
    7804:	11c12083          	lw	ra,284(sp)
    7808:	11812403          	lw	s0,280(sp)
    780c:	11412483          	lw	s1,276(sp)
    7810:	11012903          	lw	s2,272(sp)
    7814:	10c12983          	lw	s3,268(sp)
    7818:	10812a03          	lw	s4,264(sp)
    781c:	10412a83          	lw	s5,260(sp)
    7820:	10012b03          	lw	s6,256(sp)
    7824:	5bfe                	c.lwsp	s7,252(sp)
    7826:	5c6e                	c.lwsp	s8,248(sp)
    7828:	5cde                	c.lwsp	s9,244(sp)
    782a:	5d4e                	c.lwsp	s10,240(sp)
    782c:	5dbe                	c.lwsp	s11,236(sp)
    782e:	6115                	c.addi16sp	sp,288
    7830:	00008067          	ret
    7834:	4e01                	c.li	t3,0
    7836:	4f81                	c.li	t6,0
    7838:	4281                	c.li	t0,0
    783a:	4381                	c.li	t2,0
    783c:	c71ff06f          	j	74ac <riscv_depthwise_conv_s8_opt+0x2fc>
    7840:	4732                	c.lwsp	a4,12(sp)
    7842:	0786                	c.slli	a5,0x1
    7844:	564a                	c.lwsp	a2,176(sp)
    7846:	00f70533          	add	a0,a4,a5
    784a:	4581                	c.li	a1,0
    784c:	29a020ef          	jal	ra,9ae6 <memset>
    7850:	08012783          	lw	a5,128(sp)
    7854:	c20794e3          	bnez	a5,747c <riscv_depthwise_conv_s8_opt+0x2cc>
    7858:	5376                	c.lwsp	t1,124(sp)
    785a:	5866                	c.lwsp	a6,120(sp)
    785c:	12012883          	lw	a7,288(sp)
    7860:	4501                	c.li	a0,0
    7862:	8e5e                	c.mv	t3,s7
    7864:	d45e                	c.swsp	s7,40(sp)
    7866:	b54d                	c.j	7708 <riscv_depthwise_conv_s8_opt+0x558>
    7868:	c82e                	c.swsp	a1,16(sp)
    786a:	8536                	c.mv	a0,a3
    786c:	015005b3          	add	a1,zero,s5
    7870:	12712423          	sw	t2,296(sp)
    7874:	ef4fd0ef          	jal	ra,4f68 <riscv_depthwise_conv_s8_opt_get_buffer_size>
    7878:	00a04a63          	bgtz	a0,788c <riscv_depthwise_conv_s8_opt+0x6dc>
    787c:	000b2783          	lw	a5,0(s6)
    7880:	4e42                	c.lwsp	t3,16(sp)
    7882:	12812383          	lw	t2,296(sp)
    7886:	c63e                	c.swsp	a5,12(sp)
    7888:	981ff06f          	j	7208 <riscv_depthwise_conv_s8_opt+0x58>
    788c:	557d                	c.li	a0,-1
    788e:	bf9d                	c.j	7804 <riscv_depthwise_conv_s8_opt+0x654>

00007890 <riscv_depthwise_conv_3x3_s8>:
    7890:	ad010113          	addi	sp,sp,-1328
    7894:	53412303          	lw	t1,1332(sp)
    7898:	00462e03          	lw	t3,4(a2)
    789c:	4210                	c.lw	a2,0(a2)
    789e:	00c5a883          	lw	a7,12(a1)
    78a2:	00c32e83          	lw	t4,12(t1)
    78a6:	26c12e23          	sw	a2,636(sp)
    78aa:	00832603          	lw	a2,8(t1)
    78ae:	00432303          	lw	t1,4(t1)
    78b2:	52812423          	sw	s0,1320(sp)
    78b6:	46c0                	c.lw	s0,12(a3)
    78b8:	0086af83          	lw	t6,8(a3)
    78bc:	52912223          	sw	s1,1316(sp)
    78c0:	51712623          	sw	s7,1292(sp)
    78c4:	42c4                	c.lw	s1,4(a3)
    78c6:	51912223          	sw	s9,1284(sp)
    78ca:	47112623          	sw	a7,1132(sp)
    78ce:	27c12c23          	sw	t3,632(sp)
    78d2:	49d4                	c.lw	a3,20(a1)
    78d4:	4d88                	c.lw	a0,24(a1)
    78d6:	0105a883          	lw	a7,16(a1)
    78da:	0045ae03          	lw	t3,4(a1)
    78de:	52112623          	sw	ra,1324(sp)
    78e2:	53212023          	sw	s2,1312(sp)
    78e6:	51312e23          	sw	s3,1308(sp)
    78ea:	51412c23          	sw	s4,1304(sp)
    78ee:	51512a23          	sw	s5,1300(sp)
    78f2:	51612823          	sw	s6,1296(sp)
    78f6:	51812423          	sw	s8,1288(sp)
    78fa:	51a12023          	sw	s10,1280(sp)
    78fe:	4fb12e23          	sw	s11,1276(sp)
    7902:	46c12823          	sw	a2,1136(sp)
    7906:	4a612e23          	sw	t1,1212(sp)
    790a:	0005ad03          	lw	s10,0(a1)
    790e:	4ae12023          	sw	a4,1184(sp)
    7912:	c242                	c.swsp	a6,4(sp)
    7914:	0245ac83          	lw	s9,36(a1)
    7918:	0285ab83          	lw	s7,40(a1)
    791c:	01d40463          	beq	s0,t4,7924 <riscv_depthwise_conv_3x3_s8+0x94>
    7920:	7500106f          	j	9070 <riscv_depthwise_conv_3x3_s8+0x17e0>
    7924:	873e                	c.mv	a4,a5
    7926:	4785                	c.li	a5,1
    7928:	00d7d463          	bge	a5,a3,7930 <riscv_depthwise_conv_3x3_s8+0xa0>
    792c:	7440106f          	j	9070 <riscv_depthwise_conv_3x3_s8+0x17e0>
    7930:	4710                	c.lw	a2,8(a4)
    7932:	478d                	c.li	a5,3
    7934:	00f60463          	beq	a2,a5,793c <riscv_depthwise_conv_3x3_s8+0xac>
    7938:	7380106f          	j	9070 <riscv_depthwise_conv_3x3_s8+0x17e0>
    793c:	435c                	c.lw	a5,4(a4)
    793e:	00c78463          	beq	a5,a2,7946 <riscv_depthwise_conv_3x3_s8+0xb6>
    7942:	72e0106f          	j	9070 <riscv_depthwise_conv_3x3_s8+0x17e0>
    7946:	40a00833          	neg	a6,a0
    794a:	0c605de3          	blez	t1,8224 <riscv_depthwise_conv_3x3_s8+0x994>
    794e:	028f8a33          	mul	s4,t6,s0
    7952:	00141593          	slli	a1,s0,0x1
    7956:	00858db3          	add	s11,a1,s0
    795a:	47012783          	lw	a5,1136(sp)
    795e:	4cb12423          	sw	a1,1224(sp)
    7962:	45412823          	sw	s4,1104(sp)
    7966:	45b12023          	sw	s11,1088(sp)
    796a:	40d002b3          	neg	t0,a3
    796e:	0af05be3          	blez	a5,8224 <riscv_depthwise_conv_3x3_s8+0x994>
    7972:	46c12603          	lw	a2,1132(sp)
    7976:	4799                	c.li	a5,6
    7978:	02c40633          	mul	a2,s0,a2
    797c:	02f40733          	mul	a4,s0,a5
    7980:	ffc40793          	addi	a5,s0,-4
    7984:	02828f33          	mul	t5,t0,s0
    7988:	46c12a23          	sw	a2,1140(sp)
    798c:	ffc7f613          	andi	a2,a5,-4
    7990:	00460793          	addi	a5,a2,4
    7994:	48f12c23          	sw	a5,1176(sp)
    7998:	00241793          	slli	a5,s0,0x2
    799c:	00e58933          	add	s2,a1,a4
    79a0:	36f12823          	sw	a5,880(sp)
    79a4:	53812583          	lw	a1,1336(sp)
    79a8:	01ea07b3          	add	a5,s4,t5
    79ac:	4cf12023          	sw	a5,1216(sp)
    79b0:	01f687b3          	add	a5,a3,t6
    79b4:	89b2                	c.mv	s3,a2
    79b6:	0591                	c.addi	a1,4
    79b8:	4cf12223          	sw	a5,1220(sp)
    79bc:	41b907b3          	sub	a5,s2,s11
    79c0:	001a1b13          	slli	s6,s4,0x1
    79c4:	4cf12823          	sw	a5,1232(sp)
    79c8:	013587b3          	add	a5,a1,s3
    79cc:	00341393          	slli	t2,s0,0x3
    79d0:	01eb0c33          	add	s8,s6,t5
    79d4:	00950333          	add	t1,a0,s1
    79d8:	48f12e23          	sw	a5,1180(sp)
    79dc:	4481                	c.li	s1,0
    79de:	4792                	c.lwsp	a5,4(sp)
    79e0:	00e40fb3          	add	t6,s0,a4
    79e4:	4b612223          	sw	s6,1188(sp)
    79e8:	4d212623          	sw	s2,1228(sp)
    79ec:	00838b33          	add	s6,t2,s0
    79f0:	48c12a23          	sw	a2,1172(sp)
    79f4:	4d812e23          	sw	s8,1244(sp)
    79f8:	01b40633          	add	a2,s0,s11
    79fc:	8c5e                	c.mv	s8,s7
    79fe:	4e712023          	sw	t2,1248(sp)
    7a02:	4e81                	c.li	t4,0
    7a04:	4a81                	c.li	s5,0
    7a06:	89a2                	c.mv	s3,s0
    7a08:	8926                	c.mv	s2,s1
    7a0a:	8be6                	c.mv	s7,s9
    7a0c:	83f2                	c.mv	t2,t3
    7a0e:	c7ea                	c.swsp	s10,204(sp)
    7a10:	4c512a23          	sw	t0,1236(sp)
    7a14:	4de12c23          	sw	t5,1240(sp)
    7a18:	4f612223          	sw	s6,1252(sp)
    7a1c:	4ff12423          	sw	t6,1256(sp)
    7a20:	4ec12623          	sw	a2,1260(sp)
    7a24:	44012f03          	lw	t5,1088(sp)
    7a28:	f35505ff          	maxw	a1,a0,s5
    7a2c:	45012683          	lw	a3,1104(sp)
    7a30:	03e58433          	mul	s0,a1,t5
    7a34:	00b80733          	add	a4,a6,a1
    7a38:	02d70733          	mul	a4,a4,a3
    7a3c:	4e412683          	lw	a3,1252(sp)
    7a40:	4e012603          	lw	a2,1248(sp)
    7a44:	96a2                	c.add	a3,s0
    7a46:	40c68e33          	sub	t3,a3,a2
    7a4a:	46d12c23          	sw	a3,1144(sp)
    7a4e:	4c012683          	lw	a3,1216(sp)
    7a52:	4dc12483          	lw	s1,1244(sp)
    7a56:	00e68633          	add	a2,a3,a4
    7a5a:	4d812683          	lw	a3,1240(sp)
    7a5e:	49c12023          	sw	t3,1152(sp)
    7a62:	96ba                	c.add	a3,a4
    7a64:	9726                	c.add	a4,s1
    7a66:	4c812483          	lw	s1,1224(sp)
    7a6a:	d0ae                	c.swsp	a1,96(sp)
    7a6c:	01c48fb3          	add	t6,s1,t3
    7a70:	4e0d                	c.li	t3,3
    7a72:	f1c302ff          	minw	t0,t1,t3
    7a76:	4a012e03          	lw	t3,1184(sp)
    7a7a:	46812223          	sw	s0,1124(sp)
    7a7e:	9672                	c.add	a2,t3
    7a80:	36c12e23          	sw	a2,892(sp)
    7a84:	8672                	c.mv	a2,t3
    7a86:	9e36                	c.add	t3,a3
    7a88:	00e606b3          	add	a3,a2,a4
    7a8c:	4c412703          	lw	a4,1220(sp)
    7a90:	49f12623          	sw	t6,1164(sp)
    7a94:	ceba                	c.swsp	a4,92(sp)
    7a96:	00158713          	addi	a4,a1,1
    7a9a:	18e12823          	sw	a4,400(sp)
    7a9e:	00258713          	addi	a4,a1,2
    7aa2:	18e12a23          	sw	a4,404(sp)
    7aa6:	00358713          	addi	a4,a1,3
    7aaa:	44e12423          	sw	a4,1096(sp)
    7aae:	4d412703          	lw	a4,1236(sp)
    7ab2:	44012223          	sw	zero,1092(sp)
    7ab6:	d2ba                	c.swsp	a4,100(sp)
    7ab8:	4e812703          	lw	a4,1256(sp)
    7abc:	8c9e                	c.mv	s9,t2
    7abe:	9722                	c.add	a4,s0
    7ac0:	46e12e23          	sw	a4,1148(sp)
    7ac4:	4ec12703          	lw	a4,1260(sp)
    7ac8:	83f2                	c.mv	t2,t3
    7aca:	9722                	c.add	a4,s0
    7acc:	46e12423          	sw	a4,1128(sp)
    7ad0:	4cc12703          	lw	a4,1228(sp)
    7ad4:	85be                	c.mv	a1,a5
    7ad6:	9722                	c.add	a4,s0
    7ad8:	48e12223          	sw	a4,1156(sp)
    7adc:	4d012703          	lw	a4,1232(sp)
    7ae0:	9722                	c.add	a4,s0
    7ae2:	48e12423          	sw	a4,1160(sp)
    7ae6:	01ff0733          	add	a4,t5,t6
    7aea:	48e12823          	sw	a4,1168(sp)
    7aee:	00152713          	slti	a4,a0,1
    7af2:	44e12623          	sw	a4,1100(sp)
    7af6:	cc96                	c.swsp	t0,88(sp)
    7af8:	00d002b3          	add	t0,zero,a3
    7afc:	4b112423          	sw	a7,1192(sp)
    7b00:	4b012623          	sw	a6,1196(sp)
    7b04:	4bd12823          	sw	t4,1200(sp)
    7b08:	4aa12a23          	sw	a0,1204(sp)
    7b0c:	4a612c23          	sw	t1,1208(sp)
    7b10:	478d                	c.li	a5,3
    7b12:	0137c463          	blt	a5,s3,7b1a <riscv_depthwise_conv_3x3_s8+0x28a>
    7b16:	54e0106f          	j	9064 <riscv_depthwise_conv_3x3_s8+0x17d4>
    7b1a:	47812503          	lw	a0,1144(sp)
    7b1e:	46412403          	lw	s0,1124(sp)
    7b22:	952e                	c.add	a0,a1
    7b24:	c8aa                	c.swsp	a0,80(sp)
    7b26:	45012503          	lw	a0,1104(sp)
    7b2a:	00848733          	add	a4,s1,s0
    7b2e:	9516                	c.add	a0,t0
    7b30:	caaa                	c.swsp	a0,84(sp)
    7b32:	00598533          	add	a0,s3,t0
    7b36:	cc2a                	c.swsp	a0,24(sp)
    7b38:	47c12503          	lw	a0,1148(sp)
    7b3c:	972e                	c.add	a4,a1
    7b3e:	952e                	c.add	a0,a1
    7b40:	ce2a                	c.swsp	a0,28(sp)
    7b42:	00798533          	add	a0,s3,t2
    7b46:	c42a                	c.swsp	a0,8(sp)
    7b48:	48012503          	lw	a0,1152(sp)
    7b4c:	d63a                	c.swsp	a4,44(sp)
    7b4e:	952e                	c.add	a0,a1
    7b50:	c62a                	c.swsp	a0,12(sp)
    7b52:	37c12503          	lw	a0,892(sp)
    7b56:	53812783          	lw	a5,1336(sp)
    7b5a:	00a98833          	add	a6,s3,a0
    7b5e:	872a                	c.mv	a4,a0
    7b60:	9526                	c.add	a0,s1
    7b62:	d82a                	c.swsp	a0,48(sp)
    7b64:	48812503          	lw	a0,1160(sp)
    7b68:	c842                	c.swsp	a6,16(sp)
    7b6a:	952e                	c.add	a0,a1
    7b6c:	da2a                	c.swsp	a0,52(sp)
    7b6e:	48c12503          	lw	a0,1164(sp)
    7b72:	46812803          	lw	a6,1128(sp)
    7b76:	952e                	c.add	a0,a1
    7b78:	982e                	c.add	a6,a1
    7b7a:	de2a                	c.swsp	a0,60(sp)
    7b7c:	00858533          	add	a0,a1,s0
    7b80:	ca42                	c.swsp	a6,20(sp)
    7b82:	d22a                	c.swsp	a0,36(sp)
    7b84:	00548833          	add	a6,s1,t0
    7b88:	49012503          	lw	a0,1168(sp)
    7b8c:	c0c2                	c.swsp	a6,64(sp)
    7b8e:	48412803          	lw	a6,1156(sp)
    7b92:	952e                	c.add	a0,a1
    7b94:	982e                	c.add	a6,a1
    7b96:	c6aa                	c.swsp	a0,76(sp)
    7b98:	49c12503          	lw	a0,1180(sp)
    7b9c:	c2c2                	c.swsp	a6,68(sp)
    7b9e:	00748833          	add	a6,s1,t2
    7ba2:	954a                	c.add	a0,s2
    7ba4:	d442                	c.swsp	a6,40(sp)
    7ba6:	27c12683          	lw	a3,636(sp)
    7baa:	01278633          	add	a2,a5,s2
    7bae:	27812783          	lw	a5,632(sp)
    7bb2:	c5aa                	c.swsp	a0,200(sp)
    7bb4:	dc3a                	c.swsp	a4,56(sp)
    7bb6:	53012f03          	lw	t5,1328(sp)
    7bba:	875e                	c.mv	a4,s7
    7bbc:	4b05                	c.li	s6,1
    7bbe:	8be6                	c.mv	s7,s9
    7bc0:	8cba                	c.mv	s9,a4
    7bc2:	c496                	c.swsp	t0,72(sp)
    7bc4:	d01e                	c.swsp	t2,32(sp)
    7bc6:	37312a23          	sw	s3,884(sp)
    7bca:	45212a23          	sw	s2,1108(sp)
    7bce:	c23e                	c.swsp	a5,4(sp)
    7bd0:	44712c23          	sw	t2,1112(sp)
    7bd4:	44512e23          	sw	t0,1116(sp)
    7bd8:	46b12023          	sw	a1,1120(sp)
    7bdc:	36912c23          	sw	s1,888(sp)
    7be0:	620f08e3          	beqz	t5,8a10 <riscv_depthwise_conv_3x3_s8+0x1180>
    7be4:	000f2403          	lw	s0,0(t5)
    7be8:	004f2903          	lw	s2,4(t5)
    7bec:	008f2703          	lw	a4,8(t5)
    7bf0:	00cf2d03          	lw	s10,12(t5)
    7bf4:	010f0f13          	addi	t5,t5,16
    7bf8:	47be                	c.lwsp	a5,204(sp)
    7bfa:	0ef79a7f          	pkbb16	s4,a5,a5
    7bfe:	5786                	c.lwsp	a5,96(sp)
    7c00:	4fe6                	c.lwsp	t6,88(sp)
    7c02:	27f7d363          	bge	a5,t6,7e68 <riscv_depthwise_conv_3x3_s8+0x5d8>
    7c06:	5796                	c.lwsp	a5,100(sp)
    7c08:	6407de63          	bgez	a5,8264 <riscv_depthwise_conv_3x3_s8+0x9d4>
    7c0c:	47f6                	c.lwsp	a5,92(sp)
    7c0e:	4589                	c.li	a1,2
    7c10:	60f5c6e3          	blt	a1,a5,8a1c <riscv_depthwise_conv_3x3_s8+0x118c>
    7c14:	47a2                	c.lwsp	a5,8(sp)
    7c16:	439c                	c.lw	a5,0(a5)
    7c18:	45b2                	c.lwsp	a1,12(sp)
    7c1a:	418c                	c.lw	a1,0(a1)
    7c1c:	1af12c23          	sw	a5,440(sp)
    7c20:	1af12e23          	sw	a5,444(sp)
    7c24:	1b812803          	lw	a6,440(sp)
    7c28:	1bc12883          	lw	a7,444(sp)
    7c2c:	de88057f          	wexti	a0,a6,8
    7c30:	ac95057f          	sunpkd820	a0,a0
    7c34:	40aa057f          	add16	a0,s4,a0
    7c38:	1cb12023          	sw	a1,448(sp)
    7c3c:	1cb12223          	sw	a1,452(sp)
    7c40:	1c012803          	lw	a6,448(sp)
    7c44:	1c412883          	lw	a7,452(sp)
    7c48:	de88087f          	wexti	a6,a6,8
    7c4c:	ac98087f          	sunpkd820	a6,a6
    7c50:	41f95493          	srai	s1,s2,0x1f
    7c54:	1d212423          	sw	s2,456(sp)
    7c58:	1c912623          	sw	s1,460(sp)
    7c5c:	1c812303          	lw	t1,456(sp)
    7c60:	1cc12383          	lw	t2,460(sp)
    7c64:	8905137f          	smalbb	t1,a0,a6
    7c68:	891a                	c.mv	s2,t1
    7c6a:	18612c23          	sw	t1,408(sp)
    7c6e:	18712e23          	sw	t2,412(sp)
    7c72:	ac9787ff          	sunpkd820	a5,a5
    7c76:	40fa07ff          	add16	a5,s4,a5
    7c7a:	41fd5493          	srai	s1,s10,0x1f
    7c7e:	1da12823          	sw	s10,464(sp)
    7c82:	1c912a23          	sw	s1,468(sp)
    7c86:	1d012303          	lw	t1,464(sp)
    7c8a:	1d412383          	lw	t2,468(sp)
    7c8e:	a905137f          	smaltt	t1,a0,a6
    7c92:	8d1a                	c.mv	s10,t1
    7c94:	ac95887f          	sunpkd820	a6,a1
    7c98:	41f45593          	srai	a1,s0,0x1f
    7c9c:	1c812c23          	sw	s0,472(sp)
    7ca0:	1cb12e23          	sw	a1,476(sp)
    7ca4:	1d812e03          	lw	t3,472(sp)
    7ca8:	1dc12e83          	lw	t4,476(sp)
    7cac:	89079e7f          	smalbb	t3,a5,a6
    7cb0:	1ee12023          	sw	a4,480(sp)
    7cb4:	877d                	c.srai	a4,0x1f
    7cb6:	1ee12223          	sw	a4,484(sp)
    7cba:	1e012503          	lw	a0,480(sp)
    7cbe:	1e412583          	lw	a1,484(sp)
    7cc2:	8472                	c.mv	s0,t3
    7cc4:	a907957f          	smaltt	a0,a5,a6
    7cc8:	19012783          	lw	a5,400(sp)
    7ccc:	1aa12023          	sw	a0,416(sp)
    7cd0:	1ab12223          	sw	a1,420(sp)
    7cd4:	872a                	c.mv	a4,a0
    7cd6:	19f7d963          	bge	a5,t6,7e68 <riscv_depthwise_conv_3x3_s8+0x5d8>
    7cda:	47c2                	c.lwsp	a5,16(sp)
    7cdc:	439c                	c.lw	a5,0(a5)
    7cde:	4752                	c.lwsp	a4,20(sp)
    7ce0:	4318                	c.lw	a4,0(a4)
    7ce2:	2af12823          	sw	a5,688(sp)
    7ce6:	2af12a23          	sw	a5,692(sp)
    7cea:	2b012503          	lw	a0,688(sp)
    7cee:	2b412583          	lw	a1,692(sp)
    7cf2:	de8505ff          	wexti	a1,a0,8
    7cf6:	ac9585ff          	sunpkd820	a1,a1
    7cfa:	40ba05ff          	add16	a1,s4,a1
    7cfe:	2ae12c23          	sw	a4,696(sp)
    7d02:	2ae12e23          	sw	a4,700(sp)
    7d06:	2b812803          	lw	a6,696(sp)
    7d0a:	2bc12883          	lw	a7,700(sp)
    7d0e:	de88087f          	wexti	a6,a6,8
    7d12:	ac98087f          	sunpkd820	a6,a6
    7d16:	19812403          	lw	s0,408(sp)
    7d1a:	41f45513          	srai	a0,s0,0x1f
    7d1e:	2c812023          	sw	s0,704(sp)
    7d22:	2ca12223          	sw	a0,708(sp)
    7d26:	2c012403          	lw	s0,704(sp)
    7d2a:	2c412483          	lw	s1,708(sp)
    7d2e:	8905947f          	smalbb	s0,a1,a6
    7d32:	8922                	c.mv	s2,s0
    7d34:	18812c23          	sw	s0,408(sp)
    7d38:	18912e23          	sw	s1,412(sp)
    7d3c:	ac9787ff          	sunpkd820	a5,a5
    7d40:	40fa07ff          	add16	a5,s4,a5
    7d44:	41f35513          	srai	a0,t1,0x1f
    7d48:	2c612423          	sw	t1,712(sp)
    7d4c:	2ca12623          	sw	a0,716(sp)
    7d50:	2c812303          	lw	t1,712(sp)
    7d54:	2cc12383          	lw	t2,716(sp)
    7d58:	a905937f          	smaltt	t1,a1,a6
    7d5c:	8d1a                	c.mv	s10,t1
    7d5e:	ac97077f          	sunpkd820	a4,a4
    7d62:	41fe5593          	srai	a1,t3,0x1f
    7d66:	2dc12823          	sw	t3,720(sp)
    7d6a:	2cb12a23          	sw	a1,724(sp)
    7d6e:	2d012403          	lw	s0,720(sp)
    7d72:	2d412483          	lw	s1,724(sp)
    7d76:	88e7947f          	smalbb	s0,a5,a4
    7d7a:	1a012503          	lw	a0,416(sp)
    7d7e:	1a912223          	sw	s1,420(sp)
    7d82:	41f55593          	srai	a1,a0,0x1f
    7d86:	2ca12c23          	sw	a0,728(sp)
    7d8a:	2cb12e23          	sw	a1,732(sp)
    7d8e:	2d812503          	lw	a0,728(sp)
    7d92:	2dc12583          	lw	a1,732(sp)
    7d96:	1a812023          	sw	s0,416(sp)
    7d9a:	a8e7957f          	smaltt	a0,a5,a4
    7d9e:	19412783          	lw	a5,404(sp)
    7da2:	1aa12423          	sw	a0,424(sp)
    7da6:	1ab12623          	sw	a1,428(sp)
    7daa:	872a                	c.mv	a4,a0
    7dac:	0bf7de63          	bge	a5,t6,7e68 <riscv_depthwise_conv_3x3_s8+0x5d8>
    7db0:	47e2                	c.lwsp	a5,24(sp)
    7db2:	438c                	c.lw	a1,0(a5)
    7db4:	47f2                	c.lwsp	a5,28(sp)
    7db6:	0007a803          	lw	a6,0(a5)
    7dba:	38b12023          	sw	a1,896(sp)
    7dbe:	38b12223          	sw	a1,900(sp)
    7dc2:	38012e03          	lw	t3,896(sp)
    7dc6:	38412e83          	lw	t4,900(sp)
    7dca:	de8e08ff          	wexti	a7,t3,8
    7dce:	ac9888ff          	sunpkd820	a7,a7
    7dd2:	411a08ff          	add16	a7,s4,a7
    7dd6:	39012423          	sw	a6,904(sp)
    7dda:	39012623          	sw	a6,908(sp)
    7dde:	38812e03          	lw	t3,904(sp)
    7de2:	38c12e83          	lw	t4,908(sp)
    7de6:	de8e07ff          	wexti	a5,t3,8
    7dea:	ac978eff          	sunpkd820	t4,a5
    7dee:	19812703          	lw	a4,408(sp)
    7df2:	41f75793          	srai	a5,a4,0x1f
    7df6:	38e12823          	sw	a4,912(sp)
    7dfa:	38f12a23          	sw	a5,916(sp)
    7dfe:	39012703          	lw	a4,912(sp)
    7e02:	39412783          	lw	a5,916(sp)
    7e06:	89d8977f          	smalbb	a4,a7,t4
    7e0a:	893a                	c.mv	s2,a4
    7e0c:	ac9585ff          	sunpkd820	a1,a1
    7e10:	40ba05ff          	add16	a1,s4,a1
    7e14:	41f35793          	srai	a5,t1,0x1f
    7e18:	38612c23          	sw	t1,920(sp)
    7e1c:	38f12e23          	sw	a5,924(sp)
    7e20:	39812703          	lw	a4,920(sp)
    7e24:	39c12783          	lw	a5,924(sp)
    7e28:	a9d8977f          	smaltt	a4,a7,t4
    7e2c:	00e00d33          	add	s10,zero,a4
    7e30:	ac98087f          	sunpkd820	a6,a6
    7e34:	41f45793          	srai	a5,s0,0x1f
    7e38:	3a812023          	sw	s0,928(sp)
    7e3c:	3af12223          	sw	a5,932(sp)
    7e40:	3a012403          	lw	s0,928(sp)
    7e44:	3a412483          	lw	s1,932(sp)
    7e48:	8905947f          	smalbb	s0,a1,a6
    7e4c:	1a812703          	lw	a4,424(sp)
    7e50:	41f75793          	srai	a5,a4,0x1f
    7e54:	3ae12423          	sw	a4,936(sp)
    7e58:	3af12623          	sw	a5,940(sp)
    7e5c:	3a812703          	lw	a4,936(sp)
    7e60:	3ac12783          	lw	a5,940(sp)
    7e64:	a905977f          	smaltt	a4,a1,a6
    7e68:	4792                	c.lwsp	a5,4(sp)
    7e6a:	0006a803          	lw	a6,0(a3)
    7e6e:	4384                	c.lw	s1,0(a5)
    7e70:	0047ae03          	lw	t3,4(a5)
    7e74:	0046a983          	lw	s3,4(a3)
    7e78:	0087a283          	lw	t0,8(a5)
    7e7c:	f354857f          	maxw	a0,s1,s5
    7e80:	00c7af83          	lw	t6,12(a5)
    7e84:	0086aa03          	lw	s4,8(a3)
    7e88:	00a41533          	sll	a0,s0,a0
    7e8c:	f35e05ff          	maxw	a1,t3,s5
    7e90:	40000337          	lui	t1,0x40000
    7e94:	4381                	c.li	t2,0
    7e96:	46c0                	c.lw	s0,12(a3)
    7e98:	8505137f          	smar64	t1,a0,a6
    7e9c:	00b915b3          	sll	a1,s2,a1
    7ea0:	f35287ff          	maxw	a5,t0,s5
    7ea4:	40000837          	lui	a6,0x40000
    7ea8:	4881                	c.li	a7,0
    7eaa:	8535987f          	smar64	a6,a1,s3
    7eae:	00f717b3          	sll	a5,a4,a5
    7eb2:	f35f8eff          	maxw	t4,t6,s5
    7eb6:	40000537          	lui	a0,0x40000
    7eba:	4581                	c.li	a1,0
    7ebc:	8547957f          	smar64	a0,a5,s4
    7ec0:	01dd1eb3          	sll	t4,s10,t4
    7ec4:	40000737          	lui	a4,0x40000
    7ec8:	4781                	c.li	a5,0
    7eca:	848e977f          	smar64	a4,t4,s0
    7ece:	41f00fb3          	neg	t6,t6
    7ed2:	f35f8fff          	maxw	t6,t6,s5
    7ed6:	01fb19b3          	sll	s3,s6,t6
    7eda:	dff5057f          	wexti	a0,a0,31
    7ede:	dff7077f          	wexti	a4,a4,31
    7ee2:	fff98593          	addi	a1,s3,-1
    7ee6:	4015d793          	srai	a5,a1,0x1
    7eea:	00072913          	slti	s2,a4,0
    7eee:	8df9                	c.and	a1,a4
    7ef0:	97ca                	c.add	a5,s2
    7ef2:	00b7a5b3          	slt	a1,a5,a1
    7ef6:	4792                	c.lwsp	a5,4(sp)
    7ef8:	409004b3          	neg	s1,s1
    7efc:	07c1                	c.addi	a5,16
    7efe:	c23e                	c.swsp	a5,4(sp)
    7f00:	47c6                	c.lwsp	a5,80(sp)
    7f02:	f35484ff          	maxw	s1,s1,s5
    7f06:	0791                	c.addi	a5,4
    7f08:	c8be                	c.swsp	a5,80(sp)
    7f0a:	47d6                	c.lwsp	a5,84(sp)
    7f0c:	405002b3          	neg	t0,t0
    7f10:	f35282ff          	maxw	t0,t0,s5
    7f14:	0791                	c.addi	a5,4
    7f16:	009b1eb3          	sll	t4,s6,s1
    7f1a:	dff3037f          	wexti	t1,t1,31
    7f1e:	005b1a33          	sll	s4,s6,t0
    7f22:	1efd                	c.addi	t4,-1
    7f24:	cabe                	c.swsp	a5,84(sp)
    7f26:	47e2                	c.lwsp	a5,24(sp)
    7f28:	dff8087f          	wexti	a6,a6,31
    7f2c:	41c00433          	neg	s0,t3
    7f30:	fffa0893          	addi	a7,s4,-1
    7f34:	00032d93          	slti	s11,t1,0
    7f38:	401eda13          	srai	s4,t4,0x1
    7f3c:	f354047f          	maxw	s0,s0,s5
    7f40:	006efeb3          	and	t4,t4,t1
    7f44:	0791                	c.addi	a5,4
    7f46:	9a6e                	c.add	s4,s11
    7f48:	cc3e                	c.swsp	a5,24(sp)
    7f4a:	008b1e33          	sll	t3,s6,s0
    7f4e:	47f2                	c.lwsp	a5,28(sp)
    7f50:	40935333          	sra	t1,t1,s1
    7f54:	01da2eb3          	slt	t4,s4,t4
    7f58:	1e7d                	c.addi	t3,-1
    7f5a:	9376                	c.add	t1,t4
    7f5c:	00082d13          	slti	s10,a6,0
    7f60:	401e5993          	srai	s3,t3,0x1
    7f64:	0791                	c.addi	a5,4
    7f66:	935e                	c.add	t1,s7
    7f68:	010e7e33          	and	t3,t3,a6
    7f6c:	99ea                	c.add	s3,s10
    7f6e:	ce3e                	c.swsp	a5,28(sp)
    7f70:	f393037f          	maxw	t1,t1,s9
    7f74:	47a2                	c.lwsp	a5,8(sp)
    7f76:	40885833          	sra	a6,a6,s0
    7f7a:	01c9ae33          	slt	t3,s3,t3
    7f7e:	f183037f          	minw	t1,t1,s8
    7f82:	00660023          	sb	t1,0(a2)
    7f86:	0791                	c.addi	a5,4
    7f88:	9872                	c.add	a6,t3
    7f8a:	4018d393          	srai	t2,a7,0x1
    7f8e:	00052d13          	slti	s10,a0,0
    7f92:	c43e                	c.swsp	a5,8(sp)
    7f94:	985e                	c.add	a6,s7
    7f96:	47b2                	c.lwsp	a5,12(sp)
    7f98:	00a8f8b3          	and	a7,a7,a0
    7f9c:	93ea                	c.add	t2,s10
    7f9e:	f398087f          	maxw	a6,a6,s9
    7fa2:	0791                	c.addi	a5,4
    7fa4:	40555533          	sra	a0,a0,t0
    7fa8:	0113a8b3          	slt	a7,t2,a7
    7fac:	f188087f          	minw	a6,a6,s8
    7fb0:	010600a3          	sb	a6,1(a2)
    7fb4:	c63e                	c.swsp	a5,12(sp)
    7fb6:	9546                	c.add	a0,a7
    7fb8:	47c2                	c.lwsp	a5,16(sp)
    7fba:	955e                	c.add	a0,s7
    7fbc:	0791                	c.addi	a5,4
    7fbe:	f395057f          	maxw	a0,a0,s9
    7fc2:	c83e                	c.swsp	a5,16(sp)
    7fc4:	41f75733          	sra	a4,a4,t6
    7fc8:	47d2                	c.lwsp	a5,20(sp)
    7fca:	f185057f          	minw	a0,a0,s8
    7fce:	00a60123          	sb	a0,2(a2)
    7fd2:	972e                	c.add	a4,a1
    7fd4:	0791                	c.addi	a5,4
    7fd6:	975e                	c.add	a4,s7
    7fd8:	ca3e                	c.swsp	a5,20(sp)
    7fda:	f397077f          	maxw	a4,a4,s9
    7fde:	4786                	c.lwsp	a5,64(sp)
    7fe0:	f187077f          	minw	a4,a4,s8
    7fe4:	0791                	c.addi	a5,4
    7fe6:	00e601a3          	sb	a4,3(a2)
    7fea:	c0be                	c.swsp	a5,64(sp)
    7fec:	4796                	c.lwsp	a5,68(sp)
    7fee:	0611                	c.addi	a2,4
    7ff0:	0791                	c.addi	a5,4
    7ff2:	c2be                	c.swsp	a5,68(sp)
    7ff4:	57a2                	c.lwsp	a5,40(sp)
    7ff6:	06c1                	c.addi	a3,16
    7ff8:	0791                	c.addi	a5,4
    7ffa:	d43e                	c.swsp	a5,40(sp)
    7ffc:	57b2                	c.lwsp	a5,44(sp)
    7ffe:	0791                	c.addi	a5,4
    8000:	d63e                	c.swsp	a5,44(sp)
    8002:	57c2                	c.lwsp	a5,48(sp)
    8004:	0791                	c.addi	a5,4
    8006:	d83e                	c.swsp	a5,48(sp)
    8008:	57d2                	c.lwsp	a5,52(sp)
    800a:	0791                	c.addi	a5,4
    800c:	da3e                	c.swsp	a5,52(sp)
    800e:	57e2                	c.lwsp	a5,56(sp)
    8010:	0791                	c.addi	a5,4
    8012:	dc3e                	c.swsp	a5,56(sp)
    8014:	57f2                	c.lwsp	a5,60(sp)
    8016:	0791                	c.addi	a5,4
    8018:	de3e                	c.swsp	a5,60(sp)
    801a:	5782                	c.lwsp	a5,32(sp)
    801c:	0791                	c.addi	a5,4
    801e:	d03e                	c.swsp	a5,32(sp)
    8020:	5792                	c.lwsp	a5,36(sp)
    8022:	0791                	c.addi	a5,4
    8024:	d23e                	c.swsp	a5,36(sp)
    8026:	47a6                	c.lwsp	a5,72(sp)
    8028:	0791                	c.addi	a5,4
    802a:	c4be                	c.swsp	a5,72(sp)
    802c:	47b6                	c.lwsp	a5,76(sp)
    802e:	0791                	c.addi	a5,4
    8030:	c6be                	c.swsp	a5,76(sp)
    8032:	47ae                	c.lwsp	a5,200(sp)
    8034:	baf616e3          	bne	a2,a5,7be0 <riscv_depthwise_conv_3x3_s8+0x350>
    8038:	45412903          	lw	s2,1108(sp)
    803c:	87e6                	c.mv	a5,s9
    803e:	49412703          	lw	a4,1172(sp)
    8042:	8cde                	c.mv	s9,s7
    8044:	37412983          	lw	s3,884(sp)
    8048:	00f00bb3          	add	s7,zero,a5
    804c:	45812383          	lw	t2,1112(sp)
    8050:	00490793          	addi	a5,s2,4
    8054:	45c12283          	lw	t0,1116(sp)
    8058:	46012583          	lw	a1,1120(sp)
    805c:	37812483          	lw	s1,888(sp)
    8060:	49812f83          	lw	t6,1176(sp)
    8064:	00f70933          	add	s2,a4,a5
    8068:	153fdc63          	bge	t6,s3,81c0 <riscv_depthwise_conv_3x3_s8+0x930>
    806c:	4a012783          	lw	a5,1184(sp)
    8070:	4a412703          	lw	a4,1188(sp)
    8074:	40f38633          	sub	a2,t2,a5
    8078:	00e60333          	add	t1,a2,a4
    807c:	45012703          	lw	a4,1104(sp)
    8080:	44012683          	lw	a3,1088(sp)
    8084:	40e308b3          	sub	a7,t1,a4
    8088:	46412703          	lw	a4,1124(sp)
    808c:	937e                	c.add	t1,t6
    808e:	00e68833          	add	a6,a3,a4
    8092:	01f70533          	add	a0,a4,t6
    8096:	46812703          	lw	a4,1128(sp)
    809a:	967e                	c.add	a2,t6
    809c:	01f70e33          	add	t3,a4,t6
    80a0:	53812703          	lw	a4,1336(sp)
    80a4:	98fe                	c.add	a7,t6
    80a6:	987e                	c.add	a6,t6
    80a8:	002f9693          	slli	a3,t6,0x2
    80ac:	c47e                	c.swsp	t6,8(sp)
    80ae:	4466                	c.lwsp	s0,88(sp)
    80b0:	4fbe                	c.lwsp	t6,204(sp)
    80b2:	01270eb3          	add	t4,a4,s2
    80b6:	933e                	c.add	t1,a5
    80b8:	963e                	c.add	a2,a5
    80ba:	952e                	c.add	a0,a1
    80bc:	98be                	c.add	a7,a5
    80be:	982e                	c.add	a6,a1
    80c0:	9e2e                	c.add	t3,a1
    80c2:	4d09                	c.li	s10,2
    80c4:	4a05                	c.li	s4,1
    80c6:	c24a                	c.swsp	s2,4(sp)
    80c8:	4781                	c.li	a5,0
    80ca:	000f0563          	beqz	t5,80d4 <riscv_depthwise_conv_3x3_s8+0x844>
    80ce:	000f2783          	lw	a5,0(t5)
    80d2:	0f11                	c.addi	t5,4
    80d4:	5706                	c.lwsp	a4,96(sp)
    80d6:	06875363          	bge	a4,s0,813c <riscv_depthwise_conv_3x3_s8+0x8ac>
    80da:	5716                	c.lwsp	a4,100(sp)
    80dc:	58075ae3          	bgez	a4,8e70 <riscv_depthwise_conv_3x3_s8+0x15e0>
    80e0:	4776                	c.lwsp	a4,92(sp)
    80e2:	60ed4fe3          	blt	s10,a4,8f00 <riscv_depthwise_conv_3x3_s8+0x1670>
    80e6:	01360733          	add	a4,a2,s3
    80ea:	00070703          	lb	a4,0(a4) # 40000000 <_DATA_LMA_START+0x1fff4c20>
    80ee:	01350933          	add	s2,a0,s3
    80f2:	00090903          	lb	s2,0(s2)
    80f6:	977e                	c.add	a4,t6
    80f8:	c52717ff          	maddr32	a5,a4,s2
    80fc:	19012703          	lw	a4,400(sp)
    8100:	02875e63          	bge	a4,s0,813c <riscv_depthwise_conv_3x3_s8+0x8ac>
    8104:	01388733          	add	a4,a7,s3
    8108:	00070903          	lb	s2,0(a4)
    810c:	44c12703          	lw	a4,1100(sp)
    8110:	000e0b03          	lb	s6,0(t3)
    8114:	00173713          	seqz	a4,a4
    8118:	997e                	c.add	s2,t6
    811a:	0709                	c.addi	a4,2
    811c:	c56917ff          	maddr32	a5,s2,s6
    8120:	00875e63          	bge	a4,s0,813c <riscv_depthwise_conv_3x3_s8+0x8ac>
    8124:	44012903          	lw	s2,1088(sp)
    8128:	01330733          	add	a4,t1,s3
    812c:	00070703          	lb	a4,0(a4)
    8130:	9972                	c.add	s2,t3
    8132:	00090903          	lb	s2,0(s2)
    8136:	977e                	c.add	a4,t6
    8138:	c52717ff          	maddr32	a5,a4,s2
    813c:	27812703          	lw	a4,632(sp)
    8140:	0e85                	c.addi	t4,1
    8142:	9736                	c.add	a4,a3
    8144:	00072903          	lw	s2,0(a4)
    8148:	27c12703          	lw	a4,636(sp)
    814c:	f3590dff          	maxw	s11,s2,s5
    8150:	9736                	c.add	a4,a3
    8152:	00072b03          	lw	s6,0(a4)
    8156:	01b79db3          	sll	s11,a5,s11
    815a:	40000737          	lui	a4,0x40000
    815e:	4781                	c.li	a5,0
    8160:	856d977f          	smar64	a4,s11,s6
    8164:	41200933          	neg	s2,s2
    8168:	f359097f          	maxw	s2,s2,s5
    816c:	012a1b33          	sll	s6,s4,s2
    8170:	dff7077f          	wexti	a4,a4,31
    8174:	fffb0793          	addi	a5,s6,-1
    8178:	4017db13          	srai	s6,a5,0x1
    817c:	00072d93          	slti	s11,a4,0
    8180:	8ff9                	c.and	a5,a4
    8182:	9b6e                	c.add	s6,s11
    8184:	00fb27b3          	slt	a5,s6,a5
    8188:	41275733          	sra	a4,a4,s2
    818c:	973e                	c.add	a4,a5
    818e:	9766                	c.add	a4,s9
    8190:	f377077f          	maxw	a4,a4,s7
    8194:	f187077f          	minw	a4,a4,s8
    8198:	37012783          	lw	a5,880(sp)
    819c:	feee8fa3          	sb	a4,-1(t4)
    81a0:	0691                	c.addi	a3,4
    81a2:	0305                	c.addi	t1,1
    81a4:	0605                	c.addi	a2,1
    81a6:	0505                	c.addi	a0,1
    81a8:	0885                	c.addi	a7,1
    81aa:	0805                	c.addi	a6,1
    81ac:	0e05                	c.addi	t3,1
    81ae:	f0f69de3          	bne	a3,a5,80c8 <riscv_depthwise_conv_3x3_s8+0x838>
    81b2:	4912                	c.lwsp	s2,4(sp)
    81b4:	00812f83          	lw	t6,8(sp)
    81b8:	012987b3          	add	a5,s3,s2
    81bc:	41f78933          	sub	s2,a5,t6
    81c0:	44412783          	lw	a5,1092(sp)
    81c4:	46c12683          	lw	a3,1132(sp)
    81c8:	00178713          	addi	a4,a5,1
    81cc:	5796                	c.lwsp	a5,100(sp)
    81ce:	37c12603          	lw	a2,892(sp)
    81d2:	97b6                	c.add	a5,a3
    81d4:	d2be                	c.swsp	a5,100(sp)
    81d6:	47412783          	lw	a5,1140(sp)
    81da:	44e12223          	sw	a4,1092(sp)
    81de:	963e                	c.add	a2,a5
    81e0:	93be                	c.add	t2,a5
    81e2:	92be                	c.add	t0,a5
    81e4:	47f6                	c.lwsp	a5,92(sp)
    81e6:	36c12e23          	sw	a2,892(sp)
    81ea:	8f95                	c.sub	a5,a3
    81ec:	cebe                	c.swsp	a5,92(sp)
    81ee:	47012783          	lw	a5,1136(sp)
    81f2:	90e79fe3          	bne	a5,a4,7b10 <riscv_depthwise_conv_3x3_s8+0x280>
    81f6:	4b012e83          	lw	t4,1200(sp)
    81fa:	4a812883          	lw	a7,1192(sp)
    81fe:	4ac12803          	lw	a6,1196(sp)
    8202:	4b412503          	lw	a0,1204(sp)
    8206:	4b812303          	lw	t1,1208(sp)
    820a:	4bc12703          	lw	a4,1212(sp)
    820e:	0e85                	c.addi	t4,1
    8210:	83e6                	c.mv	t2,s9
    8212:	87ae                	c.mv	a5,a1
    8214:	01180833          	add	a6,a6,a7
    8218:	41150533          	sub	a0,a0,a7
    821c:	41130333          	sub	t1,t1,a7
    8220:	81d712e3          	bne	a4,t4,7a24 <riscv_depthwise_conv_3x3_s8+0x194>
    8224:	00000513          	li	a0,0
    8228:	52c12083          	lw	ra,1324(sp)
    822c:	52812403          	lw	s0,1320(sp)
    8230:	52412483          	lw	s1,1316(sp)
    8234:	52012903          	lw	s2,1312(sp)
    8238:	51c12983          	lw	s3,1308(sp)
    823c:	51812a03          	lw	s4,1304(sp)
    8240:	51412a83          	lw	s5,1300(sp)
    8244:	51012b03          	lw	s6,1296(sp)
    8248:	50c12b83          	lw	s7,1292(sp)
    824c:	50812c03          	lw	s8,1288(sp)
    8250:	50412c83          	lw	s9,1284(sp)
    8254:	50012d03          	lw	s10,1280(sp)
    8258:	4fc12d83          	lw	s11,1276(sp)
    825c:	53010113          	addi	sp,sp,1328
    8260:	00008067          	ret
    8264:	5782                	c.lwsp	a5,32(sp)
    8266:	0007a803          	lw	a6,0(a5)
    826a:	5792                	c.lwsp	a5,36(sp)
    826c:	439c                	c.lw	a5,0(a5)
    826e:	d4c2                	c.swsp	a6,104(sp)
    8270:	d6c2                	c.swsp	a6,108(sp)
    8272:	5526                	c.lwsp	a0,104(sp)
    8274:	55b6                	c.lwsp	a1,108(sp)
    8276:	de85037f          	wexti	t1,a0,8
    827a:	ac93037f          	sunpkd820	t1,t1
    827e:	406a037f          	add16	t1,s4,t1
    8282:	d8be                	c.swsp	a5,112(sp)
    8284:	dabe                	c.swsp	a5,116(sp)
    8286:	5546                	c.lwsp	a0,112(sp)
    8288:	55d6                	c.lwsp	a1,116(sp)
    828a:	de850e7f          	wexti	t3,a0,8
    828e:	ac9e0e7f          	sunpkd820	t3,t3
    8292:	41f95593          	srai	a1,s2,0x1f
    8296:	dcca                	c.swsp	s2,120(sp)
    8298:	deae                	c.swsp	a1,124(sp)
    829a:	5966                	c.lwsp	s2,120(sp)
    829c:	59f6                	c.lwsp	s3,124(sp)
    829e:	89c3197f          	smalbb	s2,t1,t3
    82a2:	ac9805ff          	sunpkd820	a1,a6
    82a6:	40ba05ff          	add16	a1,s4,a1
    82aa:	41fd5513          	srai	a0,s10,0x1f
    82ae:	c16a                	c.swsp	s10,128(sp)
    82b0:	c32a                	c.swsp	a0,132(sp)
    82b2:	4d0a                	c.lwsp	s10,128(sp)
    82b4:	4d9a                	c.lwsp	s11,132(sp)
    82b6:	a9c31d7f          	smaltt	s10,t1,t3
    82ba:	ac9788ff          	sunpkd820	a7,a5
    82be:	41f45793          	srai	a5,s0,0x1f
    82c2:	c522                	c.swsp	s0,136(sp)
    82c4:	c73e                	c.swsp	a5,140(sp)
    82c6:	432a                	c.lwsp	t1,136(sp)
    82c8:	43ba                	c.lwsp	t2,140(sp)
    82ca:	8915937f          	smalbb	t1,a1,a7
    82ce:	41f75793          	srai	a5,a4,0x1f
    82d2:	c93a                	c.swsp	a4,144(sp)
    82d4:	cb3e                	c.swsp	a5,148(sp)
    82d6:	4e4a                	c.lwsp	t3,144(sp)
    82d8:	4eda                	c.lwsp	t4,148(sp)
    82da:	a9159e7f          	smaltt	t3,a1,a7
    82de:	47a2                	c.lwsp	a5,8(sp)
    82e0:	439c                	c.lw	a5,0(a5)
    82e2:	4732                	c.lwsp	a4,12(sp)
    82e4:	00072f83          	lw	t6,0(a4) # 40000000 <_DATA_LMA_START+0x1fff4c20>
    82e8:	cd3e                	c.swsp	a5,152(sp)
    82ea:	cf3e                	c.swsp	a5,156(sp)
    82ec:	456a                	c.lwsp	a0,152(sp)
    82ee:	45fa                	c.lwsp	a1,156(sp)
    82f0:	de8505ff          	wexti	a1,a0,8
    82f4:	ac9585ff          	sunpkd820	a1,a1
    82f8:	40ba05ff          	add16	a1,s4,a1
    82fc:	d17e                	c.swsp	t6,160(sp)
    82fe:	d37e                	c.swsp	t6,164(sp)
    8300:	540a                	c.lwsp	s0,160(sp)
    8302:	549a                	c.lwsp	s1,164(sp)
    8304:	de8408ff          	wexti	a7,s0,8
    8308:	ac9888ff          	sunpkd820	a7,a7
    830c:	41f95713          	srai	a4,s2,0x1f
    8310:	d54a                	c.swsp	s2,168(sp)
    8312:	d73a                	c.swsp	a4,172(sp)
    8314:	542a                	c.lwsp	s0,168(sp)
    8316:	54ba                	c.lwsp	s1,172(sp)
    8318:	8915947f          	smalbb	s0,a1,a7
    831c:	8922                	c.mv	s2,s0
    831e:	18812c23          	sw	s0,408(sp)
    8322:	18912e23          	sw	s1,412(sp)
    8326:	ac9787ff          	sunpkd820	a5,a5
    832a:	40fa07ff          	add16	a5,s4,a5
    832e:	41fd5513          	srai	a0,s10,0x1f
    8332:	d96a                	c.swsp	s10,176(sp)
    8334:	db2a                	c.swsp	a0,180(sp)
    8336:	5d4a                	c.lwsp	s10,176(sp)
    8338:	5dda                	c.lwsp	s11,180(sp)
    833a:	a9159d7f          	smaltt	s10,a1,a7
    833e:	1ba12023          	sw	s10,416(sp)
    8342:	1bb12223          	sw	s11,420(sp)
    8346:	ac9f8fff          	sunpkd820	t6,t6
    834a:	41f35593          	srai	a1,t1,0x1f
    834e:	dd1a                	c.swsp	t1,184(sp)
    8350:	df2e                	c.swsp	a1,188(sp)
    8352:	546a                	c.lwsp	s0,184(sp)
    8354:	54fa                	c.lwsp	s1,188(sp)
    8356:	89f7947f          	smalbb	s0,a5,t6
    835a:	41fe5593          	srai	a1,t3,0x1f
    835e:	c1f2                	c.swsp	t3,192(sp)
    8360:	c3ae                	c.swsp	a1,196(sp)
    8362:	450e                	c.lwsp	a0,192(sp)
    8364:	459e                	c.lwsp	a1,196(sp)
    8366:	1a812423          	sw	s0,424(sp)
    836a:	1a912623          	sw	s1,428(sp)
    836e:	a9f7957f          	smaltt	a0,a5,t6
    8372:	47f6                	c.lwsp	a5,92(sp)
    8374:	1ab12a23          	sw	a1,436(sp)
    8378:	1aa12823          	sw	a0,432(sp)
    837c:	4589                	c.li	a1,2
    837e:	872a                	c.mv	a4,a0
    8380:	0af5de63          	bge	a1,a5,843c <riscv_depthwise_conv_3x3_s8+0xbac>
    8384:	57a2                	c.lwsp	a5,40(sp)
    8386:	438c                	c.lw	a1,0(a5)
    8388:	57b2                	c.lwsp	a5,44(sp)
    838a:	0007a883          	lw	a7,0(a5)
    838e:	24b12423          	sw	a1,584(sp)
    8392:	24b12623          	sw	a1,588(sp)
    8396:	24812303          	lw	t1,584(sp)
    839a:	24c12383          	lw	t2,588(sp)
    839e:	de83037f          	wexti	t1,t1,8
    83a2:	ac93037f          	sunpkd820	t1,t1
    83a6:	406a037f          	add16	t1,s4,t1
    83aa:	25112823          	sw	a7,592(sp)
    83ae:	25112a23          	sw	a7,596(sp)
    83b2:	25012e03          	lw	t3,592(sp)
    83b6:	25412e83          	lw	t4,596(sp)
    83ba:	de8e0eff          	wexti	t4,t3,8
    83be:	ac9e8eff          	sunpkd820	t4,t4
    83c2:	19812703          	lw	a4,408(sp)
    83c6:	41f75793          	srai	a5,a4,0x1f
    83ca:	24e12c23          	sw	a4,600(sp)
    83ce:	24f12e23          	sw	a5,604(sp)
    83d2:	25812703          	lw	a4,600(sp)
    83d6:	25c12783          	lw	a5,604(sp)
    83da:	89d3177f          	smalbb	a4,t1,t4
    83de:	893a                	c.mv	s2,a4
    83e0:	ac9585ff          	sunpkd820	a1,a1
    83e4:	40ba05ff          	add16	a1,s4,a1
    83e8:	41fd5793          	srai	a5,s10,0x1f
    83ec:	27a12023          	sw	s10,608(sp)
    83f0:	26f12223          	sw	a5,612(sp)
    83f4:	26012703          	lw	a4,608(sp)
    83f8:	26412783          	lw	a5,612(sp)
    83fc:	a9d3177f          	smaltt	a4,t1,t4
    8400:	00e00d33          	add	s10,zero,a4
    8404:	ac9888ff          	sunpkd820	a7,a7
    8408:	41f45793          	srai	a5,s0,0x1f
    840c:	26812423          	sw	s0,616(sp)
    8410:	26f12623          	sw	a5,620(sp)
    8414:	26812403          	lw	s0,616(sp)
    8418:	26c12483          	lw	s1,620(sp)
    841c:	8915947f          	smalbb	s0,a1,a7
    8420:	1b012703          	lw	a4,432(sp)
    8424:	41f75793          	srai	a5,a4,0x1f
    8428:	26e12823          	sw	a4,624(sp)
    842c:	26f12a23          	sw	a5,628(sp)
    8430:	27012703          	lw	a4,624(sp)
    8434:	27412783          	lw	a5,628(sp)
    8438:	a915977f          	smaltt	a4,a1,a7
    843c:	47e6                	c.lwsp	a5,88(sp)
    843e:	19012583          	lw	a1,400(sp)
    8442:	a2f5d3e3          	bge	a1,a5,7e68 <riscv_depthwise_conv_3x3_s8+0x5d8>
    8446:	57e2                	c.lwsp	a5,56(sp)
    8448:	0007a803          	lw	a6,0(a5)
    844c:	57f2                	c.lwsp	a5,60(sp)
    844e:	439c                	c.lw	a5,0(a5)
    8450:	c9c2                	c.swsp	a6,208(sp)
    8452:	cbc2                	c.swsp	a6,212(sp)
    8454:	454e                	c.lwsp	a0,208(sp)
    8456:	45de                	c.lwsp	a1,212(sp)
    8458:	de85037f          	wexti	t1,a0,8
    845c:	ac93037f          	sunpkd820	t1,t1
    8460:	406a037f          	add16	t1,s4,t1
    8464:	cdbe                	c.swsp	a5,216(sp)
    8466:	cfbe                	c.swsp	a5,220(sp)
    8468:	456e                	c.lwsp	a0,216(sp)
    846a:	45fe                	c.lwsp	a1,220(sp)
    846c:	de850e7f          	wexti	t3,a0,8
    8470:	ac9e0e7f          	sunpkd820	t3,t3
    8474:	41f95593          	srai	a1,s2,0x1f
    8478:	d1ca                	c.swsp	s2,224(sp)
    847a:	d3ae                	c.swsp	a1,228(sp)
    847c:	590e                	c.lwsp	s2,224(sp)
    847e:	599e                	c.lwsp	s3,228(sp)
    8480:	89c3197f          	smalbb	s2,t1,t3
    8484:	ac98087f          	sunpkd820	a6,a6
    8488:	410a05ff          	add16	a1,s4,a6
    848c:	41fd5513          	srai	a0,s10,0x1f
    8490:	d5ea                	c.swsp	s10,232(sp)
    8492:	d7aa                	c.swsp	a0,236(sp)
    8494:	5d2e                	c.lwsp	s10,232(sp)
    8496:	5dbe                	c.lwsp	s11,236(sp)
    8498:	a9c31d7f          	smaltt	s10,t1,t3
    849c:	ac9787ff          	sunpkd820	a5,a5
    84a0:	41f45513          	srai	a0,s0,0x1f
    84a4:	d9a2                	c.swsp	s0,240(sp)
    84a6:	dbaa                	c.swsp	a0,244(sp)
    84a8:	534e                	c.lwsp	t1,240(sp)
    84aa:	53de                	c.lwsp	t2,244(sp)
    84ac:	88f5937f          	smalbb	t1,a1,a5
    84b0:	ddba                	c.swsp	a4,248(sp)
    84b2:	877d                	c.srai	a4,0x1f
    84b4:	dfba                	c.swsp	a4,252(sp)
    84b6:	5e6e                	c.lwsp	t3,248(sp)
    84b8:	5efe                	c.lwsp	t4,252(sp)
    84ba:	a8f59e7f          	smaltt	t3,a1,a5
    84be:	47c2                	c.lwsp	a5,16(sp)
    84c0:	439c                	c.lw	a5,0(a5)
    84c2:	4752                	c.lwsp	a4,20(sp)
    84c4:	4318                	c.lw	a4,0(a4)
    84c6:	10f12023          	sw	a5,256(sp)
    84ca:	10f12223          	sw	a5,260(sp)
    84ce:	10012503          	lw	a0,256(sp)
    84d2:	10412583          	lw	a1,260(sp)
    84d6:	de8505ff          	wexti	a1,a0,8
    84da:	ac9585ff          	sunpkd820	a1,a1
    84de:	40ba05ff          	add16	a1,s4,a1
    84e2:	10e12423          	sw	a4,264(sp)
    84e6:	10e12623          	sw	a4,268(sp)
    84ea:	10812403          	lw	s0,264(sp)
    84ee:	10c12483          	lw	s1,268(sp)
    84f2:	de8408ff          	wexti	a7,s0,8
    84f6:	ac9888ff          	sunpkd820	a7,a7
    84fa:	41f95513          	srai	a0,s2,0x1f
    84fe:	11212823          	sw	s2,272(sp)
    8502:	10a12a23          	sw	a0,276(sp)
    8506:	11012403          	lw	s0,272(sp)
    850a:	11412483          	lw	s1,276(sp)
    850e:	8915947f          	smalbb	s0,a1,a7
    8512:	8922                	c.mv	s2,s0
    8514:	18812c23          	sw	s0,408(sp)
    8518:	18912e23          	sw	s1,412(sp)
    851c:	ac9787ff          	sunpkd820	a5,a5
    8520:	40fa07ff          	add16	a5,s4,a5
    8524:	41fd5513          	srai	a0,s10,0x1f
    8528:	11a12c23          	sw	s10,280(sp)
    852c:	10a12e23          	sw	a0,284(sp)
    8530:	11812d03          	lw	s10,280(sp)
    8534:	11c12d83          	lw	s11,284(sp)
    8538:	a9159d7f          	smaltt	s10,a1,a7
    853c:	1ba12023          	sw	s10,416(sp)
    8540:	1bb12223          	sw	s11,420(sp)
    8544:	ac97077f          	sunpkd820	a4,a4
    8548:	41f35593          	srai	a1,t1,0x1f
    854c:	12612023          	sw	t1,288(sp)
    8550:	12b12223          	sw	a1,292(sp)
    8554:	12012403          	lw	s0,288(sp)
    8558:	12412483          	lw	s1,292(sp)
    855c:	88e7947f          	smalbb	s0,a5,a4
    8560:	41fe5593          	srai	a1,t3,0x1f
    8564:	13c12423          	sw	t3,296(sp)
    8568:	12b12623          	sw	a1,300(sp)
    856c:	12812503          	lw	a0,296(sp)
    8570:	12c12583          	lw	a1,300(sp)
    8574:	1a812423          	sw	s0,424(sp)
    8578:	1a912623          	sw	s1,428(sp)
    857c:	a8e7957f          	smaltt	a0,a5,a4
    8580:	47f6                	c.lwsp	a5,92(sp)
    8582:	1ab12a23          	sw	a1,436(sp)
    8586:	1aa12823          	sw	a0,432(sp)
    858a:	4589                	c.li	a1,2
    858c:	872a                	c.mv	a4,a0
    858e:	0cf5d163          	bge	a1,a5,8650 <riscv_depthwise_conv_3x3_s8+0xdc0>
    8592:	57c2                	c.lwsp	a5,48(sp)
    8594:	438c                	c.lw	a1,0(a5)
    8596:	57d2                	c.lwsp	a5,52(sp)
    8598:	0007a883          	lw	a7,0(a5)
    859c:	34b12023          	sw	a1,832(sp)
    85a0:	34b12223          	sw	a1,836(sp)
    85a4:	34012303          	lw	t1,832(sp)
    85a8:	34412383          	lw	t2,836(sp)
    85ac:	de83037f          	wexti	t1,t1,8
    85b0:	ac93037f          	sunpkd820	t1,t1
    85b4:	406a037f          	add16	t1,s4,t1
    85b8:	35112423          	sw	a7,840(sp)
    85bc:	35112623          	sw	a7,844(sp)
    85c0:	34812e03          	lw	t3,840(sp)
    85c4:	34c12e83          	lw	t4,844(sp)
    85c8:	de8e0e7f          	wexti	t3,t3,8
    85cc:	ac9e0e7f          	sunpkd820	t3,t3
    85d0:	19812403          	lw	s0,408(sp)
    85d4:	41f45793          	srai	a5,s0,0x1f
    85d8:	34812823          	sw	s0,848(sp)
    85dc:	34f12a23          	sw	a5,852(sp)
    85e0:	35012703          	lw	a4,848(sp)
    85e4:	35412783          	lw	a5,852(sp)
    85e8:	89c3177f          	smalbb	a4,t1,t3
    85ec:	893a                	c.mv	s2,a4
    85ee:	ac9585ff          	sunpkd820	a1,a1
    85f2:	40ba05ff          	add16	a1,s4,a1
    85f6:	1a012703          	lw	a4,416(sp)
    85fa:	41f75793          	srai	a5,a4,0x1f
    85fe:	34e12c23          	sw	a4,856(sp)
    8602:	34f12e23          	sw	a5,860(sp)
    8606:	35812703          	lw	a4,856(sp)
    860a:	35c12783          	lw	a5,860(sp)
    860e:	a9c3177f          	smaltt	a4,t1,t3
    8612:	8d3a                	c.mv	s10,a4
    8614:	ac9888ff          	sunpkd820	a7,a7
    8618:	1a812403          	lw	s0,424(sp)
    861c:	41f45793          	srai	a5,s0,0x1f
    8620:	36812023          	sw	s0,864(sp)
    8624:	36f12223          	sw	a5,868(sp)
    8628:	36012403          	lw	s0,864(sp)
    862c:	36412483          	lw	s1,868(sp)
    8630:	8915947f          	smalbb	s0,a1,a7
    8634:	1b012703          	lw	a4,432(sp)
    8638:	41f75793          	srai	a5,a4,0x1f
    863c:	36e12423          	sw	a4,872(sp)
    8640:	36f12623          	sw	a5,876(sp)
    8644:	36812703          	lw	a4,872(sp)
    8648:	36c12783          	lw	a5,876(sp)
    864c:	a915977f          	smaltt	a4,a1,a7
    8650:	47e6                	c.lwsp	a5,88(sp)
    8652:	19412583          	lw	a1,404(sp)
    8656:	80f5d9e3          	bge	a1,a5,7e68 <riscv_depthwise_conv_3x3_s8+0x5d8>
    865a:	47a6                	c.lwsp	a5,72(sp)
    865c:	439c                	c.lw	a5,0(a5)
    865e:	45b6                	c.lwsp	a1,76(sp)
    8660:	418c                	c.lw	a1,0(a1)
    8662:	12f12823          	sw	a5,304(sp)
    8666:	12f12a23          	sw	a5,308(sp)
    866a:	13012803          	lw	a6,304(sp)
    866e:	13412883          	lw	a7,308(sp)
    8672:	de88057f          	wexti	a0,a6,8
    8676:	ac95057f          	sunpkd820	a0,a0
    867a:	40aa057f          	add16	a0,s4,a0
    867e:	12b12c23          	sw	a1,312(sp)
    8682:	12b12e23          	sw	a1,316(sp)
    8686:	13812803          	lw	a6,312(sp)
    868a:	13c12883          	lw	a7,316(sp)
    868e:	de88087f          	wexti	a6,a6,8
    8692:	ac98087f          	sunpkd820	a6,a6
    8696:	41f95493          	srai	s1,s2,0x1f
    869a:	15212023          	sw	s2,320(sp)
    869e:	14912223          	sw	s1,324(sp)
    86a2:	14012303          	lw	t1,320(sp)
    86a6:	14412383          	lw	t2,324(sp)
    86aa:	8905137f          	smalbb	t1,a0,a6
    86ae:	ac9787ff          	sunpkd820	a5,a5
    86b2:	40fa07ff          	add16	a5,s4,a5
    86b6:	41fd5493          	srai	s1,s10,0x1f
    86ba:	15a12423          	sw	s10,328(sp)
    86be:	14912623          	sw	s1,332(sp)
    86c2:	14812e03          	lw	t3,328(sp)
    86c6:	14c12e83          	lw	t4,332(sp)
    86ca:	a9051e7f          	smaltt	t3,a0,a6
    86ce:	ac9585ff          	sunpkd820	a1,a1
    86d2:	41f45513          	srai	a0,s0,0x1f
    86d6:	14812823          	sw	s0,336(sp)
    86da:	14a12a23          	sw	a0,340(sp)
    86de:	15012803          	lw	a6,336(sp)
    86e2:	15412883          	lw	a7,340(sp)
    86e6:	88b7987f          	smalbb	a6,a5,a1
    86ea:	14e12c23          	sw	a4,344(sp)
    86ee:	877d                	c.srai	a4,0x1f
    86f0:	14e12e23          	sw	a4,348(sp)
    86f4:	15812403          	lw	s0,344(sp)
    86f8:	15c12483          	lw	s1,348(sp)
    86fc:	a8b7947f          	smaltt	s0,a5,a1
    8700:	47e2                	c.lwsp	a5,24(sp)
    8702:	439c                	c.lw	a5,0(a5)
    8704:	4772                	c.lwsp	a4,28(sp)
    8706:	4318                	c.lw	a4,0(a4)
    8708:	16f12023          	sw	a5,352(sp)
    870c:	16f12223          	sw	a5,356(sp)
    8710:	16012503          	lw	a0,352(sp)
    8714:	16412583          	lw	a1,356(sp)
    8718:	de8505ff          	wexti	a1,a0,8
    871c:	ac9585ff          	sunpkd820	a1,a1
    8720:	40ba05ff          	add16	a1,s4,a1
    8724:	16e12423          	sw	a4,360(sp)
    8728:	16e12623          	sw	a4,364(sp)
    872c:	16812d03          	lw	s10,360(sp)
    8730:	16c12d83          	lw	s11,364(sp)
    8734:	de8d057f          	wexti	a0,s10,8
    8738:	ac95057f          	sunpkd820	a0,a0
    873c:	16612823          	sw	t1,368(sp)
    8740:	41f35313          	srai	t1,t1,0x1f
    8744:	16612a23          	sw	t1,372(sp)
    8748:	17012303          	lw	t1,368(sp)
    874c:	17412383          	lw	t2,372(sp)
    8750:	88a5937f          	smalbb	t1,a1,a0
    8754:	891a                	c.mv	s2,t1
    8756:	ac9787ff          	sunpkd820	a5,a5
    875a:	40fa07ff          	add16	a5,s4,a5
    875e:	17c12c23          	sw	t3,376(sp)
    8762:	41fe5e13          	srai	t3,t3,0x1f
    8766:	17c12e23          	sw	t3,380(sp)
    876a:	17812e03          	lw	t3,376(sp)
    876e:	17c12e83          	lw	t4,380(sp)
    8772:	a8a59e7f          	smaltt	t3,a1,a0
    8776:	8d72                	c.mv	s10,t3
    8778:	19c12c23          	sw	t3,408(sp)
    877c:	19d12e23          	sw	t4,412(sp)
    8780:	ac97077f          	sunpkd820	a4,a4
    8784:	41f85593          	srai	a1,a6,0x1f
    8788:	19012023          	sw	a6,384(sp)
    878c:	18b12223          	sw	a1,388(sp)
    8790:	18012803          	lw	a6,384(sp)
    8794:	18412883          	lw	a7,388(sp)
    8798:	88e7987f          	smalbb	a6,a5,a4
    879c:	41f45593          	srai	a1,s0,0x1f
    87a0:	18812423          	sw	s0,392(sp)
    87a4:	18b12623          	sw	a1,396(sp)
    87a8:	18812e03          	lw	t3,392(sp)
    87ac:	18c12e83          	lw	t4,396(sp)
    87b0:	8442                	c.mv	s0,a6
    87b2:	1b012023          	sw	a6,416(sp)
    87b6:	1b112223          	sw	a7,420(sp)
    87ba:	a8e79e7f          	smaltt	t3,a5,a4
    87be:	47f6                	c.lwsp	a5,92(sp)
    87c0:	4589                	c.li	a1,2
    87c2:	1bc12423          	sw	t3,424(sp)
    87c6:	1bd12623          	sw	t4,428(sp)
    87ca:	8772                	c.mv	a4,t3
    87cc:	0af5de63          	bge	a1,a5,8888 <riscv_depthwise_conv_3x3_s8+0xff8>
    87d0:	8442                	c.mv	s0,a6
    87d2:	4786                	c.lwsp	a5,64(sp)
    87d4:	438c                	c.lw	a1,0(a5)
    87d6:	4796                	c.lwsp	a5,68(sp)
    87d8:	0007a883          	lw	a7,0(a5)
    87dc:	40b12823          	sw	a1,1040(sp)
    87e0:	40b12a23          	sw	a1,1044(sp)
    87e4:	41012703          	lw	a4,1040(sp)
    87e8:	41412783          	lw	a5,1044(sp)
    87ec:	de8707ff          	wexti	a5,a4,8
    87f0:	ac9787ff          	sunpkd820	a5,a5
    87f4:	40fa0eff          	add16	t4,s4,a5
    87f8:	41112c23          	sw	a7,1048(sp)
    87fc:	41112e23          	sw	a7,1052(sp)
    8800:	41812703          	lw	a4,1048(sp)
    8804:	41c12783          	lw	a5,1052(sp)
    8808:	de8707ff          	wexti	a5,a4,8
    880c:	ac978fff          	sunpkd820	t6,a5
    8810:	41f35793          	srai	a5,t1,0x1f
    8814:	42612023          	sw	t1,1056(sp)
    8818:	42f12223          	sw	a5,1060(sp)
    881c:	42012703          	lw	a4,1056(sp)
    8820:	42412783          	lw	a5,1060(sp)
    8824:	89fe977f          	smalbb	a4,t4,t6
    8828:	893a                	c.mv	s2,a4
    882a:	ac9585ff          	sunpkd820	a1,a1
    882e:	40ba05ff          	add16	a1,s4,a1
    8832:	19812303          	lw	t1,408(sp)
    8836:	41f35793          	srai	a5,t1,0x1f
    883a:	42612423          	sw	t1,1064(sp)
    883e:	42f12623          	sw	a5,1068(sp)
    8842:	42812703          	lw	a4,1064(sp)
    8846:	42c12783          	lw	a5,1068(sp)
    884a:	a9fe977f          	smaltt	a4,t4,t6
    884e:	8d3a                	c.mv	s10,a4
    8850:	ac9888ff          	sunpkd820	a7,a7
    8854:	41f45793          	srai	a5,s0,0x1f
    8858:	42812823          	sw	s0,1072(sp)
    885c:	42f12a23          	sw	a5,1076(sp)
    8860:	43012403          	lw	s0,1072(sp)
    8864:	43412483          	lw	s1,1076(sp)
    8868:	8915947f          	smalbb	s0,a1,a7
    886c:	1a812703          	lw	a4,424(sp)
    8870:	41f75793          	srai	a5,a4,0x1f
    8874:	42e12c23          	sw	a4,1080(sp)
    8878:	42f12e23          	sw	a5,1084(sp)
    887c:	43812703          	lw	a4,1080(sp)
    8880:	43c12783          	lw	a5,1084(sp)
    8884:	a915977f          	smaltt	a4,a1,a7
    8888:	47e6                	c.lwsp	a5,88(sp)
    888a:	44812583          	lw	a1,1096(sp)
    888e:	dcf5dd63          	bge	a1,a5,7e68 <riscv_depthwise_conv_3x3_s8+0x5d8>
    8892:	37412e03          	lw	t3,884(sp)
    8896:	8dd2                	c.mv	s11,s4
    8898:	40d6                	c.lwsp	ra,84(sp)
    889a:	37812e83          	lw	t4,888(sp)
    889e:	0000a583          	lw	a1,0(ra)
    88a2:	44c6                	c.lwsp	s1,80(sp)
    88a4:	409c                	c.lw	a5,0(s1)
    88a6:	28b12023          	sw	a1,640(sp)
    88aa:	28b12223          	sw	a1,644(sp)
    88ae:	28012603          	lw	a2,640(sp)
    88b2:	28412683          	lw	a3,644(sp)
    88b6:	de86087f          	wexti	a6,a2,8
    88ba:	ac98087f          	sunpkd820	a6,a6
    88be:	410a087f          	add16	a6,s4,a6
    88c2:	28f12423          	sw	a5,648(sp)
    88c6:	28f12623          	sw	a5,652(sp)
    88ca:	28812603          	lw	a2,648(sp)
    88ce:	28c12683          	lw	a3,652(sp)
    88d2:	de8608ff          	wexti	a7,a2,8
    88d6:	ac9888ff          	sunpkd820	a7,a7
    88da:	864a                	c.mv	a2,s2
    88dc:	41f95693          	srai	a3,s2,0x1f
    88e0:	8f32                	c.mv	t5,a2
    88e2:	8fb6                	c.mv	t6,a3
    88e4:	89181f7f          	smalbb	t5,a6,a7
    88e8:	ac9586ff          	sunpkd820	a3,a1
    88ec:	40da06ff          	add16	a3,s4,a3
    88f0:	856a                	c.mv	a0,s10
    88f2:	41fd5593          	srai	a1,s10,0x1f
    88f6:	8a2a                	c.mv	s4,a0
    88f8:	8aae                	c.mv	s5,a1
    88fa:	a9181a7f          	smaltt	s4,a6,a7
    88fe:	ac9785ff          	sunpkd820	a1,a5
    8902:	8822                	c.mv	a6,s0
    8904:	41f45893          	srai	a7,s0,0x1f
    8908:	8942                	c.mv	s2,a6
    890a:	89c6                	c.mv	s3,a7
    890c:	88b6997f          	smalbb	s2,a3,a1
    8910:	833a                	c.mv	t1,a4
    8912:	41f75393          	srai	t2,a4,0x1f
    8916:	8b1a                	c.mv	s6,t1
    8918:	8b9e                	c.mv	s7,t2
    891a:	a8b69b7f          	smaltt	s6,a3,a1
    891e:	87f2                	c.mv	a5,t3
    8920:	9e06                	c.add	t3,ra
    8922:	000e2e03          	lw	t3,0(t3)
    8926:	97a6                	c.add	a5,s1
    8928:	439c                	c.lw	a5,0(a5)
    892a:	29c12823          	sw	t3,656(sp)
    892e:	29c12a23          	sw	t3,660(sp)
    8932:	29012603          	lw	a2,656(sp)
    8936:	29412683          	lw	a3,660(sp)
    893a:	de8605ff          	wexti	a1,a2,8
    893e:	ac9585ff          	sunpkd820	a1,a1
    8942:	40bd85ff          	add16	a1,s11,a1
    8946:	28f12c23          	sw	a5,664(sp)
    894a:	28f12e23          	sw	a5,668(sp)
    894e:	29812603          	lw	a2,664(sp)
    8952:	29c12683          	lw	a3,668(sp)
    8956:	de8608ff          	wexti	a7,a2,8
    895a:	ac9888ff          	sunpkd820	a7,a7
    895e:	837a                	c.mv	t1,t5
    8960:	41ff5393          	srai	t2,t5,0x1f
    8964:	8915937f          	smalbb	t1,a1,a7
    8968:	ac9e0e7f          	sunpkd820	t3,t3
    896c:	41cd8e7f          	add16	t3,s11,t3
    8970:	8652                	c.mv	a2,s4
    8972:	41fa5693          	srai	a3,s4,0x1f
    8976:	8f32                	c.mv	t5,a2
    8978:	8fb6                	c.mv	t6,a3
    897a:	a9159f7f          	smaltt	t5,a1,a7
    897e:	ac9787ff          	sunpkd820	a5,a5
    8982:	41f95593          	srai	a1,s2,0x1f
    8986:	854a                	c.mv	a0,s2
    8988:	892a                	c.mv	s2,a0
    898a:	89ae                	c.mv	s3,a1
    898c:	88fe197f          	smalbb	s2,t3,a5
    8990:	885a                	c.mv	a6,s6
    8992:	41fb5893          	srai	a7,s6,0x1f
    8996:	a8fe187f          	smaltt	a6,t3,a5
    899a:	01d087b3          	add	a5,ra,t4
    899e:	439c                	c.lw	a5,0(a5)
    89a0:	01d48733          	add	a4,s1,t4
    89a4:	4318                	c.lw	a4,0(a4)
    89a6:	2af12023          	sw	a5,672(sp)
    89aa:	2af12223          	sw	a5,676(sp)
    89ae:	2a012603          	lw	a2,672(sp)
    89b2:	2a412683          	lw	a3,676(sp)
    89b6:	de8606ff          	wexti	a3,a2,8
    89ba:	ac9686ff          	sunpkd820	a3,a3
    89be:	40dd86ff          	add16	a3,s11,a3
    89c2:	2ae12423          	sw	a4,680(sp)
    89c6:	2ae12623          	sw	a4,684(sp)
    89ca:	2a812503          	lw	a0,680(sp)
    89ce:	2ac12583          	lw	a1,684(sp)
    89d2:	de8505ff          	wexti	a1,a0,8
    89d6:	ac9585ff          	sunpkd820	a1,a1
    89da:	8e1a                	c.mv	t3,t1
    89dc:	41f35e93          	srai	t4,t1,0x1f
    89e0:	88b69e7f          	smalbb	t3,a3,a1
    89e4:	ac9787ff          	sunpkd820	a5,a5
    89e8:	40fd87ff          	add16	a5,s11,a5
    89ec:	837a                	c.mv	t1,t5
    89ee:	41ff5393          	srai	t2,t5,0x1f
    89f2:	a8b6937f          	smaltt	t1,a3,a1
    89f6:	ac97077f          	sunpkd820	a4,a4
    89fa:	864a                	c.mv	a2,s2
    89fc:	41f95693          	srai	a3,s2,0x1f
    8a00:	88e7967f          	smalbb	a2,a5,a4
    8a04:	01000633          	add	a2,zero,a6
    8a08:	41f85693          	srai	a3,a6,0x1f
    8a0c:	a8e7967f          	smaltt	a2,a5,a4
    8a10:	4d01                	c.li	s10,0
    8a12:	4701                	c.li	a4,0
    8a14:	4901                	c.li	s2,0
    8a16:	4401                	c.li	s0,0
    8a18:	9e0ff06f          	j	7bf8 <riscv_depthwise_conv_3x3_s8+0x368>
    8a1c:	47a2                	c.lwsp	a5,8(sp)
    8a1e:	439c                	c.lw	a5,0(a5)
    8a20:	45b2                	c.lwsp	a1,12(sp)
    8a22:	418c                	c.lw	a1,0(a1)
    8a24:	1ef12423          	sw	a5,488(sp)
    8a28:	1ef12623          	sw	a5,492(sp)
    8a2c:	1e812803          	lw	a6,488(sp)
    8a30:	1ec12883          	lw	a7,492(sp)
    8a34:	de88057f          	wexti	a0,a6,8
    8a38:	ac95057f          	sunpkd820	a0,a0
    8a3c:	40aa057f          	add16	a0,s4,a0
    8a40:	1eb12823          	sw	a1,496(sp)
    8a44:	1eb12a23          	sw	a1,500(sp)
    8a48:	1f012803          	lw	a6,496(sp)
    8a4c:	1f412883          	lw	a7,500(sp)
    8a50:	de88087f          	wexti	a6,a6,8
    8a54:	ac98087f          	sunpkd820	a6,a6
    8a58:	41f95493          	srai	s1,s2,0x1f
    8a5c:	1f212c23          	sw	s2,504(sp)
    8a60:	1e912e23          	sw	s1,508(sp)
    8a64:	1f812303          	lw	t1,504(sp)
    8a68:	1fc12383          	lw	t2,508(sp)
    8a6c:	8905137f          	smalbb	t1,a0,a6
    8a70:	ac9787ff          	sunpkd820	a5,a5
    8a74:	40fa07ff          	add16	a5,s4,a5
    8a78:	41fd5493          	srai	s1,s10,0x1f
    8a7c:	21a12023          	sw	s10,512(sp)
    8a80:	20912223          	sw	s1,516(sp)
    8a84:	20012d03          	lw	s10,512(sp)
    8a88:	20412d83          	lw	s11,516(sp)
    8a8c:	a9051d7f          	smaltt	s10,a0,a6
    8a90:	ac9585ff          	sunpkd820	a1,a1
    8a94:	41f45513          	srai	a0,s0,0x1f
    8a98:	20812423          	sw	s0,520(sp)
    8a9c:	20a12623          	sw	a0,524(sp)
    8aa0:	20812803          	lw	a6,520(sp)
    8aa4:	20c12883          	lw	a7,524(sp)
    8aa8:	88b7987f          	smalbb	a6,a5,a1
    8aac:	20e12823          	sw	a4,528(sp)
    8ab0:	877d                	c.srai	a4,0x1f
    8ab2:	20e12a23          	sw	a4,532(sp)
    8ab6:	21012403          	lw	s0,528(sp)
    8aba:	21412483          	lw	s1,532(sp)
    8abe:	a8b7947f          	smaltt	s0,a5,a1
    8ac2:	57a2                	c.lwsp	a5,40(sp)
    8ac4:	439c                	c.lw	a5,0(a5)
    8ac6:	5732                	c.lwsp	a4,44(sp)
    8ac8:	4318                	c.lw	a4,0(a4)
    8aca:	20f12c23          	sw	a5,536(sp)
    8ace:	20f12e23          	sw	a5,540(sp)
    8ad2:	21812503          	lw	a0,536(sp)
    8ad6:	21c12583          	lw	a1,540(sp)
    8ada:	de8505ff          	wexti	a1,a0,8
    8ade:	ac9585ff          	sunpkd820	a1,a1
    8ae2:	40ba05ff          	add16	a1,s4,a1
    8ae6:	22e12023          	sw	a4,544(sp)
    8aea:	22e12223          	sw	a4,548(sp)
    8aee:	22012e03          	lw	t3,544(sp)
    8af2:	22412e83          	lw	t4,548(sp)
    8af6:	de8e057f          	wexti	a0,t3,8
    8afa:	ac95057f          	sunpkd820	a0,a0
    8afe:	22612423          	sw	t1,552(sp)
    8b02:	41f35313          	srai	t1,t1,0x1f
    8b06:	22612623          	sw	t1,556(sp)
    8b0a:	22812e03          	lw	t3,552(sp)
    8b0e:	22c12e83          	lw	t4,556(sp)
    8b12:	88a59e7f          	smalbb	t3,a1,a0
    8b16:	8972                	c.mv	s2,t3
    8b18:	ac9787ff          	sunpkd820	a5,a5
    8b1c:	40fa07ff          	add16	a5,s4,a5
    8b20:	41fd5313          	srai	t1,s10,0x1f
    8b24:	22612a23          	sw	t1,564(sp)
    8b28:	23a12823          	sw	s10,560(sp)
    8b2c:	23412383          	lw	t2,564(sp)
    8b30:	23012303          	lw	t1,560(sp)
    8b34:	a8a5937f          	smaltt	t1,a1,a0
    8b38:	8d1a                	c.mv	s10,t1
    8b3a:	ac97077f          	sunpkd820	a4,a4
    8b3e:	41f85593          	srai	a1,a6,0x1f
    8b42:	23012c23          	sw	a6,568(sp)
    8b46:	22b12e23          	sw	a1,572(sp)
    8b4a:	23812803          	lw	a6,568(sp)
    8b4e:	23c12883          	lw	a7,572(sp)
    8b52:	88e7987f          	smalbb	a6,a5,a4
    8b56:	41f45593          	srai	a1,s0,0x1f
    8b5a:	24812023          	sw	s0,576(sp)
    8b5e:	24b12223          	sw	a1,580(sp)
    8b62:	24012503          	lw	a0,576(sp)
    8b66:	24412583          	lw	a1,580(sp)
    8b6a:	8442                	c.mv	s0,a6
    8b6c:	19012c23          	sw	a6,408(sp)
    8b70:	19112e23          	sw	a7,412(sp)
    8b74:	a8e7957f          	smaltt	a0,a5,a4
    8b78:	19012783          	lw	a5,400(sp)
    8b7c:	1aa12023          	sw	a0,416(sp)
    8b80:	1ab12223          	sw	a1,420(sp)
    8b84:	872a                	c.mv	a4,a0
    8b86:	aff7d163          	bge	a5,t6,7e68 <riscv_depthwise_conv_3x3_s8+0x5d8>
    8b8a:	47c2                	c.lwsp	a5,16(sp)
    8b8c:	439c                	c.lw	a5,0(a5)
    8b8e:	4752                	c.lwsp	a4,20(sp)
    8b90:	4318                	c.lw	a4,0(a4)
    8b92:	2ef12023          	sw	a5,736(sp)
    8b96:	2ef12223          	sw	a5,740(sp)
    8b9a:	2e012503          	lw	a0,736(sp)
    8b9e:	2e412583          	lw	a1,740(sp)
    8ba2:	de8505ff          	wexti	a1,a0,8
    8ba6:	ac9585ff          	sunpkd820	a1,a1
    8baa:	40ba05ff          	add16	a1,s4,a1
    8bae:	2ee12423          	sw	a4,744(sp)
    8bb2:	2ee12623          	sw	a4,748(sp)
    8bb6:	2e812403          	lw	s0,744(sp)
    8bba:	2ec12483          	lw	s1,748(sp)
    8bbe:	de8408ff          	wexti	a7,s0,8
    8bc2:	ac9888ff          	sunpkd820	a7,a7
    8bc6:	41fe5513          	srai	a0,t3,0x1f
    8bca:	2fc12823          	sw	t3,752(sp)
    8bce:	2ea12a23          	sw	a0,756(sp)
    8bd2:	2f012e03          	lw	t3,752(sp)
    8bd6:	2f412e83          	lw	t4,756(sp)
    8bda:	89159e7f          	smalbb	t3,a1,a7
    8bde:	ac9787ff          	sunpkd820	a5,a5
    8be2:	40fa07ff          	add16	a5,s4,a5
    8be6:	41f35513          	srai	a0,t1,0x1f
    8bea:	2e612c23          	sw	t1,760(sp)
    8bee:	2ea12e23          	sw	a0,764(sp)
    8bf2:	2f812303          	lw	t1,760(sp)
    8bf6:	2fc12383          	lw	t2,764(sp)
    8bfa:	a915937f          	smaltt	t1,a1,a7
    8bfe:	ac97077f          	sunpkd820	a4,a4
    8c02:	19812803          	lw	a6,408(sp)
    8c06:	41f85593          	srai	a1,a6,0x1f
    8c0a:	31012023          	sw	a6,768(sp)
    8c0e:	30b12223          	sw	a1,772(sp)
    8c12:	30012403          	lw	s0,768(sp)
    8c16:	30412483          	lw	s1,772(sp)
    8c1a:	88e7947f          	smalbb	s0,a5,a4
    8c1e:	1a012503          	lw	a0,416(sp)
    8c22:	41f55593          	srai	a1,a0,0x1f
    8c26:	30a12423          	sw	a0,776(sp)
    8c2a:	30b12623          	sw	a1,780(sp)
    8c2e:	30812803          	lw	a6,776(sp)
    8c32:	30c12883          	lw	a7,780(sp)
    8c36:	a8e7987f          	smaltt	a6,a5,a4
    8c3a:	57c2                	c.lwsp	a5,48(sp)
    8c3c:	439c                	c.lw	a5,0(a5)
    8c3e:	5752                	c.lwsp	a4,52(sp)
    8c40:	4318                	c.lw	a4,0(a4)
    8c42:	30f12823          	sw	a5,784(sp)
    8c46:	30f12a23          	sw	a5,788(sp)
    8c4a:	31012503          	lw	a0,784(sp)
    8c4e:	31412583          	lw	a1,788(sp)
    8c52:	de8505ff          	wexti	a1,a0,8
    8c56:	ac9585ff          	sunpkd820	a1,a1
    8c5a:	40ba05ff          	add16	a1,s4,a1
    8c5e:	30e12c23          	sw	a4,792(sp)
    8c62:	30e12e23          	sw	a4,796(sp)
    8c66:	31812d03          	lw	s10,792(sp)
    8c6a:	31c12d83          	lw	s11,796(sp)
    8c6e:	de8d057f          	wexti	a0,s10,8
    8c72:	ac95057f          	sunpkd820	a0,a0
    8c76:	33c12023          	sw	t3,800(sp)
    8c7a:	41fe5e13          	srai	t3,t3,0x1f
    8c7e:	33c12223          	sw	t3,804(sp)
    8c82:	32012e03          	lw	t3,800(sp)
    8c86:	32412e83          	lw	t4,804(sp)
    8c8a:	88a59e7f          	smalbb	t3,a1,a0
    8c8e:	8972                	c.mv	s2,t3
    8c90:	ac9787ff          	sunpkd820	a5,a5
    8c94:	40fa07ff          	add16	a5,s4,a5
    8c98:	32612423          	sw	t1,808(sp)
    8c9c:	41f35313          	srai	t1,t1,0x1f
    8ca0:	32612623          	sw	t1,812(sp)
    8ca4:	32812303          	lw	t1,808(sp)
    8ca8:	32c12383          	lw	t2,812(sp)
    8cac:	a8a5937f          	smaltt	t1,a1,a0
    8cb0:	8d1a                	c.mv	s10,t1
    8cb2:	18612c23          	sw	t1,408(sp)
    8cb6:	18712e23          	sw	t2,412(sp)
    8cba:	ac97077f          	sunpkd820	a4,a4
    8cbe:	41f45593          	srai	a1,s0,0x1f
    8cc2:	32812823          	sw	s0,816(sp)
    8cc6:	32b12a23          	sw	a1,820(sp)
    8cca:	33012303          	lw	t1,816(sp)
    8cce:	33412383          	lw	t2,820(sp)
    8cd2:	88e7937f          	smalbb	t1,a5,a4
    8cd6:	41f85593          	srai	a1,a6,0x1f
    8cda:	33012c23          	sw	a6,824(sp)
    8cde:	32b12e23          	sw	a1,828(sp)
    8ce2:	33812803          	lw	a6,824(sp)
    8ce6:	33c12883          	lw	a7,828(sp)
    8cea:	841a                	c.mv	s0,t1
    8cec:	a8e7987f          	smaltt	a6,a5,a4
    8cf0:	19412783          	lw	a5,404(sp)
    8cf4:	1b012023          	sw	a6,416(sp)
    8cf8:	1b112223          	sw	a7,420(sp)
    8cfc:	8742                	c.mv	a4,a6
    8cfe:	97f7d563          	bge	a5,t6,7e68 <riscv_depthwise_conv_3x3_s8+0x5d8>
    8d02:	47e2                	c.lwsp	a5,24(sp)
    8d04:	439c                	c.lw	a5,0(a5)
    8d06:	4772                	c.lwsp	a4,28(sp)
    8d08:	4318                	c.lw	a4,0(a4)
    8d0a:	3af12823          	sw	a5,944(sp)
    8d0e:	3af12a23          	sw	a5,948(sp)
    8d12:	3b012503          	lw	a0,944(sp)
    8d16:	3b412583          	lw	a1,948(sp)
    8d1a:	de8505ff          	wexti	a1,a0,8
    8d1e:	ac9585ff          	sunpkd820	a1,a1
    8d22:	40ba05ff          	add16	a1,s4,a1
    8d26:	3ae12c23          	sw	a4,952(sp)
    8d2a:	3ae12e23          	sw	a4,956(sp)
    8d2e:	3b812403          	lw	s0,952(sp)
    8d32:	3bc12483          	lw	s1,956(sp)
    8d36:	de8408ff          	wexti	a7,s0,8
    8d3a:	ac9888ff          	sunpkd820	a7,a7
    8d3e:	41fe5513          	srai	a0,t3,0x1f
    8d42:	3dc12023          	sw	t3,960(sp)
    8d46:	3ca12223          	sw	a0,964(sp)
    8d4a:	3c012e03          	lw	t3,960(sp)
    8d4e:	3c412e83          	lw	t4,964(sp)
    8d52:	89159e7f          	smalbb	t3,a1,a7
    8d56:	ac9787ff          	sunpkd820	a5,a5
    8d5a:	40fa07ff          	add16	a5,s4,a5
    8d5e:	19812403          	lw	s0,408(sp)
    8d62:	41f45513          	srai	a0,s0,0x1f
    8d66:	3c812423          	sw	s0,968(sp)
    8d6a:	3ca12623          	sw	a0,972(sp)
    8d6e:	3c812403          	lw	s0,968(sp)
    8d72:	3cc12483          	lw	s1,972(sp)
    8d76:	a915947f          	smaltt	s0,a1,a7
    8d7a:	ac97077f          	sunpkd820	a4,a4
    8d7e:	41f35593          	srai	a1,t1,0x1f
    8d82:	3c612823          	sw	t1,976(sp)
    8d86:	3cb12a23          	sw	a1,980(sp)
    8d8a:	3d012303          	lw	t1,976(sp)
    8d8e:	3d412383          	lw	t2,980(sp)
    8d92:	88e7937f          	smalbb	t1,a5,a4
    8d96:	1a012503          	lw	a0,416(sp)
    8d9a:	41f55593          	srai	a1,a0,0x1f
    8d9e:	3ca12c23          	sw	a0,984(sp)
    8da2:	3cb12e23          	sw	a1,988(sp)
    8da6:	3d812503          	lw	a0,984(sp)
    8daa:	3dc12583          	lw	a1,988(sp)
    8dae:	a8e7957f          	smaltt	a0,a5,a4
    8db2:	4786                	c.lwsp	a5,64(sp)
    8db4:	18a12c23          	sw	a0,408(sp)
    8db8:	18b12e23          	sw	a1,412(sp)
    8dbc:	438c                	c.lw	a1,0(a5)
    8dbe:	4796                	c.lwsp	a5,68(sp)
    8dc0:	4388                	c.lw	a0,0(a5)
    8dc2:	3eb12023          	sw	a1,992(sp)
    8dc6:	3eb12223          	sw	a1,996(sp)
    8dca:	3e012803          	lw	a6,992(sp)
    8dce:	3e412883          	lw	a7,996(sp)
    8dd2:	de88087f          	wexti	a6,a6,8
    8dd6:	ac98087f          	sunpkd820	a6,a6
    8dda:	410a087f          	add16	a6,s4,a6
    8dde:	3ea12423          	sw	a0,1000(sp)
    8de2:	3ea12623          	sw	a0,1004(sp)
    8de6:	3e812d03          	lw	s10,1000(sp)
    8dea:	3ec12d83          	lw	s11,1004(sp)
    8dee:	de8d08ff          	wexti	a7,s10,8
    8df2:	ac9888ff          	sunpkd820	a7,a7
    8df6:	41fe5793          	srai	a5,t3,0x1f
    8dfa:	3fc12823          	sw	t3,1008(sp)
    8dfe:	3ef12a23          	sw	a5,1012(sp)
    8e02:	3f012703          	lw	a4,1008(sp)
    8e06:	3f412783          	lw	a5,1012(sp)
    8e0a:	8918177f          	smalbb	a4,a6,a7
    8e0e:	893a                	c.mv	s2,a4
    8e10:	ac9585ff          	sunpkd820	a1,a1
    8e14:	40ba05ff          	add16	a1,s4,a1
    8e18:	41f45793          	srai	a5,s0,0x1f
    8e1c:	3e812c23          	sw	s0,1016(sp)
    8e20:	3ef12e23          	sw	a5,1020(sp)
    8e24:	3f812703          	lw	a4,1016(sp)
    8e28:	3fc12783          	lw	a5,1020(sp)
    8e2c:	a918177f          	smaltt	a4,a6,a7
    8e30:	00e00d33          	add	s10,zero,a4
    8e34:	ac95057f          	sunpkd820	a0,a0
    8e38:	41f35793          	srai	a5,t1,0x1f
    8e3c:	40612023          	sw	t1,1024(sp)
    8e40:	40f12223          	sw	a5,1028(sp)
    8e44:	40012403          	lw	s0,1024(sp)
    8e48:	40412483          	lw	s1,1028(sp)
    8e4c:	88a5947f          	smalbb	s0,a1,a0
    8e50:	19812703          	lw	a4,408(sp)
    8e54:	41f75793          	srai	a5,a4,0x1f
    8e58:	40e12423          	sw	a4,1032(sp)
    8e5c:	40f12623          	sw	a5,1036(sp)
    8e60:	40812703          	lw	a4,1032(sp)
    8e64:	40c12783          	lw	a5,1036(sp)
    8e68:	a8a5977f          	smaltt	a4,a1,a0
    8e6c:	ffdfe06f          	j	7e68 <riscv_depthwise_conv_3x3_s8+0x5d8>
    8e70:	4776                	c.lwsp	a4,92(sp)
    8e72:	00060903          	lb	s2,0(a2)
    8e76:	00050b03          	lb	s6,0(a0) # 40000000 <_DATA_LMA_START+0x1fff4c20>
    8e7a:	12ed4363          	blt	s10,a4,8fa0 <riscv_depthwise_conv_3x3_s8+0x1710>
    8e7e:	997e                	c.add	s2,t6
    8e80:	01360733          	add	a4,a2,s3
    8e84:	c56917ff          	maddr32	a5,s2,s6
    8e88:	00070703          	lb	a4,0(a4)
    8e8c:	01350933          	add	s2,a0,s3
    8e90:	00090903          	lb	s2,0(s2)
    8e94:	977e                	c.add	a4,t6
    8e96:	c52717ff          	maddr32	a5,a4,s2
    8e9a:	19012703          	lw	a4,400(sp)
    8e9e:	a8875f63          	bge	a4,s0,813c <riscv_depthwise_conv_3x3_s8+0x8ac>
    8ea2:	00088703          	lb	a4,0(a7)
    8ea6:	00080b03          	lb	s6,0(a6) # 40000000 <_DATA_LMA_START+0x1fff4c20>
    8eaa:	01388933          	add	s2,a7,s3
    8eae:	977e                	c.add	a4,t6
    8eb0:	c56717ff          	maddr32	a5,a4,s6
    8eb4:	00090903          	lb	s2,0(s2)
    8eb8:	44c12703          	lw	a4,1100(sp)
    8ebc:	000e0b03          	lb	s6,0(t3)
    8ec0:	00173713          	seqz	a4,a4
    8ec4:	997e                	c.add	s2,t6
    8ec6:	0709                	c.addi	a4,2
    8ec8:	c56917ff          	maddr32	a5,s2,s6
    8ecc:	a6875863          	bge	a4,s0,813c <riscv_depthwise_conv_3x3_s8+0x8ac>
    8ed0:	44012d83          	lw	s11,1088(sp)
    8ed4:	00030903          	lb	s2,0(t1) # 40000000 <_DATA_LMA_START+0x1fff4c20>
    8ed8:	01b80733          	add	a4,a6,s11
    8edc:	00070b03          	lb	s6,0(a4)
    8ee0:	997e                	c.add	s2,t6
    8ee2:	01330733          	add	a4,t1,s3
    8ee6:	c52b17ff          	maddr32	a5,s6,s2
    8eea:	00070703          	lb	a4,0(a4)
    8eee:	01be0933          	add	s2,t3,s11
    8ef2:	00090903          	lb	s2,0(s2)
    8ef6:	977e                	c.add	a4,t6
    8ef8:	c52717ff          	maddr32	a5,a4,s2
    8efc:	a40ff06f          	j	813c <riscv_depthwise_conv_3x3_s8+0x8ac>
    8f00:	01360733          	add	a4,a2,s3
    8f04:	00070903          	lb	s2,0(a4)
    8f08:	01350733          	add	a4,a0,s3
    8f0c:	00070b03          	lb	s6,0(a4)
    8f10:	997e                	c.add	s2,t6
    8f12:	00960733          	add	a4,a2,s1
    8f16:	c56917ff          	maddr32	a5,s2,s6
    8f1a:	00070703          	lb	a4,0(a4)
    8f1e:	00950933          	add	s2,a0,s1
    8f22:	00090903          	lb	s2,0(s2)
    8f26:	977e                	c.add	a4,t6
    8f28:	c52717ff          	maddr32	a5,a4,s2
    8f2c:	19012703          	lw	a4,400(sp)
    8f30:	a0875663          	bge	a4,s0,813c <riscv_depthwise_conv_3x3_s8+0x8ac>
    8f34:	01388733          	add	a4,a7,s3
    8f38:	00070703          	lb	a4,0(a4)
    8f3c:	000e0b03          	lb	s6,0(t3)
    8f40:	00988933          	add	s2,a7,s1
    8f44:	977e                	c.add	a4,t6
    8f46:	c56717ff          	maddr32	a5,a4,s6
    8f4a:	00980733          	add	a4,a6,s1
    8f4e:	00070b03          	lb	s6,0(a4)
    8f52:	00090903          	lb	s2,0(s2)
    8f56:	44c12703          	lw	a4,1100(sp)
    8f5a:	00173713          	seqz	a4,a4
    8f5e:	997e                	c.add	s2,t6
    8f60:	0709                	c.addi	a4,2
    8f62:	c56917ff          	maddr32	a5,s2,s6
    8f66:	9c875b63          	bge	a4,s0,813c <riscv_depthwise_conv_3x3_s8+0x8ac>
    8f6a:	44012903          	lw	s2,1088(sp)
    8f6e:	01330733          	add	a4,t1,s3
    8f72:	00070b03          	lb	s6,0(a4)
    8f76:	012e0733          	add	a4,t3,s2
    8f7a:	00070d83          	lb	s11,0(a4)
    8f7e:	01090733          	add	a4,s2,a6
    8f82:	00930933          	add	s2,t1,s1
    8f86:	00090903          	lb	s2,0(s2)
    8f8a:	9b7e                	c.add	s6,t6
    8f8c:	9726                	c.add	a4,s1
    8f8e:	00070703          	lb	a4,0(a4)
    8f92:	c5bb17ff          	maddr32	a5,s6,s11
    8f96:	997e                	c.add	s2,t6
    8f98:	c52717ff          	maddr32	a5,a4,s2
    8f9c:	9a0ff06f          	j	813c <riscv_depthwise_conv_3x3_s8+0x8ac>
    8fa0:	997e                	c.add	s2,t6
    8fa2:	01360733          	add	a4,a2,s3
    8fa6:	c56917ff          	maddr32	a5,s2,s6
    8faa:	00070703          	lb	a4,0(a4)
    8fae:	01350933          	add	s2,a0,s3
    8fb2:	00090b03          	lb	s6,0(s2)
    8fb6:	977e                	c.add	a4,t6
    8fb8:	00960933          	add	s2,a2,s1
    8fbc:	c56717ff          	maddr32	a5,a4,s6
    8fc0:	00090903          	lb	s2,0(s2)
    8fc4:	00950733          	add	a4,a0,s1
    8fc8:	00070703          	lb	a4,0(a4)
    8fcc:	997e                	c.add	s2,t6
    8fce:	c4e917ff          	maddr32	a5,s2,a4
    8fd2:	19012703          	lw	a4,400(sp)
    8fd6:	96875363          	bge	a4,s0,813c <riscv_depthwise_conv_3x3_s8+0x8ac>
    8fda:	00088903          	lb	s2,0(a7)
    8fde:	00080b03          	lb	s6,0(a6)
    8fe2:	01388733          	add	a4,a7,s3
    8fe6:	997e                	c.add	s2,t6
    8fe8:	00070703          	lb	a4,0(a4)
    8fec:	c56917ff          	maddr32	a5,s2,s6
    8ff0:	000e0b03          	lb	s6,0(t3)
    8ff4:	977e                	c.add	a4,t6
    8ff6:	00988933          	add	s2,a7,s1
    8ffa:	c56717ff          	maddr32	a5,a4,s6
    8ffe:	00980733          	add	a4,a6,s1
    9002:	00070b03          	lb	s6,0(a4)
    9006:	00090903          	lb	s2,0(s2)
    900a:	44c12703          	lw	a4,1100(sp)
    900e:	00173713          	seqz	a4,a4
    9012:	997e                	c.add	s2,t6
    9014:	0709                	c.addi	a4,2
    9016:	c56917ff          	maddr32	a5,s2,s6
    901a:	92875163          	bge	a4,s0,813c <riscv_depthwise_conv_3x3_s8+0x8ac>
    901e:	44012703          	lw	a4,1088(sp)
    9022:	00030b03          	lb	s6,0(t1)
    9026:	9742                	c.add	a4,a6
    9028:	00070d83          	lb	s11,0(a4)
    902c:	9b7e                	c.add	s6,t6
    902e:	01330933          	add	s2,t1,s3
    9032:	c5bb17ff          	maddr32	a5,s6,s11
    9036:	44012b03          	lw	s6,1088(sp)
    903a:	00090903          	lb	s2,0(s2)
    903e:	9b72                	c.add	s6,t3
    9040:	000b0d83          	lb	s11,0(s6)
    9044:	00930b33          	add	s6,t1,s1
    9048:	000b0b03          	lb	s6,0(s6)
    904c:	997e                	c.add	s2,t6
    904e:	9726                	c.add	a4,s1
    9050:	00070703          	lb	a4,0(a4)
    9054:	c5b917ff          	maddr32	a5,s2,s11
    9058:	01fb0b33          	add	s6,s6,t6
    905c:	c4eb17ff          	maddr32	a5,s6,a4
    9060:	8dcff06f          	j	813c <riscv_depthwise_conv_3x3_s8+0x8ac>
    9064:	53012f03          	lw	t5,1328(sp)
    9068:	00000f93          	li	t6,0
    906c:	ffdfe06f          	j	8068 <riscv_depthwise_conv_3x3_s8+0x7d8>
    9070:	557d                	c.li	a0,-1
    9072:	9b6ff06f          	j	8228 <riscv_depthwise_conv_3x3_s8+0x998>
	...

00009078 <riscv_depthwise_conv_fast_s16>:
    9078:	7149                	c.addi16sp	sp,-368
    907a:	15912223          	sw	s9,324(sp)
    907e:	17412c83          	lw	s9,372(sp)
    9082:	15712623          	sw	s7,332(sp)
    9086:	15812423          	sw	s8,328(sp)
    908a:	00c6ab83          	lw	s7,12(a3)
    908e:	00ccac03          	lw	s8,12(s9)
    9092:	16112623          	sw	ra,364(sp)
    9096:	16812423          	sw	s0,360(sp)
    909a:	16912223          	sw	s1,356(sp)
    909e:	17212023          	sw	s2,352(sp)
    90a2:	15312e23          	sw	s3,348(sp)
    90a6:	15412c23          	sw	s4,344(sp)
    90aa:	15512a23          	sw	s5,340(sp)
    90ae:	15612823          	sw	s6,336(sp)
    90b2:	15a12023          	sw	s10,320(sp)
    90b6:	13b12e23          	sw	s11,316(sp)
    90ba:	c42e                	c.swsp	a1,8(sp)
    90bc:	dd3a                	c.swsp	a4,184(sp)
    90be:	d6c2                	c.swsp	a6,108(sp)
    90c0:	17812e83          	lw	t4,376(sp)
    90c4:	098b9ee3          	bne	s7,s8,9960 <riscv_depthwise_conv_fast_s16+0x8e8>
    90c8:	4798                	c.lw	a4,8(a5)
    90ca:	8b36                	c.mv	s6,a3
    90cc:	43d4                	c.lw	a3,4(a5)
    90ce:	d8ba                	c.swsp	a4,112(sp)
    90d0:	02d70733          	mul	a4,a4,a3
    90d4:	8abe                	c.mv	s5,a5
    90d6:	d936                	c.swsp	a3,176(sp)
    90d8:	1ff00793          	li	a5,511
    90dc:	08e7c2e3          	blt	a5,a4,9960 <riscv_depthwise_conv_fast_s16+0x8e8>
    90e0:	411c                	c.lw	a5,0(a0)
    90e2:	8a2a                	c.mv	s4,a0
    90e4:	c4be                	c.swsp	a5,72(sp)
    90e6:	8d32                	c.mv	s10,a2
    90e8:	040788e3          	beqz	a5,9938 <riscv_depthwise_conv_fast_s16+0x8c0>
    90ec:	008b2783          	lw	a5,8(s6)
    90f0:	000b2383          	lw	t2,0(s6)
    90f4:	ddbe                	c.swsp	a5,248(sp)
    90f6:	004ca783          	lw	a5,4(s9)
    90fa:	004b2283          	lw	t0,4(s6)
    90fe:	dfbe                	c.swsp	a5,252(sp)
    9100:	70705663          	blez	t2,980c <riscv_depthwise_conv_fast_s16+0x794>
    9104:	57ca                	c.lwsp	a5,176(sp)
    9106:	5346                	c.lwsp	t1,112(sp)
    9108:	001b9d93          	slli	s11,s7,0x1
    910c:	02678733          	mul	a4,a5,t1
    9110:	57ee                	c.lwsp	a5,248(sp)
    9112:	03730833          	mul	a6,t1,s7
    9116:	03778533          	mul	a0,a5,s7
    911a:	41fc5793          	srai	a5,s8,0x1f
    911e:	0037f693          	andi	a3,a5,3
    9122:	96e2                	c.add	a3,s8
    9124:	87ba                	c.mv	a5,a4
    9126:	837d                	c.srli	a4,0x1f
    9128:	973e                	c.add	a4,a5
    912a:	8689                	c.srai	a3,0x2
    912c:	40175893          	srai	a7,a4,0x1
    9130:	01069e13          	slli	t3,a3,0x10
    9134:	00151713          	slli	a4,a0,0x1
    9138:	01079693          	slli	a3,a5,0x10
    913c:	82c1                	c.srli	a3,0x10
    913e:	8b85                	c.andi	a5,1
    9140:	02e28a33          	mul	s4,t0,a4
    9144:	deba                	c.swsp	a4,124(sp)
    9146:	01089713          	slli	a4,a7,0x10
    914a:	010e5e13          	srli	t3,t3,0x10
    914e:	8341                	c.srli	a4,0x10
    9150:	d1b6                	c.swsp	a3,224(sp)
    9152:	c33e                	c.swsp	a5,132(sp)
    9154:	003c7693          	andi	a3,s8,3
    9158:	57fe                	c.lwsp	a5,252(sp)
    915a:	c3f2                	c.swsp	t3,196(sp)
    915c:	c13a                	c.swsp	a4,128(sp)
    915e:	c5b6                	c.swsp	a3,200(sp)
    9160:	004d8b13          	addi	s6,s11,4
    9164:	002b9f93          	slli	t6,s7,0x2
    9168:	6af05263          	blez	a5,980c <riscv_depthwise_conv_fast_s16+0x794>
    916c:	fffe0793          	addi	a5,t3,-1
    9170:	07c2                	c.slli	a5,0x10
    9172:	83c1                	c.srli	a5,0x10
    9174:	16fd                	c.addi	a3,-1
    9176:	00178513          	addi	a0,a5,1
    917a:	01069793          	slli	a5,a3,0x10
    917e:	fff30893          	addi	a7,t1,-1
    9182:	83c1                	c.srli	a5,0x10
    9184:	177d                	c.addi	a4,-1
    9186:	002e1313          	slli	t1,t3,0x2
    918a:	0742                	c.slli	a4,0x10
    918c:	00178e13          	addi	t3,a5,1
    9190:	037887b3          	mul	a5,a7,s7
    9194:	8341                	c.srli	a4,0x10
    9196:	0705                	c.addi	a4,1
    9198:	c53e                	c.swsp	a5,136(sp)
    919a:	02ed87b3          	mul	a5,s11,a4
    919e:	45a2                	c.lwsp	a1,8(sp)
    91a0:	004d2a83          	lw	s5,4(s10)
    91a4:	c93e                	c.swsp	a5,144(sp)
    91a6:	02ef87b3          	mul	a5,t6,a4
    91aa:	000d2c03          	lw	s8,0(s10)
    91ae:	00451693          	slli	a3,a0,0x4
    91b2:	c73e                	c.swsp	a5,140(sp)
    91b4:	87ae                	c.mv	a5,a1
    91b6:	47d8                	c.lw	a4,12(a5)
    91b8:	0247ad03          	lw	s10,36(a5)
    91bc:	579c                	c.lw	a5,40(a5)
    91be:	49d0                	c.lw	a2,20(a1)
    91c0:	d33e                	c.swsp	a5,164(sp)
    91c2:	00da87b3          	add	a5,s5,a3
    91c6:	0185af03          	lw	t5,24(a1)
    91ca:	dcbe                	c.swsp	a5,120(sp)
    91cc:	00dc07b3          	add	a5,s8,a3
    91d0:	cbbe                	c.swsp	a5,212(sp)
    91d2:	01031793          	slli	a5,t1,0x10
    91d6:	83c1                	c.srli	a5,0x10
    91d8:	0105d583          	lhu	a1,16(a1)
    91dc:	41e00f33          	neg	t5,t5
    91e0:	40c00633          	neg	a2,a2
    91e4:	008ca883          	lw	a7,8(s9)
    91e8:	df56                	c.swsp	s5,188(sp)
    91ea:	4c81                	c.li	s9,0
    91ec:	01061a93          	slli	s5,a2,0x10
    91f0:	c1e2                	c.swsp	s8,192(sp)
    91f2:	cfbe                	c.swsp	a5,220(sp)
    91f4:	010f1c13          	slli	s8,t5,0x10
    91f8:	00351793          	slli	a5,a0,0x3
    91fc:	010c5c13          	srli	s8,s8,0x10
    9200:	010ada93          	srli	s5,s5,0x10
    9204:	cdbe                	c.swsp	a5,216(sp)
    9206:	11412423          	sw	s4,264(sp)
    920a:	001e1793          	slli	a5,t3,0x1
    920e:	10e12823          	sw	a4,272(sp)
    9212:	da6a                	c.swsp	s10,52(sp)
    9214:	8742                	c.mv	a4,a6
    9216:	8a5a                	c.mv	s4,s6
    9218:	8866                	c.mv	a6,s9
    921a:	8d6e                	c.mv	s10,s11
    921c:	8cde                	c.mv	s9,s7
    921e:	db46                	c.swsp	a7,180(sp)
    9220:	0ef12223          	sw	a5,228(sp)
    9224:	11f12223          	sw	t6,260(sp)
    9228:	10712623          	sw	t2,268(sp)
    922c:	17d12c23          	sw	t4,376(sp)
    9230:	10b12a23          	sw	a1,276(sp)
    9234:	11512c23          	sw	s5,280(sp)
    9238:	11812e23          	sw	s8,284(sp)
    923c:	11015783          	lhu	a5,272(sp)
    9240:	11c12603          	lw	a2,284(sp)
    9244:	4681                	c.li	a3,0
    9246:	83d2                	c.mv	t2,s4
    9248:	10512023          	sw	t0,256(sp)
    924c:	13012023          	sw	a6,288(sp)
    9250:	8aea                	c.mv	s5,s10
    9252:	8836                	c.mv	a6,a3
    9254:	82e6                	c.mv	t0,s9
    9256:	86ba                	c.mv	a3,a4
    9258:	8a32                	c.mv	s4,a2
    925a:	c7be                	c.swsp	a5,204(sp)
    925c:	010a1793          	slli	a5,s4,0x10
    9260:	87c1                	c.srai	a5,0x10
    9262:	575a                	c.lwsp	a4,180(sp)
    9264:	cb3e                	c.swsp	a5,148(sp)
    9266:	56e05563          	blez	a4,97d0 <riscv_depthwise_conv_fast_s16+0x758>
    926a:	10012703          	lw	a4,256(sp)
    926e:	564a                	c.lwsp	a2,176(sp)
    9270:	40f70333          	sub	t1,a4,a5
    9274:	f066077f          	minw	a4,a2,t1
    9278:	40f00eb3          	neg	t4,a5
    927c:	40e607b3          	sub	a5,a2,a4
    9280:	02d787b3          	mul	a5,a5,a3
    9284:	daba                	c.swsp	a4,116(sp)
    9286:	02de8733          	mul	a4,t4,a3
    928a:	11812c03          	lw	s8,280(sp)
    928e:	4b81                	c.li	s7,0
    9290:	8f9e                	c.mv	t6,t2
    9292:	13412623          	sw	s4,300(sp)
    9296:	8396                	c.mv	t2,t0
    9298:	5a6e                	c.lwsp	s4,248(sp)
    929a:	10412283          	lw	t0,260(sp)
    929e:	17812d03          	lw	s10,376(sp)
    92a2:	0786                	c.slli	a5,0x1
    92a4:	8ce2                	c.mv	s9,s8
    92a6:	d5ba                	c.swsp	a4,232(sp)
    92a8:	8c5e                	c.mv	s8,s7
    92aa:	0706                	c.slli	a4,0x1
    92ac:	d7ba                	c.swsp	a4,236(sp)
    92ae:	d9be                	c.swsp	a5,240(sp)
    92b0:	12d12223          	sw	a3,292(sp)
    92b4:	13012423          	sw	a6,296(sp)
    92b8:	dbf6                	c.swsp	t4,244(sp)
    92ba:	c99a                	c.swsp	t1,208(sp)
    92bc:	dc22                	c.swsp	s0,56(sp)
    92be:	de26                	c.swsp	s1,60(sp)
    92c0:	c0ca                	c.swsp	s2,64(sp)
    92c2:	c2ce                	c.swsp	s3,68(sp)
    92c4:	46da                	c.lwsp	a3,148(sp)
    92c6:	010c9713          	slli	a4,s9,0x10
    92ca:	8741                	c.srai	a4,0x10
    92cc:	4781                	c.li	a5,0
    92ce:	4d81                	c.li	s11,0
    92d0:	0206d463          	bgez	a3,92f8 <riscv_depthwise_conv_fast_s16+0x280>
    92d4:	57de                	c.lwsp	a5,244(sp)
    92d6:	563e                	c.lwsp	a2,236(sp)
    92d8:	4526                	c.lwsp	a0,72(sp)
    92da:	4581                	c.li	a1,0
    92dc:	cc9e                	c.swsp	t2,88(sp)
    92de:	ca96                	c.swsp	t0,84(sp)
    92e0:	c8fe                	c.swsp	t6,80(sp)
    92e2:	c6ba                	c.swsp	a4,76(sp)
    92e4:	c43e                	c.swsp	a5,8(sp)
    92e6:	5dae                	c.lwsp	s11,232(sp)
    92e8:	7fe000ef          	jal	ra,9ae6 <memset>
    92ec:	43e6                	c.lwsp	t2,88(sp)
    92ee:	42d6                	c.lwsp	t0,84(sp)
    92f0:	4fc6                	c.lwsp	t6,80(sp)
    92f2:	4736                	c.lwsp	a4,76(sp)
    92f4:	00812783          	lw	a5,8(sp)
    92f8:	56d6                	c.lwsp	a3,116(sp)
    92fa:	08d7df63          	bge	a5,a3,9398 <riscv_depthwise_conv_fast_s16+0x320>
    92fe:	46da                	c.lwsp	a3,148(sp)
    9300:	863a                	c.mv	a2,a4
    9302:	96be                	c.add	a3,a5
    9304:	c546967f          	maddr32	a2,a3,s4
    9308:	56c6                	c.lwsp	a3,112(sp)
    930a:	84d6                	c.mv	s1,s5
    930c:	00e68bb3          	add	s7,a3,a4
    9310:	56ea                	c.lwsp	a3,184(sp)
    9312:	17a12c23          	sw	s10,376(sp)
    9316:	897e                	c.mv	s2,t6
    9318:	c55616ff          	maddr32	a3,a2,s5
    931c:	843a                	c.mv	s0,a4
    931e:	89be                	c.mv	s3,a5
    9320:	8aee                	c.mv	s5,s11
    9322:	8b36                	c.mv	s6,a3
    9324:	8d1e                	c.mv	s10,t2
    9326:	c416                	c.swsp	t0,8(sp)
    9328:	c6e2                	c.swsp	s8,76(sp)
    932a:	c8e6                	c.swsp	s9,80(sp)
    932c:	57c6                	c.lwsp	a5,112(sp)
    932e:	04f05563          	blez	a5,9378 <riscv_depthwise_conv_fast_s16+0x300>
    9332:	47a6                	c.lwsp	a5,72(sp)
    9334:	001a9813          	slli	a6,s5,0x1
    9338:	01078db3          	add	s11,a5,a6
    933c:	8cda                	c.mv	s9,s6
    933e:	8c22                	c.mv	s8,s0
    9340:	0100006f          	j	9350 <riscv_depthwise_conv_fast_s16+0x2d8>
    9344:	0c05                	c.addi	s8,1
    9346:	9da6                	c.add	s11,s1
    9348:	9ca6                	c.add	s9,s1
    934a:	2f71                	c.jal	9ae6 <memset>
    934c:	038b8063          	beq	s7,s8,936c <riscv_depthwise_conv_fast_s16+0x2f4>
    9350:	8626                	c.mv	a2,s1
    9352:	4581                	c.li	a1,0
    9354:	856e                	c.mv	a0,s11
    9356:	fe0c47e3          	bltz	s8,9344 <riscv_depthwise_conv_fast_s16+0x2cc>
    935a:	ff4c55e3          	bge	s8,s4,9344 <riscv_depthwise_conv_fast_s16+0x2cc>
    935e:	85e6                	c.mv	a1,s9
    9360:	0c05                	c.addi	s8,1
    9362:	9da6                	c.add	s11,s1
    9364:	9ca6                	c.add	s9,s1
    9366:	2559                	c.jal	99ec <memcpy>
    9368:	ff8b94e3          	bne	s7,s8,9350 <riscv_depthwise_conv_fast_s16+0x2d8>
    936c:	08812783          	lw	a5,136(sp)
    9370:	015d0633          	add	a2,s10,s5
    9374:	00c78ab3          	add	s5,a5,a2
    9378:	57f6                	c.lwsp	a5,124(sp)
    937a:	0985                	c.addi	s3,1
    937c:	9b3e                	c.add	s6,a5
    937e:	57d6                	c.lwsp	a5,116(sp)
    9380:	faf996e3          	bne	s3,a5,932c <riscv_depthwise_conv_fast_s16+0x2b4>
    9384:	83ea                	c.mv	t2,s10
    9386:	42a2                	c.lwsp	t0,8(sp)
    9388:	4c36                	c.lwsp	s8,76(sp)
    938a:	4cc6                	c.lwsp	s9,80(sp)
    938c:	17812d03          	lw	s10,376(sp)
    9390:	8dd6                	c.mv	s11,s5
    9392:	8fca                	c.mv	t6,s2
    9394:	00900ab3          	add	s5,zero,s1
    9398:	57ca                	c.lwsp	a5,176(sp)
    939a:	474e                	c.lwsp	a4,208(sp)
    939c:	56f74663          	blt	a4,a5,9908 <riscv_depthwise_conv_fast_s16+0x890>
    93a0:	0c412783          	lw	a5,196(sp)
    93a4:	58078263          	beqz	a5,9928 <riscv_depthwise_conv_fast_s16+0x8b0>
    93a8:	c46a                	c.swsp	s10,8(sp)
    93aa:	17a12c23          	sw	s10,376(sp)
    93ae:	430e                	c.lwsp	t1,192(sp)
    93b0:	5dfa                	c.lwsp	s11,188(sp)
    93b2:	17012e83          	lw	t4,368(sp)
    93b6:	5d1a                	c.lwsp	s10,164(sp)
    93b8:	5462                	c.lwsp	s0,56(sp)
    93ba:	54f2                	c.lwsp	s1,60(sp)
    93bc:	4906                	c.lwsp	s2,64(sp)
    93be:	4996                	c.lwsp	s3,68(sp)
    93c0:	4f01                	c.li	t5,0
    93c2:	cd52                	c.swsp	s4,152(sp)
    93c4:	cf62                	c.swsp	s8,156(sp)
    93c6:	d166                	c.swsp	s9,160(sp)
    93c8:	00032783          	lw	a5,0(t1)
    93cc:	7fff0737          	lui	a4,0x7fff0
    93d0:	48e7de63          	bge	a5,a4,986c <riscv_depthwise_conv_fast_s16+0x7f4>
    93d4:	6721                	c.lui	a4,0x8
    93d6:	97ba                	c.add	a5,a4
    93d8:	4107d713          	srai	a4,a5,0x10
    93dc:	41f7de13          	srai	t3,a5,0x1f
    93e0:	02e12c23          	sw	a4,56(sp)
    93e4:	00432783          	lw	a5,4(t1)
    93e8:	7fff0737          	lui	a4,0x7fff0
    93ec:	46e7da63          	bge	a5,a4,9860 <riscv_depthwise_conv_fast_s16+0x7e8>
    93f0:	6721                	c.lui	a4,0x8
    93f2:	97ba                	c.add	a5,a4
    93f4:	4107d713          	srai	a4,a5,0x10
    93f8:	87fd                	c.srai	a5,0x1f
    93fa:	c0ba                	c.swsp	a4,64(sp)
    93fc:	04f12623          	sw	a5,76(sp)
    9400:	00832783          	lw	a5,8(t1)
    9404:	7fff0737          	lui	a4,0x7fff0
    9408:	44e7d663          	bge	a5,a4,9854 <riscv_depthwise_conv_fast_s16+0x7dc>
    940c:	6721                	c.lui	a4,0x8
    940e:	97ba                	c.add	a5,a4
    9410:	4107d713          	srai	a4,a5,0x10
    9414:	87fd                	c.srai	a5,0x1f
    9416:	c8ba                	c.swsp	a4,80(sp)
    9418:	04f12a23          	sw	a5,84(sp)
    941c:	00c32783          	lw	a5,12(t1)
    9420:	7fff0737          	lui	a4,0x7fff0
    9424:	42e7d263          	bge	a5,a4,9848 <riscv_depthwise_conv_fast_s16+0x7d0>
    9428:	6721                	c.lui	a4,0x8
    942a:	97ba                	c.add	a5,a4
    942c:	4107d713          	srai	a4,a5,0x10
    9430:	87fd                	c.srai	a5,0x1f
    9432:	ccba                	c.swsp	a4,88(sp)
    9434:	04f12e23          	sw	a5,92(sp)
    9438:	5736                	c.lwsp	a4,108(sp)
    943a:	004f0793          	addi	a5,t5,4
    943e:	01e70cb3          	add	s9,a4,t5
    9442:	460a                	c.lwsp	a2,128(sp)
    9444:	4726                	c.lwsp	a4,72(sp)
    9446:	001f1893          	slli	a7,t5,0x1
    944a:	01079f13          	slli	t5,a5,0x10
    944e:	0341                	c.addi	t1,16
    9450:	98ba                	c.add	a7,a4
    9452:	010f5f13          	srli	t5,t5,0x10
    9456:	48060f63          	beqz	a2,98f4 <riscv_depthwise_conv_fast_s16+0x87c>
    945a:	8866                	c.mv	a6,s9
    945c:	86c6                	c.mv	a3,a7
    945e:	4a01                	c.li	s4,0
    9460:	4b01                	c.li	s6,0
    9462:	4b81                	c.li	s7,0
    9464:	4c01                	c.li	s8,0
    9466:	d0ee                	c.swsp	s11,96(sp)
    9468:	d29a                	c.swsp	t1,100(sp)
    946a:	d4c6                	c.swsp	a7,104(sp)
    946c:	00082583          	lw	a1,0(a6)
    9470:	00780733          	add	a4,a6,t2
    9474:	4318                	c.lw	a4,0(a4)
    9476:	0006a303          	lw	t1,0(a3)
    947a:	00da87b3          	add	a5,s5,a3
    947e:	439c                	c.lw	a5,0(a5)
    9480:	ac95857f          	sunpkd820	a0,a1
    9484:	842e                	c.mv	s0,a1
    9486:	84ae                	c.mv	s1,a1
    9488:	de8405ff          	wexti	a1,s0,8
    948c:	ac9585ff          	sunpkd820	a1,a1
    9490:	ac970dff          	sunpkd820	s11,a4
    9494:	893a                	c.mv	s2,a4
    9496:	89ba                	c.mv	s3,a4
    9498:	de89077f          	wexti	a4,s2,8
    949c:	ac97077f          	sunpkd820	a4,a4
    94a0:	0ef318ff          	pkbb16	a7,t1,a5
    94a4:	2e6797ff          	pktt16	a5,a5,t1
    94a8:	0fb5137f          	pkbb16	t1,a0,s11
    94ac:	48689c7f          	kmada	s8,a7,t1
    94b0:	0eb718ff          	pkbb16	a7,a4,a1
    94b4:	49179bff          	kmada	s7,a5,a7
    94b8:	00468793          	addi	a5,a3,4
    94bc:	0007a303          	lw	t1,0(a5)
    94c0:	00df87b3          	add	a5,t6,a3
    94c4:	439c                	c.lw	a5,0(a5)
    94c6:	0ef318ff          	pkbb16	a7,t1,a5
    94ca:	2e6797ff          	pktt16	a5,a5,t1
    94ce:	2fb5157f          	pktt16	a0,a0,s11
    94d2:	48a89b7f          	kmada	s6,a7,a0
    94d6:	2eb7177f          	pktt16	a4,a4,a1
    94da:	48e79a7f          	kmada	s4,a5,a4
    94de:	167d                	c.addi	a2,-1
    94e0:	0642                	c.slli	a2,0x10
    94e2:	8241                	c.srli	a2,0x10
    94e4:	9856                	c.add	a6,s5
    94e6:	9696                	c.add	a3,t0
    94e8:	f251                	c.bnez	a2,946c <riscv_depthwise_conv_fast_s16+0x3f4>
    94ea:	47ca                	c.lwsp	a5,144(sp)
    94ec:	58a6                	c.lwsp	a7,104(sp)
    94ee:	9cbe                	c.add	s9,a5
    94f0:	47ba                	c.lwsp	a5,140(sp)
    94f2:	5d86                	c.lwsp	s11,96(sp)
    94f4:	5316                	c.lwsp	t1,100(sp)
    94f6:	98be                	c.add	a7,a5
    94f8:	479a                	c.lwsp	a5,132(sp)
    94fa:	cb8d                	c.beqz	a5,952c <riscv_depthwise_conv_fast_s16+0x4b4>
    94fc:	00089583          	lh	a1,0(a7)
    9500:	00289683          	lh	a3,2(a7)
    9504:	00489783          	lh	a5,4(a7)
    9508:	000c8503          	lb	a0,0(s9)
    950c:	001c8603          	lb	a2,1(s9)
    9510:	002c8703          	lb	a4,2(s9)
    9514:	003c8803          	lb	a6,3(s9)
    9518:	00689883          	lh	a7,6(a7)
    951c:	c4b51c7f          	maddr32	s8,a0,a1
    9520:	c4d61bff          	maddr32	s7,a2,a3
    9524:	c4f71b7f          	maddr32	s6,a4,a5
    9528:	c5181a7f          	maddr32	s4,a6,a7
    952c:	41fc5793          	srai	a5,s8,0x1f
    9530:	ca3e                	c.swsp	a5,20(sp)
    9532:	41fbd793          	srai	a5,s7,0x1f
    9536:	ce3e                	c.swsp	a5,28(sp)
    9538:	41fb5793          	srai	a5,s6,0x1f
    953c:	d23e                	c.swsp	a5,36(sp)
    953e:	41fa5793          	srai	a5,s4,0x1f
    9542:	c862                	c.swsp	s8,16(sp)
    9544:	cc5e                	c.swsp	s7,24(sp)
    9546:	d05a                	c.swsp	s6,32(sp)
    9548:	d452                	c.swsp	s4,40(sp)
    954a:	d63e                	c.swsp	a5,44(sp)
    954c:	040e8c63          	beqz	t4,95a4 <riscv_depthwise_conv_fast_s16+0x52c>
    9550:	000ea803          	lw	a6,0(t4)
    9554:	004ea883          	lw	a7,4(t4)
    9558:	4b42                	c.lwsp	s6,16(sp)
    955a:	4bd2                	c.lwsp	s7,20(sp)
    955c:	008ea503          	lw	a0,8(t4)
    9560:	00cea583          	lw	a1,12(t4)
    9564:	c10b187f          	add64	a6,s6,a6
    9568:	c842                	c.swsp	a6,16(sp)
    956a:	ca46                	c.swsp	a7,20(sp)
    956c:	4862                	c.lwsp	a6,24(sp)
    956e:	48f2                	c.lwsp	a7,28(sp)
    9570:	010ea603          	lw	a2,16(t4)
    9574:	014ea683          	lw	a3,20(t4)
    9578:	c0a8157f          	add64	a0,a6,a0
    957c:	cc2a                	c.swsp	a0,24(sp)
    957e:	ce2e                	c.swsp	a1,28(sp)
    9580:	5502                	c.lwsp	a0,32(sp)
    9582:	5592                	c.lwsp	a1,36(sp)
    9584:	018ea703          	lw	a4,24(t4)
    9588:	01cea783          	lw	a5,28(t4)
    958c:	c0c5167f          	add64	a2,a0,a2
    9590:	d032                	c.swsp	a2,32(sp)
    9592:	d236                	c.swsp	a3,36(sp)
    9594:	5622                	c.lwsp	a2,40(sp)
    9596:	56b2                	c.lwsp	a3,44(sp)
    9598:	020e8e93          	addi	t4,t4,32
    959c:	c0e6177f          	add64	a4,a2,a4
    95a0:	d43a                	c.swsp	a4,40(sp)
    95a2:	d63e                	c.swsp	a5,44(sp)
    95a4:	4742                	c.lwsp	a4,16(sp)
    95a6:	55e2                	c.lwsp	a1,56(sp)
    95a8:	47d2                	c.lwsp	a5,20(sp)
    95aa:	02ee0633          	mul	a2,t3,a4
    95ae:	000da683          	lw	a3,0(s11)
    95b2:	f0b7187f          	mulr64	a6,a4,a1
    95b6:	c4f5967f          	maddr32	a2,a1,a5
    95ba:	47b9                	c.li	a5,14
    95bc:	40d786b3          	sub	a3,a5,a3
    95c0:	fe068593          	addi	a1,a3,-32
    95c4:	00c888b3          	add	a7,a7,a2
    95c8:	2e05ca63          	bltz	a1,98bc <riscv_depthwise_conv_fast_s16+0x844>
    95cc:	40b8d6b3          	sra	a3,a7,a1
    95d0:	47b6                	c.lwsp	a5,76(sp)
    95d2:	4862                	c.lwsp	a6,24(sp)
    95d4:	55d2                	c.lwsp	a1,52(sp)
    95d6:	0685                	c.addi	a3,1
    95d8:	03078633          	mul	a2,a5,a6
    95dc:	48f2                	c.lwsp	a7,28(sp)
    95de:	004da783          	lw	a5,4(s11)
    95e2:	4706                	c.lwsp	a4,64(sp)
    95e4:	8685                	c.srai	a3,0x1
    95e6:	f2b686ff          	maxw	a3,a3,a1
    95ea:	45b9                	c.li	a1,14
    95ec:	8d9d                	c.sub	a1,a5
    95ee:	47a2                	c.lwsp	a5,8(sp)
    95f0:	c517167f          	maddr32	a2,a4,a7
    95f4:	f0dd06ff          	minw	a3,s10,a3
    95f8:	f0e8187f          	mulr64	a6,a6,a4
    95fc:	fe058513          	addi	a0,a1,-32
    9600:	00d79023          	sh	a3,0(a5)
    9604:	00c888b3          	add	a7,a7,a2
    9608:	2a054063          	bltz	a0,98a8 <riscv_depthwise_conv_fast_s16+0x830>
    960c:	40a8d533          	sra	a0,a7,a0
    9610:	47d6                	c.lwsp	a5,84(sp)
    9612:	5802                	c.lwsp	a6,32(sp)
    9614:	5892                	c.lwsp	a7,36(sp)
    9616:	03078633          	mul	a2,a5,a6
    961a:	4746                	c.lwsp	a4,80(sp)
    961c:	008da783          	lw	a5,8(s11)
    9620:	56d2                	c.lwsp	a3,52(sp)
    9622:	0505                	c.addi	a0,1
    9624:	8505                	c.srai	a0,0x1
    9626:	45b9                	c.li	a1,14
    9628:	f2d5057f          	maxw	a0,a0,a3
    962c:	8d9d                	c.sub	a1,a5
    962e:	47a2                	c.lwsp	a5,8(sp)
    9630:	c517167f          	maddr32	a2,a4,a7
    9634:	f0ad06ff          	minw	a3,s10,a0
    9638:	f0e8187f          	mulr64	a6,a6,a4
    963c:	fe058513          	addi	a0,a1,-32
    9640:	00d79123          	sh	a3,2(a5)
    9644:	00c888b3          	add	a7,a7,a2
    9648:	24054463          	bltz	a0,9890 <riscv_depthwise_conv_fast_s16+0x818>
    964c:	40a8d533          	sra	a0,a7,a0
    9650:	47f6                	c.lwsp	a5,92(sp)
    9652:	5822                	c.lwsp	a6,40(sp)
    9654:	58b2                	c.lwsp	a7,44(sp)
    9656:	03078633          	mul	a2,a5,a6
    965a:	4766                	c.lwsp	a4,88(sp)
    965c:	00cda783          	lw	a5,12(s11)
    9660:	56d2                	c.lwsp	a3,52(sp)
    9662:	0505                	c.addi	a0,1
    9664:	8505                	c.srai	a0,0x1
    9666:	45b9                	c.li	a1,14
    9668:	f2d5057f          	maxw	a0,a0,a3
    966c:	8d9d                	c.sub	a1,a5
    966e:	47a2                	c.lwsp	a5,8(sp)
    9670:	c517167f          	maddr32	a2,a4,a7
    9674:	f0ad06ff          	minw	a3,s10,a0
    9678:	f0e8187f          	mulr64	a6,a6,a4
    967c:	fe058513          	addi	a0,a1,-32
    9680:	00d79223          	sh	a3,4(a5)
    9684:	0dc1                	c.addi	s11,16
    9686:	98b2                	c.add	a7,a2
    9688:	1e054863          	bltz	a0,9878 <riscv_depthwise_conv_fast_s16+0x800>
    968c:	40a8d533          	sra	a0,a7,a0
    9690:	5752                	c.lwsp	a4,52(sp)
    9692:	00150793          	addi	a5,a0,1
    9696:	8785                	c.srai	a5,0x1
    9698:	f2e787ff          	maxw	a5,a5,a4
    969c:	4722                	c.lwsp	a4,8(sp)
    969e:	f0fd07ff          	minw	a5,s10,a5
    96a2:	0721                	c.addi	a4,8
    96a4:	fef71f23          	sh	a5,-2(a4) # 7ffe <riscv_depthwise_conv_3x3_s8+0x76e>
    96a8:	57e6                	c.lwsp	a5,120(sp)
    96aa:	c43a                	c.swsp	a4,8(sp)
    96ac:	d0fd9ee3          	bne	s11,a5,93c8 <riscv_depthwise_conv_fast_s16+0x350>
    96b0:	17812d03          	lw	s10,376(sp)
    96b4:	853e                	c.mv	a0,a5
    96b6:	47ee                	c.lwsp	a5,216(sp)
    96b8:	4a6a                	c.lwsp	s4,152(sp)
    96ba:	4c7a                	c.lwsp	s8,156(sp)
    96bc:	5c8a                	c.lwsp	s9,160(sp)
    96be:	467e                	c.lwsp	a2,220(sp)
    96c0:	45de                	c.lwsp	a1,212(sp)
    96c2:	8776                	c.mv	a4,t4
    96c4:	9d3e                	c.add	s10,a5
    96c6:	dc22                	c.swsp	s0,56(sp)
    96c8:	de26                	c.swsp	s1,60(sp)
    96ca:	c0ca                	c.swsp	s2,64(sp)
    96cc:	05312223          	sw	s3,68(sp)
    96d0:	47ae                	c.lwsp	a5,200(sp)
    96d2:	c7f9                	c.beqz	a5,97a0 <riscv_depthwise_conv_fast_s16+0x728>
    96d4:	00c788b3          	add	a7,a5,a2
    96d8:	08c2                	c.slli	a7,0x10
    96da:	5b0e                	c.lwsp	s6,224(sp)
    96dc:	59d2                	c.lwsp	s3,52(sp)
    96de:	531a                	c.lwsp	t1,164(sp)
    96e0:	0108d893          	srli	a7,a7,0x10
    96e4:	886a                	c.mv	a6,s10
    96e6:	4f7d                	c.li	t5,31
    96e8:	00e006b3          	add	a3,zero,a4
    96ec:	00160713          	addi	a4,a2,1
    96f0:	87b2                	c.mv	a5,a2
    96f2:	01071613          	slli	a2,a4,0x10
    96f6:	8241                	c.srli	a2,0x10
    96f8:	200b0463          	beqz	s6,9900 <riscv_depthwise_conv_fast_s16+0x888>
    96fc:	5436                	c.lwsp	s0,108(sp)
    96fe:	00179713          	slli	a4,a5,0x1
    9702:	97a2                	c.add	a5,s0
    9704:	4426                	c.lwsp	s0,72(sp)
    9706:	4b81                	c.li	s7,0
    9708:	9722                	c.add	a4,s0
    970a:	4d81                	c.li	s11,0
    970c:	00078483          	lb	s1,0(a5)
    9710:	00071403          	lh	s0,0(a4)
    9714:	0b85                	c.addi	s7,1
    9716:	979e                	c.add	a5,t2
    9718:	c4849dff          	maddr32	s11,s1,s0
    971c:	9756                	c.add	a4,s5
    971e:	ff6b97e3          	bne	s7,s6,970c <riscv_depthwise_conv_fast_s16+0x694>
    9722:	8e6e                	c.mv	t3,s11
    9724:	41fdde93          	srai	t4,s11,0x1f
    9728:	c691                	c.beqz	a3,9734 <riscv_depthwise_conv_fast_s16+0x6bc>
    972a:	4298                	c.lw	a4,0(a3)
    972c:	42dc                	c.lw	a5,4(a3)
    972e:	06a1                	c.addi	a3,8
    9730:	c0ee1e7f          	add64	t3,t3,a4
    9734:	419c                	c.lw	a5,0(a1)
    9736:	7fff0737          	lui	a4,0x7fff0
    973a:	18e7db63          	bge	a5,a4,98d0 <riscv_depthwise_conv_fast_s16+0x858>
    973e:	6721                	c.lui	a4,0x8
    9740:	00e78db3          	add	s11,a5,a4
    9744:	410dd493          	srai	s1,s11,0x10
    9748:	41fddd93          	srai	s11,s11,0x1f
    974c:	03cd8db3          	mul	s11,s11,t3
    9750:	f09e177f          	mulr64	a4,t3,s1
    9754:	00052b83          	lw	s7,0(a0)
    9758:	c63e                	c.swsp	a5,12(sp)
    975a:	47b9                	c.li	a5,14
    975c:	c5d49dff          	maddr32	s11,s1,t4
    9760:	417784b3          	sub	s1,a5,s7
    9764:	47b2                	c.lwsp	a5,12(sp)
    9766:	fe048b93          	addi	s7,s1,-32
    976a:	97ee                	c.add	a5,s11
    976c:	c43a                	c.swsp	a4,8(sp)
    976e:	c63e                	c.swsp	a5,12(sp)
    9770:	00450513          	addi	a0,a0,4
    9774:	160bc463          	bltz	s7,98dc <riscv_depthwise_conv_fast_s16+0x864>
    9778:	4177dbb3          	sra	s7,a5,s7
    977c:	001b8793          	addi	a5,s7,1
    9780:	8785                	c.srai	a5,0x1
    9782:	f33787ff          	maxw	a5,a5,s3
    9786:	0809                	c.addi	a6,2
    9788:	f0f307ff          	minw	a5,t1,a5
    978c:	fef81f23          	sh	a5,-2(a6)
    9790:	0591                	c.addi	a1,4
    9792:	f5161de3          	bne	a2,a7,96ec <riscv_depthwise_conv_fast_s16+0x674>
    9796:	579e                	c.lwsp	a5,228(sp)
    9798:	d572                	c.swsp	t3,168(sp)
    979a:	9d3e                	c.add	s10,a5
    979c:	0bd12623          	sw	t4,172(sp)
    97a0:	47be                	c.lwsp	a5,204(sp)
    97a2:	0c05                	c.addi	s8,1
    97a4:	97e6                	c.add	a5,s9
    97a6:	01079c93          	slli	s9,a5,0x10
    97aa:	57da                	c.lwsp	a5,180(sp)
    97ac:	010cdc93          	srli	s9,s9,0x10
    97b0:	b1879ae3          	bne	a5,s8,92c4 <riscv_depthwise_conv_fast_s16+0x24c>
    97b4:	12412683          	lw	a3,292(sp)
    97b8:	12812803          	lw	a6,296(sp)
    97bc:	12c12a03          	lw	s4,300(sp)
    97c0:	5462                	c.lwsp	s0,56(sp)
    97c2:	54f2                	c.lwsp	s1,60(sp)
    97c4:	4906                	c.lwsp	s2,64(sp)
    97c6:	4996                	c.lwsp	s3,68(sp)
    97c8:	829e                	c.mv	t0,t2
    97ca:	83fe                	c.mv	t2,t6
    97cc:	17a12c23          	sw	s10,376(sp)
    97d0:	11412783          	lw	a5,276(sp)
    97d4:	0805                	c.addi	a6,1
    97d6:	97d2                	c.add	a5,s4
    97d8:	01079a13          	slli	s4,a5,0x10
    97dc:	57fe                	c.lwsp	a5,252(sp)
    97de:	010a5a13          	srli	s4,s4,0x10
    97e2:	a7079de3          	bne	a5,a6,925c <riscv_depthwise_conv_fast_s16+0x1e4>
    97e6:	57ea                	c.lwsp	a5,184(sp)
    97e8:	8736                	c.mv	a4,a3
    97ea:	10812683          	lw	a3,264(sp)
    97ee:	12012803          	lw	a6,288(sp)
    97f2:	97b6                	c.add	a5,a3
    97f4:	dd3e                	c.swsp	a5,184(sp)
    97f6:	10c12783          	lw	a5,268(sp)
    97fa:	0805                	c.addi	a6,1
    97fc:	8c96                	c.mv	s9,t0
    97fe:	8d56                	c.mv	s10,s5
    9800:	10012283          	lw	t0,256(sp)
    9804:	00700a33          	add	s4,zero,t2
    9808:	a3079ae3          	bne	a5,a6,923c <riscv_depthwise_conv_fast_s16+0x1c4>
    980c:	00000513          	li	a0,0
    9810:	16c12083          	lw	ra,364(sp)
    9814:	16812403          	lw	s0,360(sp)
    9818:	16412483          	lw	s1,356(sp)
    981c:	16012903          	lw	s2,352(sp)
    9820:	15c12983          	lw	s3,348(sp)
    9824:	15812a03          	lw	s4,344(sp)
    9828:	15412a83          	lw	s5,340(sp)
    982c:	15012b03          	lw	s6,336(sp)
    9830:	14c12b83          	lw	s7,332(sp)
    9834:	14812c03          	lw	s8,328(sp)
    9838:	14412c83          	lw	s9,324(sp)
    983c:	14012d03          	lw	s10,320(sp)
    9840:	13c12d83          	lw	s11,316(sp)
    9844:	6175                	c.addi16sp	sp,368
    9846:	8082                	c.jr	ra
    9848:	67a1                	c.lui	a5,0x8
    984a:	17fd                	c.addi	a5,-1
    984c:	ccbe                	c.swsp	a5,88(sp)
    984e:	ce82                	c.swsp	zero,92(sp)
    9850:	be9ff06f          	j	9438 <riscv_depthwise_conv_fast_s16+0x3c0>
    9854:	67a1                	c.lui	a5,0x8
    9856:	17fd                	c.addi	a5,-1
    9858:	c8be                	c.swsp	a5,80(sp)
    985a:	ca82                	c.swsp	zero,84(sp)
    985c:	bc1ff06f          	j	941c <riscv_depthwise_conv_fast_s16+0x3a4>
    9860:	67a1                	c.lui	a5,0x8
    9862:	17fd                	c.addi	a5,-1
    9864:	c0be                	c.swsp	a5,64(sp)
    9866:	c682                	c.swsp	zero,76(sp)
    9868:	b99ff06f          	j	9400 <riscv_depthwise_conv_fast_s16+0x388>
    986c:	67a1                	c.lui	a5,0x8
    986e:	17fd                	c.addi	a5,-1
    9870:	4e01                	c.li	t3,0
    9872:	dc3e                	c.swsp	a5,56(sp)
    9874:	b71ff06f          	j	93e4 <riscv_depthwise_conv_fast_s16+0x36c>
    9878:	477d                	c.li	a4,31
    987a:	00189793          	slli	a5,a7,0x1
    987e:	40b706b3          	sub	a3,a4,a1
    9882:	00d797b3          	sll	a5,a5,a3
    9886:	00b85533          	srl	a0,a6,a1
    988a:	8d5d                	c.or	a0,a5
    988c:	e05ff06f          	j	9690 <riscv_depthwise_conv_fast_s16+0x618>
    9890:	477d                	c.li	a4,31
    9892:	00189793          	slli	a5,a7,0x1
    9896:	40b706b3          	sub	a3,a4,a1
    989a:	00d797b3          	sll	a5,a5,a3
    989e:	00b85533          	srl	a0,a6,a1
    98a2:	8d5d                	c.or	a0,a5
    98a4:	dadff06f          	j	9650 <riscv_depthwise_conv_fast_s16+0x5d8>
    98a8:	47fd                	c.li	a5,31
    98aa:	00189693          	slli	a3,a7,0x1
    98ae:	8f8d                	c.sub	a5,a1
    98b0:	00f697b3          	sll	a5,a3,a5
    98b4:	00b85533          	srl	a0,a6,a1
    98b8:	8d5d                	c.or	a0,a5
    98ba:	bb99                	c.j	9610 <riscv_depthwise_conv_fast_s16+0x598>
    98bc:	47fd                	c.li	a5,31
    98be:	8f95                	c.sub	a5,a3
    98c0:	00189613          	slli	a2,a7,0x1
    98c4:	00f617b3          	sll	a5,a2,a5
    98c8:	00d856b3          	srl	a3,a6,a3
    98cc:	8edd                	c.or	a3,a5
    98ce:	b309                	c.j	95d0 <riscv_depthwise_conv_fast_s16+0x558>
    98d0:	67a1                	c.lui	a5,0x8
    98d2:	fff78493          	addi	s1,a5,-1 # 7fff <riscv_depthwise_conv_3x3_s8+0x76f>
    98d6:	4d81                	c.li	s11,0
    98d8:	e75ff06f          	j	974c <riscv_depthwise_conv_fast_s16+0x6d4>
    98dc:	4722                	c.lwsp	a4,8(sp)
    98de:	00179b93          	slli	s7,a5,0x1
    98e2:	409f07b3          	sub	a5,t5,s1
    98e6:	00fb97b3          	sll	a5,s7,a5
    98ea:	00975bb3          	srl	s7,a4,s1
    98ee:	0177ebb3          	or	s7,a5,s7
    98f2:	b569                	c.j	977c <riscv_depthwise_conv_fast_s16+0x704>
    98f4:	4a01                	c.li	s4,0
    98f6:	4b01                	c.li	s6,0
    98f8:	4b81                	c.li	s7,0
    98fa:	4c01                	c.li	s8,0
    98fc:	bfdff06f          	j	94f8 <riscv_depthwise_conv_fast_s16+0x480>
    9900:	4e01                	c.li	t3,0
    9902:	4e81                	c.li	t4,0
    9904:	e25ff06f          	j	9728 <riscv_depthwise_conv_fast_s16+0x6b0>
    9908:	47a6                	c.lwsp	a5,72(sp)
    990a:	564e                	c.lwsp	a2,240(sp)
    990c:	001d9513          	slli	a0,s11,0x1
    9910:	953e                	c.add	a0,a5
    9912:	4581                	c.li	a1,0
    9914:	c89e                	c.swsp	t2,80(sp)
    9916:	c696                	c.swsp	t0,76(sp)
    9918:	c47e                	c.swsp	t6,8(sp)
    991a:	22f1                	c.jal	9ae6 <memset>
    991c:	479e                	c.lwsp	a5,196(sp)
    991e:	43c6                	c.lwsp	t2,80(sp)
    9920:	42b6                	c.lwsp	t0,76(sp)
    9922:	4fa2                	c.lwsp	t6,8(sp)
    9924:	a80792e3          	bnez	a5,93a8 <riscv_depthwise_conv_fast_s16+0x330>
    9928:	17012783          	lw	a5,368(sp)
    992c:	458e                	c.lwsp	a1,192(sp)
    992e:	557a                	c.lwsp	a0,188(sp)
    9930:	4601                	c.li	a2,0
    9932:	873e                	c.mv	a4,a5
    9934:	d9dff06f          	j	96d0 <riscv_depthwise_conv_fast_s16+0x658>
    9938:	85d6                	c.mv	a1,s5
    993a:	855a                	c.mv	a0,s6
    993c:	fdcf90ef          	jal	ra,3118 <riscv_depthwise_conv_fast_s16_get_buffer_size>
    9940:	02a04063          	bgtz	a0,9960 <riscv_depthwise_conv_fast_s16+0x8e8>
    9944:	008aa783          	lw	a5,8(s5)
    9948:	17812e83          	lw	t4,376(sp)
    994c:	d8be                	c.swsp	a5,112(sp)
    994e:	004aa783          	lw	a5,4(s5)
    9952:	d93e                	c.swsp	a5,176(sp)
    9954:	000a2783          	lw	a5,0(s4)
    9958:	04f12423          	sw	a5,72(sp)
    995c:	f90ff06f          	j	90ec <riscv_depthwise_conv_fast_s16+0x74>
    9960:	557d                	c.li	a0,-1
    9962:	b57d                	c.j	9810 <riscv_depthwise_conv_fast_s16+0x798>

00009964 <riscv_q7_to_q15_with_offset>:
    9964:	40265f13          	srai	t5,a2,0x2
    9968:	0ed698ff          	pkbb16	a7,a3,a3
    996c:	07e05e63          	blez	t5,99e8 <riscv_q7_to_q15_with_offset+0x84>
    9970:	002f1e93          	slli	t4,t5,0x2
    9974:	9eaa                	c.add	t4,a0
    9976:	882e                	c.mv	a6,a1
    9978:	4118                	c.lw	a4,0(a0)
    997a:	833a                	c.mv	t1,a4
    997c:	83ba                	c.mv	t2,a4
    997e:	0511                	c.addi	a0,4
    9980:	de8307ff          	wexti	a5,t1,8
    9984:	ac9787ff          	sunpkd820	a5,a5
    9988:	40f887ff          	add16	a5,a7,a5
    998c:	ac97077f          	sunpkd820	a4,a4
    9990:	40e8877f          	add16	a4,a7,a4
    9994:	2ee79e7f          	pktt16	t3,a5,a4
    9998:	0ee797ff          	pkbb16	a5,a5,a4
    999c:	00f82023          	sw	a5,0(a6)
    99a0:	01c82223          	sw	t3,4(a6)
    99a4:	0821                	c.addi	a6,8
    99a6:	fdd519e3          	bne	a0,t4,9978 <riscv_q7_to_q15_with_offset+0x14>
    99aa:	0f0e                	c.slli	t5,0x3
    99ac:	01e585b3          	add	a1,a1,t5
    99b0:	8a0d                	c.andi	a2,3
    99b2:	ca0d                	c.beqz	a2,99e4 <riscv_q7_to_q15_with_offset+0x80>
    99b4:	000e8783          	lb	a5,0(t4)
    99b8:	06c2                	c.slli	a3,0x10
    99ba:	82c1                	c.srli	a3,0x10
    99bc:	97b6                	c.add	a5,a3
    99be:	4705                	c.li	a4,1
    99c0:	00f59023          	sh	a5,0(a1)
    99c4:	02e60063          	beq	a2,a4,99e4 <riscv_q7_to_q15_with_offset+0x80>
    99c8:	001e8783          	lb	a5,1(t4)
    99cc:	4709                	c.li	a4,2
    99ce:	97b6                	c.add	a5,a3
    99d0:	00f59123          	sh	a5,2(a1)
    99d4:	00e60863          	beq	a2,a4,99e4 <riscv_q7_to_q15_with_offset+0x80>
    99d8:	002e8783          	lb	a5,2(t4)
    99dc:	00f686b3          	add	a3,a3,a5
    99e0:	00d59223          	sh	a3,4(a1)
    99e4:	00008067          	ret
    99e8:	8eaa                	c.mv	t4,a0
    99ea:	b7d9                	c.j	99b0 <riscv_q7_to_q15_with_offset+0x4c>

000099ec <memcpy>:
    99ec:	00a5c7b3          	xor	a5,a1,a0
    99f0:	8b8d                	c.andi	a5,3
    99f2:	00c508b3          	add	a7,a0,a2
    99f6:	ebb9                	c.bnez	a5,9a4c <memcpy+0x60>
    99f8:	478d                	c.li	a5,3
    99fa:	04c7f963          	bgeu	a5,a2,9a4c <memcpy+0x60>
    99fe:	00357713          	andi	a4,a0,3
    9a02:	87aa                	c.mv	a5,a0
    9a04:	06071263          	bnez	a4,9a68 <memcpy+0x7c>
    9a08:	ffc8f813          	andi	a6,a7,-4
    9a0c:	40f806b3          	sub	a3,a6,a5
    9a10:	02000713          	li	a4,32
    9a14:	02000393          	li	t2,32
    9a18:	06d74c63          	blt	a4,a3,9a90 <memcpy+0xa4>
    9a1c:	0307f463          	bgeu	a5,a6,9a44 <memcpy+0x58>
    9a20:	86ae                	c.mv	a3,a1
    9a22:	873e                	c.mv	a4,a5
    9a24:	4290                	c.lw	a2,0(a3)
    9a26:	0711                	c.addi	a4,4
    9a28:	fec72e23          	sw	a2,-4(a4) # 7ffc <riscv_depthwise_conv_3x3_s8+0x76c>
    9a2c:	0691                	c.addi	a3,4
    9a2e:	ff076be3          	bltu	a4,a6,9a24 <memcpy+0x38>
    9a32:	fff7c713          	not	a4,a5
    9a36:	983a                	c.add	a6,a4
    9a38:	ffc87813          	andi	a6,a6,-4
    9a3c:	0811                	c.addi	a6,4
    9a3e:	97c2                	c.add	a5,a6
    9a40:	010585b3          	add	a1,a1,a6
    9a44:	0117e863          	bltu	a5,a7,9a54 <memcpy+0x68>
    9a48:	00008067          	ret
    9a4c:	ff157ee3          	bgeu	a0,a7,9a48 <memcpy+0x5c>
    9a50:	00a007b3          	add	a5,zero,a0
    9a54:	0005c703          	lbu	a4,0(a1)
    9a58:	0785                	c.addi	a5,1
    9a5a:	fee78fa3          	sb	a4,-1(a5)
    9a5e:	0585                	c.addi	a1,1
    9a60:	ff17eae3          	bltu	a5,a7,9a54 <memcpy+0x68>
    9a64:	00008067          	ret
    9a68:	0005c703          	lbu	a4,0(a1)
    9a6c:	0785                	c.addi	a5,1
    9a6e:	fee78fa3          	sb	a4,-1(a5)
    9a72:	0037f713          	andi	a4,a5,3
    9a76:	0585                	c.addi	a1,1
    9a78:	db41                	c.beqz	a4,9a08 <memcpy+0x1c>
    9a7a:	0005c703          	lbu	a4,0(a1)
    9a7e:	0785                	c.addi	a5,1
    9a80:	fee78fa3          	sb	a4,-1(a5)
    9a84:	0037f713          	andi	a4,a5,3
    9a88:	0585                	c.addi	a1,1
    9a8a:	ff79                	c.bnez	a4,9a68 <memcpy+0x7c>
    9a8c:	f7dff06f          	j	9a08 <memcpy+0x1c>
    9a90:	4dd8                	c.lw	a4,28(a1)
    9a92:	0005a283          	lw	t0,0(a1)
    9a96:	0045af83          	lw	t6,4(a1)
    9a9a:	0085af03          	lw	t5,8(a1)
    9a9e:	00c5ae83          	lw	t4,12(a1)
    9aa2:	0105ae03          	lw	t3,16(a1)
    9aa6:	0145a303          	lw	t1,20(a1)
    9aaa:	4d90                	c.lw	a2,24(a1)
    9aac:	02458593          	addi	a1,a1,36
    9ab0:	ffc5a683          	lw	a3,-4(a1)
    9ab4:	02478793          	addi	a5,a5,36
    9ab8:	fee7ac23          	sw	a4,-8(a5)
    9abc:	fc57ae23          	sw	t0,-36(a5)
    9ac0:	fff7a023          	sw	t6,-32(a5)
    9ac4:	ffe7a223          	sw	t5,-28(a5)
    9ac8:	ffd7a423          	sw	t4,-24(a5)
    9acc:	ffc7a623          	sw	t3,-20(a5)
    9ad0:	fe67a823          	sw	t1,-16(a5)
    9ad4:	fec7aa23          	sw	a2,-12(a5)
    9ad8:	40f80733          	sub	a4,a6,a5
    9adc:	fed7ae23          	sw	a3,-4(a5)
    9ae0:	fae3c8e3          	blt	t2,a4,9a90 <memcpy+0xa4>
    9ae4:	bf25                	c.j	9a1c <memcpy+0x30>

00009ae6 <memset>:
    9ae6:	433d                	c.li	t1,15
    9ae8:	872a                	c.mv	a4,a0
    9aea:	02c37363          	bgeu	t1,a2,9b10 <memset+0x2a>
    9aee:	00f77793          	andi	a5,a4,15
    9af2:	e3c1                	c.bnez	a5,9b72 <memset+0x8c>
    9af4:	e5b5                	c.bnez	a1,9b60 <memset+0x7a>
    9af6:	ff067693          	andi	a3,a2,-16
    9afa:	8a3d                	c.andi	a2,15
    9afc:	96ba                	c.add	a3,a4
    9afe:	c30c                	c.sw	a1,0(a4)
    9b00:	c34c                	c.sw	a1,4(a4)
    9b02:	c70c                	c.sw	a1,8(a4)
    9b04:	c74c                	c.sw	a1,12(a4)
    9b06:	0741                	c.addi	a4,16
    9b08:	fed76be3          	bltu	a4,a3,9afe <memset+0x18>
    9b0c:	e211                	c.bnez	a2,9b10 <memset+0x2a>
    9b0e:	8082                	c.jr	ra
    9b10:	40c306b3          	sub	a3,t1,a2
    9b14:	068a                	c.slli	a3,0x2
    9b16:	00000297          	auipc	t0,0x0
    9b1a:	005686b3          	add	a3,a3,t0
    9b1e:	00c68067          	jr	12(a3)
    9b22:	00b70723          	sb	a1,14(a4)
    9b26:	00b706a3          	sb	a1,13(a4)
    9b2a:	00b70623          	sb	a1,12(a4)
    9b2e:	00b705a3          	sb	a1,11(a4)
    9b32:	00b70523          	sb	a1,10(a4)
    9b36:	00b704a3          	sb	a1,9(a4)
    9b3a:	00b70423          	sb	a1,8(a4)
    9b3e:	00b703a3          	sb	a1,7(a4)
    9b42:	00b70323          	sb	a1,6(a4)
    9b46:	00b702a3          	sb	a1,5(a4)
    9b4a:	00b70223          	sb	a1,4(a4)
    9b4e:	00b701a3          	sb	a1,3(a4)
    9b52:	00b70123          	sb	a1,2(a4)
    9b56:	00b700a3          	sb	a1,1(a4)
    9b5a:	00b70023          	sb	a1,0(a4)
    9b5e:	8082                	c.jr	ra
    9b60:	0ff5f593          	andi	a1,a1,255
    9b64:	00859693          	slli	a3,a1,0x8
    9b68:	8dd5                	c.or	a1,a3
    9b6a:	01059693          	slli	a3,a1,0x10
    9b6e:	8dd5                	c.or	a1,a3
    9b70:	b759                	c.j	9af6 <memset+0x10>
    9b72:	00279693          	slli	a3,a5,0x2
    9b76:	00000297          	auipc	t0,0x0
    9b7a:	9696                	c.add	a3,t0
    9b7c:	8286                	c.mv	t0,ra
    9b7e:	fa8680e7          	jalr	-88(a3)
    9b82:	8096                	c.mv	ra,t0
    9b84:	17c1                	c.addi	a5,-16
    9b86:	8f1d                	c.sub	a4,a5
    9b88:	963e                	c.add	a2,a5
    9b8a:	f8c373e3          	bgeu	t1,a2,9b10 <memset+0x2a>
    9b8e:	b79d                	c.j	9af4 <memset+0xe>

00009b90 <malloc>:
    9b90:	5d8012ef          	jal	t0,b168 <__riscv_save_0>
    9b94:	85aa                	c.mv	a1,a0
    9b96:	2546a52b          	lwgp	a0,45652 # 8ba54 <_impure_ptr>
    9b9a:	205d                	c.jal	9c40 <_malloc_r>
    9b9c:	5f00106f          	j	b18c <__riscv_restore_0>

00009ba0 <free>:
    9ba0:	5c8012ef          	jal	t0,b168 <__riscv_save_0>
    9ba4:	85aa                	c.mv	a1,a0
    9ba6:	2546a52b          	lwgp	a0,45652 # 8ba54 <_impure_ptr>
    9baa:	2019                	c.jal	9bb0 <_free_r>
    9bac:	5e00106f          	j	b18c <__riscv_restore_0>

00009bb0 <_free_r>:
    9bb0:	c5b5                	c.beqz	a1,9c1c <_free_r+0x6c>
    9bb2:	ffc5a703          	lw	a4,-4(a1)
    9bb6:	ffc58793          	addi	a5,a1,-4
    9bba:	00075363          	bgez	a4,9bc0 <_free_r+0x10>
    9bbe:	97ba                	c.add	a5,a4
    9bc0:	2d86a72b          	lwgp	a4,45784 # 8bad8 <__malloc_free_list>
    9bc4:	85b6                	c.mv	a1,a3
    9bc6:	e711                	c.bnez	a4,9bd2 <_free_r+0x22>
    9bc8:	0007a223          	sw	zero,4(a5)
    9bcc:	2cf6cc2b          	swgp	a5,45784 # 8bad8 <__malloc_free_list>
    9bd0:	8082                	c.jr	ra
    9bd2:	02e7f063          	bgeu	a5,a4,9bf2 <_free_r+0x42>
    9bd6:	4390                	c.lw	a2,0(a5)
    9bd8:	00c786b3          	add	a3,a5,a2
    9bdc:	00d71663          	bne	a4,a3,9be8 <_free_r+0x38>
    9be0:	4314                	c.lw	a3,0(a4)
    9be2:	4358                	c.lw	a4,4(a4)
    9be4:	96b2                	c.add	a3,a2
    9be6:	c394                	c.sw	a3,0(a5)
    9be8:	c3d8                	c.sw	a4,4(a5)
    9bea:	2cf6cc2b          	swgp	a5,45784 # 8bad8 <__malloc_free_list>
    9bee:	8082                	c.jr	ra
    9bf0:	8736                	c.mv	a4,a3
    9bf2:	4354                	c.lw	a3,4(a4)
    9bf4:	c299                	c.beqz	a3,9bfa <_free_r+0x4a>
    9bf6:	fed7fde3          	bgeu	a5,a3,9bf0 <_free_r+0x40>
    9bfa:	4310                	c.lw	a2,0(a4)
    9bfc:	00c705b3          	add	a1,a4,a2
    9c00:	00f59f63          	bne	a1,a5,9c1e <_free_r+0x6e>
    9c04:	439c                	c.lw	a5,0(a5)
    9c06:	97b2                	c.add	a5,a2
    9c08:	c31c                	c.sw	a5,0(a4)
    9c0a:	00f70633          	add	a2,a4,a5
    9c0e:	00c69763          	bne	a3,a2,9c1c <_free_r+0x6c>
    9c12:	4290                	c.lw	a2,0(a3)
    9c14:	97b2                	c.add	a5,a2
    9c16:	c31c                	c.sw	a5,0(a4)
    9c18:	42dc                	c.lw	a5,4(a3)
    9c1a:	c35c                	c.sw	a5,4(a4)
    9c1c:	8082                	c.jr	ra
    9c1e:	00b7f663          	bgeu	a5,a1,9c2a <_free_r+0x7a>
    9c22:	4731                	c.li	a4,12
    9c24:	2ee6c42b          	swgp	a4,45800 # 8bae8 <__mculib_REENT_errno>
    9c28:	8082                	c.jr	ra
    9c2a:	438c                	c.lw	a1,0(a5)
    9c2c:	00b78633          	add	a2,a5,a1
    9c30:	00c69663          	bne	a3,a2,9c3c <_free_r+0x8c>
    9c34:	4290                	c.lw	a2,0(a3)
    9c36:	42d4                	c.lw	a3,4(a3)
    9c38:	962e                	c.add	a2,a1
    9c3a:	c390                	c.sw	a2,0(a5)
    9c3c:	c3d4                	c.sw	a3,4(a5)
    9c3e:	bff1                	c.j	9c1a <_free_r+0x6a>

00009c40 <_malloc_r>:
    9c40:	528012ef          	jal	t0,b168 <__riscv_save_0>
    9c44:	00358493          	addi	s1,a1,3
    9c48:	98f1                	c.andi	s1,-4
    9c4a:	04a1                	c.addi	s1,8
    9c4c:	47b1                	c.li	a5,12
    9c4e:	06f4f263          	bgeu	s1,a5,9cb2 <_malloc_r+0x72>
    9c52:	44b1                	c.li	s1,12
    9c54:	06b4e163          	bltu	s1,a1,9cb6 <_malloc_r+0x76>
    9c58:	2d86a42b          	lwgp	s0,45784 # 8bad8 <__malloc_free_list>
    9c5c:	2d86968b          	addigp	a3,45784 # 8bad8 <__malloc_free_list>
    9c60:	87a2                	c.mv	a5,s0
    9c62:	cf89                	c.beqz	a5,9c7c <_malloc_r+0x3c>
    9c64:	4398                	c.lw	a4,0(a5)
    9c66:	8f05                	c.sub	a4,s1
    9c68:	08074163          	bltz	a4,9cea <_malloc_r+0xaa>
    9c6c:	462d                	c.li	a2,11
    9c6e:	04e67a63          	bgeu	a2,a4,9cc2 <_malloc_r+0x82>
    9c72:	c398                	c.sw	a4,0(a5)
    9c74:	00e78433          	add	s0,a5,a4
    9c78:	c004                	c.sw	s1,0(s0)
    9c7a:	e821                	c.bnez	s0,9cca <_malloc_r+0x8a>
    9c7c:	2dc6940b          	addigp	s0,45788 # 8badc <__malloc_sbrk_start>
    9c80:	401c                	c.lw	a5,0(s0)
    9c82:	e789                	c.bnez	a5,9c8c <_malloc_r+0x4c>
    9c84:	4501                	c.li	a0,0
    9c86:	42a010ef          	jal	ra,b0b0 <_sbrk>
    9c8a:	c008                	c.sw	a0,0(s0)
    9c8c:	8526                	c.mv	a0,s1
    9c8e:	597d                	c.li	s2,-1
    9c90:	420010ef          	jal	ra,b0b0 <_sbrk>
    9c94:	03250163          	beq	a0,s2,9cb6 <_malloc_r+0x76>
    9c98:	00350413          	addi	s0,a0,3
    9c9c:	9871                	c.andi	s0,-4
    9c9e:	00a40863          	beq	s0,a0,9cae <_malloc_r+0x6e>
    9ca2:	40a40533          	sub	a0,s0,a0
    9ca6:	40a010ef          	jal	ra,b0b0 <_sbrk>
    9caa:	01250663          	beq	a0,s2,9cb6 <_malloc_r+0x76>
    9cae:	c004                	c.sw	s1,0(s0)
    9cb0:	a829                	c.j	9cca <_malloc_r+0x8a>
    9cb2:	fa04d1e3          	bgez	s1,9c54 <_malloc_r+0x14>
    9cb6:	4731                	c.li	a4,12
    9cb8:	4501                	c.li	a0,0
    9cba:	2ee6c42b          	swgp	a4,45800 # 8bae8 <__mculib_REENT_errno>
    9cbe:	4ce0106f          	j	b18c <__riscv_restore_0>
    9cc2:	43d8                	c.lw	a4,4(a5)
    9cc4:	02f41063          	bne	s0,a5,9ce4 <_malloc_r+0xa4>
    9cc8:	c298                	c.sw	a4,0(a3)
    9cca:	00b40513          	addi	a0,s0,11
    9cce:	00440793          	addi	a5,s0,4
    9cd2:	9961                	c.andi	a0,-8
    9cd4:	40f507b3          	sub	a5,a0,a5
    9cd8:	d3fd                	c.beqz	a5,9cbe <_malloc_r+0x7e>
    9cda:	943e                	c.add	s0,a5
    9cdc:	40f007b3          	neg	a5,a5
    9ce0:	c01c                	c.sw	a5,0(s0)
    9ce2:	bff1                	c.j	9cbe <_malloc_r+0x7e>
    9ce4:	c058                	c.sw	a4,4(s0)
    9ce6:	843e                	c.mv	s0,a5
    9ce8:	b7cd                	c.j	9cca <_malloc_r+0x8a>
    9cea:	843e                	c.mv	s0,a5
    9cec:	43dc                	c.lw	a5,4(a5)
    9cee:	bf95                	c.j	9c62 <_malloc_r+0x22>

00009cf0 <printf>:
    9cf0:	7139                	c.addi16sp	sp,-64
    9cf2:	d22e                	c.swsp	a1,36(sp)
    9cf4:	104c                	c.addi4spn	a1,sp,36
    9cf6:	ce06                	c.swsp	ra,28(sp)
    9cf8:	d432                	c.swsp	a2,40(sp)
    9cfa:	d636                	c.swsp	a3,44(sp)
    9cfc:	d83a                	c.swsp	a4,48(sp)
    9cfe:	da3e                	c.swsp	a5,52(sp)
    9d00:	dc42                	c.swsp	a6,56(sp)
    9d02:	de46                	c.swsp	a7,60(sp)
    9d04:	c62e                	c.swsp	a1,12(sp)
    9d06:	28e1                	c.jal	9dde <vprintf>
    9d08:	40f2                	c.lwsp	ra,28(sp)
    9d0a:	6121                	c.addi16sp	sp,64
    9d0c:	8082                	c.jr	ra

00009d0e <puts>:
    9d0e:	45a012ef          	jal	t0,b168 <__riscv_save_0>
    9d12:	1101                	c.addi	sp,-32
    9d14:	c62a                	c.swsp	a0,12(sp)
    9d16:	203d                	c.jal	9d44 <strlen>
    9d18:	45b2                	c.lwsp	a1,12(sp)
    9d1a:	862a                	c.mv	a2,a0
    9d1c:	4505                	c.li	a0,1
    9d1e:	932f80ef          	jal	ra,1e50 <_write>
    9d22:	00054e63          	bltz	a0,9d3e <puts+0x30>
    9d26:	47a9                	c.li	a5,10
    9d28:	4605                	c.li	a2,1
    9d2a:	01f10593          	addi	a1,sp,31
    9d2e:	4505                	c.li	a0,1
    9d30:	00f10fa3          	sb	a5,31(sp)
    9d34:	91cf80ef          	jal	ra,1e50 <_write>
    9d38:	6105                	c.addi16sp	sp,32
    9d3a:	4520106f          	j	b18c <__riscv_restore_0>
    9d3e:	557d                	c.li	a0,-1
    9d40:	bfe5                	c.j	9d38 <puts+0x2a>
	...

00009d44 <strlen>:
    9d44:	00357793          	andi	a5,a0,3
    9d48:	872a                	c.mv	a4,a0
    9d4a:	e79d                	c.bnez	a5,9d78 <strlen+0x34>
    9d4c:	0511                	c.addi	a0,4
    9d4e:	ffc52783          	lw	a5,-4(a0)
    9d52:	200787db          	ffb	a5,a5,zero
    9d56:	dbfd                	c.beqz	a5,9d4c <strlen+0x8>
    9d58:	ffc54783          	lbu	a5,-4(a0)
    9d5c:	40e50733          	sub	a4,a0,a4
    9d60:	ffd54683          	lbu	a3,-3(a0)
    9d64:	ffe54603          	lbu	a2,-2(a0)
    9d68:	c795                	c.beqz	a5,9d94 <strlen+0x50>
    9d6a:	c28d                	c.beqz	a3,9d8c <strlen+0x48>
    9d6c:	ca05                	c.beqz	a2,9d9c <strlen+0x58>
    9d6e:	fff70513          	addi	a0,a4,-1
    9d72:	8082                	c.jr	ra
    9d74:	fc068ce3          	beqz	a3,9d4c <strlen+0x8>
    9d78:	00054783          	lbu	a5,0(a0)
    9d7c:	0505                	c.addi	a0,1
    9d7e:	00357693          	andi	a3,a0,3
    9d82:	fbed                	c.bnez	a5,9d74 <strlen+0x30>
    9d84:	8d19                	c.sub	a0,a4
    9d86:	157d                	c.addi	a0,-1
    9d88:	00008067          	ret
    9d8c:	ffd70513          	addi	a0,a4,-3
    9d90:	00008067          	ret
    9d94:	ffc70513          	addi	a0,a4,-4
    9d98:	00008067          	ret
    9d9c:	ffe70513          	addi	a0,a4,-2
    9da0:	8082                	c.jr	ra
    9da2:	0001                	c.nop

00009da4 <__vprintf_help>:
    9da4:	3c4012ef          	jal	t0,b168 <__riscv_save_0>
    9da8:	2ec6a7ab          	lwgp	a5,45804 # 8baec <__printf_count>
    9dac:	0785                	c.addi	a5,1
    9dae:	2ef6c62b          	swgp	a5,45804 # 8baec <__printf_count>
    9db2:	2e46940b          	addigp	s0,45796 # 8bae4 <__vprintf_buf_len>
    9db6:	2e06a5ab          	lwgp	a1,45792 # 8bae0 <__vprintf_buf>
    9dba:	401c                	c.lw	a5,0(s0)
    9dbc:	00178713          	addi	a4,a5,1
    9dc0:	97ae                	c.add	a5,a1
    9dc2:	c018                	c.sw	a4,0(s0)
    9dc4:	00a78023          	sb	a0,0(a5)
    9dc8:	4007695b          	bnec	a4,64,9dda <__vprintf_help+0x36>
    9dcc:	04000613          	li	a2,64
    9dd0:	4505                	c.li	a0,1
    9dd2:	87ef80ef          	jal	ra,1e50 <_write>
    9dd6:	00042023          	sw	zero,0(s0)
    9dda:	3b20106f          	j	b18c <__riscv_restore_0>

00009dde <vprintf>:
    9dde:	1141                	c.addi	sp,-16
    9de0:	c606                	c.swsp	ra,12(sp)
    9de2:	c422                	c.swsp	s0,8(sp)
    9de4:	c226                	c.swsp	s1,4(sp)
    9de6:	c04a                	c.swsp	s2,0(sp)
    9de8:	0800                	c.addi4spn	s0,sp,16
    9dea:	715d                	c.addi16sp	sp,-80
    9dec:	00f10793          	addi	a5,sp,15
    9df0:	0000a637          	lui	a2,0xa
    9df4:	9bc1                	c.andi	a5,-16
    9df6:	2e06948b          	addigp	s1,45792 # 8bae0 <__vprintf_buf>
    9dfa:	2e46990b          	addigp	s2,45796 # 8bae4 <__vprintf_buf_len>
    9dfe:	da460613          	addi	a2,a2,-604 # 9da4 <__vprintf_help>
    9e02:	c09c                	c.sw	a5,0(s1)
    9e04:	00092023          	sw	zero,0(s2)
    9e08:	20ad                	c.jal	9e72 <__printf_impl>
    9e0a:	00092603          	lw	a2,0(s2)
    9e0e:	408c                	c.lw	a1,0(s1)
    9e10:	4505                	c.li	a0,1
    9e12:	83ef80ef          	jal	ra,1e50 <_write>
    9e16:	2ec6a52b          	lwgp	a0,45804 # 8baec <__printf_count>
    9e1a:	ff040113          	addi	sp,s0,-16
    9e1e:	40b2                	c.lwsp	ra,12(sp)
    9e20:	4422                	c.lwsp	s0,8(sp)
    9e22:	4492                	c.lwsp	s1,4(sp)
    9e24:	4902                	c.lwsp	s2,0(sp)
    9e26:	0141                	c.addi	sp,16
    9e28:	8082                	c.jr	ra

00009e2a <__print_integral>:
    9e2a:	33e012ef          	jal	t0,b168 <__riscv_save_0>
    9e2e:	1101                	c.addi	sp,-32
    9e30:	842a                	c.mv	s0,a0
    9e32:	84ae                	c.mv	s1,a1
    9e34:	8932                	c.mv	s2,a2
    9e36:	c636                	c.swsp	a3,12(sp)
    9e38:	85be                	c.mv	a1,a5
    9e3a:	ca32                	c.swsp	a2,20(sp)
    9e3c:	853a                	c.mv	a0,a4
    9e3e:	0830                	c.addi4spn	a2,sp,24
    9e40:	2155                	c.jal	a2e4 <__int_to_poly>
    9e42:	46b2                	c.lwsp	a3,12(sp)
    9e44:	882a                	c.mv	a6,a0
    9e46:	083c                	c.addi4spn	a5,sp,24
    9e48:	0858                	c.addi4spn	a4,sp,20
    9e4a:	864a                	c.mv	a2,s2
    9e4c:	85a6                	c.mv	a1,s1
    9e4e:	8522                	c.mv	a0,s0
    9e50:	294d                	c.jal	a302 <__print_integral_poly>
    9e52:	1f06978b          	addigp	a5,45552 # 8b9f0 <__digits>
    9e56:	00a46563          	bltu	s0,a0,9e60 <__print_integral+0x36>
    9e5a:	6105                	c.addi16sp	sp,32
    9e5c:	3300106f          	j	b18c <__riscv_restore_0>
    9e60:	00044703          	lbu	a4,0(s0)
    9e64:	0405                	c.addi	s0,1
    9e66:	973e                	c.add	a4,a5
    9e68:	00070703          	lb	a4,0(a4)
    9e6c:	fee40fa3          	sb	a4,-1(s0)
    9e70:	b7dd                	c.j	9e56 <__print_integral+0x2c>

00009e72 <__printf_impl>:
    9e72:	2c6012ef          	jal	t0,b138 <__riscv_save_12>
    9e76:	a6010113          	addi	sp,sp,-1440
    9e7a:	6b05                	c.lui	s6,0x1
    9e7c:	892a                	c.mv	s2,a0
    9e7e:	842e                	c.mv	s0,a1
    9e80:	89b2                	c.mv	s3,a2
    9e82:	01c10a13          	addi	s4,sp,28
    9e86:	800b0b13          	addi	s6,s6,-2048 # 800 <analog_read_reg8+0x2c>
    9e8a:	2e06c62b          	swgp	zero,45804 # 8baec <__printf_count>
    9e8e:	c456                	c.swsp	s5,8(sp)
    9e90:	00094503          	lbu	a0,0(s2)
    9e94:	e509                	c.bnez	a0,9e9e <__printf_impl+0x2c>
    9e96:	5a010113          	addi	sp,sp,1440
    9e9a:	2da0106f          	j	b174 <__riscv_restore_12>
    9e9e:	00190493          	addi	s1,s2,1
    9ea2:	005555db          	beqc	a0,37,9eac <__printf_impl+0x3a>
    9ea6:	9982                	c.jalr	s3
    9ea8:	8926                	c.mv	s2,s1
    9eaa:	b7dd                	c.j	9e90 <__printf_impl+0x1e>
    9eac:	00194783          	lbu	a5,1(s2)
    9eb0:	0057e8db          	bnec	a5,37,9ec0 <__printf_impl+0x4e>
    9eb4:	02500513          	li	a0,37
    9eb8:	9982                	c.jalr	s3
    9eba:	00290493          	addi	s1,s2,2
    9ebe:	b7ed                	c.j	9ea8 <__printf_impl+0x36>
    9ec0:	4681                	c.li	a3,0
    9ec2:	4701                	c.li	a4,0
    9ec4:	d002                	c.swsp	zero,32(sp)
    9ec6:	0004c783          	lbu	a5,0(s1)
    9eca:	0007e7db          	bnec	a5,32,9ed8 <__printf_impl+0x66>
    9ece:	00276713          	ori	a4,a4,2
    9ed2:	0485                	c.addi	s1,1
    9ed4:	4685                	c.li	a3,1
    9ed6:	bfc5                	c.j	9ec6 <__printf_impl+0x54>
    9ed8:	00d7e5db          	bnec	a5,45,9ee2 <__printf_impl+0x70>
    9edc:	00476713          	ori	a4,a4,4
    9ee0:	bfcd                	c.j	9ed2 <__printf_impl+0x60>
    9ee2:	00b7e5db          	bnec	a5,43,9eec <__printf_impl+0x7a>
    9ee6:	00876713          	ori	a4,a4,8
    9eea:	b7e5                	c.j	9ed2 <__printf_impl+0x60>
    9eec:	0037e5db          	bnec	a5,35,9ef6 <__printf_impl+0x84>
    9ef0:	01076713          	ori	a4,a4,16
    9ef4:	bff9                	c.j	9ed2 <__printf_impl+0x60>
    9ef6:	0107e5db          	bnec	a5,48,9f00 <__printf_impl+0x8e>
    9efa:	02076713          	ori	a4,a4,32
    9efe:	bfd1                	c.j	9ed2 <__printf_impl+0x60>
    9f00:	c291                	c.beqz	a3,9f04 <__printf_impl+0x92>
    9f02:	d03a                	c.swsp	a4,32(sp)
    9f04:	04a7eadb          	bnec	a5,42,9f58 <__printf_impl+0xe6>
    9f08:	00042c03          	lw	s8,0(s0)
    9f0c:	00440713          	addi	a4,s0,4
    9f10:	000c5863          	bgez	s8,9f20 <__printf_impl+0xae>
    9f14:	5782                	c.lwsp	a5,32(sp)
    9f16:	41800c33          	neg	s8,s8
    9f1a:	0047e793          	ori	a5,a5,4
    9f1e:	d03e                	c.swsp	a5,32(sp)
    9f20:	0485                	c.addi	s1,1
    9f22:	843a                	c.mv	s0,a4
    9f24:	0004c783          	lbu	a5,0(s1)
    9f28:	5cfd                	c.li	s9,-1
    9f2a:	06e7e4db          	bnec	a5,46,9f92 <__printf_impl+0x120>
    9f2e:	0014c783          	lbu	a5,1(s1)
    9f32:	04a7dbdb          	beqc	a5,42,9f88 <__printf_impl+0x116>
    9f36:	0485                	c.addi	s1,1
    9f38:	4c81                	c.li	s9,0
    9f3a:	4725                	c.li	a4,9
    9f3c:	4629                	c.li	a2,10
    9f3e:	0004c783          	lbu	a5,0(s1)
    9f42:	fd078793          	addi	a5,a5,-48
    9f46:	0ff7f693          	andi	a3,a5,255
    9f4a:	04d76463          	bltu	a4,a3,9f92 <__printf_impl+0x120>
    9f4e:	c4cc97ff          	maddr32	a5,s9,a2
    9f52:	0485                	c.addi	s1,1
    9f54:	8cbe                	c.mv	s9,a5
    9f56:	b7e5                	c.j	9f3e <__printf_impl+0xcc>
    9f58:	fd078793          	addi	a5,a5,-48
    9f5c:	0ff7f793          	andi	a5,a5,255
    9f60:	4725                	c.li	a4,9
    9f62:	4c01                	c.li	s8,0
    9f64:	fcf760e3          	bltu	a4,a5,9f24 <__printf_impl+0xb2>
    9f68:	4725                	c.li	a4,9
    9f6a:	4629                	c.li	a2,10
    9f6c:	a029                	c.j	9f76 <__printf_impl+0x104>
    9f6e:	c4cc17ff          	maddr32	a5,s8,a2
    9f72:	0485                	c.addi	s1,1
    9f74:	8c3e                	c.mv	s8,a5
    9f76:	0004c783          	lbu	a5,0(s1)
    9f7a:	fd078793          	addi	a5,a5,-48
    9f7e:	0ff7f693          	andi	a3,a5,255
    9f82:	fed776e3          	bgeu	a4,a3,9f6e <__printf_impl+0xfc>
    9f86:	bf79                	c.j	9f24 <__printf_impl+0xb2>
    9f88:	401c                	c.lw	a5,0(s0)
    9f8a:	0489                	c.addi	s1,2
    9f8c:	0411                	c.addi	s0,4
    9f8e:	f2fc8cff          	maxw	s9,s9,a5
    9f92:	43200613          	li	a2,1074
    9f96:	f0cc867f          	minw	a2,s9,a2
    9f9a:	0004c783          	lbu	a5,0(s1)
    9f9e:	4487efdb          	bnec	a5,104,9ffc <__printf_impl+0x18a>
    9fa2:	5782                	c.lwsp	a5,32(sp)
    9fa4:	0014c703          	lbu	a4,1(s1)
    9fa8:	448764db          	bnec	a4,104,9ff0 <__printf_impl+0x17e>
    9fac:	0407e793          	ori	a5,a5,64
    9fb0:	00248913          	addi	s2,s1,2
    9fb4:	d03e                	c.swsp	a5,32(sp)
    9fb6:	00094503          	lbu	a0,0(s2)
    9fba:	06700793          	li	a5,103
    9fbe:	0aa7e263          	bltu	a5,a0,a062 <__printf_impl+0x1f0>
    9fc2:	06500793          	li	a5,101
    9fc6:	06f57d63          	bgeu	a0,a5,a040 <__printf_impl+0x1ce>
    9fca:	05800793          	li	a5,88
    9fce:	5785555b          	beqc	a0,88,a138 <__printf_impl+0x2c6>
    9fd2:	04a7ef63          	bltu	a5,a0,a030 <__printf_impl+0x1be>
    9fd6:	04100793          	li	a5,65
    9fda:	4615535b          	beqc	a0,65,a040 <__printf_impl+0x1ce>
    9fde:	00f56763          	bltu	a0,a5,9fec <__printf_impl+0x17a>
    9fe2:	fbb50793          	addi	a5,a0,-69
    9fe6:	4709                	c.li	a4,2
    9fe8:	04f77c63          	bgeu	a4,a5,a040 <__printf_impl+0x1ce>
    9fec:	84a2                	c.mv	s1,s0
    9fee:	a489                	c.j	a230 <__printf_impl+0x3be>
    9ff0:	0807e793          	ori	a5,a5,128
    9ff4:	d03e                	c.swsp	a5,32(sp)
    9ff6:	00148913          	addi	s2,s1,1
    9ffa:	bf75                	c.j	9fb6 <__printf_impl+0x144>
    9ffc:	40c7eddb          	bnec	a5,108,a016 <__printf_impl+0x1a4>
    a000:	5782                	c.lwsp	a5,32(sp)
    a002:	0014c703          	lbu	a4,1(s1)
    a006:	40c765db          	bnec	a4,108,a010 <__printf_impl+0x19e>
    a00a:	2007e793          	ori	a5,a5,512
    a00e:	b74d                	c.j	9fb0 <__printf_impl+0x13e>
    a010:	1007e793          	ori	a5,a5,256
    a014:	b7c5                	c.j	9ff4 <__printf_impl+0x182>
    a016:	00148913          	addi	s2,s1,1
    a01a:	41a7e7db          	bnec	a5,122,a028 <__printf_impl+0x1b6>
    a01e:	5782                	c.lwsp	a5,32(sp)
    a020:	1007e793          	ori	a5,a5,256
    a024:	d03e                	c.swsp	a5,32(sp)
    a026:	bf41                	c.j	9fb6 <__printf_impl+0x144>
    a028:	ff47dbdb          	beqc	a5,116,a01e <__printf_impl+0x1ac>
    a02c:	8926                	c.mv	s2,s1
    a02e:	b761                	c.j	9fb6 <__printf_impl+0x144>
    a030:	06300793          	li	a5,99
    a034:	50355cdb          	beqc	a0,99,a14c <__printf_impl+0x2da>
    a038:	04a7e463          	bltu	a5,a0,a080 <__printf_impl+0x20e>
    a03c:	fa1568db          	bnec	a0,97,9fec <__printf_impl+0x17a>
    a040:	041d                	c.addi	s0,7
    a042:	9861                	c.andi	s0,-8
    a044:	00042803          	lw	a6,0(s0)
    a048:	00442883          	lw	a7,4(s0)
    a04c:	02057b93          	andi	s7,a0,32
    a050:	87aa                	c.mv	a5,a0
    a052:	86c2                	c.mv	a3,a6
    a054:	8746                	c.mv	a4,a7
    a056:	100c                	c.addi4spn	a1,sp,32
    a058:	1048                	c.addi4spn	a0,sp,36
    a05a:	00840493          	addi	s1,s0,8
    a05e:	2e1d                	c.jal	a394 <__printf_float_impl>
    a060:	aa4d                	c.j	a212 <__printf_impl+0x3a0>
    a062:	07000793          	li	a5,112
    a066:	4d0559db          	beqc	a0,112,a138 <__printf_impl+0x2c6>
    a06a:	04a7e163          	bltu	a5,a0,a0ac <__printf_impl+0x23a>
    a06e:	06e00793          	li	a5,110
    a072:	5ae554db          	beqc	a0,110,a21a <__printf_impl+0x3a8>
    a076:	45a1                	c.li	a1,8
    a078:	0ca7e163          	bltu	a5,a0,a13a <__printf_impl+0x2c8>
    a07c:	f69568db          	bnec	a0,105,9fec <__printf_impl+0x17a>
    a080:	5682                	c.lwsp	a3,32(sp)
    a082:	0e66f05b          	bbc	a3,6,a162 <__printf_impl+0x2f0>
    a086:	00040703          	lb	a4,0(s0)
    a08a:	00440493          	addi	s1,s0,4
    a08e:	41f75793          	srai	a5,a4,0x1f
    a092:	0e07df63          	bgez	a5,a190 <__printf_impl+0x31e>
    a096:	40e00733          	neg	a4,a4
    a09a:	00e035b3          	snez	a1,a4
    a09e:	40f007b3          	neg	a5,a5
    a0a2:	8f8d                	c.sub	a5,a1
    a0a4:	4006e693          	ori	a3,a3,1024
    a0a8:	d036                	c.swsp	a3,32(sp)
    a0aa:	a0dd                	c.j	a190 <__printf_impl+0x31e>
    a0ac:	515553db          	beqc	a0,117,a1b2 <__printf_impl+0x340>
    a0b0:	498554db          	beqc	a0,120,a138 <__printf_impl+0x2c6>
    a0b4:	f3356cdb          	bnec	a0,115,9fec <__printf_impl+0x17a>
    a0b8:	00042a83          	lw	s5,0(s0)
    a0bc:	85b2                	c.mv	a1,a2
    a0be:	8556                	c.mv	a0,s5
    a0c0:	c632                	c.swsp	a2,12(sp)
    a0c2:	2795                	c.jal	a826 <strnlen>
    a0c4:	57fd                	c.li	a5,-1
    a0c6:	00440493          	addi	s1,s0,4
    a0ca:	00fc8563          	beq	s9,a5,a0d4 <__printf_impl+0x262>
    a0ce:	4632                	c.lwsp	a2,12(sp)
    a0d0:	f0c5057f          	minw	a0,a0,a2
    a0d4:	00aa8433          	add	s0,s5,a0
    a0d8:	4b81                	c.li	s7,0
    a0da:	5782                	c.lwsp	a5,32(sp)
    a0dc:	02d00693          	li	a3,45
    a0e0:	40a7fb5b          	bbs	a5,10,a0f6 <__printf_impl+0x284>
    a0e4:	02b00693          	li	a3,43
    a0e8:	4037f75b          	bbs	a5,3,a0f6 <__printf_impl+0x284>
    a0ec:	8cd2                	c.mv	s9,s4
    a0ee:	0017f85b          	bbc	a5,1,a0fe <__printf_impl+0x28c>
    a0f2:	02000693          	li	a3,32
    a0f6:	01d10c93          	addi	s9,sp,29
    a0fa:	00d10e23          	sb	a3,28(sp)
    a0fe:	0167f6b3          	and	a3,a5,s6
    a102:	ca91                	c.beqz	a3,a116 <__printf_impl+0x2a4>
    a104:	03000693          	li	a3,48
    a108:	00dc8023          	sb	a3,0(s9)
    a10c:	05800693          	li	a3,88
    a110:	00dc80a3          	sb	a3,1(s9)
    a114:	0c89                	c.addi	s9,2
    a116:	5627f45b          	bbs	a5,2,a27e <__printf_impl+0x40c>
    a11a:	41540db3          	sub	s11,s0,s5
    a11e:	4057fa5b          	bbs	a5,5,a132 <__printf_impl+0x2c0>
    a122:	41bc0d33          	sub	s10,s8,s11
    a126:	414c87b3          	sub	a5,s9,s4
    a12a:	40fd0d33          	sub	s10,s10,a5
    a12e:	17a04763          	bgtz	s10,a29c <__printf_impl+0x42a>
    a132:	8d52                	c.mv	s10,s4
    a134:	9c52                	c.add	s8,s4
    a136:	aab5                	c.j	a2b2 <__printf_impl+0x440>
    a138:	45c1                	c.li	a1,16
    a13a:	5782                	c.lwsp	a5,32(sp)
    a13c:	0667fd5b          	bbc	a5,6,a1b6 <__printf_impl+0x344>
    a140:	00044703          	lbu	a4,0(s0)
    a144:	00440493          	addi	s1,s0,4
    a148:	4781                	c.li	a5,0
    a14a:	a859                	c.j	a1e0 <__printf_impl+0x36e>
    a14c:	401c                	c.lw	a5,0(s0)
    a14e:	00440493          	addi	s1,s0,4
    a152:	4b81                	c.li	s7,0
    a154:	02510413          	addi	s0,sp,37
    a158:	02f10223          	sb	a5,36(sp)
    a15c:	02410a93          	addi	s5,sp,36
    a160:	bfad                	c.j	a0da <__printf_impl+0x268>
    a162:	0076f75b          	bbc	a3,7,a170 <__printf_impl+0x2fe>
    a166:	00440493          	addi	s1,s0,4
    a16a:	00041703          	lh	a4,0(s0)
    a16e:	b705                	c.j	a08e <__printf_impl+0x21c>
    a170:	0086f65b          	bbc	a3,8,a17c <__printf_impl+0x30a>
    a174:	00440493          	addi	s1,s0,4
    a178:	4018                	c.lw	a4,0(s0)
    a17a:	bf11                	c.j	a08e <__printf_impl+0x21c>
    a17c:	be96fc5b          	bbc	a3,9,a174 <__printf_impl+0x302>
    a180:	041d                	c.addi	s0,7
    a182:	9861                	c.andi	s0,-8
    a184:	405c                	c.lw	a5,4(s0)
    a186:	00840493          	addi	s1,s0,8
    a18a:	4018                	c.lw	a4,0(s0)
    a18c:	0007c963          	bltz	a5,a19e <__printf_impl+0x32c>
    a190:	56fd                	c.li	a3,-1
    a192:	45a9                	c.li	a1,10
    a194:	4b81                	c.li	s7,0
    a196:	04dc9a63          	bne	s9,a3,a1ea <__printf_impl+0x378>
    a19a:	4605                	c.li	a2,1
    a19c:	a0b5                	c.j	a208 <__printf_impl+0x396>
    a19e:	ee071ce3          	bnez	a4,a096 <__printf_impl+0x224>
    a1a2:	800005b7          	lui	a1,0x80000
    a1a6:	eeb798e3          	bne	a5,a1,a096 <__printf_impl+0x224>
    a1aa:	4701                	c.li	a4,0
    a1ac:	800007b7          	lui	a5,0x80000
    a1b0:	bdd5                	c.j	a0a4 <__printf_impl+0x232>
    a1b2:	45a9                	c.li	a1,10
    a1b4:	b759                	c.j	a13a <__printf_impl+0x2c8>
    a1b6:	0077f75b          	bbc	a5,7,a1c4 <__printf_impl+0x352>
    a1ba:	00440493          	addi	s1,s0,4
    a1be:	00045703          	lhu	a4,0(s0)
    a1c2:	b759                	c.j	a148 <__printf_impl+0x2d6>
    a1c4:	0087f65b          	bbc	a5,8,a1d0 <__printf_impl+0x35e>
    a1c8:	00440493          	addi	s1,s0,4
    a1cc:	4018                	c.lw	a4,0(s0)
    a1ce:	bfad                	c.j	a148 <__printf_impl+0x2d6>
    a1d0:	be97fc5b          	bbc	a5,9,a1c8 <__printf_impl+0x356>
    a1d4:	041d                	c.addi	s0,7
    a1d6:	9861                	c.andi	s0,-8
    a1d8:	4018                	c.lw	a4,0(s0)
    a1da:	405c                	c.lw	a5,4(s0)
    a1dc:	00840493          	addi	s1,s0,8
    a1e0:	56fd                	c.li	a3,-1
    a1e2:	02057b93          	andi	s7,a0,32
    a1e6:	02dc8863          	beq	s9,a3,a216 <__printf_impl+0x3a4>
    a1ea:	5682                	c.lwsp	a3,32(sp)
    a1ec:	fdf6f693          	andi	a3,a3,-33
    a1f0:	d036                	c.swsp	a3,32(sp)
    a1f2:	0105eb5b          	bnec	a1,16,a208 <__printf_impl+0x396>
    a1f6:	5682                	c.lwsp	a3,32(sp)
    a1f8:	0046f85b          	bbc	a3,4,a208 <__printf_impl+0x396>
    a1fc:	00f76533          	or	a0,a4,a5
    a200:	c501                	c.beqz	a0,a208 <__printf_impl+0x396>
    a202:	0166e6b3          	or	a3,a3,s6
    a206:	d036                	c.swsp	a3,32(sp)
    a208:	86b2                	c.mv	a3,a2
    a20a:	5602                	c.lwsp	a2,32(sp)
    a20c:	1048                	c.addi4spn	a0,sp,36
    a20e:	c1dff0ef          	jal	ra,9e2a <__print_integral>
    a212:	842a                	c.mv	s0,a0
    a214:	b7a1                	c.j	a15c <__printf_impl+0x2ea>
    a216:	4605                	c.li	a2,1
    a218:	bfe9                	c.j	a1f2 <__printf_impl+0x380>
    a21a:	45a2                	c.lwsp	a1,8(sp)
    a21c:	5682                	c.lwsp	a3,32(sp)
    a21e:	00440493          	addi	s1,s0,4
    a222:	2ec6a7ab          	lwgp	a5,45804 # 8baec <__printf_count>
    a226:	4018                	c.lw	a4,0(s0)
    a228:	0066f85b          	bbc	a3,6,a238 <__printf_impl+0x3c6>
    a22c:	00f70023          	sb	a5,0(a4)
    a230:	1040                	c.addi4spn	s0,sp,36
    a232:	4b81                	c.li	s7,0
    a234:	8aa2                	c.mv	s5,s0
    a236:	b555                	c.j	a0da <__printf_impl+0x268>
    a238:	0076f55b          	bbc	a3,7,a242 <__printf_impl+0x3d0>
    a23c:	00f71023          	sh	a5,0(a4)
    a240:	bfc5                	c.j	a230 <__printf_impl+0x3be>
    a242:	c31c                	c.sw	a5,0(a4)
    a244:	fe86f65b          	bbs	a3,8,a230 <__printf_impl+0x3be>
    a248:	be96f45b          	bbc	a3,9,a230 <__printf_impl+0x3be>
    a24c:	87fd                	c.srai	a5,0x1f
    a24e:	c35c                	c.sw	a5,4(a4)
    a250:	b7c5                	c.j	a230 <__printf_impl+0x3be>
    a252:	000dc503          	lbu	a0,0(s11)
    a256:	0d85                	c.addi	s11,1
    a258:	01756533          	or	a0,a0,s7
    a25c:	9982                	c.jalr	s3
    a25e:	41bc0d33          	sub	s10,s8,s11
    a262:	ff9de8e3          	bltu	s11,s9,a252 <__printf_impl+0x3e0>
    a266:	8c56                	c.mv	s8,s5
    a268:	01841e63          	bne	s0,s8,a284 <__printf_impl+0x412>
    a26c:	41540433          	sub	s0,s0,s5
    a270:	408d0433          	sub	s0,s10,s0
    a274:	00804f63          	bgtz	s0,a292 <__printf_impl+0x420>
    a278:	0905                	c.addi	s2,1
    a27a:	8426                	c.mv	s0,s1
    a27c:	b911                	c.j	9e90 <__printf_impl+0x1e>
    a27e:	8dd2                	c.mv	s11,s4
    a280:	9c52                	c.add	s8,s4
    a282:	bff1                	c.j	a25e <__printf_impl+0x3ec>
    a284:	000c4503          	lbu	a0,0(s8)
    a288:	0c05                	c.addi	s8,1
    a28a:	01756533          	or	a0,a0,s7
    a28e:	9982                	c.jalr	s3
    a290:	bfe1                	c.j	a268 <__printf_impl+0x3f6>
    a292:	02000513          	li	a0,32
    a296:	9982                	c.jalr	s3
    a298:	147d                	c.addi	s0,-1
    a29a:	bfe9                	c.j	a274 <__printf_impl+0x402>
    a29c:	02000513          	li	a0,32
    a2a0:	9982                	c.jalr	s3
    a2a2:	1d7d                	c.addi	s10,-1
    a2a4:	b569                	c.j	a12e <__printf_impl+0x2bc>
    a2a6:	000d4503          	lbu	a0,0(s10)
    a2aa:	0d05                	c.addi	s10,1
    a2ac:	01756533          	or	a0,a0,s7
    a2b0:	9982                	c.jalr	s3
    a2b2:	41ac07b3          	sub	a5,s8,s10
    a2b6:	ff9d68e3          	bltu	s10,s9,a2a6 <__printf_impl+0x434>
    a2ba:	5682                	c.lwsp	a3,32(sp)
    a2bc:	0056f65b          	bbc	a3,5,a2c8 <__printf_impl+0x456>
    a2c0:	41b78db3          	sub	s11,a5,s11
    a2c4:	01b04b63          	bgtz	s11,a2da <__printf_impl+0x468>
    a2c8:	fb5408e3          	beq	s0,s5,a278 <__printf_impl+0x406>
    a2cc:	000ac503          	lbu	a0,0(s5)
    a2d0:	0a85                	c.addi	s5,1
    a2d2:	01756533          	or	a0,a0,s7
    a2d6:	9982                	c.jalr	s3
    a2d8:	bfc5                	c.j	a2c8 <__printf_impl+0x456>
    a2da:	03000513          	li	a0,48
    a2de:	9982                	c.jalr	s3
    a2e0:	1dfd                	c.addi	s11,-1
    a2e2:	b7cd                	c.j	a2c4 <__printf_impl+0x452>

0000a2e4 <__int_to_poly>:
    a2e4:	872a                	c.mv	a4,a0
    a2e6:	87ae                	c.mv	a5,a1
    a2e8:	4501                	c.li	a0,0
    a2ea:	00f766b3          	or	a3,a4,a5
    a2ee:	e291                	c.bnez	a3,a2f2 <__int_to_poly+0xe>
    a2f0:	8082                	c.jr	ra
    a2f2:	00e61023          	sh	a4,0(a2)
    a2f6:	0505                	c.addi	a0,1
    a2f8:	df07077f          	wexti	a4,a4,16
    a2fc:	0609                	c.addi	a2,2
    a2fe:	83c1                	c.srli	a5,0x10
    a300:	b7ed                	c.j	a2ea <__int_to_poly+0x6>

0000a302 <__print_integral_poly>:
    a302:	667002ef          	jal	t0,b168 <__riscv_save_0>
    a306:	88c2                	c.mv	a7,a6
    a308:	84ba                	c.mv	s1,a4
    a30a:	187d                	c.addi	a6,-1
    a30c:	0b17875b          	lea.h	a4,a5,a7
    a310:	8342                	c.mv	t1,a6
    a312:	4401                	c.li	s0,0
    a314:	8e3a                	c.mv	t3,a4
    a316:	1779                	c.addi	a4,-2
    a318:	02035563          	bgez	t1,a342 <__print_integral_poly+0x40>
    a31c:	05105163          	blez	a7,a35e <__print_integral_poly+0x5c>
    a320:	ffee5703          	lhu	a4,-2(t3)
    a324:	eb1d                	c.bnez	a4,a35a <__print_integral_poly+0x58>
    a326:	03005c63          	blez	a6,a35e <__print_integral_poly+0x5c>
    a32a:	8726                	c.mv	a4,s1
    a32c:	16fd                	c.addi	a3,-1
    a32e:	3fd1                	c.jal	a302 <__print_integral_poly>
    a330:	87aa                	c.mv	a5,a0
    a332:	0505                	c.addi	a0,1
    a334:	00878023          	sb	s0,0(a5) # 80000000 <_DATA_LMA_START+0x5fff4c20>
    a338:	409c                	c.lw	a5,0(s1)
    a33a:	0785                	c.addi	a5,1
    a33c:	c09c                	c.sw	a5,0(s1)
    a33e:	64f0006f          	j	b18c <__riscv_restore_0>
    a342:	00075e83          	lhu	t4,0(a4)
    a346:	0442                	c.slli	s0,0x10
    a348:	9476                	c.add	s0,t4
    a34a:	02b45eb3          	divu	t4,s0,a1
    a34e:	137d                	c.addi	t1,-1
    a350:	02b47433          	remu	s0,s0,a1
    a354:	01d71023          	sh	t4,0(a4)
    a358:	bf7d                	c.j	a316 <__print_integral_poly+0x14>
    a35a:	8846                	c.mv	a6,a7
    a35c:	b7f9                	c.j	a32a <__print_integral_poly+0x28>
    a35e:	c011                	c.beqz	s0,a362 <__print_integral_poly+0x60>
    a360:	16fd                	c.addi	a3,-1
    a362:	00d04763          	bgtz	a3,a370 <__print_integral_poly+0x6e>
    a366:	0085ee5b          	bnec	a1,8,a382 <__print_integral_poly+0x80>
    a36a:	00467c5b          	bbc	a2,4,a382 <__print_integral_poly+0x80>
    a36e:	4685                	c.li	a3,1
    a370:	87aa                	c.mv	a5,a0
    a372:	40a78733          	sub	a4,a5,a0
    a376:	00d74b63          	blt	a4,a3,a38c <__print_integral_poly+0x8a>
    a37a:	4781                	c.li	a5,0
    a37c:	f2f686ff          	maxw	a3,a3,a5
    a380:	9536                	c.add	a0,a3
    a382:	d85d                	c.beqz	s0,a338 <__print_integral_poly+0x36>
    a384:	00850023          	sb	s0,0(a0)
    a388:	0505                	c.addi	a0,1
    a38a:	b77d                	c.j	a338 <__print_integral_poly+0x36>
    a38c:	0785                	c.addi	a5,1
    a38e:	fe078fa3          	sb	zero,-1(a5)
    a392:	b7c5                	c.j	a372 <__print_integral_poly+0x70>

0000a394 <__printf_float_impl>:
    a394:	5a5002ef          	jal	t0,b138 <__riscv_save_12>
    a398:	0df7fc13          	andi	s8,a5,223
    a39c:	8b2a                	c.mv	s6,a0
    a39e:	892e                	c.mv	s2,a1
    a3a0:	7169                	c.addi16sp	sp,-304
    a3a2:	84b2                	c.mv	s1,a2
    a3a4:	8536                	c.mv	a0,a3
    a3a6:	85ba                	c.mv	a1,a4
    a3a8:	8a3e                	c.mv	s4,a5
    a3aa:	467c6d5b          	bnec	s8,71,a424 <__printf_float_impl+0x90>
    a3ae:	00092983          	lw	s3,0(s2)
    a3b2:	0109c993          	xori	s3,s3,16
    a3b6:	1049a9db          	bfoz	s3,s3,4,4
    a3ba:	0604db63          	bgez	s1,a430 <__printf_float_impl+0x9c>
    a3be:	4499                	c.li	s1,6
    a3c0:	401c635b          	bnec	s8,65,a3c6 <__printf_float_impl+0x32>
    a3c4:	44b5                	c.li	s1,13
    a3c6:	dff5047f          	wexti	s0,a0,31
    a3ca:	8055                	c.srli	s0,0x15
    a3cc:	8aaa                	c.mv	s5,a0
    a3ce:	4c05ad5b          	bfoz	s10,a1,19,0
    a3d2:	0005d863          	bgez	a1,a3e2 <__printf_float_impl+0x4e>
    a3d6:	00092783          	lw	a5,0(s2)
    a3da:	4007e793          	ori	a5,a5,1024
    a3de:	00f92023          	sw	a5,0(s2)
    a3e2:	401c6a5b          	bnec	s8,65,a3f6 <__printf_float_impl+0x62>
    a3e6:	00092783          	lw	a5,0(s2)
    a3ea:	6705                	c.lui	a4,0x1
    a3ec:	80070713          	addi	a4,a4,-2048 # 800 <analog_read_reg8+0x2c>
    a3f0:	8fd9                	c.or	a5,a4
    a3f2:	00f92023          	sw	a5,0(s2)
    a3f6:	7ff00793          	li	a5,2047
    a3fa:	04f41663          	bne	s0,a5,a446 <__printf_float_impl+0xb2>
    a3fe:	00092783          	lw	a5,0(s2)
    a402:	00ad66b3          	or	a3,s10,a0
    a406:	fdf7f793          	andi	a5,a5,-33
    a40a:	00f92023          	sw	a5,0(s2)
    a40e:	c69d                	c.beqz	a3,a43c <__printf_float_impl+0xa8>
    a410:	0008c5b7          	lui	a1,0x8c
    a414:	a0058593          	addi	a1,a1,-1536 # 8ba00 <__digits+0x10>
    a418:	855a                	c.mv	a0,s6
    a41a:	2679                	c.jal	a7a8 <strcpy>
    a41c:	050d                	c.addi	a0,3
    a41e:	6155                	c.addi16sp	sp,304
    a420:	5550006f          	j	b174 <__riscv_restore_12>
    a424:	4981                	c.li	s3,0
    a426:	f81c6a5b          	bnec	s8,65,a3ba <__printf_float_impl+0x26>
    a42a:	01f65993          	srli	s3,a2,0x1f
    a42e:	b771                	c.j	a3ba <__printf_float_impl+0x26>
    a430:	f8d9                	c.bnez	s1,a3c6 <__printf_float_impl+0x32>
    a432:	fb9c0493          	addi	s1,s8,-71
    a436:	0014b493          	seqz	s1,s1
    a43a:	b771                	c.j	a3c6 <__printf_float_impl+0x32>
    a43c:	0008c5b7          	lui	a1,0x8c
    a440:	a0458593          	addi	a1,a1,-1532 # 8ba04 <__digits+0x14>
    a444:	bfd1                	c.j	a418 <__printf_float_impl+0x84>
    a446:	e811                	c.bnez	s0,a45a <__printf_float_impl+0xc6>
    a448:	00ad66b3          	or	a3,s10,a0
    a44c:	c0300413          	li	s0,-1021
    a450:	18069763          	bnez	a3,a5de <__printf_float_impl+0x24a>
    a454:	03500413          	li	s0,53
    a458:	a829                	c.j	a472 <__printf_float_impl+0xde>
    a45a:	00100db7          	lui	s11,0x100
    a45e:	01adedb3          	or	s11,s11,s10
    a462:	c0240413          	addi	s0,s0,-1022
    a466:	03400793          	li	a5,52
    a46a:	8aaa                	c.mv	s5,a0
    a46c:	8d6e                	c.mv	s10,s11
    a46e:	1687d663          	bge	a5,s0,a5da <__printf_float_impl+0x246>
    a472:	fcb40413          	addi	s0,s0,-53
    a476:	00445b93          	srli	s7,s0,0x4
    a47a:	001b9c93          	slli	s9,s7,0x1
    a47e:	8666                	c.mv	a2,s9
    a480:	4581                	c.li	a1,0
    a482:	1008                	c.addi4spn	a0,sp,32
    a484:	e62ff0ef          	jal	ra,9ae6 <memset>
    a488:	883d                	c.andi	s0,15
    a48a:	1a0c                	c.addi4spn	a1,sp,304
    a48c:	9cae                	c.add	s9,a1
    a48e:	8622                	c.mv	a2,s0
    a490:	8556                	c.mv	a0,s5
    a492:	85ea                	c.mv	a1,s10
    a494:	475000ef          	jal	ra,b108 <__ashldi3>
    a498:	4641                	c.li	a2,16
    a49a:	eeac9823          	sh	a0,-272(s9)
    a49e:	1014                	c.addi4spn	a3,sp,32
    a4a0:	0b85                	c.addi	s7,1
    a4a2:	8e01                	c.sub	a2,s0
    a4a4:	8556                	c.mv	a0,s5
    a4a6:	85ea                	c.mv	a1,s10
    a4a8:	0b768cdb          	lea.h	s9,a3,s7
    a4ac:	42d000ef          	jal	ra,b0d8 <__lshrdi3>
    a4b0:	8666                	c.mv	a2,s9
    a4b2:	e33ff0ef          	jal	ra,a2e4 <__int_to_poly>
    a4b6:	4c81                	c.li	s9,0
    a4b8:	9baa                	c.add	s7,a0
    a4ba:	57fd                	c.li	a5,-1
    a4bc:	ce3e                	c.swsp	a5,28(sp)
    a4be:	4429                	c.li	s0,10
    a4c0:	401c635b          	bnec	s8,65,a4c6 <__printf_float_impl+0x132>
    a4c4:	4441                	c.li	s0,16
    a4c6:	885e                	c.mv	a6,s7
    a4c8:	101c                	c.addi4spn	a5,sp,32
    a4ca:	4685                	c.li	a3,1
    a4cc:	0878                	c.addi4spn	a4,sp,28
    a4ce:	4601                	c.li	a2,0
    a4d0:	85a2                	c.mv	a1,s0
    a4d2:	855a                	c.mv	a0,s6
    a4d4:	e2fff0ef          	jal	ra,a302 <__print_integral_poly>
    a4d8:	02e00793          	li	a5,46
    a4dc:	00f50023          	sb	a5,0(a0)
    a4e0:	001bbb93          	seqz	s7,s7
    a4e4:	0dba7a13          	andi	s4,s4,219
    a4e8:	00150693          	addi	a3,a0,1
    a4ec:	87de                	c.mv	a5,s7
    a4ee:	401a535b          	beqc	s4,65,a4f4 <__printf_float_impl+0x160>
    a4f2:	4781                	c.li	a5,0
    a4f4:	00148713          	addi	a4,s1,1
    a4f8:	973e                	c.add	a4,a5
    a4fa:	fffc8893          	addi	a7,s9,-1
    a4fe:	001c9613          	slli	a2,s9,0x1
    a502:	112c                	c.addi4spn	a1,sp,168
    a504:	95b2                	c.add	a1,a2
    a506:	8846                	c.mv	a6,a7
    a508:	4781                	c.li	a5,0
    a50a:	15f9                	c.addi	a1,-2
    a50c:	18085363          	bgez	a6,a692 <__printf_float_impl+0x2fe>
    a510:	01905863          	blez	s9,a520 <__printf_float_impl+0x18c>
    a514:	1a0c                	c.addi4spn	a1,sp,304
    a516:	962e                	c.add	a2,a1
    a518:	f7665603          	lhu	a2,-138(a2)
    a51c:	e211                	c.bnez	a2,a520 <__printf_float_impl+0x18c>
    a51e:	8cc6                	c.mv	s9,a7
    a520:	180b8263          	beqz	s7,a6a4 <__printf_float_impl+0x310>
    a524:	4672                	c.lwsp	a2,28(sp)
    a526:	0017bb93          	seqz	s7,a5
    a52a:	167d                	c.addi	a2,-1
    a52c:	ce32                	c.swsp	a2,28(sp)
    a52e:	0685                	c.addi	a3,1
    a530:	fef68fa3          	sb	a5,-1(a3)
    a534:	f379                	c.bnez	a4,a4fa <__printf_float_impl+0x166>
    a536:	567c6a5b          	bnec	s8,71,a6aa <__printf_float_impl+0x316>
    a53a:	47f2                	c.lwsp	a5,28(sp)
    a53c:	fff48713          	addi	a4,s1,-1
    a540:	1897d763          	bge	a5,s1,a6ce <__printf_float_impl+0x33a>
    a544:	5671                	c.li	a2,-4
    a546:	18c7c463          	blt	a5,a2,a6ce <__printf_float_impl+0x33a>
    a54a:	40f704b3          	sub	s1,a4,a5
    a54e:	04600c13          	li	s8,70
    a552:	0489                	c.addi	s1,2
    a554:	9526                	c.add	a0,s1
    a556:	fff54683          	lbu	a3,-1(a0)
    a55a:	40145713          	srai	a4,s0,0x1
    a55e:	fff50793          	addi	a5,a0,-1
    a562:	00e6a6b3          	slt	a3,a3,a4
    a566:	0016c693          	xori	a3,a3,1
    a56a:	863e                	c.mv	a2,a5
    a56c:	1acb7c63          	bgeu	s6,a2,a724 <__printf_float_impl+0x390>
    a570:	18069863          	bnez	a3,a700 <__printf_float_impl+0x36c>
    a574:	17fd                	c.addi	a5,-1
    a576:	00178513          	addi	a0,a5,1
    a57a:	00fb7763          	bgeu	s6,a5,a588 <__printf_float_impl+0x1f4>
    a57e:	00098563          	beqz	s3,a588 <__printf_float_impl+0x1f4>
    a582:	0007c703          	lbu	a4,0(a5)
    a586:	d77d                	c.beqz	a4,a574 <__printf_float_impl+0x1e0>
    a588:	fff54783          	lbu	a5,-1(a0)
    a58c:	00e7e7db          	bnec	a5,46,a59a <__printf_float_impl+0x206>
    a590:	00092783          	lw	a5,0(s2)
    a594:	4047f35b          	bbs	a5,4,a59a <__printf_float_impl+0x206>
    a598:	157d                	c.addi	a0,-1
    a59a:	46bd                	c.li	a3,15
    a59c:	1f06970b          	addigp	a4,45552 # 8b9f0 <__digits>
    a5a0:	1cab6063          	bltu	s6,a0,a760 <__printf_float_impl+0x3cc>
    a5a4:	5c5c695b          	bnec	s8,69,a776 <__printf_float_impl+0x3e2>
    a5a8:	01850023          	sb	s8,0(a0)
    a5ac:	4772                	c.lwsp	a4,28(sp)
    a5ae:	02d00793          	li	a5,45
    a5b2:	00074463          	bltz	a4,a5ba <__printf_float_impl+0x226>
    a5b6:	02b00793          	li	a5,43
    a5ba:	00f500a3          	sb	a5,1(a0)
    a5be:	47f2                	c.lwsp	a5,28(sp)
    a5c0:	4689                	c.li	a3,2
    a5c2:	40f00733          	neg	a4,a5
    a5c6:	f2f7077f          	maxw	a4,a4,a5
    a5ca:	41f75793          	srai	a5,a4,0x1f
    a5ce:	4601                	c.li	a2,0
    a5d0:	45a9                	c.li	a1,10
    a5d2:	0509                	c.addi	a0,2
    a5d4:	857ff0ef          	jal	ra,9e2a <__print_integral>
    a5d8:	b599                	c.j	a41e <__printf_float_impl+0x8a>
    a5da:	06804563          	bgtz	s0,a644 <__printf_float_impl+0x2b0>
    a5de:	40800433          	neg	s0,s0
    a5e2:	00445b93          	srli	s7,s0,0x4
    a5e6:	001b9d93          	slli	s11,s7,0x1
    a5ea:	866e                	c.mv	a2,s11
    a5ec:	4581                	c.li	a1,0
    a5ee:	1128                	c.addi4spn	a0,sp,168
    a5f0:	cf6ff0ef          	jal	ra,9ae6 <memset>
    a5f4:	112c                	c.addi4spn	a1,sp,168
    a5f6:	883d                	c.andi	s0,15
    a5f8:	9dae                	c.add	s11,a1
    a5fa:	02540413          	addi	s0,s0,37
    a5fe:	876e                	c.mv	a4,s11
    a600:	4c81                	c.li	s9,0
    a602:	001c8793          	addi	a5,s9,1
    a606:	8622                	c.mv	a2,s0
    a608:	8556                	c.mv	a0,s5
    a60a:	85ea                	c.mv	a1,s10
    a60c:	c63a                	c.swsp	a4,12(sp)
    a60e:	c43e                	c.swsp	a5,8(sp)
    a610:	2c9000ef          	jal	ra,b0d8 <__lshrdi3>
    a614:	4732                	c.lwsp	a4,12(sp)
    a616:	1441                	c.addi	s0,-16
    a618:	00a71023          	sh	a0,0(a4)
    a61c:	47a2                	c.lwsp	a5,8(sp)
    a61e:	0709                	c.addi	a4,2
    a620:	02045063          	bgez	s0,a640 <__printf_float_impl+0x2ac>
    a624:	0afd8ddb          	lea.h	s11,s11,a5
    a628:	40800633          	neg	a2,s0
    a62c:	8556                	c.mv	a0,s5
    a62e:	85ea                	c.mv	a1,s10
    a630:	0c89                	c.addi	s9,2
    a632:	2d7000ef          	jal	ra,b108 <__ashldi3>
    a636:	9cde                	c.add	s9,s7
    a638:	00ad9023          	sh	a0,0(s11) # 100000 <FLASH_SIZE>
    a63c:	4b81                	c.li	s7,0
    a63e:	bdb5                	c.j	a4ba <__printf_float_impl+0x126>
    a640:	8cbe                	c.mv	s9,a5
    a642:	b7c1                	c.j	a602 <__printf_float_impl+0x26e>
    a644:	03500613          	li	a2,53
    a648:	8e01                	c.sub	a2,s0
    a64a:	85ee                	c.mv	a1,s11
    a64c:	28d000ef          	jal	ra,b0d8 <__lshrdi3>
    a650:	1010                	c.addi4spn	a2,sp,32
    a652:	c93ff0ef          	jal	ra,a2e4 <__int_to_poly>
    a656:	02500793          	li	a5,37
    a65a:	8baa                	c.mv	s7,a0
    a65c:	40878433          	sub	s0,a5,s0
    a660:	0a810d13          	addi	s10,sp,168
    a664:	4c81                	c.li	s9,0
    a666:	0c85                	c.addi	s9,1
    a668:	00045b63          	bgez	s0,a67e <__printf_float_impl+0x2ea>
    a66c:	40800633          	neg	a2,s0
    a670:	8556                	c.mv	a0,s5
    a672:	85ee                	c.mv	a1,s11
    a674:	295000ef          	jal	ra,b108 <__ashldi3>
    a678:	00ad1023          	sh	a0,0(s10)
    a67c:	bd3d                	c.j	a4ba <__printf_float_impl+0x126>
    a67e:	8622                	c.mv	a2,s0
    a680:	8556                	c.mv	a0,s5
    a682:	85ee                	c.mv	a1,s11
    a684:	255000ef          	jal	ra,b0d8 <__lshrdi3>
    a688:	1441                	c.addi	s0,-16
    a68a:	00ad1023          	sh	a0,0(s10)
    a68e:	0d09                	c.addi	s10,2
    a690:	bfd9                	c.j	a666 <__printf_float_impl+0x2d2>
    a692:	0005d303          	lhu	t1,0(a1)
    a696:	187d                	c.addi	a6,-1
    a698:	c48317ff          	maddr32	a5,t1,s0
    a69c:	00f59023          	sh	a5,0(a1)
    a6a0:	83c1                	c.srli	a5,0x10
    a6a2:	b5a5                	c.j	a50a <__printf_float_impl+0x176>
    a6a4:	177d                	c.addi	a4,-1
    a6a6:	4b81                	c.li	s7,0
    a6a8:	b559                	c.j	a52e <__printf_float_impl+0x19a>
    a6aa:	8726                	c.mv	a4,s1
    a6ac:	ea6c535b          	beqc	s8,70,a552 <__printf_float_impl+0x1be>
    a6b0:	47f2                	c.lwsp	a5,28(sp)
    a6b2:	001b0613          	addi	a2,s6,1
    a6b6:	02f04463          	bgtz	a5,a6de <__printf_float_impl+0x34a>
    a6ba:	c785                	c.beqz	a5,a6e2 <__printf_float_impl+0x34e>
    a6bc:	40f507b3          	sub	a5,a0,a5
    a6c0:	02d7e963          	bltu	a5,a3,a6f2 <__printf_float_impl+0x35e>
    a6c4:	001b0783          	lb	a5,1(s6)
    a6c8:	00fb0023          	sb	a5,0(s6)
    a6cc:	a819                	c.j	a6e2 <__printf_float_impl+0x34e>
    a6ce:	04500c13          	li	s8,69
    a6d2:	bff9                	c.j	a6b0 <__printf_float_impl+0x31c>
    a6d4:	fff50783          	lb	a5,-1(a0)
    a6d8:	157d                	c.addi	a0,-1
    a6da:	00f500a3          	sb	a5,1(a0)
    a6de:	fec51be3          	bne	a0,a2,a6d4 <__printf_float_impl+0x340>
    a6e2:	02e00793          	li	a5,46
    a6e6:	001b0513          	addi	a0,s6,1
    a6ea:	00fb00a3          	sb	a5,1(s6)
    a6ee:	84ba                	c.mv	s1,a4
    a6f0:	b58d                	c.j	a552 <__printf_float_impl+0x1be>
    a6f2:	0785                	c.addi	a5,1
    a6f4:	fff7c603          	lbu	a2,-1(a5)
    a6f8:	0505                	c.addi	a0,1
    a6fa:	fec50fa3          	sb	a2,-1(a0)
    a6fe:	b7c9                	c.j	a6c0 <__printf_float_impl+0x32c>
    a700:	167d                	c.addi	a2,-1
    a702:	00064703          	lbu	a4,0(a2)
    a706:	a6e753db          	beqc	a4,46,a56c <__printf_float_impl+0x1d8>
    a70a:	0705                	c.addi	a4,1
    a70c:	0ff77713          	andi	a4,a4,255
    a710:	00875663          	bge	a4,s0,a71c <__printf_float_impl+0x388>
    a714:	00e60023          	sb	a4,0(a2)
    a718:	4681                	c.li	a3,0
    a71a:	bd89                	c.j	a56c <__printf_float_impl+0x1d8>
    a71c:	8f01                	c.sub	a4,s0
    a71e:	00e60023          	sb	a4,0(a2)
    a722:	b5a9                	c.j	a56c <__printf_float_impl+0x1d8>
    a724:	873e                	c.mv	a4,a5
    a726:	e40687e3          	beqz	a3,a574 <__printf_float_impl+0x1e0>
    a72a:	02eb6363          	bltu	s6,a4,a750 <__printf_float_impl+0x3bc>
    a72e:	4705                	c.li	a4,1
    a730:	00eb0023          	sb	a4,0(s6)
    a734:	4772                	c.lwsp	a4,28(sp)
    a736:	0705                	c.addi	a4,1
    a738:	ce3a                	c.swsp	a4,28(sp)
    a73a:	426c515b          	beqc	s8,70,a75c <__printf_float_impl+0x3c8>
    a73e:	001b0703          	lb	a4,1(s6)
    a742:	00eb0123          	sb	a4,2(s6)
    a746:	02e00713          	li	a4,46
    a74a:	00eb00a3          	sb	a4,1(s6)
    a74e:	b51d                	c.j	a574 <__printf_float_impl+0x1e0>
    a750:	fff70683          	lb	a3,-1(a4)
    a754:	177d                	c.addi	a4,-1
    a756:	00d700a3          	sb	a3,1(a4)
    a75a:	bfc1                	c.j	a72a <__printf_float_impl+0x396>
    a75c:	87aa                	c.mv	a5,a0
    a75e:	bd19                	c.j	a574 <__printf_float_impl+0x1e0>
    a760:	000b4783          	lbu	a5,0(s6)
    a764:	00f6e763          	bltu	a3,a5,a772 <__printf_float_impl+0x3de>
    a768:	97ba                	c.add	a5,a4
    a76a:	00078783          	lb	a5,0(a5)
    a76e:	00fb0023          	sb	a5,0(s6)
    a772:	0b05                	c.addi	s6,1
    a774:	b535                	c.j	a5a0 <__printf_float_impl+0x20c>
    a776:	ca1c645b          	bnec	s8,65,a41e <__printf_float_impl+0x8a>
    a77a:	05000793          	li	a5,80
    a77e:	00f50023          	sb	a5,0(a0)
    a782:	4772                	c.lwsp	a4,28(sp)
    a784:	02d00793          	li	a5,45
    a788:	00074463          	bltz	a4,a790 <__printf_float_impl+0x3fc>
    a78c:	02b00793          	li	a5,43
    a790:	00f500a3          	sb	a5,1(a0)
    a794:	47f2                	c.lwsp	a5,28(sp)
    a796:	4685                	c.li	a3,1
    a798:	40f00733          	neg	a4,a5
    a79c:	f2f7077f          	maxw	a4,a4,a5
    a7a0:	070a                	c.slli	a4,0x2
    a7a2:	41f75793          	srai	a5,a4,0x1f
    a7a6:	b525                	c.j	a5ce <__printf_float_impl+0x23a>

0000a7a8 <strcpy>:
    a7a8:	00b567b3          	or	a5,a0,a1
    a7ac:	8b8d                	c.andi	a5,3
    a7ae:	e3ad                	c.bnez	a5,a810 <strcpy+0x68>
    a7b0:	4198                	c.lw	a4,0(a1)
    a7b2:	200707db          	ffb	a5,a4,zero
    a7b6:	e3a9                	c.bnez	a5,a7f8 <strcpy+0x50>
    a7b8:	00a007b3          	add	a5,zero,a0
    a7bc:	0591                	c.addi	a1,4
    a7be:	0791                	c.addi	a5,4
    a7c0:	fee7ae23          	sw	a4,-4(a5)
    a7c4:	4198                	c.lw	a4,0(a1)
    a7c6:	200706db          	ffb	a3,a4,zero
    a7ca:	daed                	c.beqz	a3,a7bc <strcpy+0x14>
    a7cc:	0005c703          	lbu	a4,0(a1)
    a7d0:	0015c683          	lbu	a3,1(a1)
    a7d4:	0025c603          	lbu	a2,2(a1)
    a7d8:	00e78023          	sb	a4,0(a5)
    a7dc:	00070863          	beqz	a4,a7ec <strcpy+0x44>
    a7e0:	00d780a3          	sb	a3,1(a5)
    a7e4:	c681                	c.beqz	a3,a7ec <strcpy+0x44>
    a7e6:	00c78123          	sb	a2,2(a5)
    a7ea:	e219                	c.bnez	a2,a7f0 <strcpy+0x48>
    a7ec:	00008067          	ret
    a7f0:	000781a3          	sb	zero,3(a5)
    a7f4:	00008067          	ret
    a7f8:	0005c703          	lbu	a4,0(a1)
    a7fc:	87aa                	c.mv	a5,a0
    a7fe:	0015c683          	lbu	a3,1(a1)
    a802:	0025c603          	lbu	a2,2(a1)
    a806:	00e78023          	sb	a4,0(a5)
    a80a:	fb79                	c.bnez	a4,a7e0 <strcpy+0x38>
    a80c:	fe1ff06f          	j	a7ec <strcpy+0x44>
    a810:	00a007b3          	add	a5,zero,a0
    a814:	0005c703          	lbu	a4,0(a1)
    a818:	0785                	c.addi	a5,1
    a81a:	fee78fa3          	sb	a4,-1(a5)
    a81e:	0585                	c.addi	a1,1
    a820:	fb75                	c.bnez	a4,a814 <strcpy+0x6c>
    a822:	8082                	c.jr	ra
    a824:	0001                	c.nop

0000a826 <strnlen>:
    a826:	95aa                	c.add	a1,a0
    a828:	87aa                	c.mv	a5,a0
    a82a:	00b78563          	beq	a5,a1,a834 <strnlen+0xe>
    a82e:	0007c703          	lbu	a4,0(a5)
    a832:	e701                	c.bnez	a4,a83a <strnlen+0x14>
    a834:	40a78533          	sub	a0,a5,a0
    a838:	8082                	c.jr	ra
    a83a:	0785                	c.addi	a5,1
    a83c:	b7fd                	c.j	a82a <strnlen+0x4>
	...

0000a840 <__muldf3>:
    a840:	1101                	c.addi	sp,-32
    a842:	ce22                	c.swsp	s0,28(sp)
    a844:	cc26                	c.swsp	s1,24(sp)
    a846:	ca4a                	c.swsp	s2,20(sp)
    a848:	c84e                	c.swsp	s3,16(sp)
    a84a:	c652                	c.swsp	s4,12(sp)
    a84c:	c456                	c.swsp	s5,8(sp)
    a84e:	c25a                	c.swsp	s6,4(sp)
    a850:	00202373          	frrm	t1
    a854:	7945a75b          	bfoz	a4,a1,30,20
    a858:	4c05a7db          	bfoz	a5,a1,19,0
    a85c:	81fd                	c.srli	a1,0x1f
    a85e:	10070963          	beqz	a4,a970 <__muldf3+0x130>
    a862:	7ff00813          	li	a6,2047
    a866:	07070963          	beq	a4,a6,a8d8 <__muldf3+0x98>
    a86a:	00800837          	lui	a6,0x800
    a86e:	078e                	c.slli	a5,0x3
    a870:	01d55293          	srli	t0,a0,0x1d
    a874:	0107e7b3          	or	a5,a5,a6
    a878:	c0170e13          	addi	t3,a4,-1023
    a87c:	00f2e2b3          	or	t0,t0,a5
    a880:	050e                	c.slli	a0,0x3
    a882:	4701                	c.li	a4,0
    a884:	4381                	c.li	t2,0
    a886:	4801                	c.li	a6,0
    a888:	7946a8db          	bfoz	a7,a3,30,20
    a88c:	4c06a7db          	bfoz	a5,a3,19,0
    a890:	01f6d693          	srli	a3,a3,0x1f
    a894:	12088a63          	beqz	a7,a9c8 <__muldf3+0x188>
    a898:	7ff00e93          	li	t4,2047
    a89c:	17d88a63          	beq	a7,t4,aa10 <__muldf3+0x1d0>
    a8a0:	00800f37          	lui	t5,0x800
    a8a4:	078e                	c.slli	a5,0x3
    a8a6:	01d65e93          	srli	t4,a2,0x1d
    a8aa:	01e7e7b3          	or	a5,a5,t5
    a8ae:	c0188893          	addi	a7,a7,-1023
    a8b2:	00fee7b3          	or	a5,t4,a5
    a8b6:	060e                	c.slli	a2,0x3
    a8b8:	9e46                	c.add	t3,a7
    a8ba:	4f01                	c.li	t5,0
    a8bc:	48bd                	c.li	a7,15
    a8be:	00d5ceb3          	xor	t4,a1,a3
    a8c2:	001e0f93          	addi	t6,t3,1
    a8c6:	16e8e363          	bltu	a7,a4,aa2c <__muldf3+0x1ec>
    a8ca:	2086988b          	addigp	a7,45576 # 8ba08 <__digits+0x18>
    a8ce:	0ce8875b          	lea.w	a4,a7,a4
    a8d2:	4318                	c.lw	a4,0(a4)
    a8d4:	00070067          	jr	a4
    a8d8:	00a7e2b3          	or	t0,a5,a0
    a8dc:	32028263          	beqz	t0,ac00 <__muldf3+0x3c0>
    a8e0:	0137d713          	srli	a4,a5,0x13
    a8e4:	82be                	c.mv	t0,a5
    a8e6:	46070563          	beqz	a4,ad50 <__muldf3+0x510>
    a8ea:	4731                	c.li	a4,12
    a8ec:	7ff00e13          	li	t3,2047
    a8f0:	438d                	c.li	t2,3
    a8f2:	4801                	c.li	a6,0
    a8f4:	f95ff06f          	j	a888 <__muldf3+0x48>
    a8f8:	00d00eb3          	add	t4,zero,a3
    a8fc:	062f605b          	bnec	t5,2,a95c <__muldf3+0x11c>
    a900:	88f6                	c.mv	a7,t4
    a902:	7ff00713          	li	a4,2047
    a906:	4781                	c.li	a5,0
    a908:	00000613          	li	a2,0
    a90c:	4581                	c.li	a1,0
    a90e:	fff006b7          	lui	a3,0xfff00
    a912:	8eed                	c.and	a3,a1
    a914:	4c07a7db          	bfoz	a5,a5,19,0
    a918:	8fd5                	c.or	a5,a3
    a91a:	01471693          	slli	a3,a4,0x14
    a91e:	80100737          	lui	a4,0x80100
    a922:	177d                	c.addi	a4,-1
    a924:	8f7d                	c.and	a4,a5
    a926:	8f55                	c.or	a4,a3
    a928:	08fe                	c.slli	a7,0x1f
    a92a:	7807275b          	bfoz	a4,a4,30,0
    a92e:	8532                	c.mv	a0,a2
    a930:	011765b3          	or	a1,a4,a7
    a934:	3e081e63          	bnez	a6,ad30 <__muldf3+0x4f0>
    a938:	4472                	c.lwsp	s0,28(sp)
    a93a:	44e2                	c.lwsp	s1,24(sp)
    a93c:	4952                	c.lwsp	s2,20(sp)
    a93e:	49c2                	c.lwsp	s3,16(sp)
    a940:	4a32                	c.lwsp	s4,12(sp)
    a942:	4aa2                	c.lwsp	s5,8(sp)
    a944:	4b12                	c.lwsp	s6,4(sp)
    a946:	6105                	c.addi16sp	sp,32
    a948:	00008067          	ret
    a94c:	00b00eb3          	add	t4,zero,a1
    a950:	8f1e                	c.mv	t5,t2
    a952:	8796                	c.mv	a5,t0
    a954:	00a00633          	add	a2,zero,a0
    a958:	ba2f545b          	beqc	t5,2,a900 <__muldf3+0xc0>
    a95c:	363f525b          	beqc	t5,3,acc0 <__muldf3+0x480>
    a960:	221f685b          	bnec	t5,1,ab90 <__muldf3+0x350>
    a964:	88f6                	c.mv	a7,t4
    a966:	4701                	c.li	a4,0
    a968:	4781                	c.li	a5,0
    a96a:	4601                	c.li	a2,0
    a96c:	fa1ff06f          	j	a90c <__muldf3+0xcc>
    a970:	00a7e2b3          	or	t0,a5,a0
    a974:	28028063          	beqz	t0,abf4 <__muldf3+0x3b4>
    a978:	af97877f          	clz32	a4,a5
    a97c:	00079663          	bnez	a5,a988 <__muldf3+0x148>
    a980:	af95077f          	clz32	a4,a0
    a984:	02070713          	addi	a4,a4,32 # 80100020 <_DATA_LMA_START+0x600f4c40>
    a988:	ff570893          	addi	a7,a4,-11
    a98c:	4871                	c.li	a6,28
    a98e:	3b184b63          	blt	a6,a7,ad44 <__muldf3+0x504>
    a992:	42f5                	c.li	t0,29
    a994:	ff870813          	addi	a6,a4,-8
    a998:	411282b3          	sub	t0,t0,a7
    a99c:	005552b3          	srl	t0,a0,t0
    a9a0:	010797b3          	sll	a5,a5,a6
    a9a4:	00f2e2b3          	or	t0,t0,a5
    a9a8:	01051533          	sll	a0,a0,a6
    a9ac:	c0d00e13          	li	t3,-1011
    a9b0:	7946a8db          	bfoz	a7,a3,30,20
    a9b4:	40ee0e33          	sub	t3,t3,a4
    a9b8:	4c06a7db          	bfoz	a5,a3,19,0
    a9bc:	4701                	c.li	a4,0
    a9be:	4381                	c.li	t2,0
    a9c0:	4801                	c.li	a6,0
    a9c2:	82fd                	c.srli	a3,0x1f
    a9c4:	ec089ae3          	bnez	a7,a898 <__muldf3+0x58>
    a9c8:	00c7e8b3          	or	a7,a5,a2
    a9cc:	24088263          	beqz	a7,ac10 <__muldf3+0x3d0>
    a9d0:	af9788ff          	clz32	a7,a5
    a9d4:	00079663          	bnez	a5,a9e0 <__muldf3+0x1a0>
    a9d8:	af9608ff          	clz32	a7,a2
    a9dc:	02088893          	addi	a7,a7,32
    a9e0:	ff588f93          	addi	t6,a7,-11
    a9e4:	4ef1                	c.li	t4,28
    a9e6:	35fec963          	blt	t4,t6,ad38 <__muldf3+0x4f8>
    a9ea:	4ef5                	c.li	t4,29
    a9ec:	ff888f13          	addi	t5,a7,-8
    a9f0:	41fe8eb3          	sub	t4,t4,t6
    a9f4:	01d65eb3          	srl	t4,a2,t4
    a9f8:	01e797b3          	sll	a5,a5,t5
    a9fc:	00fee7b3          	or	a5,t4,a5
    aa00:	01e61633          	sll	a2,a2,t5
    aa04:	411e0e33          	sub	t3,t3,a7
    aa08:	c0de0e13          	addi	t3,t3,-1011
    aa0c:	4f01                	c.li	t5,0
    aa0e:	b57d                	c.j	a8bc <__muldf3+0x7c>
    aa10:	00c7e8b3          	or	a7,a5,a2
    aa14:	7ffe0e13          	addi	t3,t3,2047
    aa18:	20088263          	beqz	a7,ac1c <__muldf3+0x3dc>
    aa1c:	00376713          	ori	a4,a4,3
    aa20:	4f0d                	c.li	t5,3
    aa22:	e937fd5b          	bbs	a5,19,a8bc <__muldf3+0x7c>
    aa26:	4841                	c.li	a6,16
    aa28:	e95ff06f          	j	a8bc <__muldf3+0x7c>
    aa2c:	6f41                	c.lui	t5,0x10
    aa2e:	ffff0713          	addi	a4,t5,-1 # ffff <_RAMCODE_VMA_END+0x4d6f>
    aa32:	00e678b3          	and	a7,a2,a4
    aa36:	01055393          	srli	t2,a0,0x10
    aa3a:	031385b3          	mul	a1,t2,a7
    aa3e:	8d79                	c.and	a0,a4
    aa40:	01065913          	srli	s2,a2,0x10
    aa44:	02a886b3          	mul	a3,a7,a0
    aa48:	862e                	c.mv	a2,a1
    aa4a:	c4a9167f          	maddr32	a2,s2,a0
    aa4e:	03238733          	mul	a4,t2,s2
    aa52:	0106d413          	srli	s0,a3,0x10
    aa56:	9432                	c.add	s0,a2
    aa58:	00b47463          	bgeu	s0,a1,aa60 <__muldf3+0x220>
    aa5c:	01e70733          	add	a4,a4,t5
    aa60:	6b41                	c.lui	s6,0x10
    aa62:	fffb0f13          	addi	t5,s6,-1 # ffff <_RAMCODE_VMA_END+0x4d6f>
    aa66:	01e7f5b3          	and	a1,a5,t5
    aa6a:	02b38a33          	mul	s4,t2,a1
    aa6e:	0107d993          	srli	s3,a5,0x10
    aa72:	01e47633          	and	a2,s0,t5
    aa76:	01e6f6b3          	and	a3,a3,t5
    aa7a:	0642                	c.slli	a2,0x10
    aa7c:	00d60f33          	add	t5,a2,a3
    aa80:	02b50ab3          	mul	s5,a0,a1
    aa84:	01045493          	srli	s1,s0,0x10
    aa88:	87d2                	c.mv	a5,s4
    aa8a:	c4a997ff          	maddr32	a5,s3,a0
    aa8e:	033383b3          	mul	t2,t2,s3
    aa92:	010ad693          	srli	a3,s5,0x10
    aa96:	96be                	c.add	a3,a5
    aa98:	0146f463          	bgeu	a3,s4,aaa0 <__muldf3+0x260>
    aa9c:	016383b3          	add	t2,t2,s6
    aaa0:	6b41                	c.lui	s6,0x10
    aaa2:	fffb0413          	addi	s0,s6,-1 # ffff <_RAMCODE_VMA_END+0x4d6f>
    aaa6:	0102da13          	srli	s4,t0,0x10
    aaaa:	0082f7b3          	and	a5,t0,s0
    aaae:	031a02b3          	mul	t0,s4,a7
    aab2:	0086f633          	and	a2,a3,s0
    aab6:	82c1                	c.srli	a3,0x10
    aab8:	93b6                	c.add	t2,a3
    aaba:	0642                	c.slli	a2,0x10
    aabc:	008afab3          	and	s5,s5,s0
    aac0:	02f888b3          	mul	a7,a7,a5
    aac4:	01560433          	add	s0,a2,s5
    aac8:	94a2                	c.add	s1,s0
    aaca:	8696                	c.mv	a3,t0
    aacc:	c4f916ff          	maddr32	a3,s2,a5
    aad0:	03490633          	mul	a2,s2,s4
    aad4:	0108d513          	srli	a0,a7,0x10
    aad8:	9536                	c.add	a0,a3
    aada:	00557363          	bgeu	a0,t0,aae0 <__muldf3+0x2a0>
    aade:	965a                	c.add	a2,s6
    aae0:	02ba0ab3          	mul	s5,s4,a1
    aae4:	6b41                	c.lui	s6,0x10
    aae6:	fffb0293          	addi	t0,s6,-1 # ffff <_RAMCODE_VMA_END+0x4d6f>
    aaea:	005576b3          	and	a3,a0,t0
    aaee:	06c2                	c.slli	a3,0x10
    aaf0:	0058f8b3          	and	a7,a7,t0
    aaf4:	02b78933          	mul	s2,a5,a1
    aaf8:	98b6                	c.add	a7,a3
    aafa:	8141                	c.srli	a0,0x10
    aafc:	9532                	c.add	a0,a2
    aafe:	85d6                	c.mv	a1,s5
    ab00:	c4f995ff          	maddr32	a1,s3,a5
    ab04:	034982b3          	mul	t0,s3,s4
    ab08:	01095693          	srli	a3,s2,0x10
    ab0c:	00b687b3          	add	a5,a3,a1
    ab10:	0157f463          	bgeu	a5,s5,ab18 <__muldf3+0x2d8>
    ab14:	016282b3          	add	t0,t0,s6
    ab18:	65c1                	c.lui	a1,0x10
    ab1a:	15fd                	c.addi	a1,-1
    ab1c:	00b7f6b3          	and	a3,a5,a1
    ab20:	06c2                	c.slli	a3,0x10
    ab22:	00b975b3          	and	a1,s2,a1
    ab26:	9726                	c.add	a4,s1
    ab28:	96ae                	c.add	a3,a1
    ab2a:	00873633          	sltu	a2,a4,s0
    ab2e:	969e                	c.add	a3,t2
    ab30:	9746                	c.add	a4,a7
    ab32:	00c684b3          	add	s1,a3,a2
    ab36:	011735b3          	sltu	a1,a4,a7
    ab3a:	00a488b3          	add	a7,s1,a0
    ab3e:	00b88433          	add	s0,a7,a1
    ab42:	00c4b633          	sltu	a2,s1,a2
    ab46:	0076b6b3          	sltu	a3,a3,t2
    ab4a:	8ed1                	c.or	a3,a2
    ab4c:	00b435b3          	sltu	a1,s0,a1
    ab50:	83c1                	c.srli	a5,0x10
    ab52:	00a8b533          	sltu	a0,a7,a0
    ab56:	97b6                	c.add	a5,a3
    ab58:	8dc9                	c.or	a1,a0
    ab5a:	00971613          	slli	a2,a4,0x9
    ab5e:	97ae                	c.add	a5,a1
    ab60:	9796                	c.add	a5,t0
    ab62:	01e66633          	or	a2,a2,t5
    ab66:	01745693          	srli	a3,s0,0x17
    ab6a:	07a6                	c.slli	a5,0x9
    ab6c:	00c03633          	snez	a2,a2
    ab70:	835d                	c.srli	a4,0x17
    ab72:	8e59                	c.or	a2,a4
    ab74:	0426                	c.slli	s0,0x9
    ab76:	8fd5                	c.or	a5,a3
    ab78:	8e41                	c.or	a2,s0
    ab7a:	1f87f15b          	bbc	a5,24,ad5c <__muldf3+0x51c>
    ab7e:	00165713          	srli	a4,a2,0x1
    ab82:	8a05                	c.andi	a2,1
    ab84:	01f79693          	slli	a3,a5,0x1f
    ab88:	8e59                	c.or	a2,a4
    ab8a:	8e55                	c.or	a2,a3
    ab8c:	0017d793          	srli	a5,a5,0x1
    ab90:	3fff8713          	addi	a4,t6,1023
    ab94:	0ae05263          	blez	a4,ac38 <__muldf3+0x3f8>
    ab98:	00767693          	andi	a3,a2,7
    ab9c:	c685                	c.beqz	a3,abc4 <__muldf3+0x384>
    ab9e:	00186813          	ori	a6,a6,1
    aba2:	1c235f5b          	beqc	t1,2,ad80 <__muldf3+0x540>
    aba6:	2633535b          	beqc	t1,3,ae0c <__muldf3+0x5cc>
    abaa:	00031d63          	bnez	t1,abc4 <__muldf3+0x384>
    abae:	00f67693          	andi	a3,a2,15
    abb2:	0046d95b          	beqc	a3,4,abc4 <__muldf3+0x384>
    abb6:	00460693          	addi	a3,a2,4
    abba:	00c6b633          	sltu	a2,a3,a2
    abbe:	97b2                	c.add	a5,a2
    abc0:	00d00633          	add	a2,zero,a3
    abc4:	0187f85b          	bbc	a5,24,abd4 <__muldf3+0x394>
    abc8:	ff000737          	lui	a4,0xff000
    abcc:	177d                	c.addi	a4,-1
    abce:	8ff9                	c.and	a5,a4
    abd0:	400f8713          	addi	a4,t6,1024
    abd4:	7fe00693          	li	a3,2046
    abd8:	88f6                	c.mv	a7,t4
    abda:	18e6c363          	blt	a3,a4,ad60 <__muldf3+0x520>
    abde:	00365693          	srli	a3,a2,0x3
    abe2:	01d79613          	slli	a2,a5,0x1d
    abe6:	8e55                	c.or	a2,a3
    abe8:	5837a7db          	bfoz	a5,a5,22,3
    abec:	7ff77713          	andi	a4,a4,2047
    abf0:	d1dff06f          	j	a90c <__muldf3+0xcc>
    abf4:	4711                	c.li	a4,4
    abf6:	4501                	c.li	a0,0
    abf8:	4e01                	c.li	t3,0
    abfa:	4385                	c.li	t2,1
    abfc:	4801                	c.li	a6,0
    abfe:	b169                	c.j	a888 <__muldf3+0x48>
    ac00:	4721                	c.li	a4,8
    ac02:	4501                	c.li	a0,0
    ac04:	7ff00e13          	li	t3,2047
    ac08:	4389                	c.li	t2,2
    ac0a:	4801                	c.li	a6,0
    ac0c:	c7dff06f          	j	a888 <__muldf3+0x48>
    ac10:	00176713          	ori	a4,a4,1
    ac14:	4781                	c.li	a5,0
    ac16:	4601                	c.li	a2,0
    ac18:	4f05                	c.li	t5,1
    ac1a:	b14d                	c.j	a8bc <__muldf3+0x7c>
    ac1c:	00276713          	ori	a4,a4,2
    ac20:	4781                	c.li	a5,0
    ac22:	4601                	c.li	a2,0
    ac24:	4f09                	c.li	t5,2
    ac26:	b959                	c.j	a8bc <__muldf3+0x7c>
    ac28:	4881                	c.li	a7,0
    ac2a:	7ff00713          	li	a4,2047
    ac2e:	000807b7          	lui	a5,0x80
    ac32:	4601                	c.li	a2,0
    ac34:	4841                	c.li	a6,16
    ac36:	b9d9                	c.j	a90c <__muldf3+0xcc>
    ac38:	4685                	c.li	a3,1
    ac3a:	8e99                	c.sub	a3,a4
    ac3c:	eb51                	c.bnez	a4,acd0 <__muldf3+0x490>
    ac3e:	00767593          	andi	a1,a2,7
    ac42:	873e                	c.mv	a4,a5
    ac44:	00058a63          	beqz	a1,ac58 <__muldf3+0x418>
    ac48:	00186813          	ori	a6,a6,1
    ac4c:	1e23565b          	beqc	t1,2,ae38 <__muldf3+0x5f8>
    ac50:	1c335c5b          	beqc	t1,3,ae28 <__muldf3+0x5e8>
    ac54:	1e030663          	beqz	t1,ae40 <__muldf3+0x600>
    ac58:	01875593          	srli	a1,a4,0x18
    ac5c:	0015c593          	xori	a1,a1,1
    ac60:	0015f593          	andi	a1,a1,1
    ac64:	41ef8f93          	addi	t6,t6,1054
    ac68:	01f61733          	sll	a4,a2,t6
    ac6c:	00d65533          	srl	a0,a2,a3
    ac70:	01f79fb3          	sll	t6,a5,t6
    ac74:	00e03633          	snez	a2,a4
    ac78:	00afefb3          	or	t6,t6,a0
    ac7c:	01f66633          	or	a2,a2,t6
    ac80:	00767713          	andi	a4,a2,7
    ac84:	00d7d7b3          	srl	a5,a5,a3
    ac88:	00070a63          	beqz	a4,ac9c <__muldf3+0x45c>
    ac8c:	00186813          	ori	a6,a6,1
    ac90:	1c23545b          	beqc	t1,2,ae58 <__muldf3+0x618>
    ac94:	1c335e5b          	beqc	t1,3,ae70 <__muldf3+0x630>
    ac98:	14030a63          	beqz	t1,adec <__muldf3+0x5ac>
    ac9c:	1777fc5b          	bbc	a5,23,ae14 <__muldf3+0x5d4>
    aca0:	00186813          	ori	a6,a6,1
    aca4:	4705                	c.li	a4,1
    aca6:	4781                	c.li	a5,0
    aca8:	00000613          	li	a2,0
    acac:	01d008b3          	add	a7,zero,t4
    acb0:	c4058ee3          	beqz	a1,a90c <__muldf3+0xcc>
    acb4:	84087c5b          	bbc	a6,0,a90c <__muldf3+0xcc>
    acb8:	00286813          	ori	a6,a6,2
    acbc:	04c0006f          	j	ad08 <__muldf3+0x4c8>
    acc0:	4881                	c.li	a7,0
    acc2:	7ff00713          	li	a4,2047
    acc6:	000807b7          	lui	a5,0x80
    acca:	4601                	c.li	a2,0
    accc:	c41ff06f          	j	a90c <__muldf3+0xcc>
    acd0:	03800593          	li	a1,56
    acd4:	0cd5da63          	bge	a1,a3,ada8 <__muldf3+0x568>
    acd8:	8e5d                	c.or	a2,a5
    acda:	c20d                	c.beqz	a2,acfc <__muldf3+0x4bc>
    acdc:	00186813          	ori	a6,a6,1
    ace0:	01d03633          	snez	a2,t4
    ace4:	00235c5b          	beqc	t1,2,acfc <__muldf3+0x4bc>
    ace8:	ffd30793          	addi	a5,t1,-3
    acec:	0017b793          	seqz	a5,a5
    acf0:	001eb613          	seqz	a2,t4
    acf4:	40f007b3          	neg	a5,a5
    acf8:	00f67633          	and	a2,a2,a5
    acfc:	00286813          	ori	a6,a6,2
    ad00:	88f6                	c.mv	a7,t4
    ad02:	4701                	c.li	a4,0
    ad04:	00000793          	li	a5,0
    ad08:	4581                	c.li	a1,0
    ad0a:	fff006b7          	lui	a3,0xfff00
    ad0e:	8eed                	c.and	a3,a1
    ad10:	4c07a7db          	bfoz	a5,a5,19,0
    ad14:	8fd5                	c.or	a5,a3
    ad16:	801006b7          	lui	a3,0x80100
    ad1a:	16fd                	c.addi	a3,-1
    ad1c:	0752                	c.slli	a4,0x14
    ad1e:	8efd                	c.and	a3,a5
    ad20:	8f55                	c.or	a4,a3
    ad22:	08fe                	c.slli	a7,0x1f
    ad24:	7807275b          	bfoz	a4,a4,30,0
    ad28:	00c00533          	add	a0,zero,a2
    ad2c:	011765b3          	or	a1,a4,a7
    ad30:	00182073          	csrs	fflags,a6
    ad34:	c05ff06f          	j	a938 <__muldf3+0xf8>
    ad38:	fd888793          	addi	a5,a7,-40
    ad3c:	00f617b3          	sll	a5,a2,a5
    ad40:	4601                	c.li	a2,0
    ad42:	b1c9                	c.j	aa04 <__muldf3+0x1c4>
    ad44:	fd870793          	addi	a5,a4,-40 # feffffd8 <_DATA_LMA_START+0xdeff4bf8>
    ad48:	00f512b3          	sll	t0,a0,a5
    ad4c:	4501                	c.li	a0,0
    ad4e:	b9b9                	c.j	a9ac <__muldf3+0x16c>
    ad50:	4731                	c.li	a4,12
    ad52:	7ff00e13          	li	t3,2047
    ad56:	438d                	c.li	t2,3
    ad58:	4841                	c.li	a6,16
    ad5a:	b63d                	c.j	a888 <__muldf3+0x48>
    ad5c:	8ff2                	c.mv	t6,t3
    ad5e:	bd0d                	c.j	ab90 <__muldf3+0x350>
    ad60:	02235a5b          	beqc	t1,2,ad94 <__muldf3+0x554>
    ad64:	0a33505b          	beqc	t1,3,ae04 <__muldf3+0x5c4>
    ad68:	02030863          	beqz	t1,ad98 <__muldf3+0x558>
    ad6c:	001007b7          	lui	a5,0x100
    ad70:	7fe00713          	li	a4,2046
    ad74:	17fd                	c.addi	a5,-1
    ad76:	567d                	c.li	a2,-1
    ad78:	00586813          	ori	a6,a6,5
    ad7c:	f8dff06f          	j	ad08 <__muldf3+0x4c8>
    ad80:	e40e82e3          	beqz	t4,abc4 <__muldf3+0x384>
    ad84:	00860693          	addi	a3,a2,8
    ad88:	00c6b633          	sltu	a2,a3,a2
    ad8c:	97b2                	c.add	a5,a2
    ad8e:	8636                	c.mv	a2,a3
    ad90:	e35ff06f          	j	abc4 <__muldf3+0x384>
    ad94:	fc0e8ce3          	beqz	t4,ad6c <__muldf3+0x52c>
    ad98:	7ff00713          	li	a4,2047
    ad9c:	4781                	c.li	a5,0
    ad9e:	4601                	c.li	a2,0
    ada0:	00586813          	ori	a6,a6,5
    ada4:	f65ff06f          	j	ad08 <__muldf3+0x4c8>
    ada8:	45fd                	c.li	a1,31
    adaa:	0cd5dd63          	bge	a1,a3,ae84 <__muldf3+0x644>
    adae:	5585                	c.li	a1,-31
    adb0:	40e58733          	sub	a4,a1,a4
    adb4:	00e7d733          	srl	a4,a5,a4
    adb8:	0006d8db          	beqc	a3,32,adc8 <__muldf3+0x588>
    adbc:	43ef8f93          	addi	t6,t6,1086
    adc0:	01f797b3          	sll	a5,a5,t6
    adc4:	00f66633          	or	a2,a2,a5
    adc8:	00c03633          	snez	a2,a2
    adcc:	8e59                	c.or	a2,a4
    adce:	00767793          	andi	a5,a2,7
    add2:	c3dd                	c.beqz	a5,ae78 <__muldf3+0x638>
    add4:	00186813          	ori	a6,a6,1
    add8:	06235e5b          	beqc	t1,2,ae54 <__muldf3+0x614>
    addc:	0833585b          	beqc	t1,3,ae6c <__muldf3+0x62c>
    ade0:	4585                	c.li	a1,1
    ade2:	4781                	c.li	a5,0
    ade4:	02031863          	bnez	t1,ae14 <__muldf3+0x5d4>
    ade8:	4781                	c.li	a5,0
    adea:	4585                	c.li	a1,1
    adec:	00f67713          	andi	a4,a2,15
    adf0:	aa47565b          	beqc	a4,4,ac9c <__muldf3+0x45c>
    adf4:	00460713          	addi	a4,a2,4
    adf8:	00c73633          	sltu	a2,a4,a2
    adfc:	97b2                	c.add	a5,a2
    adfe:	863a                	c.mv	a2,a4
    ae00:	e9dff06f          	j	ac9c <__muldf3+0x45c>
    ae04:	f80e8ae3          	beqz	t4,ad98 <__muldf3+0x558>
    ae08:	f65ff06f          	j	ad6c <__muldf3+0x52c>
    ae0c:	da0e9ce3          	bnez	t4,abc4 <__muldf3+0x384>
    ae10:	f75ff06f          	j	ad84 <__muldf3+0x544>
    ae14:	00365713          	srli	a4,a2,0x3
    ae18:	01d79613          	slli	a2,a5,0x1d
    ae1c:	8e59                	c.or	a2,a4
    ae1e:	5837a7db          	bfoz	a5,a5,22,3
    ae22:	4701                	c.li	a4,0
    ae24:	e89ff06f          	j	acac <__muldf3+0x46c>
    ae28:	e20e98e3          	bnez	t4,ac58 <__muldf3+0x418>
    ae2c:	ff863713          	sltiu	a4,a2,-8
    ae30:	00174713          	xori	a4,a4,1
    ae34:	973e                	c.add	a4,a5
    ae36:	b50d                	c.j	ac58 <__muldf3+0x418>
    ae38:	e20e80e3          	beqz	t4,ac58 <__muldf3+0x418>
    ae3c:	ff1ff06f          	j	ae2c <__muldf3+0x5ec>
    ae40:	00f67593          	andi	a1,a2,15
    ae44:	a045da5b          	beqc	a1,4,ac58 <__muldf3+0x418>
    ae48:	ffc63713          	sltiu	a4,a2,-4
    ae4c:	00174713          	xori	a4,a4,1
    ae50:	973e                	c.add	a4,a5
    ae52:	b519                	c.j	ac58 <__muldf3+0x418>
    ae54:	4781                	c.li	a5,0
    ae56:	4585                	c.li	a1,1
    ae58:	e40e82e3          	beqz	t4,ac9c <__muldf3+0x45c>
    ae5c:	00860713          	addi	a4,a2,8
    ae60:	00c73633          	sltu	a2,a4,a2
    ae64:	97b2                	c.add	a5,a2
    ae66:	863a                	c.mv	a2,a4
    ae68:	e35ff06f          	j	ac9c <__muldf3+0x45c>
    ae6c:	4781                	c.li	a5,0
    ae6e:	4585                	c.li	a1,1
    ae70:	e20e96e3          	bnez	t4,ac9c <__muldf3+0x45c>
    ae74:	fe9ff06f          	j	ae5c <__muldf3+0x61c>
    ae78:	820d                	c.srli	a2,0x3
    ae7a:	88f6                	c.mv	a7,t4
    ae7c:	4701                	c.li	a4,0
    ae7e:	4781                	c.li	a5,0
    ae80:	e35ff06f          	j	acb4 <__muldf3+0x474>
    ae84:	4585                	c.li	a1,1
    ae86:	bbf9                	c.j	ac64 <__muldf3+0x424>
    ae88:	0001                	c.nop
	...

0000ae8c <__fixunsdfsi>:
    ae8c:	002027f3          	frrm	a5
    ae90:	3fe00713          	li	a4,1022
    ae94:	7945a6db          	bfoz	a3,a1,30,20
    ae98:	4c05a7db          	bfoz	a5,a1,19,0
    ae9c:	81fd                	c.srli	a1,0x1f
    ae9e:	00d74963          	blt	a4,a3,aeb0 <__fixunsdfsi+0x24>
    aea2:	ce89                	c.beqz	a3,aebc <__fixunsdfsi+0x30>
    aea4:	4501                	c.li	a0,0
    aea6:	4785                	c.li	a5,1
    aea8:	0017a073          	csrs	fflags,a5
    aeac:	00008067          	ret
    aeb0:	c991                	c.beqz	a1,aec4 <__fixunsdfsi+0x38>
    aeb2:	4501                	c.li	a0,0
    aeb4:	47c1                	c.li	a5,16
    aeb6:	0017a073          	csrs	fflags,a5
    aeba:	8082                	c.jr	ra
    aebc:	8d5d                	c.or	a0,a5
    aebe:	f17d                	c.bnez	a0,aea4 <__fixunsdfsi+0x18>
    aec0:	00008067          	ret
    aec4:	41e00713          	li	a4,1054
    aec8:	02d74863          	blt	a4,a3,aef8 <__fixunsdfsi+0x6c>
    aecc:	43300613          	li	a2,1075
    aed0:	00100737          	lui	a4,0x100
    aed4:	8e15                	c.sub	a2,a3
    aed6:	45fd                	c.li	a1,31
    aed8:	8f5d                	c.or	a4,a5
    aeda:	02c5c363          	blt	a1,a2,af00 <__fixunsdfsi+0x74>
    aede:	bed68693          	addi	a3,a3,-1043 # 800ffbed <_DATA_LMA_START+0x600f480d>
    aee2:	00d517b3          	sll	a5,a0,a3
    aee6:	00d71733          	sll	a4,a4,a3
    aeea:	00c55533          	srl	a0,a0,a2
    aeee:	00f037b3          	snez	a5,a5
    aef2:	8d59                	c.or	a0,a4
    aef4:	fbd5                	c.bnez	a5,aea8 <__fixunsdfsi+0x1c>
    aef6:	8082                	c.jr	ra
    aef8:	557d                	c.li	a0,-1
    aefa:	47c1                	c.li	a5,16
    aefc:	fadff06f          	j	aea8 <__fixunsdfsi+0x1c>
    af00:	000658db          	beqc	a2,32,af10 <__fixunsdfsi+0x84>
    af04:	c0d68793          	addi	a5,a3,-1011
    af08:	00f717b3          	sll	a5,a4,a5
    af0c:	00f56533          	or	a0,a0,a5
    af10:	41300793          	li	a5,1043
    af14:	40d786b3          	sub	a3,a5,a3
    af18:	00a037b3          	snez	a5,a0
    af1c:	00d75533          	srl	a0,a4,a3
    af20:	bfd1                	c.j	aef4 <__fixunsdfsi+0x68>
    af22:	0001                	c.nop

0000af24 <__floatsidf>:
    af24:	c925                	c.beqz	a0,af94 <__floatsidf+0x70>
    af26:	40a007b3          	neg	a5,a0
    af2a:	01f55613          	srli	a2,a0,0x1f
    af2e:	f2f5057f          	maxw	a0,a0,a5
    af32:	af95077f          	clz32	a4,a0
    af36:	41e00793          	li	a5,1054
    af3a:	8f99                	c.sub	a5,a4
    af3c:	46a9                	c.li	a3,10
    af3e:	7ff7f793          	andi	a5,a5,2047
    af42:	02e6df63          	bge	a3,a4,af80 <__floatsidf+0x5c>
    af46:	1755                	c.addi	a4,-11
    af48:	00e516b3          	sll	a3,a0,a4
    af4c:	4c06a6db          	bfoz	a3,a3,19,0
    af50:	00000713          	li	a4,0
    af54:	4581                	c.li	a1,0
    af56:	853a                	c.mv	a0,a4
    af58:	fff00737          	lui	a4,0xfff00
    af5c:	8f6d                	c.and	a4,a1
    af5e:	4c06a6db          	bfoz	a3,a3,19,0
    af62:	8ed9                	c.or	a3,a4
    af64:	01479713          	slli	a4,a5,0x14
    af68:	801007b7          	lui	a5,0x80100
    af6c:	17fd                	c.addi	a5,-1
    af6e:	8ff5                	c.and	a5,a3
    af70:	8fd9                	c.or	a5,a4
    af72:	7807a7db          	bfoz	a5,a5,30,0
    af76:	01f61713          	slli	a4,a2,0x1f
    af7a:	00e7e5b3          	or	a1,a5,a4
    af7e:	8082                	c.jr	ra
    af80:	46ad                	c.li	a3,11
    af82:	8e99                	c.sub	a3,a4
    af84:	00d556b3          	srl	a3,a0,a3
    af88:	0755                	c.addi	a4,21
    af8a:	00e51733          	sll	a4,a0,a4
    af8e:	4c06a6db          	bfoz	a3,a3,19,0
    af92:	b7c9                	c.j	af54 <__floatsidf+0x30>
    af94:	4601                	c.li	a2,0
    af96:	4781                	c.li	a5,0
    af98:	4681                	c.li	a3,0
    af9a:	4701                	c.li	a4,0
    af9c:	bf65                	c.j	af54 <__floatsidf+0x30>
	...

0000afa0 <__extendsfdf2>:
    afa0:	e0050753          	fmv.x.w	a4,fa0
    afa4:	002027f3          	frrm	a5
    afa8:	797727db          	bfoz	a5,a4,30,23
    afac:	00178593          	addi	a1,a5,1 # 80100001 <_DATA_LMA_START+0x600f4c21>
    afb0:	0ff5f593          	andi	a1,a1,255
    afb4:	4505                	c.li	a0,1
    afb6:	580726db          	bfoz	a3,a4,22,0
    afba:	01f75613          	srli	a2,a4,0x1f
    afbe:	02b55d63          	bge	a0,a1,aff8 <__extendsfdf2+0x58>
    afc2:	0036d713          	srli	a4,a3,0x3
    afc6:	38078793          	addi	a5,a5,896
    afca:	06f6                	c.slli	a3,0x1d
    afcc:	4581                	c.li	a1,0
    afce:	8536                	c.mv	a0,a3
    afd0:	fff006b7          	lui	a3,0xfff00
    afd4:	8eed                	c.and	a3,a1
    afd6:	4c07275b          	bfoz	a4,a4,19,0
    afda:	8ed9                	c.or	a3,a4
    afdc:	51e7a75b          	bfoz	a4,a5,20,30
    afe0:	801007b7          	lui	a5,0x80100
    afe4:	17fd                	c.addi	a5,-1
    afe6:	8ff5                	c.and	a5,a3
    afe8:	8fd9                	c.or	a5,a4
    afea:	7807a7db          	bfoz	a5,a5,30,0
    afee:	01f61713          	slli	a4,a2,0x1f
    aff2:	00e7e5b3          	or	a1,a5,a4
    aff6:	8082                	c.jr	ra
    aff8:	e785                	c.bnez	a5,b020 <__extendsfdf2+0x80>
    affa:	cabd                	c.beqz	a3,b070 <__extendsfdf2+0xd0>
    affc:	af9685ff          	clz32	a1,a3
    b000:	47a9                	c.li	a5,10
    b002:	06b7db63          	bge	a5,a1,b078 <__extendsfdf2+0xd8>
    b006:	ff558713          	addi	a4,a1,-11 # fff5 <_RAMCODE_VMA_END+0x4d65>
    b00a:	00e69733          	sll	a4,a3,a4
    b00e:	4681                	c.li	a3,0
    b010:	38900793          	li	a5,905
    b014:	8f8d                	c.sub	a5,a1
    b016:	4c07275b          	bfoz	a4,a4,19,0
    b01a:	7ff7f793          	andi	a5,a5,2047
    b01e:	b77d                	c.j	afcc <__extendsfdf2+0x2c>
    b020:	c6a1                	c.beqz	a3,b068 <__extendsfdf2+0xc8>
    b022:	00080737          	lui	a4,0x80
    b026:	0036d793          	srli	a5,a3,0x3
    b02a:	00100837          	lui	a6,0x100
    b02e:	8fd9                	c.or	a5,a4
    b030:	187d                	c.addi	a6,-1
    b032:	01d69713          	slli	a4,a3,0x1d
    b036:	0107f7b3          	and	a5,a5,a6
    b03a:	4566f95b          	bbs	a3,22,b08c <__extendsfdf2+0xec>
    b03e:	4581                	c.li	a1,0
    b040:	853a                	c.mv	a0,a4
    b042:	fff00737          	lui	a4,0xfff00
    b046:	8f6d                	c.and	a4,a1
    b048:	0107f7b3          	and	a5,a5,a6
    b04c:	8fd9                	c.or	a5,a4
    b04e:	7ff006b7          	lui	a3,0x7ff00
    b052:	8edd                	c.or	a3,a5
    b054:	01f61713          	slli	a4,a2,0x1f
    b058:	7806a6db          	bfoz	a3,a3,30,0
    b05c:	00e6e5b3          	or	a1,a3,a4
    b060:	00186073          	csrsi	fflags,16
    b064:	00008067          	ret
    b068:	7ff00793          	li	a5,2047
    b06c:	4701                	c.li	a4,0
    b06e:	bfb9                	c.j	afcc <__extendsfdf2+0x2c>
    b070:	4781                	c.li	a5,0
    b072:	4701                	c.li	a4,0
    b074:	f59ff06f          	j	afcc <__extendsfdf2+0x2c>
    b078:	472d                	c.li	a4,11
    b07a:	8f0d                	c.sub	a4,a1
    b07c:	01558793          	addi	a5,a1,21
    b080:	00e6d733          	srl	a4,a3,a4
    b084:	00f696b3          	sll	a3,a3,a5
    b088:	f89ff06f          	j	b010 <__extendsfdf2+0x70>
    b08c:	4581                	c.li	a1,0
    b08e:	853a                	c.mv	a0,a4
    b090:	fff00737          	lui	a4,0xfff00
    b094:	8f6d                	c.and	a4,a1
    b096:	0107f7b3          	and	a5,a5,a6
    b09a:	8fd9                	c.or	a5,a4
    b09c:	7ff006b7          	lui	a3,0x7ff00
    b0a0:	8edd                	c.or	a3,a5
    b0a2:	01f61713          	slli	a4,a2,0x1f
    b0a6:	7806a6db          	bfoz	a3,a3,30,0
    b0aa:	00e6e5b3          	or	a1,a3,a4
    b0ae:	8082                	c.jr	ra

0000b0b0 <_sbrk>:
    b0b0:	2f06a72b          	lwgp	a4,45808 # 8baf0 <heap_end.2408>
    b0b4:	2f06978b          	addigp	a5,45808 # 8baf0 <heap_end.2408>
    b0b8:	e701                	c.bnez	a4,b0c0 <_sbrk+0x10>
    b0ba:	3206970b          	addigp	a4,45856 # 8bb20 <_end>
    b0be:	c398                	c.sw	a4,0(a5)
    b0c0:	4398                	c.lw	a4,0(a5)
    b0c2:	953a                	c.add	a0,a4
    b0c4:	00a17763          	bgeu	sp,a0,b0d2 <_sbrk+0x22>
    b0c8:	4731                	c.li	a4,12
    b0ca:	2ee6c42b          	swgp	a4,45800 # 8bae8 <__mculib_REENT_errno>
    b0ce:	557d                	c.li	a0,-1
    b0d0:	8082                	c.jr	ra
    b0d2:	c388                	c.sw	a0,0(a5)
    b0d4:	853a                	c.mv	a0,a4
    b0d6:	8082                	c.jr	ra

0000b0d8 <__lshrdi3>:
    b0d8:	ce11                	c.beqz	a2,b0f4 <__lshrdi3+0x1c>
    b0da:	02000793          	li	a5,32
    b0de:	8f91                	c.sub	a5,a2
    b0e0:	00f05c63          	blez	a5,b0f8 <__lshrdi3+0x20>
    b0e4:	00c55533          	srl	a0,a0,a2
    b0e8:	00f597b3          	sll	a5,a1,a5
    b0ec:	00c5d633          	srl	a2,a1,a2
    b0f0:	8d5d                	c.or	a0,a5
    b0f2:	85b2                	c.mv	a1,a2
    b0f4:	00008067          	ret
    b0f8:	40f00533          	neg	a0,a5
    b0fc:	4601                	c.li	a2,0
    b0fe:	00a5d533          	srl	a0,a1,a0
    b102:	85b2                	c.mv	a1,a2
    b104:	bfc5                	c.j	b0f4 <__lshrdi3+0x1c>
    b106:	0001                	c.nop

0000b108 <__ashldi3>:
    b108:	ce11                	c.beqz	a2,b124 <__ashldi3+0x1c>
    b10a:	02000793          	li	a5,32
    b10e:	8f91                	c.sub	a5,a2
    b110:	00f05c63          	blez	a5,b128 <__ashldi3+0x20>
    b114:	00c595b3          	sll	a1,a1,a2
    b118:	00f557b3          	srl	a5,a0,a5
    b11c:	00c51633          	sll	a2,a0,a2
    b120:	8ddd                	c.or	a1,a5
    b122:	8532                	c.mv	a0,a2
    b124:	00008067          	ret
    b128:	40f005b3          	neg	a1,a5
    b12c:	4601                	c.li	a2,0
    b12e:	00b515b3          	sll	a1,a0,a1
    b132:	8532                	c.mv	a0,a2
    b134:	bfc5                	c.j	b124 <__ashldi3+0x1c>
    b136:	0001                	c.nop

0000b138 <__riscv_save_12>:
    b138:	7139                	c.addi16sp	sp,-64
    b13a:	4301                	c.li	t1,0
    b13c:	c66e                	c.swsp	s11,12(sp)
    b13e:	a019                	c.j	b144 <__riscv_save_10+0x4>

0000b140 <__riscv_save_10>:
    b140:	7139                	c.addi16sp	sp,-64
    b142:	5341                	c.li	t1,-16
    b144:	c86a                	c.swsp	s10,16(sp)
    b146:	ca66                	c.swsp	s9,20(sp)
    b148:	cc62                	c.swsp	s8,24(sp)
    b14a:	ce5e                	c.swsp	s7,28(sp)
    b14c:	a019                	c.j	b152 <__riscv_save_4+0x4>

0000b14e <__riscv_save_4>:
    b14e:	7139                	c.addi16sp	sp,-64
    b150:	5301                	c.li	t1,-32
    b152:	d05a                	c.swsp	s6,32(sp)
    b154:	d256                	c.swsp	s5,36(sp)
    b156:	d452                	c.swsp	s4,40(sp)
    b158:	d64e                	c.swsp	s3,44(sp)
    b15a:	d84a                	c.swsp	s2,48(sp)
    b15c:	da26                	c.swsp	s1,52(sp)
    b15e:	dc22                	c.swsp	s0,56(sp)
    b160:	de06                	c.swsp	ra,60(sp)
    b162:	40610133          	sub	sp,sp,t1
    b166:	8282                	c.jr	t0

0000b168 <__riscv_save_0>:
    b168:	1141                	c.addi	sp,-16
    b16a:	c04a                	c.swsp	s2,0(sp)
    b16c:	c226                	c.swsp	s1,4(sp)
    b16e:	c422                	c.swsp	s0,8(sp)
    b170:	c606                	c.swsp	ra,12(sp)
    b172:	8282                	c.jr	t0

0000b174 <__riscv_restore_12>:
    b174:	4db2                	c.lwsp	s11,12(sp)
    b176:	0141                	c.addi	sp,16

0000b178 <__riscv_restore_10>:
    b178:	4d02                	c.lwsp	s10,0(sp)
    b17a:	4c92                	c.lwsp	s9,4(sp)
    b17c:	4c22                	c.lwsp	s8,8(sp)
    b17e:	4bb2                	c.lwsp	s7,12(sp)
    b180:	0141                	c.addi	sp,16

0000b182 <__riscv_restore_4>:
    b182:	4b02                	c.lwsp	s6,0(sp)
    b184:	4a92                	c.lwsp	s5,4(sp)
    b186:	4a22                	c.lwsp	s4,8(sp)
    b188:	49b2                	c.lwsp	s3,12(sp)
    b18a:	0141                	c.addi	sp,16

0000b18c <__riscv_restore_0>:
    b18c:	4902                	c.lwsp	s2,0(sp)
    b18e:	4492                	c.lwsp	s1,4(sp)
    b190:	4422                	c.lwsp	s0,8(sp)
    b192:	40b2                	c.lwsp	ra,12(sp)
    b194:	0141                	c.addi	sp,16
    b196:	8082                	c.jr	ra
    b198:	0010                	0x10
    b19a:	0000                	unimp
    b19c:	0000                	unimp
    b19e:	0000                	unimp
    b1a0:	7a01                	c.lui	s4,0xfffe0
    b1a2:	0052                	c.slli	zero,0x14
    b1a4:	7c01                	c.lui	s8,0xfffe0
    b1a6:	0105                	c.addi	sp,1
    b1a8:	00020d1b          	sext.w	s10,tp
    b1ac:	0048                	c.addi4spn	a0,sp,4
    b1ae:	0000                	unimp
    b1b0:	0018                	0x18
    b1b2:	0000                	unimp
    b1b4:	ff84                	c.fsw	fs1,56(a5)
    b1b6:	0030ffff          	0x30ffff
    b1ba:	0000                	unimp
    b1bc:	4200                	c.lw	s0,0(a2)
    b1be:	400e                	0x400e
    b1c0:	9b44                	exec.it	#876     !
    b1c2:	420d                	c.li	tp,3
    b1c4:	400e42db          	0x400e42db
    b1c8:	9a44                	exec.it	#364     !
    b1ca:	420c                	c.lw	a1,0(a2)
    b1cc:	0b99                	c.addi	s7,6
    b1ce:	9842                	c.add	a6,a6
    b1d0:	420a                	c.lwsp	tp,128(sp)
    b1d2:	d7420997          	auipc	s3,0xd7420
    b1d6:	d9d8                	c.sw	a4,52(a1)
    b1d8:	dbda                	c.swsp	s6,244(sp)
    b1da:	0e42                	c.slli	t3,0x10
    b1dc:	4440                	c.lw	s0,12(s0)
    b1de:	0896                	c.slli	a7,0x5
    b1e0:	9542                	c.add	a0,a6
    b1e2:	06944207          	flq	ft4,105(s0)
    b1e6:	9342                	c.add	t1,a6
    b1e8:	4205                	c.li	tp,1
    b1ea:	0492                	c.slli	s1,0x4
    b1ec:	8942                	c.mv	s2,a6
    b1ee:	02884203          	lbu	tp,40(a6) # 100028 <FLASH_SIZE+0x28>
    b1f2:	8142                	c.mv	sp,a6
    b1f4:	0001                	c.nop
    b1f6:	0000                	unimp
    b1f8:	001c                	0x1c
    b1fa:	0000                	unimp
    b1fc:	0064                	c.addi4spn	s1,sp,12
    b1fe:	0000                	unimp
    b200:	ff68                	c.fsw	fa0,124(a4)
    b202:	000cffff          	0xcffff
    b206:	0000                	unimp
    b208:	4200                	c.lw	s0,0(a2)
    b20a:	100e                	c.slli	zero,0x23
    b20c:	8944                	exec.it	#556     !
    b20e:	4204                	c.lw	s1,0(a2)
    b210:	0288                	c.addi4spn	a0,sp,320
    b212:	8142                	c.mv	sp,a6
    b214:	0001                	c.nop
    b216:	0000                	unimp
    b218:	002c                	c.addi4spn	a1,sp,8
    b21a:	0000                	unimp
    b21c:	0000                	unimp
    b21e:	0000                	unimp
    b220:	7a01                	c.lui	s4,0xfffe0
    b222:	0052                	c.slli	zero,0x14
    b224:	7c01                	c.lui	s8,0xfffe0
    b226:	0101                	c.addi	sp,0
    b228:	0e020d1b          	addiw	s10,tp,224
    b22c:	9b40                	exec.it	#868     !
    b22e:	9a0d                	c.andi	a2,-29
    b230:	990c                	exec.it	#908     !
    b232:	970a980b          	addigp	a6,-77456 # 6d970 <BIN_SIZE+0x56ab6>
    b236:	9609                	c.srai	a2,0x22
    b238:	9508                	exec.it	#898     !
    b23a:	93069407          	flh	fs0,-1744(a3) # 7feff930 <_DATA_LMA_START+0x5fef4550>
    b23e:	9205                	c.srli	a2,0x21
    b240:	8904                	exec.it	#524     !
    b242:	81028803          	lb	a6,-2032(t0) # 9386 <riscv_depthwise_conv_fast_s16+0x30e>
    b246:	0001                	c.nop
    b248:	0044                	c.addi4spn	s1,sp,4
    b24a:	0000                	unimp
    b24c:	0034                	c.addi4spn	a3,sp,8
    b24e:	0000                	unimp
    b250:	ff24                	c.fsw	fs1,120(a4)
    b252:	0024ffff          	0x24ffff
    b256:	0000                	unimp
    b258:	4200                	c.lw	s0,0(a2)
    b25a:	0edb42db          	0xedb42db
    b25e:	4230                	c.lw	a2,64(a2)
    b260:	42da                	c.lwsp	t0,148(sp)
    b262:	42d9                	c.li	t0,22
    b264:	42d8                	c.lw	a4,4(a3)
    b266:	d8d742d7          	0xd8d742d7
    b26a:	dad9                	c.beqz	a3,b200 <__riscv_restore_0+0x74>
    b26c:	42200edb          	0x42200edb
    b270:	42d6                	c.lwsp	t0,84(sp)
    b272:	42d5                	c.li	t0,21
    b274:	42d4                	c.lw	a3,4(a3)
    b276:	d4d342d3          	0xd4d342d3
    b27a:	d6d5                	c.beqz	a3,b226 <__riscv_restore_0+0x9a>
    b27c:	d9d8                	c.sw	a4,52(a1)
    b27e:	dbda                	c.swsp	s6,244(sp)
    b280:	100e                	c.slli	zero,0x23
    b282:	d242                	c.swsp	a6,36(sp)
    b284:	c942                	c.swsp	a6,144(sp)
    b286:	c842                	c.swsp	a6,16(sp)
    b288:	c142                	c.swsp	a6,128(sp)
    b28a:	0e42                	c.slli	t3,0x10
    b28c:	0000                	unimp
	...
