
RV_NN_Convolution_Benchmark.adx:     file format elf32-littleriscv
RV_NN_Convolution_Benchmark.adx
architecture: riscv:rv32, flags 0x00000112:
EXEC_P, HAS_SYMS, D_PAGED
start address 0x20000000

Program Header:
    LOAD off    0x00001000 vaddr 0x20000000 paddr 0x20000000 align 2**12
         filesz 0x0000018a memsz 0x0000018a flags r-x
    LOAD off    0x00002000 vaddr 0x00000000 paddr 0x20000190 align 2**12
         filesz 0x000001bc memsz 0x000001bc flags rwx
    LOAD off    0x00002200 vaddr 0x00000200 paddr 0x20000350 align 2**12
         filesz 0x0000a51c memsz 0x0000a51c flags r-x
    LOAD off    0x0000d000 vaddr 0x00080000 paddr 0x2000a870 align 2**12
         filesz 0x0000baa0 memsz 0x0000badc flags rw-
    LOAD off    0x00018ae0 vaddr 0x0008bae0 paddr 0x20016310 align 2**12
         filesz 0x00000022 memsz 0x00000022 flags rw-
    LOAD off    0x00019adc vaddr 0x0008badc paddr 0x2001634c align 2**12
         filesz 0x00000000 memsz 0x00000004 flags rw-
0x70000000 off    0x00030023 vaddr 0x00000000 paddr 0x00000000 align 2**0
         filesz 0x00000040 memsz 0x00000000 flags r--

Sections:
Idx Name          Size      VMA       LMA       File off  Algn
  0 .vectors      0000018a  20000000  20000000  00001000  2**2
                  CONTENTS, ALLOC, LOAD, READONLY, CODE
  1 .retention_reset 00000154  00000000  20000190  00002000  2**2
                  CONTENTS, ALLOC, LOAD, READONLY, CODE
  2 .retention_data 00000064  00000158  200002e8  00002158  2**2
                  CONTENTS, ALLOC, LOAD, DATA
  3 .ram_code     0000a51c  00000200  20000350  00002200  2**8
                  CONTENTS, ALLOC, LOAD, READONLY, CODE
  4 .data         0000baa0  00080000  2000a870  0000d000  2**3
                  CONTENTS, ALLOC, LOAD, DATA
  5 .sbss         0000003c  0008baa0  20016310  00018aa0  2**2
                  ALLOC
  6 .bss          00000004  0008badc  2001634c  00019adc  2**2
                  ALLOC
  7 .sdk_version  00000022  0008bae0  20016310  00018ae0  2**2
                  CONTENTS, ALLOC, LOAD, DATA
  8 .debug_info   000088e9  00000000  00000000  00018b02  2**0
                  CONTENTS, READONLY, DEBUGGING
  9 .debug_abbrev 00000fb4  00000000  00000000  000213eb  2**0
                  CONTENTS, READONLY, DEBUGGING
 10 .debug_loc    00004a66  00000000  00000000  0002239f  2**0
                  CONTENTS, READONLY, DEBUGGING
 11 .debug_aranges 00000288  00000000  00000000  00026e08  2**3
                  CONTENTS, READONLY, DEBUGGING
 12 .debug_ranges 000008b0  00000000  00000000  00027090  2**3
                  CONTENTS, READONLY, DEBUGGING
 13 .debug_line   00004ebb  00000000  00000000  00027940  2**0
                  CONTENTS, READONLY, DEBUGGING
 14 .debug_str    000037df  00000000  00000000  0002c7fb  2**0
                  CONTENTS, READONLY, DEBUGGING
 15 .comment      00000049  00000000  00000000  0002ffda  2**0
                  CONTENTS, READONLY
 16 .riscv.attributes 00000040  00000000  00000000  00030023  2**0
                  CONTENTS, READONLY
 17 .debug_frame  000006e8  00000000  00000000  00030064  2**2
                  CONTENTS, READONLY, DEBUGGING
SYMBOL TABLE:
20000000 l    d  .vectors	00000000 .vectors
00000000 l    d  .retention_reset	00000000 .retention_reset
00000158 l    d  .retention_data	00000000 .retention_data
00000200 l    d  .ram_code	00000000 .ram_code
00080000 l    d  .data	00000000 .data
0008baa0 l    d  .sbss	00000000 .sbss
0008badc l    d  .bss	00000000 .bss
0008bae0 l    d  .sdk_version	00000000 .sdk_version
00000000 l    d  .debug_info	00000000 .debug_info
00000000 l    d  .debug_abbrev	00000000 .debug_abbrev
00000000 l    d  .debug_loc	00000000 .debug_loc
00000000 l    d  .debug_aranges	00000000 .debug_aranges
00000000 l    d  .debug_ranges	00000000 .debug_ranges
00000000 l    d  .debug_line	00000000 .debug_line
00000000 l    d  .debug_str	00000000 .debug_str
00000000 l    d  .comment	00000000 .comment
00000000 l    d  .riscv.attributes	00000000 .riscv.attributes
00000000 l    d  .debug_frame	00000000 .debug_frame
00000000 l    df *ABS*	00000000 ./boot/cstartup_flash.o
20000028 l       .vectors	00000000 _START
2000008e l       .vectors	00000000 _RETENTION_RESET_INIT
200000a6 l       .vectors	00000000 _RETENTION_RESET_BEGIN
200000b8 l       .vectors	00000000 _RETENTION_DATA_INIT
200000cc l       .vectors	00000000 _RETENTION_DATA_INIT_BEGIN
200000de l       .vectors	00000000 _RAMCODE_INIT
200000f6 l       .vectors	00000000 _RAMCODE_INIT_BEGIN
20000108 l       .vectors	00000000 _DATA_INIT
20000120 l       .vectors	00000000 _DATA_INIT_BEGIN
20000132 l       .vectors	00000000 _ZERO_BSS
20000146 l       .vectors	00000000 _ZERO_BSS_BEGIN
20000152 l       .vectors	00000000 _ZERO_AES
20000166 l       .vectors	00000000 _ZERO_AES_BEGIN
20000172 l       .vectors	00000000 _FILL_STK
20000172 l       .vectors	00000000 _MAIN_FUNC
20000188 l       .vectors	00000000 _END
00000022 l       .retention_reset	00000000 _ISTART
0000002a l       .retention_reset	00000000 _ISWS_USB_DIS
00000088 l       .retention_reset	00000000 _WAKEUP_FLASH
000000a2 l       .retention_reset	00000000 _MSPI_WAIT
000000bc l       .retention_reset	00000000 _WAIT_EFUSE_LOAD_AND_FLASH_WAKEUP_FINISH
000000c2 l       .retention_reset	00000000 _MULTI_ADDRESS_BEGIN
000000d2 l       .retention_reset	00000000 _IZERO_BSS
000000e6 l       .retention_reset	00000000 _IZERO_BSS_BEGIN
000000f2 l       .retention_reset	00000000 _IZERO_AES
00000106 l       .retention_reset	00000000 _IZERO_AES_BEGIN
00000112 l       .retention_reset	00000000 _IFILL_STK
00000112 l       .retention_reset	00000000 _IDATA_INIT
0000012a l       .retention_reset	00000000 _IDATA_INIT_BEGIN
0000013c l       .retention_reset	00000000 _IMAIN_FUNC
00000152 l       .retention_reset	00000000 _IEND
00000040 l       *ABS*	00000000 irqno
00000000 l    df *ABS*	00000000 
00000200 l     F .ram_code	0000001a delay_ms.constprop.12
00000edc l     F .ram_code	000000d4 user_calib_adc_vref.constprop.9
0000021a l     F .ram_code	00000010 mspi_fm_data_line
0000022a l     F .ram_code	0000000c mspi_wait.lto_priv.15
0000022a l     F .ram_code	0000000c mspi_wait.lto_priv.16
00000236 l     F .ram_code	00000018 mspi_stop_xip.lto_priv.13
00000236 l     F .ram_code	00000018 mspi_stop_xip.lto_priv.14
0000024e l     F .ram_code	0000002a flash_send_addr
00000278 l     F .ram_code	00000030 flash_send_cmd
000002a8 l     F .ram_code	00000050 clock_set_32k_tick
00000fb0 l     F .ram_code	00000022 measure_stack_usage
00000fd2 l     F .ram_code	0000001a fill_stack_pattern_to_sp
00000fec l     F .ram_code	00000014 get_bias_address
000002f8 l     F .ram_code	00000044 plic_exit_critical_sec
0000033c l     F .ram_code	00000046 plic_enter_critical_sec
00000382 l     F .ram_code	000000ca flash_mspi_read_ram
00000e04 l     F .ram_code	00000018 flash_read_uid.constprop.7
00000e1c l     F .ram_code	00000020 flash_read_mid
00000e3c l     F .ram_code	0000006c flash_read_mid_uid_with_check
00000ea8 l     F .ram_code	0000001a flash_dread
00001000 l     F .ram_code	0000000e core_interrupt_disable.lto_priv.17
00001000 l     F .ram_code	0000000e core_interrupt_disable.lto_priv.18
0000044c l     F .ram_code	00000036 analog_read_reg32.constprop.5
00000482 l     F .ram_code	0000001a clock_get_32k_tick
0000049c l     F .ram_code	00000076 pm_stimer_recover
00000512 l     F .ram_code	0000003c analog_write_reg8
0000054e l     F .ram_code	0000003a analog_read_reg8
00000588 l     F .ram_code	000000e0 clock_init_ram.constprop.11
00000ec2 l     F .ram_code	0000000e clock_init.constprop.10
0000100e l     F .ram_code	00000046 user_calib_freq_offset.constprop.8
00000668 l     F .ram_code	00000084 pm_wait_bbpll_done
000006ec l     F .ram_code	00000138 pm_sleep_start
00000824 l     F .ram_code	00000100 dr_putchar
00001054 l     F .ram_code	00000016 gpio_input_dis
00000924 l     F .ram_code	00000298 pm_sleep_wakeup_ram.constprop.4
00000ed0 l     F .ram_code	0000000c pm_sleep_wakeup.constprop.3
0000106c l     F .ram_code	000001ae sys_init.constprop.2
0000121c l     F .ram_code	0000000a reset_counters
00001226 l     F .ram_code	0000004c validate.lto_priv.19
00001226 l     F .ram_code	0000004c validate.lto_priv.20
00001272 l     F .ram_code	00000048 validate_s16.lto_priv.21
00001272 l     F .ram_code	00000048 validate_s16.lto_priv.22
000012ba l     F .ram_code	00000136 dw_int16xint8_dilation_riscv_depthwise_conv_s16
000013f0 l     F .ram_code	00000130 dw_int16xint8_riscv_depthwise_conv_s16
00001520 l     F .ram_code	00000126 conv_3x3_dilation_5x5_input_riscv_convolve_s8
00001646 l     F .ram_code	00000196 int16xint8_dilation_1_riscv_convolve_s16
000811a8 l     O .data	00001000 int16xint8_dilation_1_input
000821a8 l     O .data	00000e10 int16xint8_dilation_1_output
00085330 l     O .data	00001ef0 int16xint8_weights
00083060 l     O .data	00002260 int16xint8_input
000894f0 l     O .data	00001ef0 int16xint8xint32_1_weights
00087220 l     O .data	00002260 int16xint8xint32_1_input
00000158 l     O .retention_data	00000004 flash_read_page
0000015c l     O .retention_data	00000001 g_plic_preempt_en
00000160 l     O .retention_data	00000002 s_flash_preempt_config
00000162 l     O .retention_data	00000001 g_pm_long_suspend
00000164 l     O .retention_data	00000004 g_pm_tick_cur
00000168 l     O .retention_data	00000029 pmcd
00000194 l     O .retention_data	00000004 g_pm_tick_32k_calib
00000198 l     O .retention_data	00000001 g_pm_suspend_power_cfg
0000019c l     O .retention_data	00000008 g_pm_early_wakeup_time_us
000001a4 l     O .retention_data	00000004 g_pm_tick_32k_cur
000001a8 l     O .retention_data	00000001 g_pm_tick_update_en
000001ac l     O .retention_data	00000004 g_pm_r_delay_cycle
000001b0 l     O .retention_data	00000008 g_pm_longsleep_early_wakeup_time_us
00080020 l     O .data	00000028 basic_input
00080048 l     O .data	00000014 basic_output_ref
0008005c l     O .data	000000c8 conv_2x2_dilation_input
00080124 l     O .data	00000048 conv_2x2_dilation_output_ref
0008016c l     O .data	00000024 conv_2x2_dilation_weights
00080190 l     O .data	000000c6 conv_3x3_dilation_5x5_input_input
00080258 l     O .data	000000c6 conv_3x3_dilation_5x5_input_output_ref
000803b8 l     O .data	00000024 conv_3x3_dilation_5x5_input_weights
000803dc l     O .data	00000024 depthwise_2_biases
00080400 l     O .data	0000005a depthwise_2_input
0008045c l     O .data	00000024 depthwise_2_output_mult
00080480 l     O .data	00000051 depthwise_2_output_ref
000804d4 l     O .data	00000024 depthwise_2_output_shift
000804f8 l     O .data	0000006c depthwise_2_weights
00080564 l     O .data	00000031 depthwise_dilation_input
00080598 l     O .data	00000031 depthwise_dilation_output_ref
000805cc l     O .data	00000009 depthwise_dilation_weights
000805d8 l     O .data	0000000c depthwise_mult_batches_biases
000805e4 l     O .data	0000005a depthwise_mult_batches_input
00080640 l     O .data	0000000c depthwise_mult_batches_output_mult
0008064c l     O .data	00000024 depthwise_mult_batches_output_ref
00080670 l     O .data	0000000c depthwise_mult_batches_output_shift
0008067c l     O .data	00000018 depthwise_mult_batches_weights
00080698 l     O .data	00000040 dw_int16xint8_biases
000806d8 l     O .data	00000040 dw_int16xint8_dilation_biases
00080718 l     O .data	00000168 dw_int16xint8_dilation_input
00080880 l     O .data	00000020 dw_int16xint8_dilation_output_mult
000808a0 l     O .data	000002d0 dw_int16xint8_dilation_output_ref
00080b70 l     O .data	00000020 dw_int16xint8_dilation_output_shift
00080c98 l     O .data	00000080 dw_int16xint8_dilation_weights
00080d18 l     O .data	00000168 dw_int16xint8_input
00080e80 l     O .data	00000040 dw_int16xint8_mult4_biases
00080ec0 l     O .data	00000050 dw_int16xint8_mult4_input
00080f10 l     O .data	00000020 dw_int16xint8_mult4_output_mult
00080f30 l     O .data	00000010 dw_int16xint8_mult4_output_ref
00080f40 l     O .data	00000020 dw_int16xint8_mult4_output_shift
00080f60 l     O .data	00000060 dw_int16xint8_mult4_weights
00080fc0 l     O .data	00000020 dw_int16xint8_output_mult
00080fe0 l     O .data	00000090 dw_int16xint8_output_ref
00081070 l     O .data	00000020 dw_int16xint8_output_shift
00081118 l     O .data	00000060 dw_int16xint8_weights
00081178 l     O .data	00000020 int16xint8_bias
00081198 l     O .data	00000010 int16xint8_dilation_1_bias
00083050 l     O .data	00000010 int16xint8_dilation_1_weights
000852c0 l     O .data	00000050 int16xint8_output
00085310 l     O .data	00000010 int16xint8_output_multiplier
00085320 l     O .data	00000010 int16xint8_output_shift
00089480 l     O .data	00000050 int16xint8xint32_1_output
000894d0 l     O .data	00000010 int16xint8xint32_1_output_multiplier
000894e0 l     O .data	00000010 int16xint8xint32_1_output_shift
0008baa0 l     O .sbss	00000004 clkFastfreq
0008baa4 l     O .sbss	00000004 exception_mcause
0008baa8 l     O .sbss	00000004 exception_mdcause
0008baac l     O .sbss	00000004 exception_mepc
0008bab0 l     O .sbss	00000004 exception_mstatus
0008bab4 l     O .sbss	00000004 exception_mtval
0008bab8 l     O .sbss	00000004 g_chip_version
0008babc l     O .sbss	00000004 g_pm_status_info
0008ba30 l     O .data	00000001 init_flag.4915
0008ba34 l     O .data	00000006 sys_clk
0008ba40 l     O .data	00000004 basic_biases
0008ba44 l     O .data	00000004 basic_output_mult
0008ba48 l     O .data	00000004 basic_output_shift
0008ba4c l     O .data	00000008 basic_weights
0008ba54 l     O .data	00000008 conv_2x2_dilation_biases
0008ba5c l     O .data	00000008 conv_2x2_dilation_output_mult
0008ba64 l     O .data	00000008 conv_2x2_dilation_output_shift
0008ba6c l     O .data	00000008 conv_3x3_dilation_5x5_input_biases
0008ba74 l     O .data	00000008 conv_3x3_dilation_5x5_input_output_mult
0008ba7c l     O .data	00000008 conv_3x3_dilation_5x5_input_output_shift
0008ba84 l     O .data	00000004 depthwise_dilation_biases
0008ba88 l     O .data	00000004 depthwise_dilation_output_mult
0008ba8c l     O .data	00000004 depthwise_dilation_output_shift
0008ba90 l     O .data	00000008 int16xint8_dilation_1_output_multiplier
0008ba98 l     O .data	00000008 int16xint8_dilation_1_output_shift
0008bae0 l     O .sdk_version	00000022 sdk_version
00000000 l    df *ABS*	00000000 riscv_convolve_wrapper_s16.c.o
000022c8 l       .ram_code	00000000 $x
00000000 l    df *ABS*	00000000 riscv_convolve_wrapper_s8.c.o
000022cc l       .ram_code	00000000 $x
00000000 l    df *ABS*	00000000 riscv_depthwise_conv_get_buffer_sizes_s16.c.o
00002420 l       .ram_code	00000000 $x
00002434 l       .ram_code	00000000 $x
00000000 l    df *ABS*	00000000 riscv_convolve_s16.c.o
00002474 l       .ram_code	00000000 $x
00000000 l    df *ABS*	00000000 riscv_convolve_get_buffer_sizes_s16.c.o
00002928 l       .ram_code	00000000 $x
00000000 l    df *ABS*	00000000 riscv_convolve_1x1_s8_fast.c.o
0000293c l       .ram_code	00000000 $x
00000000 l    df *ABS*	00000000 riscv_convolve_s8.c.o
00002c7c l       .ram_code	00000000 $x
00000000 l    df *ABS*	00000000 riscv_nn_mat_mult_kernel_s8_s16.c.o
000033f4 l       .ram_code	00000000 $x
00000000 l    df *ABS*	00000000 riscv_convolve_get_buffer_sizes_s8.c.o
000038c8 l       .ram_code	00000000 $x
00000000 l    df *ABS*	00000000 riscv_nn_mat_mult_kernel_s16.c.o
00003958 l       .ram_code	00000000 $x
00000000 l    df *ABS*	00000000 riscv_depthwise_conv_get_buffer_sizes_s8.c.o
00004270 l       .ram_code	00000000 $x
00004284 l       .ram_code	00000000 $x
00000000 l    df *ABS*	00000000 riscv_nn_mat_mult_kernel_row_offset_s8_s16.c.o
000042d8 l       .ram_code	00000000 $x
00000000 l    df *ABS*	00000000 riscv_convolve_1x1_s8.c.o
000047bc l       .ram_code	00000000 $x
00000000 l    df *ABS*	00000000 riscv_depthwise_conv_wrapper_s8.c.o
000048e0 l       .ram_code	00000000 $x
00000000 l    df *ABS*	00000000 riscv_depthwise_conv_wrapper_s16.c.o
000049b8 l       .ram_code	00000000 $x
00000000 l    df *ABS*	00000000 riscv_convolve_1_x_n_s8.c.o
00004a4c l       .ram_code	00000000 $x
00000000 l    df *ABS*	00000000 riscv_nn_mat_mult_nt_t_s8.c.o
00004aa0 l       .ram_code	00000000 $x
00000000 l    df *ABS*	00000000 riscv_s8_to_s16_unordered_with_offset.c.o
000057e4 l       .ram_code	00000000 $x
00000000 l    df *ABS*	00000000 riscv_depthwise_conv_s16.c.o
00005868 l       .ram_code	00000000 $x
00000000 l    df *ABS*	00000000 riscv_depthwise_conv_s8.c.o
00005c90 l       .ram_code	00000000 $x
00005c90 l     F .ram_code	000003be depthwise_conv_s8_mult_4
00006050 l       .ram_code	00000000 $x
00000000 l    df *ABS*	00000000 riscv_depthwise_conv_s8_opt.c.o
000064b8 l       .ram_code	00000000 $x
00000000 l    df *ABS*	00000000 riscv_depthwise_conv_3x3_s8.c.o
00006b98 l       .ram_code	00000000 $x
00000000 l    df *ABS*	00000000 riscv_depthwise_conv_fast_s16.c.o
00008380 l       .ram_code	00000000 $x
00000000 l    df *ABS*	00000000 riscv_q7_to_q15_with_offset.c.o
00008c6c l       .ram_code	00000000 $x
00000000 l    df *ABS*	00000000 memcpy.c
00000000 l    df *ABS*	00000000 malloc.c
00000000 l    df *ABS*	00000000 nano-mallocr.c
00000000 l    df *ABS*	00000000 nano-mallocr.c
00000000 l    df *ABS*	00000000 printf.c
00000000 l    df *ABS*	00000000 puts.c
00000000 l    df *ABS*	00000000 strlen.c
00000000 l    df *ABS*	00000000 vprintf.c
00009084 l     F .ram_code	00000038 __vprintf_help
0008bac8 l     O .sbss	00000004 __vprintf_buf
0008bacc l     O .sbss	00000004 __vprintf_buf_len
00000000 l    df *ABS*	00000000 printf_impl.c
00000000 l    df *ABS*	00000000 printf_impl_float.c
00000000 l    df *ABS*	00000000 strcpy.c
00000000 l    df *ABS*	00000000 strnlen.c
00000000 l    df *ABS*	00000000 muldf3.c
00000000 l    df *ABS*	00000000 fixunsdfsi.c
00000000 l    df *ABS*	00000000 floatsidf.c
00000000 l    df *ABS*	00000000 extendsfdf2.c
00000000 l    df *ABS*	00000000 _sbrk.c
0008bad8 l     O .sbss	00000004 heap_end.2408
00000000 l    df *ABS*	00000000 libgcc2.c
00000000 l    df *ABS*	00000000 libgcc2.c
00000000 l    df *ABS*	00000000 printf_data.c
00000000 l    df *ABS*	00000000 impure.c
0008badc l     O .bss	00000000 impure_data
00000000 l    df *ABS*	00000000 
0000a4f8 l       .ram_code	00000000 _EXECIT_BASE_
000022c0  w      .ram_code	00000000 entry_irq55
000022c0  w      .ram_code	00000000 entry_irq13
000022c8 g     F .ram_code	00000002 riscv_convolve_wrapper_s16
00009a14 g     F .ram_code	00000078 strcpy
000022c0  w      .ram_code	00000000 entry_irq15
0000a3d0 g     F .ram_code	0000002e .hidden __ashldi3
000022c0  w      .ram_code	00000000 entry_irq27
000022c0  w      .ram_code	00000000 entry_irq60
000022c0  w      .ram_code	00000000 entry_irq1
000022c0  w      .ram_code	00000000 entry_irq52
000022c0  w      .ram_code	00000000 entry_irq50
000022c0  w      .ram_code	00000000 entry_irq62
00008fd8 g     F .ram_code	0000001e printf
00080800 g       .data	00000000 __global_pointer$
0000a320 g       .ram_code	00000000 .hidden __riscv_save_8
000022c0  w      .ram_code	00000000 entry_irq58
00002420 g     F .ram_code	00000012 riscv_depthwise_conv_fast_s16_get_buffer_size
0000a36c g       .ram_code	00000000 .hidden __riscv_restore_3
00008c6c g     F .ram_code	00000088 riscv_q7_to_q15_with_offset
000001bc g       .retention_data	00000000 _RETENTION_DATA_VMA_END
0000a358 g       .ram_code	00000000 .hidden __riscv_restore_10
0000a320 g       .ram_code	00000000 .hidden __riscv_save_11
00009106 g     F .ram_code	00000048 __print_integral
00000000 g       .retention_reset	00000000 _RETENTION_RESET_VMA_START
000022c0  w      .ram_code	00000000 entry_irq10
000022c0  w      .ram_code	00000000 entry_irq21
00000158 g       .retention_data	00000000 _AES_VMA_START
000022c0  w      .ram_code	00000000 entry_irq48
0000a36c g       .ram_code	00000000 .hidden __riscv_restore_2
000022c0  w      .ram_code	00000000 entry_irq8
000022c0  w      .ram_code	00000000 entry_irq33
0008bae0 g       .bss	00000000 _BSS_VMA_END
00008cf4 g     F .ram_code	000000ee memcpy
20000190 g       *ABS*	00000000 _RETENTION_RESET_LMA_START
0000a18c g     F .ram_code	0000007a .hidden __floatsidf
0000914e g     F .ram_code	00000434 __printf_impl
000022c0  w      .ram_code	00000000 entry_irq12
00008ff6 g     F .ram_code	0000002c puts
000022cc g     F .ram_code	00000154 riscv_convolve_wrapper_s8
00008e8c g     F .ram_code	0000000c malloc
000022c0  w      .ram_code	00000000 entry_irq14
0000a318 g       .ram_code	00000000 .hidden __riscv_save_12
0000a0f4 g     F .ram_code	00000096 .hidden __fixunsdfsi
000022c0  w      .ram_code	00000000 entry_irq2
000022c0  w      .ram_code	00000000 entry_irq51
0000a358 g       .ram_code	00000000 .hidden __riscv_restore_11
000022c0  w      .ram_code	00000000 entry_irq28
000022c0  w      .ram_code	00000000 entry_irq43
0000a348 g       .ram_code	00000000 .hidden __riscv_save_1
0000a36c g       .ram_code	00000000 .hidden __riscv_restore_0
000022c0  w      .ram_code	00000000 entry_irq20
0000a32e g       .ram_code	00000000 .hidden __riscv_save_7
0008baa0 g       .sbss	00000000 _BSS_VMA_START
000022c0  w      .ram_code	00000000 entry_irq63
0008baa0 g       .data	00000000 _DATA_VMA_END
0000a208 g     F .ram_code	00000110 .hidden __extendsfdf2
000022c0  w      .ram_code	00000000 entry_irq46
000022c0  w      .ram_code	00000000 entry_irq31
000022c0  w      .ram_code	00000000 entry_irq16
00100000 g       *ABS*	00000000 FLASH_SIZE
0000a362 g       .ram_code	00000000 .hidden __riscv_restore_5
00080000 g       .data	00000000 _DATA_VMA_START
000048e0 g     F .ram_code	000000d8 riscv_depthwise_conv_wrapper_s8
0000a378  w    F .ram_code	00000026 _sbrk
000022c0  w      .ram_code	00000000 entry_irq53
000022c0  w      .ram_code	00000000 entry_irq11
00000154 g       .retention_reset	00000000 _RETENTION_RESET_VMA_END
00009a8e g     F .ram_code	00000018 strnlen
0000a362 g       .ram_code	00000000 .hidden __riscv_restore_6
00005868 g     F .ram_code	00000426 riscv_depthwise_conv_s16
00002474 g     F .ram_code	000004b4 riscv_convolve_s16
000022c0  w      .ram_code	00000000 entry_irq5
000022c0  w      .ram_code	00000000 entry_irq23
000022c2  w      .ram_code	00000000 trap_handler
000022c0  w      .ram_code	00000000 entry_irq34
0000a3a0 g     F .ram_code	0000002e .hidden __lshrdi3
000022c0  w      .ram_code	00000000 entry_irq36
0000a320 g       .ram_code	00000000 .hidden __riscv_save_9
000022c0  w      .ram_code	00000000 entry_irq44
00004aa0 g     F .ram_code	00000d44 riscv_nn_mat_mult_nt_t_s8
000090bc g     F .ram_code	0000004a vprintf
000022c0  w      .ram_code	00000000 entry_irq45
000022c0  w      .ram_code	00000000 entry_irq26
0000a32e g       .ram_code	00000000 .hidden __riscv_save_4
000022c0  w      .ram_code	00000000 entry_irq41
00006050 g     F .ram_code	00000466 riscv_depthwise_conv_s8
00006b98 g     F .ram_code	000017e6 riscv_depthwise_conv_3x3_s8
000022c0  w      .ram_code	00000000 entry_irq61
20000000 g       .vectors	00000000 BIN_BEGIN
00008ea4 g     F .ram_code	0000008e _free_r
000042d8 g     F .ram_code	000004e4 riscv_nn_mat_mult_kernel_row_offset_s8_s16
0000a348 g       .ram_code	00000000 .hidden __riscv_save_3
000047bc g     F .ram_code	00000124 riscv_convolve_1x1_s8
000022c0  w      .ram_code	00000000 entry_irq38
00000d00 g       .ram_code	00000000 __vectors
00016332 g       *ABS*	00000000 BIN_SIZE
0008b9d8 g     O .data	00000010 __digits
20000350 g       *ABS*	00000000 _RAMCODE_LMA_START
000038c8 g     F .ram_code	0000008e riscv_convolve_wrapper_s8_get_buffer_size
00004a4c g     F .ram_code	00000054 riscv_convolve_1_x_n_s8
0008bad4 g     O .sbss	00000004 __printf_count
000022c0  w      .ram_code	00000000 entry_irq59
000022c0  w      .ram_code	00000000 entry_irq6
00009aa8 g     F .ram_code	00000648 .hidden __muldf3
0000a320 g       .ram_code	00000000 .hidden __riscv_save_10
0008bad0 g     O .sbss	00000004 __mculib_REENT_errno
2000a870 g       *ABS*	00000000 _DATA_LMA_START
000095a0 g     F .ram_code	00000092 __print_integral_poly
20000000 g       *ABS*	00000000 NDS_SAG_LMA_FLASH
0000a362 g       .ram_code	00000000 .hidden __riscv_restore_4
0000a358 g       .ram_code	00000000 .hidden __riscv_restore_8
00008380 g     F .ram_code	000008ec riscv_depthwise_conv_fast_s16
0000a32e g       .ram_code	00000000 .hidden __riscv_save_6
00004270 g     F .ram_code	00000012 riscv_depthwise_conv_s8_opt_get_buffer_size
20000000  w      .vectors	00000000 _RELAX_END_
00009632 g     F .ram_code	000003e2 __printf_float_impl
00008de2 g     F .ram_code	000000aa memset
0000a358 g       .ram_code	00000000 .hidden __riscv_restore_9
0000a362 g       .ram_code	00000000 .hidden __riscv_restore_7
0000180c g     F .ram_code	00000ab4 main
000022c0 g       .ram_code	00000000 default_irq_entry
000022c0  w      .ram_code	00000000 entry_irq3
00000bbc g     F .ram_code	000000dc trap_entry
00000158 g       .retention_data	00000000 _AES_VMA_END
000057e4 g     F .ram_code	00000084 riscv_s8_to_s16_unordered_with_offset
000022c0  w      .ram_code	00000000 entry_irq39
000022c0  w      .ram_code	00000000 entry_irq49
00008f32 g     F .ram_code	000000a6 _malloc_r
00004284 g     F .ram_code	00000054 riscv_depthwise_conv_wrapper_s8_get_buffer_size
00002434 g     F .ram_code	0000003e riscv_depthwise_conv_wrapper_s16_get_buffer_size
000022c0  w      .ram_code	00000000 entry_irq57
000022c0  w      .ram_code	00000000 entry_irq47
200002e8 g       *ABS*	00000000 _RETENTION_DATA_LMA_START
20000000 g     F .vectors	00000000 _RESET_ENTRY
00003958 g     F .ram_code	00000916 riscv_nn_mat_mult_kernel_s16
00000158 g       .retention_data	00000000 _RETENTION_DATA_VMA_START
000022c0  w      .ram_code	00000000 entry_irq4
000a0000 g       *ABS*	00000000 _STACK_TOP
000022c0  w      .ram_code	00000000 entry_irq22
000022c0  w      .ram_code	00000000 entry_irq30
0008ba3c g     O .data	00000004 _impure_ptr
000022c0  w      .ram_code	00000000 entry_irq42
000049b8 g     F .ram_code	00000094 riscv_depthwise_conv_wrapper_s16
000022c0  w      .ram_code	00000000 entry_irq24
000033f4 g     F .ram_code	000004d4 riscv_nn_mat_mult_kernel_s8_s16
0000a348 g       .ram_code	00000000 .hidden __riscv_save_2
0000a71c g       .ram_code	00000000 _RAMCODE_VMA_END
0000a4f8  w      .ram_code	00000000 _ITB_BASE_
0000a32e g       .ram_code	00000000 .hidden __riscv_save_5
000022c0  w      .ram_code	00000000 entry_irq19
00002928 g     F .ram_code	00000012 riscv_convolve_wrapper_s16_get_buffer_size
000017dc g     F .ram_code	00000030 _write
0008bb08 g       .sdk_version	00000000 _end
000022c0  w      .ram_code	00000000 entry_irq17
000022c0  w      .ram_code	00000000 entry_irq9
000064b8 g     F .ram_code	000006e0 riscv_depthwise_conv_s8_opt
000022c0  w      .ram_code	00000000 entry_irq56
000022c0  w      .ram_code	00000000 entry_irq35
000022c0  w      .ram_code	00000000 entry_irq37
000001b8 g     O .retention_data	00000004 g_pm_mspi_cfg
000022c0  w      .ram_code	00000000 entry_irq54
000022c0  w      .ram_code	00000000 entry_irq40
0000a354 g       .ram_code	00000000 .hidden __riscv_restore_12
00000200 g       .ram_code	00000000 _RAMCODE_VMA_START
0000a348 g       .ram_code	00000000 .hidden __riscv_save_0
00009024 g     F .ram_code	0000005e strlen
000022c0  w      .ram_code	00000000 entry_irq29
0008bac4 g     O .sbss	00000004 __malloc_sbrk_start
00002c7c g     F .ram_code	00000778 riscv_convolve_s8
0008bac0 g     O .sbss	00000004 __malloc_free_list
0000a36c g       .ram_code	00000000 .hidden __riscv_restore_1
0000293c g     F .ram_code	00000340 riscv_convolve_1x1_s8_fast
000022c0  w      .ram_code	00000000 entry_irq7
000022c0  w      .ram_code	00000000 entry_irq32
00000000 g     F .retention_reset	00000000 _IRESET_ENTRY
000022c0  w      .ram_code	00000000 entry_irq18
00009582 g     F .ram_code	0000001e __int_to_poly
00008e98 g     F .ram_code	0000000c free
000022c0  w      .ram_code	00000000 entry_irq25



Disassembly of section .vectors:

20000000 <_RESET_ENTRY>:
20000000:	a025                	c.j	20000028 <_START>
	...
20000016:	0000                	unimp
20000018:	6332                	c.flwsp	ft6,12(sp)
2000001a:	0001                	c.nop
2000001c:	0000                	unimp
2000001e:	0000                	unimp
20000020:	544c4e4b          	fnmsub.h	ft8,fs8,ft4,fa0,rmm
20000024:	0000                	unimp
20000026:	          	sllw	a4,zero,zero

20000028 <_START>:
20000028:	e0080197          	auipc	gp,0xe0080
2000002c:	7d818193          	addi	gp,gp,2008 # 80800 <__global_pointer$>
20000030:	801002b7          	lui	t0,0x80100
20000034:	70028293          	addi	t0,t0,1792 # 80100700 <_DATA_LMA_START+0x600f5e90>
20000038:	04000313          	li	t1,64
2000003c:	506280a3          	sb	t1,1281(t0)
20000040:	e00a0297          	auipc	t0,0xe00a0
20000044:	fc028293          	addi	t0,t0,-64 # a0000 <_STACK_TOP>
20000048:	8116                	c.mv	sp,t0
2000004a:	e000a297          	auipc	t0,0xe000a
2000004e:	4ae28293          	addi	t0,t0,1198 # a4f8 <_ITB_BASE_>
20000052:	80029073          	csrw	uitb,t0
20000056:	6299                	c.lui	t0,0x6
20000058:	3002a2f3          	csrrs	t0,mstatus,t0
2000005c:	00301073          	fssr	zero
20000060:	e0001297          	auipc	t0,0xe0001
20000064:	ca028293          	addi	t0,t0,-864 # d00 <__vectors>
20000068:	30529073          	csrw	mtvec,t0
2000006c:	7d016073          	csrsi	mmisc_ctl,2
20000070:	e40002b7          	lui	t0,0xe4000
20000074:	4309                	c.li	t1,2
20000076:	0062a023          	sw	t1,0(t0) # e4000000 <_DATA_LMA_START+0xc3ff5790>
2000007a:	7ca022f3          	csrr	t0,mcache_ctl
2000007e:	0012e293          	ori	t0,t0,1
20000082:	0022e293          	ori	t0,t0,2
20000086:	7ca29073          	csrw	mcache_ctl,t0
2000008a:	0000100f          	fence.i

2000008e <_RETENTION_RESET_INIT>:
2000008e:	00000317          	auipc	t1,0x0
20000092:	10230313          	addi	t1,t1,258 # 20000190 <_RETENTION_RESET_LMA_START>
20000096:	e0000397          	auipc	t2,0xe0000
2000009a:	f6a38393          	addi	t2,t2,-150 # 0 <_IRESET_ENTRY>
2000009e:	e0000e17          	auipc	t3,0xe0000
200000a2:	0b6e0e13          	addi	t3,t3,182 # 154 <_RETENTION_RESET_VMA_END>

200000a6 <_RETENTION_RESET_BEGIN>:
200000a6:	01c3f963          	bgeu	t2,t3,200000b8 <_RETENTION_DATA_INIT>
200000aa:	00032283          	lw	t0,0(t1)
200000ae:	0053a023          	sw	t0,0(t2)
200000b2:	0311                	c.addi	t1,4
200000b4:	0391                	c.addi	t2,4
200000b6:	bfc5                	c.j	200000a6 <_RETENTION_RESET_BEGIN>

200000b8 <_RETENTION_DATA_INIT>:
200000b8:	00000317          	auipc	t1,0x0
200000bc:	23030313          	addi	t1,t1,560 # 200002e8 <_RETENTION_DATA_LMA_START>
200000c0:	15800393          	li	t2,344
200000c4:	e0000e17          	auipc	t3,0xe0000
200000c8:	0f8e0e13          	addi	t3,t3,248 # 1bc <_RETENTION_DATA_VMA_END>

200000cc <_RETENTION_DATA_INIT_BEGIN>:
200000cc:	01c3f963          	bgeu	t2,t3,200000de <_RAMCODE_INIT>
200000d0:	00032283          	lw	t0,0(t1)
200000d4:	0053a023          	sw	t0,0(t2)
200000d8:	0311                	c.addi	t1,4
200000da:	0391                	c.addi	t2,4
200000dc:	bfc5                	c.j	200000cc <_RETENTION_DATA_INIT_BEGIN>

200000de <_RAMCODE_INIT>:
200000de:	00000317          	auipc	t1,0x0
200000e2:	27230313          	addi	t1,t1,626 # 20000350 <_RAMCODE_LMA_START>
200000e6:	e0000397          	auipc	t2,0xe0000
200000ea:	11a38393          	addi	t2,t2,282 # 200 <delay_ms.constprop.12>
200000ee:	e000ae17          	auipc	t3,0xe000a
200000f2:	62ee0e13          	addi	t3,t3,1582 # a71c <_RAMCODE_VMA_END>

200000f6 <_RAMCODE_INIT_BEGIN>:
200000f6:	01c3f963          	bgeu	t2,t3,20000108 <_DATA_INIT>
200000fa:	00032283          	lw	t0,0(t1)
200000fe:	0053a023          	sw	t0,0(t2)
20000102:	0311                	c.addi	t1,4
20000104:	0391                	c.addi	t2,4
20000106:	bfc5                	c.j	200000f6 <_RAMCODE_INIT_BEGIN>

20000108 <_DATA_INIT>:
20000108:	0000a317          	auipc	t1,0xa
2000010c:	76830313          	addi	t1,t1,1896 # 2000a870 <_DATA_LMA_START>
20000110:	e0080397          	auipc	t2,0xe0080
20000114:	ef038393          	addi	t2,t2,-272 # 80000 <_DATA_VMA_START>
20000118:	e008ce17          	auipc	t3,0xe008c
2000011c:	988e0e13          	addi	t3,t3,-1656 # 8baa0 <_DATA_VMA_END>

20000120 <_DATA_INIT_BEGIN>:
20000120:	01c3f963          	bgeu	t2,t3,20000132 <_ZERO_BSS>
20000124:	00032283          	lw	t0,0(t1)
20000128:	0053a023          	sw	t0,0(t2)
2000012c:	0311                	c.addi	t1,4
2000012e:	0391                	c.addi	t2,4
20000130:	bfc5                	c.j	20000120 <_DATA_INIT_BEGIN>

20000132 <_ZERO_BSS>:
20000132:	000002b7          	lui	t0,0x0
20000136:	e008c397          	auipc	t2,0xe008c
2000013a:	96a38393          	addi	t2,t2,-1686 # 8baa0 <_DATA_VMA_END>
2000013e:	e008ce17          	auipc	t3,0xe008c
20000142:	9a2e0e13          	addi	t3,t3,-1630 # 8bae0 <_BSS_VMA_END>

20000146 <_ZERO_BSS_BEGIN>:
20000146:	01c3f663          	bgeu	t2,t3,20000152 <_ZERO_AES>
2000014a:	0053a023          	sw	t0,0(t2)
2000014e:	0391                	c.addi	t2,4
20000150:	bfdd                	c.j	20000146 <_ZERO_BSS_BEGIN>

20000152 <_ZERO_AES>:
20000152:	000002b7          	lui	t0,0x0
20000156:	e0000397          	auipc	t2,0xe0000
2000015a:	00238393          	addi	t2,t2,2 # 158 <_AES_VMA_END>
2000015e:	e0000e17          	auipc	t3,0xe0000
20000162:	ffae0e13          	addi	t3,t3,-6 # 158 <_AES_VMA_END>

20000166 <_ZERO_AES_BEGIN>:
20000166:	01c3f663          	bgeu	t2,t3,20000172 <_FILL_STK>
2000016a:	0053a023          	sw	t0,0(t2)
2000016e:	0391                	c.addi	t2,4
20000170:	bfdd                	c.j	20000166 <_ZERO_AES_BEGIN>

20000172 <_FILL_STK>:
20000172:	0001                	c.nop
20000174:	e0001297          	auipc	t0,0xe0001
20000178:	69828293          	addi	t0,t0,1688 # 180c <main>
2000017c:	9282                	c.jalr	t0
2000017e:	0001                	c.nop
20000180:	0001                	c.nop
20000182:	0001                	c.nop
20000184:	0001                	c.nop
20000186:	0001                	c.nop

20000188 <_END>:
20000188:	a001                	c.j	20000188 <_END>

Disassembly of section .retention_reset:

00000000 <_IRESET_ENTRY>:
   0:	a00d                	c.j	22 <_ISTART>
	...

00000022 <_ISTART>:
  22:	00080197          	auipc	gp,0x80
  26:	7de18193          	addi	gp,gp,2014 # 80800 <__global_pointer$>

0000002a <_ISWS_USB_DIS>:
  2a:	801002b7          	lui	t0,0x80100
  2e:	70028293          	addi	t0,t0,1792 # 80100700 <_DATA_LMA_START+0x600f5e90>
  32:	04000313          	li	t1,64
  36:	506280a3          	sb	t1,1281(t0)
  3a:	000a0297          	auipc	t0,0xa0
  3e:	fc628293          	addi	t0,t0,-58 # a0000 <_STACK_TOP>
  42:	8116                	c.mv	sp,t0
  44:	0000a297          	auipc	t0,0xa
  48:	4b428293          	addi	t0,t0,1204 # a4f8 <_ITB_BASE_>
  4c:	80029073          	csrw	uitb,t0
  50:	6299                	c.lui	t0,0x6
  52:	3002a2f3          	csrrs	t0,mstatus,t0
  56:	00301073          	fssr	zero
  5a:	00001297          	auipc	t0,0x1
  5e:	ca628293          	addi	t0,t0,-858 # d00 <__vectors>
  62:	30529073          	csrw	mtvec,t0
  66:	7d016073          	csrsi	mmisc_ctl,2
  6a:	e40002b7          	lui	t0,0xe4000
  6e:	4309                	c.li	t1,2
  70:	0062a023          	sw	t1,0(t0) # e4000000 <_DATA_LMA_START+0xc3ff5790>
  74:	7ca022f3          	csrr	t0,mcache_ctl
  78:	0012e293          	ori	t0,t0,1
  7c:	0022e293          	ori	t0,t0,2
  80:	7ca29073          	csrw	mcache_ctl,t0
  84:	0000100f          	fence.i

00000088 <_WAKEUP_FLASH>:
  88:	801402b7          	lui	t0,0x80140
  8c:	0ff00313          	li	t1,255
  90:	4381                	c.li	t2,0
  92:	0ab00e13          	li	t3,171
  96:	326284a3          	sb	t1,809(t0) # 80140329 <_DATA_LMA_START+0x60135ab9>
  9a:	107280a3          	sb	t2,257(t0)
  9e:	11c28023          	sb	t3,256(t0)

000000a2 <_MSPI_WAIT>:
  a2:	801402b7          	lui	t0,0x80140
  a6:	10228383          	lb	t2,258(t0) # 80140102 <_DATA_LMA_START+0x60135892>
  aa:	4e05                	c.li	t3,1
  ac:	4ec1                	c.li	t4,16
  ae:	fe7e0ae3          	beq	t3,t2,a2 <_MSPI_WAIT>
  b2:	11d280a3          	sb	t4,257(t0)
  b6:	4281                	c.li	t0,0
  b8:	14000313          	li	t1,320

000000bc <_WAIT_EFUSE_LOAD_AND_FLASH_WAKEUP_FINISH>:
  bc:	0285                	c.addi	t0,1
  be:	fe537fe3          	bgeu	t1,t0,bc <_WAIT_EFUSE_LOAD_AND_FLASH_WAKEUP_FINISH>

000000c2 <_MULTI_ADDRESS_BEGIN>:
  c2:	801402b7          	lui	t0,0x80140
  c6:	1b800313          	li	t1,440
  ca:	00032383          	lw	t2,0(t1)
  ce:	1072a223          	sw	t2,260(t0) # 80140104 <_DATA_LMA_START+0x60135894>

000000d2 <_IZERO_BSS>:
  d2:	000002b7          	lui	t0,0x0
  d6:	0008c397          	auipc	t2,0x8c
  da:	9ca38393          	addi	t2,t2,-1590 # 8baa0 <_DATA_VMA_END>
  de:	0008ce17          	auipc	t3,0x8c
  e2:	a02e0e13          	addi	t3,t3,-1534 # 8bae0 <_BSS_VMA_END>

000000e6 <_IZERO_BSS_BEGIN>:
  e6:	01c3f663          	bgeu	t2,t3,f2 <_IZERO_AES>
  ea:	0053a023          	sw	t0,0(t2)
  ee:	0391                	c.addi	t2,4
  f0:	bfdd                	c.j	e6 <_IZERO_BSS_BEGIN>

000000f2 <_IZERO_AES>:
  f2:	000002b7          	lui	t0,0x0
  f6:	00000397          	auipc	t2,0x0
  fa:	06238393          	addi	t2,t2,98 # 158 <_AES_VMA_END>
  fe:	00000e17          	auipc	t3,0x0
 102:	05ae0e13          	addi	t3,t3,90 # 158 <_AES_VMA_END>

00000106 <_IZERO_AES_BEGIN>:
 106:	01c3f663          	bgeu	t2,t3,112 <_IDATA_INIT>
 10a:	0053a023          	sw	t0,0(t2)
 10e:	0391                	c.addi	t2,4
 110:	bfdd                	c.j	106 <_IZERO_AES_BEGIN>

00000112 <_IDATA_INIT>:
 112:	2000a317          	auipc	t1,0x2000a
 116:	75e30313          	addi	t1,t1,1886 # 2000a870 <_DATA_LMA_START>
 11a:	00080397          	auipc	t2,0x80
 11e:	ee638393          	addi	t2,t2,-282 # 80000 <_DATA_VMA_START>
 122:	0008ce17          	auipc	t3,0x8c
 126:	97ee0e13          	addi	t3,t3,-1666 # 8baa0 <_DATA_VMA_END>

0000012a <_IDATA_INIT_BEGIN>:
 12a:	01c3f963          	bgeu	t2,t3,13c <_IMAIN_FUNC>
 12e:	00032283          	lw	t0,0(t1)
 132:	0053a023          	sw	t0,0(t2)
 136:	0311                	c.addi	t1,4
 138:	0391                	c.addi	t2,4
 13a:	bfc5                	c.j	12a <_IDATA_INIT_BEGIN>

0000013c <_IMAIN_FUNC>:
 13c:	0001                	c.nop
 13e:	00001297          	auipc	t0,0x1
 142:	6ce28293          	addi	t0,t0,1742 # 180c <main>
 146:	9282                	c.jalr	t0
 148:	0001                	c.nop
 14a:	0001                	c.nop
 14c:	0001                	c.nop
 14e:	0001                	c.nop
 150:	0001                	c.nop

00000152 <_IEND>:
 152:	a001                	c.j	152 <_IEND>

Disassembly of section .ram_code:

00000200 <delay_ms.constprop.12>:
     200:	8004                	exec.it	#8     !
     202:	2007a683          	lw	a3,512(a5)
     206:	0004e7b7          	lui	a5,0x4e
     20a:	8600                	exec.it	#66     !
     20c:	20078793          	addi	a5,a5,512 # 4e200 <BIN_SIZE+0x37ece>
     210:	8a44                	exec.it	#108     !
     212:	8f15                	c.sub	a4,a3
     214:	fee7fee3          	bgeu	a5,a4,210 <delay_ms.constprop.12+0x10>
     218:	8082                	c.jr	ra

0000021a <mspi_fm_data_line>:
     21a:	8c00                	exec.it	#6     !
     21c:	8844                	exec.it	#44     !
     21e:	0f37f793          	andi	a5,a5,243
     222:	8d5d                	c.or	a0,a5
     224:	10a700a3          	sb	a0,257(a4)
     228:	8082                	c.jr	ra

0000022a <mspi_wait.lto_priv.15>:
     22a:	8c00                	exec.it	#6     !
     22c:	10270783          	lb	a5,258(a4)
     230:	fe07fe5b          	bbs	a5,0,22c <mspi_wait.lto_priv.15+0x2>
     234:	8082                	c.jr	ra

00000236 <mspi_stop_xip.lto_priv.13>:
     236:	8814                	exec.it	#13     !
     238:	3fcd                	c.jal	22a <mspi_wait.lto_priv.15>
     23a:	8c00                	exec.it	#6     !
     23c:	8844                	exec.it	#44     !
     23e:	8400                	exec.it	#2     !
     240:	8474                	exec.it	#59     !
     242:	8860                	exec.it	#52     !
     244:	32870783          	lb	a5,808(a4)
     248:	be37fe5b          	bbc	a5,3,244 <mspi_stop_xip.lto_priv.13+0xe>
     24c:	8404                	exec.it	#10     !

0000024e <flash_send_addr>:
     24e:	0fa0a2ef          	jal	t0,a348 <__riscv_save_0>
     252:	5d0527db          	bfoz	a5,a0,23,16
     256:	8044                	exec.it	#40     !
     258:	842a                	c.mv	s0,a0
     25a:	10f48023          	sb	a5,256(s1)
     25e:	37f1                	c.jal	22a <mspi_wait.lto_priv.15>
     260:	3c8427db          	bfoz	a5,s0,15,8
     264:	0ff47413          	andi	s0,s0,255
     268:	10f48023          	sb	a5,256(s1)
     26c:	3f7d                	c.jal	22a <mspi_wait.lto_priv.15>
     26e:	10848023          	sb	s0,256(s1)
     272:	3f65                	c.jal	22a <mspi_wait.lto_priv.15>
     274:	0f80a06f          	j	a36c <__riscv_restore_0>

00000278 <flash_send_cmd>:
     278:	8814                	exec.it	#13     !
     27a:	8004                	exec.it	#8     !
     27c:	8a24                	exec.it	#92     !
     27e:	8834                	exec.it	#29     !
     280:	8674                	exec.it	#123     !
     282:	8620                	exec.it	#82     !
     284:	0001                	c.nop
     286:	0001                	c.nop
     288:	0001                	c.nop
     28a:	0001                	c.nop
     28c:	0001                	c.nop
     28e:	0001                	c.nop
     290:	0001                	c.nop
     292:	0001                	c.nop
     294:	0001                	c.nop
     296:	0001                	c.nop
     298:	8a24                	exec.it	#92     !
     29a:	0ef77713          	andi	a4,a4,239
     29e:	8620                	exec.it	#82     !
     2a0:	10a78023          	sb	a0,256(a5)
     2a4:	3759                	c.jal	22a <mspi_wait.lto_priv.15>
     2a6:	8404                	exec.it	#10     !

000002a8 <clock_set_32k_tick>:
     2a8:	8c00                	exec.it	#6     !
     2aa:	8210                	exec.it	#65     !
     2ac:	8400                	exec.it	#2     !
     2ae:	8870                	exec.it	#53     !
     2b0:	8610                	exec.it	#67     !
     2b2:	8004                	exec.it	#8     !
     2b4:	20b78683          	lb	a3,523(a5)
     2b8:	20b78713          	addi	a4,a5,523
     2bc:	fe66fc5b          	bbs	a3,6,2b4 <clock_set_32k_tick+0xc>
     2c0:	20a7a623          	sw	a0,524(a5)
     2c4:	47a1                	c.li	a5,8
     2c6:	00f70023          	sb	a5,0(a4)
     2ca:	0001                	c.nop
     2cc:	0001                	c.nop
     2ce:	0001                	c.nop
     2d0:	0001                	c.nop
     2d2:	0001                	c.nop
     2d4:	0001                	c.nop
     2d6:	0001                	c.nop
     2d8:	0001                	c.nop
     2da:	0001                	c.nop
     2dc:	0001                	c.nop
     2de:	0001                	c.nop
     2e0:	0001                	c.nop
     2e2:	0001                	c.nop
     2e4:	0001                	c.nop
     2e6:	0001                	c.nop
     2e8:	0001                	c.nop
     2ea:	8c00                	exec.it	#6     !
     2ec:	20b70783          	lb	a5,523(a4)
     2f0:	fe37fe5b          	bbs	a5,3,2ec <clock_set_32k_tick+0x44>
     2f4:	00008067          	ret

000002f8 <plic_exit_critical_sec>:
     2f8:	8070                	exec.it	#49     !
     2fa:	8a34                	exec.it	#93     !
     2fc:	8e60                	exec.it	#118     !
     2fe:	8400                	exec.it	#2     !
     300:	c395                	c.beqz	a5,324 <plic_exit_critical_sec+0x2c>
     302:	c10d                	c.beqz	a0,324 <plic_exit_critical_sec+0x2c>
     304:	300027f3          	csrr	a5,mstatus
     308:	8ba1                	c.andi	a5,8
     30a:	8c34                	exec.it	#31     !
     30c:	c395                	c.beqz	a5,330 <plic_exit_critical_sec+0x38>
     30e:	8270                	exec.it	#113     !
     310:	8810                	exec.it	#5     !
     312:	e4200737          	lui	a4,0xe4200
     316:	00b72023          	sw	a1,0(a4) # e4200000 <_DATA_LMA_START+0xc41f5790>
     31a:	8810                	exec.it	#5     !
     31c:	8650                	exec.it	#99     !
     31e:	8810                	exec.it	#5     !
     320:	00008067          	ret
     324:	ddf5                	c.beqz	a1,320 <plic_exit_critical_sec+0x28>
     326:	3005a5f3          	csrrs	a1,mstatus,a1
     32a:	0ff0000f          	fence
     32e:	bfcd                	c.j	320 <plic_exit_critical_sec+0x28>
     330:	e42007b7          	lui	a5,0xe4200
     334:	c38c                	c.sw	a1,0(a5)
     336:	0ff0000f          	fence
     33a:	b7dd                	c.j	320 <plic_exit_critical_sec+0x28>

0000033c <plic_enter_critical_sec>:
     33c:	8070                	exec.it	#49     !
     33e:	8a34                	exec.it	#93     !
     340:	8e60                	exec.it	#118     !
     342:	8400                	exec.it	#2     !
     344:	c785                	c.beqz	a5,36c <plic_enter_critical_sec+0x30>
     346:	c11d                	c.beqz	a0,36c <plic_enter_critical_sec+0x30>
     348:	e4200737          	lui	a4,0xe4200
     34c:	4308                	c.lw	a0,0(a4)
     34e:	00b57d63          	bgeu	a0,a1,368 <plic_enter_critical_sec+0x2c>
     352:	300027f3          	csrr	a5,mstatus
     356:	8ba1                	c.andi	a5,8
     358:	c395                	c.beqz	a5,37c <plic_enter_critical_sec+0x40>
     35a:	300476f3          	csrrci	a3,mstatus,8
     35e:	8810                	exec.it	#5     !
     360:	c30c                	c.sw	a1,0(a4)
     362:	8810                	exec.it	#5     !
     364:	8650                	exec.it	#99     !
     366:	8810                	exec.it	#5     !
     368:	00008067          	ret
     36c:	30002573          	csrr	a0,mstatus
     370:	8921                	c.andi	a0,8
     372:	d97d                	c.beqz	a0,368 <plic_enter_critical_sec+0x2c>
     374:	8e50                	exec.it	#103     !
     376:	8810                	exec.it	#5     !
     378:	ff1ff06f          	j	368 <plic_enter_critical_sec+0x2c>
     37c:	c30c                	c.sw	a1,0(a4)
     37e:	8810                	exec.it	#5     !
     380:	b7e5                	c.j	368 <plic_enter_critical_sec+0x2c>

00000382 <flash_mspi_read_ram>:
     382:	8220                	exec.it	#80     !
     384:	00000937          	lui	s2,0x0
     388:	8abe                	c.mv	s5,a5
     38a:	15890793          	addi	a5,s2,344 # 158 <_AES_VMA_END>
     38e:	8a2a                	c.mv	s4,a0
     390:	84ae                	c.mv	s1,a1
     392:	0087c503          	lbu	a0,8(a5) # e4200008 <_DATA_LMA_START+0xc41f5798>
     396:	0097c583          	lbu	a1,9(a5)
     39a:	1141                	c.addi	sp,-16
     39c:	c632                	c.swsp	a2,12(sp)
     39e:	8b36                	c.mv	s6,a3
     3a0:	843a                	c.mv	s0,a4
     3a2:	3f69                	c.jal	33c <plic_enter_critical_sec>
     3a4:	89aa                	c.mv	s3,a0
     3a6:	3d41                	c.jal	236 <mspi_stop_xip.lto_priv.13>
     3a8:	8c00                	exec.it	#6     !
     3aa:	8844                	exec.it	#44     !
     3ac:	4501                	c.li	a0,0
     3ae:	0fd7f793          	andi	a5,a5,253
     3b2:	8860                	exec.it	#52     !
     3b4:	359d                	c.jal	21a <mspi_fm_data_line>
     3b6:	8552                	c.mv	a0,s4
     3b8:	35c1                	c.jal	278 <flash_send_cmd>
     3ba:	4632                	c.lwsp	a2,12(sp)
     3bc:	15890913          	addi	s2,s2,344
     3c0:	c219                	c.beqz	a2,3c6 <flash_mspi_read_ram+0x44>
     3c2:	8526                	c.mv	a0,s1
     3c4:	3569                	c.jal	24e <flash_send_addr>
     3c6:	4481                	c.li	s1,0
     3c8:	80140bb7          	lui	s7,0x80140
     3cc:	0764e463          	bltu	s1,s6,434 <flash_mspi_read_ram+0xb2>
     3d0:	01ba64db          	bnec	s4,59,3d8 <flash_mspi_read_ram+0x56>
     3d4:	4511                	c.li	a0,4
     3d6:	3591                	c.jal	21a <mspi_fm_data_line>
     3d8:	8044                	exec.it	#40     !
     3da:	10148783          	lb	a5,257(s1)
     3de:	9aa2                	c.add	s5,s0
     3e0:	8400                	exec.it	#2     !
     3e2:	0027e793          	ori	a5,a5,2
     3e6:	10f480a3          	sb	a5,257(s1)
     3ea:	10048023          	sb	zero,256(s1)
     3ee:	3d35                	c.jal	22a <mspi_wait.lto_priv.15>
     3f0:	10148783          	lb	a5,257(s1)
     3f4:	8400                	exec.it	#2     !
     3f6:	8870                	exec.it	#53     !
     3f8:	10f480a3          	sb	a5,257(s1)
     3fc:	353d                	c.jal	22a <mspi_wait.lto_priv.15>
     3fe:	05541063          	bne	s0,s5,43e <flash_mspi_read_ram+0xbc>
     402:	8c00                	exec.it	#6     !
     404:	8844                	exec.it	#44     !
     406:	0fe7f793          	andi	a5,a5,254
     40a:	8860                	exec.it	#52     !
     40c:	01ba64db          	bnec	s4,59,414 <flash_mspi_read_ram+0x92>
     410:	4501                	c.li	a0,0
     412:	3521                	c.jal	21a <mspi_fm_data_line>
     414:	8c00                	exec.it	#6     !
     416:	8844                	exec.it	#44     !
     418:	8400                	exec.it	#2     !
     41a:	8474                	exec.it	#59     !
     41c:	8860                	exec.it	#52     !
     41e:	0001                	c.nop
     420:	0001                	c.nop
     422:	0001                	c.nop
     424:	0001                	c.nop
     426:	0001                	c.nop
     428:	00894503          	lbu	a0,8(s2)
     42c:	85ce                	c.mv	a1,s3
     42e:	35e9                	c.jal	2f8 <plic_exit_critical_sec>
     430:	0141                	c.addi	sp,16
     432:	8c64                	exec.it	#62     !
     434:	100b8023          	sb	zero,256(s7) # 80140100 <_DATA_LMA_START+0x60135890>
     438:	0485                	c.addi	s1,1
     43a:	3bc5                	c.jal	22a <mspi_wait.lto_priv.15>
     43c:	bf41                	c.j	3cc <flash_mspi_read_ram+0x4a>
     43e:	10048783          	lb	a5,256(s1)
     442:	0405                	c.addi	s0,1
     444:	fef40fa3          	sb	a5,-1(s0)
     448:	33cd                	c.jal	22a <mspi_wait.lto_priv.15>
     44a:	bf55                	c.j	3fe <flash_mspi_read_ram+0x7c>

0000044c <analog_read_reg32.constprop.5>:
     44c:	8814                	exec.it	#13     !
     44e:	3b3000ef          	jal	ra,1000 <core_interrupt_disable.lto_priv.17>
     452:	8c00                	exec.it	#6     !
     454:	4691                	c.li	a3,4
     456:	18d701a3          	sb	a3,387(a4) # e4200183 <_DATA_LMA_START+0xc41f5913>
     45a:	06000693          	li	a3,96
     45e:	18d70023          	sb	a3,384(a4)
     462:	87aa                	c.mv	a5,a0
     464:	04000693          	li	a3,64
     468:	18d70123          	sb	a3,386(a4)
     46c:	18270683          	lb	a3,386(a4)
     470:	fe76fe5b          	bbs	a3,7,46c <analog_read_reg32.constprop.5+0x20>
     474:	18472503          	lw	a0,388(a4)
     478:	c399                	c.beqz	a5,47e <analog_read_reg32.constprop.5+0x32>
     47a:	8650                	exec.it	#99     !
     47c:	8810                	exec.it	#5     !
     47e:	6ef0906f          	j	a36c <__riscv_restore_0>

00000482 <clock_get_32k_tick>:
     482:	6c7092ef          	jal	t0,a348 <__riscv_save_0>
     486:	37d9                	c.jal	44c <analog_read_reg32.constprop.5>
     488:	842a                	c.mv	s0,a0
     48a:	37c9                	c.jal	44c <analog_read_reg32.constprop.5>
     48c:	40850733          	sub	a4,a0,s0
     490:	00a00433          	add	s0,zero,a0
     494:	be176b5b          	bnec	a4,1,48a <clock_get_32k_tick+0x8>
     498:	6d50906f          	j	a36c <__riscv_restore_0>

0000049c <pm_stimer_recover>:
     49c:	8814                	exec.it	#13     !
     49e:	8c00                	exec.it	#6     !
     4a0:	4789                	c.li	a5,2
     4a2:	20f70c23          	sb	a5,536(a4)
     4a6:	8210                	exec.it	#65     !
     4a8:	8400                	exec.it	#2     !
     4aa:	8818                	exec.it	#133     !
     4ac:	8610                	exec.it	#67     !
     4ae:	3fd1                	c.jal	482 <clock_get_32k_tick>
     4b0:	8070                	exec.it	#49     !
     4b2:	15878713          	addi	a4,a5,344
     4b6:	00a74703          	lbu	a4,10(a4)
     4ba:	8a34                	exec.it	#93     !
     4bc:	cf01                	c.beqz	a4,4d4 <pm_stimer_recover+0x38>
     4be:	4bd8                	c.lw	a4,20(a5)
     4c0:	5fd0                	c.lw	a2,60(a5)
     4c2:	40e50733          	sub	a4,a0,a4
     4c6:	4b94                	c.lw	a3,16(a5)
     4c8:	0705                	c.addi	a4,1
     4ca:	8315                	c.srli	a4,0x5
     4cc:	c4c716ff          	maddr32	a3,a4,a2
     4d0:	8736                	c.mv	a4,a3
     4d2:	a819                	c.j	4e8 <pm_stimer_recover+0x4c>
     4d4:	4bd8                	c.lw	a4,20(a5)
     4d6:	5fd4                	c.lw	a3,60(a5)
     4d8:	40e50733          	sub	a4,a0,a4
     4dc:	0705                	c.addi	a4,1
     4de:	02d70733          	mul	a4,a4,a3
     4e2:	4b94                	c.lw	a3,16(a5)
     4e4:	8315                	c.srli	a4,0x5
     4e6:	9736                	c.add	a4,a3
     4e8:	c7d8                	c.sw	a4,12(a5)
     4ea:	4bd8                	c.lw	a4,20(a5)
     4ec:	47d4                	c.lw	a3,12(a5)
     4ee:	8230                	exec.it	#81     !
     4f0:	0705                	c.addi	a4,1
     4f2:	0505                	c.addi	a0,1
     4f4:	0685                	c.addi	a3,1
     4f6:	d7c8                	c.sw	a0,44(a5)
     4f8:	d798                	c.sw	a4,40(a5)
     4fa:	8600                	exec.it	#66     !
     4fc:	801407b7          	lui	a5,0x80140
     500:	20d7a023          	sw	a3,512(a5) # 80140200 <_DATA_LMA_START+0x60135990>
     504:	20b60783          	lb	a5,523(a2)
     508:	be77fe5b          	bbc	a5,7,504 <pm_stimer_recover+0x68>
     50c:	20060c23          	sb	zero,536(a2)
     510:	8404                	exec.it	#10     !

00000512 <analog_write_reg8>:
     512:	637092ef          	jal	t0,a348 <__riscv_save_0>
     516:	1141                	c.addi	sp,-16
     518:	842a                	c.mv	s0,a0
     51a:	c62e                	c.swsp	a1,12(sp)
     51c:	2e5000ef          	jal	ra,1000 <core_interrupt_disable.lto_priv.17>
     520:	8004                	exec.it	#8     !
     522:	18878023          	sb	s0,384(a5)
     526:	45b2                	c.lwsp	a1,12(sp)
     528:	06000713          	li	a4,96
     52c:	18b78223          	sb	a1,388(a5)
     530:	18e78123          	sb	a4,386(a5)
     534:	18278683          	lb	a3,386(a5)
     538:	fe76fe5b          	bbs	a3,7,534 <analog_write_reg8+0x22>
     53c:	18078123          	sb	zero,386(a5)
     540:	c501                	c.beqz	a0,548 <analog_write_reg8+0x36>
     542:	30052573          	csrrs	a0,mstatus,a0
     546:	8810                	exec.it	#5     !
     548:	0141                	c.addi	sp,16
     54a:	6230906f          	j	a36c <__riscv_restore_0>

0000054e <analog_read_reg8>:
     54e:	5fb092ef          	jal	t0,a348 <__riscv_save_0>
     552:	842a                	c.mv	s0,a0
     554:	2ad000ef          	jal	ra,1000 <core_interrupt_disable.lto_priv.17>
     558:	8004                	exec.it	#8     !
     55a:	18878023          	sb	s0,384(a5)
     55e:	4705                	c.li	a4,1
     560:	18e781a3          	sb	a4,387(a5)
     564:	04000713          	li	a4,64
     568:	18e78123          	sb	a4,386(a5)
     56c:	18278703          	lb	a4,386(a5)
     570:	fe777e5b          	bbs	a4,7,56c <analog_read_reg8+0x1e>
     574:	18478783          	lb	a5,388(a5)
     578:	8400                	exec.it	#2     !
     57a:	c501                	c.beqz	a0,582 <analog_read_reg8+0x34>
     57c:	30052573          	csrrs	a0,mstatus,a0
     580:	8810                	exec.it	#5     !
     582:	853e                	c.mv	a0,a5
     584:	5e90906f          	j	a36c <__riscv_restore_0>

00000588 <clock_init_ram.constprop.11>:
     588:	5c1092ef          	jal	t0,a348 <__riscv_save_0>
     58c:	316d                	c.jal	236 <mspi_stop_xip.lto_priv.13>
     58e:	8044                	exec.it	#40     !
     590:	1e848783          	lb	a5,488(s1)
     594:	08000513          	li	a0,128
     598:	8bbd                	c.andi	a5,15
     59a:	1ef48423          	sb	a5,488(s1)
     59e:	3f45                	c.jal	54e <analog_read_reg8>
     5a0:	0e057593          	andi	a1,a0,224
     5a4:	0105e593          	ori	a1,a1,16
     5a8:	08000513          	li	a0,128
     5ac:	379d                	c.jal	512 <analog_write_reg8>
     5ae:	4525                	c.li	a0,9
     5b0:	3f79                	c.jal	54e <analog_read_reg8>
     5b2:	0f357593          	andi	a1,a0,243
     5b6:	0085e593          	ori	a1,a1,8
     5ba:	4525                	c.li	a0,9
     5bc:	3f99                	c.jal	512 <analog_write_reg8>
     5be:	0c000793          	li	a5,192
     5c2:	22f68a2b          	shgp	a5,45620 # 8ba34 <sys_clk>
     5c6:	8420                	exec.it	#18     !
     5c8:	4791                	c.li	a5,4
     5ca:	1ef48da3          	sb	a5,507(s1)
     5ce:	3741                	c.jal	54e <analog_read_reg8>
     5d0:	04056593          	ori	a1,a0,64
     5d4:	8c34                	exec.it	#31     !
     5d6:	8420                	exec.it	#18     !
     5d8:	2346940b          	addigp	s0,45620 # 8ba34 <sys_clk>
     5dc:	3f1d                	c.jal	512 <analog_write_reg8>
     5de:	8c54                	exec.it	#47     !
     5e0:	37bd                	c.jal	54e <analog_read_reg8>
     5e2:	be557e5b          	bbc	a0,5,5de <clock_init_ram.constprop.11+0x56>
     5e6:	8420                	exec.it	#18     !
     5e8:	379d                	c.jal	54e <analog_read_reg8>
     5ea:	0bf57593          	andi	a1,a0,191
     5ee:	8420                	exec.it	#18     !
     5f0:	370d                	c.jal	512 <analog_write_reg8>
     5f2:	8004                	exec.it	#8     !
     5f4:	1e978703          	lb	a4,489(a5)
     5f8:	8b3d                	c.andi	a4,15
     5fa:	04076713          	ori	a4,a4,64
     5fe:	1ee784a3          	sb	a4,489(a5)
     602:	8e24                	exec.it	#94     !
     604:	f8076713          	ori	a4,a4,-128
     608:	8834                	exec.it	#29     !
     60a:	8a14                	exec.it	#77     !
     60c:	8e24                	exec.it	#94     !
     60e:	f8076713          	ori	a4,a4,-128
     612:	8834                	exec.it	#29     !
     614:	8a14                	exec.it	#77     !
     616:	8664                	exec.it	#122     !
     618:	8709                	c.srai	a4,0x2
     61a:	00e402a3          	sb	a4,5(s0)
     61e:	1d878703          	lb	a4,472(a5)
     622:	0fb77713          	andi	a4,a4,251
     626:	1ce78c23          	sb	a4,472(a5)
     62a:	1d878703          	lb	a4,472(a5)
     62e:	0fc77713          	andi	a4,a4,252
     632:	1ce78c23          	sb	a4,472(a5)
     636:	8e24                	exec.it	#94     !
     638:	0f077713          	andi	a4,a4,240
     63c:	00876713          	ori	a4,a4,8
     640:	8a14                	exec.it	#77     !
     642:	8664                	exec.it	#122     !
     644:	40375713          	srai	a4,a4,0x3
     648:	00e40123          	sb	a4,2(s0)
     64c:	8e24                	exec.it	#94     !
     64e:	08f77713          	andi	a4,a4,143
     652:	02076713          	ori	a4,a4,32
     656:	8a14                	exec.it	#77     !
     658:	00244783          	lbu	a5,2(s0)
     65c:	00f401a3          	sb	a5,3(s0)
     660:	00f40223          	sb	a5,4(s0)
     664:	5090906f          	j	a36c <__riscv_restore_0>

00000668 <pm_wait_bbpll_done>:
     668:	4e1092ef          	jal	t0,a348 <__riscv_save_0>
     66c:	1141                	c.addi	sp,-16
     66e:	8420                	exec.it	#18     !
     670:	3df9                	c.jal	54e <analog_read_reg8>
     672:	04056593          	ori	a1,a0,64
     676:	892a                	c.mv	s2,a0
     678:	8c34                	exec.it	#31     !
     67a:	08100513          	li	a0,129
     67e:	0bf97913          	andi	s2,s2,191
     682:	4481                	c.li	s1,0
     684:	4475                	c.li	s0,29
     686:	3571                	c.jal	512 <analog_write_reg8>
     688:	000107a3          	sb	zero,15(sp)
     68c:	0140006f          	j	6a0 <pm_wait_bbpll_done+0x38>
     690:	0001                	c.nop
     692:	00f10783          	lb	a5,15(sp)
     696:	0785                	c.addi	a5,1
     698:	0ff7f793          	andi	a5,a5,255
     69c:	00f107a3          	sb	a5,15(sp)
     6a0:	00f10783          	lb	a5,15(sp)
     6a4:	8400                	exec.it	#2     !
     6a6:	fef475e3          	bgeu	s0,a5,690 <pm_wait_bbpll_done+0x28>
     6aa:	8c54                	exec.it	#47     !
     6ac:	354d                	c.jal	54e <analog_read_reg8>
     6ae:	4255715b          	bbs	a0,5,6d0 <pm_wait_bbpll_done+0x68>
     6b2:	04600593          	li	a1,70
     6b6:	c49d                	c.beqz	s1,6e4 <pm_wait_bbpll_done+0x7c>
     6b8:	0214d45b          	beqc	s1,1,6e0 <pm_wait_bbpll_done+0x78>
     6bc:	85ca                	c.mv	a1,s2
     6be:	08100513          	li	a0,129
     6c2:	3d81                	c.jal	512 <analog_write_reg8>
     6c4:	0024da5b          	beqc	s1,2,6d8 <pm_wait_bbpll_done+0x70>
     6c8:	0485                	c.addi	s1,1
     6ca:	0ff4f493          	andi	s1,s1,255
     6ce:	bf6d                	c.j	688 <pm_wait_bbpll_done+0x20>
     6d0:	85ca                	c.mv	a1,s2
     6d2:	08100513          	li	a0,129
     6d6:	3d35                	c.jal	512 <analog_write_reg8>
     6d8:	01010113          	addi	sp,sp,16
     6dc:	4910906f          	j	a36c <__riscv_restore_0>
     6e0:	04300593          	li	a1,67
     6e4:	4505                	c.li	a0,1
     6e6:	3535                	c.jal	512 <analog_write_reg8>
     6e8:	fe1ff06f          	j	6c8 <pm_wait_bbpll_done+0x60>

000006ec <pm_sleep_start>:
     6ec:	45d092ef          	jal	t0,a348 <__riscv_save_0>
     6f0:	2b86a72b          	lwgp	a4,45752 # 8bab8 <g_chip_version>
     6f4:	000006b7          	lui	a3,0x0
     6f8:	0ff00793          	li	a5,255
     6fc:	ff010113          	addi	sp,sp,-16
     700:	1986c583          	lbu	a1,408(a3) # 198 <g_pm_suspend_power_cfg>
     704:	00f71463          	bne	a4,a5,70c <pm_sleep_start+0x20>
     708:	0fe5f593          	andi	a1,a1,254
     70c:	8234                	exec.it	#89     !
     70e:	8c10                	exec.it	#7     !
     710:	801406b7          	lui	a3,0x80140
     714:	10268783          	lb	a5,258(a3) # 80140102 <_DATA_LMA_START+0x60135892>
     718:	fe07fe5b          	bbs	a5,0,714 <pm_sleep_start+0x28>
     71c:	10168703          	lb	a4,257(a3)
     720:	8004                	exec.it	#8     !
     722:	8834                	exec.it	#29     !
     724:	01076713          	ori	a4,a4,16
     728:	10e680a3          	sb	a4,257(a3)
     72c:	32878703          	lb	a4,808(a5)
     730:	be377e5b          	bbc	a4,3,72c <pm_sleep_start+0x40>
     734:	8a24                	exec.it	#92     !
     736:	80140437          	lui	s0,0x80140
     73a:	0fd77713          	andi	a4,a4,253
     73e:	8620                	exec.it	#82     !
     740:	8a24                	exec.it	#92     !
     742:	0ef77713          	andi	a4,a4,239
     746:	8620                	exec.it	#82     !
     748:	fb900713          	li	a4,-71
     74c:	10e78023          	sb	a4,256(a5)
     750:	10240783          	lb	a5,258(s0) # 80140102 <_DATA_LMA_START+0x60135892>
     754:	fe07fe5b          	bbs	a5,0,750 <pm_sleep_start+0x64>
     758:	10140783          	lb	a5,257(s0)
     75c:	452d                	c.li	a0,11
     75e:	8400                	exec.it	#2     !
     760:	8474                	exec.it	#59     !
     762:	10f400a3          	sb	a5,257(s0)
     766:	320404a3          	sb	zero,809(s0)
     76a:	33d5                	c.jal	54e <analog_read_reg8>
     76c:	0fc57593          	andi	a1,a0,252
     770:	452d                	c.li	a0,11
     772:	3345                	c.jal	512 <analog_write_reg8>
     774:	8420                	exec.it	#18     !
     776:	3be1                	c.jal	54e <analog_read_reg8>
     778:	f8056593          	ori	a1,a0,-128
     77c:	8c34                	exec.it	#31     !
     77e:	8420                	exec.it	#18     !
     780:	3b49                	c.jal	512 <analog_write_reg8>
     782:	8654                	exec.it	#107     !
     784:	1ef407a3          	sb	a5,495(s0)
     788:	03f00493          	li	s1,63
     78c:	00012423          	sw	zero,8(sp)
     790:	47a2                	c.lwsp	a5,8(sp)
     792:	00f4e763          	bltu	s1,a5,7a0 <pm_sleep_start+0xb4>
     796:	0001                	c.nop
     798:	47a2                	c.lwsp	a5,8(sp)
     79a:	0785                	c.addi	a5,1
     79c:	c43e                	c.swsp	a5,8(sp)
     79e:	bfcd                	c.j	790 <pm_sleep_start+0xa4>
     7a0:	8420                	exec.it	#18     !
     7a2:	3375                	c.jal	54e <analog_read_reg8>
     7a4:	07f57593          	andi	a1,a0,127
     7a8:	8420                	exec.it	#18     !
     7aa:	33a5                	c.jal	512 <analog_write_reg8>
     7ac:	452d                	c.li	a0,11
     7ae:	3345                	c.jal	54e <analog_read_reg8>
     7b0:	00356593          	ori	a1,a0,3
     7b4:	8c34                	exec.it	#31     !
     7b6:	452d                	c.li	a0,11
     7b8:	3ba9                	c.jal	512 <analog_write_reg8>
     7ba:	8254                	exec.it	#105     !
     7bc:	8234                	exec.it	#89     !
     7be:	8c10                	exec.it	#7     !
     7c0:	8004                	exec.it	#8     !
     7c2:	329784a3          	sb	s1,809(a5)
     7c6:	10178683          	lb	a3,257(a5)
     7ca:	8c00                	exec.it	#6     !
     7cc:	0ef6f693          	andi	a3,a3,239
     7d0:	10d780a3          	sb	a3,257(a5)
     7d4:	fab00693          	li	a3,-85
     7d8:	10d78023          	sb	a3,256(a5)
     7dc:	10270783          	lb	a5,258(a4)
     7e0:	fe07fe5b          	bbs	a5,0,7dc <pm_sleep_start+0xf0>
     7e4:	8844                	exec.it	#44     !
     7e6:	12b00693          	li	a3,299
     7ea:	8400                	exec.it	#2     !
     7ec:	8474                	exec.it	#59     !
     7ee:	8860                	exec.it	#52     !
     7f0:	00012623          	sw	zero,12(sp)
     7f4:	47b2                	c.lwsp	a5,12(sp)
     7f6:	00f6e763          	bltu	a3,a5,804 <pm_sleep_start+0x118>
     7fa:	0001                	c.nop
     7fc:	47b2                	c.lwsp	a5,12(sp)
     7fe:	0785                	c.addi	a5,1
     800:	c63e                	c.swsp	a5,12(sp)
     802:	bfcd                	c.j	7f4 <pm_sleep_start+0x108>
     804:	8c54                	exec.it	#47     !
     806:	8414                	exec.it	#11     !
     808:	be757e5b          	bbc	a0,7,804 <pm_sleep_start+0x118>
     80c:	8c54                	exec.it	#47     !
     80e:	8414                	exec.it	#11     !
     810:	be757e5b          	bbc	a0,7,80c <pm_sleep_start+0x120>
     814:	8c54                	exec.it	#47     !
     816:	3b25                	c.jal	54e <analog_read_reg8>
     818:	be757e5b          	bbc	a0,7,814 <pm_sleep_start+0x128>
     81c:	35b1                	c.jal	668 <pm_wait_bbpll_done>
     81e:	0141                	c.addi	sp,16
     820:	34d0906f          	j	a36c <__riscv_restore_0>

00000824 <dr_putchar>:
     824:	325092ef          	jal	t0,a348 <__riscv_save_0>
     828:	2306990b          	addigp	s2,45616 # 8ba30 <init_flag.4915>
     82c:	1141                	c.addi	sp,-16
     82e:	842a                	c.mv	s0,a0
     830:	00094783          	lbu	a5,0(s2)
     834:	0217ef5b          	bnec	a5,1,872 <dr_putchar+0x4e>
     838:	8044                	exec.it	#40     !
     83a:	30648783          	lb	a5,774(s1)
     83e:	4539                	c.li	a0,14
     840:	8400                	exec.it	#2     !
     842:	8870                	exec.it	#53     !
     844:	30f48323          	sb	a5,774(s1)
     848:	3319                	c.jal	54e <analog_read_reg8>
     84a:	0fc57593          	andi	a1,a0,252
     84e:	0015e593          	ori	a1,a1,1
     852:	4539                	c.li	a0,14
     854:	397d                	c.jal	512 <analog_write_reg8>
     856:	30248783          	lb	a5,770(s1)
     85a:	0fe7f793          	andi	a5,a5,254
     85e:	30f48123          	sb	a5,770(s1)
     862:	30348783          	lb	a5,771(s1)
     866:	8400                	exec.it	#2     !
     868:	8870                	exec.it	#53     !
     86a:	30f481a3          	sb	a5,771(s1)
     86e:	00090023          	sb	zero,0(s2)
     872:	8004                	exec.it	#8     !
     874:	30378703          	lb	a4,771(a5)
     878:	30378783          	lb	a5,771(a5)
     87c:	0fe77713          	andi	a4,a4,254
     880:	8400                	exec.it	#2     !
     882:	8870                	exec.it	#53     !
     884:	00e10223          	sb	a4,4(sp)
     888:	86be                	c.mv	a3,a5
     88a:	4004735b          	bbs	s0,0,890 <dr_putchar+0x6c>
     88e:	86ba                	c.mv	a3,a4
     890:	00d102a3          	sb	a3,5(sp)
     894:	86be                	c.mv	a3,a5
     896:	4014735b          	bbs	s0,1,89c <dr_putchar+0x78>
     89a:	86ba                	c.mv	a3,a4
     89c:	00d10323          	sb	a3,6(sp)
     8a0:	86be                	c.mv	a3,a5
     8a2:	4024735b          	bbs	s0,2,8a8 <dr_putchar+0x84>
     8a6:	86ba                	c.mv	a3,a4
     8a8:	00d103a3          	sb	a3,7(sp)
     8ac:	86be                	c.mv	a3,a5
     8ae:	4034735b          	bbs	s0,3,8b4 <dr_putchar+0x90>
     8b2:	86ba                	c.mv	a3,a4
     8b4:	00d10423          	sb	a3,8(sp)
     8b8:	86be                	c.mv	a3,a5
     8ba:	4044735b          	bbs	s0,4,8c0 <dr_putchar+0x9c>
     8be:	86ba                	c.mv	a3,a4
     8c0:	00d104a3          	sb	a3,9(sp)
     8c4:	86be                	c.mv	a3,a5
     8c6:	4054735b          	bbs	s0,5,8cc <dr_putchar+0xa8>
     8ca:	86ba                	c.mv	a3,a4
     8cc:	00d10523          	sb	a3,10(sp)
     8d0:	86be                	c.mv	a3,a5
     8d2:	4064735b          	bbs	s0,6,8d8 <dr_putchar+0xb4>
     8d6:	86ba                	c.mv	a3,a4
     8d8:	00d105a3          	sb	a3,11(sp)
     8dc:	801d                	c.srli	s0,0x7
     8de:	c011                	c.beqz	s0,8e2 <dr_putchar+0xbe>
     8e0:	873e                	c.mv	a4,a5
     8e2:	00f106a3          	sb	a5,13(sp)
     8e6:	8004                	exec.it	#8     !
     8e8:	00e10623          	sb	a4,12(sp)
     8ec:	08900593          	li	a1,137
     8f0:	2007a683          	lw	a3,512(a5)
     8f4:	8600                	exec.it	#66     !
     8f6:	4781                	c.li	a5,0
     8f8:	8736                	c.mv	a4,a3
     8fa:	a011                	c.j	8fe <dr_putchar+0xda>
     8fc:	8a44                	exec.it	#108     !
     8fe:	40d70533          	sub	a0,a4,a3
     902:	fea5fde3          	bgeu	a1,a0,8fc <dr_putchar+0xd8>
     906:	0048                	c.addi4spn	a0,sp,4
     908:	00f506b3          	add	a3,a0,a5
     90c:	0006c683          	lbu	a3,0(a3)
     910:	0785                	c.addi	a5,1
     912:	30d601a3          	sb	a3,771(a2)
     916:	00a7d45b          	beqc	a5,10,91e <dr_putchar+0xfa>
     91a:	86ba                	c.mv	a3,a4
     91c:	bff1                	c.j	8f8 <dr_putchar+0xd4>
     91e:	0141                	c.addi	sp,16
     920:	24d0906f          	j	a36c <__riscv_restore_0>

00000924 <pm_sleep_wakeup_ram.constprop.4>:
     924:	8e70                	exec.it	#119     !
     926:	00a00a33          	add	s4,zero,a0
     92a:	300029f3          	csrr	s3,mstatus
     92e:	0089f993          	andi	s3,s3,8
     932:	00098563          	beqz	s3,93c <pm_sleep_wakeup_ram.constprop.4+0x18>
     936:	8e50                	exec.it	#103     !
     938:	0ff0000f          	fence
     93c:	801407b7          	lui	a5,0x80140
     940:	2147a683          	lw	a3,532(a5) # 80140214 <_DATA_LMA_START+0x601359a4>
     944:	def5                	c.beqz	a3,940 <pm_sleep_wakeup_ram.constprop.4+0x1c>
     946:	00000437          	lui	s0,0x0
     94a:	15840693          	addi	a3,s0,344 # 158 <_AES_VMA_END>
     94e:	2147a783          	lw	a5,532(a5)
     952:	52d8                	c.lw	a4,36(a3)
     954:	dadc                	c.sw	a5,52(a3)
     956:	15840413          	addi	s0,s0,344
     95a:	0792                	c.slli	a5,0x4
     95c:	cb11                	c.beqz	a4,970 <pm_sleep_wakeup_ram.constprop.4+0x4c>
     95e:	03844603          	lbu	a2,56(s0)
     962:	4691                	c.li	a3,4
     964:	8f99                	c.sub	a5,a4
     966:	8e91                	c.sub	a3,a2
     968:	40d7d7b3          	sra	a5,a5,a3
     96c:	00e787b3          	add	a5,a5,a4
     970:	d05c                	c.sw	a5,36(s0)
     972:	5044                	c.lw	s1,36(s0)
     974:	4c1c                	c.lw	a5,24(s0)
     976:	8491                	c.srai	s1,0x4
     978:	02f487b3          	mul	a5,s1,a5
     97c:	80140937          	lui	s2,0x80140
     980:	20092a83          	lw	s5,512(s2) # 80140200 <_DATA_LMA_START+0x60135990>
     984:	e0000737          	lui	a4,0xe0000
     988:	415a0ab3          	sub	s5,s4,s5
     98c:	87c9                	c.srai	a5,0x12
     98e:	94be                	c.add	s1,a5
     990:	0486                	c.slli	s1,0x1
     992:	dc44                	c.sw	s1,60(s0)
     994:	01577c63          	bgeu	a4,s5,9ac <pm_sleep_wakeup_ram.constprop.4+0x88>
     998:	00098463          	beqz	s3,9a0 <pm_sleep_wakeup_ram.constprop.4+0x7c>
     99c:	8a40                	exec.it	#100     !
     99e:	8810                	exec.it	#5     !
     9a0:	06400513          	li	a0,100
     9a4:	366d                	c.jal	54e <analog_read_reg8>
     9a6:	897d                	c.andi	a0,31
     9a8:	2100006f          	j	bb8 <pm_sleep_wakeup_ram.constprop.4+0x294>
     9ac:	04a41783          	lh	a5,74(s0)
     9b0:	1137a7db          	bfoz	a5,a5,4,19
     9b4:	02faf863          	bgeu	s5,a5,9e4 <pm_sleep_wakeup_ram.constprop.4+0xc0>
     9b8:	45fd                	c.li	a1,31
     9ba:	8850                	exec.it	#37     !
     9bc:	8044                	exec.it	#40     !
     9be:	20092403          	lw	s0,512(s2)
     9c2:	3e81                	c.jal	512 <analog_write_reg8>
     9c4:	06400513          	li	a0,100
     9c8:	3659                	c.jal	54e <analog_read_reg8>
     9ca:	2004a783          	lw	a5,512(s1)
     9ce:	897d                	c.andi	a0,31
     9d0:	8f81                	c.sub	a5,s0
     9d2:	0157f363          	bgeu	a5,s5,9d8 <pm_sleep_wakeup_ram.constprop.4+0xb4>
     9d6:	d57d                	c.beqz	a0,9c4 <pm_sleep_wakeup_ram.constprop.4+0xa0>
     9d8:	1e098063          	beqz	s3,bb8 <pm_sleep_wakeup_ram.constprop.4+0x294>
     9dc:	8a40                	exec.it	#100     !
     9de:	8810                	exec.it	#5     !
     9e0:	1d80006f          	j	bb8 <pm_sleep_wakeup_ram.constprop.4+0x294>
     9e4:	1e890a83          	lb	s5,488(s2)
     9e8:	00faf793          	andi	a5,s5,15
     9ec:	1ef90423          	sb	a5,488(s2)
     9f0:	1d890b03          	lb	s6,472(s2)
     9f4:	0f8b7793          	andi	a5,s6,248
     9f8:	1cf90c23          	sb	a5,472(s2)
     9fc:	4785                	c.li	a5,1
     9fe:	20f90c23          	sb	a5,536(s2)
     a02:	20a90783          	lb	a5,522(s2)
     a06:	0f77f793          	andi	a5,a5,247
     a0a:	20f90523          	sb	a5,522(s2)
     a0e:	3c95                	c.jal	482 <clock_get_32k_tick>
     a10:	20092703          	lw	a4,512(s2)
     a14:	20b90783          	lb	a5,523(s2)
     a18:	5454                	c.lw	a3,44(s0)
     a1a:	8400                	exec.it	#2     !
     a1c:	0027e793          	ori	a5,a5,2
     a20:	c468                	c.sw	a0,76(s0)
     a22:	c458                	c.sw	a4,12(s0)
     a24:	03844603          	lbu	a2,56(s0)
     a28:	40d506b3          	sub	a3,a0,a3
     a2c:	20f905a3          	sb	a5,523(s2)
     a30:	d814                	c.sw	a3,48(s0)
     a32:	e20d                	c.bnez	a2,a54 <pm_sleep_wakeup_ram.constprop.4+0x130>
     a34:	481c                	c.lw	a5,16(s0)
     a36:	cf99                	c.beqz	a5,a54 <pm_sleep_wakeup_ram.constprop.4+0x130>
     a38:	05044783          	lbu	a5,80(s0)
     a3c:	ef81                	c.bnez	a5,a54 <pm_sleep_wakeup_ram.constprop.4+0x130>
     a3e:	01442783          	lw	a5,20(s0)
     a42:	000276b7          	lui	a3,0x27
     a46:	8444                	exec.it	#42     !
     a48:	6c07a7db          	bfoz	a5,a5,27,0
     a4c:	10068693          	addi	a3,a3,256 # 27100 <BIN_SIZE+0x10dce>
     a50:	00f6f863          	bgeu	a3,a5,a60 <pm_sleep_wakeup_ram.constprop.4+0x13c>
     a54:	00176713          	ori	a4,a4,1
     a58:	02040c23          	sb	zero,56(s0)
     a5c:	c848                	c.sw	a0,20(s0)
     a5e:	c818                	c.sw	a4,16(s0)
     a60:	02000593          	li	a1,32
     a64:	04b00513          	li	a0,75
     a68:	346d                	c.jal	512 <analog_write_reg8>
     a6a:	45fd                	c.li	a1,31
     a6c:	8850                	exec.it	#37     !
     a6e:	3455                	c.jal	512 <analog_write_reg8>
     a70:	03000593          	li	a1,48
     a74:	07e00513          	li	a0,126
     a78:	3c69                	c.jal	512 <analog_write_reg8>
     a7a:	0f900593          	li	a1,249
     a7e:	04d00513          	li	a0,77
     a82:	3c41                	c.jal	512 <analog_write_reg8>
     a84:	4585                	c.li	a1,1
     a86:	8a20                	exec.it	#84     !
     a88:	3469                	c.jal	512 <analog_write_reg8>
     a8a:	04841783          	lh	a5,72(s0)
     a8e:	0ee00593          	li	a1,238
     a92:	1137a7db          	bfoz	a5,a5,4,19
     a96:	04c00513          	li	a0,76
     a9a:	40fa0933          	sub	s2,s4,a5
     a9e:	3c95                	c.jal	512 <analog_write_reg8>
     aa0:	05441583          	lh	a1,84(s0)
     aa4:	04000513          	li	a0,64
     aa8:	0ff5f593          	andi	a1,a1,255
     aac:	349d                	c.jal	512 <analog_write_reg8>
     aae:	481c                	c.lw	a5,16(s0)
     ab0:	07ff0737          	lui	a4,0x7ff0
     ab4:	40f907b3          	sub	a5,s2,a5
     ab8:	00f77663          	bgeu	a4,a5,ac4 <pm_sleep_wakeup_ram.constprop.4+0x1a0>
     abc:	4705                	c.li	a4,1
     abe:	00e40523          	sb	a4,10(s0)
     ac2:	a019                	c.j	ac8 <pm_sleep_wakeup_ram.constprop.4+0x1a4>
     ac4:	00040523          	sb	zero,10(s0)
     ac8:	00a44683          	lbu	a3,10(s0)
     acc:	4848                	c.lw	a0,20(s0)
     ace:	5c58                	c.lw	a4,60(s0)
     ad0:	c691                	c.beqz	a3,adc <pm_sleep_wakeup_ram.constprop.4+0x1b8>
     ad2:	02e7d7b3          	divu	a5,a5,a4
     ad6:	0796                	c.slli	a5,0x5
     ad8:	0100006f          	j	ae8 <pm_sleep_wakeup_ram.constprop.4+0x1c4>
     adc:	8085                	c.srli	s1,0x1
     ade:	0796                	c.slli	a5,0x5
     ae0:	009787b3          	add	a5,a5,s1
     ae4:	02e7d7b3          	divu	a5,a5,a4
     ae8:	953e                	c.add	a0,a5
     aea:	fbeff0ef          	jal	ra,2a8 <clock_set_32k_tick>
     aee:	8850                	exec.it	#37     !
     af0:	3cb9                	c.jal	54e <analog_read_reg8>
     af2:	897d                	c.andi	a0,31
     af4:	e511                	c.bnez	a0,b00 <pm_sleep_wakeup_ram.constprop.4+0x1dc>
     af6:	3edd                	c.jal	6ec <pm_sleep_start>
     af8:	4585                	c.li	a1,1
     afa:	8a20                	exec.it	#84     !
     afc:	a17ff0ef          	jal	ra,512 <analog_write_reg8>
     b00:	8c00                	exec.it	#6     !
     b02:	8a64                	exec.it	#124     !
     b04:	1ef707a3          	sb	a5,495(a4) # 7ff01ef <FLASH_SIZE+0x7ef01ef>
     b08:	4789                	c.li	a5,2
     b0a:	20f70c23          	sb	a5,536(a4)
     b0e:	8210                	exec.it	#65     !
     b10:	8400                	exec.it	#2     !
     b12:	8818                	exec.it	#133     !
     b14:	8610                	exec.it	#67     !
     b16:	32b5                	c.jal	482 <clock_get_32k_tick>
     b18:	00a44783          	lbu	a5,10(s0)
     b1c:	cf81                	c.beqz	a5,b34 <pm_sleep_wakeup_ram.constprop.4+0x210>
     b1e:	485c                	c.lw	a5,20(s0)
     b20:	5c54                	c.lw	a3,60(s0)
     b22:	40f507b3          	sub	a5,a0,a5
     b26:	4818                	c.lw	a4,16(s0)
     b28:	0785                	c.addi	a5,1
     b2a:	8395                	c.srli	a5,0x5
     b2c:	c4d7977f          	maddr32	a4,a5,a3
     b30:	87ba                	c.mv	a5,a4
     b32:	a819                	c.j	b48 <pm_sleep_wakeup_ram.constprop.4+0x224>
     b34:	485c                	c.lw	a5,20(s0)
     b36:	5c58                	c.lw	a4,60(s0)
     b38:	40f507b3          	sub	a5,a0,a5
     b3c:	0785                	c.addi	a5,1
     b3e:	02e787b3          	mul	a5,a5,a4
     b42:	4818                	c.lw	a4,16(s0)
     b44:	8395                	c.srli	a5,0x5
     b46:	97ba                	c.add	a5,a4
     b48:	c45c                	c.sw	a5,12(s0)
     b4a:	485c                	c.lw	a5,20(s0)
     b4c:	4454                	c.lw	a3,12(s0)
     b4e:	8444                	exec.it	#42     !
     b50:	0785                	c.addi	a5,1
     b52:	0505                	c.addi	a0,1
     b54:	d41c                	c.sw	a5,40(s0)
     b56:	0685                	c.addi	a3,1
     b58:	d448                	c.sw	a0,44(s0)
     b5a:	8004                	exec.it	#8     !
     b5c:	80140737          	lui	a4,0x80140
     b60:	20d7a023          	sw	a3,512(a5)
     b64:	20b70783          	lb	a5,523(a4) # 8014020b <_DATA_LMA_START+0x6013599b>
     b68:	be77fe5b          	bbc	a5,7,b64 <pm_sleep_wakeup_ram.constprop.4+0x240>
     b6c:	20070c23          	sb	zero,536(a4)
     b70:	1d670c23          	sb	s6,472(a4)
     b74:	8850                	exec.it	#37     !
     b76:	1f570423          	sb	s5,488(a4)
     b7a:	8414                	exec.it	#11     !
     b7c:	2bc6970b          	addigp	a4,45756 # 8babc <g_pm_status_info>
     b80:	00a700a3          	sb	a0,1(a4)
     b84:	2bc6978b          	addigp	a5,45756 # 8babc <g_pm_status_info>
     b88:	00157c5b          	bbc	a0,1,ba0 <pm_sleep_wakeup_ram.constprop.4+0x27c>
     b8c:	80140637          	lui	a2,0x80140
     b90:	400006b7          	lui	a3,0x40000
     b94:	20062703          	lw	a4,512(a2) # 80140200 <_DATA_LMA_START+0x60135990>
     b98:	41470733          	sub	a4,a4,s4
     b9c:	fee6ece3          	bltu	a3,a4,b94 <pm_sleep_wakeup_ram.constprop.4+0x270>
     ba0:	00098463          	beqz	s3,ba8 <pm_sleep_wakeup_ram.constprop.4+0x284>
     ba4:	8a40                	exec.it	#100     !
     ba6:	8810                	exec.it	#5     !
     ba8:	0017c783          	lbu	a5,1(a5)
     bac:	10000513          	li	a0,256
     bb0:	c781                	c.beqz	a5,bb8 <pm_sleep_wakeup_ram.constprop.4+0x294>
     bb2:	40000537          	lui	a0,0x40000
     bb6:	8d5d                	c.or	a0,a5
     bb8:	7aa0906f          	j	a362 <__riscv_restore_4>

00000bbc <trap_entry>:
     bbc:	1101                	c.addi	sp,-32
     bbe:	ce2a                	c.swsp	a0,28(sp)
     bc0:	cc2e                	c.swsp	a1,24(sp)
     bc2:	ca32                	c.swsp	a2,20(sp)
     bc4:	c836                	c.swsp	a3,16(sp)
     bc6:	c63a                	c.swsp	a4,12(sp)
     bc8:	c43e                	c.swsp	a5,8(sp)
     bca:	34202773          	csrr	a4,mcause
     bce:	8070                	exec.it	#49     !
     bd0:	15878693          	addi	a3,a5,344
     bd4:	00468683          	lb	a3,4(a3) # 40000004 <_DATA_LMA_START+0x1fff5794>
     bd8:	8a34                	exec.it	#93     !
     bda:	0ff6f693          	andi	a3,a3,255
     bde:	c2a5                	c.beqz	a3,c3e <trap_entry+0x82>
     be0:	34102673          	csrr	a2,mepc
     be4:	300025f3          	csrr	a1,mstatus
     be8:	7c4026f3          	csrr	a3,mxstatus
     bec:	08075063          	bgez	a4,c6c <trap_entry+0xb0>
     bf0:	7807275b          	bfoz	a4,a4,30,0
     bf4:	0477695b          	bnec	a4,7,c46 <trap_entry+0x8a>
     bf8:	8e10                	exec.it	#71     !
     bfa:	8834                	exec.it	#29     !
     bfc:	c719                	c.beqz	a4,c0a <trap_entry+0x4e>
     bfe:	08000713          	li	a4,128
     c02:	30473773          	csrrc	a4,mie,a4
     c06:	30046773          	csrrsi	a4,mstatus,8
     c0a:	8e10                	exec.it	#71     !
     c0c:	8834                	exec.it	#29     !
     c0e:	c711                	c.beqz	a4,c1a <trap_entry+0x5e>
     c10:	8270                	exec.it	#113     !
     c12:	08000713          	li	a4,128
     c16:	30472773          	csrrs	a4,mie,a4
     c1a:	8e60                	exec.it	#118     !
     c1c:	8400                	exec.it	#2     !
     c1e:	c799                	c.beqz	a5,c2c <trap_entry+0x70>
     c20:	30059073          	csrw	mstatus,a1
     c24:	34161073          	csrw	mepc,a2
     c28:	7c469073          	csrw	mxstatus,a3
     c2c:	4572                	c.lwsp	a0,28(sp)
     c2e:	45e2                	c.lwsp	a1,24(sp)
     c30:	4652                	c.lwsp	a2,20(sp)
     c32:	46c2                	c.lwsp	a3,16(sp)
     c34:	4732                	c.lwsp	a4,12(sp)
     c36:	47a2                	c.lwsp	a5,8(sp)
     c38:	6105                	c.addi16sp	sp,32
     c3a:	30200073          	mret
     c3e:	4681                	c.li	a3,0
     c40:	4581                	c.li	a1,0
     c42:	4601                	c.li	a2,0
     c44:	b765                	c.j	bec <trap_entry+0x30>
     c46:	0237635b          	bnec	a4,3,c6c <trap_entry+0xb0>
     c4a:	e6600737          	lui	a4,0xe6600
     c4e:	4358                	c.lw	a4,4(a4)
     c50:	8e10                	exec.it	#71     !
     c52:	8834                	exec.it	#29     !
     c54:	c319                	c.beqz	a4,c5a <trap_entry+0x9e>
     c56:	30046773          	csrrsi	a4,mstatus,8
     c5a:	8e10                	exec.it	#71     !
     c5c:	8834                	exec.it	#29     !
     c5e:	c311                	c.beqz	a4,c62 <trap_entry+0xa6>
     c60:	8270                	exec.it	#113     !
     c62:	e6600737          	lui	a4,0xe6600
     c66:	4505                	c.li	a0,1
     c68:	c348                	c.sw	a0,4(a4)
     c6a:	bf45                	c.j	c1a <trap_entry+0x5e>
     c6c:	34302773          	csrr	a4,mtval
     c70:	2ae6ca2b          	swgp	a4,45748 # 8bab4 <exception_mtval>
     c74:	34102773          	csrr	a4,mepc
     c78:	2ae6c62b          	swgp	a4,45740 # 8baac <exception_mepc>
     c7c:	30002773          	csrr	a4,mstatus
     c80:	2ae6c82b          	swgp	a4,45744 # 8bab0 <exception_mstatus>
     c84:	34202773          	csrr	a4,mcause
     c88:	2ae6c22b          	swgp	a4,45732 # 8baa4 <exception_mcause>
     c8c:	7c902773          	csrr	a4,mdcause
     c90:	2ae6c42b          	swgp	a4,45736 # 8baa8 <exception_mdcause>
     c94:	0001                	c.nop
     c96:	bffd                	c.j	c94 <trap_entry+0xd8>
     c98:	0001                	c.nop
	...

00000d00 <__vectors>:
     d00:	0bbc                	c.addi4spn	a5,sp,472
     d02:	0000                	unimp
     d04:	22c0                	c.fld	fs0,128(a3)
     d06:	0000                	unimp
     d08:	22c0                	c.fld	fs0,128(a3)
     d0a:	0000                	unimp
     d0c:	22c0                	c.fld	fs0,128(a3)
     d0e:	0000                	unimp
     d10:	22c0                	c.fld	fs0,128(a3)
     d12:	0000                	unimp
     d14:	22c0                	c.fld	fs0,128(a3)
     d16:	0000                	unimp
     d18:	22c0                	c.fld	fs0,128(a3)
     d1a:	0000                	unimp
     d1c:	22c0                	c.fld	fs0,128(a3)
     d1e:	0000                	unimp
     d20:	22c0                	c.fld	fs0,128(a3)
     d22:	0000                	unimp
     d24:	22c0                	c.fld	fs0,128(a3)
     d26:	0000                	unimp
     d28:	22c0                	c.fld	fs0,128(a3)
     d2a:	0000                	unimp
     d2c:	22c0                	c.fld	fs0,128(a3)
     d2e:	0000                	unimp
     d30:	22c0                	c.fld	fs0,128(a3)
     d32:	0000                	unimp
     d34:	22c0                	c.fld	fs0,128(a3)
     d36:	0000                	unimp
     d38:	22c0                	c.fld	fs0,128(a3)
     d3a:	0000                	unimp
     d3c:	22c0                	c.fld	fs0,128(a3)
     d3e:	0000                	unimp
     d40:	22c0                	c.fld	fs0,128(a3)
     d42:	0000                	unimp
     d44:	22c0                	c.fld	fs0,128(a3)
     d46:	0000                	unimp
     d48:	22c0                	c.fld	fs0,128(a3)
     d4a:	0000                	unimp
     d4c:	22c0                	c.fld	fs0,128(a3)
     d4e:	0000                	unimp
     d50:	22c0                	c.fld	fs0,128(a3)
     d52:	0000                	unimp
     d54:	22c0                	c.fld	fs0,128(a3)
     d56:	0000                	unimp
     d58:	22c0                	c.fld	fs0,128(a3)
     d5a:	0000                	unimp
     d5c:	22c0                	c.fld	fs0,128(a3)
     d5e:	0000                	unimp
     d60:	22c0                	c.fld	fs0,128(a3)
     d62:	0000                	unimp
     d64:	22c0                	c.fld	fs0,128(a3)
     d66:	0000                	unimp
     d68:	22c0                	c.fld	fs0,128(a3)
     d6a:	0000                	unimp
     d6c:	22c0                	c.fld	fs0,128(a3)
     d6e:	0000                	unimp
     d70:	22c0                	c.fld	fs0,128(a3)
     d72:	0000                	unimp
     d74:	22c0                	c.fld	fs0,128(a3)
     d76:	0000                	unimp
     d78:	22c0                	c.fld	fs0,128(a3)
     d7a:	0000                	unimp
     d7c:	22c0                	c.fld	fs0,128(a3)
     d7e:	0000                	unimp
     d80:	22c0                	c.fld	fs0,128(a3)
     d82:	0000                	unimp
     d84:	22c0                	c.fld	fs0,128(a3)
     d86:	0000                	unimp
     d88:	22c0                	c.fld	fs0,128(a3)
     d8a:	0000                	unimp
     d8c:	22c0                	c.fld	fs0,128(a3)
     d8e:	0000                	unimp
     d90:	22c0                	c.fld	fs0,128(a3)
     d92:	0000                	unimp
     d94:	22c0                	c.fld	fs0,128(a3)
     d96:	0000                	unimp
     d98:	22c0                	c.fld	fs0,128(a3)
     d9a:	0000                	unimp
     d9c:	22c0                	c.fld	fs0,128(a3)
     d9e:	0000                	unimp
     da0:	22c0                	c.fld	fs0,128(a3)
     da2:	0000                	unimp
     da4:	22c0                	c.fld	fs0,128(a3)
     da6:	0000                	unimp
     da8:	22c0                	c.fld	fs0,128(a3)
     daa:	0000                	unimp
     dac:	22c0                	c.fld	fs0,128(a3)
     dae:	0000                	unimp
     db0:	22c0                	c.fld	fs0,128(a3)
     db2:	0000                	unimp
     db4:	22c0                	c.fld	fs0,128(a3)
     db6:	0000                	unimp
     db8:	22c0                	c.fld	fs0,128(a3)
     dba:	0000                	unimp
     dbc:	22c0                	c.fld	fs0,128(a3)
     dbe:	0000                	unimp
     dc0:	22c0                	c.fld	fs0,128(a3)
     dc2:	0000                	unimp
     dc4:	22c0                	c.fld	fs0,128(a3)
     dc6:	0000                	unimp
     dc8:	22c0                	c.fld	fs0,128(a3)
     dca:	0000                	unimp
     dcc:	22c0                	c.fld	fs0,128(a3)
     dce:	0000                	unimp
     dd0:	22c0                	c.fld	fs0,128(a3)
     dd2:	0000                	unimp
     dd4:	22c0                	c.fld	fs0,128(a3)
     dd6:	0000                	unimp
     dd8:	22c0                	c.fld	fs0,128(a3)
     dda:	0000                	unimp
     ddc:	22c0                	c.fld	fs0,128(a3)
     dde:	0000                	unimp
     de0:	22c0                	c.fld	fs0,128(a3)
     de2:	0000                	unimp
     de4:	22c0                	c.fld	fs0,128(a3)
     de6:	0000                	unimp
     de8:	22c0                	c.fld	fs0,128(a3)
     dea:	0000                	unimp
     dec:	22c0                	c.fld	fs0,128(a3)
     dee:	0000                	unimp
     df0:	22c0                	c.fld	fs0,128(a3)
     df2:	0000                	unimp
     df4:	22c0                	c.fld	fs0,128(a3)
     df6:	0000                	unimp
     df8:	22c0                	c.fld	fs0,128(a3)
     dfa:	0000                	unimp
     dfc:	22c0                	c.fld	fs0,128(a3)
     dfe:	0000                	unimp
     e00:	0001                	c.nop
	...

00000e04 <flash_read_uid.constprop.7>:
     e04:	8814                	exec.it	#13     !
     e06:	872a                	c.mv	a4,a0
     e08:	8864                	exec.it	#60     !
     e0a:	47c1                	c.li	a5,16
     e0c:	4691                	c.li	a3,4
     e0e:	4601                	c.li	a2,0
     e10:	4581                	c.li	a1,0
     e12:	04b00513          	li	a0,75
     e16:	8408                	exec.it	#130     !
     e18:	8074                	exec.it	#57     !
     e1a:	8404                	exec.it	#10     !

00000e1c <flash_read_mid>:
     e1c:	8814                	exec.it	#13     !
     e1e:	1141                	c.addi	sp,-16
     e20:	c602                	c.swsp	zero,12(sp)
     e22:	8864                	exec.it	#60     !
     e24:	478d                	c.li	a5,3
     e26:	0078                	c.addi4spn	a4,sp,12
     e28:	4681                	c.li	a3,0
     e2a:	4601                	c.li	a2,0
     e2c:	4581                	c.li	a1,0
     e2e:	09f00513          	li	a0,159
     e32:	8408                	exec.it	#130     !
     e34:	8074                	exec.it	#57     !
     e36:	4532                	c.lwsp	a0,12(sp)
     e38:	0141                	c.addi	sp,16
     e3a:	8404                	exec.it	#10     !

00000e3c <flash_read_mid_uid_with_check>:
     e3c:	50c092ef          	jal	t0,a348 <__riscv_save_0>
     e40:	1141                	c.addi	sp,-16
     e42:	842e                	c.mv	s0,a1
     e44:	84aa                	c.mv	s1,a0
     e46:	4641                	c.li	a2,16
     e48:	811f958b          	addigp	a1,-2032 # 80010 <_DATA_VMA_START+0x10>
     e4c:	850a                	c.mv	a0,sp
     e4e:	6a7070ef          	jal	ra,8cf4 <memcpy>
     e52:	37e9                	c.jal	e1c <flash_read_mid>
     e54:	77c1                	c.lui	a5,0xffff0
     e56:	17fd                	c.addi	a5,-1
     e58:	00146737          	lui	a4,0x146
     e5c:	c088                	c.sw	a0,0(s1)
     e5e:	8fe9                	c.and	a5,a0
     e60:	08570713          	addi	a4,a4,133 # 146085 <FLASH_SIZE+0x46085>
     e64:	00e78963          	beq	a5,a4,e76 <flash_read_mid_uid_with_check+0x3a>
     e68:	00166737          	lui	a4,0x166
     e6c:	08570713          	addi	a4,a4,133 # 166085 <FLASH_SIZE+0x66085>
     e70:	4781                	c.li	a5,0
     e72:	02e51763          	bne	a0,a4,ea0 <flash_read_mid_uid_with_check+0x64>
     e76:	8522                	c.mv	a0,s0
     e78:	3771                	c.jal	e04 <flash_read_uid.constprop.7>
     e7a:	85a2                	c.mv	a1,s0
     e7c:	870a                	c.mv	a4,sp
     e7e:	01040693          	addi	a3,s0,16
     e82:	4781                	c.li	a5,0
     e84:	0005c503          	lbu	a0,0(a1)
     e88:	00074603          	lbu	a2,0(a4)
     e8c:	00c51363          	bne	a0,a2,e92 <flash_read_mid_uid_with_check+0x56>
     e90:	0785                	c.addi	a5,1
     e92:	0585                	c.addi	a1,1
     e94:	0705                	c.addi	a4,1
     e96:	fed597e3          	bne	a1,a3,e84 <flash_read_mid_uid_with_check+0x48>
     e9a:	17c1                	c.addi	a5,-16
     e9c:	00f037b3          	snez	a5,a5
     ea0:	853e                	c.mv	a0,a5
     ea2:	0141                	c.addi	sp,16
     ea4:	4c80906f          	j	a36c <__riscv_restore_0>

00000ea8 <flash_dread>:
     ea8:	8814                	exec.it	#13     !
     eaa:	87ae                	c.mv	a5,a1
     eac:	8732                	c.mv	a4,a2
     eae:	8864                	exec.it	#60     !
     eb0:	4685                	c.li	a3,1
     eb2:	85aa                	c.mv	a1,a0
     eb4:	00100613          	li	a2,1
     eb8:	03b00513          	li	a0,59
     ebc:	8408                	exec.it	#130     !
     ebe:	8074                	exec.it	#57     !
     ec0:	8404                	exec.it	#10     !

00000ec2 <clock_init.constprop.10>:
     ec2:	8814                	exec.it	#13     !
     ec4:	8864                	exec.it	#60     !
     ec6:	ec2ff0ef          	jal	ra,588 <clock_init_ram.constprop.11>
     eca:	8074                	exec.it	#57     !
     ecc:	4a00906f          	j	a36c <__riscv_restore_0>

00000ed0 <pm_sleep_wakeup.constprop.3>:
     ed0:	8814                	exec.it	#13     !
     ed2:	8864                	exec.it	#60     !
     ed4:	a51ff0ef          	jal	ra,924 <pm_sleep_wakeup_ram.constprop.4>
     ed8:	8074                	exec.it	#57     !
     eda:	8404                	exec.it	#10     !

00000edc <user_calib_adc_vref.constprop.9>:
     edc:	8814                	exec.it	#13     !
     ede:	1141                	c.addi	sp,-16
     ee0:	c402                	c.swsp	zero,8(sp)
     ee2:	00011623          	sh	zero,12(sp)
     ee6:	00010723          	sb	zero,14(sp)
     eea:	ed11                	c.bnez	a0,f06 <user_calib_adc_vref.constprop.9+0x2a>
     eec:	8c00                	exec.it	#6     !
     eee:	8e34                	exec.it	#95     !
     ef0:	8e54                	exec.it	#111     !
     ef2:	8644                	exec.it	#106     !
     ef4:	8640                	exec.it	#98     !
     ef6:	4c47a7db          	bfoz	a5,a5,19,4
     efa:	3807a55b          	bfoz	a0,a5,14,0
     efe:	e92d                	c.bnez	a0,f70 <user_calib_adc_vref.constprop.9+0x94>
     f00:	4501                	c.li	a0,0
     f02:	0141                	c.addi	sp,16
     f04:	8404                	exec.it	#10     !
     f06:	8070                	exec.it	#49     !
     f08:	1587a783          	lw	a5,344(a5) # ffff0158 <_DATA_LMA_START+0xdffe58e8>
     f0c:	0030                	c.addi4spn	a2,sp,8
     f0e:	459d                	c.li	a1,7
     f10:	9782                	c.jalr	a5
     f12:	00c14503          	lbu	a0,12(sp)
     f16:	1c0537db          	bfos	a5,a0,7,0
     f1a:	0407c163          	bltz	a5,f5c <user_calib_adc_vref.constprop.9+0x80>
     f1e:	00e14783          	lbu	a5,14(sp)
     f22:	00d14703          	lbu	a4,13(sp)
     f26:	07a2                	c.slli	a5,0x8
     f28:	66c1                	c.lui	a3,0x10
     f2a:	00e78633          	add	a2,a5,a4
     f2e:	16fd                	c.addi	a3,-1
     f30:	02d60663          	beq	a2,a3,f5c <user_calib_adc_vref.constprop.9+0x80>
     f34:	fd070713          	addi	a4,a4,-48
     f38:	97ba                	c.add	a5,a4
     f3a:	3c07a7db          	bfoz	a5,a5,15,0
     f3e:	0fb00713          	li	a4,251
     f42:	faf76fe3          	bltu	a4,a5,f00 <user_calib_adc_vref.constprop.9+0x24>
     f46:	1531                	c.addi	a0,-20
     f48:	1c05355b          	bfos	a0,a0,7,0
     f4c:	57b1                	c.li	a5,-20
     f4e:	faf509e3          	beq	a0,a5,f00 <user_calib_adc_vref.constprop.9+0x24>
     f52:	f9550513          	addi	a0,a0,-107 # 3fffff95 <_DATA_LMA_START+0x1fff5725>
     f56:	00a03533          	snez	a0,a0
     f5a:	b765                	c.j	f02 <user_calib_adc_vref.constprop.9+0x26>
     f5c:	8c00                	exec.it	#6     !
     f5e:	8e34                	exec.it	#95     !
     f60:	8e54                	exec.it	#111     !
     f62:	8644                	exec.it	#106     !
     f64:	8640                	exec.it	#98     !
     f66:	4c47a7db          	bfoz	a5,a5,19,4
     f6a:	3807a55b          	bfoz	a0,a5,14,0
     f6e:	c50d                	c.beqz	a0,f98 <user_calib_adc_vref.constprop.9+0xbc>
     f70:	1ff7f793          	andi	a5,a5,511
     f74:	f9b78793          	addi	a5,a5,-101
     f78:	3c07a7db          	bfoz	a5,a5,15,0
     f7c:	0c600713          	li	a4,198
     f80:	f8f760e3          	bltu	a4,a5,f00 <user_calib_adc_vref.constprop.9+0x24>
     f84:	8125                	c.srli	a0,0x9
     f86:	1531                	c.addi	a0,-20
     f88:	1c05355b          	bfos	a0,a0,7,0
     f8c:	57b1                	c.li	a5,-20
     f8e:	f6f509e3          	beq	a0,a5,f00 <user_calib_adc_vref.constprop.9+0x24>
     f92:	fd550513          	addi	a0,a0,-43
     f96:	b7c1                	c.j	f56 <user_calib_adc_vref.constprop.9+0x7a>
     f98:	00814503          	lbu	a0,8(sp)
     f9c:	00914783          	lbu	a5,9(sp)
     fa0:	953e                	c.add	a0,a5
     fa2:	f8050513          	addi	a0,a0,-128
     fa6:	3c05255b          	bfoz	a0,a0,15,0
     faa:	0fc53513          	sltiu	a0,a0,252
     fae:	bf91                	c.j	f02 <user_calib_adc_vref.constprop.9+0x26>

00000fb0 <measure_stack_usage>:
     fb0:	878a                	c.mv	a5,sp
     fb2:	aaaab737          	lui	a4,0xaaaab
     fb6:	0009f537          	lui	a0,0x9f
     fba:	aaa70713          	addi	a4,a4,-1366 # aaaaaaaa <_DATA_LMA_START+0x8aaa023a>
     fbe:	00f56563          	bltu	a0,a5,fc8 <measure_stack_usage+0x18>
     fc2:	40a78533          	sub	a0,a5,a0
     fc6:	8082                	c.jr	ra
     fc8:	4114                	c.lw	a3,0(a0)
     fca:	fee69ce3          	bne	a3,a4,fc2 <measure_stack_usage+0x12>
     fce:	0511                	c.addi	a0,4
     fd0:	b7fd                	c.j	fbe <measure_stack_usage+0xe>

00000fd2 <fill_stack_pattern_to_sp>:
     fd2:	868a                	c.mv	a3,sp
     fd4:	aaaab737          	lui	a4,0xaaaab
     fd8:	0009f7b7          	lui	a5,0x9f
     fdc:	aaa70713          	addi	a4,a4,-1366 # aaaaaaaa <_DATA_LMA_START+0x8aaa023a>
     fe0:	00d7e363          	bltu	a5,a3,fe6 <fill_stack_pattern_to_sp+0x14>
     fe4:	8082                	c.jr	ra
     fe6:	c398                	c.sw	a4,0(a5)
     fe8:	0791                	c.addi	a5,4
     fea:	bfdd                	c.j	fe0 <fill_stack_pattern_to_sp+0xe>

00000fec <get_bias_address>:
     fec:	87aa                	c.mv	a5,a0
     fee:	0cb505db          	lea.w	a1,a0,a1
     ff2:	4398                	c.lw	a4,0(a5)
     ff4:	e709                	c.bnez	a4,ffe <get_bias_address+0x12>
     ff6:	0791                	c.addi	a5,4
     ff8:	feb79de3          	bne	a5,a1,ff2 <get_bias_address+0x6>
     ffc:	4501                	c.li	a0,0
     ffe:	8082                	c.jr	ra

00001000 <core_interrupt_disable.lto_priv.17>:
    1000:	30002573          	csrr	a0,mstatus
    1004:	8921                	c.andi	a0,8
    1006:	c119                	c.beqz	a0,100c <core_interrupt_disable.lto_priv.17+0xc>
    1008:	8e50                	exec.it	#103     !
    100a:	8810                	exec.it	#5     !
    100c:	8082                	c.jr	ra

0000100e <user_calib_freq_offset.constprop.8>:
    100e:	33a092ef          	jal	t0,a348 <__riscv_save_0>
    1012:	1141                	c.addi	sp,-16
    1014:	57fd                	c.li	a5,-1
    1016:	00f107a3          	sb	a5,15(sp)
    101a:	8070                	exec.it	#49     !
    101c:	1587a783          	lw	a5,344(a5) # 9f158 <_end+0x13650>
    1020:	00f10613          	addi	a2,sp,15
    1024:	4585                	c.li	a1,1
    1026:	9782                	c.jalr	a5
    1028:	00f14403          	lbu	s0,15(sp)
    102c:	0ff00793          	li	a5,255
    1030:	4501                	c.li	a0,0
    1032:	00f40e63          	beq	s0,a5,104e <user_calib_freq_offset.constprop.8+0x40>
    1036:	08a00513          	li	a0,138
    103a:	8414                	exec.it	#11     !
    103c:	03f47413          	andi	s0,s0,63
    1040:	04057593          	andi	a1,a0,64
    1044:	8dc1                	c.or	a1,s0
    1046:	08a00513          	li	a0,138
    104a:	8c10                	exec.it	#7     !
    104c:	4505                	c.li	a0,1
    104e:	0141                	c.addi	sp,16
    1050:	31c0906f          	j	a36c <__riscv_restore_0>

00001054 <gpio_input_dis>:
    1054:	8004                	exec.it	#8     !
    1056:	30978703          	lb	a4,777(a5)
    105a:	fff54513          	not	a0,a0
    105e:	8d79                	c.and	a0,a4
    1060:	0ff57513          	andi	a0,a0,255
    1064:	30a784a3          	sb	a0,777(a5)
    1068:	8082                	c.jr	ra
	...

0000106c <sys_init.constprop.2>:
    106c:	2dc092ef          	jal	t0,a348 <__riscv_save_0>
    1070:	ffbc07b7          	lui	a5,0xffbc0
    1074:	17fd                	c.addi	a5,-1
    1076:	8c00                	exec.it	#6     !
    1078:	1ef72023          	sw	a5,480(a4)
    107c:	4589                	c.li	a1,2
    107e:	08c00513          	li	a0,140
    1082:	1ef72223          	sw	a5,484(a4)
    1086:	8c10                	exec.it	#7     !
    1088:	4581                	c.li	a1,0
    108a:	4529                	c.li	a0,10
    108c:	8c10                	exec.it	#7     !
    108e:	03b00593          	li	a1,59
    1092:	452d                	c.li	a0,11
    1094:	8c10                	exec.it	#7     !
    1096:	4515                	c.li	a0,5
    1098:	8414                	exec.it	#11     !
    109a:	0f757593          	andi	a1,a0,247
    109e:	4515                	c.li	a0,5
    10a0:	8c10                	exec.it	#7     !
    10a2:	4519                	c.li	a0,6
    10a4:	8414                	exec.it	#11     !
    10a6:	03e57593          	andi	a1,a0,62
    10aa:	4519                	c.li	a0,6
    10ac:	8c10                	exec.it	#7     !
    10ae:	04500593          	li	a1,69
    10b2:	4505                	c.li	a0,1
    10b4:	8c10                	exec.it	#7     !
    10b6:	04c00593          	li	a1,76
    10ba:	01c00513          	li	a0,28
    10be:	8c10                	exec.it	#7     !
    10c0:	001007b7          	lui	a5,0x100
    10c4:	44478693          	addi	a3,a5,1092 # 100444 <FLASH_SIZE+0x444>
    10c8:	800005b7          	lui	a1,0x80000
    10cc:	4e478713          	addi	a4,a5,1252
    10d0:	00b6e633          	or	a2,a3,a1
    10d4:	00060783          	lb	a5,0(a2)
    10d8:	06d1                	c.addi	a3,20
    10da:	8400                	exec.it	#2     !
    10dc:	00e7e793          	ori	a5,a5,14
    10e0:	00f60023          	sb	a5,0(a2)
    10e4:	fee696e3          	bne	a3,a4,10d0 <sys_init.constprop.2+0x64>
    10e8:	801017b7          	lui	a5,0x80101
    10ec:	83a78703          	lb	a4,-1990(a5) # 8010083a <_DATA_LMA_START+0x600f5fca>
    10f0:	03800513          	li	a0,56
    10f4:	82078d23          	sb	zero,-1990(a5)
    10f8:	8414                	exec.it	#11     !
    10fa:	842a                	c.mv	s0,a0
    10fc:	8c60                	exec.it	#54     !
    10fe:	8414                	exec.it	#11     !
    1100:	84aa                	c.mv	s1,a0
    1102:	0e04795b          	bbc	s0,0,11f4 <sys_init.constprop.2+0x188>
    1106:	0fe47593          	andi	a1,s0,254
    110a:	2bc6940b          	addigp	s0,45756 # 8babc <g_pm_status_info>
    110e:	03800513          	li	a0,56
    1112:	0c04f95b          	bbc	s1,0,11e4 <sys_init.constprop.2+0x178>
    1116:	4791                	c.li	a5,4
    1118:	00f40123          	sb	a5,2(s0)
    111c:	bf6ff0ef          	jal	ra,512 <analog_write_reg8>
    1120:	00100593          	li	a1,1
    1124:	8a20                	exec.it	#84     !
    1126:	8c10                	exec.it	#7     !
    1128:	8850                	exec.it	#37     !
    112a:	8414                	exec.it	#11     !
    112c:	0c3527db          	bfoz	a5,a0,3,3
    1130:	00a400a3          	sb	a0,1(s0)
    1134:	00f40023          	sb	a5,0(s0)
    1138:	8c54                	exec.it	#47     !
    113a:	8414                	exec.it	#11     !
    113c:	be757e5b          	bbc	a0,7,1138 <sys_init.constprop.2+0xcc>
    1140:	d28ff0ef          	jal	ra,668 <pm_wait_bbpll_done>
    1144:	00244783          	lbu	a5,2(s0)
    1148:	0887d85b          	beqc	a5,8,11d8 <sys_init.constprop.2+0x16c>
    114c:	8c00                	exec.it	#6     !
    114e:	8210                	exec.it	#65     !
    1150:	8400                	exec.it	#2     !
    1152:	8818                	exec.it	#133     !
    1154:	20f70523          	sb	a5,522(a4)
    1158:	00100793          	li	a5,1
    115c:	20f72023          	sw	a5,512(a4)
    1160:	8044                	exec.it	#40     !
    1162:	1fd48783          	lb	a5,509(s1)
    1166:	8400                	exec.it	#2     !
    1168:	2af6cc2b          	swgp	a5,45752 # 8bab8 <g_chip_version>
    116c:	00244703          	lbu	a4,2(s0)
    1170:	0447525b          	beqc	a4,4,11b4 <sys_init.constprop.2+0x148>
    1174:	0ff00693          	li	a3,255
    1178:	02d78863          	beq	a5,a3,11a8 <sys_init.constprop.2+0x13c>
    117c:	8254                	exec.it	#105     !
    117e:	8234                	exec.it	#89     !
    1180:	8c10                	exec.it	#7     !
    1182:	8c00                	exec.it	#6     !
    1184:	8e34                	exec.it	#95     !
    1186:	8e54                	exec.it	#111     !
    1188:	8644                	exec.it	#106     !
    118a:	8640                	exec.it	#98     !
    118c:	8bbd                	c.andi	a5,15
    118e:	0037d55b          	beqc	a5,3,1198 <sys_init.constprop.2+0x12c>
    1192:	4725                	c.li	a4,9
    1194:	04f77663          	bgeu	a4,a5,11e0 <sys_init.constprop.2+0x174>
    1198:	801407b7          	lui	a5,0x80140
    119c:	02000713          	li	a4,32
    11a0:	1ee787a3          	sb	a4,495(a5) # 801401ef <_DATA_LMA_START+0x6013597f>
    11a4:	0000006f          	j	11a4 <sys_init.constprop.2+0x138>
    11a8:	bc176a5b          	bnec	a4,1,117c <sys_init.constprop.2+0x110>
    11ac:	8234                	exec.it	#89     !
    11ae:	8254                	exec.it	#105     !
    11b0:	0100006f          	j	11c0 <sys_init.constprop.2+0x154>
    11b4:	8c60                	exec.it	#54     !
    11b6:	8414                	exec.it	#11     !
    11b8:	00256593          	ori	a1,a0,2
    11bc:	8c34                	exec.it	#31     !
    11be:	8c60                	exec.it	#54     !
    11c0:	b52ff0ef          	jal	ra,512 <analog_write_reg8>
    11c4:	2004a503          	lw	a0,512(s1)
    11c8:	001877b7          	lui	a5,0x187
    11cc:	a0078793          	addi	a5,a5,-1536 # 186a00 <FLASH_SIZE+0x86a00>
    11d0:	953e                	c.add	a0,a5
    11d2:	39fd                	c.jal	ed0 <pm_sleep_wakeup.constprop.3>
    11d4:	fa9ff06f          	j	117c <sys_init.constprop.2+0x110>
    11d8:	ac4ff0ef          	jal	ra,49c <pm_stimer_recover>
    11dc:	f85ff06f          	j	1160 <sys_init.constprop.2+0xf4>
    11e0:	18c0906f          	j	a36c <__riscv_restore_0>
    11e4:	4785                	c.li	a5,1
    11e6:	8808                	exec.it	#132     !
    11e8:	8c10                	exec.it	#7     !
    11ea:	0014e593          	ori	a1,s1,1
    11ee:	8c34                	exec.it	#31     !
    11f0:	8c60                	exec.it	#54     !
    11f2:	b72d                	c.j	111c <sys_init.constprop.2+0xb0>
    11f4:	8a20                	exec.it	#84     !
    11f6:	8414                	exec.it	#11     !
    11f8:	2bc6940b          	addigp	s0,45756 # 8babc <g_pm_status_info>
    11fc:	47a1                	c.li	a5,8
    11fe:	0005755b          	bbc	a0,0,1208 <sys_init.constprop.2+0x19c>
    1202:	47c1                	c.li	a5,16
    1204:	4014f65b          	bbs	s1,1,1210 <sys_init.constprop.2+0x1a4>
    1208:	00f40123          	sb	a5,2(s0)
    120c:	f15ff06f          	j	1120 <sys_init.constprop.2+0xb4>
    1210:	0fd4f593          	andi	a1,s1,253
    1214:	8c60                	exec.it	#54     !
    1216:	8a64                	exec.it	#124     !
    1218:	b701                	c.j	1118 <sys_init.constprop.2+0xac>
    121a:	0001                	c.nop

0000121c <reset_counters>:
    121c:	b0005073          	csrwi	mcycle,0
    1220:	b0205073          	csrwi	minstret,0
    1224:	8082                	c.jr	ra

00001226 <validate.lto_priv.19>:
    1226:	8e70                	exec.it	#119     !
    1228:	8a2a                	c.mv	s4,a0
    122a:	8aae                	c.mv	s5,a1
    122c:	89b2                	c.mv	s3,a2
    122e:	4401                	c.li	s0,0
    1230:	4901                	c.li	s2,0
    1232:	4485                	c.li	s1,1
    1234:	0008cb37          	lui	s6,0x8c
    1238:	008a07b3          	add	a5,s4,s0
    123c:	00078603          	lb	a2,0(a5)
    1240:	008a87b3          	add	a5,s5,s0
    1244:	00078683          	lb	a3,0(a5)
    1248:	00d60863          	beq	a2,a3,1258 <validate.lto_priv.19+0x32>
    124c:	85a2                	c.mv	a1,s0
    124e:	9a0b0513          	addi	a0,s6,-1632 # 8b9a0 <int16xint8xint32_1_weights+0x24b0>
    1252:	0905                	c.addi	s2,1
    1254:	4481                	c.li	s1,0
    1256:	8000                	exec.it	#0     !
    1258:	0405                	c.addi	s0,1
    125a:	fc899fe3          	bne	s3,s0,1238 <validate.lto_priv.19+0x12>
    125e:	e881                	c.bnez	s1,126e <validate.lto_priv.19+0x48>
    1260:	0008c537          	lui	a0,0x8c
    1264:	864e                	c.mv	a2,s3
    1266:	85ca                	c.mv	a1,s2
    1268:	9c450513          	addi	a0,a0,-1596 # 8b9c4 <int16xint8xint32_1_weights+0x24d4>
    126c:	8000                	exec.it	#0     !
    126e:	8526                	c.mv	a0,s1
    1270:	8a70                	exec.it	#117     !

00001272 <validate_s16.lto_priv.21>:
    1272:	8e70                	exec.it	#119     !
    1274:	8ab2                	c.mv	s5,a2
    1276:	8a2a                	c.mv	s4,a0
    1278:	89ae                	c.mv	s3,a1
    127a:	4401                	c.li	s0,0
    127c:	4901                	c.li	s2,0
    127e:	4485                	c.li	s1,1
    1280:	0008cb37          	lui	s6,0x8c
    1284:	000a1603          	lh	a2,0(s4)
    1288:	00099683          	lh	a3,0(s3)
    128c:	00d60863          	beq	a2,a3,129c <validate_s16.lto_priv.21+0x2a>
    1290:	85a2                	c.mv	a1,s0
    1292:	9a0b0513          	addi	a0,s6,-1632 # 8b9a0 <int16xint8xint32_1_weights+0x24b0>
    1296:	0905                	c.addi	s2,1
    1298:	4481                	c.li	s1,0
    129a:	8000                	exec.it	#0     !
    129c:	0405                	c.addi	s0,1
    129e:	0a09                	c.addi	s4,2
    12a0:	0989                	c.addi	s3,2
    12a2:	fe8a91e3          	bne	s5,s0,1284 <validate_s16.lto_priv.21+0x12>
    12a6:	e881                	c.bnez	s1,12b6 <validate_s16.lto_priv.21+0x44>
    12a8:	0008c537          	lui	a0,0x8c
    12ac:	8656                	c.mv	a2,s5
    12ae:	85ca                	c.mv	a1,s2
    12b0:	9c450513          	addi	a0,a0,-1596 # 8b9c4 <int16xint8xint32_1_weights+0x24d4>
    12b4:	8000                	exec.it	#0     !
    12b6:	8526                	c.mv	a0,s1
    12b8:	8a70                	exec.it	#117     !

000012ba <dw_int16xint8_dilation_riscv_depthwise_conv_s16>:
    12ba:	8220                	exec.it	#80     !
    12bc:	ca010113          	addi	sp,sp,-864
    12c0:	09010913          	addi	s2,sp,144
    12c4:	2d000613          	li	a2,720
    12c8:	4581                	c.li	a1,0
    12ca:	854a                	c.mv	a0,s2
    12cc:	8410                	exec.it	#3     !
    12ce:	4791                	c.li	a5,4
    12d0:	d0be                	c.swsp	a5,96(sp)
    12d2:	c6be                	c.swsp	a5,76(sp)
    12d4:	c4be                	c.swsp	a5,72(sp)
    12d6:	dcbe                	c.swsp	a5,120(sp)
    12d8:	478d                	c.li	a5,3
    12da:	debe                	c.swsp	a5,124(sp)
    12dc:	c13e                	c.swsp	a5,128(sp)
    12de:	4789                	c.li	a5,2
    12e0:	c33e                	c.swsp	a5,132(sp)
    12e2:	d6be                	c.swsp	a5,108(sp)
    12e4:	77e1                	c.lui	a5,0xffff8
    12e6:	04478793          	addi	a5,a5,68 # ffff8044 <_DATA_LMA_START+0xdffed7d4>
    12ea:	c53e                	c.swsp	a5,136(sp)
    12ec:	67a1                	c.lui	a5,0x8
    12ee:	17fd                	c.addi	a5,-1
    12f0:	c73e                	c.swsp	a5,140(sp)
    12f2:	4695                	c.li	a3,5
    12f4:	0800178b          	addigp	a5,128 # 80880 <dw_int16xint8_dilation_output_mult>
    12f8:	4625                	c.li	a2,9
    12fa:	ccb6                	c.swsp	a3,88(sp)
    12fc:	d436                	c.swsp	a3,40(sp)
    12fe:	ca3e                	c.swsp	a5,20(sp)
    1300:	46a1                	c.li	a3,8
    1302:	1044                	c.addi4spn	s1,sp,36
    1304:	4705                	c.li	a4,1
    1306:	3700178b          	addigp	a5,880 # 80b70 <dw_int16xint8_dilation_output_shift>
    130a:	08cc                	c.addi4spn	a1,sp,84
    130c:	ceb2                	c.swsp	a2,92(sp)
    130e:	d632                	c.swsp	a2,44(sp)
    1310:	d836                	c.swsp	a3,48(sp)
    1312:	00d0                	c.addi4spn	a2,sp,68
    1314:	86a6                	c.mv	a3,s1
    1316:	10c8                	c.addi4spn	a0,sp,100
    1318:	caba                	c.swsp	a4,84(sp)
    131a:	d8ba                	c.swsp	a4,112(sp)
    131c:	daba                	c.swsp	a4,116(sp)
    131e:	cc3e                	c.swsp	a5,24(sp)
    1320:	da02                	c.swsp	zero,52(sp)
    1322:	dc02                	c.swsp	zero,56(sp)
    1324:	de02                	c.swsp	zero,60(sp)
    1326:	c082                	c.swsp	zero,64(sp)
    1328:	d282                	c.swsp	zero,100(sp)
    132a:	d482                	c.swsp	zero,104(sp)
    132c:	108010ef          	jal	ra,2434 <riscv_depthwise_conv_wrapper_s16_get_buffer_size>
    1330:	89aa                	c.mv	s3,a0
    1332:	8c04                	exec.it	#14     !
    1334:	d04e                	c.swsp	s3,32(sp)
    1336:	ce2a                	c.swsp	a0,28(sp)
    1338:	35d5                	c.jal	121c <reset_counters>
    133a:	3961                	c.jal	fd2 <fill_stack_pattern_to_sp>
    133c:	b0002bf3          	csrr	s7,mcycle
    1340:	8624                	exec.it	#90     !
    1342:	ed9f978b          	addigp	a5,-296 # 806d8 <dw_int16xint8_dilation_biases>
    1346:	c03e                	c.swsp	a5,0(sp)
    1348:	03410893          	addi	a7,sp,52
    134c:	4980180b          	addigp	a6,1176 # 80c98 <dw_int16xint8_dilation_weights>
    1350:	00dc                	c.addi4spn	a5,sp,68
    1352:	f19f970b          	addigp	a4,-232 # 80718 <dw_int16xint8_dilation_input>
    1356:	08d4                	c.addi4spn	a3,sp,84
    1358:	0850                	c.addi4spn	a2,sp,20
    135a:	10cc                	c.addi4spn	a1,sp,100
    135c:	0868                	c.addi4spn	a0,sp,28
    135e:	c44a                	c.swsp	s2,8(sp)
    1360:	c226                	c.swsp	s1,4(sp)
    1362:	8a54                	exec.it	#109     !
    1364:	8c70                	exec.it	#55     !
    1366:	b0202b73          	csrr	s6,minstret
    136a:	3199                	c.jal	fb0 <measure_stack_usage>
    136c:	8a2a                	c.mv	s4,a0
    136e:	4572                	c.lwsp	a0,28(sp)
    1370:	8e00                	exec.it	#70     !
    1372:	c511                	c.beqz	a0,137e <dw_int16xint8_dilation_riscv_depthwise_conv_s16+0xc4>
    1374:	864e                	c.mv	a2,s3
    1376:	4581                	c.li	a1,0
    1378:	8410                	exec.it	#3     !
    137a:	4572                	c.lwsp	a0,28(sp)
    137c:	8c14                	exec.it	#15     !
    137e:	0008b537          	lui	a0,0x8b
    1382:	8e04                	exec.it	#78     !
    1384:	8000                	exec.it	#0     !
    1386:	16800613          	li	a2,360
    138a:	0a00158b          	addigp	a1,160 # 808a0 <dw_int16xint8_dilation_output_ref>
    138e:	854a                	c.mv	a0,s2
    1390:	35cd                	c.jal	1272 <validate_s16.lto_priv.21>
    1392:	c929                	c.beqz	a0,13e4 <dw_int16xint8_dilation_riscv_depthwise_conv_s16+0x12a>
    1394:	00081537          	lui	a0,0x81
    1398:	b9050513          	addi	a0,a0,-1136 # 80b90 <dw_int16xint8_dilation_output_shift+0x20>
    139c:	8000                	exec.it	#0     !
    139e:	41740433          	sub	s0,s0,s7
    13a2:	00081537          	lui	a0,0x81
    13a6:	85a2                	c.mv	a1,s0
    13a8:	8030                	exec.it	#17     !
    13aa:	8000                	exec.it	#0     !
    13ac:	00081537          	lui	a0,0x81
    13b0:	415b05b3          	sub	a1,s6,s5
    13b4:	8c30                	exec.it	#23     !
    13b6:	8000                	exec.it	#0     !
    13b8:	8064                	exec.it	#56     !
    13ba:	000807b7          	lui	a5,0x80
    13be:	8464                	exec.it	#58     !
    13c0:	8020                	exec.it	#16     !
    13c2:	0007a507          	flw	fa0,0(a5) # 80000 <_DATA_VMA_START>
    13c6:	8830                	exec.it	#21     !
    13c8:	8430                	exec.it	#19     !
    13ca:	862a                	c.mv	a2,a0
    13cc:	00081537          	lui	a0,0x81
    13d0:	86ae                	c.mv	a3,a1
    13d2:	8820                	exec.it	#20     !
    13d4:	8000                	exec.it	#0     !
    13d6:	8010                	exec.it	#1     !
    13d8:	85d2                	c.mv	a1,s4
    13da:	8c20                	exec.it	#22     !
    13dc:	8000                	exec.it	#0     !
    13de:	36010113          	addi	sp,sp,864
    13e2:	8c64                	exec.it	#62     !
    13e4:	00081537          	lui	a0,0x81
    13e8:	c4c50513          	addi	a0,a0,-948 # 80c4c <dw_int16xint8_dilation_output_shift+0xdc>
    13ec:	8000                	exec.it	#0     !
    13ee:	bfc5                	c.j	13de <dw_int16xint8_dilation_riscv_depthwise_conv_s16+0x124>

000013f0 <dw_int16xint8_riscv_depthwise_conv_s16>:
    13f0:	8220                	exec.it	#80     !
    13f2:	712d                	c.addi16sp	sp,-288
    13f4:	09010913          	addi	s2,sp,144
    13f8:	09000613          	li	a2,144
    13fc:	4581                	c.li	a1,0
    13fe:	854a                	c.mv	a0,s2
    1400:	8410                	exec.it	#3     !
    1402:	4785                	c.li	a5,1
    1404:	cabe                	c.swsp	a5,84(sp)
    1406:	debe                	c.swsp	a5,124(sp)
    1408:	c13e                	c.swsp	a5,128(sp)
    140a:	c33e                	c.swsp	a5,132(sp)
    140c:	77ed                	c.lui	a5,0xffffb
    140e:	d8978793          	addi	a5,a5,-631 # ffffad89 <_DATA_LMA_START+0xdfff0519>
    1412:	c53e                	c.swsp	a5,136(sp)
    1414:	67a1                	c.lui	a5,0x8
    1416:	17fd                	c.addi	a5,-1
    1418:	c73e                	c.swsp	a5,140(sp)
    141a:	4725                	c.li	a4,9
    141c:	ceba                	c.swsp	a4,92(sp)
    141e:	4691                	c.li	a3,4
    1420:	4715                	c.li	a4,5
    1422:	7c00178b          	addigp	a5,1984 # 80fc0 <dw_int16xint8_output_mult>
    1426:	ccba                	c.swsp	a4,88(sp)
    1428:	d0b6                	c.swsp	a3,96(sp)
    142a:	470d                	c.li	a4,3
    142c:	c4b6                	c.swsp	a3,72(sp)
    142e:	ca3e                	c.swsp	a5,20(sp)
    1430:	46a1                	c.li	a3,8
    1432:	1044                	c.addi4spn	s1,sp,36
    1434:	0710178b          	addigp	a5,2160 # 81070 <dw_int16xint8_output_shift>
    1438:	00d0                	c.addi4spn	a2,sp,68
    143a:	08cc                	c.addi4spn	a1,sp,84
    143c:	c6ba                	c.swsp	a4,76(sp)
    143e:	d63a                	c.swsp	a4,44(sp)
    1440:	d43a                	c.swsp	a4,40(sp)
    1442:	d836                	c.swsp	a3,48(sp)
    1444:	d8ba                	c.swsp	a4,112(sp)
    1446:	86a6                	c.mv	a3,s1
    1448:	4709                	c.li	a4,2
    144a:	10c8                	c.addi4spn	a0,sp,100
    144c:	daba                	c.swsp	a4,116(sp)
    144e:	d6ba                	c.swsp	a4,108(sp)
    1450:	cc3e                	c.swsp	a5,24(sp)
    1452:	da02                	c.swsp	zero,52(sp)
    1454:	dc02                	c.swsp	zero,56(sp)
    1456:	de02                	c.swsp	zero,60(sp)
    1458:	c082                	c.swsp	zero,64(sp)
    145a:	dc82                	c.swsp	zero,120(sp)
    145c:	d282                	c.swsp	zero,100(sp)
    145e:	d482                	c.swsp	zero,104(sp)
    1460:	7d5000ef          	jal	ra,2434 <riscv_depthwise_conv_wrapper_s16_get_buffer_size>
    1464:	89aa                	c.mv	s3,a0
    1466:	8c04                	exec.it	#14     !
    1468:	d04e                	c.swsp	s3,32(sp)
    146a:	ce2a                	c.swsp	a0,28(sp)
    146c:	3b45                	c.jal	121c <reset_counters>
    146e:	8024                	exec.it	#24     !
    1470:	b0002bf3          	csrr	s7,mcycle
    1474:	8624                	exec.it	#90     !
    1476:	e99f978b          	addigp	a5,-360 # 80698 <dw_int16xint8_biases>
    147a:	c03e                	c.swsp	a5,0(sp)
    147c:	03410893          	addi	a7,sp,52
    1480:	1190180b          	addigp	a6,2328 # 81118 <dw_int16xint8_weights>
    1484:	00dc                	c.addi4spn	a5,sp,68
    1486:	5180170b          	addigp	a4,1304 # 80d18 <dw_int16xint8_input>
    148a:	08d4                	c.addi4spn	a3,sp,84
    148c:	0850                	c.addi4spn	a2,sp,20
    148e:	10cc                	c.addi4spn	a1,sp,100
    1490:	0868                	c.addi4spn	a0,sp,28
    1492:	c44a                	c.swsp	s2,8(sp)
    1494:	c226                	c.swsp	s1,4(sp)
    1496:	8a54                	exec.it	#109     !
    1498:	8c70                	exec.it	#55     !
    149a:	b0202b73          	csrr	s6,minstret
    149e:	8034                	exec.it	#25     !
    14a0:	8a2a                	c.mv	s4,a0
    14a2:	4572                	c.lwsp	a0,28(sp)
    14a4:	8e00                	exec.it	#70     !
    14a6:	c511                	c.beqz	a0,14b2 <dw_int16xint8_riscv_depthwise_conv_s16+0xc2>
    14a8:	864e                	c.mv	a2,s3
    14aa:	4581                	c.li	a1,0
    14ac:	8410                	exec.it	#3     !
    14ae:	4572                	c.lwsp	a0,28(sp)
    14b0:	8c14                	exec.it	#15     !
    14b2:	0008b537          	lui	a0,0x8b
    14b6:	8e04                	exec.it	#78     !
    14b8:	8000                	exec.it	#0     !
    14ba:	8660                	exec.it	#114     !
    14bc:	7e00158b          	addigp	a1,2016 # 80fe0 <dw_int16xint8_output_ref>
    14c0:	854a                	c.mv	a0,s2
    14c2:	3b45                	c.jal	1272 <validate_s16.lto_priv.21>
    14c4:	c921                	c.beqz	a0,1514 <dw_int16xint8_riscv_depthwise_conv_s16+0x124>
    14c6:	00081537          	lui	a0,0x81
    14ca:	09050513          	addi	a0,a0,144 # 81090 <dw_int16xint8_output_shift+0x20>
    14ce:	8000                	exec.it	#0     !
    14d0:	41740433          	sub	s0,s0,s7
    14d4:	00081537          	lui	a0,0x81
    14d8:	85a2                	c.mv	a1,s0
    14da:	8030                	exec.it	#17     !
    14dc:	8000                	exec.it	#0     !
    14de:	00081537          	lui	a0,0x81
    14e2:	415b05b3          	sub	a1,s6,s5
    14e6:	8c30                	exec.it	#23     !
    14e8:	8000                	exec.it	#0     !
    14ea:	8064                	exec.it	#56     !
    14ec:	000807b7          	lui	a5,0x80
    14f0:	8464                	exec.it	#58     !
    14f2:	8020                	exec.it	#16     !
    14f4:	0007a507          	flw	fa0,0(a5) # 80000 <_DATA_VMA_START>
    14f8:	8830                	exec.it	#21     !
    14fa:	8430                	exec.it	#19     !
    14fc:	862a                	c.mv	a2,a0
    14fe:	00081537          	lui	a0,0x81
    1502:	86ae                	c.mv	a3,a1
    1504:	8820                	exec.it	#20     !
    1506:	8000                	exec.it	#0     !
    1508:	8010                	exec.it	#1     !
    150a:	85d2                	c.mv	a1,s4
    150c:	8c20                	exec.it	#22     !
    150e:	8000                	exec.it	#0     !
    1510:	6115                	c.addi16sp	sp,288
    1512:	8c64                	exec.it	#62     !
    1514:	00081537          	lui	a0,0x81
    1518:	0d450513          	addi	a0,a0,212 # 810d4 <dw_int16xint8_output_shift+0x64>
    151c:	8000                	exec.it	#0     !
    151e:	bfcd                	c.j	1510 <dw_int16xint8_riscv_depthwise_conv_s16+0x120>

00001520 <conv_3x3_dilation_5x5_input_riscv_convolve_s8>:
    1520:	8220                	exec.it	#80     !
    1522:	714d                	c.addi16sp	sp,-336
    1524:	08810913          	addi	s2,sp,136
    1528:	0c600613          	li	a2,198
    152c:	4581                	c.li	a1,0
    152e:	854a                	c.mv	a0,s2
    1530:	8410                	exec.it	#3     !
    1532:	4789                	c.li	a5,2
    1534:	cebe                	c.swsp	a5,92(sp)
    1536:	c6be                	c.swsp	a5,76(sp)
    1538:	d63e                	c.swsp	a5,44(sp)
    153a:	d8be                	c.swsp	a5,112(sp)
    153c:	dabe                	c.swsp	a5,116(sp)
    153e:	dcbe                	c.swsp	a5,120(sp)
    1540:	debe                	c.swsp	a5,124(sp)
    1542:	8454                	exec.it	#43     !
    1544:	d0be                	c.swsp	a5,96(sp)
    1546:	5799                	c.li	a5,-26
    1548:	d2be                	c.swsp	a5,100(sp)
    154a:	fc300793          	li	a5,-61
    154e:	c13e                	c.swsp	a5,128(sp)
    1550:	06b00793          	li	a5,107
    1554:	c33e                	c.swsp	a5,132(sp)
    1556:	2746978b          	addigp	a5,45684 # 8ba74 <conv_3x3_dilation_5x5_input_output_mult>
    155a:	4625                	c.li	a2,9
    155c:	46ad                	c.li	a3,11
    155e:	458d                	c.li	a1,3
    1560:	c83e                	c.swsp	a5,16(sp)
    1562:	1004                	c.addi4spn	s1,sp,32
    1564:	4705                	c.li	a4,1
    1566:	27c6978b          	addigp	a5,45692 # 8ba7c <conv_3x3_dilation_5x5_input_output_shift>
    156a:	ccb2                	c.swsp	a2,88(sp)
    156c:	cab6                	c.swsp	a3,84(sp)
    156e:	c4ae                	c.swsp	a1,72(sp)
    1570:	c2ae                	c.swsp	a1,68(sp)
    1572:	d432                	c.swsp	a2,40(sp)
    1574:	088c                	c.addi4spn	a1,sp,80
    1576:	0090                	c.addi4spn	a2,sp,64
    1578:	d236                	c.swsp	a3,36(sp)
    157a:	1088                	c.addi4spn	a0,sp,96
    157c:	86a6                	c.mv	a3,s1
    157e:	c8ba                	c.swsp	a4,80(sp)
    1580:	d4ba                	c.swsp	a4,104(sp)
    1582:	d6ba                	c.swsp	a4,108(sp)
    1584:	ca3e                	c.swsp	a5,20(sp)
    1586:	8c08                	exec.it	#134     !
    1588:	8baa                	c.mv	s7,a0
    158a:	8c04                	exec.it	#14     !
    158c:	ce02                	c.swsp	zero,28(sp)
    158e:	cc2a                	c.swsp	a0,24(sp)
    1590:	3171                	c.jal	121c <reset_counters>
    1592:	8024                	exec.it	#24     !
    1594:	8434                	exec.it	#27     !
    1596:	b0202a73          	csrr	s4,minstret
    159a:	26c6978b          	addigp	a5,45676 # 8ba6c <conv_3x3_dilation_5x5_input_biases>
    159e:	c03e                	c.swsp	a5,0(sp)
    15a0:	03010893          	addi	a7,sp,48
    15a4:	bb9f980b          	addigp	a6,-1096 # 803b8 <conv_3x3_dilation_5x5_input_weights>
    15a8:	009c                	c.addi4spn	a5,sp,64
    15aa:	991f970b          	addigp	a4,-1648 # 80190 <conv_3x3_dilation_5x5_input_input>
    15ae:	0894                	c.addi4spn	a3,sp,80
    15b0:	0810                	c.addi4spn	a2,sp,16
    15b2:	108c                	c.addi4spn	a1,sp,96
    15b4:	0828                	c.addi4spn	a0,sp,24
    15b6:	c44a                	c.swsp	s2,8(sp)
    15b8:	c226                	c.swsp	s1,4(sp)
    15ba:	8018                	exec.it	#129     !
    15bc:	8c70                	exec.it	#55     !
    15be:	8624                	exec.it	#90     !
    15c0:	8034                	exec.it	#25     !
    15c2:	89aa                	c.mv	s3,a0
    15c4:	4562                	c.lwsp	a0,24(sp)
    15c6:	8e00                	exec.it	#70     !
    15c8:	c511                	c.beqz	a0,15d4 <conv_3x3_dilation_5x5_input_riscv_convolve_s8+0xb4>
    15ca:	865e                	c.mv	a2,s7
    15cc:	4581                	c.li	a1,0
    15ce:	8410                	exec.it	#3     !
    15d0:	4562                	c.lwsp	a0,24(sp)
    15d2:	8c14                	exec.it	#15     !
    15d4:	0008b537          	lui	a0,0x8b
    15d8:	8e04                	exec.it	#78     !
    15da:	8000                	exec.it	#0     !
    15dc:	0c600613          	li	a2,198
    15e0:	a59f958b          	addigp	a1,-1448 # 80258 <conv_3x3_dilation_5x5_input_output_ref>
    15e4:	854a                	c.mv	a0,s2
    15e6:	c41ff0ef          	jal	ra,1226 <validate.lto_priv.19>
    15ea:	c921                	c.beqz	a0,163a <conv_3x3_dilation_5x5_input_riscv_convolve_s8+0x11a>
    15ec:	00080537          	lui	a0,0x80
    15f0:	32050513          	addi	a0,a0,800 # 80320 <conv_3x3_dilation_5x5_input_output_ref+0xc8>
    15f4:	8000                	exec.it	#0     !
    15f6:	41640433          	sub	s0,s0,s6
    15fa:	00081537          	lui	a0,0x81
    15fe:	85a2                	c.mv	a1,s0
    1600:	8030                	exec.it	#17     !
    1602:	8000                	exec.it	#0     !
    1604:	00081537          	lui	a0,0x81
    1608:	414a85b3          	sub	a1,s5,s4
    160c:	8c30                	exec.it	#23     !
    160e:	8000                	exec.it	#0     !
    1610:	8064                	exec.it	#56     !
    1612:	000807b7          	lui	a5,0x80
    1616:	8464                	exec.it	#58     !
    1618:	8020                	exec.it	#16     !
    161a:	0007a507          	flw	fa0,0(a5) # 80000 <_DATA_VMA_START>
    161e:	8830                	exec.it	#21     !
    1620:	8430                	exec.it	#19     !
    1622:	862a                	c.mv	a2,a0
    1624:	00081537          	lui	a0,0x81
    1628:	86ae                	c.mv	a3,a1
    162a:	8820                	exec.it	#20     !
    162c:	8000                	exec.it	#0     !
    162e:	8010                	exec.it	#1     !
    1630:	85ce                	c.mv	a1,s3
    1632:	8c20                	exec.it	#22     !
    1634:	8000                	exec.it	#0     !
    1636:	6171                	c.addi16sp	sp,336
    1638:	8c64                	exec.it	#62     !
    163a:	00080537          	lui	a0,0x80
    163e:	36c50513          	addi	a0,a0,876 # 8036c <conv_3x3_dilation_5x5_input_output_ref+0x114>
    1642:	8000                	exec.it	#0     !
    1644:	bfcd                	c.j	1636 <conv_3x3_dilation_5x5_input_riscv_convolve_s8+0x116>

00001646 <int16xint8_dilation_1_riscv_convolve_s16>:
    1646:	4db082ef          	jal	t0,a320 <__riscv_save_10>
    164a:	737d                	c.lui	t1,0xfffff
    164c:	15030313          	addi	t1,t1,336 # fffff150 <_DATA_LMA_START+0xdfff48e0>
    1650:	6485                	c.lui	s1,0x1
    1652:	911a                	c.add	sp,t1
    1654:	e1048493          	addi	s1,s1,-496 # e10 <flash_read_uid.constprop.7+0xc>
    1658:	8626                	c.mv	a2,s1
    165a:	4581                	c.li	a1,0
    165c:	1108                	c.addi4spn	a0,sp,160
    165e:	8410                	exec.it	#3     !
    1660:	1990178b          	addigp	a5,2456 # 81198 <int16xint8_dilation_1_bias>
    1664:	d03e                	c.swsp	a5,32(sp)
    1666:	8a64                	exec.it	#124     !
    1668:	d8be                	c.swsp	a5,112(sp)
    166a:	d6be                	c.swsp	a5,108(sp)
    166c:	4789                	c.li	a5,2
    166e:	dabe                	c.swsp	a5,116(sp)
    1670:	d0be                	c.swsp	a5,96(sp)
    1672:	cebe                	c.swsp	a5,92(sp)
    1674:	c2be                	c.swsp	a5,68(sp)
    1676:	c93e                	c.swsp	a5,144(sp)
    1678:	cb3e                	c.swsp	a5,148(sp)
    167a:	77e1                	c.lui	a5,0xffff8
    167c:	cd3e                	c.swsp	a5,152(sp)
    167e:	67a1                	c.lui	a5,0x8
    1680:	17fd                	c.addi	a5,-1
    1682:	cf3e                	c.swsp	a5,156(sp)
    1684:	2906978b          	addigp	a5,45712 # 8ba90 <int16xint8_dilation_1_output_multiplier>
    1688:	4705                	c.li	a4,1
    168a:	d43e                	c.swsp	a5,40(sp)
    168c:	6c05                	c.lui	s8,0x1
    168e:	747d                	c.lui	s0,0xfffff
    1690:	d4ba                	c.swsp	a4,104(sp)
    1692:	c13a                	c.swsp	a4,128(sp)
    1694:	c33a                	c.swsp	a4,132(sp)
    1696:	0810                	c.addi4spn	a2,sp,16
    1698:	2986978b          	addigp	a5,45720 # 8ba98 <int16xint8_dilation_1_output_shift>
    169c:	8200                	exec.it	#64     !
    169e:	9732                	c.add	a4,a2
    16a0:	46f9                	c.li	a3,30
    16a2:	d63e                	c.swsp	a5,44(sp)
    16a4:	18840a13          	addi	s4,s0,392 # fffff188 <_DATA_LMA_START+0xdfff4918>
    16a8:	1a840793          	addi	a5,s0,424
    16ac:	97ba                	c.add	a5,a4
    16ae:	c0b6                	c.swsp	a3,64(sp)
    16b0:	de36                	c.swsp	a3,60(sp)
    16b2:	9a3a                	c.add	s4,a4
    16b4:	0814                	c.addi4spn	a3,sp,16
    16b6:	8200                	exec.it	#64     !
    16b8:	9736                	c.add	a4,a3
    16ba:	1b840993          	addi	s3,s0,440
    16be:	1c840913          	addi	s2,s0,456
    16c2:	99ba                	c.add	s3,a4
    16c4:	993a                	c.add	s2,a4
    16c6:	86d2                	c.mv	a3,s4
    16c8:	863e                	c.mv	a2,a5
    16ca:	85ce                	c.mv	a1,s3
    16cc:	854a                	c.mv	a0,s2
    16ce:	ce3e                	c.swsp	a5,28(sp)
    16d0:	02010223          	sb	zero,36(sp)
    16d4:	c502                	c.swsp	zero,136(sp)
    16d6:	c702                	c.swsp	zero,140(sp)
    16d8:	dc82                	c.swsp	zero,120(sp)
    16da:	de82                	c.swsp	zero,124(sp)
    16dc:	8e64                	exec.it	#126     !
    16de:	8baa                	c.mv	s7,a0
    16e0:	8c04                	exec.it	#14     !
    16e2:	d82a                	c.swsp	a0,48(sp)
    16e4:	8824                	exec.it	#28     !
    16e6:	8024                	exec.it	#24     !
    16e8:	8434                	exec.it	#27     !
    16ea:	8624                	exec.it	#90     !
    16ec:	080c                	c.addi4spn	a1,sp,16
    16ee:	8200                	exec.it	#64     !
    16f0:	972e                	c.add	a4,a1
    16f2:	19840893          	addi	a7,s0,408
    16f6:	17840613          	addi	a2,s0,376
    16fa:	18040513          	addi	a0,s0,384
    16fe:	17040413          	addi	s0,s0,368
    1702:	409704b3          	sub	s1,a4,s1
    1706:	943a                	c.add	s0,a4
    1708:	080c                	c.addi4spn	a1,sp,16
    170a:	8200                	exec.it	#64     !
    170c:	c022                	c.swsp	s0,0(sp)
    170e:	972e                	c.add	a4,a1
    1710:	0800                	c.addi4spn	s0,sp,16
    1712:	ea0c0593          	addi	a1,s8,-352 # ea0 <flash_read_mid_uid_with_check+0x64>
    1716:	c426                	c.swsp	s1,8(sp)
    1718:	95a2                	c.add	a1,s0
    171a:	0804                	c.addi4spn	s1,sp,16
    171c:	ea0c0413          	addi	s0,s8,-352
    1720:	98ba                	c.add	a7,a4
    1722:	47f2                	c.lwsp	a5,28(sp)
    1724:	9426                	c.add	s0,s1
    1726:	962e                	c.add	a2,a1
    1728:	0514180b          	addigp	a6,10320 # 83050 <int16xint8_dilation_1_weights>
    172c:	1a90170b          	addigp	a4,2472 # 811a8 <int16xint8_dilation_1_input>
    1730:	86ce                	c.mv	a3,s3
    1732:	85ca                	c.mv	a1,s2
    1734:	9522                	c.add	a0,s0
    1736:	c252                	c.swsp	s4,4(sp)
    1738:	8264                	exec.it	#120     !
    173a:	8c70                	exec.it	#55     !
    173c:	b02029f3          	csrr	s3,minstret
    1740:	8034                	exec.it	#25     !
    1742:	892a                	c.mv	s2,a0
    1744:	5542                	c.lwsp	a0,48(sp)
    1746:	8e00                	exec.it	#70     !
    1748:	c511                	c.beqz	a0,1754 <int16xint8_dilation_1_riscv_convolve_s16+0x10e>
    174a:	865e                	c.mv	a2,s7
    174c:	4581                	c.li	a1,0
    174e:	8410                	exec.it	#3     !
    1750:	5542                	c.lwsp	a0,48(sp)
    1752:	8c14                	exec.it	#15     !
    1754:	0008b537          	lui	a0,0x8b
    1758:	8e04                	exec.it	#78     !
    175a:	8000                	exec.it	#0     !
    175c:	6705                	c.lui	a4,0x1
    175e:	ea070693          	addi	a3,a4,-352 # ea0 <flash_read_mid_uid_with_check+0x64>
    1762:	757d                	c.lui	a0,0xfffff
    1764:	0818                	c.addi4spn	a4,sp,16
    1766:	1f050513          	addi	a0,a0,496 # fffff1f0 <_DATA_LMA_START+0xdfff4980>
    176a:	96ba                	c.add	a3,a4
    176c:	70800613          	li	a2,1800
    1770:	1a92158b          	addigp	a1,6568 # 821a8 <int16xint8_dilation_1_output>
    1774:	9536                	c.add	a0,a3
    1776:	afdff0ef          	jal	ra,1272 <validate_s16.lto_priv.21>
    177a:	c939                	c.beqz	a0,17d0 <int16xint8_dilation_1_riscv_convolve_s16+0x18a>
    177c:	00083537          	lui	a0,0x83
    1780:	fb850513          	addi	a0,a0,-72 # 82fb8 <int16xint8_dilation_1_output+0xe10>
    1784:	8000                	exec.it	#0     !
    1786:	41640433          	sub	s0,s0,s6
    178a:	00081537          	lui	a0,0x81
    178e:	85a2                	c.mv	a1,s0
    1790:	8030                	exec.it	#17     !
    1792:	8000                	exec.it	#0     !
    1794:	00081537          	lui	a0,0x81
    1798:	415985b3          	sub	a1,s3,s5
    179c:	8c30                	exec.it	#23     !
    179e:	8000                	exec.it	#0     !
    17a0:	8064                	exec.it	#56     !
    17a2:	000807b7          	lui	a5,0x80
    17a6:	8464                	exec.it	#58     !
    17a8:	8020                	exec.it	#16     !
    17aa:	8260                	exec.it	#112     !
    17ac:	8830                	exec.it	#21     !
    17ae:	8430                	exec.it	#19     !
    17b0:	862a                	c.mv	a2,a0
    17b2:	00081537          	lui	a0,0x81
    17b6:	86ae                	c.mv	a3,a1
    17b8:	8820                	exec.it	#20     !
    17ba:	8000                	exec.it	#0     !
    17bc:	8010                	exec.it	#1     !
    17be:	85ca                	c.mv	a1,s2
    17c0:	8c20                	exec.it	#22     !
    17c2:	8000                	exec.it	#0     !
    17c4:	6f010113          	addi	sp,sp,1776
    17c8:	7c010113          	addi	sp,sp,1984
    17cc:	38d0806f          	j	a358 <__riscv_restore_10>
    17d0:	00083537          	lui	a0,0x83
    17d4:	00450513          	addi	a0,a0,4 # 83004 <int16xint8_dilation_1_output+0xe5c>
    17d8:	8000                	exec.it	#0     !
    17da:	b7ed                	c.j	17c4 <int16xint8_dilation_1_riscv_convolve_s16+0x17e>

000017dc <_write>:
    17dc:	36d082ef          	jal	t0,a348 <__riscv_save_0>
    17e0:	1141                	c.addi	sp,-16
    17e2:	842e                	c.mv	s0,a1
    17e4:	40b407b3          	sub	a5,s0,a1
    17e8:	00c7c863          	blt	a5,a2,17f8 <_write+0x1c>
    17ec:	4501                	c.li	a0,0
    17ee:	f2a6057f          	maxw	a0,a2,a0
    17f2:	0141                	c.addi	sp,16
    17f4:	3790806f          	j	a36c <__riscv_restore_0>
    17f8:	00044503          	lbu	a0,0(s0)
    17fc:	c632                	c.swsp	a2,12(sp)
    17fe:	c42e                	c.swsp	a1,8(sp)
    1800:	824ff0ef          	jal	ra,824 <dr_putchar>
    1804:	0405                	c.addi	s0,1
    1806:	4632                	c.lwsp	a2,12(sp)
    1808:	45a2                	c.lwsp	a1,8(sp)
    180a:	bfe9                	c.j	17e4 <_write+0x8>

0000180c <main>:
    180c:	8008                	exec.it	#128     !
    180e:	7111                	c.addi16sp	sp,-256
    1810:	85dff0ef          	jal	ra,106c <sys_init.constprop.2>
    1814:	453d                	c.li	a0,15
    1816:	8414                	exec.it	#11     !
    1818:	03f57593          	andi	a1,a0,63
    181c:	0405e593          	ori	a1,a1,64
    1820:	453d                	c.li	a0,15
    1822:	8c10                	exec.it	#7     !
    1824:	1160                	c.addi4spn	s0,sp,172
    1826:	0104                	c.addi4spn	s1,sp,128
    1828:	85a2                	c.mv	a1,s0
    182a:	8526                	c.mv	a0,s1
    182c:	e10ff0ef          	jal	ra,e3c <flash_read_mid_uid_with_check>
    1830:	0ff57513          	andi	a0,a0,255
    1834:	0215615b          	bnec	a0,1,1856 <main+0x4a>
    1838:	08214783          	lbu	a5,130(sp)
    183c:	474d                	c.li	a4,19
    183e:	0137e45b          	bnec	a5,19,1846 <main+0x3a>
    1842:	1f30006f          	j	2234 <main+0xa28>
    1846:	00f76b63          	bltu	a4,a5,185c <main+0x50>
    184a:	0307db5b          	beqc	a5,16,1880 <main+0x74>
    184e:	0117e45b          	bnec	a5,17,1856 <main+0x4a>
    1852:	1d90006f          	j	222a <main+0xa1e>
    1856:	4501                	c.li	a0,0
    1858:	8440                	exec.it	#34     !
    185a:	a80d                	c.j	188c <main+0x80>
    185c:	4755                	c.li	a4,21
    185e:	0157e45b          	bnec	a5,21,1866 <main+0x5a>
    1862:	1ef0006f          	j	2250 <main+0xa44>
    1866:	00e7f463          	bgeu	a5,a4,186e <main+0x62>
    186a:	1d90006f          	j	2242 <main+0xa36>
    186e:	bf67e45b          	bnec	a5,22,1856 <main+0x4a>
    1872:	003fe537          	lui	a0,0x3fe
    1876:	8c44                	exec.it	#46     !
    1878:	8440                	exec.it	#34     !
    187a:	003fe537          	lui	a0,0x3fe
    187e:	a029                	c.j	1888 <main+0x7c>
    1880:	6539                	c.lui	a0,0xe
    1882:	8c44                	exec.it	#46     !
    1884:	8440                	exec.it	#34     !
    1886:	6539                	c.lui	a0,0xe
    1888:	f86ff0ef          	jal	ra,100e <user_calib_freq_offset.constprop.8>
    188c:	80140937          	lui	s2,0x80140
    1890:	e32ff0ef          	jal	ra,ec2 <clock_init.constprop.10>
    1894:	8a00                	exec.it	#68     !
    1896:	11000513          	li	a0,272
    189a:	8400                	exec.it	#2     !
    189c:	8474                	exec.it	#59     !
    189e:	8604                	exec.it	#74     !
    18a0:	8634                	exec.it	#91     !
    18a2:	0ef7f793          	andi	a5,a5,239
    18a6:	8e14                	exec.it	#79     !
    18a8:	8630                	exec.it	#83     !
    18aa:	8a00                	exec.it	#68     !
    18ac:	12000513          	li	a0,288
    18b0:	8400                	exec.it	#2     !
    18b2:	0207e793          	ori	a5,a5,32
    18b6:	8604                	exec.it	#74     !
    18b8:	8634                	exec.it	#91     !
    18ba:	0008b9b7          	lui	s3,0x8b
    18be:	0df7f793          	andi	a5,a5,223
    18c2:	8e14                	exec.it	#79     !
    18c4:	8630                	exec.it	#83     !
    18c6:	8a00                	exec.it	#68     !
    18c8:	14000513          	li	a0,320
    18cc:	8400                	exec.it	#2     !
    18ce:	0407e793          	ori	a5,a5,64
    18d2:	8604                	exec.it	#74     !
    18d4:	8634                	exec.it	#91     !
    18d6:	2a069b8b          	addigp	s7,45728 # 8baa0 <_DATA_VMA_END>
    18da:	0bf7f793          	andi	a5,a5,191
    18de:	8e14                	exec.it	#79     !
    18e0:	8630                	exec.it	#83     !
    18e2:	8a00                	exec.it	#68     !
    18e4:	18000513          	li	a0,384
    18e8:	f807e793          	ori	a5,a5,-128
    18ec:	8400                	exec.it	#2     !
    18ee:	8604                	exec.it	#74     !
    18f0:	8634                	exec.it	#91     !
    18f2:	07010a13          	addi	s4,sp,112
    18f6:	07f7f793          	andi	a5,a5,127
    18fa:	8e14                	exec.it	#79     !
    18fc:	8630                	exec.it	#83     !
    18fe:	0008b537          	lui	a0,0x8b
    1902:	3e050513          	addi	a0,a0,992 # 8b3e0 <int16xint8xint32_1_weights+0x1ef0>
    1906:	6f0070ef          	jal	ra,8ff6 <puts>
    190a:	65a9                	c.lui	a1,0xa
    190c:	0008b537          	lui	a0,0x8b
    1910:	0585                	c.addi	a1,1
    1912:	3e450513          	addi	a0,a0,996 # 8b3e4 <int16xint8xint32_1_weights+0x1ef4>
    1916:	8000                	exec.it	#0     !
    1918:	0008b537          	lui	a0,0x8b
    191c:	7e400593          	li	a1,2020
    1920:	3fc50513          	addi	a0,a0,1020 # 8b3fc <int16xint8xint32_1_weights+0x1f0c>
    1924:	8000                	exec.it	#0     !
    1926:	0008b5b7          	lui	a1,0x8b
    192a:	0008b537          	lui	a0,0x8b
    192e:	41458593          	addi	a1,a1,1044 # 8b414 <int16xint8xint32_1_weights+0x1f24>
    1932:	42050513          	addi	a0,a0,1056 # 8b420 <int16xint8xint32_1_weights+0x1f30>
    1936:	8000                	exec.it	#0     !
    1938:	8c9fe0ef          	jal	ra,200 <delay_ms.constprop.12>
    193c:	8a04                	exec.it	#76     !
    193e:	2366a50b          	lbugp	a0,45622 # 8ba36 <sys_clk+0x2>
    1942:	04010913          	addi	s2,sp,64
    1946:	047080ef          	jal	ra,a18c <__floatsidf>
    194a:	000807b7          	lui	a5,0x80
    194e:	00878793          	addi	a5,a5,8 # 80008 <_DATA_VMA_START+0x8>
    1952:	4390                	c.lw	a2,0(a5)
    1954:	43d4                	c.lw	a3,4(a5)
    1956:	152080ef          	jal	ra,9aa8 <__muldf3>
    195a:	79a080ef          	jal	ra,a0f4 <__fixunsdfsi>
    195e:	00aba023          	sw	a0,0(s7)
    1962:	8014                	exec.it	#9     !
    1964:	8000                	exec.it	#0     !
    1966:	0008b537          	lui	a0,0x8b
    196a:	44850513          	addi	a0,a0,1096 # 8b448 <int16xint8xint32_1_weights+0x1f58>
    196e:	8000                	exec.it	#0     !
    1970:	8014                	exec.it	#9     !
    1972:	8000                	exec.it	#0     !
    1974:	000ba583          	lw	a1,0(s7)
    1978:	0008b537          	lui	a0,0x8b
    197c:	48450513          	addi	a0,a0,1156 # 8b484 <int16xint8xint32_1_weights+0x1f94>
    1980:	8000                	exec.it	#0     !
    1982:	8014                	exec.it	#9     !
    1984:	8000                	exec.it	#0     !
    1986:	0008b537          	lui	a0,0x8b
    198a:	4a450513          	addi	a0,a0,1188 # 8b4a4 <int16xint8xint32_1_weights+0x1fb4>
    198e:	8000                	exec.it	#0     !
    1990:	4785                	c.li	a5,1
    1992:	c0be                	c.swsp	a5,64(sp)
    1994:	c6be                	c.swsp	a5,76(sp)
    1996:	cebe                	c.swsp	a5,92(sp)
    1998:	debe                	c.swsp	a5,124(sp)
    199a:	db3e                	c.swsp	a5,180(sp)
    199c:	dd3e                	c.swsp	a5,184(sp)
    199e:	c3be                	c.swsp	a5,196(sp)
    19a0:	c5be                	c.swsp	a5,200(sp)
    19a2:	8454                	exec.it	#43     !
    19a4:	d73e                	c.swsp	a5,172(sp)
    19a6:	8e30                	exec.it	#87     !
    19a8:	d93e                	c.swsp	a5,176(sp)
    19aa:	c9be                	c.swsp	a5,208(sp)
    19ac:	46a1                	c.li	a3,8
    19ae:	c2b6                	c.swsp	a3,68(sp)
    19b0:	2446978b          	addigp	a5,45636 # 8ba44 <basic_output_mult>
    19b4:	4689                	c.li	a3,2
    19b6:	4715                	c.li	a4,5
    19b8:	ccb6                	c.swsp	a3,88(sp)
    19ba:	dc3e                	c.swsp	a5,56(sp)
    19bc:	4691                	c.li	a3,4
    19be:	2486978b          	addigp	a5,45640 # 8ba48 <basic_output_shift>
    19c2:	0890                	c.addi4spn	a2,sp,80
    19c4:	85ca                	c.mv	a1,s2
    19c6:	c4ba                	c.swsp	a4,72(sp)
    19c8:	cab6                	c.swsp	a3,84(sp)
    19ca:	dcb6                	c.swsp	a3,120(sp)
    19cc:	daba                	c.swsp	a4,116(sp)
    19ce:	86d2                	c.mv	a3,s4
    19d0:	f8000713          	li	a4,-128
    19d4:	8522                	c.mv	a0,s0
    19d6:	c7ba                	c.swsp	a4,204(sp)
    19d8:	de3e                	c.swsp	a5,60(sp)
    19da:	c102                	c.swsp	zero,128(sp)
    19dc:	c302                	c.swsp	zero,132(sp)
    19de:	c502                	c.swsp	zero,136(sp)
    19e0:	c702                	c.swsp	zero,140(sp)
    19e2:	c902                	c.swsp	zero,144(sp)
    19e4:	df02                	c.swsp	zero,188(sp)
    19e6:	c182                	c.swsp	zero,192(sp)
    19e8:	8c08                	exec.it	#134     !
    19ea:	cc2a                	c.swsp	a0,24(sp)
    19ec:	8c04                	exec.it	#14     !
    19ee:	da02                	c.swsp	zero,52(sp)
    19f0:	d82a                	c.swsp	a0,48(sp)
    19f2:	8824                	exec.it	#28     !
    19f4:	8024                	exec.it	#24     !
    19f6:	8460                	exec.it	#50     !
    19f8:	8c24                	exec.it	#30     !
    19fa:	2406978b          	addigp	a5,45632 # 8ba40 <basic_biases>
    19fe:	c03e                	c.swsp	a5,0(sp)
    1a00:	8840                	exec.it	#36     !
    1a02:	24c6980b          	addigp	a6,45644 # 8ba4c <basic_weights>
    1a06:	089c                	c.addi4spn	a5,sp,80
    1a08:	821f970b          	addigp	a4,-2016 # 80020 <basic_input>
    1a0c:	86ca                	c.mv	a3,s2
    1a0e:	1830                	c.addi4spn	a2,sp,56
    1a10:	85a2                	c.mv	a1,s0
    1a12:	1808                	c.addi4spn	a0,sp,48
    1a14:	c426                	c.swsp	s1,8(sp)
    1a16:	c252                	c.swsp	s4,4(sp)
    1a18:	8018                	exec.it	#129     !
    1a1a:	8434                	exec.it	#27     !
    1a1c:	8854                	exec.it	#45     !
    1a1e:	8034                	exec.it	#25     !
    1a20:	8c2a                	c.mv	s8,a0
    1a22:	5542                	c.lwsp	a0,48(sp)
    1a24:	000bab83          	lw	s7,0(s7)
    1a28:	2a069a8b          	addigp	s5,45728 # 8baa0 <_DATA_VMA_END>
    1a2c:	c519                	c.beqz	a0,1a3a <main+0x22e>
    1a2e:	4362                	c.lwsp	t1,24(sp)
    1a30:	4581                	c.li	a1,0
    1a32:	861a                	c.mv	a2,t1
    1a34:	8410                	exec.it	#3     !
    1a36:	5542                	c.lwsp	a0,48(sp)
    1a38:	8c14                	exec.it	#15     !
    1a3a:	8014                	exec.it	#9     !
    1a3c:	8000                	exec.it	#0     !
    1a3e:	4651                	c.li	a2,20
    1a40:	849f958b          	addigp	a1,-1976 # 80048 <basic_output_ref>
    1a44:	8526                	c.mv	a0,s1
    1a46:	fe0ff0ef          	jal	ra,1226 <validate.lto_priv.19>
    1a4a:	00050ae3          	beqz	a0,225e <main+0xa52>
    1a4e:	0008b537          	lui	a0,0x8b
    1a52:	4cc50513          	addi	a0,a0,1228 # 8b4cc <int16xint8xint32_1_weights+0x1fdc>
    1a56:	8000                	exec.it	#0     !
    1a58:	8060                	exec.it	#48     !
    1a5a:	00081537          	lui	a0,0x81
    1a5e:	85da                	c.mv	a1,s6
    1a60:	8030                	exec.it	#17     !
    1a62:	8000                	exec.it	#0     !
    1a64:	00081537          	lui	a0,0x81
    1a68:	8c40                	exec.it	#38     !
    1a6a:	8c30                	exec.it	#23     !
    1a6c:	8000                	exec.it	#0     !
    1a6e:	8250                	exec.it	#97     !
    1a70:	8804                	exec.it	#12     !
    1a72:	8450                	exec.it	#35     !
    1a74:	8020                	exec.it	#16     !
    1a76:	8040                	exec.it	#32     !
    1a78:	8830                	exec.it	#21     !
    1a7a:	8430                	exec.it	#19     !
    1a7c:	862a                	c.mv	a2,a0
    1a7e:	00081537          	lui	a0,0x81
    1a82:	86ae                	c.mv	a3,a1
    1a84:	8820                	exec.it	#20     !
    1a86:	8000                	exec.it	#0     !
    1a88:	8010                	exec.it	#1     !
    1a8a:	85e2                	c.mv	a1,s8
    1a8c:	8c20                	exec.it	#22     !
    1a8e:	8000                	exec.it	#0     !
    1a90:	8660                	exec.it	#114     !
    1a92:	4581                	c.li	a1,0
    1a94:	8522                	c.mv	a0,s0
    1a96:	8410                	exec.it	#3     !
    1a98:	47a9                	c.li	a5,10
    1a9a:	c4be                	c.swsp	a5,72(sp)
    1a9c:	c2be                	c.swsp	a5,68(sp)
    1a9e:	4789                	c.li	a5,2
    1aa0:	c6be                	c.swsp	a5,76(sp)
    1aa2:	cebe                	c.swsp	a5,92(sp)
    1aa4:	debe                	c.swsp	a5,124(sp)
    1aa6:	cd3e                	c.swsp	a5,152(sp)
    1aa8:	cf3e                	c.swsp	a5,156(sp)
    1aaa:	8454                	exec.it	#43     !
    1aac:	c13e                	c.swsp	a5,128(sp)
    1aae:	8654                	exec.it	#107     !
    1ab0:	c33e                	c.swsp	a5,132(sp)
    1ab2:	fc300793          	li	a5,-61
    1ab6:	d13e                	c.swsp	a5,160(sp)
    1ab8:	06b00793          	li	a5,107
    1abc:	d33e                	c.swsp	a5,164(sp)
    1abe:	468d                	c.li	a3,3
    1ac0:	25c6978b          	addigp	a5,45660 # 8ba5c <conv_2x2_dilation_output_mult>
    1ac4:	ccb6                	c.swsp	a3,88(sp)
    1ac6:	cab6                	c.swsp	a3,84(sp)
    1ac8:	dc3e                	c.swsp	a5,56(sp)
    1aca:	4699                	c.li	a3,6
    1acc:	4705                	c.li	a4,1
    1ace:	2646978b          	addigp	a5,45668 # 8ba64 <conv_2x2_dilation_output_shift>
    1ad2:	0890                	c.addi4spn	a2,sp,80
    1ad4:	85ca                	c.mv	a1,s2
    1ad6:	dcb6                	c.swsp	a3,120(sp)
    1ad8:	dab6                	c.swsp	a3,116(sp)
    1ada:	8526                	c.mv	a0,s1
    1adc:	86d2                	c.mv	a3,s4
    1ade:	c0ba                	c.swsp	a4,64(sp)
    1ae0:	c53a                	c.swsp	a4,136(sp)
    1ae2:	c73a                	c.swsp	a4,140(sp)
    1ae4:	de3e                	c.swsp	a5,60(sp)
    1ae6:	c902                	c.swsp	zero,144(sp)
    1ae8:	cb02                	c.swsp	zero,148(sp)
    1aea:	8c08                	exec.it	#134     !
    1aec:	cc2a                	c.swsp	a0,24(sp)
    1aee:	8c04                	exec.it	#14     !
    1af0:	da02                	c.swsp	zero,52(sp)
    1af2:	d82a                	c.swsp	a0,48(sp)
    1af4:	8824                	exec.it	#28     !
    1af6:	8024                	exec.it	#24     !
    1af8:	8460                	exec.it	#50     !
    1afa:	8c24                	exec.it	#30     !
    1afc:	2546978b          	addigp	a5,45652 # 8ba54 <conv_2x2_dilation_biases>
    1b00:	c03e                	c.swsp	a5,0(sp)
    1b02:	8840                	exec.it	#36     !
    1b04:	96df980b          	addigp	a6,-1684 # 8016c <conv_2x2_dilation_weights>
    1b08:	089c                	c.addi4spn	a5,sp,80
    1b0a:	85df970b          	addigp	a4,-1956 # 8005c <conv_2x2_dilation_input>
    1b0e:	86ca                	c.mv	a3,s2
    1b10:	1830                	c.addi4spn	a2,sp,56
    1b12:	85a6                	c.mv	a1,s1
    1b14:	1808                	c.addi4spn	a0,sp,48
    1b16:	c422                	c.swsp	s0,8(sp)
    1b18:	c252                	c.swsp	s4,4(sp)
    1b1a:	8018                	exec.it	#129     !
    1b1c:	8434                	exec.it	#27     !
    1b1e:	8854                	exec.it	#45     !
    1b20:	8034                	exec.it	#25     !
    1b22:	8c2a                	c.mv	s8,a0
    1b24:	5542                	c.lwsp	a0,48(sp)
    1b26:	000aab83          	lw	s7,0(s5)
    1b2a:	c519                	c.beqz	a0,1b38 <main+0x32c>
    1b2c:	4362                	c.lwsp	t1,24(sp)
    1b2e:	4581                	c.li	a1,0
    1b30:	861a                	c.mv	a2,t1
    1b32:	8410                	exec.it	#3     !
    1b34:	5542                	c.lwsp	a0,48(sp)
    1b36:	8c14                	exec.it	#15     !
    1b38:	8014                	exec.it	#9     !
    1b3a:	8000                	exec.it	#0     !
    1b3c:	8660                	exec.it	#114     !
    1b3e:	925f958b          	addigp	a1,-1756 # 80124 <conv_2x2_dilation_output_ref>
    1b42:	8522                	c.mv	a0,s0
    1b44:	ee2ff0ef          	jal	ra,1226 <validate.lto_priv.19>
    1b48:	72050263          	beqz	a0,226c <main+0xa60>
    1b4c:	0008b537          	lui	a0,0x8b
    1b50:	53450513          	addi	a0,a0,1332 # 8b534 <int16xint8xint32_1_weights+0x2044>
    1b54:	8000                	exec.it	#0     !
    1b56:	8060                	exec.it	#48     !
    1b58:	00081537          	lui	a0,0x81
    1b5c:	85da                	c.mv	a1,s6
    1b5e:	8030                	exec.it	#17     !
    1b60:	8000                	exec.it	#0     !
    1b62:	00081537          	lui	a0,0x81
    1b66:	8c40                	exec.it	#38     !
    1b68:	8c30                	exec.it	#23     !
    1b6a:	8000                	exec.it	#0     !
    1b6c:	8250                	exec.it	#97     !
    1b6e:	8804                	exec.it	#12     !
    1b70:	8450                	exec.it	#35     !
    1b72:	8020                	exec.it	#16     !
    1b74:	8040                	exec.it	#32     !
    1b76:	8830                	exec.it	#21     !
    1b78:	8430                	exec.it	#19     !
    1b7a:	862a                	c.mv	a2,a0
    1b7c:	00081537          	lui	a0,0x81
    1b80:	86ae                	c.mv	a3,a1
    1b82:	8820                	exec.it	#20     !
    1b84:	8000                	exec.it	#0     !
    1b86:	8010                	exec.it	#1     !
    1b88:	85e2                	c.mv	a1,s8
    1b8a:	8c20                	exec.it	#22     !
    1b8c:	8000                	exec.it	#0     !
    1b8e:	993ff0ef          	jal	ra,1520 <conv_3x3_dilation_5x5_input_riscv_convolve_s8>
    1b92:	8014                	exec.it	#9     !
    1b94:	8000                	exec.it	#0     !
    1b96:	0008b537          	lui	a0,0x8b
    1b9a:	5b450513          	addi	a0,a0,1460 # 8b5b4 <int16xint8xint32_1_weights+0x20c4>
    1b9e:	8000                	exec.it	#0     !
    1ba0:	05000613          	li	a2,80
    1ba4:	4581                	c.li	a1,0
    1ba6:	8522                	c.mv	a0,s0
    1ba8:	8410                	exec.it	#3     !
    1baa:	1790178b          	addigp	a5,2424 # 81178 <int16xint8_bias>
    1bae:	d43e                	c.swsp	a5,40(sp)
    1bb0:	4785                	c.li	a5,1
    1bb2:	c0be                	c.swsp	a5,64(sp)
    1bb4:	c53e                	c.swsp	a5,136(sp)
    1bb6:	c73e                	c.swsp	a5,140(sp)
    1bb8:	cd3e                	c.swsp	a5,152(sp)
    1bba:	cf3e                	c.swsp	a5,156(sp)
    1bbc:	77e1                	c.lui	a5,0xffff8
    1bbe:	d13e                	c.swsp	a5,160(sp)
    1bc0:	67a1                	c.lui	a5,0x8
    1bc2:	4729                	c.li	a4,10
    1bc4:	17fd                	c.addi	a5,-1
    1bc6:	c4ba                	c.swsp	a4,72(sp)
    1bc8:	d33e                	c.swsp	a5,164(sp)
    1bca:	4721                	c.li	a4,8
    1bcc:	c2ba                	c.swsp	a4,68(sp)
    1bce:	4689                	c.li	a3,2
    1bd0:	03700713          	li	a4,55
    1bd4:	3118178b          	addigp	a5,19216 # 85310 <int16xint8_output_multiplier>
    1bd8:	c6ba                	c.swsp	a4,76(sp)
    1bda:	dcb6                	c.swsp	a3,120(sp)
    1bdc:	dc3e                	c.swsp	a5,56(sp)
    1bde:	4725                	c.li	a4,9
    1be0:	4695                	c.li	a3,5
    1be2:	3218178b          	addigp	a5,19232 # 85320 <int16xint8_output_shift>
    1be6:	0890                	c.addi4spn	a2,sp,80
    1be8:	85ca                	c.mv	a1,s2
    1bea:	ccba                	c.swsp	a4,88(sp)
    1bec:	dab6                	c.swsp	a3,116(sp)
    1bee:	4711                	c.li	a4,4
    1bf0:	86d2                	c.mv	a3,s4
    1bf2:	8526                	c.mv	a0,s1
    1bf4:	caba                	c.swsp	a4,84(sp)
    1bf6:	deba                	c.swsp	a4,124(sp)
    1bf8:	de3e                	c.swsp	a5,60(sp)
    1bfa:	02010623          	sb	zero,44(sp)
    1bfe:	c902                	c.swsp	zero,144(sp)
    1c00:	cb02                	c.swsp	zero,148(sp)
    1c02:	c102                	c.swsp	zero,128(sp)
    1c04:	c302                	c.swsp	zero,132(sp)
    1c06:	8e64                	exec.it	#126     !
    1c08:	ce2a                	c.swsp	a0,28(sp)
    1c0a:	8c04                	exec.it	#14     !
    1c0c:	d82a                	c.swsp	a0,48(sp)
    1c0e:	8824                	exec.it	#28     !
    1c10:	8024                	exec.it	#24     !
    1c12:	b0002d73          	csrr	s10,mcycle
    1c16:	b0202c73          	csrr	s8,minstret
    1c1a:	1034                	c.addi4spn	a3,sp,40
    1c1c:	c036                	c.swsp	a3,0(sp)
    1c1e:	8840                	exec.it	#36     !
    1c20:	3318180b          	addigp	a6,19248 # 85330 <int16xint8_weights>
    1c24:	089c                	c.addi4spn	a5,sp,80
    1c26:	0614170b          	addigp	a4,10336 # 83060 <int16xint8_input>
    1c2a:	86ca                	c.mv	a3,s2
    1c2c:	1830                	c.addi4spn	a2,sp,56
    1c2e:	85a6                	c.mv	a1,s1
    1c30:	1808                	c.addi4spn	a0,sp,48
    1c32:	c422                	c.swsp	s0,8(sp)
    1c34:	c252                	c.swsp	s4,4(sp)
    1c36:	8264                	exec.it	#120     !
    1c38:	8daa                	c.mv	s11,a0
    1c3a:	8434                	exec.it	#27     !
    1c3c:	8c24                	exec.it	#30     !
    1c3e:	8034                	exec.it	#25     !
    1c40:	8c74                	exec.it	#63     !
    1c42:	8baa                	c.mv	s7,a0
    1c44:	5542                	c.lwsp	a0,48(sp)
    1c46:	cc36                	c.swsp	a3,24(sp)
    1c48:	c519                	c.beqz	a0,1c56 <main+0x44a>
    1c4a:	4372                	c.lwsp	t1,28(sp)
    1c4c:	4581                	c.li	a1,0
    1c4e:	861a                	c.mv	a2,t1
    1c50:	8410                	exec.it	#3     !
    1c52:	5542                	c.lwsp	a0,48(sp)
    1c54:	8c14                	exec.it	#15     !
    1c56:	8014                	exec.it	#9     !
    1c58:	8000                	exec.it	#0     !
    1c5a:	620d9063          	bnez	s11,227a <main+0xa6e>
    1c5e:	02800613          	li	a2,40
    1c62:	2c18158b          	addigp	a1,19136 # 852c0 <int16xint8_output>
    1c66:	8522                	c.mv	a0,s0
    1c68:	e0aff0ef          	jal	ra,1272 <validate_s16.lto_priv.21>
    1c6c:	60050763          	beqz	a0,227a <main+0xa6e>
    1c70:	0008b537          	lui	a0,0x8b
    1c74:	5dc50513          	addi	a0,a0,1500 # 8b5dc <int16xint8xint32_1_weights+0x20ec>
    1c78:	8000                	exec.it	#0     !
    1c7a:	41ab0b33          	sub	s6,s6,s10
    1c7e:	00081537          	lui	a0,0x81
    1c82:	85da                	c.mv	a1,s6
    1c84:	8030                	exec.it	#17     !
    1c86:	8000                	exec.it	#0     !
    1c88:	00081537          	lui	a0,0x81
    1c8c:	418c85b3          	sub	a1,s9,s8
    1c90:	8c30                	exec.it	#23     !
    1c92:	8000                	exec.it	#0     !
    1c94:	46e2                	c.lwsp	a3,24(sp)
    1c96:	8450                	exec.it	#35     !
    1c98:	8804                	exec.it	#12     !
    1c9a:	8204                	exec.it	#72     !
    1c9c:	8020                	exec.it	#16     !
    1c9e:	8040                	exec.it	#32     !
    1ca0:	8830                	exec.it	#21     !
    1ca2:	8430                	exec.it	#19     !
    1ca4:	862a                	c.mv	a2,a0
    1ca6:	00081537          	lui	a0,0x81
    1caa:	86ae                	c.mv	a3,a1
    1cac:	8820                	exec.it	#20     !
    1cae:	8000                	exec.it	#0     !
    1cb0:	8010                	exec.it	#1     !
    1cb2:	85de                	c.mv	a1,s7
    1cb4:	8c20                	exec.it	#22     !
    1cb6:	8000                	exec.it	#0     !
    1cb8:	98fff0ef          	jal	ra,1646 <int16xint8_dilation_1_riscv_convolve_s16>
    1cbc:	05000613          	li	a2,80
    1cc0:	4581                	c.li	a1,0
    1cc2:	8522                	c.mv	a0,s0
    1cc4:	8410                	exec.it	#3     !
    1cc6:	4785                	c.li	a5,1
    1cc8:	02f10623          	sb	a5,44(sp)
    1ccc:	4785                	c.li	a5,1
    1cce:	c0be                	c.swsp	a5,64(sp)
    1cd0:	c53e                	c.swsp	a5,136(sp)
    1cd2:	c73e                	c.swsp	a5,140(sp)
    1cd4:	cd3e                	c.swsp	a5,152(sp)
    1cd6:	cf3e                	c.swsp	a5,156(sp)
    1cd8:	77e1                	c.lui	a5,0xffff8
    1cda:	d13e                	c.swsp	a5,160(sp)
    1cdc:	67a1                	c.lui	a5,0x8
    1cde:	4729                	c.li	a4,10
    1ce0:	17fd                	c.addi	a5,-1
    1ce2:	c4ba                	c.swsp	a4,72(sp)
    1ce4:	d33e                	c.swsp	a5,164(sp)
    1ce6:	4721                	c.li	a4,8
    1ce8:	c2ba                	c.swsp	a4,68(sp)
    1cea:	4689                	c.li	a3,2
    1cec:	03700713          	li	a4,55
    1cf0:	4d10978b          	addigp	a5,36048 # 894d0 <int16xint8xint32_1_output_multiplier>
    1cf4:	c6ba                	c.swsp	a4,76(sp)
    1cf6:	dcb6                	c.swsp	a3,120(sp)
    1cf8:	dc3e                	c.swsp	a5,56(sp)
    1cfa:	4725                	c.li	a4,9
    1cfc:	4695                	c.li	a3,5
    1cfe:	4e10978b          	addigp	a5,36064 # 894e0 <int16xint8xint32_1_output_shift>
    1d02:	0890                	c.addi4spn	a2,sp,80
    1d04:	85ca                	c.mv	a1,s2
    1d06:	ccba                	c.swsp	a4,88(sp)
    1d08:	dab6                	c.swsp	a3,116(sp)
    1d0a:	4711                	c.li	a4,4
    1d0c:	86d2                	c.mv	a3,s4
    1d0e:	8526                	c.mv	a0,s1
    1d10:	caba                	c.swsp	a4,84(sp)
    1d12:	deba                	c.swsp	a4,124(sp)
    1d14:	de3e                	c.swsp	a5,60(sp)
    1d16:	d402                	c.swsp	zero,40(sp)
    1d18:	c902                	c.swsp	zero,144(sp)
    1d1a:	cb02                	c.swsp	zero,148(sp)
    1d1c:	c102                	c.swsp	zero,128(sp)
    1d1e:	c302                	c.swsp	zero,132(sp)
    1d20:	8e64                	exec.it	#126     !
    1d22:	cc2a                	c.swsp	a0,24(sp)
    1d24:	8c04                	exec.it	#14     !
    1d26:	d82a                	c.swsp	a0,48(sp)
    1d28:	8824                	exec.it	#28     !
    1d2a:	8024                	exec.it	#24     !
    1d2c:	8460                	exec.it	#50     !
    1d2e:	8c24                	exec.it	#30     !
    1d30:	1034                	c.addi4spn	a3,sp,40
    1d32:	c036                	c.swsp	a3,0(sp)
    1d34:	8840                	exec.it	#36     !
    1d36:	4f10980b          	addigp	a6,36080 # 894f0 <int16xint8xint32_1_weights>
    1d3a:	089c                	c.addi4spn	a5,sp,80
    1d3c:	221c170b          	addigp	a4,27168 # 87220 <int16xint8xint32_1_input>
    1d40:	86ca                	c.mv	a3,s2
    1d42:	1830                	c.addi4spn	a2,sp,56
    1d44:	85a6                	c.mv	a1,s1
    1d46:	1808                	c.addi4spn	a0,sp,48
    1d48:	c422                	c.swsp	s0,8(sp)
    1d4a:	c252                	c.swsp	s4,4(sp)
    1d4c:	8264                	exec.it	#120     !
    1d4e:	8434                	exec.it	#27     !
    1d50:	8854                	exec.it	#45     !
    1d52:	8034                	exec.it	#25     !
    1d54:	8c2a                	c.mv	s8,a0
    1d56:	5542                	c.lwsp	a0,48(sp)
    1d58:	000aab83          	lw	s7,0(s5)
    1d5c:	c519                	c.beqz	a0,1d6a <main+0x55e>
    1d5e:	4362                	c.lwsp	t1,24(sp)
    1d60:	4581                	c.li	a1,0
    1d62:	861a                	c.mv	a2,t1
    1d64:	8410                	exec.it	#3     !
    1d66:	5542                	c.lwsp	a0,48(sp)
    1d68:	8c14                	exec.it	#15     !
    1d6a:	8014                	exec.it	#9     !
    1d6c:	8000                	exec.it	#0     !
    1d6e:	02800613          	li	a2,40
    1d72:	4810958b          	addigp	a1,35968 # 89480 <int16xint8xint32_1_output>
    1d76:	8522                	c.mv	a0,s0
    1d78:	cfaff0ef          	jal	ra,1272 <validate_s16.lto_priv.21>
    1d7c:	50050663          	beqz	a0,2288 <main+0xa7c>
    1d80:	0008b537          	lui	a0,0x8b
    1d84:	64450513          	addi	a0,a0,1604 # 8b644 <int16xint8xint32_1_weights+0x2154>
    1d88:	8000                	exec.it	#0     !
    1d8a:	8060                	exec.it	#48     !
    1d8c:	00081537          	lui	a0,0x81
    1d90:	85da                	c.mv	a1,s6
    1d92:	8030                	exec.it	#17     !
    1d94:	8000                	exec.it	#0     !
    1d96:	00081537          	lui	a0,0x81
    1d9a:	8c40                	exec.it	#38     !
    1d9c:	8c30                	exec.it	#23     !
    1d9e:	8000                	exec.it	#0     !
    1da0:	8250                	exec.it	#97     !
    1da2:	8804                	exec.it	#12     !
    1da4:	8450                	exec.it	#35     !
    1da6:	8020                	exec.it	#16     !
    1da8:	8040                	exec.it	#32     !
    1daa:	8830                	exec.it	#21     !
    1dac:	8430                	exec.it	#19     !
    1dae:	862a                	c.mv	a2,a0
    1db0:	00081537          	lui	a0,0x81
    1db4:	86ae                	c.mv	a3,a1
    1db6:	8820                	exec.it	#20     !
    1db8:	8000                	exec.it	#0     !
    1dba:	8010                	exec.it	#1     !
    1dbc:	85e2                	c.mv	a1,s8
    1dbe:	8c20                	exec.it	#22     !
    1dc0:	8000                	exec.it	#0     !
    1dc2:	8014                	exec.it	#9     !
    1dc4:	8000                	exec.it	#0     !
    1dc6:	0008b537          	lui	a0,0x8b
    1dca:	6dc50513          	addi	a0,a0,1756 # 8b6dc <int16xint8xint32_1_weights+0x21ec>
    1dce:	8000                	exec.it	#0     !
    1dd0:	05100613          	li	a2,81
    1dd4:	4581                	c.li	a1,0
    1dd6:	8522                	c.mv	a0,s0
    1dd8:	8410                	exec.it	#3     !
    1dda:	45a5                	c.li	a1,9
    1ddc:	bddf950b          	addigp	a0,-1060 # 803dc <depthwise_2_biases>
    1de0:	d082                	c.swsp	zero,96(sp)
    1de2:	d282                	c.swsp	zero,100(sp)
    1de4:	d482                	c.swsp	zero,104(sp)
    1de6:	d682                	c.swsp	zero,108(sp)
    1de8:	8244                	exec.it	#104     !
    1dea:	4799                	c.li	a5,6
    1dec:	c4be                	c.swsp	a5,72(sp)
    1dee:	4795                	c.li	a5,5
    1df0:	c2be                	c.swsp	a5,68(sp)
    1df2:	478d                	c.li	a5,3
    1df4:	c6be                	c.swsp	a5,76(sp)
    1df6:	ccbe                	c.swsp	a5,88(sp)
    1df8:	dcbe                	c.swsp	a5,120(sp)
    1dfa:	dabe                	c.swsp	a5,116(sp)
    1dfc:	c53e                	c.swsp	a5,136(sp)
    1dfe:	8454                	exec.it	#43     !
    1e00:	c13e                	c.swsp	a5,128(sp)
    1e02:	47bd                	c.li	a5,15
    1e04:	c33e                	c.swsp	a5,132(sp)
    1e06:	fb700793          	li	a5,-73
    1e0a:	d33e                	c.swsp	a5,164(sp)
    1e0c:	8e30                	exec.it	#87     !
    1e0e:	d53e                	c.swsp	a5,168(sp)
    1e10:	4691                	c.li	a3,4
    1e12:	cab6                	c.swsp	a3,84(sp)
    1e14:	c5df978b          	addigp	a5,-932 # 8045c <depthwise_2_output_mult>
    1e18:	46a5                	c.li	a3,9
    1e1a:	deb6                	c.swsp	a3,124(sp)
    1e1c:	dc3e                	c.swsp	a5,56(sp)
    1e1e:	4689                	c.li	a3,2
    1e20:	4705                	c.li	a4,1
    1e22:	cd5f978b          	addigp	a5,-812 # 804d4 <depthwise_2_output_shift>
    1e26:	0890                	c.addi4spn	a2,sp,80
    1e28:	85ca                	c.mv	a1,s2
    1e2a:	c736                	c.swsp	a3,140(sp)
    1e2c:	c936                	c.swsp	a3,144(sp)
    1e2e:	8b2a                	c.mv	s6,a0
    1e30:	86d2                	c.mv	a3,s4
    1e32:	8526                	c.mv	a0,s1
    1e34:	c0ba                	c.swsp	a4,64(sp)
    1e36:	cd3a                	c.swsp	a4,152(sp)
    1e38:	cf3a                	c.swsp	a4,156(sp)
    1e3a:	d13a                	c.swsp	a4,160(sp)
    1e3c:	de3e                	c.swsp	a5,60(sp)
    1e3e:	cb02                	c.swsp	zero,148(sp)
    1e40:	8a60                	exec.it	#116     !
    1e42:	8baa                	c.mv	s7,a0
    1e44:	8c04                	exec.it	#14     !
    1e46:	da5e                	c.swsp	s7,52(sp)
    1e48:	d82a                	c.swsp	a0,48(sp)
    1e4a:	8824                	exec.it	#28     !
    1e4c:	8024                	exec.it	#24     !
    1e4e:	8460                	exec.it	#50     !
    1e50:	8c24                	exec.it	#30     !
    1e52:	8840                	exec.it	#36     !
    1e54:	cf9f980b          	addigp	a6,-776 # 804f8 <depthwise_2_weights>
    1e58:	089c                	c.addi4spn	a5,sp,80
    1e5a:	c01f970b          	addigp	a4,-1024 # 80400 <depthwise_2_input>
    1e5e:	86ca                	c.mv	a3,s2
    1e60:	1830                	c.addi4spn	a2,sp,56
    1e62:	85a6                	c.mv	a1,s1
    1e64:	1808                	c.addi4spn	a0,sp,48
    1e66:	c422                	c.swsp	s0,8(sp)
    1e68:	c252                	c.swsp	s4,4(sp)
    1e6a:	c05a                	c.swsp	s6,0(sp)
    1e6c:	8670                	exec.it	#115     !
    1e6e:	8434                	exec.it	#27     !
    1e70:	8854                	exec.it	#45     !
    1e72:	8034                	exec.it	#25     !
    1e74:	8c74                	exec.it	#63     !
    1e76:	8c2a                	c.mv	s8,a0
    1e78:	5542                	c.lwsp	a0,48(sp)
    1e7a:	cc36                	c.swsp	a3,24(sp)
    1e7c:	c511                	c.beqz	a0,1e88 <main+0x67c>
    1e7e:	865e                	c.mv	a2,s7
    1e80:	4581                	c.li	a1,0
    1e82:	8410                	exec.it	#3     !
    1e84:	5542                	c.lwsp	a0,48(sp)
    1e86:	8c14                	exec.it	#15     !
    1e88:	8014                	exec.it	#9     !
    1e8a:	8000                	exec.it	#0     !
    1e8c:	05100613          	li	a2,81
    1e90:	c81f958b          	addigp	a1,-896 # 80480 <depthwise_2_output_ref>
    1e94:	8522                	c.mv	a0,s0
    1e96:	8054                	exec.it	#41     !
    1e98:	3e050e63          	beqz	a0,2294 <main+0xa88>
    1e9c:	0008b537          	lui	a0,0x8b
    1ea0:	70c50513          	addi	a0,a0,1804 # 8b70c <int16xint8xint32_1_weights+0x221c>
    1ea4:	8000                	exec.it	#0     !
    1ea6:	8060                	exec.it	#48     !
    1ea8:	00081537          	lui	a0,0x81
    1eac:	85da                	c.mv	a1,s6
    1eae:	8030                	exec.it	#17     !
    1eb0:	8000                	exec.it	#0     !
    1eb2:	00081537          	lui	a0,0x81
    1eb6:	8c40                	exec.it	#38     !
    1eb8:	8c30                	exec.it	#23     !
    1eba:	8000                	exec.it	#0     !
    1ebc:	46e2                	c.lwsp	a3,24(sp)
    1ebe:	8450                	exec.it	#35     !
    1ec0:	8804                	exec.it	#12     !
    1ec2:	8204                	exec.it	#72     !
    1ec4:	8020                	exec.it	#16     !
    1ec6:	8040                	exec.it	#32     !
    1ec8:	8830                	exec.it	#21     !
    1eca:	8430                	exec.it	#19     !
    1ecc:	862a                	c.mv	a2,a0
    1ece:	00081537          	lui	a0,0x81
    1ed2:	86ae                	c.mv	a3,a1
    1ed4:	8820                	exec.it	#20     !
    1ed6:	8000                	exec.it	#0     !
    1ed8:	8010                	exec.it	#1     !
    1eda:	85e2                	c.mv	a1,s8
    1edc:	8c20                	exec.it	#22     !
    1ede:	8000                	exec.it	#0     !
    1ee0:	02400613          	li	a2,36
    1ee4:	4581                	c.li	a1,0
    1ee6:	8526                	c.mv	a0,s1
    1ee8:	8410                	exec.it	#3     !
    1eea:	458d                	c.li	a1,3
    1eec:	dd9f950b          	addigp	a0,-552 # 805d8 <depthwise_mult_batches_biases>
    1ef0:	d082                	c.swsp	zero,96(sp)
    1ef2:	d282                	c.swsp	zero,100(sp)
    1ef4:	d482                	c.swsp	zero,104(sp)
    1ef6:	d682                	c.swsp	zero,108(sp)
    1ef8:	8244                	exec.it	#104     !
    1efa:	4789                	c.li	a5,2
    1efc:	c0be                	c.swsp	a5,64(sp)
    1efe:	ccbe                	c.swsp	a5,88(sp)
    1f00:	dcbe                	c.swsp	a5,120(sp)
    1f02:	dd3e                	c.swsp	a5,184(sp)
    1f04:	df3e                	c.swsp	a5,188(sp)
    1f06:	8454                	exec.it	#43     !
    1f08:	d73e                	c.swsp	a5,172(sp)
    1f0a:	fd700793          	li	a5,-41
    1f0e:	d93e                	c.swsp	a5,176(sp)
    1f10:	8654                	exec.it	#107     !
    1f12:	c9be                	c.swsp	a5,208(sp)
    1f14:	8e30                	exec.it	#87     !
    1f16:	cbbe                	c.swsp	a5,212(sp)
    1f18:	4695                	c.li	a3,5
    1f1a:	e41f978b          	addigp	a5,-448 # 80640 <depthwise_mult_batches_output_mult>
    1f1e:	470d                	c.li	a4,3
    1f20:	c2b6                	c.swsp	a3,68(sp)
    1f22:	dc3e                	c.swsp	a5,56(sp)
    1f24:	4691                	c.li	a3,4
    1f26:	e71f978b          	addigp	a5,-400 # 80670 <depthwise_mult_batches_output_shift>
    1f2a:	0890                	c.addi4spn	a2,sp,80
    1f2c:	85ca                	c.mv	a1,s2
    1f2e:	c4ba                	c.swsp	a4,72(sp)
    1f30:	c6ba                	c.swsp	a4,76(sp)
    1f32:	cab6                	c.swsp	a3,84(sp)
    1f34:	daba                	c.swsp	a4,116(sp)
    1f36:	86d2                	c.mv	a3,s4
    1f38:	deba                	c.swsp	a4,124(sp)
    1f3a:	8b2a                	c.mv	s6,a0
    1f3c:	4705                	c.li	a4,1
    1f3e:	8522                	c.mv	a0,s0
    1f40:	c3ba                	c.swsp	a4,196(sp)
    1f42:	c5ba                	c.swsp	a4,200(sp)
    1f44:	c7ba                	c.swsp	a4,204(sp)
    1f46:	db3a                	c.swsp	a4,180(sp)
    1f48:	de3e                	c.swsp	a5,60(sp)
    1f4a:	c182                	c.swsp	zero,192(sp)
    1f4c:	8a60                	exec.it	#116     !
    1f4e:	8baa                	c.mv	s7,a0
    1f50:	8c04                	exec.it	#14     !
    1f52:	da5e                	c.swsp	s7,52(sp)
    1f54:	d82a                	c.swsp	a0,48(sp)
    1f56:	8824                	exec.it	#28     !
    1f58:	8024                	exec.it	#24     !
    1f5a:	8460                	exec.it	#50     !
    1f5c:	8c24                	exec.it	#30     !
    1f5e:	8840                	exec.it	#36     !
    1f60:	e7df980b          	addigp	a6,-388 # 8067c <depthwise_mult_batches_weights>
    1f64:	089c                	c.addi4spn	a5,sp,80
    1f66:	de5f970b          	addigp	a4,-540 # 805e4 <depthwise_mult_batches_input>
    1f6a:	86ca                	c.mv	a3,s2
    1f6c:	1830                	c.addi4spn	a2,sp,56
    1f6e:	85a2                	c.mv	a1,s0
    1f70:	1808                	c.addi4spn	a0,sp,48
    1f72:	c426                	c.swsp	s1,8(sp)
    1f74:	c252                	c.swsp	s4,4(sp)
    1f76:	c05a                	c.swsp	s6,0(sp)
    1f78:	8670                	exec.it	#115     !
    1f7a:	8434                	exec.it	#27     !
    1f7c:	8854                	exec.it	#45     !
    1f7e:	8034                	exec.it	#25     !
    1f80:	8c74                	exec.it	#63     !
    1f82:	8c2a                	c.mv	s8,a0
    1f84:	5542                	c.lwsp	a0,48(sp)
    1f86:	cc36                	c.swsp	a3,24(sp)
    1f88:	c511                	c.beqz	a0,1f94 <main+0x788>
    1f8a:	865e                	c.mv	a2,s7
    1f8c:	4581                	c.li	a1,0
    1f8e:	8410                	exec.it	#3     !
    1f90:	5542                	c.lwsp	a0,48(sp)
    1f92:	8c14                	exec.it	#15     !
    1f94:	8014                	exec.it	#9     !
    1f96:	8000                	exec.it	#0     !
    1f98:	02400613          	li	a2,36
    1f9c:	e4df958b          	addigp	a1,-436 # 8064c <depthwise_mult_batches_output_ref>
    1fa0:	8526                	c.mv	a0,s1
    1fa2:	8054                	exec.it	#41     !
    1fa4:	2e050e63          	beqz	a0,22a0 <main+0xa94>
    1fa8:	0008b537          	lui	a0,0x8b
    1fac:	78c50513          	addi	a0,a0,1932 # 8b78c <int16xint8xint32_1_weights+0x229c>
    1fb0:	8000                	exec.it	#0     !
    1fb2:	8060                	exec.it	#48     !
    1fb4:	00081537          	lui	a0,0x81
    1fb8:	85da                	c.mv	a1,s6
    1fba:	8030                	exec.it	#17     !
    1fbc:	8000                	exec.it	#0     !
    1fbe:	00081537          	lui	a0,0x81
    1fc2:	8c40                	exec.it	#38     !
    1fc4:	8c30                	exec.it	#23     !
    1fc6:	8000                	exec.it	#0     !
    1fc8:	46e2                	c.lwsp	a3,24(sp)
    1fca:	8450                	exec.it	#35     !
    1fcc:	8804                	exec.it	#12     !
    1fce:	8204                	exec.it	#72     !
    1fd0:	8020                	exec.it	#16     !
    1fd2:	8040                	exec.it	#32     !
    1fd4:	8830                	exec.it	#21     !
    1fd6:	8430                	exec.it	#19     !
    1fd8:	862a                	c.mv	a2,a0
    1fda:	00081537          	lui	a0,0x81
    1fde:	86ae                	c.mv	a3,a1
    1fe0:	8820                	exec.it	#20     !
    1fe2:	8000                	exec.it	#0     !
    1fe4:	8010                	exec.it	#1     !
    1fe6:	85e2                	c.mv	a1,s8
    1fe8:	8c20                	exec.it	#22     !
    1fea:	8000                	exec.it	#0     !
    1fec:	03100613          	li	a2,49
    1ff0:	4581                	c.li	a1,0
    1ff2:	8522                	c.mv	a0,s0
    1ff4:	8410                	exec.it	#3     !
    1ff6:	4585                	c.li	a1,1
    1ff8:	2846950b          	addigp	a0,45700 # 8ba84 <depthwise_dilation_biases>
    1ffc:	d082                	c.swsp	zero,96(sp)
    1ffe:	d282                	c.swsp	zero,100(sp)
    2000:	d482                	c.swsp	zero,104(sp)
    2002:	d682                	c.swsp	zero,108(sp)
    2004:	8244                	exec.it	#104     !
    2006:	4785                	c.li	a5,1
    2008:	c0be                	c.swsp	a5,64(sp)
    200a:	c6be                	c.swsp	a5,76(sp)
    200c:	debe                	c.swsp	a5,124(sp)
    200e:	c73e                	c.swsp	a5,140(sp)
    2010:	c93e                	c.swsp	a5,144(sp)
    2012:	c53e                	c.swsp	a5,136(sp)
    2014:	8454                	exec.it	#43     !
    2016:	c13e                	c.swsp	a5,128(sp)
    2018:	f9500793          	li	a5,-107
    201c:	c33e                	c.swsp	a5,132(sp)
    201e:	fba00793          	li	a5,-70
    2022:	d33e                	c.swsp	a5,164(sp)
    2024:	8e30                	exec.it	#87     !
    2026:	d53e                	c.swsp	a5,168(sp)
    2028:	2886978b          	addigp	a5,45704 # 8ba88 <depthwise_dilation_output_mult>
    202c:	471d                	c.li	a4,7
    202e:	468d                	c.li	a3,3
    2030:	dc3e                	c.swsp	a5,56(sp)
    2032:	28c6978b          	addigp	a5,45708 # 8ba8c <depthwise_dilation_output_shift>
    2036:	0890                	c.addi4spn	a2,sp,80
    2038:	85ca                	c.mv	a1,s2
    203a:	c4ba                	c.swsp	a4,72(sp)
    203c:	c2ba                	c.swsp	a4,68(sp)
    203e:	ccb6                	c.swsp	a3,88(sp)
    2040:	cab6                	c.swsp	a3,84(sp)
    2042:	dcba                	c.swsp	a4,120(sp)
    2044:	86d2                	c.mv	a3,s4
    2046:	daba                	c.swsp	a4,116(sp)
    2048:	8b2a                	c.mv	s6,a0
    204a:	4709                	c.li	a4,2
    204c:	8526                	c.mv	a0,s1
    204e:	cb3a                	c.swsp	a4,148(sp)
    2050:	cd3a                	c.swsp	a4,152(sp)
    2052:	cf3a                	c.swsp	a4,156(sp)
    2054:	d13a                	c.swsp	a4,160(sp)
    2056:	de3e                	c.swsp	a5,60(sp)
    2058:	8a60                	exec.it	#116     !
    205a:	8baa                	c.mv	s7,a0
    205c:	8c04                	exec.it	#14     !
    205e:	da5e                	c.swsp	s7,52(sp)
    2060:	d82a                	c.swsp	a0,48(sp)
    2062:	8824                	exec.it	#28     !
    2064:	8024                	exec.it	#24     !
    2066:	8460                	exec.it	#50     !
    2068:	8c24                	exec.it	#30     !
    206a:	8840                	exec.it	#36     !
    206c:	dcdf980b          	addigp	a6,-564 # 805cc <depthwise_dilation_weights>
    2070:	089c                	c.addi4spn	a5,sp,80
    2072:	d65f970b          	addigp	a4,-668 # 80564 <depthwise_dilation_input>
    2076:	86ca                	c.mv	a3,s2
    2078:	1830                	c.addi4spn	a2,sp,56
    207a:	85a6                	c.mv	a1,s1
    207c:	1808                	c.addi4spn	a0,sp,48
    207e:	c422                	c.swsp	s0,8(sp)
    2080:	c252                	c.swsp	s4,4(sp)
    2082:	c05a                	c.swsp	s6,0(sp)
    2084:	8670                	exec.it	#115     !
    2086:	8434                	exec.it	#27     !
    2088:	8854                	exec.it	#45     !
    208a:	8034                	exec.it	#25     !
    208c:	8c74                	exec.it	#63     !
    208e:	8c2a                	c.mv	s8,a0
    2090:	5542                	c.lwsp	a0,48(sp)
    2092:	cc36                	c.swsp	a3,24(sp)
    2094:	c511                	c.beqz	a0,20a0 <main+0x894>
    2096:	865e                	c.mv	a2,s7
    2098:	4581                	c.li	a1,0
    209a:	8410                	exec.it	#3     !
    209c:	5542                	c.lwsp	a0,48(sp)
    209e:	8c14                	exec.it	#15     !
    20a0:	8014                	exec.it	#9     !
    20a2:	8000                	exec.it	#0     !
    20a4:	03100613          	li	a2,49
    20a8:	d99f958b          	addigp	a1,-616 # 80598 <depthwise_dilation_output_ref>
    20ac:	8522                	c.mv	a0,s0
    20ae:	8054                	exec.it	#41     !
    20b0:	1e050d63          	beqz	a0,22aa <main+0xa9e>
    20b4:	0008c537          	lui	a0,0x8c
    20b8:	82450513          	addi	a0,a0,-2012 # 8b824 <int16xint8xint32_1_weights+0x2334>
    20bc:	8000                	exec.it	#0     !
    20be:	8060                	exec.it	#48     !
    20c0:	00081537          	lui	a0,0x81
    20c4:	85da                	c.mv	a1,s6
    20c6:	8030                	exec.it	#17     !
    20c8:	8000                	exec.it	#0     !
    20ca:	00081537          	lui	a0,0x81
    20ce:	8c40                	exec.it	#38     !
    20d0:	8c30                	exec.it	#23     !
    20d2:	8000                	exec.it	#0     !
    20d4:	46e2                	c.lwsp	a3,24(sp)
    20d6:	8450                	exec.it	#35     !
    20d8:	8804                	exec.it	#12     !
    20da:	8204                	exec.it	#72     !
    20dc:	8020                	exec.it	#16     !
    20de:	8040                	exec.it	#32     !
    20e0:	8830                	exec.it	#21     !
    20e2:	8430                	exec.it	#19     !
    20e4:	862a                	c.mv	a2,a0
    20e6:	00081537          	lui	a0,0x81
    20ea:	86ae                	c.mv	a3,a1
    20ec:	8820                	exec.it	#20     !
    20ee:	8000                	exec.it	#0     !
    20f0:	8010                	exec.it	#1     !
    20f2:	85e2                	c.mv	a1,s8
    20f4:	8c20                	exec.it	#22     !
    20f6:	8000                	exec.it	#0     !
    20f8:	8014                	exec.it	#9     !
    20fa:	8000                	exec.it	#0     !
    20fc:	0008c537          	lui	a0,0x8c
    2100:	8b450513          	addi	a0,a0,-1868 # 8b8b4 <int16xint8xint32_1_weights+0x23c4>
    2104:	8000                	exec.it	#0     !
    2106:	aeaff0ef          	jal	ra,13f0 <dw_int16xint8_riscv_depthwise_conv_s16>
    210a:	4785                	c.li	a5,1
    210c:	c8be                	c.swsp	a5,80(sp)
    210e:	c53e                	c.swsp	a5,136(sp)
    2110:	c33e                	c.swsp	a5,132(sp)
    2112:	c5be                	c.swsp	a5,200(sp)
    2114:	c7be                	c.swsp	a5,204(sp)
    2116:	77e1                	c.lui	a5,0xffff8
    2118:	0785                	c.addi	a5,1
    211a:	c9be                	c.swsp	a5,208(sp)
    211c:	67a1                	c.lui	a5,0x8
    211e:	17fd                	c.addi	a5,-1
    2120:	cbbe                	c.swsp	a5,212(sp)
    2122:	4695                	c.li	a3,5
    2124:	7100178b          	addigp	a5,1808 # 80f10 <dw_int16xint8_mult4_output_mult>
    2128:	cab6                	c.swsp	a3,84(sp)
    212a:	460d                	c.li	a2,3
    212c:	4689                	c.li	a3,2
    212e:	dc3e                	c.swsp	a5,56(sp)
    2130:	45a1                	c.li	a1,8
    2132:	4711                	c.li	a4,4
    2134:	7400178b          	addigp	a5,1856 # 80f40 <dw_int16xint8_mult4_output_shift>
    2138:	ceb6                	c.swsp	a3,92(sp)
    213a:	d4b2                	c.swsp	a2,104(sp)
    213c:	c72e                	c.swsp	a1,140(sp)
    213e:	dd32                	c.swsp	a2,184(sp)
    2140:	088c                	c.addi4spn	a1,sp,80
    2142:	1090                	c.addi4spn	a2,sp,96
    2144:	df36                	c.swsp	a3,188(sp)
    2146:	8522                	c.mv	a0,s0
    2148:	86a6                	c.mv	a3,s1
    214a:	ccba                	c.swsp	a4,88(sp)
    214c:	d2ba                	c.swsp	a4,100(sp)
    214e:	db3a                	c.swsp	a4,180(sp)
    2150:	de3e                	c.swsp	a5,60(sp)
    2152:	c082                	c.swsp	zero,64(sp)
    2154:	c282                	c.swsp	zero,68(sp)
    2156:	c482                	c.swsp	zero,72(sp)
    2158:	c682                	c.swsp	zero,76(sp)
    215a:	d882                	c.swsp	zero,112(sp)
    215c:	da82                	c.swsp	zero,116(sp)
    215e:	dc82                	c.swsp	zero,120(sp)
    2160:	de82                	c.swsp	zero,124(sp)
    2162:	c182                	c.swsp	zero,192(sp)
    2164:	c382                	c.swsp	zero,196(sp)
    2166:	d702                	c.swsp	zero,172(sp)
    2168:	d902                	c.swsp	zero,176(sp)
    216a:	24e9                	c.jal	2434 <riscv_depthwise_conv_wrapper_s16_get_buffer_size>
    216c:	8b2a                	c.mv	s6,a0
    216e:	8c04                	exec.it	#14     !
    2170:	da5a                	c.swsp	s6,52(sp)
    2172:	d82a                	c.swsp	a0,48(sp)
    2174:	8824                	exec.it	#28     !
    2176:	8024                	exec.it	#24     !
    2178:	b0002c73          	csrr	s8,mcycle
    217c:	b0202bf3          	csrr	s7,minstret
    2180:	6800178b          	addigp	a5,1664 # 80e80 <dw_int16xint8_mult4_biases>
    2184:	c03e                	c.swsp	a5,0(sp)
    2186:	88d2                	c.mv	a7,s4
    2188:	7600180b          	addigp	a6,1888 # 80f60 <dw_int16xint8_mult4_weights>
    218c:	109c                	c.addi4spn	a5,sp,96
    218e:	6c00170b          	addigp	a4,1728 # 80ec0 <dw_int16xint8_mult4_input>
    2192:	0894                	c.addi4spn	a3,sp,80
    2194:	1830                	c.addi4spn	a2,sp,56
    2196:	85a2                	c.mv	a1,s0
    2198:	1808                	c.addi4spn	a0,sp,48
    219a:	c44a                	c.swsp	s2,8(sp)
    219c:	c226                	c.swsp	s1,4(sp)
    219e:	8a54                	exec.it	#109     !
    21a0:	8c70                	exec.it	#55     !
    21a2:	8c24                	exec.it	#30     !
    21a4:	8034                	exec.it	#25     !
    21a6:	8a2a                	c.mv	s4,a0
    21a8:	5542                	c.lwsp	a0,48(sp)
    21aa:	000aa483          	lw	s1,0(s5)
    21ae:	c511                	c.beqz	a0,21ba <main+0x9ae>
    21b0:	865a                	c.mv	a2,s6
    21b2:	4581                	c.li	a1,0
    21b4:	8410                	exec.it	#3     !
    21b6:	5542                	c.lwsp	a0,48(sp)
    21b8:	8c14                	exec.it	#15     !
    21ba:	8014                	exec.it	#9     !
    21bc:	8000                	exec.it	#0     !
    21be:	4621                	c.li	a2,8
    21c0:	7300158b          	addigp	a1,1840 # 80f30 <dw_int16xint8_mult4_output_ref>
    21c4:	854a                	c.mv	a0,s2
    21c6:	8224                	exec.it	#88     !
    21c8:	0e050763          	beqz	a0,22b6 <main+0xaaa>
    21cc:	0008c537          	lui	a0,0x8c
    21d0:	8e850513          	addi	a0,a0,-1816 # 8b8e8 <int16xint8xint32_1_weights+0x23f8>
    21d4:	8000                	exec.it	#0     !
    21d6:	41840433          	sub	s0,s0,s8
    21da:	00081537          	lui	a0,0x81
    21de:	85a2                	c.mv	a1,s0
    21e0:	8030                	exec.it	#17     !
    21e2:	8000                	exec.it	#0     !
    21e4:	00081537          	lui	a0,0x81
    21e8:	417c85b3          	sub	a1,s9,s7
    21ec:	8c30                	exec.it	#23     !
    21ee:	8000                	exec.it	#0     !
    21f0:	8064                	exec.it	#56     !
    21f2:	8804                	exec.it	#12     !
    21f4:	8464                	exec.it	#58     !
    21f6:	8020                	exec.it	#16     !
    21f8:	8040                	exec.it	#32     !
    21fa:	8830                	exec.it	#21     !
    21fc:	8430                	exec.it	#19     !
    21fe:	862a                	c.mv	a2,a0
    2200:	00081537          	lui	a0,0x81
    2204:	86ae                	c.mv	a3,a1
    2206:	8820                	exec.it	#20     !
    2208:	8000                	exec.it	#0     !
    220a:	8010                	exec.it	#1     !
    220c:	85d2                	c.mv	a1,s4
    220e:	8c20                	exec.it	#22     !
    2210:	8000                	exec.it	#0     !
    2212:	8a8ff0ef          	jal	ra,12ba <dw_int16xint8_dilation_riscv_depthwise_conv_s16>
    2216:	0008c537          	lui	a0,0x8c
    221a:	97850513          	addi	a0,a0,-1672 # 8b978 <int16xint8xint32_1_weights+0x2488>
    221e:	8000                	exec.it	#0     !
    2220:	fe1fd0ef          	jal	ra,200 <delay_ms.constprop.12>
    2224:	4501                	c.li	a0,0
    2226:	6111                	c.addi16sp	sp,256
    2228:	8a74                	exec.it	#125     !
    222a:	6579                	c.lui	a0,0x1e
    222c:	8c44                	exec.it	#46     !
    222e:	8440                	exec.it	#34     !
    2230:	6579                	c.lui	a0,0x1e
    2232:	8a30                	exec.it	#85     !
    2234:	0007e537          	lui	a0,0x7e
    2238:	8c44                	exec.it	#46     !
    223a:	8440                	exec.it	#34     !
    223c:	0007e537          	lui	a0,0x7e
    2240:	8a30                	exec.it	#85     !
    2242:	000fe537          	lui	a0,0xfe
    2246:	8c44                	exec.it	#46     !
    2248:	8440                	exec.it	#34     !
    224a:	000fe537          	lui	a0,0xfe
    224e:	8a30                	exec.it	#85     !
    2250:	001fe537          	lui	a0,0x1fe
    2254:	8c44                	exec.it	#46     !
    2256:	8440                	exec.it	#34     !
    2258:	001fe537          	lui	a0,0x1fe
    225c:	8a30                	exec.it	#85     !
    225e:	0008b537          	lui	a0,0x8b
    2262:	50050513          	addi	a0,a0,1280 # 8b500 <int16xint8xint32_1_weights+0x2010>
    2266:	8000                	exec.it	#0     !
    2268:	829ff06f          	j	1a90 <main+0x284>
    226c:	0008b537          	lui	a0,0x8b
    2270:	57450513          	addi	a0,a0,1396 # 8b574 <int16xint8xint32_1_weights+0x2084>
    2274:	8000                	exec.it	#0     !
    2276:	919ff06f          	j	1b8e <main+0x382>
    227a:	0008b537          	lui	a0,0x8b
    227e:	61050513          	addi	a0,a0,1552 # 8b610 <int16xint8xint32_1_weights+0x2120>
    2282:	8000                	exec.it	#0     !
    2284:	a35ff06f          	j	1cb8 <main+0x4ac>
    2288:	0008b537          	lui	a0,0x8b
    228c:	69050513          	addi	a0,a0,1680 # 8b690 <int16xint8xint32_1_weights+0x21a0>
    2290:	8000                	exec.it	#0     !
    2292:	be05                	c.j	1dc2 <main+0x5b6>
    2294:	0008b537          	lui	a0,0x8b
    2298:	74c50513          	addi	a0,a0,1868 # 8b74c <int16xint8xint32_1_weights+0x225c>
    229c:	8000                	exec.it	#0     !
    229e:	b189                	c.j	1ee0 <main+0x6d4>
    22a0:	8800                	exec.it	#4     !
    22a2:	7d850513          	addi	a0,a0,2008
    22a6:	8000                	exec.it	#0     !
    22a8:	b391                	c.j	1fec <main+0x7e0>
    22aa:	0008c537          	lui	a0,0x8c
    22ae:	86c50513          	addi	a0,a0,-1940 # 8b86c <int16xint8xint32_1_weights+0x237c>
    22b2:	8000                	exec.it	#0     !
    22b4:	b591                	c.j	20f8 <main+0x8ec>
    22b6:	8050                	exec.it	#33     !
    22b8:	93050513          	addi	a0,a0,-1744
    22bc:	8000                	exec.it	#0     !
    22be:	bf91                	c.j	2212 <main+0xa06>

000022c0 <default_irq_entry>:
    22c0:	a001                	c.j	22c0 <default_irq_entry>

000022c2 <trap_handler>:
    22c2:	a001                	c.j	22c2 <trap_handler>
    22c4:	0001                	c.nop
	...

000022c8 <riscv_convolve_wrapper_s16>:
    22c8:	a275                	c.j	2474 <riscv_convolve_s16>
	...

000022cc <riscv_convolve_wrapper_s8>:
    22cc:	7179                	c.addi16sp	sp,-48
    22ce:	0105a283          	lw	t0,16(a1)
    22d2:	d422                	c.swsp	s0,40(sp)
    22d4:	d226                	c.swsp	s1,36(sp)
    22d6:	d04a                	c.swsp	s2,32(sp)
    22d8:	ce4e                	c.swsp	s3,28(sp)
    22da:	cc52                	c.swsp	s4,24(sp)
    22dc:	d606                	c.swsp	ra,44(sp)
    22de:	ca56                	c.swsp	s5,20(sp)
    22e0:	c85a                	c.swsp	s6,16(sp)
    22e2:	5942                	c.lwsp	s2,48(sp)
    22e4:	59d2                	c.lwsp	s3,52(sp)
    22e6:	5a62                	c.lwsp	s4,56(sp)
    22e8:	832e                	c.mv	t1,a1
    22ea:	83aa                	c.mv	t2,a0
    22ec:	8432                	c.mv	s0,a2
    22ee:	8e36                	c.mv	t3,a3
    22f0:	84ba                	c.mv	s1,a4
    22f2:	8ebe                	c.mv	t4,a5
    22f4:	8f42                	c.mv	t5,a6
    22f6:	8fc6                	c.mv	t6,a7
    22f8:	00029663          	bnez	t0,2304 <riscv_convolve_wrapper_s8+0x38>
    22fc:	0145a283          	lw	t0,20(a1)
    2300:	04028863          	beqz	t0,2350 <riscv_convolve_wrapper_s8+0x84>
    2304:	004e2783          	lw	a5,4(t3)
    2308:	00100713          	li	a4,1
    230c:	00e79a63          	bne	a5,a4,2320 <riscv_convolve_wrapper_s8+0x54>
    2310:	01832703          	lw	a4,24(t1)
    2314:	00f71663          	bne	a4,a5,2320 <riscv_convolve_wrapper_s8+0x54>
    2318:	004ea783          	lw	a5,4(t4)
    231c:	06e78263          	beq	a5,a4,2380 <riscv_convolve_wrapper_s8+0xb4>
    2320:	8726                	c.mv	a4,s1
    2322:	8622                	c.mv	a2,s0
    2324:	88fe                	c.mv	a7,t6
    2326:	887a                	c.mv	a6,t5
    2328:	87f6                	c.mv	a5,t4
    232a:	86f2                	c.mv	a3,t3
    232c:	851e                	c.mv	a0,t2
    232e:	859a                	c.mv	a1,t1
    2330:	c652                	c.swsp	s4,12(sp)
    2332:	c44e                	c.swsp	s3,8(sp)
    2334:	c04a                	c.swsp	s2,0(sp)
    2336:	c202                	c.swsp	zero,4(sp)
    2338:	145000ef          	jal	ra,2c7c <riscv_convolve_s8>
    233c:	50b2                	c.lwsp	ra,44(sp)
    233e:	5422                	c.lwsp	s0,40(sp)
    2340:	5492                	c.lwsp	s1,36(sp)
    2342:	5902                	c.lwsp	s2,32(sp)
    2344:	49f2                	c.lwsp	s3,28(sp)
    2346:	4a62                	c.lwsp	s4,24(sp)
    2348:	4ad2                	c.lwsp	s5,20(sp)
    234a:	4b42                	c.lwsp	s6,16(sp)
    234c:	6145                	c.addi16sp	sp,48
    234e:	8082                	c.jr	ra
    2350:	0087a283          	lw	t0,8(a5) # 8008 <riscv_depthwise_conv_3x3_s8+0x1470>
    2354:	00100a93          	li	s5,1
    2358:	fb5296e3          	bne	t0,s5,2304 <riscv_convolve_wrapper_s8+0x38>
    235c:	0047aa83          	lw	s5,4(a5)
    2360:	fa5a92e3          	bne	s5,t0,2304 <riscv_convolve_wrapper_s8+0x38>
    2364:	0185a283          	lw	t0,24(a1)
    2368:	fb529ce3          	bne	t0,s5,2320 <riscv_convolve_wrapper_s8+0x54>
    236c:	01c5aa83          	lw	s5,28(a1)
    2370:	045a8a63          	beq	s5,t0,23c4 <riscv_convolve_wrapper_s8+0xf8>
    2374:	004e2703          	lw	a4,4(t3)
    2378:	00100793          	li	a5,1
    237c:	faf712e3          	bne	a4,a5,2320 <riscv_convolve_wrapper_s8+0x54>
    2380:	00ce2703          	lw	a4,12(t3)
    2384:	00832783          	lw	a5,8(t1)
    2388:	02f707b3          	mul	a5,a4,a5
    238c:	8b8d                	c.andi	a5,3
    238e:	fbc9                	c.bnez	a5,2320 <riscv_convolve_wrapper_s8+0x54>
    2390:	00cea783          	lw	a5,12(t4)
    2394:	f8f716e3          	bne	a4,a5,2320 <riscv_convolve_wrapper_s8+0x54>
    2398:	8622                	c.mv	a2,s0
    239a:	5422                	c.lwsp	s0,40(sp)
    239c:	dc52                	c.swsp	s4,56(sp)
    239e:	da4e                	c.swsp	s3,52(sp)
    23a0:	d84a                	c.swsp	s2,48(sp)
    23a2:	50b2                	c.lwsp	ra,44(sp)
    23a4:	5902                	c.lwsp	s2,32(sp)
    23a6:	49f2                	c.lwsp	s3,28(sp)
    23a8:	4a62                	c.lwsp	s4,24(sp)
    23aa:	4ad2                	c.lwsp	s5,20(sp)
    23ac:	4b42                	c.lwsp	s6,16(sp)
    23ae:	8726                	c.mv	a4,s1
    23b0:	5492                	c.lwsp	s1,36(sp)
    23b2:	88fe                	c.mv	a7,t6
    23b4:	887a                	c.mv	a6,t5
    23b6:	87f6                	c.mv	a5,t4
    23b8:	86f2                	c.mv	a3,t3
    23ba:	859a                	c.mv	a1,t1
    23bc:	851e                	c.mv	a0,t2
    23be:	6145                	c.addi16sp	sp,48
    23c0:	68c0206f          	j	4a4c <riscv_convolve_1_x_n_s8>
    23c4:	00c7a283          	lw	t0,12(a5)
    23c8:	00c6ab03          	lw	s6,12(a3) # 1000c <_RAMCODE_VMA_END+0x58f0>
    23cc:	fa5b14e3          	bne	s6,t0,2374 <riscv_convolve_wrapper_s8+0xa8>
    23d0:	0085a283          	lw	t0,8(a1)
    23d4:	01529663          	bne	t0,s5,23e0 <riscv_convolve_wrapper_s8+0x114>
    23d8:	00c5aa83          	lw	s5,12(a1)
    23dc:	025a8863          	beq	s5,t0,240c <riscv_convolve_wrapper_s8+0x140>
    23e0:	8622                	c.mv	a2,s0
    23e2:	5422                	c.lwsp	s0,40(sp)
    23e4:	dc52                	c.swsp	s4,56(sp)
    23e6:	da4e                	c.swsp	s3,52(sp)
    23e8:	d84a                	c.swsp	s2,48(sp)
    23ea:	50b2                	c.lwsp	ra,44(sp)
    23ec:	5902                	c.lwsp	s2,32(sp)
    23ee:	49f2                	c.lwsp	s3,28(sp)
    23f0:	4a62                	c.lwsp	s4,24(sp)
    23f2:	4ad2                	c.lwsp	s5,20(sp)
    23f4:	4b42                	c.lwsp	s6,16(sp)
    23f6:	8726                	c.mv	a4,s1
    23f8:	5492                	c.lwsp	s1,36(sp)
    23fa:	88fe                	c.mv	a7,t6
    23fc:	887a                	c.mv	a6,t5
    23fe:	87f6                	c.mv	a5,t4
    2400:	86f2                	c.mv	a3,t3
    2402:	859a                	c.mv	a1,t1
    2404:	851e                	c.mv	a0,t2
    2406:	6145                	c.addi16sp	sp,48
    2408:	3b40206f          	j	47bc <riscv_convolve_1x1_s8>
    240c:	5422                	c.lwsp	s0,40(sp)
    240e:	50b2                	c.lwsp	ra,44(sp)
    2410:	5492                	c.lwsp	s1,36(sp)
    2412:	5902                	c.lwsp	s2,32(sp)
    2414:	49f2                	c.lwsp	s3,28(sp)
    2416:	4a62                	c.lwsp	s4,24(sp)
    2418:	4ad2                	c.lwsp	s5,20(sp)
    241a:	4b42                	c.lwsp	s6,16(sp)
    241c:	6145                	c.addi16sp	sp,48
    241e:	ab39                	c.j	293c <riscv_convolve_1x1_s8_fast>

00002420 <riscv_depthwise_conv_fast_s16_get_buffer_size>:
    2420:	4548                	c.lw	a0,12(a0)
    2422:	4598                	c.lw	a4,8(a1)
    2424:	41dc                	c.lw	a5,4(a1)
    2426:	02e50533          	mul	a0,a0,a4
    242a:	02f50533          	mul	a0,a0,a5
    242e:	0506                	c.slli	a0,0x1
    2430:	8082                	c.jr	ra
	...

00002434 <riscv_depthwise_conv_wrapper_s16_get_buffer_size>:
    2434:	4518                	c.lw	a4,8(a0)
    2436:	4685                	c.li	a3,1
    2438:	87aa                	c.mv	a5,a0
    243a:	4501                	c.li	a0,0
    243c:	00d70463          	beq	a4,a3,2444 <riscv_depthwise_conv_wrapper_s16_get_buffer_size+0x10>
    2440:	00008067          	ret
    2444:	4fd4                	c.lw	a3,28(a5)
    2446:	4501                	c.li	a0,0
    2448:	fee69ce3          	bne	a3,a4,2440 <riscv_depthwise_conv_wrapper_s16_get_buffer_size+0xc>
    244c:	539c                	c.lw	a5,32(a5)
    244e:	fed799e3          	bne	a5,a3,2440 <riscv_depthwise_conv_wrapper_s16_get_buffer_size+0xc>
    2452:	461c                	c.lw	a5,8(a2)
    2454:	4258                	c.lw	a4,4(a2)
    2456:	1ff00693          	li	a3,511
    245a:	02e78633          	mul	a2,a5,a4
    245e:	fec6c1e3          	blt	a3,a2,2440 <riscv_depthwise_conv_wrapper_s16_get_buffer_size+0xc>
    2462:	45d4                	c.lw	a3,12(a1)
    2464:	02d787b3          	mul	a5,a5,a3
    2468:	02e787b3          	mul	a5,a5,a4
    246c:	00179513          	slli	a0,a5,0x1
    2470:	8082                	c.jr	ra
	...

00002474 <riscv_convolve_s16>:
    2474:	4108                	c.lw	a0,0(a0)
    2476:	7111                	c.addi16sp	sp,-256
    2478:	dda2                	c.swsp	s0,248(sp)
    247a:	d0aa                	c.swsp	a0,96(sp)
    247c:	842a                	c.mv	s0,a0
    247e:	df86                	c.swsp	ra,252(sp)
    2480:	dba6                	c.swsp	s1,244(sp)
    2482:	d9ca                	c.swsp	s2,240(sp)
    2484:	d7ce                	c.swsp	s3,236(sp)
    2486:	d5d2                	c.swsp	s4,232(sp)
    2488:	d3d6                	c.swsp	s5,228(sp)
    248a:	d1da                	c.swsp	s6,224(sp)
    248c:	cfde                	c.swsp	s7,220(sp)
    248e:	cde2                	c.swsp	s8,216(sp)
    2490:	cbe6                	c.swsp	s9,212(sp)
    2492:	c9ea                	c.swsp	s10,208(sp)
    2494:	c7ee                	c.swsp	s11,204(sp)
    2496:	10412503          	lw	a0,260(sp)
    249a:	48040563          	beqz	s0,2924 <riscv_convolve_s16+0x4b0>
    249e:	43c4                	c.lw	s1,4(a5)
    24a0:	46c0                	c.lw	s0,12(a3)
    24a2:	0087ac03          	lw	s8,8(a5)
    24a6:	029407b3          	mul	a5,s0,s1
    24aa:	ce26                	c.swsp	s1,28(sp)
    24ac:	4684                	c.lw	s1,8(a3)
    24ae:	038787b3          	mul	a5,a5,s8
    24b2:	0006ad83          	lw	s11,0(a3)
    24b6:	0185ac83          	lw	s9,24(a1)
    24ba:	d6be                	c.swsp	a5,108(sp)
    24bc:	42dc                	c.lw	a5,4(a3)
    24be:	0145ad03          	lw	s10,20(a1)
    24c2:	dc3e                	c.swsp	a5,56(sp)
    24c4:	451c                	c.lw	a5,8(a0)
    24c6:	d626                	c.swsp	s1,44(sp)
    24c8:	c6be                	c.swsp	a5,76(sp)
    24ca:	415c                	c.lw	a5,4(a0)
    24cc:	d4be                	c.swsp	a5,104(sp)
    24ce:	455c                	c.lw	a5,12(a0)
    24d0:	d2be                	c.swsp	a5,100(sp)
    24d2:	4ddc                	c.lw	a5,28(a1)
    24d4:	d03e                	c.swsp	a5,32(sp)
    24d6:	499c                	c.lw	a5,16(a1)
    24d8:	c53e                	c.swsp	a5,136(sp)
    24da:	459c                	c.lw	a5,8(a1)
    24dc:	c8be                	c.swsp	a5,80(sp)
    24de:	45dc                	c.lw	a5,12(a1)
    24e0:	c73e                	c.swsp	a5,140(sp)
    24e2:	519c                	c.lw	a5,32(a1)
    24e4:	d8be                	c.swsp	a5,112(sp)
    24e6:	51dc                	c.lw	a5,36(a1)
    24e8:	dabe                	c.swsp	a5,116(sp)
    24ea:	421c                	c.lw	a5,0(a2)
    24ec:	dcbe                	c.swsp	a5,120(sp)
    24ee:	425c                	c.lw	a5,4(a2)
    24f0:	debe                	c.swsp	a5,124(sp)
    24f2:	19b05363          	blez	s11,2678 <riscv_convolve_s16+0x204>
    24f6:	4636                	c.lwsp	a2,76(sp)
    24f8:	853a                	c.mv	a0,a4
    24fa:	5726                	c.lwsp	a4,104(sp)
    24fc:	46ba                	c.lwsp	a3,140(sp)
    24fe:	02c70733          	mul	a4,a4,a2
    2502:	5602                	c.lwsp	a2,32(sp)
    2504:	029407b3          	mul	a5,s0,s1
    2508:	02d486b3          	mul	a3,s1,a3
    250c:	02960633          	mul	a2,a2,s1
    2510:	03a485b3          	mul	a1,s1,s10
    2514:	54e2                	c.lwsp	s1,56(sp)
    2516:	c342                	c.swsp	a6,132(sp)
    2518:	02978833          	mul	a6,a5,s1
    251c:	87ba                	c.mv	a5,a4
    251e:	5716                	c.lwsp	a4,100(sp)
    2520:	028686b3          	mul	a3,a3,s0
    2524:	02e788b3          	mul	a7,a5,a4
    2528:	47c6                	c.lwsp	a5,80(sp)
    252a:	472a                	c.lwsp	a4,136(sp)
    252c:	02f40333          	mul	t1,s0,a5
    2530:	40b007b3          	neg	a5,a1
    2534:	8f99                	c.sub	a5,a4
    2536:	02860633          	mul	a2,a2,s0
    253a:	03940e33          	mul	t3,s0,s9
    253e:	872a                	c.mv	a4,a0
    2540:	0406                	c.slli	s0,0x1
    2542:	c487977f          	maddr32	a4,a5,s0
    2546:	028c07b3          	mul	a5,s8,s0
    254a:	001e1b93          	slli	s7,t3,0x1
    254e:	8f6e                	c.mv	t5,s11
    2550:	d43e                	c.swsp	a5,40(sp)
    2552:	00181793          	slli	a5,a6,0x1
    2556:	cf3e                	c.swsp	a5,156(sp)
    2558:	00189793          	slli	a5,a7,0x1
    255c:	d53e                	c.swsp	a5,168(sp)
    255e:	00169793          	slli	a5,a3,0x1
    2562:	d73e                	c.swsp	a5,172(sp)
    2564:	00131793          	slli	a5,t1,0x1
    2568:	cabe                	c.swsp	a5,84(sp)
    256a:	00161793          	slli	a5,a2,0x1
    256e:	d23e                	c.swsp	a5,36(sp)
    2570:	8fea                	c.mv	t6,s10
    2572:	4781                	c.li	a5,0
    2574:	56a6                	c.lwsp	a3,104(sp)
    2576:	0ed05563          	blez	a3,2660 <riscv_convolve_s16+0x1ec>
    257a:	10812503          	lw	a0,264(sp)
    257e:	5d06                	c.lwsp	s10,96(sp)
    2580:	41f00db3          	neg	s11,t6
    2584:	4681                	c.li	a3,0
    2586:	c13a                	c.swsp	a4,128(sp)
    2588:	cd02                	c.swsp	zero,152(sp)
    258a:	ccaa                	c.swsp	a0,88(sp)
    258c:	d97a                	c.swsp	t5,176(sp)
    258e:	db7e                	c.swsp	t6,180(sp)
    2590:	dd3e                	c.swsp	a5,184(sp)
    2592:	df3a                	c.swsp	a4,188(sp)
    2594:	47aa                	c.lwsp	a5,136(sp)
    2596:	430a                	c.lwsp	t1,128(sp)
    2598:	40f007b3          	neg	a5,a5
    259c:	d83e                	c.swsp	a5,48(sp)
    259e:	47b6                	c.lwsp	a5,76(sp)
    25a0:	00000e13          	li	t3,0
    25a4:	08f05a63          	blez	a5,2638 <riscv_convolve_s16+0x1c4>
    25a8:	47f2                	c.lwsp	a5,28(sp)
    25aa:	8a6e                	c.mv	s4,s11
    25ac:	8b1a                	c.mv	s6,t1
    25ae:	4a81                	c.li	s5,0
    25b0:	06f05663          	blez	a5,261c <riscv_convolve_s16+0x1a8>
    25b4:	c4ee                	c.swsp	s11,72(sp)
    25b6:	8dea                	c.mv	s11,s10
    25b8:	8d56                	c.mv	s10,s5
    25ba:	8ad2                	c.mv	s5,s4
    25bc:	de1a                	c.swsp	t1,60(sp)
    25be:	c0b6                	c.swsp	a3,64(sp)
    25c0:	05c12223          	sw	t3,68(sp)
    25c4:	03805e63          	blez	s8,2600 <riscv_convolve_s16+0x18c>
    25c8:	0c0ac863          	bltz	s5,2698 <riscv_convolve_s16+0x224>
    25cc:	57e2                	c.lwsp	a5,56(sp)
    25ce:	0afad763          	bge	s5,a5,267c <riscv_convolve_s16+0x208>
    25d2:	5942                	c.lwsp	s2,48(sp)
    25d4:	89da                	c.mv	s3,s6
    25d6:	8a6e                	c.mv	s4,s11
    25d8:	00000493          	li	s1,0
    25dc:	8552                	c.mv	a0,s4
    25de:	8622                	c.mv	a2,s0
    25e0:	4581                	c.li	a1,0
    25e2:	00094563          	bltz	s2,25ec <riscv_convolve_s16+0x178>
    25e6:	57b2                	c.lwsp	a5,44(sp)
    25e8:	0cf94663          	blt	s2,a5,26b4 <riscv_convolve_s16+0x240>
    25ec:	7f6060ef          	jal	ra,8de2 <memset>
    25f0:	0485                	c.addi	s1,1
    25f2:	9a22                	c.add	s4,s0
    25f4:	9966                	c.add	s2,s9
    25f6:	99de                	c.add	s3,s7
    25f8:	fe9c12e3          	bne	s8,s1,25dc <riscv_convolve_s16+0x168>
    25fc:	57a2                	c.lwsp	a5,40(sp)
    25fe:	9dbe                	c.add	s11,a5
    2600:	5792                	c.lwsp	a5,36(sp)
    2602:	0d05                	c.addi	s10,1
    2604:	9b3e                	c.add	s6,a5
    2606:	5782                	c.lwsp	a5,32(sp)
    2608:	9abe                	c.add	s5,a5
    260a:	47f2                	c.lwsp	a5,28(sp)
    260c:	fba79ce3          	bne	a5,s10,25c4 <riscv_convolve_s16+0x150>
    2610:	8d6e                	c.mv	s10,s11
    2612:	5372                	c.lwsp	t1,60(sp)
    2614:	4686                	c.lwsp	a3,64(sp)
    2616:	4e16                	c.lwsp	t3,68(sp)
    2618:	04812d83          	lw	s11,72(sp)
    261c:	0685                	c.addi	a3,1
    261e:	4789                	c.li	a5,2
    2620:	0af68063          	beq	a3,a5,26c0 <riscv_convolve_s16+0x24c>
    2624:	47d6                	c.lwsp	a5,84(sp)
    2626:	4746                	c.lwsp	a4,80(sp)
    2628:	933e                	c.add	t1,a5
    262a:	57c2                	c.lwsp	a5,48(sp)
    262c:	0e05                	c.addi	t3,1
    262e:	97ba                	c.add	a5,a4
    2630:	d83e                	c.swsp	a5,48(sp)
    2632:	47b6                	c.lwsp	a5,76(sp)
    2634:	f7c79ae3          	bne	a5,t3,25a8 <riscv_convolve_s16+0x134>
    2638:	47e6                	c.lwsp	a5,88(sp)
    263a:	c7e9                	c.beqz	a5,2704 <riscv_convolve_s16+0x290>
    263c:	470a                	c.lwsp	a4,128(sp)
    263e:	563a                	c.lwsp	a2,172(sp)
    2640:	47ea                	c.lwsp	a5,152(sp)
    2642:	9732                	c.add	a4,a2
    2644:	c13a                	c.swsp	a4,128(sp)
    2646:	473a                	c.lwsp	a4,140(sp)
    2648:	0785                	c.addi	a5,1
    264a:	9dba                	c.add	s11,a4
    264c:	5726                	c.lwsp	a4,104(sp)
    264e:	cd3e                	c.swsp	a5,152(sp)
    2650:	f4f712e3          	bne	a4,a5,2594 <riscv_convolve_s16+0x120>
    2654:	4566                	c.lwsp	a0,88(sp)
    2656:	5f4a                	c.lwsp	t5,176(sp)
    2658:	5fda                	c.lwsp	t6,180(sp)
    265a:	57ea                	c.lwsp	a5,184(sp)
    265c:	577a                	c.lwsp	a4,188(sp)
    265e:	e6e9                	c.bnez	a3,2728 <riscv_convolve_s16+0x2b4>
    2660:	10812683          	lw	a3,264(sp)
    2664:	562a                	c.lwsp	a2,168(sp)
    2666:	0785                	c.addi	a5,1
    2668:	96b2                	c.add	a3,a2
    266a:	10d12423          	sw	a3,264(sp)
    266e:	46fa                	c.lwsp	a3,156(sp)
    2670:	00d70733          	add	a4,a4,a3
    2674:	f0ff10e3          	bne	t5,a5,2574 <riscv_convolve_s16+0x100>
    2678:	4501                	c.li	a0,0
    267a:	a079                	c.j	2708 <riscv_convolve_s16+0x294>
    267c:	8a6e                	c.mv	s4,s11
    267e:	4481                	c.li	s1,0
    2680:	8552                	c.mv	a0,s4
    2682:	0485                	c.addi	s1,1
    2684:	8622                	c.mv	a2,s0
    2686:	4581                	c.li	a1,0
    2688:	008a0a33          	add	s4,s4,s0
    268c:	756060ef          	jal	ra,8de2 <memset>
    2690:	fe9c18e3          	bne	s8,s1,2680 <riscv_convolve_s16+0x20c>
    2694:	f69ff06f          	j	25fc <riscv_convolve_s16+0x188>
    2698:	84ee                	c.mv	s1,s11
    269a:	4a01                	c.li	s4,0
    269c:	8526                	c.mv	a0,s1
    269e:	0a05                	c.addi	s4,1
    26a0:	8622                	c.mv	a2,s0
    26a2:	4581                	c.li	a1,0
    26a4:	008484b3          	add	s1,s1,s0
    26a8:	73a060ef          	jal	ra,8de2 <memset>
    26ac:	ff4c18e3          	bne	s8,s4,269c <riscv_convolve_s16+0x228>
    26b0:	f4dff06f          	j	25fc <riscv_convolve_s16+0x188>
    26b4:	013005b3          	add	a1,zero,s3
    26b8:	63c060ef          	jal	ra,8cf4 <memcpy>
    26bc:	f35ff06f          	j	25f0 <riscv_convolve_s16+0x17c>
    26c0:	44e6                	c.lwsp	s1,88(sp)
    26c2:	57c6                	c.lwsp	a5,112(sp)
    26c4:	c226                	c.swsp	s1,4(sp)
    26c6:	10012483          	lw	s1,256(sp)
    26ca:	5766                	c.lwsp	a4,120(sp)
    26cc:	c026                	c.swsp	s1,0(sp)
    26ce:	44d6                	c.lwsp	s1,84(sp)
    26d0:	56f6                	c.lwsp	a3,124(sp)
    26d2:	58b6                	c.lwsp	a7,108(sp)
    26d4:	5856                	c.lwsp	a6,116(sp)
    26d6:	5616                	c.lwsp	a2,100(sp)
    26d8:	5586                	c.lwsp	a1,96(sp)
    26da:	451a                	c.lwsp	a0,132(sp)
    26dc:	0e05                	c.addi	t3,1
    26de:	9326                	c.add	t1,s1
    26e0:	c0f2                	c.swsp	t3,64(sp)
    26e2:	de1a                	c.swsp	t1,60(sp)
    26e4:	274010ef          	jal	ra,3958 <riscv_nn_mat_mult_kernel_s16>
    26e8:	57c2                	c.lwsp	a5,48(sp)
    26ea:	4746                	c.lwsp	a4,80(sp)
    26ec:	4e06                	c.lwsp	t3,64(sp)
    26ee:	97ba                	c.add	a5,a4
    26f0:	d83e                	c.swsp	a5,48(sp)
    26f2:	47b6                	c.lwsp	a5,76(sp)
    26f4:	ccaa                	c.swsp	a0,88(sp)
    26f6:	5372                	c.lwsp	t1,60(sp)
    26f8:	5d06                	c.lwsp	s10,96(sp)
    26fa:	4681                	c.li	a3,0
    26fc:	ebc796e3          	bne	a5,t3,25a8 <riscv_convolve_s16+0x134>
    2700:	47e6                	c.lwsp	a5,88(sp)
    2702:	ff8d                	c.bnez	a5,263c <riscv_convolve_s16+0x1c8>
    2704:	ffe00513          	li	a0,-2
    2708:	50fe                	c.lwsp	ra,252(sp)
    270a:	546e                	c.lwsp	s0,248(sp)
    270c:	54de                	c.lwsp	s1,244(sp)
    270e:	594e                	c.lwsp	s2,240(sp)
    2710:	59be                	c.lwsp	s3,236(sp)
    2712:	5a2e                	c.lwsp	s4,232(sp)
    2714:	5a9e                	c.lwsp	s5,228(sp)
    2716:	5b0e                	c.lwsp	s6,224(sp)
    2718:	4bfe                	c.lwsp	s7,220(sp)
    271a:	4c6e                	c.lwsp	s8,216(sp)
    271c:	4cde                	c.lwsp	s9,212(sp)
    271e:	4d4e                	c.lwsp	s10,208(sp)
    2720:	4dbe                	c.lwsp	s11,204(sp)
    2722:	6111                	c.addi16sp	sp,256
    2724:	00008067          	ret
    2728:	10012683          	lw	a3,256(sp)
    272c:	0006a283          	lw	t0,0(a3)
    2730:	0046c683          	lbu	a3,4(a3)
    2734:	c0b6                	c.swsp	a3,64(sp)
    2736:	5696                	c.lwsp	a3,100(sp)
    2738:	f2d054e3          	blez	a3,2660 <riscv_convolve_s16+0x1ec>
    273c:	55b6                	c.lwsp	a1,108(sp)
    273e:	5b06                	c.lwsp	s6,96(sp)
    2740:	4025dd13          	srai	s10,a1,0x2
    2744:	0686                	c.slli	a3,0x1
    2746:	96aa                	c.add	a3,a0
    2748:	003d1613          	slli	a2,s10,0x3
    274c:	0035f313          	andi	t1,a1,3
    2750:	de36                	c.swsp	a3,60(sp)
    2752:	58f6                	c.lwsp	a7,124(sp)
    2754:	00cb06b3          	add	a3,s6,a2
    2758:	5866                	c.lwsp	a6,120(sp)
    275a:	459a                	c.lwsp	a1,132(sp)
    275c:	590a                	c.lwsp	s2,160(sp)
    275e:	599a                	c.lwsp	s3,164(sp)
    2760:	c4b6                	c.swsp	a3,72(sp)
    2762:	8e16                	c.mv	t3,t0
    2764:	002d1693          	slli	a3,s10,0x2
    2768:	8396                	c.mv	t2,t0
    276a:	4d85                	c.li	s11,1
    276c:	04d12223          	sw	a3,68(sp)
    2770:	1a0d0663          	beqz	s10,291c <riscv_convolve_s16+0x4a8>
    2774:	8eda                	c.mv	t4,s6
    2776:	cece                	c.swsp	s3,92(sp)
    2778:	8aea                	c.mv	s5,s10
    277a:	89da                	c.mv	s3,s6
    277c:	8a2e                	c.mv	s4,a1
    277e:	8b3a                	c.mv	s6,a4
    2780:	4681                	c.li	a3,0
    2782:	873e                	c.mv	a4,a5
    2784:	87de                	c.mv	a5,s7
    2786:	d822                	c.swsp	s0,48(sp)
    2788:	05212c23          	sw	s2,88(sp)
    278c:	000a2603          	lw	a2,0(s4)
    2790:	c932                	c.swsp	a2,144(sp)
    2792:	cb32                	c.swsp	a2,148(sp)
    2794:	444a                	c.lwsp	s0,144(sp)
    2796:	44da                	c.lwsp	s1,148(sp)
    2798:	0a11                	c.addi	s4,4
    279a:	de8404ff          	wexti	s1,s0,8
    279e:	ac9484ff          	sunpkd820	s1,s1
    27a2:	ac96067f          	sunpkd820	a2,a2
    27a6:	2ec49bff          	pktt16	s7,s1,a2
    27aa:	0ec4967f          	pkbb16	a2,s1,a2
    27ae:	000ea483          	lw	s1,0(t4)
    27b2:	489616ff          	kmada	a3,a2,s1
    27b6:	004e8613          	addi	a2,t4,4
    27ba:	4210                	c.lw	a2,0(a2)
    27bc:	0ea1                	c.addi	t4,8
    27be:	48cb96ff          	kmada	a3,s7,a2
    27c2:	1afd                	c.addi	s5,-1
    27c4:	fc0a94e3          	bnez	s5,278c <riscv_convolve_s16+0x318>
    27c8:	4616                	c.lwsp	a2,68(sp)
    27ca:	8bbe                	c.mv	s7,a5
    27cc:	95b2                	c.add	a1,a2
    27ce:	87ba                	c.mv	a5,a4
    27d0:	5442                	c.lwsp	s0,48(sp)
    27d2:	875a                	c.mv	a4,s6
    27d4:	4966                	c.lwsp	s2,88(sp)
    27d6:	8b4e                	c.mv	s6,s3
    27d8:	4626                	c.lwsp	a2,72(sp)
    27da:	49f6                	c.lwsp	s3,92(sp)
    27dc:	02030c63          	beqz	t1,2814 <riscv_convolve_s16+0x3a0>
    27e0:	00061483          	lh	s1,0(a2)
    27e4:	00058e83          	lb	t4,0(a1)
    27e8:	c5d496ff          	maddr32	a3,s1,t4
    27ec:	03b30263          	beq	t1,s11,2810 <riscv_convolve_s16+0x39c>
    27f0:	00261483          	lh	s1,2(a2)
    27f4:	00158e83          	lb	t4,1(a1)
    27f8:	c5d496ff          	maddr32	a3,s1,t4
    27fc:	00200493          	li	s1,2
    2800:	00930863          	beq	t1,s1,2810 <riscv_convolve_s16+0x39c>
    2804:	00258e83          	lb	t4,2(a1)
    2808:	00461603          	lh	a2,4(a2)
    280c:	c4ce96ff          	maddr32	a3,t4,a2
    2810:	006585b3          	add	a1,a1,t1
    2814:	4606                	c.lwsp	a2,64(sp)
    2816:	ce3d                	c.beqz	a2,2894 <riscv_convolve_s16+0x420>
    2818:	00028663          	beqz	t0,2824 <riscv_convolve_s16+0x3b0>
    281c:	000e2603          	lw	a2,0(t3)
    2820:	00c686b3          	add	a3,a3,a2
    2824:	0008ae83          	lw	t4,0(a7)
    2828:	00082483          	lw	s1,0(a6)
    282c:	4a81                	c.li	s5,0
    282e:	f35e8a7f          	maxw	s4,t4,s5
    2832:	01469a33          	sll	s4,a3,s4
    2836:	40000637          	lui	a2,0x40000
    283a:	4681                	c.li	a3,0
    283c:	849a167f          	smar64	a2,s4,s1
    2840:	41d00eb3          	neg	t4,t4
    2844:	f35e8eff          	maxw	t4,t4,s5
    2848:	01dd94b3          	sll	s1,s11,t4
    284c:	dff6067f          	wexti	a2,a2,31
    2850:	fff48693          	addi	a3,s1,-1
    2854:	4016d493          	srai	s1,a3,0x1
    2858:	00062a13          	slti	s4,a2,0
    285c:	8ef1                	c.and	a3,a2
    285e:	94d2                	c.add	s1,s4
    2860:	41d65633          	sra	a2,a2,t4
    2864:	00d4a6b3          	slt	a3,s1,a3
    2868:	00d60633          	add	a2,a2,a3
    286c:	56c6                	c.lwsp	a3,112(sp)
    286e:	0509                	c.addi	a0,2
    2870:	f2d6067f          	maxw	a2,a2,a3
    2874:	56d6                	c.lwsp	a3,116(sp)
    2876:	0891                	c.addi	a7,4
    2878:	f0c686ff          	minw	a3,a3,a2
    287c:	fed51f23          	sh	a3,-2(a0)
    2880:	56f2                	c.lwsp	a3,60(sp)
    2882:	0811                	c.addi	a6,4
    2884:	0e11                	c.addi	t3,4
    2886:	03a1                	c.addi	t2,8
    2888:	eea694e3          	bne	a3,a0,2770 <riscv_convolve_s16+0x2fc>
    288c:	d14a                	c.swsp	s2,160(sp)
    288e:	d34e                	c.swsp	s3,164(sp)
    2890:	dd1ff06f          	j	2660 <riscv_convolve_s16+0x1ec>
    2894:	00d00933          	add	s2,zero,a3
    2898:	41f6d993          	srai	s3,a3,0x1f
    289c:	00028863          	beqz	t0,28ac <riscv_convolve_s16+0x438>
    28a0:	0003a603          	lw	a2,0(t2)
    28a4:	0043a683          	lw	a3,4(t2)
    28a8:	c0c9197f          	add64	s2,s2,a2
    28ac:	00082e83          	lw	t4,0(a6)
    28b0:	7fff06b7          	lui	a3,0x7fff0
    28b4:	04dede63          	bge	t4,a3,2910 <riscv_convolve_s16+0x49c>
    28b8:	66a1                	c.lui	a3,0x8
    28ba:	9eb6                	c.add	t4,a3
    28bc:	410eda13          	srai	s4,t4,0x10
    28c0:	41fede93          	srai	t4,t4,0x1f
    28c4:	032e8eb3          	mul	t4,t4,s2
    28c8:	f149167f          	mulr64	a2,s2,s4
    28cc:	0008a483          	lw	s1,0(a7)
    28d0:	da36                	c.swsp	a3,52(sp)
    28d2:	46b9                	c.li	a3,14
    28d4:	c53a1eff          	maddr32	t4,s4,s3
    28d8:	409684b3          	sub	s1,a3,s1
    28dc:	56d2                	c.lwsp	a3,52(sp)
    28de:	fe048a13          	addi	s4,s1,-32
    28e2:	96f6                	c.add	a3,t4
    28e4:	d832                	c.swsp	a2,48(sp)
    28e6:	da36                	c.swsp	a3,52(sp)
    28e8:	4146d633          	sra	a2,a3,s4
    28ec:	000a5e63          	bgez	s4,2908 <riscv_convolve_s16+0x494>
    28f0:	5ad2                	c.lwsp	s5,52(sp)
    28f2:	467d                	c.li	a2,31
    28f4:	5a42                	c.lwsp	s4,48(sp)
    28f6:	40960eb3          	sub	t4,a2,s1
    28fa:	001a9693          	slli	a3,s5,0x1
    28fe:	01d696b3          	sll	a3,a3,t4
    2902:	009a5633          	srl	a2,s4,s1
    2906:	8e55                	c.or	a2,a3
    2908:	0605                	c.addi	a2,1
    290a:	8605                	c.srai	a2,0x1
    290c:	f61ff06f          	j	286c <riscv_convolve_s16+0x3f8>
    2910:	66a1                	c.lui	a3,0x8
    2912:	fff68a13          	addi	s4,a3,-1 # 7fff <riscv_depthwise_conv_3x3_s8+0x1467>
    2916:	4e81                	c.li	t4,0
    2918:	fadff06f          	j	28c4 <riscv_convolve_s16+0x450>
    291c:	865a                	c.mv	a2,s6
    291e:	4681                	c.li	a3,0
    2920:	ebdff06f          	j	27dc <riscv_convolve_s16+0x368>
    2924:	557d                	c.li	a0,-1
    2926:	b3cd                	c.j	2708 <riscv_convolve_s16+0x294>

00002928 <riscv_convolve_wrapper_s16_get_buffer_size>:
    2928:	45c8                	c.lw	a0,12(a1)
    292a:	4618                	c.lw	a4,8(a2)
    292c:	425c                	c.lw	a5,4(a2)
    292e:	02e50533          	mul	a0,a0,a4
    2932:	02f50533          	mul	a0,a0,a5
    2936:	050a                	c.slli	a0,0x2
    2938:	8082                	c.jr	ra
	...

0000293c <riscv_convolve_1x1_s8_fast>:
    293c:	7171                	c.addi16sp	sp,-176
    293e:	d326                	c.swsp	s1,164(sp)
    2940:	84ae                	c.mv	s1,a1
    2942:	498c                	c.lw	a1,16(a1)
    2944:	d706                	c.swsp	ra,172(sp)
    2946:	d522                	c.swsp	s0,168(sp)
    2948:	d14a                	c.swsp	s2,160(sp)
    294a:	cf4e                	c.swsp	s3,156(sp)
    294c:	cd52                	c.swsp	s4,152(sp)
    294e:	cb56                	c.swsp	s5,148(sp)
    2950:	c95a                	c.swsp	s6,144(sp)
    2952:	c75e                	c.swsp	s7,140(sp)
    2954:	c562                	c.swsp	s8,136(sp)
    2956:	c366                	c.swsp	s9,132(sp)
    2958:	c16a                	c.swsp	s10,128(sp)
    295a:	deee                	c.swsp	s11,124(sp)
    295c:	dc42                	c.swsp	a6,56(sp)
    295e:	30059b63          	bnez	a1,2c74 <riscv_convolve_1x1_s8_fast+0x338>
    2962:	0144aa83          	lw	s5,20(s1)
    2966:	300a9763          	bnez	s5,2c74 <riscv_convolve_1x1_s8_fast+0x338>
    296a:	8d3a                	c.mv	s10,a4
    296c:	4498                	c.lw	a4,8(s1)
    296e:	87b6                	c.mv	a5,a3
    2970:	4685                	c.li	a3,1
    2972:	30d71163          	bne	a4,a3,2c74 <riscv_convolve_1x1_s8_fast+0x338>
    2976:	44d4                	c.lw	a3,12(s1)
    2978:	2ee69e63          	bne	a3,a4,2c74 <riscv_convolve_1x1_s8_fast+0x338>
    297c:	575a                	c.lwsp	a4,180(sp)
    297e:	4114                	c.lw	a3,0(a0)
    2980:	00c72883          	lw	a7,12(a4)
    2984:	8b32                	c.mv	s6,a2
    2986:	47c0                	c.lw	s0,12(a5)
    2988:	4798                	c.lw	a4,8(a5)
    298a:	43d0                	c.lw	a2,4(a5)
    298c:	0007a803          	lw	a6,0(a5)
    2990:	8c36                	c.mv	s8,a3
    2992:	2a068163          	beqz	a3,2c34 <riscv_convolve_1x1_s8_fast+0x2f8>
    2996:	028706b3          	mul	a3,a4,s0
    299a:	c0b6                	c.swsp	a3,64(sp)
    299c:	56da                	c.lwsp	a3,180(sp)
    299e:	42cc                	c.lw	a1,4(a3)
    29a0:	0086a903          	lw	s2,8(a3)
    29a4:	11005063          	blez	a6,2aa4 <riscv_convolve_1x1_s8_fast+0x168>
    29a8:	02b906b3          	mul	a3,s2,a1
    29ac:	d4d6                	c.swsp	s5,104(sp)
    29ae:	00141a13          	slli	s4,s0,0x1
    29b2:	8ac6                	c.mv	s5,a7
    29b4:	4989                	c.li	s3,2
    29b6:	88ea                	c.mv	a7,s10
    29b8:	8d26                	c.mv	s10,s1
    29ba:	84da                	c.mv	s1,s6
    29bc:	c8b6                	c.swsp	a3,80(sp)
    29be:	c282                	c.swsp	zero,68(sp)
    29c0:	cac2                	c.swsp	a6,84(sp)
    29c2:	de2e                	c.swsp	a1,60(sp)
    29c4:	ccaa                	c.swsp	a0,88(sp)
    29c6:	cebe                	c.swsp	a5,92(sp)
    29c8:	57f2                	c.lwsp	a5,60(sp)
    29ca:	06f05963          	blez	a5,2a3c <riscv_convolve_1x1_s8_fast+0x100>
    29ce:	556a                	c.lwsp	a0,184(sp)
    29d0:	010a9793          	slli	a5,s5,0x10
    29d4:	4b01                	c.li	s6,0
    29d6:	83c1                	c.srli	a5,0x10
    29d8:	c4d6                	c.swsp	s5,72(sp)
    29da:	8cda                	c.mv	s9,s6
    29dc:	8aaa                	c.mv	s5,a0
    29de:	8be2                	c.mv	s7,s8
    29e0:	d802                	c.swsp	zero,48(sp)
    29e2:	d446                	c.swsp	a7,40(sp)
    29e4:	da3e                	c.swsp	a5,52(sp)
    29e6:	c6c6                	c.swsp	a7,76(sp)
    29e8:	5da2                	c.lwsp	s11,40(sp)
    29ea:	4b01                	c.li	s6,0
    29ec:	03205263          	blez	s2,2a10 <riscv_convolve_1x1_s8_fast+0xd4>
    29f0:	000d1683          	lh	a3,0(s10)
    29f4:	85de                	c.mv	a1,s7
    29f6:	856e                	c.mv	a0,s11
    29f8:	8622                	c.mv	a2,s0
    29fa:	0c85                	c.addi	s9,1
    29fc:	014b8bb3          	add	s7,s7,s4
    2a00:	5e5020ef          	jal	ra,57e4 <riscv_s8_to_s16_unordered_with_offset>
    2a04:	073c8263          	beq	s9,s3,2a68 <riscv_convolve_1x1_s8_fast+0x12c>
    2a08:	0b05                	c.addi	s6,1
    2a0a:	9da2                	c.add	s11,s0
    2a0c:	ff6912e3          	bne	s2,s6,29f0 <riscv_convolve_1x1_s8_fast+0xb4>
    2a10:	080a8863          	beqz	s5,2aa0 <riscv_convolve_1x1_s8_fast+0x164>
    2a14:	5722                	c.lwsp	a4,40(sp)
    2a16:	4686                	c.lwsp	a3,64(sp)
    2a18:	57c2                	c.lwsp	a5,48(sp)
    2a1a:	9736                	c.add	a4,a3
    2a1c:	0785                	c.addi	a5,1
    2a1e:	d43a                	c.swsp	a4,40(sp)
    2a20:	5772                	c.lwsp	a4,60(sp)
    2a22:	d83e                	c.swsp	a5,48(sp)
    2a24:	fcf712e3          	bne	a4,a5,29e8 <riscv_convolve_1x1_s8_fast+0xac>
    2a28:	8556                	c.mv	a0,s5
    2a2a:	48b6                	c.lwsp	a7,76(sp)
    2a2c:	04812a83          	lw	s5,72(sp)
    2a30:	080c9a63          	bnez	s9,2ac4 <riscv_convolve_1x1_s8_fast+0x188>
    2a34:	47f6                	c.lwsp	a5,92(sp)
    2a36:	4798                	c.lw	a4,8(a5)
    2a38:	0047a603          	lw	a2,4(a5)
    2a3c:	57ea                	c.lwsp	a5,184(sp)
    2a3e:	46c6                	c.lwsp	a3,80(sp)
    2a40:	02c705b3          	mul	a1,a4,a2
    2a44:	c55697ff          	maddr32	a5,a3,s5
    2a48:	46d6                	c.lwsp	a3,84(sp)
    2a4a:	dd3e                	c.swsp	a5,184(sp)
    2a4c:	4796                	c.lwsp	a5,68(sp)
    2a4e:	c48598ff          	maddr32	a7,a1,s0
    2a52:	0785                	c.addi	a5,1
    2a54:	c2be                	c.swsp	a5,68(sp)
    2a56:	22f68163          	beq	a3,a5,2c78 <riscv_convolve_1x1_s8_fast+0x33c>
    2a5a:	57da                	c.lwsp	a5,180(sp)
    2a5c:	00c7aa83          	lw	s5,12(a5)
    2a60:	47e6                	c.lwsp	a5,88(sp)
    2a62:	439c                	c.lw	a5,0(a5)
    2a64:	8c3e                	c.mv	s8,a5
    2a66:	b78d                	c.j	29c8 <riscv_convolve_1x1_s8_fast+0x8c>
    2a68:	024d1883          	lh	a7,36(s10)
    2a6c:	020d1803          	lh	a6,32(s10)
    2a70:	004d2783          	lw	a5,4(s10)
    2a74:	4098                	c.lw	a4,0(s1)
    2a76:	40d4                	c.lw	a3,4(s1)
    2a78:	534a                	c.lwsp	t1,176(sp)
    2a7a:	5652                	c.lwsp	a2,52(sp)
    2a7c:	5562                	c.lwsp	a0,56(sp)
    2a7e:	85e2                	c.mv	a1,s8
    2a80:	0b05                	c.addi	s6,1
    2a82:	c656                	c.swsp	s5,12(sp)
    2a84:	c41a                	c.swsp	t1,8(sp)
    2a86:	c222                	c.swsp	s0,4(sp)
    2a88:	c022                	c.swsp	s0,0(sp)
    2a8a:	9da2                	c.add	s11,s0
    2a8c:	169000ef          	jal	ra,33f4 <riscv_nn_mat_mult_kernel_s8_s16>
    2a90:	8be2                	c.mv	s7,s8
    2a92:	8aaa                	c.mv	s5,a0
    2a94:	00000c93          	li	s9,0
    2a98:	f5691ce3          	bne	s2,s6,29f0 <riscv_convolve_1x1_s8_fast+0xb4>
    2a9c:	f60a9ce3          	bnez	s5,2a14 <riscv_convolve_1x1_s8_fast+0xd8>
    2aa0:	ffe00a93          	li	s5,-2
    2aa4:	50ba                	c.lwsp	ra,172(sp)
    2aa6:	542a                	c.lwsp	s0,168(sp)
    2aa8:	549a                	c.lwsp	s1,164(sp)
    2aaa:	590a                	c.lwsp	s2,160(sp)
    2aac:	49fa                	c.lwsp	s3,156(sp)
    2aae:	4a6a                	c.lwsp	s4,152(sp)
    2ab0:	4b4a                	c.lwsp	s6,144(sp)
    2ab2:	4bba                	c.lwsp	s7,140(sp)
    2ab4:	4c2a                	c.lwsp	s8,136(sp)
    2ab6:	4c9a                	c.lwsp	s9,132(sp)
    2ab8:	4d0a                	c.lwsp	s10,128(sp)
    2aba:	5df6                	c.lwsp	s11,124(sp)
    2abc:	8556                	c.mv	a0,s5
    2abe:	4ada                	c.lwsp	s5,148(sp)
    2ac0:	614d                	c.addi16sp	sp,176
    2ac2:	8082                	c.jr	ra
    2ac4:	f75058e3          	blez	s5,2a34 <riscv_convolve_1x1_s8_fast+0xf8>
    2ac8:	40245713          	srai	a4,s0,0x2
    2acc:	01071b93          	slli	s7,a4,0x10
    2ad0:	010bdb93          	srli	s7,s7,0x10
    2ad4:	fffb8713          	addi	a4,s7,-1
    2ad8:	0742                	c.slli	a4,0x10
    2ada:	00347f93          	andi	t6,s0,3
    2ade:	8341                	c.srli	a4,0x10
    2ae0:	0705                	c.addi	a4,1
    2ae2:	ffff8593          	addi	a1,t6,-1
    2ae6:	01059793          	slli	a5,a1,0x10
    2aea:	00371613          	slli	a2,a4,0x3
    2aee:	83c1                	c.srli	a5,0x10
    2af0:	9662                	c.add	a2,s8
    2af2:	00271593          	slli	a1,a4,0x2
    2af6:	da22                	c.swsp	s0,52(sp)
    2af8:	5862                	c.lwsp	a6,56(sp)
    2afa:	8462                	c.mv	s0,s8
    2afc:	534a                	c.lwsp	t1,176(sp)
    2afe:	5c06                	c.lwsp	s8,96(sp)
    2b00:	5c96                	c.lwsp	s9,100(sp)
    2b02:	01550f33          	add	t5,a0,s5
    2b06:	d852                	c.swsp	s4,48(sp)
    2b08:	c4d6                	c.swsp	s5,72(sp)
    2b0a:	c6ca                	c.swsp	s2,76(sp)
    2b0c:	4281                	c.li	t0,0
    2b0e:	00178d93          	addi	s11,a5,1
    2b12:	4b09                	c.li	s6,2
    2b14:	4381                	c.li	t2,0
    2b16:	40000e37          	lui	t3,0x40000
    2b1a:	4e81                	c.li	t4,0
    2b1c:	4685                	c.li	a3,1
    2b1e:	8abe                	c.mv	s5,a5
    2b20:	892e                	c.mv	s2,a1
    2b22:	8a32                	c.mv	s4,a2
    2b24:	07112623          	sw	a7,108(sp)
    2b28:	4701                	c.li	a4,0
    2b2a:	00030563          	beqz	t1,2b34 <riscv_convolve_1x1_s8_fast+0x1f8>
    2b2e:	005307b3          	add	a5,t1,t0
    2b32:	4398                	c.lw	a4,0(a5)
    2b34:	0e0b8c63          	beqz	s7,2c2c <riscv_convolve_1x1_s8_fast+0x2f0>
    2b38:	012808b3          	add	a7,a6,s2
    2b3c:	8622                	c.mv	a2,s0
    2b3e:	d472                	c.swsp	t3,40(sp)
    2b40:	03d12623          	sw	t4,44(sp)
    2b44:	00082783          	lw	a5,0(a6)
    2b48:	8c3e                	c.mv	s8,a5
    2b4a:	8cbe                	c.mv	s9,a5
    2b4c:	0811                	c.addi	a6,4
    2b4e:	de8c05ff          	wexti	a1,s8,8
    2b52:	ac9585ff          	sunpkd820	a1,a1
    2b56:	ac9787ff          	sunpkd820	a5,a5
    2b5a:	00062e83          	lw	t4,0(a2) # 40000000 <_DATA_LMA_START+0x1fff5790>
    2b5e:	49d7977f          	kmada	a4,a5,t4
    2b62:	00460793          	addi	a5,a2,4
    2b66:	439c                	c.lw	a5,0(a5)
    2b68:	0621                	c.addi	a2,8
    2b6a:	48f5977f          	kmada	a4,a1,a5
    2b6e:	fd181be3          	bne	a6,a7,2b44 <riscv_convolve_1x1_s8_fast+0x208>
    2b72:	5e22                	c.lwsp	t3,40(sp)
    2b74:	5eb2                	c.lwsp	t4,44(sp)
    2b76:	87d2                	c.mv	a5,s4
    2b78:	01100833          	add	a6,zero,a7
    2b7c:	020f8a63          	beqz	t6,2bb0 <riscv_convolve_1x1_s8_fast+0x274>
    2b80:	00079583          	lh	a1,0(a5)
    2b84:	00088603          	lb	a2,0(a7)
    2b88:	c4c5977f          	maddr32	a4,a1,a2
    2b8c:	020a8063          	beqz	s5,2bac <riscv_convolve_1x1_s8_fast+0x270>
    2b90:	00279583          	lh	a1,2(a5)
    2b94:	00188603          	lb	a2,1(a7)
    2b98:	c4c5977f          	maddr32	a4,a1,a2
    2b9c:	016f8863          	beq	t6,s6,2bac <riscv_convolve_1x1_s8_fast+0x270>
    2ba0:	00288603          	lb	a2,2(a7)
    2ba4:	00479783          	lh	a5,4(a5)
    2ba8:	c4f6177f          	maddr32	a4,a2,a5
    2bac:	01b88833          	add	a6,a7,s11
    2bb0:	40dc                	c.lw	a5,4(s1)
    2bb2:	408c                	c.lw	a1,0(s1)
    2bb4:	9796                	c.add	a5,t0
    2bb6:	4390                	c.lw	a2,0(a5)
    2bb8:	005587b3          	add	a5,a1,t0
    2bbc:	438c                	c.lw	a1,0(a5)
    2bbe:	f27607ff          	maxw	a5,a2,t2
    2bc2:	00f718b3          	sll	a7,a4,a5
    2bc6:	8772                	c.mv	a4,t3
    2bc8:	87f6                	c.mv	a5,t4
    2bca:	84b8977f          	smar64	a4,a7,a1
    2bce:	40c00633          	neg	a2,a2
    2bd2:	f276067f          	maxw	a2,a2,t2
    2bd6:	00c695b3          	sll	a1,a3,a2
    2bda:	dff7077f          	wexti	a4,a4,31
    2bde:	fff58793          	addi	a5,a1,-1
    2be2:	4017d593          	srai	a1,a5,0x1
    2be6:	00072893          	slti	a7,a4,0
    2bea:	8ff9                	c.and	a5,a4
    2bec:	95c6                	c.add	a1,a7
    2bee:	00f5a7b3          	slt	a5,a1,a5
    2bf2:	40c75733          	sra	a4,a4,a2
    2bf6:	973e                	c.add	a4,a5
    2bf8:	004d2783          	lw	a5,4(s10)
    2bfc:	020d2603          	lw	a2,32(s10)
    2c00:	024d2583          	lw	a1,36(s10)
    2c04:	97ba                	c.add	a5,a4
    2c06:	f2c787ff          	maxw	a5,a5,a2
    2c0a:	0505                	c.addi	a0,1
    2c0c:	f0b787ff          	minw	a5,a5,a1
    2c10:	fef50fa3          	sb	a5,-1(a0)
    2c14:	0291                	c.addi	t0,4
    2c16:	f1e519e3          	bne	a0,t5,2b28 <riscv_convolve_1x1_s8_fast+0x1ec>
    2c1a:	5a42                	c.lwsp	s4,48(sp)
    2c1c:	5452                	c.lwsp	s0,52(sp)
    2c1e:	4aa6                	c.lwsp	s5,72(sp)
    2c20:	4936                	c.lwsp	s2,76(sp)
    2c22:	58b6                	c.lwsp	a7,108(sp)
    2c24:	d0e2                	c.swsp	s8,96(sp)
    2c26:	d2e6                	c.swsp	s9,100(sp)
    2c28:	e0dff06f          	j	2a34 <riscv_convolve_1x1_s8_fast+0xf8>
    2c2c:	87a2                	c.mv	a5,s0
    2c2e:	88c2                	c.mv	a7,a6
    2c30:	f49ff06f          	j	2b78 <riscv_convolve_1x1_s8_fast+0x23c>
    2c34:	02c70733          	mul	a4,a4,a2
    2c38:	0244af03          	lw	t5,36(s1)
    2c3c:	0204ae83          	lw	t4,32(s1)
    2c40:	03070833          	mul	a6,a4,a6
    2c44:	0044ae03          	lw	t3,4(s1)
    2c48:	0004a303          	lw	t1,0(s1)
    2c4c:	004b2783          	lw	a5,4(s6)
    2c50:	000b2703          	lw	a4,0(s6)
    2c54:	56ea                	c.lwsp	a3,184(sp)
    2c56:	564a                	c.lwsp	a2,176(sp)
    2c58:	55e2                	c.lwsp	a1,56(sp)
    2c5a:	856a                	c.mv	a0,s10
    2c5c:	cc22                	c.swsp	s0,24(sp)
    2c5e:	ca46                	c.swsp	a7,20(sp)
    2c60:	c87a                	c.swsp	t5,16(sp)
    2c62:	c676                	c.swsp	t4,12(sp)
    2c64:	c472                	c.swsp	t3,8(sp)
    2c66:	c21a                	c.swsp	t1,4(sp)
    2c68:	00812023          	sw	s0,0(sp)
    2c6c:	635010ef          	jal	ra,4aa0 <riscv_nn_mat_mult_nt_t_s8>
    2c70:	e35ff06f          	j	2aa4 <riscv_convolve_1x1_s8_fast+0x168>
    2c74:	5afd                	c.li	s5,-1
    2c76:	b53d                	c.j	2aa4 <riscv_convolve_1x1_s8_fast+0x168>
    2c78:	5aa6                	c.lwsp	s5,104(sp)
    2c7a:	b52d                	c.j	2aa4 <riscv_convolve_1x1_s8_fast+0x168>

00002c7c <riscv_convolve_s8>:
    2c7c:	4108                	c.lw	a0,0(a0)
    2c7e:	7125                	c.addi16sp	sp,-416
    2c80:	18812c23          	sw	s0,408(sp)
    2c84:	19512223          	sw	s5,388(sp)
    2c88:	842a                	c.mv	s0,a0
    2c8a:	d12a                	c.swsp	a0,160(sp)
    2c8c:	18112e23          	sw	ra,412(sp)
    2c90:	18912a23          	sw	s1,404(sp)
    2c94:	19212823          	sw	s2,400(sp)
    2c98:	19312623          	sw	s3,396(sp)
    2c9c:	19412423          	sw	s4,392(sp)
    2ca0:	19612023          	sw	s6,384(sp)
    2ca4:	17712e23          	sw	s7,380(sp)
    2ca8:	17812c23          	sw	s8,376(sp)
    2cac:	17912a23          	sw	s9,372(sp)
    2cb0:	17a12823          	sw	s10,368(sp)
    2cb4:	17b12623          	sw	s11,364(sp)
    2cb8:	d2ba                	c.swsp	a4,100(sp)
    2cba:	1a412503          	lw	a0,420(sp)
    2cbe:	1a812883          	lw	a7,424(sp)
    2cc2:	1ac12a83          	lw	s5,428(sp)
    2cc6:	72040563          	beqz	s0,33f0 <riscv_convolve_s8+0x774>
    2cca:	00c6ae03          	lw	t3,12(a3)
    2cce:	00c7a303          	lw	t1,12(a5)
    2cd2:	010e1e93          	slli	t4,t3,0x10
    2cd6:	01031713          	slli	a4,t1,0x10
    2cda:	010ede93          	srli	t4,t4,0x10
    2cde:	8341                	c.srli	a4,0x10
    2ce0:	02eed433          	divu	s0,t4,a4
    2ce4:	6741                	c.lui	a4,0x10
    2ce6:	177d                	c.addi	a4,-1
    2ce8:	00ee7eb3          	and	t4,t3,a4
    2cec:	0087ae03          	lw	t3,8(a5)
    2cf0:	43dc                	c.lw	a5,4(a5)
    2cf2:	00ee74b3          	and	s1,t3,a4
    2cf6:	8ff9                	c.and	a5,a4
    2cf8:	d63e                	c.swsp	a5,44(sp)
    2cfa:	02f487b3          	mul	a5,s1,a5
    2cfe:	00e37bb3          	and	s7,t1,a4
    2d02:	89c2                	c.mv	s3,a6
    2d04:	037787b3          	mul	a5,a5,s7
    2d08:	00c8a803          	lw	a6,12(a7)
    2d0c:	0006ae03          	lw	t3,0(a3)
    2d10:	dfc2                	c.swsp	a6,252(sp)
    2d12:	cebe                	c.swsp	a5,92(sp)
    2d14:	00e87833          	and	a6,a6,a4
    2d18:	469c                	c.lw	a5,8(a3)
    2d1a:	42d8                	c.lw	a4,4(a3)
    2d1c:	4dd4                	c.lw	a3,28(a1)
    2d1e:	0088af03          	lw	t5,8(a7)
    2d22:	d836                	c.swsp	a3,48(sp)
    2d24:	41d4                	c.lw	a3,4(a1)
    2d26:	0048a303          	lw	t1,4(a7)
    2d2a:	c3b6                	c.swsp	a3,196(sp)
    2d2c:	5194                	c.lw	a3,32(a1)
    2d2e:	00062903          	lw	s2,0(a2)
    2d32:	10d12223          	sw	a3,260(sp)
    2d36:	51d4                	c.lw	a3,36(a1)
    2d38:	0105af83          	lw	t6,16(a1)
    2d3c:	d1b6                	c.swsp	a3,224(sp)
    2d3e:	4194                	c.lw	a3,0(a1)
    2d40:	0145a883          	lw	a7,20(a1)
    2d44:	d3b6                	c.swsp	a3,228(sp)
    2d46:	0085a383          	lw	t2,8(a1)
    2d4a:	00c5a283          	lw	t0,12(a1)
    2d4e:	0185ac03          	lw	s8,24(a1)
    2d52:	dd22                	c.swsp	s0,184(sp)
    2d54:	d4f6                	c.swsp	t4,104(sp)
    2d56:	cbc2                	c.swsp	a6,212(sp)
    2d58:	424c                	c.lw	a1,4(a2)
    2d5a:	02884633          	div	a2,a6,s0
    2d5e:	028ee6b3          	rem	a3,t4,s0
    2d62:	cfb2                	c.swsp	a2,220(sp)
    2d64:	68069663          	bnez	a3,33f0 <riscv_convolve_s8+0x774>
    2d68:	02886433          	rem	s0,a6,s0
    2d6c:	68041263          	bnez	s0,33f0 <riscv_convolve_s8+0x774>
    2d70:	66050c63          	beqz	a0,33e8 <riscv_convolve_s8+0x76c>
    2d74:	4150                	c.lw	a2,4(a0)
    2d76:	4514                	c.lw	a3,8(a0)
    2d78:	1679                	c.addi	a2,-2
    2d7a:	16f9                	c.addi	a3,-2
    2d7c:	00163613          	seqz	a2,a2
    2d80:	0016b693          	seqz	a3,a3
    2d84:	c8b2                	c.swsp	a2,80(sp)
    2d86:	d0b6                	c.swsp	a3,96(sp)
    2d88:	66c1                	c.lui	a3,0x10
    2d8a:	16fd                	c.addi	a3,-1
    2d8c:	5606                	c.lwsp	a2,96(sp)
    2d8e:	00d7fa33          	and	s4,a5,a3
    2d92:	40ca5633          	sra	a2,s4,a2
    2d96:	47f6                	c.lwsp	a5,92(sp)
    2d98:	8f75                	c.and	a4,a3
    2d9a:	d332                	c.swsp	a2,164(sp)
    2d9c:	4646                	c.lwsp	a2,80(sp)
    2d9e:	de3a                	c.swsp	a4,60(sp)
    2da0:	0037f693          	andi	a3,a5,3
    2da4:	0af12a23          	sw	a5,180(sp)
    2da8:	40c75733          	sra	a4,a4,a2
    2dac:	62069a63          	bnez	a3,33e0 <riscv_convolve_s8+0x764>
    2db0:	5fc05a63          	blez	t3,33a4 <riscv_convolve_s8+0x728>
    2db4:	67c1                	c.lui	a5,0x10
    2db6:	17fd                	c.addi	a5,-1
    2db8:	4b76                	c.lwsp	s6,92(sp)
    2dba:	00f8f633          	and	a2,a7,a5
    2dbe:	02ca0533          	mul	a0,s4,a2
    2dc2:	c332                	c.swsp	a2,132(sp)
    2dc4:	402b5613          	srai	a2,s6,0x2
    2dc8:	0642                	c.slli	a2,0x10
    2dca:	8241                	c.srli	a2,0x10
    2dcc:	589a                	c.lwsp	a7,164(sp)
    2dce:	12c12023          	sw	a2,288(sp)
    2dd2:	167d                	c.addi	a2,-1
    2dd4:	00ff7f33          	and	t5,t5,a5
    2dd8:	031708b3          	mul	a7,a4,a7
    2ddc:	00f37333          	and	t1,t1,a5
    2de0:	40a00733          	neg	a4,a0
    2de4:	00fff533          	and	a0,t6,a5
    2de8:	00f2ffb3          	and	t6,t0,a5
    2dec:	00f3f2b3          	and	t0,t2,a5
    2df0:	01061793          	slli	a5,a2,0x10
    2df4:	03748cb3          	mul	s9,s1,s7
    2df8:	83c1                	c.srli	a5,0x10
    2dfa:	d59a                	c.swsp	t1,232(sp)
    2dfc:	d6fa                	c.swsp	t5,108(sp)
    2dfe:	03e30333          	mul	t1,t1,t5
    2e02:	40a70f33          	sub	t5,a4,a0
    2e06:	00178713          	addi	a4,a5,1 # 10001 <_RAMCODE_VMA_END+0x58e5>
    2e0a:	57b2                	c.lwsp	a5,44(sp)
    2e0c:	43fe                	c.lwsp	t2,220(sp)
    2e0e:	039787b3          	mul	a5,a5,s9
    2e12:	5ea6                	c.lwsp	t4,104(sp)
    2e14:	10a12a23          	sw	a0,276(sp)
    2e18:	c1be                	c.swsp	a5,192(sp)
    2e1a:	027b07b3          	mul	a5,s6,t2
    2e1e:	03da0833          	mul	a6,s4,t4
    2e22:	03d88633          	mul	a2,a7,t4
    2e26:	12f12223          	sw	a5,292(sp)
    2e2a:	47de                	c.lwsp	a5,212(sp)
    2e2c:	038e8b33          	mul	s6,t4,s8
    2e30:	02f30533          	mul	a0,t1,a5
    2e34:	87c2                	c.mv	a5,a6
    2e36:	030f8833          	mul	a6,t6,a6
    2e3a:	531e                	c.lwsp	t1,228(sp)
    2e3c:	03df0f33          	mul	t5,t5,t4
    2e40:	11012423          	sw	a6,264(sp)
    2e44:	025e8833          	mul	a6,t4,t0
    2e48:	5e8a                	c.lwsp	t4,160(sp)
    2e4a:	40600333          	neg	t1,t1
