     VMA      LMA     Size Align Out     In      Symbol
       0        0        0     1 NDS_SAG_LMA_FLASH = 0x20000000
       0        0 20000000     1 . = 0x20000000
20000000        0        0     1 PROVIDE ( BIN_BEGIN = . )
20000000 20000000      16c     4 .vectors
20000000 20000000      16c     4         ./boot/cstartup_flash.o:(.vectors)
20000000 20000000        0     1                 .L0 
20000000 20000000        0     1                 .L0 
20000000 20000000        0     1                 .L0 
20000000 20000000        0     1                 _RESET_ENTRY
20000028 20000028        0     1                 _START
20000028 20000028        0     1                 .L0 
20000028 20000028        0     1                 .L0 
20000030 20000030        0     1                 .L0 
20000034 20000034        0     1                 .L0 
20000038 20000038        0     1                 .L0 
2000003c 2000003c        0     1                 .L0 
20000040 20000040        0     1                 .L0 
20000040 20000040        0     1                 .L0 
20000048 20000048        0     1                 .L0 
2000004a 2000004a        0     1                 .L0 
2000004a 2000004a        0     1                 .L0 
20000052 20000052        0     1                 .L0 
20000056 20000056        0     1                 .L0 
20000058 20000058        0     1                 .L0 
2000005c 2000005c        0     1                 .L0 
20000060 20000060        0     1                 .L0 
20000060 20000060        0     1                 .L0 
20000068 20000068        0     1                 .L0 
2000006c 2000006c        0     1                 .L0 
20000070 20000070        0     1                 .L0 
20000074 20000074        0     1                 .L0 
20000076 20000076        0     1                 .L0 
2000007a 2000007a        0     1                 .L0 
2000007e 2000007e        0     1                 .L0 
20000082 20000082        0     1                 .L0 
20000086 20000086        0     1                 .L0 
2000008a 2000008a        0     1                 .L0 
2000008e 2000008e        0     1                 _RETENTION_RESET_INIT
2000008e 2000008e        0     1                 .L0 
2000008e 2000008e        0     1                 .L0 
20000096 20000096        0     1                 .L0 
20000096 20000096        0     1                 .L0 
20000098 20000098        0     1                 .L0 
20000098 20000098        0     1                 .L0 
2000009c 2000009c        0     1                 _RETENTION_RESET_BEGIN
2000009c 2000009c        0     1                 .L0 
200000a0 200000a0        0     1                 .L0 
200000a4 200000a4        0     1                 .L0 
200000a8 200000a8        0     1                 .L0 
200000aa 200000aa        0     1                 .L0 
200000ac 200000ac        0     1                 .L0 
200000ae 200000ae        0     1                 _RETENTION_DATA_INIT
200000ae 200000ae        0     1                 .L0 
200000ae 200000ae        0     1                 .L0 
200000b6 200000b6        0     1                 .L0 
200000b6 200000b6        0     1                 .L0 
200000ba 200000ba        0     1                 .L0 
200000ba 200000ba        0     1                 .L0 
200000be 200000be        0     1                 _RETENTION_DATA_INIT_BEGIN
200000be 200000be        0     1                 .L0 
200000c2 200000c2        0     1                 .L0 
200000c6 200000c6        0     1                 .L0 
200000ca 200000ca        0     1                 .L0 
200000cc 200000cc        0     1                 .L0 
200000ce 200000ce        0     1                 .L0 
200000d0 200000d0        0     1                 _RAMCODE_INIT
200000d0 200000d0        0     1                 .L0 
200000d0 200000d0        0     1                 .L0 
200000d8 200000d8        0     1                 .L0 
200000d8 200000d8        0     1                 .L0 
200000dc 200000dc        0     1                 .L0 
200000dc 200000dc        0     1                 .L0 
200000e4 200000e4        0     1                 _RAMCODE_INIT_BEGIN
200000e4 200000e4        0     1                 .L0 
200000e8 200000e8        0     1                 .L0 
200000ec 200000ec        0     1                 .L0 
200000f0 200000f0        0     1                 .L0 
200000f2 200000f2        0     1                 .L0 
200000f4 200000f4        0     1                 .L0 
200000f6 200000f6        0     1                 _DATA_INIT
200000f6 200000f6        0     1                 .L0 
200000f6 200000f6        0     1                 .L0 
200000fe 200000fe        0     1                 .L0 
200000fe 200000fe        0     1                 .L0 
20000102 20000102        0     1                 .L0 
20000102 20000102        0     1                 .L0 
2000010a 2000010a        0     1                 _DATA_INIT_BEGIN
2000010a 2000010a        0     1                 .L0 
2000010e 2000010e        0     1                 .L0 
20000112 20000112        0     1                 .L0 
20000116 20000116        0     1                 .L0 
20000118 20000118        0     1                 .L0 
2000011a 2000011a        0     1                 .L0 
2000011c 2000011c        0     1                 _ZERO_BSS
2000011c 2000011c        0     1                 .L0 
20000120 20000120        0     1                 .L0 
20000120 20000120        0     1                 .L0 
20000128 20000128        0     1                 .L0 
20000128 20000128        0     1                 .L0 
20000130 20000130        0     1                 _ZERO_BSS_BEGIN
20000130 20000130        0     1                 .L0 
20000134 20000134        0     1                 .L0 
20000138 20000138        0     1                 .L0 
2000013a 2000013a        0     1                 .L0 
2000013c 2000013c        0     1                 _ZERO_AES
2000013c 2000013c        0     1                 .L0 
20000140 20000140        0     1                 .L0 
20000140 20000140        0     1                 .L0 
20000144 20000144        0     1                 .L0 
20000144 20000144        0     1                 .L0 
20000148 20000148        0     1                 _ZERO_AES_BEGIN
20000148 20000148        0     1                 .L0 
2000014c 2000014c        0     1                 .L0 
20000150 20000150        0     1                 .L0 
20000152 20000152        0     1                 .L0 
20000154 20000154        0     1                 _FILL_STK
20000154 20000154        0     1                 _MAIN_FUNC
20000154 20000154        0     1                 .L0 
20000156 20000156        0     1                 .L0 
20000156 20000156        0     1                 .L0 
2000015e 2000015e        0     1                 .L0 
20000160 20000160        0     1                 .L0 
20000162 20000162        0     1                 .L0 
20000164 20000164        0     1                 .L0 
20000166 20000166        0     1                 .L0 
20000168 20000168        0     1                 .L0 
2000016a 2000016a        0     1                 _END
2000016a 2000016a        0     1                 .L0 
2000016c 2000016c        0     1                 .L0 
2000016c 2000016c        0     1                 .L0 
2000016c 2000016c        0     1                 .L0 
2000016c        0 dffffe94     1 . = 0x00000000
       0 20000170      148     4 .retention_reset
       0 20000170      148     4         ./boot/cstartup_flash.o:(.retention_reset)
       0 20000170        0     1                 .L0 
       0 20000170        0     1                 .L0 
       0 20000170        0     1                 .L0 
       0 20000170        0     1                 _IRESET_ENTRY
      22 20000192        0     1                 _ISTART
      22 20000192        0     1                 .L0 
      22 20000192        0     1                 .L0 
      2a 2000019a        0     1                 _ISWS_USB_DIS
      2a 2000019a        0     1                 .L0 
      2e 2000019e        0     1                 .L0 
      32 200001a2        0     1                 .L0 
      36 200001a6        0     1                 .L0 
      3a 200001aa        0     1                 .L0 
      3a 200001aa        0     1                 .L0 
      42 200001b2        0     1                 .L0 
      44 200001b4        0     1                 .L0 
      44 200001b4        0     1                 .L0 
      4c 200001bc        0     1                 .L0 
      50 200001c0        0     1                 .L0 
      52 200001c2        0     1                 .L0 
      56 200001c6        0     1                 .L0 
      5a 200001ca        0     1                 .L0 
      5a 200001ca        0     1                 .L0 
      62 200001d2        0     1                 .L0 
      66 200001d6        0     1                 .L0 
      6a 200001da        0     1                 .L0 
      6e 200001de        0     1                 .L0 
      70 200001e0        0     1                 .L0 
      74 200001e4        0     1                 .L0 
      78 200001e8        0     1                 .L0 
      7c 200001ec        0     1                 .L0 
      80 200001f0        0     1                 .L0 
      84 200001f4        0     1                 .L0 
      88 200001f8        0     1                 _WAKEUP_FLASH
      88 200001f8        0     1                 .L0 
      8c 200001fc        0     1                 .L0 
      90 20000200        0     1                 .L0 
      92 20000202        0     1                 .L0 
      96 20000206        0     1                 .L0 
      9a 2000020a        0     1                 .L0 
      9e 2000020e        0     1                 .L0 
      a2 20000212        0     1                 _MSPI_WAIT
      a2 20000212        0     1                 .L0 
      a6 20000216        0     1                 .L0 
      aa 2000021a        0     1                 .L0 
      ac 2000021c        0     1                 .L0 
      ae 2000021e        0     1                 .L0 
      b2 20000222        0     1                 .L0 
      b6 20000226        0     1                 .L0 
      b8 20000228        0     1                 .L0 
      bc 2000022c        0     1                 _WAIT_EFUSE_LOAD_AND_FLASH_WAKEUP_FINISH
      bc 2000022c        0     1                 .L0 
      be 2000022e        0     1                 .L0 
      c2 20000232        0     1                 _MULTI_ADDRESS_BEGIN
      c2 20000232        0     1                 .L0 
      c6 20000236        0     1                 .L0 
      c6 20000236        0     1                 .L0 
      ca 2000023a        0     1                 .L0 
      ce 2000023e        0     1                 .L0 
      d2 20000242        0     1                 _IZERO_BSS
      d2 20000242        0     1                 .L0 
      d6 20000246        0     1                 .L0 
      d6 20000246        0     1                 .L0 
      de 2000024e        0     1                 .L0 
      de 2000024e        0     1                 .L0 
      e6 20000256        0     1                 _IZERO_BSS_BEGIN
      e6 20000256        0     1                 .L0 
      ea 2000025a        0     1                 .L0 
      ee 2000025e        0     1                 .L0 
      f0 20000260        0     1                 .L0 
      f2 20000262        0     1                 _IZERO_AES
      f2 20000262        0     1                 .L0 
      f6 20000266        0     1                 .L0 
      f6 20000266        0     1                 .L0 
      fa 2000026a        0     1                 .L0 
      fa 2000026a        0     1                 .L0 
      fe 2000026e        0     1                 _IZERO_AES_BEGIN
      fe 2000026e        0     1                 .L0 
     102 20000272        0     1                 .L0 
     106 20000276        0     1                 .L0 
     108 20000278        0     1                 .L0 
     10a 2000027a        0     1                 _IFILL_STK
     10a 2000027a        0     1                 _IDATA_INIT
     10a 2000027a        0     1                 .L0 
     10a 2000027a        0     1                 .L0 
     112 20000282        0     1                 .L0 
     112 20000282        0     1                 .L0 
     116 20000286        0     1                 .L0 
     116 20000286        0     1                 .L0 
     11e 2000028e        0     1                 _IDATA_INIT_BEGIN
     11e 2000028e        0     1                 .L0 
     122 20000292        0     1                 .L0 
     126 20000296        0     1                 .L0 
     12a 2000029a        0     1                 .L0 
     12c 2000029c        0     1                 .L0 
     12e 2000029e        0     1                 .L0 
     130 200002a0        0     1                 _IMAIN_FUNC
     130 200002a0        0     1                 .L0 
     132 200002a2        0     1                 .L0 
     132 200002a2        0     1                 .L0 
     13a 200002aa        0     1                 .L0 
     13c 200002ac        0     1                 .L0 
     13e 200002ae        0     1                 .L0 
     140 200002b0        0     1                 .L0 
     142 200002b2        0     1                 .L0 
     144 200002b4        0     1                 .L0 
     146 200002b6        0     1                 _IEND
     146 200002b6        0     1                 .L0 
     148 200002b8        0     1                 .L0 
     148 200002b8        0     1                 .L0 
     148 200002b8        0     1                 .L0 
     148        0        0     1 PROVIDE ( _RETENTION_RESET_VMA_START = ADDR ( .retention_reset ) )
     148        0        0     1 PROVIDE ( _RETENTION_RESET_LMA_START = LOADADDR ( .retention_reset ) )
     148        0        0     1 PROVIDE ( _RETENTION_RESET_VMA_END = . )
     148        0        0     1 . = ALIGN ( 8 )
     148        0        0     1 PROVIDE ( _AES_VMA_START = . )
     148 200002b8       20     4 .aes_data
     148 200002b8       20     4         ./drivers/aes.o:(.aes_data)
     148 200002b8       20     1                 aes_data_buff
     168        0        0     1 PROVIDE ( _AES_VMA_END = . )
     168        0        0     1 . = ALIGN ( 8 )
     168 200002b8       78     4 .retention_data
     168 200002b8        a     2         ./drivers/adc.o:(.retention_data)
     168 200002b8        2     1                 g_adc_vref
     16a 200002ba        1     1                 g_adc_vref_offset
     16c 200002bc        2     1                 g_adc_gpio_calib_vref
     16e 200002be        1     1                 g_adc_gpio_calib_vref_offset
     170 200002c0        2     1                 g_adc_vbat_calib_vref
     172 200002c2        1     1         ./drivers/clock.o:(.retention_data)
     172 200002c2        1     1                 tl_24mrc_cal
     174 200002c4        a     4         ./drivers/flash.o:(.retention_data)
     174 200002c4        4     1                 flash_read_page
     178 200002c8        4     1                 flash_write_page
     17c 200002cc        2     1                 s_flash_preempt_config
     180 200002d0       60     4         /cygdrive/c/Users/SWAMIN~1/AppData/Local/Temp/ccKdbC8c.ltrans0.ltrans.o:(.retention_data)
     180 200002d0        1     1                 g_pm_vbat_v
     184 200002d4        4     1                 g_pm_tick_32k_cur
     188 200002d8        1     1                 g_pm_tick_update_en
     189 200002d9        1     1                 g_pm_suspend_power_cfg
     18c 200002dc        4     1                 g_pm_mspi_cfg
     190 200002e0        8     1                 g_pm_early_wakeup_time_us
     198 200002e8        8     1                 g_pm_longsleep_early_wakeup_time_us
     1a0 200002f0        4     1                 g_pm_r_delay_cycle
     1a4 200002f4        1     1                 g_plic_preempt_en
     1a8 200002f8        0     1                 .LANCHOR0
     1a8 200002f8        1     1                 g_pm_long_suspend
     1ac 200002fc        4     1                 g_pm_tick_cur
     1b0 20000300       29     1                 pmcd
     1dc 2000032c        4     1                 g_pm_tick_32k_calib
     1e0        0        0     1 PROVIDE ( _RETENTION_DATA_VMA_START = ADDR ( .retention_data ) )
     1e0        0        0     1 PROVIDE ( _RETENTION_DATA_LMA_START = LOADADDR ( .retention_data ) )
     1e0        0        0     1 PROVIDE ( _RETENTION_DATA_VMA_END = . )
     1e0        0        0     1 . = ALIGN ( 8 )
     200 20000330     36bc   256 .ram_code
     200 20000330      570     4         ./vendor/common/flash/puya_common.o:(.ram_code)
     200 20000330       1c     1                 mspi_wait
     200 20000330        0     1                 .L0 
     200 20000330        0     1                 .L0 
     200 20000330        0     1                 .L0 
     200 20000330        0     1                 .LFB338
     204 20000334        0     1                 .L0 
     204 20000334        0     1                 .L22
     218 20000348        0     1                 .L0 
     21c 2000034c        0     1                 .L0 
     21c 2000034c       28     1                 mspi_fm_rd_trig_en
     21c 2000034c        0     1                 .L0 
     21c 2000034c        0     1                 .L0 
     21c 2000034c        0     1                 .L0 
     21c 2000034c        0     1                 .LFB339
     21c 2000034c        0     1                 .LFE338
     240 20000370        0     1                 .L0 
     244 20000374        0     1                 .L0 
     244 20000374       28     1                 mspi_fm_rd_trig_dis
     244 20000374        0     1                 .L0 
     244 20000374        0     1                 .L0 
     244 20000374        0     1                 .L0 
     244 20000374        0     1                 .LFB340
     244 20000374        0     1                 .LFE339
     266 20000396        0     1                 .L0 
     26c 2000039c        0     1                 .L0 
     26c 2000039c       28     1                 mspi_fm_write_en
     26c 2000039c        0     1                 .L0 
     26c 2000039c        0     1                 .L0 
     26c 2000039c        0     1                 .L0 
     26c 2000039c        0     1                 .LFB342
     26c 2000039c        0     1                 .LFE340
     28e 200003be        0     1                 .L0 
     294 200003c4        0     1                 .L0 
     294 200003c4       28     1                 mspi_high
     294 200003c4        0     1                 .L0 
     294 200003c4        0     1                 .L0 
     294 200003c4        0     1                 .L0 
     294 200003c4        0     1                 .LFB344
     294 200003c4        0     1                 .LFE342
     2b8 200003e8        0     1                 .L0 
     2bc 200003ec        0     1                 .L0 
     2bc 200003ec       28     1                 mspi_low
     2bc 200003ec        0     1                 .L0 
     2bc 200003ec        0     1                 .L0 
     2bc 200003ec        0     1                 .L0 
     2bc 200003ec        0     1                 .LFB345
     2bc 200003ec        0     1                 .LFE344
     2de 2000040e        0     1                 .L0 
     2e4 20000414        0     1                 .L0 
     2e4 20000414       14     1                 mspi_get
     2e4 20000414        0     1                 .L0 
     2e4 20000414        0     1                 .L0 
     2e4 20000414        0     1                 .L0 
     2e4 20000414        0     1                 .LFB346
     2e4 20000414        0     1                 .LFE345
     2f4 20000424        0     1                 .L0 
     2f8 20000428        0     1                 .L0 
     2f8 20000428       20     1                 mspi_write
     2f8 20000428        0     1                 .L0 
     2f8 20000428        0     1                 .L0 
     2f8 20000428        0     1                 .LFB347
     2f8 20000428        0     1                 .LFE346
     2fa 2000042a        0     1                 .L0 
     300 20000430        0     1                 .L0 
     310 20000440        0     1                 .L0 
     314 20000444        0     1                 .L0 
     318 20000448        0     1                 .L0 
     318 20000448       2c     1                 mspi_stop_xip
     318 20000448        0     1                 .L0 
     318 20000448        0     1                 .L0 
     318 20000448        0     1                 .LFB350
     318 20000448        0     1                 .LFE347
     31a 2000044a        0     1                 .L0 
     31c 2000044c        0     1                 .L0 
     31c 2000044c        0     1                 .L0 
     31e 2000044e        0     1                 .L0 
     320 20000450        0     1                 .L0 
     324 20000454        0     1                 .L0 
     324 20000454        0     1                 .L32
     33c 2000046c        0     1                 .L0 
     340 20000470        0     1                 .L0 
     342 20000472        0     1                 .L0 
     344 20000474        0     1                 .L0 
     344 20000474        0     1                 .L0 
     344 20000474        0     1                 .L0 
     344 20000474        0     1                 .LFB374
     344 20000474        0     1                 .LFE350
     344 20000474       30     1                 mspi_as_gpio
     346 20000476        0     1                 .L0 
     348 20000478        0     1                 .L0 
     348 20000478        0     1                 .L0 
     354 20000484        0     1                 .L0 
     360 20000490        0     1                 .L0 
     36c 2000049c        0     1                 .L0 
     370 200004a0        0     1                 .L0 
     372 200004a2        0     1                 .L0 
     374 200004a4        0     1                 .L0 
     374 200004a4        0     1                 .L0 
     374 200004a4        0     1                 .L0 
     374 200004a4        0     1                 .LFB375
     374 200004a4        0     1                 .LFE374
     374 200004a4       30     1                 mspi_as_mspi
     376 200004a6        0     1                 .L0 
     378 200004a8        0     1                 .L0 
     378 200004a8        0     1                 .L0 
     384 200004b4        0     1                 .L0 
     390 200004c0        0     1                 .L0 
     39c 200004cc        0     1                 .L0 
     3a0 200004d0        0     1                 .L0 
     3a2 200004d2        0     1                 .L0 
     3a4 200004d4        0     1                 .L0 
     3a4 200004d4        0     1                 .L0 
     3a4 200004d4        0     1                 .L0 
     3a4 200004d4        0     1                 .LFB376
     3a4 200004d4        0     1                 .LFE375
     3a4 200004d4       58     1                 flash_enter_test_mode
     3a6 200004d6        0     1                 .L0 
     3a8 200004d8        0     1                 .L0 
     3aa 200004da        0     1                 .L0 
     3ac 200004dc        0     1                 .L0 
     3ae 200004de        0     1                 .L0 
     3b4 200004e4        0     1                 .L0 
     3b6 200004e6        0     1                 .L0 
     3c0 200004f0        0     1                 .L0 
     3c2 200004f2        0     1                 .L0 
     3c4 200004f4        0     1                 .L0 
     3ca 200004fa        0     1                 .L0 
     3cc 200004fc        0     1                 .L0 
     3d8 20000508        0     1                 .L0 
     3da 2000050a        0     1                 .L0 
     3dc 2000050c        0     1                 .L0 
     3e2 20000512        0     1                 .L0 
     3e4 20000514        0     1                 .L0 
     3f0 20000520        0     1                 .L0 
     3f2 20000522        0     1                 .L0 
     3f4 20000524        0     1                 .L0 
     3f8 20000528        0     1                 .L0 
     3fa 2000052a        0     1                 .L0 
     3fc 2000052c        0     1                 .L0 
     3fc 2000052c        0     1                 .L0 
     3fc 2000052c        0     1                 .L0 
     3fc 2000052c        0     1                 .LFB377
     3fc 2000052c        0     1                 .LFE376
     3fc 2000052c       e0     1                 flash_exit_test_mode
     3fe 2000052e        0     1                 .L0 
     400 20000530        0     1                 .L0 
     400 20000530        0     1                 .L0 
     424 20000554        0     1                 .L0 
     42a 2000055a        0     1                 .L0 
     44e 2000057e        0     1                 .L0 
     454 20000584        0     1                 .L0 
     456 20000586        0     1                 .L0 
     47a 200005aa        0     1                 .L0 
     480 200005b0        0     1                 .L0 
     4a4 200005d4        0     1                 .L0 
     4aa 200005da        0     1                 .L0 
     4ac 200005dc        0     1                 .L0 
     4d0 20000600        0     1                 .L0 
     4d2 20000602        0     1                 .L0 
     4d6 20000606        0     1                 .L0 
     4d8 20000608        0     1                 .L0 
     4dc 2000060c        0     1                 .L0 
     4dc 2000060c        0     1                 .L0 
     4dc 2000060c        0     1                 .L0 
     4dc 2000060c        0     1                 .LFB378
     4dc 2000060c        0     1                 .LFE377
     4dc 2000060c       fc     1                 flash_read_testmode
     4de 2000060e        0     1                 .L0 
     4e2 20000612        0     1                 .L0 
     4ee 2000061e        0     1                 .L0 
     512 20000642        0     1                 .L0 
     518 20000648        0     1                 .L0 
     53c 2000066c        0     1                 .L0 
     544 20000674        0     1                 .L0 
     546 20000676        0     1                 .L0 
     552 20000682        0     1                 .L0 
     554 20000684        0     1                 .L0 
     560 20000690        0     1                 .L0 
     562 20000692        0     1                 .L0 
     56c 2000069c        0     1                 .L0 
     56e 2000069e        0     1                 .L0 
     572 200006a2        0     1                 .L0 
     574 200006a4        0     1                 .L0 
     576 200006a6        0     1                 .L0 
     578 200006a8        0     1                 .L0 
     578 200006a8        0     1                 .LBB2
     57c 200006ac        0     1                 .L0 
     57c 200006ac        0     1                 .L39
     58c 200006bc        0     1                 .L0 
     58e 200006be        0     1                 .L0 
     594 200006c4        0     1                 .L0 
     594 200006c4        0     1                 .L38
     59c 200006cc        0     1                 .L0 
     59c 200006cc        0     1                 .LBE2
     59e 200006ce        0     1                 .L0 
     5c2 200006f2        0     1                 .L0 
     5cc 200006fc        0     1                 .L0 
     5d0 20000700        0     1                 .L0 
     5d2 20000702        0     1                 .L0 
     5d4 20000704        0     1                 .L0 
     5d8 20000708        0     1                 .L0 
     5d8 20000708        0     1                 .L0 
     5d8 20000708        0     1                 .L0 
     5d8 20000708        0     1                 .LFB379
     5d8 20000708        0     1                 .LFE378
     5d8 20000708       e0     1                 flash_write_testmode
     5da 2000070a        0     1                 .L0 
     5dc 2000070c        0     1                 .L0 
     5e8 20000718        0     1                 .L0 
     60c 2000073c        0     1                 .L0 
     612 20000742        0     1                 .L0 
     636 20000766        0     1                 .L0 
     63e 2000076e        0     1                 .L0 
     640 20000770        0     1                 .L0 
     64c 2000077c        0     1                 .L0 
     64e 2000077e        0     1                 .L0 
     65a 2000078a        0     1                 .L0 
     65c 2000078c        0     1                 .L0 
     666 20000796        0     1                 .L0 
     668 20000798        0     1                 .L0 
     668 20000798        0     1                 .LBB3
     66c 2000079c        0     1                 .L0 
     66c 2000079c        0     1                 .L42
     67a 200007aa        0     1                 .L0 
     67c 200007ac        0     1                 .L0 
     684 200007b4        0     1                 .L0 
     684 200007b4        0     1                 .L41
     68c 200007bc        0     1                 .L0 
     68c 200007bc        0     1                 .LBE3
     6b0 200007e0        0     1                 .L0 
     6b4 200007e4        0     1                 .L0 
     6b6 200007e6        0     1                 .L0 
     6b8 200007e8        0     1                 .L0 
     6b8 200007e8        0     1                 .L0 
     6b8 200007e8        0     1                 .L0 
     6b8 200007e8        0     1                 .LFB380
     6b8 200007e8        0     1                 .LFE379
     6b8 200007e8       b8     1                 flash_power_off_on_ram
     6ba 200007ea        0     1                 .L0 
     6bc 200007ec        0     1                 .L0 
     6be 200007ee        0     1                 .L0 
     6c0 200007f0        0     1                 .L0 
     6cc 200007fc        0     1                 .L0 
     6f2 20000822        0     1                 .L0 
     70a 2000083a        0     1                 .L0 
     716 20000846        0     1                 .L0 
     722 20000852        0     1                 .L0 
     72e 2000085e        0     1                 .L0 
     734 20000864        0     1                 .L0 
     740 20000870        0     1                 .L0 
     74c 2000087c        0     1                 .L0 
     758 20000888        0     1                 .L0 
     762 20000892        0     1                 .L0 
     768 20000898        0     1                 .L0 
     76c 2000089c        0     1                 .L0 
     76e 2000089e        0     1                 .L0 
     770 200008a0        0     1                 .L0 
     770 200008a0        0     1                 .L0 
     770 200008a0        0     1                 .LFE380
     770 200008a0      4de     4         ./vendor/common/flash/puya_flash_scratch.o:(.ram_code)
     770 200008a0       1c     1                 mspi_wait
     770 200008a0        0     1                 .L0 
     770 200008a0        0     1                 .L0 
     770 200008a0        0     1                 .L0 
     770 200008a0        0     1                 .LFB338
     774 200008a4        0     1                 .L0 
     774 200008a4        0     1                 .L14
     788 200008b8        0     1                 .L0 
     78c 200008bc        0     1                 .L0 
     78c 200008bc       28     1                 mspi_fm_write_en
     78c 200008bc        0     1                 .L0 
     78c 200008bc        0     1                 .L0 
     78c 200008bc        0     1                 .L0 
     78c 200008bc        0     1                 .LFB342
     78c 200008bc        0     1                 .LFE338
     7ae 200008de        0     1                 .L0 
     7b4 200008e4        0     1                 .L0 
     7b4 200008e4       44     1                 mspi_fm_data_line
     7b4 200008e4        0     1                 .L0 
     7b4 200008e4        0     1                 .L0 
     7b4 200008e4        0     1                 .LFB343
     7b4 200008e4        0     1                 .LFE342
     7b6 200008e6        0     1                 .L0 
     7bc 200008ec        0     1                 .L0 
     7f0 20000920        0     1                 .L0 
     7f4 20000924        0     1                 .L0 
     7f8 20000928        0     1                 .L0 
     7f8 20000928       28     1                 mspi_high
     7f8 20000928        0     1                 .L0 
     7f8 20000928        0     1                 .L0 
     7f8 20000928        0     1                 .L0 
     7f8 20000928        0     1                 .LFB344
     7f8 20000928        0     1                 .LFE343
     81c 2000094c        0     1                 .L0 
     820 20000950        0     1                 .L0 
     820 20000950       28     1                 mspi_low
     820 20000950        0     1                 .L0 
     820 20000950        0     1                 .L0 
     820 20000950        0     1                 .L0 
     820 20000950        0     1                 .LFB345
     820 20000950        0     1                 .LFE344
     842 20000972        0     1                 .L0 
     848 20000978        0     1                 .L0 
     848 20000978       20     1                 mspi_write
     848 20000978        0     1                 .L0 
     848 20000978        0     1                 .L0 
     848 20000978        0     1                 .LFB347
     848 20000978        0     1                 .LFE345
     84a 2000097a        0     1                 .L0 
     850 20000980        0     1                 .L0 
     860 20000990        0     1                 .L0 
     864 20000994        0     1                 .L0 
     868 20000998        0     1                 .L0 
     868 20000998       2c     1                 mspi_stop_xip
     868 20000998        0     1                 .L0 
     868 20000998        0     1                 .L0 
     868 20000998        0     1                 .LFB350
     868 20000998        0     1                 .LFE347
     86a 2000099a        0     1                 .L0 
     86c 2000099c        0     1                 .L0 
     86c 2000099c        0     1                 .L0 
     86e 2000099e        0     1                 .L0 
     870 200009a0        0     1                 .L0 
     874 200009a4        0     1                 .L0 
     874 200009a4        0     1                 .L21
     88c 200009bc        0     1                 .L0 
     890 200009c0        0     1                 .L0 
     892 200009c2        0     1                 .L0 
     894 200009c4        0     1                 .L0 
     894 200009c4       84     1                 flash_write_enable_cmd_testmode
     894 200009c4        0     1                 .L0 
     894 200009c4        0     1                 .L0 
     894 200009c4        0     1                 .LFB374
     894 200009c4        0     1                 .LFE350
     896 200009c6        0     1                 .L0 
     898 200009c8        0     1                 .L0 
     898 200009c8        0     1                 .L0 
     8bc 200009ec        0     1                 .L0 
     8c2 200009f2        0     1                 .L0 
     8e6 20000a16        0     1                 .L0 
     8ea 20000a1a        0     1                 .L0 
     8ec 20000a1c        0     1                 .L0 
     910 20000a40        0     1                 .L0 
     914 20000a44        0     1                 .L0 
     916 20000a46        0     1                 .L0 
     918 20000a48        0     1                 .L0 
     918 20000a48       24     1                 mspi_read_testmode
     918 20000a48        0     1                 .L0 
     918 20000a48        0     1                 .L0 
     918 20000a48        0     1                 .LFB375
     918 20000a48        0     1                 .LFE374
     91a 20000a4a        0     1                 .L0 
     91c 20000a4c        0     1                 .L0 
     91c 20000a4c        0     1                 .L0 
     920 20000a50        0     1                 .L0 
     922 20000a52        0     1                 .L0 
     932 20000a62        0     1                 .L0 
     936 20000a66        0     1                 .L0 
     938 20000a68        0     1                 .L0 
     93c 20000a6c        0     1                 .L0 
     93c 20000a6c       14     1                 flash_is_busy_testmode
     93c 20000a6c        0     1                 .L0 
     93c 20000a6c        0     1                 .L0 
     93c 20000a6c        0     1                 .LFB376
     93c 20000a6c        0     1                 .LFE375
     93e 20000a6e        0     1                 .L0 
     940 20000a70        0     1                 .L0 
     940 20000a70        0     1                 .L0 
     946 20000a76        0     1                 .L0 
     94a 20000a7a        0     1                 .L0 
     94c 20000a7c        0     1                 .L0 
     950 20000a80        0     1                 .L0 
     950 20000a80       a8     1                 flash_wait_done_testomode
     950 20000a80        0     1                 .L0 
     950 20000a80        0     1                 .L0 
     950 20000a80        0     1                 .LFB377
     950 20000a80        0     1                 .LFE376
     952 20000a82        0     1                 .L0 
     954 20000a84        0     1                 .L0 
     954 20000a84        0     1                 .L0 
     978 20000aa8        0     1                 .L0 
     97e 20000aae        0     1                 .L0 
     9a2 20000ad2        0     1                 .L0 
     9a6 20000ad6        0     1                 .L0 
     9a8 20000ad8        0     1                 .L0 
     9ac 20000adc        0     1                 .L0 
     9ac 20000adc        0     1                 .L50
     9b2 20000ae2        0     1                 .L0 
     9b8 20000ae8        0     1                 .L0 
     9b8 20000ae8        0     1                 .L47
     9c8 20000af8        0     1                 .L0 
     9c8 20000af8        0     1                 .L51
     9cc 20000afc        0     1                 .L0 
     9cc 20000afc        0     1                 .L49
     9f0 20000b20        0     1                 .L0 
     9f4 20000b24        0     1                 .L0 
     9f6 20000b26        0     1                 .L0 
     9f8 20000b28        0     1                 .L0 
     9f8 20000b28       44     1                 flash_wait_done_common
     9f8 20000b28        0     1                 .L0 
     9f8 20000b28        0     1                 .L0 
     9f8 20000b28        0     1                 .LFB378
     9f8 20000b28        0     1                 .LFE377
     9fa 20000b2a        0     1                 .L0 
     9fc 20000b2c        0     1                 .L0 
     9fc 20000b2c        0     1                 .L0 
     9fe 20000b2e        0     1                 .L0 
     a04 20000b34        0     1                 .L0 
     a06 20000b36        0     1                 .L0 
     a0a 20000b3a        0     1                 .L0 
     a0c 20000b3c        0     1                 .L0 
     a10 20000b40        0     1                 .L0 
     a10 20000b40        0     1                 .L56
     a16 20000b46        0     1                 .L0 
     a1c 20000b4c        0     1                 .L0 
     a1c 20000b4c        0     1                 .L53
     a2c 20000b5c        0     1                 .L0 
     a2c 20000b5c        0     1                 .L57
     a30 20000b60        0     1                 .L0 
     a30 20000b60        0     1                 .L55
     a32 20000b62        0     1                 .L0 
     a36 20000b66        0     1                 .L0 
     a38 20000b68        0     1                 .L0 
     a3c 20000b6c       50     1                 flash_erase_chip_ram
     a3c 20000b6c        0     1                 .L0 
     a3c 20000b6c        0     1                 .L0 
     a3c 20000b6c        0     1                 .L0 
     a3c 20000b6c        0     1                 .LFB379
     a3c 20000b6c        0     1                 .LFE378
     a3e 20000b6e        0     1                 .L0 
     a40 20000b70        0     1                 .L0 
     a40 20000b70        0     1                 .L0 
     a4a 20000b7a        0     1                 .L0 
     a4c 20000b7c        0     1                 .L0 
     a4e 20000b7e        0     1                 .L0 
     a52 20000b82        0     1                 .L0 
     a54 20000b84        0     1                 .L0 
     a5a 20000b8a        0     1                 .L0 
     a5c 20000b8c        0     1                 .L0 
     a60 20000b90        0     1                 .L0 
     a62 20000b92        0     1                 .L0 
     a64 20000b94        0     1                 .L0 
     a6a 20000b9a        0     1                 .L0 
     a6c 20000b9c        0     1                 .L0 
     a72 20000ba2        0     1                 .L0 
     a74 20000ba4        0     1                 .L0 
     a76 20000ba6        0     1                 .L0 
     a78 20000ba8        0     1                 .L0 
     a82 20000bb2        0     1                 .L0 
     a86 20000bb6        0     1                 .L0 
     a88 20000bb8        0     1                 .L0 
     a8c 20000bbc        0     1                 .L0 
     a8c 20000bbc       8c     1                 flash_erase_chip_scratch_testmode
     a8c 20000bbc        0     1                 .L0 
     a8c 20000bbc        0     1                 .L0 
     a8c 20000bbc        0     1                 .LFB380
     a8c 20000bbc        0     1                 .LFE379
     a8e 20000bbe        0     1                 .L0 
     a90 20000bc0        0     1                 .L0 
     a90 20000bc0        0     1                 .L0 
     a92 20000bc2        0     1                 .L0 
     ab6 20000be6        0     1                 .L0 
     abc 20000bec        0     1                 .L0 
     ae0 20000c10        0     1                 .L0 
     ae6 20000c16        0     1                 .L0 
     ae8 20000c18        0     1                 .L0 
     b0c 20000c3c        0     1                 .L0 
     b0e 20000c3e        0     1                 .L0 
     b12 20000c42        0     1                 .L0 
     b14 20000c44        0     1                 .L0 
     b18 20000c48        0     1                 .L0 
     b18 20000c48       24     1                 flash_write_config_scratch_testmode
     b18 20000c48        0     1                 .L0 
     b18 20000c48        0     1                 .L0 
     b18 20000c48        0     1                 .LFB381
     b18 20000c48        0     1                 .LFE380
     b1a 20000c4a        0     1                 .L0 
     b1c 20000c4c        0     1                 .L0 
     b22 20000c52        0     1                 .L0 
     b30 20000c60        0     1                 .L0 
     b32 20000c62        0     1                 .L0 
     b36 20000c66        0     1                 .L0 
     b38 20000c68        0     1                 .L0 
     b3c 20000c6c        0     1                 .L0 
     b3c 20000c6c       24     1                 flash_plane_program_scratch_testmode
     b3c 20000c6c        0     1                 .L0 
     b3c 20000c6c        0     1                 .L0 
     b3c 20000c6c        0     1                 .LFB382
     b3c 20000c6c        0     1                 .LFE381
     b3e 20000c6e        0     1                 .L0 
     b40 20000c70        0     1                 .L0 
     b46 20000c76        0     1                 .L0 
     b54 20000c84        0     1                 .L0 
     b56 20000c86        0     1                 .L0 
     b5a 20000c8a        0     1                 .L0 
     b5c 20000c8c        0     1                 .L0 
     b60 20000c90        0     1                 .L0 
     b60 20000c90       24     1                 flash_page_program_scratch_testmode
     b60 20000c90        0     1                 .L0 
     b60 20000c90        0     1                 .L0 
     b60 20000c90        0     1                 .LFB383
     b60 20000c90        0     1                 .LFE382
     b62 20000c92        0     1                 .L0 
     b64 20000c94        0     1                 .L0 
     b6a 20000c9a        0     1                 .L0 
     b6c 20000c9c        0     1                 .L0 
     b78 20000ca8        0     1                 .L0 
     b7a 20000caa        0     1                 .L0 
     b7e 20000cae        0     1                 .L0 
     b80 20000cb0        0     1                 .L0 
     b84 20000cb4       c8     1                 flash_scratch_ram
     b84 20000cb4        0     1                 .L0 
     b84 20000cb4        0     1                 .L0 
     b84 20000cb4        0     1                 .L0 
     b84 20000cb4        0     1                 .LFB384
     b84 20000cb4        0     1                 .LFE383
     b86 20000cb6        0     1                 .L0 
     b88 20000cb8        0     1                 .L0 
     b88 20000cb8        0     1                 .L0 
     b8a 20000cba        0     1                 .L0 
     b8e 20000cbe        0     1                 .L0 
     b92 20000cc2        0     1                 .L0 
     b9a 20000cca        0     1                 .L0 
     b9c 20000ccc        0     1                 .L0 
     b9c 20000ccc        0     1                 .LBB9
     ba4 20000cd4        0     1                 .L0 
     ba4 20000cd4        0     1                 .L65
     bbe 20000cee        0     1                 .L0 
     bc8 20000cf8        0     1                 .L0 
     bc8 20000cf8        0     1                 .L64
     bd2 20000d02        0     1                 .L0 
     bd2 20000d02        0     1                 .LBE9
     bd2 20000d02        0     1                 .LBB10
     bd8 20000d08        0     1                 .L0 
     bd8 20000d08        0     1                 .L67
     bf8 20000d28        0     1                 .L0 
     c04 20000d34        0     1                 .L0 
     c04 20000d34        0     1                 .L66
     c0e 20000d3e        0     1                 .L0 
     c0e 20000d3e        0     1                 .LBE10
     c0e 20000d3e        0     1                 .LBB11
     c14 20000d44        0     1                 .L0 
     c14 20000d44        0     1                 .L69
     c2e 20000d5e        0     1                 .L0 
     c38 20000d68        0     1                 .L0 
     c38 20000d68        0     1                 .L68
     c42 20000d72        0     1                 .L0 
     c42 20000d72        0     1                 .LBE11
     c44 20000d74        0     1                 .L0 
     c48 20000d78        0     1                 .L0 
     c4a 20000d7a        0     1                 .L0 
     c4c 20000d7c        0     1                 .L0 
     c4c 20000d7c        0     1                 .L0 
     c4c 20000d7c        0     1                 .LFE384
     c50 20000d80      46c     4         ./vendor/common/flash/puya_flash_trim.o:(.ram_code)
     c50 20000d80       1c     1                 mspi_wait
     c50 20000d80        0     1                 .L0 
     c50 20000d80        0     1                 .L0 
     c50 20000d80        0     1                 .L0 
     c50 20000d80        0     1                 .LFB338
     c54 20000d84        0     1                 .L0 
     c54 20000d84        0     1                 .L14
     c68 20000d98        0     1                 .L0 
     c6c 20000d9c        0     1                 .L0 
     c6c 20000d9c       44     1                 mspi_fm_data_line
     c6c 20000d9c        0     1                 .L0 
     c6c 20000d9c        0     1                 .L0 
     c6c 20000d9c        0     1                 .LFB343
     c6c 20000d9c        0     1                 .LFE338
     c6e 20000d9e        0     1                 .L0 
     c74 20000da4        0     1                 .L0 
     ca8 20000dd8        0     1                 .L0 
     cac 20000ddc        0     1                 .L0 
     cb0 20000de0        0     1                 .L0 
     cb0 20000de0       28     1                 mspi_high
     cb0 20000de0        0     1                 .L0 
     cb0 20000de0        0     1                 .L0 
     cb0 20000de0        0     1                 .L0 
     cb0 20000de0        0     1                 .LFB344
     cb0 20000de0        0     1                 .LFE343
     cd4 20000e04        0     1                 .L0 
     cd8 20000e08        0     1                 .L0 
     cd8 20000e08       14     1                 mspi_get
     cd8 20000e08        0     1                 .L0 
     cd8 20000e08        0     1                 .L0 
     cd8 20000e08        0     1                 .L0 
     cd8 20000e08        0     1                 .LFB346
     cd8 20000e08        0     1                 .LFE344
     ce8 20000e18        0     1                 .L0 
     cec 20000e1c        0     1                 .L0 
     cec 20000e1c       20     1                 mspi_write
     cec 20000e1c        0     1                 .L0 
     cec 20000e1c        0     1                 .L0 
     cec 20000e1c        0     1                 .LFB347
     cec 20000e1c        0     1                 .LFE346
     cee 20000e1e        0     1                 .L0 
     cf4 20000e24        0     1                 .L0 
     d04 20000e34        0     1                 .L0 
     d08 20000e38        0     1                 .L0 
     d0c 20000e3c        0     1                 .L0 
     d0c 20000e3c       18     1                 mspi_read
     d0c 20000e3c        0     1                 .L0 
     d0c 20000e3c        0     1                 .L0 
     d0c 20000e3c        0     1                 .LFB349
     d0c 20000e3c        0     1                 .LFE347
     d0e 20000e3e        0     1                 .L0 
     d10 20000e40        0     1                 .L0 
     d10 20000e40        0     1                 .L0 
     d14 20000e44        0     1                 .L0 
     d16 20000e46        0     1                 .L0 
     d1a 20000e4a        0     1                 .L0 
     d1e 20000e4e        0     1                 .L0 
     d20 20000e50        0     1                 .L0 
     d24 20000e54        0     1                 .L0 
     d24 20000e54       2c     1                 mspi_stop_xip
     d24 20000e54        0     1                 .L0 
     d24 20000e54        0     1                 .L0 
     d24 20000e54        0     1                 .LFB350
     d24 20000e54        0     1                 .LFE349
     d26 20000e56        0     1                 .L0 
     d28 20000e58        0     1                 .L0 
     d28 20000e58        0     1                 .L0 
     d2a 20000e5a        0     1                 .L0 
     d2c 20000e5c        0     1                 .L0 
     d30 20000e60        0     1                 .L0 
     d30 20000e60        0     1                 .L23
     d48 20000e78        0     1                 .L0 
     d4c 20000e7c        0     1                 .L0 
     d4e 20000e7e        0     1                 .L0 
     d50 20000e80        0     1                 .L0 
     d50 20000e80       e4     1                 flash_read_status_trim_testmode
     d50 20000e80        0     1                 .L0 
     d50 20000e80        0     1                 .L0 
     d50 20000e80        0     1                 .LFB374
     d50 20000e80        0     1                 .LFE350
     d52 20000e82        0     1                 .L0 
     d54 20000e84        0     1                 .L0 
     d54 20000e84        0     1                 .L0 
     d78 20000ea8        0     1                 .L0 
     d7e 20000eae        0     1                 .L0 
     da2 20000ed2        0     1                 .L0 
     da6 20000ed6        0     1                 .L0 
     da8 20000ed8        0     1                 .L0 
     dcc 20000efc        0     1                 .L0 
     dd2 20000f02        0     1                 .L0 
     df6 20000f26        0     1                 .L0 
     dfa 20000f2a        0     1                 .L0 
     dfc 20000f2c        0     1                 .L0 
     e04 20000f34        0     1                 .L0 
     e28 20000f58        0     1                 .L0 
     e2c 20000f5c        0     1                 .L0 
     e30 20000f60        0     1                 .L0 
     e32 20000f62        0     1                 .L0 
     e34 20000f64        0     1                 .L0 
     e34 20000f64       a0     1                 flash_erase_trim_testmode
     e34 20000f64        0     1                 .L0 
     e34 20000f64        0     1                 .L0 
     e34 20000f64        0     1                 .LFB375
     e34 20000f64        0     1                 .LFE374
     e36 20000f66        0     1                 .L0 
     e38 20000f68        0     1                 .L0 
     e38 20000f68        0     1                 .L0 
     e5c 20000f8c        0     1                 .L0 
     e62 20000f92        0     1                 .L0 
     e86 20000fb6        0     1                 .L0 
     e8c 20000fbc        0     1                 .L0 
     e8e 20000fbe        0     1                 .L0 
     e92 20000fc2        0     1                 .L0 
     e94 20000fc4        0     1                 .L0 
     e98 20000fc8        0     1                 .L0 
     e9a 20000fca        0     1                 .L0 
     e9e 20000fce        0     1                 .L0 
     ea0 20000fd0        0     1                 .L0 
     ec4 20000ff4        0     1                 .L0 
     eca 20000ffa        0     1                 .L0 
     ece 20000ffe        0     1                 .L0 
     ed0 20001000        0     1                 .L0 
     ed4 20001004        0     1                 .L0 
     ed4 20001004       20     1                 flash_read_trim_testmode
     ed4 20001004        0     1                 .L0 
     ed4 20001004        0     1                 .L0 
     ed4 20001004        0     1                 .LFB376
     ed4 20001004        0     1                 .LFE375
     ed6 20001006        0     1                 .L0 
     ed8 20001008        0     1                 .L0 
     ede 2000100e        0     1                 .L0 
     eec 2000101c        0     1                 .L0 
     ef0 20001020        0     1                 .L0 
     ef2 20001022        0     1                 .L0 
     ef4 20001024        0     1                 .L0 
     ef4 20001024       28     1                 flash_page_program_trim_testmode
     ef4 20001024        0     1                 .L0 
     ef4 20001024        0     1                 .L0 
     ef4 20001024        0     1                 .LFB377
     ef4 20001024        0     1                 .LFE376
     ef6 20001026        0     1                 .L0 
     ef8 20001028        0     1                 .L0 
     efe 2000102e        0     1                 .L0 
     f0c 2000103c        0     1                 .L0 
     f12 20001042        0     1                 .L0 
     f16 20001046        0     1                 .L0 
     f18 20001048        0     1                 .L0 
     f1c 2000104c       d8     1                 flash_trim_ram
     f1c 2000104c        0     1                 .L0 
     f1c 2000104c        0     1                 .L0 
     f1c 2000104c        0     1                 .L0 
     f1c 2000104c        0     1                 .LFB378
     f1c 2000104c        0     1                 .LFE377
     f1e 2000104e        0     1                 .L0 
     f20 20001050        0     1                 .L0 
     f20 20001050        0     1                 .L0 
     f24 20001054        0     1                 .L0 
     f28 20001058        0     1                 .L0 
     f2c 2000105c        0     1                 .L0 
     f34 20001064        0     1                 .L0 
     f3c 2000106c        0     1                 .L0 
     f46 20001076        0     1                 .L0 
     f46 20001076        0     1                 .LBB4
     f68 20001098        0     1                 .L0 
     f6e 2000109e        0     1                 .L0 
     f70 200010a0        0     1                 .L0 
     f7e 200010ae        0     1                 .L0 
     f8c 200010bc        0     1                 .L0 
     f8c 200010bc        0     1                 .LBB5
     f90 200010c0        0     1                 .L0 
     f90 200010c0        0     1                 .L40
     fa8 200010d8        0     1                 .L0 
     fb0 200010e0        0     1                 .L0 
     fb0 200010e0        0     1                 .L39
     fb8 200010e8        0     1                 .L0 
     fb8 200010e8        0     1                 .L38
     fc0 200010f0        0     1                 .L0 
     fc0 200010f0        0     1                 .LBE5
     fc4 200010f4        0     1                 .L0 
     fc8 200010f8        0     1                 .L0 
     fce 200010fe        0     1                 .L0 
     fd8 20001108        0     1                 .L0 
     fdc 2000110c        0     1                 .L0 
     fdc 2000110c        0     1                 .L41
     fe0 20001110        0     1                 .L0 
     fe0 20001110        0     1                 .L37
     fe0 20001110        0     1                 .LBE4
     fe4 20001114        0     1                 .L0 
     fea 2000111a        0     1                 .L0 
     fec 2000111c        0     1                 .L0 
     fec 2000111c        0     1                 .L43
     ff0 20001120        0     1                 .L0 
     ff2 20001122        0     1                 .L0 
     ff4 20001124       c8     1                 flash_trim_check_ram
     ff4 20001124        0     1                 .L0 
     ff4 20001124        0     1                 .L0 
     ff4 20001124        0     1                 .L0 
     ff4 20001124        0     1                 .LFB379
     ff4 20001124        0     1                 .LFE378
     ff6 20001126        0     1                 .L0 
     ff8 20001128        0     1                 .L0 
     ff8 20001128        0     1                 .L0 
     ffc 2000112c        0     1                 .L0 
    1000 20001130        0     1                 .L0 
    1004 20001134        0     1                 .L0 
    100c 2000113c        0     1                 .L0 
    1014 20001144        0     1                 .L0 
    101e 2000114e        0     1                 .L0 
    101e 2000114e        0     1                 .LBB6
    1040 20001170        0     1                 .L0 
    1046 20001176        0     1                 .L0 
    1054 20001184        0     1                 .L0 
    1054 20001184        0     1                 .LBB7
    1058 20001188        0     1                 .L0 
    1058 20001188        0     1                 .L48
    1070 200011a0        0     1                 .L0 
    1078 200011a8        0     1                 .L0 
    1078 200011a8        0     1                 .L47
    1080 200011b0        0     1                 .L0 
    1080 200011b0        0     1                 .L46
    1088 200011b8        0     1                 .L0 
    1088 200011b8        0     1                 .LBE7
    108c 200011bc        0     1                 .L0 
    1090 200011c0        0     1                 .L0 
    1096 200011c6        0     1                 .L0 
    10a0 200011d0        0     1                 .L0 
    10a4 200011d4        0     1                 .L0 
    10a4 200011d4        0     1                 .L49
    10a8 200011d8        0     1                 .L0 
    10a8 200011d8        0     1                 .L45
    10a8 200011d8        0     1                 .LBE6
    10ac 200011dc        0     1                 .L0 
    10b2 200011e2        0     1                 .L0 
    10b4 200011e4        0     1                 .L0 
    10b4 200011e4        0     1                 .L51
    10b8 200011e8        0     1                 .L0 
    10ba 200011ea        0     1                 .L0 
    10bc 200011ec        0     1                 .L0 
    10bc 200011ec        0     1                 .L0 
    10bc 200011ec        0     1                 .LFE379
    10bc 200011ec      194     4         ./vendor/common/exception.o:(.ram_code)
    10bc 200011ec        0     1                 .L0 
    10bc 200011ec        0     1                 .L0 
    10bc 200011ec        0     1                 .LFB375
    10bc 200011ec      194     1                 trap_entry
    10be 200011ee        0     1                 .L0 
    1106 20001236        0     1                 .L0 
    1106 20001236        0     1                 .L0 
    110c 2000123c        0     1                 .L0 
    110e 2000123e        0     1                 .L0 
    1110 20001240        0     1                 .L0 
    1112 20001242        0     1                 .L0 
    111c 2000124c        0     1                 .L0 
    1122 20001252        0     1                 .L0 
    1128 20001258        0     1                 .L0 
    1130 20001260        0     1                 .L0 
    1130 20001260        0     1                 .L15
    1136 20001266        0     1                 .L0 
    1148 20001278        0     1                 .L0 
    1154 20001284        0     1                 .L0 
    1160 20001290        0     1                 .L0 
    1164 20001294        0     1                 .L0 
    1164 20001294        0     1                 .L17
    116c 2000129c        0     1                 .L0 
    1176 200012a6        0     1                 .L0 
    117a 200012aa        0     1                 .L0 
    1186 200012b6        0     1                 .L0 
    1188 200012b8        0     1                 .L0 
    1188 200012b8        0     1                 .L16
    118e 200012be        0     1                 .L0 
    11a0 200012d0        0     1                 .L0 
    11a8 200012d8        0     1                 .L0 
    11b4 200012e4        0     1                 .L0 
    11b8 200012e8        0     1                 .L0 
    11b8 200012e8        0     1                 .L21
    11c0 200012f0        0     1                 .L0 
    11cc 200012fc        0     1                 .L0 
    11d0 20001300        0     1                 .L0 
    11d0 20001300        0     1                 .L22
    11dc 2000130c        0     1                 .L0 
    11dc 2000130c        0     1                 .L20
    11e4 20001314        0     1                 .L0 
    11e4 20001314        0     1                 .L19
    11ee 2000131e        0     1                 .L0 
    11f4 20001324        0     1                 .L0 
    11fa 2000132a        0     1                 .L0 
    1200 20001330        0     1                 .L0 
    1200 20001330        0     1                 .L24
    1204 20001334        0     1                 .L0 
    1206 20001336        0     1                 .L0 
    1208 20001338        0     1                 .L0 
    120a 2000133a        0     1                 .L0 
    120c 2000133c        0     1                 .L0 
    120e 2000133e        0     1                 .L0 
    1210 20001340        0     1                 .L0 
    1212 20001342        0     1                 .L0 
    1214 20001344        0     1                 .L0 
    1216 20001346        0     1                 .L0 
    1218 20001348        0     1                 .L0 
    121a 2000134a        0     1                 .L0 
    121c 2000134c        0     1                 .L0 
    121e 2000134e        0     1                 .L0 
    1220 20001350        0     1                 .L0 
    1222 20001352        0     1                 .L0 
    1224 20001354        0     1                 .L0 
    1226 20001356        0     1                 .L0 
    1228 20001358        0     1                 .L0 
    122a 2000135a        0     1                 .L0 
    122c 2000135c        0     1                 .L0 
    122e 2000135e        0     1                 .L0 
    1230 20001360        0     1                 .L0 
    1232 20001362        0     1                 .L0 
    1234 20001364        0     1                 .L0 
    1236 20001366        0     1                 .L0 
    1238 20001368        0     1                 .L0 
    123a 2000136a        0     1                 .L0 
    123c 2000136c        0     1                 .L0 
    123e 2000136e        0     1                 .L0 
    1240 20001370        0     1                 .L0 
    1242 20001372        0     1                 .L0 
    1244 20001374        0     1                 .L0 
    1246 20001376        0     1                 .L0 
    1248 20001378        0     1                 .L0 
    124a 2000137a        0     1                 .L0 
    124c 2000137c        0     1                 .L0 
    1250 20001380        0     1                 .L0 
    1250 20001380        0     1                 .L0 
    1250 20001380        0     1                 .LFE375
    1250 20001380      576     4         ./drivers/analog.o:(.ram_code)
    1250 20001380        0     1                 .L0 
    1250 20001380        0     1                 .L0 
    1250 20001380        0     1                 .LFB54
    1250 20001380       70     1                 analog_read_reg8
    1252 20001382        0     1                 .L0 
    1254 20001384        0     1                 .L0 
    125a 2000138a        0     1                 .L0 
    1264 20001394        0     1                 .L0 
    1274 200013a4        0     1                 .L0 
    1282 200013b2        0     1                 .L0 
    1292 200013c2        0     1                 .L0 
    129a 200013ca        0     1                 .L0 
    12aa 200013da        0     1                 .L0 
    12b4 200013e4        0     1                 .L0 
    12b8 200013e8        0     1                 .L0 
    12bc 200013ec        0     1                 .L0 
    12be 200013ee        0     1                 .L0 
    12c0 200013f0        0     1                 .L0 
    12c0 200013f0        0     1                 .L0 
    12c0 200013f0        0     1                 .L0 
    12c0 200013f0        0     1                 .LFB55
    12c0 200013f0        0     1                 .LFE54
    12c0 200013f0       74     1                 analog_write_reg8
    12c2 200013f2        0     1                 .L0 
    12c4 200013f4        0     1                 .L0 
    12d2 20001402        0     1                 .L0 
    12dc 2000140c        0     1                 .L0 
    12ec 2000141c        0     1                 .L0 
    12fc 2000142c        0     1                 .L0 
    130c 2000143c        0     1                 .L0 
    1314 20001444        0     1                 .L0 
    1320 20001450        0     1                 .L0 
    132a 2000145a        0     1                 .L0 
    132e 2000145e        0     1                 .L0 
    1330 20001460        0     1                 .L0 
    1334 20001464        0     1                 .L0 
    1334 20001464        0     1                 .L0 
    1334 20001464        0     1                 .L0 
    1334 20001464        0     1                 .LFB57
    1334 20001464        0     1                 .LFE55
    1334 20001464       70     1                 analog_read_reg16
    1336 20001466        0     1                 .L0 
    1338 20001468        0     1                 .L0 
    133e 2000146e        0     1                 .L0 
    1348 20001478        0     1                 .L0 
    1356 20001486        0     1                 .L0 
    1366 20001496        0     1                 .L0 
    1376 200014a6        0     1                 .L0 
    137e 200014ae        0     1                 .L0 
    138e 200014be        0     1                 .L0 
    1398 200014c8        0     1                 .L0 
    139c 200014cc        0     1                 .L0 
    13a0 200014d0        0     1                 .L0 
    13a2 200014d2        0     1                 .L0 
    13a4 200014d4        0     1                 .L0 
    13a4 200014d4        0     1                 .L0 
    13a4 200014d4        0     1                 .L0 
    13a4 200014d4        0     1                 .LFB56
    13a4 200014d4        0     1                 .LFE57
    13a4 200014d4       68     1                 analog_write_reg16
    13a6 200014d6        0     1                 .L0 
    13a8 200014d8        0     1                 .L0 
    13b6 200014e6        0     1                 .L0 
    13c0 200014f0        0     1                 .L0 
    13d0 20001500        0     1                 .L0 
    13e0 20001510        0     1                 .L0 
    13f0 20001520        0     1                 .L0 
    13f8 20001528        0     1                 .L0 
    1402 20001532        0     1                 .L0 
    1406 20001536        0     1                 .L0 
    1408 20001538        0     1                 .L0 
    140c 2000153c        0     1                 .L0 
    140c 2000153c        0     1                 .L0 
    140c 2000153c        0     1                 .L0 
    140c 2000153c        0     1                 .LFB58
    140c 2000153c        0     1                 .LFE56
    140c 2000153c       6c     1                 analog_read_reg32
    140e 2000153e        0     1                 .L0 
    1410 20001540        0     1                 .L0 
    1416 20001546        0     1                 .L0 
    1420 20001550        0     1                 .L0 
    142e 2000155e        0     1                 .L0 
    143e 2000156e        0     1                 .L0 
    144e 2000157e        0     1                 .L0 
    1456 20001586        0     1                 .L0 
    1462 20001592        0     1                 .L0 
    146c 2000159c        0     1                 .L0 
    146e 2000159e        0     1                 .L0 
    1472 200015a2        0     1                 .L0 
    1474 200015a4        0     1                 .L0 
    1478 200015a8        0     1                 .L0 
    1478 200015a8        0     1                 .L0 
    1478 200015a8        0     1                 .L0 
    1478 200015a8        0     1                 .LFB59
    1478 200015a8        0     1                 .LFE58
    1478 200015a8       5c     1                 analog_write_reg32
    147a 200015aa        0     1                 .L0 
    147c 200015ac        0     1                 .L0 
    1484 200015b4        0     1                 .L0 
    148e 200015be        0     1                 .L0 
    149e 200015ce        0     1                 .L0 
    14aa 200015da        0     1                 .L0 
    14ba 200015ea        0     1                 .L0 
    14c2 200015f2        0     1                 .L0 
    14cc 200015fc        0     1                 .L0 
    14d0 20001600        0     1                 .L0 
    14d2 20001602        0     1                 .L0 
    14d4 20001604        0     1                 .L0 
    14d4 20001604        0     1                 .L0 
    14d4 20001604        0     1                 .L0 
    14d4 20001604        0     1                 .LFB63
    14d4 20001604        0     1                 .LFE59
    14d4 20001604      160     1                 analog_read_buff
    14d6 20001606        0     1                 .L0 
    14d8 20001608        0     1                 .L0 
    14e2 20001612        0     1                 .L0 
    14ec 2000161c        0     1                 .L0 
    14f0 20001620        0     1                 .L0 
    14f6 20001626        0     1                 .L0 
    1508 20001638        0     1                 .L0 
    1518 20001648        0     1                 .L0 
    1528 20001658        0     1                 .L0 
    1532 20001662        0     1                 .L0 
    1534 20001664        0     1                 .L0 
    1534 20001664        0     1                 .L30
    1548 20001678        0     1                 .L0 
    154c 2000167c        0     1                 .L0 
    154c 2000167c        0     1                 .L34
    1582 200016b2        0     1                 .L0 
    158c 200016bc        0     1                 .L0 
    1590 200016c0        0     1                 .L0 
    159a 200016ca        0     1                 .L0 
    159c 200016cc        0     1                 .L0 
    159c 200016cc        0     1                 .L33
    15b0 200016e0        0     1                 .L0 
    15b0 200016e0        0     1                 .L31
    15c0 200016f0        0     1                 .L0 
    15c0 200016f0        0     1                 .L37
    15c4 200016f4        0     1                 .L0 
    15c4 200016f4        0     1                 .L29
    15cc 200016fc        0     1                 .L0 
    15d0 20001700        0     1                 .L0 
    15d0 20001700        0     1                 .L36
    1608 20001738        0     1                 .L0 
    1608 20001738        0     1                 .L35
    1616 20001746        0     1                 .L0 
    1622 20001752        0     1                 .L0 
    162c 2000175c        0     1                 .L0 
    1630 20001760        0     1                 .L0 
    1632 20001762        0     1                 .L0 
    1634 20001764        0     1                 .L0 
    1634 20001764        0     1                 .L0 
    1634 20001764        0     1                 .L0 
    1634 20001764        0     1                 .LFB62
    1634 20001764        0     1                 .LFE63
    1634 20001764      192     1                 analog_write_buff
    1636 20001766        0     1                 .L0 
    1638 20001768        0     1                 .L0 
    1642 20001772        0     1                 .L0 
    1646 20001776        0     1                 .L0 
    164c 2000177c        0     1                 .L0 
    1656 20001786        0     1                 .L0 
    1668 20001798        0     1                 .L0 
    1678 200017a8        0     1                 .L0 
    1682 200017b2        0     1                 .L0 
    1684 200017b4        0     1                 .L0 
    1684 200017b4        0     1                 .L41
    16b4 200017e4        0     1                 .L0 
    16b4 200017e4        0     1                 .L40
    16c2 200017f2        0     1                 .L0 
    16d4 20001804        0     1                 .L0 
    16d4 20001804        0     1                 .L39
    16da 2000180a        0     1                 .L0 
    16dc 2000180c        0     1                 .L0 
    16dc 2000180c        0     1                 .L44
    170c 2000183c        0     1                 .L0 
    170c 2000183c        0     1                 .L43
    171a 2000184a        0     1                 .L0 
    172a 2000185a        0     1                 .L0 
    1736 20001866        0     1                 .L0 
    173a 2000186a        0     1                 .L0 
    173c 2000186c        0     1                 .L0 
    173c 2000186c        0     1                 .L47
    176c 2000189c        0     1                 .L0 
    1776 200018a6        0     1                 .L0 
    177a 200018aa        0     1                 .L0 
    177c 200018ac        0     1                 .L0 
    177c 200018ac        0     1                 .L46
    1790 200018c0        0     1                 .L0 
    1790 200018c0        0     1                 .L45
    17a0 200018d0        0     1                 .L0 
    17a0 200018d0        0     1                 .L42
    17a8 200018d8        0     1                 .L0 
    17b4 200018e4        0     1                 .L0 
    17be 200018ee        0     1                 .L0 
    17c2 200018f2        0     1                 .L0 
    17c4 200018f4        0     1                 .L0 
    17c6 200018f6        0     1                 .L0 
    17c6 200018f6        0     1                 .L0 
    17c6 200018f6        0     1                 .LFE62
    17c8 200018f8      19e     4         ./drivers/audio.o:(.ram_code)
    17c8 200018f8        0     1                 .L0 
    17c8 200018f8        0     1                 .L0 
    17c8 200018f8        0     1                 .LFB187
    17c8 200018f8      168     1                 audio_set_i2s_clock
    17ca 200018fa        0     1                 .L0 
    17cc 200018fc        0     1                 .L0 
    17e2 20001912        0     1                 .L0 
    17f0 20001920        0     1                 .L0 
    17f2 20001922        0     1                 .L0 
    1810 20001940        0     1                 .L0 
    1814 20001944        0     1                 .L0 
    1814 20001944        0     1                 .L45
    182c 2000195c        0     1                 .L0 
    1830 20001960        0     1                 .L0 
    1830 20001960        0     1                 .L48
    1836 20001966        0     1                 .L0 
    1838 20001968        0     1                 .L0 
    1838 20001968        0     1                 .L46
    183e 2000196e        0     1                 .L0 
    1840 20001970        0     1                 .L0 
    1840 20001970        0     1                 .L47
    1846 20001976        0     1                 .L0 
    1848 20001978        0     1                 .L0 
    1848 20001978        0     1                 .L44
    184e 2000197e        0     1                 .L0 
    1850 20001980        0     1                 .L0 
    1850 20001980        0     1                 .L51
    1856 20001986        0     1                 .L0 
    1858 20001988        0     1                 .L0 
    1858 20001988        0     1                 .L52
    185e 2000198e        0     1                 .L0 
    1860 20001990        0     1                 .L0 
    1860 20001990        0     1                 .L49
    1866 20001996        0     1                 .L0 
    1876 200019a6        0     1                 .L0 
    1878 200019a8        0     1                 .L0 
    1878 200019a8        0     1                 .L55
    1890 200019c0        0     1                 .L0 
    1890 200019c0        0     1                 .L54
    18a2 200019d2        0     1                 .L0 
    18a4 200019d4        0     1                 .L0 
    18a4 200019d4        0     1                 .L50
    18aa 200019da        0     1                 .L0 
    18ba 200019ea        0     1                 .L0 
    18bc 200019ec        0     1                 .L0 
    18bc 200019ec        0     1                 .L57
    18d4 20001a04        0     1                 .L0 
    18d4 20001a04        0     1                 .L56
    18e6 20001a16        0     1                 .L0 
    18e8 20001a18        0     1                 .L0 
    18e8 20001a18        0     1                 .L53
    1900 20001a30        0     1                 .L0 
    1910 20001a40        0     1                 .L0 
    1928 20001a58        0     1                 .L0 
    192c 20001a5c        0     1                 .L0 
    192e 20001a5e        0     1                 .L0 
    1930 20001a60        0     1                 .L0 
    1930 20001a60        0     1                 .L0 
    1930 20001a60        0     1                 .L0 
    1930 20001a60        0     1                 .LFB195
    1930 20001a60        0     1                 .LFE187
    1930 20001a60       34     1                 audio_change_sample_rate
    1932 20001a62        0     1                 .L0 
    1934 20001a64        0     1                 .L0 
    193a 20001a6a        0     1                 .L0 
    1946 20001a76        0     1                 .L0 
    195c 20001a8c        0     1                 .L0 
    1960 20001a90        0     1                 .L0 
    1962 20001a92        0     1                 .L0 
    1964 20001a94        0     1                 .L0 
    1964 20001a94        0     1                 .L0 
    1964 20001a94        0     1                 .LFE195
    1968 20001a98      5dc     4         ./drivers/clock.o:(.ram_code)
    1968 20001a98        0     1                 .L0 
    1968 20001a98        0     1                 .L0 
    1968 20001a98        0     1                 .LFB91
    1968 20001a98       b0     1                 clock_cal_24m_rc
    196a 20001a9a        0     1                 .L0 
    196c 20001a9c        0     1                 .L0 
    196c 20001a9c        0     1                 .L0 
    1978 20001aa8        0     1                 .L0 
    1994 20001ac4        0     1                 .L0 
    199e 20001ace        0     1                 .L0 
    19a8 20001ad8        0     1                 .L0 
    19ac 20001adc        0     1                 .L0 
    19ac 20001adc        0     1                 .L3
    19be 20001aee        0     1                 .L0 
    19cc 20001afc        0     1                 .L0 
    19da 20001b0a        0     1                 .L0 
    19f6 20001b26        0     1                 .L0 
    1a00 20001b30        0     1                 .L0 
    1a10 20001b40        0     1                 .L0 
    1a14 20001b44        0     1                 .L0 
    1a16 20001b46        0     1                 .L0 
    1a18 20001b48        0     1                 .L0 
    1a18 20001b48        0     1                 .L0 
    1a18 20001b48        0     1                 .L0 
    1a18 20001b48        0     1                 .LFB94
    1a18 20001b48        0     1                 .LFE91
    1a18 20001b48       40     1                 clock_get_32k_tick
    1a1a 20001b4a        0     1                 .L0 
    1a1c 20001b4c        0     1                 .L0 
    1a1c 20001b4c        0     1                 .L0 
    1a1e 20001b4e        0     1                 .L0 
    1a20 20001b50        0     1                 .L0 
    1a28 20001b58        0     1                 .L0 
    1a28 20001b58        0     1                 .L8
    1a30 20001b60        0     1                 .L0 
    1a3c 20001b6c        0     1                 .L0 
    1a40 20001b70        0     1                 .L0 
    1a40 20001b70        0     1                 .L5
    1a48 20001b78        0     1                 .L0 
    1a4c 20001b7c        0     1                 .L0 
    1a50 20001b80        0     1                 .L0 
    1a50 20001b80        0     1                 .L9
    1a54 20001b84        0     1                 .L0 
    1a56 20001b86        0     1                 .L0 
    1a58 20001b88        0     1                 .L0 
    1a58 20001b88        0     1                 .L0 
    1a58 20001b88        0     1                 .L0 
    1a58 20001b88        0     1                 .LFB93
    1a58 20001b88        0     1                 .LFE94
    1a58 20001b88       9c     1                 clock_set_32k_tick
    1a5a 20001b8a        0     1                 .L0 
    1a5c 20001b8c        0     1                 .L0 
    1a80 20001bb0        0     1                 .L0 
    1a84 20001bb4        0     1                 .L0 
    1a84 20001bb4        0     1                 .L11
    1a9a 20001bca        0     1                 .L0 
    1aa6 20001bd6        0     1                 .L0 
    1ab4 20001be4        0     1                 .L0 
    1abc 20001bec        0     1                 .L0 
    1ac4 20001bf4        0     1                 .L0 
    1acc 20001bfc        0     1                 .L0 
    1ad4 20001c04        0     1                 .L0 
    1ad8 20001c08        0     1                 .L0 
    1ad8 20001c08        0     1                 .L12
    1aec 20001c1c        0     1                 .L0 
    1af0 20001c20        0     1                 .L0 
    1af4 20001c24        0     1                 .L0 
    1af4 20001c24       1c     1                 mspi_wait
    1af4 20001c24        0     1                 .L0 
    1af4 20001c24        0     1                 .L0 
    1af4 20001c24        0     1                 .L0 
    1af4 20001c24        0     1                 .LFB66
    1af4 20001c24        0     1                 .LFE93
    1af8 20001c28        0     1                 .L0 
    1af8 20001c28        0     1                 .L20
    1b0c 20001c3c        0     1                 .L0 
    1b10 20001c40        0     1                 .L0 
    1b10 20001c40       28     1                 mspi_high
    1b10 20001c40        0     1                 .L0 
    1b10 20001c40        0     1                 .L0 
    1b10 20001c40        0     1                 .L0 
    1b10 20001c40        0     1                 .LFB72
    1b10 20001c40        0     1                 .LFE66
    1b34 20001c64        0     1                 .L0 
    1b38 20001c68        0     1                 .L0 
    1b38 20001c68       2c     1                 mspi_stop_xip
    1b38 20001c68        0     1                 .L0 
    1b38 20001c68        0     1                 .L0 
    1b38 20001c68        0     1                 .LFB78
    1b38 20001c68        0     1                 .LFE72
    1b3a 20001c6a        0     1                 .L0 
    1b3c 20001c6c        0     1                 .L0 
    1b3c 20001c6c        0     1                 .L0 
    1b3e 20001c6e        0     1                 .L0 
    1b40 20001c70        0     1                 .L0 
    1b44 20001c74        0     1                 .L0 
    1b44 20001c74        0     1                 .L23
    1b5c 20001c8c        0     1                 .L0 
    1b60 20001c90        0     1                 .L0 
    1b62 20001c92        0     1                 .L0 
    1b64 20001c94        0     1                 .L0 
    1b64 20001c94        0     1                 .L0 
    1b64 20001c94        0     1                 .L0 
    1b64 20001c94        0     1                 .LFB95
    1b64 20001c94        0     1                 .LFE78
    1b64 20001c94      3e0     1                 clock_init_ram
    1b66 20001c96        0     1                 .L0 
    1b68 20001c98        0     1                 .L0 
    1b92 20001cc2        0     1                 .L0 
    1b94 20001cc4        0     1                 .L0 
    1bb6 20001ce6        0     1                 .L0 
    1be4 20001d14        0     1                 .L0 
    1c12 20001d42        0     1                 .L0 
    1c1e 20001d4e        0     1                 .L0 
    1c44 20001d74        0     1                 .L0 
    1c60 20001d90        0     1                 .L0 
    1c64 20001d94        0     1                 .L0 
    1c64 20001d94        0     1                 .L37
    1c7a 20001daa        0     1                 .L0 
    1c96 20001dc6        0     1                 .L0 
    1ca0 20001dd0        0     1                 .L0 
    1cc8 20001df8        0     1                 .L0 
    1cc8 20001df8        0     1                 .L38
    1d02 20001e32        0     1                 .L0 
    1d26 20001e56        0     1                 .L0 
    1d4a 20001e7a        0     1                 .L0 
    1d64 20001e94        0     1                 .L0 
    1d64 20001e94        0     1                 .L39
    1d6e 20001e9e        0     1                 .L0 
    1d94 20001ec4        0     1                 .L0 
    1d94 20001ec4        0     1                 .L40
    1db8 20001ee8        0     1                 .L0 
    1db8 20001ee8        0     1                 .L41
    1dc2 20001ef2        0     1                 .L0 
    1de8 20001f18        0     1                 .L0 
    1de8 20001f18        0     1                 .L42
    1e28 20001f58        0     1                 .L0 
    1e28 20001f58        0     1                 .L43
    1e32 20001f62        0     1                 .L0 
    1e66 20001f96        0     1                 .L0 
    1e84 20001fb4        0     1                 .L0 
    1e84 20001fb4        0     1                 .L44
    1e8e 20001fbe        0     1                 .L0 
    1ea0 20001fd0        0     1                 .L0 
    1ea0 20001fd0        0     1                 .L46
    1eac 20001fdc        0     1                 .L0 
    1eac 20001fdc        0     1                 .L45
    1ee8 20002018        0     1                 .L0 
    1f04 20002034        0     1                 .L0 
    1f20 20002050        0     1                 .L0 
    1f2c 2000205c        0     1                 .L0 
    1f3c 2000206c        0     1                 .L0 
    1f3c 2000206c        0     1                 .L48
    1f40 20002070        0     1                 .L0 
    1f42 20002072        0     1                 .L0 
    1f44 20002074        0     1                 .L0 
    1f44 20002074        0     1                 .L0 
    1f44 20002074        0     1                 .LFE95
    1f44 20002074      486     4         ./drivers/flash.o:(.ram_code)
    1f44 20002074        0     1                 .L0 
    1f44 20002074        0     1                 .L0 
    1f44 20002074        0     1                 .LFB103
    1f44 20002074       34     1                 flash_send_cmd
    1f46 20002076        0     1                 .L0 
    1f48 20002078        0     1                 .L0 
    1f4e 2000207e        0     1                 .L0 
    1f50 20002080        0     1                 .L0 
    1f64 20002094        0     1                 .L0 
    1f66 20002096        0     1                 .L0 
    1f6e 2000209e        0     1                 .L0 
    1f70 200020a0        0     1                 .L0 
    1f74 200020a4        0     1                 .L0 
    1f76 200020a6        0     1                 .L0 
    1f78 200020a8       1c     1                 mspi_wait
    1f78 200020a8        0     1                 .L0 
    1f78 200020a8        0     1                 .L0 
    1f78 200020a8        0     1                 .L0 
    1f78 200020a8        0     1                 .L0 
    1f78 200020a8        0     1                 .LFB67
    1f78 200020a8        0     1                 .LFE103
    1f7c 200020ac        0     1                 .L0 
    1f7c 200020ac        0     1                 .L33
    1f90 200020c0        0     1                 .L0 
    1f94 200020c4        0     1                 .L0 
    1f94 200020c4       28     1                 mspi_fm_rd_trig_en
    1f94 200020c4        0     1                 .L0 
    1f94 200020c4        0     1                 .L0 
    1f94 200020c4        0     1                 .L0 
    1f94 200020c4        0     1                 .LFB68
    1f94 200020c4        0     1                 .LFE67
    1fb8 200020e8        0     1                 .L0 
    1fbc 200020ec        0     1                 .L0 
    1fbc 200020ec       28     1                 mspi_fm_rd_trig_dis
    1fbc 200020ec        0     1                 .L0 
    1fbc 200020ec        0     1                 .L0 
    1fbc 200020ec        0     1                 .L0 
    1fbc 200020ec        0     1                 .LFB69
    1fbc 200020ec        0     1                 .LFE68
    1fde 2000210e        0     1                 .L0 
    1fe4 20002114        0     1                 .L0 
    1fe4 20002114       28     1                 mspi_fm_read_en
    1fe4 20002114        0     1                 .L0 
    1fe4 20002114        0     1                 .L0 
    1fe4 20002114        0     1                 .L0 
    1fe4 20002114        0     1                 .LFB70
    1fe4 20002114        0     1                 .LFE69
    2008 20002138        0     1                 .L0 
    200c 2000213c        0     1                 .L0 
    200c 2000213c       28     1                 mspi_fm_write_en
    200c 2000213c        0     1                 .L0 
    200c 2000213c        0     1                 .L0 
    200c 2000213c        0     1                 .L0 
    200c 2000213c        0     1                 .LFB71
    200c 2000213c        0     1                 .LFE70
    202e 2000215e        0     1                 .L0 
    2034 20002164        0     1                 .L0 
    2034 20002164       44     1                 mspi_fm_data_line
    2034 20002164        0     1                 .L0 
    2034 20002164        0     1                 .L0 
    2034 20002164        0     1                 .LFB72
    2034 20002164        0     1                 .LFE71
    2036 20002166        0     1                 .L0 
    203c 2000216c        0     1                 .L0 
    2070 200021a0        0     1                 .L0 
    2074 200021a4        0     1                 .L0 
    2078 200021a8       28     1                 mspi_high
    2078 200021a8        0     1                 .L0 
    2078 200021a8        0     1                 .L0 
    2078 200021a8        0     1                 .L0 
    2078 200021a8        0     1                 .L0 
    2078 200021a8        0     1                 .LFB73
    2078 200021a8        0     1                 .LFE72
    209c 200021cc        0     1                 .L0 
    20a0 200021d0       28     1                 mspi_low
    20a0 200021d0        0     1                 .L0 
    20a0 200021d0        0     1                 .L0 
    20a0 200021d0        0     1                 .L0 
    20a0 200021d0        0     1                 .L0 
    20a0 200021d0        0     1                 .LFB74
    20a0 200021d0        0     1                 .LFE73
    20c2 200021f2        0     1                 .L0 
    20c8 200021f8        0     1                 .L0 
    20c8 200021f8       14     1                 mspi_get
    20c8 200021f8        0     1                 .L0 
    20c8 200021f8        0     1                 .L0 
    20c8 200021f8        0     1                 .L0 
    20c8 200021f8        0     1                 .LFB75
    20c8 200021f8        0     1                 .LFE74
    20d8 20002208        0     1                 .L0 
    20dc 2000220c       20     1                 mspi_write
    20dc 2000220c        0     1                 .L0 
    20dc 2000220c        0     1                 .L0 
    20dc 2000220c        0     1                 .L0 
    20dc 2000220c        0     1                 .LFB76
    20dc 2000220c        0     1                 .LFE75
    20de 2000220e        0     1                 .L0 
    20e4 20002214        0     1                 .L0 
    20f4 20002224        0     1                 .L0 
    20f8 20002228        0     1                 .L0 
    20fc 2000222c        0     1                 .L0 
    20fc 2000222c       18     1                 mspi_read
    20fc 2000222c        0     1                 .L0 
    20fc 2000222c        0     1                 .L0 
    20fc 2000222c        0     1                 .LFB78
    20fc 2000222c        0     1                 .LFE76
    20fe 2000222e        0     1                 .L0 
    2100 20002230        0     1                 .L0 
    2100 20002230        0     1                 .L0 
    2104 20002234        0     1                 .L0 
    2106 20002236        0     1                 .L0 
    210a 2000223a        0     1                 .L0 
    210e 2000223e        0     1                 .L0 
    2110 20002240        0     1                 .L0 
    2114 20002244        0     1                 .L0 
    2114 20002244       2c     1                 mspi_stop_xip
    2114 20002244        0     1                 .L0 
    2114 20002244        0     1                 .L0 
    2114 20002244        0     1                 .LFB79
    2114 20002244        0     1                 .LFE78
    2116 20002246        0     1                 .L0 
    2118 20002248        0     1                 .L0 
    2118 20002248        0     1                 .L0 
    211a 2000224a        0     1                 .L0 
    211c 2000224c        0     1                 .L0 
    2120 20002250        0     1                 .L0 
    2120 20002250        0     1                 .L47
    2138 20002268        0     1                 .L0 
    213c 2000226c        0     1                 .L0 
    213e 2000226e        0     1                 .L0 
    2140 20002270        0     1                 .L0 
    2140 20002270       14     1                 flash_is_busy
    2140 20002270        0     1                 .L0 
    2140 20002270        0     1                 .L0 
    2140 20002270        0     1                 .LFB102
    2140 20002270        0     1                 .LFE79
    2142 20002272        0     1                 .L0 
    2144 20002274        0     1                 .L0 
    2144 20002274        0     1                 .L0 
    214a 2000227a        0     1                 .L0 
    214e 2000227e        0     1                 .L0 
    2150 20002280        0     1                 .L0 
    2154 20002284        0     1                 .L0 
    2154 20002284       38     1                 flash_send_addr
    2154 20002284        0     1                 .L0 
    2154 20002284        0     1                 .L0 
    2154 20002284        0     1                 .LFB104
    2154 20002284        0     1                 .LFE102
    2156 20002286        0     1                 .L0 
    2158 20002288        0     1                 .L0 
    215a 2000228a        0     1                 .L0 
    2166 20002296        0     1                 .L0 
    2168 20002298        0     1                 .L0 
    2174 200022a4        0     1                 .L0 
    2176 200022a6        0     1                 .L0 
    2180 200022b0        0     1                 .L0 
    2182 200022b2        0     1                 .L0 
    2186 200022b6        0     1                 .L0 
    2188 200022b8        0     1                 .L0 
    218c 200022bc        0     1                 .L0 
    218c 200022bc       38     1                 flash_wait_done
    218c 200022bc        0     1                 .L0 
    218c 200022bc        0     1                 .L0 
    218c 200022bc        0     1                 .LFB105
    218c 200022bc        0     1                 .LFE104
    218e 200022be        0     1                 .L0 
    2190 200022c0        0     1                 .L0 
    2190 200022c0        0     1                 .L0 
    2194 200022c4        0     1                 .L0 
    2198 200022c8        0     1                 .L0 
    2198 200022c8        0     1                 .L55
    219e 200022ce        0     1                 .L0 
    21a4 200022d4        0     1                 .L0 
    21a4 200022d4        0     1                 .L52
    21b4 200022e4        0     1                 .L0 
    21b4 200022e4        0     1                 .L56
    21b8 200022e8        0     1                 .L0 
    21b8 200022e8        0     1                 .L54
    21ba 200022ea        0     1                 .L0 
    21be 200022ee        0     1                 .L0 
    21c0 200022f0        0     1                 .L0 
    21c4 200022f4        0     1                 .L0 
    21c4 200022f4        0     1                 .L0 
    21c4 200022f4        0     1                 .L0 
    21c4 200022f4        0     1                 .LFB106
    21c4 200022f4        0     1                 .LFE105
    21c4 200022f4      100     1                 flash_mspi_read_ram
    21c6 200022f6        0     1                 .L0 
    21ca 200022fa        0     1                 .L0 
    21e2 20002312        0     1                 .L0 
    21f8 20002328        0     1                 .L0 
    21fa 2000232a        0     1                 .L0 
    21fc 2000232c        0     1                 .L0 
    2200 20002330        0     1                 .L0 
    2208 20002338        0     1                 .L0 
    2214 20002344        0     1                 .L0 
    2218 20002348        0     1                 .L0 
    2218 20002348        0     1                 .L58
    221e 2000234e        0     1                 .L0 
    2224 20002354        0     1                 .L0 
    2224 20002354        0     1                 .L59
    2224 20002354        0     1                 .LBB2
    2228 20002358        0     1                 .L0 
    2228 20002358        0     1                 .L61
    222c 2000235c        0     1                 .L0 
    222e 2000235e        0     1                 .L0 
    2234 20002364        0     1                 .L0 
    2234 20002364        0     1                 .L60
    223e 2000236e        0     1                 .L0 
    223e 2000236e        0     1                 .LBE2
    224a 2000237a        0     1                 .L0 
    2250 20002380        0     1                 .L0 
    2250 20002380        0     1                 .L62
    2252 20002382        0     1                 .L0 
    2256 20002386        0     1                 .L0 
    2258 20002388        0     1                 .L0 
    225a 2000238a        0     1                 .L0 
    225c 2000238c        0     1                 .L0 
    225c 2000238c        0     1                 .LBB3
    2260 20002390        0     1                 .L0 
    2260 20002390        0     1                 .L64
    2270 200023a0        0     1                 .L0 
    2272 200023a2        0     1                 .L0 
    2278 200023a8        0     1                 .L0 
    2278 200023a8        0     1                 .L63
    2280 200023b0        0     1                 .L0 
    2280 200023b0        0     1                 .LBE3
    2284 200023b4        0     1                 .L0 
    2290 200023c0        0     1                 .L0 
    229c 200023cc        0     1                 .L0 
    229c 200023cc        0     1                 .L65
    22a0 200023d0        0     1                 .L0 
    22a0 200023d0        0     1                 .L66
    22a2 200023d2        0     1                 .L0 
    22ac 200023dc        0     1                 .L0 
    22b8 200023e8        0     1                 .L0 
    22bc 200023ec        0     1                 .L0 
    22be 200023ee        0     1                 .L0 
    22c0 200023f0        0     1                 .L0 
    22c4 200023f4        0     1                 .L0 
    22c4 200023f4        0     1                 .L0 
    22c4 200023f4        0     1                 .L0 
    22c4 200023f4        0     1                 .LFB107
    22c4 200023f4        0     1                 .LFE106
    22c4 200023f4       b4     1                 flash_mspi_write_ram
    22c6 200023f6        0     1                 .L0 
    22c8 200023f8        0     1                 .L0 
    22da 2000240a        0     1                 .L0 
    22f0 20002420        0     1                 .L0 
    22f2 20002422        0     1                 .L0 
    22f4 20002424        0     1                 .L0 
    22f8 20002428        0     1                 .L0 
    22fc 2000242c        0     1                 .L0 
    2304 20002434        0     1                 .L0 
    230a 2000243a        0     1                 .L0 
    2310 20002440        0     1                 .L0 
    2310 20002440        0     1                 .L68
    231c 2000244c        0     1                 .L0 
    2320 20002450        0     1                 .L0 
    2320 20002450        0     1                 .L69
    2320 20002450        0     1                 .LBB4
    2324 20002454        0     1                 .L0 
    2324 20002454        0     1                 .L71
    2332 20002462        0     1                 .L0 
    2334 20002464        0     1                 .L0 
    233c 2000246c        0     1                 .L0 
    233c 2000246c        0     1                 .L70
    2344 20002474        0     1                 .L0 
    2344 20002474        0     1                 .LBE4
    2346 20002476        0     1                 .L0 
    2352 20002482        0     1                 .L0 
    2358 20002488        0     1                 .L0 
    2358 20002488        0     1                 .L72
    235a 2000248a        0     1                 .L0 
    2364 20002494        0     1                 .L0 
    2370 200024a0        0     1                 .L0 
    2374 200024a4        0     1                 .L0 
    2376 200024a6        0     1                 .L0 
    2378 200024a8        0     1                 .L0 
    2378 200024a8        0     1                 .L0 
    2378 200024a8        0     1                 .L0 
    2378 200024a8        0     1                 .LFB122
    2378 200024a8        0     1                 .LFE107
    2378 200024a8       50     1                 flash_set_xip_config_sram
    237a 200024aa        0     1                 .L0 
    237c 200024ac        0     1                 .L0 
    2380 200024b0        0     1                 .L0 
    2396 200024c6        0     1                 .L0 
    2398 200024c8        0     1                 .L0 
    23aa 200024da        0     1                 .L0 
    23b4 200024e4        0     1                 .L0 
    23c0 200024f0        0     1                 .L0 
    23c4 200024f4        0     1                 .L0 
    23c6 200024f6        0     1                 .L0 
    23c8 200024f8        0     1                 .L0 
    23c8 200024f8        0     1                 .L0 
    23c8 200024f8        0     1                 .LFE122
    23cc 200024fc      122     4         ./drivers/plmt.o:(.ram_code)
    23cc 200024fc        0     1                 .L0 
    23cc 200024fc        0     1                 .L0 
    23cc 200024fc        0     1                 .LFB20
    23cc 200024fc       38     1                 mtime_set_value
    23ce 200024fe        0     1                 .L0 
    23d2 20002502        0     1                 .L0 
    23de 2000250e        0     1                 .L0 
    23e2 20002512        0     1                 .L0 
    23ea 2000251a        0     1                 .L0 
    23f4 20002524        0     1                 .L0 
    23fc 2000252c        0     1                 .L0 
    2400 20002530        0     1                 .L0 
    2404 20002534        0     1                 .L0 
    2404 20002534        0     1                 .L0 
    2404 20002534        0     1                 .L0 
    2404 20002534        0     1                 .LFB19
    2404 20002534        0     1                 .LFE20
    2404 20002534       4c     1                 mtime_get_value
    2408 20002538        0     1                 .L0 
    2408 20002538        0     1                 .L0 
    2408 20002538        0     1                 .L9
    2408 20002538        0     1                 .LBB2
    2412 20002542        0     1                 .L0 
    241a 2000254a        0     1                 .L0 
    2428 20002558        0     1                 .L0 
    2446 20002576        0     1                 .L0 
    2446 20002576        0     1                 .LBE2
    244c 2000257c        0     1                 .L0 
    2450 20002580        0     1                 .L0 
    2450 20002580        0     1                 .L0 
    2450 20002580        0     1                 .L0 
    2450 20002580        0     1                 .LFB21
    2450 20002580        0     1                 .LFE19
    2450 20002580       3c     1                 mtime_set_cmp_value
    2452 20002582        0     1                 .L0 
    2456 20002586        0     1                 .L0 
    2462 20002592        0     1                 .L0 
    2466 20002596        0     1                 .L0 
    2470 200025a0        0     1                 .L0 
    247a 200025aa        0     1                 .L0 
    2484 200025b4        0     1                 .L0 
    2488 200025b8        0     1                 .L0 
    248c 200025bc        0     1                 .L0 
    248c 200025bc        0     1                 .L0 
    248c 200025bc        0     1                 .L0 
    248c 200025bc        0     1                 .LFB22
    248c 200025bc        0     1                 .LFE21
    248c 200025bc       62     1                 mtime_set_interval_ms
    248e 200025be        0     1                 .L0 
    2498 200025c8        0     1                 .L0 
    249c 200025cc        0     1                 .L0 
    24de 2000260e        0     1                 .L0 
    24e2 20002612        0     1                 .L0 
    24e4 20002614        0     1                 .L0 
    24e6 20002616        0     1                 .L0 
    24e8 20002618        0     1                 .L0 
    24ea 2000261a        0     1                 .L0 
    24ec 2000261c        0     1                 .L0 
    24ee 2000261e        0     1                 .L0 
    24ee 2000261e        0     1                 .L0 
    24ee 2000261e        0     1                 .LFE22
    24f0 20002620      246     4         ./drivers/spi.o:(.ram_code)
    24f0 20002620        0     1                 .L0 
    24f0 20002620        0     1                 .L0 
    24f0 20002620        0     1                 .LFB159
    24f0 20002620       b4     1                 spi_set_tx_dma
    24f2 20002622        0     1                 .L0 
    24f4 20002624        0     1                 .L0 
    24fe 2000262e        0     1                 .L0 
    2508 20002638        0     1                 .L0 
    2514 20002644        0     1                 .L0 
    2514 20002644        0     1                 .L50
    251c 2000264c        0     1                 .L0 
    251c 2000264c        0     1                 .L51
    252c 2000265c        0     1                 .L0 
    253c 2000266c        0     1                 .L0 
    254a 2000267a        0     1                 .L0 
    257a 200026aa        0     1                 .L0 
    258c 200026bc        0     1                 .L0 
    259a 200026ca        0     1                 .L0 
    259e 200026ce        0     1                 .L0 
    25a0 200026d0        0     1                 .L0 
    25a4 200026d4        0     1                 .L0 
    25a4 200026d4        0     1                 .L0 
    25a4 200026d4        0     1                 .L0 
    25a4 200026d4        0     1                 .LFB160
    25a4 200026d4        0     1                 .LFE159
    25a4 200026d4       a4     1                 spi_set_rx_dma
    25a6 200026d6        0     1                 .L0 
    25a8 200026d8        0     1                 .L0 
    25b2 200026e2        0     1                 .L0 
    25bc 200026ec        0     1                 .L0 
    25c8 200026f8        0     1                 .L0 
    25c8 200026f8        0     1                 .L53
    25d0 20002700        0     1                 .L0 
    25d0 20002700        0     1                 .L54
    25e0 20002710        0     1                 .L0 
    25ee 2000271e        0     1                 .L0 
    261e 2000274e        0     1                 .L0 
    2630 20002760        0     1                 .L0 
    263e 2000276e        0     1                 .L0 
    2642 20002772        0     1                 .L0 
    2644 20002774        0     1                 .L0 
    2648 20002778        0     1                 .L0 
    2648 20002778        0     1                 .L0 
    2648 20002778        0     1                 .L0 
    2648 20002778        0     1                 .LFB166
    2648 20002778        0     1                 .LFE160
    2648 20002778       74     1                 hspi_master_write_xip
    264a 2000277a        0     1                 .L0 
    264c 2000277c        0     1                 .L0 
    265e 2000278e        0     1                 .L0 
    266c 2000279c        0     1                 .L0 
    2676 200027a6        0     1                 .L0 
    2684 200027b4        0     1                 .L0 
    2684 200027b4        0     1                 .LBB6
    2688 200027b8        0     1                 .L0 
    2688 200027b8        0     1                 .L203
    26a4 200027d4        0     1                 .L0 
    26ac 200027dc        0     1                 .L0 
    26ac 200027dc        0     1                 .L202
    26b4 200027e4        0     1                 .L0 
    26b4 200027e4        0     1                 .LBE6
    26b8 200027e8        0     1                 .L0 
    26ba 200027ea        0     1                 .L0 
    26bc 200027ec        0     1                 .L0 
    26bc 200027ec        0     1                 .L0 
    26bc 200027ec        0     1                 .L0 
    26bc 200027ec        0     1                 .LFB167
    26bc 200027ec        0     1                 .LFE166
    26bc 200027ec       78     1                 hspi_master_read_xip
    26be 200027ee        0     1                 .L0 
    26c0 200027f0        0     1                 .L0 
    26d2 20002802        0     1                 .L0 
    26e0 20002810        0     1                 .L0 
    26ea 2000281a        0     1                 .L0 
    26f8 20002828        0     1                 .L0 
    26f8 20002828        0     1                 .LBB7
    26fc 2000282c        0     1                 .L0 
    26fc 2000282c        0     1                 .L206
    271e 2000284e        0     1                 .L0 
    2724 20002854        0     1                 .L0 
    2724 20002854        0     1                 .L205
    272c 2000285c        0     1                 .L0 
    272c 2000285c        0     1                 .LBE7
    2730 20002860        0     1                 .L0 
    2732 20002862        0     1                 .L0 
    2734 20002864        0     1                 .L0 
    2734 20002864        0     1                 .L0 
    2734 20002864        0     1                 .LFE167
    2738 20002868       74     4         ./drivers/stimer.o:(.ram_code)
    2738 20002868        0     1                 .L0 
    2738 20002868        0     1                 .L0 
    2738 20002868        0     1                 .LFB10
    2738 20002868       34     1                 delay_us
    273a 2000286a        0     1                 .L0 
    273c 2000286c        0     1                 .L0 
    273e 2000286e        0     1                 .L0 
    2748 20002878        0     1                 .L0 
    274c 2000287c        0     1                 .L0 
    274c 2000287c        0     1                 .L6
    2764 20002894        0     1                 .L0 
    2768 20002898        0     1                 .L0 
    276a 2000289a        0     1                 .L0 
    276c 2000289c        0     1                 .L0 
    276c 2000289c        0     1                 .L0 
    276c 2000289c        0     1                 .L0 
    276c 2000289c        0     1                 .LFB11
    276c 2000289c        0     1                 .LFE10
    276c 2000289c       3e     1                 delay_ms
    276e 2000289e        0     1                 .L0 
    2770 200028a0        0     1                 .L0 
    2772 200028a2        0     1                 .L0 
    277c 200028ac        0     1                 .L0 
    2780 200028b0        0     1                 .L0 
    2780 200028b0        0     1                 .L8
    27a2 200028d2        0     1                 .L0 
    27a6 200028d6        0     1                 .L0 
    27a8 200028d8        0     1                 .L0 
    27aa 200028da        0     1                 .L0 
    27aa 200028da        0     1                 .L0 
    27aa 200028da        0     1                 .LFE11
    27ac 200028dc      7a0     4         ./common/usb_dbg/myudb_usb.o:(.ram_code)
    27ac 200028dc        0     1                 .L0 
    27ac 200028dc        0     1                 .L0 
    27ac 200028dc        0     1                 .LFB381
    27ac 200028dc      130     1                 usb_send_status_pkt
    27ae 200028de        0     1                 .L0 
    27b0 200028e0        0     1                 .L0 
    27c6 200028f6        0     1                 .L0 
    27ec 2000291c        0     1                 .L0 
    27f6 20002926        0     1                 .L0 
    282c 2000295c        0     1                 .L0 
    2838 20002968        0     1                 .L0 
    2840 20002970        0     1                 .L0 
    2840 20002970        0     1                 .L93
    285a 2000298a        0     1                 .L0 
    2874 200029a4        0     1                 .L0 
    287a 200029aa        0     1                 .L0 
    288a 200029ba        0     1                 .L0 
    289a 200029ca        0     1                 .L0 
    289c 200029cc        0     1                 .L0 
    289c 200029cc        0     1                 .L95
    28b4 200029e4        0     1                 .L0 
    28b4 200029e4        0     1                 .L94
    28c2 200029f2        0     1                 .L0 
    28d0 20002a00        0     1                 .L0 
    28d0 20002a00        0     1                 .L96
    28d4 20002a04        0     1                 .L0 
    28d4 20002a04        0     1                 .L90
    28d6 20002a06        0     1                 .L0 
    28d8 20002a08        0     1                 .L0 
    28dc 20002a0c        0     1                 .L0 
    28dc 20002a0c        0     1                 .L0 
    28dc 20002a0c        0     1                 .L0 
    28dc 20002a0c        0     1                 .LFB383
    28dc 20002a0c        0     1                 .LFE381
    28dc 20002a0c      138     1                 myudb_to_usb
    28de 20002a0e        0     1                 .L0 
    28e0 20002a10        0     1                 .L0 
    28e0 20002a10        0     1                 .L0 
    28f0 20002a20        0     1                 .L0 
    28f6 20002a26        0     1                 .L0 
    290a 20002a3a        0     1                 .L0 
    2944 20002a74        0     1                 .L0 
    2970 20002aa0        0     1                 .L0 
    297c 20002aac        0     1                 .L0 
    297c 20002aac        0     1                 .L110
    2984 20002ab4        0     1                 .L0 
    2984 20002ab4        0     1                 .LBB2
    2998 20002ac8        0     1                 .L111
    299e 20002ace        0     1                 .L0 
    29a8 20002ad8        0     1                 .L0 
    29a8 20002ad8        0     1                 .LBB3
    29ac 20002adc        0     1                 .L0 
    29ac 20002adc        0     1                 .L113
    29c8 20002af8        0     1                 .L0 
    29d0 20002b00        0     1                 .L0 
    29d0 20002b00        0     1                 .L112
    29d8 20002b08        0     1                 .L0 
    29d8 20002b08        0     1                 .LBE3
    29e2 20002b12        0     1                 .L0 
    29f8 20002b28        0     1                 .L0 
    2a02 20002b32        0     1                 .L0 
    2a08 20002b38        0     1                 .L0 
    2a08 20002b38        0     1                 .L114
    2a08 20002b38        0     1                 .LBE2
    2a0c 20002b3c        0     1                 .L0 
    2a0c 20002b3c        0     1                 .L107
    2a0e 20002b3e        0     1                 .L0 
    2a10 20002b40        0     1                 .L0 
    2a14 20002b44        0     1                 .L0 
    2a14 20002b44        0     1                 .L0 
    2a14 20002b44        0     1                 .L0 
    2a14 20002b44        0     1                 .LFB384
    2a14 20002b44        0     1                 .LFE383
    2a14 20002b44       b4     1                 myudb_usb_get_packet
    2a16 20002b46        0     1                 .L0 
    2a18 20002b48        0     1                 .L0 
    2a2e 20002b5e        0     1                 .L0 
    2a2e 20002b5e        0     1                 .LBB4
    2a3e 20002b6e        0     1                 .L0 
    2a50 20002b80        0     1                 .L0 
    2a5c 20002b8c        0     1                 .L0 
    2a5c 20002b8c        0     1                 .LBB5
    2a60 20002b90        0     1                 .L0 
    2a60 20002b90        0     1                 .L118
    2a86 20002bb6        0     1                 .L0 
    2a8c 20002bbc        0     1                 .L0 
    2a8c 20002bbc        0     1                 .L117
    2a94 20002bc4        0     1                 .L0 
    2a94 20002bc4        0     1                 .LBE5
    2aa2 20002bd2        0     1                 .L0 
    2aac 20002bdc        0     1                 .L0 
    2ab2 20002be2        0     1                 .L0 
    2ab6 20002be6        0     1                 .L0 
    2abc 20002bec        0     1                 .L0 
    2abc 20002bec        0     1                 .L116
    2abc 20002bec        0     1                 .LBE4
    2ac0 20002bf0        0     1                 .L0 
    2ac0 20002bf0        0     1                 .L119
    2ac4 20002bf4        0     1                 .L0 
    2ac8 20002bf8        0     1                 .L0 
    2ac8 20002bf8        0     1                 .L0 
    2ac8 20002bf8        0     1                 .L0 
    2ac8 20002bf8        0     1                 .LFB386
    2ac8 20002bf8        0     1                 .LFE384
    2ac8 20002bf8      424     1                 myudb_mem_cmd
    2aca 20002bfa        0     1                 .L0 
    2ad2 20002c02        0     1                 .L0 
    2ad6 20002c06        0     1                 .L0 
    2adc 20002c0c        0     1                 .L0 
    2ae6 20002c16        0     1                 .L0 
    2aea 20002c1a        0     1                 .L0 
    2af6 20002c26        0     1                 .L0 
    2b00 20002c30        0     1                 .L0 
    2b00 20002c30        0     1                 .LBB6
    2b0c 20002c3c        0     1                 .L0 
    2b14 20002c44        0     1                 .L0 
    2b2a 20002c5a        0     1                 .L0 
    2b36 20002c66        0     1                 .L0 
    2b68 20002c98        0     1                 .L0 
    2b84 20002cb4        0     1                 .L0 
    2b90 20002cc0        0     1                 .L0 
    2b98 20002cc8        0     1                 .L0 
    2b98 20002cc8        0     1                 .L123
    2b9e 20002cce        0     1                 .L0 
    2bbc 20002cec        0     1                 .L0 
    2bbc 20002cec        0     1                 .L124
    2bc6 20002cf6        0     1                 .L0 
    2bc6 20002cf6        0     1                 .LBB7
    2bcc 20002cfc        0     1                 .L0 
    2bcc 20002cfc        0     1                 .L128
    2bfe 20002d2e        0     1                 .L0 
    2c08 20002d38        0     1                 .L0 
    2c08 20002d38        0     1                 .L127
    2c18 20002d48        0     1                 .L0 
    2c18 20002d48        0     1                 .L126
    2c18 20002d48        0     1                 .LBE7
    2c22 20002d52        0     1                 .L0 
    2c2c 20002d5c        0     1                 .L0 
    2c2c 20002d5c        0     1                 .L129
    2c44 20002d74        0     1                 .L0 
    2c44 20002d74        0     1                 .L125
    2c60 20002d90        0     1                 .L0 
    2c60 20002d90        0     1                 .LBE6
    2c64 20002d94        0     1                 .L0 
    2c64 20002d94        0     1                 .L122
    2c70 20002da0        0     1                 .L0 
    2c7a 20002daa        0     1                 .L0 
    2c7a 20002daa        0     1                 .LBB8
    2c86 20002db6        0     1                 .L0 
    2c8e 20002dbe        0     1                 .L0 
    2ca4 20002dd4        0     1                 .L0 
    2cae 20002dde        0     1                 .L0 
    2ce0 20002e10        0     1                 .L0 
    2cea 20002e1a        0     1                 .L0 
    2cf0 20002e20        0     1                 .L0 
    2d0c 20002e3c        0     1                 .L0 
    2d0c 20002e3c        0     1                 .L132
    2d16 20002e46        0     1                 .L0 
    2d16 20002e46        0     1                 .LBB9
    2d1c 20002e4c        0     1                 .L0 
    2d1c 20002e4c        0     1                 .L136
    2d48 20002e78        0     1                 .L0 
    2d54 20002e84        0     1                 .L0 
    2d54 20002e84        0     1                 .L135
    2d64 20002e94        0     1                 .L0 
    2d64 20002e94        0     1                 .L134
    2d64 20002e94        0     1                 .LBE9
    2d6e 20002e9e        0     1                 .L0 
    2d88 20002eb8        0     1                 .L0 
    2d88 20002eb8        0     1                 .L137
    2d92 20002ec2        0     1                 .L0 
    2d92 20002ec2        0     1                 .LBB10
    2d9e 20002ece        0     1                 .L0 
    2da8 20002ed8        0     1                 .L0 
    2dbc 20002eec        0     1                 .L0 
    2dbc 20002eec        0     1                 .L139
    2dc6 20002ef6        0     1                 .L0 
    2ddc 20002f0c        0     1                 .L0 
    2ddc 20002f0c        0     1                 .L140
    2de6 20002f16        0     1                 .L0 
    2dfc 20002f2c        0     1                 .L0 
    2dfc 20002f2c        0     1                 .L141
    2e02 20002f32        0     1                 .L0 
    2e02 20002f32        0     1                 .LBB11
    2e08 20002f38        0     1                 .L0 
    2e08 20002f38        0     1                 .L144
    2e1c 20002f4c        0     1                 .L0 
    2e28 20002f58        0     1                 .L0 
    2e28 20002f58        0     1                 .L143
    2e38 20002f68        0     1                 .L0 
    2e38 20002f68        0     1                 .L142
    2e38 20002f68        0     1                 .LBE11
    2e38 20002f68        0     1                 .LBB12
    2e44 20002f74        0     1                 .L0 
    2e4e 20002f7e        0     1                 .L0 
    2e5a 20002f8a        0     1                 .L0 
    2e6a 20002f9a        0     1                 .L0 
    2e6a 20002f9a        0     1                 .LBB13
    2e70 20002fa0        0     1                 .L0 
    2e70 20002fa0        0     1                 .L147
    2e84 20002fb4        0     1                 .L0 
    2e90 20002fc0        0     1                 .L0 
    2e90 20002fc0        0     1                 .L146
    2ea0 20002fd0        0     1                 .L0 
    2ea0 20002fd0        0     1                 .L138
    2ea0 20002fd0        0     1                 .LBE10
    2ea0 20002fd0        0     1                 .LBE12
    2ea0 20002fd0        0     1                 .LBE13
    2eac 20002fdc        0     1                 .L0 
    2eb4 20002fe4        0     1                 .L0 
    2ebc 20002fec        0     1                 .L0 
    2ebc 20002fec        0     1                 .L133
    2ecc 20002ffc        0     1                 .L0 
    2ecc 20002ffc        0     1                 .LBE8
    2ed0 20003000        0     1                 .L0 
    2ed0 20003000        0     1                 .L131
    2ed8 20003008        0     1                 .L0 
    2ed8 20003008        0     1                 .L130
    2edc 2000300c        0     1                 .L0 
    2ee2 20003012        0     1                 .L0 
    2ee6 20003016        0     1                 .L0 
    2ee8 20003018        0     1                 .L0 
    2eec 2000301c        0     1                 .L0 
    2eec 2000301c        0     1                 .L0 
    2eec 2000301c        0     1                 .L0 
    2eec 2000301c        0     1                 .LFB387
    2eec 2000301c        0     1                 .LFE386
    2eec 2000301c       5e     1                 myudb_hci_cmd_from_usb
    2eee 2000301e        0     1                 .L0 
    2ef0 20003020        0     1                 .L0 
    2ef0 20003020        0     1                 .L0 
    2ef4 20003024        0     1                 .L0 
    2ef4 20003024        0     1                 .L153
    2ef4 20003024        0     1                 .LBB14
    2efc 2000302c        0     1                 .L0 
    2f00 20003030        0     1                 .L0 
    2f00 20003030        0     1                 .LBB15
    2f0a 2000303a        0     1                 .L0 
    2f14 20003044        0     1                 .L0 
    2f1c 2000304c        0     1                 .L0 
    2f1c 2000304c        0     1                 .L151
    2f20 20003050        0     1                 .L0 
    2f26 20003056        0     1                 .L0 
    2f34 20003064        0     1                 .L0 
    2f34 20003064        0     1                 .L150
    2f34 20003064        0     1                 .LBE15
    2f38 20003068        0     1                 .L0 
    2f3c 2000306c        0     1                 .L0 
    2f3c 2000306c        0     1                 .L152
    2f3c 2000306c        0     1                 .LBE14
    2f40 20003070        0     1                 .L0 
    2f42 20003072        0     1                 .L0 
    2f46 20003076        0     1                 .L0 
    2f48 20003078        0     1                 .L0 
    2f4a 2000307a        0     1                 .L0 
    2f4a 2000307a        0     1                 .L0 
    2f4a 2000307a        0     1                 .LFE387
    3000 20003130      102   256         ./boot/cstartup_flash.o:(.ram_code)
    3000 20003130        0     1                 __vectors
    3104 20003234      7b8     4         /cygdrive/c/Users/SWAMIN~1/AppData/Local/Temp/ccKdbC8c.ltrans0.ltrans.o:(.ram_code)
    3104 20003234       b8     1                 pm_wait_bbpll_done
    3104 20003234        0     1                 .L0 
    3104 20003234        0     1                 .L0 
    3104 20003234        0     1                 .LFB4
    3106 20003236        0     1                 .L0 
    3106 20003236        0     1                 .L0 
    310a 2000323a        0     1                 .L0 
    3112 20003242        0     1                 .L0 
    3112 20003242        0     1                 .L0 
    3116 20003246        0     1                 .L0 
    311a 2000324a        0     1                 .L0 
    311c 2000324c        0     1                 .L0 
    312a 2000325a        0     1                 .L0 
    312a 2000325a        0     1                 .LBB20
    312a 2000325a        0     1                 .LBB21
    312c 2000325c        0     1                 .L0 
    312c 2000325c        0     1                 .LBE20
    312c 2000325c        0     1                 .LBE21
    3130 20003260        0     1                 .L0 
    3130 20003260        0     1                 .L8
    3130 20003260        0     1                 .LBB23
    3130 20003260        0     1                 .LBB22
    3140 20003270        0     1                 .L0 
    3140 20003270        0     1                 .L3
    3142 20003272        0     1                 .L0 
    315c 2000328c        0     1                 .L0 
    315c 2000328c        0     1                 .L2
    315c 2000328c        0     1                 .LBE22
    3168 20003298        0     1                 .L0 
    316a 2000329a        0     1                 .L0 
    316e 2000329e        0     1                 .L0 
    3178 200032a8        0     1                 .L0 
    317c 200032ac        0     1                 .L6
    3184 200032b4        0     1                 .L0 
    3184 200032b4        0     1                 .L10
    3184 200032b4        0     1                 .LBE23
    3186 200032b6        0     1                 .L0 
    3188 200032b8        0     1                 .L0 
    318a 200032ba        0     1                 .L0 
    318c 200032bc        0     1                 .L0 
    318e 200032be        0     1                 .L0 
    3190 200032c0        0     1                 .L0 
    3190 200032c0        0     1                 .L13
    3192 200032c2        0     1                 .L0 
    3194 200032c4        0     1                 .L0 
    3196 200032c6        0     1                 .L0 
    3196 200032c6        0     1                 .L0 
    3196 200032c6        0     1                 .LBB24
    3198 200032c8        0     1                 .L0 
    3198 200032c8        0     1                 .LBE24
    319a 200032ca        0     1                 .L0 
    319a 200032ca        0     1                 .L0 
    319a 200032ca        0     1                 .LBB25
    319e 200032ce        0     1                 .L0 
    319e 200032ce        0     1                 .LBE25
    31a0 200032d0        0     1                 .L0 
    31a0 200032d0        0     1                 .L0 
    31a0 200032d0        0     1                 .LBB26
    31a4 200032d4        0     1                 .L0 
    31a4 200032d4        0     1                 .L0 
    31a4 200032d4        0     1                 .L14
    31b0 200032e0        0     1                 .L0 
    31b0 200032e0        0     1                 .L15
    31bc 200032ec        0     1                 .L0 
    31bc 200032ec       90     1                 pm_stimer_recover
    31bc 200032ec        0     1                 .L0 
    31bc 200032ec        0     1                 .L0 
    31bc 200032ec        0     1                 .LFE4
    31bc 200032ec        0     1                 .LFB5
    31bc 200032ec        0     1                 .LBE26
    31be 200032ee        0     1                 .L0 
    31be 200032ee        0     1                 .L0 
    31c2 200032f2        0     1                 .L0 
    31c4 200032f4        0     1                 .L0 
    31c4 200032f4        0     1                 .L0 
    31ca 200032fa        0     1                 .L0 
    31da 2000330a        0     1                 .L0 
    31de 2000330e        0     1                 .L0 
    31e8 20003318        0     1                 .L0 
    3200 20003330        0     1                 .L0 
    3200 20003330        0     1                 .L17
    3218 20003348        0     1                 .L0 
    3218 20003348        0     1                 .L18
    321a 2000334a        0     1                 .L0 
    321c 2000334c        0     1                 .L0 
    3222 20003352        0     1                 .L0 
    3224 20003354        0     1                 .L0 
    3226 20003356        0     1                 .L0 
    3228 20003358        0     1                 .L0 
    322c 2000335c        0     1                 .L0 
    3230 20003360        0     1                 .L0 
    3238 20003368        0     1                 .L0 
    3238 20003368        0     1                 .L19
    3240 20003370        0     1                 .L0 
    3244 20003374        0     1                 .L0 
    3246 20003376        0     1                 .L0 
    3248 20003378        0     1                 .L0 
    324c 2000337c        0     1                 .L0 
    324c 2000337c      194     1                 pm_sleep_start
    324c 2000337c        0     1                 .L0 
    324c 2000337c        0     1                 .L0 
    324c 2000337c        0     1                 .L0 
    324c 2000337c        0     1                 .L0 
    324c 2000337c        0     1                 .LFE5
    324c 2000337c        0     1                 .LFB7
    324e 2000337e        0     1                 .L0 
    324e 2000337e        0     1                 .L0 
    3252 20003382        0     1                 .L0 
    3258 20003388        0     1                 .L0 
    3258 20003388        0     1                 .L0 
    3264 20003394        0     1                 .L0 
    3274 200033a4        0     1                 .L0 
    3274 200033a4        0     1                 .L33
    327c 200033ac        0     1                 .L0 
    327c 200033ac        0     1                 .L34
    3280 200033b0        0     1                 .L35
    3288 200033b8        0     1                 .L0 
    328c 200033bc        0     1                 .L0 
    3290 200033c0        0     1                 .L0 
    329c 200033cc        0     1                 .L0 
    329c 200033cc        0     1                 .L36
    32a0 200033d0        0     1                 .L0 
    32a4 200033d4        0     1                 .L0 
    32a8 200033d8        0     1                 .L0 
    32ac 200033dc        0     1                 .L0 
    32b4 200033e4        0     1                 .L0 
    32c0 200033f0        0     1                 .L0 
    32c8 200033f8        0     1                 .L0 
    32c8 200033f8        0     1                 .L37
    32d0 20003400        0     1                 .L0 
    32d4 20003404        0     1                 .L0 
    32d6 20003406        0     1                 .L0 
    32e2 20003412        0     1                 .L0 
    32e6 20003416        0     1                 .L0 
    32f4 20003424        0     1                 .L0 
    330c 2000343c        0     1                 .L0 
    3314 20003444        0     1                 .L0 
    3314 20003444        0     1                 .LBB47
    331c 2000344c        0     1                 .L38
    3322 20003452        0     1                 .L0 
    3324 20003454        0     1                 .L0 
    332c 2000345c        0     1                 .L0 
    332c 2000345c        0     1                 .L55
    332c 2000345c        0     1                 .LBE47
    3340 20003470        0     1                 .L0 
    3354 20003484        0     1                 .L0 
    3360 20003490        0     1                 .L0 
    3368 20003498        0     1                 .L0 
    336c 2000349c        0     1                 .L0 
    3370 200034a0        0     1                 .L0 
    3378 200034a8        0     1                 .L0 
    3380 200034b0        0     1                 .L0 
    3380 200034b0        0     1                 .L40
    3388 200034b8        0     1                 .L0 
    338c 200034bc        0     1                 .L0 
    338c 200034bc        0     1                 .LBB54
    3390 200034c0        0     1                 .L0 
    3390 200034c0        0     1                 .LBE54
    339c 200034cc        0     1                 .L0 
    339c 200034cc        0     1                 .LBB56
    33a0 200034d0        0     1                 .L41
    33a6 200034d6        0     1                 .L0 
    33a8 200034d8        0     1                 .L0 
    33b0 200034e0        0     1                 .L0 
    33b0 200034e0        0     1                 .L43
    33b0 200034e0        0     1                 .LBE56
    33bc 200034ec        0     1                 .L0 
    33bc 200034ec        0     1                 .L44
    33c8 200034f8        0     1                 .L0 
    33c8 200034f8        0     1                 .L45
    33d4 20003504        0     1                 .L0 
    33d6 20003506        0     1                 .L0 
    33d8 20003508        0     1                 .L0 
    33da 2000350a        0     1                 .L0 
    33dc 2000350c        0     1                 .L0 
    33dc 2000350c        0     1                 .L0 
    33e0 20003510        0     1                 .L0 
    33e0 20003510       30     1                 pm_switch_ext32kpad_to_int32krc
    33e0 20003510        0     1                 .L0 
    33e0 20003510        0     1                 .L0 
    33e0 20003510        0     1                 .LFE7
    33e0 20003510        0     1                 .LFB8
    33e2 20003512        0     1                 .L0 
    33e2 20003512        0     1                 .L0 
    33e6 20003516        0     1                 .L0 
    33e8 20003518        0     1                 .L0 
    33e8 20003518        0     1                 .L0 
    33f8 20003528        0     1                 .L0 
    3400 20003530        0     1                 .L0 
    3402 20003532        0     1                 .L0 
    3402 20003532        0     1                 .L0 
    3406 20003536        0     1                 .L0 
    3406 20003536        0     1                 .L0 
    340a 2000353a        0     1                 .L0 
    340c 2000353c        0     1                 .L0 
    340c 2000353c        0     1                 .L0 
    3410 20003540        0     1                 .L0 
    3410 20003540        0     1                 .L0 
    3410 20003540        0     1                 .L0 
    3410 20003540        0     1                 .L0 
    3410 20003540        0     1                 .LFE8
    3410 20003540        0     1                 .LFB11
    3410 20003540       a8     1                 rf_set_chn
    3418 20003548        0     1                 .L0 
    3424 20003554        0     1                 .L0 
    3430 20003560        0     1                 .L0 
    343c 2000356c        0     1                 .L0 
    3448 20003578        0     1                 .L0 
    3454 20003584        0     1                 .L0 
    3464 20003594        0     1                 .L0 
    3464 20003594        0     1                 .L72
    3468 20003598        0     1                 .L0 
    346c 2000359c        0     1                 .L0 
    3470 200035a0        0     1                 .L0 
    3474 200035a4        0     1                 .L0 
    3480 200035b0        0     1                 .L0 
    3484 200035b4        0     1                 .L0 
    3488 200035b8        0     1                 .L0 
    3494 200035c4        0     1                 .L0 
    34a6 200035d6        0     1                 .L0 
    34b6 200035e6        0     1                 .L0 
    34b8 200035e8        0     1                 .L0 
    34b8 200035e8        0     1                 .L0 
    34b8 200035e8        0     1                 .L0 
    34b8 200035e8        0     1                 .L0 
    34b8 200035e8        0     1                 .LFE11
    34b8 200035e8        0     1                 .LFB12
    34b8 200035e8       3c     1                 rf_start_stx
    34c8 200035f8        0     1                 .L80
    34d0 20003600        0     1                 .L0 
    34d8 20003608        0     1                 .L0 
    34e8 20003618        0     1                 .L0 
    34f0 20003620        0     1                 .L0 
    34f4 20003624        0     1                 .L0 
    34f4 20003624        0     1                 .L0 
    34f4 20003624        0     1                 .L0 
    34f4 20003624        0     1                 .L0 
    34f4 20003624        0     1                 .LFE12
    34f4 20003624        0     1                 .LFB13
    34f4 20003624       40     1                 rf_set_rxmode
    3500 20003630        0     1                 .L0 
    3510 20003640        0     1                 .L0 
    3520 20003650        0     1                 .L0 
    3530 20003660        0     1                 .L0 
    3534 20003664        0     1                 .L0 
    3534 20003664        0     1                 .L0 
    3534 20003664        0     1                 .L0 
    3534 20003664        0     1                 .L0 
    3534 20003664        0     1                 .LFE13
    3534 20003664        0     1                 .LFB33
    3534 20003664       58     1                 plic_enter_critical_sec
    3540 20003670        0     1                 .L0 
    3546 20003676        0     1                 .L0 
    354a 2000367a        0     1                 .L0 
    354a 2000367a        0     1                 .LBB81
    354a 2000367a        0     1                 .LBB83
    354a 2000367a        0     1                 .LBB84
    3550 20003680        0     1                 .L0 
    3552 20003682        0     1                 .L0 
    3556 20003686        0     1                 .L0 
    355a 2000368a        0     1                 .L0 
    355a 2000368a        0     1                 .LBE83
    355a 2000368a        0     1                 .LBE84
    355c 2000368c        0     1                 .L0 
    3560 20003690        0     1                 .L0 
    3560 20003690        0     1                 .LBB85
    3564 20003694        0     1                 .L0 
    356c 2000369c        0     1                 .L0 
    356c 2000369c        0     1                 .L136
    356c 2000369c        0     1                 .LBE85
    356c 2000369c        0     1                 .LBB88
    356c 2000369c        0     1                 .LBB89
    356c 2000369c        0     1                 .LBE81
    3572 200036a2        0     1                 .L0 
    3574 200036a4        0     1                 .L0 
    3578 200036a8        0     1                 .L0 
    3580 200036b0        0     1                 .L0 
    3580 200036b0        0     1                 .L138
    3580 200036b0        0     1                 .LBE88
    3580 200036b0        0     1                 .LBE89
    3580 200036b0        0     1                 .LBB90
    3584 200036b4        0     1                 .L0 
    3588 200036b8        0     1                 .L0 
    3588 200036b8        0     1                 .L135
    3588 200036b8        0     1                 .LBE90
    358c 200036bc        0     1                 .L0 
    358c 200036bc        0     1                 .L0 
    358c 200036bc        0     1                 .L0 
    358c 200036bc        0     1                 .L0 
    358c 200036bc        0     1                 .LFE33
    358c 200036bc        0     1                 .LFB34
    358c 200036bc       50     1                 plic_exit_critical_sec
    3598 200036c8        0     1                 .L0 
    3598 200036c8        0     1                 .LBB91
    3598 200036c8        0     1                 .LBB93
    3598 200036c8        0     1                 .LBB94
    35a2 200036d2        0     1                 .L0 
    35a4 200036d4        0     1                 .L0 
    35a8 200036d8        0     1                 .L0 
    35ac 200036dc        0     1                 .L0 
    35ac 200036dc        0     1                 .LBE93
    35ac 200036dc        0     1                 .LBE94
    35b2 200036e2        0     1                 .L0 
    35b6 200036e6        0     1                 .L0 
    35b6 200036e6        0     1                 .LBB95
    35ba 200036ea        0     1                 .L0 
    35c0 200036f0        0     1                 .L0 
    35c0 200036f0        0     1                 .L149
    35c0 200036f0        0     1                 .LBE95
    35c0 200036f0        0     1                 .LBB98
    35c0 200036f0        0     1                 .LBE91
    35c2 200036f2        0     1                 .L0 
    35c6 200036f6        0     1                 .L0 
    35cc 200036fc        0     1                 .L0 
    35cc 200036fc        0     1                 .L150
    35cc 200036fc        0     1                 .LBE98
    35cc 200036fc        0     1                 .LBB100
    35d4 20003704        0     1                 .L0 
    35d8 20003708        0     1                 .L0 
    35d8 20003708        0     1                 .L148
    35d8 20003708        0     1                 .LBE100
    35dc 2000370c        0     1                 .L0 
    35dc 2000370c      2e0     1                 pm_sleep_wakeup_ram.constprop.1
    35dc 2000370c        0     1                 .L0 
    35dc 2000370c        0     1                 .L0 
    35dc 2000370c        0     1                 .LFE34
    35dc 2000370c        0     1                 .LFB3
    35de 2000370e        0     1                 .L0 
    35e0 20003710        0     1                 .L0 
    35f4 20003724        0     1                 .L0 
    35f4 20003724        0     1                 .L0 
    35f4 20003724        0     1                 .LBB101
    35f4 20003724        0     1                 .LBB102
    35fc 2000372c        0     1                 .L0 
    3600 20003730        0     1                 .L0 
    3604 20003734        0     1                 .L0 
    3608 20003738        0     1                 .L0 
    3608 20003738        0     1                 .L164
    3608 20003738        0     1                 .LBE101
    3608 20003738        0     1                 .LBE102
    3612 20003742        0     1                 .L0 
    3620 20003750        0     1                 .L0 
    3620 20003750        0     1                 .L165
    3628 20003758        0     1                 .L0 
    3628 20003758        0     1                 .L166
    3630 20003760        0     1                 .L0 
    3634 20003764        0     1                 .L0 
    3638 20003768        0     1                 .L0 
    363c 2000376c        0     1                 .L0 
    363c 2000376c        0     1                 .LBB104
    3640 20003770        0     1                 .L0 
    3644 20003774        0     1                 .L0 
    3648 20003778        0     1                 .L0 
    3648 20003778        0     1                 .L168
    3648 20003778        0     1                 .LBE104
    3654 20003784        0     1                 .L0 
    3654 20003784        0     1                 .L167
    3664 20003794        0     1                 .L0 
    3664 20003794        0     1                 .LBB106
    366c 2000379c        0     1                 .L0 
    3674 200037a4        0     1                 .L0 
    3678 200037a8        0     1                 .L0 
    3678 200037a8        0     1                 .L172
    3680 200037b0        0     1                 .L0 
    3684 200037b4        0     1                 .L0 
    3686 200037b6        0     1                 .L0 
    3690 200037c0        0     1                 .L0 
    3690 200037c0        0     1                 .L171
    3690 200037c0        0     1                 .LBB110
    3694 200037c4        0     1                 .L0 
    3698 200037c8        0     1                 .L0 
    36a0 200037d0        0     1                 .L0 
    36a0 200037d0        0     1                 .L170
    36a0 200037d0        0     1                 .LBE106
    36a0 200037d0        0     1                 .LBE110
    36a4 200037d4        0     1                 .L0 
    36a8 200037d8        0     1                 .L0 
    36b0 200037e0        0     1                 .L0 
    36b4 200037e4        0     1                 .L0 
    36bc 200037ec        0     1                 .L0 
    36c2 200037f2        0     1                 .L0 
    36ce 200037fe        0     1                 .L0 
    36d6 20003806        0     1                 .L0 
    36da 2000380a        0     1                 .L0 
    36de 2000380e        0     1                 .L0 
    36e0 20003810        0     1                 .L0 
    36ec 2000381c        0     1                 .L0 
    36fa 2000382a        0     1                 .L0 
    3706 20003836        0     1                 .L0 
    3710 20003840        0     1                 .L0 
    371c 2000384c        0     1                 .L0 
    3728 20003858        0     1                 .L0 
    3732 20003862        0     1                 .L0 
    3736 20003866        0     1                 .L0 
    373a 2000386a        0     1                 .L0 
    3742 20003872        0     1                 .L0 
    3744 20003874        0     1                 .L0 
    3754 20003884        0     1                 .L0 
    3754 20003884        0     1                 .L174
    3760 20003890        0     1                 .L0 
    3760 20003890        0     1                 .L175
    3770 200038a0        0     1                 .L0 
    377e 200038ae        0     1                 .L0 
    3788 200038b8        0     1                 .L0 
    3788 200038b8        0     1                 .L176
    378c 200038bc        0     1                 .L0 
    378c 200038bc        0     1                 .L177
    3796 200038c6        0     1                 .L0 
    37a0 200038d0        0     1                 .L0 
    37a0 200038d0        0     1                 .L178
    37a4 200038d4        0     1                 .L0 
    37b0 200038e0        0     1                 .L0 
    37b0 200038e0        0     1                 .L179
    37b4 200038e4        0     1                 .L0 
    37b4 200038e4        0     1                 .LBB113
    37bc 200038ec        0     1                 .L0 
    37bc 200038ec        0     1                 .LBE113
    37c0 200038f0        0     1                 .L0 
    37c2 200038f2        0     1                 .L0 
    37cc 200038fc        0     1                 .L0 
    37cc 200038fc        0     1                 .L180
    37d8 20003908        0     1                 .L0 
    37de 2000390e        0     1                 .L0 
    37ee 2000391e        0     1                 .L0 
    37f2 20003922        0     1                 .L0 
    37f8 20003928        0     1                 .L0 
    3810 20003940        0     1                 .L0 
    3810 20003940        0     1                 .L181
    3828 20003958        0     1                 .L0 
    3828 20003958        0     1                 .L182
    382a 2000395a        0     1                 .L0 
    382c 2000395c        0     1                 .L0 
    3832 20003962        0     1                 .L0 
    3834 20003964        0     1                 .L0 
    3836 20003966        0     1                 .L0 
    3838 20003968        0     1                 .L0 
    383c 2000396c        0     1                 .L0 
    3840 20003970        0     1                 .L0 
    3844 20003974        0     1                 .L0 
    3848 20003978        0     1                 .L0 
    3848 20003978        0     1                 .L183
    3850 20003980        0     1                 .L0 
    3854 20003984        0     1                 .L0 
    3858 20003988        0     1                 .L0 
    3858 20003988        0     1                 .LBB115
    385c 2000398c        0     1                 .L0 
    385c 2000398c        0     1                 .LBE115
    3860 20003990        0     1                 .L0 
    3860 20003990        0     1                 .LBB118
    3864 20003994        0     1                 .L0 
    3864 20003994        0     1                 .LBE118
    3870 200039a0        0     1                 .L0 
    3874 200039a4        0     1                 .L0 
    3878 200039a8        0     1                 .L0 
    387c 200039ac        0     1                 .L0 
    387c 200039ac        0     1                 .L185
    3880 200039b0        0     1                 .L0 
    3888 200039b8        0     1                 .L0 
    3888 200039b8        0     1                 .L184
    3888 200039b8        0     1                 .LBB121
    388c 200039bc        0     1                 .L0 
    3890 200039c0        0     1                 .L0 
    3894 200039c4        0     1                 .L0 
    3894 200039c4        0     1                 .L186
    3894 200039c4        0     1                 .LBE121
    38a4 200039d4        0     1                 .L0 
    38a4 200039d4        0     1                 .L163
    38a6 200039d6        0     1                 .L0 
    38a8 200039d8        0     1                 .L0 
    38aa 200039da        0     1                 .L0 
    38ac 200039dc        0     1                 .L0 
    38ae 200039de        0     1                 .L0 
    38b0 200039e0        0     1                 .L0 
    38b2 200039e2        0     1                 .L0 
    38b4 200039e4        0     1                 .L0 
    38b6 200039e6        0     1                 .L0 
    38b8 200039e8        0     1                 .L0 
    38ba 200039ea        0     1                 .L0 
    38bc 200039ec        0     1                 .L0 
    38bc 200039ec        0     1                 .L0 
    38bc 200039ec        0     1                 .LFE3
    38bc        0        0     1 PROVIDE ( _RAMCODE_VMA_END = . )
    38bc        0        0     1 PROVIDE ( _RAMCODE_VMA_START = ADDR ( .ram_code ) )
    38bc        0        0     1 PROVIDE ( _RAMCODE_LMA_START = LOADADDR ( .ram_code ) )
    38bc        0 20000134     1 . = ALIGN ( LOADADDR ( .ram_code ) + SIZEOF ( .ram_code ) , 8 )
200039f0 200039f0     32de     4 .text
200039f0 200039f0       6e     4         ./vendor/common/flash/puya_common.o:(.text.gpio_function_en)
200039f0 200039f0       6e     1                 gpio_function_en
200039f0 200039f0        0     1                 .L0 
200039f0 200039f0        0     1                 .L0 
200039f0 200039f0        0     1                 .LFB45
200039f2 200039f2        0     1                 .L0 
200039f8 200039f8        0     1                 .L0 
20003a00 20003a00        0     1                 .L0 
20003a58 20003a58        0     1                 .L0 
20003a5c 20003a5c        0     1                 .L0 
20003a5e 20003a5e        0     1                 .L0 
20003a5e 20003a5e        0     1                 .L0 
20003a5e 20003a5e        0     1                 .LFE45
20003a60 20003a60       7e     4         ./vendor/common/flash/puya_common.o:(.text.gpio_function_dis)
20003a60 20003a60       7e     1                 gpio_function_dis
20003a60 20003a60        0     1                 .L0 
20003a60 20003a60        0     1                 .L0 
20003a60 20003a60        0     1                 .LFB46
20003a62 20003a62        0     1                 .L0 
20003a68 20003a68        0     1                 .L0 
20003a70 20003a70        0     1                 .L0 
20003ad8 20003ad8        0     1                 .L0 
20003adc 20003adc        0     1                 .L0 
20003ade 20003ade        0     1                 .L0 
20003ade 20003ade        0     1                 .L0 
20003ade 20003ade        0     1                 .LFE46
20003ae0 20003ae0       6e     4         ./vendor/common/flash/puya_common.o:(.text.gpio_set_high_level)
20003ae0 20003ae0       6e     1                 gpio_set_high_level
20003ae0 20003ae0        0     1                 .L0 
20003ae0 20003ae0        0     1                 .L0 
20003ae0 20003ae0        0     1                 .LFB47
20003ae2 20003ae2        0     1                 .L0 
20003ae8 20003ae8        0     1                 .L0 
20003af0 20003af0        0     1                 .L0 
20003b48 20003b48        0     1                 .L0 
20003b4c 20003b4c        0     1                 .L0 
20003b4e 20003b4e        0     1                 .L0 
20003b4e 20003b4e        0     1                 .L0 
20003b4e 20003b4e        0     1                 .LFE47
20003b50 20003b50       7e     4         ./vendor/common/flash/puya_common.o:(.text.gpio_set_low_level)
20003b50 20003b50       7e     1                 gpio_set_low_level
20003b50 20003b50        0     1                 .L0 
20003b50 20003b50        0     1                 .L0 
20003b50 20003b50        0     1                 .LFB48
20003b52 20003b52        0     1                 .L0 
20003b58 20003b58        0     1                 .L0 
20003b60 20003b60        0     1                 .L0 
20003bc8 20003bc8        0     1                 .L0 
20003bcc 20003bcc        0     1                 .L0 
20003bce 20003bce        0     1                 .L0 
20003bce 20003bce        0     1                 .L0 
20003bce 20003bce        0     1                 .LFE48
20003bd0 20003bd0       4a     4         ./vendor/common/flash/puya_common.o:(.text.gpio_get_level)
20003bd0 20003bd0       4a     1                 gpio_get_level
20003bd0 20003bd0        0     1                 .L0 
20003bd0 20003bd0        0     1                 .L0 
20003bd0 20003bd0        0     1                 .LFB50
20003bd2 20003bd2        0     1                 .L0 
20003bd8 20003bd8        0     1                 .L0 
20003c14 20003c14        0     1                 .L0 
20003c18 20003c18        0     1                 .L0 
20003c1a 20003c1a        0     1                 .L0 
20003c1a 20003c1a        0     1                 .L0 
20003c1a 20003c1a        0     1                 .LFE50
20003c1c 20003c1c       7e     4         ./vendor/common/flash/puya_common.o:(.text.gpio_output_en)
20003c1c 20003c1c       7e     1                 gpio_output_en
20003c1c 20003c1c        0     1                 .L0 
20003c1c 20003c1c        0     1                 .L0 
20003c1c 20003c1c        0     1                 .LFB53
20003c1e 20003c1e        0     1                 .L0 
20003c24 20003c24        0     1                 .L0 
20003c2c 20003c2c        0     1                 .L0 
20003c94 20003c94        0     1                 .L0 
20003c98 20003c98        0     1                 .L0 
20003c9a 20003c9a        0     1                 .L0 
20003c9a 20003c9a        0     1                 .L0 
20003c9a 20003c9a        0     1                 .LFE53
20003c9c 20003c9c       6e     4         ./vendor/common/flash/puya_common.o:(.text.gpio_output_dis)
20003c9c 20003c9c       6e     1                 gpio_output_dis
20003c9c 20003c9c        0     1                 .L0 
20003c9c 20003c9c        0     1                 .L0 
20003c9c 20003c9c        0     1                 .LFB54
20003c9e 20003c9e        0     1                 .L0 
20003ca4 20003ca4        0     1                 .L0 
20003cac 20003cac        0     1                 .L0 
20003d04 20003d04        0     1                 .L0 
20003d08 20003d08        0     1                 .L0 
20003d0a 20003d0a        0     1                 .L0 
20003d0a 20003d0a        0     1                 .L0 
20003d0a 20003d0a        0     1                 .LFE54
20003d0c 20003d0c       22     4         ./vendor/common/flash/puya_flash_scratch.o:(.text.core_interrupt_disable)
20003d0c 20003d0c       20     1                 core_interrupt_disable
20003d0c 20003d0c        0     1                 .L0 
20003d0c 20003d0c        0     1                 .L0 
20003d0c 20003d0c        0     1                 .LFB3
20003d0e 20003d0e        0     1                 .L0 
20003d0e 20003d0e        0     1                 .L0 
20003d16 20003d16        0     1                 .L0 
20003d1c 20003d1c        0     1                 .L0 
20003d20 20003d20        0     1                 .L0 
20003d24 20003d24        0     1                 .L0 
20003d24 20003d24        0     1                 .L6
20003d26 20003d26        0     1                 .L0 
20003d2a 20003d2a        0     1                 .L0 
20003d2c 20003d2c        0     1                 .L0 
20003d2c 20003d2c        0     1                 .L0 
20003d2c 20003d2c        0     1                 .LFE3
20003d30 20003d30       1e     4         ./vendor/common/flash/puya_flash_scratch.o:(.text.core_restore_interrupt)
20003d30 20003d30       1c     1                 core_restore_interrupt
20003d30 20003d30        0     1                 .L0 
20003d30 20003d30        0     1                 .L0 
20003d30 20003d30        0     1                 .LFB4
20003d32 20003d32        0     1                 .L0 
20003d34 20003d34        0     1                 .L0 
20003d38 20003d38        0     1                 .L0 
20003d40 20003d40        0     1                 .L0 
20003d44 20003d44        0     1                 .L0 
20003d44 20003d44        0     1                 .L9
20003d46 20003d46        0     1                 .L0 
20003d4a 20003d4a        0     1                 .L0 
20003d4c 20003d4c        0     1                 .L0 
20003d4c 20003d4c        0     1                 .L0 
20003d4c 20003d4c        0     1                 .LFE4
20003d50 20003d50       4a     4         ./vendor/common/flash/puya_flash_scratch.o:(.text.gpio_get_level)
20003d50 20003d50       4a     1                 gpio_get_level
20003d50 20003d50        0     1                 .L0 
20003d50 20003d50        0     1                 .L0 
20003d50 20003d50        0     1                 .LFB50
20003d52 20003d52        0     1                 .L0 
20003d58 20003d58        0     1                 .L0 
20003d94 20003d94        0     1                 .L0 
20003d98 20003d98        0     1                 .L0 
20003d9a 20003d9a        0     1                 .L0 
20003d9a 20003d9a        0     1                 .L0 
20003d9a 20003d9a        0     1                 .LFE50
20003d9c 20003d9c       4a     4         ./vendor/common/flash/puya_flash_trim.o:(.text.gpio_get_level)
20003d9c 20003d9c       4a     1                 gpio_get_level
20003d9c 20003d9c        0     1                 .L0 
20003d9c 20003d9c        0     1                 .L0 
20003d9c 20003d9c        0     1                 .LFB50
20003d9e 20003d9e        0     1                 .L0 
20003da4 20003da4        0     1                 .L0 
20003de0 20003de0        0     1                 .L0 
20003de4 20003de4        0     1                 .L0 
20003de6 20003de6        0     1                 .L0 
20003de6 20003de6        0     1                 .L0 
20003de6 20003de6        0     1                 .LFE50
20003de8 20003de8      1ec     4         ./vendor/common/calibration/calibration.o:(.text.user_calib_adc_vref)
20003de8 20003de8        0     1                 .L0 
20003de8 20003de8        0     1                 .L0 
20003de8 20003de8        0     1                 .LFB372
20003de8 20003de8      1ec     1                 user_calib_adc_vref
20003dea 20003dea        0     1                 .L0 
20003dec 20003dec        0     1                 .L0 
20003df4 20003df4        0     1                 .L0 
20003dfe 20003dfe        0     1                 .L0 
20003e02 20003e02        0     1                 .L0 
20003e06 20003e06        0     1                 .L0 
20003e0a 20003e0a        0     1                 .L0 
20003e20 20003e20        0     1                 .L0 
20003e2c 20003e2c        0     1                 .L0 
20003e38 20003e38        0     1                 .L0 
20003e42 20003e42        0     1                 .L0 
20003e4e 20003e4e        0     1                 .L0 
20003e56 20003e56        0     1                 .L0 
20003e5e 20003e5e        0     1                 .L0 
20003e64 20003e64        0     1                 .L0 
20003e64 20003e64        0     1                 .L6
20003e6e 20003e6e        0     1                 .L0 
20003e7c 20003e7c        0     1                 .L0 
20003e7c 20003e7c        0     1                 .L9
20003e88 20003e88        0     1                 .L0 
20003e94 20003e94        0     1                 .L0 
20003ea8 20003ea8        0     1                 .L0 
20003ed0 20003ed0        0     1                 .L0 
20003ee2 20003ee2        0     1                 .L0 
20003eee 20003eee        0     1                 .L0 
20003efa 20003efa        0     1                 .L0 
20003f04 20003f04        0     1                 .L0 
20003f10 20003f10        0     1                 .L0 
20003f18 20003f18        0     1                 .L0 
20003f20 20003f20        0     1                 .L0 
20003f24 20003f24        0     1                 .L0 
20003f24 20003f24        0     1                 .L10
20003f38 20003f38        0     1                 .L0 
20003f44 20003f44        0     1                 .L0 
20003f50 20003f50        0     1                 .L0 
20003f5a 20003f5a        0     1                 .L0 
20003f66 20003f66        0     1                 .L0 
20003f6e 20003f6e        0     1                 .L0 
20003f76 20003f76        0     1                 .L0 
20003f7c 20003f7c        0     1                 .L0 
20003f7c 20003f7c        0     1                 .L12
20003f9e 20003f9e        0     1                 .L0 
20003faa 20003faa        0     1                 .L0 
20003fb6 20003fb6        0     1                 .L0 
20003fbe 20003fbe        0     1                 .L0 
20003fc4 20003fc4        0     1                 .L0 
20003fc4 20003fc4        0     1                 .L14
20003fc8 20003fc8        0     1                 .L0 
20003fc8 20003fc8        0     1                 .L7
20003fcc 20003fcc        0     1                 .L0 
20003fcc 20003fcc        0     1                 .L13
20003fd0 20003fd0        0     1                 .L0 
20003fd2 20003fd2        0     1                 .L0 
20003fd4 20003fd4        0     1                 .L0 
20003fd4 20003fd4        0     1                 .L0 
20003fd4 20003fd4        0     1                 .LFE372
20003fd4 20003fd4       54     4         ./vendor/common/calibration/calibration.o:(.text.user_calib_freq_offset)
20003fd4 20003fd4        0     1                 .L0 
20003fd4 20003fd4        0     1                 .L0 
20003fd4 20003fd4        0     1                 .LFB373
20003fd4 20003fd4       54     1                 user_calib_freq_offset
20003fd6 20003fd6        0     1                 .L0 
20003fd8 20003fd8        0     1                 .L0 
20003fe0 20003fe0        0     1                 .L0 
20003fe6 20003fe6        0     1                 .L0 
20003ff0 20003ff0        0     1                 .L0 
20004000 20004000        0     1                 .L0 
20004000 20004000        0     1                 .L16
2000400c 2000400c        0     1                 .L0 
20004016 20004016        0     1                 .L0 
2000401c 2000401c        0     1                 .L0 
2000401c 2000401c        0     1                 .L17
20004020 20004020        0     1                 .L0 
20004020 20004020        0     1                 .L19
20004024 20004024        0     1                 .L0 
20004026 20004026        0     1                 .L0 
20004028 20004028        0     1                 .L0 
20004028 20004028        0     1                 .L0 
20004028 20004028        0     1                 .LFE373
20004028 20004028       fc     4         ./vendor/common/calibration/calibration.o:(.text.user_read_flash_value_calib)
20004028 20004028        0     1                 .L0 
20004028 20004028        0     1                 .L0 
20004028 20004028        0     1                 .LFB374
20004028 20004028       fc     1                 user_read_flash_value_calib
2000402a 2000402a        0     1                 .L0 
2000402c 2000402c        0     1                 .L0 
2000402c 2000402c        0     1                 .L0 
20004030 20004030        0     1                 .L0 
20004042 20004042        0     1                 .L0 
2000404c 2000404c        0     1                 .L0 
2000406c 2000406c        0     1                 .L24
20004080 20004080        0     1                 .L0 
20004080 20004080        0     1                 .L25
2000408a 2000408a        0     1                 .L0 
20004090 20004090        0     1                 .L0 
20004094 20004094        0     1                 .L0 
20004094 20004094        0     1                 .L26
2000409e 2000409e        0     1                 .L0 
200040a4 200040a4        0     1                 .L0 
200040a8 200040a8        0     1                 .L0 
200040a8 200040a8        0     1                 .L23
200040b4 200040b4        0     1                 .L0 
200040bc 200040bc        0     1                 .L0 
200040c0 200040c0        0     1                 .L0 
200040c0 200040c0        0     1                 .L28
200040cc 200040cc        0     1                 .L0 
200040d4 200040d4        0     1                 .L0 
200040d8 200040d8        0     1                 .L0 
200040d8 200040d8        0     1                 .L27
200040e4 200040e4        0     1                 .L0 
200040ec 200040ec        0     1                 .L0 
200040f0 200040f0        0     1                 .L0 
200040f0 200040f0        0     1                 .L29
200040fc 200040fc        0     1                 .L0 
20004104 20004104        0     1                 .L0 
20004108 20004108        0     1                 .L0 
20004108 20004108        0     1                 .L22
2000410e 2000410e        0     1                 .L0 
20004114 20004114        0     1                 .L0 
20004114 20004114        0     1                 .L21
2000411c 2000411c        0     1                 .L0 
2000411c 2000411c        0     1                 .L31
20004120 20004120        0     1                 .L0 
20004122 20004122        0     1                 .L0 
20004124 20004124        0     1                 .L0 
20004124 20004124        0     1                 .L0 
20004124 20004124        0     1                 .LFE374
20004124 20004124       38     4         ./vendor/common/common.o:(.text.platform_init)
20004124 20004124        0     1                 .L0 
20004124 20004124        0     1                 .L0 
20004124 20004124        0     1                 .LFB373
20004124 20004124       36     1                 platform_init
20004126 20004126        0     1                 .L0 
20004128 20004128        0     1                 .L0 
20004136 20004136        0     1                 .L0 
20004146 20004146        0     1                 .L0 
20004150 20004150        0     1                 .L0 
20004152 20004152        0     1                 .L0 
20004156 20004156        0     1                 .L0 
20004158 20004158        0     1                 .L0 
2000415a 2000415a        0     1                 .L0 
2000415a 2000415a        0     1                 .L0 
2000415a 2000415a        0     1                 .LFE373
2000415c 2000415c       16     4         ./vendor/common/exception.o:(.text.core_mie_enable)
2000415c 2000415c       16     1                 core_mie_enable
2000415c 2000415c        0     1                 .L0 
2000415c 2000415c        0     1                 .L0 
2000415c 2000415c        0     1                 .LFB5
2000415e 2000415e        0     1                 .L0 
20004164 20004164        0     1                 .L0 
2000416c 2000416c        0     1                 .L0 
20004170 20004170        0     1                 .L0 
20004172 20004172        0     1                 .L0 
20004172 20004172        0     1                 .L0 
20004172 20004172        0     1                 .LFE5
20004174 20004174       16     4         ./vendor/common/exception.o:(.text.core_mie_disable)
20004174 20004174       16     1                 core_mie_disable
20004174 20004174        0     1                 .L0 
20004174 20004174        0     1                 .L0 
20004174 20004174        0     1                 .LFB6
20004176 20004176        0     1                 .L0 
2000417c 2000417c        0     1                 .L0 
20004184 20004184        0     1                 .L0 
20004188 20004188        0     1                 .L0 
2000418a 2000418a        0     1                 .L0 
2000418a 2000418a        0     1                 .L0 
2000418a 2000418a        0     1                 .LFE6
2000418c 2000418c        e     4         ./vendor/common/exception.o:(.text.plic_sw_interrupt_claim)
2000418c 2000418c        c     1                 plic_sw_interrupt_claim
2000418c 2000418c        0     1                 .L0 
2000418c 2000418c        0     1                 .L0 
2000418c 2000418c        0     1                 .L0 
2000418c 2000418c        0     1                 .LFB369
20004194 20004194        0     1                 .L0 
20004198 20004198        0     1                 .L0 
20004198 20004198        0     1                 .L0 
20004198 20004198        0     1                 .LFE369
2000419c 2000419c        e     4         ./vendor/common/exception.o:(.text.plic_sw_interrupt_complete)
2000419c 2000419c        e     1                 plic_sw_interrupt_complete
2000419c 2000419c        0     1                 .L0 
2000419c 2000419c        0     1                 .L0 
2000419c 2000419c        0     1                 .L0 
2000419c 2000419c        0     1                 .LFB370
200041a6 200041a6        0     1                 .L0 
200041aa 200041aa        0     1                 .L0 
200041aa 200041aa        0     1                 .L0 
200041aa 200041aa        0     1                 .LFE370
200041ac 200041ac        6     4         ./vendor/common/exception.o:(.text.mtime_irq_handler)
200041ac 200041ac        0     1                 .L0 
200041ac 200041ac        0     1                 .L0 
200041ac 200041ac        0     1                 .L0 
200041ac 200041ac        0     1                 .LFB372
200041ac 200041ac        4     1                 mtime_irq_handler
200041b0 200041b0        0     1                 .L0 
200041b0 200041b0        0     1                 .L0 
200041b0 200041b0        0     1                 .LFE372
200041b4 200041b4        6     4         ./vendor/common/exception.o:(.text.mswi_irq_handler)
200041b4 200041b4        0     1                 .L0 
200041b4 200041b4        0     1                 .L0 
200041b4 200041b4        0     1                 .L0 
200041b4 200041b4        0     1                 .LFB373
200041b4 200041b4        4     1                 mswi_irq_handler
200041b8 200041b8        0     1                 .L0 
200041b8 200041b8        0     1                 .L0 
200041b8 200041b8        0     1                 .LFE373
200041bc 200041bc       3a     4         ./vendor/common/exception.o:(.text.except_handler)
200041bc 200041bc        0     1                 .L0 
200041bc 200041bc        0     1                 .L0 
200041bc 200041bc        0     1                 .L0 
200041bc 200041bc        0     1                 .LFB374
200041bc 200041bc       38     1                 except_handler
200041c6 200041c6        0     1                 .L0 
200041d0 200041d0        0     1                 .L0 
200041da 200041da        0     1                 .L0 
200041e4 200041e4        0     1                 .L0 
200041f0 200041f0        0     1                 .L0 
200041f0 200041f0        0     1                 .L13
200041f4 200041f4        0     1                 .L0 
200041f4 200041f4        0     1                 .L0 
200041f4 200041f4        0     1                 .LFE374
200041f8 200041f8       3a     4         ./vendor/common/printf.o:(.text._write)
200041f8 200041f8        0     1                 .L0 
200041f8 200041f8        0     1                 .L0 
200041f8 200041f8        0     1                 .LFB77
200041f8 200041f8       38     1                 _write
200041fa 200041fa        0     1                 .L0 
20004200 20004200        0     1                 .L0 
20004204 20004204        0     1                 .L0 
20004204 20004204        0     1                 .L7
2000421a 2000421a        0     1                 .L0 
20004220 20004220        0     1                 .L0 
20004220 20004220        0     1                 .L6
20004228 20004228        0     1                 .L0 
2000422a 2000422a        0     1                 .L0 
2000422e 2000422e        0     1                 .L0 
20004230 20004230        0     1                 .L0 
20004230 20004230        0     1                 .L0 
20004230 20004230        0     1                 .LFE77
20004234 20004234       16     4         ./drivers/adc.o:(.text.adc_set_gpio_calib_vref)
20004234 20004234        0     1                 .L0 
20004234 20004234        0     1                 .L0 
20004234 20004234        0     1                 .LFB168
20004234 20004234       16     1                 adc_set_gpio_calib_vref
20004236 20004236        0     1                 .L0 
2000423c 2000423c        0     1                 .L0 
20004244 20004244        0     1                 .L0 
20004248 20004248        0     1                 .L0 
2000424a 2000424a        0     1                 .L0 
2000424a 2000424a        0     1                 .L0 
2000424a 2000424a        0     1                 .LFE168
2000424c 2000424c       16     4         ./drivers/adc.o:(.text.adc_set_gpio_two_point_calib_offset)
2000424c 2000424c        0     1                 .L0 
2000424c 2000424c        0     1                 .L0 
2000424c 2000424c        0     1                 .LFB169
2000424c 2000424c       16     1                 adc_set_gpio_two_point_calib_offset
2000424e 2000424e        0     1                 .L0 
20004254 20004254        0     1                 .L0 
2000425c 2000425c        0     1                 .L0 
20004260 20004260        0     1                 .L0 
20004262 20004262        0     1                 .L0 
20004262 20004262        0     1                 .L0 
20004262 20004262        0     1                 .LFE169
20004264 20004264       22     4         ./drivers/analog.o:(.text.core_interrupt_disable)
20004264 20004264       20     1                 core_interrupt_disable
20004264 20004264        0     1                 .L0 
20004264 20004264        0     1                 .L0 
20004264 20004264        0     1                 .LFB2
20004266 20004266        0     1                 .L0 
20004266 20004266        0     1                 .L0 
2000426e 2000426e        0     1                 .L0 
20004274 20004274        0     1                 .L0 
20004278 20004278        0     1                 .L0 
2000427c 2000427c        0     1                 .L0 
2000427c 2000427c        0     1                 .L6
2000427e 2000427e        0     1                 .L0 
20004282 20004282        0     1                 .L0 
20004284 20004284        0     1                 .L0 
20004284 20004284        0     1                 .L0 
20004284 20004284        0     1                 .LFE2
20004288 20004288       1e     4         ./drivers/analog.o:(.text.core_restore_interrupt)
20004288 20004288       1c     1                 core_restore_interrupt
20004288 20004288        0     1                 .L0 
20004288 20004288        0     1                 .L0 
20004288 20004288        0     1                 .LFB3
2000428a 2000428a        0     1                 .L0 
2000428c 2000428c        0     1                 .L0 
20004290 20004290        0     1                 .L0 
20004298 20004298        0     1                 .L0 
2000429c 2000429c        0     1                 .L0 
2000429c 2000429c        0     1                 .L9
2000429e 2000429e        0     1                 .L0 
200042a2 200042a2        0     1                 .L0 
200042a4 200042a4        0     1                 .L0 
200042a4 200042a4        0     1                 .L0 
200042a4 200042a4        0     1                 .LFE3
200042a8 200042a8       22     4         ./drivers/analog.o:(.text.analog_wait)
200042a8 200042a8       20     1                 analog_wait
200042a8 200042a8        0     1                 .L0 
200042a8 200042a8        0     1                 .L0 
200042a8 200042a8        0     1                 .L0 
200042a8 200042a8        0     1                 .LFB67
200042ac 200042ac        0     1                 .L0 
200042ac 200042ac        0     1                 .L55
200042c4 200042c4        0     1                 .L0 
200042c8 200042c8        0     1                 .L0 
200042c8 200042c8        0     1                 .L0 
200042c8 200042c8        0     1                 .LFE67
200042cc 200042cc       3e     4         ./drivers/audio.o:(.text.audio_set_i2s_clk)
200042cc 200042cc       3e     1                 audio_set_i2s_clk
200042cc 200042cc        0     1                 .L0 
200042cc 200042cc        0     1                 .L0 
200042cc 200042cc        0     1                 .LFB112
200042ce 200042ce        0     1                 .L0 
200042dc 200042dc        0     1                 .L0 
200042f4 200042f4        0     1                 .L0 
20004304 20004304        0     1                 .L0 
20004308 20004308        0     1                 .L0 
2000430a 2000430a        0     1                 .L0 
2000430a 2000430a        0     1                 .L0 
2000430a 2000430a        0     1                 .LFE112
2000430c 2000430c       26     4         ./drivers/audio.o:(.text.audio_set_i2s_bclk)
2000430c 2000430c       24     1                 audio_set_i2s_bclk
2000430c 2000430c        0     1                 .L0 
2000430c 2000430c        0     1                 .L0 
2000430c 2000430c        0     1                 .LFB118
2000430e 2000430e        0     1                 .L0 
20004314 20004314        0     1                 .L0 
2000432a 2000432a        0     1                 .L0 
2000432e 2000432e        0     1                 .L0 
20004330 20004330        0     1                 .L0 
20004330 20004330        0     1                 .L0 
20004330 20004330        0     1                 .LFE118
20004334 20004334       42     4         ./drivers/audio.o:(.text.audio_set_lrclk)
20004334 20004334       42     1                 audio_set_lrclk
20004334 20004334        0     1                 .L0 
20004334 20004334        0     1                 .L0 
20004334 20004334        0     1                 .LFB119
20004336 20004336        0     1                 .L0 
20004344 20004344        0     1                 .L0 
2000435a 2000435a        0     1                 .L0 
20004370 20004370        0     1                 .L0 
20004374 20004374        0     1                 .L0 
20004376 20004376        0     1                 .L0 
20004376 20004376        0     1                 .L0 
20004376 20004376        0     1                 .LFE119
20004378 20004378       ca     4         ./drivers/audio.o:(.text.audio_set_codec_supply)
20004378 20004378        0     1                 .L0 
20004378 20004378        0     1                 .L0 
20004378 20004378        0     1                 .LFB168
20004378 20004378       c8     1                 audio_set_codec_supply
2000437a 2000437a        0     1                 .L0 
2000437c 2000437c        0     1                 .L0 
20004382 20004382        0     1                 .L0 
2000438e 2000438e        0     1                 .L0 
20004398 20004398        0     1                 .L0 
200043b8 200043b8        0     1                 .L0 
200043bc 200043bc        0     1                 .L0 
200043bc 200043bc        0     1                 .L109
200043c2 200043c2        0     1                 .L0 
200043e2 200043e2        0     1                 .L0 
200043e4 200043e4        0     1                 .L0 
200043e4 200043e4        0     1                 .L108
200043ea 200043ea        0     1                 .L0 
2000440a 2000440a        0     1                 .L0 
2000440c 2000440c        0     1                 .L0 
2000440c 2000440c        0     1                 .L112
20004416 20004416        0     1                 .L0 
20004438 20004438        0     1                 .L0 
20004438 20004438        0     1                 .L113
2000443c 2000443c        0     1                 .L0 
2000443e 2000443e        0     1                 .L0 
20004440 20004440        0     1                 .L0 
20004440 20004440        0     1                 .L0 
20004440 20004440        0     1                 .LFE168
20004444 20004444       5e     4         ./drivers/clock.o:(.text)
20004444 20004444        0     1                 .L0 
20004444 20004444        0     1                 .L0 
20004444 20004444        0     1                 .LFB96
20004444 20004444       5c     1                 clock_init
20004446 20004446        0     1                 .L0 
20004448 20004448        0     1                 .L0 
20004472 20004472        0     1                 .L0 
20004476 20004476        0     1                 .L0 
20004494 20004494        0     1                 .L0 
20004498 20004498        0     1                 .L0 
2000449c 2000449c        0     1                 .L0 
2000449e 2000449e        0     1                 .L0 
200044a0 200044a0        0     1                 .L0 
200044a0 200044a0        0     1                 .L0 
200044a0 200044a0        0     1                 .LFE96
200044a4 200044a4       4a     4         ./drivers/clock.o:(.text.gpio_get_level)
200044a4 200044a4       4a     1                 gpio_get_level
200044a4 200044a4        0     1                 .L0 
200044a4 200044a4        0     1                 .L0 
200044a4 200044a4        0     1                 .LFB49
200044a6 200044a6        0     1                 .L0 
200044ac 200044ac        0     1                 .L0 
200044e8 200044e8        0     1                 .L0 
200044ec 200044ec        0     1                 .L0 
200044ee 200044ee        0     1                 .L0 
200044ee 200044ee        0     1                 .L0 
200044ee 200044ee        0     1                 .LFE49
200044f0 200044f0      526     4         ./drivers/flash.o:(.text)
200044f0 200044f0        0     1                 .L0 
200044f0 200044f0        0     1                 .L0 
200044f0 200044f0        0     1                 .LFB108
200044f0 200044f0       2c     1                 flash_erase_sector
200044f2 200044f2        0     1                 .L0 
200044f4 200044f4        0     1                 .L0 
200044f6 200044f6        0     1                 .L0 
200044fa 200044fa        0     1                 .L0 
2000450e 2000450e        0     1                 .L0 
20004512 20004512        0     1                 .L0 
20004516 20004516        0     1                 .L0 
20004518 20004518        0     1                 .L0 
2000451c 2000451c        0     1                 .L0 
2000451c 2000451c        0     1                 .L0 
2000451c 2000451c        0     1                 .L0 
2000451c 2000451c        0     1                 .LFB109
2000451c 2000451c        0     1                 .LFE108
2000451c 2000451c       30     1                 flash_read_data
2000451e 2000451e        0     1                 .L0 
20004520 20004520        0     1                 .L0 
20004526 20004526        0     1                 .L0 
2000452a 2000452a        0     1                 .L0 
2000453e 2000453e        0     1                 .L0 
20004542 20004542        0     1                 .L0 
20004546 20004546        0     1                 .L0 
20004548 20004548        0     1                 .L0 
2000454c 2000454c        0     1                 .L0 
2000454c 2000454c        0     1                 .L0 
2000454c 2000454c        0     1                 .L0 
2000454c 2000454c        0     1                 .LFB110
2000454c 2000454c        0     1                 .LFE109
2000454c 2000454c       30     1                 flash_dread
2000454e 2000454e        0     1                 .L0 
20004550 20004550        0     1                 .L0 
20004556 20004556        0     1                 .L0 
2000455a 2000455a        0     1                 .L0 
20004570 20004570        0     1                 .L0 
20004574 20004574        0     1                 .L0 
20004578 20004578        0     1                 .L0 
2000457a 2000457a        0     1                 .L0 
2000457c 2000457c        0     1                 .L0 
2000457c 2000457c        0     1                 .L0 
2000457c 2000457c        0     1                 .L0 
2000457c 2000457c        0     1                 .LFB111
2000457c 2000457c        0     1                 .LFE110
2000457c 2000457c       30     1                 flash_4read
2000457e 2000457e        0     1                 .L0 
20004580 20004580        0     1                 .L0 
20004586 20004586        0     1                 .L0 
2000458a 2000458a        0     1                 .L0 
200045a0 200045a0        0     1                 .L0 
200045a4 200045a4        0     1                 .L0 
200045a8 200045a8        0     1                 .L0 
200045aa 200045aa        0     1                 .L0 
200045ac 200045ac        0     1                 .L0 
200045ac 200045ac        0     1                 .L0 
200045ac 200045ac        0     1                 .L0 
200045ac 200045ac        0     1                 .LFB113
200045ac 200045ac        0     1                 .LFE111
200045ac 200045ac       1c     1                 flash_page_program
200045ae 200045ae        0     1                 .L0 
200045b0 200045b0        0     1                 .L0 
200045b6 200045b6        0     1                 .L0 
200045c0 200045c0        0     1                 .L0 
200045c4 200045c4        0     1                 .L0 
200045c6 200045c6        0     1                 .L0 
200045c8 200045c8        0     1                 .L0 
200045c8 200045c8        0     1                 .L0 
200045c8 200045c8        0     1                 .L0 
200045c8 200045c8        0     1                 .LFB114
200045c8 200045c8        0     1                 .LFE113
200045c8 200045c8       20     1                 flash_quad_page_program
200045ca 200045ca        0     1                 .L0 
200045cc 200045cc        0     1                 .L0 
200045d2 200045d2        0     1                 .L0 
200045de 200045de        0     1                 .L0 
200045e2 200045e2        0     1                 .L0 
200045e4 200045e4        0     1                 .L0 
200045e8 200045e8        0     1                 .L0 
200045e8 200045e8        0     1                 .L0 
200045e8 200045e8        0     1                 .L0 
200045e8 200045e8        0     1                 .LFB120
200045e8 200045e8        0     1                 .LFE114
200045e8 200045e8       30     1                 flash_read_mid
200045ea 200045ea        0     1                 .L0 
200045ec 200045ec        0     1                 .L0 
200045ec 200045ec        0     1                 .L0 
200045ee 200045ee        0     1                 .L0 
200045f2 200045f2        0     1                 .L0 
20004608 20004608        0     1                 .L0 
2000460c 2000460c        0     1                 .L0 
2000460e 2000460e        0     1                 .L0 
20004612 20004612        0     1                 .L0 
20004614 20004614        0     1                 .L0 
20004618 20004618        0     1                 .L0 
20004618 20004618        0     1                 .L0 
20004618 20004618        0     1                 .L0 
20004618 20004618        0     1                 .LFB121
20004618 20004618        0     1                 .LFE120
20004618 20004618       40     1                 flash_read_uid
2000461a 2000461a        0     1                 .L0 
2000461c 2000461c        0     1                 .L0 
20004624 20004624        0     1                 .L0 
20004628 20004628        0     1                 .L0 
20004634 20004634        0     1                 .L0 
2000464c 2000464c        0     1                 .L0 
2000464c 2000464c        0     1                 .L14
20004650 20004650        0     1                 .L0 
20004654 20004654        0     1                 .L0 
20004656 20004656        0     1                 .L0 
20004658 20004658        0     1                 .L0 
20004658 20004658        0     1                 .L0 
20004658 20004658        0     1                 .L0 
20004658 20004658        0     1                 .LFB101
20004658 20004658        0     1                 .LFE121
20004658 20004658       2c     1                 flash_plic_preempt_config
2000465a 2000465a        0     1                 .L0 
20004668 20004668        0     1                 .L0 
20004670 20004670        0     1                 .L0 
2000467c 2000467c        0     1                 .L0 
20004680 20004680        0     1                 .L0 
20004684 20004684        0     1                 .L0 
20004684 20004684        0     1                 .L0 
20004684 20004684        0     1                 .L0 
20004684 20004684        0     1                 .LFB123
20004684 20004684        0     1                 .LFE101
20004684 20004684       24     1                 flash_set_xip_config
20004686 20004686        0     1                 .L0 
20004688 20004688        0     1                 .L0 
2000468c 2000468c        0     1                 .L0 
20004690 20004690        0     1                 .L0 
2000469c 2000469c        0     1                 .L0 
200046a0 200046a0        0     1                 .L0 
200046a4 200046a4        0     1                 .L0 
200046a6 200046a6        0     1                 .L0 
200046a8 200046a8        0     1                 .L0 
200046a8 200046a8        0     1                 .L0 
200046a8 200046a8        0     1                 .L0 
200046a8 200046a8        0     1                 .LFB126
200046a8 200046a8        0     1                 .LFE123
200046a8 200046a8       c0     1                 flash_read_mid_uid_with_check
200046aa 200046aa        0     1                 .L0 
200046ac 200046ac        0     1                 .L0 
200046b0 200046b0        0     1                 .L0 
200046d2 200046d2        0     1                 .L0 
200046d4 200046d4        0     1                 .L0 
200046dc 200046dc        0     1                 .L0 
200046e0 200046e0        0     1                 .L0 
200046e0 200046e0        0     1                 .L22
200046f4 200046f4        0     1                 .L0 
200046fc 200046fc        0     1                 .L0 
20004700 20004700        0     1                 .L0 
20004700 20004700        0     1                 .L20
20004708 20004708        0     1                 .L0 
20004708 20004708        0     1                 .L19
20004710 20004710        0     1                 .L0 
20004710 20004710        0     1                 .L21
20004718 20004718        0     1                 .L0 
2000471c 2000471c        0     1                 .L0 
2000471c 2000471c        0     1                 .L23
20004720 20004720        0     1                 .L0 
20004720 20004720        0     1                 .L27
20004738 20004738        0     1                 .L0 
20004740 20004740        0     1                 .L0 
20004740 20004740        0     1                 .L26
20004748 20004748        0     1                 .L0 
20004748 20004748        0     1                 .L25
20004750 20004750        0     1                 .L0 
20004758 20004758        0     1                 .L0 
2000475c 2000475c        0     1                 .L0 
2000475c 2000475c        0     1                 .L28
20004760 20004760        0     1                 .L0 
20004760 20004760        0     1                 .L29
20004764 20004764        0     1                 .L0 
20004766 20004766        0     1                 .L0 
20004768 20004768       7c     1                 flash_write
20004768 20004768        0     1                 .L0 
20004768 20004768        0     1                 .L0 
20004768 20004768        0     1                 .L0 
20004768 20004768        0     1                 .LFB112
20004768 20004768        0     1                 .LFE126
2000476a 2000476a        0     1                 .L0 
2000476c 2000476c        0     1                 .L0 
20004778 20004778        0     1                 .L0 
20004788 20004788        0     1                 .L0 
2000478a 2000478a        0     1                 .L0 
2000478c 2000478c        0     1                 .L0 
2000478c 2000478c        0     1                 .L76
20004798 20004798        0     1                 .L75
2000479a 2000479a        0     1                 .L0 
2000479e 2000479e        0     1                 .L0 
200047b4 200047b4        0     1                 .L0 
200047b8 200047b8        0     1                 .L0 
200047be 200047be        0     1                 .L0 
200047c6 200047c6        0     1                 .L0 
200047ce 200047ce        0     1                 .L0 
200047d8 200047d8        0     1                 .L0 
200047d8 200047d8        0     1                 .L74
200047dc 200047dc        0     1                 .L0 
200047e0 200047e0        0     1                 .L0 
200047e2 200047e2        0     1                 .L0 
200047e4 200047e4        0     1                 .L0 
200047e4 200047e4        0     1                 .L0 
200047e4 200047e4        0     1                 .L0 
200047e4 200047e4        0     1                 .LFB115
200047e4 200047e4        0     1                 .LFE112
200047e4 200047e4       3c     1                 flash_read_status
200047e6 200047e6        0     1                 .L0 
200047e8 200047e8        0     1                 .L0 
200047ee 200047ee        0     1                 .L0 
200047f2 200047f2        0     1                 .L0 
200047f6 200047f6        0     1                 .L0 
2000480e 2000480e        0     1                 .L0 
20004812 20004812        0     1                 .L0 
20004816 20004816        0     1                 .L0 
2000481a 2000481a        0     1                 .L0 
2000481c 2000481c        0     1                 .L0 
20004820 20004820        0     1                 .L0 
20004820 20004820        0     1                 .L0 
20004820 20004820        0     1                 .L0 
20004820 20004820        0     1                 .LFB116
20004820 20004820        0     1                 .LFE115
20004820 20004820       b4     1                 flash_write_status
20004822 20004822        0     1                 .L0 
20004824 20004824        0     1                 .L0 
20004832 20004832        0     1                 .L0 
2000483e 2000483e        0     1                 .L0 
20004850 20004850        0     1                 .L0 
20004854 20004854        0     1                 .L0 
2000485a 2000485a        0     1                 .L0 
20004870 20004870        0     1                 .L0 
20004870 20004870        0     1                 .L80
2000487a 2000487a        0     1                 .L0 
20004890 20004890        0     1                 .L0 
20004890 20004890        0     1                 .L82
2000489a 2000489a        0     1                 .L0 
200048ae 200048ae        0     1                 .L0 
200048c8 200048c8        0     1                 .L0 
200048c8 200048c8        0     1                 .L81
200048cc 200048cc        0     1                 .L0 
200048d0 200048d0        0     1                 .L0 
200048d2 200048d2        0     1                 .L0 
200048d4 200048d4        0     1                 .L0 
200048d4 200048d4        0     1                 .L0 
200048d4 200048d4        0     1                 .L0 
200048d4 200048d4        0     1                 .LFB117
200048d4 200048d4        0     1                 .LFE116
200048d4 200048d4       30     1                 flash_read_otp
200048d6 200048d6        0     1                 .L0 
200048d8 200048d8        0     1                 .L0 
200048de 200048de        0     1                 .L0 
200048e2 200048e2        0     1                 .L0 
200048f8 200048f8        0     1                 .L0 
200048fc 200048fc        0     1                 .L0 
20004900 20004900        0     1                 .L0 
20004902 20004902        0     1                 .L0 
20004904 20004904        0     1                 .L0 
20004904 20004904        0     1                 .L0 
20004904 20004904        0     1                 .L0 
20004904 20004904        0     1                 .LFB118
20004904 20004904        0     1                 .LFE117
20004904 20004904       78     1                 flash_write_otp
20004906 20004906        0     1                 .L0 
20004908 20004908        0     1                 .L0 
2000490e 2000490e        0     1                 .L0 
2000491e 2000491e        0     1                 .L0 
20004920 20004920        0     1                 .L0 
20004924 20004924        0     1                 .L0 
20004924 20004924        0     1                 .L87
20004930 20004930        0     1                 .L86
20004932 20004932        0     1                 .L0 
20004936 20004936        0     1                 .L0 
2000494c 2000494c        0     1                 .L0 
20004950 20004950        0     1                 .L0 
20004956 20004956        0     1                 .L0 
2000495e 2000495e        0     1                 .L0 
20004966 20004966        0     1                 .L0 
20004970 20004970        0     1                 .L0 
20004970 20004970        0     1                 .L85
20004974 20004974        0     1                 .L0 
20004978 20004978        0     1                 .L0 
2000497a 2000497a        0     1                 .L0 
2000497c 2000497c        0     1                 .L0 
2000497c 2000497c        0     1                 .L0 
2000497c 2000497c        0     1                 .L0 
2000497c 2000497c        0     1                 .LFB119
2000497c 2000497c        0     1                 .LFE118
2000497c 2000497c       2c     1                 flash_erase_otp
2000497e 2000497e        0     1                 .L0 
20004980 20004980        0     1                 .L0 
20004982 20004982        0     1                 .L0 
20004986 20004986        0     1                 .L0 
2000499a 2000499a        0     1                 .L0 
2000499e 2000499e        0     1                 .L0 
200049a2 200049a2        0     1                 .L0 
200049a4 200049a4        0     1                 .L0 
200049a8 200049a8        0     1                 .L0 
200049a8 200049a8        0     1                 .L0 
200049a8 200049a8        0     1                 .L0 
200049a8 200049a8        0     1                 .LFB124
200049a8 200049a8        0     1                 .LFE119
200049a8 200049a8       3c     1                 flash_write_config
200049aa 200049aa        0     1                 .L0 
200049ac 200049ac        0     1                 .L0 
200049ba 200049ba        0     1                 .L0 
200049be 200049be        0     1                 .L0 
200049d6 200049d6        0     1                 .L0 
200049da 200049da        0     1                 .L0 
200049de 200049de        0     1                 .L0 
200049e0 200049e0        0     1                 .L0 
200049e4 200049e4        0     1                 .L0 
200049e4 200049e4        0     1                 .L0 
200049e4 200049e4        0     1                 .L0 
200049e4 200049e4        0     1                 .LFB125
200049e4 200049e4        0     1                 .LFE124
200049e4 200049e4       32     1                 flash_read_config
200049e6 200049e6        0     1                 .L0 
200049e8 200049e8        0     1                 .L0 
200049e8 200049e8        0     1                 .L0 
200049ec 200049ec        0     1                 .L0 
200049f0 200049f0        0     1                 .L0 
20004a06 20004a06        0     1                 .L0 
20004a0a 20004a0a        0     1                 .L0 
20004a0e 20004a0e        0     1                 .L0 
20004a12 20004a12        0     1                 .L0 
20004a14 20004a14        0     1                 .L0 
20004a16 20004a16        0     1                 .L0 
20004a16 20004a16        0     1                 .L0 
20004a16 20004a16        0     1                 .LFE125
20004a18 20004a18       4a     4         ./drivers/flash.o:(.text.gpio_get_level)
20004a18 20004a18       4a     1                 gpio_get_level
20004a18 20004a18        0     1                 .L0 
20004a18 20004a18        0     1                 .L0 
20004a18 20004a18        0     1                 .LFB50
20004a1a 20004a1a        0     1                 .L0 
20004a20 20004a20        0     1                 .L0 
20004a5c 20004a5c        0     1                 .L0 
20004a60 20004a60        0     1                 .L0 
20004a62 20004a62        0     1                 .L0 
20004a62 20004a62        0     1                 .L0 
20004a62 20004a62        0     1                 .LFE50
20004a64 20004a64      112     4         ./drivers/gpio.o:(.text.gpio_input_en)
20004a64 20004a64        0     1                 .L0 
20004a64 20004a64        0     1                 .L0 
20004a64 20004a64        0     1                 .LFB66
20004a64 20004a64      110     1                 gpio_input_en
20004a66 20004a66        0     1                 .L0 
20004a68 20004a68        0     1                 .L0 
20004a6e 20004a6e        0     1                 .L0 
20004a76 20004a76        0     1                 .L0 
20004a86 20004a86        0     1                 .L0 
20004a8c 20004a8c        0     1                 .L0 
20004a98 20004a98        0     1                 .L0 
20004aa4 20004aa4        0     1                 .L0 
20004aa4 20004aa4        0     1                 .L10
20004afc 20004afc        0     1                 .L0 
20004b00 20004b00        0     1                 .L0 
20004b00 20004b00        0     1                 .L11
20004b0c 20004b0c        0     1                 .L0 
20004b34 20004b34        0     1                 .L0 
20004b38 20004b38        0     1                 .L0 
20004b38 20004b38        0     1                 .L13
20004b44 20004b44        0     1                 .L0 
20004b6c 20004b6c        0     1                 .L0 
20004b6c 20004b6c        0     1                 .L14
20004b70 20004b70        0     1                 .L0 
20004b72 20004b72        0     1                 .L0 
20004b74 20004b74        0     1                 .L0 
20004b74 20004b74        0     1                 .L0 
20004b74 20004b74        0     1                 .LFE66
20004b78 20004b78      13e     4         ./drivers/gpio.o:(.text.gpio_input_dis)
20004b78 20004b78        0     1                 .L0 
20004b78 20004b78        0     1                 .L0 
20004b78 20004b78        0     1                 .LFB67
20004b78 20004b78      13c     1                 gpio_input_dis
20004b7a 20004b7a        0     1                 .L0 
20004b7c 20004b7c        0     1                 .L0 
20004b82 20004b82        0     1                 .L0 
20004b8a 20004b8a        0     1                 .L0 
20004b9a 20004b9a        0     1                 .L0 
20004ba0 20004ba0        0     1                 .L0 
20004bac 20004bac        0     1                 .L0 
20004bb8 20004bb8        0     1                 .L0 
20004bb8 20004bb8        0     1                 .L16
20004c20 20004c20        0     1                 .L0 
20004c24 20004c24        0     1                 .L0 
20004c24 20004c24        0     1                 .L17
20004c30 20004c30        0     1                 .L0 
20004c66 20004c66        0     1                 .L0 
20004c68 20004c68        0     1                 .L0 
20004c68 20004c68        0     1                 .L19
20004c74 20004c74        0     1                 .L0 
20004cac 20004cac        0     1                 .L0 
20004cac 20004cac        0     1                 .L20
20004cb0 20004cb0        0     1                 .L0 
20004cb2 20004cb2        0     1                 .L0 
20004cb4 20004cb4        0     1                 .L0 
20004cb4 20004cb4        0     1                 .L0 
20004cb4 20004cb4        0     1                 .LFE67
20004cb8 20004cb8      102     4         ./drivers/gpio.o:(.text.gpio_set_up_down_res)
20004cb8 20004cb8        0     1                 .L0 
20004cb8 20004cb8        0     1                 .L0 
20004cb8 20004cb8        0     1                 .LFB75
20004cb8 20004cb8      102     1                 gpio_set_up_down_res
20004cba 20004cba        0     1                 .L0 
20004cbc 20004cbc        0     1                 .L0 
20004cca 20004cca        0     1                 .L0 
20004cd4 20004cd4        0     1                 .L0 
20004d04 20004d04        0     1                 .L0 
20004d0c 20004d0c        0     1                 .L0 
20004d10 20004d10        0     1                 .L0 
20004d18 20004d18        0     1                 .L0 
20004d18 20004d18        0     1                 .L68
20004d22 20004d22        0     1                 .L0 
20004d28 20004d28        0     1                 .L0 
20004d30 20004d30        0     1                 .L0 
20004d30 20004d30        0     1                 .L70
20004d3a 20004d3a        0     1                 .L0 
20004d40 20004d40        0     1                 .L0 
20004d4c 20004d4c        0     1                 .L0 
20004d4c 20004d4c        0     1                 .L71
20004d56 20004d56        0     1                 .L0 
20004d5c 20004d5c        0     1                 .L0 
20004d64 20004d64        0     1                 .L0 
20004d64 20004d64        0     1                 .L69
20004db0 20004db0        0     1                 .L0 
20004db0 20004db0        0     1                 .L74
20004db4 20004db4        0     1                 .L0 
20004db4 20004db4        0     1                 .L67
20004db6 20004db6        0     1                 .L0 
20004db8 20004db8        0     1                 .L0 
20004dba 20004dba        0     1                 .L0 
20004dba 20004dba        0     1                 .L0 
20004dba 20004dba        0     1                 .LFE75
20004dbc 20004dbc       5a     4         ./drivers/spi.o:(.text.dma_chn_en)
20004dbc 20004dbc       5a     1                 dma_chn_en
20004dbc 20004dbc        0     1                 .L0 
20004dbc 20004dbc        0     1                 .L0 
20004dbc 20004dbc        0     1                 .LFB28
20004dbe 20004dbe        0     1                 .L0 
20004dc4 20004dc4        0     1                 .L0 
20004e10 20004e10        0     1                 .L0 
20004e14 20004e14        0     1                 .L0 
20004e16 20004e16        0     1                 .L0 
20004e16 20004e16        0     1                 .L0 
20004e16 20004e16        0     1                 .LFE28
20004e18 20004e18       5a     4         ./drivers/spi.o:(.text.dma_set_size)
20004e18 20004e18       58     1                 dma_set_size
20004e18 20004e18        0     1                 .L0 
20004e18 20004e18        0     1                 .L0 
20004e18 20004e18        0     1                 .LFB38
20004e1a 20004e1a        0     1                 .L0 
20004e2a 20004e2a        0     1                 .L0 
20004e6a 20004e6a        0     1                 .L0 
20004e6e 20004e6e        0     1                 .L0 
20004e70 20004e70        0     1                 .L0 
20004e70 20004e70        0     1                 .L0 
20004e70 20004e70        0     1                 .LFE38
20004e74 20004e74       80     4         ./drivers/spi.o:(.text.dma_set_address)
20004e74 20004e74       80     1                 dma_set_address
20004e74 20004e74        0     1                 .L0 
20004e74 20004e74        0     1                 .L0 
20004e74 20004e74        0     1                 .LFB40
20004e76 20004e76        0     1                 .L0 
20004e80 20004e80        0     1                 .L0 
20004e8a 20004e8a        0     1                 .L0 
20004e94 20004e94        0     1                 .L0 
20004e94 20004e94        0     1                 .L9
20004e98 20004e98        0     1                 .L0 
20004e98 20004e98        0     1                 .L10
20004eb6 20004eb6        0     1                 .L0 
20004ec0 20004ec0        0     1                 .L0 
20004ecc 20004ecc        0     1                 .L0 
20004ecc 20004ecc        0     1                 .L11
20004ed0 20004ed0        0     1                 .L0 
20004ed0 20004ed0        0     1                 .L12
20004eee 20004eee        0     1                 .L0 
20004ef2 20004ef2        0     1                 .L0 
20004ef4 20004ef4        0     1                 .L0 
20004ef4 20004ef4        0     1                 .L0 
20004ef4 20004ef4        0     1                 .LFE40
20004ef4 20004ef4       aa     4         ./drivers/spi.o:(.text.spi_tx_cnt)
20004ef4 20004ef4       aa     1                 spi_tx_cnt
20004ef4 20004ef4        0     1                 .L0 
20004ef4 20004ef4        0     1                 .L0 
20004ef4 20004ef4        0     1                 .LFB71
20004ef6 20004ef6        0     1                 .L0 
20004efe 20004efe        0     1                 .L0 
20004f32 20004f32        0     1                 .L0 
20004f66 20004f66        0     1                 .L0 
20004f98 20004f98        0     1                 .L0 
20004f9c 20004f9c        0     1                 .L0 
20004f9e 20004f9e        0     1                 .L0 
20004f9e 20004f9e        0     1                 .L0 
20004f9e 20004f9e        0     1                 .LFE71
20004fa0 20004fa0       66     4         ./drivers/spi.o:(.text.spi_tx_dma_en)
20004fa0 20004fa0       66     1                 spi_tx_dma_en
20004fa0 20004fa0        0     1                 .L0 
20004fa0 20004fa0        0     1                 .L0 
20004fa0 20004fa0        0     1                 .LFB88
20004fa2 20004fa2        0     1                 .L0 
20004fa8 20004fa8        0     1                 .L0 
20005000 20005000        0     1                 .L0 
20005004 20005004        0     1                 .L0 
20005006 20005006        0     1                 .L0 
20005006 20005006        0     1                 .L0 
20005006 20005006        0     1                 .LFE88
20005008 20005008       66     4         ./drivers/spi.o:(.text.spi_rx_dma_en)
20005008 20005008       66     1                 spi_rx_dma_en
20005008 20005008        0     1                 .L0 
20005008 20005008        0     1                 .L0 
20005008 20005008        0     1                 .LFB90
2000500a 2000500a        0     1                 .L0 
20005010 20005010        0     1                 .L0 
20005068 20005068        0     1                 .L0 
2000506c 2000506c        0     1                 .L0 
2000506e 2000506e        0     1                 .L0 
2000506e 2000506e        0     1                 .L0 
2000506e 2000506e        0     1                 .LFE90
20005070 20005070       1e     4         ./drivers/spi.o:(.text.hspi_xip_set_wr_cmd)
20005070 20005070       1e     1                 hspi_xip_set_wr_cmd
20005070 20005070        0     1                 .L0 
20005070 20005070        0     1                 .L0 
20005070 20005070        0     1                 .LFB92
20005072 20005072        0     1                 .L0 
20005078 20005078        0     1                 .L0 
20005088 20005088        0     1                 .L0 
2000508c 2000508c        0     1                 .L0 
2000508e 2000508e        0     1                 .L0 
2000508e 2000508e        0     1                 .L0 
2000508e 2000508e        0     1                 .LFE92
20005090 20005090       1e     4         ./drivers/spi.o:(.text.hspi_xip_set_rd_cmd)
20005090 20005090       1e     1                 hspi_xip_set_rd_cmd
20005090 20005090        0     1                 .L0 
20005090 20005090        0     1                 .L0 
20005090 20005090        0     1                 .LFB93
20005092 20005092        0     1                 .L0 
20005098 20005098        0     1                 .L0 
200050a8 200050a8        0     1                 .L0 
200050ac 200050ac        0     1                 .L0 
200050ae 200050ae        0     1                 .L0 
200050ae 200050ae        0     1                 .L0 
200050ae 200050ae        0     1                 .LFE93
200050b0 200050b0       5e     4         ./drivers/spi.o:(.text.hspi_xip_addr_offset)
200050b0 200050b0       5e     1                 hspi_xip_addr_offset
200050b0 200050b0        0     1                 .L0 
200050b0 200050b0        0     1                 .L0 
200050b0 200050b0        0     1                 .LFB94
200050b2 200050b2        0     1                 .L0 
200050b4 200050b4        0     1                 .L0 
200050c6 200050c6        0     1                 .L0 
200050dc 200050dc        0     1                 .L0 
200050f2 200050f2        0     1                 .L0 
20005108 20005108        0     1                 .L0 
2000510c 2000510c        0     1                 .L0 
2000510e 2000510e        0     1                 .L0 
2000510e 2000510e        0     1                 .L0 
2000510e 2000510e        0     1                 .LFE94
20005110 20005110       4a     4         ./drivers/spi.o:(.text.hspi_xip_read_transmode)
20005110 20005110       48     1                 hspi_xip_read_transmode
20005110 20005110        0     1                 .L0 
20005110 20005110        0     1                 .L0 
20005110 20005110        0     1                 .LFB95
20005112 20005112        0     1                 .L0 
20005118 20005118        0     1                 .L0 
20005152 20005152        0     1                 .L0 
20005156 20005156        0     1                 .L0 
20005158 20005158        0     1                 .L0 
20005158 20005158        0     1                 .L0 
20005158 20005158        0     1                 .LFE95
2000515c 2000515c       4a     4         ./drivers/spi.o:(.text.hspi_xip_write_transmode)
2000515c 2000515c       48     1                 hspi_xip_write_transmode
2000515c 2000515c        0     1                 .L0 
2000515c 2000515c        0     1                 .L0 
2000515c 2000515c        0     1                 .LFB96
2000515e 2000515e        0     1                 .L0 
20005164 20005164        0     1                 .L0 
2000519e 2000519e        0     1                 .L0 
200051a2 200051a2        0     1                 .L0 
200051a4 200051a4        0     1                 .L0 
200051a4 200051a4        0     1                 .L0 
200051a4 200051a4        0     1                 .LFE96
200051a8 200051a8       92     4         ./drivers/spi.o:(.text.spi_rx_tx_irq_trig_cnt)
200051a8 200051a8       90     1                 spi_rx_tx_irq_trig_cnt
200051a8 200051a8        0     1                 .L0 
200051a8 200051a8        0     1                 .L0 
200051a8 200051a8        0     1                 .LFB112
200051aa 200051aa        0     1                 .L0 
200051b8 200051b8        0     1                 .L0 
20005232 20005232        0     1                 .L0 
20005236 20005236        0     1                 .L0 
20005238 20005238        0     1                 .L0 
20005238 20005238        0     1                 .L0 
20005238 20005238        0     1                 .LFE112
2000523c 2000523c        e     4         ./drivers/stimer.o:(.text.stimer_get_tick)
2000523c 2000523c        e     1                 stimer_get_tick
2000523c 2000523c        0     1                 .L0 
2000523c 2000523c        0     1                 .L0 
2000523c 2000523c        0     1                 .L0 
2000523c 2000523c        0     1                 .LFB8
20005246 20005246        0     1                 .L0 
2000524a 2000524a        0     1                 .L0 
2000524a 2000524a        0     1                 .L0 
2000524a 2000524a        0     1                 .LFE8
2000524c 2000524c       24     4         ./drivers/stimer.o:(.text.clock_time_exceed)
2000524c 2000524c       24     1                 clock_time_exceed
2000524c 2000524c        0     1                 .L0 
2000524c 2000524c        0     1                 .L0 
2000524c 2000524c        0     1                 .LFB9
2000524e 2000524e        0     1                 .L0 
20005250 20005250        0     1                 .L0 
20005254 20005254        0     1                 .L0 
20005268 20005268        0     1                 .L0 
2000526c 2000526c        0     1                 .L0 
2000526e 2000526e        0     1                 .L0 
20005270 20005270        0     1                 .L0 
20005270 20005270        0     1                 .L0 
20005270 20005270        0     1                 .LFE9
20005270 20005270       22     4         ./common/usb_dbg/myudb_usb.o:(.text.core_interrupt_disable)
20005270 20005270       20     1                 core_interrupt_disable
20005270 20005270        0     1                 .L0 
20005270 20005270        0     1                 .L0 
20005270 20005270        0     1                 .LFB3
20005272 20005272        0     1                 .L0 
20005272 20005272        0     1                 .L0 
2000527a 2000527a        0     1                 .L0 
20005280 20005280        0     1                 .L0 
20005284 20005284        0     1                 .L0 
20005288 20005288        0     1                 .L0 
20005288 20005288        0     1                 .L6
2000528a 2000528a        0     1                 .L0 
2000528e 2000528e        0     1                 .L0 
20005290 20005290        0     1                 .L0 
20005290 20005290        0     1                 .L0 
20005290 20005290        0     1                 .LFE3
20005294 20005294       1e     4         ./common/usb_dbg/myudb_usb.o:(.text.core_restore_interrupt)
20005294 20005294       1c     1                 core_restore_interrupt
20005294 20005294        0     1                 .L0 
20005294 20005294        0     1                 .L0 
20005294 20005294        0     1                 .LFB4
20005296 20005296        0     1                 .L0 
20005298 20005298        0     1                 .L0 
2000529c 2000529c        0     1                 .L0 
200052a4 200052a4        0     1                 .L0 
200052a8 200052a8        0     1                 .L0 
200052a8 200052a8        0     1                 .L9
200052aa 200052aa        0     1                 .L0 
200052ae 200052ae        0     1                 .L0 
200052b0 200052b0        0     1                 .L0 
200052b0 200052b0        0     1                 .L0 
200052b0 200052b0        0     1                 .LFE4
200052b4 200052b4       26     4         ./common/usb_dbg/myudb_usb.o:(.text.usbhw_reset_ep_ptr)
200052b4 200052b4       24     1                 usbhw_reset_ep_ptr
200052b4 200052b4        0     1                 .L0 
200052b4 200052b4        0     1                 .L0 
200052b4 200052b4        0     1                 .LFB277
200052b6 200052b6        0     1                 .L0 
200052b8 200052b8        0     1                 .L0 
200052d2 200052d2        0     1                 .L0 
200052d6 200052d6        0     1                 .L0 
200052d8 200052d8        0     1                 .L0 
200052d8 200052d8        0     1                 .L0 
200052d8 200052d8        0     1                 .LFE277
200052dc 200052dc       32     4         ./common/usb_dbg/myudb_usb.o:(.text.usbhw_write_ep_data)
200052dc 200052dc       30     1                 usbhw_write_ep_data
200052dc 200052dc        0     1                 .L0 
200052dc 200052dc        0     1                 .L0 
200052dc 200052dc        0     1                 .LFB289
200052de 200052de        0     1                 .L0 
200052e6 200052e6        0     1                 .L0 
20005306 20005306        0     1                 .L0 
2000530a 2000530a        0     1                 .L0 
2000530c 2000530c        0     1                 .L0 
2000530c 2000530c        0     1                 .L0 
2000530c 2000530c        0     1                 .LFE289
20005310 20005310       2a     4         ./common/usb_dbg/myudb_usb.o:(.text.usbhw_is_ep_busy)
20005310 20005310       2a     1                 usbhw_is_ep_busy
20005310 20005310        0     1                 .L0 
20005310 20005310        0     1                 .L0 
20005310 20005310        0     1                 .LFB291
20005312 20005312        0     1                 .L0 
20005314 20005314        0     1                 .L0 
20005334 20005334        0     1                 .L0 
20005338 20005338        0     1                 .L0 
2000533a 2000533a        0     1                 .L0 
2000533a 2000533a        0     1                 .L0 
2000533a 2000533a        0     1                 .LFE291
2000533c 2000533c       2a     4         ./common/usb_dbg/myudb_usb.o:(.text.usbhw_data_ep_ack)
2000533c 2000533c       28     1                 usbhw_data_ep_ack
2000533c 2000533c        0     1                 .L0 
2000533c 2000533c        0     1                 .L0 
2000533c 2000533c        0     1                 .LFB292
2000533e 2000533e        0     1                 .L0 
20005340 20005340        0     1                 .L0 
2000535e 2000535e        0     1                 .L0 
20005362 20005362        0     1                 .L0 
20005364 20005364        0     1                 .L0 
20005364 20005364        0     1                 .L0 
20005364 20005364        0     1                 .LFE292
20005368 20005368        6     4         ./boot/cstartup_flash.o:(.text)
20005368 20005368        0     1                 .L0 
20005368 20005368        0     1                 .L0 
20005368 20005368        0     1                 .L0 
20005368 20005368        0     1                 .L11
20005368 20005368        0     1                 default_irq_entry
20005368 20005368        0     1                 entry_irq1
20005368 20005368        0     1                 entry_irq2
20005368 20005368        0     1                 entry_irq3
20005368 20005368        0     1                 entry_irq4
20005368 20005368        0     1                 entry_irq5
20005368 20005368        0     1                 entry_irq6
20005368 20005368        0     1                 entry_irq7
20005368 20005368        0     1                 entry_irq8
20005368 20005368        0     1                 entry_irq9
20005368 20005368        0     1                 entry_irq10
20005368 20005368        0     1                 entry_irq11
20005368 20005368        0     1                 entry_irq12
20005368 20005368        0     1                 entry_irq13
20005368 20005368        0     1                 entry_irq14
20005368 20005368        0     1                 entry_irq15
20005368 20005368        0     1                 entry_irq16
20005368 20005368        0     1                 entry_irq17
20005368 20005368        0     1                 entry_irq18
20005368 20005368        0     1                 entry_irq19
20005368 20005368        0     1                 entry_irq20
20005368 20005368        0     1                 entry_irq21
20005368 20005368        0     1                 entry_irq22
20005368 20005368        0     1                 entry_irq23
20005368 20005368        0     1                 entry_irq24
20005368 20005368        0     1                 entry_irq25
20005368 20005368        0     1                 entry_irq26
20005368 20005368        0     1                 entry_irq27
20005368 20005368        0     1                 entry_irq28
20005368 20005368        0     1                 entry_irq29
20005368 20005368        0     1                 entry_irq30
20005368 20005368        0     1                 entry_irq31
20005368 20005368        0     1                 entry_irq32
20005368 20005368        0     1                 entry_irq33
20005368 20005368        0     1                 entry_irq34
20005368 20005368        0     1                 entry_irq35
20005368 20005368        0     1                 entry_irq36
20005368 20005368        0     1                 entry_irq37
20005368 20005368        0     1                 entry_irq38
20005368 20005368        0     1                 entry_irq39
20005368 20005368        0     1                 entry_irq40
20005368 20005368        0     1                 entry_irq41
20005368 20005368        0     1                 entry_irq42
20005368 20005368        0     1                 entry_irq43
20005368 20005368        0     1                 entry_irq44
20005368 20005368        0     1                 entry_irq45
20005368 20005368        0     1                 entry_irq46
20005368 20005368        0     1                 entry_irq47
20005368 20005368        0     1                 entry_irq48
20005368 20005368        0     1                 entry_irq49
20005368 20005368        0     1                 entry_irq50
20005368 20005368        0     1                 entry_irq51
20005368 20005368        0     1                 entry_irq52
20005368 20005368        0     1                 entry_irq53
20005368 20005368        0     1                 entry_irq54
20005368 20005368        0     1                 entry_irq55
20005368 20005368        0     1                 entry_irq56
20005368 20005368        0     1                 entry_irq57
20005368 20005368        0     1                 entry_irq58
20005368 20005368        0     1                 entry_irq59
20005368 20005368        0     1                 entry_irq60
20005368 20005368        0     1                 entry_irq61
20005368 20005368        0     1                 entry_irq62
20005368 20005368        0     1                 entry_irq63
2000536a 2000536a        0     1                 .L0 
2000536a 2000536a        0     1                 .L12
2000536a 2000536a        0     1                 trap_handler
2000536c 2000536c        0     1                 .L0 
2000536c 2000536c        0     1                 .L0 
2000536c 2000536c        0     1                 .L0 
20005370 20005370       6e     4         ./Debug_Demo/app.o:(.text.gpio_function_en)
20005370 20005370       6e     1                 gpio_function_en
20005370 20005370        0     1                 .L0 
20005370 20005370        0     1                 .L0 
20005370 20005370        0     1                 .LFB45
20005372 20005372        0     1                 .L0 
20005378 20005378        0     1                 .L0 
20005380 20005380        0     1                 .L0 
200053d8 200053d8        0     1                 .L0 
200053dc 200053dc        0     1                 .L0 
200053de 200053de        0     1                 .L0 
200053de 200053de        0     1                 .L0 
200053de 200053de        0     1                 .LFE45
200053e0 200053e0       7e     4         ./Debug_Demo/app.o:(.text.gpio_function_dis)
200053e0 200053e0       7e     1                 gpio_function_dis
200053e0 200053e0        0     1                 .L0 
200053e0 200053e0        0     1                 .L0 
200053e0 200053e0        0     1                 .LFB46
200053e2 200053e2        0     1                 .L0 
200053e8 200053e8        0     1                 .L0 
200053f0 200053f0        0     1                 .L0 
20005458 20005458        0     1                 .L0 
2000545c 2000545c        0     1                 .L0 
2000545e 2000545e        0     1                 .L0 
2000545e 2000545e        0     1                 .L0 
2000545e 2000545e        0     1                 .LFE46
20005460 20005460       7e     4         ./Debug_Demo/app.o:(.text.gpio_output_en)
20005460 20005460       7e     1                 gpio_output_en
20005460 20005460        0     1                 .L0 
20005460 20005460        0     1                 .L0 
20005460 20005460        0     1                 .LFB53
20005462 20005462        0     1                 .L0 
20005468 20005468        0     1                 .L0 
20005470 20005470        0     1                 .L0 
200054d8 200054d8        0     1                 .L0 
200054dc 200054dc        0     1                 .L0 
200054de 200054de        0     1                 .L0 
200054de 200054de        0     1                 .L0 
200054de 200054de        0     1                 .LFE53
200054e0 200054e0       2a     4         ./Debug_Demo/app.o:(.text.usbhw_set_ep8_fifo_mode)
200054e0 200054e0       28     1                 usbhw_set_ep8_fifo_mode
200054e0 200054e0        0     1                 .L0 
200054e0 200054e0        0     1                 .L0 
200054e0 200054e0        0     1                 .L0 
200054e0 200054e0        0     1                 .LFB269
20005504 20005504        0     1                 .L0 
20005508 20005508        0     1                 .L0 
20005508 20005508        0     1                 .L0 
20005508 20005508        0     1                 .LFE269
2000550c 2000550c       1e     4         ./Debug_Demo/app.o:(.text.usbhw_set_printer_threshold)
2000550c 2000550c       1e     1                 usbhw_set_printer_threshold
2000550c 2000550c        0     1                 .L0 
2000550c 2000550c        0     1                 .L0 
2000550c 2000550c        0     1                 .LFB294
2000550e 2000550e        0     1                 .L0 
20005514 20005514        0     1                 .L0 
20005524 20005524        0     1                 .L0 
20005528 20005528        0     1                 .L0 
2000552a 2000552a        0     1                 .L0 
2000552a 2000552a        0     1                 .L0 
2000552a 2000552a        0     1                 .LFE294
2000552c 2000552c       4e     4         ./Debug_Demo/app.o:(.text.usb_dp_pullup_en)
2000552c 2000552c       4c     1                 usb_dp_pullup_en
2000552c 2000552c        0     1                 .L0 
2000552c 2000552c        0     1                 .L0 
2000552c 2000552c        0     1                 .LFB295
2000552e 2000552e        0     1                 .L0 
20005530 20005530        0     1                 .L0 
20005532 20005532        0     1                 .L0 
20005542 20005542        0     1                 .L0 
20005546 20005546        0     1                 .L0 
20005554 20005554        0     1                 .L0 
20005554 20005554        0     1                 .L11
20005560 20005560        0     1                 .L0 
20005560 20005560        0     1                 .L12
20005570 20005570        0     1                 .L0 
20005574 20005574        0     1                 .L0 
20005576 20005576        0     1                 .L0 
20005578 20005578        0     1                 .L0 
20005578 20005578        0     1                 .L0 
20005578 20005578        0     1                 .LFE295
2000557c 2000557c       90     4         ./Debug_Demo/app.o:(.text.usb_set_pin_en)
2000557c 2000557c       8e     1                 usb_set_pin_en
2000557c 2000557c        0     1                 .L0 
2000557c 2000557c        0     1                 .L0 
2000557c 2000557c        0     1                 .LFB297
2000557e 2000557e        0     1                 .L0 
20005580 20005580        0     1                 .L0 
20005580 20005580        0     1                 .L0 
200055a2 200055a2        0     1                 .L0 
200055a8 200055a8        0     1                 .L0 
200055cc 200055cc        0     1                 .L0 
200055d2 200055d2        0     1                 .L0 
200055da 200055da        0     1                 .L0 
200055de 200055de        0     1                 .L0 
20005602 20005602        0     1                 .L0 
20005606 20005606        0     1                 .L0 
20005608 20005608        0     1                 .L0 
2000560a 2000560a        0     1                 .L0 
2000560a 2000560a        0     1                 .L0 
2000560a 2000560a        0     1                 .LFE297
2000560c 2000560c       8e     4         ./Debug_Demo/app.o:(.text.user_init)
2000560c 2000560c        0     1                 .L0 
2000560c 2000560c        0     1                 .L0 
2000560c 2000560c        0     1                 .LFB373
2000560c 2000560c       8c     1                 user_init
2000560e 2000560e        0     1                 .L0 
20005610 20005610        0     1                 .L0 
20005610 20005610        0     1                 .L0 
20005616 20005616        0     1                 .L0 
2000561c 2000561c        0     1                 .L0 
20005624 20005624        0     1                 .L0 
2000562a 2000562a        0     1                 .L0 
20005630 20005630        0     1                 .L0 
20005638 20005638        0     1                 .L0 
2000563e 2000563e        0     1                 .L0 
20005644 20005644        0     1                 .L0 
2000564c 2000564c        0     1                 .L0 
20005652 20005652        0     1                 .L0 
20005658 20005658        0     1                 .L0 
20005660 20005660        0     1                 .L0 
20005662 20005662        0     1                 .L0 
20005666 20005666        0     1                 .L0 
20005668 20005668        0     1                 .L0 
20005674 20005674        0     1                 .L0 
20005690 20005690        0     1                 .L0 
20005694 20005694        0     1                 .L0 
20005696 20005696        0     1                 .L0 
20005698 20005698        0     1                 .L0 
20005698 20005698        0     1                 .L0 
20005698 20005698        0     1                 .LFE373
2000569c 2000569c       72     4         ./Debug_Demo/main.o:(.text.gpio_toggle)
2000569c 2000569c       72     1                 gpio_toggle
2000569c 2000569c        0     1                 .L0 
2000569c 2000569c        0     1                 .L0 
2000569c 2000569c        0     1                 .LFB52
2000569e 2000569e        0     1                 .L0 
200056a4 200056a4        0     1                 .L0 
20005708 20005708        0     1                 .L0 
2000570c 2000570c        0     1                 .L0 
2000570e 2000570e        0     1                 .L0 
2000570e 2000570e        0     1                 .L0 
2000570e 2000570e        0     1                 .LFE52
20005710 20005710       5a     4         ./Debug_Demo/main.o:(.text.main)
20005710 20005710        0     1                 .L0 
20005710 20005710        0     1                 .L0 
20005710 20005710        0     1                 .LFB373
20005710 20005710       5a     1                 main
20005712 20005712        0     1                 .L0 
20005714 20005714        0     1                 .L0 
20005714 20005714        0     1                 .L0 
2000571c 2000571c        0     1                 .L0 
20005730 20005730        0     1                 .L0 
20005732 20005732        0     1                 .L0 
2000573c 2000573c        0     1                 .L0 
20005742 20005742        0     1                 .L0 
20005748 20005748        0     1                 .L0 
2000574e 2000574e        0     1                 .L0 
20005754 20005754        0     1                 .L0 
20005760 20005760        0     1                 .L0 
20005762 20005762        0     1                 .L0 
20005766 20005766        0     1                 .L0 
20005768 20005768        0     1                 .L0 
2000576a 2000576a        0     1                 .L0 
2000576a 2000576a        0     1                 .L0 
2000576a 2000576a        0     1                 .LFE373
2000576c 2000576c      3bc     4         /cygdrive/c/TelinkIoTStudio/RDS/V3.2.3/toolchains/nds32le-elf-mculib-v5f/bin/../lib/gcc/riscv32-elf/7.4.0/libgcc.a(_udivdi3.o):(.text)
2000576c 2000576c        0     1                 .L0 
2000576c 2000576c        0     1                 .L0 
2000576c 2000576c        0     1                 .L0 
2000576c 2000576c        0     1                 .Ltext0
2000576c 2000576c        0     1                 .LFB3
2000576c 2000576c        0     1                 .LBB16
2000576c 2000576c        0     1                 .LVL0
2000576c 2000576c      3ba     1                 __udivdi3
2000576e 2000576e        0     1                 .L0 
20005770 20005770        0     1                 .L0 
20005770 20005770        0     1                 .LVL1
20005772 20005772        0     1                 .L0 
20005772 20005772        0     1                 .LVL2
20005774 20005774        0     1                 .L0 
20005774 20005774        0     1                 .LVL3
20005776 20005776        0     1                 .L0 
2000577a 2000577a        0     1                 .L0 
2000577a 2000577a        0     1                 .LVL4
2000577a 2000577a        0     1                 .LBB18
20005790 20005790        0     1                 .L5
20005790 20005790        0     1                 .LVL5
200057a0 200057a0        0     1                 .LVL6
200057a6 200057a6        0     1                 .L0 
200057a6 200057a6        0     1                 .LVL7
200057a6 200057a6        0     1                 .LBE18
200057a8 200057a8        0     1                 .L0 
200057a8 200057a8        0     1                 .LVL8
200057b0 200057b0        0     1                 .L0 
200057b4 200057b4        0     1                 .L0 
200057b4 200057b4        0     1                 .LVL9
200057b8 200057b8        0     1                 .L0 
200057b8 200057b8        0     1                 .LVL10
200057bc 200057bc        0     1                 .L0 
200057bc 200057bc        0     1                 .L7
200057bc 200057bc        0     1                 .LVL11
200057bc 200057bc        0     1                 .LBB19
200057c0 200057c0        0     1                 .LVL12
200057c4 200057c4        0     1                 .LVL13
200057c8 200057c8        0     1                 .LVL14
200057d0 200057d0        0     1                 .LVL15
200057d4 200057d4        0     1                 .LVL16
200057d6 200057d6        0     1                 .LVL17
200057da 200057da        0     1                 .LVL18
200057e0 200057e0        0     1                 .LVL19
200057e4 200057e4        0     1                 .LVL20
200057ec 200057ec        0     1                 .L32
200057f0 200057f0        0     1                 .L8
200057f0 200057f0        0     1                 .LVL21
200057fc 200057fc        0     1                 .LVL23
20005800 20005800        0     1                 .LVL24
20005804 20005804        0     1                 .LVL25
20005806 20005806        0     1                 .LVL26
2000580a 2000580a        0     1                 .LVL27
20005810 20005810        0     1                 .LVL28
20005814 20005814        0     1                 .LVL29
20005820 20005820        0     1                 .L9
20005820 20005820        0     1                 .LVL30
20005822 20005822        0     1                 .LVL31
20005824 20005824        0     1                 .LVL32
20005826 20005826        0     1                 .L0 
20005826 20005826        0     1                 .LVL33
20005826 20005826        0     1                 .LBE16
20005826 20005826        0     1                 .LBE19
20005828 20005828        0     1                 .L0 
20005828 20005828        0     1                 .L2
20005828 20005828        0     1                 .LVL34
20005828 20005828        0     1                 .LBB59
2000582c 2000582c        0     1                 .L0 
2000582c 2000582c        0     1                 .LVL35
2000582c 2000582c        0     1                 .LBB20
20005840 20005840        0     1                 .L22
20005840 20005840        0     1                 .LVL36
20005858 20005858        0     1                 .L0 
20005858 20005858        0     1                 .LVL37
20005858 20005858        0     1                 .LBE20
2000585c 2000585c        0     1                 .L0 
20005864 20005864        0     1                 .LVL38
2000586a 2000586a        0     1                 .L0 
2000586a 2000586a        0     1                 .LVL39
2000586a 2000586a        0     1                 .LBE59
2000586c 2000586c        0     1                 .L0 
2000586c 2000586c        0     1                 .L3
2000586c 2000586c        0     1                 .LVL40
2000586c 2000586c        0     1                 .LBB60
2000586e 2000586e        0     1                 .L0 
20005870 20005870        0     1                 .LVL41
20005874 20005874        0     1                 .L0 
20005874 20005874        0     1                 .L11
20005874 20005874        0     1                 .LVL42
20005874 20005874        0     1                 .LBB21
20005888 20005888        0     1                 .L13
20005888 20005888        0     1                 .LVL43
200058a0 200058a0        0     1                 .L0 
200058a0 200058a0        0     1                 .LVL44
200058a0 200058a0        0     1                 .LBE21
200058a4 200058a4        0     1                 .L0 
200058a8 200058a8        0     1                 .LVL45
200058b4 200058b4        0     1                 .L0 
200058b4 200058b4        0     1                 .L16
200058b4 200058b4        0     1                 .LVL46
200058b4 200058b4        0     1                 .LBB22
200058bc 200058bc        0     1                 .LVL47
200058c0 200058c0        0     1                 .LVL48
200058c4 200058c4        0     1                 .LVL49
200058c6 200058c6        0     1                 .LVL50
200058c8 200058c8        0     1                 .LVL51
200058d0 200058d0        0     1                 .LVL52
200058d4 200058d4        0     1                 .LVL53
200058dc 200058dc        0     1                 .L41
200058e0 200058e0        0     1                 .L19
200058e0 200058e0        0     1                 .LVL54
200058ea 200058ea        0     1                 .LVL56
200058ee 200058ee        0     1                 .LVL57
200058f2 200058f2        0     1                 .LVL58
200058f4 200058f4        0     1                 .LVL59
200058f8 200058f8        0     1                 .LVL60
200058fe 200058fe        0     1                 .LVL61
20005902 20005902        0     1                 .LVL62
2000590c 2000590c        0     1                 .L20
2000590c 2000590c        0     1                 .LVL63
2000590e 2000590e        0     1                 .LVL64
20005910 20005910        0     1                 .L0 
20005910 20005910        0     1                 .LVL65
20005910 20005910        0     1                 .LBE60
20005910 20005910        0     1                 .LBE22
20005914 20005914        0     1                 .L0 
20005914 20005914        0     1                 .L44
20005914 20005914        0     1                 .LVL66
20005914 20005914        0     1                 .LBB61
20005916 20005916        0     1                 .LVL67
20005918 20005918        0     1                 .L0 
20005918 20005918        0     1                 .LVL68
20005918 20005918        0     1                 .LBE61
2000591c 2000591c        0     1                 .L0 
2000591c 2000591c        0     1                 .L58
2000591c 2000591c        0     1                 .LVL69
2000591c 2000591c        0     1                 .LBB62
2000591c 2000591c        0     1                 .LBB23
2000592c 2000592c        0     1                 .L0 
2000592c 2000592c        0     1                 .L59
2000592c 2000592c        0     1                 .LVL70
2000592c 2000592c        0     1                 .LBE23
2000592c 2000592c        0     1                 .LBB24
20005930 20005930        0     1                 .LVL71
20005936 20005936        0     1                 .LVL72
2000593a 2000593a        0     1                 .LVL73
2000593c 2000593c        0     1                 .LVL74
20005940 20005940        0     1                 .L0 
20005940 20005940        0     1                 .L56
20005940 20005940        0     1                 .LVL75
20005940 20005940        0     1                 .LBB25
20005940 20005940        0     1                 .LBE24
20005944 20005944        0     1                 .LVL76
20005950 20005950        0     1                 .LVL77
20005954 20005954        0     1                 .L0 
20005954 20005954        0     1                 .L34
20005954 20005954        0     1                 .LVL78
20005954 20005954        0     1                 .LBE25
20005954 20005954        0     1                 .LBB26
20005958 20005958        0     1                 .L0 
20005958 20005958        0     1                 .L43
20005958 20005958        0     1                 .LVL79
20005958 20005958        0     1                 .LBE26
20005958 20005958        0     1                 .LBB27
2000595c 2000595c        0     1                 .L0 
2000595c 2000595c        0     1                 .L24
2000595c 2000595c        0     1                 .LVL80
2000595c 2000595c        0     1                 .LBE27
2000595c 2000595c        0     1                 .LBB28
20005964 20005964        0     1                 .LVL81
20005966 20005966        0     1                 .L0 
20005966 20005966        0     1                 .LVL82
2000596a 2000596a        0     1                 .L0 
2000596a 2000596a        0     1                 .LBB29
20005976 20005976        0     1                 .L0 
20005976 20005976        0     1                 .LBE29
2000597a 2000597a        0     1                 .LVL83
2000597e 2000597e        0     1                 .LVL84
20005982 20005982        0     1                 .L0 
20005982 20005982        0     1                 .LBB30
20005986 20005986        0     1                 .L0 
20005986 20005986        0     1                 .LBE30
2000598a 2000598a        0     1                 .L0 
2000598a 2000598a        0     1                 .LVL85
2000598a 2000598a        0     1                 .LBB31
2000598e 2000598e        0     1                 .LVL86
20005992 20005992        0     1                 .LVL87
20005994 20005994        0     1                 .LVL88
20005998 20005998        0     1                 .LVL89
200059a0 200059a0        0     1                 .LVL90
200059a4 200059a4        0     1                 .LVL91
200059a8 200059a8        0     1                 .L48
200059ac 200059ac        0     1                 .L25
200059ac 200059ac        0     1                 .LVL92
200059b6 200059b6        0     1                 .LVL94
200059ba 200059ba        0     1                 .LVL95
200059be 200059be        0     1                 .LVL96
200059c0 200059c0        0     1                 .LVL97
200059c4 200059c4        0     1                 .LVL98
200059cc 200059cc        0     1                 .LVL99
200059d0 200059d0        0     1                 .LVL100
200059d4 200059d4        0     1                 .L50
200059d8 200059d8        0     1                 .L26
200059d8 200059d8        0     1                 .LVL101
200059da 200059da        0     1                 .L0 
200059da 200059da        0     1                 .LVL102
200059da 200059da        0     1                 .LBE31
200059da 200059da        0     1                 .LBB32
200059dc 200059dc        0     1                 .L0 
200059dc 200059dc        0     1                 .LVL103
200059dc 200059dc        0     1                 .LBB33
200059dc 200059dc        0     1                 .LBE32
200059e0 200059e0        0     1                 .L0 
200059e0 200059e0        0     1                 .LBE33
200059e0 200059e0        0     1                 .LBB34
200059e8 200059e8        0     1                 .LVL104
200059f0 200059f0        0     1                 .LVL105
200059f4 200059f4        0     1                 .L0 
200059f4 200059f4        0     1                 .LVL106
200059f4 200059f4        0     1                 .LBB35
200059f4 200059f4        0     1                 .LBE34
200059f8 200059f8        0     1                 .L0 
200059f8 200059f8        0     1                 .LVL107
200059f8 200059f8        0     1                 .LBE35
200059f8 200059f8        0     1                 .LBB36
200059fc 200059fc        0     1                 .LVL108
20005a00 20005a00        0     1                 .LVL109
20005a04 20005a04        0     1                 .LVL110
20005a08 20005a08        0     1                 .LVL111
20005a0a 20005a0a        0     1                 .LVL112
20005a0c 20005a0c        0     1                 .LVL113
20005a14 20005a14        0     1                 .L27
20005a18 20005a18        0     1                 .LVL115
20005a1c 20005a1c        0     1                 .L0 
20005a1c 20005a1c        0     1                 .LVL116
20005a1c 20005a1c        0     1                 .LBE36
20005a24 20005a24        0     1                 .L54
20005a24 20005a24        0     1                 .LVL117
20005a26 20005a26        0     1                 .LVL118
20005a28 20005a28        0     1                 .L0 
20005a28 20005a28        0     1                 .LVL119
20005a28 20005a28        0     1                 .LBE62
20005a28 20005a28        0     1                 .LBE28
20005a2c 20005a2c        0     1                 .L0 
20005a2c 20005a2c        0     1                 .L15
20005a2c 20005a2c        0     1                 .LVL120
20005a2c 20005a2c        0     1                 .LBB63
20005a30 20005a30        0     1                 .L0 
20005a30 20005a30        0     1                 .LVL121
20005a34 20005a34        0     1                 .L0 
20005a34 20005a34        0     1                 .LVL122
20005a34 20005a34        0     1                 .LBB40
20005a3c 20005a3c        0     1                 .L0 
20005a3c 20005a3c        0     1                 .LBE40
20005a40 20005a40        0     1                 .LVL123
20005a44 20005a44        0     1                 .L0 
20005a44 20005a44        0     1                 .LBB41
20005a48 20005a48        0     1                 .L0 
20005a48 20005a48        0     1                 .LBE41
20005a4a 20005a4a        0     1                 .L0 
20005a4a 20005a4a        0     1                 .LVL124
20005a4a 20005a4a        0     1                 .LBB42
20005a4e 20005a4e        0     1                 .L0 
20005a4e 20005a4e        0     1                 .LVL125
20005a4e 20005a4e        0     1                 .LBE42
20005a52 20005a52        0     1                 .L0 
20005a52 20005a52        0     1                 .LVL126
20005a52 20005a52        0     1                 .LBB43
20005a56 20005a56        0     1                 .LVL127
20005a5a 20005a5a        0     1                 .LVL128
20005a5c 20005a5c        0     1                 .LVL129
20005a5e 20005a5e        0     1                 .LVL130
20005a64 20005a64        0     1                 .LVL131
20005a68 20005a68        0     1                 .LVL132
20005a72 20005a72        0     1                 .LVL133
20005a74 20005a74        0     1                 .L17
20005a7a 20005a7a        0     1                 .LVL136
20005a7e 20005a7e        0     1                 .LVL137
20005a82 20005a82        0     1                 .LVL138
20005a86 20005a86        0     1                 .LVL139
20005a8a 20005a8a        0     1                 .LVL140
20005a8e 20005a8e        0     1                 .LVL141
20005a94 20005a94        0     1                 .LVL142
20005a98 20005a98        0     1                 .LVL143
20005aa2 20005aa2        0     1                 .LVL144
20005aa4 20005aa4        0     1                 .L18
20005aaa 20005aaa        0     1                 .LVL146
20005ab0 20005ab0        0     1                 .L0 
20005ab0 20005ab0        0     1                 .L29
20005ab0 20005ab0        0     1                 .LVL147
20005ab0 20005ab0        0     1                 .LBB44
20005ab0 20005ab0        0     1                 .LBB37
20005ab0 20005ab0        0     1                 .LBE43
20005ab2 20005ab2        0     1                 .LVL148
20005ab4 20005ab4        0     1                 .LVL149
20005ab6 20005ab6        0     1                 .LVL150
20005aba 20005aba        0     1                 .LVL151
20005abc 20005abc        0     1                 .L0 
20005abc 20005abc        0     1                 .LBE37
20005ac0 20005ac0        0     1                 .L0 
20005ac0 20005ac0        0     1                 .LVL152
20005ac0 20005ac0        0     1                 .LBB38
20005ac4 20005ac4        0     1                 .L0 
20005ac4 20005ac4        0     1                 .LBE38
20005ac8 20005ac8        0     1                 .L0 
20005ac8 20005ac8        0     1                 .L28
20005ac8 20005ac8        0     1                 .LVL153
20005acc 20005acc        0     1                 .LVL154
20005ace 20005ace        0     1                 .L0 
20005ace 20005ace        0     1                 .LVL155
20005ace 20005ace        0     1                 .LBE63
20005ace 20005ace        0     1                 .LBE44
20005ad0 20005ad0        0     1                 .L23
20005ad0 20005ad0        0     1                 .LVL156
20005ad4 20005ad4        0     1                 .L0 
20005ad4 20005ad4        0     1                 .LBB64
20005ad4 20005ad4        0     1                 .LBB45
20005ad8 20005ad8        0     1                 .L45
20005ae0 20005ae0        0     1                 .L14
20005ae0 20005ae0        0     1                 .LVL157
20005ae4 20005ae4        0     1                 .L0 
20005ae4 20005ae4        0     1                 .LBE45
20005ae4 20005ae4        0     1                 .LBB46
20005ae8 20005ae8        0     1                 .L6
20005ae8 20005ae8        0     1                 .LVL158
20005aec 20005aec        0     1                 .L0 
20005aec 20005aec        0     1                 .LBB47
20005aec 20005aec        0     1                 .LBE46
20005af0 20005af0        0     1                 .L0 
20005af0 20005af0        0     1                 .L46
20005af0 20005af0        0     1                 .LVL159
20005af0 20005af0        0     1                 .LBE47
20005af2 20005af2        0     1                 .LVL160
20005af4 20005af4        0     1                 .L0 
20005af4 20005af4        0     1                 .LVL161
20005af4 20005af4        0     1                 .LBE64
20005af8 20005af8        0     1                 .L0 
20005af8 20005af8        0     1                 .L62
20005af8 20005af8        0     1                 .LVL162
20005af8 20005af8        0     1                 .LBB65
20005af8 20005af8        0     1                 .LBB48
20005af8 20005af8        0     1                 .LBB39
20005afe 20005afe        0     1                 .LVL163
20005b04 20005b04        0     1                 .L61
20005b04 20005b04        0     1                 .LVL165
20005b0a 20005b0a        0     1                 .LVL166
20005b10 20005b10        0     1                 .L0 
20005b10 20005b10        0     1                 .L39
20005b10 20005b10        0     1                 .LVL168
20005b10 20005b10        0     1                 .LBE48
20005b10 20005b10        0     1                 .LBE39
20005b10 20005b10        0     1                 .LBB49
20005b14 20005b14        0     1                 .L37
20005b14 20005b14        0     1                 .LVL169
20005b18 20005b18        0     1                 .L0 
20005b18 20005b18        0     1                 .L57
20005b18 20005b18        0     1                 .LVL170
20005b18 20005b18        0     1                 .LBB50
20005b18 20005b18        0     1                 .LBE49
20005b1a 20005b1a        0     1                 .LVL171
20005b20 20005b20        0     1                 .L0 
20005b20 20005b20        0     1                 .L60
20005b20 20005b20        0     1                 .LVL173
20005b20 20005b20        0     1                 .LBE50
20005b20 20005b20        0     1                 .LBB51
20005b22 20005b22        0     1                 .LVL174
20005b26 20005b26        0     1                 .L0 
20005b26 20005b26        0     1                 .L0 
20005b26 20005b26        0     1                 .Letext0
20005b26 20005b26        0     1                 .LFE3
20005b26 20005b26        0     1                 .LBE65
20005b26 20005b26        0     1                 .LBE51
20005b28 20005b28       fa     4         /cygdrive/c/TelinkIoTStudio/RDS/V3.2.3/toolchains/nds32le-elf-mculib-v5f/bin/../lib/gcc/riscv32-elf/7.4.0/../../../../riscv32-elf/lib/libc.a(lib_a-memcpy.o):(.text.memcpy)
20005b28 20005b28       fa     1                 memcpy
20005b44 20005b44        0     1                 .L7
20005b58 20005b58        0     1                 .L12
20005b60 20005b60        0     1                 .L10
20005b80 20005b80        0     1                 .L11
20005b84 20005b84        0     1                 .L22
20005b88 20005b88        0     1                 .L2
20005b90 20005b90        0     1                 .L5
20005ba4 20005ba4        0     1                 .L8
20005bcc 20005bcc        0     1                 .L9
20005c22 20005c22       1e     2         /cygdrive/c/TelinkIoTStudio/RDS/V3.2.3/toolchains/nds32le-elf-mculib-v5f/bin/../lib/gcc/riscv32-elf/7.4.0/../../../../riscv32-elf/lib/libc.a(lib_a-printf.o):(.text.printf)
20005c22 20005c22       1e     1                 printf
20005c40 20005c40       32     2         /cygdrive/c/TelinkIoTStudio/RDS/V3.2.3/toolchains/nds32le-elf-mculib-v5f/bin/../lib/gcc/riscv32-elf/7.4.0/../../../../riscv32-elf/lib/libc.a(lib_a-puts.o):(.text.puts)
20005c40 20005c40       32     1                 puts
20005c6a 20005c6a        0     1                 .L1
20005c6e 20005c6e        0     1                 .L3
20005c72 20005c72       60     2         /cygdrive/c/TelinkIoTStudio/RDS/V3.2.3/toolchains/nds32le-elf-mculib-v5f/bin/../lib/gcc/riscv32-elf/7.4.0/libgcc.a(save-restore.o):(.text)
20005c72 20005c72        0     1                 .L0 
20005c72 20005c72        0     1                 .L0 
20005c72 20005c72        0     1                 .L0 
20005c72 20005c72        0     1                 __riscv_save_12
20005c74 20005c74        0     1                 .L0 
20005c74 20005c74        0     1                 .L0 
20005c76 20005c76        0     1                 .L0 
20005c78 20005c78        0     1                 .L0 
20005c78 20005c78        0     1                 .L0 
20005c7a 20005c7a        0     1                 .L0 
20005c7a 20005c7a        0     1                 .L0 
20005c7a 20005c7a        0     1                 __riscv_save_11
20005c7a 20005c7a        0     1                 __riscv_save_10
20005c7a 20005c7a        0     1                 __riscv_save_9
20005c7a 20005c7a        0     1                 __riscv_save_8
20005c7c 20005c7c        0     1                 .L0 
20005c7c 20005c7c        0     1                 .L0 
20005c7e 20005c7e        0     1                 .L0 
20005c7e 20005c7e        0     1                 .Ls10
20005c80 20005c80        0     1                 .L0 
20005c80 20005c80        0     1                 .L0 
20005c82 20005c82        0     1                 .L0 
20005c82 20005c82        0     1                 .L0 
20005c84 20005c84        0     1                 .L0 
20005c84 20005c84        0     1                 .L0 
20005c86 20005c86        0     1                 .L0 
20005c86 20005c86        0     1                 .L0 
20005c88 20005c88        0     1                 .L0 
20005c88 20005c88        0     1                 .L0 
20005c88 20005c88        0     1                 __riscv_save_7
20005c88 20005c88        0     1                 __riscv_save_6
20005c88 20005c88        0     1                 __riscv_save_5
20005c88 20005c88        0     1                 __riscv_save_4
20005c8a 20005c8a        0     1                 .L0 
20005c8a 20005c8a        0     1                 .L0 
20005c8c 20005c8c        0     1                 .L0 
20005c8c 20005c8c        0     1                 .Ls6
20005c8e 20005c8e        0     1                 .L0 
20005c8e 20005c8e        0     1                 .L0 
20005c90 20005c90        0     1                 .L0 
20005c90 20005c90        0     1                 .L0 
20005c92 20005c92        0     1                 .L0 
20005c92 20005c92        0     1                 .L0 
20005c94 20005c94        0     1                 .L0 
20005c94 20005c94        0     1                 .L0 
20005c96 20005c96        0     1                 .L0 
20005c96 20005c96        0     1                 .L0 
20005c98 20005c98        0     1                 .L0 
20005c98 20005c98        0     1                 .L0 
20005c9a 20005c9a        0     1                 .L0 
20005c9a 20005c9a        0     1                 .L0 
20005c9c 20005c9c        0     1                 .L0 
20005c9c 20005c9c        0     1                 .L0 
20005ca0 20005ca0        0     1                 .L0 
20005ca2 20005ca2        0     1                 .L0 
20005ca2 20005ca2        0     1                 .L0 
20005ca2 20005ca2        0     1                 .L0 
20005ca2 20005ca2        0     1                 __riscv_save_3
20005ca2 20005ca2        0     1                 __riscv_save_2
20005ca2 20005ca2        0     1                 __riscv_save_1
20005ca2 20005ca2        0     1                 __riscv_save_0
20005ca4 20005ca4        0     1                 .L0 
20005ca4 20005ca4        0     1                 .L0 
20005ca6 20005ca6        0     1                 .L0 
20005ca8 20005ca8        0     1                 .L0 
20005ca8 20005ca8        0     1                 .L0 
20005caa 20005caa        0     1                 .L0 
20005caa 20005caa        0     1                 .L0 
20005cac 20005cac        0     1                 .L0 
20005cac 20005cac        0     1                 .L0 
20005cae 20005cae        0     1                 .L0 
20005cae 20005cae        0     1                 .L0 
20005cae 20005cae        0     1                 .L0 
20005cae 20005cae        0     1                 __riscv_restore_12
20005cb0 20005cb0        0     1                 .L0 
20005cb0 20005cb0        0     1                 .L0 
20005cb2 20005cb2        0     1                 .L0 
20005cb2 20005cb2        0     1                 .L0 
20005cb2 20005cb2        0     1                 __riscv_restore_11
20005cb2 20005cb2        0     1                 __riscv_restore_10
20005cb2 20005cb2        0     1                 __riscv_restore_9
20005cb2 20005cb2        0     1                 __riscv_restore_8
20005cb4 20005cb4        0     1                 .L0 
20005cb4 20005cb4        0     1                 .L0 
20005cb6 20005cb6        0     1                 .L0 
20005cb6 20005cb6        0     1                 .L0 
20005cb8 20005cb8        0     1                 .L0 
20005cb8 20005cb8        0     1                 .L0 
20005cba 20005cba        0     1                 .L0 
20005cba 20005cba        0     1                 .L0 
20005cbc 20005cbc        0     1                 .L0 
20005cbc 20005cbc        0     1                 .L0 
20005cbc 20005cbc        0     1                 __riscv_restore_7
20005cbc 20005cbc        0     1                 __riscv_restore_6
20005cbc 20005cbc        0     1                 __riscv_restore_5
20005cbc 20005cbc        0     1                 __riscv_restore_4
20005cbe 20005cbe        0     1                 .L0 
20005cbe 20005cbe        0     1                 .L0 
20005cc0 20005cc0        0     1                 .L0 
20005cc0 20005cc0        0     1                 .L0 
20005cc2 20005cc2        0     1                 .L0 
20005cc2 20005cc2        0     1                 .L0 
20005cc4 20005cc4        0     1                 .L0 
20005cc4 20005cc4        0     1                 .L0 
20005cc6 20005cc6        0     1                 .L0 
20005cc6 20005cc6        0     1                 .L0 
20005cc6 20005cc6        0     1                 __riscv_restore_3
20005cc6 20005cc6        0     1                 __riscv_restore_2
20005cc6 20005cc6        0     1                 __riscv_restore_1
20005cc6 20005cc6        0     1                 __riscv_restore_0
20005cc8 20005cc8        0     1                 .L0 
20005cc8 20005cc8        0     1                 .L0 
20005cca 20005cca        0     1                 .L0 
20005cca 20005cca        0     1                 .L0 
20005ccc 20005ccc        0     1                 .L0 
20005ccc 20005ccc        0     1                 .L0 
20005cce 20005cce        0     1                 .L0 
20005cce 20005cce        0     1                 .L0 
20005cd0 20005cd0        0     1                 .L0 
20005cd0 20005cd0        0     1                 .L0 
20005cd2 20005cd2        0     1                 .L0 
20005cd2 20005cd2        0     1                 .L0 
20005cd2 20005cd2        0     1                 .L0 
20005cd4 20005cd4       60     4         /cygdrive/c/TelinkIoTStudio/RDS/V3.2.3/toolchains/nds32le-elf-mculib-v5f/bin/../lib/gcc/riscv32-elf/7.4.0/../../../../riscv32-elf/lib/libc.a(lib_a-strlen.o):(.text.strlen)
20005cd4 20005cd4       5e     1                 strlen
20005cdc 20005cdc        0     1                 .L6
20005d04 20005d04        0     1                 .L3
20005d08 20005d08        0     1                 .L5
20005d1c 20005d1c        0     1                 .L18
20005d24 20005d24        0     1                 .L17
20005d2c 20005d2c        0     1                 .L19
20005d34 20005d34       38     2         /cygdrive/c/TelinkIoTStudio/RDS/V3.2.3/toolchains/nds32le-elf-mculib-v5f/bin/../lib/gcc/riscv32-elf/7.4.0/../../../../riscv32-elf/lib/libc.a(lib_a-vprintf.o):(.text.__vprintf_help)
20005d34 20005d34       38     1                 __vprintf_help
20005d6a 20005d6a        0     1                 .L1
20005d6c 20005d6c       4c     2         /cygdrive/c/TelinkIoTStudio/RDS/V3.2.3/toolchains/nds32le-elf-mculib-v5f/bin/../lib/gcc/riscv32-elf/7.4.0/../../../../riscv32-elf/lib/libc.a(lib_a-vprintf.o):(.text.vprintf)
20005d6c 20005d6c       4c     1                 vprintf
20005db8 20005db8       4a     2         /cygdrive/c/TelinkIoTStudio/RDS/V3.2.3/toolchains/nds32le-elf-mculib-v5f/bin/../lib/gcc/riscv32-elf/7.4.0/../../../../riscv32-elf/lib/libc.a(lib_a-printf_impl.o):(.text.__print_integral)
20005db8 20005db8       4a     1                 __print_integral
20005de8 20005de8        0     1                 .L2
20005df0 20005df0        0     1                 .L3
20005e02 20005e02      478     2         /cygdrive/c/TelinkIoTStudio/RDS/V3.2.3/toolchains/nds32le-elf-mculib-v5f/bin/../lib/gcc/riscv32-elf/7.4.0/../../../../riscv32-elf/lib/libc.a(lib_a-printf_impl.o):(.text.__printf_impl)
20005e02 20005e02      478     1                 __printf_impl
20005e20 20005e20        0     1                 .L6
20005e2c 20005e2c        0     1                 .L94
20005e36 20005e36        0     1                 .L8
20005e3a 20005e3a        0     1                 .L7
20005e4e 20005e4e        0     1                 .L9
20005e54 20005e54        0     1                 .L16
20005e60 20005e60        0     1                 .L11
20005e66 20005e66        0     1                 .L10
20005e70 20005e70        0     1                 .L12
20005e7a 20005e7a        0     1                 .L13
20005e84 20005e84        0     1                 .L14
20005e8e 20005e8e        0     1                 .L15
20005e92 20005e92        0     1                 .L17
20005eae 20005eae        0     1                 .L19
20005eb2 20005eb2        0     1                 .L20
20005ecc 20005ecc        0     1                 .L25
20005ee6 20005ee6        0     1                 .L18
20005efc 20005efc        0     1                 .L22
20005f04 20005f04        0     1                 .L21
20005f16 20005f16        0     1                 .L24
20005f24 20005f24        0     1                 .L26
20005f28 20005f28        0     1                 .L23
20005f36 20005f36        0     1                 .L28
20005f4c 20005f4c        0     1                 .L147
20005f52 20005f52        0     1                 .L31
20005f88 20005f88        0     1                 .L101
20005f8c 20005f8c        0     1                 .L30
20005f90 20005f90        0     1                 .L148
20005f98 20005f98        0     1                 .L29
20005fac 20005fac        0     1                 .L33
20005fb2 20005fb2        0     1                 .L32
20005fba 20005fba        0     1                 .L149
20005fc4 20005fc4        0     1                 .L34
20005fcc 20005fcc        0     1                 .L39
20005fdc 20005fdc        0     1                 .L37
20005ff6 20005ff6        0     1                 .L36
20006014 20006014        0     1                 .L41
20006022 20006022        0     1                 .L155
2000602a 2000602a        0     1                 .L95
20006038 20006038        0     1                 .L56
20006040 20006040        0     1                 .L42
2000606c 2000606c        0     1                 .L47
20006072 20006072        0     1                 .L35
2000608e 2000608e        0     1                 .L154
20006096 20006096        0     1                 .L72
200060ae 200060ae        0     1                 .L74
200060c6 200060c6        0     1                 .L84
200060ca 200060ca        0     1                 .L83
200060d0 200060d0        0     1                 .L38
200060d2 200060d2        0     1                 .L44
200060e0 200060e0        0     1                 .L150
200060e4 200060e4        0     1                 .L40
200060f4 200060f4        0     1                 .L152
200060fa 200060fa        0     1                 .L48
20006108 20006108        0     1                 .L50
2000610c 2000610c        0     1                 .L52
20006114 20006114        0     1                 .L51
20006128 20006128        0     1                 .L58
20006136 20006136        0     1                 .L53
2000614a 2000614a        0     1                 .L45
2000614e 2000614e        0     1                 .L59
2000615c 2000615c        0     1                 .L61
20006160 20006160        0     1                 .L63
20006168 20006168        0     1                 .L62
20006178 20006178        0     1                 .L60
20006182 20006182        0     1                 .L97
2000618a 2000618a        0     1                 .L64
200061a0 200061a0        0     1                 .L65
200061a8 200061a8        0     1                 .L153
200061ac 200061ac        0     1                 .L105
200061b0 200061b0        0     1                 .L43
200061c6 200061c6        0     1                 .L151
200061ce 200061ce        0     1                 .L67
200061d8 200061d8        0     1                 .L68
200061e8 200061e8        0     1                 .L77
200061f4 200061f4        0     1                 .L75
200061fe 200061fe        0     1                 .L78
2000620a 2000620a        0     1                 .L80
2000620e 2000620e        0     1                 .L93
20006214 20006214        0     1                 .L107
2000621a 2000621a        0     1                 .L79
20006228 20006228        0     1                 .L81
20006232 20006232        0     1                 .L85
2000623c 2000623c        0     1                 .L87
20006248 20006248        0     1                 .L86
2000625a 2000625a        0     1                 .L89
2000625e 2000625e        0     1                 .L91
20006270 20006270        0     1                 .L90
2000627a 2000627a       20     2         /cygdrive/c/TelinkIoTStudio/RDS/V3.2.3/toolchains/nds32le-elf-mculib-v5f/bin/../lib/gcc/riscv32-elf/7.4.0/../../../../riscv32-elf/lib/libc.a(lib_a-printf_impl_float.o):(.text.__int_to_poly)
2000627a 2000627a       20     1                 __int_to_poly
2000627e 2000627e        0     1                 .L2
20006286 20006286        0     1                 .L3
2000629a 2000629a       90     2         /cygdrive/c/TelinkIoTStudio/RDS/V3.2.3/toolchains/nds32le-elf-mculib-v5f/bin/../lib/gcc/riscv32-elf/7.4.0/../../../../riscv32-elf/lib/libc.a(lib_a-printf_impl_float.o):(.text.__print_integral_poly)
2000629a 2000629a       90     1                 __print_integral_poly
200062ae 200062ae        0     1                 .L5
200062c2 200062c2        0     1                 .L8
200062d0 200062d0        0     1                 .L9
200062d8 200062d8        0     1                 .L6
200062f0 200062f0        0     1                 .L16
200062f4 200062f4        0     1                 .L7
200062f8 200062f8        0     1                 .L10
20006306 20006306        0     1                 .L11
20006308 20006308        0     1                 .L13
20006316 20006316        0     1                 .L15
20006318 20006318        0     1                 .L12
20006322 20006322        0     1                 .L14
2000632a 2000632a      400     2         /cygdrive/c/TelinkIoTStudio/RDS/V3.2.3/toolchains/nds32le-elf-mculib-v5f/bin/../lib/gcc/riscv32-elf/7.4.0/../../../../riscv32-elf/lib/libc.a(lib_a-printf_impl_float.o):(.text.__printf_float_impl)
2000632a 2000632a      400     1                 __printf_float_impl
2000634c 2000634c        0     1                 .L29
20006358 20006358        0     1                 .L31
20006372 20006372        0     1                 .L32
20006386 20006386        0     1                 .L34
200063aa 200063aa        0     1                 .L115
200063b0 200063b0        0     1                 .L27
200063b6 200063b6        0     1                 .L28
200063c2 200063c2        0     1                 .L30
200063ce 200063ce        0     1                 .L36
200063d8 200063d8        0     1                 .L35
200063ec 200063ec        0     1                 .L39
20006400 20006400        0     1                 .L40
20006440 20006440        0     1                 .L44
2000644c 2000644c        0     1                 .L49
20006478 20006478        0     1                 .L50
2000647e 2000647e        0     1                 .L56
2000648e 2000648e        0     1                 .L51
200064a4 200064a4        0     1                 .L53
200064b2 200064b2        0     1                 .L55
200064d6 200064d6        0     1                 .L59
200064f0 200064f0        0     1                 .L67
200064f8 200064f8        0     1                 .L77
2000650c 2000650c        0     1                 .L76
2000651e 2000651e        0     1                 .L78
20006528 20006528        0     1                 .L79
20006542 20006542        0     1                 .L83
20006558 20006558        0     1                 .L116
20006564 20006564        0     1                 .L43
20006568 20006568        0     1                 .L42
2000658a 2000658a        0     1                 .L46
200065c4 200065c4        0     1                 .L88
200065c8 200065c8        0     1                 .L45
200065e8 200065e8        0     1                 .L47
200065fe 200065fe        0     1                 .L48
20006610 20006610        0     1                 .L52
20006624 20006624        0     1                 .L54
2000662a 2000662a        0     1                 .L57
20006630 20006630        0     1                 .L58
20006640 20006640        0     1                 .L65
2000664e 2000664e        0     1                 .L93
20006654 20006654        0     1                 .L62
2000665e 2000665e        0     1                 .L60
20006662 20006662        0     1                 .L63
20006672 20006672        0     1                 .L66
20006680 20006680        0     1                 .L71
2000669c 2000669c        0     1                 .L69
200066a4 200066a4        0     1                 .L70
200066aa 200066aa        0     1                 .L73
200066d0 200066d0        0     1                 .L74
200066dc 200066dc        0     1                 .L95
200066e0 200066e0        0     1                 .L81
200066f2 200066f2        0     1                 .L80
200066f6 200066f6        0     1                 .L82
20006710 20006710        0     1                 .L84
2000672c 2000672c       30     4         /cygdrive/c/TelinkIoTStudio/RDS/V3.2.3/toolchains/nds32le-elf-mculib-v5f/bin/../lib/gcc/riscv32-elf/7.4.0/libgcc.a(_ashldi3.o):(.text)
2000672c 2000672c        0     1                 .L0 
2000672c 2000672c        0     1                 .L0 
2000672c 2000672c        0     1                 .L0 
2000672c 2000672c        0     1                 .Ltext0
2000672c 2000672c        0     1                 .LFB2
2000672c 2000672c        0     1                 .LVL0
2000672c 2000672c       2e     1                 __ashldi3
2000672e 2000672e        0     1                 .L0 
20006734 20006734        0     1                 .L0 
20006734 20006734        0     1                 .LVL1
20006738 20006738        0     1                 .L0 
20006738 20006738        0     1                 .LBB2
20006738 20006738        0     1                 .LVL2
2000673c 2000673c        0     1                 .L0 
20006740 20006740        0     1                 .L0 
20006740 20006740        0     1                 .LVL3
20006744 20006744        0     1                 .L0 
20006744 20006744        0     1                 .LVL4
20006746 20006746        0     1                 .L0 
20006746 20006746        0     1                 .LBE2
20006748 20006748        0     1                 .L0 
20006748 20006748        0     1                 .L1
20006748 20006748        0     1                 .LVL5
2000674c 2000674c        0     1                 .L0 
2000674c 2000674c        0     1                 .L7
2000674c 2000674c        0     1                 .LVL6
20006750 20006750        0     1                 .L0 
20006752 20006752        0     1                 .L0 
20006752 20006752        0     1                 .LVL7
20006756 20006756        0     1                 .L0 
20006758 20006758        0     1                 .LVL8
2000675a 2000675a        0     1                 .L0 
2000675a 2000675a        0     1                 .L0 
2000675a 2000675a        0     1                 .Letext0
2000675a 2000675a        0     1                 .LFE2
2000675c 2000675c       30     4         /cygdrive/c/TelinkIoTStudio/RDS/V3.2.3/toolchains/nds32le-elf-mculib-v5f/bin/../lib/gcc/riscv32-elf/7.4.0/libgcc.a(_lshrdi3.o):(.text)
2000675c 2000675c        0     1                 .L0 
2000675c 2000675c        0     1                 .L0 
2000675c 2000675c        0     1                 .L0 
2000675c 2000675c        0     1                 .Ltext0
2000675c 2000675c        0     1                 .LFB2
2000675c 2000675c        0     1                 .LVL0
2000675c 2000675c       2e     1                 __lshrdi3
2000675e 2000675e        0     1                 .L0 
20006764 20006764        0     1                 .L0 
20006764 20006764        0     1                 .LVL1
20006768 20006768        0     1                 .L0 
20006768 20006768        0     1                 .LBB2
20006768 20006768        0     1                 .LVL2
2000676c 2000676c        0     1                 .L0 
2000676c 2000676c        0     1                 .LVL3
20006770 20006770        0     1                 .L0 
20006770 20006770        0     1                 .LVL4
20006774 20006774        0     1                 .L0 
20006774 20006774        0     1                 .LVL5
20006776 20006776        0     1                 .L0 
20006776 20006776        0     1                 .LBE2
20006778 20006778        0     1                 .L0 
20006778 20006778        0     1                 .L1
20006778 20006778        0     1                 .LVL6
2000677c 2000677c        0     1                 .L0 
2000677c 2000677c        0     1                 .L7
2000677c 2000677c        0     1                 .LVL7
20006780 20006780        0     1                 .L0 
20006780 20006780        0     1                 .LVL8
20006782 20006782        0     1                 .L0 
20006782 20006782        0     1                 .LVL9
20006786 20006786        0     1                 .L0 
2000678a 2000678a        0     1                 .L0 
2000678a 2000678a        0     1                 .L0 
2000678a 2000678a        0     1                 .Letext0
2000678a 2000678a        0     1                 .LFE2
2000678c 2000678c       7e     4         /cygdrive/c/TelinkIoTStudio/RDS/V3.2.3/toolchains/nds32le-elf-mculib-v5f/bin/../lib/gcc/riscv32-elf/7.4.0/../../../../riscv32-elf/lib/libc.a(lib_a-strcpy.o):(.text.strcpy)
2000678c 2000678c       7c     1                 strcpy
200067a0 200067a0        0     1                 .L4
200067c4 200067c4        0     1                 .L24
200067d0 200067d0        0     1                 .L7
200067d4 200067d4        0     1                 .L23
200067dc 200067dc        0     1                 .L9
200067f4 200067f4        0     1                 .L8
200067f8 200067f8        0     1                 .L2
2000680a 2000680a       aa     2         /cygdrive/c/TelinkIoTStudio/RDS/V3.2.3/toolchains/nds32le-elf-mculib-v5f/bin/../lib/gcc/riscv32-elf/7.4.0/../../../../riscv32-elf/lib/libc.a(lib_a-memset.o):(.text)
2000680a 2000680a       aa     1                 memset
20006818 20006818        0     1                 .Laligned
2000681a 2000681a        0     1                 .Lwordified
20006822 20006822        0     1                 .L11
20006834 20006834        0     1                 .Ltiny
2000683a 2000683a        0     1                 .L12
20006842 20006842        0     1                 .Ltable_misaligned
20006846 20006846        0     1                 .Ltable
20006884 20006884        0     1                 .Lwordify
20006896 20006896        0     1                 .Lmisaligned
2000689a 2000689a        0     1                 .L13
200068b4 200068b4       18     2         /cygdrive/c/TelinkIoTStudio/RDS/V3.2.3/toolchains/nds32le-elf-mculib-v5f/bin/../lib/gcc/riscv32-elf/7.4.0/../../../../riscv32-elf/lib/libc.a(lib_a-strnlen.o):(.text.strnlen)
200068b4 200068b4       18     1                 strnlen
200068b8 200068b8        0     1                 .L2
200068c2 200068c2        0     1                 .L5
200068c8 200068c8        0     1                 .L4
200068cc 200068cc       1a     4         /cygdrive/c/Users/SWAMIN~1/AppData/Local/Temp/ccKdbC8c.ltrans0.ltrans.o:(.text)
200068cc 200068cc       1a     1                 pm_sleep_wakeup.constprop.0
200068cc 200068cc        0     1                 .L0 
200068cc 200068cc        0     1                 .L0 
200068cc 200068cc        0     1                 .LFB1
200068ce 200068ce        0     1                 .L0 
200068d0 200068d0        0     1                 .L0 
200068d0 200068d0        0     1                 .L0 
200068d4 200068d4        0     1                 .L0 
200068dc 200068dc        0     1                 .L0 
200068e0 200068e0        0     1                 .L0 
200068e2 200068e2        0     1                 .L0 
200068e4 200068e4        0     1                 .L0 
200068e6 200068e6        0     1                 .L0 
200068e6 200068e6        0     1                 .L0 
200068e6 200068e6        0     1                 .LFE1
200068e8 200068e8       e2     4         /cygdrive/c/Users/SWAMIN~1/AppData/Local/Temp/ccKdbC8c.ltrans0.ltrans.o:(.text.pm_update_status_info)
200068e8 200068e8       e2     1                 pm_update_status_info
200068e8 200068e8        0     1                 .L0 
200068e8 200068e8        0     1                 .L0 
200068e8 200068e8        0     1                 .LFB6
200068ea 200068ea        0     1                 .L0 
200068ea 200068ea        0     1                 .L0 
200068ee 200068ee        0     1                 .L0 
200068f6 200068f6        0     1                 .L0 
200068f6 200068f6        0     1                 .L0 
20006900 20006900        0     1                 .L0 
2000690e 2000690e        0     1                 .L0 
20006916 20006916        0     1                 .L0 
2000691a 2000691a        0     1                 .L0 
2000691e 2000691e        0     1                 .L0 
20006922 20006922        0     1                 .L0 
20006928 20006928        0     1                 .L0 
20006930 20006930        0     1                 .L0 
20006944 20006944        0     1                 .L0 
20006944 20006944        0     1                 .L25
20006952 20006952        0     1                 .L0 
20006952 20006952        0     1                 .LBB27
2000695e 2000695e        0     1                 .L0 
2000695e 2000695e        0     1                 .LBE27
20006966 20006966        0     1                 .L0 
20006968 20006968        0     1                 .L0 
2000696a 2000696a        0     1                 .L0 
2000696a 2000696a        0     1                 .L0 
2000696e 2000696e        0     1                 .L0 
20006970 20006970        0     1                 .L0 
20006972 20006972        0     1                 .L0 
20006974 20006974        0     1                 .L0 
20006978 20006978        0     1                 .L0 
20006978 20006978        0     1                 .L0 
20006978 20006978        0     1                 .L29
2000697e 2000697e        0     1                 .L0 
20006988 20006988        0     1                 .L0 
20006988 20006988        0     1                 .L23
20006988 20006988        0     1                 .LBB29
2000698c 2000698c        0     1                 .L0 
2000698c 2000698c        0     1                 .L0 
2000698c 2000698c        0     1                 .LBE29
2000698c 2000698c        0     1                 .LBB32
20006994 20006994        0     1                 .L0 
20006994 20006994        0     1                 .LBE32
20006998 20006998        0     1                 .L0 
2000699c 2000699c        0     1                 .L0 
200069a0 200069a0        0     1                 .L0 
200069a8 200069a8        0     1                 .L0 
200069a8 200069a8        0     1                 .L30
200069b0 200069b0        0     1                 .L0 
200069b0 200069b0        0     1                 .L31
200069b4 200069b4        0     1                 .L0 
200069bc 200069bc        0     1                 .L0 
200069c0 200069c0        0     1                 .L0 
200069ca 200069ca        0     1                 .L0 
200069ca 200069ca        0     1                 .L0 
200069ca 200069ca        0     1                 .LFE6
200069cc 200069cc       48     4         /cygdrive/c/Users/SWAMIN~1/AppData/Local/Temp/ccKdbC8c.ltrans0.ltrans.o:(.text.unlikely.pm_update_32k_rc_sleep_tick)
200069cc 200069cc       46     1                 pm_update_32k_rc_sleep_tick
200069cc 200069cc        0     1                 .L0 
200069cc 200069cc        0     1                 .L0 
200069cc 200069cc        0     1                 .L0 
200069cc 200069cc        0     1                 .LFB9
200069d2 200069d2        0     1                 .L0 
200069d6 200069d6        0     1                 .L0 
200069e0 200069e0        0     1                 .L0 
20006a04 20006a04        0     1                 .L0 
20006a04 20006a04        0     1                 .L59
20006a08 20006a08        0     1                 .L0 
20006a0c 20006a0c        0     1                 .L0 
20006a0e 20006a0e        0     1                 .L0 
20006a10 20006a10        0     1                 .L0 
20006a10 20006a10        0     1                 .L58
20006a12 20006a12        0     1                 .L0 
20006a12 20006a12        0     1                 .L0 
20006a12 20006a12        0     1                 .LFE9
20006a14 20006a14       44     4         /cygdrive/c/Users/SWAMIN~1/AppData/Local/Temp/ccKdbC8c.ltrans0.ltrans.o:(.text.unlikely.pm_get_32k_rc_calib)
20006a14 20006a14       42     1                 pm_get_32k_rc_calib
20006a14 20006a14        0     1                 .L0 
20006a14 20006a14        0     1                 .L0 
20006a14 20006a14        0     1                 .L0 
20006a14 20006a14        0     1                 .LFB10
20006a18 20006a18        0     1                 .L65
20006a1e 20006a1e        0     1                 .L0 
20006a22 20006a22        0     1                 .L0 
20006a26 20006a26        0     1                 .L0 
20006a28 20006a28        0     1                 .L0 
20006a2e 20006a2e        0     1                 .L0 
20006a30 20006a30        0     1                 .L0 
20006a32 20006a32        0     1                 .L0 
20006a44 20006a44        0     1                 .L70
20006a46 20006a46        0     1                 .L0 
20006a52 20006a52        0     1                 .L0 
20006a56 20006a56        0     1                 .L0 
20006a56 20006a56        0     1                 .L0 
20006a56 20006a56        0     1                 .LFE10
20006a58 20006a58       32     4         /cygdrive/c/Users/SWAMIN~1/AppData/Local/Temp/ccKdbC8c.ltrans0.ltrans.o:(.text.rf_update_internal_cap)
20006a58 20006a58        0     1                 .L0 
20006a58 20006a58        0     1                 .L0 
20006a58 20006a58        0     1                 .LFB28
20006a58 20006a58       30     1                 rf_update_internal_cap
20006a5a 20006a5a        0     1                 .L0 
20006a5c 20006a5c        0     1                 .L0 
20006a5e 20006a5e        0     1                 .L0 
20006a62 20006a62        0     1                 .L0 
20006a64 20006a64        0     1                 .L0 
20006a64 20006a64        0     1                 .L0 
20006a76 20006a76        0     1                 .L0 
20006a78 20006a78        0     1                 .L0 
20006a7a 20006a7a        0     1                 .L0 
20006a7a 20006a7a        0     1                 .L0 
20006a7e 20006a7e        0     1                 .L0 
20006a80 20006a80        0     1                 .L0 
20006a80 20006a80        0     1                 .L0 
20006a88 20006a88        0     1                 .L0 
20006a88 20006a88        0     1                 .L0 
20006a88 20006a88        0     1                 .LFE28
20006a8c 20006a8c      1ea     4         /cygdrive/c/Users/SWAMIN~1/AppData/Local/Temp/ccKdbC8c.ltrans0.ltrans.o:(.text.sys_init)
20006a8c 20006a8c        0     1                 .L0 
20006a8c 20006a8c        0     1                 .L0 
20006a8c 20006a8c        0     1                 .LFB30
20006a8c 20006a8c      1ea     1                 sys_init
20006a8e 20006a8e        0     1                 .L0 
20006a8e 20006a8e        0     1                 .L0 
20006a92 20006a92        0     1                 .L0 
20006a9a 20006a9a        0     1                 .L0 
20006a9a 20006a9a        0     1                 .L0 
20006aa0 20006aa0        0     1                 .L0 
20006aa4 20006aa4        0     1                 .L0 
20006aa8 20006aa8        0     1                 .L0 
20006ab0 20006ab0        0     1                 .L0 
20006ab4 20006ab4        0     1                 .L0 
20006abc 20006abc        0     1                 .L0 
20006ac0 20006ac0        0     1                 .L0 
20006ac0 20006ac0        0     1                 .L108
20006acc 20006acc        0     1                 .L0 
20006ada 20006ada        0     1                 .L0 
20006af2 20006af2        0     1                 .L0 
20006b14 20006b14        0     1                 .L0 
20006b22 20006b22        0     1                 .L0 
20006b38 20006b38        0     1                 .L0 
20006b38 20006b38        0     1                 .LBB73
20006b3c 20006b3c        0     1                 .L0 
20006b40 20006b40        0     1                 .L0 
20006b40 20006b40        0     1                 .L109
20006b56 20006b56        0     1                 .L0 
20006b5a 20006b5a        0     1                 .L0 
20006b5a 20006b5a        0     1                 .LBE73
20006b66 20006b66        0     1                 .L0 
20006b68 20006b68        0     1                 .L0 
20006b68 20006b68        0     1                 .L110
20006b78 20006b78        0     1                 .L0 
20006b78 20006b78        0     1                 .L0 
20006b80 20006b80        0     1                 .L0 
20006b8c 20006b8c        0     1                 .L0 
20006ba0 20006ba0        0     1                 .L0 
20006ba8 20006ba8        0     1                 .L0 
20006ba8 20006ba8        0     1                 .L112
20006bb8 20006bb8        0     1                 .L0 
20006bc0 20006bc0        0     1                 .L0 
20006bc8 20006bc8        0     1                 .L0 
20006bc8 20006bc8        0     1                 .L114
20006bd8 20006bd8        0     1                 .L0 
20006bdc 20006bdc        0     1                 .L0 
20006bdc 20006bdc        0     1                 .L115
20006bdc 20006bdc        0     1                 .LBB77
20006bdc 20006bdc        0     1                 .LBB78
20006be0 20006be0        0     1                 .L0 
20006bec 20006bec        0     1                 .L0 
20006bec 20006bec        0     1                 .L116
20006bf8 20006bf8        0     1                 .L118
20006bfc 20006bfc        0     1                 .L0 
20006bfc 20006bfc        0     1                 .L130
20006bfc 20006bfc        0     1                 .LBE77
20006bfc 20006bfc        0     1                 .LBE78
20006c0c 20006c0c        0     1                 .L0 
20006c0c 20006c0c        0     1                 .L129
20006c10 20006c10        0     1                 .L0 
20006c1c 20006c1c        0     1                 .L0 
20006c1c 20006c1c        0     1                 .L128
20006c34 20006c34        0     1                 .L0 
20006c34 20006c34        0     1                 .L125
20006c3c 20006c3c        0     1                 .L0 
20006c40 20006c40        0     1                 .L0 
20006c50 20006c50        0     1                 .L0 
20006c50 20006c50        0     1                 .L126
20006c60 20006c60        0     1                 .L0 
20006c60 20006c60        0     1                 .L107
20006c62 20006c62        0     1                 .L0 
20006c64 20006c64        0     1                 .L0 
20006c66 20006c66        0     1                 .L0 
20006c68 20006c68        0     1                 .L0 
20006c6a 20006c6a        0     1                 .L0 
20006c6c 20006c6c        0     1                 .L0 
20006c6c 20006c6c        0     1                 .L0 
20006c6c 20006c6c        0     1                 .L127
20006c76 20006c76        0     1                 .L0 
20006c76 20006c76        0     1                 .L0 
20006c76 20006c76        0     1                 .LFE30
20006c78 20006c78       16     4         /cygdrive/c/Users/SWAMIN~1/AppData/Local/Temp/ccKdbC8c.ltrans0.ltrans.o:(.text.efuse_get_low_word)
20006c78 20006c78       16     1                 efuse_get_low_word
20006c78 20006c78        0     1                 .L0 
20006c78 20006c78        0     1                 .L0 
20006c78 20006c78        0     1                 .L0 
20006c78 20006c78        0     1                 .LFB31
20006c84 20006c84        0     1                 .L0 
20006c88 20006c88        0     1                 .L0 
20006c8c 20006c8c        0     1                 .L0 
20006c8e 20006c8e        0     1                 .L0 
20006c8e 20006c8e        0     1                 .L0 
20006c8e 20006c8e        0     1                 .LFE31
20006c90 20006c90       3e     4         /cygdrive/c/Users/SWAMIN~1/AppData/Local/Temp/ccKdbC8c.ltrans0.ltrans.o:(.text.efuse_get_adc_calib_value)
20006c90 20006c90        0     1                 .L0 
20006c90 20006c90        0     1                 .L0 
20006c90 20006c90        0     1                 .L0 
20006c90 20006c90        0     1                 .LFB32
20006c90 20006c90        0     1                 .LBB80
20006c90 20006c90       3c     1                 efuse_get_adc_calib_value
20006c9c 20006c9c        0     1                 .L0 
20006ca0 20006ca0        0     1                 .L0 
20006ca4 20006ca4        0     1                 .L0 
20006ca4 20006ca4        0     1                 .LBE80
20006cac 20006cac        0     1                 .L0 
20006cae 20006cae        0     1                 .L0 
20006cb6 20006cb6        0     1                 .L0 
20006cb8 20006cb8        0     1                 .L0 
20006cbc 20006cbc        0     1                 .L0 
20006cc2 20006cc2        0     1                 .L0 
20006cc8 20006cc8        0     1                 .L0 
20006cc8 20006cc8        0     1                 .L134
20006cca 20006cca        0     1                 .L0 
20006ccc 20006ccc        0     1                 .L0 
20006ccc 20006ccc        0     1                 .L0 
20006ccc 20006ccc        0     1                 .LFE32
20006cd0 20006cd0      198     4 .rodata
20006cd0 20006cd0       10     4         ./drivers/flash.o:(.rodata)
20006cd0 20006cd0        0     1                 .LC0
20006ce0 20006ce0       59     4         ./Debug_Demo/app.o:(.rodata)
20006ce0 20006ce0        0     1                 .LC0
20006cec 20006cec        0     1                 .LC1
20006d3c 20006d3c       11     4         ./Debug_Demo/main.o:(.rodata)
20006d3c 20006d3c        0     1                 .LC0
20006d50 20006d50      100     4         /cygdrive/c/TelinkIoTStudio/RDS/V3.2.3/toolchains/nds32le-elf-mculib-v5f/bin/../lib/gcc/riscv32-elf/7.4.0/libgcc.a(_clz.o):(.rodata)
20006d50 20006d50      100     1                 __clz_tab
20006e50 20006e50        8     4         /cygdrive/c/TelinkIoTStudio/RDS/V3.2.3/toolchains/nds32le-elf-mculib-v5f/bin/../lib/gcc/riscv32-elf/7.4.0/../../../../riscv32-elf/lib/libc.a(lib_a-printf_impl_float.o):(.rodata.__printf_float_impl.str1.4)
20006e58 20006e58       10     4         /cygdrive/c/TelinkIoTStudio/RDS/V3.2.3/toolchains/nds32le-elf-mculib-v5f/bin/../lib/gcc/riscv32-elf/7.4.0/../../../../riscv32-elf/lib/libc.a(lib_a-printf_data.o):(.rodata.__digits)
20006e58 20006e58       10     1                 __digits
20006e68 20006e68        0     1 .eh_frame_hdr
20006e68        0       18     1 . = ALIGN ( 0x20 )
20006e80 20006e80      124     4 .eh_frame
20006e80 20006e80       28     1         /cygdrive/c/TelinkIoTStudio/RDS/V3.2.3/toolchains/nds32le-elf-mculib-v5f/bin/../lib/gcc/riscv32-elf/7.4.0/libgcc.a(_udivdi3.o):(.eh_frame+0x0)
20006ea8 20006ea8       f8     1         /cygdrive/c/TelinkIoTStudio/RDS/V3.2.3/toolchains/nds32le-elf-mculib-v5f/bin/../lib/gcc/riscv32-elf/7.4.0/libgcc.a(save-restore.o):(.eh_frame+0x0)
20006fa4 20006fa4        0     1 .exec.itable
20006fa4        0 e007905c     1 . = 0x00080000
   80000        0        0     1 PROVIDE ( __global_pointer$ = . + ( 4K / 2 ) )
   80000 20006fa4      20c     4 .data
   80000 20006fa4      100     4         ./vendor/common/flash/puya_flash_scratch.o:(.data.program_buff)
   80000 20006fa4      100     1                 program_buff
   80100 200070a4       40     4         ./vendor/common/flash/puya_flash_scratch.o:(.data.plane_program_addr)
   80100 200070a4       40     1                 plane_program_addr
   80140 200070e4       20     4         ./vendor/common/flash/puya_flash_scratch.o:(.data.page_program_addr)
   80140 200070e4       20     1                 page_program_addr
   80160 20007104       10     4         ./vendor/common/flash/puya_flash_scratch.o:(.data.config_addr)
   80160 20007104       10     1                 config_addr
   80170 20007114       23     4         ./drivers/audio.o:(.data.audio_i2s_48k_config)
   80170 20007114       23     1                 audio_i2s_48k_config
   80194 20007138       23     4         ./drivers/audio.o:(.data.audio_i2s_44k1_config)
   80194 20007138       23     1                 audio_i2s_44k1_config
   801b8 2000715c        c     4         ./drivers/flash.o:(.data.flash_support_mid)
   801b8 2000715c        c     1                 flash_support_mid
   801c4 20007168        4     4         ./vendor/common/flash/puya_flash_scratch.o:(.sdata.config_write_buff)
   801c4 20007168        4     1                 config_write_buff
   801c8 2000716c        3     4         ./vendor/common/flash/puya_flash_scratch.o:(.sdata.enter_cmd_scratch)
   801c8 2000716c        3     1                 enter_cmd_scratch
   801cc 20007170        3     4         ./vendor/common/flash/puya_flash_trim.o:(.sdata.enter_cmd_trim)
   801cc 20007170        3     1                 enter_cmd_trim
   801d0 20007174        7     4         ./drivers/audio.o:(.sdata.audio_i2s_8k_config)
   801d0 20007174        7     1                 audio_i2s_8k_config
   801d8 2000717c        7     4         ./drivers/audio.o:(.sdata.audio_i2s_16k_config)
   801d8 2000717c        7     1                 audio_i2s_16k_config
   801e0 20007184        7     4         ./drivers/audio.o:(.sdata.audio_i2s_24k_config)
   801e0 20007184        7     1                 audio_i2s_24k_config
   801e8 2000718c        7     4         ./drivers/audio.o:(.sdata.audio_i2s_32k_config)
   801e8 2000718c        7     1                 audio_i2s_32k_config
   801f0 20007194        7     4         ./drivers/audio.o:(.sdata.audio_i2s_192k_config)
   801f0 20007194        7     1                 audio_i2s_192k_config
   801f8 2000719c        7     4         ./drivers/audio.o:(.sdata.audio_i2s_adc_16k_dac_48k_config)
   801f8 2000719c        7     1                 audio_i2s_adc_16k_dac_48k_config
   80200 200071a4        6     4         ./drivers/clock.o:(.sdata.sys_clk)
   80200 200071a4        6     1                 sys_clk
   80208 200071ac        4     4         ./drivers/plmt.o:(.sdata.mtime_clock_source)
   80208 200071ac        4     1                 mtime_clock_source
   8020c        0        0     1 PROVIDE ( _DATA_VMA_END = . )
   8020c        0        0     1 PROVIDE ( _DATA_VMA_START = ADDR ( .data ) )
   8020c        0        0     1 PROVIDE ( _DATA_LMA_START = LOADADDR ( .data ) )
   8020c        0        4     1 . = ALIGN ( 8 )
   80210        0        0     1 PROVIDE ( _BSS_VMA_START = . )
   80210 200071b4       41     4 .sbss
   80210 200071b4        4     4         ./vendor/common/exception.o:(.sbss.exception_mtval)
   80210 200071b4        4     1                 exception_mtval
   80214 200071b8        4     4         ./vendor/common/exception.o:(.sbss.exception_mepc)
   80214 200071b8        4     1                 exception_mepc
   80218 200071bc        4     4         ./vendor/common/exception.o:(.sbss.exception_mstatus)
   80218 200071bc        4     1                 exception_mstatus
   8021c 200071c0        4     4         ./vendor/common/exception.o:(.sbss.exception_mcause)
   8021c 200071c0        4     1                 exception_mcause
   80220 200071c4        4     4         ./vendor/common/exception.o:(.sbss.exception_mdcause)
   80220 200071c4        4     1                 exception_mdcause
   80224 200071c8        1     1         ./drivers/spi.o:(.sbss.s_hspi_tx_dma_chn)
   80224 200071c8        1     1                 s_hspi_tx_dma_chn
   80225 200071c9        1     1         ./drivers/spi.o:(.sbss.s_hspi_rx_dma_chn)
   80225 200071c9        1     1                 s_hspi_rx_dma_chn
   80226 200071ca        1     1         ./drivers/spi.o:(.sbss.s_pspi_tx_dma_chn)
   80226 200071ca        1     1                 s_pspi_tx_dma_chn
   80227 200071cb        1     1         ./drivers/spi.o:(.sbss.s_pspi_rx_dma_chn)
   80227 200071cb        1     1                 s_pspi_rx_dma_chn
   80228 200071cc        4     4         ./common/usb_dbg/myudb_usb.o:(.sbss.myudb_fifo)
   80228 200071cc        4     1                 myudb_fifo
   8022c 200071d0        4     4         ./common/usb_dbg/myudb_usb.o:(.sbss.myudb_hci_cmd_cb)
   8022c 200071d0        4     1                 myudb_hci_cmd_cb
   80230 200071d4        4     4         ./common/usb_dbg/myudb_usb.o:(.sbss.p.8427)
   80230 200071d4        4     1                 p.8427
   80234 200071d8        2     2         ./common/usb_dbg/myudb_usb.o:(.sbss.len.8426)
   80234 200071d8        2     1                 len.8426
   80238 200071dc        4     4         ./common/usb_dbg/myudb_usb.o:(.sbss.len.8436)
   80238 200071dc        4     1                 len.8436
   8023c 200071e0        4     4         /cygdrive/c/TelinkIoTStudio/RDS/V3.2.3/toolchains/nds32le-elf-mculib-v5f/bin/../lib/gcc/riscv32-elf/7.4.0/../../../../riscv32-elf/lib/libc.a(lib_a-vprintf.o):(.sbss.__vprintf_buf)
   8023c 200071e0        0     1                 .LANCHOR0
   8023c 200071e0        4     1                 __vprintf_buf
   80240 200071e4        4     4         /cygdrive/c/TelinkIoTStudio/RDS/V3.2.3/toolchains/nds32le-elf-mculib-v5f/bin/../lib/gcc/riscv32-elf/7.4.0/../../../../riscv32-elf/lib/libc.a(lib_a-vprintf.o):(.sbss.__vprintf_buf_len)
   80240 200071e4        0     1                 .LANCHOR1
   80240 200071e4        4     1                 __vprintf_buf_len
   80244 200071e8        4     4         /cygdrive/c/TelinkIoTStudio/RDS/V3.2.3/toolchains/nds32le-elf-mculib-v5f/bin/../lib/gcc/riscv32-elf/7.4.0/../../../../riscv32-elf/lib/libc.a(lib_a-printf_data.o):(.sbss.__printf_count)
   80244 200071e8        4     1                 __printf_count
   80248 200071ec        4     4         /cygdrive/c/Users/SWAMIN~1/AppData/Local/Temp/ccKdbC8c.ltrans0.ltrans.o:(.sbss.g_pm_status_info)
   80248 200071ec        4     1                 g_pm_status_info
   8024c 200071f0        4     4         /cygdrive/c/Users/SWAMIN~1/AppData/Local/Temp/ccKdbC8c.ltrans0.ltrans.o:(.sbss.g_chip_version)
   8024c 200071f0        0     1                 .LANCHOR1
   8024c 200071f0        4     1                 g_chip_version
   80250 200071f4        1     1         /cygdrive/c/Users/SWAMIN~1/AppData/Local/Temp/ccKdbC8c.ltrans0.ltrans.o:(.sbss.g_single_tong_freqoffset)
   80250 200071f4        0     1                 .LANCHOR2
   80250 200071f4        1     1                 g_single_tong_freqoffset
   80254 200071f8      144     4 .bss
   80254 200071f8        1     1         ./drivers/clock.o:(COMMON)
   80254 200071f8        1     1                 g_clk_32k_src
   80254 200071f8        1     1                 g_clk_32k_src
   80258 200071fc      140     4         ./common/usb_dbg/myudb_usb.o:(COMMON)
   80258 200071fc      140     1                 buff
   80398 2000733c        0     1         . = ALIGN ( 8 )
   80398        0        0     1 PROVIDE ( _BSS_VMA_END = . )
   80398 200071b0       22     4 .sdk_version
   80398 200071b0       22     4         ./common/sdk_version.o:(.sdk_version)
   80398 200071b0       22     1                 sdk_version
   803ba        0        0     1 PROVIDE ( BIN_SIZE = LOADADDR ( .sdk_version ) + SIZEOF ( .sdk_version ) - BIN_BEGIN )
   803ba        0        6     1 . = ALIGN ( 8 )
   803c0        0        0     1 _end = .
   803c0        0        0     1 PROVIDE ( _STACK_TOP = 0x00a0000 )
   803c0        0        0     1 PROVIDE ( FLASH_SIZE = 0x0100000 )
   803c0        0        0     1 
       0        0    247b2     1 .debug_info
       0        0     2024     1         ./vendor/common/flash/puya_common.o:(.debug_info)
       0        0        0     1                 .Ldebug_info0
    2024     2024     1efb     1         ./vendor/common/flash/puya_flash_scratch.o:(.debug_info)
    2024     2024        0     1                 .Ldebug_info0
    3f1f     3f1f     1cec     1         ./vendor/common/flash/puya_flash_trim.o:(.debug_info)
    3f1f     3f1f        0     1                 .Ldebug_info0
    5c0b     5c0b      e5c     1         ./vendor/common/calibration/calibration.o:(.debug_info)
    5c0b     5c0b        0     1                 .Ldebug_info0
    6a67     6a67     12c1     1         ./vendor/common/auto_test/pc_interface.o:(.debug_info)
    6a67     6a67        0     1                 .Ldebug_info0
    7d28     7d28      fb0     1         ./vendor/common/common.o:(.debug_info)
    7d28     7d28        0     1                 .Ldebug_info0
    8cd8     8cd8     1a27     1         ./vendor/common/exception.o:(.debug_info)
    8cd8     8cd8        0     1                 .Ldebug_info0
    a6ff     a6ff      8e4     1         ./vendor/common/printf.o:(.debug_info)
    a6ff     a6ff        0     1                 .Ldebug_info0
    afe3     afe3      42a     1         ./drivers/flash/flash_mid146085.o:(.debug_info)
    afe3     afe3        0     1                 .Ldebug_info0
    b40d     b40d      4a3     1         ./drivers/flash/flash_mid156085.o:(.debug_info)
    b40d     b40d        0     1                 .Ldebug_info0
    b8b0     b8b0      4be     1         ./drivers/flash/flash_mid166085.o:(.debug_info)
    b8b0     b8b0        0     1                 .Ldebug_info0
    bd6e     bd6e     122c     1         ./drivers/adc.o:(.debug_info)
    bd6e     bd6e        0     1                 .Ldebug_info0
    cf9a     cf9a      aed     1         ./drivers/aes.o:(.debug_info)
    cf9a     cf9a        0     1                 .Ldebug_info0
    da87     da87     132f     1         ./drivers/analog.o:(.debug_info)
    da87     da87        0     1                 .Ldebug_info0
    edb6     edb6     222f     1         ./drivers/audio.o:(.debug_info)
    edb6     edb6        0     1                 .Ldebug_info0
   10fe5    10fe5      902     1         ./drivers/clock.o:(.debug_info)
   10fe5    10fe5        0     1                 .Ldebug_info0
   118e7    118e7      9ae     1         ./drivers/emi.o:(.debug_info)
   118e7    118e7        0     1                 .Ldebug_info0
   12295    12295     14dc     1         ./drivers/flash.o:(.debug_info)
   12295    12295        0     1                 .Ldebug_info0
   13771    13771      720     1         ./drivers/gpio.o:(.debug_info)
   13771    13771        0     1                 .Ldebug_info0
   13e91    13e91      ccb     1         ./drivers/i2c.o:(.debug_info)
   13e91    13e91        0     1                 .Ldebug_info0
   14b5c    14b5c       cf     1         ./drivers/lpc.o:(.debug_info)
   14b5c    14b5c        0     1                 .Ldebug_info0
   14c2b    14c2b      1a4     1         ./drivers/mdec.o:(.debug_info)
   14c2b    14c2b        0     1                 .Ldebug_info0
   14dcf    14dcf      2db     1         ./drivers/plmt.o:(.debug_info)
   14dcf    14dcf        0     1                 .Ldebug_info0
   150aa    150aa      973     1         ./drivers/pwm.o:(.debug_info)
   150aa    150aa        0     1                 .Ldebug_info0
   15a1d    15a1d      807     1         ./drivers/s7816.o:(.debug_info)
   15a1d    15a1d        0     1                 .Ldebug_info0
   16224    16224     2017     1         ./drivers/spi.o:(.debug_info)
   16224    16224        0     1                 .Ldebug_info0
   1823b    1823b      122     1         ./drivers/stimer.o:(.debug_info)
   1823b    1823b        0     1                 .Ldebug_info0
   1835d    1835d      55b     1         ./drivers/timer.o:(.debug_info)
   1835d    1835d        0     1                 .Ldebug_info0
   188b8    188b8     119f     1         ./drivers/uart.o:(.debug_info)
   188b8    188b8        0     1                 .Ldebug_info0
   19a57    19a57      259     1         ./drivers/usbhw.o:(.debug_info)
   19a57    19a57        0     1                 .Ldebug_info0
   19cb0    19cb0     2480     1         ./common/usb_dbg/myudb_usb.o:(.debug_info)
   19cb0    19cb0        0     1                 .Ldebug_info0
   1c130    1c130     13fe     1         ./common/usb_dbg/myudb_usbdesc.o:(.debug_info)
   1c130    1c130        0     1                 .Ldebug_info0
   1d52e    1d52e      d70     1         ./common/bt_debug/dbgport.o:(.debug_info)
   1d52e    1d52e        0     1                 .Ldebug_info0
   1e29e    1e29e       5b     1         ./common/sdk_version.o:(.debug_info)
   1e29e    1e29e        0     1                 .Ldebug_info0
   1e2f9    1e2f9       22     1         ./boot/cstartup_flash.o:(.debug_info)
   1e31b    1e31b     1053     1         ./Debug_Demo/app.o:(.debug_info)
   1e31b    1e31b        0     1                 .Ldebug_info0
   1f36e    1f36e     1116     1         ./Debug_Demo/main.o:(.debug_info)
   1f36e    1f36e        0     1                 .Ldebug_info0
   20484    20484     10f7     1         /cygdrive/c/TelinkIoTStudio/RDS/V3.2.3/toolchains/nds32le-elf-mculib-v5f/bin/../lib/gcc/riscv32-elf/7.4.0/libgcc.a(_udivdi3.o):(.debug_info)
   20484    20484        0     1                 .Ldebug_info0
   2157b    2157b      a72     1         /cygdrive/c/TelinkIoTStudio/RDS/V3.2.3/toolchains/nds32le-elf-mculib-v5f/bin/../lib/gcc/riscv32-elf/7.4.0/libgcc.a(_clz.o):(.debug_info)
   2157b    2157b        0     1                 .Ldebug_info0
   21fed    21fed       26     1         /cygdrive/c/TelinkIoTStudio/RDS/V3.2.3/toolchains/nds32le-elf-mculib-v5f/bin/../lib/gcc/riscv32-elf/7.4.0/libgcc.a(save-restore.o):(.debug_info)
   22013    22013      b6b     1         /cygdrive/c/TelinkIoTStudio/RDS/V3.2.3/toolchains/nds32le-elf-mculib-v5f/bin/../lib/gcc/riscv32-elf/7.4.0/libgcc.a(_ashldi3.o):(.debug_info)
   22013    22013        0     1                 .Ldebug_info0
   22b7e    22b7e      b6b     1         /cygdrive/c/TelinkIoTStudio/RDS/V3.2.3/toolchains/nds32le-elf-mculib-v5f/bin/../lib/gcc/riscv32-elf/7.4.0/libgcc.a(_lshrdi3.o):(.debug_info)
   22b7e    22b7e        0     1                 .Ldebug_info0
   236e9    236e9     10c9     1         /cygdrive/c/Users/SWAMIN~1/AppData/Local/Temp/ccKdbC8c.ltrans0.ltrans.o:(.debug_info)
   236e9    236e9        0     1                 .Ldebug_info0
       0        0     5958     1 .debug_abbrev
       0        0      34f     1         ./vendor/common/flash/puya_common.o:(.debug_abbrev)
       0        0        0     1                 .Ldebug_abbrev0
     34f      34f      399     1         ./vendor/common/flash/puya_flash_scratch.o:(.debug_abbrev)
     34f      34f        0     1                 .Ldebug_abbrev0
     6e8      6e8      357     1         ./vendor/common/flash/puya_flash_trim.o:(.debug_abbrev)
     6e8      6e8        0     1                 .Ldebug_abbrev0
     a3f      a3f      24a     1         ./vendor/common/calibration/calibration.o:(.debug_abbrev)
     a3f      a3f        0     1                 .Ldebug_abbrev0
     c89      c89      2ea     1         ./vendor/common/auto_test/pc_interface.o:(.debug_abbrev)
     c89      c89        0     1                 .Ldebug_abbrev0
     f73      f73      228     1         ./vendor/common/common.o:(.debug_abbrev)
     f73      f73        0     1                 .Ldebug_abbrev0
    119b     119b      2a6     1         ./vendor/common/exception.o:(.debug_abbrev)
    119b     119b        0     1                 .Ldebug_abbrev0
    1441     1441      200     1         ./vendor/common/printf.o:(.debug_abbrev)
    1441     1441        0     1                 .Ldebug_abbrev0
    1641     1641      10f     1         ./drivers/flash/flash_mid146085.o:(.debug_abbrev)
    1641     1641        0     1                 .Ldebug_abbrev0
    1750     1750      10f     1         ./drivers/flash/flash_mid156085.o:(.debug_abbrev)
    1750     1750        0     1                 .Ldebug_abbrev0
    185f     185f      10f     1         ./drivers/flash/flash_mid166085.o:(.debug_abbrev)
    185f     185f        0     1                 .Ldebug_abbrev0
    196e     196e      2cb     1         ./drivers/adc.o:(.debug_abbrev)
    196e     196e        0     1                 .Ldebug_abbrev0
    1c39     1c39      23b     1         ./drivers/aes.o:(.debug_abbrev)
    1c39     1c39        0     1                 .Ldebug_abbrev0
    1e74     1e74      236     1         ./drivers/analog.o:(.debug_abbrev)
    1e74     1e74        0     1                 .Ldebug_abbrev0
    20aa     20aa      2b2     1         ./drivers/audio.o:(.debug_abbrev)
    20aa     20aa        0     1                 .Ldebug_abbrev0
    235c     235c      201     1         ./drivers/clock.o:(.debug_abbrev)
    235c     235c        0     1                 .Ldebug_abbrev0
    255d     255d      27b     1         ./drivers/emi.o:(.debug_abbrev)
    255d     255d        0     1                 .Ldebug_abbrev0
    27d8     27d8      39f     1         ./drivers/flash.o:(.debug_abbrev)
    27d8     27d8        0     1                 .Ldebug_abbrev0
    2b77     2b77      16b     1         ./drivers/gpio.o:(.debug_abbrev)
    2b77     2b77        0     1                 .Ldebug_abbrev0
    2ce2     2ce2      290     1         ./drivers/i2c.o:(.debug_abbrev)
    2ce2     2ce2        0     1                 .Ldebug_abbrev0
    2f72     2f72       7f     1         ./drivers/lpc.o:(.debug_abbrev)
    2f72     2f72        0     1                 .Ldebug_abbrev0
    2ff1     2ff1       e0     1         ./drivers/mdec.o:(.debug_abbrev)
    2ff1     2ff1        0     1                 .Ldebug_abbrev0
    30d1     30d1      176     1         ./drivers/plmt.o:(.debug_abbrev)
    30d1     30d1        0     1                 .Ldebug_abbrev0
    3247     3247      1ca     1         ./drivers/pwm.o:(.debug_abbrev)
    3247     3247        0     1                 .Ldebug_abbrev0
    3411     3411      1bc     1         ./drivers/s7816.o:(.debug_abbrev)
    3411     3411        0     1                 .Ldebug_abbrev0
    35cd     35cd      283     1         ./drivers/spi.o:(.debug_abbrev)
    35cd     35cd        0     1                 .Ldebug_abbrev0
    3850     3850       c7     1         ./drivers/stimer.o:(.debug_abbrev)
    3850     3850        0     1                 .Ldebug_abbrev0
    3917     3917      165     1         ./drivers/timer.o:(.debug_abbrev)
    3917     3917        0     1                 .Ldebug_abbrev0
    3a7c     3a7c      25e     1         ./drivers/uart.o:(.debug_abbrev)
    3a7c     3a7c        0     1                 .Ldebug_abbrev0
    3cda     3cda      17d     1         ./drivers/usbhw.o:(.debug_abbrev)
    3cda     3cda        0     1                 .Ldebug_abbrev0
    3e57     3e57      432     1         ./common/usb_dbg/myudb_usb.o:(.debug_abbrev)
    3e57     3e57        0     1                 .Ldebug_abbrev0
    4289     4289      25b     1         ./common/usb_dbg/myudb_usbdesc.o:(.debug_abbrev)
    4289     4289        0     1                 .Ldebug_abbrev0
    44e4     44e4      260     1         ./common/bt_debug/dbgport.o:(.debug_abbrev)
    44e4     44e4        0     1                 .Ldebug_abbrev0
    4744     4744       48     1         ./common/sdk_version.o:(.debug_abbrev)
    4744     4744        0     1                 .Ldebug_abbrev0
    478c     478c       12     1         ./boot/cstartup_flash.o:(.debug_abbrev)
    479e     479e      2a9     1         ./Debug_Demo/app.o:(.debug_abbrev)
    479e     479e        0     1                 .Ldebug_abbrev0
    4a47     4a47      23a     1         ./Debug_Demo/main.o:(.debug_abbrev)
    4a47     4a47        0     1                 .Ldebug_abbrev0
    4c81     4c81      25a     1         /cygdrive/c/TelinkIoTStudio/RDS/V3.2.3/toolchains/nds32le-elf-mculib-v5f/bin/../lib/gcc/riscv32-elf/7.4.0/libgcc.a(_udivdi3.o):(.debug_abbrev)
    4c81     4c81        0     1                 .Ldebug_abbrev0
    4edb     4edb      186     1         /cygdrive/c/TelinkIoTStudio/RDS/V3.2.3/toolchains/nds32le-elf-mculib-v5f/bin/../lib/gcc/riscv32-elf/7.4.0/libgcc.a(_clz.o):(.debug_abbrev)
    4edb     4edb        0     1                 .Ldebug_abbrev0
    5061     5061       14     1         /cygdrive/c/TelinkIoTStudio/RDS/V3.2.3/toolchains/nds32le-elf-mculib-v5f/bin/../lib/gcc/riscv32-elf/7.4.0/libgcc.a(save-restore.o):(.debug_abbrev)
    5075     5075      203     1         /cygdrive/c/TelinkIoTStudio/RDS/V3.2.3/toolchains/nds32le-elf-mculib-v5f/bin/../lib/gcc/riscv32-elf/7.4.0/libgcc.a(_ashldi3.o):(.debug_abbrev)
    5075     5075        0     1                 .Ldebug_abbrev0
    5278     5278      203     1         /cygdrive/c/TelinkIoTStudio/RDS/V3.2.3/toolchains/nds32le-elf-mculib-v5f/bin/../lib/gcc/riscv32-elf/7.4.0/libgcc.a(_lshrdi3.o):(.debug_abbrev)
    5278     5278        0     1                 .Ldebug_abbrev0
    547b     547b      4dd     1         /cygdrive/c/Users/SWAMIN~1/AppData/Local/Temp/ccKdbC8c.ltrans0.ltrans.o:(.debug_abbrev)
    547b     547b        0     1                 .Ldebug_abbrev0
       0        0     1aa0     8 .debug_aranges
       0        0      110     1         ./vendor/common/flash/puya_common.o:(.debug_aranges)
     110      110       e8     1         ./vendor/common/flash/puya_flash_scratch.o:(.debug_aranges)
     1f8      1f8       b8     1         ./vendor/common/flash/puya_flash_trim.o:(.debug_aranges)
     2b0      2b0       40     1         ./vendor/common/calibration/calibration.o:(.debug_aranges)
     2f0      2f0       68     1         ./vendor/common/auto_test/pc_interface.o:(.debug_aranges)
     358      358       30     1         ./vendor/common/common.o:(.debug_aranges)
     388      388       68     1         ./vendor/common/exception.o:(.debug_aranges)
     3f0      3f0       30     1         ./vendor/common/printf.o:(.debug_aranges)
     420      420       60     1         ./drivers/flash/flash_mid146085.o:(.debug_aranges)
     480      480       68     1         ./drivers/flash/flash_mid156085.o:(.debug_aranges)
     4e8      4e8       68     1         ./drivers/flash/flash_mid166085.o:(.debug_aranges)
     550      550      1a8     1         ./drivers/adc.o:(.debug_aranges)
     6f8      6f8       60     1         ./drivers/aes.o:(.debug_aranges)
     758      758       c8     1         ./drivers/analog.o:(.debug_aranges)
     820      820      268     1         ./drivers/audio.o:(.debug_aranges)
     a88      a88       88     1         ./drivers/clock.o:(.debug_aranges)
     b10      b10       e0     1         ./drivers/emi.o:(.debug_aranges)
     bf0      bf0      168     1         ./drivers/flash.o:(.debug_aranges)
     d58      d58       a0     1         ./drivers/gpio.o:(.debug_aranges)
     df8      df8      100     1         ./drivers/i2c.o:(.debug_aranges)
     ef8      ef8       20     1         ./drivers/lpc.o:(.debug_aranges)
     f18      f18       28     1         ./drivers/mdec.o:(.debug_aranges)
     f40      f40       50     1         ./drivers/plmt.o:(.debug_aranges)
     f90      f90       98     1         ./drivers/pwm.o:(.debug_aranges)
    1028     1028       b0     1         ./drivers/s7816.o:(.debug_aranges)
    10d8     10d8      2e0     1         ./drivers/spi.o:(.debug_aranges)
    13b8     13b8       38     1         ./drivers/stimer.o:(.debug_aranges)
    13f0     13f0       68     1         ./drivers/timer.o:(.debug_aranges)
    1458     1458      128     1         ./drivers/uart.o:(.debug_aranges)
    1580     1580       60     1         ./drivers/usbhw.o:(.debug_aranges)
    15e0     15e0      140     1         ./common/usb_dbg/myudb_usb.o:(.debug_aranges)
    1720     1720       58     1         ./common/usb_dbg/myudb_usbdesc.o:(.debug_aranges)
    1778     1778       88     1         ./common/bt_debug/dbgport.o:(.debug_aranges)
    1800     1800       18     1         ./common/sdk_version.o:(.debug_aranges)
    1818     1818       30     8         ./boot/cstartup_flash.o:(.debug_aranges)
    1848     1848       68     1         ./Debug_Demo/app.o:(.debug_aranges)
    18b0     18b0       38     1         ./Debug_Demo/main.o:(.debug_aranges)
    18e8     18e8       20     1         /cygdrive/c/TelinkIoTStudio/RDS/V3.2.3/toolchains/nds32le-elf-mculib-v5f/bin/../lib/gcc/riscv32-elf/7.4.0/libgcc.a(_udivdi3.o):(.debug_aranges)
    1908     1908       18     1         /cygdrive/c/TelinkIoTStudio/RDS/V3.2.3/toolchains/nds32le-elf-mculib-v5f/bin/../lib/gcc/riscv32-elf/7.4.0/libgcc.a(_clz.o):(.debug_aranges)
    1920     1920       20     8         /cygdrive/c/TelinkIoTStudio/RDS/V3.2.3/toolchains/nds32le-elf-mculib-v5f/bin/../lib/gcc/riscv32-elf/7.4.0/libgcc.a(save-restore.o):(.debug_aranges)
    1940     1940       20     1         /cygdrive/c/TelinkIoTStudio/RDS/V3.2.3/toolchains/nds32le-elf-mculib-v5f/bin/../lib/gcc/riscv32-elf/7.4.0/libgcc.a(_ashldi3.o):(.debug_aranges)
    1960     1960       20     1         /cygdrive/c/TelinkIoTStudio/RDS/V3.2.3/toolchains/nds32le-elf-mculib-v5f/bin/../lib/gcc/riscv32-elf/7.4.0/libgcc.a(_lshrdi3.o):(.debug_aranges)
    1980     1980      120     1         /cygdrive/c/Users/SWAMIN~1/AppData/Local/Temp/ccKdbC8c.ltrans0.ltrans.o:(.debug_aranges)
       0        0     1a08     8 .debug_ranges
       0        0      100     1         ./vendor/common/flash/puya_common.o:(.debug_ranges)
       0        0        0     1                 .Ldebug_ranges0
     100      100       d8     1         ./vendor/common/flash/puya_flash_scratch.o:(.debug_ranges)
     100      100        0     1                 .Ldebug_ranges0
     1d8      1d8       a8     1         ./vendor/common/flash/puya_flash_trim.o:(.debug_ranges)
     1d8      1d8        0     1                 .Ldebug_ranges0
     280      280       30     1         ./vendor/common/calibration/calibration.o:(.debug_ranges)
     280      280        0     1                 .Ldebug_ranges0
     2b0      2b0       58     1         ./vendor/common/auto_test/pc_interface.o:(.debug_ranges)
     2b0      2b0        0     1                 .Ldebug_ranges0
     308      308       20     1         ./vendor/common/common.o:(.debug_ranges)
     308      308        0     1                 .Ldebug_ranges0
     328      328       58     1         ./vendor/common/exception.o:(.debug_ranges)
     328      328        0     1                 .Ldebug_ranges0
     380      380       20     1         ./vendor/common/printf.o:(.debug_ranges)
     380      380        0     1                 .Ldebug_ranges0
     3a0      3a0       50     1         ./drivers/flash/flash_mid146085.o:(.debug_ranges)
     3a0      3a0        0     1                 .Ldebug_ranges0
     3f0      3f0       58     1         ./drivers/flash/flash_mid156085.o:(.debug_ranges)
     3f0      3f0        0     1                 .Ldebug_ranges0
     448      448       58     1         ./drivers/flash/flash_mid166085.o:(.debug_ranges)
     448      448        0     1                 .Ldebug_ranges0
     4a0      4a0      198     1         ./drivers/adc.o:(.debug_ranges)
     4a0      4a0        0     1                 .Ldebug_ranges0
     638      638       50     1         ./drivers/aes.o:(.debug_ranges)
     638      638        0     1                 .Ldebug_ranges0
     688      688       b8     1         ./drivers/analog.o:(.debug_ranges)
     688      688        0     1                 .Ldebug_ranges0
     740      740      258     1         ./drivers/audio.o:(.debug_ranges)
     740      740        0     1                 .Ldebug_ranges0
     998      998       78     1         ./drivers/clock.o:(.debug_ranges)
     998      998        0     1                 .Ldebug_ranges0
     a10      a10       d0     1         ./drivers/emi.o:(.debug_ranges)
     a10      a10        0     1                 .Ldebug_ranges0
     ae0      ae0      158     1         ./drivers/flash.o:(.debug_ranges)
     ae0      ae0        0     1                 .Ldebug_ranges0
     c38      c38       90     1         ./drivers/gpio.o:(.debug_ranges)
     c38      c38        0     1                 .Ldebug_ranges0
     cc8      cc8       f0     1         ./drivers/i2c.o:(.debug_ranges)
     cc8      cc8        0     1                 .Ldebug_ranges0
     db8      db8       10     1         ./drivers/lpc.o:(.debug_ranges)
     db8      db8        0     1                 .Ldebug_ranges0
     dc8      dc8       18     1         ./drivers/mdec.o:(.debug_ranges)
     dc8      dc8        0     1                 .Ldebug_ranges0
     de0      de0       40     1         ./drivers/plmt.o:(.debug_ranges)
     de0      de0        0     1                 .Ldebug_ranges0
     e20      e20       88     1         ./drivers/pwm.o:(.debug_ranges)
     e20      e20        0     1                 .Ldebug_ranges0
     ea8      ea8       a0     1         ./drivers/s7816.o:(.debug_ranges)
     ea8      ea8        0     1                 .Ldebug_ranges0
     f48      f48      2d0     1         ./drivers/spi.o:(.debug_ranges)
     f48      f48        0     1                 .Ldebug_ranges0
    1218     1218       28     1         ./drivers/stimer.o:(.debug_ranges)
    1218     1218        0     1                 .Ldebug_ranges0
    1240     1240       58     1         ./drivers/timer.o:(.debug_ranges)
    1240     1240        0     1                 .Ldebug_ranges0
    1298     1298      118     1         ./drivers/uart.o:(.debug_ranges)
    1298     1298        0     1                 .Ldebug_ranges0
    13b0     13b0       50     1         ./drivers/usbhw.o:(.debug_ranges)
    13b0     13b0        0     1                 .Ldebug_ranges0
    1400     1400      130     1         ./common/usb_dbg/myudb_usb.o:(.debug_ranges)
    1400     1400        0     1                 .Ldebug_ranges0
    1530     1530       48     1         ./common/usb_dbg/myudb_usbdesc.o:(.debug_ranges)
    1530     1530        0     1                 .Ldebug_ranges0
    1578     1578       78     1         ./common/bt_debug/dbgport.o:(.debug_ranges)
    1578     1578        0     1                 .Ldebug_ranges0
    15f0     15f0       28     8         ./boot/cstartup_flash.o:(.debug_ranges)
    1618     1618       58     1         ./Debug_Demo/app.o:(.debug_ranges)
    1618     1618        0     1                 .Ldebug_ranges0
    1670     1670       28     1         ./Debug_Demo/main.o:(.debug_ranges)
    1670     1670        0     1                 .Ldebug_ranges0
    1698     1698      1a0     1         /cygdrive/c/TelinkIoTStudio/RDS/V3.2.3/toolchains/nds32le-elf-mculib-v5f/bin/../lib/gcc/riscv32-elf/7.4.0/libgcc.a(_udivdi3.o):(.debug_ranges)
    1698     1698        0     1                 .Ldebug_ranges0
    1838     1838      1d0     1         /cygdrive/c/Users/SWAMIN~1/AppData/Local/Temp/ccKdbC8c.ltrans0.ltrans.o:(.debug_ranges)
    1838     1838        0     1                 .Ldebug_ranges0
       0        0     94c6     1 .debug_macro
       0        0      3bb     1         ./vendor/common/flash/puya_common.o:(.debug_macro)
       0        0        0     1                 .Ldebug_macro0
     3bb      3bb      79c     1         ./vendor/common/flash/puya_common.o:(.debug_macro)
     3bb      3bb        0     1                 .Ldebug_macro1
     b57      b57       b8     1         ./vendor/common/flash/puya_common.o:(.debug_macro)
     b57      b57        0     1                 .Ldebug_macro2
     c0f      c0f      14c     1         ./vendor/common/flash/puya_common.o:(.debug_macro)
     c0f      c0f        0     1                 .Ldebug_macro3
     d5b      d5b      249     1         ./vendor/common/flash/puya_common.o:(.debug_macro)
     d5b      d5b        0     1                 .Ldebug_macro4
     fa4      fa4       46     1         ./vendor/common/flash/puya_common.o:(.debug_macro)
     fa4      fa4        0     1                 .Ldebug_macro5
     fea      fea      2d5     1         ./vendor/common/flash/puya_common.o:(.debug_macro)
     fea      fea        0     1                 .Ldebug_macro6
    12bf     12bf       6a     1         ./vendor/common/flash/puya_common.o:(.debug_macro)
    12bf     12bf        0     1                 .Ldebug_macro7
    1329     1329       90     1         ./vendor/common/flash/puya_common.o:(.debug_macro)
    1329     1329        0     1                 .Ldebug_macro8
    13b9     13b9      1bc     1         ./vendor/common/flash/puya_common.o:(.debug_macro)
    13b9     13b9        0     1                 .Ldebug_macro9
    1575     1575       b7     1         ./vendor/common/flash/puya_common.o:(.debug_macro)
    1575     1575        0     1                 .Ldebug_macro10
    162c     162c      12f     1         ./vendor/common/flash/puya_common.o:(.debug_macro)
    162c     162c        0     1                 .Ldebug_macro11
    175b     175b       88     1         ./vendor/common/flash/puya_common.o:(.debug_macro)
    175b     175b        0     1                 .Ldebug_macro12
    17e3     17e3       40     1         ./vendor/common/flash/puya_common.o:(.debug_macro)
    17e3     17e3        0     1                 .Ldebug_macro13
    1823     1823      491     1         ./vendor/common/flash/puya_common.o:(.debug_macro)
    1823     1823        0     1                 .Ldebug_macro14
    1cb4     1cb4       28     1         ./vendor/common/flash/puya_common.o:(.debug_macro)
    1cb4     1cb4        0     1                 .Ldebug_macro15
    1cdc     1cdc       40     1         ./vendor/common/flash/puya_common.o:(.debug_macro)
    1cdc     1cdc        0     1                 .Ldebug_macro16
    1d1c     1d1c       3a     1         ./vendor/common/flash/puya_common.o:(.debug_macro)
    1d1c     1d1c        0     1                 .Ldebug_macro17
    1d56     1d56       6b     1         ./vendor/common/flash/puya_common.o:(.debug_macro)
    1d56     1d56        0     1                 .Ldebug_macro18
    1dc1     1dc1       4c     1         ./vendor/common/flash/puya_common.o:(.debug_macro)
    1dc1     1dc1        0     1                 .Ldebug_macro19
    1e0d     1e0d       34     1         ./vendor/common/flash/puya_common.o:(.debug_macro)
    1e0d     1e0d        0     1                 .Ldebug_macro20
    1e41     1e41       6a     1         ./vendor/common/flash/puya_common.o:(.debug_macro)
    1e41     1e41        0     1                 .Ldebug_macro21
    1eab     1eab       10     1         ./vendor/common/flash/puya_common.o:(.debug_macro)
    1eab     1eab        0     1                 .Ldebug_macro22
    1ebb     1ebb       1c     1         ./vendor/common/flash/puya_common.o:(.debug_macro)
    1ebb     1ebb        0     1                 .Ldebug_macro23
    1ed7     1ed7       2e     1         ./vendor/common/flash/puya_common.o:(.debug_macro)
    1ed7     1ed7        0     1                 .Ldebug_macro24
    1f05     1f05       22     1         ./vendor/common/flash/puya_common.o:(.debug_macro)
    1f05     1f05        0     1                 .Ldebug_macro25
    1f27     1f27       34     1         ./vendor/common/flash/puya_common.o:(.debug_macro)
    1f27     1f27        0     1                 .Ldebug_macro26
    1f5b     1f5b       27     1         ./vendor/common/flash/puya_common.o:(.debug_macro)
    1f5b     1f5b        0     1                 .Ldebug_macro27
    1f82     1f82       55     1         ./vendor/common/flash/puya_common.o:(.debug_macro)
    1f82     1f82        0     1                 .Ldebug_macro28
    1fd7     1fd7       34     1         ./vendor/common/flash/puya_common.o:(.debug_macro)
    1fd7     1fd7        0     1                 .Ldebug_macro29
    200b     200b       9c     1         ./vendor/common/flash/puya_common.o:(.debug_macro)
    200b     200b        0     1                 .Ldebug_macro30
    20a7     20a7      16d     1         ./vendor/common/flash/puya_common.o:(.debug_macro)
    20a7     20a7        0     1                 .Ldebug_macro31
    2214     2214       4a     1         ./vendor/common/flash/puya_common.o:(.debug_macro)
    2214     2214        0     1                 .Ldebug_macro32
    225e     225e       52     1         ./vendor/common/flash/puya_common.o:(.debug_macro)
    225e     225e        0     1                 .Ldebug_macro33
    22b0     22b0       16     1         ./vendor/common/flash/puya_common.o:(.debug_macro)
    22b0     22b0        0     1                 .Ldebug_macro34
    22c6     22c6       43     1         ./vendor/common/flash/puya_common.o:(.debug_macro)
    22c6     22c6        0     1                 .Ldebug_macro35
    2309     2309      179     1         ./vendor/common/flash/puya_common.o:(.debug_macro)
    2309     2309        0     1                 .Ldebug_macro36
    2482     2482      330     1         ./vendor/common/flash/puya_common.o:(.debug_macro)
    2482     2482        0     1                 .Ldebug_macro37
    27b2     27b2       10     1         ./vendor/common/flash/puya_common.o:(.debug_macro)
    27b2     27b2        0     1                 .Ldebug_macro38
    27c2     27c2       35     1         ./vendor/common/flash/puya_common.o:(.debug_macro)
    27c2     27c2        0     1                 .Ldebug_macro39
    27f7     27f7       22     1         ./vendor/common/flash/puya_common.o:(.debug_macro)
    27f7     27f7        0     1                 .Ldebug_macro40
    2819     2819       b8     1         ./vendor/common/flash/puya_common.o:(.debug_macro)
    2819     2819        0     1                 .Ldebug_macro41
    28d1     28d1       40     1         ./vendor/common/flash/puya_common.o:(.debug_macro)
    28d1     28d1        0     1                 .Ldebug_macro42
    2911     2911       46     1         ./vendor/common/flash/puya_common.o:(.debug_macro)
    2911     2911        0     1                 .Ldebug_macro43
    2957     2957      f4c     1         ./vendor/common/flash/puya_common.o:(.debug_macro)
    2957     2957        0     1                 .Ldebug_macro44
    38a3     38a3       4c     1         ./vendor/common/flash/puya_common.o:(.debug_macro)
    38a3     38a3        0     1                 .Ldebug_macro45
    38ef     38ef      302     1         ./vendor/common/flash/puya_common.o:(.debug_macro)
    38ef     38ef        0     1                 .Ldebug_macro46
    3bf1     3bf1       22     1         ./vendor/common/flash/puya_common.o:(.debug_macro)
    3bf1     3bf1        0     1                 .Ldebug_macro47
    3c13     3c13       28     1         ./vendor/common/flash/puya_common.o:(.debug_macro)
    3c13     3c13        0     1                 .Ldebug_macro48
    3c3b     3c3b       3a     1         ./vendor/common/flash/puya_common.o:(.debug_macro)
    3c3b     3c3b        0     1                 .Ldebug_macro49
    3c75     3c75       b8     1         ./vendor/common/flash/puya_common.o:(.debug_macro)
    3c75     3c75        0     1                 .Ldebug_macro50
    3d2d     3d2d       16     1         ./vendor/common/flash/puya_common.o:(.debug_macro)
    3d2d     3d2d        0     1                 .Ldebug_macro51
    3d43     3d43       16     1         ./vendor/common/flash/puya_common.o:(.debug_macro)
    3d43     3d43        0     1                 .Ldebug_macro52
    3d59     3d59       10     1         ./vendor/common/flash/puya_common.o:(.debug_macro)
    3d59     3d59        0     1                 .Ldebug_macro53
    3d69     3d69       12     1         ./vendor/common/flash/puya_common.o:(.debug_macro)
    3d69     3d69        0     1                 .Ldebug_macro54
    3d7b     3d7b       10     1         ./vendor/common/flash/puya_common.o:(.debug_macro)
    3d7b     3d7b        0     1                 .Ldebug_macro55
    3d8b     3d8b       1c     1         ./vendor/common/flash/puya_common.o:(.debug_macro)
    3d8b     3d8b        0     1                 .Ldebug_macro56
    3da7     3da7      3bf     1         ./vendor/common/flash/puya_flash_scratch.o:(.debug_macro)
    3da7     3da7        0     1                 .Ldebug_macro0
    4166     4166      3bf     1         ./vendor/common/flash/puya_flash_trim.o:(.debug_macro)
    4166     4166        0     1                 .Ldebug_macro0
    4525     4525      3ba     1         ./vendor/common/calibration/calibration.o:(.debug_macro)
    4525     4525        0     1                 .Ldebug_macro0
    48df     48df       4c     1         ./vendor/common/calibration/calibration.o:(.debug_macro)
    48df     48df        0     1                 .Ldebug_macro57
    492b     492b      41d     1         ./vendor/common/auto_test/pc_interface.o:(.debug_macro)
    492b     492b        0     1                 .Ldebug_macro0
    4d48     4d48       64     1         ./vendor/common/auto_test/pc_interface.o:(.debug_macro)
    4d48     4d48        0     1                 .Ldebug_macro57
    4dac     4dac       1c     1         ./vendor/common/auto_test/pc_interface.o:(.debug_macro)
    4dac     4dac        0     1                 .Ldebug_macro58
    4dc8     4dc8       10     1         ./vendor/common/auto_test/pc_interface.o:(.debug_macro)
    4dc8     4dc8        0     1                 .Ldebug_macro59
    4dd8     4dd8       22     1         ./vendor/common/auto_test/pc_interface.o:(.debug_macro)
    4dd8     4dd8        0     1                 .Ldebug_macro60
    4dfa     4dfa       22     1         ./vendor/common/auto_test/pc_interface.o:(.debug_macro)
    4dfa     4dfa        0     1                 .Ldebug_macro61
    4e1c     4e1c       55     1         ./vendor/common/auto_test/pc_interface.o:(.debug_macro)
    4e1c     4e1c        0     1                 .Ldebug_macro62
    4e71     4e71       16     1         ./vendor/common/auto_test/pc_interface.o:(.debug_macro)
    4e71     4e71        0     1                 .Ldebug_macro63
    4e87     4e87      13c     1         ./vendor/common/auto_test/pc_interface.o:(.debug_macro)
    4e87     4e87        0     1                 .Ldebug_macro64
    4fc3     4fc3       34     1         ./vendor/common/auto_test/pc_interface.o:(.debug_macro)
    4fc3     4fc3        0     1                 .Ldebug_macro65
    4ff7     4ff7      438     1         ./vendor/common/common.o:(.debug_macro)
    4ff7     4ff7        0     1                 .Ldebug_macro0
    542f     542f      130     1         ./vendor/common/common.o:(.debug_macro)
    542f     542f        0     1                 .Ldebug_macro2
    555f     555f       52     1         ./vendor/common/common.o:(.debug_macro)
    555f     555f        0     1                 .Ldebug_macro59
    55b1     55b1       40     1         ./vendor/common/common.o:(.debug_macro)
    55b1     55b1        0     1                 .Ldebug_macro68
    55f1     55f1      3ab     1         ./vendor/common/exception.o:(.debug_macro)
    55f1     55f1        0     1                 .Ldebug_macro0
    599c     599c      284     1         ./vendor/common/printf.o:(.debug_macro)
    599c     599c        0     1                 .Ldebug_macro0
    5c20     5c20       16     1         ./vendor/common/printf.o:(.debug_macro)
    5c20     5c20        0     1                 .Ldebug_macro37
    5c36     5c36       97     1         ./vendor/common/printf.o:(.debug_macro)
    5c36     5c36        0     1                 .Ldebug_macro39
    5ccd     5ccd       f6     1         ./vendor/common/printf.o:(.debug_macro)
    5ccd     5ccd        0     1                 .Ldebug_macro41
    5dc3     5dc3       4b     1         ./drivers/flash/flash_mid146085.o:(.debug_macro)
    5dc3     5dc3        0     1                 .Ldebug_macro0
    5e0e     5e0e       4b     1         ./drivers/flash/flash_mid156085.o:(.debug_macro)
    5e0e     5e0e        0     1                 .Ldebug_macro0
    5e59     5e59       4b     1         ./drivers/flash/flash_mid166085.o:(.debug_macro)
    5e59     5e59        0     1                 .Ldebug_macro0
    5ea4     5ea4      181     1         ./drivers/adc.o:(.debug_macro)
    5ea4     5ea4        0     1                 .Ldebug_macro0
    6025     6025      119     1         ./drivers/aes.o:(.debug_macro)
    6025     6025        0     1                 .Ldebug_macro0
    613e     613e       2e     1         ./drivers/aes.o:(.debug_macro)
    613e     613e        0     1                 .Ldebug_macro5
    616c     616c      162     1         ./drivers/analog.o:(.debug_macro)
    616c     616c        0     1                 .Ldebug_macro0
    62ce     62ce      1d9     1         ./drivers/audio.o:(.debug_macro)
    62ce     62ce        0     1                 .Ldebug_macro0
    64a7     64a7      187     1         ./drivers/clock.o:(.debug_macro)
    64a7     64a7        0     1                 .Ldebug_macro0
    662e     662e       46     1         ./drivers/clock.o:(.debug_macro)
    662e     662e        0     1                 .Ldebug_macro4
    6674     6674      24f     1         ./drivers/clock.o:(.debug_macro)
    6674     6674        0     1                 .Ldebug_macro7
    68c3     68c3       22     1         ./drivers/clock.o:(.debug_macro)
    68c3     68c3        0     1                 .Ldebug_macro27
    68e5     68e5      1b0     1         ./drivers/emi.o:(.debug_macro)
    68e5     68e5        0     1                 .Ldebug_macro0
    6a95     6a95       10     1         ./drivers/emi.o:(.debug_macro)
    6a95     6a95        0     1                 .Ldebug_macro32
    6aa5     6aa5      25d     1         ./drivers/flash.o:(.debug_macro)
    6aa5     6aa5        0     1                 .Ldebug_macro0
    6d02     6d02      15c     1         ./drivers/gpio.o:(.debug_macro)
    6d02     6d02        0     1                 .Ldebug_macro0
    6e5e     6e5e      16a     1         ./drivers/i2c.o:(.debug_macro)
    6e5e     6e5e        0     1                 .Ldebug_macro0
    6fc8     6fc8      10b     1         ./drivers/lpc.o:(.debug_macro)
    6fc8     6fc8        0     1                 .Ldebug_macro0
    70d3     70d3      114     1         ./drivers/mdec.o:(.debug_macro)
    70d3     70d3        0     1                 .Ldebug_macro0
    71e7     71e7      137     1         ./drivers/plmt.o:(.debug_macro)
    71e7     71e7        0     1                 .Ldebug_macro0
    731e     731e      16b     1         ./drivers/pwm.o:(.debug_macro)
    731e     731e        0     1                 .Ldebug_macro0
    7489     7489       10     1         ./drivers/pwm.o:(.debug_macro)
    7489     7489        0     1                 .Ldebug_macro31
    7499     7499      19c     1         ./drivers/s7816.o:(.debug_macro)
    7499     7499        0     1                 .Ldebug_macro0
    7635     7635      166     1         ./drivers/spi.o:(.debug_macro)
    7635     7635        0     1                 .Ldebug_macro0
    779b     779b       54     1         ./drivers/stimer.o:(.debug_macro)
    779b     779b        0     1                 .Ldebug_macro0
    77ef     77ef      166     1         ./drivers/timer.o:(.debug_macro)
    77ef     77ef        0     1                 .Ldebug_macro0
    7955     7955      17b     1         ./drivers/uart.o:(.debug_macro)
    7955     7955        0     1                 .Ldebug_macro0
    7ad0     7ad0      160     1         ./drivers/usbhw.o:(.debug_macro)
    7ad0     7ad0        0     1                 .Ldebug_macro0
    7c30     7c30      3f4     1         ./common/usb_dbg/myudb_usb.o:(.debug_macro)
    7c30     7c30        0     1                 .Ldebug_macro0
    8024     8024      1b6     1         ./common/usb_dbg/myudb_usb.o:(.debug_macro)
    8024     8024        0     1                 .Ldebug_macro4
    81da     81da      17e     1         ./common/usb_dbg/myudb_usb.o:(.debug_macro)
    81da     81da        0     1                 .Ldebug_macro5
    8358     8358       88     1         ./common/usb_dbg/myudb_usb.o:(.debug_macro)
    8358     8358        0     1                 .Ldebug_macro6
    83e0     83e0       28     1         ./common/usb_dbg/myudb_usb.o:(.debug_macro)
    83e0     83e0        0     1                 .Ldebug_macro42
    8408     8408      134     1         ./common/usb_dbg/myudb_usb.o:(.debug_macro)
    8408     8408        0     1                 .Ldebug_macro59
    853c     853c      3cc     1         ./common/usb_dbg/myudb_usbdesc.o:(.debug_macro)
    853c     853c        0     1                 .Ldebug_macro0
    8908     8908      2a2     1         ./common/bt_debug/dbgport.o:(.debug_macro)
    8908     8908        0     1                 .Ldebug_macro0
    8baa     8baa       16     1         ./common/bt_debug/dbgport.o:(.debug_macro)
    8baa     8baa        0     1                 .Ldebug_macro53
    8bc0     8bc0       16     1         ./common/bt_debug/dbgport.o:(.debug_macro)
    8bc0     8bc0        0     1                 .Ldebug_macro54
    8bd6     8bd6       1a     1         ./common/sdk_version.o:(.debug_macro)
    8bd6     8bd6        0     1                 .Ldebug_macro0
    8bf0     8bf0      436     1         ./Debug_Demo/app.o:(.debug_macro)
    8bf0     8bf0        0     1                 .Ldebug_macro0
    9026     9026       6a     1         ./Debug_Demo/app.o:(.debug_macro)
    9026     9026        0     1                 .Ldebug_macro58
    9090     9090      436     1         ./Debug_Demo/main.o:(.debug_macro)
    9090     9090        0     1                 .Ldebug_macro0
       0        0    180b4     1 .debug_line
       0        0      dec     1         ./vendor/common/flash/puya_common.o:(.debug_line)
       0        0        0     1                 .Ldebug_line0
     dec      dec      db6     1         ./vendor/common/flash/puya_flash_scratch.o:(.debug_line)
     dec      dec        0     1                 .Ldebug_line0
    1ba2     1ba2      c7a     1         ./vendor/common/flash/puya_flash_trim.o:(.debug_line)
    1ba2     1ba2        0     1                 .Ldebug_line0
    281c     281c      a84     1         ./vendor/common/calibration/calibration.o:(.debug_line)
    281c     281c        0     1                 .Ldebug_line0
    32a0     32a0      bfd     1         ./vendor/common/auto_test/pc_interface.o:(.debug_line)
    32a0     32a0        0     1                 .Ldebug_line0
    3e9d     3e9d      93c     1         ./vendor/common/common.o:(.debug_line)
    3e9d     3e9d        0     1                 .Ldebug_line0
    47d9     47d9      9ef     1         ./vendor/common/exception.o:(.debug_line)
    47d9     47d9        0     1                 .Ldebug_line0
    51c8     51c8      61d     1         ./vendor/common/printf.o:(.debug_line)
    51c8     51c8        0     1                 .Ldebug_line0
    57e5     57e5      235     1         ./drivers/flash/flash_mid146085.o:(.debug_line)
    57e5     57e5        0     1                 .Ldebug_line0
    5a1a     5a1a      270     1         ./drivers/flash/flash_mid156085.o:(.debug_line)
    5a1a     5a1a        0     1                 .Ldebug_line0
    5c8a     5c8a      270     1         ./drivers/flash/flash_mid166085.o:(.debug_line)
    5c8a     5c8a        0     1                 .Ldebug_line0
    5efa     5efa      c5f     1         ./drivers/adc.o:(.debug_line)
    5efa     5efa        0     1                 .Ldebug_line0
    6b59     6b59      62a     1         ./drivers/aes.o:(.debug_line)
    6b59     6b59        0     1                 .Ldebug_line0
    7183     7183      9f4     1         ./drivers/analog.o:(.debug_line)
    7183     7183        0     1                 .Ldebug_line0
    7b77     7b77     177c     1         ./drivers/audio.o:(.debug_line)
    7b77     7b77        0     1                 .Ldebug_line0
    92f3     92f3      829     1         ./drivers/clock.o:(.debug_line)
    92f3     92f3        0     1                 .Ldebug_line0
    9b1c     9b1c      db0     1         ./drivers/emi.o:(.debug_line)
    9b1c     9b1c        0     1                 .Ldebug_line0
    a8cc     a8cc      d84     1         ./drivers/flash.o:(.debug_line)
    a8cc     a8cc        0     1                 .Ldebug_line0
    b650     b650      9b2     1         ./drivers/gpio.o:(.debug_line)
    b650     b650        0     1                 .Ldebug_line0
    c002     c002      b2b     1         ./drivers/i2c.o:(.debug_line)
    c002     c002        0     1                 .Ldebug_line0
    cb2d     cb2d      230     1         ./drivers/lpc.o:(.debug_line)
    cb2d     cb2d        0     1                 .Ldebug_line0
    cd5d     cd5d      277     1         ./drivers/mdec.o:(.debug_line)
    cd5d     cd5d        0     1                 .Ldebug_line0
    cfd4     cfd4      415     1         ./drivers/plmt.o:(.debug_line)
    cfd4     cfd4        0     1                 .Ldebug_line0
    d3e9     d3e9      806     1         ./drivers/pwm.o:(.debug_line)
    d3e9     d3e9        0     1                 .Ldebug_line0
    dbef     dbef      7e4     1         ./drivers/s7816.o:(.debug_line)
    dbef     dbef        0     1                 .Ldebug_line0
    e3d3     e3d3     18aa     1         ./drivers/spi.o:(.debug_line)
    e3d3     e3d3        0     1                 .Ldebug_line0
    fc7d     fc7d      1c4     1         ./drivers/stimer.o:(.debug_line)
    fc7d     fc7d        0     1                 .Ldebug_line0
    fe41     fe41      603     1         ./drivers/timer.o:(.debug_line)
    fe41     fe41        0     1                 .Ldebug_line0
   10444    10444      f92     1         ./drivers/uart.o:(.debug_line)
   10444    10444        0     1                 .Ldebug_line0
   113d6    113d6      501     1         ./drivers/usbhw.o:(.debug_line)
   113d6    113d6        0     1                 .Ldebug_line0
   118d7    118d7     13ff     1         ./common/usb_dbg/myudb_usb.o:(.debug_line)
   118d7    118d7        0     1                 .Ldebug_line0
   12cd6    12cd6      913     1         ./common/usb_dbg/myudb_usbdesc.o:(.debug_line)
   12cd6    12cd6        0     1                 .Ldebug_line0
   135e9    135e9      993     1         ./common/bt_debug/dbgport.o:(.debug_line)
   135e9    135e9        0     1                 .Ldebug_line0
   13f7c    13f7c       49     1         ./common/sdk_version.o:(.debug_line)
   13f7c    13f7c        0     1                 .Ldebug_line0
   13fc5    13fc5      425     1         ./boot/cstartup_flash.o:(.debug_line)
   143ea    143ea      b2b     1         ./Debug_Demo/app.o:(.debug_line)
   143ea    143ea        0     1                 .Ldebug_line0
   14f15    14f15      9fb     1         ./Debug_Demo/main.o:(.debug_line)
   14f15    14f15        0     1                 .Ldebug_line0
   15910    15910      538     1         /cygdrive/c/TelinkIoTStudio/RDS/V3.2.3/toolchains/nds32le-elf-mculib-v5f/bin/../lib/gcc/riscv32-elf/7.4.0/libgcc.a(_udivdi3.o):(.debug_line)
   15910    15910        0     1                 .Ldebug_line0
   15e48    15e48      368     1         /cygdrive/c/TelinkIoTStudio/RDS/V3.2.3/toolchains/nds32le-elf-mculib-v5f/bin/../lib/gcc/riscv32-elf/7.4.0/libgcc.a(_clz.o):(.debug_line)
   15e48    15e48        0     1                 .Ldebug_line0
   161b0    161b0      1c7     1         /cygdrive/c/TelinkIoTStudio/RDS/V3.2.3/toolchains/nds32le-elf-mculib-v5f/bin/../lib/gcc/riscv32-elf/7.4.0/libgcc.a(save-restore.o):(.debug_line)
   16377    16377      3c7     1         /cygdrive/c/TelinkIoTStudio/RDS/V3.2.3/toolchains/nds32le-elf-mculib-v5f/bin/../lib/gcc/riscv32-elf/7.4.0/libgcc.a(_ashldi3.o):(.debug_line)
   16377    16377        0     1                 .Ldebug_line0
   1673e    1673e      3c7     1         /cygdrive/c/TelinkIoTStudio/RDS/V3.2.3/toolchains/nds32le-elf-mculib-v5f/bin/../lib/gcc/riscv32-elf/7.4.0/libgcc.a(_lshrdi3.o):(.debug_line)
   1673e    1673e        0     1                 .Ldebug_line0
   16b05    16b05     15af     1         /cygdrive/c/Users/SWAMIN~1/AppData/Local/Temp/ccKdbC8c.ltrans0.ltrans.o:(.debug_line)
   16b05    16b05        0     1                 .Ldebug_line0
       0        0    28681     1 .debug_str
       0        0    28681     1         ./vendor/common/flash/puya_common.o:(.debug_str)
       0        0       75     1 .comment
       0        0       75     1         ./vendor/common/flash/puya_common.o:(.comment)
       0        0     4a30     4 .debug_frame
       0        0      2f8     4         ./vendor/common/flash/puya_common.o:(.debug_frame)
       0        0        0     1                 .L0 
     2f8      2f8      2a4     4         ./vendor/common/flash/puya_flash_scratch.o:(.debug_frame)
     2f8      2f8        0     1                 .L0 
     59c      59c      208     4         ./vendor/common/flash/puya_flash_trim.o:(.debug_frame)
     59c      59c        0     1                 .L0 
     7a4      7a4       9c     4         ./vendor/common/calibration/calibration.o:(.debug_frame)
     7a4      7a4        0     1                 .L0 
     840      840      128     4         ./vendor/common/auto_test/pc_interface.o:(.debug_frame)
     840      840        0     1                 .L0 
     968      968       5c     4         ./vendor/common/common.o:(.debug_frame)
     968      968        0     1                 .L0 
     9c4      9c4      16c     4         ./vendor/common/exception.o:(.debug_frame)
     9c4      9c4        0     1                 .L0 
     b30      b30       58     4         ./vendor/common/printf.o:(.debug_frame)
     b30      b30        0     1                 .L0 
     b88      b88      10c     4         ./drivers/flash/flash_mid146085.o:(.debug_frame)
     b88      b88        0     1                 .L0 
     c94      c94      128     4         ./drivers/flash/flash_mid156085.o:(.debug_frame)
     c94      c94        0     1                 .L0 
     dbc      dbc      128     4         ./drivers/flash/flash_mid166085.o:(.debug_frame)
     dbc      dbc        0     1                 .L0 
     ee4      ee4      510     4         ./drivers/adc.o:(.debug_frame)
     ee4      ee4        0     1                 .L0 
    13f4     13f4       f0     4         ./drivers/aes.o:(.debug_frame)
    13f4     13f4        0     1                 .L0 
    14e4     14e4      258     4         ./drivers/analog.o:(.debug_frame)
    14e4     14e4        0     1                 .L0 
    173c     173c      788     4         ./drivers/audio.o:(.debug_frame)
    173c     173c        0     1                 .L0 
    1ec4     1ec4      17c     4         ./drivers/clock.o:(.debug_frame)
    1ec4     1ec4        0     1                 .L0 
    2040     2040      268     4         ./drivers/emi.o:(.debug_frame)
    2040     2040        0     1                 .L0 
    22a8     22a8      438     4         ./drivers/flash.o:(.debug_frame)
    22a8     22a8        0     1                 .L0 
    26e0     26e0      1f8     4         ./drivers/gpio.o:(.debug_frame)
    26e0     26e0        0     1                 .L0 
    28d8     28d8      2e4     4         ./drivers/i2c.o:(.debug_frame)
    28d8     28d8        0     1                 .L0 
    2bbc     2bbc       2c     4         ./drivers/lpc.o:(.debug_frame)
    2bbc     2bbc        0     1                 .L0 
    2be8     2be8       50     4         ./drivers/mdec.o:(.debug_frame)
    2be8     2be8        0     1                 .L0 
    2c38     2c38       d0     4         ./drivers/plmt.o:(.debug_frame)
    2c38     2c38        0     1                 .L0 
    2d08     2d08      1a4     4         ./drivers/pwm.o:(.debug_frame)
    2d08     2d08        0     1                 .L0 
    2eac     2eac      1fc     4         ./drivers/s7816.o:(.debug_frame)
    2eac     2eac        0     1                 .L0 
    30a8     30a8      8e8     4         ./drivers/spi.o:(.debug_frame)
    30a8     30a8        0     1                 .L0 
    3990     3990       74     4         ./drivers/stimer.o:(.debug_frame)
    3990     3990        0     1                 .L0 
    3a04     3a04      108     4         ./drivers/timer.o:(.debug_frame)
    3a04     3a04        0     1                 .L0 
    3b0c     3b0c      3a0     4         ./drivers/uart.o:(.debug_frame)
    3b0c     3b0c        0     1                 .L0 
    3eac     3eac       e8     4         ./drivers/usbhw.o:(.debug_frame)
    3eac     3eac        0     1                 .L0 
    3f94     3f94      3b4     4         ./common/usb_dbg/myudb_usb.o:(.debug_frame)
    3f94     3f94        0     1                 .L0 
    4348     4348       a0     4         ./common/usb_dbg/myudb_usbdesc.o:(.debug_frame)
    4348     4348        0     1                 .L0 
    43e8     43e8      18c     4         ./common/bt_debug/dbgport.o:(.debug_frame)
    43e8     43e8        0     1                 .L0 
    4574     4574      104     4         ./Debug_Demo/app.o:(.debug_frame)
    4574     4574        0     1                 .L0 
    4678     4678       74     4         ./Debug_Demo/main.o:(.debug_frame)
    4678     4678        0     1                 .L0 
    46ec     46ec       20     4         /cygdrive/c/TelinkIoTStudio/RDS/V3.2.3/toolchains/nds32le-elf-mculib-v5f/bin/../lib/gcc/riscv32-elf/7.4.0/libgcc.a(_ashldi3.o):(.debug_frame)
    46ec     46ec        0     1                 .L0 
    470c     470c       20     4         /cygdrive/c/TelinkIoTStudio/RDS/V3.2.3/toolchains/nds32le-elf-mculib-v5f/bin/../lib/gcc/riscv32-elf/7.4.0/libgcc.a(_lshrdi3.o):(.debug_frame)
    470c     470c        0     1                 .L0 
    472c     472c      304     4         /cygdrive/c/Users/SWAMIN~1/AppData/Local/Temp/ccKdbC8c.ltrans0.ltrans.o:(.debug_frame)
    472c     472c        0     1                 .L0 
       0        0     1370     1 .debug_loc
       0        0     11a8     1         /cygdrive/c/TelinkIoTStudio/RDS/V3.2.3/toolchains/nds32le-elf-mculib-v5f/bin/../lib/gcc/riscv32-elf/7.4.0/libgcc.a(_udivdi3.o):(.debug_loc)
       0        0        0     1                 .LLST0
     128      128        0     1                 .LLST1
     1f0      1f0        0     1                 .LLST2
     258      258        0     1                 .LLST3
     300      300        0     1                 .LLST4
     3e8      3e8        0     1                 .LLST5
     4f6      4f6        0     1                 .LLST6
     582      582        0     1                 .LLST7
     63e      63e        0     1                 .LLST8
     70c      70c        0     1                 .LLST9
     72a      72a        0     1                 .LLST10
     78f      78f        0     1                 .LLST11
     7c1      7c1        0     1                 .LLST12
     7df      7df        0     1                 .LLST13
     860      860        0     1                 .LLST14
     8ba      8ba        0     1                 .LLST15
     8cd      8cd        0     1                 .LLST16
     8f6      8f6        0     1                 .LLST17
     936      936        0     1                 .LLST18
     980      980        0     1                 .LLST19
     9b4      9b4        0     1                 .LLST20
     a08      a08        0     1                 .LLST21
     a26      a26        0     1                 .LLST22
     a5a      a5a        0     1                 .LLST23
     a99      a99        0     1                 .LLST24
     ac2      ac2        0     1                 .LLST25
     b3d      b3d        0     1                 .LLST26
     b5b      b5b        0     1                 .LLST27
     b90      b90        0     1                 .LLST28
     bcb      bcb        0     1                 .LLST29
     c15      c15        0     1                 .LLST30
     c49      c49        0     1                 .LLST31
     c8f      c8f        0     1                 .LLST32
     cad      cad        0     1                 .LLST33
     ce1      ce1        0     1                 .LLST34
     cff      cff        0     1                 .LLST35
     d3b      d3b        0     1                 .LLST36
     d68      d68        0     1                 .LLST37
     d97      d97        0     1                 .LLST38
     de1      de1        0     1                 .LLST39
     e20      e20        0     1                 .LLST40
     e66      e66        0     1                 .LLST41
     eb5      eb5        0     1                 .LLST42
     ef4      ef4        0     1                 .LLST43
     f12      f12        0     1                 .LLST44
     f4b      f4b        0     1                 .LLST45
     f69      f69        0     1                 .LLST46
     f7c      f7c        0     1                 .LLST47
     fcf      fcf        0     1                 .LLST48
     fe2      fe2        0     1                 .LLST49
    1013     1013        0     1                 .LLST50
    1026     1026        0     1                 .LLST51
    1044     1044        0     1                 .LLST52
    1062     1062        0     1                 .LLST53
    10a1     10a1        0     1                 .LLST54
    10d5     10d5        0     1                 .LLST55
    112e     112e        0     1                 .LLST56
    1174     1174        0     1                 .LLST57
    11a8     11a8       e4     1         /cygdrive/c/TelinkIoTStudio/RDS/V3.2.3/toolchains/nds32le-elf-mculib-v5f/bin/../lib/gcc/riscv32-elf/7.4.0/libgcc.a(_ashldi3.o):(.debug_loc)
    11a8     11a8        0     1                 .LLST0
    11f0     11f0        0     1                 .LLST1
    122a     122a        0     1                 .LLST2
    1269     1269        0     1                 .LLST3
    128c     128c       e4     1         /cygdrive/c/TelinkIoTStudio/RDS/V3.2.3/toolchains/nds32le-elf-mculib-v5f/bin/../lib/gcc/riscv32-elf/7.4.0/libgcc.a(_lshrdi3.o):(.debug_loc)
    128c     128c        0     1                 .LLST0
    12d4     12d4        0     1                 .LLST1
    130e     130e        0     1                 .LLST2
    134d     134d        0     1                 .LLST3
       0        0     1ea0     4 .symtab
       0        0     1ea0     4         <internal>:(.symtab)
       0        0      138     1 .shstrtab
       0        0      138     1         <internal>:(.shstrtab)
       0        0     1bc1     1 .strtab
       0        0     1bc1     1         <internal>:(.strtab)
       0        0       39     1 .riscv.attributes
       0        0       39     1         <internal>:(.riscv.attributes)
