
NMSIS_Demo_dsp.adx:     file format elf32-littleriscv
NMSIS_Demo_dsp.adx
architecture: riscv:rv32, flags 0x00000112:
EXEC_P, HAS_SYMS, D_PAGED
start address 0x20000000

Program Header:
    LOAD off    0x00001000 vaddr 0x20000000 paddr 0x20000000 align 2**12
         filesz 0x0000018a memsz 0x0000018a flags r-x
    LOAD off    0x00002000 vaddr 0x00000000 paddr 0x20000190 align 2**12
         filesz 0x00000154 memsz 0x00000178 flags rwx
    LOAD off    0x00002178 vaddr 0x00000178 paddr 0x200002e8 align 2**12
         filesz 0x00000074 memsz 0x00000074 flags rw-
    LOAD off    0x00002200 vaddr 0x00000200 paddr 0x20000360 align 2**12
         filesz 0x00002c10 memsz 0x00002c10 flags r-x
    LOAD off    0x00004f70 vaddr 0x20002f70 paddr 0x20002f70 align 2**12
         filesz 0x0001d350 memsz 0x0001d350 flags r-x
    LOAD off    0x00023000 vaddr 0x00080000 paddr 0x200202c0 align 2**12
         filesz 0x00000278 memsz 0x00000314 flags rw-
    LOAD off    0x00023e08 vaddr 0x00081e08 paddr 0x20020538 align 2**12
         filesz 0x00000022 memsz 0x00000022 flags rw-
    LOAD off    0x00024314 vaddr 0x00080314 paddr 0x200205d4 align 2**12
         filesz 0x00000000 memsz 0x00001af4 flags rw-
0x70000000 off    0x000b6743 vaddr 0x00000000 paddr 0x00000000 align 2**0
         filesz 0x00000040 memsz 0x00000000 flags r--

Sections:
Idx Name          Size      VMA       LMA       File off  Algn
  0 .vectors      0000018a  20000000  20000000  00001000  2**2
                  CONTENTS, ALLOC, LOAD, READONLY, CODE
  1 .retention_reset 00000154  00000000  20000190  00002000  2**2
                  CONTENTS, ALLOC, LOAD, READONLY, CODE
  2 .aes_data     00000020  00000158  200002e8  00002154  2**2
                  ALLOC
  3 .retention_data 00000074  00000178  200002e8  00002178  2**2
                  CONTENTS, ALLOC, LOAD, DATA
  4 .ram_code     00002c10  00000200  20000360  00002200  2**8
                  CONTENTS, ALLOC, LOAD, READONLY, CODE
  5 .text         00007900  20002f70  20002f70  00004f70  2**2
                  CONTENTS, ALLOC, LOAD, READONLY, CODE
  6 .rodata       00015930  2000a870  2000a870  0000c870  2**2
                  CONTENTS, ALLOC, LOAD, READONLY, DATA
  7 .eh_frame     00000120  200201a0  200201a0  000221a0  2**2
                  CONTENTS, ALLOC, LOAD, READONLY, DATA
  8 .data         00000278  00080000  200202c0  00023000  2**3
                  CONTENTS, ALLOC, LOAD, DATA
  9 .sbss         0000009c  00080278  20020538  00023278  2**3
                  ALLOC
 10 .bss          00001af4  00080314  200205d4  00024314  2**2
                  ALLOC
 11 .sdk_version  00000022  00081e08  20020538  00023e08  2**2
                  CONTENTS, ALLOC, LOAD, DATA
 12 .debug_info   000290ad  00000000  00000000  00023e2a  2**0
                  CONTENTS, READONLY, DEBUGGING
 13 .debug_abbrev 000059fc  00000000  00000000  0004ced7  2**0
                  CONTENTS, READONLY, DEBUGGING
 14 .debug_loc    000111b2  00000000  00000000  000528d3  2**0
                  CONTENTS, READONLY, DEBUGGING
 15 .debug_aranges 000008e0  00000000  00000000  00063a88  2**3
                  CONTENTS, READONLY, DEBUGGING
 16 .debug_macro  0000a82b  00000000  00000000  00064368  2**0
                  CONTENTS, READONLY, DEBUGGING
 17 .debug_line   000161a1  00000000  00000000  0006eb93  2**0
                  CONTENTS, READONLY, DEBUGGING
 18 .debug_str    000319c6  00000000  00000000  00084d34  2**0
                  CONTENTS, READONLY, DEBUGGING
 19 .comment      00000049  00000000  00000000  000b66fa  2**0
                  CONTENTS, READONLY
 20 .riscv.attributes 00000040  00000000  00000000  000b6743  2**0
                  CONTENTS, READONLY
 21 .debug_frame  000025ac  00000000  00000000  000b6784  2**2
                  CONTENTS, READONLY, DEBUGGING
 22 .debug_ranges 00001120  00000000  00000000  000b8d30  2**3
                  CONTENTS, READONLY, DEBUGGING
SYMBOL TABLE:
20000000 l    d  .vectors	00000000 .vectors
00000000 l    d  .retention_reset	00000000 .retention_reset
00000158 l    d  .aes_data	00000000 .aes_data
00000178 l    d  .retention_data	00000000 .retention_data
00000200 l    d  .ram_code	00000000 .ram_code
20002f70 l    d  .text	00000000 .text
2000a870 l    d  .rodata	00000000 .rodata
200201a0 l    d  .eh_frame	00000000 .eh_frame
00080000 l    d  .data	00000000 .data
00080278 l    d  .sbss	00000000 .sbss
00080314 l    d  .bss	00000000 .bss
00081e08 l    d  .sdk_version	00000000 .sdk_version
00000000 l    d  .debug_info	00000000 .debug_info
00000000 l    d  .debug_abbrev	00000000 .debug_abbrev
00000000 l    d  .debug_loc	00000000 .debug_loc
00000000 l    d  .debug_aranges	00000000 .debug_aranges
00000000 l    d  .debug_macro	00000000 .debug_macro
00000000 l    d  .debug_line	00000000 .debug_line
00000000 l    d  .debug_str	00000000 .debug_str
00000000 l    d  .comment	00000000 .comment
00000000 l    d  .riscv.attributes	00000000 .riscv.attributes
00000000 l    d  .debug_frame	00000000 .debug_frame
00000000 l    d  .debug_ranges	00000000 .debug_ranges
00000000 l    df *ABS*	00000000 ./boot/cstartup_flash.o
20000028 l       .vectors	00000000 _START
2000008e l       .vectors	00000000 _RETENTION_RESET_INIT
200000a6 l       .vectors	00000000 _RETENTION_RESET_BEGIN
200000b8 l       .vectors	00000000 _RETENTION_DATA_INIT
200000cc l       .vectors	00000000 _RETENTION_DATA_INIT_BEGIN
200000de l       .vectors	00000000 _RAMCODE_INIT
200000f6 l       .vectors	00000000 _RAMCODE_INIT_BEGIN
20000108 l       .vectors	00000000 _DATA_INIT
20000120 l       .vectors	00000000 _DATA_INIT_BEGIN
20000132 l       .vectors	00000000 _ZERO_BSS
20000146 l       .vectors	00000000 _ZERO_BSS_BEGIN
20000152 l       .vectors	00000000 _ZERO_AES
20000166 l       .vectors	00000000 _ZERO_AES_BEGIN
20000172 l       .vectors	00000000 _FILL_STK
20000172 l       .vectors	00000000 _MAIN_FUNC
20000188 l       .vectors	00000000 _END
00000022 l       .retention_reset	00000000 _ISTART
0000002a l       .retention_reset	00000000 _ISWS_USB_DIS
00000088 l       .retention_reset	00000000 _WAKEUP_FLASH
000000a2 l       .retention_reset	00000000 _MSPI_WAIT
000000bc l       .retention_reset	00000000 _WAIT_EFUSE_LOAD_AND_FLASH_WAKEUP_FINISH
000000c2 l       .retention_reset	00000000 _MULTI_ADDRESS_BEGIN
000000d2 l       .retention_reset	00000000 _IZERO_BSS
000000e6 l       .retention_reset	00000000 _IZERO_BSS_BEGIN
000000f2 l       .retention_reset	00000000 _IZERO_AES
00000106 l       .retention_reset	00000000 _IZERO_AES_BEGIN
00000112 l       .retention_reset	00000000 _IFILL_STK
00000112 l       .retention_reset	00000000 _IDATA_INIT
0000012a l       .retention_reset	00000000 _IDATA_INIT_BEGIN
0000013c l       .retention_reset	00000000 _IMAIN_FUNC
00000152 l       .retention_reset	00000000 _IEND
00000040 l       *ABS*	00000000 irqno
00000000 l    df *ABS*	00000000 adc.c
00000000 l    df *ABS*	00000000 clock.c
00000000 l    df *ABS*	00000000 flash.c
00001080 l     F .ram_code	0000004c flash_send_addr
00001114 l     F .ram_code	00000058 flash_wait_done
2000529c l     F .text	00000064 flash_write
00000184 l     O .retention_data	00000002 s_flash_preempt_config
00000000 l    df *ABS*	00000000 
000025d0 l     F .ram_code	000000c4 pm_wait_bbpll_done
00002694 l     F .ram_code	000001a0 pm_sleep_start
00002834 l     F .ram_code	00000098 pm_stimer_recover
000028cc l     F .ram_code	00000368 pm_sleep_wakeup_ram.constprop.1
20006c84 l     F .text	0000001a pm_sleep_wakeup.constprop.0
00000190 l     O .retention_data	00000001 g_pm_suspend_power_cfg
00000191 l     O .retention_data	00000001 g_pm_long_suspend
00000194 l     O .retention_data	00000004 g_pm_tick_cur
00000198 l     O .retention_data	00000029 pmcd
000001c4 l     O .retention_data	00000004 g_pm_tick_32k_calib
000001c8 l     O .retention_data	00000008 g_pm_early_wakeup_time_us
000001d0 l     O .retention_data	00000004 g_pm_tick_32k_cur
000001d4 l     O .retention_data	00000001 g_pm_tick_update_en
000001d8 l     O .retention_data	00000004 g_pm_r_delay_cycle
000001e0 l     O .retention_data	00000008 g_pm_longsleep_early_wakeup_time_us
000802fc l     O .sbss	00000004 g_pm_status_info
00000000 l    df *ABS*	00000000 myudb_usb.c
000802d0 l     O .sbss	00000002 myudb_g_response_len
000802d4 l     O .sbss	00000004 myudb_g_response
000802c4 l     O .sbss	00000008 control_request
000802cc l     O .sbss	00000004 myudb_g_stall
000802b8 l     O .sbss	00000004 p.8427
000802b4 l     O .sbss	00000002 len.8426
000802b0 l     O .sbss	00000004 len.8436
000802ac l     O .sbss	00000004 tick_sync.8490
00000000 l    df *ABS*	00000000 analog.c
00000000 l    df *ABS*	00000000 audio.c
00000000 l    df *ABS*	00000000 plmt.c
00080260 l     O .data	00000004 mtime_clock_source
00000000 l    df *ABS*	00000000 spi.c
000802de l     O .sbss	00000001 s_pspi_tx_dma_chn
000802e0 l     O .sbss	00000001 s_hspi_tx_dma_chn
000802dd l     O .sbss	00000001 s_pspi_rx_dma_chn
000802df l     O .sbss	00000001 s_hspi_rx_dma_chn
00000000 l    df *ABS*	00000000 stimer.c
00000000 l    df *ABS*	00000000 exception.c
000802f4 l     O .sbss	00000004 exception_mtval
000802f0 l     O .sbss	00000004 exception_mepc
000802ec l     O .sbss	00000004 exception_mstatus
000802e8 l     O .sbss	00000004 exception_mcause
000802e4 l     O .sbss	00000004 exception_mdcause
00000000 l    df *ABS*	00000000 puya_common.c
00000000 l    df *ABS*	00000000 puya_flash_scratch.c
00001ecc l     F .ram_code	0000005c flash_write_enable_cmd_testmode
00001f28 l     F .ram_code	00000090 flash_wait_done_testomode
00001fb8 l     F .ram_code	00000090 flash_wait_done_common
00002048 l     F .ram_code	00000064 flash_erase_chip_scratch_testmode
000020ac l     F .ram_code	00000018 flash_write_config_scratch_testmode
000020c4 l     F .ram_code	00000018 flash_plane_program_scratch_testmode
000020dc l     F .ram_code	0000002c flash_page_program_scratch_testmode
00002108 l     F .ram_code	000000d4 flash_scratch_ram
000021dc l     F .ram_code	000000fa flash_erase_chip_ram
00000000 l    df *ABS*	00000000 puya_flash_trim.c
000022d8 l     F .ram_code	000000b0 flash_read_status_trim_testmode
00002388 l     F .ram_code	000000a4 flash_erase_trim_testmode
0000242c l     F .ram_code	00000018 flash_read_trim_testmode
00002444 l     F .ram_code	00000020 flash_page_program_trim_testmode
00002464 l     F .ram_code	000000bc flash_trim_ram
00002520 l     F .ram_code	000000ae flash_trim_check_ram
00000000 l    df *ABS*	00000000 app.c
00000000 l    df *ABS*	00000000 main.c
00080278 l     O .sbss	00000008 _bc_ercd
00080288 l     O .sbss	00000008 _bc_sumcyc
00080290 l     O .sbss	00000008 _bc_usecyc
00080280 l     O .sbss	00000008 _bc_lpcnt
000802a0 l     O .sbss	00000008 _bc_sttcyc
00080298 l     O .sbss	00000008 _bc_endcyc
00000000 l    df *ABS*	00000000 gpio.c
00000000 l    df *ABS*	00000000 i2c.c
000802dc l     O .sbss	00000001 i2c_dma_tx_chn
000802db l     O .sbss	00000001 i2c_dma_rx_chn
00000000 l    df *ABS*	00000000 pwm.c
00000000 l    df *ABS*	00000000 calibration.c
00000000 l    df *ABS*	00000000 common.c
00000000 l    df *ABS*	00000000 printf.c
00000000 l    df *ABS*	00000000 sinf.c
00000000 l    df *ABS*	00000000 ref_rredf.c
2000aaf0 l     O .rodata	00000020 twooverpi.2618
00000000 l    df *ABS*	00000000 wf_sqrt.c
00000000 l    df *ABS*	00000000 ef_sqrt.c
00000000 l    df *ABS*	00000000 s_matherr.c
00000000 l    df *ABS*	00000000 riscv_cmplx_mag_f32.c
2000740c l       .text	00000000 $x
00000000 l    df *ABS*	00000000 riscv_cfft_init_f32.c
200075d0 l       .text	00000000 $x
200075f4 l       .text	00000000 $x
2000761c l       .text	00000000 $x
20007640 l       .text	00000000 $x
20007664 l       .text	00000000 $x
20007688 l       .text	00000000 $x
200076ac l       .text	00000000 $x
200076d0 l       .text	00000000 $x
200076f4 l       .text	00000000 $x
20007718 l       .text	00000000 $x
00000000 l    df *ABS*	00000000 riscv_cfft_f32.c
20007790 l       .text	00000000 $x
00000000 l    df *ABS*	00000000 riscv_cfft_radix8_f32.c
20007e38 l       .text	00000000 $x
00000000 l    df *ABS*	00000000 riscv_bitreversal2.c
20008410 l       .text	00000000 $x
00000000 l    df *ABS*	00000000 libgcc2.c
00000000 l    df *ABS*	00000000 muldf3.c
00000000 l    df *ABS*	00000000 floatsidf.c
00000000 l    df *ABS*	00000000 extendsfdf2.c
00000000 l    df *ABS*	00000000 truncdfsf2.c
00000000 l    df *ABS*	00000000 divdf3.c
00000000 l    df *ABS*	00000000 memcpy.c
00000000 l    df *ABS*	00000000 printf.c
00000000 l    df *ABS*	00000000 puts.c
00000000 l    df *ABS*	00000000 strlen.c
00000000 l    df *ABS*	00000000 vprintf.c
20009c80 l     F .text	0000003a __vprintf_help
00080308 l     O .sbss	00000004 __vprintf_buf
0008030c l     O .sbss	00000004 __vprintf_buf_len
00000000 l    df *ABS*	00000000 printf_impl.c
00000000 l    df *ABS*	00000000 printf_impl_float.c
00000000 l    df *ABS*	00000000 strcpy.c
00000000 l    df *ABS*	00000000 strnlen.c
00000000 l    df *ABS*	00000000 libgcc2.c
00000000 l    df *ABS*	00000000 libgcc2.c
00000000 l    df *ABS*	00000000 riscv_const_structs.c
00000000 l    df *ABS*	00000000 riscv_common_tables.c
00000000 l    df *ABS*	00000000 libgcc2.c
00000000 l    df *ABS*	00000000 printf_data.c
00000000 l    df *ABS*	00000000 s_lib_ver.c
00000000 l    df *ABS*	00000000 sdk_version.c
00000000 l    df *ABS*	00000000 aes.c
200056f4 g     F .text	00000094 gpio_ds_en
200039bc g     F .text	00000070 adc_gpio_sample_init
200033fc  w      .text	00000000 entry_irq55
00080268 g     O .data	00000003 enter_cmd_scratch
200033fc  w      .text	00000000 entry_irq13
20006c14 g     F .text	00000018 platform_init
20010084 g     O .rodata	00008000 twiddleCoef_4096
2000a670 g     F .text	0000007c strcpy
200033fc  w      .text	00000000 entry_irq15
2000a7e0 g     F .text	0000002e .hidden __ashldi3
000003ac g     F .ram_code	000000cc myudb_to_usb
2000445c g     F .text	000001b0 audio_codec_dac_config
20003b34 g     F .text	00000068 adc_get_code
2000ab6c g     O .rodata	00000010 riscv_cfft_sR_f32_len128
200033fc  w      .text	00000000 entry_irq27
200033fc  w      .text	00000000 entry_irq60
20003c64 g     F .text	000000c4 audio_set_chn_wl
0000092c g     F .ram_code	00000040 analog_write_reg16
00080048 g     O .data	0000000b audio_i2s_codec_config
20003780 g     F .text	000000dc adc_set_sample_rate
2000ff8c g     O .rodata	00000070 riscvBitRevIndexTable64
00000de4 g     F .ram_code	00000060 clock_set_32k_tick
200033fc  w      .text	00000000 entry_irq1
200033fc  w      .text	00000000 entry_irq52
200033fc  w      .text	00000000 entry_irq50
2000cb2c g     O .rodata	00001dc0 riscvBitRevIndexTable2048
200033fc  w      .text	00000000 entry_irq62
2000abac g     O .rodata	00001f80 riscvBitRevIndexTable4096
20009bce g     F .text	0000001e printf
00080800 g       .data	00000000 __global_pointer$
2000a818 g       .text	00000000 .hidden __riscv_save_8
200033fc  w      .text	00000000 entry_irq58
200038a0 g     F .text	00000050 adc_set_vbat_divider
000801c4 g     O .data	00000020 page_program_addr
20007790  w    F .text	000006a8 riscv_cfft_f32
0000018c g     O .retention_data	00000004 flash_read_page
2000a864 g       .text	00000000 .hidden __riscv_restore_3
20003528 g     F .text	0000003c adc_clr_sample_status_dma
20006178 g     F .text	000000c8 i2c_master_write
20004894 g     F .text	00000034 audio_i2s_config
000001ec g       .retention_data	00000000 _RETENTION_DATA_VMA_END
0008024c g     O .data	00000006 sys_clk
000009b8 g     F .ram_code	00000040 analog_write_reg32
20003f64 g     F .text	0000011c audio_set_dmic_pin
20005130 g     F .text	00000028 flash_dread
2000a850 g       .text	00000000 .hidden __riscv_restore_10
20005ac0 g     F .text	00000134 gpio_set_irq
20004080 g     F .text	0000002c audio_rx_dma_en
2000385c g     F .text	00000044 adc_set_scale_factor
20003a2c g     F .text	00000060 adc_temperature_sample_init
2000a818 g       .text	00000000 .hidden __riscv_save_11
20004c64 g     F .text	0000008c audio_codec_dac_power_down
200064b0 g     F .text	00000070 i2c_slave_set_tx_dma
00001500 g     F .ram_code	00000044 mtime_set_interval_ms
20005350 g     F .text	0000007c flash_write_status
00081dd8 g     O .bss	00000001 audio_rx_dma_chn
20009d06 g     F .text	0000004c __print_integral
20006fc0 g     F .text	00000030 rf_update_internal_cap
0000167c g     F .ram_code	000000f0 spi_set_rx_dma
0008025c g     O .data	00000004 i2c_tx_dma_config
00000178 g     O .retention_data	00000002 g_adc_gpio_calib_vref
2001fe84 g     O .rodata	00000100 twiddleCoef_32
2000611c g     F .text	00000028 i2c_master_init
200053cc g     F .text	00000028 flash_read_otp
00000000 g       .retention_reset	00000000 _RETENTION_RESET_VMA_START
200048c8 g     F .text	000000ec audio_init
200033fc  w      .text	00000000 entry_irq10
20005180 g     F .text	0000002c flash_read_mid
200033fc  w      .text	00000000 entry_irq21
2000ab1c g     O .rodata	00000010 riscv_cfft_sR_f32_len4096
00080244 g     O .data	00000004 audio_dma_tx_config
00000158 g       .aes_data	00000000 _AES_VMA_START
20007150 g     F .text	0000013e ref__mathlib_rredf2
200033fc  w      .text	00000000 entry_irq48
20006c34  w    F .text	00000004 mswi_irq_handler
20007290 g     F .text	000000a6 sqrtf
2000a864 g       .text	00000000 .hidden __riscv_restore_2
20007688  w    F .text	00000024 riscv_cfft_init_128_f32
20005ee8 g     F .text	000000aa gpio_set_pullup_res_30k
200033fc  w      .text	00000000 entry_irq8
20006658 g     F .text	00000028 i2c_set_rx_dma_config
200033fc  w      .text	00000000 entry_irq33
2000ab4c g     O .rodata	00000010 riscv_cfft_sR_f32_len512
00081e08 g       .bss	00000000 _BSS_VMA_END
0000116c g     F .ram_code	000001c8 flash_mspi_read_ram
200036e0 g     F .text	00000010 adc_set_gpio_two_point_calib_offset
20009ad4 g     F .text	000000fa memcpy
0000017c g     O .retention_data	00000002 g_adc_vref
20000190 g       *ABS*	00000000 _RETENTION_RESET_LMA_START
00080300 g     O .sbss	00000001 g_single_tong_freqoffset
200056e0 g     F .text	00000014 gpio_set_input
20008e58 g     F .text	0000007a .hidden __floatsidf
2001fc84 g     O .rodata	00000200 twiddleCoef_64
2000691c g     F .text	00000060 pwm_set_tx_dma_add_list_element
000801e4 g     O .data	0000001c cst_libm_sincosf
20006ce0 g     F .text	000002e0 sys_init
20009d52 g     F .text	00000472 __printf_impl
2000fdec g     O .rodata	000001a0 riscvBitRevIndexTable128
200033fc  w      .text	00000000 entry_irq12
20009bec g     F .text	00000034 puts
200051ac g     F .text	00000030 flash_read_uid
00001df0 g     F .ram_code	000000dc flash_power_off_on_ram
00001a30 g     F .ram_code	00000030 mspi_as_mspi
20006850 g     F .text	000000cc pwm_set_dma_chain_llp
20003a8c g     F .text	0000005c adc_battery_voltage_sample_init
20006144 g     F .text	0000001c i2c_set_master_clk
2001ff84 g     O .rodata	00000080 twiddleCoef_16
200033fc  w      .text	00000000 entry_irq14
00080054 g     O .data	00000012 LineIn_To_I2S_CMD_TAB
00081dd4 g     O .bss	00000001 g_adc_pre_scale
0008021c g     O .data	00000007 audio_i2s_192k_config
2000367c g     F .text	00000058 adc_set_diff_pin
2000a810 g       .text	00000000 .hidden __riscv_save_12
00080314 g     O .bss	00000400 input
20006980 g     F .text	0000017c user_calib_adc_vref
00080b14 g     O .bss	00000140 buff
20004b10 g     F .text	00000038 audio_set_ext_codec
200033fc  w      .text	00000000 entry_irq2
200033fc  w      .text	00000000 entry_irq51
20003c4c g     F .text	0000000c audio_set_i2s_codec_m_s
2000a850 g       .text	00000000 .hidden __riscv_restore_11
200033fc  w      .text	00000000 entry_irq28
200033fc  w      .text	00000000 entry_irq43
20005d24 g     F .text	00000130 gpio_set_gpio2risc1_irq
0000096c g     F .ram_code	0000004c analog_read_reg32
2000a840 g       .text	00000000 .hidden __riscv_save_1
000019fc g     F .ram_code	00000034 mspi_as_gpio
00080264 g     O .data	00000004 pwm_tx_dma_config
2000a864 g       .text	00000000 .hidden __riscv_restore_0
200033fc  w      .text	00000000 entry_irq20
2000a826 g       .text	00000000 .hidden __riscv_save_7
00080278 g       .sbss	00000000 _BSS_VMA_START
200033fc  w      .text	00000000 entry_irq63
20004ddc g     F .text	00000070 audio_codec_adc_power_on
20008410  w    F .text	00000052 riscv_bitreversal_32
00080278 g       .data	00000000 _DATA_VMA_END
00000c14 g     F .ram_code	00000108 audio_set_i2s_clock
200067ac g     F .text	00000024 pwm_set_dma_config
20003474 g     F .text	00000098 adc_start_sample_dma
20008ed4 g     F .text	00000110 .hidden __extendsfdf2
200033fc  w      .text	00000000 entry_irq46
200033fc  w      .text	00000000 entry_irq31
00081e04 g     O .bss	00000001 g_clk_32k_src
20007640  w    F .text	00000024 riscv_cfft_init_512_f32
000014f0 g     F .ram_code	00000010 mtime_set_cmp_value
200033fc  w      .text	00000000 entry_irq16
00080274 g     O .data	00000004 __fdlib_version
20006240 g     F .text	000000c8 i2c_master_read
00100000 g       *ABS*	00000000 FLASH_SIZE
20006afc g     F .text	00000040 user_calib_freq_offset
2000a85a g       .text	00000000 .hidden __riscv_restore_5
20003bd8 g     F .text	00000018 adc_calculate_temperature
200054c4 g     F .text	00000030 flash_read_config
0000017a g     O .retention_data	00000001 g_adc_gpio_calib_vref_offset
00081dd9 g     O .bss	00000001 audio_tx_dma_chn
00080000 g       .data	00000000 _DATA_VMA_START
00080c54 g     O .bss	00001180 myudb_txfifo_b
00000d1c g     F .ram_code	00000020 audio_change_sample_rate
2000f6fc g     O .rodata	00000380 riscvBitRevIndexTable512
20008464 g     F .text	000003a2 .hidden __udivdi3
00080714 g     O .bss	00000200 magnitude
20005108 g     F .text	00000028 flash_read_data
00080074 g     O .data	00000100 program_buff
200033fc  w      .text	00000000 entry_irq53
200033fc  w      .text	00000000 entry_irq11
20003ec8 g     F .text	0000009c audio_set_codec_supply
20004200 g     F .text	00000060 audio_rx_dma_add_list_element
000802da g     O .sbss	00000001 i2c_slave_rx_index
2000aad8 g     O .rodata	00000018 cst_libm_rredf
200050f4 g     F .text	00000014 flash_plic_preempt_config
00000154 g       .retention_reset	00000000 _RETENTION_RESET_VMA_END
00080000 g     O .data	00000023 audio_i2s_48k_config
2000a6ee g     F .text	00000018 strnlen
2000a85a g       .text	00000000 .hidden __riscv_restore_6
00000478 g     F .ram_code	0000006c myudb_usb_get_packet
200076ac  w    F .text	00000024 riscv_cfft_init_64_f32
00080174 g     O .data	00000040 plane_program_addr
200033fc  w      .text	00000000 entry_irq5
20005320 g     F .text	00000030 flash_read_status
000802a8 g     O .sbss	00000004 cycle_count
200033fc  w      .text	00000000 entry_irq23
200033fe  w      .text	00000000 trap_handler
00000188 g     O .retention_data	00000004 flash_write_page
000802c0 g     O .sbss	00000004 myudb_fifo
200040d4 g     F .text	0000002c audio_tx_dma_en
200033fc  w      .text	00000000 entry_irq34
20005480 g     F .text	0000001c flash_set_xip_config
2000a7b0 g     F .text	0000002e .hidden __lshrdi3
200033fc  w      .text	00000000 entry_irq36
2000a818 g       .text	00000000 .hidden __riscv_save_9
200033fc  w      .text	00000000 entry_irq44
2000ab9c g     O .rodata	00000010 riscv_cfft_sR_f32_len16
200050d8 g     F .text	0000001a clock_init
20006520 g     F .text	00000078 i2c_slave_set_rx_dma
0000176c g     F .ram_code	00000064 hspi_master_write_xip
00001d10 g     F .ram_code	000000e0 flash_write_testmode
20009cba g     F .text	0000004c vprintf
200033fc  w      .text	00000000 entry_irq45
200033fc  w      .text	00000000 entry_irq26
2000a826 g       .text	00000000 .hidden __riscv_save_4
00080270 g     O .data	00000003 enter_cmd_trim
20007664  w    F .text	00000024 riscv_cfft_init_256_f32
20004100 g     F .text	00000028 audio_tx_dma_dis
000014e0 g     F .ram_code	00000010 mtime_get_value
200033fc  w      .text	00000000 entry_irq41
00080068 g     O .data	0000000c flash_support_mid
200033fc  w      .text	00000000 entry_irq61
2001005c g     O .rodata	00000028 riscvBitRevIndexTable16
00001be4 g     F .ram_code	0000012c flash_read_testmode
20000000 g       .vectors	00000000 BIN_BEGIN
200053f4 g     F .text	00000064 flash_write_otp
200051dc g     F .text	00000098 flash_read_mid_uid_with_check
2000a840 g       .text	00000000 .hidden __riscv_save_3
20003b9c g     F .text	0000003c adc_calculate_voltage
20003e20 g     F .text	00000028 audio_i2s_set_pin
2000486c g     F .text	00000028 audio_mux_config
000017d0 g     F .ram_code	00000062 hspi_master_read_xip
20005bf4 g     F .text	00000130 gpio_set_gpio2risc0_irq
200033fc  w      .text	00000000 entry_irq38
00000304 g     F .ram_code	000000a8 usb_send_status_pkt
000001dc g     O .retention_data	00000001 g_plic_preempt_en
0008023c g     O .data	00000007 audio_i2s_8k_config
20004ffc g     F .text	000000dc clock_cal_32k_rc
00000200 g       .ram_code	00000000 __vectors
0002055a g       *ABS*	00000000 BIN_SIZE
2000fa7c g     O .rodata	00000370 riscvBitRevIndexTable256
00080234 g     O .data	00000007 audio_i2s_16k_config
20005828 g     F .text	00000298 gpio_shutdown
200043c4 g     F .text	00000024 audio_i2c_codec_write
2001f884 g     O .rodata	00000400 twiddleCoef_128
20020188 g     O .rodata	00000010 __digits
000802bc g     O .sbss	00000004 myudb_hci_cmd_cb
20000360 g       *ABS*	00000000 _RAMCODE_LMA_START
2001f084 g     O .rodata	00000800 twiddleCoef_256
000010cc g     F .ram_code	00000048 flash_send_cmd
00000158 g     O .aes_data	00000020 aes_data_buff
20018084 g     O .rodata	00004000 twiddleCoef_2048
200036f0 g     F .text	00000090 adc_set_ref_voltage
2000740c  w    F .text	000001c4 riscv_cmplx_mag_f32
00080310 g     O .sbss	00000004 __printf_count
200033fc  w      .text	00000000 entry_irq59
00000182 g     O .retention_data	00000001 tl_24mrc_cal
20003404 g     F .text	00000070 adc_set_dma_config
20006ca0 g     F .text	0000003c efuse_get_adc_calib_value
20004ec4 g     F .text	00000138 clock_kick_32k_xtal
00000894 g     F .ram_code	00000048 analog_write_reg8
200067d0 g     F .text	00000058 pwm_set_dma_buf
200092e4 g     F .text	000007ee .hidden __divdf3
200033fc  w      .text	00000000 entry_irq6
20006360 g     F .text	000000a0 i2c_master_write_dma
20008808 g     F .text	0000064c .hidden __muldf3
2000a818 g       .text	00000000 .hidden __riscv_save_10
00080304 g     O .sbss	00000004 __mculib_REENT_errno
2000350c g     F .text	0000001c adc_get_sample_status_dma
00001834 g     F .ram_code	0000001c delay_us
200202c0 g       *ABS*	00000000 _DATA_LMA_START
20003c58 g     F .text	0000000c audio_set_output_chn
00081e08 g     O .sdk_version	00000022 sdk_version
2000549c g     F .text	00000028 flash_write_config
2000a1e2 g     F .text	00000090 __print_integral_poly
200076f4  w    F .text	00000022 riscv_cfft_init_16_f32
20000000 g       *ABS*	00000000 NDS_SAG_LMA_FLASH
2000a85a g       .text	00000000 .hidden __riscv_restore_4
2000a850 g       .text	00000000 .hidden __riscv_restore_8
00001b40 g     F .ram_code	000000a4 flash_exit_test_mode
2000a826 g       .text	00000000 .hidden __riscv_save_6
20005788 g     F .text	000000a0 gpio_ds_dis
00000af0 g     F .ram_code	00000124 analog_write_buff
20000000  w      .vectors	00000000 _RELAX_END_
000014d0 g     F .ram_code	00000010 mtime_set_value
2000a706 g     F .text	000000aa memset
2000a272 g     F .text	000003fe __printf_float_impl
20007338 g     F .text	000000cc __ieee754_sqrtf
2000a850 g       .text	00000000 .hidden __riscv_restore_9
2000a85a g       .text	00000000 .hidden __riscv_restore_7
200030bc g     F .text	0000033e main
200033fc g       .text	00000000 default_irq_entry
00001850 g     F .ram_code	00000022 delay_ms
200033fc  w      .text	00000000 entry_irq3
00001874 g     F .ram_code	00000186 trap_entry
0000017e g     O .retention_data	00000001 g_adc_vref_offset
20004c38 g     F .text	0000002c audio_resume_out_path
20003d28 g     F .text	000000f8 audio_i2s_set_pin_mux
20003bf0 g     F .text	0000000c audio_set_mono_chn
00000178 g       .aes_data	00000000 _AES_VMA_END
00000e44 g     F .ram_code	0000023a clock_init_ram
20006160 g     F .text	00000018 i2c_slave_init
20007406 g     F .text	00000004 matherr
20008fe4 g     F .text	00000300 .hidden __truncdfsf2
200033fc  w      .text	00000000 entry_irq39
200033fc  w      .text	00000000 entry_irq49
20003c10 g     F .text	00000020 audio_set_codec_in_path_a_d_gain
2001e084 g     O .rodata	00001000 twiddleCoef_512
20005310 g     F .text	00000010 flash_quad_page_program
200033fc  w      .text	00000000 entry_irq57
200033fc  w      .text	00000000 entry_irq47
00080914 g     O .bss	00000200 frequency_bin
200002e8 g       *ABS*	00000000 _RETENTION_DATA_LMA_START
20004e50 g     F .text	00000074 clock_32k_init
000004e4 g     F .ram_code	00000304 myudb_mem_cmd
2000fffc g     O .rodata	00000060 riscvBitRevIndexTable32
20003c04 g     F .text	0000000c audio_set_codec_mic_input_mode
2000357c g     F .text	00000100 adc_pin_config
20000000 g     F .vectors	00000000 _RESET_ENTRY
00000db4 g     F .ram_code	00000030 clock_get_32k_tick
00080258 g     O .data	00000004 i2c_rx_dma_config
2000460c g     F .text	00000260 audio_codec_adc_config
00081dd5 g     O .bss	00000001 g_adc_vbat_divider
20005580 g     F .text	000000a8 gpio_input_en
000007e8 g     F .ram_code	00000058 myudb_hci_cmd_from_usb
00000178 g       .retention_data	00000000 _RETENTION_DATA_VMA_START
20004398 g     F .text	0000002c audio_i2c_codec_read
20020048 g     O .rodata	00000100 .hidden __clz_tab
200033fc  w      .text	00000000 entry_irq4
000a0000 g       *ABS*	00000000 _STACK_TOP
00001334 g     F .ram_code	00000128 flash_mspi_write_ram
200040ac g     F .text	00000028 audio_rx_dma_dis
200033fc  w      .text	00000000 entry_irq22
200075d0  w    F .text	00000022 riscv_cfft_init_4096_f32
00000844 g     F .ram_code	00000050 analog_read_reg8
20003bfc g     F .text	00000008 audio_invert_i2s_lr_clk
200033fc  w      .text	00000000 entry_irq30
00000180 g     O .retention_data	00000002 g_adc_vbat_calib_vref
20005e54 g     F .text	00000094 gpio_set_up_down_res
20004128 g     F .text	000000d8 audio_rx_dma_config
20005fac g     F .text	00000170 i2c_set_pin
2000ab5c g     O .rodata	00000010 riscv_cfft_sR_f32_len256
2000ab7c g     O .rodata	00000010 riscv_cfft_sR_f32_len64
20004ba8 g     F .text	00000060 audio_i2s_init
200038f0 g     F .text	000000cc adc_init
000009f8 g     F .ram_code	000000f8 analog_read_buff
00080248 g     O .data	00000004 audio_dma_rx_config
200054f4 g     F .text	0000008a flash_get_vendor
200043e8 g     F .text	00000074 audio_i2c_init
2000ab2c g     O .rodata	00000010 riscv_cfft_sR_f32_len2048
200033fc  w      .text	00000000 entry_irq42
00081ddc g     O .bss	00000014 g_audio_tx_dma_list_cfg
20004b48 g     F .text	00000060 pwm_set
200033fc  w      .text	00000000 entry_irq24
00002d68 g     F .ram_code	000000a8 rf_set_chn
20006ff4 g     F .text	0000015a sinf
2000a840 g       .text	00000000 .hidden __riscv_save_2
00002e10 g       .ram_code	00000000 _RAMCODE_VMA_END
2000761c  w    F .text	00000024 riscv_cfft_init_1024_f32
200065e0 g     F .text	00000050 i2c_slave_write
20004c08 g     F .text	00000030 audio_pause_out_path
20006684 g     F .text	00000128 pwm_set_pin
0000145c g     F .ram_code	00000072 flash_set_xip_config_sram
20004aa0 g     F .text	00000038 audio_rx_dma_chain_init
00000000  w      *ABS*	00000000 _ITB_BASE_
20006c30  w    F .text	00000004 mtime_irq_handler
2000a826 g       .text	00000000 .hidden __riscv_save_5
200033fc  w      .text	00000000 entry_irq19
2000ab3c g     O .rodata	00000010 riscv_cfft_sR_f32_len1024
00080210 g     O .data	00000004 adc_rx_dma_config
20006c64 g     F .text	0000001e _write
2000ab8c g     O .rodata	00000010 riscv_cfft_sR_f32_len32
00081e30 g       .sdk_version	00000000 _end
200033fc  w      .text	00000000 entry_irq17
20006598 g     F .text	00000048 i2c_slave_read
200036d4 g     F .text	0000000c adc_set_gpio_calib_vref
20005628 g     F .text	000000b8 gpio_input_dis
00081df0 g     O .bss	00000014 g_audio_rx_dma_list_cfg
200033fc  w      .text	00000000 entry_irq9
20005f94 g     F .text	00000018 i2c_master_send_stop
20002f70 g     F .text	00000148 user_init
20003c30 g     F .text	0000001c audio_set_codec_out_path_a_d_gain
200033fc  w      .text	00000000 entry_irq56
20005300 g     F .text	00000010 flash_page_program
200033fc  w      .text	00000000 entry_irq35
20006630 g     F .text	00000028 i2c_set_tx_dma_config
200033fc  w      .text	00000000 entry_irq37
00080224 g     O .data	00000007 audio_i2s_32k_config
000001e8 g     O .retention_data	00000004 g_pm_mspi_cfg
00000d3c g     F .ram_code	00000078 clock_cal_24m_rc
20003e48 g     F .text	0000004c audio_codec_active
0008026c g     O .data	00000004 config_write_buff
200033fc  w      .text	00000000 entry_irq54
200033fc  w      .text	00000000 entry_irq40
00001a60 g     F .ram_code	000000e0 flash_enter_test_mode
20006400 g     F .text	000000b0 i2c_master_read_dma
20005158 g     F .text	00000028 flash_4read
200075f4  w    F .text	00000026 riscv_cfft_init_2048_f32
0008022c g     O .data	00000007 audio_i2s_24k_config
2001c084 g     O .rodata	00002000 twiddleCoef_1024
00002c34 g     F .ram_code	00000058 plic_exit_critical_sec
20005458 g     F .text	00000028 flash_erase_otp
000802f8 g     O .sbss	00000004 g_chip_version
20004cf0 g     F .text	00000070 audio_codec_dac_power_on
000008dc g     F .ram_code	00000050 analog_read_reg16
2000a84c g       .text	00000000 .hidden __riscv_restore_12
00000200 g       .ram_code	00000000 _RAMCODE_VMA_START
2000a840 g       .text	00000000 .hidden __riscv_save_0
20006828 g     F .text	00000028 pwm_ir_dma_mode_start
20004d60 g     F .text	0000007c audio_codec_adc_power_down
200076d0  w    F .text	00000024 riscv_cfft_init_32_f32
20004ad8 g     F .text	00000038 audio_tx_dma_chain_init
20009c20 g     F .text	0000005e strlen
20003ae8 g     F .text	0000004c adc_get_code_dma
00002cec g     F .ram_code	00000040 rf_set_rxmode
00080024 g     O .data	00000023 audio_i2s_44k1_config
2000e8ec g     O .rodata	00000e10 riscvBitRevIndexTable1024
200049b4 g     F .text	000000ec audio_init_i2c
200033fc  w      .text	00000000 entry_irq29
000802d8 g     O .sbss	00000002 audio_i2s_invert_config
00081dd6 g     O .bss	00000001 adc_dma_chn
20007e38  w    F .text	000005d8 riscv_radix8_butterfly_f32
20006308 g     F .text	00000058 i2c_master_write_read
2000a864 g       .text	00000000 .hidden __riscv_restore_1
20005274 g     F .text	00000028 flash_erase_sector
20003564 g     F .text	00000018 adc_stop_sample_dma
00002d2c g     F .ram_code	0000003c rf_start_stx
000801b4 g     O .data	00000010 config_addr
20003e94 g     F .text	00000034 audio_codec_set_micbias
200033fc  w      .text	00000000 entry_irq7
00080254 g     O .data	00000001 g_i2c_stop_en
20004338 g     F .text	00000060 audio_tx_dma_add_list_element
20004260 g     F .text	000000d8 audio_tx_dma_config
00001548 g     F .ram_code	00000134 spi_set_tx_dma
20006c38  w    F .text	0000002c except_handler
200033fc  w      .text	00000000 entry_irq32
00000000 g     F .retention_reset	00000000 _IRESET_ENTRY
20006b3c g     F .text	000000d6 user_read_flash_value_calib
200033fc  w      .text	00000000 entry_irq18
00002c8c g     F .ram_code	00000060 plic_enter_critical_sec
00080214 g     O .data	00000007 audio_i2s_adc_16k_dac_48k_config
2000a1c4 g     F .text	0000001e __int_to_poly
200033fc  w      .text	00000000 entry_irq25
20007718 g     F .text	00000076 riscv_cfft_init_f32



Disassembly of section .vectors:

20000000 <_RESET_ENTRY>:
20000000:	a025                	c.j	20000028 <_START>
	...
20000016:	0000                	unimp
20000018:	055a                	c.slli	a0,0x16
2000001a:	0002                	c.slli64	zero
2000001c:	0000                	unimp
2000001e:	0000                	unimp
20000020:	544c4e4b          	fnmsub.h	ft8,fs8,ft4,fa0,rmm
20000024:	0000                	unimp
20000026:	          	sllw	a4,zero,zero

20000028 <_START>:
20000028:	e0080197          	auipc	gp,0xe0080
2000002c:	7d818193          	addi	gp,gp,2008 # 80800 <__global_pointer$>
20000030:	801002b7          	lui	t0,0x80100
20000034:	70028293          	addi	t0,t0,1792 # 80100700 <_DATA_LMA_START+0x600e0440>
20000038:	04000313          	li	t1,64
2000003c:	506280a3          	sb	t1,1281(t0)
20000040:	e00a0297          	auipc	t0,0xe00a0
20000044:	fc028293          	addi	t0,t0,-64 # a0000 <_STACK_TOP>
20000048:	8116                	c.mv	sp,t0
2000004a:	e0000297          	auipc	t0,0xe0000
2000004e:	fb628293          	addi	t0,t0,-74 # 0 <_ITB_BASE_>
20000052:	80029073          	csrw	uitb,t0
20000056:	6299                	c.lui	t0,0x6
20000058:	3002a2f3          	csrrs	t0,mstatus,t0
2000005c:	00301073          	fssr	zero
20000060:	e0000297          	auipc	t0,0xe0000
20000064:	1a028293          	addi	t0,t0,416 # 200 <_RAMCODE_VMA_START>
20000068:	30529073          	csrw	mtvec,t0
2000006c:	7d016073          	csrsi	mmisc_ctl,2
20000070:	e40002b7          	lui	t0,0xe4000
20000074:	4309                	c.li	t1,2
20000076:	0062a023          	sw	t1,0(t0) # e4000000 <_DATA_LMA_START+0xc3fdfd40>
2000007a:	7ca022f3          	csrr	t0,mcache_ctl
2000007e:	0012e293          	ori	t0,t0,1
20000082:	0022e293          	ori	t0,t0,2
20000086:	7ca29073          	csrw	mcache_ctl,t0
2000008a:	0000100f          	fence.i

2000008e <_RETENTION_RESET_INIT>:
2000008e:	00000317          	auipc	t1,0x0
20000092:	10230313          	addi	t1,t1,258 # 20000190 <_RETENTION_RESET_LMA_START>
20000096:	e0000397          	auipc	t2,0xe0000
2000009a:	f6a38393          	addi	t2,t2,-150 # 0 <_ITB_BASE_>
2000009e:	e0000e17          	auipc	t3,0xe0000
200000a2:	0b6e0e13          	addi	t3,t3,182 # 154 <_RETENTION_RESET_VMA_END>

200000a6 <_RETENTION_RESET_BEGIN>:
200000a6:	01c3f963          	bgeu	t2,t3,200000b8 <_RETENTION_DATA_INIT>
200000aa:	00032283          	lw	t0,0(t1)
200000ae:	0053a023          	sw	t0,0(t2)
200000b2:	0311                	c.addi	t1,4
200000b4:	0391                	c.addi	t2,4
200000b6:	bfc5                	c.j	200000a6 <_RETENTION_RESET_BEGIN>

200000b8 <_RETENTION_DATA_INIT>:
200000b8:	00000317          	auipc	t1,0x0
200000bc:	23030313          	addi	t1,t1,560 # 200002e8 <_RETENTION_DATA_LMA_START>
200000c0:	17800393          	li	t2,376
200000c4:	e0000e17          	auipc	t3,0xe0000
200000c8:	128e0e13          	addi	t3,t3,296 # 1ec <_RETENTION_DATA_VMA_END>

200000cc <_RETENTION_DATA_INIT_BEGIN>:
200000cc:	01c3f963          	bgeu	t2,t3,200000de <_RAMCODE_INIT>
200000d0:	00032283          	lw	t0,0(t1)
200000d4:	0053a023          	sw	t0,0(t2)
200000d8:	0311                	c.addi	t1,4
200000da:	0391                	c.addi	t2,4
200000dc:	bfc5                	c.j	200000cc <_RETENTION_DATA_INIT_BEGIN>

200000de <_RAMCODE_INIT>:
200000de:	00000317          	auipc	t1,0x0
200000e2:	28230313          	addi	t1,t1,642 # 20000360 <_RAMCODE_LMA_START>
200000e6:	e0000397          	auipc	t2,0xe0000
200000ea:	11a38393          	addi	t2,t2,282 # 200 <_RAMCODE_VMA_START>
200000ee:	e0003e17          	auipc	t3,0xe0003
200000f2:	d22e0e13          	addi	t3,t3,-734 # 2e10 <_RAMCODE_VMA_END>

200000f6 <_RAMCODE_INIT_BEGIN>:
200000f6:	01c3f963          	bgeu	t2,t3,20000108 <_DATA_INIT>
200000fa:	00032283          	lw	t0,0(t1)
200000fe:	0053a023          	sw	t0,0(t2)
20000102:	0311                	c.addi	t1,4
20000104:	0391                	c.addi	t2,4
20000106:	bfc5                	c.j	200000f6 <_RAMCODE_INIT_BEGIN>

20000108 <_DATA_INIT>:
20000108:	00020317          	auipc	t1,0x20
2000010c:	1b830313          	addi	t1,t1,440 # 200202c0 <_DATA_LMA_START>
20000110:	e0080397          	auipc	t2,0xe0080
20000114:	ef038393          	addi	t2,t2,-272 # 80000 <audio_i2s_48k_config>
20000118:	e0080e17          	auipc	t3,0xe0080
2000011c:	160e0e13          	addi	t3,t3,352 # 80278 <_DATA_VMA_END>

20000120 <_DATA_INIT_BEGIN>:
20000120:	01c3f963          	bgeu	t2,t3,20000132 <_ZERO_BSS>
20000124:	00032283          	lw	t0,0(t1)
20000128:	0053a023          	sw	t0,0(t2)
2000012c:	0311                	c.addi	t1,4
2000012e:	0391                	c.addi	t2,4
20000130:	bfc5                	c.j	20000120 <_DATA_INIT_BEGIN>

20000132 <_ZERO_BSS>:
20000132:	000002b7          	lui	t0,0x0
20000136:	e0080397          	auipc	t2,0xe0080
2000013a:	14238393          	addi	t2,t2,322 # 80278 <_DATA_VMA_END>
2000013e:	e0082e17          	auipc	t3,0xe0082
20000142:	ccae0e13          	addi	t3,t3,-822 # 81e08 <_BSS_VMA_END>

20000146 <_ZERO_BSS_BEGIN>:
20000146:	01c3f663          	bgeu	t2,t3,20000152 <_ZERO_AES>
2000014a:	0053a023          	sw	t0,0(t2)
2000014e:	0391                	c.addi	t2,4
20000150:	bfdd                	c.j	20000146 <_ZERO_BSS_BEGIN>

20000152 <_ZERO_AES>:
20000152:	000002b7          	lui	t0,0x0
20000156:	e0000397          	auipc	t2,0xe0000
2000015a:	00238393          	addi	t2,t2,2 # 158 <aes_data_buff>
2000015e:	e0000e17          	auipc	t3,0xe0000
20000162:	01ae0e13          	addi	t3,t3,26 # 178 <_AES_VMA_END>

20000166 <_ZERO_AES_BEGIN>:
20000166:	01c3f663          	bgeu	t2,t3,20000172 <_FILL_STK>
2000016a:	0053a023          	sw	t0,0(t2)
2000016e:	0391                	c.addi	t2,4
20000170:	bfdd                	c.j	20000166 <_ZERO_AES_BEGIN>

20000172 <_FILL_STK>:
20000172:	0001                	c.nop
20000174:	00003297          	auipc	t0,0x3
20000178:	f4828293          	addi	t0,t0,-184 # 200030bc <main>
2000017c:	9282                	c.jalr	t0
2000017e:	0001                	c.nop
20000180:	0001                	c.nop
20000182:	0001                	c.nop
20000184:	0001                	c.nop
20000186:	0001                	c.nop

20000188 <_END>:
20000188:	a001                	c.j	20000188 <_END>

Disassembly of section .retention_reset:

00000000 <_IRESET_ENTRY>:
   0:	a00d                	c.j	22 <_ISTART>
	...

00000022 <_ISTART>:
  22:	00080197          	auipc	gp,0x80
  26:	7de18193          	addi	gp,gp,2014 # 80800 <__global_pointer$>

0000002a <_ISWS_USB_DIS>:
  2a:	801002b7          	lui	t0,0x80100
  2e:	70028293          	addi	t0,t0,1792 # 80100700 <_DATA_LMA_START+0x600e0440>
  32:	04000313          	li	t1,64
  36:	506280a3          	sb	t1,1281(t0)
  3a:	000a0297          	auipc	t0,0xa0
  3e:	fc628293          	addi	t0,t0,-58 # a0000 <_STACK_TOP>
  42:	8116                	c.mv	sp,t0
  44:	00000297          	auipc	t0,0x0
  48:	fbc28293          	addi	t0,t0,-68 # 0 <_IRESET_ENTRY>
  4c:	80029073          	csrw	uitb,t0
  50:	6299                	c.lui	t0,0x6
  52:	3002a2f3          	csrrs	t0,mstatus,t0
  56:	00301073          	fssr	zero
  5a:	00000297          	auipc	t0,0x0
  5e:	1a628293          	addi	t0,t0,422 # 200 <_RAMCODE_VMA_START>
  62:	30529073          	csrw	mtvec,t0
  66:	7d016073          	csrsi	mmisc_ctl,2
  6a:	e40002b7          	lui	t0,0xe4000
  6e:	4309                	c.li	t1,2
  70:	0062a023          	sw	t1,0(t0) # e4000000 <_DATA_LMA_START+0xc3fdfd40>
  74:	7ca022f3          	csrr	t0,mcache_ctl
  78:	0012e293          	ori	t0,t0,1
  7c:	0022e293          	ori	t0,t0,2
  80:	7ca29073          	csrw	mcache_ctl,t0
  84:	0000100f          	fence.i

00000088 <_WAKEUP_FLASH>:
  88:	801402b7          	lui	t0,0x80140
  8c:	0ff00313          	li	t1,255
  90:	4381                	c.li	t2,0
  92:	0ab00e13          	li	t3,171
  96:	326284a3          	sb	t1,809(t0) # 80140329 <_DATA_LMA_START+0x60120069>
  9a:	107280a3          	sb	t2,257(t0)
  9e:	11c28023          	sb	t3,256(t0)

000000a2 <_MSPI_WAIT>:
  a2:	801402b7          	lui	t0,0x80140
  a6:	10228383          	lb	t2,258(t0) # 80140102 <_DATA_LMA_START+0x6011fe42>
  aa:	4e05                	c.li	t3,1
  ac:	4ec1                	c.li	t4,16
  ae:	fe7e0ae3          	beq	t3,t2,a2 <_MSPI_WAIT>
  b2:	11d280a3          	sb	t4,257(t0)
  b6:	4281                	c.li	t0,0
  b8:	14000313          	li	t1,320

000000bc <_WAIT_EFUSE_LOAD_AND_FLASH_WAKEUP_FINISH>:
  bc:	0285                	c.addi	t0,1
  be:	fe537fe3          	bgeu	t1,t0,bc <_WAIT_EFUSE_LOAD_AND_FLASH_WAKEUP_FINISH>

000000c2 <_MULTI_ADDRESS_BEGIN>:
  c2:	801402b7          	lui	t0,0x80140
  c6:	1e800313          	li	t1,488
  ca:	00032383          	lw	t2,0(t1)
  ce:	1072a223          	sw	t2,260(t0) # 80140104 <_DATA_LMA_START+0x6011fe44>

000000d2 <_IZERO_BSS>:
  d2:	000002b7          	lui	t0,0x0
  d6:	00080397          	auipc	t2,0x80
  da:	1a238393          	addi	t2,t2,418 # 80278 <_DATA_VMA_END>
  de:	00082e17          	auipc	t3,0x82
  e2:	d2ae0e13          	addi	t3,t3,-726 # 81e08 <_BSS_VMA_END>

000000e6 <_IZERO_BSS_BEGIN>:
  e6:	01c3f663          	bgeu	t2,t3,f2 <_IZERO_AES>
  ea:	0053a023          	sw	t0,0(t2)
  ee:	0391                	c.addi	t2,4
  f0:	bfdd                	c.j	e6 <_IZERO_BSS_BEGIN>

000000f2 <_IZERO_AES>:
  f2:	000002b7          	lui	t0,0x0
  f6:	00000397          	auipc	t2,0x0
  fa:	06238393          	addi	t2,t2,98 # 158 <aes_data_buff>
  fe:	00000e17          	auipc	t3,0x0
 102:	07ae0e13          	addi	t3,t3,122 # 178 <_AES_VMA_END>

00000106 <_IZERO_AES_BEGIN>:
 106:	01c3f663          	bgeu	t2,t3,112 <_IDATA_INIT>
 10a:	0053a023          	sw	t0,0(t2)
 10e:	0391                	c.addi	t2,4
 110:	bfdd                	c.j	106 <_IZERO_AES_BEGIN>

00000112 <_IDATA_INIT>:
 112:	20020317          	auipc	t1,0x20020
 116:	1ae30313          	addi	t1,t1,430 # 200202c0 <_DATA_LMA_START>
 11a:	00080397          	auipc	t2,0x80
 11e:	ee638393          	addi	t2,t2,-282 # 80000 <audio_i2s_48k_config>
 122:	00080e17          	auipc	t3,0x80
 126:	156e0e13          	addi	t3,t3,342 # 80278 <_DATA_VMA_END>

0000012a <_IDATA_INIT_BEGIN>:
 12a:	01c3f963          	bgeu	t2,t3,13c <_IMAIN_FUNC>
 12e:	00032283          	lw	t0,0(t1)
 132:	0053a023          	sw	t0,0(t2)
 136:	0311                	c.addi	t1,4
 138:	0391                	c.addi	t2,4
 13a:	bfc5                	c.j	12a <_IDATA_INIT_BEGIN>

0000013c <_IMAIN_FUNC>:
 13c:	0001                	c.nop
 13e:	20003297          	auipc	t0,0x20003
 142:	f7e28293          	addi	t0,t0,-130 # 200030bc <main>
 146:	9282                	c.jalr	t0
 148:	0001                	c.nop
 14a:	0001                	c.nop
 14c:	0001                	c.nop
 14e:	0001                	c.nop
 150:	0001                	c.nop

00000152 <_IEND>:
 152:	a001                	c.j	152 <_IEND>

Disassembly of section .ram_code:

00000200 <_RAMCODE_VMA_START>:
     200:	1874                	c.addi4spn	a3,sp,60
     202:	0000                	unimp
     204:	33fc                	c.fld	fa5,224(a5)
     206:	2000                	c.fld	fs0,0(s0)
     208:	33fc                	c.fld	fa5,224(a5)
     20a:	2000                	c.fld	fs0,0(s0)
     20c:	33fc                	c.fld	fa5,224(a5)
     20e:	2000                	c.fld	fs0,0(s0)
     210:	33fc                	c.fld	fa5,224(a5)
     212:	2000                	c.fld	fs0,0(s0)
     214:	33fc                	c.fld	fa5,224(a5)
     216:	2000                	c.fld	fs0,0(s0)
     218:	33fc                	c.fld	fa5,224(a5)
     21a:	2000                	c.fld	fs0,0(s0)
     21c:	33fc                	c.fld	fa5,224(a5)
     21e:	2000                	c.fld	fs0,0(s0)
     220:	33fc                	c.fld	fa5,224(a5)
     222:	2000                	c.fld	fs0,0(s0)
     224:	33fc                	c.fld	fa5,224(a5)
     226:	2000                	c.fld	fs0,0(s0)
     228:	33fc                	c.fld	fa5,224(a5)
     22a:	2000                	c.fld	fs0,0(s0)
     22c:	33fc                	c.fld	fa5,224(a5)
     22e:	2000                	c.fld	fs0,0(s0)
     230:	33fc                	c.fld	fa5,224(a5)
     232:	2000                	c.fld	fs0,0(s0)
     234:	33fc                	c.fld	fa5,224(a5)
     236:	2000                	c.fld	fs0,0(s0)
     238:	33fc                	c.fld	fa5,224(a5)
     23a:	2000                	c.fld	fs0,0(s0)
     23c:	33fc                	c.fld	fa5,224(a5)
     23e:	2000                	c.fld	fs0,0(s0)
     240:	33fc                	c.fld	fa5,224(a5)
     242:	2000                	c.fld	fs0,0(s0)
     244:	33fc                	c.fld	fa5,224(a5)
     246:	2000                	c.fld	fs0,0(s0)
     248:	33fc                	c.fld	fa5,224(a5)
     24a:	2000                	c.fld	fs0,0(s0)
     24c:	33fc                	c.fld	fa5,224(a5)
     24e:	2000                	c.fld	fs0,0(s0)
     250:	33fc                	c.fld	fa5,224(a5)
     252:	2000                	c.fld	fs0,0(s0)
     254:	33fc                	c.fld	fa5,224(a5)
     256:	2000                	c.fld	fs0,0(s0)
     258:	33fc                	c.fld	fa5,224(a5)
     25a:	2000                	c.fld	fs0,0(s0)
     25c:	33fc                	c.fld	fa5,224(a5)
     25e:	2000                	c.fld	fs0,0(s0)
     260:	33fc                	c.fld	fa5,224(a5)
     262:	2000                	c.fld	fs0,0(s0)
     264:	33fc                	c.fld	fa5,224(a5)
     266:	2000                	c.fld	fs0,0(s0)
     268:	33fc                	c.fld	fa5,224(a5)
     26a:	2000                	c.fld	fs0,0(s0)
     26c:	33fc                	c.fld	fa5,224(a5)
     26e:	2000                	c.fld	fs0,0(s0)
     270:	33fc                	c.fld	fa5,224(a5)
     272:	2000                	c.fld	fs0,0(s0)
     274:	33fc                	c.fld	fa5,224(a5)
     276:	2000                	c.fld	fs0,0(s0)
     278:	33fc                	c.fld	fa5,224(a5)
     27a:	2000                	c.fld	fs0,0(s0)
     27c:	33fc                	c.fld	fa5,224(a5)
     27e:	2000                	c.fld	fs0,0(s0)
     280:	33fc                	c.fld	fa5,224(a5)
     282:	2000                	c.fld	fs0,0(s0)
     284:	33fc                	c.fld	fa5,224(a5)
     286:	2000                	c.fld	fs0,0(s0)
     288:	33fc                	c.fld	fa5,224(a5)
     28a:	2000                	c.fld	fs0,0(s0)
     28c:	33fc                	c.fld	fa5,224(a5)
     28e:	2000                	c.fld	fs0,0(s0)
     290:	33fc                	c.fld	fa5,224(a5)
     292:	2000                	c.fld	fs0,0(s0)
     294:	33fc                	c.fld	fa5,224(a5)
     296:	2000                	c.fld	fs0,0(s0)
     298:	33fc                	c.fld	fa5,224(a5)
     29a:	2000                	c.fld	fs0,0(s0)
     29c:	33fc                	c.fld	fa5,224(a5)
     29e:	2000                	c.fld	fs0,0(s0)
     2a0:	33fc                	c.fld	fa5,224(a5)
     2a2:	2000                	c.fld	fs0,0(s0)
     2a4:	33fc                	c.fld	fa5,224(a5)
     2a6:	2000                	c.fld	fs0,0(s0)
     2a8:	33fc                	c.fld	fa5,224(a5)
     2aa:	2000                	c.fld	fs0,0(s0)
     2ac:	33fc                	c.fld	fa5,224(a5)
     2ae:	2000                	c.fld	fs0,0(s0)
     2b0:	33fc                	c.fld	fa5,224(a5)
     2b2:	2000                	c.fld	fs0,0(s0)
     2b4:	33fc                	c.fld	fa5,224(a5)
     2b6:	2000                	c.fld	fs0,0(s0)
     2b8:	33fc                	c.fld	fa5,224(a5)
     2ba:	2000                	c.fld	fs0,0(s0)
     2bc:	33fc                	c.fld	fa5,224(a5)
     2be:	2000                	c.fld	fs0,0(s0)
     2c0:	33fc                	c.fld	fa5,224(a5)
     2c2:	2000                	c.fld	fs0,0(s0)
     2c4:	33fc                	c.fld	fa5,224(a5)
     2c6:	2000                	c.fld	fs0,0(s0)
     2c8:	33fc                	c.fld	fa5,224(a5)
     2ca:	2000                	c.fld	fs0,0(s0)
     2cc:	33fc                	c.fld	fa5,224(a5)
     2ce:	2000                	c.fld	fs0,0(s0)
     2d0:	33fc                	c.fld	fa5,224(a5)
     2d2:	2000                	c.fld	fs0,0(s0)
     2d4:	33fc                	c.fld	fa5,224(a5)
     2d6:	2000                	c.fld	fs0,0(s0)
     2d8:	33fc                	c.fld	fa5,224(a5)
     2da:	2000                	c.fld	fs0,0(s0)
     2dc:	33fc                	c.fld	fa5,224(a5)
     2de:	2000                	c.fld	fs0,0(s0)
     2e0:	33fc                	c.fld	fa5,224(a5)
     2e2:	2000                	c.fld	fs0,0(s0)
     2e4:	33fc                	c.fld	fa5,224(a5)
     2e6:	2000                	c.fld	fs0,0(s0)
     2e8:	33fc                	c.fld	fa5,224(a5)
     2ea:	2000                	c.fld	fs0,0(s0)
     2ec:	33fc                	c.fld	fa5,224(a5)
     2ee:	2000                	c.fld	fs0,0(s0)
     2f0:	33fc                	c.fld	fa5,224(a5)
     2f2:	2000                	c.fld	fs0,0(s0)
     2f4:	33fc                	c.fld	fa5,224(a5)
     2f6:	2000                	c.fld	fs0,0(s0)
     2f8:	33fc                	c.fld	fa5,224(a5)
     2fa:	2000                	c.fld	fs0,0(s0)
     2fc:	33fc                	c.fld	fa5,224(a5)
     2fe:	2000                	c.fld	fs0,0(s0)
     300:	0001                	c.nop
	...

00000304 <usb_send_status_pkt>:
     304:	ac3fa72b          	lwgp	a4,-1344 # 802c0 <myudb_fifo>
     308:	00674783          	lbu	a5,6(a4)
     30c:	00774803          	lbu	a6,7(a4)
     310:	410787b3          	sub	a5,a5,a6
     314:	0ff7f793          	andi	a5,a5,255
     318:	00475703          	lhu	a4,4(a4)
     31c:	08e7d663          	bge	a5,a4,3a8 <usb_send_status_pkt+0xa4>
     320:	30002873          	csrr	a6,mstatus
     324:	00887813          	andi	a6,a6,8
     328:	00080663          	beqz	a6,334 <usb_send_status_pkt+0x30>
     32c:	300477f3          	csrrci	a5,mstatus,8
     330:	0ff0000f          	fence
     334:	ac3fa72b          	lwgp	a4,-1344 # 802c0 <myudb_fifo>
     338:	471c                	c.lw	a5,8(a4)
     33a:	00674883          	lbu	a7,6(a4)
     33e:	00188313          	addi	t1,a7,1
     342:	00670323          	sb	t1,6(a4)
     346:	00475303          	lhu	t1,4(a4)
     34a:	137d                	c.addi	t1,-1
     34c:	0068f8b3          	and	a7,a7,t1
     350:	00072703          	lw	a4,0(a4)
     354:	c4e897ff          	maddr32	a5,a7,a4
     358:	11000713          	li	a4,272
     35c:	00d77463          	bgeu	a4,a3,364 <usb_send_status_pkt+0x60>
     360:	11000693          	li	a3,272
     364:	00268713          	addi	a4,a3,2
     368:	00e78023          	sb	a4,0(a5)
     36c:	8721                	c.srai	a4,0x8
     36e:	00e780a3          	sb	a4,1(a5)
     372:	00a78223          	sb	a0,4(a5)
     376:	00678713          	addi	a4,a5,6
     37a:	00b782a3          	sb	a1,5(a5)
     37e:	a809                	c.j	390 <usb_send_status_pkt+0x8c>
     380:	00064683          	lbu	a3,0(a2)
     384:	00d70023          	sb	a3,0(a4)
     388:	0705                	c.addi	a4,1
     38a:	86be                	c.mv	a3,a5
     38c:	00160613          	addi	a2,a2,1
     390:	fff68793          	addi	a5,a3,-1
     394:	3c07a7db          	bfoz	a5,a5,15,0
     398:	fe0694e3          	bnez	a3,380 <usb_send_status_pkt+0x7c>
     39c:	00080663          	beqz	a6,3a8 <usb_send_status_pkt+0xa4>
     3a0:	30082873          	csrrs	a6,mstatus,a6
     3a4:	0ff0000f          	fence
     3a8:	00008067          	ret

000003ac <myudb_to_usb>:
     3ac:	801017b7          	lui	a5,0x80101
     3b0:	82378783          	lb	a5,-2013(a5) # 80100823 <_DATA_LMA_START+0x600e0563>
     3b4:	4c07f05b          	bbs	a5,0,474 <myudb_to_usb+0xc8>
     3b8:	abbfa7ab          	lwgp	a5,-1352 # 802b8 <p.8427>
     3bc:	02078a63          	beqz	a5,3f0 <myudb_to_usb+0x44>
     3c0:	abbfa7ab          	lwgp	a5,-1352 # 802b8 <p.8427>
     3c4:	0a078863          	beqz	a5,474 <myudb_to_usb+0xc8>
     3c8:	ab5f97ab          	lhgp	a5,-1356 # 802b4 <len.8426>
     3cc:	3c07a6db          	bfoz	a3,a5,15,0
     3d0:	04000713          	li	a4,64
     3d4:	00d77463          	bgeu	a4,a3,3dc <myudb_to_usb+0x30>
     3d8:	04000793          	li	a5,64
     3dc:	3c07a55b          	bfoz	a0,a5,15,0
     3e0:	85aa                	c.mv	a1,a0
     3e2:	801017b7          	lui	a5,0x80101
     3e6:	800789a3          	sb	zero,-2029(a5) # 80100813 <_DATA_LMA_START+0x600e0553>
     3ea:	4781                	c.li	a5,0
     3ec:	0640006f          	j	450 <myudb_to_usb+0xa4>
     3f0:	ac3fa7ab          	lwgp	a5,-1344 # 802c0 <myudb_fifo>
     3f4:	0067c703          	lbu	a4,6(a5)
     3f8:	0077c683          	lbu	a3,7(a5)
     3fc:	fcd702e3          	beq	a4,a3,3c0 <myudb_to_usb+0x14>
     400:	4798                	c.lw	a4,8(a5)
     402:	00168613          	addi	a2,a3,1
     406:	00c783a3          	sb	a2,7(a5)
     40a:	0047d603          	lhu	a2,4(a5)
     40e:	167d                	c.addi	a2,-1
     410:	8ef1                	c.and	a3,a2
     412:	439c                	c.lw	a5,0(a5)
     414:	c4f6977f          	maddr32	a4,a3,a5
     418:	87ba                	c.mv	a5,a4
     41a:	00074703          	lbu	a4,0(a4)
     41e:	0017c683          	lbu	a3,1(a5)
     422:	06a2                	c.slli	a3,0x8
     424:	9736                	c.add	a4,a3
     426:	aaef8aab          	shgp	a4,-1356 # 802b4 <len.8426>
     42a:	0791                	c.addi	a5,4
     42c:	aaffcdab          	swgp	a5,-1352 # 802b8 <p.8427>
     430:	f91ff06f          	j	3c0 <myudb_to_usb+0x14>
     434:	abbfa72b          	lwgp	a4,-1352 # 802b8 <p.8427>
     438:	00170613          	addi	a2,a4,1
     43c:	aacfcdab          	swgp	a2,-1352 # 802b8 <p.8427>
     440:	00074683          	lbu	a3,0(a4)
     444:	80101737          	lui	a4,0x80101
     448:	80d70da3          	sb	a3,-2021(a4) # 8010081b <_DATA_LMA_START+0x600e055b>
     44c:	00178793          	addi	a5,a5,1
     450:	feb7c2e3          	blt	a5,a1,434 <myudb_to_usb+0x88>
     454:	801017b7          	lui	a5,0x80101
     458:	4705                	c.li	a4,1
     45a:	82e781a3          	sb	a4,-2013(a5) # 80100823 <_DATA_LMA_START+0x600e0563>
     45e:	ab5f97ab          	lhgp	a5,-1356 # 802b4 <len.8426>
     462:	8f89                	c.sub	a5,a0
     464:	aaff8aab          	shgp	a5,-1356 # 802b4 <len.8426>
     468:	03f00793          	li	a5,63
     46c:	00b7c463          	blt	a5,a1,474 <myudb_to_usb+0xc8>
     470:	aa0fcdab          	swgp	zero,-1352 # 802b8 <p.8427>
     474:	00008067          	ret

00000478 <myudb_usb_get_packet>:
     478:	801017b7          	lui	a5,0x80101
     47c:	83978783          	lb	a5,-1991(a5) # 80100839 <_DATA_LMA_START+0x600e0579>
     480:	0457fe5b          	bbc	a5,5,4dc <myudb_usb_get_packet+0x64>
     484:	801017b7          	lui	a5,0x80101
     488:	02000713          	li	a4,32
     48c:	82e78ca3          	sb	a4,-1991(a5) # 80100839 <_DATA_LMA_START+0x600e0579>
     490:	81578583          	lb	a1,-2027(a5)
     494:	0ff5f593          	andi	a1,a1,255
     498:	80078aa3          	sb	zero,-2027(a5)
     49c:	4701                	c.li	a4,0
     49e:	a839                	c.j	4bc <myudb_usb_get_packet+0x44>
     4a0:	ab3fa7ab          	lwgp	a5,-1360 # 802b0 <len.8436>
     4a4:	00178613          	addi	a2,a5,1
     4a8:	aacfc9ab          	swgp	a2,-1360 # 802b0 <len.8436>
     4ac:	97aa                	c.add	a5,a0
     4ae:	801016b7          	lui	a3,0x80101
     4b2:	81d68683          	lb	a3,-2019(a3) # 8010081d <_DATA_LMA_START+0x600e055d>
     4b6:	00d78023          	sb	a3,0(a5)
     4ba:	0705                	c.addi	a4,1
     4bc:	feb742e3          	blt	a4,a1,4a0 <myudb_usb_get_packet+0x28>
     4c0:	801017b7          	lui	a5,0x80101
     4c4:	4705                	c.li	a4,1
     4c6:	82e782a3          	sb	a4,-2011(a5) # 80100825 <_DATA_LMA_START+0x600e0565>
     4ca:	03f00793          	li	a5,63
     4ce:	00b7c963          	blt	a5,a1,4e0 <myudb_usb_get_packet+0x68>
     4d2:	ab3fa52b          	lwgp	a0,-1360 # 802b0 <len.8436>
     4d6:	aa0fc9ab          	swgp	zero,-1360 # 802b0 <len.8436>
     4da:	8082                	c.jr	ra
     4dc:	4501                	c.li	a0,0
     4de:	8082                	c.jr	ra
     4e0:	4501                	c.li	a0,0
     4e2:	8082                	c.jr	ra

000004e4 <myudb_mem_cmd>:
     4e4:	7129                	c.addi16sp	sp,-320
     4e6:	12112e23          	sw	ra,316(sp)
     4ea:	12812c23          	sw	s0,312(sp)
     4ee:	12912a23          	sw	s1,308(sp)
     4f2:	13212823          	sw	s2,304(sp)
     4f6:	13312623          	sw	s3,300(sp)
     4fa:	842a                	c.mv	s0,a0
     4fc:	00b004b3          	add	s1,zero,a1
     500:	00054783          	lbu	a5,0(a0)
     504:	0287d4db          	beqc	a5,40,52c <myudb_mem_cmd+0x48>
     508:	0ea7dedb          	beqc	a5,42,604 <myudb_mem_cmd+0x120>
     50c:	00100913          	li	s2,1
     510:	854a                	c.mv	a0,s2
     512:	13c12083          	lw	ra,316(sp)
     516:	13812403          	lw	s0,312(sp)
     51a:	13412483          	lw	s1,308(sp)
     51e:	13012903          	lw	s2,304(sp)
     522:	12c12983          	lw	s3,300(sp)
     526:	6131                	c.addi16sp	sp,320
     528:	00008067          	ret
     52c:	471d                	c.li	a4,7
     52e:	fcb75de3          	bge	a4,a1,508 <myudb_mem_cmd+0x24>
     532:	46b1                	c.li	a3,12
     534:	862a                	c.mv	a2,a0
     536:	45a1                	c.li	a1,8
     538:	08100513          	li	a0,129
     53c:	33e1                	c.jal	304 <usb_send_status_pkt>
     53e:	02900793          	li	a5,41
     542:	00f10423          	sb	a5,8(sp)
     546:	00142783          	lw	a5,1(s0)
     54a:	00f124a3          	sw	a5,9(sp)
     54e:	00540783          	lb	a5,5(s0)
     552:	00f106a3          	sb	a5,13(sp)
     556:	00144703          	lbu	a4,1(s0)
     55a:	863a                	c.mv	a2,a4
     55c:	00244483          	lbu	s1,2(s0)
     560:	00344783          	lbu	a5,3(s0)
     564:	07a2                	c.slli	a5,0x8
     566:	8cdd                	c.or	s1,a5
     568:	00444783          	lbu	a5,4(s0)
     56c:	07c2                	c.slli	a5,0x10
     56e:	8cdd                	c.or	s1,a5
     570:	00544783          	lbu	a5,5(s0)
     574:	07e2                	c.slli	a5,0x18
     576:	8cdd                	c.or	s1,a5
     578:	00644783          	lbu	a5,6(s0)
     57c:	00744683          	lbu	a3,7(s0)
     580:	00869693          	slli	a3,a3,0x8
     584:	00d7e433          	or	s0,a5,a3
     588:	10000793          	li	a5,256
     58c:	0087d463          	bge	a5,s0,594 <myudb_mem_cmd+0xb0>
     590:	10000413          	li	s0,256
     594:	ce05                	c.beqz	a2,5cc <myudb_mem_cmd+0xe8>
     596:	0616555b          	beqc	a2,1,600 <myudb_mem_cmd+0x11c>
     59a:	1779                	c.addi	a4,-2
     59c:	4785                	c.li	a5,1
     59e:	00e7eb63          	bltu	a5,a4,5b4 <myudb_mem_cmd+0xd0>
     5a2:	000007b7          	lui	a5,0x0
     5a6:	18c7a783          	lw	a5,396(a5) # 18c <flash_read_page>
     5aa:	00e10613          	addi	a2,sp,14
     5ae:	85a2                	c.mv	a1,s0
     5b0:	8526                	c.mv	a0,s1
     5b2:	9782                	c.jalr	a5
     5b4:	00640693          	addi	a3,s0,6
     5b8:	3c06a6db          	bfoz	a3,a3,15,0
     5bc:	0030                	c.addi4spn	a2,sp,8
     5be:	45a1                	c.li	a1,8
     5c0:	08200513          	li	a0,130
     5c4:	3381                	c.jal	304 <usb_send_status_pkt>
     5c6:	4901                	c.li	s2,0
     5c8:	f49ff06f          	j	510 <myudb_mem_cmd+0x2c>
     5cc:	8622                	c.mv	a2,s0
     5ce:	85a6                	c.mv	a1,s1
     5d0:	00e10513          	addi	a0,sp,14
     5d4:	20009097          	auipc	ra,0x20009
     5d8:	500080e7          	jalr	1280(ra) # 20009ad4 <memcpy>
     5dc:	fd9ff06f          	j	5b4 <myudb_mem_cmd+0xd0>
     5e0:	00690993          	addi	s3,s2,6
     5e4:	01248533          	add	a0,s1,s2
     5e8:	0ff57513          	andi	a0,a0,255
     5ec:	2ca1                	c.jal	844 <analog_read_reg8>
     5ee:	120c                	c.addi4spn	a1,sp,288
     5f0:	99ae                	c.add	s3,a1
     5f2:	eea98423          	sb	a0,-280(s3)
     5f6:	0905                	c.addi	s2,1
     5f8:	fe8944e3          	blt	s2,s0,5e0 <myudb_mem_cmd+0xfc>
     5fc:	fb9ff06f          	j	5b4 <myudb_mem_cmd+0xd0>
     600:	4901                	c.li	s2,0
     602:	bfdd                	c.j	5f8 <myudb_mem_cmd+0x114>
     604:	4799                	c.li	a5,6
     606:	0097c563          	blt	a5,s1,610 <myudb_mem_cmd+0x12c>
     60a:	4905                	c.li	s2,1
     60c:	f05ff06f          	j	510 <myudb_mem_cmd+0x2c>
     610:	46b1                	c.li	a3,12
     612:	8622                	c.mv	a2,s0
     614:	45a1                	c.li	a1,8
     616:	08100513          	li	a0,129
     61a:	31ed                	c.jal	304 <usb_send_status_pkt>
     61c:	02b00793          	li	a5,43
     620:	00f10423          	sb	a5,8(sp)
     624:	00140603          	lb	a2,1(s0)
     628:	00240683          	lb	a3,2(s0)
     62c:	00340703          	lb	a4,3(s0)
     630:	00c104a3          	sb	a2,9(sp)
     634:	00d10523          	sb	a3,10(sp)
     638:	00e105a3          	sb	a4,11(sp)
     63c:	00440603          	lb	a2,4(s0)
     640:	00540683          	lb	a3,5(s0)
     644:	00640703          	lb	a4,6(s0)
     648:	00c10623          	sb	a2,12(sp)
     64c:	00d106a3          	sb	a3,13(sp)
     650:	00e10723          	sb	a4,14(sp)
     654:	00740603          	lb	a2,7(s0)
     658:	00840683          	lb	a3,8(s0)
     65c:	00940703          	lb	a4,9(s0)
     660:	00c107a3          	sb	a2,15(sp)
     664:	00d10823          	sb	a3,16(sp)
     668:	00e108a3          	sb	a4,17(sp)
     66c:	00a40603          	lb	a2,10(s0)
     670:	00b40683          	lb	a3,11(s0)
     674:	00c40703          	lb	a4,12(s0)
     678:	00c10923          	sb	a2,18(sp)
     67c:	00d109a3          	sb	a3,19(sp)
     680:	00e10a23          	sb	a4,20(sp)
     684:	00d40603          	lb	a2,13(s0)
     688:	00e40683          	lb	a3,14(s0)
     68c:	00f40703          	lb	a4,15(s0)
     690:	00c10aa3          	sb	a2,21(sp)
     694:	00d10b23          	sb	a3,22(sp)
     698:	00e10ba3          	sb	a4,23(sp)
     69c:	01040783          	lb	a5,16(s0)
     6a0:	00f10c23          	sb	a5,24(sp)
     6a4:	00144703          	lbu	a4,1(s0)
     6a8:	00244903          	lbu	s2,2(s0)
     6ac:	00344783          	lbu	a5,3(s0)
     6b0:	07a2                	c.slli	a5,0x8
     6b2:	00f96933          	or	s2,s2,a5
     6b6:	00444783          	lbu	a5,4(s0)
     6ba:	07c2                	c.slli	a5,0x10
     6bc:	00f96933          	or	s2,s2,a5
     6c0:	00544783          	lbu	a5,5(s0)
     6c4:	07e2                	c.slli	a5,0x18
     6c6:	00f96933          	or	s2,s2,a5
     6ca:	89ca                	c.mv	s3,s2
     6cc:	14e9                	c.addi	s1,-6
     6ce:	c71d                	c.beqz	a4,6fc <myudb_mem_cmd+0x218>
     6d0:	0617505b          	beqc	a4,1,730 <myudb_mem_cmd+0x24c>
     6d4:	0627605b          	bnec	a4,2,734 <myudb_mem_cmd+0x250>
     6d8:	000007b7          	lui	a5,0x0
     6dc:	1887a783          	lw	a5,392(a5) # 188 <flash_write_page>
     6e0:	00640613          	addi	a2,s0,6
     6e4:	85a6                	c.mv	a1,s1
     6e6:	854a                	c.mv	a0,s2
     6e8:	9782                	c.jalr	a5
     6ea:	4901                	c.li	s2,0
     6ec:	46b9                	c.li	a3,14
     6ee:	0030                	c.addi4spn	a2,sp,8
     6f0:	45a1                	c.li	a1,8
     6f2:	08200513          	li	a0,130
     6f6:	3139                	c.jal	304 <usb_send_status_pkt>
     6f8:	e19ff06f          	j	510 <myudb_mem_cmd+0x2c>
     6fc:	8626                	c.mv	a2,s1
     6fe:	00640593          	addi	a1,s0,6
     702:	854a                	c.mv	a0,s2
     704:	20009097          	auipc	ra,0x20009
     708:	3d0080e7          	jalr	976(ra) # 20009ad4 <memcpy>
     70c:	4901                	c.li	s2,0
     70e:	bff9                	c.j	6ec <myudb_mem_cmd+0x208>
     710:	00698793          	addi	a5,s3,6
     714:	97a2                	c.add	a5,s0
     716:	01390533          	add	a0,s2,s3
     71a:	0007c583          	lbu	a1,0(a5)
     71e:	0ff57513          	andi	a0,a0,255
     722:	2a8d                	c.jal	894 <analog_write_reg8>
     724:	00198993          	addi	s3,s3,1
     728:	fe99c4e3          	blt	s3,s1,710 <myudb_mem_cmd+0x22c>
     72c:	4901                	c.li	s2,0
     72e:	bf7d                	c.j	6ec <myudb_mem_cmd+0x208>
     730:	4981                	c.li	s3,0
     732:	bfdd                	c.j	728 <myudb_mem_cmd+0x244>
     734:	0037585b          	beqc	a4,3,744 <myudb_mem_cmd+0x260>
     738:	0fe00793          	li	a5,254
     73c:	08f70663          	beq	a4,a5,7c8 <myudb_mem_cmd+0x2e4>
     740:	4901                	c.li	s2,0
     742:	b76d                	c.j	6ec <myudb_mem_cmd+0x208>
     744:	00644903          	lbu	s2,6(s0)
     748:	479d                	c.li	a5,7
     74a:	0097d763          	bge	a5,s1,758 <myudb_mem_cmd+0x274>
     74e:	00744783          	lbu	a5,7(s0)
     752:	07a2                	c.slli	a5,0x8
     754:	00f90933          	add	s2,s2,a5
     758:	47a1                	c.li	a5,8
     75a:	0097d763          	bge	a5,s1,768 <myudb_mem_cmd+0x284>
     75e:	00844783          	lbu	a5,8(s0)
     762:	07c2                	c.slli	a5,0x10
     764:	00f90933          	add	s2,s2,a5
     768:	47a5                	c.li	a5,9
     76a:	0097d763          	bge	a5,s1,778 <myudb_mem_cmd+0x294>
     76e:	00944783          	lbu	a5,9(s0)
     772:	07e2                	c.slli	a5,0x18
     774:	00f90933          	add	s2,s2,a5
     778:	02090063          	beqz	s2,798 <myudb_mem_cmd+0x2b4>
     77c:	4401                	c.li	s0,0
     77e:	a809                	c.j	790 <myudb_mem_cmd+0x2ac>
     780:	01340533          	add	a0,s0,s3
     784:	20005097          	auipc	ra,0x20005
     788:	af0080e7          	jalr	-1296(ra) # 20005274 <flash_erase_sector>
     78c:	6785                	c.lui	a5,0x1
     78e:	943e                	c.add	s0,a5
     790:	ff2448e3          	blt	s0,s2,780 <myudb_mem_cmd+0x29c>
     794:	4901                	c.li	s2,0
     796:	bf99                	c.j	6ec <myudb_mem_cmd+0x208>
     798:	20005097          	auipc	ra,0x20005
     79c:	9e8080e7          	jalr	-1560(ra) # 20005180 <flash_read_mid>
     7a0:	5d0527db          	bfoz	a5,a0,23,16
     7a4:	0799                	c.addi	a5,6
     7a6:	4485                	c.li	s1,1
     7a8:	00f494b3          	sll	s1,s1,a5
     7ac:	844a                	c.mv	s0,s2
     7ae:	a809                	c.j	7c0 <myudb_mem_cmd+0x2dc>
     7b0:	01340533          	add	a0,s0,s3
     7b4:	20005097          	auipc	ra,0x20005
     7b8:	ac0080e7          	jalr	-1344(ra) # 20005274 <flash_erase_sector>
     7bc:	6785                	c.lui	a5,0x1
     7be:	943e                	c.add	s0,a5
     7c0:	fe9448e3          	blt	s0,s1,7b0 <myudb_mem_cmd+0x2cc>
     7c4:	f29ff06f          	j	6ec <myudb_mem_cmd+0x208>
     7c8:	300027f3          	csrr	a5,mstatus
     7cc:	0037fa5b          	bbc	a5,3,7e0 <myudb_mem_cmd+0x2fc>
     7d0:	300477f3          	csrrci	a5,mstatus,8
     7d4:	0ff0000f          	fence
     7d8:	0fe00913          	li	s2,254
     7dc:	f11ff06f          	j	6ec <myudb_mem_cmd+0x208>
     7e0:	0fe00913          	li	s2,254
     7e4:	f09ff06f          	j	6ec <myudb_mem_cmd+0x208>

000007e8 <myudb_hci_cmd_from_usb>:
     7e8:	1141                	c.addi	sp,-16
     7ea:	c606                	c.swsp	ra,12(sp)
     7ec:	c422                	c.swsp	s0,8(sp)
     7ee:	c226                	c.swsp	s1,4(sp)
     7f0:	4481                	c.li	s1,0
     7f2:	a80d                	c.j	824 <myudb_hci_cmd_from_usb+0x3c>
     7f4:	85aa                	c.mv	a1,a0
     7f6:	3140150b          	addigp	a0,788 # 80b14 <buff>
     7fa:	31ed                	c.jal	4e4 <myudb_mem_cmd>
     7fc:	0fe00793          	li	a5,254
     800:	00f50c63          	beq	a0,a5,818 <myudb_hci_cmd_from_usb+0x30>
     804:	c515                	c.beqz	a0,830 <myudb_hci_cmd_from_usb+0x48>
     806:	abffa7ab          	lwgp	a5,-1348 # 802bc <myudb_hci_cmd_cb>
     80a:	c39d                	c.beqz	a5,830 <myudb_hci_cmd_from_usb+0x48>
     80c:	85a2                	c.mv	a1,s0
     80e:	3140150b          	addigp	a0,788 # 80b14 <buff>
     812:	9782                	c.jalr	a5
     814:	01c0006f          	j	830 <myudb_hci_cmd_from_usb+0x48>
     818:	00a004b3          	add	s1,zero,a0
     81c:	b91ff0ef          	jal	ra,3ac <myudb_to_usb>
     820:	00048a63          	beqz	s1,834 <myudb_hci_cmd_from_usb+0x4c>
     824:	3140150b          	addigp	a0,788 # 80b14 <buff>
     828:	3981                	c.jal	478 <myudb_usb_get_packet>
     82a:	842a                	c.mv	s0,a0
     82c:	fc0514e3          	bnez	a0,7f4 <myudb_hci_cmd_from_usb+0xc>
     830:	d8e5                	c.beqz	s1,820 <myudb_hci_cmd_from_usb+0x38>
     832:	b7ed                	c.j	81c <myudb_hci_cmd_from_usb+0x34>
     834:	4501                	c.li	a0,0
     836:	40b2                	c.lwsp	ra,12(sp)
     838:	4422                	c.lwsp	s0,8(sp)
     83a:	4492                	c.lwsp	s1,4(sp)
     83c:	0141                	c.addi	sp,16
     83e:	8082                	c.jr	ra
     840:	0001                	c.nop
	...

00000844 <analog_read_reg8>:
     844:	30002773          	csrr	a4,mstatus
     848:	8b21                	c.andi	a4,8
     84a:	c709                	c.beqz	a4,854 <analog_read_reg8+0x10>
     84c:	300477f3          	csrrci	a5,mstatus,8
     850:	0ff0000f          	fence
     854:	801407b7          	lui	a5,0x80140
     858:	18a78023          	sb	a0,384(a5) # 80140180 <_DATA_LMA_START+0x6011fec0>
     85c:	00100693          	li	a3,1
     860:	18d781a3          	sb	a3,387(a5)
     864:	04000693          	li	a3,64
     868:	18d78123          	sb	a3,386(a5)
     86c:	801407b7          	lui	a5,0x80140
     870:	18278783          	lb	a5,386(a5) # 80140182 <_DATA_LMA_START+0x6011fec2>
     874:	fe77fc5b          	bbs	a5,7,86c <analog_read_reg8+0x28>
     878:	801407b7          	lui	a5,0x80140
     87c:	18478503          	lb	a0,388(a5) # 80140184 <_DATA_LMA_START+0x6011fec4>
     880:	0ff57513          	andi	a0,a0,255
     884:	00070663          	beqz	a4,890 <analog_read_reg8+0x4c>
     888:	30072773          	csrrs	a4,mstatus,a4
     88c:	0ff0000f          	fence
     890:	00008067          	ret

00000894 <analog_write_reg8>:
     894:	30002773          	csrr	a4,mstatus
     898:	8b21                	c.andi	a4,8
     89a:	c709                	c.beqz	a4,8a4 <analog_write_reg8+0x10>
     89c:	300477f3          	csrrci	a5,mstatus,8
     8a0:	0ff0000f          	fence
     8a4:	801407b7          	lui	a5,0x80140
     8a8:	18a78023          	sb	a0,384(a5) # 80140180 <_DATA_LMA_START+0x6011fec0>
     8ac:	18b78223          	sb	a1,388(a5)
     8b0:	06000693          	li	a3,96
     8b4:	18d78123          	sb	a3,386(a5)
     8b8:	801407b7          	lui	a5,0x80140
     8bc:	18278783          	lb	a5,386(a5) # 80140182 <_DATA_LMA_START+0x6011fec2>
     8c0:	fe77fc5b          	bbs	a5,7,8b8 <analog_write_reg8+0x24>
     8c4:	801407b7          	lui	a5,0x80140
     8c8:	18078123          	sb	zero,386(a5) # 80140182 <_DATA_LMA_START+0x6011fec2>
     8cc:	00070663          	beqz	a4,8d8 <analog_write_reg8+0x44>
     8d0:	30072773          	csrrs	a4,mstatus,a4
     8d4:	0ff0000f          	fence
     8d8:	00008067          	ret

000008dc <analog_read_reg16>:
     8dc:	30002773          	csrr	a4,mstatus
     8e0:	8b21                	c.andi	a4,8
     8e2:	c709                	c.beqz	a4,8ec <analog_read_reg16+0x10>
     8e4:	300477f3          	csrrci	a5,mstatus,8
     8e8:	0ff0000f          	fence
     8ec:	801407b7          	lui	a5,0x80140
     8f0:	00200693          	li	a3,2
     8f4:	18d781a3          	sb	a3,387(a5) # 80140183 <_DATA_LMA_START+0x6011fec3>
     8f8:	18a78023          	sb	a0,384(a5)
     8fc:	04000693          	li	a3,64
     900:	18d78123          	sb	a3,386(a5)
     904:	801407b7          	lui	a5,0x80140
     908:	18278783          	lb	a5,386(a5) # 80140182 <_DATA_LMA_START+0x6011fec2>
     90c:	fe77fc5b          	bbs	a5,7,904 <analog_read_reg16+0x28>
     910:	801407b7          	lui	a5,0x80140
     914:	18479503          	lh	a0,388(a5) # 80140184 <_DATA_LMA_START+0x6011fec4>
     918:	3c05255b          	bfoz	a0,a0,15,0
     91c:	00070663          	beqz	a4,928 <analog_read_reg16+0x4c>
     920:	30072773          	csrrs	a4,mstatus,a4
     924:	0ff0000f          	fence
     928:	00008067          	ret

0000092c <analog_write_reg16>:
     92c:	30002773          	csrr	a4,mstatus
     930:	8b21                	c.andi	a4,8
     932:	c709                	c.beqz	a4,93c <analog_write_reg16+0x10>
     934:	300477f3          	csrrci	a5,mstatus,8
     938:	0ff0000f          	fence
     93c:	801407b7          	lui	a5,0x80140
     940:	18a78023          	sb	a0,384(a5) # 80140180 <_DATA_LMA_START+0x6011fec0>
     944:	18b79223          	sh	a1,388(a5)
     948:	06000693          	li	a3,96
     94c:	18d78123          	sb	a3,386(a5)
     950:	801407b7          	lui	a5,0x80140
     954:	18278783          	lb	a5,386(a5) # 80140182 <_DATA_LMA_START+0x6011fec2>
     958:	fe77fc5b          	bbs	a5,7,950 <analog_write_reg16+0x24>
     95c:	00070663          	beqz	a4,968 <analog_write_reg16+0x3c>
     960:	30072773          	csrrs	a4,mstatus,a4
     964:	0ff0000f          	fence
     968:	00008067          	ret

0000096c <analog_read_reg32>:
     96c:	30002773          	csrr	a4,mstatus
     970:	8b21                	c.andi	a4,8
     972:	c709                	c.beqz	a4,97c <analog_read_reg32+0x10>
     974:	300477f3          	csrrci	a5,mstatus,8
     978:	0ff0000f          	fence
     97c:	801407b7          	lui	a5,0x80140
     980:	00400693          	li	a3,4
     984:	18d781a3          	sb	a3,387(a5) # 80140183 <_DATA_LMA_START+0x6011fec3>
     988:	18a78023          	sb	a0,384(a5)
     98c:	04000693          	li	a3,64
     990:	18d78123          	sb	a3,386(a5)
     994:	801407b7          	lui	a5,0x80140
     998:	18278783          	lb	a5,386(a5) # 80140182 <_DATA_LMA_START+0x6011fec2>
     99c:	fe77fc5b          	bbs	a5,7,994 <analog_read_reg32+0x28>
     9a0:	801407b7          	lui	a5,0x80140
     9a4:	1847a503          	lw	a0,388(a5) # 80140184 <_DATA_LMA_START+0x6011fec4>
     9a8:	00070663          	beqz	a4,9b4 <analog_read_reg32+0x48>
     9ac:	30072773          	csrrs	a4,mstatus,a4
     9b0:	0ff0000f          	fence
     9b4:	00008067          	ret

000009b8 <analog_write_reg32>:
     9b8:	30002773          	csrr	a4,mstatus
     9bc:	8b21                	c.andi	a4,8
     9be:	c709                	c.beqz	a4,9c8 <analog_write_reg32+0x10>
     9c0:	300477f3          	csrrci	a5,mstatus,8
     9c4:	0ff0000f          	fence
     9c8:	801407b7          	lui	a5,0x80140
     9cc:	18a78023          	sb	a0,384(a5) # 80140180 <_DATA_LMA_START+0x6011fec0>
     9d0:	18b7a223          	sw	a1,388(a5)
     9d4:	06000693          	li	a3,96
     9d8:	18d78123          	sb	a3,386(a5)
     9dc:	801407b7          	lui	a5,0x80140
     9e0:	18278783          	lb	a5,386(a5) # 80140182 <_DATA_LMA_START+0x6011fec2>
     9e4:	fe77fc5b          	bbs	a5,7,9dc <analog_write_reg32+0x24>
     9e8:	00070663          	beqz	a4,9f4 <analog_write_reg32+0x3c>
     9ec:	30072773          	csrrs	a4,mstatus,a4
     9f0:	0ff0000f          	fence
     9f4:	00008067          	ret

000009f8 <analog_read_buff>:
     9f8:	30002873          	csrr	a6,mstatus
     9fc:	00887813          	andi	a6,a6,8
     a00:	00080663          	beqz	a6,a0c <analog_read_buff+0x14>
     a04:	300477f3          	csrrci	a5,mstatus,8
     a08:	0ff0000f          	fence
     a0c:	0ff67613          	andi	a2,a2,255
     a10:	801407b7          	lui	a5,0x80140
     a14:	18c781a3          	sb	a2,387(a5) # 80140183 <_DATA_LMA_START+0x6011fec3>
     a18:	18a78023          	sb	a0,384(a5)
     a1c:	04000713          	li	a4,64
     a20:	18e78123          	sb	a4,386(a5)
     a24:	00400793          	li	a5,4
     a28:	06c7f463          	bgeu	a5,a2,a90 <analog_read_buff+0x98>
     a2c:	801407b7          	lui	a5,0x80140
     a30:	18a78783          	lb	a5,394(a5) # 8014018a <_DATA_LMA_START+0x6011feca>
     a34:	be17fc5b          	bbc	a5,1,a2c <analog_read_buff+0x34>
     a38:	4781                	c.li	a5,0
     a3a:	a029                	c.j	a44 <analog_read_buff+0x4c>
     a3c:	8636                	c.mv	a2,a3
     a3e:	87ba                	c.mv	a5,a4
     a40:	00a005b3          	add	a1,zero,a0
     a44:	fff60693          	addi	a3,a2,-1
     a48:	0ff6f693          	andi	a3,a3,255
     a4c:	c221                	c.beqz	a2,a8c <analog_read_buff+0x94>
     a4e:	00178713          	addi	a4,a5,1
     a52:	0ff77713          	andi	a4,a4,255
     a56:	00140637          	lui	a2,0x140
     a5a:	18460613          	addi	a2,a2,388 # 140184 <FLASH_SIZE+0x40184>
     a5e:	97b2                	c.add	a5,a2
     a60:	80000637          	lui	a2,0x80000
     a64:	8fd1                	c.or	a5,a2
     a66:	00158513          	addi	a0,a1,1
     a6a:	00078783          	lb	a5,0(a5)
     a6e:	00f58023          	sb	a5,0(a1)
     a72:	bc47655b          	bnec	a4,4,a3c <analog_read_buff+0x44>
     a76:	4791                	c.li	a5,4
     a78:	04d7fc63          	bgeu	a5,a3,ad0 <analog_read_buff+0xd8>
     a7c:	801407b7          	lui	a5,0x80140
     a80:	18a78783          	lb	a5,394(a5) # 8014018a <_DATA_LMA_START+0x6011feca>
     a84:	be17fc5b          	bbc	a5,1,a7c <analog_read_buff+0x84>
     a88:	4701                	c.li	a4,0
     a8a:	bf4d                	c.j	a3c <analog_read_buff+0x44>
     a8c:	8636                	c.mv	a2,a3
     a8e:	a019                	c.j	a94 <analog_read_buff+0x9c>
     a90:	00000793          	li	a5,0
     a94:	80140737          	lui	a4,0x80140
     a98:	18270703          	lb	a4,386(a4) # 80140182 <_DATA_LMA_START+0x6011fec2>
     a9c:	fe777c5b          	bbs	a4,7,a94 <analog_read_buff+0x9c>
     aa0:	fff60713          	addi	a4,a2,-1 # 7fffffff <_DATA_LMA_START+0x5ffdfd3f>
     aa4:	0ff77713          	andi	a4,a4,255
     aa8:	ca05                	c.beqz	a2,ad8 <analog_read_buff+0xe0>
     aaa:	00178513          	addi	a0,a5,1
     aae:	001406b7          	lui	a3,0x140
     ab2:	18468693          	addi	a3,a3,388 # 140184 <FLASH_SIZE+0x40184>
     ab6:	97b6                	c.add	a5,a3
     ab8:	800006b7          	lui	a3,0x80000
     abc:	8fd5                	c.or	a5,a3
     abe:	00078783          	lb	a5,0(a5)
     ac2:	00f58023          	sb	a5,0(a1)
     ac6:	863a                	c.mv	a2,a4
     ac8:	0ff57793          	andi	a5,a0,255
     acc:	0585                	c.addi	a1,1
     ace:	bfc9                	c.j	aa0 <analog_read_buff+0xa8>
     ad0:	8636                	c.mv	a2,a3
     ad2:	85aa                	c.mv	a1,a0
     ad4:	4781                	c.li	a5,0
     ad6:	bf7d                	c.j	a94 <analog_read_buff+0x9c>
     ad8:	801407b7          	lui	a5,0x80140
     adc:	18078123          	sb	zero,386(a5) # 80140182 <_DATA_LMA_START+0x6011fec2>
     ae0:	00080663          	beqz	a6,aec <analog_read_buff+0xf4>
     ae4:	30082873          	csrrs	a6,mstatus,a6
     ae8:	0ff0000f          	fence
     aec:	00008067          	ret

00000af0 <analog_write_buff>:
     af0:	0ff67613          	andi	a2,a2,255
     af4:	30002873          	csrr	a6,mstatus
     af8:	00887813          	andi	a6,a6,8
     afc:	00080663          	beqz	a6,b08 <analog_write_buff+0x18>
     b00:	300477f3          	csrrci	a5,mstatus,8
     b04:	0ff0000f          	fence
     b08:	801407b7          	lui	a5,0x80140
     b0c:	18c781a3          	sb	a2,387(a5) # 80140183 <_DATA_LMA_START+0x6011fec3>
     b10:	18a78023          	sb	a0,384(a5)
     b14:	4791                	c.li	a5,4
     b16:	06c7f563          	bgeu	a5,a2,b80 <analog_write_buff+0x90>
     b1a:	4511                	c.li	a0,4
     b1c:	4781                	c.li	a5,0
     b1e:	a069                	c.j	ba8 <analog_write_buff+0xb8>
     b20:	00178513          	addi	a0,a5,1
     b24:	001406b7          	lui	a3,0x140
     b28:	18468693          	addi	a3,a3,388 # 140184 <FLASH_SIZE+0x40184>
     b2c:	97b6                	c.add	a5,a3
     b2e:	800006b7          	lui	a3,0x80000
     b32:	8fd5                	c.or	a5,a3
     b34:	0005c683          	lbu	a3,0(a1)
     b38:	00d78023          	sb	a3,0(a5)
     b3c:	863a                	c.mv	a2,a4
     b3e:	0ff57793          	andi	a5,a0,255
     b42:	0585                	c.addi	a1,1
     b44:	fff60713          	addi	a4,a2,-1
     b48:	0ff77713          	andi	a4,a4,255
     b4c:	fc061ae3          	bnez	a2,b20 <analog_write_buff+0x30>
     b50:	801407b7          	lui	a5,0x80140
     b54:	06000713          	li	a4,96
     b58:	18e78123          	sb	a4,386(a5) # 80140182 <_DATA_LMA_START+0x6011fec2>
     b5c:	801407b7          	lui	a5,0x80140
     b60:	18278783          	lb	a5,386(a5) # 80140182 <_DATA_LMA_START+0x6011fec2>
     b64:	fe77fc5b          	bbs	a5,7,b5c <analog_write_buff+0x6c>
     b68:	801407b7          	lui	a5,0x80140
     b6c:	18078123          	sb	zero,386(a5) # 80140182 <_DATA_LMA_START+0x6011fec2>
     b70:	00080663          	beqz	a6,b7c <analog_write_buff+0x8c>
     b74:	30082873          	csrrs	a6,mstatus,a6
     b78:	0ff0000f          	fence
     b7c:	00008067          	ret
     b80:	4781                	c.li	a5,0
     b82:	b7c9                	c.j	b44 <analog_write_buff+0x54>
     b84:	00178893          	addi	a7,a5,1
     b88:	001406b7          	lui	a3,0x140
     b8c:	18468693          	addi	a3,a3,388 # 140184 <FLASH_SIZE+0x40184>
     b90:	97b6                	c.add	a5,a3
     b92:	800006b7          	lui	a3,0x80000
     b96:	8fd5                	c.or	a5,a3
     b98:	0005c683          	lbu	a3,0(a1)
     b9c:	00d78023          	sb	a3,0(a5)
     ba0:	853a                	c.mv	a0,a4
     ba2:	0ff8f793          	andi	a5,a7,255
     ba6:	0585                	c.addi	a1,1
     ba8:	fff50713          	addi	a4,a0,-1
     bac:	0ff77713          	andi	a4,a4,255
     bb0:	f971                	c.bnez	a0,b84 <analog_write_buff+0x94>
     bb2:	801407b7          	lui	a5,0x80140
     bb6:	06000713          	li	a4,96
     bba:	18e78123          	sb	a4,386(a5) # 80140182 <_DATA_LMA_START+0x6011fec2>
     bbe:	1671                	c.addi	a2,-4
     bc0:	0ff67613          	andi	a2,a2,255
     bc4:	87aa                	c.mv	a5,a0
     bc6:	a029                	c.j	bd0 <analog_write_buff+0xe0>
     bc8:	8636                	c.mv	a2,a3
     bca:	87ba                	c.mv	a5,a4
     bcc:	011005b3          	add	a1,zero,a7
     bd0:	fff60713          	addi	a4,a2,-1
     bd4:	0ff77693          	andi	a3,a4,255
     bd8:	d251                	c.beqz	a2,b5c <analog_write_buff+0x6c>
     bda:	00158893          	addi	a7,a1,1
     bde:	00178713          	addi	a4,a5,1
     be2:	0ff77713          	andi	a4,a4,255
     be6:	00140637          	lui	a2,0x140
     bea:	18460613          	addi	a2,a2,388 # 140184 <FLASH_SIZE+0x40184>
     bee:	97b2                	c.add	a5,a2
     bf0:	80000637          	lui	a2,0x80000
     bf4:	00c7e7b3          	or	a5,a5,a2
     bf8:	0005c603          	lbu	a2,0(a1)
     bfc:	00c78023          	sb	a2,0(a5)
     c00:	bc47645b          	bnec	a4,4,bc8 <analog_write_buff+0xd8>
     c04:	801407b7          	lui	a5,0x80140
     c08:	18a78783          	lb	a5,394(a5) # 8014018a <_DATA_LMA_START+0x6011feca>
     c0c:	be07fc5b          	bbc	a5,0,c04 <analog_write_buff+0x114>
     c10:	872a                	c.mv	a4,a0
     c12:	bf5d                	c.j	bc8 <analog_write_buff+0xd8>

00000c14 <audio_set_i2s_clock>:
     c14:	801407b7          	lui	a5,0x80140
     c18:	577d                	c.li	a4,-1
     c1a:	52e79023          	sh	a4,1312(a5) # 80140520 <_DATA_LMA_START+0x60120260>
     c1e:	0865515b          	beqc	a0,6,ca0 <audio_set_i2s_clock+0x8c>
     c22:	4799                	c.li	a5,6
     c24:	00a7fe63          	bgeu	a5,a0,c40 <audio_set_i2s_clock+0x2c>
     c28:	0885545b          	beqc	a0,8,cb0 <audio_set_i2s_clock+0x9c>
     c2c:	47a1                	c.li	a5,8
     c2e:	0af56963          	bltu	a0,a5,ce0 <audio_set_i2s_clock+0xcc>
     c32:	06c55b5b          	beqc	a0,12,ca8 <audio_set_i2s_clock+0x94>
     c36:	00d56b5b          	bnec	a0,13,c4c <audio_set_i2s_clock+0x38>
     c3a:	a15f958b          	addigp	a1,-1516 # 80214 <audio_i2s_adc_16k_dac_48k_config>
     c3e:	a809                	c.j	c50 <audio_set_i2s_clock+0x3c>
     c40:	0435585b          	beqc	a0,3,c90 <audio_set_i2s_clock+0x7c>
     c44:	04555a5b          	beqc	a0,5,c98 <audio_set_i2s_clock+0x84>
     c48:	0c050663          	beqz	a0,d14 <audio_set_i2s_clock+0x100>
     c4c:	00000593          	li	a1,0
     c50:	0045c703          	lbu	a4,4(a1)
     c54:	0055c683          	lbu	a3,5(a1)
     c58:	08076713          	ori	a4,a4,128
     c5c:	801407b7          	lui	a5,0x80140
     c60:	1ee78523          	sb	a4,490(a5) # 801401ea <_DATA_LMA_START+0x6011ff2a>
     c64:	1ed785a3          	sb	a3,491(a5)
     c68:	0065c703          	lbu	a4,6(a1)
     c6c:	8b3d                	c.andi	a4,15
     c6e:	54e78a23          	sb	a4,1364(a5)
     c72:	0005d683          	lhu	a3,0(a1)
     c76:	0025d703          	lhu	a4,2(a1)
     c7a:	16fd                	c.addi	a3,-1
     c7c:	3c06a6db          	bfoz	a3,a3,15,0
     c80:	54d79823          	sh	a3,1360(a5)
     c84:	177d                	c.addi	a4,-1
     c86:	3c07275b          	bfoz	a4,a4,15,0
     c8a:	54e79923          	sh	a4,1362(a5)
     c8e:	8082                	c.jr	ra
     c90:	a35f958b          	addigp	a1,-1484 # 80234 <audio_i2s_16k_config>
     c94:	fbdff06f          	j	c50 <audio_set_i2s_clock+0x3c>
     c98:	a2df958b          	addigp	a1,-1492 # 8022c <audio_i2s_24k_config>
     c9c:	fb5ff06f          	j	c50 <audio_set_i2s_clock+0x3c>
     ca0:	a25f958b          	addigp	a1,-1500 # 80224 <audio_i2s_32k_config>
     ca4:	fadff06f          	j	c50 <audio_set_i2s_clock+0x3c>
     ca8:	a1df958b          	addigp	a1,-1508 # 8021c <audio_i2s_192k_config>
     cac:	fa5ff06f          	j	c50 <audio_set_i2s_clock+0x3c>
     cb0:	02060063          	beqz	a2,cd0 <audio_set_i2s_clock+0xbc>
     cb4:	801407b7          	lui	a5,0x80140
     cb8:	52279703          	lh	a4,1314(a5) # 80140522 <_DATA_LMA_START+0x60120262>
     cbc:	3c07275b          	bfoz	a4,a4,15,0
     cc0:	801407b7          	lui	a5,0x80140
     cc4:	52279783          	lh	a5,1314(a5) # 80140522 <_DATA_LMA_START+0x60120262>
     cc8:	3c07a7db          	bfoz	a5,a5,15,0
     ccc:	fee78ae3          	beq	a5,a4,cc0 <audio_set_i2s_clock+0xac>
     cd0:	00359793          	slli	a5,a1,0x3
     cd4:	8f8d                	c.sub	a5,a1
     cd6:	801f958b          	addigp	a1,-2048 # 80000 <audio_i2s_48k_config>
     cda:	95be                	c.add	a1,a5
     cdc:	f75ff06f          	j	c50 <audio_set_i2s_clock+0x3c>
     ce0:	02060063          	beqz	a2,d00 <audio_set_i2s_clock+0xec>
     ce4:	801407b7          	lui	a5,0x80140
     ce8:	52279703          	lh	a4,1314(a5) # 80140522 <_DATA_LMA_START+0x60120262>
     cec:	3c07275b          	bfoz	a4,a4,15,0
     cf0:	801407b7          	lui	a5,0x80140
     cf4:	52279783          	lh	a5,1314(a5) # 80140522 <_DATA_LMA_START+0x60120262>
     cf8:	3c07a7db          	bfoz	a5,a5,15,0
     cfc:	fee78ae3          	beq	a5,a4,cf0 <audio_set_i2s_clock+0xdc>
     d00:	801f978b          	addigp	a5,-2048 # 80000 <audio_i2s_48k_config>
     d04:	00359713          	slli	a4,a1,0x3
     d08:	8f0d                	c.sub	a4,a1
     d0a:	02478593          	addi	a1,a5,36
     d0e:	95ba                	c.add	a1,a4
     d10:	f41ff06f          	j	c50 <audio_set_i2s_clock+0x3c>
     d14:	a3df958b          	addigp	a1,-1476 # 8023c <audio_i2s_8k_config>
     d18:	f39ff06f          	j	c50 <audio_set_i2s_clock+0x3c>

00000d1c <audio_change_sample_rate>:
     d1c:	1141                	c.addi	sp,-16
     d1e:	c606                	c.swsp	ra,12(sp)
     d20:	c422                	c.swsp	s0,8(sp)
     d22:	842a                	c.mv	s0,a0
     d24:	4605                	c.li	a2,1
     d26:	4581                	c.li	a1,0
     d28:	35f5                	c.jal	c14 <audio_set_i2s_clock>
     d2a:	883d                	c.andi	s0,15
     d2c:	801207b7          	lui	a5,0x80120
     d30:	22878623          	sb	s0,556(a5) # 8012022c <_DATA_LMA_START+0x600fff6c>
     d34:	40b2                	c.lwsp	ra,12(sp)
     d36:	4422                	c.lwsp	s0,8(sp)
     d38:	0141                	c.addi	sp,16
     d3a:	8082                	c.jr	ra

00000d3c <clock_cal_24m_rc>:
     d3c:	1141                	c.addi	sp,-16
     d3e:	c606                	c.swsp	ra,12(sp)
     d40:	08000593          	li	a1,128
     d44:	0c800513          	li	a0,200
     d48:	36b1                	c.jal	894 <analog_write_reg8>
     d4a:	04f00513          	li	a0,79
     d4e:	3cdd                	c.jal	844 <analog_read_reg8>
     d50:	f8056593          	ori	a1,a0,-128
     d54:	0ff5f593          	andi	a1,a1,255
     d58:	04f00513          	li	a0,79
     d5c:	3e25                	c.jal	894 <analog_write_reg8>
     d5e:	45b9                	c.li	a1,14
     d60:	0c700513          	li	a0,199
     d64:	3e05                	c.jal	894 <analog_write_reg8>
     d66:	45bd                	c.li	a1,15
     d68:	0c700513          	li	a0,199
     d6c:	b29ff0ef          	jal	ra,894 <analog_write_reg8>
     d70:	0cf00513          	li	a0,207
     d74:	3cc1                	c.jal	844 <analog_read_reg8>
     d76:	be757d5b          	bbc	a0,7,d70 <clock_cal_24m_rc+0x34>
     d7a:	0cb00513          	li	a0,203
     d7e:	34d9                	c.jal	844 <analog_read_reg8>
     d80:	85aa                	c.mv	a1,a0
     d82:	05200513          	li	a0,82
     d86:	3639                	c.jal	894 <analog_write_reg8>
     d88:	04f00513          	li	a0,79
     d8c:	3c65                	c.jal	844 <analog_read_reg8>
     d8e:	07f57593          	andi	a1,a0,127
     d92:	04f00513          	li	a0,79
     d96:	3cfd                	c.jal	894 <analog_write_reg8>
     d98:	45b9                	c.li	a1,14
     d9a:	0c700513          	li	a0,199
     d9e:	3cdd                	c.jal	894 <analog_write_reg8>
     da0:	05200513          	li	a0,82
     da4:	3445                	c.jal	844 <analog_read_reg8>
     da6:	000007b7          	lui	a5,0x0
     daa:	18a78123          	sb	a0,386(a5) # 182 <tl_24mrc_cal>
     dae:	40b2                	c.lwsp	ra,12(sp)
     db0:	0141                	c.addi	sp,16
     db2:	8082                	c.jr	ra

00000db4 <clock_get_32k_tick>:
     db4:	1141                	c.addi	sp,-16
     db6:	c606                	c.swsp	ra,12(sp)
     db8:	c422                	c.swsp	s0,8(sp)
     dba:	06000513          	li	a0,96
     dbe:	367d                	c.jal	96c <analog_read_reg32>
     dc0:	842a                	c.mv	s0,a0
     dc2:	a019                	c.j	dc8 <clock_get_32k_tick+0x14>
     dc4:	00a00433          	add	s0,zero,a0
     dc8:	06000513          	li	a0,96
     dcc:	3645                	c.jal	96c <analog_read_reg32>
     dce:	408507b3          	sub	a5,a0,s0
     dd2:	0017d55b          	beqc	a5,1,ddc <clock_get_32k_tick+0x28>
     dd6:	fea417e3          	bne	s0,a0,dc4 <clock_get_32k_tick+0x10>
     dda:	b7fd                	c.j	dc8 <clock_get_32k_tick+0x14>
     ddc:	40b2                	c.lwsp	ra,12(sp)
     dde:	4422                	c.lwsp	s0,8(sp)
     de0:	0141                	c.addi	sp,16
     de2:	8082                	c.jr	ra

00000de4 <clock_set_32k_tick>:
     de4:	80140737          	lui	a4,0x80140
     de8:	20a70783          	lb	a5,522(a4) # 8014020a <_DATA_LMA_START+0x6011ff4a>
     dec:	0ff7f793          	andi	a5,a5,255
     df0:	0017e793          	ori	a5,a5,1
     df4:	20f70523          	sb	a5,522(a4)
     df8:	801407b7          	lui	a5,0x80140
     dfc:	20b78783          	lb	a5,523(a5) # 8014020b <_DATA_LMA_START+0x6011ff4b>
     e00:	fe67fc5b          	bbs	a5,6,df8 <clock_set_32k_tick+0x14>
     e04:	801407b7          	lui	a5,0x80140
     e08:	20a7a623          	sw	a0,524(a5) # 8014020c <_DATA_LMA_START+0x6011ff4c>
     e0c:	4721                	c.li	a4,8
     e0e:	20e785a3          	sb	a4,523(a5)
     e12:	0001                	c.nop
     e14:	0001                	c.nop
     e16:	0001                	c.nop
     e18:	0001                	c.nop
     e1a:	0001                	c.nop
     e1c:	0001                	c.nop
     e1e:	0001                	c.nop
     e20:	0001                	c.nop
     e22:	0001                	c.nop
     e24:	0001                	c.nop
     e26:	0001                	c.nop
     e28:	0001                	c.nop
     e2a:	0001                	c.nop
     e2c:	0001                	c.nop
     e2e:	0001                	c.nop
     e30:	00000013          	nop
     e34:	801407b7          	lui	a5,0x80140
     e38:	20b78783          	lb	a5,523(a5) # 8014020b <_DATA_LMA_START+0x6011ff4b>
     e3c:	fe37fc5b          	bbs	a5,3,e34 <clock_set_32k_tick+0x50>
     e40:	00008067          	ret

00000e44 <clock_init_ram>:
     e44:	1101                	c.addi	sp,-32
     e46:	ce06                	c.swsp	ra,28(sp)
     e48:	cc22                	c.swsp	s0,24(sp)
     e4a:	ca26                	c.swsp	s1,20(sp)
     e4c:	c84a                	c.swsp	s2,16(sp)
     e4e:	c64e                	c.swsp	s3,12(sp)
     e50:	c452                	c.swsp	s4,8(sp)
     e52:	c256                	c.swsp	s5,4(sp)
     e54:	c05a                	c.swsp	s6,0(sp)
     e56:	842a                	c.mv	s0,a0
     e58:	892e                	c.mv	s2,a1
     e5a:	8ab2                	c.mv	s5,a2
     e5c:	84b6                	c.mv	s1,a3
     e5e:	8a3a                	c.mv	s4,a4
     e60:	00f009b3          	add	s3,zero,a5
     e64:	801407b7          	lui	a5,0x80140
     e68:	10278783          	lb	a5,258(a5) # 80140102 <_DATA_LMA_START+0x6011fe42>
     e6c:	fe07fc5b          	bbs	a5,0,e64 <clock_init_ram+0x20>
     e70:	80140737          	lui	a4,0x80140
     e74:	10170783          	lb	a5,257(a4) # 80140101 <_DATA_LMA_START+0x6011fe41>
     e78:	0ff7f793          	andi	a5,a5,255
     e7c:	0107e793          	ori	a5,a5,16
     e80:	10f700a3          	sb	a5,257(a4)
     e84:	801407b7          	lui	a5,0x80140
     e88:	32878783          	lb	a5,808(a5) # 80140328 <_DATA_LMA_START+0x60120068>
     e8c:	be37fc5b          	bbc	a5,3,e84 <clock_init_ram+0x40>
     e90:	80140b37          	lui	s6,0x80140
     e94:	1e8b0783          	lb	a5,488(s6) # 801401e8 <_DATA_LMA_START+0x6011ff28>
     e98:	8bbd                	c.andi	a5,15
     e9a:	1efb0423          	sb	a5,488(s6)
     e9e:	08000513          	li	a0,128
     ea2:	324d                	c.jal	844 <analog_read_reg8>
     ea4:	0e057593          	andi	a1,a0,224
     ea8:	182427db          	bfoz	a5,s0,6,2
     eac:	8ddd                	c.or	a1,a5
     eae:	08000513          	li	a0,128
     eb2:	32cd                	c.jal	894 <analog_write_reg8>
     eb4:	4525                	c.li	a0,9
     eb6:	3279                	c.jal	844 <analog_read_reg8>
     eb8:	0f357593          	andi	a1,a0,243
     ebc:	083427db          	bfoz	a5,s0,2,3
     ec0:	8ddd                	c.or	a1,a5
     ec2:	4525                	c.li	a0,9
     ec4:	3ac1                	c.jal	894 <analog_write_reg8>
     ec6:	5c84245b          	bfoz	s0,s0,23,8
     eca:	a48f86ab          	shgp	s0,-1460 # 8024c <sys_clk>
     ece:	aaaab7b7          	lui	a5,0xaaaab
     ed2:	aab78793          	addi	a5,a5,-1365 # aaaaaaab <_DATA_LMA_START+0x8aa8a7eb>
     ed6:	02f43433          	mulhu	s0,s0,a5
     eda:	3054245b          	bfoz	s0,s0,12,5
     ede:	1e8b0da3          	sb	s0,507(s6)
     ee2:	08100513          	li	a0,129
     ee6:	3ab9                	c.jal	844 <analog_read_reg8>
     ee8:	04056593          	ori	a1,a0,64
     eec:	0ff5f593          	andi	a1,a1,255
     ef0:	08100513          	li	a0,129
     ef4:	9a1ff0ef          	jal	ra,894 <analog_write_reg8>
     ef8:	08800513          	li	a0,136
     efc:	32a1                	c.jal	844 <analog_read_reg8>
     efe:	be557d5b          	bbc	a0,5,ef8 <clock_init_ram+0xb4>
     f02:	08100513          	li	a0,129
     f06:	3a3d                	c.jal	844 <analog_read_reg8>
     f08:	0bf57593          	andi	a1,a0,191
     f0c:	08100513          	li	a0,129
     f10:	3251                	c.jal	894 <analog_write_reg8>
     f12:	0e19d55b          	beqc	s3,1,ffc <clock_init_ram+0x1b8>
     f16:	80140737          	lui	a4,0x80140
     f1a:	1e970783          	lb	a5,489(a4) # 801401e9 <_DATA_LMA_START+0x6011ff29>
     f1e:	8bbd                	c.andi	a5,15
     f20:	00499693          	slli	a3,s3,0x4
     f24:	00d7e7b3          	or	a5,a5,a3
     f28:	0ff7f793          	andi	a5,a5,255
     f2c:	1ef704a3          	sb	a5,489(a4)
     f30:	1e870783          	lb	a5,488(a4)
     f34:	f807e793          	ori	a5,a5,-128
     f38:	0ff7f793          	andi	a5,a5,255
     f3c:	1ef70423          	sb	a5,488(a4)
     f40:	1e870783          	lb	a5,488(a4)
     f44:	f807e793          	ori	a5,a5,-128
     f48:	0ff7f793          	andi	a5,a5,255
     f4c:	1ef70423          	sb	a5,488(a4)
     f50:	a4dfd72b          	lhugp	a4,-1460 # 8024c <sys_clk>
     f54:	03374733          	div	a4,a4,s3
     f58:	a4df978b          	addigp	a5,-1460 # 8024c <sys_clk>
     f5c:	00e782a3          	sb	a4,5(a5)
     f60:	0a14d85b          	beqc	s1,1,1010 <clock_init_ram+0x1cc>
     f64:	80140737          	lui	a4,0x80140
     f68:	1d870783          	lb	a5,472(a4) # 801401d8 <_DATA_LMA_START+0x6011ff18>
     f6c:	0ff7f793          	andi	a5,a5,255
     f70:	0047e793          	ori	a5,a5,4
     f74:	1cf70c23          	sb	a5,472(a4)
     f78:	0a1a565b          	beqc	s4,1,1024 <clock_init_ram+0x1e0>
     f7c:	80140737          	lui	a4,0x80140
     f80:	1d870783          	lb	a5,472(a4) # 801401d8 <_DATA_LMA_START+0x6011ff18>
     f84:	1c07b7db          	bfos	a5,a5,7,0
     f88:	9bf1                	c.andi	a5,-4
     f8a:	001a5693          	srli	a3,s4,0x1
     f8e:	8fd5                	c.or	a5,a3
     f90:	0ff7f793          	andi	a5,a5,255
     f94:	1cf70c23          	sb	a5,472(a4)
     f98:	0a29505b          	beqc	s2,2,1038 <clock_init_ram+0x1f4>
     f9c:	0c39545b          	beqc	s2,3,1064 <clock_init_ram+0x220>
     fa0:	a4df978b          	addigp	a5,-1460 # 8024c <sys_clk>
     fa4:	01800713          	li	a4,24
     fa8:	00e78123          	sb	a4,2(a5)
     fac:	80140737          	lui	a4,0x80140
     fb0:	1e870783          	lb	a5,488(a4) # 801401e8 <_DATA_LMA_START+0x6011ff28>
     fb4:	1c07b7db          	bfos	a5,a5,7,0
     fb8:	f8f7f793          	andi	a5,a5,-113
     fbc:	00491913          	slli	s2,s2,0x4
     fc0:	0127e933          	or	s2,a5,s2
     fc4:	0ff97913          	andi	s2,s2,255
     fc8:	1f270423          	sb	s2,488(a4)
     fcc:	a4df978b          	addigp	a5,-1460 # 8024c <sys_clk>
     fd0:	0027c703          	lbu	a4,2(a5)
     fd4:	029754b3          	divu	s1,a4,s1
     fd8:	009781a3          	sb	s1,3(a5)
     fdc:	0344d4b3          	divu	s1,s1,s4
     fe0:	00978223          	sb	s1,4(a5)
     fe4:	0819d85b          	beqc	s3,1,1074 <clock_init_ram+0x230>
     fe8:	40f2                	c.lwsp	ra,28(sp)
     fea:	4462                	c.lwsp	s0,24(sp)
     fec:	44d2                	c.lwsp	s1,20(sp)
     fee:	4942                	c.lwsp	s2,16(sp)
     ff0:	49b2                	c.lwsp	s3,12(sp)
     ff2:	4a22                	c.lwsp	s4,8(sp)
     ff4:	4a92                	c.lwsp	s5,4(sp)
     ff6:	4b02                	c.lwsp	s6,0(sp)
     ff8:	6105                	c.addi16sp	sp,32
     ffa:	8082                	c.jr	ra
     ffc:	80140737          	lui	a4,0x80140
    1000:	1e870783          	lb	a5,488(a4) # 801401e8 <_DATA_LMA_START+0x6011ff28>
    1004:	07f7f793          	andi	a5,a5,127
    1008:	1ef70423          	sb	a5,488(a4)
    100c:	f55ff06f          	j	f60 <clock_init_ram+0x11c>
    1010:	80140737          	lui	a4,0x80140
    1014:	1d870783          	lb	a5,472(a4) # 801401d8 <_DATA_LMA_START+0x6011ff18>
    1018:	0fb7f793          	andi	a5,a5,251
    101c:	1cf70c23          	sb	a5,472(a4)
    1020:	f59ff06f          	j	f78 <clock_init_ram+0x134>
    1024:	80140737          	lui	a4,0x80140
    1028:	1d870783          	lb	a5,472(a4) # 801401d8 <_DATA_LMA_START+0x6011ff18>
    102c:	0fc7f793          	andi	a5,a5,252
    1030:	1cf70c23          	sb	a5,472(a4)
    1034:	f65ff06f          	j	f98 <clock_init_ram+0x154>
    1038:	80140737          	lui	a4,0x80140
    103c:	1e870783          	lb	a5,488(a4) # 801401e8 <_DATA_LMA_START+0x6011ff28>
    1040:	1c07b7db          	bfos	a5,a5,7,0
    1044:	9bc1                	c.andi	a5,-16
    1046:	0157e7b3          	or	a5,a5,s5
    104a:	0ff7f793          	andi	a5,a5,255
    104e:	1ef70423          	sb	a5,488(a4)
    1052:	a4dfd72b          	lhugp	a4,-1460 # 8024c <sys_clk>
    1056:	03574ab3          	div	s5,a4,s5
    105a:	a4df978b          	addigp	a5,-1460 # 8024c <sys_clk>
    105e:	01578123          	sb	s5,2(a5)
    1062:	b7a9                	c.j	fac <clock_init_ram+0x168>
    1064:	a4dfd72b          	lhugp	a4,-1460 # 8024c <sys_clk>
    1068:	a4df978b          	addigp	a5,-1460 # 8024c <sys_clk>
    106c:	00e78123          	sb	a4,2(a5)
    1070:	f3dff06f          	j	fac <clock_init_ram+0x168>
    1074:	a4df978b          	addigp	a5,-1460 # 8024c <sys_clk>
    1078:	00e782a3          	sb	a4,5(a5)
    107c:	b7b5                	c.j	fe8 <clock_init_ram+0x1a4>
    107e:	0001                	c.nop

00001080 <flash_send_addr>:
    1080:	5d05275b          	bfoz	a4,a0,23,16
    1084:	801407b7          	lui	a5,0x80140
    1088:	10e78023          	sb	a4,256(a5) # 80140100 <_DATA_LMA_START+0x6011fe40>
    108c:	801407b7          	lui	a5,0x80140
    1090:	10278783          	lb	a5,258(a5) # 80140102 <_DATA_LMA_START+0x6011fe42>
    1094:	fe07fc5b          	bbs	a5,0,108c <flash_send_addr+0xc>
    1098:	3c8527db          	bfoz	a5,a0,15,8
    109c:	80140737          	lui	a4,0x80140
    10a0:	10f70023          	sb	a5,256(a4) # 80140100 <_DATA_LMA_START+0x6011fe40>
    10a4:	801407b7          	lui	a5,0x80140
    10a8:	10278783          	lb	a5,258(a5) # 80140102 <_DATA_LMA_START+0x6011fe42>
    10ac:	fe07fc5b          	bbs	a5,0,10a4 <flash_send_addr+0x24>
    10b0:	0ff57513          	andi	a0,a0,255
    10b4:	801407b7          	lui	a5,0x80140
    10b8:	10a78023          	sb	a0,256(a5) # 80140100 <_DATA_LMA_START+0x6011fe40>
    10bc:	801407b7          	lui	a5,0x80140
    10c0:	10278783          	lb	a5,258(a5) # 80140102 <_DATA_LMA_START+0x6011fe42>
    10c4:	fe07fc5b          	bbs	a5,0,10bc <flash_send_addr+0x3c>
    10c8:	00008067          	ret

000010cc <flash_send_cmd>:
    10cc:	801407b7          	lui	a5,0x80140
    10d0:	10178703          	lb	a4,257(a5) # 80140101 <_DATA_LMA_START+0x6011fe41>
    10d4:	0ff77713          	andi	a4,a4,255
    10d8:	01076713          	ori	a4,a4,16
    10dc:	10e780a3          	sb	a4,257(a5)
    10e0:	0001                	c.nop
    10e2:	0001                	c.nop
    10e4:	0001                	c.nop
    10e6:	0001                	c.nop
    10e8:	0001                	c.nop
    10ea:	0001                	c.nop
    10ec:	0001                	c.nop
    10ee:	0001                	c.nop
    10f0:	0001                	c.nop
    10f2:	0001                	c.nop
    10f4:	10178703          	lb	a4,257(a5)
    10f8:	0ef77713          	andi	a4,a4,239
    10fc:	10e780a3          	sb	a4,257(a5)
    1100:	10a78023          	sb	a0,256(a5)
    1104:	801407b7          	lui	a5,0x80140
    1108:	10278783          	lb	a5,258(a5) # 80140102 <_DATA_LMA_START+0x6011fe42>
    110c:	fe07fc5b          	bbs	a5,0,1104 <flash_send_cmd+0x38>
    1110:	00008067          	ret

00001114 <flash_wait_done>:
    1114:	1141                	c.addi	sp,-16
    1116:	c606                	c.swsp	ra,12(sp)
    1118:	4515                	c.li	a0,5
    111a:	3f4d                	c.jal	10cc <flash_send_cmd>
    111c:	00000713          	li	a4,0
    1120:	009897b7          	lui	a5,0x989
    1124:	67f78793          	addi	a5,a5,1663 # 98967f <FLASH_SIZE+0x88967f>
    1128:	02e7c463          	blt	a5,a4,1150 <flash_wait_done+0x3c>
    112c:	801407b7          	lui	a5,0x80140
    1130:	10078023          	sb	zero,256(a5) # 80140100 <_DATA_LMA_START+0x6011fe40>
    1134:	801407b7          	lui	a5,0x80140
    1138:	10278783          	lb	a5,258(a5) # 80140102 <_DATA_LMA_START+0x6011fe42>
    113c:	fe07fc5b          	bbs	a5,0,1134 <flash_wait_done+0x20>
    1140:	801407b7          	lui	a5,0x80140
    1144:	10078783          	lb	a5,256(a5) # 80140100 <_DATA_LMA_START+0x6011fe40>
    1148:	0007f45b          	bbc	a5,0,1150 <flash_wait_done+0x3c>
    114c:	0705                	c.addi	a4,1
    114e:	bfc9                	c.j	1120 <flash_wait_done+0xc>
    1150:	80140737          	lui	a4,0x80140
    1154:	10170783          	lb	a5,257(a4) # 80140101 <_DATA_LMA_START+0x6011fe41>
    1158:	0ff7f793          	andi	a5,a5,255
    115c:	0107e793          	ori	a5,a5,16
    1160:	10f700a3          	sb	a5,257(a4)
    1164:	40b2                	c.lwsp	ra,12(sp)
    1166:	0141                	c.addi	sp,16
    1168:	00008067          	ret

0000116c <flash_mspi_read_ram>:
    116c:	1101                	c.addi	sp,-32
    116e:	ce06                	c.swsp	ra,28(sp)
    1170:	cc22                	c.swsp	s0,24(sp)
    1172:	ca26                	c.swsp	s1,20(sp)
    1174:	c84a                	c.swsp	s2,16(sp)
    1176:	c64e                	c.swsp	s3,12(sp)
    1178:	c452                	c.swsp	s4,8(sp)
    117a:	c256                	c.swsp	s5,4(sp)
    117c:	c05a                	c.swsp	s6,0(sp)
    117e:	892a                	c.mv	s2,a0
    1180:	8b2e                	c.mv	s6,a1
    1182:	8ab2                	c.mv	s5,a2
    1184:	8a36                	c.mv	s4,a3
    1186:	843a                	c.mv	s0,a4
    1188:	84be                	c.mv	s1,a5
    118a:	000007b7          	lui	a5,0x0
    118e:	18478793          	addi	a5,a5,388 # 184 <s_flash_preempt_config>
    1192:	0017c583          	lbu	a1,1(a5)
    1196:	0007c503          	lbu	a0,0(a5)
    119a:	2f3010ef          	jal	ra,2c8c <plic_enter_critical_sec>
    119e:	89aa                	c.mv	s3,a0
    11a0:	801407b7          	lui	a5,0x80140
    11a4:	10278783          	lb	a5,258(a5) # 80140102 <_DATA_LMA_START+0x6011fe42>
    11a8:	fe07fc5b          	bbs	a5,0,11a0 <flash_mspi_read_ram+0x34>
    11ac:	80140737          	lui	a4,0x80140
    11b0:	10170783          	lb	a5,257(a4) # 80140101 <_DATA_LMA_START+0x6011fe41>
    11b4:	0ff7f793          	andi	a5,a5,255
    11b8:	0107e793          	ori	a5,a5,16
    11bc:	10f700a3          	sb	a5,257(a4)
    11c0:	801407b7          	lui	a5,0x80140
    11c4:	32878783          	lb	a5,808(a5) # 80140328 <_DATA_LMA_START+0x60120068>
    11c8:	be37fc5b          	bbc	a5,3,11c0 <flash_mspi_read_ram+0x54>
    11cc:	801407b7          	lui	a5,0x80140
    11d0:	10178703          	lb	a4,257(a5) # 80140101 <_DATA_LMA_START+0x6011fe41>
    11d4:	0fd77713          	andi	a4,a4,253
    11d8:	10e780a3          	sb	a4,257(a5)
    11dc:	10178703          	lb	a4,257(a5)
    11e0:	0f377713          	andi	a4,a4,243
    11e4:	10e780a3          	sb	a4,257(a5)
    11e8:	854a                	c.mv	a0,s2
    11ea:	35cd                	c.jal	10cc <flash_send_cmd>
    11ec:	0eb00793          	li	a5,235
    11f0:	00f90663          	beq	s2,a5,11fc <flash_mspi_read_ram+0x90>
    11f4:	020a9263          	bnez	s5,1218 <flash_mspi_read_ram+0xac>
    11f8:	4701                	c.li	a4,0
    11fa:	a83d                	c.j	1238 <flash_mspi_read_ram+0xcc>
    11fc:	80140737          	lui	a4,0x80140
    1200:	10170783          	lb	a5,257(a4) # 80140101 <_DATA_LMA_START+0x6011fe41>
    1204:	1c07b7db          	bfos	a5,a5,7,0
    1208:	00c7e793          	ori	a5,a5,12
    120c:	0ff7f793          	andi	a5,a5,255
    1210:	10f700a3          	sb	a5,257(a4)
    1214:	fe1ff06f          	j	11f4 <flash_mspi_read_ram+0x88>
    1218:	855a                	c.mv	a0,s6
    121a:	359d                	c.jal	1080 <flash_send_addr>
    121c:	fddff06f          	j	11f8 <flash_mspi_read_ram+0x8c>
    1220:	801407b7          	lui	a5,0x80140
    1224:	10078023          	sb	zero,256(a5) # 80140100 <_DATA_LMA_START+0x6011fe40>
    1228:	801407b7          	lui	a5,0x80140
    122c:	10278783          	lb	a5,258(a5) # 80140102 <_DATA_LMA_START+0x6011fe42>
    1230:	fe07fc5b          	bbs	a5,0,1228 <flash_mspi_read_ram+0xbc>
    1234:	00170713          	addi	a4,a4,1
    1238:	ff4764e3          	bltu	a4,s4,1220 <flash_mspi_read_ram+0xb4>
    123c:	05b956db          	beqc	s2,59,1288 <flash_mspi_read_ram+0x11c>
    1240:	80140737          	lui	a4,0x80140
    1244:	10170783          	lb	a5,257(a4) # 80140101 <_DATA_LMA_START+0x6011fe41>
    1248:	0ff7f793          	andi	a5,a5,255
    124c:	0027e793          	ori	a5,a5,2
    1250:	10f700a3          	sb	a5,257(a4)
    1254:	10070023          	sb	zero,256(a4)
    1258:	801407b7          	lui	a5,0x80140
    125c:	10278783          	lb	a5,258(a5) # 80140102 <_DATA_LMA_START+0x6011fe42>
    1260:	fe07fc5b          	bbs	a5,0,1258 <flash_mspi_read_ram+0xec>
    1264:	80140737          	lui	a4,0x80140
    1268:	10170783          	lb	a5,257(a4) # 80140101 <_DATA_LMA_START+0x6011fe41>
    126c:	0ff7f793          	andi	a5,a5,255
    1270:	0017e793          	ori	a5,a5,1
    1274:	10f700a3          	sb	a5,257(a4)
    1278:	801407b7          	lui	a5,0x80140
    127c:	10278783          	lb	a5,258(a5) # 80140102 <_DATA_LMA_START+0x6011fe42>
    1280:	fe07fc5b          	bbs	a5,0,1278 <flash_mspi_read_ram+0x10c>
    1284:	4701                	c.li	a4,0
    1286:	a83d                	c.j	12c4 <flash_mspi_read_ram+0x158>
    1288:	80140737          	lui	a4,0x80140
    128c:	10170783          	lb	a5,257(a4) # 80140101 <_DATA_LMA_START+0x6011fe41>
    1290:	1c07b7db          	bfos	a5,a5,7,0
    1294:	9bcd                	c.andi	a5,-13
    1296:	0047e793          	ori	a5,a5,4
    129a:	0ff7f793          	andi	a5,a5,255
    129e:	10f700a3          	sb	a5,257(a4)
    12a2:	bf79                	c.j	1240 <flash_mspi_read_ram+0xd4>
    12a4:	00140693          	addi	a3,s0,1
    12a8:	801407b7          	lui	a5,0x80140
    12ac:	10078783          	lb	a5,256(a5) # 80140100 <_DATA_LMA_START+0x6011fe40>
    12b0:	00f40023          	sb	a5,0(s0)
    12b4:	801407b7          	lui	a5,0x80140
    12b8:	10278783          	lb	a5,258(a5) # 80140102 <_DATA_LMA_START+0x6011fe42>
    12bc:	fe07fc5b          	bbs	a5,0,12b4 <flash_mspi_read_ram+0x148>
    12c0:	0705                	c.addi	a4,1
    12c2:	8436                	c.mv	s0,a3
    12c4:	fe9760e3          	bltu	a4,s1,12a4 <flash_mspi_read_ram+0x138>
    12c8:	80140737          	lui	a4,0x80140
    12cc:	10170783          	lb	a5,257(a4) # 80140101 <_DATA_LMA_START+0x6011fe41>
    12d0:	0fe7f793          	andi	a5,a5,254
    12d4:	10f700a3          	sb	a5,257(a4)
    12d8:	0eb00793          	li	a5,235
    12dc:	00f90463          	beq	s2,a5,12e4 <flash_mspi_read_ram+0x178>
    12e0:	01b96adb          	bnec	s2,59,12f4 <flash_mspi_read_ram+0x188>
    12e4:	80140737          	lui	a4,0x80140
    12e8:	10170783          	lb	a5,257(a4) # 80140101 <_DATA_LMA_START+0x6011fe41>
    12ec:	0f37f793          	andi	a5,a5,243
    12f0:	10f700a3          	sb	a5,257(a4)
    12f4:	80140737          	lui	a4,0x80140
    12f8:	10170783          	lb	a5,257(a4) # 80140101 <_DATA_LMA_START+0x6011fe41>
    12fc:	0ff7f793          	andi	a5,a5,255
    1300:	0107e793          	ori	a5,a5,16
    1304:	10f700a3          	sb	a5,257(a4)
    1308:	0001                	c.nop
    130a:	0001                	c.nop
    130c:	0001                	c.nop
    130e:	0001                	c.nop
    1310:	0001                	c.nop
    1312:	85ce                	c.mv	a1,s3
    1314:	000007b7          	lui	a5,0x0
    1318:	1847c503          	lbu	a0,388(a5) # 184 <s_flash_preempt_config>
    131c:	119010ef          	jal	ra,2c34 <plic_exit_critical_sec>
    1320:	40f2                	c.lwsp	ra,28(sp)
    1322:	4462                	c.lwsp	s0,24(sp)
    1324:	44d2                	c.lwsp	s1,20(sp)
    1326:	4942                	c.lwsp	s2,16(sp)
    1328:	49b2                	c.lwsp	s3,12(sp)
    132a:	4a22                	c.lwsp	s4,8(sp)
    132c:	4a92                	c.lwsp	s5,4(sp)
    132e:	4b02                	c.lwsp	s6,0(sp)
    1330:	6105                	c.addi16sp	sp,32
    1332:	8082                	c.jr	ra

00001334 <flash_mspi_write_ram>:
    1334:	1101                	c.addi	sp,-32
    1336:	ce06                	c.swsp	ra,28(sp)
    1338:	cc22                	c.swsp	s0,24(sp)
    133a:	ca26                	c.swsp	s1,20(sp)
    133c:	c84a                	c.swsp	s2,16(sp)
    133e:	c64e                	c.swsp	s3,12(sp)
    1340:	c452                	c.swsp	s4,8(sp)
    1342:	c256                	c.swsp	s5,4(sp)
    1344:	892a                	c.mv	s2,a0
    1346:	8aae                	c.mv	s5,a1
    1348:	8a32                	c.mv	s4,a2
    134a:	84b6                	c.mv	s1,a3
    134c:	843a                	c.mv	s0,a4
    134e:	000007b7          	lui	a5,0x0
    1352:	18478793          	addi	a5,a5,388 # 184 <s_flash_preempt_config>
    1356:	0017c583          	lbu	a1,1(a5)
    135a:	0007c503          	lbu	a0,0(a5)
    135e:	12f010ef          	jal	ra,2c8c <plic_enter_critical_sec>
    1362:	89aa                	c.mv	s3,a0
    1364:	801407b7          	lui	a5,0x80140
    1368:	10278783          	lb	a5,258(a5) # 80140102 <_DATA_LMA_START+0x6011fe42>
    136c:	fe07fc5b          	bbs	a5,0,1364 <flash_mspi_write_ram+0x30>
    1370:	80140737          	lui	a4,0x80140
    1374:	10170783          	lb	a5,257(a4) # 80140101 <_DATA_LMA_START+0x6011fe41>
    1378:	0ff7f793          	andi	a5,a5,255
    137c:	0107e793          	ori	a5,a5,16
    1380:	10f700a3          	sb	a5,257(a4)
    1384:	801407b7          	lui	a5,0x80140
    1388:	32878783          	lb	a5,808(a5) # 80140328 <_DATA_LMA_START+0x60120068>
    138c:	be37fc5b          	bbc	a5,3,1384 <flash_mspi_write_ram+0x50>
    1390:	801407b7          	lui	a5,0x80140
    1394:	10178703          	lb	a4,257(a5) # 80140101 <_DATA_LMA_START+0x6011fe41>
    1398:	0fd77713          	andi	a4,a4,253
    139c:	10e780a3          	sb	a4,257(a5)
    13a0:	10178703          	lb	a4,257(a5)
    13a4:	0f377713          	andi	a4,a4,243
    13a8:	10e780a3          	sb	a4,257(a5)
    13ac:	4519                	c.li	a0,6
    13ae:	3b39                	c.jal	10cc <flash_send_cmd>
    13b0:	854a                	c.mv	a0,s2
    13b2:	3b29                	c.jal	10cc <flash_send_cmd>
    13b4:	000a1663          	bnez	s4,13c0 <flash_mspi_write_ram+0x8c>
    13b8:	012958db          	beqc	s2,50,13c8 <flash_mspi_write_ram+0x94>
    13bc:	4701                	c.li	a4,0
    13be:	a099                	c.j	1404 <flash_mspi_write_ram+0xd0>
    13c0:	8556                	c.mv	a0,s5
    13c2:	397d                	c.jal	1080 <flash_send_addr>
    13c4:	ff5ff06f          	j	13b8 <flash_mspi_write_ram+0x84>
    13c8:	80140737          	lui	a4,0x80140
    13cc:	10170783          	lb	a5,257(a4) # 80140101 <_DATA_LMA_START+0x6011fe41>
    13d0:	1c07b7db          	bfos	a5,a5,7,0
    13d4:	00c7e793          	ori	a5,a5,12
    13d8:	0ff7f793          	andi	a5,a5,255
    13dc:	10f700a3          	sb	a5,257(a4)
    13e0:	fddff06f          	j	13bc <flash_mspi_write_ram+0x88>
    13e4:	00e487b3          	add	a5,s1,a4
    13e8:	0007c683          	lbu	a3,0(a5)
    13ec:	801407b7          	lui	a5,0x80140
    13f0:	10d78023          	sb	a3,256(a5) # 80140100 <_DATA_LMA_START+0x6011fe40>
    13f4:	801407b7          	lui	a5,0x80140
    13f8:	10278783          	lb	a5,258(a5) # 80140102 <_DATA_LMA_START+0x6011fe42>
    13fc:	fe07fc5b          	bbs	a5,0,13f4 <flash_mspi_write_ram+0xc0>
    1400:	00170713          	addi	a4,a4,1
    1404:	fe8760e3          	bltu	a4,s0,13e4 <flash_mspi_write_ram+0xb0>
    1408:	80140737          	lui	a4,0x80140
    140c:	10170783          	lb	a5,257(a4) # 80140101 <_DATA_LMA_START+0x6011fe41>
    1410:	0ff7f793          	andi	a5,a5,255
    1414:	0107e793          	ori	a5,a5,16
    1418:	10f700a3          	sb	a5,257(a4)
    141c:	032958db          	beqc	s2,50,144c <flash_mspi_write_ram+0x118>
    1420:	39d5                	c.jal	1114 <flash_wait_done>
    1422:	0001                	c.nop
    1424:	0001                	c.nop
    1426:	0001                	c.nop
    1428:	0001                	c.nop
    142a:	0001                	c.nop
    142c:	85ce                	c.mv	a1,s3
    142e:	000007b7          	lui	a5,0x0
    1432:	1847c503          	lbu	a0,388(a5) # 184 <s_flash_preempt_config>
    1436:	7fe010ef          	jal	ra,2c34 <plic_exit_critical_sec>
    143a:	40f2                	c.lwsp	ra,28(sp)
    143c:	4462                	c.lwsp	s0,24(sp)
    143e:	44d2                	c.lwsp	s1,20(sp)
    1440:	4942                	c.lwsp	s2,16(sp)
    1442:	49b2                	c.lwsp	s3,12(sp)
    1444:	4a22                	c.lwsp	s4,8(sp)
    1446:	4a92                	c.lwsp	s5,4(sp)
    1448:	6105                	c.addi16sp	sp,32
    144a:	8082                	c.jr	ra
    144c:	10170783          	lb	a5,257(a4)
    1450:	0f37f793          	andi	a5,a5,243
    1454:	10f700a3          	sb	a5,257(a4)
    1458:	fc9ff06f          	j	1420 <flash_mspi_write_ram+0xec>

0000145c <flash_set_xip_config_sram>:
    145c:	1141                	c.addi	sp,-16
    145e:	c606                	c.swsp	ra,12(sp)
    1460:	c422                	c.swsp	s0,8(sp)
    1462:	842a                	c.mv	s0,a0
    1464:	000007b7          	lui	a5,0x0
    1468:	18478793          	addi	a5,a5,388 # 184 <s_flash_preempt_config>
    146c:	0017c583          	lbu	a1,1(a5)
    1470:	0007c503          	lbu	a0,0(a5)
    1474:	019010ef          	jal	ra,2c8c <plic_enter_critical_sec>
    1478:	00a005b3          	add	a1,zero,a0
    147c:	801407b7          	lui	a5,0x80140
    1480:	10278783          	lb	a5,258(a5) # 80140102 <_DATA_LMA_START+0x6011fe42>
    1484:	fe07fc5b          	bbs	a5,0,147c <flash_set_xip_config_sram+0x20>
    1488:	80140737          	lui	a4,0x80140
    148c:	10170783          	lb	a5,257(a4) # 80140101 <_DATA_LMA_START+0x6011fe41>
    1490:	0ff7f793          	andi	a5,a5,255
    1494:	0107e793          	ori	a5,a5,16
    1498:	10f700a3          	sb	a5,257(a4)
    149c:	801407b7          	lui	a5,0x80140
    14a0:	32878783          	lb	a5,808(a5) # 80140328 <_DATA_LMA_START+0x60120068>
    14a4:	be37fc5b          	bbc	a5,3,149c <flash_set_xip_config_sram+0x40>
    14a8:	801407b7          	lui	a5,0x80140
    14ac:	10879323          	sh	s0,262(a5) # 80140106 <_DATA_LMA_START+0x6011fe46>
    14b0:	0001                	c.nop
    14b2:	0001                	c.nop
    14b4:	0001                	c.nop
    14b6:	0001                	c.nop
    14b8:	0001                	c.nop
    14ba:	000007b7          	lui	a5,0x0
    14be:	1847c503          	lbu	a0,388(a5) # 184 <s_flash_preempt_config>
    14c2:	772010ef          	jal	ra,2c34 <plic_exit_critical_sec>
    14c6:	40b2                	c.lwsp	ra,12(sp)
    14c8:	4422                	c.lwsp	s0,8(sp)
    14ca:	0141                	c.addi	sp,16
    14cc:	8082                	c.jr	ra
	...

000014d0 <mtime_set_value>:
    14d0:	e60007b7          	lui	a5,0xe6000
    14d4:	0007a023          	sw	zero,0(a5) # e6000000 <_DATA_LMA_START+0xc5fdfd40>
    14d8:	c3cc                	c.sw	a1,4(a5)
    14da:	c388                	c.sw	a0,0(a5)
    14dc:	00008067          	ret

000014e0 <mtime_get_value>:
    14e0:	e60007b7          	lui	a5,0xe6000
    14e4:	43cc                	c.lw	a1,4(a5)
    14e6:	4388                	c.lw	a0,0(a5)
    14e8:	43dc                	c.lw	a5,4(a5)
    14ea:	feb79be3          	bne	a5,a1,14e0 <mtime_get_value>
    14ee:	8082                	c.jr	ra

000014f0 <mtime_set_cmp_value>:
    14f0:	e60007b7          	lui	a5,0xe6000
    14f4:	577d                	c.li	a4,-1
    14f6:	c798                	c.sw	a4,8(a5)
    14f8:	c7cc                	c.sw	a1,12(a5)
    14fa:	c788                	c.sw	a0,8(a5)
    14fc:	00008067          	ret

00001500 <mtime_set_interval_ms>:
    1500:	1101                	c.addi	sp,-32
    1502:	ce06                	c.swsp	ra,28(sp)
    1504:	cc22                	c.swsp	s0,24(sp)
    1506:	ca26                	c.swsp	s1,20(sp)
    1508:	c84a                	c.swsp	s2,16(sp)
    150a:	c64e                	c.swsp	s3,12(sp)
    150c:	842a                	c.mv	s0,a0
    150e:	84ae                	c.mv	s1,a1
    1510:	3fc1                	c.jal	14e0 <mtime_get_value>
    1512:	892a                	c.mv	s2,a0
    1514:	89ae                	c.mv	s3,a1
    1516:	a63fa7ab          	lwgp	a5,-1440 # 80260 <mtime_clock_source>
    151a:	f087957f          	mulr64	a0,a5,s0
    151e:	c4f495ff          	maddr32	a1,s1,a5
    1522:	3e800613          	li	a2,1000
    1526:	4681                	c.li	a3,0
    1528:	20007097          	auipc	ra,0x20007
    152c:	f3c080e7          	jalr	-196(ra) # 20008464 <__udivdi3>
    1530:	c0a9157f          	add64	a0,s2,a0
    1534:	3f75                	c.jal	14f0 <mtime_set_cmp_value>
    1536:	40f2                	c.lwsp	ra,28(sp)
    1538:	4462                	c.lwsp	s0,24(sp)
    153a:	44d2                	c.lwsp	s1,20(sp)
    153c:	4942                	c.lwsp	s2,16(sp)
    153e:	49b2                	c.lwsp	s3,12(sp)
    1540:	6105                	c.addi16sp	sp,32
    1542:	8082                	c.jr	ra
    1544:	0001                	c.nop
	...

00001548 <spi_set_tx_dma>:
    1548:	1215565b          	beqc	a0,1,1674 <spi_set_tx_dma+0x12c>
    154c:	adffa88b          	lbugp	a7,-1314 # 802de <s_pspi_tx_dma_chn>
    1550:	01ec0e37          	lui	t3,0x1ec0
    1554:	f80e0813          	addi	a6,t3,-128 # 1ebff80 <FLASH_SIZE+0x1dbff80>
    1558:	03050833          	mul	a6,a0,a6
    155c:	001407b7          	lui	a5,0x140
    1560:	04f78693          	addi	a3,a5,79 # 14004f <FLASH_SIZE+0x4004f>
    1564:	96c2                	c.add	a3,a6
    1566:	80000337          	lui	t1,0x80000
    156a:	0066e6b3          	or	a3,a3,t1
    156e:	00068703          	lb	a4,0(a3) # 80000000 <_DATA_LMA_START+0x5ffdfd40>
    1572:	1c07375b          	bfos	a4,a4,7,0
    1576:	f8f77713          	andi	a4,a4,-113
    157a:	04076713          	ori	a4,a4,64
    157e:	0ff77713          	andi	a4,a4,255
    1582:	00e68023          	sb	a4,0(a3)
    1586:	fff60713          	addi	a4,a2,-1 # 7fffffff <_DATA_LMA_START+0x5ffdfd3f>
    158a:	f8ee0e13          	addi	t3,t3,-114
    158e:	03c50533          	mul	a0,a0,t3
    1592:	05378693          	addi	a3,a5,83
    1596:	96aa                	c.add	a3,a0
    1598:	0066e6b3          	or	a3,a3,t1
    159c:	5d072e5b          	bfoz	t3,a4,23,16
    15a0:	01c68023          	sb	t3,0(a3)
    15a4:	05278693          	addi	a3,a5,82
    15a8:	9536                	c.add	a0,a3
    15aa:	00656533          	or	a0,a0,t1
    15ae:	3c87275b          	bfoz	a4,a4,15,8
    15b2:	00e50023          	sb	a4,0(a0)
    15b6:	04378713          	addi	a4,a5,67
    15ba:	9742                	c.add	a4,a6
    15bc:	00676733          	or	a4,a4,t1
    15c0:	fff60693          	addi	a3,a2,-1
    15c4:	0ff6f693          	andi	a3,a3,255
    15c8:	00d70023          	sb	a3,0(a4)
    15cc:	04778793          	addi	a5,a5,71
    15d0:	97c2                	c.add	a5,a6
    15d2:	0067e7b3          	or	a5,a5,t1
    15d6:	00078703          	lb	a4,0(a5)
    15da:	f8076713          	ori	a4,a4,-128
    15de:	0ff77713          	andi	a4,a4,255
    15e2:	00e78023          	sb	a4,0(a5)
    15e6:	852e                	c.mv	a0,a1
    15e8:	80140737          	lui	a4,0x80140
    15ec:	04870713          	addi	a4,a4,72 # 80140048 <_DATA_LMA_START+0x6011fd88>
    15f0:	9742                	c.add	a4,a6
    15f2:	000a07b7          	lui	a5,0xa0
    15f6:	00f5f563          	bgeu	a1,a5,1600 <spi_set_tx_dma+0xb8>
    15fa:	c0180537          	lui	a0,0xc0180
    15fe:	952e                	c.add	a0,a1
    1600:	47d1                	c.li	a5,20
    1602:	02f887b3          	mul	a5,a7,a5
    1606:	001006b7          	lui	a3,0x100
    160a:	44868693          	addi	a3,a3,1096 # 100448 <FLASH_SIZE+0x448>
    160e:	96be                	c.add	a3,a5
    1610:	800005b7          	lui	a1,0x80000
    1614:	8ecd                	c.or	a3,a1
    1616:	c288                	c.sw	a0,0(a3)
    1618:	000a06b7          	lui	a3,0xa0
    161c:	00d77863          	bgeu	a4,a3,162c <spi_set_tx_dma+0xe4>
    1620:	402c0737          	lui	a4,0x402c0
    1624:	04870713          	addi	a4,a4,72 # 402c0048 <_DATA_LMA_START+0x2029fd88>
    1628:	01070733          	add	a4,a4,a6
    162c:	001006b7          	lui	a3,0x100
    1630:	44c68593          	addi	a1,a3,1100 # 10044c <FLASH_SIZE+0x44c>
    1634:	95be                	c.add	a1,a5
    1636:	80000537          	lui	a0,0x80000
    163a:	8dc9                	c.or	a1,a0
    163c:	c198                	c.sw	a4,0(a1)
    163e:	00360593          	addi	a1,a2,3
    1642:	8189                	c.srli	a1,0x2
    1644:	065a                	c.slli	a2,0x16
    1646:	00c00737          	lui	a4,0xc00
    164a:	8e79                	c.and	a2,a4
    164c:	45068713          	addi	a4,a3,1104
    1650:	973e                	c.add	a4,a5
    1652:	8f49                	c.or	a4,a0
    1654:	8e4d                	c.or	a2,a1
    1656:	c310                	c.sw	a2,0(a4)
    1658:	44468693          	addi	a3,a3,1092
    165c:	97b6                	c.add	a5,a3
    165e:	8fc9                	c.or	a5,a0
    1660:	00078703          	lb	a4,0(a5) # a0000 <_STACK_TOP>
    1664:	0ff77713          	andi	a4,a4,255
    1668:	00176713          	ori	a4,a4,1
    166c:	00e78023          	sb	a4,0(a5)
    1670:	00008067          	ret
    1674:	ae1fa88b          	lbugp	a7,-1312 # 802e0 <s_hspi_tx_dma_chn>
    1678:	ed9ff06f          	j	1550 <spi_set_tx_dma+0x8>

0000167c <spi_set_rx_dma>:
    167c:	0e15545b          	beqc	a0,1,1764 <spi_set_rx_dma+0xe8>
    1680:	addfe78b          	lbugp	a5,-1315 # 802dd <s_pspi_rx_dma_chn>
    1684:	01ec0737          	lui	a4,0x1ec0
    1688:	f8070713          	addi	a4,a4,-128 # 1ebff80 <FLASH_SIZE+0x1dbff80>
    168c:	02e50533          	mul	a0,a0,a4
    1690:	001406b7          	lui	a3,0x140
    1694:	04f68893          	addi	a7,a3,79 # 14004f <FLASH_SIZE+0x4004f>
    1698:	98aa                	c.add	a7,a0
    169a:	80000337          	lui	t1,0x80000
    169e:	0068e8b3          	or	a7,a7,t1
    16a2:	00088803          	lb	a6,0(a7)
    16a6:	1c08385b          	bfos	a6,a6,7,0
    16aa:	f8f87813          	andi	a6,a6,-113
    16ae:	05086813          	ori	a6,a6,80
    16b2:	0ff87813          	andi	a6,a6,255
    16b6:	01088023          	sb	a6,0(a7)
    16ba:	04768713          	addi	a4,a3,71
    16be:	972a                	c.add	a4,a0
    16c0:	00676733          	or	a4,a4,t1
    16c4:	00070683          	lb	a3,0(a4)
    16c8:	0ff6f693          	andi	a3,a3,255
    16cc:	0406e693          	ori	a3,a3,64
    16d0:	00d70023          	sb	a3,0(a4)
    16d4:	80140737          	lui	a4,0x80140
    16d8:	04870713          	addi	a4,a4,72 # 80140048 <_DATA_LMA_START+0x6011fd88>
    16dc:	972a                	c.add	a4,a0
    16de:	882e                	c.mv	a6,a1
    16e0:	000a06b7          	lui	a3,0xa0
    16e4:	00d77863          	bgeu	a4,a3,16f4 <spi_set_rx_dma+0x78>
    16e8:	402c0737          	lui	a4,0x402c0
    16ec:	04870713          	addi	a4,a4,72 # 402c0048 <_DATA_LMA_START+0x2029fd88>
    16f0:	00a70733          	add	a4,a4,a0
    16f4:	46d1                	c.li	a3,20
    16f6:	02d787b3          	mul	a5,a5,a3
    16fa:	001006b7          	lui	a3,0x100
    16fe:	44868693          	addi	a3,a3,1096 # 100448 <FLASH_SIZE+0x448>
    1702:	96be                	c.add	a3,a5
    1704:	80000537          	lui	a0,0x80000
    1708:	8ec9                	c.or	a3,a0
    170a:	c298                	c.sw	a4,0(a3)
    170c:	000a0737          	lui	a4,0xa0
    1710:	00e87663          	bgeu	a6,a4,171c <spi_set_rx_dma+0xa0>
    1714:	c0180837          	lui	a6,0xc0180
    1718:	00b80833          	add	a6,a6,a1
    171c:	00100737          	lui	a4,0x100
    1720:	44c70693          	addi	a3,a4,1100 # 10044c <FLASH_SIZE+0x44c>
    1724:	96be                	c.add	a3,a5
    1726:	80000537          	lui	a0,0x80000
    172a:	8ec9                	c.or	a3,a0
    172c:	0106a023          	sw	a6,0(a3)
    1730:	00360593          	addi	a1,a2,3
    1734:	8189                	c.srli	a1,0x2
    1736:	065a                	c.slli	a2,0x16
    1738:	00c006b7          	lui	a3,0xc00
    173c:	8e75                	c.and	a2,a3
    173e:	45070693          	addi	a3,a4,1104
    1742:	96be                	c.add	a3,a5
    1744:	8ec9                	c.or	a3,a0
    1746:	8e4d                	c.or	a2,a1
    1748:	c290                	c.sw	a2,0(a3)
    174a:	44470713          	addi	a4,a4,1092
    174e:	97ba                	c.add	a5,a4
    1750:	8fc9                	c.or	a5,a0
    1752:	00078703          	lb	a4,0(a5)
    1756:	0ff77713          	andi	a4,a4,255
    175a:	00176713          	ori	a4,a4,1
    175e:	00e78023          	sb	a4,0(a5)
    1762:	8082                	c.jr	ra
    1764:	adffe78b          	lbugp	a5,-1313 # 802df <s_hspi_rx_dma_chn>
    1768:	f1dff06f          	j	1684 <spi_set_rx_dma+0x8>

0000176c <hspi_master_write_xip>:
    176c:	82000837          	lui	a6,0x82000
    1770:	fd880783          	lb	a5,-40(a6) # 81ffffd8 <_DATA_LMA_START+0x61fdfd18>
    1774:	1c07b7db          	bfos	a5,a5,7,0
    1778:	9bc1                	c.andi	a5,-16
    177a:	8b3d                	c.andi	a4,15
    177c:	8fd9                	c.or	a5,a4
    177e:	0ff7f793          	andi	a5,a5,255
    1782:	fcf80c23          	sb	a5,-40(a6)
    1786:	0ff5f793          	andi	a5,a1,255
    178a:	fcf80ca3          	sb	a5,-39(a6)
    178e:	3c85a7db          	bfoz	a5,a1,15,8
    1792:	fcf80d23          	sb	a5,-38(a6)
    1796:	5d05a7db          	bfoz	a5,a1,23,16
    179a:	fcf80da3          	sb	a5,-37(a6)
    179e:	81e1                	c.srli	a1,0x18
    17a0:	fcb80e23          	sb	a1,-36(a6)
    17a4:	fca80aa3          	sb	a0,-43(a6)
    17a8:	4701                	c.li	a4,0
    17aa:	a839                	c.j	17c8 <hspi_master_write_xip+0x5c>
    17ac:	00e605b3          	add	a1,a2,a4
    17b0:	010007b7          	lui	a5,0x1000
    17b4:	97ba                	c.add	a5,a4
    17b6:	80000537          	lui	a0,0x80000
    17ba:	8fc9                	c.or	a5,a0
    17bc:	0005c583          	lbu	a1,0(a1) # 80000000 <_DATA_LMA_START+0x5ffdfd40>
    17c0:	00b78023          	sb	a1,0(a5) # 1000000 <FLASH_SIZE+0xf00000>
    17c4:	00170713          	addi	a4,a4,1
    17c8:	fed762e3          	bltu	a4,a3,17ac <hspi_master_write_xip+0x40>
    17cc:	00008067          	ret

000017d0 <hspi_master_read_xip>:
    17d0:	820007b7          	lui	a5,0x82000
    17d4:	fd878803          	lb	a6,-40(a5) # 81ffffd8 <_DATA_LMA_START+0x61fdfd18>
    17d8:	00f87813          	andi	a6,a6,15
    17dc:	0712                	c.slli	a4,0x4
    17de:	00e86833          	or	a6,a6,a4
    17e2:	0ff87813          	andi	a6,a6,255
    17e6:	fd078c23          	sb	a6,-40(a5)
    17ea:	0ff5f713          	andi	a4,a1,255
    17ee:	fce78ca3          	sb	a4,-39(a5)
    17f2:	3c85a75b          	bfoz	a4,a1,15,8
    17f6:	fce78d23          	sb	a4,-38(a5)
    17fa:	5d05a75b          	bfoz	a4,a1,23,16
    17fe:	fce78da3          	sb	a4,-37(a5)
    1802:	81e1                	c.srli	a1,0x18
    1804:	fcb78e23          	sb	a1,-36(a5)
    1808:	fca78b23          	sb	a0,-42(a5)
    180c:	4701                	c.li	a4,0
    180e:	a839                	c.j	182c <hspi_master_read_xip+0x5c>
    1810:	010007b7          	lui	a5,0x1000
    1814:	97ba                	c.add	a5,a4
    1816:	800005b7          	lui	a1,0x80000
    181a:	8fcd                	c.or	a5,a1
    181c:	00e605b3          	add	a1,a2,a4
    1820:	00078783          	lb	a5,0(a5) # 1000000 <FLASH_SIZE+0xf00000>
    1824:	00f58023          	sb	a5,0(a1) # 80000000 <_DATA_LMA_START+0x5ffdfd40>
    1828:	00170713          	addi	a4,a4,1
    182c:	fed762e3          	bltu	a4,a3,1810 <hspi_master_read_xip+0x40>
    1830:	8082                	c.jr	ra
	...

00001834 <delay_us>:
    1834:	801407b7          	lui	a5,0x80140
    1838:	2007a683          	lw	a3,512(a5) # 80140200 <_DATA_LMA_START+0x6011ff40>
    183c:	801407b7          	lui	a5,0x80140
    1840:	2007a783          	lw	a5,512(a5) # 80140200 <_DATA_LMA_START+0x6011ff40>
    1844:	8f95                	c.sub	a5,a3
    1846:	00451713          	slli	a4,a0,0x4
    184a:	fef779e3          	bgeu	a4,a5,183c <delay_us+0x8>
    184e:	8082                	c.jr	ra

00001850 <delay_ms>:
    1850:	801407b7          	lui	a5,0x80140
    1854:	2007a683          	lw	a3,512(a5) # 80140200 <_DATA_LMA_START+0x6011ff40>
    1858:	3e800793          	li	a5,1000
    185c:	02f507b3          	mul	a5,a0,a5
    1860:	80140737          	lui	a4,0x80140
    1864:	20072703          	lw	a4,512(a4) # 80140200 <_DATA_LMA_START+0x6011ff40>
    1868:	8f15                	c.sub	a4,a3
    186a:	0792                	c.slli	a5,0x4
    186c:	fee7f6e3          	bgeu	a5,a4,1858 <delay_ms+0x8>
    1870:	8082                	c.jr	ra
    1872:	0001                	c.nop

00001874 <trap_entry>:
    1874:	7135                	c.addi16sp	sp,-160
    1876:	cf06                	c.swsp	ra,156(sp)
    1878:	cd16                	c.swsp	t0,152(sp)
    187a:	cb1a                	c.swsp	t1,148(sp)
    187c:	c91e                	c.swsp	t2,144(sp)
    187e:	c722                	c.swsp	s0,140(sp)
    1880:	c526                	c.swsp	s1,136(sp)
    1882:	c32a                	c.swsp	a0,132(sp)
    1884:	c12e                	c.swsp	a1,128(sp)
    1886:	deb2                	c.swsp	a2,124(sp)
    1888:	dcb6                	c.swsp	a3,120(sp)
    188a:	daba                	c.swsp	a4,116(sp)
    188c:	d8be                	c.swsp	a5,112(sp)
    188e:	d6c2                	c.swsp	a6,108(sp)
    1890:	d4c6                	c.swsp	a7,104(sp)
    1892:	d2ca                	c.swsp	s2,100(sp)
    1894:	d0f2                	c.swsp	t3,96(sp)
    1896:	cef6                	c.swsp	t4,92(sp)
    1898:	ccfa                	c.swsp	t5,88(sp)
    189a:	cafe                	c.swsp	t6,84(sp)
    189c:	e682                	c.fswsp	ft0,76(sp)
    189e:	e486                	c.fswsp	ft1,72(sp)
    18a0:	e28a                	c.fswsp	ft2,68(sp)
    18a2:	e08e                	c.fswsp	ft3,64(sp)
    18a4:	fe12                	c.fswsp	ft4,60(sp)
    18a6:	fc16                	c.fswsp	ft5,56(sp)
    18a8:	fa1a                	c.fswsp	ft6,52(sp)
    18aa:	f81e                	c.fswsp	ft7,48(sp)
    18ac:	f62a                	c.fswsp	fa0,44(sp)
    18ae:	f42e                	c.fswsp	fa1,40(sp)
    18b0:	f232                	c.fswsp	fa2,36(sp)
    18b2:	f036                	c.fswsp	fa3,32(sp)
    18b4:	ee3a                	c.fswsp	fa4,28(sp)
    18b6:	ec3e                	c.fswsp	fa5,24(sp)
    18b8:	ea42                	c.fswsp	fa6,20(sp)
    18ba:	e846                	c.fswsp	fa7,16(sp)
    18bc:	e672                	c.fswsp	ft8,12(sp)
    18be:	e476                	c.fswsp	ft9,8(sp)
    18c0:	e27a                	c.fswsp	ft10,4(sp)
    18c2:	e07e                	c.fswsp	ft11,0(sp)
    18c4:	34202773          	csrr	a4,mcause
    18c8:	86ba                	c.mv	a3,a4
    18ca:	000007b7          	lui	a5,0x0
    18ce:	1dc78783          	lb	a5,476(a5) # 1dc <g_plic_preempt_en>
    18d2:	0ff7f793          	andi	a5,a5,255
    18d6:	cbd9                	c.beqz	a5,196c <trap_entry+0xf8>
    18d8:	341024f3          	csrr	s1,mepc
    18dc:	30002973          	csrr	s2,mstatus
    18e0:	7c402473          	csrr	s0,mxstatus
    18e4:	0806c863          	bltz	a3,1974 <trap_entry+0x100>
    18e8:	0006d663          	bgez	a3,18f4 <trap_entry+0x80>
    18ec:	7807275b          	bfoz	a4,a4,30,0
    18f0:	0c37565b          	beqc	a4,3,19bc <trap_entry+0x148>
    18f4:	20005097          	auipc	ra,0x20005
    18f8:	344080e7          	jalr	836(ra) # 20006c38 <except_handler>
    18fc:	000007b7          	lui	a5,0x0
    1900:	1dc78783          	lb	a5,476(a5) # 1dc <g_plic_preempt_en>
    1904:	0ff7f793          	andi	a5,a5,255
    1908:	00078863          	beqz	a5,1918 <trap_entry+0xa4>
    190c:	30091073          	csrw	mstatus,s2
    1910:	34149073          	csrw	mepc,s1
    1914:	7c441073          	csrw	mxstatus,s0
    1918:	40fa                	c.lwsp	ra,156(sp)
    191a:	42ea                	c.lwsp	t0,152(sp)
    191c:	435a                	c.lwsp	t1,148(sp)
    191e:	43ca                	c.lwsp	t2,144(sp)
    1920:	443a                	c.lwsp	s0,140(sp)
    1922:	44aa                	c.lwsp	s1,136(sp)
    1924:	451a                	c.lwsp	a0,132(sp)
    1926:	458a                	c.lwsp	a1,128(sp)
    1928:	5676                	c.lwsp	a2,124(sp)
    192a:	56e6                	c.lwsp	a3,120(sp)
    192c:	5756                	c.lwsp	a4,116(sp)
    192e:	57c6                	c.lwsp	a5,112(sp)
    1930:	5836                	c.lwsp	a6,108(sp)
    1932:	58a6                	c.lwsp	a7,104(sp)
    1934:	5916                	c.lwsp	s2,100(sp)
    1936:	5e06                	c.lwsp	t3,96(sp)
    1938:	4ef6                	c.lwsp	t4,92(sp)
    193a:	4f66                	c.lwsp	t5,88(sp)
    193c:	4fd6                	c.lwsp	t6,84(sp)
    193e:	6036                	c.flwsp	ft0,76(sp)
    1940:	60a6                	c.flwsp	ft1,72(sp)
    1942:	6116                	c.flwsp	ft2,68(sp)
    1944:	6186                	c.flwsp	ft3,64(sp)
    1946:	7272                	c.flwsp	ft4,60(sp)
    1948:	72e2                	c.flwsp	ft5,56(sp)
    194a:	7352                	c.flwsp	ft6,52(sp)
    194c:	73c2                	c.flwsp	ft7,48(sp)
    194e:	7532                	c.flwsp	fa0,44(sp)
    1950:	75a2                	c.flwsp	fa1,40(sp)
    1952:	7612                	c.flwsp	fa2,36(sp)
    1954:	7682                	c.flwsp	fa3,32(sp)
    1956:	6772                	c.flwsp	fa4,28(sp)
    1958:	67e2                	c.flwsp	fa5,24(sp)
    195a:	6852                	c.flwsp	fa6,20(sp)
    195c:	68c2                	c.flwsp	fa7,16(sp)
    195e:	6e32                	c.flwsp	ft8,12(sp)
    1960:	6ea2                	c.flwsp	ft9,8(sp)
    1962:	6f12                	c.flwsp	ft10,4(sp)
    1964:	6f82                	c.flwsp	ft11,0(sp)
    1966:	610d                	c.addi16sp	sp,160
    1968:	30200073          	mret
    196c:	4401                	c.li	s0,0
    196e:	4901                	c.li	s2,0
    1970:	4481                	c.li	s1,0
    1972:	bf8d                	c.j	18e4 <trap_entry+0x70>
    1974:	780727db          	bfoz	a5,a4,30,0
    1978:	b677e85b          	bnec	a5,7,18e8 <trap_entry+0x74>
    197c:	000007b7          	lui	a5,0x0
    1980:	1dc78783          	lb	a5,476(a5) # 1dc <g_plic_preempt_en>
    1984:	0ff7f793          	andi	a5,a5,255
    1988:	00078863          	beqz	a5,1998 <trap_entry+0x124>
    198c:	08000793          	li	a5,128
    1990:	3047b7f3          	csrrc	a5,mie,a5
    1994:	300467f3          	csrrsi	a5,mstatus,8
    1998:	20005097          	auipc	ra,0x20005
    199c:	298080e7          	jalr	664(ra) # 20006c30 <mtime_irq_handler>
    19a0:	000007b7          	lui	a5,0x0
    19a4:	1dc78783          	lb	a5,476(a5) # 1dc <g_plic_preempt_en>
    19a8:	0ff7f793          	andi	a5,a5,255
    19ac:	dba1                	c.beqz	a5,18fc <trap_entry+0x88>
    19ae:	300477f3          	csrrci	a5,mstatus,8
    19b2:	08000793          	li	a5,128
    19b6:	3047a7f3          	csrrs	a5,mie,a5
    19ba:	b789                	c.j	18fc <trap_entry+0x88>
    19bc:	e66007b7          	lui	a5,0xe6600
    19c0:	43dc                	c.lw	a5,4(a5)
    19c2:	000007b7          	lui	a5,0x0
    19c6:	1dc78783          	lb	a5,476(a5) # 1dc <g_plic_preempt_en>
    19ca:	0ff7f793          	andi	a5,a5,255
    19ce:	c399                	c.beqz	a5,19d4 <trap_entry+0x160>
    19d0:	300467f3          	csrrsi	a5,mstatus,8
    19d4:	20005097          	auipc	ra,0x20005
    19d8:	260080e7          	jalr	608(ra) # 20006c34 <mswi_irq_handler>
    19dc:	000007b7          	lui	a5,0x0
    19e0:	1dc78783          	lb	a5,476(a5) # 1dc <g_plic_preempt_en>
    19e4:	0ff7f793          	andi	a5,a5,255
    19e8:	00078463          	beqz	a5,19f0 <trap_entry+0x17c>
    19ec:	300477f3          	csrrci	a5,mstatus,8
    19f0:	e66007b7          	lui	a5,0xe6600
    19f4:	4705                	c.li	a4,1
    19f6:	c3d8                	c.sw	a4,4(a5)
    19f8:	b711                	c.j	18fc <trap_entry+0x88>
	...

000019fc <mspi_as_gpio>:
    19fc:	801407b7          	lui	a5,0x80140
    1a00:	32b78703          	lb	a4,811(a5) # 8014032b <_DATA_LMA_START+0x6012006b>
    1a04:	0ff77713          	andi	a4,a4,255
    1a08:	02076713          	ori	a4,a4,32
    1a0c:	32e785a3          	sb	a4,811(a5)
    1a10:	32a78703          	lb	a4,810(a5)
    1a14:	0df77713          	andi	a4,a4,223
    1a18:	32e78523          	sb	a4,810(a5)
    1a1c:	32e78703          	lb	a4,814(a5)
    1a20:	0ff77713          	andi	a4,a4,255
    1a24:	02076713          	ori	a4,a4,32
    1a28:	32e78723          	sb	a4,814(a5)
    1a2c:	00008067          	ret

00001a30 <mspi_as_mspi>:
    1a30:	801407b7          	lui	a5,0x80140
    1a34:	32b78703          	lb	a4,811(a5) # 8014032b <_DATA_LMA_START+0x6012006b>
    1a38:	0df77713          	andi	a4,a4,223
    1a3c:	32e785a3          	sb	a4,811(a5)
    1a40:	32a78703          	lb	a4,810(a5)
    1a44:	0ff77713          	andi	a4,a4,255
    1a48:	02076713          	ori	a4,a4,32
    1a4c:	32e78523          	sb	a4,810(a5)
    1a50:	32e78703          	lb	a4,814(a5)
    1a54:	0df77713          	andi	a4,a4,223
    1a58:	32e78723          	sb	a4,814(a5)
    1a5c:	00008067          	ret

00001a60 <flash_enter_test_mode>:
    1a60:	1141                	c.addi	sp,-16
    1a62:	c606                	c.swsp	ra,12(sp)
    1a64:	c422                	c.swsp	s0,8(sp)
    1a66:	c226                	c.swsp	s1,4(sp)
    1a68:	84aa                	c.mv	s1,a0
    1a6a:	80140437          	lui	s0,0x80140
    1a6e:	10140783          	lb	a5,257(s0) # 80140101 <_DATA_LMA_START+0x6011fe41>
    1a72:	0fd7f793          	andi	a5,a5,253
    1a76:	10f400a3          	sb	a5,257(s0)
    1a7a:	10140783          	lb	a5,257(s0)
    1a7e:	0ff7f793          	andi	a5,a5,255
    1a82:	0107e793          	ori	a5,a5,16
    1a86:	10f400a3          	sb	a5,257(s0)
    1a8a:	4505                	c.li	a0,1
    1a8c:	da9ff0ef          	jal	ra,1834 <delay_us>
    1a90:	10140783          	lb	a5,257(s0)
    1a94:	0ef7f793          	andi	a5,a5,239
    1a98:	10f400a3          	sb	a5,257(s0)
    1a9c:	0004c783          	lbu	a5,0(s1)
    1aa0:	10f40023          	sb	a5,256(s0)
    1aa4:	801407b7          	lui	a5,0x80140
    1aa8:	10278783          	lb	a5,258(a5) # 80140102 <_DATA_LMA_START+0x6011fe42>
    1aac:	fe07fc5b          	bbs	a5,0,1aa4 <flash_enter_test_mode+0x44>
    1ab0:	80140437          	lui	s0,0x80140
    1ab4:	10140783          	lb	a5,257(s0) # 80140101 <_DATA_LMA_START+0x6011fe41>
    1ab8:	0ff7f793          	andi	a5,a5,255
    1abc:	0107e793          	ori	a5,a5,16
    1ac0:	10f400a3          	sb	a5,257(s0)
    1ac4:	4505                	c.li	a0,1
    1ac6:	33bd                	c.jal	1834 <delay_us>
    1ac8:	10140783          	lb	a5,257(s0)
    1acc:	0ef7f793          	andi	a5,a5,239
    1ad0:	10f400a3          	sb	a5,257(s0)
    1ad4:	0014c783          	lbu	a5,1(s1)
    1ad8:	10f40023          	sb	a5,256(s0)
    1adc:	801407b7          	lui	a5,0x80140
    1ae0:	10278783          	lb	a5,258(a5) # 80140102 <_DATA_LMA_START+0x6011fe42>
    1ae4:	fe07fc5b          	bbs	a5,0,1adc <flash_enter_test_mode+0x7c>
    1ae8:	80140437          	lui	s0,0x80140
    1aec:	10140783          	lb	a5,257(s0) # 80140101 <_DATA_LMA_START+0x6011fe41>
    1af0:	0ff7f793          	andi	a5,a5,255
    1af4:	0107e793          	ori	a5,a5,16
    1af8:	10f400a3          	sb	a5,257(s0)
    1afc:	4505                	c.li	a0,1
    1afe:	3b1d                	c.jal	1834 <delay_us>
    1b00:	10140783          	lb	a5,257(s0)
    1b04:	0ef7f793          	andi	a5,a5,239
    1b08:	10f400a3          	sb	a5,257(s0)
    1b0c:	0024c783          	lbu	a5,2(s1)
    1b10:	10f40023          	sb	a5,256(s0)
    1b14:	801407b7          	lui	a5,0x80140
    1b18:	10278783          	lb	a5,258(a5) # 80140102 <_DATA_LMA_START+0x6011fe42>
    1b1c:	fe07fc5b          	bbs	a5,0,1b14 <flash_enter_test_mode+0xb4>
    1b20:	80140737          	lui	a4,0x80140
    1b24:	10170783          	lb	a5,257(a4) # 80140101 <_DATA_LMA_START+0x6011fe41>
    1b28:	0ff7f793          	andi	a5,a5,255
    1b2c:	0107e793          	ori	a5,a5,16
    1b30:	10f700a3          	sb	a5,257(a4)
    1b34:	40b2                	c.lwsp	ra,12(sp)
    1b36:	4422                	c.lwsp	s0,8(sp)
    1b38:	4492                	c.lwsp	s1,4(sp)
    1b3a:	0141                	c.addi	sp,16
    1b3c:	00008067          	ret

00001b40 <flash_exit_test_mode>:
    1b40:	1141                	c.addi	sp,-16
    1b42:	c606                	c.swsp	ra,12(sp)
    1b44:	c422                	c.swsp	s0,8(sp)
    1b46:	80140437          	lui	s0,0x80140
    1b4a:	32b40783          	lb	a5,811(s0) # 8014032b <_DATA_LMA_START+0x6012006b>
    1b4e:	0ff7f793          	andi	a5,a5,255
    1b52:	0207e793          	ori	a5,a5,32
    1b56:	32f405a3          	sb	a5,811(s0)
    1b5a:	4505                	c.li	a0,1
    1b5c:	cd9ff0ef          	jal	ra,1834 <delay_us>
    1b60:	32b40783          	lb	a5,811(s0)
    1b64:	0df7f793          	andi	a5,a5,223
    1b68:	32f405a3          	sb	a5,811(s0)
    1b6c:	06600793          	li	a5,102
    1b70:	10f40023          	sb	a5,256(s0)
    1b74:	801407b7          	lui	a5,0x80140
    1b78:	10278783          	lb	a5,258(a5) # 80140102 <_DATA_LMA_START+0x6011fe42>
    1b7c:	fe07fc5b          	bbs	a5,0,1b74 <flash_exit_test_mode+0x34>
    1b80:	80140437          	lui	s0,0x80140
    1b84:	32b40783          	lb	a5,811(s0) # 8014032b <_DATA_LMA_START+0x6012006b>
    1b88:	0ff7f793          	andi	a5,a5,255
    1b8c:	0207e793          	ori	a5,a5,32
    1b90:	32f405a3          	sb	a5,811(s0)
    1b94:	4505                	c.li	a0,1
    1b96:	3979                	c.jal	1834 <delay_us>
    1b98:	32b40783          	lb	a5,811(s0)
    1b9c:	0df7f793          	andi	a5,a5,223
    1ba0:	32f405a3          	sb	a5,811(s0)
    1ba4:	f9900793          	li	a5,-103
    1ba8:	10f40023          	sb	a5,256(s0)
    1bac:	801407b7          	lui	a5,0x80140
    1bb0:	10278783          	lb	a5,258(a5) # 80140102 <_DATA_LMA_START+0x6011fe42>
    1bb4:	fe07fc5b          	bbs	a5,0,1bac <flash_exit_test_mode+0x6c>
    1bb8:	80140737          	lui	a4,0x80140
    1bbc:	32b70783          	lb	a5,811(a4) # 8014032b <_DATA_LMA_START+0x6012006b>
    1bc0:	0ff7f793          	andi	a5,a5,255
    1bc4:	0207e793          	ori	a5,a5,32
    1bc8:	32f705a3          	sb	a5,811(a4)
    1bcc:	10170783          	lb	a5,257(a4)
    1bd0:	0ff7f793          	andi	a5,a5,255
    1bd4:	0107e793          	ori	a5,a5,16
    1bd8:	10f700a3          	sb	a5,257(a4)
    1bdc:	40b2                	c.lwsp	ra,12(sp)
    1bde:	4422                	c.lwsp	s0,8(sp)
    1be0:	0141                	c.addi	sp,16
    1be2:	8082                	c.jr	ra

00001be4 <flash_read_testmode>:
    1be4:	1101                	c.addi	sp,-32
    1be6:	ce06                	c.swsp	ra,28(sp)
    1be8:	cc22                	c.swsp	s0,24(sp)
    1bea:	ca26                	c.swsp	s1,20(sp)
    1bec:	c84a                	c.swsp	s2,16(sp)
    1bee:	c64e                	c.swsp	s3,12(sp)
    1bf0:	c452                	c.swsp	s4,8(sp)
    1bf2:	8a2a                	c.mv	s4,a0
    1bf4:	892e                	c.mv	s2,a1
    1bf6:	84b2                	c.mv	s1,a2
    1bf8:	8436                	c.mv	s0,a3
    1bfa:	801409b7          	lui	s3,0x80140
    1bfe:	32b98783          	lb	a5,811(s3) # 8014032b <_DATA_LMA_START+0x6012006b>
    1c02:	0ff7f793          	andi	a5,a5,255
    1c06:	0207e793          	ori	a5,a5,32
    1c0a:	32f985a3          	sb	a5,811(s3)
    1c0e:	4505                	c.li	a0,1
    1c10:	c25ff0ef          	jal	ra,1834 <delay_us>
    1c14:	32b98783          	lb	a5,811(s3)
    1c18:	0df7f793          	andi	a5,a5,223
    1c1c:	32f985a3          	sb	a5,811(s3)
    1c20:	11498023          	sb	s4,256(s3)
    1c24:	801407b7          	lui	a5,0x80140
    1c28:	10278783          	lb	a5,258(a5) # 80140102 <_DATA_LMA_START+0x6011fe42>
    1c2c:	fe07fc5b          	bbs	a5,0,1c24 <flash_read_testmode+0x40>
    1c30:	5d0927db          	bfoz	a5,s2,23,16
    1c34:	80140737          	lui	a4,0x80140
    1c38:	10f70023          	sb	a5,256(a4) # 80140100 <_DATA_LMA_START+0x6011fe40>
    1c3c:	801407b7          	lui	a5,0x80140
    1c40:	10278783          	lb	a5,258(a5) # 80140102 <_DATA_LMA_START+0x6011fe42>
    1c44:	fe07fc5b          	bbs	a5,0,1c3c <flash_read_testmode+0x58>
    1c48:	3c8927db          	bfoz	a5,s2,15,8
    1c4c:	80140737          	lui	a4,0x80140
    1c50:	10f70023          	sb	a5,256(a4) # 80140100 <_DATA_LMA_START+0x6011fe40>
    1c54:	801407b7          	lui	a5,0x80140
    1c58:	10278783          	lb	a5,258(a5) # 80140102 <_DATA_LMA_START+0x6011fe42>
    1c5c:	fe07fc5b          	bbs	a5,0,1c54 <flash_read_testmode+0x70>
    1c60:	0ff97913          	andi	s2,s2,255
    1c64:	801407b7          	lui	a5,0x80140
    1c68:	11278023          	sb	s2,256(a5) # 80140100 <_DATA_LMA_START+0x6011fe40>
    1c6c:	801407b7          	lui	a5,0x80140
    1c70:	10278783          	lb	a5,258(a5) # 80140102 <_DATA_LMA_START+0x6011fe42>
    1c74:	fe07fc5b          	bbs	a5,0,1c6c <flash_read_testmode+0x88>
    1c78:	801407b7          	lui	a5,0x80140
    1c7c:	10078023          	sb	zero,256(a5) # 80140100 <_DATA_LMA_START+0x6011fe40>
    1c80:	801407b7          	lui	a5,0x80140
    1c84:	10278783          	lb	a5,258(a5) # 80140102 <_DATA_LMA_START+0x6011fe42>
    1c88:	fe07fc5b          	bbs	a5,0,1c80 <flash_read_testmode+0x9c>
    1c8c:	80140737          	lui	a4,0x80140
    1c90:	10170783          	lb	a5,257(a4) # 80140101 <_DATA_LMA_START+0x6011fe41>
    1c94:	0ff7f793          	andi	a5,a5,255
    1c98:	0017e793          	ori	a5,a5,1
    1c9c:	10f700a3          	sb	a5,257(a4)
    1ca0:	801407b7          	lui	a5,0x80140
    1ca4:	10278783          	lb	a5,258(a5) # 80140102 <_DATA_LMA_START+0x6011fe42>
    1ca8:	fe07fc5b          	bbs	a5,0,1ca0 <flash_read_testmode+0xbc>
    1cac:	4701                	c.li	a4,0
    1cae:	a00d                	c.j	1cd0 <flash_read_testmode+0xec>
    1cb0:	00140693          	addi	a3,s0,1
    1cb4:	801407b7          	lui	a5,0x80140
    1cb8:	10078783          	lb	a5,256(a5) # 80140100 <_DATA_LMA_START+0x6011fe40>
    1cbc:	00f40023          	sb	a5,0(s0)
    1cc0:	801407b7          	lui	a5,0x80140
    1cc4:	10278783          	lb	a5,258(a5) # 80140102 <_DATA_LMA_START+0x6011fe42>
    1cc8:	fe07fc5b          	bbs	a5,0,1cc0 <flash_read_testmode+0xdc>
    1ccc:	0705                	c.addi	a4,1
    1cce:	8436                	c.mv	s0,a3
    1cd0:	fe9760e3          	bltu	a4,s1,1cb0 <flash_read_testmode+0xcc>
    1cd4:	80140737          	lui	a4,0x80140
    1cd8:	10170783          	lb	a5,257(a4) # 80140101 <_DATA_LMA_START+0x6011fe41>
    1cdc:	0fe7f793          	andi	a5,a5,254
    1ce0:	10f700a3          	sb	a5,257(a4)
    1ce4:	32b70783          	lb	a5,811(a4)
    1ce8:	0ff7f793          	andi	a5,a5,255
    1cec:	0207e793          	ori	a5,a5,32
    1cf0:	32f705a3          	sb	a5,811(a4)
    1cf4:	0001                	c.nop
    1cf6:	0001                	c.nop
    1cf8:	0001                	c.nop
    1cfa:	0001                	c.nop
    1cfc:	0001                	c.nop
    1cfe:	40f2                	c.lwsp	ra,28(sp)
    1d00:	4462                	c.lwsp	s0,24(sp)
    1d02:	44d2                	c.lwsp	s1,20(sp)
    1d04:	4942                	c.lwsp	s2,16(sp)
    1d06:	49b2                	c.lwsp	s3,12(sp)
    1d08:	4a22                	c.lwsp	s4,8(sp)
    1d0a:	6105                	c.addi16sp	sp,32
    1d0c:	00008067          	ret

00001d10 <flash_write_testmode>:
    1d10:	1101                	c.addi	sp,-32
    1d12:	ce06                	c.swsp	ra,28(sp)
    1d14:	cc22                	c.swsp	s0,24(sp)
    1d16:	ca26                	c.swsp	s1,20(sp)
    1d18:	c84a                	c.swsp	s2,16(sp)
    1d1a:	c64e                	c.swsp	s3,12(sp)
    1d1c:	c452                	c.swsp	s4,8(sp)
    1d1e:	8a2a                	c.mv	s4,a0
    1d20:	892e                	c.mv	s2,a1
    1d22:	8432                	c.mv	s0,a2
    1d24:	84b6                	c.mv	s1,a3
    1d26:	801409b7          	lui	s3,0x80140
    1d2a:	32b98783          	lb	a5,811(s3) # 8014032b <_DATA_LMA_START+0x6012006b>
    1d2e:	0ff7f793          	andi	a5,a5,255
    1d32:	0207e793          	ori	a5,a5,32
    1d36:	32f985a3          	sb	a5,811(s3)
    1d3a:	4505                	c.li	a0,1
    1d3c:	af9ff0ef          	jal	ra,1834 <delay_us>
    1d40:	32b98783          	lb	a5,811(s3)
    1d44:	0df7f793          	andi	a5,a5,223
    1d48:	32f985a3          	sb	a5,811(s3)
    1d4c:	11498023          	sb	s4,256(s3)
    1d50:	801407b7          	lui	a5,0x80140
    1d54:	10278783          	lb	a5,258(a5) # 80140102 <_DATA_LMA_START+0x6011fe42>
    1d58:	fe07fc5b          	bbs	a5,0,1d50 <flash_write_testmode+0x40>
    1d5c:	5d0927db          	bfoz	a5,s2,23,16
    1d60:	80140737          	lui	a4,0x80140
    1d64:	10f70023          	sb	a5,256(a4) # 80140100 <_DATA_LMA_START+0x6011fe40>
    1d68:	801407b7          	lui	a5,0x80140
    1d6c:	10278783          	lb	a5,258(a5) # 80140102 <_DATA_LMA_START+0x6011fe42>
    1d70:	fe07fc5b          	bbs	a5,0,1d68 <flash_write_testmode+0x58>
    1d74:	3c8927db          	bfoz	a5,s2,15,8
    1d78:	80140737          	lui	a4,0x80140
    1d7c:	10f70023          	sb	a5,256(a4) # 80140100 <_DATA_LMA_START+0x6011fe40>
    1d80:	801407b7          	lui	a5,0x80140
    1d84:	10278783          	lb	a5,258(a5) # 80140102 <_DATA_LMA_START+0x6011fe42>
    1d88:	fe07fc5b          	bbs	a5,0,1d80 <flash_write_testmode+0x70>
    1d8c:	0ff97913          	andi	s2,s2,255
    1d90:	801407b7          	lui	a5,0x80140
    1d94:	11278023          	sb	s2,256(a5) # 80140100 <_DATA_LMA_START+0x6011fe40>
    1d98:	801407b7          	lui	a5,0x80140
    1d9c:	10278783          	lb	a5,258(a5) # 80140102 <_DATA_LMA_START+0x6011fe42>
    1da0:	fe07fc5b          	bbs	a5,0,1d98 <flash_write_testmode+0x88>
    1da4:	4701                	c.li	a4,0
    1da6:	a00d                	c.j	1dc8 <flash_write_testmode+0xb8>
    1da8:	00e487b3          	add	a5,s1,a4
    1dac:	0007c683          	lbu	a3,0(a5)
    1db0:	801407b7          	lui	a5,0x80140
    1db4:	10d78023          	sb	a3,256(a5) # 80140100 <_DATA_LMA_START+0x6011fe40>
    1db8:	801407b7          	lui	a5,0x80140
    1dbc:	10278783          	lb	a5,258(a5) # 80140102 <_DATA_LMA_START+0x6011fe42>
    1dc0:	fe07fc5b          	bbs	a5,0,1db8 <flash_write_testmode+0xa8>
    1dc4:	00170713          	addi	a4,a4,1
    1dc8:	fe8760e3          	bltu	a4,s0,1da8 <flash_write_testmode+0x98>
    1dcc:	80140737          	lui	a4,0x80140
    1dd0:	32b70783          	lb	a5,811(a4) # 8014032b <_DATA_LMA_START+0x6012006b>
    1dd4:	0ff7f793          	andi	a5,a5,255
    1dd8:	0207e793          	ori	a5,a5,32
    1ddc:	32f705a3          	sb	a5,811(a4)
    1de0:	40f2                	c.lwsp	ra,28(sp)
    1de2:	4462                	c.lwsp	s0,24(sp)
    1de4:	44d2                	c.lwsp	s1,20(sp)
    1de6:	4942                	c.lwsp	s2,16(sp)
    1de8:	49b2                	c.lwsp	s3,12(sp)
    1dea:	4a22                	c.lwsp	s4,8(sp)
    1dec:	6105                	c.addi16sp	sp,32
    1dee:	8082                	c.jr	ra

00001df0 <flash_power_off_on_ram>:
    1df0:	1141                	c.addi	sp,-16
    1df2:	c606                	c.swsp	ra,12(sp)
    1df4:	c422                	c.swsp	s0,8(sp)
    1df6:	c226                	c.swsp	s1,4(sp)
    1df8:	c04a                	c.swsp	s2,0(sp)
    1dfa:	84aa                	c.mv	s1,a0
    1dfc:	801407b7          	lui	a5,0x80140
    1e00:	10278783          	lb	a5,258(a5) # 80140102 <_DATA_LMA_START+0x6011fe42>
    1e04:	fe07fc5b          	bbs	a5,0,1dfc <flash_power_off_on_ram+0xc>
    1e08:	80140737          	lui	a4,0x80140
    1e0c:	10170783          	lb	a5,257(a4) # 80140101 <_DATA_LMA_START+0x6011fe41>
    1e10:	0ff7f793          	andi	a5,a5,255
    1e14:	0107e793          	ori	a5,a5,16
    1e18:	10f700a3          	sb	a5,257(a4)
    1e1c:	801407b7          	lui	a5,0x80140
    1e20:	32878783          	lb	a5,808(a5) # 80140328 <_DATA_LMA_START+0x60120068>
    1e24:	be37fc5b          	bbc	a5,3,1e1c <flash_power_off_on_ram+0x2c>
    1e28:	4529                	c.li	a0,10
    1e2a:	a1bfe0ef          	jal	ra,844 <analog_read_reg8>
    1e2e:	892a                	c.mv	s2,a0
    1e30:	4529                	c.li	a0,10
    1e32:	a13fe0ef          	jal	ra,844 <analog_read_reg8>
    1e36:	1c0535db          	bfos	a1,a0,7,0
    1e3a:	99f1                	c.andi	a1,-4
    1e3c:	0025e593          	ori	a1,a1,2
    1e40:	0fe5f593          	andi	a1,a1,254
    1e44:	4529                	c.li	a0,10
    1e46:	a4ffe0ef          	jal	ra,894 <analog_write_reg8>
    1e4a:	452d                	c.li	a0,11
    1e4c:	9f9fe0ef          	jal	ra,844 <analog_read_reg8>
    1e50:	00356593          	ori	a1,a0,3
    1e54:	0ff5f593          	andi	a1,a1,255
    1e58:	452d                	c.li	a0,11
    1e5a:	a3bfe0ef          	jal	ra,894 <analog_write_reg8>
    1e5e:	80140437          	lui	s0,0x80140
    1e62:	32e40783          	lb	a5,814(s0) # 8014032e <_DATA_LMA_START+0x6012006e>
    1e66:	0ff7f793          	andi	a5,a5,255
    1e6a:	03f7e793          	ori	a5,a5,63
    1e6e:	32f40723          	sb	a5,814(s0)
    1e72:	32a40783          	lb	a5,810(s0)
    1e76:	0c07f793          	andi	a5,a5,192
    1e7a:	32f40523          	sb	a5,810(s0)
    1e7e:	32b40783          	lb	a5,811(s0)
    1e82:	0c07f793          	andi	a5,a5,192
    1e86:	32f405a3          	sb	a5,811(s0)
    1e8a:	8526                	c.mv	a0,s1
    1e8c:	32d1                	c.jal	1850 <delay_ms>
    1e8e:	32a40783          	lb	a5,810(s0)
    1e92:	0ff7f793          	andi	a5,a5,255
    1e96:	03f7e793          	ori	a5,a5,63
    1e9a:	32f40523          	sb	a5,810(s0)
    1e9e:	32e40783          	lb	a5,814(s0)
    1ea2:	0c07f793          	andi	a5,a5,192
    1ea6:	32f40723          	sb	a5,814(s0)
    1eaa:	85ca                	c.mv	a1,s2
    1eac:	4529                	c.li	a0,10
    1eae:	9e7fe0ef          	jal	ra,894 <analog_write_reg8>
    1eb2:	4505                	c.li	a0,1
    1eb4:	20002097          	auipc	ra,0x20002
    1eb8:	014080e7          	jalr	20(ra) # 20003ec8 <audio_set_codec_supply>
    1ebc:	4505                	c.li	a0,1
    1ebe:	3a49                	c.jal	1850 <delay_ms>
    1ec0:	40b2                	c.lwsp	ra,12(sp)
    1ec2:	4422                	c.lwsp	s0,8(sp)
    1ec4:	4492                	c.lwsp	s1,4(sp)
    1ec6:	4902                	c.lwsp	s2,0(sp)
    1ec8:	0141                	c.addi	sp,16
    1eca:	8082                	c.jr	ra

00001ecc <flash_write_enable_cmd_testmode>:
    1ecc:	1141                	c.addi	sp,-16
    1ece:	c606                	c.swsp	ra,12(sp)
    1ed0:	c422                	c.swsp	s0,8(sp)
    1ed2:	80140437          	lui	s0,0x80140
    1ed6:	32b40783          	lb	a5,811(s0) # 8014032b <_DATA_LMA_START+0x6012006b>
    1eda:	0ff7f793          	andi	a5,a5,255
    1ede:	0207e793          	ori	a5,a5,32
    1ee2:	32f405a3          	sb	a5,811(s0)
    1ee6:	4505                	c.li	a0,1
    1ee8:	94dff0ef          	jal	ra,1834 <delay_us>
    1eec:	32b40783          	lb	a5,811(s0)
    1ef0:	0df7f793          	andi	a5,a5,223
    1ef4:	32f405a3          	sb	a5,811(s0)
    1ef8:	00600793          	li	a5,6
    1efc:	10f40023          	sb	a5,256(s0)
    1f00:	801407b7          	lui	a5,0x80140
    1f04:	10278783          	lb	a5,258(a5) # 80140102 <_DATA_LMA_START+0x6011fe42>
    1f08:	fe07fc5b          	bbs	a5,0,1f00 <flash_write_enable_cmd_testmode+0x34>
    1f0c:	80140737          	lui	a4,0x80140
    1f10:	32b70783          	lb	a5,811(a4) # 8014032b <_DATA_LMA_START+0x6012006b>
    1f14:	0ff7f793          	andi	a5,a5,255
    1f18:	0207e793          	ori	a5,a5,32
    1f1c:	32f705a3          	sb	a5,811(a4)
    1f20:	40b2                	c.lwsp	ra,12(sp)
    1f22:	4422                	c.lwsp	s0,8(sp)
    1f24:	0141                	c.addi	sp,16
    1f26:	8082                	c.jr	ra

00001f28 <flash_wait_done_testomode>:
    1f28:	1141                	c.addi	sp,-16
    1f2a:	c606                	c.swsp	ra,12(sp)
    1f2c:	c422                	c.swsp	s0,8(sp)
    1f2e:	80140437          	lui	s0,0x80140
    1f32:	32b40783          	lb	a5,811(s0) # 8014032b <_DATA_LMA_START+0x6012006b>
    1f36:	0ff7f793          	andi	a5,a5,255
    1f3a:	0207e793          	ori	a5,a5,32
    1f3e:	32f405a3          	sb	a5,811(s0)
    1f42:	4505                	c.li	a0,1
    1f44:	8f1ff0ef          	jal	ra,1834 <delay_us>
    1f48:	32b40783          	lb	a5,811(s0)
    1f4c:	0df7f793          	andi	a5,a5,223
    1f50:	32f405a3          	sb	a5,811(s0)
    1f54:	00500793          	li	a5,5
    1f58:	10f40023          	sb	a5,256(s0)
    1f5c:	801407b7          	lui	a5,0x80140
    1f60:	10278783          	lb	a5,258(a5) # 80140102 <_DATA_LMA_START+0x6011fe42>
    1f64:	fe07fc5b          	bbs	a5,0,1f5c <flash_wait_done_testomode+0x34>
    1f68:	00000713          	li	a4,0
    1f6c:	009897b7          	lui	a5,0x989
    1f70:	67f78793          	addi	a5,a5,1663 # 98967f <FLASH_SIZE+0x88967f>
    1f74:	02e7c463          	blt	a5,a4,1f9c <flash_wait_done_testomode+0x74>
    1f78:	801407b7          	lui	a5,0x80140
    1f7c:	10078023          	sb	zero,256(a5) # 80140100 <_DATA_LMA_START+0x6011fe40>
    1f80:	801407b7          	lui	a5,0x80140
    1f84:	10278783          	lb	a5,258(a5) # 80140102 <_DATA_LMA_START+0x6011fe42>
    1f88:	fe07fc5b          	bbs	a5,0,1f80 <flash_wait_done_testomode+0x58>
    1f8c:	801407b7          	lui	a5,0x80140
    1f90:	10078783          	lb	a5,256(a5) # 80140100 <_DATA_LMA_START+0x6011fe40>
    1f94:	0007f45b          	bbc	a5,0,1f9c <flash_wait_done_testomode+0x74>
    1f98:	0705                	c.addi	a4,1
    1f9a:	bfc9                	c.j	1f6c <flash_wait_done_testomode+0x44>
    1f9c:	80140737          	lui	a4,0x80140
    1fa0:	32b70783          	lb	a5,811(a4) # 8014032b <_DATA_LMA_START+0x6012006b>
    1fa4:	0ff7f793          	andi	a5,a5,255
    1fa8:	0207e793          	ori	a5,a5,32
    1fac:	32f705a3          	sb	a5,811(a4)
    1fb0:	40b2                	c.lwsp	ra,12(sp)
    1fb2:	4422                	c.lwsp	s0,8(sp)
    1fb4:	0141                	c.addi	sp,16
    1fb6:	8082                	c.jr	ra

00001fb8 <flash_wait_done_common>:
    1fb8:	1141                	c.addi	sp,-16
    1fba:	c606                	c.swsp	ra,12(sp)
    1fbc:	c422                	c.swsp	s0,8(sp)
    1fbe:	80140437          	lui	s0,0x80140
    1fc2:	10140783          	lb	a5,257(s0) # 80140101 <_DATA_LMA_START+0x6011fe41>
    1fc6:	0ff7f793          	andi	a5,a5,255
    1fca:	0107e793          	ori	a5,a5,16
    1fce:	10f400a3          	sb	a5,257(s0)
    1fd2:	4505                	c.li	a0,1
    1fd4:	861ff0ef          	jal	ra,1834 <delay_us>
    1fd8:	10140783          	lb	a5,257(s0)
    1fdc:	0ef7f793          	andi	a5,a5,239
    1fe0:	10f400a3          	sb	a5,257(s0)
    1fe4:	00500793          	li	a5,5
    1fe8:	10f40023          	sb	a5,256(s0)
    1fec:	801407b7          	lui	a5,0x80140
    1ff0:	10278783          	lb	a5,258(a5) # 80140102 <_DATA_LMA_START+0x6011fe42>
    1ff4:	fe07fc5b          	bbs	a5,0,1fec <flash_wait_done_common+0x34>
    1ff8:	00000713          	li	a4,0
    1ffc:	009897b7          	lui	a5,0x989
    2000:	67f78793          	addi	a5,a5,1663 # 98967f <FLASH_SIZE+0x88967f>
    2004:	02e7c463          	blt	a5,a4,202c <flash_wait_done_common+0x74>
    2008:	801407b7          	lui	a5,0x80140
    200c:	10078023          	sb	zero,256(a5) # 80140100 <_DATA_LMA_START+0x6011fe40>
    2010:	801407b7          	lui	a5,0x80140
    2014:	10278783          	lb	a5,258(a5) # 80140102 <_DATA_LMA_START+0x6011fe42>
    2018:	fe07fc5b          	bbs	a5,0,2010 <flash_wait_done_common+0x58>
    201c:	801407b7          	lui	a5,0x80140
    2020:	10078783          	lb	a5,256(a5) # 80140100 <_DATA_LMA_START+0x6011fe40>
    2024:	0007f45b          	bbc	a5,0,202c <flash_wait_done_common+0x74>
    2028:	0705                	c.addi	a4,1
    202a:	bfc9                	c.j	1ffc <flash_wait_done_common+0x44>
    202c:	80140737          	lui	a4,0x80140
    2030:	10170783          	lb	a5,257(a4) # 80140101 <_DATA_LMA_START+0x6011fe41>
    2034:	0ff7f793          	andi	a5,a5,255
    2038:	0107e793          	ori	a5,a5,16
    203c:	10f700a3          	sb	a5,257(a4)
    2040:	40b2                	c.lwsp	ra,12(sp)
    2042:	4422                	c.lwsp	s0,8(sp)
    2044:	0141                	c.addi	sp,16
    2046:	8082                	c.jr	ra

00002048 <flash_erase_chip_scratch_testmode>:
    2048:	1141                	c.addi	sp,-16
    204a:	c606                	c.swsp	ra,12(sp)
    204c:	c422                	c.swsp	s0,8(sp)
    204e:	3dbd                	c.jal	1ecc <flash_write_enable_cmd_testmode>
    2050:	80140437          	lui	s0,0x80140
    2054:	32b40783          	lb	a5,811(s0) # 8014032b <_DATA_LMA_START+0x6012006b>
    2058:	0ff7f793          	andi	a5,a5,255
    205c:	0207e793          	ori	a5,a5,32
    2060:	32f405a3          	sb	a5,811(s0)
    2064:	00100513          	li	a0,1
    2068:	fccff0ef          	jal	ra,1834 <delay_us>
    206c:	32b40783          	lb	a5,811(s0)
    2070:	0df7f793          	andi	a5,a5,223
    2074:	32f405a3          	sb	a5,811(s0)
    2078:	06000793          	li	a5,96
    207c:	10f40023          	sb	a5,256(s0)
    2080:	801407b7          	lui	a5,0x80140
    2084:	10278783          	lb	a5,258(a5) # 80140102 <_DATA_LMA_START+0x6011fe42>
    2088:	fe07fc5b          	bbs	a5,0,2080 <flash_erase_chip_scratch_testmode+0x38>
    208c:	80140737          	lui	a4,0x80140
    2090:	32b70783          	lb	a5,811(a4) # 8014032b <_DATA_LMA_START+0x6012006b>
    2094:	0ff7f793          	andi	a5,a5,255
    2098:	0207e793          	ori	a5,a5,32
    209c:	32f705a3          	sb	a5,811(a4)
    20a0:	3561                	c.jal	1f28 <flash_wait_done_testomode>
    20a2:	40b2                	c.lwsp	ra,12(sp)
    20a4:	4422                	c.lwsp	s0,8(sp)
    20a6:	0141                	c.addi	sp,16
    20a8:	00008067          	ret

000020ac <flash_write_config_scratch_testmode>:
    20ac:	1141                	c.addi	sp,-16
    20ae:	c606                	c.swsp	ra,12(sp)
    20b0:	86b2                	c.mv	a3,a2
    20b2:	862e                	c.mv	a2,a1
    20b4:	85aa                	c.mv	a1,a0
    20b6:	0d000513          	li	a0,208
    20ba:	3999                	c.jal	1d10 <flash_write_testmode>
    20bc:	35b5                	c.jal	1f28 <flash_wait_done_testomode>
    20be:	40b2                	c.lwsp	ra,12(sp)
    20c0:	0141                	c.addi	sp,16
    20c2:	8082                	c.jr	ra

000020c4 <flash_plane_program_scratch_testmode>:
    20c4:	1141                	c.addi	sp,-16
    20c6:	c606                	c.swsp	ra,12(sp)
    20c8:	86b2                	c.mv	a3,a2
    20ca:	862e                	c.mv	a2,a1
    20cc:	85aa                	c.mv	a1,a0
    20ce:	0da00513          	li	a0,218
    20d2:	393d                	c.jal	1d10 <flash_write_testmode>
    20d4:	3d91                	c.jal	1f28 <flash_wait_done_testomode>
    20d6:	40b2                	c.lwsp	ra,12(sp)
    20d8:	0141                	c.addi	sp,16
    20da:	8082                	c.jr	ra

000020dc <flash_page_program_scratch_testmode>:
    20dc:	1141                	c.addi	sp,-16
    20de:	c606                	c.swsp	ra,12(sp)
    20e0:	c422                	c.swsp	s0,8(sp)
    20e2:	c226                	c.swsp	s1,4(sp)
    20e4:	c04a                	c.swsp	s2,0(sp)
    20e6:	842a                	c.mv	s0,a0
    20e8:	84ae                	c.mv	s1,a1
    20ea:	8932                	c.mv	s2,a2
    20ec:	33c5                	c.jal	1ecc <flash_write_enable_cmd_testmode>
    20ee:	86ca                	c.mv	a3,s2
    20f0:	8626                	c.mv	a2,s1
    20f2:	85a2                	c.mv	a1,s0
    20f4:	4509                	c.li	a0,2
    20f6:	3929                	c.jal	1d10 <flash_write_testmode>
    20f8:	3d05                	c.jal	1f28 <flash_wait_done_testomode>
    20fa:	40b2                	c.lwsp	ra,12(sp)
    20fc:	4422                	c.lwsp	s0,8(sp)
    20fe:	4492                	c.lwsp	s1,4(sp)
    2100:	4902                	c.lwsp	s2,0(sp)
    2102:	0141                	c.addi	sp,16
    2104:	00008067          	ret

00002108 <flash_scratch_ram>:
    2108:	1141                	c.addi	sp,-16
    210a:	c606                	c.swsp	ra,12(sp)
    210c:	c422                	c.swsp	s0,8(sp)
    210e:	c226                	c.swsp	s1,4(sp)
    2110:	801407b7          	lui	a5,0x80140
    2114:	10278483          	lb	s1,258(a5) # 80140102 <_DATA_LMA_START+0x6011fe42>
    2118:	8885                	c.andi	s1,1
    211a:	f8fd                	c.bnez	s1,2110 <flash_scratch_ram+0x8>
    211c:	80140737          	lui	a4,0x80140
    2120:	10170783          	lb	a5,257(a4) # 80140101 <_DATA_LMA_START+0x6011fe41>
    2124:	0ff7f793          	andi	a5,a5,255
    2128:	0107e793          	ori	a5,a5,16
    212c:	10f700a3          	sb	a5,257(a4)
    2130:	801407b7          	lui	a5,0x80140
    2134:	32878783          	lb	a5,808(a5) # 80140328 <_DATA_LMA_START+0x60120068>
    2138:	be37fc5b          	bbc	a5,3,2130 <flash_scratch_ram+0x28>
    213c:	8c1ff0ef          	jal	ra,19fc <mspi_as_gpio>
    2140:	80140737          	lui	a4,0x80140
    2144:	10170783          	lb	a5,257(a4) # 80140101 <_DATA_LMA_START+0x6011fe41>
    2148:	0f37f793          	andi	a5,a5,243
    214c:	10f700a3          	sb	a5,257(a4)
    2150:	a69f950b          	addigp	a0,-1432 # 80268 <enter_cmd_scratch>
    2154:	90dff0ef          	jal	ra,1a60 <flash_enter_test_mode>
    2158:	3dc5                	c.jal	2048 <flash_erase_chip_scratch_testmode>
    215a:	8426                	c.mv	s0,s1
    215c:	0200006f          	j	217c <flash_scratch_ram+0x74>
    2160:	875f978b          	addigp	a5,-1932 # 80074 <program_buff>
    2164:	0c8787db          	lea.w	a5,a5,s0
    2168:	875f960b          	addigp	a2,-1932 # 80074 <program_buff>
    216c:	10000593          	li	a1,256
    2170:	1007a503          	lw	a0,256(a5)
    2174:	3f81                	c.jal	20c4 <flash_plane_program_scratch_testmode>
    2176:	0405                	c.addi	s0,1
    2178:	0ff47413          	andi	s0,s0,255
    217c:	47bd                	c.li	a5,15
    217e:	fe87f1e3          	bgeu	a5,s0,2160 <flash_scratch_ram+0x58>
    2182:	8426                	c.mv	s0,s1
    2184:	0200006f          	j	21a4 <flash_scratch_ram+0x9c>
    2188:	875f978b          	addigp	a5,-1932 # 80074 <program_buff>
    218c:	0c8787db          	lea.w	a5,a5,s0
    2190:	a6df960b          	addigp	a2,-1428 # 8026c <config_write_buff>
    2194:	9622                	c.add	a2,s0
    2196:	4585                	c.li	a1,1
    2198:	1407a503          	lw	a0,320(a5)
    219c:	3f01                	c.jal	20ac <flash_write_config_scratch_testmode>
    219e:	0405                	c.addi	s0,1
    21a0:	0ff47413          	andi	s0,s0,255
    21a4:	478d                	c.li	a5,3
    21a6:	fe87f1e3          	bgeu	a5,s0,2188 <flash_scratch_ram+0x80>
    21aa:	a839                	c.j	21c8 <flash_scratch_ram+0xc0>
    21ac:	875f978b          	addigp	a5,-1932 # 80074 <program_buff>
    21b0:	0c9787db          	lea.w	a5,a5,s1
    21b4:	875f960b          	addigp	a2,-1932 # 80074 <program_buff>
    21b8:	10000593          	li	a1,256
    21bc:	1507a503          	lw	a0,336(a5)
    21c0:	3f31                	c.jal	20dc <flash_page_program_scratch_testmode>
    21c2:	0485                	c.addi	s1,1
    21c4:	0ff4f493          	andi	s1,s1,255
    21c8:	479d                	c.li	a5,7
    21ca:	fe97f1e3          	bgeu	a5,s1,21ac <flash_scratch_ram+0xa4>
    21ce:	4501                	c.li	a0,0
    21d0:	40b2                	c.lwsp	ra,12(sp)
    21d2:	4422                	c.lwsp	s0,8(sp)
    21d4:	4492                	c.lwsp	s1,4(sp)
    21d6:	0141                	c.addi	sp,16
    21d8:	00008067          	ret

000021dc <flash_erase_chip_ram>:
    21dc:	1141                	c.addi	sp,-16
    21de:	c606                	c.swsp	ra,12(sp)
    21e0:	c422                	c.swsp	s0,8(sp)
    21e2:	c226                	c.swsp	s1,4(sp)
    21e4:	300024f3          	csrr	s1,mstatus
    21e8:	88a1                	c.andi	s1,8
    21ea:	c489                	c.beqz	s1,21f4 <flash_erase_chip_ram+0x18>
    21ec:	300477f3          	csrrci	a5,mstatus,8
    21f0:	0ff0000f          	fence
    21f4:	801407b7          	lui	a5,0x80140
    21f8:	10278783          	lb	a5,258(a5) # 80140102 <_DATA_LMA_START+0x6011fe42>
    21fc:	fe07fc5b          	bbs	a5,0,21f4 <flash_erase_chip_ram+0x18>
    2200:	80140737          	lui	a4,0x80140
    2204:	10170783          	lb	a5,257(a4) # 80140101 <_DATA_LMA_START+0x6011fe41>
    2208:	0ff7f793          	andi	a5,a5,255
    220c:	0107e793          	ori	a5,a5,16
    2210:	10f700a3          	sb	a5,257(a4)
    2214:	801407b7          	lui	a5,0x80140
    2218:	32878783          	lb	a5,808(a5) # 80140328 <_DATA_LMA_START+0x60120068>
    221c:	be37fc5b          	bbc	a5,3,2214 <flash_erase_chip_ram+0x38>
    2220:	80140437          	lui	s0,0x80140
    2224:	10140783          	lb	a5,257(s0) # 80140101 <_DATA_LMA_START+0x6011fe41>
    2228:	0fd7f793          	andi	a5,a5,253
    222c:	10f400a3          	sb	a5,257(s0)
    2230:	10140783          	lb	a5,257(s0)
    2234:	0f37f793          	andi	a5,a5,243
    2238:	10f400a3          	sb	a5,257(s0)
    223c:	10140783          	lb	a5,257(s0)
    2240:	0ff7f793          	andi	a5,a5,255
    2244:	0107e793          	ori	a5,a5,16
    2248:	10f400a3          	sb	a5,257(s0)
    224c:	4505                	c.li	a0,1
    224e:	de6ff0ef          	jal	ra,1834 <delay_us>
    2252:	10140783          	lb	a5,257(s0)
    2256:	0ef7f793          	andi	a5,a5,239
    225a:	10f400a3          	sb	a5,257(s0)
    225e:	4799                	c.li	a5,6
    2260:	10f40023          	sb	a5,256(s0)
    2264:	801407b7          	lui	a5,0x80140
    2268:	10278783          	lb	a5,258(a5) # 80140102 <_DATA_LMA_START+0x6011fe42>
    226c:	fe07fc5b          	bbs	a5,0,2264 <flash_erase_chip_ram+0x88>
    2270:	80140437          	lui	s0,0x80140
    2274:	10140783          	lb	a5,257(s0) # 80140101 <_DATA_LMA_START+0x6011fe41>
    2278:	0ff7f793          	andi	a5,a5,255
    227c:	0107e793          	ori	a5,a5,16
    2280:	10f400a3          	sb	a5,257(s0)
    2284:	00100513          	li	a0,1
    2288:	dacff0ef          	jal	ra,1834 <delay_us>
    228c:	10140783          	lb	a5,257(s0)
    2290:	0ef7f793          	andi	a5,a5,239
    2294:	10f400a3          	sb	a5,257(s0)
    2298:	06000793          	li	a5,96
    229c:	10f40023          	sb	a5,256(s0)
    22a0:	801407b7          	lui	a5,0x80140
    22a4:	10278783          	lb	a5,258(a5) # 80140102 <_DATA_LMA_START+0x6011fe42>
    22a8:	fe07fc5b          	bbs	a5,0,22a0 <flash_erase_chip_ram+0xc4>
    22ac:	80140737          	lui	a4,0x80140
    22b0:	10170783          	lb	a5,257(a4) # 80140101 <_DATA_LMA_START+0x6011fe41>
    22b4:	0ff7f793          	andi	a5,a5,255
    22b8:	0107e793          	ori	a5,a5,16
    22bc:	10f700a3          	sb	a5,257(a4)
    22c0:	39e5                	c.jal	1fb8 <flash_wait_done_common>
    22c2:	c489                	c.beqz	s1,22cc <flash_erase_chip_ram+0xf0>
    22c4:	3004a4f3          	csrrs	s1,mstatus,s1
    22c8:	0ff0000f          	fence
    22cc:	40b2                	c.lwsp	ra,12(sp)
    22ce:	4422                	c.lwsp	s0,8(sp)
    22d0:	4492                	c.lwsp	s1,4(sp)
    22d2:	0141                	c.addi	sp,16
    22d4:	8082                	c.jr	ra
    22d6:	0001                	c.nop

000022d8 <flash_read_status_trim_testmode>:
    22d8:	1141                	c.addi	sp,-16
    22da:	c606                	c.swsp	ra,12(sp)
    22dc:	c422                	c.swsp	s0,8(sp)
    22de:	80140437          	lui	s0,0x80140
    22e2:	32b40783          	lb	a5,811(s0) # 8014032b <_DATA_LMA_START+0x6012006b>
    22e6:	0ff7f793          	andi	a5,a5,255
    22ea:	0207e793          	ori	a5,a5,32
    22ee:	32f405a3          	sb	a5,811(s0)
    22f2:	4505                	c.li	a0,1
    22f4:	d40ff0ef          	jal	ra,1834 <delay_us>
    22f8:	32b40783          	lb	a5,811(s0)
    22fc:	0df7f793          	andi	a5,a5,223
    2300:	32f405a3          	sb	a5,811(s0)
    2304:	00600793          	li	a5,6
    2308:	10f40023          	sb	a5,256(s0)
    230c:	801407b7          	lui	a5,0x80140
    2310:	10278783          	lb	a5,258(a5) # 80140102 <_DATA_LMA_START+0x6011fe42>
    2314:	fe07fc5b          	bbs	a5,0,230c <flash_read_status_trim_testmode+0x34>
    2318:	80140437          	lui	s0,0x80140
    231c:	32b40783          	lb	a5,811(s0) # 8014032b <_DATA_LMA_START+0x6012006b>
    2320:	0ff7f793          	andi	a5,a5,255
    2324:	0207e793          	ori	a5,a5,32
    2328:	32f405a3          	sb	a5,811(s0)
    232c:	4505                	c.li	a0,1
    232e:	d06ff0ef          	jal	ra,1834 <delay_us>
    2332:	32b40783          	lb	a5,811(s0)
    2336:	0df7f793          	andi	a5,a5,223
    233a:	32f405a3          	sb	a5,811(s0)
    233e:	4795                	c.li	a5,5
    2340:	10f40023          	sb	a5,256(s0)
    2344:	801407b7          	lui	a5,0x80140
    2348:	10278783          	lb	a5,258(a5) # 80140102 <_DATA_LMA_START+0x6011fe42>
    234c:	fe07fc5b          	bbs	a5,0,2344 <flash_read_status_trim_testmode+0x6c>
    2350:	801407b7          	lui	a5,0x80140
    2354:	10078023          	sb	zero,256(a5) # 80140100 <_DATA_LMA_START+0x6011fe40>
    2358:	801407b7          	lui	a5,0x80140
    235c:	10278783          	lb	a5,258(a5) # 80140102 <_DATA_LMA_START+0x6011fe42>
    2360:	fe07fc5b          	bbs	a5,0,2358 <flash_read_status_trim_testmode+0x80>
    2364:	80140737          	lui	a4,0x80140
    2368:	10070503          	lb	a0,256(a4) # 80140100 <_DATA_LMA_START+0x6011fe40>
    236c:	32b70783          	lb	a5,811(a4)
    2370:	0ff7f793          	andi	a5,a5,255
    2374:	0207e793          	ori	a5,a5,32
    2378:	32f705a3          	sb	a5,811(a4)
    237c:	0ff57513          	andi	a0,a0,255
    2380:	40b2                	c.lwsp	ra,12(sp)
    2382:	4422                	c.lwsp	s0,8(sp)
    2384:	0141                	c.addi	sp,16
    2386:	8082                	c.jr	ra

00002388 <flash_erase_trim_testmode>:
    2388:	1141                	c.addi	sp,-16
    238a:	c606                	c.swsp	ra,12(sp)
    238c:	c422                	c.swsp	s0,8(sp)
    238e:	80140437          	lui	s0,0x80140
    2392:	32b40783          	lb	a5,811(s0) # 8014032b <_DATA_LMA_START+0x6012006b>
    2396:	0ff7f793          	andi	a5,a5,255
    239a:	0207e793          	ori	a5,a5,32
    239e:	32f405a3          	sb	a5,811(s0)
    23a2:	4505                	c.li	a0,1
    23a4:	c90ff0ef          	jal	ra,1834 <delay_us>
    23a8:	32b40783          	lb	a5,811(s0)
    23ac:	0df7f793          	andi	a5,a5,223
    23b0:	32f405a3          	sb	a5,811(s0)
    23b4:	fd500793          	li	a5,-43
    23b8:	10f40023          	sb	a5,256(s0)
    23bc:	801407b7          	lui	a5,0x80140
    23c0:	10278783          	lb	a5,258(a5) # 80140102 <_DATA_LMA_START+0x6011fe42>
    23c4:	fe07fc5b          	bbs	a5,0,23bc <flash_erase_trim_testmode+0x34>
    23c8:	801407b7          	lui	a5,0x80140
    23cc:	10078023          	sb	zero,256(a5) # 80140100 <_DATA_LMA_START+0x6011fe40>
    23d0:	801407b7          	lui	a5,0x80140
    23d4:	10278783          	lb	a5,258(a5) # 80140102 <_DATA_LMA_START+0x6011fe42>
    23d8:	fe07fc5b          	bbs	a5,0,23d0 <flash_erase_trim_testmode+0x48>
    23dc:	801407b7          	lui	a5,0x80140
    23e0:	01200713          	li	a4,18
    23e4:	10e78023          	sb	a4,256(a5) # 80140100 <_DATA_LMA_START+0x6011fe40>
    23e8:	801407b7          	lui	a5,0x80140
    23ec:	10278783          	lb	a5,258(a5) # 80140102 <_DATA_LMA_START+0x6011fe42>
    23f0:	fe07fc5b          	bbs	a5,0,23e8 <flash_erase_trim_testmode+0x60>
    23f4:	801407b7          	lui	a5,0x80140
    23f8:	10078023          	sb	zero,256(a5) # 80140100 <_DATA_LMA_START+0x6011fe40>
    23fc:	801407b7          	lui	a5,0x80140
    2400:	10278783          	lb	a5,258(a5) # 80140102 <_DATA_LMA_START+0x6011fe42>
    2404:	fe07fc5b          	bbs	a5,0,23fc <flash_erase_trim_testmode+0x74>
    2408:	80140737          	lui	a4,0x80140
    240c:	32b70783          	lb	a5,811(a4) # 8014032b <_DATA_LMA_START+0x6012006b>
    2410:	0ff7f793          	andi	a5,a5,255
    2414:	0207e793          	ori	a5,a5,32
    2418:	32f705a3          	sb	a5,811(a4)
    241c:	4565                	c.li	a0,25
    241e:	c32ff0ef          	jal	ra,1850 <delay_ms>
    2422:	40b2                	c.lwsp	ra,12(sp)
    2424:	4422                	c.lwsp	s0,8(sp)
    2426:	0141                	c.addi	sp,16
    2428:	00008067          	ret

0000242c <flash_read_trim_testmode>:
    242c:	1141                	c.addi	sp,-16
    242e:	c606                	c.swsp	ra,12(sp)
    2430:	86b2                	c.mv	a3,a2
    2432:	862e                	c.mv	a2,a1
    2434:	85aa                	c.mv	a1,a0
    2436:	0d700513          	li	a0,215
    243a:	faaff0ef          	jal	ra,1be4 <flash_read_testmode>
    243e:	40b2                	c.lwsp	ra,12(sp)
    2440:	0141                	c.addi	sp,16
    2442:	8082                	c.jr	ra

00002444 <flash_page_program_trim_testmode>:
    2444:	1141                	c.addi	sp,-16
    2446:	c606                	c.swsp	ra,12(sp)
    2448:	86b2                	c.mv	a3,a2
    244a:	862e                	c.mv	a2,a1
    244c:	85aa                	c.mv	a1,a0
    244e:	0d600513          	li	a0,214
    2452:	8bfff0ef          	jal	ra,1d10 <flash_write_testmode>
    2456:	4515                	c.li	a0,5
    2458:	bf8ff0ef          	jal	ra,1850 <delay_ms>
    245c:	40b2                	c.lwsp	ra,12(sp)
    245e:	0141                	c.addi	sp,16
    2460:	00008067          	ret

00002464 <flash_trim_ram>:
    2464:	1101                	c.addi	sp,-32
    2466:	ce06                	c.swsp	ra,28(sp)
    2468:	cc22                	c.swsp	s0,24(sp)
    246a:	d92ff0ef          	jal	ra,19fc <mspi_as_gpio>
    246e:	80140737          	lui	a4,0x80140
    2472:	10170783          	lb	a5,257(a4) # 80140101 <_DATA_LMA_START+0x6011fe41>
    2476:	0f37f793          	andi	a5,a5,243
    247a:	10f700a3          	sb	a5,257(a4)
    247e:	a71f950b          	addigp	a0,-1424 # 80270 <enter_cmd_trim>
    2482:	ddeff0ef          	jal	ra,1a60 <flash_enter_test_mode>
    2486:	3d89                	c.jal	22d8 <flash_read_status_trim_testmode>
    2488:	0825645b          	bnec	a0,2,2510 <flash_trim_ram+0xac>
    248c:	57b1                	c.li	a5,-20
    248e:	00f10023          	sb	a5,0(sp)
    2492:	f9f00793          	li	a5,-97
    2496:	00f100a3          	sb	a5,1(sp)
    249a:	57ad                	c.li	a5,-21
    249c:	00f10123          	sb	a5,2(sp)
    24a0:	57fd                	c.li	a5,-1
    24a2:	00f101a3          	sb	a5,3(sp)
    24a6:	fcd00793          	li	a5,-51
    24aa:	00f10223          	sb	a5,4(sp)
    24ae:	c402                	c.swsp	zero,8(sp)
    24b0:	00010623          	sb	zero,12(sp)
    24b4:	3dd1                	c.jal	2388 <flash_erase_trim_testmode>
    24b6:	860a                	c.mv	a2,sp
    24b8:	4595                	c.li	a1,5
    24ba:	6405                	c.lui	s0,0x1
    24bc:	20040513          	addi	a0,s0,512 # 1200 <flash_mspi_read_ram+0x94>
    24c0:	3751                	c.jal	2444 <flash_page_program_trim_testmode>
    24c2:	0030                	c.addi4spn	a2,sp,8
    24c4:	4595                	c.li	a1,5
    24c6:	20040513          	addi	a0,s0,512
    24ca:	378d                	c.jal	242c <flash_read_trim_testmode>
    24cc:	4781                	c.li	a5,0
    24ce:	4401                	c.li	s0,0
    24d0:	0080006f          	j	24d8 <flash_trim_ram+0x74>
    24d4:	00178793          	addi	a5,a5,1
    24d8:	4711                	c.li	a4,4
    24da:	00f74d63          	blt	a4,a5,24f4 <flash_trim_ram+0x90>
    24de:	0810                	c.addi4spn	a2,sp,16
    24e0:	00f60733          	add	a4,a2,a5
    24e4:	ff074683          	lbu	a3,-16(a4)
    24e8:	ff874703          	lbu	a4,-8(a4)
    24ec:	fee684e3          	beq	a3,a4,24d4 <flash_trim_ram+0x70>
    24f0:	4405                	c.li	s0,1
    24f2:	b7cd                	c.j	24d4 <flash_trim_ram+0x70>
    24f4:	e4cff0ef          	jal	ra,1b40 <flash_exit_test_mode>
    24f8:	d38ff0ef          	jal	ra,1a30 <mspi_as_mspi>
    24fc:	00100513          	li	a0,1
    2500:	b34ff0ef          	jal	ra,1834 <delay_us>
    2504:	8522                	c.mv	a0,s0
    2506:	40f2                	c.lwsp	ra,28(sp)
    2508:	4462                	c.lwsp	s0,24(sp)
    250a:	6105                	c.addi16sp	sp,32
    250c:	00008067          	ret
    2510:	d20ff0ef          	jal	ra,1a30 <mspi_as_mspi>
    2514:	4505                	c.li	a0,1
    2516:	b1eff0ef          	jal	ra,1834 <delay_us>
    251a:	4409                	c.li	s0,2
    251c:	fe9ff06f          	j	2504 <flash_trim_ram+0xa0>

00002520 <flash_trim_check_ram>:
    2520:	1101                	c.addi	sp,-32
    2522:	ce06                	c.swsp	ra,28(sp)
    2524:	cc22                	c.swsp	s0,24(sp)
    2526:	cd6ff0ef          	jal	ra,19fc <mspi_as_gpio>
    252a:	80140737          	lui	a4,0x80140
    252e:	10170783          	lb	a5,257(a4) # 80140101 <_DATA_LMA_START+0x6011fe41>
    2532:	0f37f793          	andi	a5,a5,243
    2536:	10f700a3          	sb	a5,257(a4)
    253a:	a71f950b          	addigp	a0,-1424 # 80270 <enter_cmd_trim>
    253e:	d22ff0ef          	jal	ra,1a60 <flash_enter_test_mode>
    2542:	3b59                	c.jal	22d8 <flash_read_status_trim_testmode>
    2544:	06256e5b          	bnec	a0,2,25c0 <flash_trim_check_ram+0xa0>
    2548:	57b1                	c.li	a5,-20
    254a:	00f10023          	sb	a5,0(sp)
    254e:	f9f00793          	li	a5,-97
    2552:	00f100a3          	sb	a5,1(sp)
    2556:	57ad                	c.li	a5,-21
    2558:	00f10123          	sb	a5,2(sp)
    255c:	57fd                	c.li	a5,-1
    255e:	00f101a3          	sb	a5,3(sp)
    2562:	fcd00793          	li	a5,-51
    2566:	00f10223          	sb	a5,4(sp)
    256a:	c402                	c.swsp	zero,8(sp)
    256c:	00010623          	sb	zero,12(sp)
    2570:	0030                	c.addi4spn	a2,sp,8
    2572:	4595                	c.li	a1,5
    2574:	6505                	c.lui	a0,0x1
    2576:	20050513          	addi	a0,a0,512 # 1200 <flash_mspi_read_ram+0x94>
    257a:	3d4d                	c.jal	242c <flash_read_trim_testmode>
    257c:	4781                	c.li	a5,0
    257e:	4401                	c.li	s0,0
    2580:	0080006f          	j	2588 <flash_trim_check_ram+0x68>
    2584:	00178793          	addi	a5,a5,1
    2588:	4711                	c.li	a4,4
    258a:	00f74d63          	blt	a4,a5,25a4 <flash_trim_check_ram+0x84>
    258e:	0810                	c.addi4spn	a2,sp,16
    2590:	00f60733          	add	a4,a2,a5
    2594:	ff074683          	lbu	a3,-16(a4)
    2598:	ff874703          	lbu	a4,-8(a4)
    259c:	fee684e3          	beq	a3,a4,2584 <flash_trim_check_ram+0x64>
    25a0:	4405                	c.li	s0,1
    25a2:	b7cd                	c.j	2584 <flash_trim_check_ram+0x64>
    25a4:	d9cff0ef          	jal	ra,1b40 <flash_exit_test_mode>
    25a8:	c88ff0ef          	jal	ra,1a30 <mspi_as_mspi>
    25ac:	00100513          	li	a0,1
    25b0:	a84ff0ef          	jal	ra,1834 <delay_us>
    25b4:	8522                	c.mv	a0,s0
    25b6:	40f2                	c.lwsp	ra,28(sp)
    25b8:	4462                	c.lwsp	s0,24(sp)
    25ba:	6105                	c.addi16sp	sp,32
    25bc:	00008067          	ret
    25c0:	c70ff0ef          	jal	ra,1a30 <mspi_as_mspi>
    25c4:	4505                	c.li	a0,1
    25c6:	a6eff0ef          	jal	ra,1834 <delay_us>
    25ca:	4409                	c.li	s0,2
    25cc:	b7e5                	c.j	25b4 <flash_trim_check_ram+0x94>
    25ce:	0001                	c.nop

000025d0 <pm_wait_bbpll_done>:
    25d0:	1101                	c.addi	sp,-32
    25d2:	08100513          	li	a0,129
    25d6:	cc22                	c.swsp	s0,24(sp)
    25d8:	ca26                	c.swsp	s1,20(sp)
    25da:	c84a                	c.swsp	s2,16(sp)
    25dc:	00112e23          	sw	ra,28(sp)
    25e0:	a64fe0ef          	jal	ra,844 <analog_read_reg8>
    25e4:	04056593          	ori	a1,a0,64
    25e8:	892a                	c.mv	s2,a0
    25ea:	0ff5f593          	andi	a1,a1,255
    25ee:	08100513          	li	a0,129
    25f2:	0bf97913          	andi	s2,s2,191
    25f6:	4481                	c.li	s1,0
    25f8:	01d00413          	li	s0,29
    25fc:	a98fe0ef          	jal	ra,894 <analog_write_reg8>
    2600:	000107a3          	sb	zero,15(sp)
    2604:	00f10783          	lb	a5,15(sp)
    2608:	0ff7f793          	andi	a5,a5,255
    260c:	02f46063          	bltu	s0,a5,262c <pm_wait_bbpll_done+0x5c>
    2610:	0001                	c.nop
    2612:	00f10783          	lb	a5,15(sp)
    2616:	0785                	c.addi	a5,1
    2618:	0ff7f793          	andi	a5,a5,255
    261c:	00f107a3          	sb	a5,15(sp)
    2620:	00f10783          	lb	a5,15(sp)
    2624:	0ff7f793          	andi	a5,a5,255
    2628:	fef474e3          	bgeu	s0,a5,2610 <pm_wait_bbpll_done+0x40>
    262c:	08800513          	li	a0,136
    2630:	a14fe0ef          	jal	ra,844 <analog_read_reg8>
    2634:	4255765b          	bbs	a0,5,2660 <pm_wait_bbpll_done+0x90>
    2638:	cc95                	c.beqz	s1,2674 <pm_wait_bbpll_done+0xa4>
    263a:	0414d55b          	beqc	s1,1,2684 <pm_wait_bbpll_done+0xb4>
    263e:	85ca                	c.mv	a1,s2
    2640:	08100513          	li	a0,129
    2644:	a50fe0ef          	jal	ra,894 <analog_write_reg8>
    2648:	0024d65b          	beqc	s1,2,2654 <pm_wait_bbpll_done+0x84>
    264c:	0485                	c.addi	s1,1
    264e:	0ff4f493          	andi	s1,s1,255
    2652:	b77d                	c.j	2600 <pm_wait_bbpll_done+0x30>
    2654:	40f2                	c.lwsp	ra,28(sp)
    2656:	4462                	c.lwsp	s0,24(sp)
    2658:	44d2                	c.lwsp	s1,20(sp)
    265a:	4942                	c.lwsp	s2,16(sp)
    265c:	6105                	c.addi16sp	sp,32
    265e:	8082                	c.jr	ra
    2660:	4462                	c.lwsp	s0,24(sp)
    2662:	40f2                	c.lwsp	ra,28(sp)
    2664:	44d2                	c.lwsp	s1,20(sp)
    2666:	85ca                	c.mv	a1,s2
    2668:	4942                	c.lwsp	s2,16(sp)
    266a:	08100513          	li	a0,129
    266e:	6105                	c.addi16sp	sp,32
    2670:	a24fe06f          	j	894 <analog_write_reg8>
    2674:	04600593          	li	a1,70
    2678:	00100513          	li	a0,1
    267c:	a18fe0ef          	jal	ra,894 <analog_write_reg8>
    2680:	fcdff06f          	j	264c <pm_wait_bbpll_done+0x7c>
    2684:	04300593          	li	a1,67
    2688:	00100513          	li	a0,1
    268c:	a08fe0ef          	jal	ra,894 <analog_write_reg8>
    2690:	fbdff06f          	j	264c <pm_wait_bbpll_done+0x7c>

00002694 <pm_sleep_start>:
    2694:	1101                	c.addi	sp,-32
    2696:	afbfa72b          	lwgp	a4,-1288 # 802f8 <g_chip_version>
    269a:	000006b7          	lui	a3,0x0
    269e:	ce06                	c.swsp	ra,28(sp)
    26a0:	cc22                	c.swsp	s0,24(sp)
    26a2:	ca26                	c.swsp	s1,20(sp)
    26a4:	0ff00793          	li	a5,255
    26a8:	1906c583          	lbu	a1,400(a3) # 190 <g_pm_suspend_power_cfg>
    26ac:	00f71a63          	bne	a4,a5,26c0 <pm_sleep_start+0x2c>
    26b0:	0fe5f593          	andi	a1,a1,254
    26b4:	07d00513          	li	a0,125
    26b8:	9dcfe0ef          	jal	ra,894 <analog_write_reg8>
    26bc:	00c0006f          	j	26c8 <pm_sleep_start+0x34>
    26c0:	07d00513          	li	a0,125
    26c4:	9d0fe0ef          	jal	ra,894 <analog_write_reg8>
    26c8:	801406b7          	lui	a3,0x80140
    26cc:	10268783          	lb	a5,258(a3) # 80140102 <_DATA_LMA_START+0x6011fe42>
    26d0:	fe07fe5b          	bbs	a5,0,26cc <pm_sleep_start+0x38>
    26d4:	10168703          	lb	a4,257(a3)
    26d8:	801407b7          	lui	a5,0x80140
    26dc:	0ff77713          	andi	a4,a4,255
    26e0:	01076713          	ori	a4,a4,16
    26e4:	10e680a3          	sb	a4,257(a3)
    26e8:	32878703          	lb	a4,808(a5) # 80140328 <_DATA_LMA_START+0x60120068>
    26ec:	be377e5b          	bbc	a4,3,26e8 <pm_sleep_start+0x54>
    26f0:	10178703          	lb	a4,257(a5)
    26f4:	80140437          	lui	s0,0x80140
    26f8:	0fd77713          	andi	a4,a4,253
    26fc:	10e780a3          	sb	a4,257(a5)
    2700:	10178703          	lb	a4,257(a5)
    2704:	0ef77713          	andi	a4,a4,239
    2708:	10e780a3          	sb	a4,257(a5)
    270c:	fb900713          	li	a4,-71
    2710:	10e78023          	sb	a4,256(a5)
    2714:	10240783          	lb	a5,258(s0) # 80140102 <_DATA_LMA_START+0x6011fe42>
    2718:	fe07fe5b          	bbs	a5,0,2714 <pm_sleep_start+0x80>
    271c:	10140783          	lb	a5,257(s0)
    2720:	00b00513          	li	a0,11
    2724:	0ff7f793          	andi	a5,a5,255
    2728:	0107e793          	ori	a5,a5,16
    272c:	10f400a3          	sb	a5,257(s0)
    2730:	320404a3          	sb	zero,809(s0)
    2734:	910fe0ef          	jal	ra,844 <analog_read_reg8>
    2738:	0fc57593          	andi	a1,a0,252
    273c:	00b00513          	li	a0,11
    2740:	954fe0ef          	jal	ra,894 <analog_write_reg8>
    2744:	08100513          	li	a0,129
    2748:	8fcfe0ef          	jal	ra,844 <analog_read_reg8>
    274c:	f8056593          	ori	a1,a0,-128
    2750:	0ff5f593          	andi	a1,a1,255
    2754:	08100513          	li	a0,129
    2758:	93cfe0ef          	jal	ra,894 <analog_write_reg8>
    275c:	f8000793          	li	a5,-128
    2760:	1ef407a3          	sb	a5,495(s0)
    2764:	03f00493          	li	s1,63
    2768:	00012423          	sw	zero,8(sp)
    276c:	47a2                	c.lwsp	a5,8(sp)
    276e:	00f4e763          	bltu	s1,a5,277c <pm_sleep_start+0xe8>
    2772:	0001                	c.nop
    2774:	47a2                	c.lwsp	a5,8(sp)
    2776:	0785                	c.addi	a5,1
    2778:	c43e                	c.swsp	a5,8(sp)
    277a:	bfcd                	c.j	276c <pm_sleep_start+0xd8>
    277c:	08100513          	li	a0,129
    2780:	8c4fe0ef          	jal	ra,844 <analog_read_reg8>
    2784:	07f57593          	andi	a1,a0,127
    2788:	08100513          	li	a0,129
    278c:	908fe0ef          	jal	ra,894 <analog_write_reg8>
    2790:	00b00513          	li	a0,11
    2794:	8b0fe0ef          	jal	ra,844 <analog_read_reg8>
    2798:	00356593          	ori	a1,a0,3
    279c:	0ff5f593          	andi	a1,a1,255
    27a0:	00b00513          	li	a0,11
    27a4:	8f0fe0ef          	jal	ra,894 <analog_write_reg8>
    27a8:	08000593          	li	a1,128
    27ac:	07d00513          	li	a0,125
    27b0:	8e4fe0ef          	jal	ra,894 <analog_write_reg8>
    27b4:	801407b7          	lui	a5,0x80140
    27b8:	329784a3          	sb	s1,809(a5) # 80140329 <_DATA_LMA_START+0x60120069>
    27bc:	10178683          	lb	a3,257(a5)
    27c0:	80140737          	lui	a4,0x80140
    27c4:	0ef6f693          	andi	a3,a3,239
    27c8:	10d780a3          	sb	a3,257(a5)
    27cc:	fab00693          	li	a3,-85
    27d0:	10d78023          	sb	a3,256(a5)
    27d4:	10270783          	lb	a5,258(a4) # 80140102 <_DATA_LMA_START+0x6011fe42>
    27d8:	fe07fe5b          	bbs	a5,0,27d4 <pm_sleep_start+0x140>
    27dc:	10170783          	lb	a5,257(a4)
    27e0:	12b00693          	li	a3,299
    27e4:	0ff7f793          	andi	a5,a5,255
    27e8:	0107e793          	ori	a5,a5,16
    27ec:	10f700a3          	sb	a5,257(a4)
    27f0:	00012623          	sw	zero,12(sp)
    27f4:	47b2                	c.lwsp	a5,12(sp)
    27f6:	00f6e763          	bltu	a3,a5,2804 <pm_sleep_start+0x170>
    27fa:	0001                	c.nop
    27fc:	47b2                	c.lwsp	a5,12(sp)
    27fe:	0785                	c.addi	a5,1
    2800:	c63e                	c.swsp	a5,12(sp)
    2802:	bfcd                	c.j	27f4 <pm_sleep_start+0x160>
    2804:	08800513          	li	a0,136
    2808:	83cfe0ef          	jal	ra,844 <analog_read_reg8>
    280c:	be757c5b          	bbc	a0,7,2804 <pm_sleep_start+0x170>
    2810:	08800513          	li	a0,136
    2814:	830fe0ef          	jal	ra,844 <analog_read_reg8>
    2818:	be757c5b          	bbc	a0,7,2810 <pm_sleep_start+0x17c>
    281c:	08800513          	li	a0,136
    2820:	824fe0ef          	jal	ra,844 <analog_read_reg8>
    2824:	be757c5b          	bbc	a0,7,281c <pm_sleep_start+0x188>
    2828:	4462                	c.lwsp	s0,24(sp)
    282a:	40f2                	c.lwsp	ra,28(sp)
    282c:	44d2                	c.lwsp	s1,20(sp)
    282e:	6105                	c.addi16sp	sp,32
    2830:	da1ff06f          	j	25d0 <pm_wait_bbpll_done>

00002834 <pm_stimer_recover>:
    2834:	1141                	c.addi	sp,-16
    2836:	80140737          	lui	a4,0x80140
    283a:	c606                	c.swsp	ra,12(sp)
    283c:	00200793          	li	a5,2
    2840:	20f70c23          	sb	a5,536(a4) # 80140218 <_DATA_LMA_START+0x6011ff58>
    2844:	20a70783          	lb	a5,522(a4)
    2848:	0ff7f793          	andi	a5,a5,255
    284c:	00c7e793          	ori	a5,a5,12
    2850:	20f70523          	sb	a5,522(a4)
    2854:	d60fe0ef          	jal	ra,db4 <clock_get_32k_tick>
    2858:	000007b7          	lui	a5,0x0
    285c:	19078713          	addi	a4,a5,400 # 190 <g_pm_suspend_power_cfg>
    2860:	00174703          	lbu	a4,1(a4)
    2864:	19078793          	addi	a5,a5,400
    2868:	cf01                	c.beqz	a4,2880 <pm_stimer_recover+0x4c>
    286a:	47d8                	c.lw	a4,12(a5)
    286c:	5bd0                	c.lw	a2,52(a5)
    286e:	40e50733          	sub	a4,a0,a4
    2872:	4794                	c.lw	a3,8(a5)
    2874:	0705                	c.addi	a4,1
    2876:	8315                	c.srli	a4,0x5
    2878:	c4c716ff          	maddr32	a3,a4,a2
    287c:	c3d4                	c.sw	a3,4(a5)
    287e:	a829                	c.j	2898 <pm_stimer_recover+0x64>
    2880:	47d8                	c.lw	a4,12(a5)
    2882:	5bd4                	c.lw	a3,52(a5)
    2884:	40e50733          	sub	a4,a0,a4
    2888:	0705                	c.addi	a4,1
    288a:	02d70733          	mul	a4,a4,a3
    288e:	4794                	c.lw	a3,8(a5)
    2890:	8315                	c.srli	a4,0x5
    2892:	9736                	c.add	a4,a3
    2894:	00e7a223          	sw	a4,4(a5)
    2898:	47d8                	c.lw	a4,12(a5)
    289a:	43d4                	c.lw	a3,4(a5)
    289c:	40e50733          	sub	a4,a0,a4
    28a0:	0705                	c.addi	a4,1
    28a2:	0505                	c.addi	a0,1
    28a4:	0685                	c.addi	a3,1
    28a6:	d3c8                	c.sw	a0,36(a5)
    28a8:	02e7a023          	sw	a4,32(a5)
    28ac:	80140637          	lui	a2,0x80140
    28b0:	801407b7          	lui	a5,0x80140
    28b4:	20d7a023          	sw	a3,512(a5) # 80140200 <_DATA_LMA_START+0x6011ff40>
    28b8:	20b60783          	lb	a5,523(a2) # 8014020b <_DATA_LMA_START+0x6011ff4b>
    28bc:	be77fe5b          	bbc	a5,7,28b8 <pm_stimer_recover+0x84>
    28c0:	20060c23          	sb	zero,536(a2)
    28c4:	40b2                	c.lwsp	ra,12(sp)
    28c6:	0141                	c.addi	sp,16
    28c8:	00008067          	ret

000028cc <pm_sleep_wakeup_ram.constprop.1>:
    28cc:	7179                	c.addi16sp	sp,-48
    28ce:	ce4e                	c.swsp	s3,28(sp)
    28d0:	89aa                	c.mv	s3,a0
    28d2:	d606                	c.swsp	ra,44(sp)
    28d4:	d422                	c.swsp	s0,40(sp)
    28d6:	d226                	c.swsp	s1,36(sp)
    28d8:	d04a                	c.swsp	s2,32(sp)
    28da:	cc52                	c.swsp	s4,24(sp)
    28dc:	ca56                	c.swsp	s5,20(sp)
    28de:	c85a                	c.swsp	s6,16(sp)
    28e0:	01712623          	sw	s7,12(sp)
    28e4:	30002973          	csrr	s2,mstatus
    28e8:	00897913          	andi	s2,s2,8
    28ec:	00090663          	beqz	s2,28f8 <pm_sleep_wakeup_ram.constprop.1+0x2c>
    28f0:	300477f3          	csrrci	a5,mstatus,8
    28f4:	0ff0000f          	fence
    28f8:	6042278b          	lbugp	a5,5636 # 81e04 <g_clk_32k_src>
    28fc:	04079863          	bnez	a5,294c <pm_sleep_wakeup_ram.constprop.1+0x80>
    2900:	801407b7          	lui	a5,0x80140
    2904:	2147a703          	lw	a4,532(a5) # 80140214 <_DATA_LMA_START+0x6011ff54>
    2908:	df75                	c.beqz	a4,2904 <pm_sleep_wakeup_ram.constprop.1+0x38>
    290a:	00000737          	lui	a4,0x0
    290e:	19070613          	addi	a2,a4,400 # 190 <g_pm_suspend_power_cfg>
    2912:	2147a783          	lw	a5,532(a5)
    2916:	4e54                	c.lw	a3,28(a2)
    2918:	d65c                	c.sw	a5,44(a2)
    291a:	19070713          	addi	a4,a4,400
    291e:	0792                	c.slli	a5,0x4
    2920:	ca91                	c.beqz	a3,2934 <pm_sleep_wakeup_ram.constprop.1+0x68>
    2922:	03074583          	lbu	a1,48(a4)
    2926:	4611                	c.li	a2,4
    2928:	8f95                	c.sub	a5,a3
    292a:	8e0d                	c.sub	a2,a1
    292c:	40c7d7b3          	sra	a5,a5,a2
    2930:	00d787b3          	add	a5,a5,a3
    2934:	cf5c                	c.sw	a5,28(a4)
    2936:	4f5c                	c.lw	a5,28(a4)
    2938:	4b14                	c.lw	a3,16(a4)
    293a:	8791                	c.srai	a5,0x4
    293c:	02d786b3          	mul	a3,a5,a3
    2940:	86c9                	c.srai	a3,0x12
    2942:	97b6                	c.add	a5,a3
    2944:	0786                	c.slli	a5,0x1
    2946:	db5c                	c.sw	a5,52(a4)
    2948:	0140006f          	j	295c <pm_sleep_wakeup_ram.constprop.1+0x90>
    294c:	000047b7          	lui	a5,0x4
    2950:	00000737          	lui	a4,0x0
    2954:	d0978793          	addi	a5,a5,-759 # 3d09 <_RAMCODE_VMA_END+0xef9>
    2958:	1cf72223          	sw	a5,452(a4) # 1c4 <g_pm_tick_32k_calib>
    295c:	801404b7          	lui	s1,0x80140
    2960:	2004aa03          	lw	s4,512(s1) # 80140200 <_DATA_LMA_START+0x6011ff40>
    2964:	e00007b7          	lui	a5,0xe0000
    2968:	41498a33          	sub	s4,s3,s4
    296c:	0347f063          	bgeu	a5,s4,298c <pm_sleep_wakeup_ram.constprop.1+0xc0>
    2970:	00090663          	beqz	s2,297c <pm_sleep_wakeup_ram.constprop.1+0xb0>
    2974:	30092973          	csrrs	s2,mstatus,s2
    2978:	0ff0000f          	fence
    297c:	06400513          	li	a0,100
    2980:	ec5fd0ef          	jal	ra,844 <analog_read_reg8>
    2984:	01f57513          	andi	a0,a0,31
    2988:	2940006f          	j	2c1c <pm_sleep_wakeup_ram.constprop.1+0x350>
    298c:	00000437          	lui	s0,0x0
    2990:	19040793          	addi	a5,s0,400 # 190 <g_pm_suspend_power_cfg>
    2994:	03e79783          	lh	a5,62(a5) # e000003e <_DATA_LMA_START+0xbffdfd7e>
    2998:	19040413          	addi	s0,s0,400
    299c:	1137a7db          	bfoz	a5,a5,4,19
    29a0:	04fa7063          	bgeu	s4,a5,29e0 <pm_sleep_wakeup_ram.constprop.1+0x114>
    29a4:	01f00593          	li	a1,31
    29a8:	06400513          	li	a0,100
    29ac:	801409b7          	lui	s3,0x80140
    29b0:	2004a403          	lw	s0,512(s1)
    29b4:	ee1fd0ef          	jal	ra,894 <analog_write_reg8>
    29b8:	06400513          	li	a0,100
    29bc:	e89fd0ef          	jal	ra,844 <analog_read_reg8>
    29c0:	2009a783          	lw	a5,512(s3) # 80140200 <_DATA_LMA_START+0x6011ff40>
    29c4:	897d                	c.andi	a0,31
    29c6:	8f81                	c.sub	a5,s0
    29c8:	0147f463          	bgeu	a5,s4,29d0 <pm_sleep_wakeup_ram.constprop.1+0x104>
    29cc:	fe0506e3          	beqz	a0,29b8 <pm_sleep_wakeup_ram.constprop.1+0xec>
    29d0:	24090663          	beqz	s2,2c1c <pm_sleep_wakeup_ram.constprop.1+0x350>
    29d4:	30092973          	csrrs	s2,mstatus,s2
    29d8:	0ff0000f          	fence
    29dc:	2400006f          	j	2c1c <pm_sleep_wakeup_ram.constprop.1+0x350>
    29e0:	1e848a03          	lb	s4,488(s1)
    29e4:	03442b83          	lw	s7,52(s0)
    29e8:	00fa7793          	andi	a5,s4,15
    29ec:	1ef48423          	sb	a5,488(s1)
    29f0:	1d848a83          	lb	s5,472(s1)
    29f4:	0f8af793          	andi	a5,s5,248
    29f8:	1cf48c23          	sb	a5,472(s1)
    29fc:	00100793          	li	a5,1
    2a00:	20f48c23          	sb	a5,536(s1)
    2a04:	20a48783          	lb	a5,522(s1)
    2a08:	0f77f793          	andi	a5,a5,247
    2a0c:	20f48523          	sb	a5,522(s1)
    2a10:	ba4fe0ef          	jal	ra,db4 <clock_get_32k_tick>
    2a14:	2004a703          	lw	a4,512(s1)
    2a18:	20b48783          	lb	a5,523(s1)
    2a1c:	5054                	c.lw	a3,36(s0)
    2a1e:	0ff7f793          	andi	a5,a5,255
    2a22:	0027e793          	ori	a5,a5,2
    2a26:	c028                	c.sw	a0,64(s0)
    2a28:	c058                	c.sw	a4,4(s0)
    2a2a:	03044603          	lbu	a2,48(s0)
    2a2e:	40d506b3          	sub	a3,a0,a3
    2a32:	20f485a3          	sb	a5,523(s1)
    2a36:	d414                	c.sw	a3,40(s0)
    2a38:	e215                	c.bnez	a2,2a5c <pm_sleep_wakeup_ram.constprop.1+0x190>
    2a3a:	441c                	c.lw	a5,8(s0)
    2a3c:	c385                	c.beqz	a5,2a5c <pm_sleep_wakeup_ram.constprop.1+0x190>
    2a3e:	04444783          	lbu	a5,68(s0)
    2a42:	ef89                	c.bnez	a5,2a5c <pm_sleep_wakeup_ram.constprop.1+0x190>
    2a44:	00c42783          	lw	a5,12(s0)
    2a48:	000276b7          	lui	a3,0x27
    2a4c:	40f507b3          	sub	a5,a0,a5
    2a50:	6c07a7db          	bfoz	a5,a5,27,0
    2a54:	10068693          	addi	a3,a3,256 # 27100 <BIN_SIZE+0x6ba6>
    2a58:	00f6f863          	bgeu	a3,a5,2a68 <pm_sleep_wakeup_ram.constprop.1+0x19c>
    2a5c:	00176713          	ori	a4,a4,1
    2a60:	02040823          	sb	zero,48(s0)
    2a64:	c448                	c.sw	a0,12(s0)
    2a66:	c418                	c.sw	a4,8(s0)
    2a68:	02000593          	li	a1,32
    2a6c:	04b00513          	li	a0,75
    2a70:	e25fd0ef          	jal	ra,894 <analog_write_reg8>
    2a74:	01f00593          	li	a1,31
    2a78:	06400513          	li	a0,100
    2a7c:	e19fd0ef          	jal	ra,894 <analog_write_reg8>
    2a80:	03000593          	li	a1,48
    2a84:	07e00513          	li	a0,126
    2a88:	e0dfd0ef          	jal	ra,894 <analog_write_reg8>
    2a8c:	0f900593          	li	a1,249
    2a90:	04d00513          	li	a0,77
    2a94:	e01fd0ef          	jal	ra,894 <analog_write_reg8>
    2a98:	00100593          	li	a1,1
    2a9c:	07f00513          	li	a0,127
    2aa0:	df5fd0ef          	jal	ra,894 <analog_write_reg8>
    2aa4:	03c41783          	lh	a5,60(s0)
    2aa8:	6042270b          	lbugp	a4,5636 # 81e04 <g_clk_32k_src>
    2aac:	1137a7db          	bfoz	a5,a5,4,19
    2ab0:	40f984b3          	sub	s1,s3,a5
    2ab4:	00071a63          	bnez	a4,2ac8 <pm_sleep_wakeup_ram.constprop.1+0x1fc>
    2ab8:	0ee00593          	li	a1,238
    2abc:	04c00513          	li	a0,76
    2ac0:	dd5fd0ef          	jal	ra,894 <analog_write_reg8>
    2ac4:	0100006f          	j	2ad4 <pm_sleep_wakeup_ram.constprop.1+0x208>
    2ac8:	0ed00593          	li	a1,237
    2acc:	04c00513          	li	a0,76
    2ad0:	dc5fd0ef          	jal	ra,894 <analog_write_reg8>
    2ad4:	04841583          	lh	a1,72(s0)
    2ad8:	04000513          	li	a0,64
    2adc:	0ff5f593          	andi	a1,a1,255
    2ae0:	db5fd0ef          	jal	ra,894 <analog_write_reg8>
    2ae4:	441c                	c.lw	a5,8(s0)
    2ae6:	07ff0737          	lui	a4,0x7ff0
    2aea:	40f487b3          	sub	a5,s1,a5
    2aee:	00f77763          	bgeu	a4,a5,2afc <pm_sleep_wakeup_ram.constprop.1+0x230>
    2af2:	4705                	c.li	a4,1
    2af4:	00e400a3          	sb	a4,1(s0)
    2af8:	0080006f          	j	2b00 <pm_sleep_wakeup_ram.constprop.1+0x234>
    2afc:	000400a3          	sb	zero,1(s0)
    2b00:	00144683          	lbu	a3,1(s0)
    2b04:	4448                	c.lw	a0,12(s0)
    2b06:	5858                	c.lw	a4,52(s0)
    2b08:	c691                	c.beqz	a3,2b14 <pm_sleep_wakeup_ram.constprop.1+0x248>
    2b0a:	02e7d7b3          	divu	a5,a5,a4
    2b0e:	0796                	c.slli	a5,0x5
    2b10:	953e                	c.add	a0,a5
    2b12:	a809                	c.j	2b24 <pm_sleep_wakeup_ram.constprop.1+0x258>
    2b14:	001bdb93          	srli	s7,s7,0x1
    2b18:	0796                	c.slli	a5,0x5
    2b1a:	97de                	c.add	a5,s7
    2b1c:	02e7d7b3          	divu	a5,a5,a4
    2b20:	00f50533          	add	a0,a0,a5
    2b24:	ac0fe0ef          	jal	ra,de4 <clock_set_32k_tick>
    2b28:	06400513          	li	a0,100
    2b2c:	d19fd0ef          	jal	ra,844 <analog_read_reg8>
    2b30:	01f57513          	andi	a0,a0,31
    2b34:	e901                	c.bnez	a0,2b44 <pm_sleep_wakeup_ram.constprop.1+0x278>
    2b36:	3eb9                	c.jal	2694 <pm_sleep_start>
    2b38:	00100593          	li	a1,1
    2b3c:	07f00513          	li	a0,127
    2b40:	d55fd0ef          	jal	ra,894 <analog_write_reg8>
    2b44:	80140737          	lui	a4,0x80140
    2b48:	02000793          	li	a5,32
    2b4c:	1ef707a3          	sb	a5,495(a4) # 801401ef <_DATA_LMA_START+0x6011ff2f>
    2b50:	00200793          	li	a5,2
    2b54:	20f70c23          	sb	a5,536(a4)
    2b58:	20a70783          	lb	a5,522(a4)
    2b5c:	0ff7f793          	andi	a5,a5,255
    2b60:	00c7e793          	ori	a5,a5,12
    2b64:	20f70523          	sb	a5,522(a4)
    2b68:	a4cfe0ef          	jal	ra,db4 <clock_get_32k_tick>
    2b6c:	00144783          	lbu	a5,1(s0)
    2b70:	cf81                	c.beqz	a5,2b88 <pm_sleep_wakeup_ram.constprop.1+0x2bc>
    2b72:	445c                	c.lw	a5,12(s0)
    2b74:	5854                	c.lw	a3,52(s0)
    2b76:	40f507b3          	sub	a5,a0,a5
    2b7a:	4418                	c.lw	a4,8(s0)
    2b7c:	0785                	c.addi	a5,1
    2b7e:	8395                	c.srli	a5,0x5
    2b80:	c4d7977f          	maddr32	a4,a5,a3
    2b84:	c058                	c.sw	a4,4(s0)
    2b86:	a829                	c.j	2ba0 <pm_sleep_wakeup_ram.constprop.1+0x2d4>
    2b88:	445c                	c.lw	a5,12(s0)
    2b8a:	5858                	c.lw	a4,52(s0)
    2b8c:	40f507b3          	sub	a5,a0,a5
    2b90:	0785                	c.addi	a5,1
    2b92:	02e787b3          	mul	a5,a5,a4
    2b96:	4418                	c.lw	a4,8(s0)
    2b98:	8395                	c.srli	a5,0x5
    2b9a:	97ba                	c.add	a5,a4
    2b9c:	00f42223          	sw	a5,4(s0)
    2ba0:	445c                	c.lw	a5,12(s0)
    2ba2:	4054                	c.lw	a3,4(s0)
    2ba4:	40f507b3          	sub	a5,a0,a5
    2ba8:	0785                	c.addi	a5,1
    2baa:	0505                	c.addi	a0,1
    2bac:	d01c                	c.sw	a5,32(s0)
    2bae:	0685                	c.addi	a3,1
    2bb0:	02a42223          	sw	a0,36(s0)
    2bb4:	801407b7          	lui	a5,0x80140
    2bb8:	80140737          	lui	a4,0x80140
    2bbc:	20d7a023          	sw	a3,512(a5) # 80140200 <_DATA_LMA_START+0x6011ff40>
    2bc0:	20b70783          	lb	a5,523(a4) # 8014020b <_DATA_LMA_START+0x6011ff4b>
    2bc4:	be77fe5b          	bbc	a5,7,2bc0 <pm_sleep_wakeup_ram.constprop.1+0x2f4>
    2bc8:	20070c23          	sb	zero,536(a4)
    2bcc:	1d570c23          	sb	s5,472(a4)
    2bd0:	06400513          	li	a0,100
    2bd4:	1f470423          	sb	s4,488(a4)
    2bd8:	c6dfd0ef          	jal	ra,844 <analog_read_reg8>
    2bdc:	afdf970b          	addigp	a4,-1284 # 802fc <g_pm_status_info>
    2be0:	00a700a3          	sb	a0,1(a4)
    2be4:	afdf978b          	addigp	a5,-1284 # 802fc <g_pm_status_info>
    2be8:	00157c5b          	bbc	a0,1,2c00 <pm_sleep_wakeup_ram.constprop.1+0x334>
    2bec:	80140637          	lui	a2,0x80140
    2bf0:	400006b7          	lui	a3,0x40000
    2bf4:	20062703          	lw	a4,512(a2) # 80140200 <_DATA_LMA_START+0x6011ff40>
    2bf8:	41370733          	sub	a4,a4,s3
    2bfc:	fee6ece3          	bltu	a3,a4,2bf4 <pm_sleep_wakeup_ram.constprop.1+0x328>
    2c00:	00090663          	beqz	s2,2c0c <pm_sleep_wakeup_ram.constprop.1+0x340>
    2c04:	30092973          	csrrs	s2,mstatus,s2
    2c08:	0ff0000f          	fence
    2c0c:	0017c783          	lbu	a5,1(a5)
    2c10:	10000513          	li	a0,256
    2c14:	c781                	c.beqz	a5,2c1c <pm_sleep_wakeup_ram.constprop.1+0x350>
    2c16:	40000537          	lui	a0,0x40000
    2c1a:	8d5d                	c.or	a0,a5
    2c1c:	50b2                	c.lwsp	ra,44(sp)
    2c1e:	5422                	c.lwsp	s0,40(sp)
    2c20:	5492                	c.lwsp	s1,36(sp)
    2c22:	5902                	c.lwsp	s2,32(sp)
    2c24:	49f2                	c.lwsp	s3,28(sp)
    2c26:	4a62                	c.lwsp	s4,24(sp)
    2c28:	4ad2                	c.lwsp	s5,20(sp)
    2c2a:	4b42                	c.lwsp	s6,16(sp)
    2c2c:	4bb2                	c.lwsp	s7,12(sp)
    2c2e:	6145                	c.addi16sp	sp,48
    2c30:	00008067          	ret

00002c34 <plic_exit_critical_sec>:
    2c34:	000007b7          	lui	a5,0x0
    2c38:	19078793          	addi	a5,a5,400 # 190 <g_pm_suspend_power_cfg>
    2c3c:	04c78783          	lb	a5,76(a5)
    2c40:	0ff7f793          	andi	a5,a5,255
    2c44:	c795                	c.beqz	a5,2c70 <plic_exit_critical_sec+0x3c>
    2c46:	c50d                	c.beqz	a0,2c70 <plic_exit_critical_sec+0x3c>
    2c48:	300027f3          	csrr	a5,mstatus
    2c4c:	8ba1                	c.andi	a5,8
    2c4e:	0ff5f593          	andi	a1,a1,255
    2c52:	c78d                	c.beqz	a5,2c7c <plic_exit_critical_sec+0x48>
    2c54:	30047773          	csrrci	a4,mstatus,8
    2c58:	0ff0000f          	fence
    2c5c:	e4200737          	lui	a4,0xe4200
    2c60:	c30c                	c.sw	a1,0(a4)
    2c62:	0ff0000f          	fence
    2c66:	3007a7f3          	csrrs	a5,mstatus,a5
    2c6a:	0ff0000f          	fence
    2c6e:	8082                	c.jr	ra
    2c70:	cd81                	c.beqz	a1,2c88 <plic_exit_critical_sec+0x54>
    2c72:	3005a5f3          	csrrs	a1,mstatus,a1
    2c76:	0ff0000f          	fence
    2c7a:	8082                	c.jr	ra
    2c7c:	e42007b7          	lui	a5,0xe4200
    2c80:	00b7a023          	sw	a1,0(a5) # e4200000 <_DATA_LMA_START+0xc41dfd40>
    2c84:	0ff0000f          	fence
    2c88:	00008067          	ret

00002c8c <plic_enter_critical_sec>:
    2c8c:	000007b7          	lui	a5,0x0
    2c90:	19078793          	addi	a5,a5,400 # 190 <g_pm_suspend_power_cfg>
    2c94:	04c78783          	lb	a5,76(a5)
    2c98:	0ff7f793          	andi	a5,a5,255
    2c9c:	cb85                	c.beqz	a5,2ccc <plic_enter_critical_sec+0x40>
    2c9e:	c51d                	c.beqz	a0,2ccc <plic_enter_critical_sec+0x40>
    2ca0:	e4200737          	lui	a4,0xe4200
    2ca4:	4308                	c.lw	a0,0(a4)
    2ca6:	04b57163          	bgeu	a0,a1,2ce8 <plic_enter_critical_sec+0x5c>
    2caa:	300027f3          	csrr	a5,mstatus
    2cae:	8ba1                	c.andi	a5,8
    2cb0:	cb85                	c.beqz	a5,2ce0 <plic_enter_critical_sec+0x54>
    2cb2:	300476f3          	csrrci	a3,mstatus,8
    2cb6:	0ff0000f          	fence
    2cba:	c30c                	c.sw	a1,0(a4)
    2cbc:	0ff0000f          	fence
    2cc0:	3007a7f3          	csrrs	a5,mstatus,a5
    2cc4:	0ff0000f          	fence
    2cc8:	00008067          	ret
    2ccc:	30002573          	csrr	a0,mstatus
    2cd0:	8921                	c.andi	a0,8
    2cd2:	c919                	c.beqz	a0,2ce8 <plic_enter_critical_sec+0x5c>
    2cd4:	300477f3          	csrrci	a5,mstatus,8
    2cd8:	0ff0000f          	fence
    2cdc:	00008067          	ret
    2ce0:	00b72023          	sw	a1,0(a4) # e4200000 <_DATA_LMA_START+0xc41dfd40>
    2ce4:	0ff0000f          	fence
    2ce8:	00008067          	ret

00002cec <rf_set_rxmode>:
    2cec:	801417b7          	lui	a5,0x80141
    2cf0:	04500713          	li	a4,69
    2cf4:	a0e78123          	sb	a4,-1534(a5) # 80140a02 <_DATA_LMA_START+0x60120742>
    2cf8:	c2078703          	lb	a4,-992(a5)
    2cfc:	0ff77713          	andi	a4,a4,255
    2d00:	00876713          	ori	a4,a4,8
    2d04:	c2e78023          	sb	a4,-992(a5)
    2d08:	a0278703          	lb	a4,-1534(a5)
    2d0c:	0ff77713          	andi	a4,a4,255
    2d10:	02076713          	ori	a4,a4,32
    2d14:	a0e78123          	sb	a4,-1534(a5)
    2d18:	82878703          	lb	a4,-2008(a5)
    2d1c:	0ff77713          	andi	a4,a4,255
    2d20:	00176713          	ori	a4,a4,1
    2d24:	82e78423          	sb	a4,-2008(a5)
    2d28:	00008067          	ret

00002d2c <rf_start_stx>:
    2d2c:	000a07b7          	lui	a5,0xa0
    2d30:	00f57663          	bgeu	a0,a5,2d3c <rf_start_stx+0x10>
    2d34:	c01807b7          	lui	a5,0xc0180
    2d38:	00f50533          	add	a0,a0,a5
    2d3c:	801007b7          	lui	a5,0x80100
    2d40:	44a7a423          	sw	a0,1096(a5) # 80100448 <_DATA_LMA_START+0x600e0188>
    2d44:	80141737          	lui	a4,0x80141
    2d48:	a0b72c23          	sw	a1,-1512(a4) # 80140a18 <_DATA_LMA_START+0x60120758>
    2d4c:	a1670783          	lb	a5,-1514(a4)
    2d50:	0ff7f793          	andi	a5,a5,255
    2d54:	0047e793          	ori	a5,a5,4
    2d58:	a0f70b23          	sb	a5,-1514(a4)
    2d5c:	f8500793          	li	a5,-123
    2d60:	a0f70023          	sb	a5,-1536(a4)
    2d64:	00008067          	ret

00002d68 <rf_set_chn>:
    2d68:	6685                	c.lui	a3,0x1
    2d6a:	96068793          	addi	a5,a3,-1696 # 960 <analog_write_reg16+0x34>
    2d6e:	953e                	c.add	a0,a5
    2d70:	9d768793          	addi	a5,a3,-1577
    2d74:	02000713          	li	a4,32
    2d78:	04a7c263          	blt	a5,a0,2dbc <rf_set_chn+0x54>
    2d7c:	9be68793          	addi	a5,a3,-1602
    2d80:	04000713          	li	a4,64
    2d84:	02a7cc63          	blt	a5,a0,2dbc <rf_set_chn+0x54>
    2d88:	9a068793          	addi	a5,a3,-1632
    2d8c:	06000713          	li	a4,96
    2d90:	02a7e663          	bltu	a5,a0,2dbc <rf_set_chn+0x54>
    2d94:	98268793          	addi	a5,a3,-1662
    2d98:	f8000713          	li	a4,-128
    2d9c:	02a7e063          	bltu	a5,a0,2dbc <rf_set_chn+0x54>
    2da0:	96468793          	addi	a5,a3,-1692
    2da4:	fa000713          	li	a4,-96
    2da8:	00a7ea63          	bltu	a5,a0,2dbc <rf_set_chn+0x54>
    2dac:	94b68693          	addi	a3,a3,-1717
    2db0:	fe000713          	li	a4,-32
    2db4:	00a6f463          	bgeu	a3,a0,2dbc <rf_set_chn+0x54>
    2db8:	fc000713          	li	a4,-64
    2dbc:	801417b7          	lui	a5,0x80141
    2dc0:	b01f858b          	lbgp	a1,-1280 # 80300 <g_single_tong_freqoffset>
    2dc4:	e4478683          	lb	a3,-444(a5) # 80140e44 <_DATA_LMA_START+0x60120b84>
    2dc8:	0ff5f593          	andi	a1,a1,255
    2dcc:	0ff6f693          	andi	a3,a3,255
    2dd0:	0016e693          	ori	a3,a3,1
    2dd4:	e4d78223          	sb	a3,-444(a5)
    2dd8:	e4478603          	lb	a2,-444(a5)
    2ddc:	0aa5855b          	lea.h	a0,a1,a0
    2de0:	047526db          	bfoz	a3,a0,1,7
    2de4:	8a05                	c.andi	a2,1
    2de6:	8ed1                	c.or	a3,a2
    2de8:	e4d78223          	sb	a3,-444(a5)
    2dec:	e4578683          	lb	a3,-443(a5)
    2df0:	3875255b          	bfoz	a0,a0,14,7
    2df4:	0c06f693          	andi	a3,a3,192
    2df8:	8d55                	c.or	a0,a3
    2dfa:	e4a782a3          	sb	a0,-443(a5)
    2dfe:	e2978683          	lb	a3,-471(a5)
    2e02:	8afd                	c.andi	a3,31
    2e04:	8f55                	c.or	a4,a3
    2e06:	0ff77713          	andi	a4,a4,255
    2e0a:	e2e784a3          	sb	a4,-471(a5)
    2e0e:	8082                	c.jr	ra

Disassembly of section .text:

20002f70 <user_init>:
20002f70:	1141                	c.addi	sp,-16
20002f72:	c606                	c.swsp	ra,12(sp)
20002f74:	c422                	c.swsp	s0,8(sp)
20002f76:	80140437          	lui	s0,0x80140
20002f7a:	30e40783          	lb	a5,782(s0) # 8014030e <_DATA_LMA_START+0x6012004e>
20002f7e:	0ff7f793          	andi	a5,a5,255
20002f82:	0107e793          	ori	a5,a5,16
20002f86:	30f40723          	sb	a5,782(s0)
20002f8a:	30a40783          	lb	a5,778(s0)
20002f8e:	0ef7f793          	andi	a5,a5,239
20002f92:	30f40523          	sb	a5,778(s0)
20002f96:	11000513          	li	a0,272
20002f9a:	68e020ef          	jal	ra,20005628 <gpio_input_dis>
20002f9e:	30e40783          	lb	a5,782(s0)
20002fa2:	0ff7f793          	andi	a5,a5,255
20002fa6:	0207e793          	ori	a5,a5,32
20002faa:	30f40723          	sb	a5,782(s0)
20002fae:	30a40783          	lb	a5,778(s0)
20002fb2:	0df7f793          	andi	a5,a5,223
20002fb6:	30f40523          	sb	a5,778(s0)
20002fba:	12000513          	li	a0,288
20002fbe:	66a020ef          	jal	ra,20005628 <gpio_input_dis>
20002fc2:	30e40783          	lb	a5,782(s0)
20002fc6:	0ff7f793          	andi	a5,a5,255
20002fca:	0407e793          	ori	a5,a5,64
20002fce:	30f40723          	sb	a5,782(s0)
20002fd2:	30a40783          	lb	a5,778(s0)
20002fd6:	0bf7f793          	andi	a5,a5,191
20002fda:	30f40523          	sb	a5,778(s0)
20002fde:	14000513          	li	a0,320
20002fe2:	646020ef          	jal	ra,20005628 <gpio_input_dis>
20002fe6:	30e40783          	lb	a5,782(s0)
20002fea:	f807e793          	ori	a5,a5,-128
20002fee:	0ff7f793          	andi	a5,a5,255
20002ff2:	30f40723          	sb	a5,782(s0)
20002ff6:	30a40783          	lb	a5,778(s0)
20002ffa:	07f7f793          	andi	a5,a5,127
20002ffe:	30f40523          	sb	a5,778(s0)
20003002:	18000513          	li	a0,384
20003006:	622020ef          	jal	ra,20005628 <gpio_input_dis>
2000300a:	33140783          	lb	a5,817(s0)
2000300e:	0f37f793          	andi	a5,a5,243
20003012:	32f408a3          	sb	a5,817(s0)
20003016:	30640783          	lb	a5,774(s0)
2000301a:	0df7f793          	andi	a5,a5,223
2000301e:	30f40323          	sb	a5,774(s0)
20003022:	33140783          	lb	a5,817(s0)
20003026:	0cf7f793          	andi	a5,a5,207
2000302a:	32f408a3          	sb	a5,817(s0)
2000302e:	30640783          	lb	a5,774(s0)
20003032:	0bf7f793          	andi	a5,a5,191
20003036:	30f40323          	sb	a5,774(s0)
2000303a:	06000513          	li	a0,96
2000303e:	542020ef          	jal	ra,20005580 <gpio_input_en>
20003042:	452d                	c.li	a0,11
20003044:	dfffe097          	auipc	ra,0xdfffe
20003048:	800080e7          	jalr	-2048(ra) # 844 <analog_read_reg8>
2000304c:	f8056593          	ori	a1,a0,-128
20003050:	0ff5f593          	andi	a1,a1,255
20003054:	452d                	c.li	a0,11
20003056:	dfffe097          	auipc	ra,0xdfffe
2000305a:	83e080e7          	jalr	-1986(ra) # 894 <analog_write_reg8>
2000305e:	801017b7          	lui	a5,0x80101
20003062:	c0178703          	lb	a4,-1023(a5) # 80100c01 <_DATA_LMA_START+0x600e0941>
20003066:	f8076713          	ori	a4,a4,-128
2000306a:	0ff77713          	andi	a4,a4,255
2000306e:	c0e780a3          	sb	a4,-1023(a5)
20003072:	4705                	c.li	a4,1
20003074:	82e78e23          	sb	a4,-1988(a5)
20003078:	83d78703          	lb	a4,-1987(a5)
2000307c:	0ff77713          	andi	a4,a4,255
20003080:	00176713          	ori	a4,a4,1
20003084:	82e78ea3          	sb	a4,-1987(a5)
20003088:	3e800513          	li	a0,1000
2000308c:	dfffe097          	auipc	ra,0xdfffe
20003090:	7c4080e7          	jalr	1988(ra) # 1850 <delay_ms>
20003094:	2000b6b7          	lui	a3,0x2000b
20003098:	87068693          	addi	a3,a3,-1936 # 2000a870 <__riscv_restore_0+0xc>
2000309c:	7e300613          	li	a2,2019
200030a0:	65a9                	c.lui	a1,0xa
200030a2:	0585                	c.addi	a1,1
200030a4:	2000b537          	lui	a0,0x2000b
200030a8:	87c50513          	addi	a0,a0,-1924 # 2000a87c <__riscv_restore_0+0x18>
200030ac:	323060ef          	jal	ra,20009bce <printf>
200030b0:	40b2                	c.lwsp	ra,12(sp)
200030b2:	4422                	c.lwsp	s0,8(sp)
200030b4:	0141                	c.addi	sp,16
200030b6:	8082                	c.jr	ra
200030b8:	0001                	c.nop
	...

200030bc <main>:
200030bc:	711d                	c.addi16sp	sp,-96
200030be:	ce86                	c.swsp	ra,92(sp)
200030c0:	cca2                	c.swsp	s0,88(sp)
200030c2:	caa6                	c.swsp	s1,84(sp)
200030c4:	c8ca                	c.swsp	s2,80(sp)
200030c6:	c6ce                	c.swsp	s3,76(sp)
200030c8:	fe22                	c.fswsp	fs0,60(sp)
200030ca:	4581                	c.li	a1,0
200030cc:	4501                	c.li	a0,0
200030ce:	347030ef          	jal	ra,20006c14 <platform_init>
200030d2:	4791                	c.li	a5,4
200030d4:	4705                	c.li	a4,1
200030d6:	4685                	c.li	a3,1
200030d8:	4621                	c.li	a2,8
200030da:	4589                	c.li	a1,2
200030dc:	6531                	c.lui	a0,0xc
200030de:	04250513          	addi	a0,a0,66 # c042 <_RAMCODE_VMA_END+0x9232>
200030e2:	7f7010ef          	jal	ra,200050d8 <clock_init>
200030e6:	3569                	c.jal	20002f70 <user_init>
200030e8:	4551                	c.li	a0,20
200030ea:	dfffe097          	auipc	ra,0xdfffe
200030ee:	766080e7          	jalr	1894(ra) # 1850 <delay_ms>
200030f2:	2000b537          	lui	a0,0x2000b
200030f6:	8cc50513          	addi	a0,a0,-1844 # 2000a8cc <__riscv_restore_0+0x68>
200030fa:	2f3060ef          	jal	ra,20009bec <puts>
200030fe:	4551                	c.li	a0,20
20003100:	dfffe097          	auipc	ra,0xdfffe
20003104:	750080e7          	jalr	1872(ra) # 1850 <delay_ms>
20003108:	2000b537          	lui	a0,0x2000b
2000310c:	90050513          	addi	a0,a0,-1792 # 2000a900 <__riscv_restore_0+0x9c>
20003110:	2dd060ef          	jal	ra,20009bec <puts>
20003114:	4551                	c.li	a0,20
20003116:	dfffe097          	auipc	ra,0xdfffe
2000311a:	73a080e7          	jalr	1850(ra) # 1850 <delay_ms>
2000311e:	2000b537          	lui	a0,0x2000b
20003122:	94450513          	addi	a0,a0,-1724 # 2000a944 <__riscv_restore_0+0xe0>
20003126:	2c7060ef          	jal	ra,20009bec <puts>
2000312a:	4551                	c.li	a0,20
2000312c:	dfffe097          	auipc	ra,0xdfffe
20003130:	724080e7          	jalr	1828(ra) # 1850 <delay_ms>
20003134:	2000b537          	lui	a0,0x2000b
20003138:	99050513          	addi	a0,a0,-1648 # 2000a990 <__riscv_restore_0+0x12c>
2000313c:	2b1060ef          	jal	ra,20009bec <puts>
20003140:	4551                	c.li	a0,20
20003142:	dfffe097          	auipc	ra,0xdfffe
20003146:	70e080e7          	jalr	1806(ra) # 1850 <delay_ms>
2000314a:	2000b537          	lui	a0,0x2000b
2000314e:	9d450513          	addi	a0,a0,-1580 # 2000a9d4 <__riscv_restore_0+0x170>
20003152:	29b060ef          	jal	ra,20009bec <puts>
20003156:	4551                	c.li	a0,20
20003158:	dfffe097          	auipc	ra,0xdfffe
2000315c:	6f8080e7          	jalr	1784(ra) # 1850 <delay_ms>
20003160:	4401                	c.li	s0,0
20003162:	a0a9                	c.j	200031ac <main+0xf0>
20003164:	8522                	c.mv	a0,s0
20003166:	4f3050ef          	jal	ra,20008e58 <__floatsidf>
2000316a:	000807b7          	lui	a5,0x80
2000316e:	20078793          	addi	a5,a5,512 # 80200 <cst_libm_sincosf+0x1c>
20003172:	4390                	c.lw	a2,0(a5)
20003174:	43d4                	c.lw	a3,4(a5)
20003176:	692050ef          	jal	ra,20008808 <__muldf3>
2000317a:	000807b7          	lui	a5,0x80
2000317e:	20878793          	addi	a5,a5,520 # 80208 <cst_libm_sincosf+0x24>
20003182:	4390                	c.lw	a2,0(a5)
20003184:	43d4                	c.lw	a3,4(a5)
20003186:	682050ef          	jal	ra,20008808 <__muldf3>
2000318a:	00141493          	slli	s1,s0,0x1
2000318e:	657050ef          	jal	ra,20008fe4 <__truncdfsf2>
20003192:	663030ef          	jal	ra,20006ff4 <sinf>
20003196:	b15f978b          	addigp	a5,-1260 # 80314 <input>
2000319a:	0e87875b          	lea.d	a4,a5,s0
2000319e:	e308                	c.fsw	fa0,0(a4)
200031a0:	0485                	c.addi	s1,1
200031a2:	0c9784db          	lea.w	s1,a5,s1
200031a6:	0004a023          	sw	zero,0(s1)
200031aa:	0405                	c.addi	s0,1
200031ac:	07f00793          	li	a5,127
200031b0:	fa87dae3          	bge	a5,s0,20003164 <main+0xa8>
200031b4:	2000b537          	lui	a0,0x2000b
200031b8:	9fc50513          	addi	a0,a0,-1540 # 2000a9fc <__riscv_restore_0+0x198>
200031bc:	231060ef          	jal	ra,20009bec <puts>
200031c0:	4551                	c.li	a0,20
200031c2:	dfffe097          	auipc	ra,0xdfffe
200031c6:	68e080e7          	jalr	1678(ra) # 1850 <delay_ms>
200031ca:	08000593          	li	a1,128
200031ce:	1048                	c.addi4spn	a0,sp,36
200031d0:	548040ef          	jal	ra,20007718 <riscv_cfft_init_f32>
200031d4:	2000b537          	lui	a0,0x2000b
200031d8:	a1450513          	addi	a0,a0,-1516 # 2000aa14 <__riscv_restore_0+0x1b0>
200031dc:	211060ef          	jal	ra,20009bec <puts>
200031e0:	57fd                	c.li	a5,-1
200031e2:	3207b073          	csrc	mucounteren,a5
200031e6:	a79f940b          	addigp	s0,-1416 # 80278 <_DATA_VMA_END>
200031ea:	4601                	c.li	a2,0
200031ec:	4681                	c.li	a3,0
200031ee:	c010                	c.sw	a2,0(s0)
200031f0:	c054                	c.sw	a3,4(s0)
200031f2:	a89f978b          	addigp	a5,-1400 # 80288 <_bc_sumcyc>
200031f6:	c390                	c.sw	a2,0(a5)
200031f8:	c3d4                	c.sw	a3,4(a5)
200031fa:	c390                	c.sw	a2,0(a5)
200031fc:	c3d4                	c.sw	a3,4(a5)
200031fe:	a91f978b          	addigp	a5,-1392 # 80290 <_bc_usecyc>
20003202:	c390                	c.sw	a2,0(a5)
20003204:	c3d4                	c.sw	a3,4(a5)
20003206:	a81f978b          	addigp	a5,-1408 # 80280 <_bc_lpcnt>
2000320a:	c390                	c.sw	a2,0(a5)
2000320c:	c3d4                	c.sw	a3,4(a5)
2000320e:	8932                	c.mv	s2,a2
20003210:	89b6                	c.mv	s3,a3
20003212:	c010                	c.sw	a2,0(s0)
20003214:	c054                	c.sw	a3,4(s0)
20003216:	2000b537          	lui	a0,0x2000b
2000321a:	a2c50513          	addi	a0,a0,-1492 # 2000aa2c <__riscv_restore_0+0x1c8>
2000321e:	1cf060ef          	jal	ra,20009bec <puts>
20003222:	4551                	c.li	a0,20
20003224:	dfffe097          	auipc	ra,0xdfffe
20003228:	62c080e7          	jalr	1580(ra) # 1850 <delay_ms>
2000322c:	01242023          	sw	s2,0(s0)
20003230:	01342223          	sw	s3,4(s0)
20003234:	b80027f3          	csrr	a5,mcycleh
20003238:	cc3e                	c.swsp	a5,24(sp)
2000323a:	b00027f3          	csrr	a5,mcycle
2000323e:	ce3e                	c.swsp	a5,28(sp)
20003240:	b80027f3          	csrr	a5,mcycleh
20003244:	d03e                	c.swsp	a5,32(sp)
20003246:	4762                	c.lwsp	a4,24(sp)
20003248:	5782                	c.lwsp	a5,32(sp)
2000324a:	00f70563          	beq	a4,a5,20003254 <main+0x198>
2000324e:	b00027f3          	csrr	a5,mcycle
20003252:	ce3e                	c.swsp	a5,28(sp)
20003254:	5782                	c.lwsp	a5,32(sp)
20003256:	4772                	c.lwsp	a4,28(sp)
20003258:	863a                	c.mv	a2,a4
2000325a:	86be                	c.mv	a3,a5
2000325c:	aa1f978b          	addigp	a5,-1376 # 802a0 <_bc_sttcyc>
20003260:	c390                	c.sw	a2,0(a5)
20003262:	c3d4                	c.sw	a3,4(a5)
20003264:	4685                	c.li	a3,1
20003266:	4601                	c.li	a2,0
20003268:	b15f958b          	addigp	a1,-1260 # 80314 <input>
2000326c:	1048                	c.addi4spn	a0,sp,36
2000326e:	522040ef          	jal	ra,20007790 <riscv_cfft_f32>
20003272:	b80027f3          	csrr	a5,mcycleh
20003276:	c63e                	c.swsp	a5,12(sp)
20003278:	b00027f3          	csrr	a5,mcycle
2000327c:	c83e                	c.swsp	a5,16(sp)
2000327e:	b80027f3          	csrr	a5,mcycleh
20003282:	ca3e                	c.swsp	a5,20(sp)
20003284:	4732                	c.lwsp	a4,12(sp)
20003286:	47d2                	c.lwsp	a5,20(sp)
20003288:	00f70663          	beq	a4,a5,20003294 <main+0x1d8>
2000328c:	b00027f3          	csrr	a5,mcycle
20003290:	00f12823          	sw	a5,16(sp)
20003294:	47d2                	c.lwsp	a5,20(sp)
20003296:	4742                	c.lwsp	a4,16(sp)
20003298:	863a                	c.mv	a2,a4
2000329a:	86be                	c.mv	a3,a5
2000329c:	a99f978b          	addigp	a5,-1384 # 80298 <_bc_endcyc>
200032a0:	c390                	c.sw	a2,0(a5)
200032a2:	c3d4                	c.sw	a3,4(a5)
200032a4:	4398                	c.lw	a4,0(a5)
200032a6:	43dc                	c.lw	a5,4(a5)
200032a8:	aa1f968b          	addigp	a3,-1376 # 802a0 <_bc_sttcyc>
200032ac:	4290                	c.lw	a2,0(a3)
200032ae:	42d4                	c.lw	a3,4(a3)
200032b0:	c2c7177f          	sub64	a4,a4,a2
200032b4:	a91f940b          	addigp	s0,-1392 # 80290 <_bc_usecyc>
200032b8:	c018                	c.sw	a4,0(s0)
200032ba:	c05c                	c.sw	a5,4(s0)
200032bc:	4008                	c.lw	a0,0(s0)
200032be:	404c                	c.lw	a1,4(s0)
200032c0:	a89f978b          	addigp	a5,-1400 # 80288 <_bc_sumcyc>
200032c4:	4390                	c.lw	a2,0(a5)
200032c6:	43d4                	c.lw	a3,4(a5)
200032c8:	c0a6167f          	add64	a2,a2,a0
200032cc:	c390                	c.sw	a2,0(a5)
200032ce:	c3d4                	c.sw	a3,4(a5)
200032d0:	a81f978b          	addigp	a5,-1408 # 80280 <_bc_lpcnt>
200032d4:	4388                	c.lw	a0,0(a5)
200032d6:	43cc                	c.lw	a1,4(a5)
200032d8:	00150713          	addi	a4,a0,1
200032dc:	00a73833          	sltu	a6,a4,a0
200032e0:	863a                	c.mv	a2,a4
200032e2:	00b806b3          	add	a3,a6,a1
200032e6:	c390                	c.sw	a2,0(a5)
200032e8:	c3d4                	c.sw	a3,4(a5)
200032ea:	4010                	c.lw	a2,0(s0)
200032ec:	4054                	c.lw	a3,4(s0)
200032ee:	2000b5b7          	lui	a1,0x2000b
200032f2:	a3c58593          	addi	a1,a1,-1476 # 2000aa3c <__riscv_restore_0+0x1d8>
200032f6:	2000b537          	lui	a0,0x2000b
200032fa:	a4050513          	addi	a0,a0,-1472 # 2000aa40 <__riscv_restore_0+0x1dc>
200032fe:	0d1060ef          	jal	ra,20009bce <printf>
20003302:	4018                	c.lw	a4,0(s0)
20003304:	405c                	c.lw	a5,4(s0)
20003306:	aaefc5ab          	swgp	a4,-1368 # 802a8 <cycle_count>
2000330a:	85ba                	c.mv	a1,a4
2000330c:	2000b537          	lui	a0,0x2000b
20003310:	a5050513          	addi	a0,a0,-1456 # 2000aa50 <__riscv_restore_0+0x1ec>
20003314:	0bb060ef          	jal	ra,20009bce <printf>
20003318:	4579                	c.li	a0,30
2000331a:	dfffe097          	auipc	ra,0xdfffe
2000331e:	536080e7          	jalr	1334(ra) # 1850 <delay_ms>
20003322:	08000613          	li	a2,128
20003326:	f15f958b          	addigp	a1,-236 # 80714 <magnitude>
2000332a:	b15f950b          	addigp	a0,-1260 # 80314 <input>
2000332e:	0de040ef          	jal	ra,2000740c <riscv_cmplx_mag_f32>
20003332:	4701                	c.li	a4,0
20003334:	0180006f          	j	2000334c <main+0x290>
20003338:	d00777d3          	fcvt.s.w	fa5,a4
2000333c:	00f7f7d3          	fadd.s	fa5,fa5,fa5
20003340:	1140178b          	addigp	a5,276 # 80914 <frequency_bin>
20003344:	0ce787db          	lea.w	a5,a5,a4
20003348:	e39c                	c.fsw	fa5,0(a5)
2000334a:	0705                	c.addi	a4,1
2000334c:	07f00793          	li	a5,127
20003350:	fee7d4e3          	bge	a5,a4,20003338 <main+0x27c>
20003354:	2000b537          	lui	a0,0x2000b
20003358:	a6c50513          	addi	a0,a0,-1428 # 2000aa6c <__riscv_restore_0+0x208>
2000335c:	091060ef          	jal	ra,20009bec <puts>
20003360:	4401                	c.li	s0,0
20003362:	a099                	c.j	200033a8 <main+0x2ec>
20003364:	00241713          	slli	a4,s0,0x2
20003368:	1140178b          	addigp	a5,276 # 80914 <frequency_bin>
2000336c:	97ba                	c.add	a5,a4
2000336e:	6380                	c.flw	fs0,0(a5)
20003370:	f15f978b          	addigp	a5,-236 # 80714 <magnitude>
20003374:	973e                	c.add	a4,a5
20003376:	6308                	c.flw	fa0,0(a4)
20003378:	35d050ef          	jal	ra,20008ed4 <__extendsfdf2>
2000337c:	892a                	c.mv	s2,a0
2000337e:	89ae                	c.mv	s3,a1
20003380:	20840553          	fmv.s	fa0,fs0
20003384:	351050ef          	jal	ra,20008ed4 <__extendsfdf2>
20003388:	874a                	c.mv	a4,s2
2000338a:	87ce                	c.mv	a5,s3
2000338c:	862a                	c.mv	a2,a0
2000338e:	86ae                	c.mv	a3,a1
20003390:	2000b537          	lui	a0,0x2000b
20003394:	a8850513          	addi	a0,a0,-1400 # 2000aa88 <__riscv_restore_0+0x224>
20003398:	037060ef          	jal	ra,20009bce <printf>
2000339c:	4529                	c.li	a0,10
2000339e:	dfffe097          	auipc	ra,0xdfffe
200033a2:	4b2080e7          	jalr	1202(ra) # 1850 <delay_ms>
200033a6:	0405                	c.addi	s0,1
200033a8:	07f00793          	li	a5,127
200033ac:	fa87dce3          	bge	a5,s0,20003364 <main+0x2a8>
200033b0:	a79f978b          	addigp	a5,-1416 # 80278 <_DATA_VMA_END>
200033b4:	4398                	c.lw	a4,0(a5)
200033b6:	43dc                	c.lw	a5,4(a5)
200033b8:	8fd9                	c.or	a5,a4
200033ba:	e78d                	c.bnez	a5,200033e4 <main+0x328>
200033bc:	2000b5b7          	lui	a1,0x2000b
200033c0:	a3c58593          	addi	a1,a1,-1476 # 2000aa3c <__riscv_restore_0+0x1d8>
200033c4:	2000b537          	lui	a0,0x2000b
200033c8:	aa050513          	addi	a0,a0,-1376 # 2000aaa0 <__riscv_restore_0+0x23c>
200033cc:	003060ef          	jal	ra,20009bce <printf>
200033d0:	4501                	c.li	a0,0
200033d2:	40f6                	c.lwsp	ra,92(sp)
200033d4:	4466                	c.lwsp	s0,88(sp)
200033d6:	44d6                	c.lwsp	s1,84(sp)
200033d8:	4946                	c.lwsp	s2,80(sp)
200033da:	49b6                	c.lwsp	s3,76(sp)
200033dc:	7472                	c.flwsp	fs0,60(sp)
200033de:	6125                	c.addi16sp	sp,96
200033e0:	00008067          	ret
200033e4:	2000b5b7          	lui	a1,0x2000b
200033e8:	a3c58593          	addi	a1,a1,-1476 # 2000aa3c <__riscv_restore_0+0x1d8>
200033ec:	2000b537          	lui	a0,0x2000b
200033f0:	a9450513          	addi	a0,a0,-1388 # 2000aa94 <__riscv_restore_0+0x230>
200033f4:	7da060ef          	jal	ra,20009bce <printf>
200033f8:	bfe1                	c.j	200033d0 <main+0x314>
	...

200033fc <default_irq_entry>:
200033fc:	a001                	c.j	200033fc <default_irq_entry>

200033fe <trap_handler>:
200033fe:	a001                	c.j	200033fe <trap_handler>
20003400:	0001                	c.nop
	...

20003404 <adc_set_dma_config>:
20003404:	5ca23b0b          	sbgp	a0,5590 # 81dd6 <adc_dma_chn>
20003408:	45d1                	c.li	a1,20
2000340a:	001007b7          	lui	a5,0x100
2000340e:	44478793          	addi	a5,a5,1092 # 100444 <FLASH_SIZE+0x444>
20003412:	86be                	c.mv	a3,a5
20003414:	c4b516ff          	maddr32	a3,a0,a1
20003418:	80000637          	lui	a2,0x80000
2000341c:	8ed1                	c.or	a3,a2
2000341e:	4298                	c.lw	a4,0(a3)
20003420:	8b3d                	c.andi	a4,15
20003422:	a13fa52b          	lwgp	a0,-1520 # 80210 <adc_rx_dma_config>
20003426:	0512                	c.slli	a0,0x4
20003428:	8f49                	c.or	a4,a0
2000342a:	c298                	c.sw	a4,0(a3)
2000342c:	5d62270b          	lbugp	a4,5590 # 81dd6 <adc_dma_chn>
20003430:	86be                	c.mv	a3,a5
20003432:	c4b716ff          	maddr32	a3,a4,a1
20003436:	8ed1                	c.or	a3,a2
20003438:	00068703          	lb	a4,0(a3)
2000343c:	0ff77713          	andi	a4,a4,255
20003440:	00e76713          	ori	a4,a4,14
20003444:	00e68023          	sb	a4,0(a3)
20003448:	5d62270b          	lbugp	a4,5590 # 81dd6 <adc_dma_chn>
2000344c:	c4b717ff          	maddr32	a5,a4,a1
20003450:	8fd1                	c.or	a5,a2
20003452:	00078703          	lb	a4,0(a5)
20003456:	0ff77713          	andi	a4,a4,255
2000345a:	00e76713          	ori	a4,a4,14
2000345e:	0fd77713          	andi	a4,a4,253
20003462:	00e78023          	sb	a4,0(a5)
20003466:	801407b7          	lui	a5,0x80140
2000346a:	5701                	c.li	a4,-32
2000346c:	50e782a3          	sb	a4,1285(a5) # 80140505 <_DATA_LMA_START+0x60120245>
20003470:	00008067          	ret

20003474 <adc_start_sample_dma>:
20003474:	5d62270b          	lbugp	a4,5590 # 81dd6 <adc_dma_chn>
20003478:	86aa                	c.mv	a3,a0
2000347a:	47d1                	c.li	a5,20
2000347c:	02f70733          	mul	a4,a4,a5
20003480:	001007b7          	lui	a5,0x100
20003484:	44878793          	addi	a5,a5,1096 # 100448 <FLASH_SIZE+0x448>
20003488:	97ba                	c.add	a5,a4
2000348a:	80000637          	lui	a2,0x80000
2000348e:	8fd1                	c.or	a5,a2
20003490:	80120637          	lui	a2,0x80120
20003494:	04060613          	addi	a2,a2,64 # 80120040 <_DATA_LMA_START+0x600ffd80>
20003498:	c390                	c.sw	a2,0(a5)
2000349a:	000a07b7          	lui	a5,0xa0
2000349e:	00f57563          	bgeu	a0,a5,200034a8 <adc_start_sample_dma+0x34>
200034a2:	c01806b7          	lui	a3,0xc0180
200034a6:	96aa                	c.add	a3,a0
200034a8:	001007b7          	lui	a5,0x100
200034ac:	44c78613          	addi	a2,a5,1100 # 10044c <FLASH_SIZE+0x44c>
200034b0:	9732                	c.add	a4,a2
200034b2:	80000637          	lui	a2,0x80000
200034b6:	8f51                	c.or	a4,a2
200034b8:	c314                	c.sw	a3,0(a4)
200034ba:	5d62288b          	lbugp	a7,5590 # 81dd6 <adc_dma_chn>
200034be:	00358693          	addi	a3,a1,3
200034c2:	8289                	c.srli	a3,0x2
200034c4:	05da                	c.slli	a1,0x16
200034c6:	00c00737          	lui	a4,0xc00
200034ca:	8df9                	c.and	a1,a4
200034cc:	4551                	c.li	a0,20
200034ce:	45078713          	addi	a4,a5,1104
200034d2:	c4a8977f          	maddr32	a4,a7,a0
200034d6:	8f51                	c.or	a4,a2
200034d8:	8dd5                	c.or	a1,a3
200034da:	c30c                	c.sw	a1,0(a4)
200034dc:	5d62270b          	lbugp	a4,5590 # 81dd6 <adc_dma_chn>
200034e0:	44478793          	addi	a5,a5,1092
200034e4:	c4a717ff          	maddr32	a5,a4,a0
200034e8:	8fd1                	c.or	a5,a2
200034ea:	00078703          	lb	a4,0(a5)
200034ee:	0ff77713          	andi	a4,a4,255
200034f2:	00176713          	ori	a4,a4,1
200034f6:	00e78023          	sb	a4,0(a5)
200034fa:	80140737          	lui	a4,0x80140
200034fe:	50270783          	lb	a5,1282(a4) # 80140502 <_DATA_LMA_START+0x60120242>
20003502:	0f77f793          	andi	a5,a5,247
20003506:	50f70123          	sb	a5,1282(a4)
2000350a:	8082                	c.jr	ra

2000350c <adc_get_sample_status_dma>:
2000350c:	5d62278b          	lbugp	a5,5590 # 81dd6 <adc_dma_chn>
20003510:	4505                	c.li	a0,1
20003512:	00f51533          	sll	a0,a0,a5
20003516:	801007b7          	lui	a5,0x80100
2000351a:	43278783          	lb	a5,1074(a5) # 80100432 <_DATA_LMA_START+0x600e0172>
2000351e:	0ff7f793          	andi	a5,a5,255
20003522:	8d7d                	c.and	a0,a5
20003524:	00008067          	ret

20003528 <adc_clr_sample_status_dma>:
20003528:	5d62260b          	lbugp	a2,5590 # 81dd6 <adc_dma_chn>
2000352c:	4751                	c.li	a4,20
2000352e:	001007b7          	lui	a5,0x100
20003532:	44478793          	addi	a5,a5,1092 # 100444 <FLASH_SIZE+0x444>
20003536:	c4e617ff          	maddr32	a5,a2,a4
2000353a:	80000737          	lui	a4,0x80000
2000353e:	8fd9                	c.or	a5,a4
20003540:	00078703          	lb	a4,0(a5)
20003544:	0fe77713          	andi	a4,a4,254
20003548:	00e78023          	sb	a4,0(a5)
2000354c:	5d62270b          	lbugp	a4,5590 # 81dd6 <adc_dma_chn>
20003550:	4785                	c.li	a5,1
20003552:	00e797b3          	sll	a5,a5,a4
20003556:	0ff7f793          	andi	a5,a5,255
2000355a:	80100737          	lui	a4,0x80100
2000355e:	42f70923          	sb	a5,1074(a4) # 80100432 <_DATA_LMA_START+0x600e0172>
20003562:	8082                	c.jr	ra

20003564 <adc_stop_sample_dma>:
20003564:	80140737          	lui	a4,0x80140
20003568:	50270783          	lb	a5,1282(a4) # 80140502 <_DATA_LMA_START+0x60120242>
2000356c:	0ff7f793          	andi	a5,a5,255
20003570:	0087e793          	ori	a5,a5,8
20003574:	50f70123          	sb	a5,1282(a4)
20003578:	00008067          	ret

2000357c <adc_pin_config>:
2000357c:	1101                	c.addi	sp,-32
2000357e:	ce06                	c.swsp	ra,28(sp)
20003580:	cc22                	c.swsp	s0,24(sp)
20003582:	ca26                	c.swsp	s1,20(sp)
20003584:	c84a                	c.swsp	s2,16(sp)
20003586:	c64e                	c.swsp	s3,12(sp)
20003588:	c452                	c.swsp	s4,8(sp)
2000358a:	2c05a45b          	bfoz	s0,a1,11,0
2000358e:	c919                	c.beqz	a0,200035a4 <adc_pin_config+0x28>
20003590:	0815505b          	beqc	a0,1,20003610 <adc_pin_config+0x94>
20003594:	40f2                	c.lwsp	ra,28(sp)
20003596:	4462                	c.lwsp	s0,24(sp)
20003598:	44d2                	c.lwsp	s1,20(sp)
2000359a:	4942                	c.lwsp	s2,16(sp)
2000359c:	49b2                	c.lwsp	s3,12(sp)
2000359e:	4a22                	c.lwsp	s4,8(sp)
200035a0:	6105                	c.addi16sp	sp,32
200035a2:	8082                	c.jr	ra
200035a4:	0ff47a13          	andi	s4,s0,255
200035a8:	00845493          	srli	s1,s0,0x8
200035ac:	048e                	c.slli	s1,0x3
200035ae:	00140937          	lui	s2,0x140
200035b2:	30690793          	addi	a5,s2,774 # 140306 <FLASH_SIZE+0x40306>
200035b6:	97a6                	c.add	a5,s1
200035b8:	800009b7          	lui	s3,0x80000
200035bc:	0137e7b3          	or	a5,a5,s3
200035c0:	00078703          	lb	a4,0(a5)
200035c4:	0ff77713          	andi	a4,a4,255
200035c8:	00ea6733          	or	a4,s4,a4
200035cc:	00e78023          	sb	a4,0(a5)
200035d0:	8522                	c.mv	a0,s0
200035d2:	056020ef          	jal	ra,20005628 <gpio_input_dis>
200035d6:	30290793          	addi	a5,s2,770
200035da:	97a6                	c.add	a5,s1
200035dc:	0137e7b3          	or	a5,a5,s3
200035e0:	00078703          	lb	a4,0(a5)
200035e4:	0ff77713          	andi	a4,a4,255
200035e8:	01476733          	or	a4,a4,s4
200035ec:	00e78023          	sb	a4,0(a5)
200035f0:	30390913          	addi	s2,s2,771
200035f4:	94ca                	c.add	s1,s2
200035f6:	0134e4b3          	or	s1,s1,s3
200035fa:	00048783          	lb	a5,0(s1)
200035fe:	fff44413          	not	s0,s0
20003602:	8c7d                	c.and	s0,a5
20003604:	0ff47413          	andi	s0,s0,255
20003608:	00848023          	sb	s0,0(s1)
2000360c:	f89ff06f          	j	20003594 <adc_pin_config+0x18>
20003610:	0ff47913          	andi	s2,s0,255
20003614:	00845493          	srli	s1,s0,0x8
20003618:	048e                	c.slli	s1,0x3
2000361a:	00140a37          	lui	s4,0x140
2000361e:	306a0793          	addi	a5,s4,774 # 140306 <FLASH_SIZE+0x40306>
20003622:	97a6                	c.add	a5,s1
20003624:	800009b7          	lui	s3,0x80000
20003628:	0137e7b3          	or	a5,a5,s3
2000362c:	00078703          	lb	a4,0(a5)
20003630:	0ff77713          	andi	a4,a4,255
20003634:	00e96733          	or	a4,s2,a4
20003638:	00e78023          	sb	a4,0(a5)
2000363c:	8522                	c.mv	a0,s0
2000363e:	7eb010ef          	jal	ra,20005628 <gpio_input_dis>
20003642:	302a0793          	addi	a5,s4,770
20003646:	97a6                	c.add	a5,s1
20003648:	0137e7b3          	or	a5,a5,s3
2000364c:	00078703          	lb	a4,0(a5)
20003650:	fff44413          	not	s0,s0
20003654:	8c79                	c.and	s0,a4
20003656:	0ff47413          	andi	s0,s0,255
2000365a:	00878023          	sb	s0,0(a5)
2000365e:	303a0a13          	addi	s4,s4,771
20003662:	94d2                	c.add	s1,s4
20003664:	0134e4b3          	or	s1,s1,s3
20003668:	00048783          	lb	a5,0(s1)
2000366c:	0ff7f793          	andi	a5,a5,255
20003670:	0127e933          	or	s2,a5,s2
20003674:	01248023          	sb	s2,0(s1)
20003678:	f1dff06f          	j	20003594 <adc_pin_config+0x18>

2000367c <adc_set_diff_pin>:
2000367c:	1141                	c.addi	sp,-16
2000367e:	c606                	c.swsp	ra,12(sp)
20003680:	c422                	c.swsp	s0,8(sp)
20003682:	c226                	c.swsp	s1,4(sp)
20003684:	842a                	c.mv	s0,a0
20003686:	84ae                	c.mv	s1,a1
20003688:	85aa                	c.mv	a1,a0
2000368a:	4501                	c.li	a0,0
2000368c:	3dc5                	c.jal	2000357c <adc_pin_config>
2000368e:	85a6                	c.mv	a1,s1
20003690:	4501                	c.li	a0,0
20003692:	35ed                	c.jal	2000357c <adc_pin_config>
20003694:	8031                	c.srli	s0,0xc
20003696:	80b1                	c.srli	s1,0xc
20003698:	0ec00513          	li	a0,236
2000369c:	dfffd097          	auipc	ra,0xdfffd
200036a0:	1a8080e7          	jalr	424(ra) # 844 <analog_read_reg8>
200036a4:	04056593          	ori	a1,a0,64
200036a8:	0ff5f593          	andi	a1,a1,255
200036ac:	0ec00513          	li	a0,236
200036b0:	dfffd097          	auipc	ra,0xdfffd
200036b4:	1e4080e7          	jalr	484(ra) # 894 <analog_write_reg8>
200036b8:	0412                	c.slli	s0,0x4
200036ba:	009465b3          	or	a1,s0,s1
200036be:	0eb00513          	li	a0,235
200036c2:	dfffd097          	auipc	ra,0xdfffd
200036c6:	1d2080e7          	jalr	466(ra) # 894 <analog_write_reg8>
200036ca:	40b2                	c.lwsp	ra,12(sp)
200036cc:	4422                	c.lwsp	s0,8(sp)
200036ce:	4492                	c.lwsp	s1,4(sp)
200036d0:	0141                	c.addi	sp,16
200036d2:	8082                	c.jr	ra

200036d4 <adc_set_gpio_calib_vref>:
200036d4:	000007b7          	lui	a5,0x0
200036d8:	16a79c23          	sh	a0,376(a5) # 178 <_AES_VMA_END>
200036dc:	00008067          	ret

200036e0 <adc_set_gpio_two_point_calib_offset>:
200036e0:	000007b7          	lui	a5,0x0
200036e4:	17878793          	addi	a5,a5,376 # 178 <_AES_VMA_END>
200036e8:	00a78123          	sb	a0,2(a5)
