
Andes_DSP_q15_benchmark.adx:     file format elf32-littleriscv
Andes_DSP_q15_benchmark.adx
architecture: riscv:rv32, flags 0x00000112:
EXEC_P, HAS_SYMS, D_PAGED
start address 0x20000000

Program Header:
    LOAD off    0x00001000 vaddr 0x20000000 paddr 0x20000000 align 2**12
         filesz 0x0000018a memsz 0x0000018a flags r-x
    LOAD off    0x00002000 vaddr 0x00000000 paddr 0x20000190 align 2**12
         filesz 0x000001bc memsz 0x000001bc flags rwx
    LOAD off    0x00002200 vaddr 0x00000200 paddr 0x20000350 align 2**12
         filesz 0x00004260 memsz 0x00004260 flags r-x
    LOAD off    0x00007000 vaddr 0x00080000 paddr 0x200045b0 align 2**12
         filesz 0x0000057e memsz 0x0000057e flags rw-
    LOAD off    0x000075b0 vaddr 0x000805b0 paddr 0x20004b2e align 2**12
         filesz 0x00000022 memsz 0x00000022 flags rw-
    LOAD off    0x00008580 vaddr 0x00080580 paddr 0x20004b30 align 2**12
         filesz 0x00000000 memsz 0x00000030 flags rw-
0x70000000 off    0x000183a6 vaddr 0x00000000 paddr 0x00000000 align 2**0
         filesz 0x0000004a memsz 0x00000000 flags r--

Sections:
Idx Name          Size      VMA       LMA       File off  Algn
  0 .vectors      0000018a  20000000  20000000  00001000  2**2
                  CONTENTS, ALLOC, LOAD, READONLY, CODE
  1 .retention_reset 00000154  00000000  20000190  00002000  2**2
                  CONTENTS, ALLOC, LOAD, READONLY, CODE
  2 .retention_data 00000064  00000158  200002e8  00002158  2**2
                  CONTENTS, ALLOC, LOAD, DATA
  3 .ram_code     00004260  00000200  20000350  00002200  2**8
                  CONTENTS, ALLOC, LOAD, READONLY, CODE
  4 .data         0000057e  00080000  200045b0  00007000  2**3
                  CONTENTS, ALLOC, LOAD, DATA
  5 .sbss         0000002c  00080580  20004b30  00008580  2**2
                  ALLOC
  6 .bss          00000004  000805ac  20004b5c  00008580  2**0
                  ALLOC
  7 .sdk_version  00000022  000805b0  20004b2e  000075b0  2**2
                  CONTENTS, ALLOC, LOAD, DATA
  8 .debug_info   00005668  00000000  00000000  000075d2  2**0
                  CONTENTS, READONLY, DEBUGGING
  9 .debug_abbrev 00000fbd  00000000  00000000  0000cc3a  2**0
                  CONTENTS, READONLY, DEBUGGING
 10 .debug_loc    00003542  00000000  00000000  0000dbf7  2**0
                  CONTENTS, READONLY, DEBUGGING
 11 .debug_aranges 00000218  00000000  00000000  00011140  2**3
                  CONTENTS, READONLY, DEBUGGING
 12 .debug_ranges 00000c28  00000000  00000000  00011358  2**3
                  CONTENTS, READONLY, DEBUGGING
 13 .debug_line   00003758  00000000  00000000  00011f80  2**0
                  CONTENTS, READONLY, DEBUGGING
 14 .debug_str    00002c5b  00000000  00000000  000156d8  2**0
                  CONTENTS, READONLY, DEBUGGING
 15 .comment      00000073  00000000  00000000  00018333  2**0
                  CONTENTS, READONLY
 16 .riscv.attributes 0000004a  00000000  00000000  000183a6  2**0
                  CONTENTS, READONLY
 17 .debug_frame  00000508  00000000  00000000  000183f0  2**2
                  CONTENTS, READONLY, DEBUGGING
SYMBOL TABLE:
20000000 l    d  .vectors	00000000 .vectors
00000000 l    d  .retention_reset	00000000 .retention_reset
00000158 l    d  .retention_data	00000000 .retention_data
00000200 l    d  .ram_code	00000000 .ram_code
00080000 l    d  .data	00000000 .data
00080580 l    d  .sbss	00000000 .sbss
000805ac l    d  .bss	00000000 .bss
000805b0 l    d  .sdk_version	00000000 .sdk_version
00000000 l    d  .debug_info	00000000 .debug_info
00000000 l    d  .debug_abbrev	00000000 .debug_abbrev
00000000 l    d  .debug_loc	00000000 .debug_loc
00000000 l    d  .debug_aranges	00000000 .debug_aranges
00000000 l    d  .debug_ranges	00000000 .debug_ranges
00000000 l    d  .debug_line	00000000 .debug_line
00000000 l    d  .debug_str	00000000 .debug_str
00000000 l    d  .comment	00000000 .comment
00000000 l    d  .riscv.attributes	00000000 .riscv.attributes
00000000 l    d  .debug_frame	00000000 .debug_frame
00000000 l    df *ABS*	00000000 ./boot/cstartup_flash.o
20000028 l       .vectors	00000000 _START
2000008e l       .vectors	00000000 _RETENTION_RESET_INIT
200000a6 l       .vectors	00000000 _RETENTION_RESET_BEGIN
200000b8 l       .vectors	00000000 _RETENTION_DATA_INIT
200000cc l       .vectors	00000000 _RETENTION_DATA_INIT_BEGIN
200000de l       .vectors	00000000 _RAMCODE_INIT
200000f6 l       .vectors	00000000 _RAMCODE_INIT_BEGIN
20000108 l       .vectors	00000000 _DATA_INIT
20000120 l       .vectors	00000000 _DATA_INIT_BEGIN
20000132 l       .vectors	00000000 _ZERO_BSS
20000146 l       .vectors	00000000 _ZERO_BSS_BEGIN
20000152 l       .vectors	00000000 _ZERO_AES
20000166 l       .vectors	00000000 _ZERO_AES_BEGIN
20000172 l       .vectors	00000000 _FILL_STK
20000172 l       .vectors	00000000 _MAIN_FUNC
20000188 l       .vectors	00000000 _END
00000022 l       .retention_reset	00000000 _ISTART
0000002a l       .retention_reset	00000000 _ISWS_USB_DIS
00000088 l       .retention_reset	00000000 _WAKEUP_FLASH
000000a2 l       .retention_reset	00000000 _MSPI_WAIT
000000bc l       .retention_reset	00000000 _WAIT_EFUSE_LOAD_AND_FLASH_WAKEUP_FINISH
000000c2 l       .retention_reset	00000000 _MULTI_ADDRESS_BEGIN
000000d2 l       .retention_reset	00000000 _IZERO_BSS
000000e6 l       .retention_reset	00000000 _IZERO_BSS_BEGIN
000000f2 l       .retention_reset	00000000 _IZERO_AES
00000106 l       .retention_reset	00000000 _IZERO_AES_BEGIN
00000112 l       .retention_reset	00000000 _IFILL_STK
00000112 l       .retention_reset	00000000 _IDATA_INIT
0000012a l       .retention_reset	00000000 _IDATA_INIT_BEGIN
0000013c l       .retention_reset	00000000 _IMAIN_FUNC
00000152 l       .retention_reset	00000000 _IEND
00000040 l       *ABS*	00000000 irqno
00000000 l    df *ABS*	00000000 
00000200 l     F .ram_code	00000020 delay_ms.constprop.12
0000140c l     F .ram_code	000000fc user_calib_adc_vref.constprop.9
00000220 l     F .ram_code	00000044 flash_send_addr
00000264 l     F .ram_code	00000048 flash_send_cmd
000002ac l     F .ram_code	00000060 clock_set_32k_tick
0000030c l     F .ram_code	0000004c analog_read_reg32.constprop.4
00000358 l     F .ram_code	00000024 clock_get_32k_tick
0000037c l     F .ram_code	00000090 pm_stimer_recover
0000040c l     F .ram_code	00000058 plic_exit_critical_sec
00000464 l     F .ram_code	00000060 plic_enter_critical_sec
000004c4 l     F .ram_code	00000180 flash_mspi_read_ram
00001204 l     F .ram_code	00000028 flash_read_uid.constprop.6
0000122c l     F .ram_code	00000028 flash_read_mid
00001254 l     F .ram_code	00000168 flash_read_mid_uid_with_check
00000644 l     F .ram_code	0000014c flash_mspi_read_ram.constprop.7
000013bc l     F .ram_code	00000020 flash_dread
00000790 l     F .ram_code	00000044 analog_write_reg8
000007d4 l     F .ram_code	0000004c analog_read_reg8
00000820 l     F .ram_code	00000140 clock_init_ram.constprop.11
000013dc l     F .ram_code	00000018 clock_init.constprop.10
00001508 l     F .ram_code	00000054 user_calib_freq_offset.constprop.8
00000960 l     F .ram_code	000000b4 pm_wait_bbpll_done
00000a14 l     F .ram_code	00000194 pm_sleep_start
00000ba8 l     F .ram_code	00000120 dr_putchar
00001560 l     F .ram_code	00000018 gpio_input_dis
00000cc8 l     F .ram_code	0000030c pm_sleep_wakeup_ram.constprop.3
000013f4 l     F .ram_code	00000016 pm_sleep_wakeup.constprop.2
00000158 l     O .retention_data	00000004 flash_read_page
0000015c l     O .retention_data	00000001 g_pm_long_suspend
00000160 l     O .retention_data	00000029 pmcd
0000018c l     O .retention_data	00000004 g_pm_tick_32k_calib
00000190 l     O .retention_data	00000004 g_pm_tick_cur
00000194 l     O .retention_data	00000001 g_plic_preempt_en
00000198 l     O .retention_data	00000002 s_flash_preempt_config
0000019a l     O .retention_data	00000001 g_pm_suspend_power_cfg
0000019c l     O .retention_data	00000008 g_pm_early_wakeup_time_us
000001a4 l     O .retention_data	00000004 g_pm_tick_32k_cur
000001a8 l     O .retention_data	00000001 g_pm_tick_update_en
000001ac l     O .retention_data	00000004 g_pm_r_delay_cycle
000001b0 l     O .retention_data	00000008 g_pm_longsleep_early_wakeup_time_us
00080580 l     O .sbss	00000004 exception_mcause
00080584 l     O .sbss	00000004 exception_mdcause
00080588 l     O .sbss	00000004 exception_mepc
0008058c l     O .sbss	00000004 exception_mstatus
00080590 l     O .sbss	00000004 exception_mtval
00080594 l     O .sbss	00000004 g_chip_version
00080598 l     O .sbss	00000004 g_pm_status_info
00080574 l     O .data	00000001 init_flag.4915
00080578 l     O .data	00000006 sys_clk
000805b0 l     O .sdk_version	00000022 sdk_version
00000000 l    df *ABS*	00000000 riscv_dsp_cfft_q15.c
00000000 l    df *ABS*	00000000 riscv_dsp_cfft_rd2_q15.c
00000000 l    df *ABS*	00000000 riscv_dsp_cfft_rd4_q15.c
00000000 l    df *ABS*	00000000 riscv_dsp_cmag_q15.c
00000000 l    df *ABS*	00000000 riscv_dsp_sqrt_q15.c
00000000 l    df *ABS*	00000000 sinf.c
00000000 l    df *ABS*	00000000 ref_rredf.c
00080478 l     O .data	00000020 twooverpi.0
00000000 l    df *ABS*	00000000 muldf3.c
00000000 l    df *ABS*	00000000 floatsidf.c
00000000 l    df *ABS*	00000000 extendsfdf2.c
00000000 l    df *ABS*	00000000 truncdfsf2.c
00000000 l    df *ABS*	00000000 printf.c
00000000 l    df *ABS*	00000000 putchar.c
00000000 l    df *ABS*	00000000 puts.c
00000000 l    df *ABS*	00000000 vprintf.c
0000380e l     F .ram_code	0000003a __vprintf_help
000805a0 l     O .sbss	00000004 __vprintf_buf_len
000805a4 l     O .sbss	00000004 __vprintf_buf
00000000 l    df *ABS*	00000000 printf_impl.c
00000000 l    df *ABS*	00000000 printf_impl_float.c
00000000 l    df *ABS*	00000000 strnlen.c
00000000 l    df *ABS*	00000000 libgcc2.c
00000000 l    df *ABS*	00000000 libgcc2.c
00000000 l    df *ABS*	00000000 riscv_dsp_cos_table_q15_1024.c
00000000 l    df *ABS*	00000000 printf_data.c
00003788 g     F .ram_code	00000028 putchar
00001d6c  w      .ram_code	00000000 entry_irq55
00001d6c  w      .ram_code	00000000 entry_irq13
000041d0 g     F .ram_code	00000036 strcpy
00001d6c  w      .ram_code	00000000 entry_irq15
000042d8 g     F .ram_code	0000002e .hidden __ashldi3
00001d6c  w      .ram_code	00000000 entry_irq27
00001d6c  w      .ram_code	00000000 entry_irq60
00001d6c  w      .ram_code	00000000 entry_irq1
00001d6c  w      .ram_code	00000000 entry_irq52
00001d6c  w      .ram_code	00000000 entry_irq50
00001d6c  w      .ram_code	00000000 entry_irq62
0000376a g     F .ram_code	0000001e printf
00080800 g       .data	00000000 __global_pointer$
00004310 g       .ram_code	00000000 .hidden __riscv_save_8
00001d6c  w      .ram_code	00000000 entry_irq58
0000435c g       .ram_code	00000000 .hidden __riscv_restore_3
000001bc g       .retention_data	00000000 _RETENTION_DATA_VMA_END
00004348 g       .ram_code	00000000 .hidden __riscv_restore_10
00001d94 g     F .ram_code	00000382 riscv_dsp_cfft_rd2_q15
00004310 g       .ram_code	00000000 .hidden __riscv_save_11
00002804 g     F .ram_code	0000009e riscv_dsp_cmag_q15
00003890 g     F .ram_code	00000048 __print_integral
000038d8 g     F .ram_code	00000458 __printf_impl_lite
00000000 g       .retention_reset	00000000 _RETENTION_RESET_VMA_START
00001d6c  w      .ram_code	00000000 entry_irq10
00002118 g     F .ram_code	000006ea riscv_dsp_cfft_rd4_q15
00001d6c  w      .ram_code	00000000 entry_irq21
00000158 g       .retention_data	00000000 _AES_VMA_START
00002ad8 g     F .ram_code	00000146 ref__mathlib_rredf2
00001d6c  w      .ram_code	00000000 entry_irq48
0000435c g       .ram_code	00000000 .hidden __riscv_restore_2
00001d6c  w      .ram_code	00000000 entry_irq8
00001d6c  w      .ram_code	00000000 entry_irq33
000805b0 g       .bss	00000000 _BSS_VMA_END
000036f8 g     F .ram_code	00000070 memcpy
20000190 g       *ABS*	00000000 _RETENTION_RESET_LMA_START
0000326c g     F .ram_code	0000007a .hidden __floatsidf
00080000 g     O .data	0000001c cst_libm_sincosf
000038d8 g     F .ram_code	00000458 __printf_impl
00001d6c  w      .ram_code	00000000 entry_irq12
000037b0 g     F .ram_code	00000034 puts
00001d6c  w      .ram_code	00000000 entry_irq14
0008023c g     O .data	0000020a riscv_dsp_cos_table_q15_1024
00004308 g       .ram_code	00000000 .hidden __riscv_save_12
00001d6c  w      .ram_code	00000000 entry_irq2
00001d6c  w      .ram_code	00000000 entry_irq51
00004348 g       .ram_code	00000000 .hidden __riscv_restore_11
00001d6c  w      .ram_code	00000000 entry_irq28
00001d6c  w      .ram_code	00000000 entry_irq43
00004338 g       .ram_code	00000000 .hidden __riscv_save_1
0000435c g       .ram_code	00000000 .hidden __riscv_restore_0
00001d6c  w      .ram_code	00000000 entry_irq20
0000431e g       .ram_code	00000000 .hidden __riscv_save_7
00080580 g       .sbss	00000000 _BSS_VMA_START
00001d6c  w      .ram_code	00000000 entry_irq63
0008057e g       .data	00000000 _DATA_VMA_END
000032e8 g     F .ram_code	00000110 .hidden __extendsfdf2
00001d6c  w      .ram_code	00000000 entry_irq46
00001d6c  w      .ram_code	00000000 entry_irq31
00001d6c  w      .ram_code	00000000 entry_irq16
00100000 g       *ABS*	00000000 FLASH_SIZE
00004352 g       .ram_code	00000000 .hidden __riscv_restore_5
00080000 g       .data	00000000 _DATA_VMA_START
00001d6c  w      .ram_code	00000000 entry_irq53
00001d6c  w      .ram_code	00000000 entry_irq11
00080460 g     O .data	00000018 cst_libm_rredf
00000154 g       .retention_reset	00000000 _RETENTION_RESET_VMA_END
00004206 g     F .ram_code	00000018 strnlen
00004352 g       .ram_code	00000000 .hidden __riscv_restore_6
00001d6c  w      .ram_code	00000000 entry_irq5
00001d6c  w      .ram_code	00000000 entry_irq23
00001d6e  w      .ram_code	00000000 trap_handler
00001d6c  w      .ram_code	00000000 entry_irq34
000042a8 g     F .ram_code	0000002e .hidden __lshrdi3
00001d6c  w      .ram_code	00000000 entry_irq36
00004310 g       .ram_code	00000000 .hidden __riscv_save_9
00001d6c  w      .ram_code	00000000 entry_irq44
00003848 g     F .ram_code	00000048 vprintf
00001d6c  w      .ram_code	00000000 entry_irq45
00001d6c  w      .ram_code	00000000 entry_irq26
0000431e g       .ram_code	00000000 .hidden __riscv_save_4
00001d6c  w      .ram_code	00000000 entry_irq41
00001d6c  w      .ram_code	00000000 entry_irq61
20000000 g       .vectors	00000000 BIN_BEGIN
00004338 g       .ram_code	00000000 .hidden __riscv_save_3
00001d6c  w      .ram_code	00000000 entry_irq38
00001100 g       .ram_code	00000000 __vectors
00004b50 g       *ABS*	00000000 BIN_SIZE
000804d8 g     O .data	00000010 __digits
20000350 g       *ABS*	00000000 _RAMCODE_LMA_START
000805a8 g     O .sbss	00000004 __printf_count
00001d6c  w      .ram_code	00000000 entry_irq59
00001d6c  w      .ram_code	00000000 entry_irq6
00002c20 g     F .ram_code	00000648 .hidden __muldf3
00004310 g       .ram_code	00000000 .hidden __riscv_save_10
0008059c g     O .sbss	00000004 __mculib_REENT_errno
200045b0 g       *ABS*	00000000 _DATA_LMA_START
00003d50 g     F .ram_code	00000086 __print_integral_poly
20000000 g       *ABS*	00000000 NDS_SAG_LMA_FLASH
00004352 g       .ram_code	00000000 .hidden __riscv_restore_4
00004348 g       .ram_code	00000000 .hidden __riscv_restore_8
0000431e g       .ram_code	00000000 .hidden __riscv_save_6
20000000  w      .vectors	00000000 _RELAX_END_
00004220 g     F .ram_code	00000086 memset
00003dd6 g     F .ram_code	000003fa __printf_float_impl
00004348 g       .ram_code	00000000 .hidden __riscv_restore_9
00004352 g       .ram_code	00000000 .hidden __riscv_restore_7
000015c4 g     F .ram_code	000007a6 main
00001d6c g       .ram_code	00000000 default_irq_entry
00001d6c  w      .ram_code	00000000 entry_irq3
00000fd4 g     F .ram_code	00000100 trap_entry
00000158 g       .retention_data	00000000 _AES_VMA_END
000033f8 g     F .ram_code	00000300 .hidden __truncdfsf2
00001d6c  w      .ram_code	00000000 entry_irq39
00001d6c  w      .ram_code	00000000 entry_irq49
00001d6c  w      .ram_code	00000000 entry_irq57
00001d6c  w      .ram_code	00000000 entry_irq47
200002e8 g       *ABS*	00000000 _RETENTION_DATA_LMA_START
20000000 g     F .vectors	00000000 _RESET_ENTRY
0000376a g     F .ram_code	0000001e iprintf
00000158 g       .retention_data	00000000 _RETENTION_DATA_VMA_START
00001d6c  w      .ram_code	00000000 entry_irq4
000a0000 g       *ABS*	00000000 _STACK_TOP
00001d6c  w      .ram_code	00000000 entry_irq22
00001d6c  w      .ram_code	00000000 entry_irq30
00001d6c  w      .ram_code	00000000 entry_irq42
00001d6c  w      .ram_code	00000000 entry_irq24
00002950 g     F .ram_code	00000188 sinf
00004338 g       .ram_code	00000000 .hidden __riscv_save_2
00004460 g       .ram_code	00000000 _RAMCODE_VMA_END
00000000  w      *ABS*	00000000 _ITB_BASE_
0000431e g       .ram_code	00000000 .hidden __riscv_save_5
00001d6c  w      .ram_code	00000000 entry_irq19
000028a4 g     F .ram_code	000000aa riscv_dsp_sqrt_q15
0000157c g     F .ram_code	00000048 _write
000805d8 g       .sdk_version	00000000 _end
00001d6c  w      .ram_code	00000000 entry_irq17
00001d6c  w      .ram_code	00000000 entry_irq9
00001d6c  w      .ram_code	00000000 entry_irq56
00001d6c  w      .ram_code	00000000 entry_irq35
00001d6c  w      .ram_code	00000000 entry_irq37
000001b8 g     O .retention_data	00000004 g_pm_mspi_cfg
00001d6c  w      .ram_code	00000000 entry_irq54
00001d6c  w      .ram_code	00000000 entry_irq40
00001d74 g     F .ram_code	0000001e riscv_dsp_cfft_q15
00004344 g       .ram_code	00000000 .hidden __riscv_restore_12
00000200 g       .ram_code	00000000 _RAMCODE_VMA_START
00004338 g       .ram_code	00000000 .hidden __riscv_save_0
000037e4 g     F .ram_code	00000028 strlen
00001d6c  w      .ram_code	00000000 entry_irq29
0000435c g       .ram_code	00000000 .hidden __riscv_restore_1
00001d6c  w      .ram_code	00000000 entry_irq7
00001d6c  w      .ram_code	00000000 entry_irq32
00000000 g     F .retention_reset	00000000 _IRESET_ENTRY
00001d6c  w      .ram_code	00000000 entry_irq18
00003848 g     F .ram_code	00000048 viprintf
00003d30 g     F .ram_code	00000020 __int_to_poly
00001d6c  w      .ram_code	00000000 entry_irq25



Disassembly of section .vectors:

20000000 <_RESET_ENTRY>:
20000000:	a025                	c.j	20000028 <_START>
	...
20000016:	0000                	unimp
20000018:	4b50                	c.lw	a2,20(a4)
2000001a:	0000                	unimp
2000001c:	0000                	unimp
2000001e:	0000                	unimp
20000020:	544c4e4b          	fnmsub.h	ft8,fs8,ft4,fa0,rmm
20000024:	0000                	unimp
20000026:	          	sllw	a4,zero,zero

20000028 <_START>:
20000028:	e0080197          	auipc	gp,0xe0080
2000002c:	7d818193          	addi	gp,gp,2008 # 80800 <__global_pointer$>
20000030:	801002b7          	lui	t0,0x80100
20000034:	70028293          	addi	t0,t0,1792 # 80100700 <_DATA_LMA_START+0x600fc150>
20000038:	04000313          	li	t1,64
2000003c:	506280a3          	sb	t1,1281(t0)
20000040:	e00a0297          	auipc	t0,0xe00a0
20000044:	fc028293          	addi	t0,t0,-64 # a0000 <_STACK_TOP>
20000048:	8116                	c.mv	sp,t0
2000004a:	e0000297          	auipc	t0,0xe0000
2000004e:	fb628293          	addi	t0,t0,-74 # 0 <_ITB_BASE_>
20000052:	80029073          	csrw	uitb,t0
20000056:	6299                	c.lui	t0,0x6
20000058:	3002a2f3          	csrrs	t0,mstatus,t0
2000005c:	00301073          	fssr	zero
20000060:	e0001297          	auipc	t0,0xe0001
20000064:	0a028293          	addi	t0,t0,160 # 1100 <__vectors>
20000068:	30529073          	csrw	mtvec,t0
2000006c:	7d016073          	csrsi	mmisc_ctl,2
20000070:	e40002b7          	lui	t0,0xe4000
20000074:	4309                	c.li	t1,2
20000076:	0062a023          	sw	t1,0(t0) # e4000000 <_DATA_LMA_START+0xc3ffba50>
2000007a:	7ca022f3          	csrr	t0,mcache_ctl
2000007e:	0012e293          	ori	t0,t0,1
20000082:	0022e293          	ori	t0,t0,2
20000086:	7ca29073          	csrw	mcache_ctl,t0
2000008a:	0000100f          	fence.i

2000008e <_RETENTION_RESET_INIT>:
2000008e:	00000317          	auipc	t1,0x0
20000092:	10230313          	addi	t1,t1,258 # 20000190 <_RETENTION_RESET_LMA_START>
20000096:	e0000397          	auipc	t2,0xe0000
2000009a:	f6a38393          	addi	t2,t2,-150 # 0 <_ITB_BASE_>
2000009e:	e0000e17          	auipc	t3,0xe0000
200000a2:	0b6e0e13          	addi	t3,t3,182 # 154 <_RETENTION_RESET_VMA_END>

200000a6 <_RETENTION_RESET_BEGIN>:
200000a6:	01c3f963          	bgeu	t2,t3,200000b8 <_RETENTION_DATA_INIT>
200000aa:	00032283          	lw	t0,0(t1)
200000ae:	0053a023          	sw	t0,0(t2)
200000b2:	0311                	c.addi	t1,4
200000b4:	0391                	c.addi	t2,4
200000b6:	bfc5                	c.j	200000a6 <_RETENTION_RESET_BEGIN>

200000b8 <_RETENTION_DATA_INIT>:
200000b8:	00000317          	auipc	t1,0x0
200000bc:	23030313          	addi	t1,t1,560 # 200002e8 <_RETENTION_DATA_LMA_START>
200000c0:	15800393          	li	t2,344
200000c4:	e0000e17          	auipc	t3,0xe0000
200000c8:	0f8e0e13          	addi	t3,t3,248 # 1bc <_RETENTION_DATA_VMA_END>

200000cc <_RETENTION_DATA_INIT_BEGIN>:
200000cc:	01c3f963          	bgeu	t2,t3,200000de <_RAMCODE_INIT>
200000d0:	00032283          	lw	t0,0(t1)
200000d4:	0053a023          	sw	t0,0(t2)
200000d8:	0311                	c.addi	t1,4
200000da:	0391                	c.addi	t2,4
200000dc:	bfc5                	c.j	200000cc <_RETENTION_DATA_INIT_BEGIN>

200000de <_RAMCODE_INIT>:
200000de:	00000317          	auipc	t1,0x0
200000e2:	27230313          	addi	t1,t1,626 # 20000350 <_RAMCODE_LMA_START>
200000e6:	e0000397          	auipc	t2,0xe0000
200000ea:	11a38393          	addi	t2,t2,282 # 200 <delay_ms.constprop.12>
200000ee:	e0004e17          	auipc	t3,0xe0004
200000f2:	372e0e13          	addi	t3,t3,882 # 4460 <_RAMCODE_VMA_END>

200000f6 <_RAMCODE_INIT_BEGIN>:
200000f6:	01c3f963          	bgeu	t2,t3,20000108 <_DATA_INIT>
200000fa:	00032283          	lw	t0,0(t1)
200000fe:	0053a023          	sw	t0,0(t2)
20000102:	0311                	c.addi	t1,4
20000104:	0391                	c.addi	t2,4
20000106:	bfc5                	c.j	200000f6 <_RAMCODE_INIT_BEGIN>

20000108 <_DATA_INIT>:
20000108:	00004317          	auipc	t1,0x4
2000010c:	4a830313          	addi	t1,t1,1192 # 200045b0 <_DATA_LMA_START>
20000110:	e0080397          	auipc	t2,0xe0080
20000114:	ef038393          	addi	t2,t2,-272 # 80000 <cst_libm_sincosf>
20000118:	e0080e17          	auipc	t3,0xe0080
2000011c:	466e0e13          	addi	t3,t3,1126 # 8057e <_DATA_VMA_END>

20000120 <_DATA_INIT_BEGIN>:
20000120:	01c3f963          	bgeu	t2,t3,20000132 <_ZERO_BSS>
20000124:	00032283          	lw	t0,0(t1)
20000128:	0053a023          	sw	t0,0(t2)
2000012c:	0311                	c.addi	t1,4
2000012e:	0391                	c.addi	t2,4
20000130:	bfc5                	c.j	20000120 <_DATA_INIT_BEGIN>

20000132 <_ZERO_BSS>:
20000132:	000002b7          	lui	t0,0x0
20000136:	e0080397          	auipc	t2,0xe0080
2000013a:	44a38393          	addi	t2,t2,1098 # 80580 <_BSS_VMA_START>
2000013e:	e0080e17          	auipc	t3,0xe0080
20000142:	472e0e13          	addi	t3,t3,1138 # 805b0 <_BSS_VMA_END>

20000146 <_ZERO_BSS_BEGIN>:
20000146:	01c3f663          	bgeu	t2,t3,20000152 <_ZERO_AES>
2000014a:	0053a023          	sw	t0,0(t2)
2000014e:	0391                	c.addi	t2,4
20000150:	bfdd                	c.j	20000146 <_ZERO_BSS_BEGIN>

20000152 <_ZERO_AES>:
20000152:	000002b7          	lui	t0,0x0
20000156:	e0000397          	auipc	t2,0xe0000
2000015a:	00238393          	addi	t2,t2,2 # 158 <_AES_VMA_END>
2000015e:	e0000e17          	auipc	t3,0xe0000
20000162:	ffae0e13          	addi	t3,t3,-6 # 158 <_AES_VMA_END>

20000166 <_ZERO_AES_BEGIN>:
20000166:	01c3f663          	bgeu	t2,t3,20000172 <_FILL_STK>
2000016a:	0053a023          	sw	t0,0(t2)
2000016e:	0391                	c.addi	t2,4
20000170:	bfdd                	c.j	20000166 <_ZERO_AES_BEGIN>

20000172 <_FILL_STK>:
20000172:	0001                	c.nop
20000174:	e0001297          	auipc	t0,0xe0001
20000178:	45028293          	addi	t0,t0,1104 # 15c4 <main>
2000017c:	9282                	c.jalr	t0
2000017e:	0001                	c.nop
20000180:	0001                	c.nop
20000182:	0001                	c.nop
20000184:	0001                	c.nop
20000186:	0001                	c.nop

20000188 <_END>:
20000188:	a001                	c.j	20000188 <_END>

Disassembly of section .retention_reset:

00000000 <_IRESET_ENTRY>:
   0:	a00d                	c.j	22 <_ISTART>
	...

00000022 <_ISTART>:
  22:	00080197          	auipc	gp,0x80
  26:	7de18193          	addi	gp,gp,2014 # 80800 <__global_pointer$>

0000002a <_ISWS_USB_DIS>:
  2a:	801002b7          	lui	t0,0x80100
  2e:	70028293          	addi	t0,t0,1792 # 80100700 <_DATA_LMA_START+0x600fc150>
  32:	04000313          	li	t1,64
  36:	506280a3          	sb	t1,1281(t0)
  3a:	000a0297          	auipc	t0,0xa0
  3e:	fc628293          	addi	t0,t0,-58 # a0000 <_STACK_TOP>
  42:	8116                	c.mv	sp,t0
  44:	00000297          	auipc	t0,0x0
  48:	fbc28293          	addi	t0,t0,-68 # 0 <_IRESET_ENTRY>
  4c:	80029073          	csrw	uitb,t0
  50:	6299                	c.lui	t0,0x6
  52:	3002a2f3          	csrrs	t0,mstatus,t0
  56:	00301073          	fssr	zero
  5a:	00001297          	auipc	t0,0x1
  5e:	0a628293          	addi	t0,t0,166 # 1100 <__vectors>
  62:	30529073          	csrw	mtvec,t0
  66:	7d016073          	csrsi	mmisc_ctl,2
  6a:	e40002b7          	lui	t0,0xe4000
  6e:	4309                	c.li	t1,2
  70:	0062a023          	sw	t1,0(t0) # e4000000 <_DATA_LMA_START+0xc3ffba50>
  74:	7ca022f3          	csrr	t0,mcache_ctl
  78:	0012e293          	ori	t0,t0,1
  7c:	0022e293          	ori	t0,t0,2
  80:	7ca29073          	csrw	mcache_ctl,t0
  84:	0000100f          	fence.i

00000088 <_WAKEUP_FLASH>:
  88:	801402b7          	lui	t0,0x80140
  8c:	0ff00313          	li	t1,255
  90:	4381                	c.li	t2,0
  92:	0ab00e13          	li	t3,171
  96:	326284a3          	sb	t1,809(t0) # 80140329 <_DATA_LMA_START+0x6013bd79>
  9a:	107280a3          	sb	t2,257(t0)
  9e:	11c28023          	sb	t3,256(t0)

000000a2 <_MSPI_WAIT>:
  a2:	801402b7          	lui	t0,0x80140
  a6:	10228383          	lb	t2,258(t0) # 80140102 <_DATA_LMA_START+0x6013bb52>
  aa:	4e05                	c.li	t3,1
  ac:	4ec1                	c.li	t4,16
  ae:	fe7e0ae3          	beq	t3,t2,a2 <_MSPI_WAIT>
  b2:	11d280a3          	sb	t4,257(t0)
  b6:	4281                	c.li	t0,0
  b8:	14000313          	li	t1,320

000000bc <_WAIT_EFUSE_LOAD_AND_FLASH_WAKEUP_FINISH>:
  bc:	0285                	c.addi	t0,1
  be:	fe537fe3          	bgeu	t1,t0,bc <_WAIT_EFUSE_LOAD_AND_FLASH_WAKEUP_FINISH>

000000c2 <_MULTI_ADDRESS_BEGIN>:
  c2:	801402b7          	lui	t0,0x80140
  c6:	1b800313          	li	t1,440
  ca:	00032383          	lw	t2,0(t1)
  ce:	1072a223          	sw	t2,260(t0) # 80140104 <_DATA_LMA_START+0x6013bb54>

000000d2 <_IZERO_BSS>:
  d2:	000002b7          	lui	t0,0x0
  d6:	00080397          	auipc	t2,0x80
  da:	4aa38393          	addi	t2,t2,1194 # 80580 <_BSS_VMA_START>
  de:	00080e17          	auipc	t3,0x80
  e2:	4d2e0e13          	addi	t3,t3,1234 # 805b0 <_BSS_VMA_END>

000000e6 <_IZERO_BSS_BEGIN>:
  e6:	01c3f663          	bgeu	t2,t3,f2 <_IZERO_AES>
  ea:	0053a023          	sw	t0,0(t2)
  ee:	0391                	c.addi	t2,4
  f0:	bfdd                	c.j	e6 <_IZERO_BSS_BEGIN>

000000f2 <_IZERO_AES>:
  f2:	000002b7          	lui	t0,0x0
  f6:	00000397          	auipc	t2,0x0
  fa:	06238393          	addi	t2,t2,98 # 158 <_AES_VMA_END>
  fe:	00000e17          	auipc	t3,0x0
 102:	05ae0e13          	addi	t3,t3,90 # 158 <_AES_VMA_END>

00000106 <_IZERO_AES_BEGIN>:
 106:	01c3f663          	bgeu	t2,t3,112 <_IDATA_INIT>
 10a:	0053a023          	sw	t0,0(t2)
 10e:	0391                	c.addi	t2,4
 110:	bfdd                	c.j	106 <_IZERO_AES_BEGIN>

00000112 <_IDATA_INIT>:
 112:	20004317          	auipc	t1,0x20004
 116:	49e30313          	addi	t1,t1,1182 # 200045b0 <_DATA_LMA_START>
 11a:	00080397          	auipc	t2,0x80
 11e:	ee638393          	addi	t2,t2,-282 # 80000 <cst_libm_sincosf>
 122:	00080e17          	auipc	t3,0x80
 126:	45ce0e13          	addi	t3,t3,1116 # 8057e <_DATA_VMA_END>

0000012a <_IDATA_INIT_BEGIN>:
 12a:	01c3f963          	bgeu	t2,t3,13c <_IMAIN_FUNC>
 12e:	00032283          	lw	t0,0(t1)
 132:	0053a023          	sw	t0,0(t2)
 136:	0311                	c.addi	t1,4
 138:	0391                	c.addi	t2,4
 13a:	bfc5                	c.j	12a <_IDATA_INIT_BEGIN>

0000013c <_IMAIN_FUNC>:
 13c:	0001                	c.nop
 13e:	00001297          	auipc	t0,0x1
 142:	48628293          	addi	t0,t0,1158 # 15c4 <main>
 146:	9282                	c.jalr	t0
 148:	0001                	c.nop
 14a:	0001                	c.nop
 14c:	0001                	c.nop
 14e:	0001                	c.nop
 150:	0001                	c.nop

00000152 <_IEND>:
 152:	a001                	c.j	152 <_IEND>

Disassembly of section .ram_code:

00000200 <delay_ms.constprop.12>:
     200:	801407b7          	lui	a5,0x80140
     204:	00075737          	lui	a4,0x75
     208:	2007a603          	lw	a2,512(a5) # 80140200 <_DATA_LMA_START+0x6013bc50>
     20c:	801406b7          	lui	a3,0x80140
     210:	30070713          	addi	a4,a4,768 # 75300 <BIN_SIZE+0x707b0>
     214:	2006a783          	lw	a5,512(a3) # 80140200 <_DATA_LMA_START+0x6013bc50>
     218:	8f91                	c.sub	a5,a2
     21a:	fef77de3          	bgeu	a4,a5,214 <delay_ms.constprop.12+0x14>
     21e:	8082                	c.jr	ra

00000220 <flash_send_addr>:
     220:	5d05275b          	bfoz	a4,a0,23,16
     224:	801407b7          	lui	a5,0x80140
     228:	801406b7          	lui	a3,0x80140
     22c:	10e78023          	sb	a4,256(a5) # 80140100 <_DATA_LMA_START+0x6013bb50>
     230:	10268783          	lb	a5,258(a3) # 80140102 <_DATA_LMA_START+0x6013bb52>
     234:	fe07fe5b          	bbs	a5,0,230 <flash_send_addr+0x10>
     238:	3c8527db          	bfoz	a5,a0,15,8
     23c:	80140737          	lui	a4,0x80140
     240:	10f68023          	sb	a5,256(a3)
     244:	10270783          	lb	a5,258(a4) # 80140102 <_DATA_LMA_START+0x6013bb52>
     248:	fe07fe5b          	bbs	a5,0,244 <flash_send_addr+0x24>
     24c:	0ff57513          	andi	a0,a0,255
     250:	801406b7          	lui	a3,0x80140
     254:	10a70023          	sb	a0,256(a4)
     258:	10268783          	lb	a5,258(a3) # 80140102 <_DATA_LMA_START+0x6013bb52>
     25c:	fe07fe5b          	bbs	a5,0,258 <flash_send_addr+0x38>
     260:	00008067          	ret

00000264 <flash_send_cmd>:
     264:	801407b7          	lui	a5,0x80140
     268:	10178703          	lb	a4,257(a5) # 80140101 <_DATA_LMA_START+0x6013bb51>
     26c:	0ff77713          	andi	a4,a4,255
     270:	01076713          	ori	a4,a4,16
     274:	10e780a3          	sb	a4,257(a5)
     278:	0001                	c.nop
     27a:	0001                	c.nop
     27c:	0001                	c.nop
     27e:	0001                	c.nop
     280:	0001                	c.nop
     282:	0001                	c.nop
     284:	0001                	c.nop
     286:	0001                	c.nop
     288:	0001                	c.nop
     28a:	0001                	c.nop
     28c:	10178683          	lb	a3,257(a5)
     290:	80140737          	lui	a4,0x80140
     294:	0ef6f693          	andi	a3,a3,239
     298:	10d780a3          	sb	a3,257(a5)
     29c:	10a78023          	sb	a0,256(a5)
     2a0:	10270783          	lb	a5,258(a4) # 80140102 <_DATA_LMA_START+0x6013bb52>
     2a4:	fe07fe5b          	bbs	a5,0,2a0 <flash_send_cmd+0x3c>
     2a8:	00008067          	ret

000002ac <clock_set_32k_tick>:
     2ac:	801406b7          	lui	a3,0x80140
     2b0:	20a68783          	lb	a5,522(a3) # 8014020a <_DATA_LMA_START+0x6013bc5a>
     2b4:	80140737          	lui	a4,0x80140
     2b8:	0ff7f793          	andi	a5,a5,255
     2bc:	0017e793          	ori	a5,a5,1
     2c0:	20f68523          	sb	a5,522(a3)
     2c4:	20b70683          	lb	a3,523(a4) # 8014020b <_DATA_LMA_START+0x6013bc5b>
     2c8:	20b70793          	addi	a5,a4,523
     2cc:	fe66fc5b          	bbs	a3,6,2c4 <clock_set_32k_tick+0x18>
     2d0:	20a72623          	sw	a0,524(a4)
     2d4:	4721                	c.li	a4,8
     2d6:	00e78023          	sb	a4,0(a5)
     2da:	0001                	c.nop
     2dc:	0001                	c.nop
     2de:	0001                	c.nop
     2e0:	0001                	c.nop
     2e2:	0001                	c.nop
     2e4:	0001                	c.nop
     2e6:	0001                	c.nop
     2e8:	0001                	c.nop
     2ea:	0001                	c.nop
     2ec:	0001                	c.nop
     2ee:	0001                	c.nop
     2f0:	0001                	c.nop
     2f2:	0001                	c.nop
     2f4:	0001                	c.nop
     2f6:	0001                	c.nop
     2f8:	00000013          	nop
     2fc:	801407b7          	lui	a5,0x80140
     300:	20b78703          	lb	a4,523(a5) # 8014020b <_DATA_LMA_START+0x6013bc5b>
     304:	fe377e5b          	bbs	a4,3,300 <clock_set_32k_tick+0x54>
     308:	00008067          	ret

0000030c <analog_read_reg32.constprop.4>:
     30c:	300027f3          	csrr	a5,mstatus
     310:	8ba1                	c.andi	a5,8
     312:	c789                	c.beqz	a5,31c <analog_read_reg32.constprop.4+0x10>
     314:	30047773          	csrrci	a4,mstatus,8
     318:	0ff0000f          	fence
     31c:	80140737          	lui	a4,0x80140
     320:	00400693          	li	a3,4
     324:	18d701a3          	sb	a3,387(a4) # 80140183 <_DATA_LMA_START+0x6013bbd3>
     328:	06000693          	li	a3,96
     32c:	18d70023          	sb	a3,384(a4)
     330:	04000613          	li	a2,64
     334:	801406b7          	lui	a3,0x80140
     338:	18c70123          	sb	a2,386(a4)
     33c:	18268703          	lb	a4,386(a3) # 80140182 <_DATA_LMA_START+0x6013bbd2>
     340:	fe777e5b          	bbs	a4,7,33c <analog_read_reg32.constprop.4+0x30>
     344:	1846a503          	lw	a0,388(a3)
     348:	00078663          	beqz	a5,354 <analog_read_reg32.constprop.4+0x48>
     34c:	3007a7f3          	csrrs	a5,mstatus,a5
     350:	0ff0000f          	fence
     354:	00008067          	ret

00000358 <clock_get_32k_tick>:
     358:	1141                	c.addi	sp,-16
     35a:	c422                	c.swsp	s0,8(sp)
     35c:	c606                	c.swsp	ra,12(sp)
     35e:	377d                	c.jal	30c <analog_read_reg32.constprop.4>
     360:	00a00433          	add	s0,zero,a0
     364:	fa9ff0ef          	jal	ra,30c <analog_read_reg32.constprop.4>
     368:	40850733          	sub	a4,a0,s0
     36c:	842a                	c.mv	s0,a0
     36e:	be176b5b          	bnec	a4,1,364 <clock_get_32k_tick+0xc>
     372:	40b2                	c.lwsp	ra,12(sp)
     374:	4422                	c.lwsp	s0,8(sp)
     376:	0141                	c.addi	sp,16
     378:	00008067          	ret

0000037c <pm_stimer_recover>:
     37c:	1141                	c.addi	sp,-16
     37e:	80140737          	lui	a4,0x80140
     382:	c606                	c.swsp	ra,12(sp)
     384:	4789                	c.li	a5,2
     386:	20f70c23          	sb	a5,536(a4) # 80140218 <_DATA_LMA_START+0x6013bc68>
     38a:	20a70783          	lb	a5,522(a4)
     38e:	0ff7f793          	andi	a5,a5,255
     392:	00c7e793          	ori	a5,a5,12
     396:	20f70523          	sb	a5,522(a4)
     39a:	3f7d                	c.jal	358 <clock_get_32k_tick>
     39c:	00000737          	lui	a4,0x0
     3a0:	15870793          	addi	a5,a4,344 # 158 <_AES_VMA_END>
     3a4:	0047c783          	lbu	a5,4(a5)
     3a8:	15870713          	addi	a4,a4,344
     3ac:	cf81                	c.beqz	a5,3c4 <pm_stimer_recover+0x48>
     3ae:	4754                	c.lw	a3,12(a4)
     3b0:	5b50                	c.lw	a2,52(a4)
     3b2:	40d506b3          	sub	a3,a0,a3
     3b6:	471c                	c.lw	a5,8(a4)
     3b8:	0685                	c.addi	a3,1
     3ba:	8295                	c.srli	a3,0x5
     3bc:	c4c697ff          	maddr32	a5,a3,a2
     3c0:	0180006f          	j	3d8 <pm_stimer_recover+0x5c>
     3c4:	475c                	c.lw	a5,12(a4)
     3c6:	5b54                	c.lw	a3,52(a4)
     3c8:	40f507b3          	sub	a5,a0,a5
     3cc:	0785                	c.addi	a5,1
     3ce:	02d787b3          	mul	a5,a5,a3
     3d2:	4714                	c.lw	a3,8(a4)
     3d4:	8395                	c.srli	a5,0x5
     3d6:	97b6                	c.add	a5,a3
     3d8:	4754                	c.lw	a3,12(a4)
     3da:	00150593          	addi	a1,a0,1
     3de:	8d15                	c.sub	a0,a3
     3e0:	0505                	c.addi	a0,1
     3e2:	00178613          	addi	a2,a5,1
     3e6:	df1c                	c.sw	a5,56(a4)
     3e8:	d34c                	c.sw	a1,36(a4)
     3ea:	d308                	c.sw	a0,32(a4)
     3ec:	801407b7          	lui	a5,0x80140
     3f0:	801406b7          	lui	a3,0x80140
     3f4:	20c7a023          	sw	a2,512(a5) # 80140200 <_DATA_LMA_START+0x6013bc50>
     3f8:	20b68783          	lb	a5,523(a3) # 8014020b <_DATA_LMA_START+0x6013bc5b>
     3fc:	be77fe5b          	bbc	a5,7,3f8 <pm_stimer_recover+0x7c>
     400:	20068c23          	sb	zero,536(a3)
     404:	40b2                	c.lwsp	ra,12(sp)
     406:	0141                	c.addi	sp,16
     408:	00008067          	ret

0000040c <plic_exit_critical_sec>:
     40c:	000007b7          	lui	a5,0x0
     410:	15878793          	addi	a5,a5,344 # 158 <_AES_VMA_END>
     414:	03c78783          	lb	a5,60(a5)
     418:	0ff7f793          	andi	a5,a5,255
     41c:	c795                	c.beqz	a5,448 <plic_exit_critical_sec+0x3c>
     41e:	c50d                	c.beqz	a0,448 <plic_exit_critical_sec+0x3c>
     420:	300027f3          	csrr	a5,mstatus
     424:	8ba1                	c.andi	a5,8
     426:	0ff5f593          	andi	a1,a1,255
     42a:	c78d                	c.beqz	a5,454 <plic_exit_critical_sec+0x48>
     42c:	30047773          	csrrci	a4,mstatus,8
     430:	0ff0000f          	fence
     434:	e4200737          	lui	a4,0xe4200
     438:	c30c                	c.sw	a1,0(a4)
     43a:	0ff0000f          	fence
     43e:	3007a7f3          	csrrs	a5,mstatus,a5
     442:	0ff0000f          	fence
     446:	8082                	c.jr	ra
     448:	cd81                	c.beqz	a1,460 <plic_exit_critical_sec+0x54>
     44a:	3005a5f3          	csrrs	a1,mstatus,a1
     44e:	0ff0000f          	fence
     452:	8082                	c.jr	ra
     454:	e42007b7          	lui	a5,0xe4200
     458:	00b7a023          	sw	a1,0(a5) # e4200000 <_DATA_LMA_START+0xc41fba50>
     45c:	0ff0000f          	fence
     460:	00008067          	ret

00000464 <plic_enter_critical_sec>:
     464:	000007b7          	lui	a5,0x0
     468:	15878793          	addi	a5,a5,344 # 158 <_AES_VMA_END>
     46c:	03c78783          	lb	a5,60(a5)
     470:	0ff7f793          	andi	a5,a5,255
     474:	cb85                	c.beqz	a5,4a4 <plic_enter_critical_sec+0x40>
     476:	c51d                	c.beqz	a0,4a4 <plic_enter_critical_sec+0x40>
     478:	e4200737          	lui	a4,0xe4200
     47c:	4308                	c.lw	a0,0(a4)
     47e:	04b57163          	bgeu	a0,a1,4c0 <plic_enter_critical_sec+0x5c>
     482:	300027f3          	csrr	a5,mstatus
     486:	8ba1                	c.andi	a5,8
     488:	cb85                	c.beqz	a5,4b8 <plic_enter_critical_sec+0x54>
     48a:	300476f3          	csrrci	a3,mstatus,8
     48e:	0ff0000f          	fence
     492:	c30c                	c.sw	a1,0(a4)
     494:	0ff0000f          	fence
     498:	3007a7f3          	csrrs	a5,mstatus,a5
     49c:	0ff0000f          	fence
     4a0:	00008067          	ret
     4a4:	30002573          	csrr	a0,mstatus
     4a8:	8921                	c.andi	a0,8
     4aa:	c919                	c.beqz	a0,4c0 <plic_enter_critical_sec+0x5c>
     4ac:	300477f3          	csrrci	a5,mstatus,8
     4b0:	0ff0000f          	fence
     4b4:	00008067          	ret
     4b8:	00b72023          	sw	a1,0(a4) # e4200000 <_DATA_LMA_START+0xc41fba50>
     4bc:	0ff0000f          	fence
     4c0:	00008067          	ret

000004c4 <flash_mspi_read_ram>:
     4c4:	7179                	c.addi16sp	sp,-48
     4c6:	d226                	c.swsp	s1,36(sp)
     4c8:	000004b7          	lui	s1,0x0
     4cc:	15848493          	addi	s1,s1,344 # 158 <_AES_VMA_END>
     4d0:	d04a                	c.swsp	s2,32(sp)
     4d2:	c65e                	c.swsp	s7,12(sp)
     4d4:	892a                	c.mv	s2,a0
     4d6:	8bae                	c.mv	s7,a1
     4d8:	0404c503          	lbu	a0,64(s1)
     4dc:	0414c583          	lbu	a1,65(s1)
     4e0:	d422                	c.swsp	s0,40(sp)
     4e2:	ce4e                	c.swsp	s3,28(sp)
     4e4:	cc52                	c.swsp	s4,24(sp)
     4e6:	ca56                	c.swsp	s5,20(sp)
     4e8:	c85a                	c.swsp	s6,16(sp)
     4ea:	d606                	c.swsp	ra,44(sp)
     4ec:	8b32                	c.mv	s6,a2
     4ee:	8ab6                	c.mv	s5,a3
     4f0:	843a                	c.mv	s0,a4
     4f2:	8a3e                	c.mv	s4,a5
     4f4:	f71ff0ef          	jal	ra,464 <plic_enter_critical_sec>
     4f8:	80140637          	lui	a2,0x80140
     4fc:	00a009b3          	add	s3,zero,a0
     500:	10260783          	lb	a5,258(a2) # 80140102 <_DATA_LMA_START+0x6013bb52>
     504:	fe07fe5b          	bbs	a5,0,500 <flash_mspi_read_ram+0x3c>
     508:	10160783          	lb	a5,257(a2)
     50c:	80140737          	lui	a4,0x80140
     510:	0ff7f793          	andi	a5,a5,255
     514:	0107e793          	ori	a5,a5,16
     518:	10f600a3          	sb	a5,257(a2)
     51c:	32870783          	lb	a5,808(a4) # 80140328 <_DATA_LMA_START+0x6013bd78>
     520:	be37fe5b          	bbc	a5,3,51c <flash_mspi_read_ram+0x58>
     524:	10170783          	lb	a5,257(a4)
     528:	854a                	c.mv	a0,s2
     52a:	0fd7f793          	andi	a5,a5,253
     52e:	10f700a3          	sb	a5,257(a4)
     532:	10170783          	lb	a5,257(a4)
     536:	0f37f793          	andi	a5,a5,243
     53a:	10f700a3          	sb	a5,257(a4)
     53e:	331d                	c.jal	264 <flash_send_cmd>
     540:	0e0b1e63          	bnez	s6,63c <flash_mspi_read_ram+0x178>
     544:	020a8063          	beqz	s5,564 <flash_mspi_read_ram+0xa0>
     548:	00000713          	li	a4,0
     54c:	80140637          	lui	a2,0x80140
     550:	10060023          	sb	zero,256(a2) # 80140100 <_DATA_LMA_START+0x6013bb50>
     554:	10260783          	lb	a5,258(a2)
     558:	fe07fe5b          	bbs	a5,0,554 <flash_mspi_read_ram+0x90>
     55c:	00170713          	addi	a4,a4,1
     560:	ff5718e3          	bne	a4,s5,550 <flash_mspi_read_ram+0x8c>
     564:	01b96cdb          	bnec	s2,59,57c <flash_mspi_read_ram+0xb8>
     568:	80140737          	lui	a4,0x80140
     56c:	10170783          	lb	a5,257(a4) # 80140101 <_DATA_LMA_START+0x6013bb51>
     570:	0f37f793          	andi	a5,a5,243
     574:	0047e793          	ori	a5,a5,4
     578:	10f700a3          	sb	a5,257(a4)
     57c:	801406b7          	lui	a3,0x80140
     580:	10168783          	lb	a5,257(a3) # 80140101 <_DATA_LMA_START+0x6013bb51>
     584:	80140737          	lui	a4,0x80140
     588:	0ff7f793          	andi	a5,a5,255
     58c:	0027e793          	ori	a5,a5,2
     590:	10f680a3          	sb	a5,257(a3)
     594:	10068023          	sb	zero,256(a3)
     598:	10270783          	lb	a5,258(a4) # 80140102 <_DATA_LMA_START+0x6013bb52>
     59c:	fe07fe5b          	bbs	a5,0,598 <flash_mspi_read_ram+0xd4>
     5a0:	10170783          	lb	a5,257(a4)
     5a4:	801406b7          	lui	a3,0x80140
     5a8:	0ff7f793          	andi	a5,a5,255
     5ac:	0017e793          	ori	a5,a5,1
     5b0:	10f700a3          	sb	a5,257(a4)
     5b4:	10268783          	lb	a5,258(a3) # 80140102 <_DATA_LMA_START+0x6013bb52>
     5b8:	fe07fe5b          	bbs	a5,0,5b4 <flash_mspi_read_ram+0xf0>
     5bc:	020a0263          	beqz	s4,5e0 <flash_mspi_read_ram+0x11c>
     5c0:	008a0a33          	add	s4,s4,s0
     5c4:	801406b7          	lui	a3,0x80140
     5c8:	10068783          	lb	a5,256(a3) # 80140100 <_DATA_LMA_START+0x6013bb50>
     5cc:	00140413          	addi	s0,s0,1
     5d0:	fef40fa3          	sb	a5,-1(s0)
     5d4:	10268783          	lb	a5,258(a3)
     5d8:	fe07fe5b          	bbs	a5,0,5d4 <flash_mspi_read_ram+0x110>
     5dc:	ff4416e3          	bne	s0,s4,5c8 <flash_mspi_read_ram+0x104>
     5e0:	801407b7          	lui	a5,0x80140
     5e4:	10178703          	lb	a4,257(a5) # 80140101 <_DATA_LMA_START+0x6013bb51>
     5e8:	0fe77713          	andi	a4,a4,254
     5ec:	10e780a3          	sb	a4,257(a5)
     5f0:	01b968db          	bnec	s2,59,600 <flash_mspi_read_ram+0x13c>
     5f4:	10178703          	lb	a4,257(a5)
     5f8:	0f377713          	andi	a4,a4,243
     5fc:	10e780a3          	sb	a4,257(a5)
     600:	80140737          	lui	a4,0x80140
     604:	10170783          	lb	a5,257(a4) # 80140101 <_DATA_LMA_START+0x6013bb51>
     608:	0ff7f793          	andi	a5,a5,255
     60c:	0107e793          	ori	a5,a5,16
     610:	10f700a3          	sb	a5,257(a4)
     614:	0001                	c.nop
     616:	0001                	c.nop
     618:	0001                	c.nop
     61a:	0001                	c.nop
     61c:	0001                	c.nop
     61e:	5422                	c.lwsp	s0,40(sp)
     620:	0404c503          	lbu	a0,64(s1)
     624:	50b2                	c.lwsp	ra,44(sp)
     626:	5492                	c.lwsp	s1,36(sp)
     628:	5902                	c.lwsp	s2,32(sp)
     62a:	4a62                	c.lwsp	s4,24(sp)
     62c:	4ad2                	c.lwsp	s5,20(sp)
     62e:	4b42                	c.lwsp	s6,16(sp)
     630:	4bb2                	c.lwsp	s7,12(sp)
     632:	85ce                	c.mv	a1,s3
     634:	49f2                	c.lwsp	s3,28(sp)
     636:	6145                	c.addi16sp	sp,48
     638:	dd5ff06f          	j	40c <plic_exit_critical_sec>
     63c:	855e                	c.mv	a0,s7
     63e:	36cd                	c.jal	220 <flash_send_addr>
     640:	f05ff06f          	j	544 <flash_mspi_read_ram+0x80>

00000644 <flash_mspi_read_ram.constprop.7>:
     644:	1101                	c.addi	sp,-32
     646:	c64e                	c.swsp	s3,12(sp)
     648:	000009b7          	lui	s3,0x0
     64c:	15898993          	addi	s3,s3,344 # 158 <_AES_VMA_END>
     650:	cc22                	c.swsp	s0,24(sp)
     652:	c256                	c.swsp	s5,4(sp)
     654:	842e                	c.mv	s0,a1
     656:	8aaa                	c.mv	s5,a0
     658:	0419c583          	lbu	a1,65(s3)
     65c:	0409c503          	lbu	a0,64(s3)
     660:	c84a                	c.swsp	s2,16(sp)
     662:	c452                	c.swsp	s4,8(sp)
     664:	ce06                	c.swsp	ra,28(sp)
     666:	ca26                	c.swsp	s1,20(sp)
     668:	8932                	c.mv	s2,a2
     66a:	3bed                	c.jal	464 <plic_enter_critical_sec>
     66c:	80140737          	lui	a4,0x80140
     670:	00a00a33          	add	s4,zero,a0
     674:	10270783          	lb	a5,258(a4) # 80140102 <_DATA_LMA_START+0x6013bb52>
     678:	fe07fe5b          	bbs	a5,0,674 <flash_mspi_read_ram.constprop.7+0x30>
     67c:	10170783          	lb	a5,257(a4)
     680:	801404b7          	lui	s1,0x80140
     684:	0ff7f793          	andi	a5,a5,255
     688:	0107e793          	ori	a5,a5,16
     68c:	10f700a3          	sb	a5,257(a4)
     690:	32848783          	lb	a5,808(s1) # 80140328 <_DATA_LMA_START+0x6013bd78>
     694:	be37fe5b          	bbc	a5,3,690 <flash_mspi_read_ram.constprop.7+0x4c>
     698:	10148783          	lb	a5,257(s1)
     69c:	03b00513          	li	a0,59
     6a0:	0fd7f793          	andi	a5,a5,253
     6a4:	10f480a3          	sb	a5,257(s1)
     6a8:	10148783          	lb	a5,257(s1)
     6ac:	0f37f793          	andi	a5,a5,243
     6b0:	10f480a3          	sb	a5,257(s1)
     6b4:	bb1ff0ef          	jal	ra,264 <flash_send_cmd>
     6b8:	01500533          	add	a0,zero,s5
     6bc:	b65ff0ef          	jal	ra,220 <flash_send_addr>
     6c0:	80140737          	lui	a4,0x80140
     6c4:	10048023          	sb	zero,256(s1)
     6c8:	10270783          	lb	a5,258(a4) # 80140102 <_DATA_LMA_START+0x6013bb52>
     6cc:	fe07fe5b          	bbs	a5,0,6c8 <flash_mspi_read_ram.constprop.7+0x84>
     6d0:	10170783          	lb	a5,257(a4)
     6d4:	801406b7          	lui	a3,0x80140
     6d8:	0f37f793          	andi	a5,a5,243
     6dc:	0047e793          	ori	a5,a5,4
     6e0:	10f700a3          	sb	a5,257(a4)
     6e4:	10170783          	lb	a5,257(a4)
     6e8:	0ff7f793          	andi	a5,a5,255
     6ec:	0027e793          	ori	a5,a5,2
     6f0:	10f700a3          	sb	a5,257(a4)
     6f4:	10070023          	sb	zero,256(a4)
     6f8:	10268783          	lb	a5,258(a3) # 80140102 <_DATA_LMA_START+0x6013bb52>
     6fc:	fe07fe5b          	bbs	a5,0,6f8 <flash_mspi_read_ram.constprop.7+0xb4>
     700:	10168783          	lb	a5,257(a3)
     704:	80140737          	lui	a4,0x80140
     708:	0ff7f793          	andi	a5,a5,255
     70c:	0017e793          	ori	a5,a5,1
     710:	10f680a3          	sb	a5,257(a3)
     714:	10270783          	lb	a5,258(a4) # 80140102 <_DATA_LMA_START+0x6013bb52>
     718:	fe07fe5b          	bbs	a5,0,714 <flash_mspi_read_ram.constprop.7+0xd0>
     71c:	02090263          	beqz	s2,740 <flash_mspi_read_ram.constprop.7+0xfc>
     720:	01240633          	add	a2,s0,s2
     724:	80140737          	lui	a4,0x80140
     728:	10070783          	lb	a5,256(a4) # 80140100 <_DATA_LMA_START+0x6013bb50>
     72c:	00140413          	addi	s0,s0,1
     730:	fef40fa3          	sb	a5,-1(s0)
     734:	10270783          	lb	a5,258(a4)
     738:	fe07fe5b          	bbs	a5,0,734 <flash_mspi_read_ram.constprop.7+0xf0>
     73c:	fec416e3          	bne	s0,a2,728 <flash_mspi_read_ram.constprop.7+0xe4>
     740:	801407b7          	lui	a5,0x80140
     744:	10178703          	lb	a4,257(a5) # 80140101 <_DATA_LMA_START+0x6013bb51>
     748:	0fe77713          	andi	a4,a4,254
     74c:	10e780a3          	sb	a4,257(a5)
     750:	10178703          	lb	a4,257(a5)
     754:	0f377713          	andi	a4,a4,243
     758:	10e780a3          	sb	a4,257(a5)
     75c:	10178703          	lb	a4,257(a5)
     760:	0ff77713          	andi	a4,a4,255
     764:	01076713          	ori	a4,a4,16
     768:	10e780a3          	sb	a4,257(a5)
     76c:	0001                	c.nop
     76e:	0001                	c.nop
     770:	0001                	c.nop
     772:	0001                	c.nop
     774:	0001                	c.nop
     776:	4462                	c.lwsp	s0,24(sp)
     778:	0409c503          	lbu	a0,64(s3)
     77c:	40f2                	c.lwsp	ra,28(sp)
     77e:	44d2                	c.lwsp	s1,20(sp)
     780:	4942                	c.lwsp	s2,16(sp)
     782:	49b2                	c.lwsp	s3,12(sp)
     784:	4a92                	c.lwsp	s5,4(sp)
     786:	85d2                	c.mv	a1,s4
     788:	4a22                	c.lwsp	s4,8(sp)
     78a:	6105                	c.addi16sp	sp,32
     78c:	c81ff06f          	j	40c <plic_exit_critical_sec>

00000790 <analog_write_reg8>:
     790:	30002673          	csrr	a2,mstatus
     794:	8a21                	c.andi	a2,8
     796:	c609                	c.beqz	a2,7a0 <analog_write_reg8+0x10>
     798:	300477f3          	csrrci	a5,mstatus,8
     79c:	0ff0000f          	fence
     7a0:	80140737          	lui	a4,0x80140
     7a4:	18a70023          	sb	a0,384(a4) # 80140180 <_DATA_LMA_START+0x6013bbd0>
     7a8:	18b70223          	sb	a1,388(a4)
     7ac:	06000693          	li	a3,96
     7b0:	801407b7          	lui	a5,0x80140
     7b4:	18d70123          	sb	a3,386(a4)
     7b8:	18278703          	lb	a4,386(a5) # 80140182 <_DATA_LMA_START+0x6013bbd2>
     7bc:	fe777e5b          	bbs	a4,7,7b8 <analog_write_reg8+0x28>
     7c0:	18078123          	sb	zero,386(a5)
     7c4:	00060663          	beqz	a2,7d0 <analog_write_reg8+0x40>
     7c8:	30062673          	csrrs	a2,mstatus,a2
     7cc:	0ff0000f          	fence
     7d0:	00008067          	ret

000007d4 <analog_read_reg8>:
     7d4:	300026f3          	csrr	a3,mstatus
     7d8:	8aa1                	c.andi	a3,8
     7da:	c689                	c.beqz	a3,7e4 <analog_read_reg8+0x10>
     7dc:	300477f3          	csrrci	a5,mstatus,8
     7e0:	0ff0000f          	fence
     7e4:	801407b7          	lui	a5,0x80140
     7e8:	18a78023          	sb	a0,384(a5) # 80140180 <_DATA_LMA_START+0x6013bbd0>
     7ec:	00100713          	li	a4,1
     7f0:	18e781a3          	sb	a4,387(a5)
     7f4:	04000613          	li	a2,64
     7f8:	80140737          	lui	a4,0x80140
     7fc:	18c78123          	sb	a2,386(a5)
     800:	18270783          	lb	a5,386(a4) # 80140182 <_DATA_LMA_START+0x6013bbd2>
     804:	fe77fe5b          	bbs	a5,7,800 <analog_read_reg8+0x2c>
     808:	18470503          	lb	a0,388(a4)
     80c:	0ff57513          	andi	a0,a0,255
     810:	00068663          	beqz	a3,81c <analog_read_reg8+0x48>
     814:	3006a6f3          	csrrs	a3,mstatus,a3
     818:	0ff0000f          	fence
     81c:	00008067          	ret

00000820 <clock_init_ram.constprop.11>:
     820:	1141                	c.addi	sp,-16
     822:	80140737          	lui	a4,0x80140
     826:	c606                	c.swsp	ra,12(sp)
     828:	c422                	c.swsp	s0,8(sp)
     82a:	c226                	c.swsp	s1,4(sp)
     82c:	10270783          	lb	a5,258(a4) # 80140102 <_DATA_LMA_START+0x6013bb52>
     830:	fe07fe5b          	bbs	a5,0,82c <clock_init_ram.constprop.11+0xc>
     834:	10170783          	lb	a5,257(a4)
     838:	801404b7          	lui	s1,0x80140
     83c:	0ff7f793          	andi	a5,a5,255
     840:	0107e793          	ori	a5,a5,16
     844:	10f700a3          	sb	a5,257(a4)
     848:	32848783          	lb	a5,808(s1) # 80140328 <_DATA_LMA_START+0x6013bd78>
     84c:	be37fe5b          	bbc	a5,3,848 <clock_init_ram.constprop.11+0x28>
     850:	1e848783          	lb	a5,488(s1)
     854:	08000513          	li	a0,128
     858:	8bbd                	c.andi	a5,15
     85a:	1ef48423          	sb	a5,488(s1)
     85e:	3f9d                	c.jal	7d4 <analog_read_reg8>
     860:	0e057593          	andi	a1,a0,224
     864:	0105e593          	ori	a1,a1,16
     868:	08000513          	li	a0,128
     86c:	f25ff0ef          	jal	ra,790 <analog_write_reg8>
     870:	00900513          	li	a0,9
     874:	f61ff0ef          	jal	ra,7d4 <analog_read_reg8>
     878:	0f357593          	andi	a1,a0,243
     87c:	0085e593          	ori	a1,a1,8
     880:	4525                	c.li	a0,9
     882:	3739                	c.jal	790 <analog_write_reg8>
     884:	0c000793          	li	a5,192
     888:	d79f940b          	addigp	s0,-648 # 80578 <sys_clk>
     88c:	00f41023          	sh	a5,0(s0)
     890:	08100513          	li	a0,129
     894:	4791                	c.li	a5,4
     896:	1ef48da3          	sb	a5,507(s1)
     89a:	3f2d                	c.jal	7d4 <analog_read_reg8>
     89c:	04056593          	ori	a1,a0,64
     8a0:	0ff5f593          	andi	a1,a1,255
     8a4:	08100513          	li	a0,129
     8a8:	ee9ff0ef          	jal	ra,790 <analog_write_reg8>
     8ac:	08800513          	li	a0,136
     8b0:	f25ff0ef          	jal	ra,7d4 <analog_read_reg8>
     8b4:	be557c5b          	bbc	a0,5,8ac <clock_init_ram.constprop.11+0x8c>
     8b8:	08100513          	li	a0,129
     8bc:	f19ff0ef          	jal	ra,7d4 <analog_read_reg8>
     8c0:	0bf57593          	andi	a1,a0,191
     8c4:	08100513          	li	a0,129
     8c8:	ec9ff0ef          	jal	ra,790 <analog_write_reg8>
     8cc:	801407b7          	lui	a5,0x80140
     8d0:	1e978703          	lb	a4,489(a5) # 801401e9 <_DATA_LMA_START+0x6013bc39>
     8d4:	8b3d                	c.andi	a4,15
     8d6:	04076713          	ori	a4,a4,64
     8da:	1ee784a3          	sb	a4,489(a5)
     8de:	1e878703          	lb	a4,488(a5)
     8e2:	f8076713          	ori	a4,a4,-128
     8e6:	0ff77713          	andi	a4,a4,255
     8ea:	1ee78423          	sb	a4,488(a5)
     8ee:	1e878703          	lb	a4,488(a5)
     8f2:	f8076713          	ori	a4,a4,-128
     8f6:	0ff77713          	andi	a4,a4,255
     8fa:	1ee78423          	sb	a4,488(a5)
     8fe:	1d878703          	lb	a4,472(a5)
     902:	00045683          	lhu	a3,0(s0)
     906:	0fb77713          	andi	a4,a4,251
     90a:	1ce78c23          	sb	a4,472(a5)
     90e:	1d878703          	lb	a4,472(a5)
     912:	8689                	c.srai	a3,0x2
     914:	00d402a3          	sb	a3,5(s0)
     918:	0fc77713          	andi	a4,a4,252
     91c:	1ce78c23          	sb	a4,472(a5)
     920:	1e878703          	lb	a4,488(a5)
     924:	0f077713          	andi	a4,a4,240
     928:	00876713          	ori	a4,a4,8
     92c:	1ee78423          	sb	a4,488(a5)
     930:	1e878703          	lb	a4,488(a5)
     934:	00045683          	lhu	a3,0(s0)
     938:	08f77713          	andi	a4,a4,143
     93c:	868d                	c.srai	a3,0x3
     93e:	00d40123          	sb	a3,2(s0)
     942:	02076713          	ori	a4,a4,32
     946:	1ee78423          	sb	a4,488(a5)
     94a:	0ff6f693          	andi	a3,a3,255
     94e:	00d401a3          	sb	a3,3(s0)
     952:	00d40223          	sb	a3,4(s0)
     956:	40b2                	c.lwsp	ra,12(sp)
     958:	4422                	c.lwsp	s0,8(sp)
     95a:	4492                	c.lwsp	s1,4(sp)
     95c:	0141                	c.addi	sp,16
     95e:	8082                	c.jr	ra

00000960 <pm_wait_bbpll_done>:
     960:	1101                	c.addi	sp,-32
     962:	08100513          	li	a0,129
     966:	cc22                	c.swsp	s0,24(sp)
     968:	ca26                	c.swsp	s1,20(sp)
     96a:	c84a                	c.swsp	s2,16(sp)
     96c:	ce06                	c.swsp	ra,28(sp)
     96e:	359d                	c.jal	7d4 <analog_read_reg8>
     970:	04056593          	ori	a1,a0,64
     974:	892a                	c.mv	s2,a0
     976:	0ff5f593          	andi	a1,a1,255
     97a:	08100513          	li	a0,129
     97e:	0bf97913          	andi	s2,s2,191
     982:	4481                	c.li	s1,0
     984:	4475                	c.li	s0,29
     986:	3529                	c.jal	790 <analog_write_reg8>
     988:	000107a3          	sb	zero,15(sp)
     98c:	00f10783          	lb	a5,15(sp)
     990:	0ff7f793          	andi	a5,a5,255
     994:	02f46063          	bltu	s0,a5,9b4 <pm_wait_bbpll_done+0x54>
     998:	0001                	c.nop
     99a:	00f10783          	lb	a5,15(sp)
     99e:	0785                	c.addi	a5,1
     9a0:	0ff7f793          	andi	a5,a5,255
     9a4:	00f107a3          	sb	a5,15(sp)
     9a8:	00f10783          	lb	a5,15(sp)
     9ac:	0ff7f793          	andi	a5,a5,255
     9b0:	fef474e3          	bgeu	s0,a5,998 <pm_wait_bbpll_done+0x38>
     9b4:	08800513          	li	a0,136
     9b8:	e1dff0ef          	jal	ra,7d4 <analog_read_reg8>
     9bc:	4255765b          	bbs	a0,5,9e8 <pm_wait_bbpll_done+0x88>
     9c0:	cc95                	c.beqz	s1,9fc <pm_wait_bbpll_done+0x9c>
     9c2:	0414d35b          	beqc	s1,1,a08 <pm_wait_bbpll_done+0xa8>
     9c6:	85ca                	c.mv	a1,s2
     9c8:	08100513          	li	a0,129
     9cc:	dc5ff0ef          	jal	ra,790 <analog_write_reg8>
     9d0:	0024d65b          	beqc	s1,2,9dc <pm_wait_bbpll_done+0x7c>
     9d4:	0485                	c.addi	s1,1
     9d6:	0ff4f493          	andi	s1,s1,255
     9da:	b77d                	c.j	988 <pm_wait_bbpll_done+0x28>
     9dc:	40f2                	c.lwsp	ra,28(sp)
     9de:	4462                	c.lwsp	s0,24(sp)
     9e0:	44d2                	c.lwsp	s1,20(sp)
     9e2:	4942                	c.lwsp	s2,16(sp)
     9e4:	6105                	c.addi16sp	sp,32
     9e6:	8082                	c.jr	ra
     9e8:	4462                	c.lwsp	s0,24(sp)
     9ea:	40f2                	c.lwsp	ra,28(sp)
     9ec:	44d2                	c.lwsp	s1,20(sp)
     9ee:	85ca                	c.mv	a1,s2
     9f0:	4942                	c.lwsp	s2,16(sp)
     9f2:	08100513          	li	a0,129
     9f6:	6105                	c.addi16sp	sp,32
     9f8:	d99ff06f          	j	790 <analog_write_reg8>
     9fc:	04600593          	li	a1,70
     a00:	4505                	c.li	a0,1
     a02:	3379                	c.jal	790 <analog_write_reg8>
     a04:	fd1ff06f          	j	9d4 <pm_wait_bbpll_done+0x74>
     a08:	04300593          	li	a1,67
     a0c:	4505                	c.li	a0,1
     a0e:	3349                	c.jal	790 <analog_write_reg8>
     a10:	fc5ff06f          	j	9d4 <pm_wait_bbpll_done+0x74>

00000a14 <pm_sleep_start>:
     a14:	1101                	c.addi	sp,-32
     a16:	d97fa72b          	lwgp	a4,-620 # 80594 <g_chip_version>
     a1a:	000006b7          	lui	a3,0x0
     a1e:	ce06                	c.swsp	ra,28(sp)
     a20:	cc22                	c.swsp	s0,24(sp)
     a22:	ca26                	c.swsp	s1,20(sp)
     a24:	0ff00793          	li	a5,255
     a28:	19a6c583          	lbu	a1,410(a3) # 19a <g_pm_suspend_power_cfg>
     a2c:	00f71a63          	bne	a4,a5,a40 <pm_sleep_start+0x2c>
     a30:	0fe5f593          	andi	a1,a1,254
     a34:	07d00513          	li	a0,125
     a38:	d59ff0ef          	jal	ra,790 <analog_write_reg8>
     a3c:	00c0006f          	j	a48 <pm_sleep_start+0x34>
     a40:	07d00513          	li	a0,125
     a44:	d4dff0ef          	jal	ra,790 <analog_write_reg8>
     a48:	801406b7          	lui	a3,0x80140
     a4c:	10268783          	lb	a5,258(a3) # 80140102 <_DATA_LMA_START+0x6013bb52>
     a50:	fe07fe5b          	bbs	a5,0,a4c <pm_sleep_start+0x38>
     a54:	10168703          	lb	a4,257(a3)
     a58:	801407b7          	lui	a5,0x80140
     a5c:	0ff77713          	andi	a4,a4,255
     a60:	01076713          	ori	a4,a4,16
     a64:	10e680a3          	sb	a4,257(a3)
     a68:	32878703          	lb	a4,808(a5) # 80140328 <_DATA_LMA_START+0x6013bd78>
     a6c:	be377e5b          	bbc	a4,3,a68 <pm_sleep_start+0x54>
     a70:	10178703          	lb	a4,257(a5)
     a74:	80140437          	lui	s0,0x80140
     a78:	0fd77713          	andi	a4,a4,253
     a7c:	10e780a3          	sb	a4,257(a5)
     a80:	10178703          	lb	a4,257(a5)
     a84:	0ef77713          	andi	a4,a4,239
     a88:	10e780a3          	sb	a4,257(a5)
     a8c:	fb900713          	li	a4,-71
     a90:	10e78023          	sb	a4,256(a5)
     a94:	10240783          	lb	a5,258(s0) # 80140102 <_DATA_LMA_START+0x6013bb52>
     a98:	fe07fe5b          	bbs	a5,0,a94 <pm_sleep_start+0x80>
     a9c:	10140783          	lb	a5,257(s0)
     aa0:	452d                	c.li	a0,11
     aa2:	0ff7f793          	andi	a5,a5,255
     aa6:	0107e793          	ori	a5,a5,16
     aaa:	10f400a3          	sb	a5,257(s0)
     aae:	320404a3          	sb	zero,809(s0)
     ab2:	330d                	c.jal	7d4 <analog_read_reg8>
     ab4:	0fc57593          	andi	a1,a0,252
     ab8:	452d                	c.li	a0,11
     aba:	39d9                	c.jal	790 <analog_write_reg8>
     abc:	08100513          	li	a0,129
     ac0:	d15ff0ef          	jal	ra,7d4 <analog_read_reg8>
     ac4:	f8056593          	ori	a1,a0,-128
     ac8:	0ff5f593          	andi	a1,a1,255
     acc:	08100513          	li	a0,129
     ad0:	cc1ff0ef          	jal	ra,790 <analog_write_reg8>
     ad4:	f8000793          	li	a5,-128
     ad8:	1ef407a3          	sb	a5,495(s0)
     adc:	03f00493          	li	s1,63
     ae0:	00012423          	sw	zero,8(sp)
     ae4:	47a2                	c.lwsp	a5,8(sp)
     ae6:	00f4e763          	bltu	s1,a5,af4 <pm_sleep_start+0xe0>
     aea:	0001                	c.nop
     aec:	47a2                	c.lwsp	a5,8(sp)
     aee:	0785                	c.addi	a5,1
     af0:	c43e                	c.swsp	a5,8(sp)
     af2:	bfcd                	c.j	ae4 <pm_sleep_start+0xd0>
     af4:	08100513          	li	a0,129
     af8:	cddff0ef          	jal	ra,7d4 <analog_read_reg8>
     afc:	07f57593          	andi	a1,a0,127
     b00:	08100513          	li	a0,129
     b04:	c8dff0ef          	jal	ra,790 <analog_write_reg8>
     b08:	00b00513          	li	a0,11
     b0c:	cc9ff0ef          	jal	ra,7d4 <analog_read_reg8>
     b10:	00356593          	ori	a1,a0,3
     b14:	0ff5f593          	andi	a1,a1,255
     b18:	452d                	c.li	a0,11
     b1a:	399d                	c.jal	790 <analog_write_reg8>
     b1c:	08000593          	li	a1,128
     b20:	07d00513          	li	a0,125
     b24:	c6dff0ef          	jal	ra,790 <analog_write_reg8>
     b28:	801407b7          	lui	a5,0x80140
     b2c:	329784a3          	sb	s1,809(a5) # 80140329 <_DATA_LMA_START+0x6013bd79>
     b30:	10178683          	lb	a3,257(a5)
     b34:	80140737          	lui	a4,0x80140
     b38:	0ef6f693          	andi	a3,a3,239
     b3c:	10d780a3          	sb	a3,257(a5)
     b40:	fab00693          	li	a3,-85
     b44:	10d78023          	sb	a3,256(a5)
     b48:	10270783          	lb	a5,258(a4) # 80140102 <_DATA_LMA_START+0x6013bb52>
     b4c:	fe07fe5b          	bbs	a5,0,b48 <pm_sleep_start+0x134>
     b50:	10170783          	lb	a5,257(a4)
     b54:	12b00693          	li	a3,299
     b58:	0ff7f793          	andi	a5,a5,255
     b5c:	0107e793          	ori	a5,a5,16
     b60:	10f700a3          	sb	a5,257(a4)
     b64:	00012623          	sw	zero,12(sp)
     b68:	47b2                	c.lwsp	a5,12(sp)
     b6a:	00f6e763          	bltu	a3,a5,b78 <pm_sleep_start+0x164>
     b6e:	0001                	c.nop
     b70:	47b2                	c.lwsp	a5,12(sp)
     b72:	0785                	c.addi	a5,1
     b74:	c63e                	c.swsp	a5,12(sp)
     b76:	bfcd                	c.j	b68 <pm_sleep_start+0x154>
     b78:	08800513          	li	a0,136
     b7c:	c59ff0ef          	jal	ra,7d4 <analog_read_reg8>
     b80:	be757c5b          	bbc	a0,7,b78 <pm_sleep_start+0x164>
     b84:	08800513          	li	a0,136
     b88:	c4dff0ef          	jal	ra,7d4 <analog_read_reg8>
     b8c:	be757c5b          	bbc	a0,7,b84 <pm_sleep_start+0x170>
     b90:	08800513          	li	a0,136
     b94:	c41ff0ef          	jal	ra,7d4 <analog_read_reg8>
     b98:	be757c5b          	bbc	a0,7,b90 <pm_sleep_start+0x17c>
     b9c:	4462                	c.lwsp	s0,24(sp)
     b9e:	40f2                	c.lwsp	ra,28(sp)
     ba0:	44d2                	c.lwsp	s1,20(sp)
     ba2:	6105                	c.addi16sp	sp,32
     ba4:	dbdff06f          	j	960 <pm_wait_bbpll_done>

00000ba8 <dr_putchar>:
     ba8:	1101                	c.addi	sp,-32
     baa:	ca26                	c.swsp	s1,20(sp)
     bac:	cc22                	c.swsp	s0,24(sp)
     bae:	ce06                	c.swsp	ra,28(sp)
     bb0:	c84a                	c.swsp	s2,16(sp)
     bb2:	d75f948b          	addigp	s1,-652 # 80574 <init_flag.4915>
     bb6:	842a                	c.mv	s0,a0
     bb8:	0004c783          	lbu	a5,0(s1)
     bbc:	0c17d25b          	beqc	a5,1,c80 <dr_putchar+0xd8>
     bc0:	801407b7          	lui	a5,0x80140
     bc4:	30378703          	lb	a4,771(a5) # 80140303 <_DATA_LMA_START+0x6013bd53>
     bc8:	30378783          	lb	a5,771(a5)
     bcc:	0fe77713          	andi	a4,a4,254
     bd0:	0ff7f793          	andi	a5,a5,255
     bd4:	0017e793          	ori	a5,a5,1
     bd8:	00e10223          	sb	a4,4(sp)
     bdc:	86be                	c.mv	a3,a5
     bde:	4004735b          	bbs	s0,0,be4 <dr_putchar+0x3c>
     be2:	86ba                	c.mv	a3,a4
     be4:	00d102a3          	sb	a3,5(sp)
     be8:	86be                	c.mv	a3,a5
     bea:	4014735b          	bbs	s0,1,bf0 <dr_putchar+0x48>
     bee:	86ba                	c.mv	a3,a4
     bf0:	00d10323          	sb	a3,6(sp)
     bf4:	86be                	c.mv	a3,a5
     bf6:	4024735b          	bbs	s0,2,bfc <dr_putchar+0x54>
     bfa:	86ba                	c.mv	a3,a4
     bfc:	00d103a3          	sb	a3,7(sp)
     c00:	86be                	c.mv	a3,a5
     c02:	4034735b          	bbs	s0,3,c08 <dr_putchar+0x60>
     c06:	86ba                	c.mv	a3,a4
     c08:	00d10423          	sb	a3,8(sp)
     c0c:	86be                	c.mv	a3,a5
     c0e:	4044735b          	bbs	s0,4,c14 <dr_putchar+0x6c>
     c12:	86ba                	c.mv	a3,a4
     c14:	00d104a3          	sb	a3,9(sp)
     c18:	86be                	c.mv	a3,a5
     c1a:	4054735b          	bbs	s0,5,c20 <dr_putchar+0x78>
     c1e:	86ba                	c.mv	a3,a4
     c20:	00d10523          	sb	a3,10(sp)
     c24:	86be                	c.mv	a3,a5
     c26:	4064735b          	bbs	s0,6,c2c <dr_putchar+0x84>
     c2a:	86ba                	c.mv	a3,a4
     c2c:	00d105a3          	sb	a3,11(sp)
     c30:	801d                	c.srli	s0,0x7
     c32:	c019                	c.beqz	s0,c38 <dr_putchar+0x90>
     c34:	00f00733          	add	a4,zero,a5
     c38:	00f106a3          	sb	a5,13(sp)
     c3c:	801407b7          	lui	a5,0x80140
     c40:	00e10623          	sb	a4,12(sp)
     c44:	2007a603          	lw	a2,512(a5) # 80140200 <_DATA_LMA_START+0x6013bc50>
     c48:	00410513          	addi	a0,sp,4
     c4c:	00e10813          	addi	a6,sp,14
     c50:	801406b7          	lui	a3,0x80140
     c54:	08900593          	li	a1,137
     c58:	2006a783          	lw	a5,512(a3) # 80140200 <_DATA_LMA_START+0x6013bc50>
     c5c:	40c78733          	sub	a4,a5,a2
     c60:	fee5fce3          	bgeu	a1,a4,c58 <dr_putchar+0xb0>
     c64:	00054703          	lbu	a4,0(a0)
     c68:	0505                	c.addi	a0,1
     c6a:	30e681a3          	sb	a4,771(a3)
     c6e:	863e                	c.mv	a2,a5
     c70:	ff0514e3          	bne	a0,a6,c58 <dr_putchar+0xb0>
     c74:	40f2                	c.lwsp	ra,28(sp)
     c76:	4462                	c.lwsp	s0,24(sp)
     c78:	44d2                	c.lwsp	s1,20(sp)
     c7a:	4942                	c.lwsp	s2,16(sp)
     c7c:	6105                	c.addi16sp	sp,32
     c7e:	8082                	c.jr	ra
     c80:	80140937          	lui	s2,0x80140
     c84:	30690783          	lb	a5,774(s2) # 80140306 <_DATA_LMA_START+0x6013bd56>
     c88:	4539                	c.li	a0,14
     c8a:	0ff7f793          	andi	a5,a5,255
     c8e:	0017e793          	ori	a5,a5,1
     c92:	30f90323          	sb	a5,774(s2)
     c96:	3e3d                	c.jal	7d4 <analog_read_reg8>
     c98:	0fc57593          	andi	a1,a0,252
     c9c:	0015e593          	ori	a1,a1,1
     ca0:	4539                	c.li	a0,14
     ca2:	34fd                	c.jal	790 <analog_write_reg8>
     ca4:	30290783          	lb	a5,770(s2)
     ca8:	0fe7f793          	andi	a5,a5,254
     cac:	30f90123          	sb	a5,770(s2)
     cb0:	30390783          	lb	a5,771(s2)
     cb4:	0ff7f793          	andi	a5,a5,255
     cb8:	0017e793          	ori	a5,a5,1
     cbc:	30f901a3          	sb	a5,771(s2)
     cc0:	00048023          	sb	zero,0(s1)
     cc4:	efdff06f          	j	bc0 <dr_putchar+0x18>

00000cc8 <pm_sleep_wakeup_ram.constprop.3>:
     cc8:	1101                	c.addi	sp,-32
     cca:	c452                	c.swsp	s4,8(sp)
     ccc:	8a2a                	c.mv	s4,a0
     cce:	ce06                	c.swsp	ra,28(sp)
     cd0:	cc22                	c.swsp	s0,24(sp)
     cd2:	ca26                	c.swsp	s1,20(sp)
     cd4:	c84a                	c.swsp	s2,16(sp)
     cd6:	c64e                	c.swsp	s3,12(sp)
     cd8:	c256                	c.swsp	s5,4(sp)
     cda:	c05a                	c.swsp	s6,0(sp)
     cdc:	300029f3          	csrr	s3,mstatus
     ce0:	0089f993          	andi	s3,s3,8
     ce4:	00098663          	beqz	s3,cf0 <pm_sleep_wakeup_ram.constprop.3+0x28>
     ce8:	300477f3          	csrrci	a5,mstatus,8
     cec:	0ff0000f          	fence
     cf0:	801407b7          	lui	a5,0x80140
     cf4:	2147a683          	lw	a3,532(a5) # 80140214 <_DATA_LMA_START+0x6013bc64>
     cf8:	def5                	c.beqz	a3,cf4 <pm_sleep_wakeup_ram.constprop.3+0x2c>
     cfa:	00000437          	lui	s0,0x0
     cfe:	15840693          	addi	a3,s0,344 # 158 <_AES_VMA_END>
     d02:	2147a783          	lw	a5,532(a5)
     d06:	4ed8                	c.lw	a4,28(a3)
     d08:	d6dc                	c.sw	a5,44(a3)
     d0a:	15840413          	addi	s0,s0,344
     d0e:	0792                	c.slli	a5,0x4
     d10:	cb11                	c.beqz	a4,d24 <pm_sleep_wakeup_ram.constprop.3+0x5c>
     d12:	03044603          	lbu	a2,48(s0)
     d16:	4691                	c.li	a3,4
     d18:	8f99                	c.sub	a5,a4
     d1a:	8e91                	c.sub	a3,a2
     d1c:	40d7d7b3          	sra	a5,a5,a3
     d20:	00e787b3          	add	a5,a5,a4
     d24:	4818                	c.lw	a4,16(s0)
     d26:	4047d493          	srai	s1,a5,0x4
     d2a:	02e48733          	mul	a4,s1,a4
     d2e:	80140937          	lui	s2,0x80140
     d32:	20092a83          	lw	s5,512(s2) # 80140200 <_DATA_LMA_START+0x6013bc50>
     d36:	cc5c                	c.sw	a5,28(s0)
     d38:	415a0ab3          	sub	s5,s4,s5
     d3c:	e00006b7          	lui	a3,0xe0000
     d40:	41275793          	srai	a5,a4,0x12
     d44:	94be                	c.add	s1,a5
     d46:	0486                	c.slli	s1,0x1
     d48:	02942a23          	sw	s1,52(s0)
     d4c:	0356f063          	bgeu	a3,s5,d6c <pm_sleep_wakeup_ram.constprop.3+0xa4>
     d50:	00098663          	beqz	s3,d5c <pm_sleep_wakeup_ram.constprop.3+0x94>
     d54:	3009a9f3          	csrrs	s3,mstatus,s3
     d58:	0ff0000f          	fence
     d5c:	06400513          	li	a0,100
     d60:	a75ff0ef          	jal	ra,7d4 <analog_read_reg8>
     d64:	01f57513          	andi	a0,a0,31
     d68:	2580006f          	j	fc0 <pm_sleep_wakeup_ram.constprop.3+0x2f8>
     d6c:	04a41783          	lh	a5,74(s0)
     d70:	1137a7db          	bfoz	a5,a5,4,19
     d74:	02fafe63          	bgeu	s5,a5,db0 <pm_sleep_wakeup_ram.constprop.3+0xe8>
     d78:	45fd                	c.li	a1,31
     d7a:	06400513          	li	a0,100
     d7e:	801404b7          	lui	s1,0x80140
     d82:	20092403          	lw	s0,512(s2)
     d86:	3429                	c.jal	790 <analog_write_reg8>
     d88:	06400513          	li	a0,100
     d8c:	a49ff0ef          	jal	ra,7d4 <analog_read_reg8>
     d90:	2004a783          	lw	a5,512(s1) # 80140200 <_DATA_LMA_START+0x6013bc50>
     d94:	897d                	c.andi	a0,31
     d96:	8f81                	c.sub	a5,s0
     d98:	0157f463          	bgeu	a5,s5,da0 <pm_sleep_wakeup_ram.constprop.3+0xd8>
     d9c:	fe0506e3          	beqz	a0,d88 <pm_sleep_wakeup_ram.constprop.3+0xc0>
     da0:	22098063          	beqz	s3,fc0 <pm_sleep_wakeup_ram.constprop.3+0x2f8>
     da4:	3009a9f3          	csrrs	s3,mstatus,s3
     da8:	0ff0000f          	fence
     dac:	2140006f          	j	fc0 <pm_sleep_wakeup_ram.constprop.3+0x2f8>
     db0:	1e890a83          	lb	s5,488(s2)
     db4:	00faf793          	andi	a5,s5,15
     db8:	1ef90423          	sb	a5,488(s2)
     dbc:	1d890b03          	lb	s6,472(s2)
     dc0:	0f8b7793          	andi	a5,s6,248
     dc4:	1cf90c23          	sb	a5,472(s2)
     dc8:	00100793          	li	a5,1
     dcc:	20f90c23          	sb	a5,536(s2)
     dd0:	20a90783          	lb	a5,522(s2)
     dd4:	0f77f793          	andi	a5,a5,247
     dd8:	20f90523          	sb	a5,522(s2)
     ddc:	d7cff0ef          	jal	ra,358 <clock_get_32k_tick>
     de0:	20092703          	lw	a4,512(s2)
     de4:	20b90783          	lb	a5,523(s2)
     de8:	5054                	c.lw	a3,36(s0)
     dea:	0ff7f793          	andi	a5,a5,255
     dee:	0027e793          	ori	a5,a5,2
     df2:	c468                	c.sw	a0,76(s0)
     df4:	dc18                	c.sw	a4,56(s0)
     df6:	03044603          	lbu	a2,48(s0)
     dfa:	40d506b3          	sub	a3,a0,a3
     dfe:	20f905a3          	sb	a5,523(s2)
     e02:	d414                	c.sw	a3,40(s0)
     e04:	e215                	c.bnez	a2,e28 <pm_sleep_wakeup_ram.constprop.3+0x160>
     e06:	441c                	c.lw	a5,8(s0)
     e08:	c385                	c.beqz	a5,e28 <pm_sleep_wakeup_ram.constprop.3+0x160>
     e0a:	05044783          	lbu	a5,80(s0)
     e0e:	ef89                	c.bnez	a5,e28 <pm_sleep_wakeup_ram.constprop.3+0x160>
     e10:	00c42783          	lw	a5,12(s0)
     e14:	000276b7          	lui	a3,0x27
     e18:	40f507b3          	sub	a5,a0,a5
     e1c:	6c07a7db          	bfoz	a5,a5,27,0
     e20:	10068693          	addi	a3,a3,256 # 27100 <BIN_SIZE+0x225b0>
     e24:	00f6f863          	bgeu	a3,a5,e34 <pm_sleep_wakeup_ram.constprop.3+0x16c>
     e28:	00176713          	ori	a4,a4,1
     e2c:	02040823          	sb	zero,48(s0)
     e30:	c448                	c.sw	a0,12(s0)
     e32:	c418                	c.sw	a4,8(s0)
     e34:	02000593          	li	a1,32
     e38:	04b00513          	li	a0,75
     e3c:	955ff0ef          	jal	ra,790 <analog_write_reg8>
     e40:	45fd                	c.li	a1,31
     e42:	06400513          	li	a0,100
     e46:	32a9                	c.jal	790 <analog_write_reg8>
     e48:	03000593          	li	a1,48
     e4c:	07e00513          	li	a0,126
     e50:	941ff0ef          	jal	ra,790 <analog_write_reg8>
     e54:	0f900593          	li	a1,249
     e58:	04d00513          	li	a0,77
     e5c:	935ff0ef          	jal	ra,790 <analog_write_reg8>
     e60:	4585                	c.li	a1,1
     e62:	07f00513          	li	a0,127
     e66:	322d                	c.jal	790 <analog_write_reg8>
     e68:	04841783          	lh	a5,72(s0)
     e6c:	0ee00593          	li	a1,238
     e70:	1137a7db          	bfoz	a5,a5,4,19
     e74:	04c00513          	li	a0,76
     e78:	40fa0933          	sub	s2,s4,a5
     e7c:	915ff0ef          	jal	ra,790 <analog_write_reg8>
     e80:	05441583          	lh	a1,84(s0)
     e84:	04000513          	li	a0,64
     e88:	0ff5f593          	andi	a1,a1,255
     e8c:	905ff0ef          	jal	ra,790 <analog_write_reg8>
     e90:	441c                	c.lw	a5,8(s0)
     e92:	07ff06b7          	lui	a3,0x7ff0
     e96:	40f907b3          	sub	a5,s2,a5
     e9a:	00168713          	addi	a4,a3,1 # 7ff0001 <FLASH_SIZE+0x7ef0001>
     e9e:	00e7b733          	sltu	a4,a5,a4
     ea2:	00174713          	xori	a4,a4,1
     ea6:	00e40223          	sb	a4,4(s0)
     eaa:	00f6f963          	bgeu	a3,a5,ebc <pm_sleep_wakeup_ram.constprop.3+0x1f4>
     eae:	5858                	c.lw	a4,52(s0)
     eb0:	4448                	c.lw	a0,12(s0)
     eb2:	02e7d7b3          	divu	a5,a5,a4
     eb6:	0796                	c.slli	a5,0x5
     eb8:	953e                	c.add	a0,a5
     eba:	a809                	c.j	ecc <pm_sleep_wakeup_ram.constprop.3+0x204>
     ebc:	5848                	c.lw	a0,52(s0)
     ebe:	8085                	c.srli	s1,0x1
     ec0:	0796                	c.slli	a5,0x5
     ec2:	97a6                	c.add	a5,s1
     ec4:	02a7d7b3          	divu	a5,a5,a0
     ec8:	4448                	c.lw	a0,12(s0)
     eca:	953e                	c.add	a0,a5
     ecc:	be0ff0ef          	jal	ra,2ac <clock_set_32k_tick>
     ed0:	06400513          	li	a0,100
     ed4:	901ff0ef          	jal	ra,7d4 <analog_read_reg8>
     ed8:	01f57513          	andi	a0,a0,31
     edc:	e901                	c.bnez	a0,eec <pm_sleep_wakeup_ram.constprop.3+0x224>
     ede:	3e1d                	c.jal	a14 <pm_sleep_start>
     ee0:	00100593          	li	a1,1
     ee4:	07f00513          	li	a0,127
     ee8:	8a9ff0ef          	jal	ra,790 <analog_write_reg8>
     eec:	80140737          	lui	a4,0x80140
     ef0:	02000793          	li	a5,32
     ef4:	1ef707a3          	sb	a5,495(a4) # 801401ef <_DATA_LMA_START+0x6013bc3f>
     ef8:	00200793          	li	a5,2
     efc:	20f70c23          	sb	a5,536(a4)
     f00:	20a70783          	lb	a5,522(a4)
     f04:	0ff7f793          	andi	a5,a5,255
     f08:	00c7e793          	ori	a5,a5,12
     f0c:	20f70523          	sb	a5,522(a4)
     f10:	c48ff0ef          	jal	ra,358 <clock_get_32k_tick>
     f14:	00444783          	lbu	a5,4(s0)
     f18:	cf81                	c.beqz	a5,f30 <pm_sleep_wakeup_ram.constprop.3+0x268>
     f1a:	4458                	c.lw	a4,12(s0)
     f1c:	5854                	c.lw	a3,52(s0)
     f1e:	40e50733          	sub	a4,a0,a4
     f22:	441c                	c.lw	a5,8(s0)
     f24:	0705                	c.addi	a4,1
     f26:	8315                	c.srli	a4,0x5
     f28:	c4d717ff          	maddr32	a5,a4,a3
     f2c:	0180006f          	j	f44 <pm_sleep_wakeup_ram.constprop.3+0x27c>
     f30:	445c                	c.lw	a5,12(s0)
     f32:	5858                	c.lw	a4,52(s0)
     f34:	40f507b3          	sub	a5,a0,a5
     f38:	0785                	c.addi	a5,1
     f3a:	02e787b3          	mul	a5,a5,a4
     f3e:	4418                	c.lw	a4,8(s0)
     f40:	8395                	c.srli	a5,0x5
     f42:	97ba                	c.add	a5,a4
     f44:	4458                	c.lw	a4,12(s0)
     f46:	00150613          	addi	a2,a0,1
     f4a:	8d19                	c.sub	a0,a4
     f4c:	0505                	c.addi	a0,1
     f4e:	00178693          	addi	a3,a5,1
     f52:	dc1c                	c.sw	a5,56(s0)
     f54:	d050                	c.sw	a2,36(s0)
     f56:	d008                	c.sw	a0,32(s0)
     f58:	801407b7          	lui	a5,0x80140
     f5c:	80140737          	lui	a4,0x80140
     f60:	20d7a023          	sw	a3,512(a5) # 80140200 <_DATA_LMA_START+0x6013bc50>
     f64:	20b70783          	lb	a5,523(a4) # 8014020b <_DATA_LMA_START+0x6013bc5b>
     f68:	be77fe5b          	bbc	a5,7,f64 <pm_sleep_wakeup_ram.constprop.3+0x29c>
     f6c:	20070c23          	sb	zero,536(a4)
     f70:	1d670c23          	sb	s6,472(a4)
     f74:	06400513          	li	a0,100
     f78:	1f570423          	sb	s5,488(a4)
     f7c:	859ff0ef          	jal	ra,7d4 <analog_read_reg8>
     f80:	d99f970b          	addigp	a4,-616 # 80598 <g_pm_status_info>
     f84:	00a700a3          	sb	a0,1(a4)
     f88:	d99f978b          	addigp	a5,-616 # 80598 <g_pm_status_info>
     f8c:	00157c5b          	bbc	a0,1,fa4 <pm_sleep_wakeup_ram.constprop.3+0x2dc>
     f90:	80140637          	lui	a2,0x80140
     f94:	400006b7          	lui	a3,0x40000
     f98:	20062703          	lw	a4,512(a2) # 80140200 <_DATA_LMA_START+0x6013bc50>
     f9c:	41470733          	sub	a4,a4,s4
     fa0:	fee6ece3          	bltu	a3,a4,f98 <pm_sleep_wakeup_ram.constprop.3+0x2d0>
     fa4:	00098663          	beqz	s3,fb0 <pm_sleep_wakeup_ram.constprop.3+0x2e8>
     fa8:	3009a9f3          	csrrs	s3,mstatus,s3
     fac:	0ff0000f          	fence
     fb0:	0017c783          	lbu	a5,1(a5)
     fb4:	10000513          	li	a0,256
     fb8:	c781                	c.beqz	a5,fc0 <pm_sleep_wakeup_ram.constprop.3+0x2f8>
     fba:	40000537          	lui	a0,0x40000
     fbe:	8d5d                	c.or	a0,a5
     fc0:	40f2                	c.lwsp	ra,28(sp)
     fc2:	4462                	c.lwsp	s0,24(sp)
     fc4:	44d2                	c.lwsp	s1,20(sp)
     fc6:	4942                	c.lwsp	s2,16(sp)
     fc8:	49b2                	c.lwsp	s3,12(sp)
     fca:	4a22                	c.lwsp	s4,8(sp)
     fcc:	4a92                	c.lwsp	s5,4(sp)
     fce:	4b02                	c.lwsp	s6,0(sp)
     fd0:	6105                	c.addi16sp	sp,32
     fd2:	8082                	c.jr	ra

00000fd4 <trap_entry>:
     fd4:	1101                	c.addi	sp,-32
     fd6:	ce2a                	c.swsp	a0,28(sp)
     fd8:	cc2e                	c.swsp	a1,24(sp)
     fda:	ca32                	c.swsp	a2,20(sp)
     fdc:	c836                	c.swsp	a3,16(sp)
     fde:	c63a                	c.swsp	a4,12(sp)
     fe0:	c43e                	c.swsp	a5,8(sp)
     fe2:	34202773          	csrr	a4,mcause
     fe6:	000007b7          	lui	a5,0x0
     fea:	15878793          	addi	a5,a5,344 # 158 <_AES_VMA_END>
     fee:	03c78683          	lb	a3,60(a5)
     ff2:	0ff6f693          	andi	a3,a3,255
     ff6:	c2dd                	c.beqz	a3,109c <trap_entry+0xc8>
     ff8:	34102673          	csrr	a2,mepc
     ffc:	300025f3          	csrr	a1,mstatus
    1000:	7c4026f3          	csrr	a3,mxstatus
    1004:	02074a63          	bltz	a4,1038 <trap_entry+0x64>
    1008:	34302773          	csrr	a4,mtval
    100c:	d8efc9ab          	swgp	a4,-624 # 80590 <exception_mtval>
    1010:	34102773          	csrr	a4,mepc
    1014:	d8efc5ab          	swgp	a4,-632 # 80588 <exception_mepc>
    1018:	30002773          	csrr	a4,mstatus
    101c:	d8efc7ab          	swgp	a4,-628 # 8058c <exception_mstatus>
    1020:	34202773          	csrr	a4,mcause
    1024:	d8efc1ab          	swgp	a4,-640 # 80580 <_BSS_VMA_START>
    1028:	7c902773          	csrr	a4,mdcause
    102c:	d8efc3ab          	swgp	a4,-636 # 80584 <exception_mdcause>
    1030:	0001                	c.nop
    1032:	0001                	c.nop
    1034:	ffdff06f          	j	1030 <trap_entry+0x5c>
    1038:	7807275b          	bfoz	a4,a4,30,0
    103c:	0677545b          	beqc	a4,7,10a4 <trap_entry+0xd0>
    1040:	bc37645b          	bnec	a4,3,1008 <trap_entry+0x34>
    1044:	e6600737          	lui	a4,0xe6600
    1048:	4358                	c.lw	a4,4(a4)
    104a:	03c78703          	lb	a4,60(a5)
    104e:	0ff77713          	andi	a4,a4,255
    1052:	c319                	c.beqz	a4,1058 <trap_entry+0x84>
    1054:	30046773          	csrrsi	a4,mstatus,8
    1058:	03c78703          	lb	a4,60(a5)
    105c:	0ff77713          	andi	a4,a4,255
    1060:	00070463          	beqz	a4,1068 <trap_entry+0x94>
    1064:	30047773          	csrrci	a4,mstatus,8
    1068:	e6600737          	lui	a4,0xe6600
    106c:	4505                	c.li	a0,1
    106e:	c348                	c.sw	a0,4(a4)
    1070:	03c78783          	lb	a5,60(a5)
    1074:	0ff7f793          	andi	a5,a5,255
    1078:	00078863          	beqz	a5,1088 <trap_entry+0xb4>
    107c:	30059073          	csrw	mstatus,a1
    1080:	34161073          	csrw	mepc,a2
    1084:	7c469073          	csrw	mxstatus,a3
    1088:	4572                	c.lwsp	a0,28(sp)
    108a:	45e2                	c.lwsp	a1,24(sp)
    108c:	4652                	c.lwsp	a2,20(sp)
    108e:	46c2                	c.lwsp	a3,16(sp)
    1090:	4732                	c.lwsp	a4,12(sp)
    1092:	47a2                	c.lwsp	a5,8(sp)
    1094:	02010113          	addi	sp,sp,32
    1098:	30200073          	mret
    109c:	4681                	c.li	a3,0
    109e:	4581                	c.li	a1,0
    10a0:	4601                	c.li	a2,0
    10a2:	b78d                	c.j	1004 <trap_entry+0x30>
    10a4:	03c78703          	lb	a4,60(a5)
    10a8:	0ff77713          	andi	a4,a4,255
    10ac:	00070863          	beqz	a4,10bc <trap_entry+0xe8>
    10b0:	08000713          	li	a4,128
    10b4:	30473773          	csrrc	a4,mie,a4
    10b8:	30046773          	csrrsi	a4,mstatus,8
    10bc:	03c78703          	lb	a4,60(a5)
    10c0:	0ff77713          	andi	a4,a4,255
    10c4:	d755                	c.beqz	a4,1070 <trap_entry+0x9c>
    10c6:	30047773          	csrrci	a4,mstatus,8
    10ca:	08000713          	li	a4,128
    10ce:	30472773          	csrrs	a4,mie,a4
    10d2:	bf79                	c.j	1070 <trap_entry+0x9c>
    10d4:	0001                	c.nop
	...

00001100 <__vectors>:
    1100:	0fd4                	c.addi4spn	a3,sp,980
    1102:	0000                	unimp
    1104:	1d6c                	c.addi4spn	a1,sp,700
    1106:	0000                	unimp
    1108:	1d6c                	c.addi4spn	a1,sp,700
    110a:	0000                	unimp
    110c:	1d6c                	c.addi4spn	a1,sp,700
    110e:	0000                	unimp
    1110:	1d6c                	c.addi4spn	a1,sp,700
    1112:	0000                	unimp
    1114:	1d6c                	c.addi4spn	a1,sp,700
    1116:	0000                	unimp
    1118:	1d6c                	c.addi4spn	a1,sp,700
    111a:	0000                	unimp
    111c:	1d6c                	c.addi4spn	a1,sp,700
    111e:	0000                	unimp
    1120:	1d6c                	c.addi4spn	a1,sp,700
    1122:	0000                	unimp
    1124:	1d6c                	c.addi4spn	a1,sp,700
    1126:	0000                	unimp
    1128:	1d6c                	c.addi4spn	a1,sp,700
    112a:	0000                	unimp
    112c:	1d6c                	c.addi4spn	a1,sp,700
    112e:	0000                	unimp
    1130:	1d6c                	c.addi4spn	a1,sp,700
    1132:	0000                	unimp
    1134:	1d6c                	c.addi4spn	a1,sp,700
    1136:	0000                	unimp
    1138:	1d6c                	c.addi4spn	a1,sp,700
    113a:	0000                	unimp
    113c:	1d6c                	c.addi4spn	a1,sp,700
    113e:	0000                	unimp
    1140:	1d6c                	c.addi4spn	a1,sp,700
    1142:	0000                	unimp
    1144:	1d6c                	c.addi4spn	a1,sp,700
    1146:	0000                	unimp
    1148:	1d6c                	c.addi4spn	a1,sp,700
    114a:	0000                	unimp
    114c:	1d6c                	c.addi4spn	a1,sp,700
    114e:	0000                	unimp
    1150:	1d6c                	c.addi4spn	a1,sp,700
    1152:	0000                	unimp
    1154:	1d6c                	c.addi4spn	a1,sp,700
    1156:	0000                	unimp
    1158:	1d6c                	c.addi4spn	a1,sp,700
    115a:	0000                	unimp
    115c:	1d6c                	c.addi4spn	a1,sp,700
    115e:	0000                	unimp
    1160:	1d6c                	c.addi4spn	a1,sp,700
    1162:	0000                	unimp
    1164:	1d6c                	c.addi4spn	a1,sp,700
    1166:	0000                	unimp
    1168:	1d6c                	c.addi4spn	a1,sp,700
    116a:	0000                	unimp
    116c:	1d6c                	c.addi4spn	a1,sp,700
    116e:	0000                	unimp
    1170:	1d6c                	c.addi4spn	a1,sp,700
    1172:	0000                	unimp
    1174:	1d6c                	c.addi4spn	a1,sp,700
    1176:	0000                	unimp
    1178:	1d6c                	c.addi4spn	a1,sp,700
    117a:	0000                	unimp
    117c:	1d6c                	c.addi4spn	a1,sp,700
    117e:	0000                	unimp
    1180:	1d6c                	c.addi4spn	a1,sp,700
    1182:	0000                	unimp
    1184:	1d6c                	c.addi4spn	a1,sp,700
    1186:	0000                	unimp
    1188:	1d6c                	c.addi4spn	a1,sp,700
    118a:	0000                	unimp
    118c:	1d6c                	c.addi4spn	a1,sp,700
    118e:	0000                	unimp
    1190:	1d6c                	c.addi4spn	a1,sp,700
    1192:	0000                	unimp
    1194:	1d6c                	c.addi4spn	a1,sp,700
    1196:	0000                	unimp
    1198:	1d6c                	c.addi4spn	a1,sp,700
    119a:	0000                	unimp
    119c:	1d6c                	c.addi4spn	a1,sp,700
    119e:	0000                	unimp
    11a0:	1d6c                	c.addi4spn	a1,sp,700
    11a2:	0000                	unimp
    11a4:	1d6c                	c.addi4spn	a1,sp,700
    11a6:	0000                	unimp
    11a8:	1d6c                	c.addi4spn	a1,sp,700
    11aa:	0000                	unimp
    11ac:	1d6c                	c.addi4spn	a1,sp,700
    11ae:	0000                	unimp
    11b0:	1d6c                	c.addi4spn	a1,sp,700
    11b2:	0000                	unimp
    11b4:	1d6c                	c.addi4spn	a1,sp,700
    11b6:	0000                	unimp
    11b8:	1d6c                	c.addi4spn	a1,sp,700
    11ba:	0000                	unimp
    11bc:	1d6c                	c.addi4spn	a1,sp,700
    11be:	0000                	unimp
    11c0:	1d6c                	c.addi4spn	a1,sp,700
    11c2:	0000                	unimp
    11c4:	1d6c                	c.addi4spn	a1,sp,700
    11c6:	0000                	unimp
    11c8:	1d6c                	c.addi4spn	a1,sp,700
    11ca:	0000                	unimp
    11cc:	1d6c                	c.addi4spn	a1,sp,700
    11ce:	0000                	unimp
    11d0:	1d6c                	c.addi4spn	a1,sp,700
    11d2:	0000                	unimp
    11d4:	1d6c                	c.addi4spn	a1,sp,700
    11d6:	0000                	unimp
    11d8:	1d6c                	c.addi4spn	a1,sp,700
    11da:	0000                	unimp
    11dc:	1d6c                	c.addi4spn	a1,sp,700
    11de:	0000                	unimp
    11e0:	1d6c                	c.addi4spn	a1,sp,700
    11e2:	0000                	unimp
    11e4:	1d6c                	c.addi4spn	a1,sp,700
    11e6:	0000                	unimp
    11e8:	1d6c                	c.addi4spn	a1,sp,700
    11ea:	0000                	unimp
    11ec:	1d6c                	c.addi4spn	a1,sp,700
    11ee:	0000                	unimp
    11f0:	1d6c                	c.addi4spn	a1,sp,700
    11f2:	0000                	unimp
    11f4:	1d6c                	c.addi4spn	a1,sp,700
    11f6:	0000                	unimp
    11f8:	1d6c                	c.addi4spn	a1,sp,700
    11fa:	0000                	unimp
    11fc:	1d6c                	c.addi4spn	a1,sp,700
    11fe:	0000                	unimp
    1200:	0001                	c.nop
	...

00001204 <flash_read_uid.constprop.6>:
    1204:	1141                	c.addi	sp,-16
    1206:	c606                	c.swsp	ra,12(sp)
    1208:	872a                	c.mv	a4,a0
    120a:	7d047073          	csrci	mmisc_ctl,8
    120e:	47c1                	c.li	a5,16
    1210:	4691                	c.li	a3,4
    1212:	4601                	c.li	a2,0
    1214:	00000593          	li	a1,0
    1218:	04b00513          	li	a0,75
    121c:	aa8ff0ef          	jal	ra,4c4 <flash_mspi_read_ram>
    1220:	7d046073          	csrsi	mmisc_ctl,8
    1224:	40b2                	c.lwsp	ra,12(sp)
    1226:	0141                	c.addi	sp,16
    1228:	00008067          	ret

0000122c <flash_read_mid>:
    122c:	1101                	c.addi	sp,-32
    122e:	ce06                	c.swsp	ra,28(sp)
    1230:	c602                	c.swsp	zero,12(sp)
    1232:	7d047073          	csrci	mmisc_ctl,8
    1236:	478d                	c.li	a5,3
    1238:	0078                	c.addi4spn	a4,sp,12
    123a:	4681                	c.li	a3,0
    123c:	4601                	c.li	a2,0
    123e:	4581                	c.li	a1,0
    1240:	09f00513          	li	a0,159
    1244:	a80ff0ef          	jal	ra,4c4 <flash_mspi_read_ram>
    1248:	7d046073          	csrsi	mmisc_ctl,8
    124c:	40f2                	c.lwsp	ra,28(sp)
    124e:	4532                	c.lwsp	a0,12(sp)
    1250:	6105                	c.addi16sp	sp,32
    1252:	8082                	c.jr	ra

00001254 <flash_read_mid_uid_with_check>:
    1254:	839f978b          	addigp	a5,-1992 # 80038 <cst_libm_sincosf+0x38>
    1258:	4798                	c.lw	a4,8(a5)
    125a:	4390                	c.lw	a2,0(a5)
    125c:	43d4                	c.lw	a3,4(a5)
    125e:	47dc                	c.lw	a5,12(a5)
    1260:	1101                	c.addi	sp,-32
    1262:	cc22                	c.swsp	s0,24(sp)
    1264:	ca26                	c.swsp	s1,20(sp)
    1266:	842a                	c.mv	s0,a0
    1268:	c43a                	c.swsp	a4,8(sp)
    126a:	c63e                	c.swsp	a5,12(sp)
    126c:	ce06                	c.swsp	ra,28(sp)
    126e:	84ae                	c.mv	s1,a1
    1270:	c032                	c.swsp	a2,0(sp)
    1272:	c236                	c.swsp	a3,4(sp)
    1274:	fb9ff0ef          	jal	ra,122c <flash_read_mid>
    1278:	77c1                	c.lui	a5,0xffff0
    127a:	17fd                	c.addi	a5,-1
    127c:	00146737          	lui	a4,0x146
    1280:	c008                	c.sw	a0,0(s0)
    1282:	8fe9                	c.and	a5,a0
    1284:	08570713          	addi	a4,a4,133 # 146085 <FLASH_SIZE+0x46085>
    1288:	02e78063          	beq	a5,a4,12a8 <flash_read_mid_uid_with_check+0x54>
    128c:	00166737          	lui	a4,0x166
    1290:	08570713          	addi	a4,a4,133 # 166085 <FLASH_SIZE+0x66085>
    1294:	4781                	c.li	a5,0
    1296:	00e50963          	beq	a0,a4,12a8 <flash_read_mid_uid_with_check+0x54>
    129a:	40f2                	c.lwsp	ra,28(sp)
    129c:	4462                	c.lwsp	s0,24(sp)
    129e:	44d2                	c.lwsp	s1,20(sp)
    12a0:	853e                	c.mv	a0,a5
    12a2:	6105                	c.addi16sp	sp,32
    12a4:	00008067          	ret
    12a8:	8526                	c.mv	a0,s1
    12aa:	3fa9                	c.jal	1204 <flash_read_uid.constprop.6>
    12ac:	0004c783          	lbu	a5,0(s1)
    12b0:	00014603          	lbu	a2,0(sp)
    12b4:	0014c683          	lbu	a3,1(s1)
    12b8:	00114703          	lbu	a4,1(sp)
    12bc:	8f91                	c.sub	a5,a2
    12be:	0017b793          	seqz	a5,a5
    12c2:	00e69363          	bne	a3,a4,12c8 <flash_read_mid_uid_with_check+0x74>
    12c6:	0785                	c.addi	a5,1
    12c8:	0024c683          	lbu	a3,2(s1)
    12cc:	00214703          	lbu	a4,2(sp)
    12d0:	00e69463          	bne	a3,a4,12d8 <flash_read_mid_uid_with_check+0x84>
    12d4:	00178793          	addi	a5,a5,1 # ffff0001 <_DATA_LMA_START+0xdffeba51>
    12d8:	0034c683          	lbu	a3,3(s1)
    12dc:	00314703          	lbu	a4,3(sp)
    12e0:	00e69463          	bne	a3,a4,12e8 <flash_read_mid_uid_with_check+0x94>
    12e4:	00178793          	addi	a5,a5,1
    12e8:	0044c683          	lbu	a3,4(s1)
    12ec:	00414703          	lbu	a4,4(sp)
    12f0:	00e69463          	bne	a3,a4,12f8 <flash_read_mid_uid_with_check+0xa4>
    12f4:	00178793          	addi	a5,a5,1
    12f8:	0054c683          	lbu	a3,5(s1)
    12fc:	00514703          	lbu	a4,5(sp)
    1300:	00e69463          	bne	a3,a4,1308 <flash_read_mid_uid_with_check+0xb4>
    1304:	00178793          	addi	a5,a5,1
    1308:	0064c683          	lbu	a3,6(s1)
    130c:	00614703          	lbu	a4,6(sp)
    1310:	00e69463          	bne	a3,a4,1318 <flash_read_mid_uid_with_check+0xc4>
    1314:	00178793          	addi	a5,a5,1
    1318:	0074c683          	lbu	a3,7(s1)
    131c:	00714703          	lbu	a4,7(sp)
    1320:	00e69463          	bne	a3,a4,1328 <flash_read_mid_uid_with_check+0xd4>
    1324:	00178793          	addi	a5,a5,1
    1328:	0084c683          	lbu	a3,8(s1)
    132c:	00814703          	lbu	a4,8(sp)
    1330:	00e69463          	bne	a3,a4,1338 <flash_read_mid_uid_with_check+0xe4>
    1334:	00178793          	addi	a5,a5,1
    1338:	0094c683          	lbu	a3,9(s1)
    133c:	00914703          	lbu	a4,9(sp)
    1340:	00e69463          	bne	a3,a4,1348 <flash_read_mid_uid_with_check+0xf4>
    1344:	00178793          	addi	a5,a5,1
    1348:	00a4c683          	lbu	a3,10(s1)
    134c:	00a14703          	lbu	a4,10(sp)
    1350:	00e69463          	bne	a3,a4,1358 <flash_read_mid_uid_with_check+0x104>
    1354:	00178793          	addi	a5,a5,1
    1358:	00b4c683          	lbu	a3,11(s1)
    135c:	00b14703          	lbu	a4,11(sp)
    1360:	00e69463          	bne	a3,a4,1368 <flash_read_mid_uid_with_check+0x114>
    1364:	00178793          	addi	a5,a5,1
    1368:	00c4c683          	lbu	a3,12(s1)
    136c:	00c14703          	lbu	a4,12(sp)
    1370:	00e69463          	bne	a3,a4,1378 <flash_read_mid_uid_with_check+0x124>
    1374:	00178793          	addi	a5,a5,1
    1378:	00d4c683          	lbu	a3,13(s1)
    137c:	00d14703          	lbu	a4,13(sp)
    1380:	00e69463          	bne	a3,a4,1388 <flash_read_mid_uid_with_check+0x134>
    1384:	00178793          	addi	a5,a5,1
    1388:	00e4c683          	lbu	a3,14(s1)
    138c:	00e14703          	lbu	a4,14(sp)
    1390:	00e69463          	bne	a3,a4,1398 <flash_read_mid_uid_with_check+0x144>
    1394:	00178793          	addi	a5,a5,1
    1398:	00f14683          	lbu	a3,15(sp)
    139c:	00f4c703          	lbu	a4,15(s1)
    13a0:	00e69463          	bne	a3,a4,13a8 <flash_read_mid_uid_with_check+0x154>
    13a4:	00178793          	addi	a5,a5,1
    13a8:	40f2                	c.lwsp	ra,28(sp)
    13aa:	4462                	c.lwsp	s0,24(sp)
    13ac:	17c1                	c.addi	a5,-16
    13ae:	00f037b3          	snez	a5,a5
    13b2:	44d2                	c.lwsp	s1,20(sp)
    13b4:	853e                	c.mv	a0,a5
    13b6:	6105                	c.addi16sp	sp,32
    13b8:	00008067          	ret

000013bc <flash_dread>:
    13bc:	1141                	c.addi	sp,-16
    13be:	c606                	c.swsp	ra,12(sp)
    13c0:	87b2                	c.mv	a5,a2
    13c2:	7d047073          	csrci	mmisc_ctl,8
    13c6:	862e                	c.mv	a2,a1
    13c8:	00f005b3          	add	a1,zero,a5
    13cc:	a78ff0ef          	jal	ra,644 <flash_mspi_read_ram.constprop.7>
    13d0:	7d046073          	csrsi	mmisc_ctl,8
    13d4:	40b2                	c.lwsp	ra,12(sp)
    13d6:	0141                	c.addi	sp,16
    13d8:	00008067          	ret

000013dc <clock_init.constprop.10>:
    13dc:	1141                	c.addi	sp,-16
    13de:	c606                	c.swsp	ra,12(sp)
    13e0:	7d047073          	csrci	mmisc_ctl,8
    13e4:	c3cff0ef          	jal	ra,820 <clock_init_ram.constprop.11>
    13e8:	7d046073          	csrsi	mmisc_ctl,8
    13ec:	40b2                	c.lwsp	ra,12(sp)
    13ee:	0141                	c.addi	sp,16
    13f0:	00008067          	ret

000013f4 <pm_sleep_wakeup.constprop.2>:
    13f4:	1141                	c.addi	sp,-16
    13f6:	c606                	c.swsp	ra,12(sp)
    13f8:	7d047073          	csrci	mmisc_ctl,8
    13fc:	8cdff0ef          	jal	ra,cc8 <pm_sleep_wakeup_ram.constprop.3>
    1400:	7d046073          	csrsi	mmisc_ctl,8
    1404:	40b2                	c.lwsp	ra,12(sp)
    1406:	0141                	c.addi	sp,16
    1408:	8082                	c.jr	ra
    140a:	0001                	c.nop

0000140c <user_calib_adc_vref.constprop.9>:
    140c:	1101                	c.addi	sp,-32
    140e:	ce06                	c.swsp	ra,28(sp)
    1410:	c402                	c.swsp	zero,8(sp)
    1412:	00011623          	sh	zero,12(sp)
    1416:	00010723          	sb	zero,14(sp)
    141a:	c54d                	c.beqz	a0,14c4 <user_calib_adc_vref.constprop.9+0xb8>
    141c:	000007b7          	lui	a5,0x0
    1420:	1587a783          	lw	a5,344(a5) # 158 <_AES_VMA_END>
    1424:	0030                	c.addi4spn	a2,sp,8
    1426:	459d                	c.li	a1,7
    1428:	9782                	c.jalr	a5
    142a:	00c14783          	lbu	a5,12(sp)
    142e:	1c07b75b          	bfos	a4,a5,7,0
    1432:	04074163          	bltz	a4,1474 <user_calib_adc_vref.constprop.9+0x68>
    1436:	00e14703          	lbu	a4,14(sp)
    143a:	00d14603          	lbu	a2,13(sp)
    143e:	0722                	c.slli	a4,0x8
    1440:	66c1                	c.lui	a3,0x10
    1442:	00c705b3          	add	a1,a4,a2
    1446:	16fd                	c.addi	a3,-1
    1448:	02d58663          	beq	a1,a3,1474 <user_calib_adc_vref.constprop.9+0x68>
    144c:	fd060613          	addi	a2,a2,-48
    1450:	9732                	c.add	a4,a2
    1452:	3c07275b          	bfoz	a4,a4,15,0
    1456:	0fb00693          	li	a3,251
    145a:	08e6e563          	bltu	a3,a4,14e4 <user_calib_adc_vref.constprop.9+0xd8>
    145e:	17b1                	c.addi	a5,-20
    1460:	1c07b7db          	bfos	a5,a5,7,0
    1464:	5731                	c.li	a4,-20
    1466:	06e78f63          	beq	a5,a4,14e4 <user_calib_adc_vref.constprop.9+0xd8>
    146a:	f9578513          	addi	a0,a5,-107
    146e:	00a03533          	snez	a0,a0
    1472:	a89d                	c.j	14e8 <user_calib_adc_vref.constprop.9+0xdc>
    1474:	801407b7          	lui	a5,0x80140
    1478:	06500713          	li	a4,101
    147c:	1ee78a23          	sb	a4,500(a5) # 801401f4 <_DATA_LMA_START+0x6013bc44>
    1480:	1c87a703          	lw	a4,456(a5)
    1484:	1e078a23          	sb	zero,500(a5)
    1488:	4c47275b          	bfoz	a4,a4,19,4
    148c:	380727db          	bfoz	a5,a4,14,0
    1490:	06078063          	beqz	a5,14f0 <user_calib_adc_vref.constprop.9+0xe4>
    1494:	1ff77713          	andi	a4,a4,511
    1498:	f9b70713          	addi	a4,a4,-101
    149c:	3c07275b          	bfoz	a4,a4,15,0
    14a0:	0c600693          	li	a3,198
    14a4:	04e6e063          	bltu	a3,a4,14e4 <user_calib_adc_vref.constprop.9+0xd8>
    14a8:	0097d513          	srli	a0,a5,0x9
    14ac:	1531                	c.addi	a0,-20
    14ae:	1c05355b          	bfos	a0,a0,7,0
    14b2:	57b1                	c.li	a5,-20
    14b4:	02f50863          	beq	a0,a5,14e4 <user_calib_adc_vref.constprop.9+0xd8>
    14b8:	fd550513          	addi	a0,a0,-43 # 3fffffd5 <_DATA_LMA_START+0x1fffba25>
    14bc:	00a03533          	snez	a0,a0
    14c0:	0280006f          	j	14e8 <user_calib_adc_vref.constprop.9+0xdc>
    14c4:	801407b7          	lui	a5,0x80140
    14c8:	06500713          	li	a4,101
    14cc:	1ee78a23          	sb	a4,500(a5) # 801401f4 <_DATA_LMA_START+0x6013bc44>
    14d0:	1c87a703          	lw	a4,456(a5)
    14d4:	1e078a23          	sb	zero,500(a5)
    14d8:	4c47275b          	bfoz	a4,a4,19,4
    14dc:	380727db          	bfoz	a5,a4,14,0
    14e0:	fa079ae3          	bnez	a5,1494 <user_calib_adc_vref.constprop.9+0x88>
    14e4:	00000513          	li	a0,0
    14e8:	40f2                	c.lwsp	ra,28(sp)
    14ea:	6105                	c.addi16sp	sp,32
    14ec:	00008067          	ret
    14f0:	00814503          	lbu	a0,8(sp)
    14f4:	00914783          	lbu	a5,9(sp)
    14f8:	953e                	c.add	a0,a5
    14fa:	f8050513          	addi	a0,a0,-128
    14fe:	3c05255b          	bfoz	a0,a0,15,0
    1502:	0fc53513          	sltiu	a0,a0,252
    1506:	b7cd                	c.j	14e8 <user_calib_adc_vref.constprop.9+0xdc>

00001508 <user_calib_freq_offset.constprop.8>:
    1508:	000007b7          	lui	a5,0x0
    150c:	1101                	c.addi	sp,-32
    150e:	1587a783          	lw	a5,344(a5) # 158 <_AES_VMA_END>
    1512:	577d                	c.li	a4,-1
    1514:	00f10613          	addi	a2,sp,15
    1518:	4585                	c.li	a1,1
    151a:	cc22                	c.swsp	s0,24(sp)
    151c:	ce06                	c.swsp	ra,28(sp)
    151e:	00e107a3          	sb	a4,15(sp)
    1522:	9782                	c.jalr	a5
    1524:	00f14403          	lbu	s0,15(sp)
    1528:	0ff00793          	li	a5,255
    152c:	00000513          	li	a0,0
    1530:	02f40263          	beq	s0,a5,1554 <user_calib_freq_offset.constprop.8+0x4c>
    1534:	08a00513          	li	a0,138
    1538:	a9cff0ef          	jal	ra,7d4 <analog_read_reg8>
    153c:	03f47413          	andi	s0,s0,63
    1540:	04057593          	andi	a1,a0,64
    1544:	0085e5b3          	or	a1,a1,s0
    1548:	08a00513          	li	a0,138
    154c:	a44ff0ef          	jal	ra,790 <analog_write_reg8>
    1550:	00100513          	li	a0,1
    1554:	40f2                	c.lwsp	ra,28(sp)
    1556:	4462                	c.lwsp	s0,24(sp)
    1558:	6105                	c.addi16sp	sp,32
    155a:	8082                	c.jr	ra
    155c:	0001                	c.nop
	...

00001560 <gpio_input_dis>:
    1560:	801407b7          	lui	a5,0x80140
    1564:	30978703          	lb	a4,777(a5) # 80140309 <_DATA_LMA_START+0x6013bd59>
    1568:	fff54513          	not	a0,a0
    156c:	8d79                	c.and	a0,a4
    156e:	0ff57513          	andi	a0,a0,255
    1572:	30a784a3          	sb	a0,777(a5)
    1576:	8082                	c.jr	ra
    1578:	0001                	c.nop
	...

0000157c <_write>:
    157c:	1141                	c.addi	sp,-16
    157e:	c606                	c.swsp	ra,12(sp)
    1580:	c422                	c.swsp	s0,8(sp)
    1582:	c226                	c.swsp	s1,4(sp)
    1584:	c04a                	c.swsp	s2,0(sp)
    1586:	02c05763          	blez	a2,15b4 <_write+0x38>
    158a:	8932                	c.mv	s2,a2
    158c:	00b00433          	add	s0,zero,a1
    1590:	00c584b3          	add	s1,a1,a2
    1594:	00044503          	lbu	a0,0(s0)
    1598:	00140413          	addi	s0,s0,1
    159c:	e0cff0ef          	jal	ra,ba8 <dr_putchar>
    15a0:	fe941ae3          	bne	s0,s1,1594 <_write+0x18>
    15a4:	40b2                	c.lwsp	ra,12(sp)
    15a6:	4422                	c.lwsp	s0,8(sp)
    15a8:	854a                	c.mv	a0,s2
    15aa:	4492                	c.lwsp	s1,4(sp)
    15ac:	4902                	c.lwsp	s2,0(sp)
    15ae:	0141                	c.addi	sp,16
    15b0:	00008067          	ret
    15b4:	40b2                	c.lwsp	ra,12(sp)
    15b6:	4422                	c.lwsp	s0,8(sp)
    15b8:	4901                	c.li	s2,0
    15ba:	854a                	c.mv	a0,s2
    15bc:	4492                	c.lwsp	s1,4(sp)
    15be:	4902                	c.lwsp	s2,0(sp)
    15c0:	0141                	c.addi	sp,16
    15c2:	8082                	c.jr	ra

000015c4 <main>:
    15c4:	7109                	c.addi16sp	sp,-384
    15c6:	ffbc07b7          	lui	a5,0xffbc0
    15ca:	16112e23          	sw	ra,380(sp)
    15ce:	737d                	c.lui	t1,0xfffff
    15d0:	17fd                	c.addi	a5,-1
    15d2:	80140737          	lui	a4,0x80140
    15d6:	16812c23          	sw	s0,376(sp)
    15da:	16912a23          	sw	s1,372(sp)
    15de:	17212823          	sw	s2,368(sp)
    15e2:	17312623          	sw	s3,364(sp)
    15e6:	17412423          	sw	s4,360(sp)
    15ea:	17512223          	sw	s5,356(sp)
    15ee:	17612023          	sw	s6,352(sp)
    15f2:	15712e23          	sw	s7,348(sp)
    15f6:	15812c23          	sw	s8,344(sp)
    15fa:	15912a23          	sw	s9,340(sp)
    15fe:	14812627          	fsw	fs0,332(sp)
    1602:	1ef72023          	sw	a5,480(a4) # 801401e0 <_DATA_LMA_START+0x6013bc30>
    1606:	911a                	c.add	sp,t1
    1608:	00200593          	li	a1,2
    160c:	08c00513          	li	a0,140
    1610:	1ef72223          	sw	a5,484(a4)
    1614:	97cff0ef          	jal	ra,790 <analog_write_reg8>
    1618:	4581                	c.li	a1,0
    161a:	4529                	c.li	a0,10
    161c:	974ff0ef          	jal	ra,790 <analog_write_reg8>
    1620:	03b00593          	li	a1,59
    1624:	00b00513          	li	a0,11
    1628:	968ff0ef          	jal	ra,790 <analog_write_reg8>
    162c:	00500513          	li	a0,5
    1630:	9a4ff0ef          	jal	ra,7d4 <analog_read_reg8>
    1634:	0f757593          	andi	a1,a0,247
    1638:	00500513          	li	a0,5
    163c:	954ff0ef          	jal	ra,790 <analog_write_reg8>
    1640:	00600513          	li	a0,6
    1644:	990ff0ef          	jal	ra,7d4 <analog_read_reg8>
    1648:	03e57593          	andi	a1,a0,62
    164c:	00600513          	li	a0,6
    1650:	940ff0ef          	jal	ra,790 <analog_write_reg8>
    1654:	04500593          	li	a1,69
    1658:	00100513          	li	a0,1
    165c:	934ff0ef          	jal	ra,790 <analog_write_reg8>
    1660:	04c00593          	li	a1,76
    1664:	01c00513          	li	a0,28
    1668:	928ff0ef          	jal	ra,790 <analog_write_reg8>
    166c:	801007b7          	lui	a5,0x80100
    1670:	44478703          	lb	a4,1092(a5) # 80100444 <_DATA_LMA_START+0x600fbe94>
    1674:	801016b7          	lui	a3,0x80101
    1678:	0ff77713          	andi	a4,a4,255
    167c:	00e76713          	ori	a4,a4,14
    1680:	44e78223          	sb	a4,1092(a5)
    1684:	45878703          	lb	a4,1112(a5)
    1688:	03800513          	li	a0,56
    168c:	0ff77713          	andi	a4,a4,255
    1690:	00e76713          	ori	a4,a4,14
    1694:	44e78c23          	sb	a4,1112(a5)
    1698:	46c78703          	lb	a4,1132(a5)
    169c:	0ff77713          	andi	a4,a4,255
    16a0:	00e76713          	ori	a4,a4,14
    16a4:	46e78623          	sb	a4,1132(a5)
    16a8:	48078703          	lb	a4,1152(a5)
    16ac:	0ff77713          	andi	a4,a4,255
    16b0:	00e76713          	ori	a4,a4,14
    16b4:	48e78023          	sb	a4,1152(a5)
    16b8:	49478703          	lb	a4,1172(a5)
    16bc:	0ff77713          	andi	a4,a4,255
    16c0:	00e76713          	ori	a4,a4,14
    16c4:	48e78a23          	sb	a4,1172(a5)
    16c8:	4a878703          	lb	a4,1192(a5)
    16cc:	0ff77713          	andi	a4,a4,255
    16d0:	00e76713          	ori	a4,a4,14
    16d4:	4ae78423          	sb	a4,1192(a5)
    16d8:	4bc78703          	lb	a4,1212(a5)
    16dc:	0ff77713          	andi	a4,a4,255
    16e0:	00e76713          	ori	a4,a4,14
    16e4:	4ae78e23          	sb	a4,1212(a5)
    16e8:	4d078703          	lb	a4,1232(a5)
    16ec:	0ff77713          	andi	a4,a4,255
    16f0:	00e76713          	ori	a4,a4,14
    16f4:	4ce78823          	sb	a4,1232(a5)
    16f8:	83a68783          	lb	a5,-1990(a3) # 8010083a <_DATA_LMA_START+0x600fc28a>
    16fc:	82068d23          	sb	zero,-1990(a3)
    1700:	8d4ff0ef          	jal	ra,7d4 <analog_read_reg8>
    1704:	00a00433          	add	s0,zero,a0
    1708:	03900513          	li	a0,57
    170c:	8c8ff0ef          	jal	ra,7d4 <analog_read_reg8>
    1710:	84aa                	c.mv	s1,a0
    1712:	4004745b          	bbs	s0,0,171a <main+0x156>
    1716:	56e0006f          	j	1c84 <main+0x6c0>
    171a:	0fe47593          	andi	a1,s0,254
    171e:	d99f940b          	addigp	s0,-616 # 80598 <g_pm_status_info>
    1722:	03800513          	li	a0,56
    1726:	4004f45b          	bbs	s1,0,172e <main+0x16a>
    172a:	53a0006f          	j	1c64 <main+0x6a0>
    172e:	4791                	c.li	a5,4
    1730:	00f40123          	sb	a5,2(s0)
    1734:	85cff0ef          	jal	ra,790 <analog_write_reg8>
    1738:	00100593          	li	a1,1
    173c:	07f00513          	li	a0,127
    1740:	850ff0ef          	jal	ra,790 <analog_write_reg8>
    1744:	06400513          	li	a0,100
    1748:	88cff0ef          	jal	ra,7d4 <analog_read_reg8>
    174c:	0c3527db          	bfoz	a5,a0,3,3
    1750:	00a400a3          	sb	a0,1(s0)
    1754:	00f40023          	sb	a5,0(s0)
    1758:	08800513          	li	a0,136
    175c:	878ff0ef          	jal	ra,7d4 <analog_read_reg8>
    1760:	be757c5b          	bbc	a0,7,1758 <main+0x194>
    1764:	9fcff0ef          	jal	ra,960 <pm_wait_bbpll_done>
    1768:	00244783          	lbu	a5,2(s0)
    176c:	0a87dc5b          	beqc	a5,8,1824 <main+0x260>
    1770:	80140737          	lui	a4,0x80140
    1774:	20a70783          	lb	a5,522(a4) # 8014020a <_DATA_LMA_START+0x6013bc5a>
    1778:	0ff7f793          	andi	a5,a5,255
    177c:	00c7e793          	ori	a5,a5,12
    1780:	20f70523          	sb	a5,522(a4)
    1784:	00100793          	li	a5,1
    1788:	20f72023          	sw	a5,512(a4)
    178c:	801404b7          	lui	s1,0x80140
    1790:	1fd48783          	lb	a5,509(s1) # 801401fd <_DATA_LMA_START+0x6013bc4d>
    1794:	0ff7f793          	andi	a5,a5,255
    1798:	d8ffcbab          	swgp	a5,-620 # 80594 <g_chip_version>
    179c:	00244703          	lbu	a4,2(s0)
    17a0:	04475c5b          	beqc	a4,4,17f8 <main+0x234>
    17a4:	0ff00693          	li	a3,255
    17a8:	04d78063          	beq	a5,a3,17e8 <main+0x224>
    17ac:	08000593          	li	a1,128
    17b0:	07d00513          	li	a0,125
    17b4:	fddfe0ef          	jal	ra,790 <analog_write_reg8>
    17b8:	80140737          	lui	a4,0x80140
    17bc:	06500793          	li	a5,101
    17c0:	1ef70a23          	sb	a5,500(a4) # 801401f4 <_DATA_LMA_START+0x6013bc44>
    17c4:	1c872783          	lw	a5,456(a4)
    17c8:	1e070a23          	sb	zero,500(a4)
    17cc:	8bbd                	c.andi	a5,15
    17ce:	0037d55b          	beqc	a5,3,17d8 <main+0x214>
    17d2:	4725                	c.li	a4,9
    17d4:	04f77c63          	bgeu	a4,a5,182c <main+0x268>
    17d8:	801407b7          	lui	a5,0x80140
    17dc:	02000713          	li	a4,32
    17e0:	1ee787a3          	sb	a4,495(a5) # 801401ef <_DATA_LMA_START+0x6013bc3f>
    17e4:	0000006f          	j	17e4 <main+0x220>
    17e8:	bc17625b          	bnec	a4,1,17ac <main+0x1e8>
    17ec:	07d00513          	li	a0,125
    17f0:	08000593          	li	a1,128
    17f4:	0180006f          	j	180c <main+0x248>
    17f8:	03900513          	li	a0,57
    17fc:	fd9fe0ef          	jal	ra,7d4 <analog_read_reg8>
    1800:	00256593          	ori	a1,a0,2
    1804:	0ff5f593          	andi	a1,a1,255
    1808:	03900513          	li	a0,57
    180c:	f85fe0ef          	jal	ra,790 <analog_write_reg8>
    1810:	2004a503          	lw	a0,512(s1)
    1814:	001877b7          	lui	a5,0x187
    1818:	a0078793          	addi	a5,a5,-1536 # 186a00 <FLASH_SIZE+0x86a00>
    181c:	953e                	c.add	a0,a5
    181e:	3ed9                	c.jal	13f4 <pm_sleep_wakeup.constprop.2>
    1820:	f8dff06f          	j	17ac <main+0x1e8>
    1824:	b59fe0ef          	jal	ra,37c <pm_stimer_recover>
    1828:	f65ff06f          	j	178c <main+0x1c8>
    182c:	00f00513          	li	a0,15
    1830:	fa5fe0ef          	jal	ra,7d4 <analog_read_reg8>
    1834:	03f57593          	andi	a1,a0,63
    1838:	0405e593          	ori	a1,a1,64
    183c:	00f00513          	li	a0,15
    1840:	f51fe0ef          	jal	ra,790 <analog_write_reg8>
    1844:	6485                	c.lui	s1,0x1
    1846:	0810                	c.addi4spn	a2,sp,16
    1848:	747d                	c.lui	s0,0xfffff
    184a:	13048693          	addi	a3,s1,304 # 1130 <__vectors+0x30>
    184e:	96b2                	c.add	a3,a2
    1850:	60040593          	addi	a1,s0,1536 # fffff600 <_DATA_LMA_START+0xdfffb050>
    1854:	95b6                	c.add	a1,a3
    1856:	13048693          	addi	a3,s1,304
    185a:	96b2                	c.add	a3,a2
    185c:	40040513          	addi	a0,s0,1024
    1860:	9536                	c.add	a0,a3
    1862:	3acd                	c.jal	1254 <flash_read_mid_uid_with_check>
    1864:	0ff57513          	andi	a0,a0,255
    1868:	0015545b          	beqc	a0,1,1870 <main+0x2ac>
    186c:	49c0006f          	j	1d08 <main+0x744>
    1870:	13048693          	addi	a3,s1,304
    1874:	080c                	c.addi4spn	a1,sp,16
    1876:	96ae                	c.add	a3,a1
    1878:	96a2                	c.add	a3,s0
    187a:	c636                	c.swsp	a3,12(sp)
    187c:	4026c783          	lbu	a5,1026(a3)
    1880:	474d                	c.li	a4,19
    1882:	0137e45b          	bnec	a5,19,188a <main+0x2c6>
    1886:	46a0006f          	j	1cf0 <main+0x72c>
    188a:	48f77563          	bgeu	a4,a5,1d14 <main+0x750>
    188e:	4755                	c.li	a4,21
    1890:	0157e45b          	bnec	a5,21,1898 <main+0x2d4>
    1894:	4440006f          	j	1cd8 <main+0x714>
    1898:	40e7e463          	bltu	a5,a4,1ca0 <main+0x6dc>
    189c:	0167d45b          	beqc	a5,22,18a4 <main+0x2e0>
    18a0:	4680006f          	j	1d08 <main+0x744>
    18a4:	003fe537          	lui	a0,0x3fe
    18a8:	0c050513          	addi	a0,a0,192 # 3fe0c0 <FLASH_SIZE+0x2fe0c0>
    18ac:	b61ff0ef          	jal	ra,140c <user_calib_adc_vref.constprop.9>
    18b0:	003fe537          	lui	a0,0x3fe
    18b4:	c55ff0ef          	jal	ra,1508 <user_calib_freq_offset.constprop.8>
    18b8:	80140437          	lui	s0,0x80140
    18bc:	b21ff0ef          	jal	ra,13dc <clock_init.constprop.10>
    18c0:	30e40783          	lb	a5,782(s0) # 8014030e <_DATA_LMA_START+0x6013bd5e>
    18c4:	11000513          	li	a0,272
    18c8:	0ff7f793          	andi	a5,a5,255
    18cc:	0107e793          	ori	a5,a5,16
    18d0:	30f40723          	sb	a5,782(s0)
    18d4:	30a40783          	lb	a5,778(s0)
    18d8:	4481                	c.li	s1,0
    18da:	0ef7f793          	andi	a5,a5,239
    18de:	30f40523          	sb	a5,778(s0)
    18e2:	39bd                	c.jal	1560 <gpio_input_dis>
    18e4:	30e40783          	lb	a5,782(s0)
    18e8:	12000513          	li	a0,288
    18ec:	0ff7f793          	andi	a5,a5,255
    18f0:	0207e793          	ori	a5,a5,32
    18f4:	30f40723          	sb	a5,782(s0)
    18f8:	30a40783          	lb	a5,778(s0)
    18fc:	08000913          	li	s2,128
    1900:	0df7f793          	andi	a5,a5,223
    1904:	30f40523          	sb	a5,778(s0)
    1908:	c59ff0ef          	jal	ra,1560 <gpio_input_dis>
    190c:	30e40783          	lb	a5,782(s0)
    1910:	14000513          	li	a0,320
    1914:	0ff7f793          	andi	a5,a5,255
    1918:	0407e793          	ori	a5,a5,64
    191c:	30f40723          	sb	a5,782(s0)
    1920:	30a40783          	lb	a5,778(s0)
    1924:	0bf7f793          	andi	a5,a5,191
    1928:	30f40523          	sb	a5,778(s0)
    192c:	c35ff0ef          	jal	ra,1560 <gpio_input_dis>
    1930:	30e40783          	lb	a5,782(s0)
    1934:	18000513          	li	a0,384
    1938:	f807e793          	ori	a5,a5,-128
    193c:	0ff7f793          	andi	a5,a5,255
    1940:	30f40723          	sb	a5,782(s0)
    1944:	30a40783          	lb	a5,778(s0)
    1948:	07f7f793          	andi	a5,a5,127
    194c:	30f40523          	sb	a5,778(s0)
    1950:	c11ff0ef          	jal	ra,1560 <gpio_input_dis>
    1954:	00080537          	lui	a0,0x80
    1958:	04850513          	addi	a0,a0,72 # 80048 <cst_libm_sincosf+0x48>
    195c:	655010ef          	jal	ra,37b0 <puts>
    1960:	65a9                	c.lui	a1,0xa
    1962:	00080537          	lui	a0,0x80
    1966:	0585                	c.addi	a1,1
    1968:	04c50513          	addi	a0,a0,76 # 8004c <cst_libm_sincosf+0x4c>
    196c:	5ff010ef          	jal	ra,376a <iprintf>
    1970:	00080537          	lui	a0,0x80
    1974:	7e400593          	li	a1,2020
    1978:	06450513          	addi	a0,a0,100 # 80064 <cst_libm_sincosf+0x64>
    197c:	5ef010ef          	jal	ra,376a <iprintf>
    1980:	000805b7          	lui	a1,0x80
    1984:	00080537          	lui	a0,0x80
    1988:	07c58593          	addi	a1,a1,124 # 8007c <cst_libm_sincosf+0x7c>
    198c:	08850513          	addi	a0,a0,136 # 80088 <cst_libm_sincosf+0x88>
    1990:	5db010ef          	jal	ra,376a <iprintf>
    1994:	000807b7          	lui	a5,0x80
    1998:	6685                	c.lui	a3,0x1
    199a:	0307a407          	flw	fs0,48(a5) # 80030 <cst_libm_sincosf+0x30>
    199e:	00080737          	lui	a4,0x80
    19a2:	000807b7          	lui	a5,0x80
    19a6:	13068593          	addi	a1,a3,304 # 1130 <__vectors+0x30>
    19aa:	02070713          	addi	a4,a4,32 # 80020 <cst_libm_sincosf+0x20>
    19ae:	02878793          	addi	a5,a5,40 # 80028 <cst_libm_sincosf+0x28>
    19b2:	747d                	c.lui	s0,0xfffff
    19b4:	0814                	c.addi4spn	a3,sp,16
    19b6:	20040413          	addi	s0,s0,512 # fffff200 <_DATA_LMA_START+0xdfffac50>
    19ba:	95b6                	c.add	a1,a3
    19bc:	00072b03          	lw	s6,0(a4)
    19c0:	00472b83          	lw	s7,4(a4)
    19c4:	0007aa03          	lw	s4,0(a5)
    19c8:	0047aa83          	lw	s5,4(a5)
    19cc:	00b40433          	add	s0,s0,a1
    19d0:	00900533          	add	a0,zero,s1
    19d4:	099010ef          	jal	ra,326c <__floatsidf>
    19d8:	865a                	c.mv	a2,s6
    19da:	86de                	c.mv	a3,s7
    19dc:	244010ef          	jal	ra,2c20 <__muldf3>
    19e0:	8652                	c.mv	a2,s4
    19e2:	86d6                	c.mv	a3,s5
    19e4:	23c010ef          	jal	ra,2c20 <__muldf3>
    19e8:	211010ef          	jal	ra,33f8 <__truncdfsf2>
    19ec:	765000ef          	jal	ra,2950 <sinf>
    19f0:	10857553          	fmul.s	fa0,fa0,fs0
    19f4:	00041123          	sh	zero,2(s0)
    19f8:	0411                	c.addi	s0,4
    19fa:	0485                	c.addi	s1,1
    19fc:	c00517d3          	fcvt.w.s	a5,fa0,rtz
    1a00:	fef41e23          	sh	a5,-4(s0)
    1a04:	fd2496e3          	bne	s1,s2,19d0 <main+0x40c>
    1a08:	6685                	c.lui	a3,0x1
    1a0a:	0810                	c.addi4spn	a2,sp,16
    1a0c:	77fd                	c.lui	a5,0xfffff
    1a0e:	13068593          	addi	a1,a3,304 # 1130 <__vectors+0x30>
    1a12:	ed878493          	addi	s1,a5,-296 # ffffeed8 <_DATA_LMA_START+0xdfffa928>
    1a16:	95b2                	c.add	a1,a2
    1a18:	94ae                	c.add	s1,a1
    1a1a:	13068593          	addi	a1,a3,304
    1a1e:	95b2                	c.add	a1,a2
    1a20:	60078793          	addi	a5,a5,1536
    1a24:	79fd                	c.lui	s3,0xfffff
    1a26:	00f58433          	add	s0,a1,a5
    1a2a:	13068593          	addi	a1,a3,304
    1a2e:	13068693          	addi	a3,a3,304
    1a32:	40098a13          	addi	s4,s3,1024 # fffff400 <_DATA_LMA_START+0xdfffae50>
    1a36:	f0098913          	addi	s2,s3,-256
    1a3a:	95b2                	c.add	a1,a2
    1a3c:	96b2                	c.add	a3,a2
    1a3e:	02848c13          	addi	s8,s1,40
    1a42:	8b22                	c.mv	s6,s0
    1a44:	8aa6                	c.mv	s5,s1
    1a46:	53810b93          	addi	s7,sp,1336
    1a4a:	9a2e                	c.add	s4,a1
    1a4c:	00d90933          	add	s2,s2,a3
    1a50:	0294                	c.addi4spn	a3,sp,320
    1a52:	069c                	c.addi4spn	a5,sp,832
    1a54:	40068713          	addi	a4,a3,1024
    1a58:	438c                	c.lw	a1,0(a5)
    1a5a:	43d0                	c.lw	a2,4(a5)
    1a5c:	4794                	c.lw	a3,8(a5)
    1a5e:	c30c                	c.sw	a1,0(a4)
    1a60:	c350                	c.sw	a2,4(a4)
    1a62:	c714                	c.sw	a3,8(a4)
    1a64:	07b1                	c.addi	a5,12
    1a66:	0731                	c.addi	a4,12
    1a68:	ff7798e3          	bne	a5,s7,1a58 <main+0x494>
    1a6c:	4394                	c.lw	a3,0(a5)
    1a6e:	c314                	c.sw	a3,0(a4)
    1a70:	43dc                	c.lw	a5,4(a5)
    1a72:	c35c                	c.sw	a5,4(a4)
    1a74:	b0005073          	csrwi	mcycle,0
    1a78:	b0002cf3          	csrr	s9,mcycle
    1a7c:	459d                	c.li	a1,7
    1a7e:	8552                	c.mv	a0,s4
    1a80:	2f4000ef          	jal	ra,1d74 <riscv_dsp_cfft_q15>
    1a84:	b00027f3          	csrr	a5,mcycle
    1a88:	419787b3          	sub	a5,a5,s9
    1a8c:	08000613          	li	a2,128
    1a90:	85ca                	c.mv	a1,s2
    1a92:	8552                	c.mv	a0,s4
    1a94:	00faa023          	sw	a5,0(s5)
    1a98:	56d000ef          	jal	ra,2804 <riscv_dsp_cmag_q15>
    1a9c:	855a                	c.mv	a0,s6
    1a9e:	10000613          	li	a2,256
    1aa2:	85ca                	c.mv	a1,s2
    1aa4:	004a8a93          	addi	s5,s5,4
    1aa8:	451010ef          	jal	ra,36f8 <memcpy>
    1aac:	100b0b13          	addi	s6,s6,256
    1ab0:	fb8a90e3          	bne	s5,s8,1a50 <main+0x48c>
    1ab4:	6585                	c.lui	a1,0x1
    1ab6:	13058693          	addi	a3,a1,304 # 1130 <__vectors+0x30>
    1aba:	080c                	c.addi4spn	a1,sp,16
    1abc:	96ae                	c.add	a3,a1
    1abe:	99b6                	c.add	s3,a3
    1ac0:	874e                	c.mv	a4,s3
    1ac2:	4781                	c.li	a5,0
    1ac4:	08000693          	li	a3,128
    1ac8:	d007f7d3          	fcvt.s.w	fa5,a5
    1acc:	0711                	c.addi	a4,4
    1ace:	0785                	c.addi	a5,1
    1ad0:	00f7f7d3          	fadd.s	fa5,fa5,fa5
    1ad4:	fef72e27          	fsw	fa5,-4(a4)
    1ad8:	fed798e3          	bne	a5,a3,1ac8 <main+0x504>
    1adc:	00080537          	lui	a0,0x80
    1ae0:	0b050513          	addi	a0,a0,176 # 800b0 <cst_libm_sincosf+0xb0>
    1ae4:	4901                	c.li	s2,0
    1ae6:	4a01                	c.li	s4,0
    1ae8:	00080b37          	lui	s6,0x80
    1aec:	4c5010ef          	jal	ra,37b0 <puts>
    1af0:	0004aa83          	lw	s5,0(s1)
    1af4:	0905                	c.addi	s2,1
    1af6:	8656                	c.mv	a2,s5
    1af8:	012005b3          	add	a1,zero,s2
    1afc:	0d8b0513          	addi	a0,s6,216 # 800d8 <cst_libm_sincosf+0xd8>
    1b00:	46b010ef          	jal	ra,376a <iprintf>
    1b04:	015a0a33          	add	s4,s4,s5
    1b08:	ef8fe0ef          	jal	ra,200 <delay_ms.constprop.12>
    1b0c:	00448493          	addi	s1,s1,4
    1b10:	bea9605b          	bnec	s2,10,1af0 <main+0x52c>
    1b14:	eecfe0ef          	jal	ra,200 <delay_ms.constprop.12>
    1b18:	032a55b3          	divu	a1,s4,s2
    1b1c:	00080537          	lui	a0,0x80
    1b20:	0f450513          	addi	a0,a0,244 # 800f4 <cst_libm_sincosf+0xf4>
    1b24:	447010ef          	jal	ra,376a <iprintf>
    1b28:	ed8fe0ef          	jal	ra,200 <delay_ms.constprop.12>
    1b2c:	00080537          	lui	a0,0x80
    1b30:	11050513          	addi	a0,a0,272 # 80110 <cst_libm_sincosf+0x110>
    1b34:	47d010ef          	jal	ra,37b0 <puts>
    1b38:	6605                	c.lui	a2,0x1
    1b3a:	13060593          	addi	a1,a2,304 # 1130 <__vectors+0x30>
    1b3e:	0810                	c.addi4spn	a2,sp,16
    1b40:	95b2                	c.add	a1,a2
    1b42:	76fd                	c.lui	a3,0xfffff
    1b44:	96ae                	c.add	a3,a1
    1b46:	70068693          	addi	a3,a3,1792 # fffff700 <_DATA_LMA_START+0xdfffb150>
    1b4a:	4585                	c.li	a1,1
    1b4c:	10040893          	addi	a7,s0,256
    1b50:	00100813          	li	a6,1
    1b54:	8636                	c.mv	a2,a3
    1b56:	8722                	c.mv	a4,s0
    1b58:	00c0006f          	j	1b64 <main+0x5a0>
    1b5c:	00260613          	addi	a2,a2,2
    1b60:	1d170a63          	beq	a4,a7,1d34 <main+0x770>
    1b64:	00071783          	lh	a5,0(a4)
    1b68:	00061503          	lh	a0,0(a2)
    1b6c:	0709                	c.addi	a4,2
    1b6e:	8f89                	c.sub	a5,a0
    1b70:	40f00533          	neg	a0,a5
    1b74:	f2a787ff          	maxw	a5,a5,a0
    1b78:	fef852e3          	bge	a6,a5,1b5c <main+0x598>
    1b7c:	00080537          	lui	a0,0x80
    1b80:	00158593          	addi	a1,a1,1
    1b84:	1dc50513          	addi	a0,a0,476 # 801dc <cst_libm_sincosf+0x1dc>
    1b88:	3e3010ef          	jal	ra,376a <iprintf>
    1b8c:	e74fe0ef          	jal	ra,200 <delay_ms.constprop.12>
    1b90:	e70fe0ef          	jal	ra,200 <delay_ms.constprop.12>
    1b94:	00080537          	lui	a0,0x80
    1b98:	16c50513          	addi	a0,a0,364 # 8016c <cst_libm_sincosf+0x16c>
    1b9c:	415010ef          	jal	ra,37b0 <puts>
    1ba0:	00080537          	lui	a0,0x80
    1ba4:	19050513          	addi	a0,a0,400 # 80190 <cst_libm_sincosf+0x190>
    1ba8:	409010ef          	jal	ra,37b0 <puts>
    1bac:	e54fe0ef          	jal	ra,200 <delay_ms.constprop.12>
    1bb0:	00080737          	lui	a4,0x80
    1bb4:	6785                	c.lui	a5,0x1
    1bb6:	03472407          	flw	fs0,52(a4) # 80034 <cst_libm_sincosf+0x34>
    1bba:	a0078493          	addi	s1,a5,-1536 # a00 <pm_wait_bbpll_done+0xa0>
    1bbe:	7afd                	c.lui	s5,0xfffff
    1bc0:	b0078793          	addi	a5,a5,-1280
    1bc4:	008484b3          	add	s1,s1,s0
    1bc8:	00f40a33          	add	s4,s0,a5
    1bcc:	00080b37          	lui	s6,0x80
    1bd0:	00080937          	lui	s2,0x80
    1bd4:	600a8a93          	addi	s5,s5,1536 # fffff600 <_DATA_LMA_START+0xdfffb050>
    1bd8:	0009a507          	flw	fa0,0(s3)
    1bdc:	01548433          	add	s0,s1,s5
    1be0:	708010ef          	jal	ra,32e8 <__extendsfdf2>
    1be4:	862a                	c.mv	a2,a0
    1be6:	86ae                	c.mv	a3,a1
    1be8:	1ccb0513          	addi	a0,s6,460 # 801cc <cst_libm_sincosf+0x1cc>
    1bec:	37f010ef          	jal	ra,376a <iprintf>
    1bf0:	00041783          	lh	a5,0(s0)
    1bf4:	10040413          	addi	s0,s0,256
    1bf8:	d007f553          	fcvt.s.w	fa0,a5
    1bfc:	10857553          	fmul.s	fa0,fa0,fs0
    1c00:	6e8010ef          	jal	ra,32e8 <__extendsfdf2>
    1c04:	862a                	c.mv	a2,a0
    1c06:	86ae                	c.mv	a3,a1
    1c08:	1d490513          	addi	a0,s2,468 # 801d4 <cst_libm_sincosf+0x1d4>
    1c0c:	35f010ef          	jal	ra,376a <iprintf>
    1c10:	fe8490e3          	bne	s1,s0,1bf0 <main+0x62c>
    1c14:	00a00513          	li	a0,10
    1c18:	371010ef          	jal	ra,3788 <putchar>
    1c1c:	00248493          	addi	s1,s1,2
    1c20:	de0fe0ef          	jal	ra,200 <delay_ms.constprop.12>
    1c24:	0991                	c.addi	s3,4
    1c26:	fb4499e3          	bne	s1,s4,1bd8 <main+0x614>
    1c2a:	6305                	c.lui	t1,0x1
    1c2c:	911a                	c.add	sp,t1
    1c2e:	17c12083          	lw	ra,380(sp)
    1c32:	4501                	c.li	a0,0
    1c34:	17812403          	lw	s0,376(sp)
    1c38:	17412483          	lw	s1,372(sp)
    1c3c:	17012903          	lw	s2,368(sp)
    1c40:	16c12983          	lw	s3,364(sp)
    1c44:	16812a03          	lw	s4,360(sp)
    1c48:	16412a83          	lw	s5,356(sp)
    1c4c:	16012b03          	lw	s6,352(sp)
    1c50:	15c12b83          	lw	s7,348(sp)
    1c54:	15812c03          	lw	s8,344(sp)
    1c58:	15412c83          	lw	s9,340(sp)
    1c5c:	14c12407          	flw	fs0,332(sp)
    1c60:	6119                	c.addi16sp	sp,384
    1c62:	8082                	c.jr	ra
    1c64:	00100793          	li	a5,1
    1c68:	00f40123          	sb	a5,2(s0)
    1c6c:	b25fe0ef          	jal	ra,790 <analog_write_reg8>
    1c70:	0014e593          	ori	a1,s1,1
    1c74:	0ff5f593          	andi	a1,a1,255
    1c78:	03900513          	li	a0,57
    1c7c:	b15fe0ef          	jal	ra,790 <analog_write_reg8>
    1c80:	ab9ff06f          	j	1738 <main+0x174>
    1c84:	07f00513          	li	a0,127
    1c88:	b4dfe0ef          	jal	ra,7d4 <analog_read_reg8>
    1c8c:	d99f940b          	addigp	s0,-616 # 80598 <g_pm_status_info>
    1c90:	0405705b          	bbc	a0,0,1cd0 <main+0x70c>
    1c94:	4214f25b          	bbs	s1,1,1cb8 <main+0x6f4>
    1c98:	47c1                	c.li	a5,16
    1c9a:	00f40123          	sb	a5,2(s0)
    1c9e:	bc69                	c.j	1738 <main+0x174>
    1ca0:	000fe537          	lui	a0,0xfe
    1ca4:	0c050513          	addi	a0,a0,192 # fe0c0 <_STACK_TOP+0x5e0c0>
    1ca8:	f64ff0ef          	jal	ra,140c <user_calib_adc_vref.constprop.9>
    1cac:	000fe537          	lui	a0,0xfe
    1cb0:	859ff0ef          	jal	ra,1508 <user_calib_freq_offset.constprop.8>
    1cb4:	c05ff06f          	j	18b8 <main+0x2f4>
    1cb8:	02000793          	li	a5,32
    1cbc:	0fd4f593          	andi	a1,s1,253
    1cc0:	03900513          	li	a0,57
    1cc4:	00f40123          	sb	a5,2(s0)
    1cc8:	ac9fe0ef          	jal	ra,790 <analog_write_reg8>
    1ccc:	a6dff06f          	j	1738 <main+0x174>
    1cd0:	47a1                	c.li	a5,8
    1cd2:	00f40123          	sb	a5,2(s0)
    1cd6:	b48d                	c.j	1738 <main+0x174>
    1cd8:	001fe537          	lui	a0,0x1fe
    1cdc:	0c050513          	addi	a0,a0,192 # 1fe0c0 <FLASH_SIZE+0xfe0c0>
    1ce0:	f2cff0ef          	jal	ra,140c <user_calib_adc_vref.constprop.9>
    1ce4:	001fe537          	lui	a0,0x1fe
    1ce8:	821ff0ef          	jal	ra,1508 <user_calib_freq_offset.constprop.8>
    1cec:	bcdff06f          	j	18b8 <main+0x2f4>
    1cf0:	0007e537          	lui	a0,0x7e
    1cf4:	0c050513          	addi	a0,a0,192 # 7e0c0 <BIN_SIZE+0x79570>
    1cf8:	f14ff0ef          	jal	ra,140c <user_calib_adc_vref.constprop.9>
    1cfc:	0007e537          	lui	a0,0x7e
    1d00:	809ff0ef          	jal	ra,1508 <user_calib_freq_offset.constprop.8>
    1d04:	bb5ff06f          	j	18b8 <main+0x2f4>
    1d08:	00000513          	li	a0,0
    1d0c:	f00ff0ef          	jal	ra,140c <user_calib_adc_vref.constprop.9>
    1d10:	ba9ff06f          	j	18b8 <main+0x2f4>
    1d14:	0507d05b          	beqc	a5,16,1d54 <main+0x790>
    1d18:	bf17e85b          	bnec	a5,17,1d08 <main+0x744>
    1d1c:	0001e537          	lui	a0,0x1e
    1d20:	0c050513          	addi	a0,a0,192 # 1e0c0 <BIN_SIZE+0x19570>
    1d24:	ee8ff0ef          	jal	ra,140c <user_calib_adc_vref.constprop.9>
    1d28:	0001e537          	lui	a0,0x1e
    1d2c:	fdcff0ef          	jal	ra,1508 <user_calib_freq_offset.constprop.8>
    1d30:	b89ff06f          	j	18b8 <main+0x2f4>
    1d34:	00158593          	addi	a1,a1,1
    1d38:	10068693          	addi	a3,a3,256
    1d3c:	a0a5ec5b          	bnec	a1,10,1b54 <main+0x590>
    1d40:	00080537          	lui	a0,0x80
    1d44:	13850513          	addi	a0,a0,312 # 80138 <cst_libm_sincosf+0x138>
    1d48:	269010ef          	jal	ra,37b0 <puts>
    1d4c:	cb4fe0ef          	jal	ra,200 <delay_ms.constprop.12>
    1d50:	e41ff06f          	j	1b90 <main+0x5cc>
    1d54:	0000e537          	lui	a0,0xe
    1d58:	0c050513          	addi	a0,a0,192 # e0c0 <BIN_SIZE+0x9570>
    1d5c:	eb0ff0ef          	jal	ra,140c <user_calib_adc_vref.constprop.9>
    1d60:	0000e537          	lui	a0,0xe
    1d64:	fa4ff0ef          	jal	ra,1508 <user_calib_freq_offset.constprop.8>
    1d68:	be81                	c.j	18b8 <main+0x2f4>
    1d6a:	0001                	c.nop

00001d6c <default_irq_entry>:
    1d6c:	a001                	c.j	1d6c <default_irq_entry>

00001d6e <trap_handler>:
    1d6e:	a001                	c.j	1d6e <trap_handler>
    1d70:	0001                	c.nop
	...

00001d74 <riscv_dsp_cfft_q15>:
    1d74:	ffc58793          	addi	a5,a1,-4
    1d78:	4729                	c.li	a4,10
    1d7a:	00f76b63          	bltu	a4,a5,1d90 <riscv_dsp_cfft_q15+0x1c>
    1d7e:	a11f970b          	addigp	a4,-1520 # 80210 <cst_libm_sincosf+0x210>
    1d82:	0cf707db          	lea.w	a5,a4,a5
    1d86:	439c                	c.lw	a5,0(a5)
    1d88:	00078067          	jr	a5
    1d8c:	38c0006f          	j	2118 <riscv_dsp_cfft_rd4_q15>
    1d90:	a011                	c.j	1d94 <riscv_dsp_cfft_rd2_q15>
	...

00001d94 <riscv_dsp_cfft_rd2_q15>:
    1d94:	4789                	c.li	a5,2
    1d96:	00b797b3          	sll	a5,a5,a1
    1d9a:	00f50e33          	add	t3,a0,a5
    1d9e:	000e2603          	lw	a2,0(t3)
    1da2:	4114                	c.lw	a3,0(a0)
    1da4:	7179                	c.addi16sp	sp,-48
    1da6:	7016067f          	srai16	a2,a2,1
    1daa:	701686ff          	srai16	a3,a3,1
    1dae:	d24a                	c.swsp	s2,36(sp)
    1db0:	cc56                	c.swsp	s5,24(sp)
    1db2:	ca5a                	c.swsp	s6,20(sp)
    1db4:	c85e                	c.swsp	s7,16(sp)
    1db6:	00c6877f          	radd16	a4,a3,a2
    1dba:	d622                	c.swsp	s0,44(sp)
    1dbc:	d426                	c.swsp	s1,40(sp)
    1dbe:	d04e                	c.swsp	s3,32(sp)
    1dc0:	ce52                	c.swsp	s4,28(sp)
    1dc2:	c662                	c.swsp	s8,12(sp)
    1dc4:	c466                	c.swsp	s9,8(sp)
    1dc6:	02c686ff          	rsub16	a3,a3,a2
    1dca:	c118                	c.sw	a4,0(a0)
    1dcc:	4a85                	c.li	s5,1
    1dce:	00450b93          	addi	s7,a0,4 # e004 <BIN_SIZE+0x94b4>
    1dd2:	00de2023          	sw	a3,0(t3)
    1dd6:	8b2e                	c.mv	s6,a1
    1dd8:	892a                	c.mv	s2,a0
    1dda:	00ba9ab3          	sll	s5,s5,a1
    1dde:	0d7e0d63          	beq	t3,s7,1eb8 <riscv_dsp_cfft_rd2_q15+0x124>
    1de2:	0791                	c.addi	a5,4
    1de4:	4f29                	c.li	t5,10
    1de6:	6ec1                	c.lui	t4,0x10
    1de8:	40bf0f33          	sub	t5,t5,a1
    1dec:	953e                	c.add	a0,a5
    1dee:	85de                	c.mv	a1,s7
    1df0:	4881                	c.li	a7,0
    1df2:	a41f980b          	addigp	a6,-1472 # 80240 <riscv_dsp_cos_table_q15_1024+0x4>
    1df6:	10000313          	li	t1,256
    1dfa:	1efd                	c.addi	t4,-1
    1dfc:	0500006f          	j	1e4c <riscv_dsp_cfft_rd2_q15+0xb8>
    1e00:	00039283          	lh	t0,0(t2)
    1e04:	000f9783          	lh	a5,0(t6)
    1e08:	00052f83          	lw	t6,0(a0)
    1e0c:	4190                	c.lw	a2,0(a1)
    1e0e:	86be                	c.mv	a3,a5
    1e10:	701f8fff          	srai16	t6,t6,1
    1e14:	7016067f          	srai16	a2,a2,1
    1e18:	43f607ff          	sub16	a5,a2,t6
    1e1c:	0e5696ff          	pkbb16	a3,a3,t0
    1e20:	38f692ff          	kmda	t0,a3,a5
    1e24:	78d797ff          	smxds	a5,a5,a3
    1e28:	0102d693          	srli	a3,t0,0x10
    1e2c:	3ed7177f          	pktb16	a4,a4,a3
    1e30:	83c1                	c.srli	a5,0x10
    1e32:	01f6067f          	radd16	a2,a2,t6
    1e36:	07c2                	c.slli	a5,0x10
    1e38:	01d77733          	and	a4,a4,t4
    1e3c:	c190                	c.sw	a2,0(a1)
    1e3e:	8f5d                	c.or	a4,a5
    1e40:	c118                	c.sw	a4,0(a0)
    1e42:	0591                	c.addi	a1,4
    1e44:	00450513          	addi	a0,a0,4
    1e48:	06be0863          	beq	t3,a1,1eb8 <riscv_dsp_cfft_rd2_q15+0x124>
    1e4c:	0885                	c.addi	a7,1
    1e4e:	01e897b3          	sll	a5,a7,t5
    1e52:	f0078693          	addi	a3,a5,-256
    1e56:	40f30633          	sub	a2,t1,a5
    1e5a:	0af803db          	lea.h	t2,a6,a5
    1e5e:	0ac80fdb          	lea.h	t6,a6,a2
    1e62:	40d302b3          	sub	t0,t1,a3
    1e66:	f8c04de3          	bgtz	a2,1e00 <riscv_dsp_cfft_rd2_q15+0x6c>
    1e6a:	e0078793          	addi	a5,a5,-512
    1e6e:	40f30fb3          	sub	t6,t1,a5
    1e72:	0af803db          	lea.h	t2,a6,a5
    1e76:	0a58065b          	lea.h	a2,a6,t0
    1e7a:	0ad806db          	lea.h	a3,a6,a3
    1e7e:	0bf807db          	lea.h	a5,a6,t6
    1e82:	00505b63          	blez	t0,1e98 <riscv_dsp_cfft_rd2_q15+0x104>
    1e86:	00065283          	lhu	t0,0(a2)
    1e8a:	00069783          	lh	a5,0(a3)
    1e8e:	405002b3          	neg	t0,t0
    1e92:	3c02b2db          	bfos	t0,t0,15,0
    1e96:	bf8d                	c.j	1e08 <riscv_dsp_cfft_rd2_q15+0x74>
    1e98:	00079283          	lh	t0,0(a5)
    1e9c:	0003d603          	lhu	a2,0(t2)
    1ea0:	40c00633          	neg	a2,a2
    1ea4:	405006b3          	neg	a3,t0
    1ea8:	3c0637db          	bfos	a5,a2,15,0
    1eac:	f5f05ee3          	blez	t6,1e08 <riscv_dsp_cfft_rd2_q15+0x74>
    1eb0:	82be                	c.mv	t0,a5
    1eb2:	3c06b7db          	bfos	a5,a3,15,0
    1eb6:	bf89                	c.j	1e08 <riscv_dsp_cfft_rd2_q15+0x74>
    1eb8:	ffeb0a13          	addi	s4,s6,-2
    1ebc:	89d6                	c.mv	s3,s5
    1ebe:	4e89                	c.li	t4,2
    1ec0:	0c0a0863          	beqz	s4,1f90 <riscv_dsp_cfft_rd2_q15+0x1fc>
    1ec4:	44a9                	c.li	s1,10
    1ec6:	6341                	c.lui	t1,0x10
    1ec8:	416484b3          	sub	s1,s1,s6
    1ecc:	a41f9f8b          	addigp	t6,-1472 # 80240 <riscv_dsp_cos_table_q15_1024+0x4>
    1ed0:	10000293          	li	t0,256
    1ed4:	fff30313          	addi	t1,t1,-1 # ffff <BIN_SIZE+0xb4af>
    1ed8:	0019d993          	srli	s3,s3,0x1
    1edc:	00199413          	slli	s0,s3,0x1
    1ee0:	0b3903db          	lea.h	t2,s2,s3
    1ee4:	020e8463          	beqz	t4,1f0c <riscv_dsp_cfft_rd2_q15+0x178>
    1ee8:	00299813          	slli	a6,s3,0x2
    1eec:	861e                	c.mv	a2,t2
    1eee:	86ca                	c.mv	a3,s2
    1ef0:	01d005b3          	add	a1,zero,t4
    1ef4:	429c                	c.lw	a5,0(a3)
    1ef6:	4208                	c.lw	a0,0(a2)
    1ef8:	15fd                	c.addi	a1,-1
    1efa:	00a7877f          	radd16	a4,a5,a0
    1efe:	c298                	c.sw	a4,0(a3)
    1f00:	02a787ff          	rsub16	a5,a5,a0
    1f04:	c21c                	c.sw	a5,0(a2)
    1f06:	96c2                	c.add	a3,a6
    1f08:	9642                	c.add	a2,a6
    1f0a:	f5ed                	c.bnez	a1,1ef4 <riscv_dsp_cfft_rd2_q15+0x160>
    1f0c:	00299893          	slli	a7,s3,0x2
    1f10:	8e5e                	c.mv	t3,s7
    1f12:	4f01                	c.li	t5,0
    1f14:	067b8a63          	beq	s7,t2,1f88 <riscv_dsp_cfft_rd2_q15+0x1f4>
    1f18:	01df0f33          	add	t5,t5,t4
    1f1c:	009f17b3          	sll	a5,t5,s1
    1f20:	40f286b3          	sub	a3,t0,a5
    1f24:	18d05063          	blez	a3,20a4 <riscv_dsp_cfft_rd2_q15+0x310>
    1f28:	0adf865b          	lea.h	a2,t6,a3
    1f2c:	0aff87db          	lea.h	a5,t6,a5
    1f30:	00079683          	lh	a3,0(a5)
    1f34:	00061603          	lh	a2,0(a2)
    1f38:	008e0533          	add	a0,t3,s0
    1f3c:	85f2                	c.mv	a1,t3
    1f3e:	8876                	c.mv	a6,t4
    1f40:	040e8063          	beqz	t4,1f80 <riscv_dsp_cfft_rd2_q15+0x1ec>
    1f44:	0ed6167f          	pkbb16	a2,a2,a3
    1f48:	4194                	c.lw	a3,0(a1)
    1f4a:	00052c83          	lw	s9,0(a0)
    1f4e:	187d                	c.addi	a6,-1
    1f50:	439687ff          	sub16	a5,a3,s9
    1f54:	38f61c7f          	kmda	s8,a2,a5
    1f58:	78c797ff          	smxds	a5,a5,a2
    1f5c:	010c5c13          	srli	s8,s8,0x10
    1f60:	3f87177f          	pktb16	a4,a4,s8
    1f64:	83c1                	c.srli	a5,0x10
    1f66:	019686ff          	radd16	a3,a3,s9
    1f6a:	07c2                	c.slli	a5,0x10
    1f6c:	00677733          	and	a4,a4,t1
    1f70:	c194                	c.sw	a3,0(a1)
    1f72:	8f5d                	c.or	a4,a5
    1f74:	c118                	c.sw	a4,0(a0)
    1f76:	95c6                	c.add	a1,a7
    1f78:	01150533          	add	a0,a0,a7
    1f7c:	fc0816e3          	bnez	a6,1f48 <riscv_dsp_cfft_rd2_q15+0x1b4>
    1f80:	004e0e13          	addi	t3,t3,4
    1f84:	f9c39ae3          	bne	t2,t3,1f18 <riscv_dsp_cfft_rd2_q15+0x184>
    1f88:	1a7d                	c.addi	s4,-1
    1f8a:	0e86                	c.slli	t4,0x1
    1f8c:	f40a16e3          	bnez	s4,1ed8 <riscv_dsp_cfft_rd2_q15+0x144>
    1f90:	4891                	c.li	a7,4
    1f92:	016898b3          	sll	a7,a7,s6
    1f96:	01190833          	add	a6,s2,a7
    1f9a:	87ca                	c.mv	a5,s2
    1f9c:	03090663          	beq	s2,a6,1fc8 <riscv_dsp_cfft_rd2_q15+0x234>
    1fa0:	43cc                	c.lw	a1,4(a5)
    1fa2:	4394                	c.lw	a3,0(a5)
    1fa4:	4798                	c.lw	a4,8(a5)
    1fa6:	47d0                	c.lw	a2,12(a5)
    1fa8:	00b6857f          	radd16	a0,a3,a1
    1fac:	02b686ff          	rsub16	a3,a3,a1
    1fb0:	00c705ff          	radd16	a1,a4,a2
    1fb4:	02c7077f          	rsub16	a4,a4,a2
    1fb8:	c388                	c.sw	a0,0(a5)
    1fba:	c3d4                	c.sw	a3,4(a5)
    1fbc:	c78c                	c.sw	a1,8(a5)
    1fbe:	c7d8                	c.sw	a4,12(a5)
    1fc0:	01078793          	addi	a5,a5,16
    1fc4:	fcf81ee3          	bne	a6,a5,1fa0 <riscv_dsp_cfft_rd2_q15+0x20c>
    1fc8:	001ad813          	srli	a6,s5,0x1
    1fcc:	0d09075b          	lea.w	a4,s2,a6
    1fd0:	431c                	c.lw	a5,0(a4)
    1fd2:	18f9                	c.addi	a7,-2
    1fd4:	00492683          	lw	a3,4(s2)
    1fd8:	98ca                	c.add	a7,s2
    1fda:	002ada93          	srli	s5,s5,0x2
    1fde:	00f92223          	sw	a5,4(s2)
    1fe2:	01584333          	xor	t1,a6,s5
    1fe6:	00890613          	addi	a2,s2,8
    1fea:	fee88513          	addi	a0,a7,-18
    1fee:	87c2                	c.mv	a5,a6
    1ff0:	4591                	c.li	a1,4
    1ff2:	1b7d                	c.addi	s6,-1
    1ff4:	00d72023          	sw	a3,0(a4)
    1ff8:	0067c7b3          	xor	a5,a5,t1
    1ffc:	00faf733          	and	a4,s5,a5
    2000:	eb01                	c.bnez	a4,2010 <riscv_dsp_cfft_rd2_q15+0x27c>
    2002:	8756                	c.mv	a4,s5
    2004:	8305                	c.srli	a4,0x1
    2006:	8fb9                	c.xor	a5,a4
    2008:	00f776b3          	and	a3,a4,a5
    200c:	fe068ce3          	beqz	a3,2004 <riscv_dsp_cfft_rd2_q15+0x270>
    2010:	ffe58713          	addi	a4,a1,-2
    2014:	02f77863          	bgeu	a4,a5,2044 <riscv_dsp_cfft_rd2_q15+0x2b0>
    2018:	0cf906db          	lea.w	a3,s2,a5
    201c:	0006ae83          	lw	t4,0(a3)
    2020:	00062e03          	lw	t3,0(a2)
    2024:	40f00733          	neg	a4,a5
    2028:	01d62023          	sw	t4,0(a2)
    202c:	0ce8875b          	lea.w	a4,a7,a4
    2030:	01c6a023          	sw	t3,0(a3)
    2034:	ffe72e03          	lw	t3,-2(a4)
    2038:	00852683          	lw	a3,8(a0)
    203c:	01c52423          	sw	t3,8(a0)
    2040:	fed72f23          	sw	a3,-2(a4)
    2044:	97c2                	c.add	a5,a6
    2046:	0cf907db          	lea.w	a5,s2,a5
    204a:	4394                	c.lw	a3,0(a5)
    204c:	4258                	c.lw	a4,4(a2)
    204e:	c254                	c.sw	a3,4(a2)
    2050:	c398                	c.sw	a4,0(a5)
    2052:	0b05f563          	bgeu	a1,a6,20fc <riscv_dsp_cfft_rd2_q15+0x368>
    2056:	e76587ff          	bitrev	a5,a1,s6
    205a:	02f5f763          	bgeu	a1,a5,2088 <riscv_dsp_cfft_rd2_q15+0x2f4>
    205e:	0cf906db          	lea.w	a3,s2,a5
    2062:	0006ae83          	lw	t4,0(a3)
    2066:	00862e03          	lw	t3,8(a2)
    206a:	40f00733          	neg	a4,a5
    206e:	01d62423          	sw	t4,8(a2)
    2072:	0ce8875b          	lea.w	a4,a7,a4
    2076:	01c6a023          	sw	t3,0(a3)
    207a:	ffe72e03          	lw	t3,-2(a4)
    207e:	4114                	c.lw	a3,0(a0)
    2080:	01c52023          	sw	t3,0(a0)
    2084:	fed72f23          	sw	a3,-2(a4)
    2088:	97c2                	c.add	a5,a6
    208a:	0cf9075b          	lea.w	a4,s2,a5
    208e:	00072e03          	lw	t3,0(a4)
    2092:	4654                	c.lw	a3,12(a2)
    2094:	01c62623          	sw	t3,12(a2)
    2098:	1541                	c.addi	a0,-16
    209a:	0641                	c.addi	a2,16
    209c:	0591                	c.addi	a1,4
    209e:	c314                	c.sw	a3,0(a4)
    20a0:	f59ff06f          	j	1ff8 <riscv_dsp_cfft_rd2_q15+0x264>
    20a4:	f0078613          	addi	a2,a5,-256
    20a8:	40c286b3          	sub	a3,t0,a2
    20ac:	02d05063          	blez	a3,20cc <riscv_dsp_cfft_rd2_q15+0x338>
    20b0:	0adf86db          	lea.h	a3,t6,a3
    20b4:	0006d683          	lhu	a3,0(a3)
    20b8:	0acf865b          	lea.h	a2,t6,a2
    20bc:	40d006b3          	neg	a3,a3
    20c0:	00061603          	lh	a2,0(a2)
    20c4:	3c06b6db          	bfos	a3,a3,15,0
    20c8:	e71ff06f          	j	1f38 <riscv_dsp_cfft_rd2_q15+0x1a4>
    20cc:	e0078793          	addi	a5,a5,-512
    20d0:	0aff86db          	lea.h	a3,t6,a5
    20d4:	0006d603          	lhu	a2,0(a3)
    20d8:	40f287b3          	sub	a5,t0,a5
    20dc:	0aff86db          	lea.h	a3,t6,a5
    20e0:	40c00633          	neg	a2,a2
    20e4:	00069683          	lh	a3,0(a3)
    20e8:	3c06365b          	bfos	a2,a2,15,0
    20ec:	e4f056e3          	blez	a5,1f38 <riscv_dsp_cfft_rd2_q15+0x1a4>
    20f0:	40d007b3          	neg	a5,a3
    20f4:	86b2                	c.mv	a3,a2
    20f6:	3c07b65b          	bfos	a2,a5,15,0
    20fa:	bd3d                	c.j	1f38 <riscv_dsp_cfft_rd2_q15+0x1a4>
    20fc:	5432                	c.lwsp	s0,44(sp)
    20fe:	54a2                	c.lwsp	s1,40(sp)
    2100:	5912                	c.lwsp	s2,36(sp)
    2102:	5982                	c.lwsp	s3,32(sp)
    2104:	4a72                	c.lwsp	s4,28(sp)
    2106:	4ae2                	c.lwsp	s5,24(sp)
    2108:	4b52                	c.lwsp	s6,20(sp)
    210a:	4bc2                	c.lwsp	s7,16(sp)
    210c:	4c32                	c.lwsp	s8,12(sp)
    210e:	4ca2                	c.lwsp	s9,8(sp)
    2110:	4501                	c.li	a0,0
    2112:	6145                	c.addi16sp	sp,48
    2114:	8082                	c.jr	ra
    2116:	0001                	c.nop

00002118 <riscv_dsp_cfft_rd4_q15>:
    2118:	715d                	c.addi16sp	sp,-80
    211a:	4785                	c.li	a5,1
    211c:	d26a                	c.swsp	s10,36(sp)
    211e:	00b79d33          	sll	s10,a5,a1
    2122:	ffed7693          	andi	a3,s10,-2
    2126:	c4a6                	c.swsp	s1,72(sp)
    2128:	0ad504db          	lea.h	s1,a0,a3
    212c:	c6a2                	c.swsp	s0,76(sp)
    212e:	00d50f33          	add	t5,a0,a3
    2132:	842a                	c.mv	s0,a0
    2134:	00d48833          	add	a6,s1,a3
    2138:	401c                	c.lw	a5,0(s0)
    213a:	000f2703          	lw	a4,0(t5)
    213e:	ca2e                	c.swsp	a1,20(sp)
    2140:	c22a                	c.swsp	a0,4(sp)
    2142:	00082583          	lw	a1,0(a6)
    2146:	4088                	c.lw	a0,0(s1)
    2148:	7017077f          	srai16	a4,a4,1
    214c:	701787ff          	srai16	a5,a5,1
    2150:	7015057f          	srai16	a0,a0,1
    2154:	701585ff          	srai16	a1,a1,1
    2158:	00a7867f          	radd16	a2,a5,a0
    215c:	00b708ff          	radd16	a7,a4,a1
    2160:	c2ca                	c.swsp	s2,68(sp)
    2162:	c0ce                	c.swsp	s3,64(sp)
    2164:	de52                	c.swsp	s4,60(sp)
    2166:	dc56                	c.swsp	s5,56(sp)
    2168:	da5a                	c.swsp	s6,52(sp)
    216a:	d85e                	c.swsp	s7,48(sp)
    216c:	d662                	c.swsp	s8,44(sp)
    216e:	d466                	c.swsp	s9,40(sp)
    2170:	d06e                	c.swsp	s11,32(sp)
    2172:	0116037f          	radd16	t1,a2,a7
    2176:	00642023          	sw	t1,0(s0)
    217a:	02a787ff          	rsub16	a5,a5,a0
    217e:	02b7077f          	rsub16	a4,a4,a1
    2182:	0316067f          	rsub16	a2,a2,a7
    2186:	00cf2023          	sw	a2,0(t5)
    218a:	06e7867f          	rcrsa16	a2,a5,a4
    218e:	c090                	c.sw	a2,0(s1)
    2190:	04e787ff          	rcras16	a5,a5,a4
    2194:	0411                	c.addi	s0,4
    2196:	ce26                	c.swsp	s1,28(sp)
    2198:	001d5493          	srli	s1,s10,0x1
    219c:	cc6a                	c.swsp	s10,24(sp)
    219e:	c622                	c.swsp	s0,12(sp)
    21a0:	00f82023          	sw	a5,0(a6)
    21a4:	c426                	c.swsp	s1,8(sp)
    21a6:	228f0b63          	beq	t5,s0,23dc <riscv_dsp_cfft_rd4_q15+0x2c4>
    21aa:	8622                	c.mv	a2,s0
    21ac:	4412                	c.lwsp	s0,4(sp)
    21ae:	4799                	c.li	a5,6
    21b0:	8822                	c.mv	a6,s0
    21b2:	c4f4987f          	maddr32	a6,s1,a5
    21b6:	00468893          	addi	a7,a3,4
    21ba:	44d2                	c.lwsp	s1,20(sp)
    21bc:	0689                	c.addi	a3,2
    21be:	4e29                	c.li	t3,10
    21c0:	0ad4055b          	lea.h	a0,s0,a3
    21c4:	409e0e33          	sub	t3,t3,s1
    21c8:	98a2                	c.add	a7,s0
    21ca:	0811                	c.addi	a6,4
    21cc:	4e8d                	c.li	t4,3
    21ce:	4301                	c.li	t1,0
    21d0:	a41f968b          	addigp	a3,-1472 # 80240 <riscv_dsp_cos_table_q15_1024+0x4>
    21d4:	10000593          	li	a1,256
    21d8:	0b00006f          	j	2288 <riscv_dsp_cfft_rd4_q15+0x170>
    21dc:	0a5682db          	lea.h	t0,a3,t0
    21e0:	0a9684db          	lea.h	s1,a3,s1
    21e4:	00029403          	lh	s0,0(t0)
    21e8:	00049283          	lh	t0,0(s1)
    21ec:	0e8292ff          	pkbb16	t0,t0,s0
    21f0:	385713ff          	kmda	t2,a4,t0
    21f4:	7857177f          	smxds	a4,a4,t0
    21f8:	01075713          	srli	a4,a4,0x10
    21fc:	0103d293          	srli	t0,t2,0x10
    2200:	0e57177f          	pkbb16	a4,a4,t0
    2204:	01c312b3          	sll	t0,t1,t3
    2208:	00e8a023          	sw	a4,0(a7)
    220c:	405583b3          	sub	t2,a1,t0
    2210:	17f7877f          	kcrsa16	a4,a5,t6
    2214:	15f787ff          	kcras16	a5,a5,t6
    2218:	10705663          	blez	t2,2324 <riscv_dsp_cfft_rd4_q15+0x20c>
    221c:	0a5682db          	lea.h	t0,a3,t0
    2220:	0a7683db          	lea.h	t2,a3,t2
    2224:	00029403          	lh	s0,0(t0)
    2228:	00039f83          	lh	t6,0(t2)
    222c:	0e8f9fff          	pkbb16	t6,t6,s0
    2230:	39f712ff          	kmda	t0,a4,t6
    2234:	79f7177f          	smxds	a4,a4,t6
    2238:	8341                	c.srli	a4,0x10
    223a:	0102df93          	srli	t6,t0,0x10
    223e:	0ff7177f          	pkbb16	a4,a4,t6
    2242:	01ce9fb3          	sll	t6,t4,t3
    2246:	41f582b3          	sub	t0,a1,t6
    224a:	c118                	c.sw	a4,0(a0)
    224c:	0a505863          	blez	t0,22fc <riscv_dsp_cfft_rd4_q15+0x1e4>
    2250:	0bf68fdb          	lea.h	t6,a3,t6
    2254:	0a5682db          	lea.h	t0,a3,t0
    2258:	000f9383          	lh	t2,0(t6)
    225c:	00029703          	lh	a4,0(t0)
    2260:	0e77177f          	pkbb16	a4,a4,t2
    2264:	38e79fff          	kmda	t6,a5,a4
    2268:	78e797ff          	smxds	a5,a5,a4
    226c:	83c1                	c.srli	a5,0x10
    226e:	010fd713          	srli	a4,t6,0x10
    2272:	0ee797ff          	pkbb16	a5,a5,a4
    2276:	00f82023          	sw	a5,0(a6)
    227a:	0611                	c.addi	a2,4
    227c:	0891                	c.addi	a7,4
    227e:	0511                	c.addi	a0,4
    2280:	0811                	c.addi	a6,4
    2282:	0e8d                	c.addi	t4,3
    2284:	14cf0c63          	beq	t5,a2,23dc <riscv_dsp_cfft_rd4_q15+0x2c4>
    2288:	0008a403          	lw	s0,0(a7)
    228c:	00052383          	lw	t2,0(a0)
    2290:	00082f83          	lw	t6,0(a6)
    2294:	421c                	c.lw	a5,0(a2)
    2296:	7014047f          	srai16	s0,s0,1
    229a:	701383ff          	srai16	t2,t2,1
    229e:	701787ff          	srai16	a5,a5,1
    22a2:	701f8fff          	srai16	t6,t6,1
    22a6:	0305                	c.addi	t1,1
    22a8:	0077897f          	radd16	s2,a5,t2
    22ac:	01f4077f          	radd16	a4,s0,t6
    22b0:	00131293          	slli	t0,t1,0x1
    22b4:	00e909ff          	radd16	s3,s2,a4
    22b8:	01c292b3          	sll	t0,t0,t3
    22bc:	405584b3          	sub	s1,a1,t0
    22c0:	01362023          	sw	s3,0(a2)
    22c4:	027787ff          	rsub16	a5,a5,t2
    22c8:	03f40fff          	rsub16	t6,s0,t6
    22cc:	12e9077f          	ksub16	a4,s2,a4
    22d0:	f09046e3          	bgtz	s1,21dc <riscv_dsp_cfft_rd4_q15+0xc4>
    22d4:	f0028393          	addi	t2,t0,-256
    22d8:	40758433          	sub	s0,a1,t2
    22dc:	06805863          	blez	s0,234c <riscv_dsp_cfft_rd4_q15+0x234>
    22e0:	0a86845b          	lea.h	s0,a3,s0
    22e4:	00045403          	lhu	s0,0(s0)
    22e8:	0a7683db          	lea.h	t2,a3,t2
    22ec:	40800433          	neg	s0,s0
    22f0:	00039283          	lh	t0,0(t2)
    22f4:	3c04345b          	bfos	s0,s0,15,0
    22f8:	ef5ff06f          	j	21ec <riscv_dsp_cfft_rd4_q15+0xd4>
    22fc:	f00f8713          	addi	a4,t6,-256
    2300:	40e582b3          	sub	t0,a1,a4
    2304:	06505c63          	blez	t0,237c <riscv_dsp_cfft_rd4_q15+0x264>
    2308:	0a5682db          	lea.h	t0,a3,t0
    230c:	0002d383          	lhu	t2,0(t0)
    2310:	0ae6875b          	lea.h	a4,a3,a4
    2314:	407003b3          	neg	t2,t2
    2318:	00071703          	lh	a4,0(a4)
    231c:	3c03b3db          	bfos	t2,t2,15,0
    2320:	f41ff06f          	j	2260 <riscv_dsp_cfft_rd4_q15+0x148>
    2324:	f0028f93          	addi	t6,t0,-256
    2328:	41f583b3          	sub	t2,a1,t6
    232c:	08705063          	blez	t2,23ac <riscv_dsp_cfft_rd4_q15+0x294>
    2330:	0a7683db          	lea.h	t2,a3,t2
    2334:	0003d403          	lhu	s0,0(t2)
    2338:	0bf68fdb          	lea.h	t6,a3,t6
    233c:	40800433          	neg	s0,s0
    2340:	000f9f83          	lh	t6,0(t6)
    2344:	3c04345b          	bfos	s0,s0,15,0
    2348:	ee5ff06f          	j	222c <riscv_dsp_cfft_rd4_q15+0x114>
    234c:	e0028493          	addi	s1,t0,-512
    2350:	0a9682db          	lea.h	t0,a3,s1
    2354:	0002d283          	lhu	t0,0(t0)
    2358:	409584b3          	sub	s1,a1,s1
    235c:	0a96845b          	lea.h	s0,a3,s1
    2360:	405003b3          	neg	t2,t0
    2364:	00041403          	lh	s0,0(s0)
    2368:	3c03b2db          	bfos	t0,t2,15,0
    236c:	e89050e3          	blez	s1,21ec <riscv_dsp_cfft_rd4_q15+0xd4>
    2370:	408003b3          	neg	t2,s0
    2374:	8416                	c.mv	s0,t0
    2376:	3c03b2db          	bfos	t0,t2,15,0
    237a:	bd8d                	c.j	21ec <riscv_dsp_cfft_rd4_q15+0xd4>
    237c:	e00f8f93          	addi	t6,t6,-512
    2380:	0bf6875b          	lea.h	a4,a3,t6
    2384:	00075703          	lhu	a4,0(a4)
    2388:	41f582b3          	sub	t0,a1,t6
    238c:	0a5683db          	lea.h	t2,a3,t0
    2390:	40e00fb3          	neg	t6,a4
    2394:	00039383          	lh	t2,0(t2)
    2398:	3c0fb75b          	bfos	a4,t6,15,0
    239c:	ec5052e3          	blez	t0,2260 <riscv_dsp_cfft_rd4_q15+0x148>
    23a0:	40700fb3          	neg	t6,t2
    23a4:	83ba                	c.mv	t2,a4
    23a6:	3c0fb75b          	bfos	a4,t6,15,0
    23aa:	bd5d                	c.j	2260 <riscv_dsp_cfft_rd4_q15+0x148>
    23ac:	e0028293          	addi	t0,t0,-512
    23b0:	0a568fdb          	lea.h	t6,a3,t0
    23b4:	000fdf83          	lhu	t6,0(t6)
    23b8:	405583b3          	sub	t2,a1,t0
    23bc:	0a76845b          	lea.h	s0,a3,t2
    23c0:	41f002b3          	neg	t0,t6
    23c4:	00041403          	lh	s0,0(s0)
    23c8:	3c02bfdb          	bfos	t6,t0,15,0
    23cc:	e67050e3          	blez	t2,222c <riscv_dsp_cfft_rd4_q15+0x114>
    23d0:	408002b3          	neg	t0,s0
    23d4:	847e                	c.mv	s0,t6
    23d6:	3c02bfdb          	bfos	t6,t0,15,0
    23da:	bd89                	c.j	222c <riscv_dsp_cfft_rd4_q15+0x114>
    23dc:	4452                	c.lwsp	s0,20(sp)
    23de:	4d22                	c.lwsp	s10,8(sp)
    23e0:	00145793          	srli	a5,s0,0x1
    23e4:	ffe78493          	addi	s1,a5,-2
    23e8:	c826                	c.swsp	s1,16(sp)
    23ea:	4b11                	c.li	s6,4
    23ec:	1a048863          	beqz	s1,259c <riscv_dsp_cfft_rd4_q15+0x484>
    23f0:	00a00b93          	li	s7,10
    23f4:	408b8bb3          	sub	s7,s7,s0
    23f8:	a41f998b          	addigp	s3,-1472 # 80240 <riscv_dsp_cos_table_q15_1024+0x4>
    23fc:	10000a93          	li	s5,256
    2400:	4412                	c.lwsp	s0,4(sp)
    2402:	002d5d13          	srli	s10,s10,0x2
    2406:	001d1c93          	slli	s9,s10,0x1
    240a:	0ba40c5b          	lea.h	s8,s0,s10
    240e:	040b0d63          	beqz	s6,2468 <riscv_dsp_cfft_rd4_q15+0x350>
    2412:	8622                	c.mv	a2,s0
    2414:	003d1893          	slli	a7,s10,0x3
    2418:	019c0833          	add	a6,s8,s9
    241c:	8562                	c.mv	a0,s8
    241e:	0dac05db          	lea.w	a1,s8,s10
    2422:	835a                	c.mv	t1,s6
    2424:	4198                	c.lw	a4,0(a1)
    2426:	4114                	c.lw	a3,0(a0)
    2428:	421c                	c.lw	a5,0(a2)
    242a:	00082e83          	lw	t4,0(a6)
    242e:	00e68e7f          	radd16	t3,a3,a4
    2432:	02e686ff          	rsub16	a3,a3,a4
    2436:	01d7877f          	radd16	a4,a5,t4
    243a:	01c70f7f          	radd16	t5,a4,t3
    243e:	01e62023          	sw	t5,0(a2)
    2442:	03d787ff          	rsub16	a5,a5,t4
    2446:	03c7077f          	rsub16	a4,a4,t3
    244a:	c118                	c.sw	a4,0(a0)
    244c:	06d7877f          	rcrsa16	a4,a5,a3
    2450:	00e82023          	sw	a4,0(a6)
    2454:	04d787ff          	rcras16	a5,a5,a3
    2458:	c19c                	c.sw	a5,0(a1)
    245a:	137d                	c.addi	t1,-1
    245c:	9646                	c.add	a2,a7
    245e:	9846                	c.add	a6,a7
    2460:	9546                	c.add	a0,a7
    2462:	95c6                	c.add	a1,a7
    2464:	fc0310e3          	bnez	t1,2424 <riscv_dsp_cfft_rd4_q15+0x30c>
    2468:	4432                	c.lwsp	s0,12(sp)
    246a:	13840363          	beq	s0,s8,2590 <riscv_dsp_cfft_rd4_q15+0x478>
    246e:	8922                	c.mv	s2,s0
    2470:	4419                	c.li	s0,6
    2472:	028d0db3          	mul	s11,s10,s0
    2476:	003d1293          	slli	t0,s10,0x3
    247a:	002d1413          	slli	s0,s10,0x2
    247e:	4a01                	c.li	s4,0
    2480:	00812023          	sw	s0,0(sp)
    2484:	016a0a33          	add	s4,s4,s6
    2488:	017a17b3          	sll	a5,s4,s7
    248c:	40fa8733          	sub	a4,s5,a5
    2490:	28e05e63          	blez	a4,272c <riscv_dsp_cfft_rd4_q15+0x614>
    2494:	0af987db          	lea.h	a5,s3,a5
    2498:	0ae9875b          	lea.h	a4,s3,a4
    249c:	00079603          	lh	a2,0(a5)
    24a0:	00071683          	lh	a3,0(a4)
    24a4:	001a1793          	slli	a5,s4,0x1
    24a8:	01779733          	sll	a4,a5,s7
    24ac:	40ea85b3          	sub	a1,s5,a4
    24b0:	22b05063          	blez	a1,26d0 <riscv_dsp_cfft_rd4_q15+0x5b8>
    24b4:	0ae9875b          	lea.h	a4,s3,a4
    24b8:	0ab9855b          	lea.h	a0,s3,a1
    24bc:	00071583          	lh	a1,0(a4)
    24c0:	00051703          	lh	a4,0(a0)
    24c4:	014787b3          	add	a5,a5,s4
    24c8:	017797b3          	sll	a5,a5,s7
    24cc:	40fa8533          	sub	a0,s5,a5
    24d0:	22a05a63          	blez	a0,2704 <riscv_dsp_cfft_rd4_q15+0x5ec>
    24d4:	0af987db          	lea.h	a5,s3,a5
    24d8:	0aa9855b          	lea.h	a0,s3,a0
    24dc:	00079e03          	lh	t3,0(a5)
    24e0:	00051503          	lh	a0,0(a0)
    24e4:	0ec6987f          	pkbb16	a6,a3,a2
    24e8:	0eb718ff          	pkbb16	a7,a4,a1
    24ec:	0fc5137f          	pkbb16	t1,a0,t3
    24f0:	080b0c63          	beqz	s6,2588 <riscv_dsp_cfft_rd4_q15+0x470>
    24f4:	4402                	c.lwsp	s0,0(sp)
    24f6:	012c8fb3          	add	t6,s9,s2
    24fa:	00890f33          	add	t5,s2,s0
    24fe:	01b90eb3          	add	t4,s2,s11
    2502:	8e4a                	c.mv	t3,s2
    2504:	01600433          	add	s0,zero,s6
    2508:	000ea683          	lw	a3,0(t4) # 10000 <BIN_SIZE+0xb4b0>
    250c:	000f2703          	lw	a4,0(t5)
    2510:	000fa603          	lw	a2,0(t6)
    2514:	000e2783          	lw	a5,0(t3)
    2518:	147d                	c.addi	s0,-1
    251a:	00d604ff          	radd16	s1,a2,a3
    251e:	00e7857f          	radd16	a0,a5,a4
    2522:	02d6067f          	rsub16	a2,a2,a3
    2526:	02e787ff          	rsub16	a5,a5,a4
    252a:	129506ff          	ksub16	a3,a0,s1
    252e:	16c7877f          	kcrsa16	a4,a5,a2
    2532:	391695ff          	kmda	a1,a3,a7
    2536:	14c787ff          	kcras16	a5,a5,a2
    253a:	791696ff          	smxds	a3,a3,a7
    253e:	3907167f          	kmda	a2,a4,a6
    2542:	386793ff          	kmda	t2,a5,t1
    2546:	0095057f          	radd16	a0,a0,s1
    254a:	82c1                	c.srli	a3,0x10
    254c:	81c1                	c.srli	a1,0x10
    254e:	7907177f          	smxds	a4,a4,a6
    2552:	00ae2023          	sw	a0,0(t3)
    2556:	0eb696ff          	pkbb16	a3,a3,a1
    255a:	8341                	c.srli	a4,0x10
    255c:	8241                	c.srli	a2,0x10
    255e:	786797ff          	smxds	a5,a5,t1
    2562:	00dfa023          	sw	a3,0(t6)
    2566:	0ec7177f          	pkbb16	a4,a4,a2
    256a:	83c1                	c.srli	a5,0x10
    256c:	0103d393          	srli	t2,t2,0x10
    2570:	00ef2023          	sw	a4,0(t5)
    2574:	0e7797ff          	pkbb16	a5,a5,t2
    2578:	00fea023          	sw	a5,0(t4)
    257c:	9e16                	c.add	t3,t0
    257e:	9f96                	c.add	t6,t0
    2580:	9f16                	c.add	t5,t0
    2582:	9e96                	c.add	t4,t0
    2584:	f80412e3          	bnez	s0,2508 <riscv_dsp_cfft_rd4_q15+0x3f0>
    2588:	00490913          	addi	s2,s2,4
    258c:	ef2c1ce3          	bne	s8,s2,2484 <riscv_dsp_cfft_rd4_q15+0x36c>
    2590:	4442                	c.lwsp	s0,16(sp)
    2592:	0b0a                	c.slli	s6,0x2
    2594:	147d                	c.addi	s0,-1
    2596:	c822                	c.swsp	s0,16(sp)
    2598:	e60414e3          	bnez	s0,2400 <riscv_dsp_cfft_rd4_q15+0x2e8>
    259c:	4452                	c.lwsp	s0,20(sp)
    259e:	4891                	c.li	a7,4
    25a0:	008898b3          	sll	a7,a7,s0
    25a4:	4412                	c.lwsp	s0,4(sp)
    25a6:	01140833          	add	a6,s0,a7
    25aa:	87a2                	c.mv	a5,s0
    25ac:	05040263          	beq	s0,a6,25f0 <riscv_dsp_cfft_rd4_q15+0x4d8>
    25b0:	47d0                	c.lw	a2,12(a5)
    25b2:	4788                	c.lw	a0,8(a5)
    25b4:	43d4                	c.lw	a3,4(a5)
    25b6:	4398                	c.lw	a4,0(a5)
    25b8:	01078793          	addi	a5,a5,16
    25bc:	00c685ff          	radd16	a1,a3,a2
    25c0:	02c686ff          	rsub16	a3,a3,a2
    25c4:	00a7067f          	radd16	a2,a4,a0
    25c8:	02a7077f          	rsub16	a4,a4,a0
    25cc:	00b6057f          	radd16	a0,a2,a1
    25d0:	02b6067f          	rsub16	a2,a2,a1
    25d4:	06d705ff          	rcrsa16	a1,a4,a3
    25d8:	04d7077f          	rcras16	a4,a4,a3
    25dc:	fea7a823          	sw	a0,-16(a5)
    25e0:	fec7aa23          	sw	a2,-12(a5)
    25e4:	feb7ac23          	sw	a1,-8(a5)
    25e8:	fee7ae23          	sw	a4,-4(a5)
    25ec:	fcf812e3          	bne	a6,a5,25b0 <riscv_dsp_cfft_rd4_q15+0x498>
    25f0:	44f2                	c.lwsp	s1,28(sp)
    25f2:	4412                	c.lwsp	s0,4(sp)
    25f4:	409c                	c.lw	a5,0(s1)
    25f6:	45e2                	c.lwsp	a1,24(sp)
    25f8:	18f9                	c.addi	a7,-2
    25fa:	4058                	c.lw	a4,4(s0)
    25fc:	98a2                	c.add	a7,s0
    25fe:	c05c                	c.sw	a5,4(s0)
    2600:	00840613          	addi	a2,s0,8
    2604:	47a2                	c.lwsp	a5,8(sp)
    2606:	4452                	c.lwsp	s0,20(sp)
    2608:	0025d813          	srli	a6,a1,0x2
    260c:	0107c333          	xor	t1,a5,a6
    2610:	fee88513          	addi	a0,a7,-18
    2614:	4591                	c.li	a1,4
    2616:	fff40e13          	addi	t3,s0,-1
    261a:	c098                	c.sw	a4,0(s1)
    261c:	00f347b3          	xor	a5,t1,a5
    2620:	00f87733          	and	a4,a6,a5
    2624:	eb01                	c.bnez	a4,2634 <riscv_dsp_cfft_rd4_q15+0x51c>
    2626:	8742                	c.mv	a4,a6
    2628:	8305                	c.srli	a4,0x1
    262a:	8fb9                	c.xor	a5,a4
    262c:	00f776b3          	and	a3,a4,a5
    2630:	fe068ce3          	beqz	a3,2628 <riscv_dsp_cfft_rd4_q15+0x510>
    2634:	ffe58713          	addi	a4,a1,-2
    2638:	02f77863          	bgeu	a4,a5,2668 <riscv_dsp_cfft_rd4_q15+0x550>
    263c:	4412                	c.lwsp	s0,4(sp)
    263e:	00062e83          	lw	t4,0(a2)
    2642:	0cf406db          	lea.w	a3,s0,a5
    2646:	0006af03          	lw	t5,0(a3)
    264a:	40f00733          	neg	a4,a5
    264e:	01e62023          	sw	t5,0(a2)
    2652:	0ce8875b          	lea.w	a4,a7,a4
    2656:	01d6a023          	sw	t4,0(a3)
    265a:	ffe72e83          	lw	t4,-2(a4)
    265e:	4514                	c.lw	a3,8(a0)
    2660:	01d52423          	sw	t4,8(a0)
    2664:	fed72f23          	sw	a3,-2(a4)
    2668:	4422                	c.lwsp	s0,8(sp)
    266a:	4492                	c.lwsp	s1,4(sp)
    266c:	97a2                	c.add	a5,s0
    266e:	0cf487db          	lea.w	a5,s1,a5
    2672:	4394                	c.lw	a3,0(a5)
    2674:	4258                	c.lw	a4,4(a2)
    2676:	c254                	c.sw	a3,4(a2)
    2678:	c398                	c.sw	a4,0(a5)
    267a:	1685f563          	bgeu	a1,s0,27e4 <riscv_dsp_cfft_rd4_q15+0x6cc>
    267e:	e7c587ff          	bitrev	a5,a1,t3
    2682:	02f5f763          	bgeu	a1,a5,26b0 <riscv_dsp_cfft_rd4_q15+0x598>
    2686:	0cf486db          	lea.w	a3,s1,a5
    268a:	0006af03          	lw	t5,0(a3)
    268e:	00862e83          	lw	t4,8(a2)
    2692:	40f00733          	neg	a4,a5
    2696:	01e62423          	sw	t5,8(a2)
    269a:	0ce8875b          	lea.w	a4,a7,a4
    269e:	01d6a023          	sw	t4,0(a3)
    26a2:	ffe72e83          	lw	t4,-2(a4)
    26a6:	4114                	c.lw	a3,0(a0)
    26a8:	01d52023          	sw	t4,0(a0)
    26ac:	fed72f23          	sw	a3,-2(a4)
    26b0:	4422                	c.lwsp	s0,8(sp)
    26b2:	4654                	c.lw	a3,12(a2)
    26b4:	97a2                	c.add	a5,s0
    26b6:	4412                	c.lwsp	s0,4(sp)
    26b8:	1541                	c.addi	a0,-16
    26ba:	0cf4075b          	lea.w	a4,s0,a5
    26be:	00072e83          	lw	t4,0(a4)
    26c2:	0641                	c.addi	a2,16
    26c4:	ffd62e23          	sw	t4,-4(a2)
    26c8:	0591                	c.addi	a1,4
    26ca:	c314                	c.sw	a3,0(a4)
    26cc:	f51ff06f          	j	261c <riscv_dsp_cfft_rd4_q15+0x504>
    26d0:	f0070513          	addi	a0,a4,-256
    26d4:	40aa85b3          	sub	a1,s5,a0
    26d8:	06b05e63          	blez	a1,2754 <riscv_dsp_cfft_rd4_q15+0x63c>
    26dc:	0ab985db          	lea.h	a1,s3,a1
    26e0:	0005d583          	lhu	a1,0(a1)
    26e4:	014787b3          	add	a5,a5,s4
    26e8:	017797b3          	sll	a5,a5,s7
    26ec:	0aa9875b          	lea.h	a4,s3,a0
    26f0:	40b005b3          	neg	a1,a1
    26f4:	40fa8533          	sub	a0,s5,a5
    26f8:	00071703          	lh	a4,0(a4)
    26fc:	3c05b5db          	bfos	a1,a1,15,0
    2700:	dca04ae3          	bgtz	a0,24d4 <riscv_dsp_cfft_rd4_q15+0x3bc>
    2704:	f0078513          	addi	a0,a5,-256
    2708:	40aa8833          	sub	a6,s5,a0
    270c:	07005c63          	blez	a6,2784 <riscv_dsp_cfft_rd4_q15+0x66c>
    2710:	0b09885b          	lea.h	a6,s3,a6
    2714:	00085e03          	lhu	t3,0(a6)
    2718:	0aa9855b          	lea.h	a0,s3,a0
    271c:	41c00e33          	neg	t3,t3
    2720:	00051503          	lh	a0,0(a0)
    2724:	3c0e3e5b          	bfos	t3,t3,15,0
    2728:	dbdff06f          	j	24e4 <riscv_dsp_cfft_rd4_q15+0x3cc>
    272c:	f0078713          	addi	a4,a5,-256
    2730:	40ea86b3          	sub	a3,s5,a4
    2734:	08d05063          	blez	a3,27b4 <riscv_dsp_cfft_rd4_q15+0x69c>
    2738:	0ad986db          	lea.h	a3,s3,a3
    273c:	0006d603          	lhu	a2,0(a3)
    2740:	0ae9875b          	lea.h	a4,s3,a4
    2744:	40c00633          	neg	a2,a2
    2748:	00071683          	lh	a3,0(a4)
    274c:	3c06365b          	bfos	a2,a2,15,0
    2750:	d55ff06f          	j	24a4 <riscv_dsp_cfft_rd4_q15+0x38c>
    2754:	e0070713          	addi	a4,a4,-512
    2758:	0ae985db          	lea.h	a1,s3,a4
    275c:	0005d583          	lhu	a1,0(a1)
    2760:	40ea8533          	sub	a0,s5,a4
    2764:	0aa9885b          	lea.h	a6,s3,a0
    2768:	40b00733          	neg	a4,a1
    276c:	3c07375b          	bfos	a4,a4,15,0
    2770:	00081583          	lh	a1,0(a6)
    2774:	d4a058e3          	blez	a0,24c4 <riscv_dsp_cfft_rd4_q15+0x3ac>
    2778:	40b00533          	neg	a0,a1
    277c:	85ba                	c.mv	a1,a4
    277e:	3c05375b          	bfos	a4,a0,15,0
    2782:	b389                	c.j	24c4 <riscv_dsp_cfft_rd4_q15+0x3ac>
    2784:	e0078793          	addi	a5,a5,-512
    2788:	0af9855b          	lea.h	a0,s3,a5
    278c:	00055503          	lhu	a0,0(a0)
    2790:	40fa87b3          	sub	a5,s5,a5
    2794:	0af9885b          	lea.h	a6,s3,a5
    2798:	40a00533          	neg	a0,a0
    279c:	00081e03          	lh	t3,0(a6)
    27a0:	3c05355b          	bfos	a0,a0,15,0
    27a4:	d4f050e3          	blez	a5,24e4 <riscv_dsp_cfft_rd4_q15+0x3cc>
    27a8:	41c007b3          	neg	a5,t3
    27ac:	8e2a                	c.mv	t3,a0
    27ae:	3c07b55b          	bfos	a0,a5,15,0
    27b2:	bb0d                	c.j	24e4 <riscv_dsp_cfft_rd4_q15+0x3cc>
    27b4:	e0078793          	addi	a5,a5,-512
    27b8:	0af9875b          	lea.h	a4,s3,a5
    27bc:	00075683          	lhu	a3,0(a4)
    27c0:	40fa87b3          	sub	a5,s5,a5
    27c4:	0af9875b          	lea.h	a4,s3,a5
    27c8:	40d006b3          	neg	a3,a3
    27cc:	00071603          	lh	a2,0(a4)
    27d0:	3c06b6db          	bfos	a3,a3,15,0
    27d4:	ccf058e3          	blez	a5,24a4 <riscv_dsp_cfft_rd4_q15+0x38c>
    27d8:	40c007b3          	neg	a5,a2
    27dc:	8636                	c.mv	a2,a3
    27de:	3c07b6db          	bfos	a3,a5,15,0
    27e2:	b1c9                	c.j	24a4 <riscv_dsp_cfft_rd4_q15+0x38c>
    27e4:	4436                	c.lwsp	s0,76(sp)
    27e6:	44a6                	c.lwsp	s1,72(sp)
    27e8:	4916                	c.lwsp	s2,68(sp)
    27ea:	4986                	c.lwsp	s3,64(sp)
    27ec:	5a72                	c.lwsp	s4,60(sp)
    27ee:	5ae2                	c.lwsp	s5,56(sp)
    27f0:	5b52                	c.lwsp	s6,52(sp)
    27f2:	5bc2                	c.lwsp	s7,48(sp)
    27f4:	5c32                	c.lwsp	s8,44(sp)
    27f6:	5ca2                	c.lwsp	s9,40(sp)
    27f8:	5d12                	c.lwsp	s10,36(sp)
    27fa:	5d82                	c.lwsp	s11,32(sp)
    27fc:	4501                	c.li	a0,0
    27fe:	6161                	c.addi16sp	sp,80
    2800:	8082                	c.jr	ra
    2802:	0001                	c.nop

00002804 <riscv_dsp_cmag_q15>:
    2804:	7179                	c.addi16sp	sp,-48
    2806:	ce4e                	c.swsp	s3,28(sp)
    2808:	cc52                	c.swsp	s4,24(sp)
    280a:	ca56                	c.swsp	s5,20(sp)
    280c:	4785                	c.li	a5,1
    280e:	d606                	c.swsp	ra,44(sp)
    2810:	d422                	c.swsp	s0,40(sp)
    2812:	d226                	c.swsp	s1,36(sp)
    2814:	d04a                	c.swsp	s2,32(sp)
    2816:	c85a                	c.swsp	s6,16(sp)
    2818:	c65e                	c.swsp	s7,12(sp)
    281a:	c462                	c.swsp	s8,8(sp)
    281c:	89b2                	c.mv	s3,a2
    281e:	8aaa                	c.mv	s5,a0
    2820:	8a2e                	c.mv	s4,a1
    2822:	04c7f963          	bgeu	a5,a2,2874 <riscv_dsp_cmag_q15+0x70>
    2826:	8c32                	c.mv	s8,a2
    2828:	8bae                	c.mv	s7,a1
    282a:	8b2a                	c.mv	s6,a0
    282c:	00100913          	li	s2,1
    2830:	000b2503          	lw	a0,0(s6)
    2834:	004b2403          	lw	s0,4(s6)
    2838:	1c79                	c.addi	s8,-2
    283a:	38a5157f          	kmda	a0,a0,a0
    283e:	3884147f          	kmda	s0,s0,s0
    2842:	8545                	c.srai	a0,0x11
    2844:	060000ef          	jal	ra,28a4 <riscv_dsp_sqrt_q15>
    2848:	84aa                	c.mv	s1,a0
    284a:	41145513          	srai	a0,s0,0x11
    284e:	2899                	c.jal	28a4 <riscv_dsp_sqrt_q15>
    2850:	0e9517ff          	pkbb16	a5,a0,s1
    2854:	00fba023          	sw	a5,0(s7)
    2858:	0b21                	c.addi	s6,8
    285a:	0b91                	c.addi	s7,4
    285c:	fd896ae3          	bltu	s2,s8,2830 <riscv_dsp_cmag_q15+0x2c>
    2860:	ffe98793          	addi	a5,s3,-2
    2864:	8385                	c.srli	a5,0x1
    2866:	0785                	c.addi	a5,1
    2868:	0efa8adb          	lea.d	s5,s5,a5
    286c:	0cfa0a5b          	lea.w	s4,s4,a5
    2870:	0019f993          	andi	s3,s3,1
    2874:	00099e63          	bnez	s3,2890 <riscv_dsp_cmag_q15+0x8c>
    2878:	50b2                	c.lwsp	ra,44(sp)
    287a:	5422                	c.lwsp	s0,40(sp)
    287c:	5492                	c.lwsp	s1,36(sp)
    287e:	5902                	c.lwsp	s2,32(sp)
    2880:	49f2                	c.lwsp	s3,28(sp)
    2882:	4a62                	c.lwsp	s4,24(sp)
    2884:	4ad2                	c.lwsp	s5,20(sp)
    2886:	4b42                	c.lwsp	s6,16(sp)
    2888:	4bb2                	c.lwsp	s7,12(sp)
    288a:	4c22                	c.lwsp	s8,8(sp)
    288c:	6145                	c.addi16sp	sp,48
    288e:	8082                	c.jr	ra
    2890:	000aa503          	lw	a0,0(s5)
    2894:	38a5157f          	kmda	a0,a0,a0
    2898:	8545                	c.srai	a0,0x11
    289a:	2029                	c.jal	28a4 <riscv_dsp_sqrt_q15>
    289c:	00aa1023          	sh	a0,0(s4)
    28a0:	bfe1                	c.j	2878 <riscv_dsp_cmag_q15+0x74>
    28a2:	0001                	c.nop

000028a4 <riscv_dsp_sqrt_q15>:
    28a4:	0aa05063          	blez	a0,2944 <riscv_dsp_sqrt_q15+0xa0>
    28a8:	af9505ff          	clz32	a1,a0
    28ac:	ff058293          	addi	t0,a1,-16
    28b0:	ffe2f313          	andi	t1,t0,-2
    28b4:	00651733          	sll	a4,a0,t1
    28b8:	66f9                	c.lui	a3,0x1e
    28ba:	46f7795b          	bbs	a4,15,292c <riscv_dsp_sqrt_q15+0x88>
    28be:	7ae68793          	addi	a5,a3,1966 # 1e7ae <BIN_SIZE+0x19c5e>
    28c2:	00171393          	slli	t2,a4,0x1
    28c6:	6611                	c.lui	a2,0x4
    28c8:	40778833          	sub	a6,a5,t2
    28cc:	2fa60893          	addi	a7,a2,762 # 42fa <__ashldi3+0x22>
    28d0:	03180e33          	mul	t3,a6,a7
    28d4:	40fe5e93          	srai	t4,t3,0xf
    28d8:	40175693          	srai	a3,a4,0x1
    28dc:	03d683b3          	mul	t2,a3,t4
    28e0:	67b1                	c.lui	a5,0xc
    28e2:	00135313          	srli	t1,t1,0x1
    28e6:	40f3d613          	srai	a2,t2,0xf
    28ea:	03d60833          	mul	a6,a2,t4
    28ee:	40f85893          	srai	a7,a6,0xf
    28f2:	41178e33          	sub	t3,a5,a7
    28f6:	03de0eb3          	mul	t4,t3,t4
    28fa:	40fedf13          	srai	t5,t4,0xf
    28fe:	03e68fb3          	mul	t6,a3,t5
    2902:	40ffd593          	srai	a1,t6,0xf
    2906:	03e58533          	mul	a0,a1,t5
    290a:	40f55293          	srai	t0,a0,0xf
    290e:	405786b3          	sub	a3,a5,t0
    2912:	03e683b3          	mul	t2,a3,t5
    2916:	40f3d793          	srai	a5,t2,0xf
    291a:	02e78733          	mul	a4,a5,a4
    291e:	40f75613          	srai	a2,a4,0xf
    2922:	40665333          	sra	t1,a2,t1
    2926:	3c03355b          	bfos	a0,t1,15,0
    292a:	8082                	c.jr	ra
    292c:	7ae68f13          	addi	t5,a3,1966
    2930:	6f8d                	c.lui	t6,0x3
    2932:	40ef05b3          	sub	a1,t5,a4
    2936:	f5cf8513          	addi	a0,t6,-164 # 2f5c <__muldf3+0x33c>
    293a:	02a582b3          	mul	t0,a1,a0
    293e:	40f2de93          	srai	t4,t0,0xf
    2942:	bf59                	c.j	28d8 <riscv_dsp_sqrt_q15+0x34>
    2944:	00a03533          	snez	a0,a0
    2948:	40a00533          	neg	a0,a0
    294c:	8082                	c.jr	ra
    294e:	0001                	c.nop

00002950 <sinf>:
    2950:	3f4917b7          	lui	a5,0x3f491
    2954:	fda78793          	addi	a5,a5,-38 # 3f490fda <_DATA_LMA_START+0x1f48ca2a>
    2958:	e00505d3          	fmv.x.w	a1,fa0
    295c:	7805a75b          	bfoz	a4,a1,30,0
    2960:	02e7ee63          	bltu	a5,a4,299c <sinf+0x4c>
    2964:	398007b7          	lui	a5,0x39800
    2968:	10f76063          	bltu	a4,a5,2a68 <sinf+0x118>
    296c:	10a577d3          	fmul.s	fa5,fa0,fa0
    2970:	801f978b          	addigp	a5,-2048 # 80000 <cst_libm_sincosf>
    2974:	20a505d3          	fmv.s	fa1,fa0
    2978:	6788                	c.flw	fa0,8(a5)
    297a:	63d4                	c.flw	fa3,4(a5)
    297c:	6398                	c.flw	fa4,0(a5)
    297e:	10a7f553          	fmul.s	fa0,fa5,fa0
    2982:	00d57553          	fadd.s	fa0,fa0,fa3
    2986:	10f57553          	fmul.s	fa0,fa0,fa5
    298a:	00e57553          	fadd.s	fa0,fa0,fa4
    298e:	10f57553          	fmul.s	fa0,fa0,fa5
    2992:	10b57553          	fmul.s	fa0,fa0,fa1
    2996:	00a5f553          	fadd.s	fa0,fa1,fa0
    299a:	8082                	c.jr	ra
    299c:	1101                	c.addi	sp,-32
    299e:	464917b7          	lui	a5,0x46491
    29a2:	e4878793          	addi	a5,a5,-440 # 46490e48 <_DATA_LMA_START+0x2648c898>
    29a6:	ce06                	c.swsp	ra,28(sp)
    29a8:	0ee7e863          	bltu	a5,a4,2a98 <sinf+0x148>
    29ac:	c61f978b          	addigp	a5,-928 # 80460 <cst_libm_rredf>
    29b0:	6398                	c.flw	fa4,0(a5)
    29b2:	00080737          	lui	a4,0x80
    29b6:	44872587          	flw	fa1,1096(a4) # 80448 <riscv_dsp_cos_table_q15_1024+0x20c>
    29ba:	10e577d3          	fmul.s	fa5,fa0,fa4
    29be:	6798                	c.flw	fa4,8(a5)
    29c0:	67d0                	c.flw	fa2,12(a5)
    29c2:	6b94                	c.flw	fa3,16(a5)
    29c4:	6bc8                	c.flw	fa0,20(a5)
    29c6:	00b7f7d3          	fadd.s	fa5,fa5,fa1
    29ca:	08b7f7d3          	fsub.s	fa5,fa5,fa1
    29ce:	f00585d3          	fmv.w.x	fa1,a1
    29d2:	10e7f753          	fmul.s	fa4,fa5,fa4
    29d6:	10c7f653          	fmul.s	fa2,fa5,fa2
    29da:	10d7f6d3          	fmul.s	fa3,fa5,fa3
    29de:	08e5f753          	fsub.s	fa4,fa1,fa4
    29e2:	c0079753          	fcvt.w.s	a4,fa5,rtz
    29e6:	08c77753          	fsub.s	fa4,fa4,fa2
    29ea:	10a7f7d3          	fmul.s	fa5,fa5,fa0
    29ee:	00177793          	andi	a5,a4,1
    29f2:	8b09                	c.andi	a4,2
    29f4:	08d77753          	fsub.s	fa4,fa4,fa3
    29f8:	08f77653          	fsub.s	fa2,fa4,fa5
    29fc:	e00605d3          	fmv.x.w	a1,fa2
    2a00:	f0058653          	fmv.w.x	fa2,a1
    2a04:	10c67753          	fmul.s	fa4,fa2,fa2
    2a08:	02078c63          	beqz	a5,2a40 <sinf+0xf0>
    2a0c:	801f978b          	addigp	a5,-2048 # 80000 <cst_libm_sincosf>
    2a10:	6f9c                	c.flw	fa5,24(a5)
    2a12:	6bc8                	c.flw	fa0,20(a5)
    2a14:	6b90                	c.flw	fa2,16(a5)
    2a16:	10f777d3          	fmul.s	fa5,fa4,fa5
    2a1a:	67d4                	c.flw	fa3,12(a5)
    2a1c:	00a7f553          	fadd.s	fa0,fa5,fa0
    2a20:	10e57553          	fmul.s	fa0,fa0,fa4
    2a24:	00c57553          	fadd.s	fa0,fa0,fa2
    2a28:	10e57553          	fmul.s	fa0,fa0,fa4
    2a2c:	00d57553          	fadd.s	fa0,fa0,fa3
    2a30:	00070463          	beqz	a4,2a38 <sinf+0xe8>
    2a34:	20a51553          	fneg.s	fa0,fa0
    2a38:	40f2                	c.lwsp	ra,28(sp)
    2a3a:	6105                	c.addi16sp	sp,32
    2a3c:	00008067          	ret
    2a40:	801f978b          	addigp	a5,-2048 # 80000 <cst_libm_sincosf>
    2a44:	679c                	c.flw	fa5,8(a5)
    2a46:	63c8                	c.flw	fa0,4(a5)
    2a48:	6394                	c.flw	fa3,0(a5)
    2a4a:	10f777d3          	fmul.s	fa5,fa4,fa5
    2a4e:	00a7f553          	fadd.s	fa0,fa5,fa0
    2a52:	10e57553          	fmul.s	fa0,fa0,fa4
    2a56:	00d57553          	fadd.s	fa0,fa0,fa3
    2a5a:	f00586d3          	fmv.w.x	fa3,a1
    2a5e:	10e57553          	fmul.s	fa0,fa0,fa4
    2a62:	10c57553          	fmul.s	fa0,fa0,fa2
    2a66:	b7d9                	c.j	2a2c <sinf+0xdc>
    2a68:	00159693          	slli	a3,a1,0x1
    2a6c:	ff0007b7          	lui	a5,0xff000
    2a70:	02f6e263          	bltu	a3,a5,2a94 <sinf+0x144>
    2a74:	00f68663          	beq	a3,a5,2a80 <sinf+0x130>
    2a78:	00a57553          	fadd.s	fa0,fa0,fa0
    2a7c:	00008067          	ret
    2a80:	02100713          	li	a4,33
    2a84:	f0000553          	fmv.w.x	fa0,zero
    2a88:	18a57553          	fdiv.s	fa0,fa0,fa0
    2a8c:	d8efcfab          	swgp	a4,-612 # 8059c <__mculib_REENT_errno>
    2a90:	00008067          	ret
    2a94:	00008067          	ret
    2a98:	0068                	c.addi4spn	a0,sp,12
    2a9a:	283d                	c.jal	2ad8 <ref__mathlib_rredf2>
    2a9c:	4732                	c.lwsp	a4,12(sp)
    2a9e:	e00505d3          	fmv.x.w	a1,fa0
    2aa2:	02075763          	bgez	a4,2ad0 <sinf+0x180>
    2aa6:	00159693          	slli	a3,a1,0x1
    2aaa:	ff0007b7          	lui	a5,0xff000
    2aae:	f8f6e5e3          	bltu	a3,a5,2a38 <sinf+0xe8>
    2ab2:	00f68563          	beq	a3,a5,2abc <sinf+0x16c>
    2ab6:	00a57553          	fadd.s	fa0,fa0,fa0
    2aba:	bfbd                	c.j	2a38 <sinf+0xe8>
    2abc:	f0000553          	fmv.w.x	fa0,zero
    2ac0:	02100713          	li	a4,33
    2ac4:	18a57553          	fdiv.s	fa0,fa0,fa0
    2ac8:	d8efcfab          	swgp	a4,-612 # 8059c <__mculib_REENT_errno>
    2acc:	f6dff06f          	j	2a38 <sinf+0xe8>
    2ad0:	00177793          	andi	a5,a4,1
    2ad4:	8b09                	c.andi	a4,2
    2ad6:	b72d                	c.j	2a00 <sinf+0xb0>

00002ad8 <ref__mathlib_rredf2>:
    2ad8:	00159713          	slli	a4,a1,0x1
    2adc:	ff0007b7          	lui	a5,0xff000
    2ae0:	12f77c63          	bgeu	a4,a5,2c18 <ref__mathlib_rredf2+0x140>
    2ae4:	7975a7db          	bfoz	a5,a1,30,23
    2ae8:	f8878793          	addi	a5,a5,-120 # feffff88 <_DATA_LMA_START+0xdeffb9d8>
    2aec:	4057d613          	srai	a2,a5,0x5
    2af0:	c79f968b          	addigp	a3,-904 # 80478 <twooverpi.0>
    2af4:	0cc688db          	lea.w	a7,a3,a2
    2af8:	0008a303          	lw	t1,0(a7)
    2afc:	0048a703          	lw	a4,4(a7)
    2b00:	0088a803          	lw	a6,8(a7)
    2b04:	00859e13          	slli	t3,a1,0x8
    2b08:	800008b7          	lui	a7,0x80000
    2b0c:	8bfd                	c.andi	a5,31
    2b0e:	011e6e33          	or	t3,t3,a7
    2b12:	cb8d                	c.beqz	a5,2b44 <ref__mathlib_rredf2+0x6c>
    2b14:	0cc686db          	lea.w	a3,a3,a2
    2b18:	46d0                	c.lw	a2,12(a3)
    2b1a:	02000693          	li	a3,32
    2b1e:	8e9d                	c.sub	a3,a5
    2b20:	00d75eb3          	srl	t4,a4,a3
    2b24:	00d858b3          	srl	a7,a6,a3
    2b28:	00f31333          	sll	t1,t1,a5
    2b2c:	00f71733          	sll	a4,a4,a5
    2b30:	00f81833          	sll	a6,a6,a5
    2b34:	00d656b3          	srl	a3,a2,a3
    2b38:	006ee333          	or	t1,t4,t1
    2b3c:	00e8e733          	or	a4,a7,a4
    2b40:	0106e833          	or	a6,a3,a6
    2b44:	f0ee167f          	mulr64	a2,t3,a4
    2b48:	f10e187f          	mulr64	a6,t3,a6
    2b4c:	f1c3137f          	mulr64	t1,t1,t3
    2b50:	00c88e33          	add	t3,a7,a2
    2b54:	006687b3          	add	a5,a3,t1
    2b58:	011e3733          	sltu	a4,t3,a7
    2b5c:	00e787b3          	add	a5,a5,a4
    2b60:	0b1e6663          	bltu	t3,a7,2c0c <ref__mathlib_rredf2+0x134>
    2b64:	00d7b733          	sltu	a4,a5,a3
    2b68:	00d79693          	slli	a3,a5,0xd
    2b6c:	971e                	c.add	a4,t2
    2b6e:	83cd                	c.srli	a5,0x13
    2b70:	d016f553          	fcvt.s.wu	fa0,a3
    2b74:	07b6                	c.slli	a5,0xd
    2b76:	01a71693          	slli	a3,a4,0x1a
    2b7a:	8fd5                	c.or	a5,a3
    2b7c:	d007f6d3          	fcvt.s.w	fa3,a5
    2b80:	000807b7          	lui	a5,0x80
    2b84:	44c7a707          	flw	fa4,1100(a5) # 8044c <riscv_dsp_cos_table_q15_1024+0x210>
    2b88:	d01e77d3          	fcvt.s.wu	fa5,t3
    2b8c:	000807b7          	lui	a5,0x80
    2b90:	6685                	c.lui	a3,0x1
    2b92:	10e57553          	fmul.s	fa0,fa0,fa4
    2b96:	4507a707          	flw	fa4,1104(a5) # 80450 <riscv_dsp_cos_table_q15_1024+0x214>
    2b9a:	80068693          	addi	a3,a3,-2048 # 800 <analog_read_reg8+0x2c>
    2b9e:	02070713          	addi	a4,a4,32
    2ba2:	10e7f7d3          	fmul.s	fa5,fa5,fa4
    2ba6:	8319                	c.srli	a4,0x6
    2ba8:	00a6f753          	fadd.s	fa4,fa3,fa0
    2bac:	00f775d3          	fadd.s	fa1,fa4,fa5
    2bb0:	e00587d3          	fmv.x.w	a5,fa1
    2bb4:	97b6                	c.add	a5,a3
    2bb6:	76fd                	c.lui	a3,0xfffff
    2bb8:	00d7f7b3          	and	a5,a5,a3
    2bbc:	f00785d3          	fmv.w.x	fa1,a5
    2bc0:	08d5f6d3          	fsub.s	fa3,fa1,fa3
    2bc4:	000806b7          	lui	a3,0x80
    2bc8:	000807b7          	lui	a5,0x80
    2bcc:	4586a607          	flw	fa2,1112(a3) # 80458 <riscv_dsp_cos_table_q15_1024+0x21c>
    2bd0:	000806b7          	lui	a3,0x80
    2bd4:	08a6f553          	fsub.s	fa0,fa3,fa0
    2bd8:	45c6a707          	flw	fa4,1116(a3) # 8045c <riscv_dsp_cos_table_q15_1024+0x220>
    2bdc:	10b67653          	fmul.s	fa2,fa2,fa1
    2be0:	10b77753          	fmul.s	fa4,fa4,fa1
    2be4:	08a7f7d3          	fsub.s	fa5,fa5,fa0
    2be8:	4547a507          	flw	fa0,1108(a5) # 80454 <riscv_dsp_cos_table_q15_1024+0x218>
    2bec:	10a7f553          	fmul.s	fa0,fa5,fa0
    2bf0:	00c57553          	fadd.s	fa0,fa0,fa2
    2bf4:	00e57553          	fadd.s	fa0,fa0,fa4
    2bf8:	0005d863          	bgez	a1,2c08 <ref__mathlib_rredf2+0x130>
    2bfc:	20a51553          	fneg.s	fa0,fa0
    2c00:	100007b7          	lui	a5,0x10000
    2c04:	40e78733          	sub	a4,a5,a4
    2c08:	c118                	c.sw	a4,0(a0)
    2c0a:	8082                	c.jr	ra
    2c0c:	00f6b733          	sltu	a4,a3,a5
    2c10:	00174713          	xori	a4,a4,1
    2c14:	f55ff06f          	j	2b68 <ref__mathlib_rredf2+0x90>
    2c18:	57fd                	c.li	a5,-1
    2c1a:	c11c                	c.sw	a5,0(a0)
    2c1c:	8082                	c.jr	ra
    2c1e:	0001                	c.nop

00002c20 <__muldf3>:
    2c20:	1101                	c.addi	sp,-32
    2c22:	ce22                	c.swsp	s0,28(sp)
    2c24:	cc26                	c.swsp	s1,24(sp)
    2c26:	ca4a                	c.swsp	s2,20(sp)
    2c28:	c84e                	c.swsp	s3,16(sp)
    2c2a:	c652                	c.swsp	s4,12(sp)
    2c2c:	c456                	c.swsp	s5,8(sp)
    2c2e:	c25a                	c.swsp	s6,4(sp)
    2c30:	00202373          	frrm	t1
    2c34:	7945a75b          	bfoz	a4,a1,30,20
    2c38:	4c05a7db          	bfoz	a5,a1,19,0
    2c3c:	81fd                	c.srli	a1,0x1f
    2c3e:	10070963          	beqz	a4,2d50 <__muldf3+0x130>
    2c42:	7ff00813          	li	a6,2047
    2c46:	07070963          	beq	a4,a6,2cb8 <__muldf3+0x98>
    2c4a:	00800837          	lui	a6,0x800
    2c4e:	078e                	c.slli	a5,0x3
    2c50:	01d55293          	srli	t0,a0,0x1d
    2c54:	0107e7b3          	or	a5,a5,a6
    2c58:	c0170e13          	addi	t3,a4,-1023
    2c5c:	00f2e2b3          	or	t0,t0,a5
    2c60:	050e                	c.slli	a0,0x3
    2c62:	4701                	c.li	a4,0
    2c64:	4381                	c.li	t2,0
    2c66:	4801                	c.li	a6,0
    2c68:	7946a8db          	bfoz	a7,a3,30,20
    2c6c:	4c06a7db          	bfoz	a5,a3,19,0
    2c70:	01f6d693          	srli	a3,a3,0x1f
    2c74:	12088a63          	beqz	a7,2da8 <__muldf3+0x188>
    2c78:	7ff00e93          	li	t4,2047
    2c7c:	17d88a63          	beq	a7,t4,2df0 <__muldf3+0x1d0>
    2c80:	00800f37          	lui	t5,0x800
    2c84:	078e                	c.slli	a5,0x3
    2c86:	01d65e93          	srli	t4,a2,0x1d
    2c8a:	01e7e7b3          	or	a5,a5,t5
    2c8e:	c0188893          	addi	a7,a7,-1023 # 7ffffc01 <_DATA_LMA_START+0x5fffb651>
    2c92:	00fee7b3          	or	a5,t4,a5
    2c96:	060e                	c.slli	a2,0x3
    2c98:	9e46                	c.add	t3,a7
    2c9a:	4f01                	c.li	t5,0
    2c9c:	48bd                	c.li	a7,15
    2c9e:	00d5ceb3          	xor	t4,a1,a3
    2ca2:	001e0f93          	addi	t6,t3,1
    2ca6:	16e8e363          	bltu	a7,a4,2e0c <__muldf3+0x1ec>
    2caa:	c99f988b          	addigp	a7,-872 # 80498 <twooverpi.0+0x20>
    2cae:	0ce8875b          	lea.w	a4,a7,a4
    2cb2:	4318                	c.lw	a4,0(a4)
    2cb4:	00070067          	jr	a4
    2cb8:	00a7e2b3          	or	t0,a5,a0
    2cbc:	32028263          	beqz	t0,2fe0 <__muldf3+0x3c0>
    2cc0:	0137d713          	srli	a4,a5,0x13
    2cc4:	82be                	c.mv	t0,a5
    2cc6:	46070563          	beqz	a4,3130 <__muldf3+0x510>
    2cca:	4731                	c.li	a4,12
    2ccc:	7ff00e13          	li	t3,2047
    2cd0:	438d                	c.li	t2,3
    2cd2:	4801                	c.li	a6,0
    2cd4:	f95ff06f          	j	2c68 <__muldf3+0x48>
    2cd8:	00d00eb3          	add	t4,zero,a3
    2cdc:	062f605b          	bnec	t5,2,2d3c <__muldf3+0x11c>
    2ce0:	88f6                	c.mv	a7,t4
    2ce2:	7ff00713          	li	a4,2047
    2ce6:	4781                	c.li	a5,0
    2ce8:	00000613          	li	a2,0
    2cec:	4581                	c.li	a1,0
    2cee:	fff006b7          	lui	a3,0xfff00
    2cf2:	8eed                	c.and	a3,a1
    2cf4:	4c07a7db          	bfoz	a5,a5,19,0
    2cf8:	8fd5                	c.or	a5,a3
    2cfa:	01471693          	slli	a3,a4,0x14
    2cfe:	80100737          	lui	a4,0x80100
    2d02:	177d                	c.addi	a4,-1
    2d04:	8f7d                	c.and	a4,a5
    2d06:	8f55                	c.or	a4,a3
    2d08:	08fe                	c.slli	a7,0x1f
    2d0a:	7807275b          	bfoz	a4,a4,30,0
    2d0e:	8532                	c.mv	a0,a2
    2d10:	011765b3          	or	a1,a4,a7
    2d14:	3e081e63          	bnez	a6,3110 <__muldf3+0x4f0>
    2d18:	4472                	c.lwsp	s0,28(sp)
    2d1a:	44e2                	c.lwsp	s1,24(sp)
    2d1c:	4952                	c.lwsp	s2,20(sp)
    2d1e:	49c2                	c.lwsp	s3,16(sp)
    2d20:	4a32                	c.lwsp	s4,12(sp)
    2d22:	4aa2                	c.lwsp	s5,8(sp)
    2d24:	4b12                	c.lwsp	s6,4(sp)
    2d26:	6105                	c.addi16sp	sp,32
    2d28:	00008067          	ret
    2d2c:	00b00eb3          	add	t4,zero,a1
    2d30:	8f1e                	c.mv	t5,t2
    2d32:	8796                	c.mv	a5,t0
    2d34:	00a00633          	add	a2,zero,a0
    2d38:	ba2f545b          	beqc	t5,2,2ce0 <__muldf3+0xc0>
    2d3c:	363f525b          	beqc	t5,3,30a0 <__muldf3+0x480>
    2d40:	221f685b          	bnec	t5,1,2f70 <__muldf3+0x350>
    2d44:	88f6                	c.mv	a7,t4
    2d46:	4701                	c.li	a4,0
    2d48:	4781                	c.li	a5,0
    2d4a:	4601                	c.li	a2,0
    2d4c:	fa1ff06f          	j	2cec <__muldf3+0xcc>
    2d50:	00a7e2b3          	or	t0,a5,a0
    2d54:	28028063          	beqz	t0,2fd4 <__muldf3+0x3b4>
    2d58:	af97877f          	clz32	a4,a5
    2d5c:	00079663          	bnez	a5,2d68 <__muldf3+0x148>
    2d60:	af95077f          	clz32	a4,a0
    2d64:	02070713          	addi	a4,a4,32 # 80100020 <_DATA_LMA_START+0x600fba70>
    2d68:	ff570893          	addi	a7,a4,-11
    2d6c:	4871                	c.li	a6,28
    2d6e:	3b184b63          	blt	a6,a7,3124 <__muldf3+0x504>
    2d72:	42f5                	c.li	t0,29
    2d74:	ff870813          	addi	a6,a4,-8
    2d78:	411282b3          	sub	t0,t0,a7
    2d7c:	005552b3          	srl	t0,a0,t0
    2d80:	010797b3          	sll	a5,a5,a6
    2d84:	00f2e2b3          	or	t0,t0,a5
    2d88:	01051533          	sll	a0,a0,a6
    2d8c:	c0d00e13          	li	t3,-1011
    2d90:	7946a8db          	bfoz	a7,a3,30,20
    2d94:	40ee0e33          	sub	t3,t3,a4
    2d98:	4c06a7db          	bfoz	a5,a3,19,0
    2d9c:	4701                	c.li	a4,0
    2d9e:	4381                	c.li	t2,0
    2da0:	4801                	c.li	a6,0
    2da2:	82fd                	c.srli	a3,0x1f
    2da4:	ec089ae3          	bnez	a7,2c78 <__muldf3+0x58>
    2da8:	00c7e8b3          	or	a7,a5,a2
    2dac:	24088263          	beqz	a7,2ff0 <__muldf3+0x3d0>
    2db0:	af9788ff          	clz32	a7,a5
    2db4:	00079663          	bnez	a5,2dc0 <__muldf3+0x1a0>
    2db8:	af9608ff          	clz32	a7,a2
    2dbc:	02088893          	addi	a7,a7,32
    2dc0:	ff588f93          	addi	t6,a7,-11
    2dc4:	4ef1                	c.li	t4,28
    2dc6:	35fec963          	blt	t4,t6,3118 <__muldf3+0x4f8>
    2dca:	4ef5                	c.li	t4,29
    2dcc:	ff888f13          	addi	t5,a7,-8
    2dd0:	41fe8eb3          	sub	t4,t4,t6
    2dd4:	01d65eb3          	srl	t4,a2,t4
    2dd8:	01e797b3          	sll	a5,a5,t5
    2ddc:	00fee7b3          	or	a5,t4,a5
    2de0:	01e61633          	sll	a2,a2,t5
    2de4:	411e0e33          	sub	t3,t3,a7
    2de8:	c0de0e13          	addi	t3,t3,-1011
    2dec:	4f01                	c.li	t5,0
    2dee:	b57d                	c.j	2c9c <__muldf3+0x7c>
    2df0:	00c7e8b3          	or	a7,a5,a2
    2df4:	7ffe0e13          	addi	t3,t3,2047
    2df8:	20088263          	beqz	a7,2ffc <__muldf3+0x3dc>
    2dfc:	00376713          	ori	a4,a4,3
    2e00:	4f0d                	c.li	t5,3
    2e02:	e937fd5b          	bbs	a5,19,2c9c <__muldf3+0x7c>
    2e06:	4841                	c.li	a6,16
    2e08:	e95ff06f          	j	2c9c <__muldf3+0x7c>
    2e0c:	6f41                	c.lui	t5,0x10
    2e0e:	ffff0713          	addi	a4,t5,-1 # ffff <BIN_SIZE+0xb4af>
    2e12:	00e678b3          	and	a7,a2,a4
    2e16:	01055393          	srli	t2,a0,0x10
    2e1a:	031385b3          	mul	a1,t2,a7
    2e1e:	8d79                	c.and	a0,a4
    2e20:	01065913          	srli	s2,a2,0x10
    2e24:	02a886b3          	mul	a3,a7,a0
    2e28:	862e                	c.mv	a2,a1
    2e2a:	c4a9167f          	maddr32	a2,s2,a0
    2e2e:	03238733          	mul	a4,t2,s2
    2e32:	0106d413          	srli	s0,a3,0x10
    2e36:	9432                	c.add	s0,a2
    2e38:	00b47463          	bgeu	s0,a1,2e40 <__muldf3+0x220>
    2e3c:	01e70733          	add	a4,a4,t5
    2e40:	6b41                	c.lui	s6,0x10
    2e42:	fffb0f13          	addi	t5,s6,-1 # ffff <BIN_SIZE+0xb4af>
    2e46:	01e7f5b3          	and	a1,a5,t5
    2e4a:	02b38a33          	mul	s4,t2,a1
    2e4e:	0107d993          	srli	s3,a5,0x10
    2e52:	01e47633          	and	a2,s0,t5
    2e56:	01e6f6b3          	and	a3,a3,t5
    2e5a:	0642                	c.slli	a2,0x10
    2e5c:	00d60f33          	add	t5,a2,a3
    2e60:	02b50ab3          	mul	s5,a0,a1
    2e64:	01045493          	srli	s1,s0,0x10
    2e68:	87d2                	c.mv	a5,s4
    2e6a:	c4a997ff          	maddr32	a5,s3,a0
    2e6e:	033383b3          	mul	t2,t2,s3
    2e72:	010ad693          	srli	a3,s5,0x10
    2e76:	96be                	c.add	a3,a5
    2e78:	0146f463          	bgeu	a3,s4,2e80 <__muldf3+0x260>
    2e7c:	016383b3          	add	t2,t2,s6
    2e80:	6b41                	c.lui	s6,0x10
    2e82:	fffb0413          	addi	s0,s6,-1 # ffff <BIN_SIZE+0xb4af>
    2e86:	0102da13          	srli	s4,t0,0x10
    2e8a:	0082f7b3          	and	a5,t0,s0
    2e8e:	031a02b3          	mul	t0,s4,a7
    2e92:	0086f633          	and	a2,a3,s0
    2e96:	82c1                	c.srli	a3,0x10
    2e98:	93b6                	c.add	t2,a3
    2e9a:	0642                	c.slli	a2,0x10
    2e9c:	008afab3          	and	s5,s5,s0
    2ea0:	02f888b3          	mul	a7,a7,a5
    2ea4:	01560433          	add	s0,a2,s5
    2ea8:	94a2                	c.add	s1,s0
    2eaa:	8696                	c.mv	a3,t0
    2eac:	c4f916ff          	maddr32	a3,s2,a5
    2eb0:	03490633          	mul	a2,s2,s4
    2eb4:	0108d513          	srli	a0,a7,0x10
    2eb8:	9536                	c.add	a0,a3
    2eba:	00557363          	bgeu	a0,t0,2ec0 <__muldf3+0x2a0>
    2ebe:	965a                	c.add	a2,s6
    2ec0:	02ba0ab3          	mul	s5,s4,a1
    2ec4:	6b41                	c.lui	s6,0x10
    2ec6:	fffb0293          	addi	t0,s6,-1 # ffff <BIN_SIZE+0xb4af>
    2eca:	005576b3          	and	a3,a0,t0
    2ece:	06c2                	c.slli	a3,0x10
    2ed0:	0058f8b3          	and	a7,a7,t0
    2ed4:	02b78933          	mul	s2,a5,a1
    2ed8:	98b6                	c.add	a7,a3
    2eda:	8141                	c.srli	a0,0x10
    2edc:	9532                	c.add	a0,a2
    2ede:	85d6                	c.mv	a1,s5
    2ee0:	c4f995ff          	maddr32	a1,s3,a5
    2ee4:	034982b3          	mul	t0,s3,s4
    2ee8:	01095693          	srli	a3,s2,0x10
    2eec:	00b687b3          	add	a5,a3,a1
    2ef0:	0157f463          	bgeu	a5,s5,2ef8 <__muldf3+0x2d8>
    2ef4:	016282b3          	add	t0,t0,s6
    2ef8:	65c1                	c.lui	a1,0x10
    2efa:	15fd                	c.addi	a1,-1
    2efc:	00b7f6b3          	and	a3,a5,a1
    2f00:	06c2                	c.slli	a3,0x10
    2f02:	00b975b3          	and	a1,s2,a1
    2f06:	9726                	c.add	a4,s1
    2f08:	96ae                	c.add	a3,a1
    2f0a:	00873633          	sltu	a2,a4,s0
    2f0e:	969e                	c.add	a3,t2
    2f10:	9746                	c.add	a4,a7
    2f12:	00c684b3          	add	s1,a3,a2
    2f16:	011735b3          	sltu	a1,a4,a7
    2f1a:	00a488b3          	add	a7,s1,a0
    2f1e:	00b88433          	add	s0,a7,a1
    2f22:	00c4b633          	sltu	a2,s1,a2
    2f26:	0076b6b3          	sltu	a3,a3,t2
    2f2a:	8ed1                	c.or	a3,a2
    2f2c:	00b435b3          	sltu	a1,s0,a1
    2f30:	83c1                	c.srli	a5,0x10
    2f32:	00a8b533          	sltu	a0,a7,a0
    2f36:	97b6                	c.add	a5,a3
    2f38:	8dc9                	c.or	a1,a0
    2f3a:	00971613          	slli	a2,a4,0x9
    2f3e:	97ae                	c.add	a5,a1
    2f40:	9796                	c.add	a5,t0
    2f42:	01e66633          	or	a2,a2,t5
    2f46:	01745693          	srli	a3,s0,0x17
    2f4a:	07a6                	c.slli	a5,0x9
    2f4c:	00c03633          	snez	a2,a2
    2f50:	835d                	c.srli	a4,0x17
    2f52:	8e59                	c.or	a2,a4
    2f54:	0426                	c.slli	s0,0x9
    2f56:	8fd5                	c.or	a5,a3
    2f58:	8e41                	c.or	a2,s0
    2f5a:	1f87f15b          	bbc	a5,24,313c <__muldf3+0x51c>
    2f5e:	00165713          	srli	a4,a2,0x1
    2f62:	8a05                	c.andi	a2,1
    2f64:	01f79693          	slli	a3,a5,0x1f
    2f68:	8e59                	c.or	a2,a4
    2f6a:	8e55                	c.or	a2,a3
    2f6c:	0017d793          	srli	a5,a5,0x1
    2f70:	3fff8713          	addi	a4,t6,1023
    2f74:	0ae05263          	blez	a4,3018 <__muldf3+0x3f8>
    2f78:	00767693          	andi	a3,a2,7
    2f7c:	c685                	c.beqz	a3,2fa4 <__muldf3+0x384>
    2f7e:	00186813          	ori	a6,a6,1
    2f82:	1c235f5b          	beqc	t1,2,3160 <__muldf3+0x540>
    2f86:	2633535b          	beqc	t1,3,31ec <__muldf3+0x5cc>
    2f8a:	00031d63          	bnez	t1,2fa4 <__muldf3+0x384>
    2f8e:	00f67693          	andi	a3,a2,15
    2f92:	0046d95b          	beqc	a3,4,2fa4 <__muldf3+0x384>
    2f96:	00460693          	addi	a3,a2,4
    2f9a:	00c6b633          	sltu	a2,a3,a2
    2f9e:	97b2                	c.add	a5,a2
    2fa0:	00d00633          	add	a2,zero,a3
    2fa4:	0187f85b          	bbc	a5,24,2fb4 <__muldf3+0x394>
    2fa8:	ff000737          	lui	a4,0xff000
    2fac:	177d                	c.addi	a4,-1
    2fae:	8ff9                	c.and	a5,a4
    2fb0:	400f8713          	addi	a4,t6,1024
    2fb4:	7fe00693          	li	a3,2046
    2fb8:	88f6                	c.mv	a7,t4
    2fba:	18e6c363          	blt	a3,a4,3140 <__muldf3+0x520>
    2fbe:	00365693          	srli	a3,a2,0x3
    2fc2:	01d79613          	slli	a2,a5,0x1d
    2fc6:	8e55                	c.or	a2,a3
    2fc8:	5837a7db          	bfoz	a5,a5,22,3
    2fcc:	7ff77713          	andi	a4,a4,2047
    2fd0:	d1dff06f          	j	2cec <__muldf3+0xcc>
    2fd4:	4711                	c.li	a4,4
    2fd6:	4501                	c.li	a0,0
    2fd8:	4e01                	c.li	t3,0
    2fda:	4385                	c.li	t2,1
    2fdc:	4801                	c.li	a6,0
    2fde:	b169                	c.j	2c68 <__muldf3+0x48>
    2fe0:	4721                	c.li	a4,8
    2fe2:	4501                	c.li	a0,0
    2fe4:	7ff00e13          	li	t3,2047
    2fe8:	4389                	c.li	t2,2
    2fea:	4801                	c.li	a6,0
    2fec:	c7dff06f          	j	2c68 <__muldf3+0x48>
    2ff0:	00176713          	ori	a4,a4,1
    2ff4:	4781                	c.li	a5,0
    2ff6:	4601                	c.li	a2,0
    2ff8:	4f05                	c.li	t5,1
    2ffa:	b14d                	c.j	2c9c <__muldf3+0x7c>
    2ffc:	00276713          	ori	a4,a4,2
    3000:	4781                	c.li	a5,0
    3002:	4601                	c.li	a2,0
    3004:	4f09                	c.li	t5,2
    3006:	b959                	c.j	2c9c <__muldf3+0x7c>
    3008:	4881                	c.li	a7,0
    300a:	7ff00713          	li	a4,2047
    300e:	000807b7          	lui	a5,0x80
    3012:	4601                	c.li	a2,0
    3014:	4841                	c.li	a6,16
    3016:	b9d9                	c.j	2cec <__muldf3+0xcc>
    3018:	4685                	c.li	a3,1
    301a:	8e99                	c.sub	a3,a4
    301c:	eb51                	c.bnez	a4,30b0 <__muldf3+0x490>
    301e:	00767593          	andi	a1,a2,7
    3022:	873e                	c.mv	a4,a5
    3024:	00058a63          	beqz	a1,3038 <__muldf3+0x418>
    3028:	00186813          	ori	a6,a6,1
    302c:	1e23565b          	beqc	t1,2,3218 <__muldf3+0x5f8>
    3030:	1c335c5b          	beqc	t1,3,3208 <__muldf3+0x5e8>
    3034:	1e030663          	beqz	t1,3220 <__muldf3+0x600>
    3038:	01875593          	srli	a1,a4,0x18
    303c:	0015c593          	xori	a1,a1,1
    3040:	0015f593          	andi	a1,a1,1
    3044:	41ef8f93          	addi	t6,t6,1054
    3048:	01f61733          	sll	a4,a2,t6
    304c:	00d65533          	srl	a0,a2,a3
    3050:	01f79fb3          	sll	t6,a5,t6
    3054:	00e03633          	snez	a2,a4
    3058:	00afefb3          	or	t6,t6,a0
    305c:	01f66633          	or	a2,a2,t6
    3060:	00767713          	andi	a4,a2,7
    3064:	00d7d7b3          	srl	a5,a5,a3
    3068:	00070a63          	beqz	a4,307c <__muldf3+0x45c>
    306c:	00186813          	ori	a6,a6,1
    3070:	1c23545b          	beqc	t1,2,3238 <__muldf3+0x618>
    3074:	1c335e5b          	beqc	t1,3,3250 <__muldf3+0x630>
    3078:	14030a63          	beqz	t1,31cc <__muldf3+0x5ac>
    307c:	1777fc5b          	bbc	a5,23,31f4 <__muldf3+0x5d4>
    3080:	00186813          	ori	a6,a6,1
    3084:	4705                	c.li	a4,1
    3086:	4781                	c.li	a5,0
    3088:	00000613          	li	a2,0
    308c:	01d008b3          	add	a7,zero,t4
    3090:	c4058ee3          	beqz	a1,2cec <__muldf3+0xcc>
    3094:	84087c5b          	bbc	a6,0,2cec <__muldf3+0xcc>
    3098:	00286813          	ori	a6,a6,2
    309c:	04c0006f          	j	30e8 <__muldf3+0x4c8>
    30a0:	4881                	c.li	a7,0
    30a2:	7ff00713          	li	a4,2047
    30a6:	000807b7          	lui	a5,0x80
    30aa:	4601                	c.li	a2,0
    30ac:	c41ff06f          	j	2cec <__muldf3+0xcc>
    30b0:	03800593          	li	a1,56
    30b4:	0cd5da63          	bge	a1,a3,3188 <__muldf3+0x568>
    30b8:	8e5d                	c.or	a2,a5
    30ba:	c20d                	c.beqz	a2,30dc <__muldf3+0x4bc>
    30bc:	00186813          	ori	a6,a6,1
    30c0:	01d03633          	snez	a2,t4
    30c4:	00235c5b          	beqc	t1,2,30dc <__muldf3+0x4bc>
    30c8:	ffd30793          	addi	a5,t1,-3
    30cc:	0017b793          	seqz	a5,a5
    30d0:	001eb613          	seqz	a2,t4
    30d4:	40f007b3          	neg	a5,a5
    30d8:	00f67633          	and	a2,a2,a5
    30dc:	00286813          	ori	a6,a6,2
    30e0:	88f6                	c.mv	a7,t4
    30e2:	4701                	c.li	a4,0
    30e4:	00000793          	li	a5,0
    30e8:	4581                	c.li	a1,0
    30ea:	fff006b7          	lui	a3,0xfff00
    30ee:	8eed                	c.and	a3,a1
    30f0:	4c07a7db          	bfoz	a5,a5,19,0
    30f4:	8fd5                	c.or	a5,a3
    30f6:	801006b7          	lui	a3,0x80100
    30fa:	16fd                	c.addi	a3,-1
    30fc:	0752                	c.slli	a4,0x14
    30fe:	8efd                	c.and	a3,a5
    3100:	8f55                	c.or	a4,a3
    3102:	08fe                	c.slli	a7,0x1f
    3104:	7807275b          	bfoz	a4,a4,30,0
    3108:	00c00533          	add	a0,zero,a2
    310c:	011765b3          	or	a1,a4,a7
    3110:	00182073          	csrs	fflags,a6
    3114:	c05ff06f          	j	2d18 <__muldf3+0xf8>
    3118:	fd888793          	addi	a5,a7,-40
    311c:	00f617b3          	sll	a5,a2,a5
    3120:	4601                	c.li	a2,0
    3122:	b1c9                	c.j	2de4 <__muldf3+0x1c4>
    3124:	fd870793          	addi	a5,a4,-40 # feffffd8 <_DATA_LMA_START+0xdeffba28>
    3128:	00f512b3          	sll	t0,a0,a5
    312c:	4501                	c.li	a0,0
    312e:	b9b9                	c.j	2d8c <__muldf3+0x16c>
    3130:	4731                	c.li	a4,12
    3132:	7ff00e13          	li	t3,2047
    3136:	438d                	c.li	t2,3
    3138:	4841                	c.li	a6,16
    313a:	b63d                	c.j	2c68 <__muldf3+0x48>
    313c:	8ff2                	c.mv	t6,t3
    313e:	bd0d                	c.j	2f70 <__muldf3+0x350>
    3140:	02235a5b          	beqc	t1,2,3174 <__muldf3+0x554>
    3144:	0a33505b          	beqc	t1,3,31e4 <__muldf3+0x5c4>
    3148:	02030863          	beqz	t1,3178 <__muldf3+0x558>
    314c:	001007b7          	lui	a5,0x100
    3150:	7fe00713          	li	a4,2046
    3154:	17fd                	c.addi	a5,-1
    3156:	567d                	c.li	a2,-1
    3158:	00586813          	ori	a6,a6,5
    315c:	f8dff06f          	j	30e8 <__muldf3+0x4c8>
    3160:	e40e82e3          	beqz	t4,2fa4 <__muldf3+0x384>
    3164:	00860693          	addi	a3,a2,8
    3168:	00c6b633          	sltu	a2,a3,a2
    316c:	97b2                	c.add	a5,a2
    316e:	8636                	c.mv	a2,a3
    3170:	e35ff06f          	j	2fa4 <__muldf3+0x384>
    3174:	fc0e8ce3          	beqz	t4,314c <__muldf3+0x52c>
    3178:	7ff00713          	li	a4,2047
    317c:	4781                	c.li	a5,0
    317e:	4601                	c.li	a2,0
    3180:	00586813          	ori	a6,a6,5
    3184:	f65ff06f          	j	30e8 <__muldf3+0x4c8>
    3188:	45fd                	c.li	a1,31
    318a:	0cd5dd63          	bge	a1,a3,3264 <__muldf3+0x644>
    318e:	5585                	c.li	a1,-31
    3190:	40e58733          	sub	a4,a1,a4
    3194:	00e7d733          	srl	a4,a5,a4
    3198:	0006d8db          	beqc	a3,32,31a8 <__muldf3+0x588>
    319c:	43ef8f93          	addi	t6,t6,1086
    31a0:	01f797b3          	sll	a5,a5,t6
    31a4:	00f66633          	or	a2,a2,a5
    31a8:	00c03633          	snez	a2,a2
    31ac:	8e59                	c.or	a2,a4
    31ae:	00767793          	andi	a5,a2,7
    31b2:	c3dd                	c.beqz	a5,3258 <__muldf3+0x638>
    31b4:	00186813          	ori	a6,a6,1
    31b8:	06235e5b          	beqc	t1,2,3234 <__muldf3+0x614>
    31bc:	0833585b          	beqc	t1,3,324c <__muldf3+0x62c>
    31c0:	4585                	c.li	a1,1
    31c2:	4781                	c.li	a5,0
    31c4:	02031863          	bnez	t1,31f4 <__muldf3+0x5d4>
    31c8:	4781                	c.li	a5,0
    31ca:	4585                	c.li	a1,1
    31cc:	00f67713          	andi	a4,a2,15
    31d0:	aa47565b          	beqc	a4,4,307c <__muldf3+0x45c>
    31d4:	00460713          	addi	a4,a2,4
    31d8:	00c73633          	sltu	a2,a4,a2
    31dc:	97b2                	c.add	a5,a2
    31de:	863a                	c.mv	a2,a4
    31e0:	e9dff06f          	j	307c <__muldf3+0x45c>
    31e4:	f80e8ae3          	beqz	t4,3178 <__muldf3+0x558>
    31e8:	f65ff06f          	j	314c <__muldf3+0x52c>
    31ec:	da0e9ce3          	bnez	t4,2fa4 <__muldf3+0x384>
    31f0:	f75ff06f          	j	3164 <__muldf3+0x544>
    31f4:	00365713          	srli	a4,a2,0x3
    31f8:	01d79613          	slli	a2,a5,0x1d
    31fc:	8e59                	c.or	a2,a4
    31fe:	5837a7db          	bfoz	a5,a5,22,3
    3202:	4701                	c.li	a4,0
    3204:	e89ff06f          	j	308c <__muldf3+0x46c>
    3208:	e20e98e3          	bnez	t4,3038 <__muldf3+0x418>
    320c:	ff863713          	sltiu	a4,a2,-8
    3210:	00174713          	xori	a4,a4,1
    3214:	973e                	c.add	a4,a5
    3216:	b50d                	c.j	3038 <__muldf3+0x418>
    3218:	e20e80e3          	beqz	t4,3038 <__muldf3+0x418>
    321c:	ff1ff06f          	j	320c <__muldf3+0x5ec>
    3220:	00f67593          	andi	a1,a2,15
    3224:	a045da5b          	beqc	a1,4,3038 <__muldf3+0x418>
    3228:	ffc63713          	sltiu	a4,a2,-4
    322c:	00174713          	xori	a4,a4,1
    3230:	973e                	c.add	a4,a5
    3232:	b519                	c.j	3038 <__muldf3+0x418>
    3234:	4781                	c.li	a5,0
    3236:	4585                	c.li	a1,1
    3238:	e40e82e3          	beqz	t4,307c <__muldf3+0x45c>
    323c:	00860713          	addi	a4,a2,8
    3240:	00c73633          	sltu	a2,a4,a2
    3244:	97b2                	c.add	a5,a2
    3246:	863a                	c.mv	a2,a4
    3248:	e35ff06f          	j	307c <__muldf3+0x45c>
    324c:	4781                	c.li	a5,0
    324e:	4585                	c.li	a1,1
    3250:	e20e96e3          	bnez	t4,307c <__muldf3+0x45c>
    3254:	fe9ff06f          	j	323c <__muldf3+0x61c>
    3258:	820d                	c.srli	a2,0x3
    325a:	88f6                	c.mv	a7,t4
    325c:	4701                	c.li	a4,0
    325e:	4781                	c.li	a5,0
    3260:	e35ff06f          	j	3094 <__muldf3+0x474>
    3264:	4585                	c.li	a1,1
    3266:	bbf9                	c.j	3044 <__muldf3+0x424>
    3268:	0001                	c.nop
	...

0000326c <__floatsidf>:
    326c:	c925                	c.beqz	a0,32dc <__floatsidf+0x70>
    326e:	40a007b3          	neg	a5,a0
    3272:	01f55613          	srli	a2,a0,0x1f
    3276:	f2f5057f          	maxw	a0,a0,a5
    327a:	af95077f          	clz32	a4,a0
    327e:	41e00793          	li	a5,1054
    3282:	8f99                	c.sub	a5,a4
    3284:	46a9                	c.li	a3,10
    3286:	7ff7f793          	andi	a5,a5,2047
    328a:	02e6df63          	bge	a3,a4,32c8 <__floatsidf+0x5c>
    328e:	1755                	c.addi	a4,-11
    3290:	00e516b3          	sll	a3,a0,a4
    3294:	4c06a6db          	bfoz	a3,a3,19,0
    3298:	00000713          	li	a4,0
    329c:	4581                	c.li	a1,0
    329e:	853a                	c.mv	a0,a4
    32a0:	fff00737          	lui	a4,0xfff00
    32a4:	8f6d                	c.and	a4,a1
    32a6:	4c06a6db          	bfoz	a3,a3,19,0
    32aa:	8ed9                	c.or	a3,a4
    32ac:	01479713          	slli	a4,a5,0x14
    32b0:	801007b7          	lui	a5,0x80100
    32b4:	17fd                	c.addi	a5,-1
    32b6:	8ff5                	c.and	a5,a3
    32b8:	8fd9                	c.or	a5,a4
    32ba:	7807a7db          	bfoz	a5,a5,30,0
    32be:	01f61713          	slli	a4,a2,0x1f
    32c2:	00e7e5b3          	or	a1,a5,a4
    32c6:	8082                	c.jr	ra
    32c8:	46ad                	c.li	a3,11
    32ca:	8e99                	c.sub	a3,a4
    32cc:	00d556b3          	srl	a3,a0,a3
    32d0:	0755                	c.addi	a4,21
    32d2:	00e51733          	sll	a4,a0,a4
    32d6:	4c06a6db          	bfoz	a3,a3,19,0
    32da:	b7c9                	c.j	329c <__floatsidf+0x30>
    32dc:	4601                	c.li	a2,0
    32de:	4781                	c.li	a5,0
    32e0:	4681                	c.li	a3,0
    32e2:	4701                	c.li	a4,0
    32e4:	bf65                	c.j	329c <__floatsidf+0x30>
	...

000032e8 <__extendsfdf2>:
    32e8:	e0050753          	fmv.x.w	a4,fa0
    32ec:	002027f3          	frrm	a5
    32f0:	797727db          	bfoz	a5,a4,30,23
    32f4:	00178593          	addi	a1,a5,1 # 80100001 <_DATA_LMA_START+0x600fba51>
    32f8:	0ff5f593          	andi	a1,a1,255
    32fc:	4505                	c.li	a0,1
    32fe:	580726db          	bfoz	a3,a4,22,0
    3302:	01f75613          	srli	a2,a4,0x1f
    3306:	02b55d63          	bge	a0,a1,3340 <__extendsfdf2+0x58>
    330a:	0036d713          	srli	a4,a3,0x3
    330e:	38078793          	addi	a5,a5,896
    3312:	06f6                	c.slli	a3,0x1d
    3314:	4581                	c.li	a1,0
    3316:	8536                	c.mv	a0,a3
    3318:	fff006b7          	lui	a3,0xfff00
    331c:	8eed                	c.and	a3,a1
    331e:	4c07275b          	bfoz	a4,a4,19,0
    3322:	8ed9                	c.or	a3,a4
    3324:	51e7a75b          	bfoz	a4,a5,20,30
    3328:	801007b7          	lui	a5,0x80100
    332c:	17fd                	c.addi	a5,-1
    332e:	8ff5                	c.and	a5,a3
    3330:	8fd9                	c.or	a5,a4
    3332:	7807a7db          	bfoz	a5,a5,30,0
    3336:	01f61713          	slli	a4,a2,0x1f
    333a:	00e7e5b3          	or	a1,a5,a4
    333e:	8082                	c.jr	ra
    3340:	e785                	c.bnez	a5,3368 <__extendsfdf2+0x80>
    3342:	cabd                	c.beqz	a3,33b8 <__extendsfdf2+0xd0>
    3344:	af9685ff          	clz32	a1,a3
    3348:	47a9                	c.li	a5,10
    334a:	06b7db63          	bge	a5,a1,33c0 <__extendsfdf2+0xd8>
    334e:	ff558713          	addi	a4,a1,-11 # fff5 <BIN_SIZE+0xb4a5>
    3352:	00e69733          	sll	a4,a3,a4
    3356:	4681                	c.li	a3,0
    3358:	38900793          	li	a5,905
    335c:	8f8d                	c.sub	a5,a1
    335e:	4c07275b          	bfoz	a4,a4,19,0
    3362:	7ff7f793          	andi	a5,a5,2047
    3366:	b77d                	c.j	3314 <__extendsfdf2+0x2c>
    3368:	c6a1                	c.beqz	a3,33b0 <__extendsfdf2+0xc8>
    336a:	00080737          	lui	a4,0x80
    336e:	0036d793          	srli	a5,a3,0x3
    3372:	00100837          	lui	a6,0x100
    3376:	8fd9                	c.or	a5,a4
    3378:	187d                	c.addi	a6,-1
    337a:	01d69713          	slli	a4,a3,0x1d
    337e:	0107f7b3          	and	a5,a5,a6
    3382:	4566f95b          	bbs	a3,22,33d4 <__extendsfdf2+0xec>
    3386:	4581                	c.li	a1,0
    3388:	853a                	c.mv	a0,a4
    338a:	fff00737          	lui	a4,0xfff00
    338e:	8f6d                	c.and	a4,a1
    3390:	0107f7b3          	and	a5,a5,a6
    3394:	8fd9                	c.or	a5,a4
    3396:	7ff006b7          	lui	a3,0x7ff00
    339a:	8edd                	c.or	a3,a5
    339c:	01f61713          	slli	a4,a2,0x1f
    33a0:	7806a6db          	bfoz	a3,a3,30,0
    33a4:	00e6e5b3          	or	a1,a3,a4
    33a8:	00186073          	csrsi	fflags,16
    33ac:	00008067          	ret
    33b0:	7ff00793          	li	a5,2047
    33b4:	4701                	c.li	a4,0
    33b6:	bfb9                	c.j	3314 <__extendsfdf2+0x2c>
    33b8:	4781                	c.li	a5,0
    33ba:	4701                	c.li	a4,0
    33bc:	f59ff06f          	j	3314 <__extendsfdf2+0x2c>
    33c0:	472d                	c.li	a4,11
    33c2:	8f0d                	c.sub	a4,a1
    33c4:	01558793          	addi	a5,a1,21
    33c8:	00e6d733          	srl	a4,a3,a4
    33cc:	00f696b3          	sll	a3,a3,a5
    33d0:	f89ff06f          	j	3358 <__extendsfdf2+0x70>
    33d4:	4581                	c.li	a1,0
    33d6:	853a                	c.mv	a0,a4
    33d8:	fff00737          	lui	a4,0xfff00
    33dc:	8f6d                	c.and	a4,a1
    33de:	0107f7b3          	and	a5,a5,a6
    33e2:	8fd9                	c.or	a5,a4
    33e4:	7ff006b7          	lui	a3,0x7ff00
    33e8:	8edd                	c.or	a3,a5
    33ea:	01f61713          	slli	a4,a2,0x1f
    33ee:	7806a6db          	bfoz	a3,a3,30,0
    33f2:	00e6e5b3          	or	a1,a3,a4
    33f6:	8082                	c.jr	ra

000033f8 <__truncdfsf2>:
    33f8:	00202873          	frrm	a6
    33fc:	7945a65b          	bfoz	a2,a1,30,20
    3400:	00160693          	addi	a3,a2,1
    3404:	0d65a8db          	bfoz	a7,a1,3,22
    3408:	01d55713          	srli	a4,a0,0x1d
    340c:	7ff6f693          	andi	a3,a3,2047
    3410:	4785                	c.li	a5,1
    3412:	01176733          	or	a4,a4,a7
    3416:	81fd                	c.srli	a1,0x1f
    3418:	00351893          	slli	a7,a0,0x3
    341c:	0cd7da63          	bge	a5,a3,34f0 <__truncdfsf2+0xf8>
    3420:	c8060693          	addi	a3,a2,-896
    3424:	0fe00793          	li	a5,254
    3428:	06d7c863          	blt	a5,a3,3498 <__truncdfsf2+0xa0>
    342c:	10d05e63          	blez	a3,3548 <__truncdfsf2+0x150>
    3430:	051a                	c.slli	a0,0x6
    3432:	00a03533          	snez	a0,a0
    3436:	070e                	c.slli	a4,0x3
    3438:	8f49                	c.or	a4,a0
    343a:	01d8d893          	srli	a7,a7,0x1d
    343e:	01176733          	or	a4,a4,a7
    3442:	00777613          	andi	a2,a4,7
    3446:	4781                	c.li	a5,0
    3448:	4501                	c.li	a0,0
    344a:	ca49                	c.beqz	a2,34dc <__truncdfsf2+0xe4>
    344c:	1628505b          	beqc	a6,2,35ac <__truncdfsf2+0x1b4>
    3450:	0838525b          	beqc	a6,3,34d4 <__truncdfsf2+0xdc>
    3454:	14080463          	beqz	a6,359c <__truncdfsf2+0x1a4>
    3458:	04000637          	lui	a2,0x4000
    345c:	00e67633          	and	a2,a2,a4
    3460:	28078863          	beqz	a5,36f0 <__truncdfsf2+0x2f8>
    3464:	0027e513          	ori	a0,a5,2
    3468:	26060663          	beqz	a2,36d4 <__truncdfsf2+0x2dc>
    346c:	00168693          	addi	a3,a3,1 # 7ff00001 <_DATA_LMA_START+0x5fefba51>
    3470:	0ff00613          	li	a2,255
    3474:	6437275b          	bfoz	a4,a4,25,3
    3478:	0ff6f793          	andi	a5,a3,255
    347c:	0ac68a63          	beq	a3,a2,3530 <__truncdfsf2+0x138>
    3480:	07de                	c.slli	a5,0x17
    3482:	5807275b          	bfoz	a4,a4,22,0
    3486:	05fe                	c.slli	a1,0x1f
    3488:	8fd9                	c.or	a5,a4
    348a:	8fcd                	c.or	a5,a1
    348c:	02051e63          	bnez	a0,34c8 <__truncdfsf2+0xd0>
    3490:	f0078553          	fmv.w.x	fa0,a5
    3494:	00008067          	ret
    3498:	16080c63          	beqz	a6,3610 <__truncdfsf2+0x218>
    349c:	1638545b          	beqc	a6,3,3604 <__truncdfsf2+0x20c>
    34a0:	1e285a5b          	beqc	a6,2,3694 <__truncdfsf2+0x29c>
    34a4:	00500513          	li	a0,5
    34a8:	16080a63          	beqz	a6,361c <__truncdfsf2+0x224>
    34ac:	1e385a5b          	beqc	a6,3,36a0 <__truncdfsf2+0x2a8>
    34b0:	1a285e5b          	beqc	a6,2,366c <__truncdfsf2+0x274>
    34b4:	00800737          	lui	a4,0x800
    34b8:	7f0007b7          	lui	a5,0x7f000
    34bc:	177d                	c.addi	a4,-1
    34be:	8f5d                	c.or	a4,a5
    34c0:	05fe                	c.slli	a1,0x1f
    34c2:	780727db          	bfoz	a5,a4,30,0
    34c6:	8fcd                	c.or	a5,a1
    34c8:	00152073          	csrs	fflags,a0
    34cc:	f0078553          	fmv.w.x	fa0,a5
    34d0:	00008067          	ret
    34d4:	4505                	c.li	a0,1
    34d6:	e199                	c.bnez	a1,34dc <__truncdfsf2+0xe4>
    34d8:	00870713          	addi	a4,a4,8 # 800008 <FLASH_SIZE+0x700008>
    34dc:	04000637          	lui	a2,0x4000
    34e0:	8e79                	c.and	a2,a4
    34e2:	d3d9                	c.beqz	a5,3468 <__truncdfsf2+0x70>
    34e4:	b805725b          	bbc	a0,0,3468 <__truncdfsf2+0x70>
    34e8:	87aa                	c.mv	a5,a0
    34ea:	0027e513          	ori	a0,a5,2
    34ee:	bfad                	c.j	3468 <__truncdfsf2+0x70>
    34f0:	011768b3          	or	a7,a4,a7
    34f4:	e615                	c.bnez	a2,3520 <__truncdfsf2+0x128>
    34f6:	01f59793          	slli	a5,a1,0x1f
    34fa:	f8088be3          	beqz	a7,3490 <__truncdfsf2+0x98>
    34fe:	1828535b          	beqc	a6,2,3684 <__truncdfsf2+0x28c>
    3502:	1238555b          	beqc	a6,3,362c <__truncdfsf2+0x234>
    3506:	4705                	c.li	a4,1
    3508:	4789                	c.li	a5,2
    350a:	4605                	c.li	a2,1
    350c:	1a080463          	beqz	a6,36b4 <__truncdfsf2+0x2bc>
    3510:	83ed                	c.srli	a5,0x1b
    3512:	0017c793          	xori	a5,a5,1
    3516:	8b85                	c.andi	a5,1
    3518:	4505                	c.li	a0,1
    351a:	4681                	c.li	a3,0
    351c:	fa05                	c.bnez	a2,344c <__truncdfsf2+0x54>
    351e:	bf7d                	c.j	34dc <__truncdfsf2+0xe4>
    3520:	08089a63          	bnez	a7,35b4 <__truncdfsf2+0x1bc>
    3524:	05fe                	c.slli	a1,0x1f
    3526:	7f8007b7          	lui	a5,0x7f800
    352a:	8fcd                	c.or	a5,a1
    352c:	f65ff06f          	j	3490 <__truncdfsf2+0x98>
    3530:	00556513          	ori	a0,a0,5
    3534:	f6081ce3          	bnez	a6,34ac <__truncdfsf2+0xb4>
    3538:	05fe                	c.slli	a1,0x1f
    353a:	7f8007b7          	lui	a5,0x7f800
    353e:	8fcd                	c.or	a5,a1
    3540:	00152073          	csrs	fflags,a0
    3544:	f89ff06f          	j	34cc <__truncdfsf2+0xd4>
    3548:	57a5                	c.li	a5,-23
    354a:	0af6c363          	blt	a3,a5,35f0 <__truncdfsf2+0x1f8>
    354e:	4579                	c.li	a0,30
    3550:	008007b7          	lui	a5,0x800
    3554:	8d15                	c.sub	a0,a3
    3556:	437d                	c.li	t1,31
    3558:	8fd9                	c.or	a5,a4
    355a:	0ea34163          	blt	t1,a0,363c <__truncdfsf2+0x244>
    355e:	c8260613          	addi	a2,a2,-894 # 3fffc82 <FLASH_SIZE+0x3effc82>
    3562:	00c89733          	sll	a4,a7,a2
    3566:	00e03733          	snez	a4,a4
    356a:	00c797b3          	sll	a5,a5,a2
    356e:	00a8d8b3          	srl	a7,a7,a0
    3572:	8f5d                	c.or	a4,a5
    3574:	00e8e733          	or	a4,a7,a4
    3578:	01f59793          	slli	a5,a1,0x1f
    357c:	db11                	c.beqz	a4,3490 <__truncdfsf2+0x98>
    357e:	00171793          	slli	a5,a4,0x1
    3582:	0077f693          	andi	a3,a5,7
    3586:	00777613          	andi	a2,a4,7
    358a:	14069763          	bnez	a3,36d8 <__truncdfsf2+0x2e0>
    358e:	83ed                	c.srli	a5,0x1b
    3590:	0017c793          	xori	a5,a5,1
    3594:	8b85                	c.andi	a5,1
    3596:	4501                	c.li	a0,0
    3598:	4681                	c.li	a3,0
    359a:	b749                	c.j	351c <__truncdfsf2+0x124>
    359c:	00f77613          	andi	a2,a4,15
    35a0:	aa465c5b          	beqc	a2,4,3458 <__truncdfsf2+0x60>
    35a4:	00100513          	li	a0,1
    35a8:	0711                	c.addi	a4,4
    35aa:	bf0d                	c.j	34dc <__truncdfsf2+0xe4>
    35ac:	4505                	c.li	a0,1
    35ae:	d59d                	c.beqz	a1,34dc <__truncdfsf2+0xe4>
    35b0:	0721                	c.addi	a4,8
    35b2:	b72d                	c.j	34dc <__truncdfsf2+0xe4>
    35b4:	7ff00793          	li	a5,2047
    35b8:	4501                	c.li	a0,0
    35ba:	00f61963          	bne	a2,a5,35cc <__truncdfsf2+0x1d4>
    35be:	00400537          	lui	a0,0x400
    35c2:	8d79                	c.and	a0,a4
    35c4:	00153513          	seqz	a0,a0
    35c8:	00451513          	slli	a0,a0,0x4
    35cc:	070e                	c.slli	a4,0x3
    35ce:	020007b7          	lui	a5,0x2000
    35d2:	8f5d                	c.or	a4,a5
    35d4:	0ff00693          	li	a3,255
    35d8:	0ff00793          	li	a5,255
    35dc:	00375713          	srli	a4,a4,0x3
    35e0:	08f68a63          	beq	a3,a5,3674 <__truncdfsf2+0x27c>
    35e4:	5807275b          	bfoz	a4,a4,22,0
    35e8:	0ff6f793          	andi	a5,a3,255
    35ec:	e95ff06f          	j	3480 <__truncdfsf2+0x88>
    35f0:	08285a5b          	beqc	a6,2,3684 <__truncdfsf2+0x28c>
    35f4:	02385c5b          	beqc	a6,3,362c <__truncdfsf2+0x234>
    35f8:	0a080863          	beqz	a6,36a8 <__truncdfsf2+0x2b0>
    35fc:	4705                	c.li	a4,1
    35fe:	4681                	c.li	a3,0
    3600:	4785                	c.li	a5,1
    3602:	b5a9                	c.j	344c <__truncdfsf2+0x54>
    3604:	edb1                	c.bnez	a1,3660 <__truncdfsf2+0x268>
    3606:	7f8007b7          	lui	a5,0x7f800
    360a:	4515                	c.li	a0,5
    360c:	ebdff06f          	j	34c8 <__truncdfsf2+0xd0>
    3610:	05fe                	c.slli	a1,0x1f
    3612:	7f8007b7          	lui	a5,0x7f800
    3616:	8fcd                	c.or	a5,a1
    3618:	4515                	c.li	a0,5
    361a:	b57d                	c.j	34c8 <__truncdfsf2+0xd0>
    361c:	577d                	c.li	a4,-1
    361e:	4781                	c.li	a5,0
    3620:	4515                	c.li	a0,5
    3622:	0fe00693          	li	a3,254
    3626:	0711                	c.addi	a4,4
    3628:	eb5ff06f          	j	34dc <__truncdfsf2+0xe4>
    362c:	4605                	c.li	a2,1
    362e:	4705                	c.li	a4,1
    3630:	00200793          	li	a5,2
    3634:	ec059ee3          	bnez	a1,3510 <__truncdfsf2+0x118>
    3638:	07a1                	c.addi	a5,8
    363a:	bdd9                	c.j	3510 <__truncdfsf2+0x118>
    363c:	5779                	c.li	a4,-2
    363e:	8f15                	c.sub	a4,a3
    3640:	00e7d733          	srl	a4,a5,a4
    3644:	000558db          	beqc	a0,32,3654 <__truncdfsf2+0x25c>
    3648:	ca260613          	addi	a2,a2,-862
    364c:	00c797b3          	sll	a5,a5,a2
    3650:	00f8e8b3          	or	a7,a7,a5
    3654:	011038b3          	snez	a7,a7
    3658:	00e8e733          	or	a4,a7,a4
    365c:	f1dff06f          	j	3578 <__truncdfsf2+0x180>
    3660:	577d                	c.li	a4,-1
    3662:	0fe00693          	li	a3,254
    3666:	4515                	c.li	a0,5
    3668:	e05ff06f          	j	346c <__truncdfsf2+0x74>
    366c:	e40584e3          	beqz	a1,34b4 <__truncdfsf2+0xbc>
    3670:	4585                	c.li	a1,1
    3672:	b5d9                	c.j	3538 <__truncdfsf2+0x140>
    3674:	cf21                	c.beqz	a4,36cc <__truncdfsf2+0x2d4>
    3676:	4581                	c.li	a1,0
    3678:	0ff00793          	li	a5,255
    367c:	00400737          	lui	a4,0x400
    3680:	e01ff06f          	j	3480 <__truncdfsf2+0x88>
    3684:	4605                	c.li	a2,1
    3686:	4705                	c.li	a4,1
    3688:	00200793          	li	a5,2
    368c:	e80582e3          	beqz	a1,3510 <__truncdfsf2+0x118>
    3690:	07a1                	c.addi	a5,8
    3692:	bdbd                	c.j	3510 <__truncdfsf2+0x118>
    3694:	d5f1                	c.beqz	a1,3660 <__truncdfsf2+0x268>
    3696:	ff8007b7          	lui	a5,0xff800
    369a:	4515                	c.li	a0,5
    369c:	e2dff06f          	j	34c8 <__truncdfsf2+0xd0>
    36a0:	e8058ce3          	beqz	a1,3538 <__truncdfsf2+0x140>
    36a4:	e11ff06f          	j	34b4 <__truncdfsf2+0xbc>
    36a8:	4785                	c.li	a5,1
    36aa:	4681                	c.li	a3,0
    36ac:	4705                	c.li	a4,1
    36ae:	4505                	c.li	a0,1
    36b0:	ef9ff06f          	j	35a8 <__truncdfsf2+0x1b0>
    36b4:	4705                	c.li	a4,1
    36b6:	4789                	c.li	a5,2
    36b8:	00100613          	li	a2,1
    36bc:	0791                	c.addi	a5,4
    36be:	83ed                	c.srli	a5,0x1b
    36c0:	0017c793          	xori	a5,a5,1
    36c4:	8b85                	c.andi	a5,1
    36c6:	4505                	c.li	a0,1
    36c8:	4681                	c.li	a3,0
    36ca:	bd89                	c.j	351c <__truncdfsf2+0x124>
    36cc:	0ff00793          	li	a5,255
    36d0:	4701                	c.li	a4,0
    36d2:	b37d                	c.j	3480 <__truncdfsf2+0x88>
    36d4:	830d                	c.srli	a4,0x3
    36d6:	b739                	c.j	35e4 <__truncdfsf2+0x1ec>
    36d8:	ba285a5b          	beqc	a6,2,368c <__truncdfsf2+0x294>
    36dc:	b4385c5b          	beqc	a6,3,3634 <__truncdfsf2+0x23c>
    36e0:	e20818e3          	bnez	a6,3510 <__truncdfsf2+0x118>
    36e4:	00f7f693          	andi	a3,a5,15
    36e8:	a246d45b          	beqc	a3,4,3510 <__truncdfsf2+0x118>
    36ec:	fd1ff06f          	j	36bc <__truncdfsf2+0x2c4>
    36f0:	4505                	c.li	a0,1
    36f2:	d6061de3          	bnez	a2,346c <__truncdfsf2+0x74>
    36f6:	b5cd                	c.j	35d8 <__truncdfsf2+0x1e0>

000036f8 <memcpy>:
    36f8:	c63d                	c.beqz	a2,3766 <memcpy+0x6e>
    36fa:	82aa                	c.mv	t0,a0
    36fc:	83b2                	c.mv	t2,a2
    36fe:	fe03f313          	andi	t1,t2,-32
    3702:	9316                	c.add	t1,t0
    3704:	02655863          	bge	a0,t1,3734 <memcpy+0x3c>
    3708:	4190                	c.lw	a2,0(a1)
    370a:	41d4                	c.lw	a3,4(a1)
    370c:	4598                	c.lw	a4,8(a1)
    370e:	45dc                	c.lw	a5,12(a1)
    3710:	c110                	c.sw	a2,0(a0)
    3712:	c154                	c.sw	a3,4(a0)
    3714:	c518                	c.sw	a4,8(a0)
    3716:	c55c                	c.sw	a5,12(a0)
    3718:	4990                	c.lw	a2,16(a1)
    371a:	49d4                	c.lw	a3,20(a1)
    371c:	4d98                	c.lw	a4,24(a1)
    371e:	4ddc                	c.lw	a5,28(a1)
    3720:	c910                	c.sw	a2,16(a0)
    3722:	c954                	c.sw	a3,20(a0)
    3724:	cd18                	c.sw	a4,24(a0)
    3726:	cd5c                	c.sw	a5,28(a0)
    3728:	02058593          	addi	a1,a1,32
    372c:	02050513          	addi	a0,a0,32 # 400020 <FLASH_SIZE+0x300020>
    3730:	fc654ce3          	blt	a0,t1,3708 <memcpy+0x10>
    3734:	ffc3f313          	andi	t1,t2,-4
    3738:	00530333          	add	t1,t1,t0
    373c:	00655863          	bge	a0,t1,374c <memcpy+0x54>
    3740:	4190                	c.lw	a2,0(a1)
    3742:	0591                	c.addi	a1,4
    3744:	c110                	c.sw	a2,0(a0)
    3746:	0511                	c.addi	a0,4
    3748:	fe654ce3          	blt	a0,t1,3740 <memcpy+0x48>
    374c:	00728333          	add	t1,t0,t2
    3750:	00655a63          	bge	a0,t1,3764 <memcpy+0x6c>
    3754:	0005c603          	lbu	a2,0(a1)
    3758:	0585                	c.addi	a1,1
    375a:	00c50023          	sb	a2,0(a0)
    375e:	0505                	c.addi	a0,1
    3760:	fe654ae3          	blt	a0,t1,3754 <memcpy+0x5c>
    3764:	8516                	c.mv	a0,t0
    3766:	8082                	c.jr	ra
    3768:	0001                	c.nop

0000376a <iprintf>:
    376a:	7139                	c.addi16sp	sp,-64
    376c:	d22e                	c.swsp	a1,36(sp)
    376e:	104c                	c.addi4spn	a1,sp,36
    3770:	ce06                	c.swsp	ra,28(sp)
    3772:	d432                	c.swsp	a2,40(sp)
    3774:	d636                	c.swsp	a3,44(sp)
    3776:	d83a                	c.swsp	a4,48(sp)
    3778:	da3e                	c.swsp	a5,52(sp)
    377a:	dc42                	c.swsp	a6,56(sp)
    377c:	de46                	c.swsp	a7,60(sp)
    377e:	c62e                	c.swsp	a1,12(sp)
    3780:	20e1                	c.jal	3848 <viprintf>
    3782:	40f2                	c.lwsp	ra,28(sp)
    3784:	6121                	c.addi16sp	sp,64
    3786:	8082                	c.jr	ra

00003788 <putchar>:
    3788:	3b1002ef          	jal	t0,4338 <__riscv_save_0>
    378c:	1141                	c.addi	sp,-16
    378e:	842a                	c.mv	s0,a0
    3790:	00a107a3          	sb	a0,15(sp)
    3794:	4605                	c.li	a2,1
    3796:	00f10593          	addi	a1,sp,15
    379a:	4505                	c.li	a0,1
    379c:	de1fd0ef          	jal	ra,157c <_write>
    37a0:	e501                	c.bnez	a0,37a8 <putchar+0x20>
    37a2:	4759                	c.li	a4,22
    37a4:	d8efcfab          	swgp	a4,-612 # 8059c <__mculib_REENT_errno>
    37a8:	8522                	c.mv	a0,s0
    37aa:	0141                	c.addi	sp,16
    37ac:	3b10006f          	j	435c <__riscv_restore_0>

000037b0 <puts>:
    37b0:	389002ef          	jal	t0,4338 <__riscv_save_0>
    37b4:	1101                	c.addi	sp,-32
    37b6:	c62a                	c.swsp	a0,12(sp)
    37b8:	2035                	c.jal	37e4 <strlen>
    37ba:	45b2                	c.lwsp	a1,12(sp)
    37bc:	862a                	c.mv	a2,a0
    37be:	4505                	c.li	a0,1
    37c0:	dbdfd0ef          	jal	ra,157c <_write>
    37c4:	00054e63          	bltz	a0,37e0 <puts+0x30>
    37c8:	47a9                	c.li	a5,10
    37ca:	4605                	c.li	a2,1
    37cc:	01f10593          	addi	a1,sp,31
    37d0:	4505                	c.li	a0,1
    37d2:	00f10fa3          	sb	a5,31(sp)
    37d6:	da7fd0ef          	jal	ra,157c <_write>
    37da:	6105                	c.addi16sp	sp,32
    37dc:	3810006f          	j	435c <__riscv_restore_0>
    37e0:	557d                	c.li	a0,-1
    37e2:	bfe5                	c.j	37da <puts+0x2a>

000037e4 <strlen>:
    37e4:	87aa                	c.mv	a5,a0
    37e6:	00350693          	addi	a3,a0,3
    37ea:	9af1                	c.andi	a3,-4
    37ec:	00d50863          	beq	a0,a3,37fc <strlen+0x18>
    37f0:	00054583          	lbu	a1,0(a0)
    37f4:	c991                	c.beqz	a1,3808 <strlen+0x24>
    37f6:	0505                	c.addi	a0,1
    37f8:	fed51ce3          	bne	a0,a3,37f0 <strlen+0xc>
    37fc:	410c                	c.lw	a1,0(a0)
    37fe:	200585db          	ffb	a1,a1,zero
    3802:	0511                	c.addi	a0,4
    3804:	dde5                	c.beqz	a1,37fc <strlen+0x18>
    3806:	952e                	c.add	a0,a1
    3808:	8d1d                	c.sub	a0,a5
    380a:	8082                	c.jr	ra
    380c:	0001                	c.nop

0000380e <__vprintf_help>:
    380e:	32b002ef          	jal	t0,4338 <__riscv_save_0>
    3812:	dabfa7ab          	lwgp	a5,-600 # 805a8 <__printf_count>
    3816:	0785                	c.addi	a5,1
    3818:	daffc5ab          	swgp	a5,-600 # 805a8 <__printf_count>
    381c:	da7fa5ab          	lwgp	a1,-604 # 805a4 <__vprintf_buf>
    3820:	da3fa7ab          	lwgp	a5,-608 # 805a0 <__vprintf_buf_len>
    3824:	00178713          	addi	a4,a5,1 # ff800001 <_DATA_LMA_START+0xdf7fba51>
    3828:	97ae                	c.add	a5,a1
    382a:	daefc1ab          	swgp	a4,-608 # 805a0 <__vprintf_buf_len>
    382e:	00a78023          	sb	a0,0(a5)
    3832:	4007695b          	bnec	a4,64,3844 <__vprintf_help+0x36>
    3836:	04000613          	li	a2,64
    383a:	4505                	c.li	a0,1
    383c:	d41fd0ef          	jal	ra,157c <_write>
    3840:	da0fc1ab          	swgp	zero,-608 # 805a0 <__vprintf_buf_len>
    3844:	3190006f          	j	435c <__riscv_restore_0>

00003848 <viprintf>:
    3848:	1141                	c.addi	sp,-16
    384a:	c606                	c.swsp	ra,12(sp)
    384c:	c422                	c.swsp	s0,8(sp)
    384e:	c226                	c.swsp	s1,4(sp)
    3850:	0800                	c.addi4spn	s0,sp,16
    3852:	c04a                	c.swsp	s2,0(sp)
    3854:	715d                	c.addi16sp	sp,-80
    3856:	00f10793          	addi	a5,sp,15
    385a:	00004637          	lui	a2,0x4
    385e:	9bc1                	c.andi	a5,-16
    3860:	80e60613          	addi	a2,a2,-2034 # 380e <__vprintf_help>
    3864:	daffc3ab          	swgp	a5,-604 # 805a4 <__vprintf_buf>
    3868:	da0fc1ab          	swgp	zero,-608 # 805a0 <__vprintf_buf_len>
    386c:	20b5                	c.jal	38d8 <__printf_impl>
    386e:	da3fa62b          	lwgp	a2,-608 # 805a0 <__vprintf_buf_len>
    3872:	da7fa5ab          	lwgp	a1,-604 # 805a4 <__vprintf_buf>
    3876:	4505                	c.li	a0,1
    3878:	d05fd0ef          	jal	ra,157c <_write>
    387c:	dabfa52b          	lwgp	a0,-600 # 805a8 <__printf_count>
    3880:	ff040113          	addi	sp,s0,-16
    3884:	40b2                	c.lwsp	ra,12(sp)
    3886:	4422                	c.lwsp	s0,8(sp)
    3888:	4492                	c.lwsp	s1,4(sp)
    388a:	4902                	c.lwsp	s2,0(sp)
    388c:	0141                	c.addi	sp,16
    388e:	8082                	c.jr	ra

00003890 <__print_integral>:
    3890:	2a9002ef          	jal	t0,4338 <__riscv_save_0>
    3894:	1101                	c.addi	sp,-32
    3896:	842a                	c.mv	s0,a0
    3898:	84ae                	c.mv	s1,a1
    389a:	8932                	c.mv	s2,a2
    389c:	c636                	c.swsp	a3,12(sp)
    389e:	853a                	c.mv	a0,a4
    38a0:	85be                	c.mv	a1,a5
    38a2:	0830                	c.addi4spn	a2,sp,24
    38a4:	ca3e                	c.swsp	a5,20(sp)
    38a6:	2169                	c.jal	3d30 <__int_to_poly>
    38a8:	46b2                	c.lwsp	a3,12(sp)
    38aa:	882a                	c.mv	a6,a0
    38ac:	083c                	c.addi4spn	a5,sp,24
    38ae:	0858                	c.addi4spn	a4,sp,20
    38b0:	864a                	c.mv	a2,s2
    38b2:	85a6                	c.mv	a1,s1
    38b4:	8522                	c.mv	a0,s0
    38b6:	2969                	c.jal	3d50 <__print_integral_poly>
    38b8:	cd9f978b          	addigp	a5,-808 # 804d8 <__digits>
    38bc:	00a46563          	bltu	s0,a0,38c6 <__print_integral+0x36>
    38c0:	6105                	c.addi16sp	sp,32
    38c2:	29b0006f          	j	435c <__riscv_restore_0>
    38c6:	00044703          	lbu	a4,0(s0)
    38ca:	0405                	c.addi	s0,1
    38cc:	973e                	c.add	a4,a5
    38ce:	00074703          	lbu	a4,0(a4) # 400000 <FLASH_SIZE+0x300000>
    38d2:	fee40fa3          	sb	a4,-1(s0)
    38d6:	b7dd                	c.j	38bc <__print_integral+0x2c>

000038d8 <__printf_impl>:
    38d8:	231002ef          	jal	t0,4308 <__riscv_save_12>
    38dc:	a6010113          	addi	sp,sp,-1440
    38e0:	6b85                	c.lui	s7,0x1
    38e2:	842e                	c.mv	s0,a1
    38e4:	ce9f958b          	addigp	a1,-792 # 804e8 <__digits+0x10>
    38e8:	892a                	c.mv	s2,a0
    38ea:	89b2                	c.mv	s3,a2
    38ec:	01c10a93          	addi	s5,sp,28
    38f0:	800b8b93          	addi	s7,s7,-2048 # 800 <analog_read_reg8+0x2c>
    38f4:	da0fc5ab          	swgp	zero,-600 # 805a8 <__printf_count>
    38f8:	c42e                	c.swsp	a1,8(sp)
    38fa:	00094503          	lbu	a0,0(s2)
    38fe:	e509                	c.bnez	a0,3908 <__printf_impl+0x30>
    3900:	5a010113          	addi	sp,sp,1440
    3904:	2410006f          	j	4344 <__riscv_restore_12>
    3908:	00190493          	addi	s1,s2,1
    390c:	005555db          	beqc	a0,37,3916 <__printf_impl+0x3e>
    3910:	9982                	c.jalr	s3
    3912:	8926                	c.mv	s2,s1
    3914:	b7dd                	c.j	38fa <__printf_impl+0x22>
    3916:	00194783          	lbu	a5,1(s2)
    391a:	0057e8db          	bnec	a5,37,392a <__printf_impl+0x52>
    391e:	02500513          	li	a0,37
    3922:	00290493          	addi	s1,s2,2
    3926:	9982                	c.jalr	s3
    3928:	b7ed                	c.j	3912 <__printf_impl+0x3a>
    392a:	4681                	c.li	a3,0
    392c:	4701                	c.li	a4,0
    392e:	d002                	c.swsp	zero,32(sp)
    3930:	0004c783          	lbu	a5,0(s1)
    3934:	0007e7db          	bnec	a5,32,3942 <__printf_impl+0x6a>
    3938:	00276713          	ori	a4,a4,2
    393c:	0485                	c.addi	s1,1
    393e:	4685                	c.li	a3,1
    3940:	bfc5                	c.j	3930 <__printf_impl+0x58>
    3942:	00d7e5db          	bnec	a5,45,394c <__printf_impl+0x74>
    3946:	00476713          	ori	a4,a4,4
    394a:	bfcd                	c.j	393c <__printf_impl+0x64>
    394c:	00b7e5db          	bnec	a5,43,3956 <__printf_impl+0x7e>
    3950:	00876713          	ori	a4,a4,8
    3954:	b7e5                	c.j	393c <__printf_impl+0x64>
    3956:	0037e5db          	bnec	a5,35,3960 <__printf_impl+0x88>
    395a:	01076713          	ori	a4,a4,16
    395e:	bff9                	c.j	393c <__printf_impl+0x64>
    3960:	0107e5db          	bnec	a5,48,396a <__printf_impl+0x92>
    3964:	02076713          	ori	a4,a4,32
    3968:	bfd1                	c.j	393c <__printf_impl+0x64>
    396a:	c291                	c.beqz	a3,396e <__printf_impl+0x96>
    396c:	d03a                	c.swsp	a4,32(sp)
    396e:	04a7eadb          	bnec	a5,42,39c2 <__printf_impl+0xea>
    3972:	00042a03          	lw	s4,0(s0)
    3976:	00440713          	addi	a4,s0,4
    397a:	000a5863          	bgez	s4,398a <__printf_impl+0xb2>
    397e:	5782                	c.lwsp	a5,32(sp)
    3980:	41400a33          	neg	s4,s4
    3984:	0047e793          	ori	a5,a5,4
    3988:	d03e                	c.swsp	a5,32(sp)
    398a:	0485                	c.addi	s1,1
    398c:	843a                	c.mv	s0,a4
    398e:	0004c783          	lbu	a5,0(s1)
    3992:	5dfd                	c.li	s11,-1
    3994:	06e7e4db          	bnec	a5,46,39fc <__printf_impl+0x124>
    3998:	0014c783          	lbu	a5,1(s1)
    399c:	04a7dbdb          	beqc	a5,42,39f2 <__printf_impl+0x11a>
    39a0:	0485                	c.addi	s1,1
    39a2:	4d81                	c.li	s11,0
    39a4:	4725                	c.li	a4,9
    39a6:	4629                	c.li	a2,10
    39a8:	0004c783          	lbu	a5,0(s1)
    39ac:	fd078793          	addi	a5,a5,-48
    39b0:	0ff7f693          	andi	a3,a5,255
    39b4:	04d76463          	bltu	a4,a3,39fc <__printf_impl+0x124>
    39b8:	c4cd97ff          	maddr32	a5,s11,a2
    39bc:	0485                	c.addi	s1,1
    39be:	8dbe                	c.mv	s11,a5
    39c0:	b7e5                	c.j	39a8 <__printf_impl+0xd0>
    39c2:	fd078793          	addi	a5,a5,-48
    39c6:	0ff7f793          	andi	a5,a5,255
    39ca:	4725                	c.li	a4,9
    39cc:	4a01                	c.li	s4,0
    39ce:	fcf760e3          	bltu	a4,a5,398e <__printf_impl+0xb6>
    39d2:	4725                	c.li	a4,9
    39d4:	4629                	c.li	a2,10
    39d6:	a029                	c.j	39e0 <__printf_impl+0x108>
    39d8:	c4ca17ff          	maddr32	a5,s4,a2
    39dc:	0485                	c.addi	s1,1
    39de:	8a3e                	c.mv	s4,a5
    39e0:	0004c783          	lbu	a5,0(s1)
    39e4:	fd078793          	addi	a5,a5,-48
    39e8:	0ff7f693          	andi	a3,a5,255
    39ec:	fed776e3          	bgeu	a4,a3,39d8 <__printf_impl+0x100>
    39f0:	bf79                	c.j	398e <__printf_impl+0xb6>
    39f2:	401c                	c.lw	a5,0(s0)
    39f4:	0489                	c.addi	s1,2
    39f6:	0411                	c.addi	s0,4
    39f8:	f2fd8dff          	maxw	s11,s11,a5
    39fc:	43200613          	li	a2,1074
    3a00:	0004c783          	lbu	a5,0(s1)
    3a04:	f0cd867f          	minw	a2,s11,a2
    3a08:	4687e8db          	bnec	a5,104,3a78 <__printf_impl+0x1a0>
    3a0c:	5782                	c.lwsp	a5,32(sp)
    3a0e:	0014c703          	lbu	a4,1(s1)
    3a12:	44876ddb          	bnec	a4,104,3a6c <__printf_impl+0x194>
    3a16:	0407e793          	ori	a5,a5,64
    3a1a:	00248913          	addi	s2,s1,2
    3a1e:	d03e                	c.swsp	a5,32(sp)
    3a20:	00094503          	lbu	a0,0(s2)
    3a24:	07800793          	li	a5,120
    3a28:	24a7e063          	bltu	a5,a0,3c68 <__printf_impl+0x390>
    3a2c:	05700793          	li	a5,87
    3a30:	06a7ee63          	bltu	a5,a0,3aac <__printf_impl+0x1d4>
    3a34:	4015595b          	beqc	a0,65,3a46 <__printf_impl+0x16e>
    3a38:	fbb50793          	addi	a5,a0,-69
    3a3c:	0ff7f793          	andi	a5,a5,255
    3a40:	4709                	c.li	a4,2
    3a42:	22f76363          	bltu	a4,a5,3c68 <__printf_impl+0x390>
    3a46:	00740593          	addi	a1,s0,7
    3a4a:	99e1                	c.andi	a1,-8
    3a4c:	0005a803          	lw	a6,0(a1)
    3a50:	0045a883          	lw	a7,4(a1)
    3a54:	87aa                	c.mv	a5,a0
    3a56:	02057c93          	andi	s9,a0,32
    3a5a:	00858413          	addi	s0,a1,8
    3a5e:	86c2                	c.mv	a3,a6
    3a60:	8746                	c.mv	a4,a7
    3a62:	100c                	c.addi4spn	a1,sp,32
    3a64:	1048                	c.addi4spn	a0,sp,36
    3a66:	2e85                	c.jal	3dd6 <__printf_float_impl>
    3a68:	84aa                	c.mv	s1,a0
    3a6a:	a8bd                	c.j	3ae8 <__printf_impl+0x210>
    3a6c:	0807e793          	ori	a5,a5,128
    3a70:	00148913          	addi	s2,s1,1
    3a74:	d03e                	c.swsp	a5,32(sp)
    3a76:	b76d                	c.j	3a20 <__printf_impl+0x148>
    3a78:	40c7eddb          	bnec	a5,108,3a92 <__printf_impl+0x1ba>
    3a7c:	5782                	c.lwsp	a5,32(sp)
    3a7e:	0014c703          	lbu	a4,1(s1)
    3a82:	40c765db          	bnec	a4,108,3a8c <__printf_impl+0x1b4>
    3a86:	2007e793          	ori	a5,a5,512
    3a8a:	bf41                	c.j	3a1a <__printf_impl+0x142>
    3a8c:	1007e793          	ori	a5,a5,256
    3a90:	b7c5                	c.j	3a70 <__printf_impl+0x198>
    3a92:	00148913          	addi	s2,s1,1
    3a96:	41a7e7db          	bnec	a5,122,3aa4 <__printf_impl+0x1cc>
    3a9a:	5782                	c.lwsp	a5,32(sp)
    3a9c:	1007e793          	ori	a5,a5,256
    3aa0:	d03e                	c.swsp	a5,32(sp)
    3aa2:	bfbd                	c.j	3a20 <__printf_impl+0x148>
    3aa4:	ff47dbdb          	beqc	a5,116,3a9a <__printf_impl+0x1c2>
    3aa8:	8926                	c.mv	s2,s1
    3aaa:	bf9d                	c.j	3a20 <__printf_impl+0x148>
    3aac:	fa850793          	addi	a5,a0,-88
    3ab0:	0ff7f793          	andi	a5,a5,255
    3ab4:	02000713          	li	a4,32
    3ab8:	1af76863          	bltu	a4,a5,3c68 <__printf_impl+0x390>
    3abc:	45a2                	c.lwsp	a1,8(sp)
    3abe:	0cf587db          	lea.w	a5,a1,a5
    3ac2:	439c                	c.lw	a5,0(a5)
    3ac4:	8782                	c.jr	a5
    3ac6:	45a9                	c.li	a1,10
    3ac8:	5782                	c.lwsp	a5,32(sp)
    3aca:	1267f25b          	bbc	a5,6,3bee <__printf_impl+0x316>
    3ace:	00044703          	lbu	a4,0(s0)
    3ad2:	00440d13          	addi	s10,s0,4
    3ad6:	4781                	c.li	a5,0
    3ad8:	a281                	c.j	3c18 <__printf_impl+0x340>
    3ada:	401c                	c.lw	a5,0(s0)
    3adc:	4c81                	c.li	s9,0
    3ade:	0411                	c.addi	s0,4
    3ae0:	02510493          	addi	s1,sp,37
    3ae4:	02f10223          	sb	a5,36(sp)
    3ae8:	02410c13          	addi	s8,sp,36
    3aec:	a01d                	c.j	3b12 <__printf_impl+0x23a>
    3aee:	00042c03          	lw	s8,0(s0)
    3af2:	85b2                	c.mv	a1,a2
    3af4:	8562                	c.mv	a0,s8
    3af6:	c632                	c.swsp	a2,12(sp)
    3af8:	2739                	c.jal	4206 <strnlen>
    3afa:	57fd                	c.li	a5,-1
    3afc:	00440c93          	addi	s9,s0,4
    3b00:	00fd8563          	beq	s11,a5,3b0a <__printf_impl+0x232>
    3b04:	4632                	c.lwsp	a2,12(sp)
    3b06:	f0c5057f          	minw	a0,a0,a2
    3b0a:	8466                	c.mv	s0,s9
    3b0c:	00ac04b3          	add	s1,s8,a0
    3b10:	4c81                	c.li	s9,0
    3b12:	5782                	c.lwsp	a5,32(sp)
    3b14:	02d00693          	li	a3,45
    3b18:	40a7fb5b          	bbs	a5,10,3b2e <__printf_impl+0x256>
    3b1c:	02b00693          	li	a3,43
    3b20:	4037f75b          	bbs	a5,3,3b2e <__printf_impl+0x256>
    3b24:	8d56                	c.mv	s10,s5
    3b26:	0017f85b          	bbc	a5,1,3b36 <__printf_impl+0x25e>
    3b2a:	02000693          	li	a3,32
    3b2e:	01d10d13          	addi	s10,sp,29
    3b32:	00d10e23          	sb	a3,28(sp)
    3b36:	0177f6b3          	and	a3,a5,s7
    3b3a:	ca91                	c.beqz	a3,3b4e <__printf_impl+0x276>
    3b3c:	03000693          	li	a3,48
    3b40:	00dd0023          	sb	a3,0(s10)
    3b44:	05800693          	li	a3,88
    3b48:	00dd00a3          	sb	a3,1(s10)
    3b4c:	0d09                	c.addi	s10,2
    3b4e:	5627f75b          	bbs	a5,2,3cbc <__printf_impl+0x3e4>
    3b52:	41848db3          	sub	s11,s1,s8
    3b56:	4057f95b          	bbs	a5,5,3b68 <__printf_impl+0x290>
    3b5a:	41ba07b3          	sub	a5,s4,s11
    3b5e:	415d06b3          	sub	a3,s10,s5
    3b62:	8f95                	c.sub	a5,a3
    3b64:	16f04a63          	bgtz	a5,3cd8 <__printf_impl+0x400>
    3b68:	87d6                	c.mv	a5,s5
    3b6a:	a271                	c.j	3cf6 <__printf_impl+0x41e>
    3b6c:	5682                	c.lwsp	a3,32(sp)
    3b6e:	0266f55b          	bbc	a3,6,3b98 <__printf_impl+0x2c0>
    3b72:	00040703          	lb	a4,0(s0)
    3b76:	00440d13          	addi	s10,s0,4
    3b7a:	41f75793          	srai	a5,a4,0x1f
    3b7e:	0407d463          	bgez	a5,3bc6 <__printf_impl+0x2ee>
    3b82:	00e035b3          	snez	a1,a4
    3b86:	40f007b3          	neg	a5,a5
    3b8a:	40e00733          	neg	a4,a4
    3b8e:	8f8d                	c.sub	a5,a1
    3b90:	4006e693          	ori	a3,a3,1024
    3b94:	d036                	c.swsp	a3,32(sp)
    3b96:	a805                	c.j	3bc6 <__printf_impl+0x2ee>
    3b98:	0076f75b          	bbc	a3,7,3ba6 <__printf_impl+0x2ce>
    3b9c:	00041703          	lh	a4,0(s0)
    3ba0:	00440d13          	addi	s10,s0,4
    3ba4:	bfd9                	c.j	3b7a <__printf_impl+0x2a2>
    3ba6:	0086f65b          	bbc	a3,8,3bb2 <__printf_impl+0x2da>
    3baa:	4018                	c.lw	a4,0(s0)
    3bac:	00440d13          	addi	s10,s0,4
    3bb0:	b7e9                	c.j	3b7a <__printf_impl+0x2a2>
    3bb2:	be96fc5b          	bbc	a3,9,3baa <__printf_impl+0x2d2>
    3bb6:	041d                	c.addi	s0,7
    3bb8:	9861                	c.andi	s0,-8
    3bba:	405c                	c.lw	a5,4(s0)
    3bbc:	4018                	c.lw	a4,0(s0)
    3bbe:	00840d13          	addi	s10,s0,8
    3bc2:	0007c963          	bltz	a5,3bd4 <__printf_impl+0x2fc>
    3bc6:	56fd                	c.li	a3,-1
    3bc8:	45a9                	c.li	a1,10
    3bca:	4c81                	c.li	s9,0
    3bcc:	04dd9b63          	bne	s11,a3,3c22 <__printf_impl+0x34a>
    3bd0:	4605                	c.li	a2,1
    3bd2:	a0bd                	c.j	3c40 <__printf_impl+0x368>
    3bd4:	f75d                	c.bnez	a4,3b82 <__printf_impl+0x2aa>
    3bd6:	800005b7          	lui	a1,0x80000
    3bda:	fab794e3          	bne	a5,a1,3b82 <__printf_impl+0x2aa>
    3bde:	4701                	c.li	a4,0
    3be0:	800007b7          	lui	a5,0x80000
    3be4:	b775                	c.j	3b90 <__printf_impl+0x2b8>
    3be6:	45c1                	c.li	a1,16
    3be8:	b5c5                	c.j	3ac8 <__printf_impl+0x1f0>
    3bea:	45a1                	c.li	a1,8
    3bec:	bdf1                	c.j	3ac8 <__printf_impl+0x1f0>
    3bee:	0077f75b          	bbc	a5,7,3bfc <__printf_impl+0x324>
    3bf2:	00045703          	lhu	a4,0(s0)
    3bf6:	00440d13          	addi	s10,s0,4
    3bfa:	bdf1                	c.j	3ad6 <__printf_impl+0x1fe>
    3bfc:	0087f65b          	bbc	a5,8,3c08 <__printf_impl+0x330>
    3c00:	4018                	c.lw	a4,0(s0)
    3c02:	00440d13          	addi	s10,s0,4
    3c06:	bdc1                	c.j	3ad6 <__printf_impl+0x1fe>
    3c08:	be97fc5b          	bbc	a5,9,3c00 <__printf_impl+0x328>
    3c0c:	041d                	c.addi	s0,7
    3c0e:	9861                	c.andi	s0,-8
    3c10:	4018                	c.lw	a4,0(s0)
    3c12:	405c                	c.lw	a5,4(s0)
    3c14:	00840d13          	addi	s10,s0,8
