
Andes_DSP_q15_benchmark.adx:     file format elf32-littleriscv
Andes_DSP_q15_benchmark.adx
architecture: riscv:rv32, flags 0x00000112:
EXEC_P, HAS_SYMS, D_PAGED
start address 0x20000000

Program Header:
    LOAD off    0x00001000 vaddr 0x20000000 paddr 0x20000000 align 2**12
         filesz 0x0000018a memsz 0x0000018a flags r-x
    LOAD off    0x00002000 vaddr 0x00000000 paddr 0x20000190 align 2**12
         filesz 0x000001bc memsz 0x000001bc flags rwx
    LOAD off    0x00002200 vaddr 0x00000200 paddr 0x20000350 align 2**12
         filesz 0x000041a4 memsz 0x000041a4 flags r-x
    LOAD off    0x00007000 vaddr 0x00080000 paddr 0x200044f8 align 2**12
         filesz 0x0000056e memsz 0x0000056e flags rw-
    LOAD off    0x000075a0 vaddr 0x000805a0 paddr 0x20004a66 align 2**12
         filesz 0x00000022 memsz 0x00000022 flags rw-
    LOAD off    0x00008570 vaddr 0x00080570 paddr 0x20004a68 align 2**12
         filesz 0x00000000 memsz 0x00000030 flags rw-
0x70000000 off    0x00018285 vaddr 0x00000000 paddr 0x00000000 align 2**0
         filesz 0x0000004a memsz 0x00000000 flags r--

Sections:
Idx Name          Size      VMA       LMA       File off  Algn
  0 .vectors      0000018a  20000000  20000000  00001000  2**2
                  CONTENTS, ALLOC, LOAD, READONLY, CODE
  1 .retention_reset 00000154  00000000  20000190  00002000  2**2
                  CONTENTS, ALLOC, LOAD, READONLY, CODE
  2 .retention_data 00000064  00000158  200002e8  00002158  2**2
                  CONTENTS, ALLOC, LOAD, DATA
  3 .ram_code     000041a4  00000200  20000350  00002200  2**8
                  CONTENTS, ALLOC, LOAD, READONLY, CODE
  4 .data         0000056e  00080000  200044f8  00007000  2**3
                  CONTENTS, ALLOC, LOAD, DATA
  5 .sbss         0000002c  00080570  20004a68  00008570  2**2
                  ALLOC
  6 .bss          00000004  0008059c  20004a94  00008570  2**0
                  ALLOC
  7 .sdk_version  00000022  000805a0  20004a66  000075a0  2**2
                  CONTENTS, ALLOC, LOAD, DATA
  8 .debug_info   0000563d  00000000  00000000  000075c2  2**0
                  CONTENTS, READONLY, DEBUGGING
  9 .debug_abbrev 00000fae  00000000  00000000  0000cbff  2**0
                  CONTENTS, READONLY, DEBUGGING
 10 .debug_loc    000034c4  00000000  00000000  0000dbad  2**0
                  CONTENTS, READONLY, DEBUGGING
 11 .debug_aranges 00000218  00000000  00000000  00011078  2**3
                  CONTENTS, READONLY, DEBUGGING
 12 .debug_ranges 00000c08  00000000  00000000  00011290  2**3
                  CONTENTS, READONLY, DEBUGGING
 13 .debug_line   000036e6  00000000  00000000  00011e98  2**0
                  CONTENTS, READONLY, DEBUGGING
 14 .debug_str    00002c94  00000000  00000000  0001557e  2**0
                  CONTENTS, READONLY, DEBUGGING
 15 .comment      00000073  00000000  00000000  00018212  2**0
                  CONTENTS, READONLY
 16 .riscv.attributes 0000004a  00000000  00000000  00018285  2**0
                  CONTENTS, READONLY
 17 .debug_frame  000004c4  00000000  00000000  000182d0  2**2
                  CONTENTS, READONLY, DEBUGGING
SYMBOL TABLE:
20000000 l    d  .vectors	00000000 .vectors
00000000 l    d  .retention_reset	00000000 .retention_reset
00000158 l    d  .retention_data	00000000 .retention_data
00000200 l    d  .ram_code	00000000 .ram_code
00080000 l    d  .data	00000000 .data
00080570 l    d  .sbss	00000000 .sbss
0008059c l    d  .bss	00000000 .bss
000805a0 l    d  .sdk_version	00000000 .sdk_version
00000000 l    d  .debug_info	00000000 .debug_info
00000000 l    d  .debug_abbrev	00000000 .debug_abbrev
00000000 l    d  .debug_loc	00000000 .debug_loc
00000000 l    d  .debug_aranges	00000000 .debug_aranges
00000000 l    d  .debug_ranges	00000000 .debug_ranges
00000000 l    d  .debug_line	00000000 .debug_line
00000000 l    d  .debug_str	00000000 .debug_str
00000000 l    d  .comment	00000000 .comment
00000000 l    d  .riscv.attributes	00000000 .riscv.attributes
00000000 l    d  .debug_frame	00000000 .debug_frame
00000000 l    df *ABS*	00000000 ./boot/cstartup_flash.o
20000028 l       .vectors	00000000 _START
2000008e l       .vectors	00000000 _RETENTION_RESET_INIT
200000a6 l       .vectors	00000000 _RETENTION_RESET_BEGIN
200000b8 l       .vectors	00000000 _RETENTION_DATA_INIT
200000cc l       .vectors	00000000 _RETENTION_DATA_INIT_BEGIN
200000de l       .vectors	00000000 _RAMCODE_INIT
200000f6 l       .vectors	00000000 _RAMCODE_INIT_BEGIN
20000108 l       .vectors	00000000 _DATA_INIT
20000120 l       .vectors	00000000 _DATA_INIT_BEGIN
20000132 l       .vectors	00000000 _ZERO_BSS
20000146 l       .vectors	00000000 _ZERO_BSS_BEGIN
20000152 l       .vectors	00000000 _ZERO_AES
20000166 l       .vectors	00000000 _ZERO_AES_BEGIN
20000172 l       .vectors	00000000 _FILL_STK
20000172 l       .vectors	00000000 _MAIN_FUNC
20000188 l       .vectors	00000000 _END
00000022 l       .retention_reset	00000000 _ISTART
0000002a l       .retention_reset	00000000 _ISWS_USB_DIS
00000088 l       .retention_reset	00000000 _WAKEUP_FLASH
000000a2 l       .retention_reset	00000000 _MSPI_WAIT
000000bc l       .retention_reset	00000000 _WAIT_EFUSE_LOAD_AND_FLASH_WAKEUP_FINISH
000000c2 l       .retention_reset	00000000 _MULTI_ADDRESS_BEGIN
000000d2 l       .retention_reset	00000000 _IZERO_BSS
000000e6 l       .retention_reset	00000000 _IZERO_BSS_BEGIN
000000f2 l       .retention_reset	00000000 _IZERO_AES
00000106 l       .retention_reset	00000000 _IZERO_AES_BEGIN
00000112 l       .retention_reset	00000000 _IFILL_STK
00000112 l       .retention_reset	00000000 _IDATA_INIT
0000012a l       .retention_reset	00000000 _IDATA_INIT_BEGIN
0000013c l       .retention_reset	00000000 _IMAIN_FUNC
00000152 l       .retention_reset	00000000 _IEND
00000040 l       *ABS*	00000000 irqno
00000000 l    df *ABS*	00000000 
00000200 l     F .ram_code	00000024 delay_ms
00000224 l     F .ram_code	00000020 delay_ms.constprop.12
0000130c l     F .ram_code	000000fc user_calib_adc_vref.constprop.9
00000244 l     F .ram_code	00000044 flash_send_addr
00000288 l     F .ram_code	00000048 flash_send_cmd
000002d0 l     F .ram_code	00000060 clock_set_32k_tick
00000330 l     F .ram_code	0000004c analog_read_reg32.constprop.4
0000037c l     F .ram_code	00000024 clock_get_32k_tick
000003a0 l     F .ram_code	00000090 pm_stimer_recover
00000430 l     F .ram_code	00000058 plic_exit_critical_sec
00000488 l     F .ram_code	00000060 plic_enter_critical_sec
000004e8 l     F .ram_code	00000180 flash_mspi_read_ram
00001104 l     F .ram_code	00000028 flash_read_uid.constprop.6
0000112c l     F .ram_code	00000028 flash_read_mid
00001154 l     F .ram_code	00000168 flash_read_mid_uid_with_check
00000668 l     F .ram_code	0000014c flash_mspi_read_ram.constprop.7
000012bc l     F .ram_code	00000020 flash_dread
000007b4 l     F .ram_code	00000044 analog_write_reg8
000007f8 l     F .ram_code	0000004c analog_read_reg8
00000844 l     F .ram_code	00000140 clock_init_ram.constprop.11
000012dc l     F .ram_code	00000018 clock_init.constprop.10
00001408 l     F .ram_code	00000054 user_calib_freq_offset.constprop.8
00000984 l     F .ram_code	000000b4 pm_wait_bbpll_done
00000a38 l     F .ram_code	00000194 pm_sleep_start
00001460 l     F .ram_code	00000018 gpio_input_dis
00000bcc l     F .ram_code	00000308 pm_sleep_wakeup_ram.constprop.3
000012f4 l     F .ram_code	00000016 pm_sleep_wakeup.constprop.2
00000158 l     O .retention_data	00000004 flash_read_page
0000015c l     O .retention_data	00000001 g_pm_long_suspend
00000160 l     O .retention_data	00000029 pmcd
0000018c l     O .retention_data	00000004 g_pm_tick_32k_calib
00000190 l     O .retention_data	00000004 g_pm_tick_cur
00000194 l     O .retention_data	00000001 g_plic_preempt_en
00000198 l     O .retention_data	00000002 s_flash_preempt_config
0000019a l     O .retention_data	00000001 g_pm_suspend_power_cfg
0000019c l     O .retention_data	00000008 g_pm_early_wakeup_time_us
000001a4 l     O .retention_data	00000004 g_pm_tick_32k_cur
000001a8 l     O .retention_data	00000001 g_pm_tick_update_en
000001ac l     O .retention_data	00000004 g_pm_r_delay_cycle
000001b0 l     O .retention_data	00000008 g_pm_longsleep_early_wakeup_time_us
00080570 l     O .sbss	00000004 exception_mcause
00080574 l     O .sbss	00000004 exception_mdcause
00080578 l     O .sbss	00000004 exception_mepc
0008057c l     O .sbss	00000004 exception_mstatus
00080580 l     O .sbss	00000004 exception_mtval
00080584 l     O .sbss	00000004 g_chip_version
00080588 l     O .sbss	00000004 g_pm_status_info
00080568 l     O .data	00000006 sys_clk
000805a0 l     O .sdk_version	00000022 sdk_version
00000000 l    df *ABS*	00000000 riscv_dsp_cfft_q15.c
00000000 l    df *ABS*	00000000 riscv_dsp_cfft_rd2_q15.c
00000000 l    df *ABS*	00000000 riscv_dsp_cfft_rd4_q15.c
00000000 l    df *ABS*	00000000 riscv_dsp_cmag_q15.c
00000000 l    df *ABS*	00000000 riscv_dsp_sqrt_q15.c
00000000 l    df *ABS*	00000000 sinf.c
00000000 l    df *ABS*	00000000 ref_rredf.c
0008046c l     O .data	00000020 twooverpi.0
00000000 l    df *ABS*	00000000 muldf3.c
00000000 l    df *ABS*	00000000 floatsidf.c
00000000 l    df *ABS*	00000000 extendsfdf2.c
00000000 l    df *ABS*	00000000 truncdfsf2.c
00000000 l    df *ABS*	00000000 printf.c
00000000 l    df *ABS*	00000000 putchar.c
00000000 l    df *ABS*	00000000 puts.c
00000000 l    df *ABS*	00000000 vprintf.c
00003752 l     F .ram_code	0000003a __vprintf_help
00080590 l     O .sbss	00000004 __vprintf_buf_len
00080594 l     O .sbss	00000004 __vprintf_buf
00000000 l    df *ABS*	00000000 printf_impl.c
00000000 l    df *ABS*	00000000 printf_impl_float.c
00000000 l    df *ABS*	00000000 strnlen.c
00000000 l    df *ABS*	00000000 libgcc2.c
00000000 l    df *ABS*	00000000 libgcc2.c
00000000 l    df *ABS*	00000000 riscv_dsp_cos_table_q15_1024.c
00000000 l    df *ABS*	00000000 printf_data.c
000036cc g     F .ram_code	00000028 putchar
00001cb0  w      .ram_code	00000000 entry_irq55
00001cb0  w      .ram_code	00000000 entry_irq13
00004114 g     F .ram_code	00000036 strcpy
00001cb0  w      .ram_code	00000000 entry_irq15
0000421c g     F .ram_code	0000002e .hidden __ashldi3
00001cb0  w      .ram_code	00000000 entry_irq27
00001cb0  w      .ram_code	00000000 entry_irq60
00001cb0  w      .ram_code	00000000 entry_irq1
00001cb0  w      .ram_code	00000000 entry_irq52
00001cb0  w      .ram_code	00000000 entry_irq50
00001cb0  w      .ram_code	00000000 entry_irq62
000036ae g     F .ram_code	0000001e printf
00080800 g       .data	00000000 __global_pointer$
00004254 g       .ram_code	00000000 .hidden __riscv_save_8
00001cb0  w      .ram_code	00000000 entry_irq58
000042a0 g       .ram_code	00000000 .hidden __riscv_restore_3
000001bc g       .retention_data	00000000 _RETENTION_DATA_VMA_END
0000428c g       .ram_code	00000000 .hidden __riscv_restore_10
00001cd8 g     F .ram_code	00000382 riscv_dsp_cfft_rd2_q15
00004254 g       .ram_code	00000000 .hidden __riscv_save_11
00002748 g     F .ram_code	0000009e riscv_dsp_cmag_q15
000037d4 g     F .ram_code	00000048 __print_integral
0000381c g     F .ram_code	00000458 __printf_impl_lite
00000000 g       .retention_reset	00000000 _RETENTION_RESET_VMA_START
00001cb0  w      .ram_code	00000000 entry_irq10
0000205c g     F .ram_code	000006ea riscv_dsp_cfft_rd4_q15
00001cb0  w      .ram_code	00000000 entry_irq21
00000158 g       .retention_data	00000000 _AES_VMA_START
00002a1c g     F .ram_code	00000146 ref__mathlib_rredf2
00001cb0  w      .ram_code	00000000 entry_irq48
000042a0 g       .ram_code	00000000 .hidden __riscv_restore_2
00001cb0  w      .ram_code	00000000 entry_irq8
00001cb0  w      .ram_code	00000000 entry_irq33
000805a0 g       .bss	00000000 _BSS_VMA_END
0000363c g     F .ram_code	00000070 memcpy
20000190 g       *ABS*	00000000 _RETENTION_RESET_LMA_START
000031b0 g     F .ram_code	0000007a .hidden __floatsidf
00080000 g     O .data	0000001c cst_libm_sincosf
0000381c g     F .ram_code	00000458 __printf_impl
00001cb0  w      .ram_code	00000000 entry_irq12
000036f4 g     F .ram_code	00000034 puts
00001cb0  w      .ram_code	00000000 entry_irq14
00080230 g     O .data	0000020a riscv_dsp_cos_table_q15_1024
0000424c g       .ram_code	00000000 .hidden __riscv_save_12
00001cb0  w      .ram_code	00000000 entry_irq2
00001cb0  w      .ram_code	00000000 entry_irq51
0000428c g       .ram_code	00000000 .hidden __riscv_restore_11
00001cb0  w      .ram_code	00000000 entry_irq28
00001cb0  w      .ram_code	00000000 entry_irq43
0000427c g       .ram_code	00000000 .hidden __riscv_save_1
000042a0 g       .ram_code	00000000 .hidden __riscv_restore_0
00001cb0  w      .ram_code	00000000 entry_irq20
00004262 g       .ram_code	00000000 .hidden __riscv_save_7
00080570 g       .sbss	00000000 _BSS_VMA_START
00001cb0  w      .ram_code	00000000 entry_irq63
0008056e g       .data	00000000 _DATA_VMA_END
0000322c g     F .ram_code	00000110 .hidden __extendsfdf2
00001cb0  w      .ram_code	00000000 entry_irq46
00001cb0  w      .ram_code	00000000 entry_irq31
00001cb0  w      .ram_code	00000000 entry_irq16
00100000 g       *ABS*	00000000 FLASH_SIZE
00004296 g       .ram_code	00000000 .hidden __riscv_restore_5
00080000 g       .data	00000000 _DATA_VMA_START
00001cb0  w      .ram_code	00000000 entry_irq53
00001cb0  w      .ram_code	00000000 entry_irq11
00080454 g     O .data	00000018 cst_libm_rredf
00000154 g       .retention_reset	00000000 _RETENTION_RESET_VMA_END
0000414a g     F .ram_code	00000018 strnlen
00004296 g       .ram_code	00000000 .hidden __riscv_restore_6
00001cb0  w      .ram_code	00000000 entry_irq5
00001cb0  w      .ram_code	00000000 entry_irq23
00001cb2  w      .ram_code	00000000 trap_handler
00001cb0  w      .ram_code	00000000 entry_irq34
000041ec g     F .ram_code	0000002e .hidden __lshrdi3
00001cb0  w      .ram_code	00000000 entry_irq36
00004254 g       .ram_code	00000000 .hidden __riscv_save_9
00001cb0  w      .ram_code	00000000 entry_irq44
0000378c g     F .ram_code	00000048 vprintf
00001cb0  w      .ram_code	00000000 entry_irq45
00001cb0  w      .ram_code	00000000 entry_irq26
00004262 g       .ram_code	00000000 .hidden __riscv_save_4
00001cb0  w      .ram_code	00000000 entry_irq41
00001cb0  w      .ram_code	00000000 entry_irq61
20000000 g       .vectors	00000000 BIN_BEGIN
0000427c g       .ram_code	00000000 .hidden __riscv_save_3
00001cb0  w      .ram_code	00000000 entry_irq38
00001000 g       .ram_code	00000000 __vectors
00004a88 g       *ABS*	00000000 BIN_SIZE
000804cc g     O .data	00000010 __digits
20000350 g       *ABS*	00000000 _RAMCODE_LMA_START
00080598 g     O .sbss	00000004 __printf_count
00001cb0  w      .ram_code	00000000 entry_irq59
00001cb0  w      .ram_code	00000000 entry_irq6
00002b64 g     F .ram_code	00000648 .hidden __muldf3
00004254 g       .ram_code	00000000 .hidden __riscv_save_10
0008058c g     O .sbss	00000004 __mculib_REENT_errno
200044f8 g       *ABS*	00000000 _DATA_LMA_START
00003c94 g     F .ram_code	00000086 __print_integral_poly
20000000 g       *ABS*	00000000 NDS_SAG_LMA_FLASH
00004296 g       .ram_code	00000000 .hidden __riscv_restore_4
0000428c g       .ram_code	00000000 .hidden __riscv_restore_8
00004262 g       .ram_code	00000000 .hidden __riscv_save_6
20000000  w      .vectors	00000000 _RELAX_END_
00004164 g     F .ram_code	00000086 memset
00003d1a g     F .ram_code	000003fa __printf_float_impl
0000428c g       .ram_code	00000000 .hidden __riscv_restore_9
00004296 g       .ram_code	00000000 .hidden __riscv_restore_7
000014a4 g     F .ram_code	0000080a main
00001cb0 g       .ram_code	00000000 default_irq_entry
00001cb0  w      .ram_code	00000000 entry_irq3
00000ed4 g     F .ram_code	00000100 trap_entry
00000158 g       .retention_data	00000000 _AES_VMA_END
0000333c g     F .ram_code	00000300 .hidden __truncdfsf2
00001cb0  w      .ram_code	00000000 entry_irq39
00001cb0  w      .ram_code	00000000 entry_irq49
00001cb0  w      .ram_code	00000000 entry_irq57
00001cb0  w      .ram_code	00000000 entry_irq47
200002e8 g       *ABS*	00000000 _RETENTION_DATA_LMA_START
20000000 g     F .vectors	00000000 _RESET_ENTRY
000036ae g     F .ram_code	0000001e iprintf
00000158 g       .retention_data	00000000 _RETENTION_DATA_VMA_START
00001cb0  w      .ram_code	00000000 entry_irq4
000a0000 g       *ABS*	00000000 _STACK_TOP
00001cb0  w      .ram_code	00000000 entry_irq22
00001cb0  w      .ram_code	00000000 entry_irq30
00001cb0  w      .ram_code	00000000 entry_irq42
00001cb0  w      .ram_code	00000000 entry_irq24
00002894 g     F .ram_code	00000188 sinf
0000427c g       .ram_code	00000000 .hidden __riscv_save_2
000043a4 g       .ram_code	00000000 _RAMCODE_VMA_END
00000000  w      *ABS*	00000000 _ITB_BASE_
00004262 g       .ram_code	00000000 .hidden __riscv_save_5
00001cb0  w      .ram_code	00000000 entry_irq19
000027e8 g     F .ram_code	000000aa riscv_dsp_sqrt_q15
0000147c g     F .ram_code	00000026 _write
000805c8 g       .sdk_version	00000000 _end
00001cb0  w      .ram_code	00000000 entry_irq17
00001cb0  w      .ram_code	00000000 entry_irq9
00001cb0  w      .ram_code	00000000 entry_irq56
00001cb0  w      .ram_code	00000000 entry_irq35
00001cb0  w      .ram_code	00000000 entry_irq37
000001b8 g     O .retention_data	00000004 g_pm_mspi_cfg
00001cb0  w      .ram_code	00000000 entry_irq54
00001cb0  w      .ram_code	00000000 entry_irq40
00001cb8 g     F .ram_code	0000001e riscv_dsp_cfft_q15
00004288 g       .ram_code	00000000 .hidden __riscv_restore_12
00000200 g       .ram_code	00000000 _RAMCODE_VMA_START
0000427c g       .ram_code	00000000 .hidden __riscv_save_0
00003728 g     F .ram_code	00000028 strlen
00001cb0  w      .ram_code	00000000 entry_irq29
000042a0 g       .ram_code	00000000 .hidden __riscv_restore_1
00001cb0  w      .ram_code	00000000 entry_irq7
00001cb0  w      .ram_code	00000000 entry_irq32
00000000 g     F .retention_reset	00000000 _IRESET_ENTRY
00001cb0  w      .ram_code	00000000 entry_irq18
0000378c g     F .ram_code	00000048 viprintf
00003c74 g     F .ram_code	00000020 __int_to_poly
00001cb0  w      .ram_code	00000000 entry_irq25



Disassembly of section .vectors:

20000000 <_RESET_ENTRY>:
20000000:	a025                	c.j	20000028 <_START>
	...
20000016:	0000                	unimp
20000018:	4a88                	c.lw	a0,16(a3)
2000001a:	0000                	unimp
2000001c:	0000                	unimp
2000001e:	0000                	unimp
20000020:	544c4e4b          	fnmsub.h	ft8,fs8,ft4,fa0,rmm
20000024:	0000                	unimp
20000026:	          	sllw	a4,zero,zero

20000028 <_START>:
20000028:	e0080197          	auipc	gp,0xe0080
2000002c:	7d818193          	addi	gp,gp,2008 # 80800 <__global_pointer$>
20000030:	801002b7          	lui	t0,0x80100
20000034:	70028293          	addi	t0,t0,1792 # 80100700 <_DATA_LMA_START+0x600fc208>
20000038:	04000313          	li	t1,64
2000003c:	506280a3          	sb	t1,1281(t0)
20000040:	e00a0297          	auipc	t0,0xe00a0
20000044:	fc028293          	addi	t0,t0,-64 # a0000 <_STACK_TOP>
20000048:	8116                	c.mv	sp,t0
2000004a:	e0000297          	auipc	t0,0xe0000
2000004e:	fb628293          	addi	t0,t0,-74 # 0 <_ITB_BASE_>
20000052:	80029073          	csrw	uitb,t0
20000056:	6299                	c.lui	t0,0x6
20000058:	3002a2f3          	csrrs	t0,mstatus,t0
2000005c:	00301073          	fssr	zero
20000060:	e0001297          	auipc	t0,0xe0001
20000064:	fa028293          	addi	t0,t0,-96 # 1000 <__vectors>
20000068:	30529073          	csrw	mtvec,t0
2000006c:	7d016073          	csrsi	mmisc_ctl,2
20000070:	e40002b7          	lui	t0,0xe4000
20000074:	4309                	c.li	t1,2
20000076:	0062a023          	sw	t1,0(t0) # e4000000 <_DATA_LMA_START+0xc3ffbb08>
2000007a:	7ca022f3          	csrr	t0,mcache_ctl
2000007e:	0012e293          	ori	t0,t0,1
20000082:	0022e293          	ori	t0,t0,2
20000086:	7ca29073          	csrw	mcache_ctl,t0
2000008a:	0000100f          	fence.i

2000008e <_RETENTION_RESET_INIT>:
2000008e:	00000317          	auipc	t1,0x0
20000092:	10230313          	addi	t1,t1,258 # 20000190 <_RETENTION_RESET_LMA_START>
20000096:	e0000397          	auipc	t2,0xe0000
2000009a:	f6a38393          	addi	t2,t2,-150 # 0 <_ITB_BASE_>
2000009e:	e0000e17          	auipc	t3,0xe0000
200000a2:	0b6e0e13          	addi	t3,t3,182 # 154 <_RETENTION_RESET_VMA_END>

200000a6 <_RETENTION_RESET_BEGIN>:
200000a6:	01c3f963          	bgeu	t2,t3,200000b8 <_RETENTION_DATA_INIT>
200000aa:	00032283          	lw	t0,0(t1)
200000ae:	0053a023          	sw	t0,0(t2)
200000b2:	0311                	c.addi	t1,4
200000b4:	0391                	c.addi	t2,4
200000b6:	bfc5                	c.j	200000a6 <_RETENTION_RESET_BEGIN>

200000b8 <_RETENTION_DATA_INIT>:
200000b8:	00000317          	auipc	t1,0x0
200000bc:	23030313          	addi	t1,t1,560 # 200002e8 <_RETENTION_DATA_LMA_START>
200000c0:	15800393          	li	t2,344
200000c4:	e0000e17          	auipc	t3,0xe0000
200000c8:	0f8e0e13          	addi	t3,t3,248 # 1bc <_RETENTION_DATA_VMA_END>

200000cc <_RETENTION_DATA_INIT_BEGIN>:
200000cc:	01c3f963          	bgeu	t2,t3,200000de <_RAMCODE_INIT>
200000d0:	00032283          	lw	t0,0(t1)
200000d4:	0053a023          	sw	t0,0(t2)
200000d8:	0311                	c.addi	t1,4
200000da:	0391                	c.addi	t2,4
200000dc:	bfc5                	c.j	200000cc <_RETENTION_DATA_INIT_BEGIN>

200000de <_RAMCODE_INIT>:
200000de:	00000317          	auipc	t1,0x0
200000e2:	27230313          	addi	t1,t1,626 # 20000350 <_RAMCODE_LMA_START>
200000e6:	e0000397          	auipc	t2,0xe0000
200000ea:	11a38393          	addi	t2,t2,282 # 200 <delay_ms>
200000ee:	e0004e17          	auipc	t3,0xe0004
200000f2:	2b6e0e13          	addi	t3,t3,694 # 43a4 <_RAMCODE_VMA_END>

200000f6 <_RAMCODE_INIT_BEGIN>:
200000f6:	01c3f963          	bgeu	t2,t3,20000108 <_DATA_INIT>
200000fa:	00032283          	lw	t0,0(t1)
200000fe:	0053a023          	sw	t0,0(t2)
20000102:	0311                	c.addi	t1,4
20000104:	0391                	c.addi	t2,4
20000106:	bfc5                	c.j	200000f6 <_RAMCODE_INIT_BEGIN>

20000108 <_DATA_INIT>:
20000108:	00004317          	auipc	t1,0x4
2000010c:	3f030313          	addi	t1,t1,1008 # 200044f8 <_DATA_LMA_START>
20000110:	e0080397          	auipc	t2,0xe0080
20000114:	ef038393          	addi	t2,t2,-272 # 80000 <cst_libm_sincosf>
20000118:	e0080e17          	auipc	t3,0xe0080
2000011c:	456e0e13          	addi	t3,t3,1110 # 8056e <_DATA_VMA_END>

20000120 <_DATA_INIT_BEGIN>:
20000120:	01c3f963          	bgeu	t2,t3,20000132 <_ZERO_BSS>
20000124:	00032283          	lw	t0,0(t1)
20000128:	0053a023          	sw	t0,0(t2)
2000012c:	0311                	c.addi	t1,4
2000012e:	0391                	c.addi	t2,4
20000130:	bfc5                	c.j	20000120 <_DATA_INIT_BEGIN>

20000132 <_ZERO_BSS>:
20000132:	000002b7          	lui	t0,0x0
20000136:	e0080397          	auipc	t2,0xe0080
2000013a:	43a38393          	addi	t2,t2,1082 # 80570 <_BSS_VMA_START>
2000013e:	e0080e17          	auipc	t3,0xe0080
20000142:	462e0e13          	addi	t3,t3,1122 # 805a0 <_BSS_VMA_END>

20000146 <_ZERO_BSS_BEGIN>:
20000146:	01c3f663          	bgeu	t2,t3,20000152 <_ZERO_AES>
2000014a:	0053a023          	sw	t0,0(t2)
2000014e:	0391                	c.addi	t2,4
20000150:	bfdd                	c.j	20000146 <_ZERO_BSS_BEGIN>

20000152 <_ZERO_AES>:
20000152:	000002b7          	lui	t0,0x0
20000156:	e0000397          	auipc	t2,0xe0000
2000015a:	00238393          	addi	t2,t2,2 # 158 <_AES_VMA_END>
2000015e:	e0000e17          	auipc	t3,0xe0000
20000162:	ffae0e13          	addi	t3,t3,-6 # 158 <_AES_VMA_END>

20000166 <_ZERO_AES_BEGIN>:
20000166:	01c3f663          	bgeu	t2,t3,20000172 <_FILL_STK>
2000016a:	0053a023          	sw	t0,0(t2)
2000016e:	0391                	c.addi	t2,4
20000170:	bfdd                	c.j	20000166 <_ZERO_AES_BEGIN>

20000172 <_FILL_STK>:
20000172:	0001                	c.nop
20000174:	e0001297          	auipc	t0,0xe0001
20000178:	33028293          	addi	t0,t0,816 # 14a4 <main>
2000017c:	9282                	c.jalr	t0
2000017e:	0001                	c.nop
20000180:	0001                	c.nop
20000182:	0001                	c.nop
20000184:	0001                	c.nop
20000186:	0001                	c.nop

20000188 <_END>:
20000188:	a001                	c.j	20000188 <_END>

Disassembly of section .retention_reset:

00000000 <_IRESET_ENTRY>:
   0:	a00d                	c.j	22 <_ISTART>
	...

00000022 <_ISTART>:
  22:	00080197          	auipc	gp,0x80
  26:	7de18193          	addi	gp,gp,2014 # 80800 <__global_pointer$>

0000002a <_ISWS_USB_DIS>:
  2a:	801002b7          	lui	t0,0x80100
  2e:	70028293          	addi	t0,t0,1792 # 80100700 <_DATA_LMA_START+0x600fc208>
  32:	04000313          	li	t1,64
  36:	506280a3          	sb	t1,1281(t0)
  3a:	000a0297          	auipc	t0,0xa0
  3e:	fc628293          	addi	t0,t0,-58 # a0000 <_STACK_TOP>
  42:	8116                	c.mv	sp,t0
  44:	00000297          	auipc	t0,0x0
  48:	fbc28293          	addi	t0,t0,-68 # 0 <_IRESET_ENTRY>
  4c:	80029073          	csrw	uitb,t0
  50:	6299                	c.lui	t0,0x6
  52:	3002a2f3          	csrrs	t0,mstatus,t0
  56:	00301073          	fssr	zero
  5a:	00001297          	auipc	t0,0x1
  5e:	fa628293          	addi	t0,t0,-90 # 1000 <__vectors>
  62:	30529073          	csrw	mtvec,t0
  66:	7d016073          	csrsi	mmisc_ctl,2
  6a:	e40002b7          	lui	t0,0xe4000
  6e:	4309                	c.li	t1,2
  70:	0062a023          	sw	t1,0(t0) # e4000000 <_DATA_LMA_START+0xc3ffbb08>
  74:	7ca022f3          	csrr	t0,mcache_ctl
  78:	0012e293          	ori	t0,t0,1
  7c:	0022e293          	ori	t0,t0,2
  80:	7ca29073          	csrw	mcache_ctl,t0
  84:	0000100f          	fence.i

00000088 <_WAKEUP_FLASH>:
  88:	801402b7          	lui	t0,0x80140
  8c:	0ff00313          	li	t1,255
  90:	4381                	c.li	t2,0
  92:	0ab00e13          	li	t3,171
  96:	326284a3          	sb	t1,809(t0) # 80140329 <_DATA_LMA_START+0x6013be31>
  9a:	107280a3          	sb	t2,257(t0)
  9e:	11c28023          	sb	t3,256(t0)

000000a2 <_MSPI_WAIT>:
  a2:	801402b7          	lui	t0,0x80140
  a6:	10228383          	lb	t2,258(t0) # 80140102 <_DATA_LMA_START+0x6013bc0a>
  aa:	4e05                	c.li	t3,1
  ac:	4ec1                	c.li	t4,16
  ae:	fe7e0ae3          	beq	t3,t2,a2 <_MSPI_WAIT>
  b2:	11d280a3          	sb	t4,257(t0)
  b6:	4281                	c.li	t0,0
  b8:	14000313          	li	t1,320

000000bc <_WAIT_EFUSE_LOAD_AND_FLASH_WAKEUP_FINISH>:
  bc:	0285                	c.addi	t0,1
  be:	fe537fe3          	bgeu	t1,t0,bc <_WAIT_EFUSE_LOAD_AND_FLASH_WAKEUP_FINISH>

000000c2 <_MULTI_ADDRESS_BEGIN>:
  c2:	801402b7          	lui	t0,0x80140
  c6:	1b800313          	li	t1,440
  ca:	00032383          	lw	t2,0(t1)
  ce:	1072a223          	sw	t2,260(t0) # 80140104 <_DATA_LMA_START+0x6013bc0c>

000000d2 <_IZERO_BSS>:
  d2:	000002b7          	lui	t0,0x0
  d6:	00080397          	auipc	t2,0x80
  da:	49a38393          	addi	t2,t2,1178 # 80570 <_BSS_VMA_START>
  de:	00080e17          	auipc	t3,0x80
  e2:	4c2e0e13          	addi	t3,t3,1218 # 805a0 <_BSS_VMA_END>

000000e6 <_IZERO_BSS_BEGIN>:
  e6:	01c3f663          	bgeu	t2,t3,f2 <_IZERO_AES>
  ea:	0053a023          	sw	t0,0(t2)
  ee:	0391                	c.addi	t2,4
  f0:	bfdd                	c.j	e6 <_IZERO_BSS_BEGIN>

000000f2 <_IZERO_AES>:
  f2:	000002b7          	lui	t0,0x0
  f6:	00000397          	auipc	t2,0x0
  fa:	06238393          	addi	t2,t2,98 # 158 <_AES_VMA_END>
  fe:	00000e17          	auipc	t3,0x0
 102:	05ae0e13          	addi	t3,t3,90 # 158 <_AES_VMA_END>

00000106 <_IZERO_AES_BEGIN>:
 106:	01c3f663          	bgeu	t2,t3,112 <_IDATA_INIT>
 10a:	0053a023          	sw	t0,0(t2)
 10e:	0391                	c.addi	t2,4
 110:	bfdd                	c.j	106 <_IZERO_AES_BEGIN>

00000112 <_IDATA_INIT>:
 112:	20004317          	auipc	t1,0x20004
 116:	3e630313          	addi	t1,t1,998 # 200044f8 <_DATA_LMA_START>
 11a:	00080397          	auipc	t2,0x80
 11e:	ee638393          	addi	t2,t2,-282 # 80000 <cst_libm_sincosf>
 122:	00080e17          	auipc	t3,0x80
 126:	44ce0e13          	addi	t3,t3,1100 # 8056e <_DATA_VMA_END>

0000012a <_IDATA_INIT_BEGIN>:
 12a:	01c3f963          	bgeu	t2,t3,13c <_IMAIN_FUNC>
 12e:	00032283          	lw	t0,0(t1)
 132:	0053a023          	sw	t0,0(t2)
 136:	0311                	c.addi	t1,4
 138:	0391                	c.addi	t2,4
 13a:	bfc5                	c.j	12a <_IDATA_INIT_BEGIN>

0000013c <_IMAIN_FUNC>:
 13c:	0001                	c.nop
 13e:	00001297          	auipc	t0,0x1
 142:	36628293          	addi	t0,t0,870 # 14a4 <main>
 146:	9282                	c.jalr	t0
 148:	0001                	c.nop
 14a:	0001                	c.nop
 14c:	0001                	c.nop
 14e:	0001                	c.nop
 150:	0001                	c.nop

00000152 <_IEND>:
 152:	a001                	c.j	152 <_IEND>

Disassembly of section .ram_code:

00000200 <delay_ms>:
     200:	000047b7          	lui	a5,0x4
     204:	e8078793          	addi	a5,a5,-384 # 3e80 <__printf_float_impl+0x166>
     208:	02f50533          	mul	a0,a0,a5
     20c:	801407b7          	lui	a5,0x80140
     210:	2007a683          	lw	a3,512(a5) # 80140200 <_DATA_LMA_START+0x6013bd08>
     214:	80140737          	lui	a4,0x80140
     218:	20072783          	lw	a5,512(a4) # 80140200 <_DATA_LMA_START+0x6013bd08>
     21c:	8f95                	c.sub	a5,a3
     21e:	fef57de3          	bgeu	a0,a5,218 <delay_ms+0x18>
     222:	8082                	c.jr	ra

00000224 <delay_ms.constprop.12>:
     224:	801407b7          	lui	a5,0x80140
     228:	00075737          	lui	a4,0x75
     22c:	2007a603          	lw	a2,512(a5) # 80140200 <_DATA_LMA_START+0x6013bd08>
     230:	801406b7          	lui	a3,0x80140
     234:	30070713          	addi	a4,a4,768 # 75300 <BIN_SIZE+0x70878>
     238:	2006a783          	lw	a5,512(a3) # 80140200 <_DATA_LMA_START+0x6013bd08>
     23c:	8f91                	c.sub	a5,a2
     23e:	fef77de3          	bgeu	a4,a5,238 <delay_ms.constprop.12+0x14>
     242:	8082                	c.jr	ra

00000244 <flash_send_addr>:
     244:	5d05275b          	bfoz	a4,a0,23,16
     248:	801407b7          	lui	a5,0x80140
     24c:	801406b7          	lui	a3,0x80140
     250:	10e78023          	sb	a4,256(a5) # 80140100 <_DATA_LMA_START+0x6013bc08>
     254:	10268783          	lb	a5,258(a3) # 80140102 <_DATA_LMA_START+0x6013bc0a>
     258:	fe07fe5b          	bbs	a5,0,254 <flash_send_addr+0x10>
     25c:	3c8527db          	bfoz	a5,a0,15,8
     260:	80140737          	lui	a4,0x80140
     264:	10f68023          	sb	a5,256(a3)
     268:	10270783          	lb	a5,258(a4) # 80140102 <_DATA_LMA_START+0x6013bc0a>
     26c:	fe07fe5b          	bbs	a5,0,268 <flash_send_addr+0x24>
     270:	0ff57513          	andi	a0,a0,255
     274:	801406b7          	lui	a3,0x80140
     278:	10a70023          	sb	a0,256(a4)
     27c:	10268783          	lb	a5,258(a3) # 80140102 <_DATA_LMA_START+0x6013bc0a>
     280:	fe07fe5b          	bbs	a5,0,27c <flash_send_addr+0x38>
     284:	00008067          	ret

00000288 <flash_send_cmd>:
     288:	801407b7          	lui	a5,0x80140
     28c:	10178703          	lb	a4,257(a5) # 80140101 <_DATA_LMA_START+0x6013bc09>
     290:	0ff77713          	andi	a4,a4,255
     294:	01076713          	ori	a4,a4,16
     298:	10e780a3          	sb	a4,257(a5)
     29c:	0001                	c.nop
     29e:	0001                	c.nop
     2a0:	0001                	c.nop
     2a2:	0001                	c.nop
     2a4:	0001                	c.nop
     2a6:	0001                	c.nop
     2a8:	0001                	c.nop
     2aa:	0001                	c.nop
     2ac:	0001                	c.nop
     2ae:	0001                	c.nop
     2b0:	10178683          	lb	a3,257(a5)
     2b4:	80140737          	lui	a4,0x80140
     2b8:	0ef6f693          	andi	a3,a3,239
     2bc:	10d780a3          	sb	a3,257(a5)
     2c0:	10a78023          	sb	a0,256(a5)
     2c4:	10270783          	lb	a5,258(a4) # 80140102 <_DATA_LMA_START+0x6013bc0a>
     2c8:	fe07fe5b          	bbs	a5,0,2c4 <flash_send_cmd+0x3c>
     2cc:	00008067          	ret

000002d0 <clock_set_32k_tick>:
     2d0:	801406b7          	lui	a3,0x80140
     2d4:	20a68783          	lb	a5,522(a3) # 8014020a <_DATA_LMA_START+0x6013bd12>
     2d8:	80140737          	lui	a4,0x80140
     2dc:	0ff7f793          	andi	a5,a5,255
     2e0:	0017e793          	ori	a5,a5,1
     2e4:	20f68523          	sb	a5,522(a3)
     2e8:	20b70683          	lb	a3,523(a4) # 8014020b <_DATA_LMA_START+0x6013bd13>
     2ec:	20b70793          	addi	a5,a4,523
     2f0:	fe66fc5b          	bbs	a3,6,2e8 <clock_set_32k_tick+0x18>
     2f4:	20a72623          	sw	a0,524(a4)
     2f8:	4721                	c.li	a4,8
     2fa:	00e78023          	sb	a4,0(a5)
     2fe:	0001                	c.nop
     300:	0001                	c.nop
     302:	0001                	c.nop
     304:	0001                	c.nop
     306:	0001                	c.nop
     308:	0001                	c.nop
     30a:	0001                	c.nop
     30c:	0001                	c.nop
     30e:	0001                	c.nop
     310:	0001                	c.nop
     312:	0001                	c.nop
     314:	0001                	c.nop
     316:	0001                	c.nop
     318:	0001                	c.nop
     31a:	0001                	c.nop
     31c:	00000013          	nop
     320:	801407b7          	lui	a5,0x80140
     324:	20b78703          	lb	a4,523(a5) # 8014020b <_DATA_LMA_START+0x6013bd13>
     328:	fe377e5b          	bbs	a4,3,324 <clock_set_32k_tick+0x54>
     32c:	00008067          	ret

00000330 <analog_read_reg32.constprop.4>:
     330:	300027f3          	csrr	a5,mstatus
     334:	8ba1                	c.andi	a5,8
     336:	c789                	c.beqz	a5,340 <analog_read_reg32.constprop.4+0x10>
     338:	30047773          	csrrci	a4,mstatus,8
     33c:	0ff0000f          	fence
     340:	80140737          	lui	a4,0x80140
     344:	00400693          	li	a3,4
     348:	18d701a3          	sb	a3,387(a4) # 80140183 <_DATA_LMA_START+0x6013bc8b>
     34c:	06000693          	li	a3,96
     350:	18d70023          	sb	a3,384(a4)
     354:	04000613          	li	a2,64
     358:	801406b7          	lui	a3,0x80140
     35c:	18c70123          	sb	a2,386(a4)
     360:	18268703          	lb	a4,386(a3) # 80140182 <_DATA_LMA_START+0x6013bc8a>
     364:	fe777e5b          	bbs	a4,7,360 <analog_read_reg32.constprop.4+0x30>
     368:	1846a503          	lw	a0,388(a3)
     36c:	00078663          	beqz	a5,378 <analog_read_reg32.constprop.4+0x48>
     370:	3007a7f3          	csrrs	a5,mstatus,a5
     374:	0ff0000f          	fence
     378:	00008067          	ret

0000037c <clock_get_32k_tick>:
     37c:	1141                	c.addi	sp,-16
     37e:	c422                	c.swsp	s0,8(sp)
     380:	c606                	c.swsp	ra,12(sp)
     382:	377d                	c.jal	330 <analog_read_reg32.constprop.4>
     384:	00a00433          	add	s0,zero,a0
     388:	fa9ff0ef          	jal	ra,330 <analog_read_reg32.constprop.4>
     38c:	40850733          	sub	a4,a0,s0
     390:	842a                	c.mv	s0,a0
     392:	be176b5b          	bnec	a4,1,388 <clock_get_32k_tick+0xc>
     396:	40b2                	c.lwsp	ra,12(sp)
     398:	4422                	c.lwsp	s0,8(sp)
     39a:	0141                	c.addi	sp,16
     39c:	00008067          	ret

000003a0 <pm_stimer_recover>:
     3a0:	1141                	c.addi	sp,-16
     3a2:	80140737          	lui	a4,0x80140
     3a6:	c606                	c.swsp	ra,12(sp)
     3a8:	4789                	c.li	a5,2
     3aa:	20f70c23          	sb	a5,536(a4) # 80140218 <_DATA_LMA_START+0x6013bd20>
     3ae:	20a70783          	lb	a5,522(a4)
     3b2:	0ff7f793          	andi	a5,a5,255
     3b6:	00c7e793          	ori	a5,a5,12
     3ba:	20f70523          	sb	a5,522(a4)
     3be:	3f7d                	c.jal	37c <clock_get_32k_tick>
     3c0:	00000737          	lui	a4,0x0
     3c4:	15870793          	addi	a5,a4,344 # 158 <_AES_VMA_END>
     3c8:	0047c783          	lbu	a5,4(a5)
     3cc:	15870713          	addi	a4,a4,344
     3d0:	cf81                	c.beqz	a5,3e8 <pm_stimer_recover+0x48>
     3d2:	4754                	c.lw	a3,12(a4)
     3d4:	5b50                	c.lw	a2,52(a4)
     3d6:	40d506b3          	sub	a3,a0,a3
     3da:	471c                	c.lw	a5,8(a4)
     3dc:	0685                	c.addi	a3,1
     3de:	8295                	c.srli	a3,0x5
     3e0:	c4c697ff          	maddr32	a5,a3,a2
     3e4:	0180006f          	j	3fc <pm_stimer_recover+0x5c>
     3e8:	475c                	c.lw	a5,12(a4)
     3ea:	5b54                	c.lw	a3,52(a4)
     3ec:	40f507b3          	sub	a5,a0,a5
     3f0:	0785                	c.addi	a5,1
     3f2:	02d787b3          	mul	a5,a5,a3
     3f6:	4714                	c.lw	a3,8(a4)
     3f8:	8395                	c.srli	a5,0x5
     3fa:	97b6                	c.add	a5,a3
     3fc:	4754                	c.lw	a3,12(a4)
     3fe:	00150593          	addi	a1,a0,1
     402:	8d15                	c.sub	a0,a3
     404:	0505                	c.addi	a0,1
     406:	00178613          	addi	a2,a5,1
     40a:	df1c                	c.sw	a5,56(a4)
     40c:	d34c                	c.sw	a1,36(a4)
     40e:	d308                	c.sw	a0,32(a4)
     410:	801407b7          	lui	a5,0x80140
     414:	801406b7          	lui	a3,0x80140
     418:	20c7a023          	sw	a2,512(a5) # 80140200 <_DATA_LMA_START+0x6013bd08>
     41c:	20b68783          	lb	a5,523(a3) # 8014020b <_DATA_LMA_START+0x6013bd13>
     420:	be77fe5b          	bbc	a5,7,41c <pm_stimer_recover+0x7c>
     424:	20068c23          	sb	zero,536(a3)
     428:	40b2                	c.lwsp	ra,12(sp)
     42a:	0141                	c.addi	sp,16
     42c:	00008067          	ret

00000430 <plic_exit_critical_sec>:
     430:	000007b7          	lui	a5,0x0
     434:	15878793          	addi	a5,a5,344 # 158 <_AES_VMA_END>
     438:	03c78783          	lb	a5,60(a5)
     43c:	0ff7f793          	andi	a5,a5,255
     440:	c795                	c.beqz	a5,46c <plic_exit_critical_sec+0x3c>
     442:	c50d                	c.beqz	a0,46c <plic_exit_critical_sec+0x3c>
     444:	300027f3          	csrr	a5,mstatus
     448:	8ba1                	c.andi	a5,8
     44a:	0ff5f593          	andi	a1,a1,255
     44e:	c78d                	c.beqz	a5,478 <plic_exit_critical_sec+0x48>
     450:	30047773          	csrrci	a4,mstatus,8
     454:	0ff0000f          	fence
     458:	e4200737          	lui	a4,0xe4200
     45c:	c30c                	c.sw	a1,0(a4)
     45e:	0ff0000f          	fence
     462:	3007a7f3          	csrrs	a5,mstatus,a5
     466:	0ff0000f          	fence
     46a:	8082                	c.jr	ra
     46c:	cd81                	c.beqz	a1,484 <plic_exit_critical_sec+0x54>
     46e:	3005a5f3          	csrrs	a1,mstatus,a1
     472:	0ff0000f          	fence
     476:	8082                	c.jr	ra
     478:	e42007b7          	lui	a5,0xe4200
     47c:	00b7a023          	sw	a1,0(a5) # e4200000 <_DATA_LMA_START+0xc41fbb08>
     480:	0ff0000f          	fence
     484:	00008067          	ret

00000488 <plic_enter_critical_sec>:
     488:	000007b7          	lui	a5,0x0
     48c:	15878793          	addi	a5,a5,344 # 158 <_AES_VMA_END>
     490:	03c78783          	lb	a5,60(a5)
     494:	0ff7f793          	andi	a5,a5,255
     498:	cb85                	c.beqz	a5,4c8 <plic_enter_critical_sec+0x40>
     49a:	c51d                	c.beqz	a0,4c8 <plic_enter_critical_sec+0x40>
     49c:	e4200737          	lui	a4,0xe4200
     4a0:	4308                	c.lw	a0,0(a4)
     4a2:	04b57163          	bgeu	a0,a1,4e4 <plic_enter_critical_sec+0x5c>
     4a6:	300027f3          	csrr	a5,mstatus
     4aa:	8ba1                	c.andi	a5,8
     4ac:	cb85                	c.beqz	a5,4dc <plic_enter_critical_sec+0x54>
     4ae:	300476f3          	csrrci	a3,mstatus,8
     4b2:	0ff0000f          	fence
     4b6:	c30c                	c.sw	a1,0(a4)
     4b8:	0ff0000f          	fence
     4bc:	3007a7f3          	csrrs	a5,mstatus,a5
     4c0:	0ff0000f          	fence
     4c4:	00008067          	ret
     4c8:	30002573          	csrr	a0,mstatus
     4cc:	8921                	c.andi	a0,8
     4ce:	c919                	c.beqz	a0,4e4 <plic_enter_critical_sec+0x5c>
     4d0:	300477f3          	csrrci	a5,mstatus,8
     4d4:	0ff0000f          	fence
     4d8:	00008067          	ret
     4dc:	00b72023          	sw	a1,0(a4) # e4200000 <_DATA_LMA_START+0xc41fbb08>
     4e0:	0ff0000f          	fence
     4e4:	00008067          	ret

000004e8 <flash_mspi_read_ram>:
     4e8:	7179                	c.addi16sp	sp,-48
     4ea:	d226                	c.swsp	s1,36(sp)
     4ec:	000004b7          	lui	s1,0x0
     4f0:	15848493          	addi	s1,s1,344 # 158 <_AES_VMA_END>
     4f4:	d04a                	c.swsp	s2,32(sp)
     4f6:	c65e                	c.swsp	s7,12(sp)
     4f8:	892a                	c.mv	s2,a0
     4fa:	8bae                	c.mv	s7,a1
     4fc:	0404c503          	lbu	a0,64(s1)
     500:	0414c583          	lbu	a1,65(s1)
     504:	d422                	c.swsp	s0,40(sp)
     506:	ce4e                	c.swsp	s3,28(sp)
     508:	cc52                	c.swsp	s4,24(sp)
     50a:	ca56                	c.swsp	s5,20(sp)
     50c:	c85a                	c.swsp	s6,16(sp)
     50e:	d606                	c.swsp	ra,44(sp)
     510:	8b32                	c.mv	s6,a2
     512:	8ab6                	c.mv	s5,a3
     514:	843a                	c.mv	s0,a4
     516:	8a3e                	c.mv	s4,a5
     518:	f71ff0ef          	jal	ra,488 <plic_enter_critical_sec>
     51c:	80140637          	lui	a2,0x80140
     520:	00a009b3          	add	s3,zero,a0
     524:	10260783          	lb	a5,258(a2) # 80140102 <_DATA_LMA_START+0x6013bc0a>
     528:	fe07fe5b          	bbs	a5,0,524 <flash_mspi_read_ram+0x3c>
     52c:	10160783          	lb	a5,257(a2)
     530:	80140737          	lui	a4,0x80140
     534:	0ff7f793          	andi	a5,a5,255
     538:	0107e793          	ori	a5,a5,16
     53c:	10f600a3          	sb	a5,257(a2)
     540:	32870783          	lb	a5,808(a4) # 80140328 <_DATA_LMA_START+0x6013be30>
     544:	be37fe5b          	bbc	a5,3,540 <flash_mspi_read_ram+0x58>
     548:	10170783          	lb	a5,257(a4)
     54c:	854a                	c.mv	a0,s2
     54e:	0fd7f793          	andi	a5,a5,253
     552:	10f700a3          	sb	a5,257(a4)
     556:	10170783          	lb	a5,257(a4)
     55a:	0f37f793          	andi	a5,a5,243
     55e:	10f700a3          	sb	a5,257(a4)
     562:	331d                	c.jal	288 <flash_send_cmd>
     564:	0e0b1e63          	bnez	s6,660 <flash_mspi_read_ram+0x178>
     568:	020a8063          	beqz	s5,588 <flash_mspi_read_ram+0xa0>
     56c:	00000713          	li	a4,0
     570:	80140637          	lui	a2,0x80140
     574:	10060023          	sb	zero,256(a2) # 80140100 <_DATA_LMA_START+0x6013bc08>
     578:	10260783          	lb	a5,258(a2)
     57c:	fe07fe5b          	bbs	a5,0,578 <flash_mspi_read_ram+0x90>
     580:	00170713          	addi	a4,a4,1
     584:	ff5718e3          	bne	a4,s5,574 <flash_mspi_read_ram+0x8c>
     588:	01b96cdb          	bnec	s2,59,5a0 <flash_mspi_read_ram+0xb8>
     58c:	80140737          	lui	a4,0x80140
     590:	10170783          	lb	a5,257(a4) # 80140101 <_DATA_LMA_START+0x6013bc09>
     594:	0f37f793          	andi	a5,a5,243
     598:	0047e793          	ori	a5,a5,4
     59c:	10f700a3          	sb	a5,257(a4)
     5a0:	801406b7          	lui	a3,0x80140
     5a4:	10168783          	lb	a5,257(a3) # 80140101 <_DATA_LMA_START+0x6013bc09>
     5a8:	80140737          	lui	a4,0x80140
     5ac:	0ff7f793          	andi	a5,a5,255
     5b0:	0027e793          	ori	a5,a5,2
     5b4:	10f680a3          	sb	a5,257(a3)
     5b8:	10068023          	sb	zero,256(a3)
     5bc:	10270783          	lb	a5,258(a4) # 80140102 <_DATA_LMA_START+0x6013bc0a>
     5c0:	fe07fe5b          	bbs	a5,0,5bc <flash_mspi_read_ram+0xd4>
     5c4:	10170783          	lb	a5,257(a4)
     5c8:	801406b7          	lui	a3,0x80140
     5cc:	0ff7f793          	andi	a5,a5,255
     5d0:	0017e793          	ori	a5,a5,1
     5d4:	10f700a3          	sb	a5,257(a4)
     5d8:	10268783          	lb	a5,258(a3) # 80140102 <_DATA_LMA_START+0x6013bc0a>
     5dc:	fe07fe5b          	bbs	a5,0,5d8 <flash_mspi_read_ram+0xf0>
     5e0:	020a0263          	beqz	s4,604 <flash_mspi_read_ram+0x11c>
     5e4:	008a0a33          	add	s4,s4,s0
     5e8:	801406b7          	lui	a3,0x80140
     5ec:	10068783          	lb	a5,256(a3) # 80140100 <_DATA_LMA_START+0x6013bc08>
     5f0:	00140413          	addi	s0,s0,1
     5f4:	fef40fa3          	sb	a5,-1(s0)
     5f8:	10268783          	lb	a5,258(a3)
     5fc:	fe07fe5b          	bbs	a5,0,5f8 <flash_mspi_read_ram+0x110>
     600:	ff4416e3          	bne	s0,s4,5ec <flash_mspi_read_ram+0x104>
     604:	801407b7          	lui	a5,0x80140
     608:	10178703          	lb	a4,257(a5) # 80140101 <_DATA_LMA_START+0x6013bc09>
     60c:	0fe77713          	andi	a4,a4,254
     610:	10e780a3          	sb	a4,257(a5)
     614:	01b968db          	bnec	s2,59,624 <flash_mspi_read_ram+0x13c>
     618:	10178703          	lb	a4,257(a5)
     61c:	0f377713          	andi	a4,a4,243
     620:	10e780a3          	sb	a4,257(a5)
     624:	80140737          	lui	a4,0x80140
     628:	10170783          	lb	a5,257(a4) # 80140101 <_DATA_LMA_START+0x6013bc09>
     62c:	0ff7f793          	andi	a5,a5,255
     630:	0107e793          	ori	a5,a5,16
     634:	10f700a3          	sb	a5,257(a4)
     638:	0001                	c.nop
     63a:	0001                	c.nop
     63c:	0001                	c.nop
     63e:	0001                	c.nop
     640:	0001                	c.nop
     642:	5422                	c.lwsp	s0,40(sp)
     644:	0404c503          	lbu	a0,64(s1)
     648:	50b2                	c.lwsp	ra,44(sp)
     64a:	5492                	c.lwsp	s1,36(sp)
     64c:	5902                	c.lwsp	s2,32(sp)
     64e:	4a62                	c.lwsp	s4,24(sp)
     650:	4ad2                	c.lwsp	s5,20(sp)
     652:	4b42                	c.lwsp	s6,16(sp)
     654:	4bb2                	c.lwsp	s7,12(sp)
     656:	85ce                	c.mv	a1,s3
     658:	49f2                	c.lwsp	s3,28(sp)
     65a:	6145                	c.addi16sp	sp,48
     65c:	dd5ff06f          	j	430 <plic_exit_critical_sec>
     660:	855e                	c.mv	a0,s7
     662:	36cd                	c.jal	244 <flash_send_addr>
     664:	f05ff06f          	j	568 <flash_mspi_read_ram+0x80>

00000668 <flash_mspi_read_ram.constprop.7>:
     668:	1101                	c.addi	sp,-32
     66a:	c64e                	c.swsp	s3,12(sp)
     66c:	000009b7          	lui	s3,0x0
     670:	15898993          	addi	s3,s3,344 # 158 <_AES_VMA_END>
     674:	cc22                	c.swsp	s0,24(sp)
     676:	c256                	c.swsp	s5,4(sp)
     678:	842e                	c.mv	s0,a1
     67a:	8aaa                	c.mv	s5,a0
     67c:	0419c583          	lbu	a1,65(s3)
     680:	0409c503          	lbu	a0,64(s3)
     684:	c84a                	c.swsp	s2,16(sp)
     686:	c452                	c.swsp	s4,8(sp)
     688:	ce06                	c.swsp	ra,28(sp)
     68a:	ca26                	c.swsp	s1,20(sp)
     68c:	8932                	c.mv	s2,a2
     68e:	3bed                	c.jal	488 <plic_enter_critical_sec>
     690:	80140737          	lui	a4,0x80140
     694:	00a00a33          	add	s4,zero,a0
     698:	10270783          	lb	a5,258(a4) # 80140102 <_DATA_LMA_START+0x6013bc0a>
     69c:	fe07fe5b          	bbs	a5,0,698 <flash_mspi_read_ram.constprop.7+0x30>
     6a0:	10170783          	lb	a5,257(a4)
     6a4:	801404b7          	lui	s1,0x80140
     6a8:	0ff7f793          	andi	a5,a5,255
     6ac:	0107e793          	ori	a5,a5,16
     6b0:	10f700a3          	sb	a5,257(a4)
     6b4:	32848783          	lb	a5,808(s1) # 80140328 <_DATA_LMA_START+0x6013be30>
     6b8:	be37fe5b          	bbc	a5,3,6b4 <flash_mspi_read_ram.constprop.7+0x4c>
     6bc:	10148783          	lb	a5,257(s1)
     6c0:	03b00513          	li	a0,59
     6c4:	0fd7f793          	andi	a5,a5,253
     6c8:	10f480a3          	sb	a5,257(s1)
     6cc:	10148783          	lb	a5,257(s1)
     6d0:	0f37f793          	andi	a5,a5,243
     6d4:	10f480a3          	sb	a5,257(s1)
     6d8:	bb1ff0ef          	jal	ra,288 <flash_send_cmd>
     6dc:	01500533          	add	a0,zero,s5
     6e0:	b65ff0ef          	jal	ra,244 <flash_send_addr>
     6e4:	80140737          	lui	a4,0x80140
     6e8:	10048023          	sb	zero,256(s1)
     6ec:	10270783          	lb	a5,258(a4) # 80140102 <_DATA_LMA_START+0x6013bc0a>
     6f0:	fe07fe5b          	bbs	a5,0,6ec <flash_mspi_read_ram.constprop.7+0x84>
     6f4:	10170783          	lb	a5,257(a4)
     6f8:	801406b7          	lui	a3,0x80140
     6fc:	0f37f793          	andi	a5,a5,243
     700:	0047e793          	ori	a5,a5,4
     704:	10f700a3          	sb	a5,257(a4)
     708:	10170783          	lb	a5,257(a4)
     70c:	0ff7f793          	andi	a5,a5,255
     710:	0027e793          	ori	a5,a5,2
     714:	10f700a3          	sb	a5,257(a4)
     718:	10070023          	sb	zero,256(a4)
     71c:	10268783          	lb	a5,258(a3) # 80140102 <_DATA_LMA_START+0x6013bc0a>
     720:	fe07fe5b          	bbs	a5,0,71c <flash_mspi_read_ram.constprop.7+0xb4>
     724:	10168783          	lb	a5,257(a3)
     728:	80140737          	lui	a4,0x80140
     72c:	0ff7f793          	andi	a5,a5,255
     730:	0017e793          	ori	a5,a5,1
     734:	10f680a3          	sb	a5,257(a3)
     738:	10270783          	lb	a5,258(a4) # 80140102 <_DATA_LMA_START+0x6013bc0a>
     73c:	fe07fe5b          	bbs	a5,0,738 <flash_mspi_read_ram.constprop.7+0xd0>
     740:	02090263          	beqz	s2,764 <flash_mspi_read_ram.constprop.7+0xfc>
     744:	01240633          	add	a2,s0,s2
     748:	80140737          	lui	a4,0x80140
     74c:	10070783          	lb	a5,256(a4) # 80140100 <_DATA_LMA_START+0x6013bc08>
     750:	00140413          	addi	s0,s0,1
     754:	fef40fa3          	sb	a5,-1(s0)
     758:	10270783          	lb	a5,258(a4)
     75c:	fe07fe5b          	bbs	a5,0,758 <flash_mspi_read_ram.constprop.7+0xf0>
     760:	fec416e3          	bne	s0,a2,74c <flash_mspi_read_ram.constprop.7+0xe4>
     764:	801407b7          	lui	a5,0x80140
     768:	10178703          	lb	a4,257(a5) # 80140101 <_DATA_LMA_START+0x6013bc09>
     76c:	0fe77713          	andi	a4,a4,254
     770:	10e780a3          	sb	a4,257(a5)
     774:	10178703          	lb	a4,257(a5)
     778:	0f377713          	andi	a4,a4,243
     77c:	10e780a3          	sb	a4,257(a5)
     780:	10178703          	lb	a4,257(a5)
     784:	0ff77713          	andi	a4,a4,255
     788:	01076713          	ori	a4,a4,16
     78c:	10e780a3          	sb	a4,257(a5)
     790:	0001                	c.nop
     792:	0001                	c.nop
     794:	0001                	c.nop
     796:	0001                	c.nop
     798:	0001                	c.nop
     79a:	4462                	c.lwsp	s0,24(sp)
     79c:	0409c503          	lbu	a0,64(s3)
     7a0:	40f2                	c.lwsp	ra,28(sp)
     7a2:	44d2                	c.lwsp	s1,20(sp)
     7a4:	4942                	c.lwsp	s2,16(sp)
     7a6:	49b2                	c.lwsp	s3,12(sp)
     7a8:	4a92                	c.lwsp	s5,4(sp)
     7aa:	85d2                	c.mv	a1,s4
     7ac:	4a22                	c.lwsp	s4,8(sp)
     7ae:	6105                	c.addi16sp	sp,32
     7b0:	c81ff06f          	j	430 <plic_exit_critical_sec>

000007b4 <analog_write_reg8>:
     7b4:	30002673          	csrr	a2,mstatus
     7b8:	8a21                	c.andi	a2,8
     7ba:	c609                	c.beqz	a2,7c4 <analog_write_reg8+0x10>
     7bc:	300477f3          	csrrci	a5,mstatus,8
     7c0:	0ff0000f          	fence
     7c4:	80140737          	lui	a4,0x80140
     7c8:	18a70023          	sb	a0,384(a4) # 80140180 <_DATA_LMA_START+0x6013bc88>
     7cc:	18b70223          	sb	a1,388(a4)
     7d0:	06000693          	li	a3,96
     7d4:	801407b7          	lui	a5,0x80140
     7d8:	18d70123          	sb	a3,386(a4)
     7dc:	18278703          	lb	a4,386(a5) # 80140182 <_DATA_LMA_START+0x6013bc8a>
     7e0:	fe777e5b          	bbs	a4,7,7dc <analog_write_reg8+0x28>
     7e4:	18078123          	sb	zero,386(a5)
     7e8:	00060663          	beqz	a2,7f4 <analog_write_reg8+0x40>
     7ec:	30062673          	csrrs	a2,mstatus,a2
     7f0:	0ff0000f          	fence
     7f4:	00008067          	ret

000007f8 <analog_read_reg8>:
     7f8:	300026f3          	csrr	a3,mstatus
     7fc:	8aa1                	c.andi	a3,8
     7fe:	c689                	c.beqz	a3,808 <analog_read_reg8+0x10>
     800:	300477f3          	csrrci	a5,mstatus,8
     804:	0ff0000f          	fence
     808:	801407b7          	lui	a5,0x80140
     80c:	18a78023          	sb	a0,384(a5) # 80140180 <_DATA_LMA_START+0x6013bc88>
     810:	00100713          	li	a4,1
     814:	18e781a3          	sb	a4,387(a5)
     818:	04000613          	li	a2,64
     81c:	80140737          	lui	a4,0x80140
     820:	18c78123          	sb	a2,386(a5)
     824:	18270783          	lb	a5,386(a4) # 80140182 <_DATA_LMA_START+0x6013bc8a>
     828:	fe77fe5b          	bbs	a5,7,824 <analog_read_reg8+0x2c>
     82c:	18470503          	lb	a0,388(a4)
     830:	0ff57513          	andi	a0,a0,255
     834:	00068663          	beqz	a3,840 <analog_read_reg8+0x48>
     838:	3006a6f3          	csrrs	a3,mstatus,a3
     83c:	0ff0000f          	fence
     840:	00008067          	ret

00000844 <clock_init_ram.constprop.11>:
     844:	1141                	c.addi	sp,-16
     846:	80140737          	lui	a4,0x80140
     84a:	c606                	c.swsp	ra,12(sp)
     84c:	c422                	c.swsp	s0,8(sp)
     84e:	c226                	c.swsp	s1,4(sp)
     850:	10270783          	lb	a5,258(a4) # 80140102 <_DATA_LMA_START+0x6013bc0a>
     854:	fe07fe5b          	bbs	a5,0,850 <clock_init_ram.constprop.11+0xc>
     858:	10170783          	lb	a5,257(a4)
     85c:	801404b7          	lui	s1,0x80140
     860:	0ff7f793          	andi	a5,a5,255
     864:	0107e793          	ori	a5,a5,16
     868:	10f700a3          	sb	a5,257(a4)
     86c:	32848783          	lb	a5,808(s1) # 80140328 <_DATA_LMA_START+0x6013be30>
     870:	be37fe5b          	bbc	a5,3,86c <clock_init_ram.constprop.11+0x28>
     874:	1e848783          	lb	a5,488(s1)
     878:	08000513          	li	a0,128
     87c:	8bbd                	c.andi	a5,15
     87e:	1ef48423          	sb	a5,488(s1)
     882:	3f9d                	c.jal	7f8 <analog_read_reg8>
     884:	0e057593          	andi	a1,a0,224
     888:	0105e593          	ori	a1,a1,16
     88c:	08000513          	li	a0,128
     890:	f25ff0ef          	jal	ra,7b4 <analog_write_reg8>
     894:	00900513          	li	a0,9
     898:	f61ff0ef          	jal	ra,7f8 <analog_read_reg8>
     89c:	0f357593          	andi	a1,a0,243
     8a0:	0085e593          	ori	a1,a1,8
     8a4:	4525                	c.li	a0,9
     8a6:	3739                	c.jal	7b4 <analog_write_reg8>
     8a8:	0c000793          	li	a5,192
     8ac:	d69f940b          	addigp	s0,-664 # 80568 <sys_clk>
     8b0:	00f41023          	sh	a5,0(s0)
     8b4:	08100513          	li	a0,129
     8b8:	4791                	c.li	a5,4
     8ba:	1ef48da3          	sb	a5,507(s1)
     8be:	3f2d                	c.jal	7f8 <analog_read_reg8>
     8c0:	04056593          	ori	a1,a0,64
     8c4:	0ff5f593          	andi	a1,a1,255
     8c8:	08100513          	li	a0,129
     8cc:	ee9ff0ef          	jal	ra,7b4 <analog_write_reg8>
     8d0:	08800513          	li	a0,136
     8d4:	f25ff0ef          	jal	ra,7f8 <analog_read_reg8>
     8d8:	be557c5b          	bbc	a0,5,8d0 <clock_init_ram.constprop.11+0x8c>
     8dc:	08100513          	li	a0,129
     8e0:	f19ff0ef          	jal	ra,7f8 <analog_read_reg8>
     8e4:	0bf57593          	andi	a1,a0,191
     8e8:	08100513          	li	a0,129
     8ec:	ec9ff0ef          	jal	ra,7b4 <analog_write_reg8>
     8f0:	801407b7          	lui	a5,0x80140
     8f4:	1e978703          	lb	a4,489(a5) # 801401e9 <_DATA_LMA_START+0x6013bcf1>
     8f8:	8b3d                	c.andi	a4,15
     8fa:	04076713          	ori	a4,a4,64
     8fe:	1ee784a3          	sb	a4,489(a5)
     902:	1e878703          	lb	a4,488(a5)
     906:	f8076713          	ori	a4,a4,-128
     90a:	0ff77713          	andi	a4,a4,255
     90e:	1ee78423          	sb	a4,488(a5)
     912:	1e878703          	lb	a4,488(a5)
     916:	f8076713          	ori	a4,a4,-128
     91a:	0ff77713          	andi	a4,a4,255
     91e:	1ee78423          	sb	a4,488(a5)
     922:	1d878703          	lb	a4,472(a5)
     926:	00045683          	lhu	a3,0(s0)
     92a:	0fb77713          	andi	a4,a4,251
     92e:	1ce78c23          	sb	a4,472(a5)
     932:	1d878703          	lb	a4,472(a5)
     936:	8689                	c.srai	a3,0x2
     938:	00d402a3          	sb	a3,5(s0)
     93c:	0fc77713          	andi	a4,a4,252
     940:	1ce78c23          	sb	a4,472(a5)
     944:	1e878703          	lb	a4,488(a5)
     948:	0f077713          	andi	a4,a4,240
     94c:	00876713          	ori	a4,a4,8
     950:	1ee78423          	sb	a4,488(a5)
     954:	1e878703          	lb	a4,488(a5)
     958:	00045683          	lhu	a3,0(s0)
     95c:	08f77713          	andi	a4,a4,143
     960:	868d                	c.srai	a3,0x3
     962:	00d40123          	sb	a3,2(s0)
     966:	02076713          	ori	a4,a4,32
     96a:	1ee78423          	sb	a4,488(a5)
     96e:	0ff6f693          	andi	a3,a3,255
     972:	00d401a3          	sb	a3,3(s0)
     976:	00d40223          	sb	a3,4(s0)
     97a:	40b2                	c.lwsp	ra,12(sp)
     97c:	4422                	c.lwsp	s0,8(sp)
     97e:	4492                	c.lwsp	s1,4(sp)
     980:	0141                	c.addi	sp,16
     982:	8082                	c.jr	ra

00000984 <pm_wait_bbpll_done>:
     984:	1101                	c.addi	sp,-32
     986:	08100513          	li	a0,129
     98a:	cc22                	c.swsp	s0,24(sp)
     98c:	ca26                	c.swsp	s1,20(sp)
     98e:	c84a                	c.swsp	s2,16(sp)
     990:	ce06                	c.swsp	ra,28(sp)
     992:	359d                	c.jal	7f8 <analog_read_reg8>
     994:	04056593          	ori	a1,a0,64
     998:	892a                	c.mv	s2,a0
     99a:	0ff5f593          	andi	a1,a1,255
     99e:	08100513          	li	a0,129
     9a2:	0bf97913          	andi	s2,s2,191
     9a6:	4481                	c.li	s1,0
     9a8:	4475                	c.li	s0,29
     9aa:	3529                	c.jal	7b4 <analog_write_reg8>
     9ac:	000107a3          	sb	zero,15(sp)
     9b0:	00f10783          	lb	a5,15(sp)
     9b4:	0ff7f793          	andi	a5,a5,255
     9b8:	02f46063          	bltu	s0,a5,9d8 <pm_wait_bbpll_done+0x54>
     9bc:	0001                	c.nop
     9be:	00f10783          	lb	a5,15(sp)
     9c2:	0785                	c.addi	a5,1
     9c4:	0ff7f793          	andi	a5,a5,255
     9c8:	00f107a3          	sb	a5,15(sp)
     9cc:	00f10783          	lb	a5,15(sp)
     9d0:	0ff7f793          	andi	a5,a5,255
     9d4:	fef474e3          	bgeu	s0,a5,9bc <pm_wait_bbpll_done+0x38>
     9d8:	08800513          	li	a0,136
     9dc:	e1dff0ef          	jal	ra,7f8 <analog_read_reg8>
     9e0:	4255765b          	bbs	a0,5,a0c <pm_wait_bbpll_done+0x88>
     9e4:	cc95                	c.beqz	s1,a20 <pm_wait_bbpll_done+0x9c>
     9e6:	0414d35b          	beqc	s1,1,a2c <pm_wait_bbpll_done+0xa8>
     9ea:	85ca                	c.mv	a1,s2
     9ec:	08100513          	li	a0,129
     9f0:	dc5ff0ef          	jal	ra,7b4 <analog_write_reg8>
     9f4:	0024d65b          	beqc	s1,2,a00 <pm_wait_bbpll_done+0x7c>
     9f8:	0485                	c.addi	s1,1
     9fa:	0ff4f493          	andi	s1,s1,255
     9fe:	b77d                	c.j	9ac <pm_wait_bbpll_done+0x28>
     a00:	40f2                	c.lwsp	ra,28(sp)
     a02:	4462                	c.lwsp	s0,24(sp)
     a04:	44d2                	c.lwsp	s1,20(sp)
     a06:	4942                	c.lwsp	s2,16(sp)
     a08:	6105                	c.addi16sp	sp,32
     a0a:	8082                	c.jr	ra
     a0c:	4462                	c.lwsp	s0,24(sp)
     a0e:	40f2                	c.lwsp	ra,28(sp)
     a10:	44d2                	c.lwsp	s1,20(sp)
     a12:	85ca                	c.mv	a1,s2
     a14:	4942                	c.lwsp	s2,16(sp)
     a16:	08100513          	li	a0,129
     a1a:	6105                	c.addi16sp	sp,32
     a1c:	d99ff06f          	j	7b4 <analog_write_reg8>
     a20:	04600593          	li	a1,70
     a24:	4505                	c.li	a0,1
     a26:	3379                	c.jal	7b4 <analog_write_reg8>
     a28:	fd1ff06f          	j	9f8 <pm_wait_bbpll_done+0x74>
     a2c:	04300593          	li	a1,67
     a30:	4505                	c.li	a0,1
     a32:	3349                	c.jal	7b4 <analog_write_reg8>
     a34:	fc5ff06f          	j	9f8 <pm_wait_bbpll_done+0x74>

00000a38 <pm_sleep_start>:
     a38:	1101                	c.addi	sp,-32
     a3a:	d87fa72b          	lwgp	a4,-636 # 80584 <g_chip_version>
     a3e:	000006b7          	lui	a3,0x0
     a42:	ce06                	c.swsp	ra,28(sp)
     a44:	cc22                	c.swsp	s0,24(sp)
     a46:	ca26                	c.swsp	s1,20(sp)
     a48:	0ff00793          	li	a5,255
     a4c:	19a6c583          	lbu	a1,410(a3) # 19a <g_pm_suspend_power_cfg>
     a50:	00f71a63          	bne	a4,a5,a64 <pm_sleep_start+0x2c>
     a54:	0fe5f593          	andi	a1,a1,254
     a58:	07d00513          	li	a0,125
     a5c:	d59ff0ef          	jal	ra,7b4 <analog_write_reg8>
     a60:	00c0006f          	j	a6c <pm_sleep_start+0x34>
     a64:	07d00513          	li	a0,125
     a68:	d4dff0ef          	jal	ra,7b4 <analog_write_reg8>
     a6c:	801406b7          	lui	a3,0x80140
     a70:	10268783          	lb	a5,258(a3) # 80140102 <_DATA_LMA_START+0x6013bc0a>
     a74:	fe07fe5b          	bbs	a5,0,a70 <pm_sleep_start+0x38>
     a78:	10168703          	lb	a4,257(a3)
     a7c:	801407b7          	lui	a5,0x80140
     a80:	0ff77713          	andi	a4,a4,255
     a84:	01076713          	ori	a4,a4,16
     a88:	10e680a3          	sb	a4,257(a3)
     a8c:	32878703          	lb	a4,808(a5) # 80140328 <_DATA_LMA_START+0x6013be30>
     a90:	be377e5b          	bbc	a4,3,a8c <pm_sleep_start+0x54>
     a94:	10178703          	lb	a4,257(a5)
     a98:	80140437          	lui	s0,0x80140
     a9c:	0fd77713          	andi	a4,a4,253
     aa0:	10e780a3          	sb	a4,257(a5)
     aa4:	10178703          	lb	a4,257(a5)
     aa8:	0ef77713          	andi	a4,a4,239
     aac:	10e780a3          	sb	a4,257(a5)
     ab0:	fb900713          	li	a4,-71
     ab4:	10e78023          	sb	a4,256(a5)
     ab8:	10240783          	lb	a5,258(s0) # 80140102 <_DATA_LMA_START+0x6013bc0a>
     abc:	fe07fe5b          	bbs	a5,0,ab8 <pm_sleep_start+0x80>
     ac0:	10140783          	lb	a5,257(s0)
     ac4:	452d                	c.li	a0,11
     ac6:	0ff7f793          	andi	a5,a5,255
     aca:	0107e793          	ori	a5,a5,16
     ace:	10f400a3          	sb	a5,257(s0)
     ad2:	320404a3          	sb	zero,809(s0)
     ad6:	330d                	c.jal	7f8 <analog_read_reg8>
     ad8:	0fc57593          	andi	a1,a0,252
     adc:	452d                	c.li	a0,11
     ade:	39d9                	c.jal	7b4 <analog_write_reg8>
     ae0:	08100513          	li	a0,129
     ae4:	d15ff0ef          	jal	ra,7f8 <analog_read_reg8>
     ae8:	f8056593          	ori	a1,a0,-128
     aec:	0ff5f593          	andi	a1,a1,255
     af0:	08100513          	li	a0,129
     af4:	cc1ff0ef          	jal	ra,7b4 <analog_write_reg8>
     af8:	f8000793          	li	a5,-128
     afc:	1ef407a3          	sb	a5,495(s0)
     b00:	03f00493          	li	s1,63
     b04:	00012423          	sw	zero,8(sp)
     b08:	47a2                	c.lwsp	a5,8(sp)
     b0a:	00f4e763          	bltu	s1,a5,b18 <pm_sleep_start+0xe0>
     b0e:	0001                	c.nop
     b10:	47a2                	c.lwsp	a5,8(sp)
     b12:	0785                	c.addi	a5,1
     b14:	c43e                	c.swsp	a5,8(sp)
     b16:	bfcd                	c.j	b08 <pm_sleep_start+0xd0>
     b18:	08100513          	li	a0,129
     b1c:	cddff0ef          	jal	ra,7f8 <analog_read_reg8>
     b20:	07f57593          	andi	a1,a0,127
     b24:	08100513          	li	a0,129
     b28:	c8dff0ef          	jal	ra,7b4 <analog_write_reg8>
     b2c:	00b00513          	li	a0,11
     b30:	cc9ff0ef          	jal	ra,7f8 <analog_read_reg8>
     b34:	00356593          	ori	a1,a0,3
     b38:	0ff5f593          	andi	a1,a1,255
     b3c:	452d                	c.li	a0,11
     b3e:	399d                	c.jal	7b4 <analog_write_reg8>
     b40:	08000593          	li	a1,128
     b44:	07d00513          	li	a0,125
     b48:	c6dff0ef          	jal	ra,7b4 <analog_write_reg8>
     b4c:	801407b7          	lui	a5,0x80140
     b50:	329784a3          	sb	s1,809(a5) # 80140329 <_DATA_LMA_START+0x6013be31>
     b54:	10178683          	lb	a3,257(a5)
     b58:	80140737          	lui	a4,0x80140
     b5c:	0ef6f693          	andi	a3,a3,239
     b60:	10d780a3          	sb	a3,257(a5)
     b64:	fab00693          	li	a3,-85
     b68:	10d78023          	sb	a3,256(a5)
     b6c:	10270783          	lb	a5,258(a4) # 80140102 <_DATA_LMA_START+0x6013bc0a>
     b70:	fe07fe5b          	bbs	a5,0,b6c <pm_sleep_start+0x134>
     b74:	10170783          	lb	a5,257(a4)
     b78:	12b00693          	li	a3,299
     b7c:	0ff7f793          	andi	a5,a5,255
     b80:	0107e793          	ori	a5,a5,16
     b84:	10f700a3          	sb	a5,257(a4)
     b88:	00012623          	sw	zero,12(sp)
     b8c:	47b2                	c.lwsp	a5,12(sp)
     b8e:	00f6e763          	bltu	a3,a5,b9c <pm_sleep_start+0x164>
     b92:	0001                	c.nop
     b94:	47b2                	c.lwsp	a5,12(sp)
     b96:	0785                	c.addi	a5,1
     b98:	c63e                	c.swsp	a5,12(sp)
     b9a:	bfcd                	c.j	b8c <pm_sleep_start+0x154>
     b9c:	08800513          	li	a0,136
     ba0:	c59ff0ef          	jal	ra,7f8 <analog_read_reg8>
     ba4:	be757c5b          	bbc	a0,7,b9c <pm_sleep_start+0x164>
     ba8:	08800513          	li	a0,136
     bac:	c4dff0ef          	jal	ra,7f8 <analog_read_reg8>
     bb0:	be757c5b          	bbc	a0,7,ba8 <pm_sleep_start+0x170>
     bb4:	08800513          	li	a0,136
     bb8:	c41ff0ef          	jal	ra,7f8 <analog_read_reg8>
     bbc:	be757c5b          	bbc	a0,7,bb4 <pm_sleep_start+0x17c>
     bc0:	4462                	c.lwsp	s0,24(sp)
     bc2:	40f2                	c.lwsp	ra,28(sp)
     bc4:	44d2                	c.lwsp	s1,20(sp)
     bc6:	6105                	c.addi16sp	sp,32
     bc8:	dbdff06f          	j	984 <pm_wait_bbpll_done>

00000bcc <pm_sleep_wakeup_ram.constprop.3>:
     bcc:	1101                	c.addi	sp,-32
     bce:	c452                	c.swsp	s4,8(sp)
     bd0:	8a2a                	c.mv	s4,a0
     bd2:	ce06                	c.swsp	ra,28(sp)
     bd4:	cc22                	c.swsp	s0,24(sp)
     bd6:	ca26                	c.swsp	s1,20(sp)
     bd8:	c84a                	c.swsp	s2,16(sp)
     bda:	c64e                	c.swsp	s3,12(sp)
     bdc:	c256                	c.swsp	s5,4(sp)
     bde:	c05a                	c.swsp	s6,0(sp)
     be0:	300029f3          	csrr	s3,mstatus
     be4:	0089f993          	andi	s3,s3,8
     be8:	00098663          	beqz	s3,bf4 <pm_sleep_wakeup_ram.constprop.3+0x28>
     bec:	300477f3          	csrrci	a5,mstatus,8
     bf0:	0ff0000f          	fence
     bf4:	801407b7          	lui	a5,0x80140
     bf8:	2147a683          	lw	a3,532(a5) # 80140214 <_DATA_LMA_START+0x6013bd1c>
     bfc:	def5                	c.beqz	a3,bf8 <pm_sleep_wakeup_ram.constprop.3+0x2c>
     bfe:	00000437          	lui	s0,0x0
     c02:	15840693          	addi	a3,s0,344 # 158 <_AES_VMA_END>
     c06:	2147a783          	lw	a5,532(a5)
     c0a:	4ed8                	c.lw	a4,28(a3)
     c0c:	d6dc                	c.sw	a5,44(a3)
     c0e:	15840413          	addi	s0,s0,344
     c12:	0792                	c.slli	a5,0x4
     c14:	cb11                	c.beqz	a4,c28 <pm_sleep_wakeup_ram.constprop.3+0x5c>
     c16:	03044603          	lbu	a2,48(s0)
     c1a:	4691                	c.li	a3,4
     c1c:	8f99                	c.sub	a5,a4
     c1e:	8e91                	c.sub	a3,a2
     c20:	40d7d7b3          	sra	a5,a5,a3
     c24:	00e787b3          	add	a5,a5,a4
     c28:	4818                	c.lw	a4,16(s0)
     c2a:	4047d493          	srai	s1,a5,0x4
     c2e:	02e48733          	mul	a4,s1,a4
     c32:	80140937          	lui	s2,0x80140
     c36:	20092a83          	lw	s5,512(s2) # 80140200 <_DATA_LMA_START+0x6013bd08>
     c3a:	cc5c                	c.sw	a5,28(s0)
     c3c:	415a0ab3          	sub	s5,s4,s5
     c40:	e00006b7          	lui	a3,0xe0000
     c44:	41275793          	srai	a5,a4,0x12
     c48:	94be                	c.add	s1,a5
     c4a:	0486                	c.slli	s1,0x1
     c4c:	02942a23          	sw	s1,52(s0)
     c50:	0356f063          	bgeu	a3,s5,c70 <pm_sleep_wakeup_ram.constprop.3+0xa4>
     c54:	00098663          	beqz	s3,c60 <pm_sleep_wakeup_ram.constprop.3+0x94>
     c58:	3009a9f3          	csrrs	s3,mstatus,s3
     c5c:	0ff0000f          	fence
     c60:	06400513          	li	a0,100
     c64:	b95ff0ef          	jal	ra,7f8 <analog_read_reg8>
     c68:	01f57513          	andi	a0,a0,31
     c6c:	2540006f          	j	ec0 <pm_sleep_wakeup_ram.constprop.3+0x2f4>
     c70:	04a41783          	lh	a5,74(s0)
     c74:	1137a7db          	bfoz	a5,a5,4,19
     c78:	02fafe63          	bgeu	s5,a5,cb4 <pm_sleep_wakeup_ram.constprop.3+0xe8>
     c7c:	45fd                	c.li	a1,31
     c7e:	06400513          	li	a0,100
     c82:	801404b7          	lui	s1,0x80140
     c86:	20092403          	lw	s0,512(s2)
     c8a:	362d                	c.jal	7b4 <analog_write_reg8>
     c8c:	06400513          	li	a0,100
     c90:	b69ff0ef          	jal	ra,7f8 <analog_read_reg8>
     c94:	2004a783          	lw	a5,512(s1) # 80140200 <_DATA_LMA_START+0x6013bd08>
     c98:	897d                	c.andi	a0,31
     c9a:	8f81                	c.sub	a5,s0
     c9c:	0157f463          	bgeu	a5,s5,ca4 <pm_sleep_wakeup_ram.constprop.3+0xd8>
     ca0:	fe0506e3          	beqz	a0,c8c <pm_sleep_wakeup_ram.constprop.3+0xc0>
     ca4:	20098e63          	beqz	s3,ec0 <pm_sleep_wakeup_ram.constprop.3+0x2f4>
     ca8:	3009a9f3          	csrrs	s3,mstatus,s3
     cac:	0ff0000f          	fence
     cb0:	2100006f          	j	ec0 <pm_sleep_wakeup_ram.constprop.3+0x2f4>
     cb4:	1e890a83          	lb	s5,488(s2)
     cb8:	00faf793          	andi	a5,s5,15
     cbc:	1ef90423          	sb	a5,488(s2)
     cc0:	1d890b03          	lb	s6,472(s2)
     cc4:	0f8b7793          	andi	a5,s6,248
     cc8:	1cf90c23          	sb	a5,472(s2)
     ccc:	00100793          	li	a5,1
     cd0:	20f90c23          	sb	a5,536(s2)
     cd4:	20a90783          	lb	a5,522(s2)
     cd8:	0f77f793          	andi	a5,a5,247
     cdc:	20f90523          	sb	a5,522(s2)
     ce0:	e9cff0ef          	jal	ra,37c <clock_get_32k_tick>
     ce4:	20092703          	lw	a4,512(s2)
     ce8:	20b90783          	lb	a5,523(s2)
     cec:	5054                	c.lw	a3,36(s0)
     cee:	0ff7f793          	andi	a5,a5,255
     cf2:	0027e793          	ori	a5,a5,2
     cf6:	c468                	c.sw	a0,76(s0)
     cf8:	dc18                	c.sw	a4,56(s0)
     cfa:	03044603          	lbu	a2,48(s0)
     cfe:	40d506b3          	sub	a3,a0,a3
     d02:	20f905a3          	sb	a5,523(s2)
     d06:	d414                	c.sw	a3,40(s0)
     d08:	e215                	c.bnez	a2,d2c <pm_sleep_wakeup_ram.constprop.3+0x160>
     d0a:	441c                	c.lw	a5,8(s0)
     d0c:	c385                	c.beqz	a5,d2c <pm_sleep_wakeup_ram.constprop.3+0x160>
     d0e:	05044783          	lbu	a5,80(s0)
     d12:	ef89                	c.bnez	a5,d2c <pm_sleep_wakeup_ram.constprop.3+0x160>
     d14:	00c42783          	lw	a5,12(s0)
     d18:	000276b7          	lui	a3,0x27
     d1c:	40f507b3          	sub	a5,a0,a5
     d20:	6c07a7db          	bfoz	a5,a5,27,0
     d24:	10068693          	addi	a3,a3,256 # 27100 <BIN_SIZE+0x22678>
     d28:	00f6f863          	bgeu	a3,a5,d38 <pm_sleep_wakeup_ram.constprop.3+0x16c>
     d2c:	00176713          	ori	a4,a4,1
     d30:	02040823          	sb	zero,48(s0)
     d34:	c448                	c.sw	a0,12(s0)
     d36:	c418                	c.sw	a4,8(s0)
     d38:	02000593          	li	a1,32
     d3c:	04b00513          	li	a0,75
     d40:	a75ff0ef          	jal	ra,7b4 <analog_write_reg8>
     d44:	45fd                	c.li	a1,31
     d46:	06400513          	li	a0,100
     d4a:	34ad                	c.jal	7b4 <analog_write_reg8>
     d4c:	03000593          	li	a1,48
     d50:	07e00513          	li	a0,126
     d54:	a61ff0ef          	jal	ra,7b4 <analog_write_reg8>
     d58:	0f900593          	li	a1,249
     d5c:	04d00513          	li	a0,77
     d60:	a55ff0ef          	jal	ra,7b4 <analog_write_reg8>
     d64:	4585                	c.li	a1,1
     d66:	07f00513          	li	a0,127
     d6a:	34a9                	c.jal	7b4 <analog_write_reg8>
     d6c:	04841783          	lh	a5,72(s0)
     d70:	0ee00593          	li	a1,238
     d74:	1137a7db          	bfoz	a5,a5,4,19
     d78:	04c00513          	li	a0,76
     d7c:	40fa0933          	sub	s2,s4,a5
     d80:	a35ff0ef          	jal	ra,7b4 <analog_write_reg8>
     d84:	05441583          	lh	a1,84(s0)
     d88:	04000513          	li	a0,64
     d8c:	0ff5f593          	andi	a1,a1,255
     d90:	a25ff0ef          	jal	ra,7b4 <analog_write_reg8>
     d94:	441c                	c.lw	a5,8(s0)
     d96:	07ff06b7          	lui	a3,0x7ff0
     d9a:	40f907b3          	sub	a5,s2,a5
     d9e:	00168713          	addi	a4,a3,1 # 7ff0001 <FLASH_SIZE+0x7ef0001>
     da2:	00e7b733          	sltu	a4,a5,a4
     da6:	00174713          	xori	a4,a4,1
     daa:	00e40223          	sb	a4,4(s0)
     dae:	00f6f963          	bgeu	a3,a5,dc0 <pm_sleep_wakeup_ram.constprop.3+0x1f4>
     db2:	5858                	c.lw	a4,52(s0)
     db4:	4448                	c.lw	a0,12(s0)
     db6:	02e7d7b3          	divu	a5,a5,a4
     dba:	0796                	c.slli	a5,0x5
     dbc:	953e                	c.add	a0,a5
     dbe:	a809                	c.j	dd0 <pm_sleep_wakeup_ram.constprop.3+0x204>
     dc0:	5848                	c.lw	a0,52(s0)
     dc2:	8085                	c.srli	s1,0x1
     dc4:	0796                	c.slli	a5,0x5
     dc6:	97a6                	c.add	a5,s1
     dc8:	02a7d7b3          	divu	a5,a5,a0
     dcc:	4448                	c.lw	a0,12(s0)
     dce:	953e                	c.add	a0,a5
     dd0:	d00ff0ef          	jal	ra,2d0 <clock_set_32k_tick>
     dd4:	06400513          	li	a0,100
     dd8:	a21ff0ef          	jal	ra,7f8 <analog_read_reg8>
     ddc:	01f57513          	andi	a0,a0,31
     de0:	e511                	c.bnez	a0,dec <pm_sleep_wakeup_ram.constprop.3+0x220>
     de2:	3999                	c.jal	a38 <pm_sleep_start>
     de4:	4585                	c.li	a1,1
     de6:	07f00513          	li	a0,127
     dea:	32e9                	c.jal	7b4 <analog_write_reg8>
     dec:	80140737          	lui	a4,0x80140
     df0:	02000793          	li	a5,32
     df4:	1ef707a3          	sb	a5,495(a4) # 801401ef <_DATA_LMA_START+0x6013bcf7>
     df8:	00200793          	li	a5,2
     dfc:	20f70c23          	sb	a5,536(a4)
     e00:	20a70783          	lb	a5,522(a4)
     e04:	0ff7f793          	andi	a5,a5,255
     e08:	00c7e793          	ori	a5,a5,12
     e0c:	20f70523          	sb	a5,522(a4)
     e10:	d6cff0ef          	jal	ra,37c <clock_get_32k_tick>
     e14:	00444783          	lbu	a5,4(s0)
     e18:	cf81                	c.beqz	a5,e30 <pm_sleep_wakeup_ram.constprop.3+0x264>
     e1a:	4458                	c.lw	a4,12(s0)
     e1c:	5854                	c.lw	a3,52(s0)
     e1e:	40e50733          	sub	a4,a0,a4
     e22:	441c                	c.lw	a5,8(s0)
     e24:	0705                	c.addi	a4,1
     e26:	8315                	c.srli	a4,0x5
     e28:	c4d717ff          	maddr32	a5,a4,a3
     e2c:	0180006f          	j	e44 <pm_sleep_wakeup_ram.constprop.3+0x278>
     e30:	445c                	c.lw	a5,12(s0)
     e32:	5858                	c.lw	a4,52(s0)
     e34:	40f507b3          	sub	a5,a0,a5
     e38:	0785                	c.addi	a5,1
     e3a:	02e787b3          	mul	a5,a5,a4
     e3e:	4418                	c.lw	a4,8(s0)
     e40:	8395                	c.srli	a5,0x5
     e42:	97ba                	c.add	a5,a4
     e44:	4458                	c.lw	a4,12(s0)
     e46:	00150613          	addi	a2,a0,1
     e4a:	8d19                	c.sub	a0,a4
     e4c:	0505                	c.addi	a0,1
     e4e:	00178693          	addi	a3,a5,1
     e52:	dc1c                	c.sw	a5,56(s0)
     e54:	d050                	c.sw	a2,36(s0)
     e56:	d008                	c.sw	a0,32(s0)
     e58:	801407b7          	lui	a5,0x80140
     e5c:	80140737          	lui	a4,0x80140
     e60:	20d7a023          	sw	a3,512(a5) # 80140200 <_DATA_LMA_START+0x6013bd08>
     e64:	20b70783          	lb	a5,523(a4) # 8014020b <_DATA_LMA_START+0x6013bd13>
     e68:	be77fe5b          	bbc	a5,7,e64 <pm_sleep_wakeup_ram.constprop.3+0x298>
     e6c:	20070c23          	sb	zero,536(a4)
     e70:	1d670c23          	sb	s6,472(a4)
     e74:	06400513          	li	a0,100
     e78:	1f570423          	sb	s5,488(a4)
     e7c:	97dff0ef          	jal	ra,7f8 <analog_read_reg8>
     e80:	d89f970b          	addigp	a4,-632 # 80588 <g_pm_status_info>
     e84:	00a700a3          	sb	a0,1(a4)
     e88:	d89f978b          	addigp	a5,-632 # 80588 <g_pm_status_info>
     e8c:	00157c5b          	bbc	a0,1,ea4 <pm_sleep_wakeup_ram.constprop.3+0x2d8>
     e90:	80140637          	lui	a2,0x80140
     e94:	400006b7          	lui	a3,0x40000
     e98:	20062703          	lw	a4,512(a2) # 80140200 <_DATA_LMA_START+0x6013bd08>
     e9c:	41470733          	sub	a4,a4,s4
     ea0:	fee6ece3          	bltu	a3,a4,e98 <pm_sleep_wakeup_ram.constprop.3+0x2cc>
     ea4:	00098663          	beqz	s3,eb0 <pm_sleep_wakeup_ram.constprop.3+0x2e4>
     ea8:	3009a9f3          	csrrs	s3,mstatus,s3
     eac:	0ff0000f          	fence
     eb0:	0017c783          	lbu	a5,1(a5)
     eb4:	10000513          	li	a0,256
     eb8:	c781                	c.beqz	a5,ec0 <pm_sleep_wakeup_ram.constprop.3+0x2f4>
     eba:	40000537          	lui	a0,0x40000
     ebe:	8d5d                	c.or	a0,a5
     ec0:	40f2                	c.lwsp	ra,28(sp)
     ec2:	4462                	c.lwsp	s0,24(sp)
     ec4:	44d2                	c.lwsp	s1,20(sp)
     ec6:	4942                	c.lwsp	s2,16(sp)
     ec8:	49b2                	c.lwsp	s3,12(sp)
     eca:	4a22                	c.lwsp	s4,8(sp)
     ecc:	4a92                	c.lwsp	s5,4(sp)
     ece:	4b02                	c.lwsp	s6,0(sp)
     ed0:	6105                	c.addi16sp	sp,32
     ed2:	8082                	c.jr	ra

00000ed4 <trap_entry>:
     ed4:	1101                	c.addi	sp,-32
     ed6:	ce2a                	c.swsp	a0,28(sp)
     ed8:	cc2e                	c.swsp	a1,24(sp)
     eda:	ca32                	c.swsp	a2,20(sp)
     edc:	c836                	c.swsp	a3,16(sp)
     ede:	c63a                	c.swsp	a4,12(sp)
     ee0:	c43e                	c.swsp	a5,8(sp)
     ee2:	34202773          	csrr	a4,mcause
     ee6:	000007b7          	lui	a5,0x0
     eea:	15878793          	addi	a5,a5,344 # 158 <_AES_VMA_END>
     eee:	03c78683          	lb	a3,60(a5)
     ef2:	0ff6f693          	andi	a3,a3,255
     ef6:	c2dd                	c.beqz	a3,f9c <trap_entry+0xc8>
     ef8:	34102673          	csrr	a2,mepc
     efc:	300025f3          	csrr	a1,mstatus
     f00:	7c4026f3          	csrr	a3,mxstatus
     f04:	02074a63          	bltz	a4,f38 <trap_entry+0x64>
     f08:	34302773          	csrr	a4,mtval
     f0c:	d8efc1ab          	swgp	a4,-640 # 80580 <exception_mtval>
     f10:	34102773          	csrr	a4,mepc
     f14:	d6efcdab          	swgp	a4,-648 # 80578 <exception_mepc>
     f18:	30002773          	csrr	a4,mstatus
     f1c:	d6efcfab          	swgp	a4,-644 # 8057c <exception_mstatus>
     f20:	34202773          	csrr	a4,mcause
     f24:	d6efc9ab          	swgp	a4,-656 # 80570 <_BSS_VMA_START>
     f28:	7c902773          	csrr	a4,mdcause
     f2c:	d6efcbab          	swgp	a4,-652 # 80574 <exception_mdcause>
     f30:	0001                	c.nop
     f32:	0001                	c.nop
     f34:	ffdff06f          	j	f30 <trap_entry+0x5c>
     f38:	7807275b          	bfoz	a4,a4,30,0
     f3c:	0677545b          	beqc	a4,7,fa4 <trap_entry+0xd0>
     f40:	bc37645b          	bnec	a4,3,f08 <trap_entry+0x34>
     f44:	e6600737          	lui	a4,0xe6600
     f48:	4358                	c.lw	a4,4(a4)
     f4a:	03c78703          	lb	a4,60(a5)
     f4e:	0ff77713          	andi	a4,a4,255
     f52:	c319                	c.beqz	a4,f58 <trap_entry+0x84>
     f54:	30046773          	csrrsi	a4,mstatus,8
     f58:	03c78703          	lb	a4,60(a5)
     f5c:	0ff77713          	andi	a4,a4,255
     f60:	00070463          	beqz	a4,f68 <trap_entry+0x94>
     f64:	30047773          	csrrci	a4,mstatus,8
     f68:	e6600737          	lui	a4,0xe6600
     f6c:	4505                	c.li	a0,1
     f6e:	c348                	c.sw	a0,4(a4)
     f70:	03c78783          	lb	a5,60(a5)
     f74:	0ff7f793          	andi	a5,a5,255
     f78:	00078863          	beqz	a5,f88 <trap_entry+0xb4>
     f7c:	30059073          	csrw	mstatus,a1
     f80:	34161073          	csrw	mepc,a2
     f84:	7c469073          	csrw	mxstatus,a3
     f88:	4572                	c.lwsp	a0,28(sp)
     f8a:	45e2                	c.lwsp	a1,24(sp)
     f8c:	4652                	c.lwsp	a2,20(sp)
     f8e:	46c2                	c.lwsp	a3,16(sp)
     f90:	4732                	c.lwsp	a4,12(sp)
     f92:	47a2                	c.lwsp	a5,8(sp)
     f94:	02010113          	addi	sp,sp,32
     f98:	30200073          	mret
     f9c:	4681                	c.li	a3,0
     f9e:	4581                	c.li	a1,0
     fa0:	4601                	c.li	a2,0
     fa2:	b78d                	c.j	f04 <trap_entry+0x30>
     fa4:	03c78703          	lb	a4,60(a5)
     fa8:	0ff77713          	andi	a4,a4,255
     fac:	00070863          	beqz	a4,fbc <trap_entry+0xe8>
     fb0:	08000713          	li	a4,128
     fb4:	30473773          	csrrc	a4,mie,a4
     fb8:	30046773          	csrrsi	a4,mstatus,8
     fbc:	03c78703          	lb	a4,60(a5)
     fc0:	0ff77713          	andi	a4,a4,255
     fc4:	d755                	c.beqz	a4,f70 <trap_entry+0x9c>
     fc6:	30047773          	csrrci	a4,mstatus,8
     fca:	08000713          	li	a4,128
     fce:	30472773          	csrrs	a4,mie,a4
     fd2:	bf79                	c.j	f70 <trap_entry+0x9c>
     fd4:	0001                	c.nop
	...

00001000 <__vectors>:
    1000:	0ed4                	c.addi4spn	a3,sp,852
    1002:	0000                	unimp
    1004:	1cb0                	c.addi4spn	a2,sp,632
    1006:	0000                	unimp
    1008:	1cb0                	c.addi4spn	a2,sp,632
    100a:	0000                	unimp
    100c:	1cb0                	c.addi4spn	a2,sp,632
    100e:	0000                	unimp
    1010:	1cb0                	c.addi4spn	a2,sp,632
    1012:	0000                	unimp
    1014:	1cb0                	c.addi4spn	a2,sp,632
    1016:	0000                	unimp
    1018:	1cb0                	c.addi4spn	a2,sp,632
    101a:	0000                	unimp
    101c:	1cb0                	c.addi4spn	a2,sp,632
    101e:	0000                	unimp
    1020:	1cb0                	c.addi4spn	a2,sp,632
    1022:	0000                	unimp
    1024:	1cb0                	c.addi4spn	a2,sp,632
    1026:	0000                	unimp
    1028:	1cb0                	c.addi4spn	a2,sp,632
    102a:	0000                	unimp
    102c:	1cb0                	c.addi4spn	a2,sp,632
    102e:	0000                	unimp
    1030:	1cb0                	c.addi4spn	a2,sp,632
    1032:	0000                	unimp
    1034:	1cb0                	c.addi4spn	a2,sp,632
    1036:	0000                	unimp
    1038:	1cb0                	c.addi4spn	a2,sp,632
    103a:	0000                	unimp
    103c:	1cb0                	c.addi4spn	a2,sp,632
    103e:	0000                	unimp
    1040:	1cb0                	c.addi4spn	a2,sp,632
    1042:	0000                	unimp
    1044:	1cb0                	c.addi4spn	a2,sp,632
    1046:	0000                	unimp
    1048:	1cb0                	c.addi4spn	a2,sp,632
    104a:	0000                	unimp
    104c:	1cb0                	c.addi4spn	a2,sp,632
    104e:	0000                	unimp
    1050:	1cb0                	c.addi4spn	a2,sp,632
    1052:	0000                	unimp
    1054:	1cb0                	c.addi4spn	a2,sp,632
    1056:	0000                	unimp
    1058:	1cb0                	c.addi4spn	a2,sp,632
    105a:	0000                	unimp
    105c:	1cb0                	c.addi4spn	a2,sp,632
    105e:	0000                	unimp
    1060:	1cb0                	c.addi4spn	a2,sp,632
    1062:	0000                	unimp
    1064:	1cb0                	c.addi4spn	a2,sp,632
    1066:	0000                	unimp
    1068:	1cb0                	c.addi4spn	a2,sp,632
    106a:	0000                	unimp
    106c:	1cb0                	c.addi4spn	a2,sp,632
    106e:	0000                	unimp
    1070:	1cb0                	c.addi4spn	a2,sp,632
    1072:	0000                	unimp
    1074:	1cb0                	c.addi4spn	a2,sp,632
    1076:	0000                	unimp
    1078:	1cb0                	c.addi4spn	a2,sp,632
    107a:	0000                	unimp
    107c:	1cb0                	c.addi4spn	a2,sp,632
    107e:	0000                	unimp
    1080:	1cb0                	c.addi4spn	a2,sp,632
    1082:	0000                	unimp
    1084:	1cb0                	c.addi4spn	a2,sp,632
    1086:	0000                	unimp
    1088:	1cb0                	c.addi4spn	a2,sp,632
    108a:	0000                	unimp
    108c:	1cb0                	c.addi4spn	a2,sp,632
    108e:	0000                	unimp
    1090:	1cb0                	c.addi4spn	a2,sp,632
    1092:	0000                	unimp
    1094:	1cb0                	c.addi4spn	a2,sp,632
    1096:	0000                	unimp
    1098:	1cb0                	c.addi4spn	a2,sp,632
    109a:	0000                	unimp
    109c:	1cb0                	c.addi4spn	a2,sp,632
    109e:	0000                	unimp
    10a0:	1cb0                	c.addi4spn	a2,sp,632
    10a2:	0000                	unimp
    10a4:	1cb0                	c.addi4spn	a2,sp,632
    10a6:	0000                	unimp
    10a8:	1cb0                	c.addi4spn	a2,sp,632
    10aa:	0000                	unimp
    10ac:	1cb0                	c.addi4spn	a2,sp,632
    10ae:	0000                	unimp
    10b0:	1cb0                	c.addi4spn	a2,sp,632
    10b2:	0000                	unimp
    10b4:	1cb0                	c.addi4spn	a2,sp,632
    10b6:	0000                	unimp
    10b8:	1cb0                	c.addi4spn	a2,sp,632
    10ba:	0000                	unimp
    10bc:	1cb0                	c.addi4spn	a2,sp,632
    10be:	0000                	unimp
    10c0:	1cb0                	c.addi4spn	a2,sp,632
    10c2:	0000                	unimp
    10c4:	1cb0                	c.addi4spn	a2,sp,632
    10c6:	0000                	unimp
    10c8:	1cb0                	c.addi4spn	a2,sp,632
    10ca:	0000                	unimp
    10cc:	1cb0                	c.addi4spn	a2,sp,632
    10ce:	0000                	unimp
    10d0:	1cb0                	c.addi4spn	a2,sp,632
    10d2:	0000                	unimp
    10d4:	1cb0                	c.addi4spn	a2,sp,632
    10d6:	0000                	unimp
    10d8:	1cb0                	c.addi4spn	a2,sp,632
    10da:	0000                	unimp
    10dc:	1cb0                	c.addi4spn	a2,sp,632
    10de:	0000                	unimp
    10e0:	1cb0                	c.addi4spn	a2,sp,632
    10e2:	0000                	unimp
    10e4:	1cb0                	c.addi4spn	a2,sp,632
    10e6:	0000                	unimp
    10e8:	1cb0                	c.addi4spn	a2,sp,632
    10ea:	0000                	unimp
    10ec:	1cb0                	c.addi4spn	a2,sp,632
    10ee:	0000                	unimp
    10f0:	1cb0                	c.addi4spn	a2,sp,632
    10f2:	0000                	unimp
    10f4:	1cb0                	c.addi4spn	a2,sp,632
    10f6:	0000                	unimp
    10f8:	1cb0                	c.addi4spn	a2,sp,632
    10fa:	0000                	unimp
    10fc:	1cb0                	c.addi4spn	a2,sp,632
    10fe:	0000                	unimp
    1100:	0001                	c.nop
	...

00001104 <flash_read_uid.constprop.6>:
    1104:	1141                	c.addi	sp,-16
    1106:	c606                	c.swsp	ra,12(sp)
    1108:	872a                	c.mv	a4,a0
    110a:	7d047073          	csrci	mmisc_ctl,8
    110e:	47c1                	c.li	a5,16
    1110:	4691                	c.li	a3,4
    1112:	4601                	c.li	a2,0
    1114:	00000593          	li	a1,0
    1118:	04b00513          	li	a0,75
    111c:	bccff0ef          	jal	ra,4e8 <flash_mspi_read_ram>
    1120:	7d046073          	csrsi	mmisc_ctl,8
    1124:	40b2                	c.lwsp	ra,12(sp)
    1126:	0141                	c.addi	sp,16
    1128:	00008067          	ret

0000112c <flash_read_mid>:
    112c:	1101                	c.addi	sp,-32
    112e:	ce06                	c.swsp	ra,28(sp)
    1130:	c602                	c.swsp	zero,12(sp)
    1132:	7d047073          	csrci	mmisc_ctl,8
    1136:	478d                	c.li	a5,3
    1138:	0078                	c.addi4spn	a4,sp,12
    113a:	4681                	c.li	a3,0
    113c:	4601                	c.li	a2,0
    113e:	4581                	c.li	a1,0
    1140:	09f00513          	li	a0,159
    1144:	ba4ff0ef          	jal	ra,4e8 <flash_mspi_read_ram>
    1148:	7d046073          	csrsi	mmisc_ctl,8
    114c:	40f2                	c.lwsp	ra,28(sp)
    114e:	4532                	c.lwsp	a0,12(sp)
    1150:	6105                	c.addi16sp	sp,32
    1152:	8082                	c.jr	ra

00001154 <flash_read_mid_uid_with_check>:
    1154:	839f978b          	addigp	a5,-1992 # 80038 <cst_libm_sincosf+0x38>
    1158:	4798                	c.lw	a4,8(a5)
    115a:	4390                	c.lw	a2,0(a5)
    115c:	43d4                	c.lw	a3,4(a5)
    115e:	47dc                	c.lw	a5,12(a5)
    1160:	1101                	c.addi	sp,-32
    1162:	cc22                	c.swsp	s0,24(sp)
    1164:	ca26                	c.swsp	s1,20(sp)
    1166:	842a                	c.mv	s0,a0
    1168:	c43a                	c.swsp	a4,8(sp)
    116a:	c63e                	c.swsp	a5,12(sp)
    116c:	ce06                	c.swsp	ra,28(sp)
    116e:	84ae                	c.mv	s1,a1
    1170:	c032                	c.swsp	a2,0(sp)
    1172:	c236                	c.swsp	a3,4(sp)
    1174:	fb9ff0ef          	jal	ra,112c <flash_read_mid>
    1178:	77c1                	c.lui	a5,0xffff0
    117a:	17fd                	c.addi	a5,-1
    117c:	00146737          	lui	a4,0x146
    1180:	c008                	c.sw	a0,0(s0)
    1182:	8fe9                	c.and	a5,a0
    1184:	08570713          	addi	a4,a4,133 # 146085 <FLASH_SIZE+0x46085>
    1188:	02e78063          	beq	a5,a4,11a8 <flash_read_mid_uid_with_check+0x54>
    118c:	00166737          	lui	a4,0x166
    1190:	08570713          	addi	a4,a4,133 # 166085 <FLASH_SIZE+0x66085>
    1194:	4781                	c.li	a5,0
    1196:	00e50963          	beq	a0,a4,11a8 <flash_read_mid_uid_with_check+0x54>
    119a:	40f2                	c.lwsp	ra,28(sp)
    119c:	4462                	c.lwsp	s0,24(sp)
    119e:	44d2                	c.lwsp	s1,20(sp)
    11a0:	853e                	c.mv	a0,a5
    11a2:	6105                	c.addi16sp	sp,32
    11a4:	00008067          	ret
    11a8:	8526                	c.mv	a0,s1
    11aa:	3fa9                	c.jal	1104 <flash_read_uid.constprop.6>
    11ac:	0004c783          	lbu	a5,0(s1)
    11b0:	00014603          	lbu	a2,0(sp)
    11b4:	0014c683          	lbu	a3,1(s1)
    11b8:	00114703          	lbu	a4,1(sp)
    11bc:	8f91                	c.sub	a5,a2
    11be:	0017b793          	seqz	a5,a5
    11c2:	00e69363          	bne	a3,a4,11c8 <flash_read_mid_uid_with_check+0x74>
    11c6:	0785                	c.addi	a5,1
    11c8:	0024c683          	lbu	a3,2(s1)
    11cc:	00214703          	lbu	a4,2(sp)
    11d0:	00e69463          	bne	a3,a4,11d8 <flash_read_mid_uid_with_check+0x84>
    11d4:	00178793          	addi	a5,a5,1 # ffff0001 <_DATA_LMA_START+0xdffebb09>
    11d8:	0034c683          	lbu	a3,3(s1)
    11dc:	00314703          	lbu	a4,3(sp)
    11e0:	00e69463          	bne	a3,a4,11e8 <flash_read_mid_uid_with_check+0x94>
    11e4:	00178793          	addi	a5,a5,1
    11e8:	0044c683          	lbu	a3,4(s1)
    11ec:	00414703          	lbu	a4,4(sp)
    11f0:	00e69463          	bne	a3,a4,11f8 <flash_read_mid_uid_with_check+0xa4>
    11f4:	00178793          	addi	a5,a5,1
    11f8:	0054c683          	lbu	a3,5(s1)
    11fc:	00514703          	lbu	a4,5(sp)
    1200:	00e69463          	bne	a3,a4,1208 <flash_read_mid_uid_with_check+0xb4>
    1204:	00178793          	addi	a5,a5,1
    1208:	0064c683          	lbu	a3,6(s1)
    120c:	00614703          	lbu	a4,6(sp)
    1210:	00e69463          	bne	a3,a4,1218 <flash_read_mid_uid_with_check+0xc4>
    1214:	00178793          	addi	a5,a5,1
    1218:	0074c683          	lbu	a3,7(s1)
    121c:	00714703          	lbu	a4,7(sp)
    1220:	00e69463          	bne	a3,a4,1228 <flash_read_mid_uid_with_check+0xd4>
    1224:	00178793          	addi	a5,a5,1
    1228:	0084c683          	lbu	a3,8(s1)
    122c:	00814703          	lbu	a4,8(sp)
    1230:	00e69463          	bne	a3,a4,1238 <flash_read_mid_uid_with_check+0xe4>
    1234:	00178793          	addi	a5,a5,1
    1238:	0094c683          	lbu	a3,9(s1)
    123c:	00914703          	lbu	a4,9(sp)
    1240:	00e69463          	bne	a3,a4,1248 <flash_read_mid_uid_with_check+0xf4>
    1244:	00178793          	addi	a5,a5,1
    1248:	00a4c683          	lbu	a3,10(s1)
    124c:	00a14703          	lbu	a4,10(sp)
    1250:	00e69463          	bne	a3,a4,1258 <flash_read_mid_uid_with_check+0x104>
    1254:	00178793          	addi	a5,a5,1
    1258:	00b4c683          	lbu	a3,11(s1)
    125c:	00b14703          	lbu	a4,11(sp)
    1260:	00e69463          	bne	a3,a4,1268 <flash_read_mid_uid_with_check+0x114>
    1264:	00178793          	addi	a5,a5,1
    1268:	00c4c683          	lbu	a3,12(s1)
    126c:	00c14703          	lbu	a4,12(sp)
    1270:	00e69463          	bne	a3,a4,1278 <flash_read_mid_uid_with_check+0x124>
    1274:	00178793          	addi	a5,a5,1
    1278:	00d4c683          	lbu	a3,13(s1)
    127c:	00d14703          	lbu	a4,13(sp)
    1280:	00e69463          	bne	a3,a4,1288 <flash_read_mid_uid_with_check+0x134>
    1284:	00178793          	addi	a5,a5,1
    1288:	00e4c683          	lbu	a3,14(s1)
    128c:	00e14703          	lbu	a4,14(sp)
    1290:	00e69463          	bne	a3,a4,1298 <flash_read_mid_uid_with_check+0x144>
    1294:	00178793          	addi	a5,a5,1
    1298:	00f14683          	lbu	a3,15(sp)
    129c:	00f4c703          	lbu	a4,15(s1)
    12a0:	00e69463          	bne	a3,a4,12a8 <flash_read_mid_uid_with_check+0x154>
    12a4:	00178793          	addi	a5,a5,1
    12a8:	40f2                	c.lwsp	ra,28(sp)
    12aa:	4462                	c.lwsp	s0,24(sp)
    12ac:	17c1                	c.addi	a5,-16
    12ae:	00f037b3          	snez	a5,a5
    12b2:	44d2                	c.lwsp	s1,20(sp)
    12b4:	853e                	c.mv	a0,a5
    12b6:	6105                	c.addi16sp	sp,32
    12b8:	00008067          	ret

000012bc <flash_dread>:
    12bc:	1141                	c.addi	sp,-16
    12be:	c606                	c.swsp	ra,12(sp)
    12c0:	87b2                	c.mv	a5,a2
    12c2:	7d047073          	csrci	mmisc_ctl,8
    12c6:	862e                	c.mv	a2,a1
    12c8:	00f005b3          	add	a1,zero,a5
    12cc:	b9cff0ef          	jal	ra,668 <flash_mspi_read_ram.constprop.7>
    12d0:	7d046073          	csrsi	mmisc_ctl,8
    12d4:	40b2                	c.lwsp	ra,12(sp)
    12d6:	0141                	c.addi	sp,16
    12d8:	00008067          	ret

000012dc <clock_init.constprop.10>:
    12dc:	1141                	c.addi	sp,-16
    12de:	c606                	c.swsp	ra,12(sp)
    12e0:	7d047073          	csrci	mmisc_ctl,8
    12e4:	d60ff0ef          	jal	ra,844 <clock_init_ram.constprop.11>
    12e8:	7d046073          	csrsi	mmisc_ctl,8
    12ec:	40b2                	c.lwsp	ra,12(sp)
    12ee:	0141                	c.addi	sp,16
    12f0:	00008067          	ret

000012f4 <pm_sleep_wakeup.constprop.2>:
    12f4:	1141                	c.addi	sp,-16
    12f6:	c606                	c.swsp	ra,12(sp)
    12f8:	7d047073          	csrci	mmisc_ctl,8
    12fc:	8d1ff0ef          	jal	ra,bcc <pm_sleep_wakeup_ram.constprop.3>
    1300:	7d046073          	csrsi	mmisc_ctl,8
    1304:	40b2                	c.lwsp	ra,12(sp)
    1306:	0141                	c.addi	sp,16
    1308:	8082                	c.jr	ra
    130a:	0001                	c.nop

0000130c <user_calib_adc_vref.constprop.9>:
    130c:	1101                	c.addi	sp,-32
    130e:	ce06                	c.swsp	ra,28(sp)
    1310:	c402                	c.swsp	zero,8(sp)
    1312:	00011623          	sh	zero,12(sp)
    1316:	00010723          	sb	zero,14(sp)
    131a:	c54d                	c.beqz	a0,13c4 <user_calib_adc_vref.constprop.9+0xb8>
    131c:	000007b7          	lui	a5,0x0
    1320:	1587a783          	lw	a5,344(a5) # 158 <_AES_VMA_END>
    1324:	0030                	c.addi4spn	a2,sp,8
    1326:	459d                	c.li	a1,7
    1328:	9782                	c.jalr	a5
    132a:	00c14783          	lbu	a5,12(sp)
    132e:	1c07b75b          	bfos	a4,a5,7,0
    1332:	04074163          	bltz	a4,1374 <user_calib_adc_vref.constprop.9+0x68>
    1336:	00e14703          	lbu	a4,14(sp)
    133a:	00d14603          	lbu	a2,13(sp)
    133e:	0722                	c.slli	a4,0x8
    1340:	66c1                	c.lui	a3,0x10
    1342:	00c705b3          	add	a1,a4,a2
    1346:	16fd                	c.addi	a3,-1
    1348:	02d58663          	beq	a1,a3,1374 <user_calib_adc_vref.constprop.9+0x68>
    134c:	fd060613          	addi	a2,a2,-48
    1350:	9732                	c.add	a4,a2
    1352:	3c07275b          	bfoz	a4,a4,15,0
    1356:	0fb00693          	li	a3,251
    135a:	08e6e563          	bltu	a3,a4,13e4 <user_calib_adc_vref.constprop.9+0xd8>
    135e:	17b1                	c.addi	a5,-20
    1360:	1c07b7db          	bfos	a5,a5,7,0
    1364:	5731                	c.li	a4,-20
    1366:	06e78f63          	beq	a5,a4,13e4 <user_calib_adc_vref.constprop.9+0xd8>
    136a:	f9578513          	addi	a0,a5,-107
    136e:	00a03533          	snez	a0,a0
    1372:	a89d                	c.j	13e8 <user_calib_adc_vref.constprop.9+0xdc>
    1374:	801407b7          	lui	a5,0x80140
    1378:	06500713          	li	a4,101
    137c:	1ee78a23          	sb	a4,500(a5) # 801401f4 <_DATA_LMA_START+0x6013bcfc>
    1380:	1c87a703          	lw	a4,456(a5)
    1384:	1e078a23          	sb	zero,500(a5)
    1388:	4c47275b          	bfoz	a4,a4,19,4
    138c:	380727db          	bfoz	a5,a4,14,0
    1390:	06078063          	beqz	a5,13f0 <user_calib_adc_vref.constprop.9+0xe4>
    1394:	1ff77713          	andi	a4,a4,511
    1398:	f9b70713          	addi	a4,a4,-101
    139c:	3c07275b          	bfoz	a4,a4,15,0
    13a0:	0c600693          	li	a3,198
    13a4:	04e6e063          	bltu	a3,a4,13e4 <user_calib_adc_vref.constprop.9+0xd8>
    13a8:	0097d513          	srli	a0,a5,0x9
    13ac:	1531                	c.addi	a0,-20
    13ae:	1c05355b          	bfos	a0,a0,7,0
    13b2:	57b1                	c.li	a5,-20
    13b4:	02f50863          	beq	a0,a5,13e4 <user_calib_adc_vref.constprop.9+0xd8>
    13b8:	fd550513          	addi	a0,a0,-43 # 3fffffd5 <_DATA_LMA_START+0x1fffbadd>
    13bc:	00a03533          	snez	a0,a0
    13c0:	0280006f          	j	13e8 <user_calib_adc_vref.constprop.9+0xdc>
    13c4:	801407b7          	lui	a5,0x80140
    13c8:	06500713          	li	a4,101
    13cc:	1ee78a23          	sb	a4,500(a5) # 801401f4 <_DATA_LMA_START+0x6013bcfc>
    13d0:	1c87a703          	lw	a4,456(a5)
    13d4:	1e078a23          	sb	zero,500(a5)
    13d8:	4c47275b          	bfoz	a4,a4,19,4
    13dc:	380727db          	bfoz	a5,a4,14,0
    13e0:	fa079ae3          	bnez	a5,1394 <user_calib_adc_vref.constprop.9+0x88>
    13e4:	00000513          	li	a0,0
    13e8:	40f2                	c.lwsp	ra,28(sp)
    13ea:	6105                	c.addi16sp	sp,32
    13ec:	00008067          	ret
    13f0:	00814503          	lbu	a0,8(sp)
    13f4:	00914783          	lbu	a5,9(sp)
    13f8:	953e                	c.add	a0,a5
    13fa:	f8050513          	addi	a0,a0,-128
    13fe:	3c05255b          	bfoz	a0,a0,15,0
    1402:	0fc53513          	sltiu	a0,a0,252
    1406:	b7cd                	c.j	13e8 <user_calib_adc_vref.constprop.9+0xdc>

00001408 <user_calib_freq_offset.constprop.8>:
    1408:	000007b7          	lui	a5,0x0
    140c:	1101                	c.addi	sp,-32
    140e:	1587a783          	lw	a5,344(a5) # 158 <_AES_VMA_END>
    1412:	577d                	c.li	a4,-1
    1414:	00f10613          	addi	a2,sp,15
    1418:	4585                	c.li	a1,1
    141a:	cc22                	c.swsp	s0,24(sp)
    141c:	ce06                	c.swsp	ra,28(sp)
    141e:	00e107a3          	sb	a4,15(sp)
    1422:	9782                	c.jalr	a5
    1424:	00f14403          	lbu	s0,15(sp)
    1428:	0ff00793          	li	a5,255
    142c:	00000513          	li	a0,0
    1430:	02f40263          	beq	s0,a5,1454 <user_calib_freq_offset.constprop.8+0x4c>
    1434:	08a00513          	li	a0,138
    1438:	bc0ff0ef          	jal	ra,7f8 <analog_read_reg8>
    143c:	03f47413          	andi	s0,s0,63
    1440:	04057593          	andi	a1,a0,64
    1444:	0085e5b3          	or	a1,a1,s0
    1448:	08a00513          	li	a0,138
    144c:	b68ff0ef          	jal	ra,7b4 <analog_write_reg8>
    1450:	00100513          	li	a0,1
    1454:	40f2                	c.lwsp	ra,28(sp)
    1456:	4462                	c.lwsp	s0,24(sp)
    1458:	6105                	c.addi16sp	sp,32
    145a:	8082                	c.jr	ra
    145c:	0001                	c.nop
	...

00001460 <gpio_input_dis>:
    1460:	801407b7          	lui	a5,0x80140
    1464:	30978703          	lb	a4,777(a5) # 80140309 <_DATA_LMA_START+0x6013be11>
    1468:	fff54513          	not	a0,a0
    146c:	8d79                	c.and	a0,a4
    146e:	0ff57513          	andi	a0,a0,255
    1472:	30a784a3          	sb	a0,777(a5)
    1476:	8082                	c.jr	ra
    1478:	0001                	c.nop
	...

0000147c <_write>:
    147c:	02c05063          	blez	a2,149c <_write+0x20>
    1480:	00c586b3          	add	a3,a1,a2
    1484:	80101737          	lui	a4,0x80101
    1488:	0005c783          	lbu	a5,0(a1)
    148c:	0585                	c.addi	a1,1
    148e:	80f70c23          	sb	a5,-2024(a4) # 80100818 <_DATA_LMA_START+0x600fc320>
    1492:	fed59be3          	bne	a1,a3,1488 <_write+0xc>
    1496:	8532                	c.mv	a0,a2
    1498:	00008067          	ret
    149c:	4601                	c.li	a2,0
    149e:	8532                	c.mv	a0,a2
    14a0:	8082                	c.jr	ra
    14a2:	0001                	c.nop

000014a4 <main>:
    14a4:	7109                	c.addi16sp	sp,-384
    14a6:	ffbc07b7          	lui	a5,0xffbc0
    14aa:	16112e23          	sw	ra,380(sp)
    14ae:	737d                	c.lui	t1,0xfffff
    14b0:	17fd                	c.addi	a5,-1
    14b2:	80140737          	lui	a4,0x80140
    14b6:	16812c23          	sw	s0,376(sp)
    14ba:	16912a23          	sw	s1,372(sp)
    14be:	17212823          	sw	s2,368(sp)
    14c2:	17312623          	sw	s3,364(sp)
    14c6:	17412423          	sw	s4,360(sp)
    14ca:	17512223          	sw	s5,356(sp)
    14ce:	17612023          	sw	s6,352(sp)
    14d2:	15712e23          	sw	s7,348(sp)
    14d6:	15812c23          	sw	s8,344(sp)
    14da:	15912a23          	sw	s9,340(sp)
    14de:	14812627          	fsw	fs0,332(sp)
    14e2:	1ef72023          	sw	a5,480(a4) # 801401e0 <_DATA_LMA_START+0x6013bce8>
    14e6:	911a                	c.add	sp,t1
    14e8:	00200593          	li	a1,2
    14ec:	08c00513          	li	a0,140
    14f0:	1ef72223          	sw	a5,484(a4)
    14f4:	ac0ff0ef          	jal	ra,7b4 <analog_write_reg8>
    14f8:	4581                	c.li	a1,0
    14fa:	4529                	c.li	a0,10
    14fc:	ab8ff0ef          	jal	ra,7b4 <analog_write_reg8>
    1500:	03b00593          	li	a1,59
    1504:	00b00513          	li	a0,11
    1508:	aacff0ef          	jal	ra,7b4 <analog_write_reg8>
    150c:	00500513          	li	a0,5
    1510:	ae8ff0ef          	jal	ra,7f8 <analog_read_reg8>
    1514:	0f757593          	andi	a1,a0,247
    1518:	00500513          	li	a0,5
    151c:	a98ff0ef          	jal	ra,7b4 <analog_write_reg8>
    1520:	00600513          	li	a0,6
    1524:	ad4ff0ef          	jal	ra,7f8 <analog_read_reg8>
    1528:	03e57593          	andi	a1,a0,62
    152c:	00600513          	li	a0,6
    1530:	a84ff0ef          	jal	ra,7b4 <analog_write_reg8>
    1534:	04500593          	li	a1,69
    1538:	00100513          	li	a0,1
    153c:	a78ff0ef          	jal	ra,7b4 <analog_write_reg8>
    1540:	04c00593          	li	a1,76
    1544:	01c00513          	li	a0,28
    1548:	a6cff0ef          	jal	ra,7b4 <analog_write_reg8>
    154c:	801007b7          	lui	a5,0x80100
    1550:	44478703          	lb	a4,1092(a5) # 80100444 <_DATA_LMA_START+0x600fbf4c>
    1554:	801016b7          	lui	a3,0x80101
    1558:	0ff77713          	andi	a4,a4,255
    155c:	00e76713          	ori	a4,a4,14
    1560:	44e78223          	sb	a4,1092(a5)
    1564:	45878703          	lb	a4,1112(a5)
    1568:	03800513          	li	a0,56
    156c:	0ff77713          	andi	a4,a4,255
    1570:	00e76713          	ori	a4,a4,14
    1574:	44e78c23          	sb	a4,1112(a5)
    1578:	46c78703          	lb	a4,1132(a5)
    157c:	0ff77713          	andi	a4,a4,255
    1580:	00e76713          	ori	a4,a4,14
    1584:	46e78623          	sb	a4,1132(a5)
    1588:	48078703          	lb	a4,1152(a5)
    158c:	0ff77713          	andi	a4,a4,255
    1590:	00e76713          	ori	a4,a4,14
    1594:	48e78023          	sb	a4,1152(a5)
    1598:	49478703          	lb	a4,1172(a5)
    159c:	0ff77713          	andi	a4,a4,255
    15a0:	00e76713          	ori	a4,a4,14
    15a4:	48e78a23          	sb	a4,1172(a5)
    15a8:	4a878703          	lb	a4,1192(a5)
    15ac:	0ff77713          	andi	a4,a4,255
    15b0:	00e76713          	ori	a4,a4,14
    15b4:	4ae78423          	sb	a4,1192(a5)
    15b8:	4bc78703          	lb	a4,1212(a5)
    15bc:	0ff77713          	andi	a4,a4,255
    15c0:	00e76713          	ori	a4,a4,14
    15c4:	4ae78e23          	sb	a4,1212(a5)
    15c8:	4d078703          	lb	a4,1232(a5)
    15cc:	0ff77713          	andi	a4,a4,255
    15d0:	00e76713          	ori	a4,a4,14
    15d4:	4ce78823          	sb	a4,1232(a5)
    15d8:	83a68783          	lb	a5,-1990(a3) # 8010083a <_DATA_LMA_START+0x600fc342>
    15dc:	82068d23          	sb	zero,-1990(a3)
    15e0:	a18ff0ef          	jal	ra,7f8 <analog_read_reg8>
    15e4:	00a00433          	add	s0,zero,a0
    15e8:	03900513          	li	a0,57
    15ec:	a0cff0ef          	jal	ra,7f8 <analog_read_reg8>
    15f0:	84aa                	c.mv	s1,a0
    15f2:	4004745b          	bbs	s0,0,15fa <main+0x156>
    15f6:	5d20006f          	j	1bc8 <main+0x724>
    15fa:	0fe47593          	andi	a1,s0,254
    15fe:	d89f940b          	addigp	s0,-632 # 80588 <g_pm_status_info>
    1602:	03800513          	li	a0,56
    1606:	4004f45b          	bbs	s1,0,160e <main+0x16a>
    160a:	59e0006f          	j	1ba8 <main+0x704>
    160e:	4791                	c.li	a5,4
    1610:	00f40123          	sb	a5,2(s0)
    1614:	9a0ff0ef          	jal	ra,7b4 <analog_write_reg8>
    1618:	00100593          	li	a1,1
    161c:	07f00513          	li	a0,127
    1620:	994ff0ef          	jal	ra,7b4 <analog_write_reg8>
    1624:	06400513          	li	a0,100
    1628:	9d0ff0ef          	jal	ra,7f8 <analog_read_reg8>
    162c:	0c3527db          	bfoz	a5,a0,3,3
    1630:	00a400a3          	sb	a0,1(s0)
    1634:	00f40023          	sb	a5,0(s0)
    1638:	08800513          	li	a0,136
    163c:	9bcff0ef          	jal	ra,7f8 <analog_read_reg8>
    1640:	be757c5b          	bbc	a0,7,1638 <main+0x194>
    1644:	b40ff0ef          	jal	ra,984 <pm_wait_bbpll_done>
    1648:	00244783          	lbu	a5,2(s0)
    164c:	0a87dc5b          	beqc	a5,8,1704 <main+0x260>
    1650:	80140737          	lui	a4,0x80140
    1654:	20a70783          	lb	a5,522(a4) # 8014020a <_DATA_LMA_START+0x6013bd12>
    1658:	0ff7f793          	andi	a5,a5,255
    165c:	00c7e793          	ori	a5,a5,12
    1660:	20f70523          	sb	a5,522(a4)
    1664:	00100793          	li	a5,1
    1668:	20f72023          	sw	a5,512(a4)
    166c:	801404b7          	lui	s1,0x80140
    1670:	1fd48783          	lb	a5,509(s1) # 801401fd <_DATA_LMA_START+0x6013bd05>
    1674:	0ff7f793          	andi	a5,a5,255
    1678:	d8ffc3ab          	swgp	a5,-636 # 80584 <g_chip_version>
    167c:	00244703          	lbu	a4,2(s0)
    1680:	04475c5b          	beqc	a4,4,16d8 <main+0x234>
    1684:	0ff00693          	li	a3,255
    1688:	04d78063          	beq	a5,a3,16c8 <main+0x224>
    168c:	08000593          	li	a1,128
    1690:	07d00513          	li	a0,125
    1694:	920ff0ef          	jal	ra,7b4 <analog_write_reg8>
    1698:	80140737          	lui	a4,0x80140
    169c:	06500793          	li	a5,101
    16a0:	1ef70a23          	sb	a5,500(a4) # 801401f4 <_DATA_LMA_START+0x6013bcfc>
    16a4:	1c872783          	lw	a5,456(a4)
    16a8:	1e070a23          	sb	zero,500(a4)
    16ac:	8bbd                	c.andi	a5,15
    16ae:	0037d55b          	beqc	a5,3,16b8 <main+0x214>
    16b2:	4725                	c.li	a4,9
    16b4:	04f77c63          	bgeu	a4,a5,170c <main+0x268>
    16b8:	801407b7          	lui	a5,0x80140
    16bc:	02000713          	li	a4,32
    16c0:	1ee787a3          	sb	a4,495(a5) # 801401ef <_DATA_LMA_START+0x6013bcf7>
    16c4:	0000006f          	j	16c4 <main+0x220>
    16c8:	bc17625b          	bnec	a4,1,168c <main+0x1e8>
    16cc:	07d00513          	li	a0,125
    16d0:	08000593          	li	a1,128
    16d4:	0180006f          	j	16ec <main+0x248>
    16d8:	03900513          	li	a0,57
    16dc:	91cff0ef          	jal	ra,7f8 <analog_read_reg8>
    16e0:	00256593          	ori	a1,a0,2
    16e4:	0ff5f593          	andi	a1,a1,255
    16e8:	03900513          	li	a0,57
    16ec:	8c8ff0ef          	jal	ra,7b4 <analog_write_reg8>
    16f0:	2004a503          	lw	a0,512(s1)
    16f4:	001877b7          	lui	a5,0x187
    16f8:	a0078793          	addi	a5,a5,-1536 # 186a00 <FLASH_SIZE+0x86a00>
    16fc:	953e                	c.add	a0,a5
    16fe:	3edd                	c.jal	12f4 <pm_sleep_wakeup.constprop.2>
    1700:	f8dff06f          	j	168c <main+0x1e8>
    1704:	c9dfe0ef          	jal	ra,3a0 <pm_stimer_recover>
    1708:	f65ff06f          	j	166c <main+0x1c8>
    170c:	00f00513          	li	a0,15
    1710:	8e8ff0ef          	jal	ra,7f8 <analog_read_reg8>
    1714:	03f57593          	andi	a1,a0,63
    1718:	0405e593          	ori	a1,a1,64
    171c:	00f00513          	li	a0,15
    1720:	894ff0ef          	jal	ra,7b4 <analog_write_reg8>
    1724:	6485                	c.lui	s1,0x1
    1726:	0810                	c.addi4spn	a2,sp,16
    1728:	747d                	c.lui	s0,0xfffff
    172a:	13048693          	addi	a3,s1,304 # 1130 <flash_read_mid+0x4>
    172e:	96b2                	c.add	a3,a2
    1730:	60040593          	addi	a1,s0,1536 # fffff600 <_DATA_LMA_START+0xdfffb108>
    1734:	95b6                	c.add	a1,a3
    1736:	13048693          	addi	a3,s1,304
    173a:	96b2                	c.add	a3,a2
    173c:	40040513          	addi	a0,s0,1024
    1740:	9536                	c.add	a0,a3
    1742:	3c09                	c.jal	1154 <flash_read_mid_uid_with_check>
    1744:	0ff57513          	andi	a0,a0,255
    1748:	0015545b          	beqc	a0,1,1750 <main+0x2ac>
    174c:	5000006f          	j	1c4c <main+0x7a8>
    1750:	0814                	c.addi4spn	a3,sp,16
    1752:	13048593          	addi	a1,s1,304
    1756:	95b6                	c.add	a1,a3
    1758:	008586b3          	add	a3,a1,s0
    175c:	c636                	c.swsp	a3,12(sp)
    175e:	4026c783          	lbu	a5,1026(a3)
    1762:	474d                	c.li	a4,19
    1764:	0137e45b          	bnec	a5,19,176c <main+0x2c8>
    1768:	4cc0006f          	j	1c34 <main+0x790>
    176c:	4ef77663          	bgeu	a4,a5,1c58 <main+0x7b4>
    1770:	4755                	c.li	a4,21
    1772:	0157e45b          	bnec	a5,21,177a <main+0x2d6>
    1776:	4a60006f          	j	1c1c <main+0x778>
    177a:	46e7e563          	bltu	a5,a4,1be4 <main+0x740>
    177e:	0167d45b          	beqc	a5,22,1786 <main+0x2e2>
    1782:	4ca0006f          	j	1c4c <main+0x7a8>
    1786:	003fe537          	lui	a0,0x3fe
    178a:	0c050513          	addi	a0,a0,192 # 3fe0c0 <FLASH_SIZE+0x2fe0c0>
    178e:	3ebd                	c.jal	130c <user_calib_adc_vref.constprop.9>
    1790:	003fe537          	lui	a0,0x3fe
    1794:	c75ff0ef          	jal	ra,1408 <user_calib_freq_offset.constprop.8>
    1798:	80140437          	lui	s0,0x80140
    179c:	b41ff0ef          	jal	ra,12dc <clock_init.constprop.10>
    17a0:	30e40783          	lb	a5,782(s0) # 8014030e <_DATA_LMA_START+0x6013be16>
    17a4:	11000513          	li	a0,272
    17a8:	0ff7f793          	andi	a5,a5,255
    17ac:	0107e793          	ori	a5,a5,16
    17b0:	30f40723          	sb	a5,782(s0)
    17b4:	30a40783          	lb	a5,778(s0)
    17b8:	4481                	c.li	s1,0
    17ba:	0ef7f793          	andi	a5,a5,239
    17be:	30f40523          	sb	a5,778(s0)
    17c2:	3979                	c.jal	1460 <gpio_input_dis>
    17c4:	30e40783          	lb	a5,782(s0)
    17c8:	12000513          	li	a0,288
    17cc:	0ff7f793          	andi	a5,a5,255
    17d0:	0207e793          	ori	a5,a5,32
    17d4:	30f40723          	sb	a5,782(s0)
    17d8:	30a40783          	lb	a5,778(s0)
    17dc:	08000913          	li	s2,128
    17e0:	0df7f793          	andi	a5,a5,223
    17e4:	30f40523          	sb	a5,778(s0)
    17e8:	c79ff0ef          	jal	ra,1460 <gpio_input_dis>
    17ec:	30e40783          	lb	a5,782(s0)
    17f0:	14000513          	li	a0,320
    17f4:	0ff7f793          	andi	a5,a5,255
    17f8:	0407e793          	ori	a5,a5,64
    17fc:	30f40723          	sb	a5,782(s0)
    1800:	30a40783          	lb	a5,778(s0)
    1804:	0bf7f793          	andi	a5,a5,191
    1808:	30f40523          	sb	a5,778(s0)
    180c:	c55ff0ef          	jal	ra,1460 <gpio_input_dis>
    1810:	30e40783          	lb	a5,782(s0)
    1814:	18000513          	li	a0,384
    1818:	f807e793          	ori	a5,a5,-128
    181c:	0ff7f793          	andi	a5,a5,255
    1820:	30f40723          	sb	a5,782(s0)
    1824:	30a40783          	lb	a5,778(s0)
    1828:	07f7f793          	andi	a5,a5,127
    182c:	30f40523          	sb	a5,778(s0)
    1830:	c31ff0ef          	jal	ra,1460 <gpio_input_dis>
    1834:	33140783          	lb	a5,817(s0)
    1838:	00b00513          	li	a0,11
    183c:	0f37f793          	andi	a5,a5,243
    1840:	32f408a3          	sb	a5,817(s0)
    1844:	30640783          	lb	a5,774(s0)
    1848:	0df7f793          	andi	a5,a5,223
    184c:	30f40323          	sb	a5,774(s0)
    1850:	33140783          	lb	a5,817(s0)
    1854:	0cf7f793          	andi	a5,a5,207
    1858:	32f408a3          	sb	a5,817(s0)
    185c:	30640783          	lb	a5,774(s0)
    1860:	0bf7f793          	andi	a5,a5,191
    1864:	30f40323          	sb	a5,774(s0)
    1868:	30140783          	lb	a5,769(s0)
    186c:	0ff7f793          	andi	a5,a5,255
    1870:	0607e793          	ori	a5,a5,96
    1874:	30f400a3          	sb	a5,769(s0)
    1878:	f81fe0ef          	jal	ra,7f8 <analog_read_reg8>
    187c:	f8056593          	ori	a1,a0,-128
    1880:	0ff5f593          	andi	a1,a1,255
    1884:	00b00513          	li	a0,11
    1888:	f2dfe0ef          	jal	ra,7b4 <analog_write_reg8>
    188c:	801017b7          	lui	a5,0x80101
    1890:	c0178703          	lb	a4,-1023(a5) # 80100c01 <_DATA_LMA_START+0x600fc709>
    1894:	3e800513          	li	a0,1000
    1898:	f8076713          	ori	a4,a4,-128
    189c:	0ff77713          	andi	a4,a4,255
    18a0:	c0e780a3          	sb	a4,-1023(a5)
    18a4:	4705                	c.li	a4,1
    18a6:	82e78e23          	sb	a4,-1988(a5)
    18aa:	83d78703          	lb	a4,-1987(a5)
    18ae:	747d                	c.lui	s0,0xfffff
    18b0:	0ff77713          	andi	a4,a4,255
    18b4:	00176713          	ori	a4,a4,1
    18b8:	82e78ea3          	sb	a4,-1987(a5)
    18bc:	945fe0ef          	jal	ra,200 <delay_ms>
    18c0:	000806b7          	lui	a3,0x80
    18c4:	65a9                	c.lui	a1,0xa
    18c6:	00080537          	lui	a0,0x80
    18ca:	04868693          	addi	a3,a3,72 # 80048 <cst_libm_sincosf+0x48>
    18ce:	0585                	c.addi	a1,1
    18d0:	7e300613          	li	a2,2019
    18d4:	05450513          	addi	a0,a0,84 # 80054 <cst_libm_sincosf+0x54>
    18d8:	5d7010ef          	jal	ra,36ae <iprintf>
    18dc:	000807b7          	lui	a5,0x80
    18e0:	6585                	c.lui	a1,0x1
    18e2:	0307a407          	flw	fs0,48(a5) # 80030 <cst_libm_sincosf+0x30>
    18e6:	00080737          	lui	a4,0x80
    18ea:	000807b7          	lui	a5,0x80
    18ee:	13058693          	addi	a3,a1,304 # 1130 <flash_read_mid+0x4>
    18f2:	02070713          	addi	a4,a4,32 # 80020 <cst_libm_sincosf+0x20>
    18f6:	02878793          	addi	a5,a5,40 # 80028 <cst_libm_sincosf+0x28>
    18fa:	080c                	c.addi4spn	a1,sp,16
    18fc:	20040413          	addi	s0,s0,512 # fffff200 <_DATA_LMA_START+0xdfffad08>
    1900:	96ae                	c.add	a3,a1
    1902:	00072b03          	lw	s6,0(a4)
    1906:	00472b83          	lw	s7,4(a4)
    190a:	0007aa03          	lw	s4,0(a5)
    190e:	0047aa83          	lw	s5,4(a5)
    1912:	9436                	c.add	s0,a3
    1914:	00900533          	add	a0,zero,s1
    1918:	099010ef          	jal	ra,31b0 <__floatsidf>
    191c:	865a                	c.mv	a2,s6
    191e:	86de                	c.mv	a3,s7
    1920:	244010ef          	jal	ra,2b64 <__muldf3>
    1924:	8652                	c.mv	a2,s4
    1926:	86d6                	c.mv	a3,s5
    1928:	23c010ef          	jal	ra,2b64 <__muldf3>
    192c:	211010ef          	jal	ra,333c <__truncdfsf2>
    1930:	765000ef          	jal	ra,2894 <sinf>
    1934:	10857553          	fmul.s	fa0,fa0,fs0
    1938:	00041123          	sh	zero,2(s0)
    193c:	0411                	c.addi	s0,4
    193e:	0485                	c.addi	s1,1
    1940:	c00517d3          	fcvt.w.s	a5,fa0,rtz
    1944:	fef41e23          	sh	a5,-4(s0)
    1948:	fd2496e3          	bne	s1,s2,1914 <main+0x470>
    194c:	6685                	c.lui	a3,0x1
    194e:	0810                	c.addi4spn	a2,sp,16
    1950:	77fd                	c.lui	a5,0xfffff
    1952:	13068593          	addi	a1,a3,304 # 1130 <flash_read_mid+0x4>
    1956:	ed878493          	addi	s1,a5,-296 # ffffeed8 <_DATA_LMA_START+0xdfffa9e0>
    195a:	95b2                	c.add	a1,a2
    195c:	94ae                	c.add	s1,a1
    195e:	13068593          	addi	a1,a3,304
    1962:	95b2                	c.add	a1,a2
    1964:	60078793          	addi	a5,a5,1536
    1968:	79fd                	c.lui	s3,0xfffff
    196a:	00f58433          	add	s0,a1,a5
    196e:	13068593          	addi	a1,a3,304
    1972:	13068693          	addi	a3,a3,304
    1976:	40098a13          	addi	s4,s3,1024 # fffff400 <_DATA_LMA_START+0xdfffaf08>
    197a:	f0098913          	addi	s2,s3,-256
    197e:	95b2                	c.add	a1,a2
    1980:	96b2                	c.add	a3,a2
    1982:	02848c13          	addi	s8,s1,40
    1986:	8b22                	c.mv	s6,s0
    1988:	8aa6                	c.mv	s5,s1
    198a:	53810b93          	addi	s7,sp,1336
    198e:	9a2e                	c.add	s4,a1
    1990:	00d90933          	add	s2,s2,a3
    1994:	0294                	c.addi4spn	a3,sp,320
    1996:	069c                	c.addi4spn	a5,sp,832
    1998:	40068713          	addi	a4,a3,1024
    199c:	438c                	c.lw	a1,0(a5)
    199e:	43d0                	c.lw	a2,4(a5)
    19a0:	4794                	c.lw	a3,8(a5)
    19a2:	c30c                	c.sw	a1,0(a4)
    19a4:	c350                	c.sw	a2,4(a4)
    19a6:	c714                	c.sw	a3,8(a4)
    19a8:	07b1                	c.addi	a5,12
    19aa:	0731                	c.addi	a4,12
    19ac:	ff7798e3          	bne	a5,s7,199c <main+0x4f8>
    19b0:	4394                	c.lw	a3,0(a5)
    19b2:	c314                	c.sw	a3,0(a4)
    19b4:	43dc                	c.lw	a5,4(a5)
    19b6:	c35c                	c.sw	a5,4(a4)
    19b8:	b0005073          	csrwi	mcycle,0
    19bc:	b0002cf3          	csrr	s9,mcycle
    19c0:	459d                	c.li	a1,7
    19c2:	8552                	c.mv	a0,s4
    19c4:	2f4000ef          	jal	ra,1cb8 <riscv_dsp_cfft_q15>
    19c8:	b00027f3          	csrr	a5,mcycle
    19cc:	419787b3          	sub	a5,a5,s9
    19d0:	08000613          	li	a2,128
    19d4:	85ca                	c.mv	a1,s2
    19d6:	8552                	c.mv	a0,s4
    19d8:	00faa023          	sw	a5,0(s5)
    19dc:	56d000ef          	jal	ra,2748 <riscv_dsp_cmag_q15>
    19e0:	855a                	c.mv	a0,s6
    19e2:	10000613          	li	a2,256
    19e6:	85ca                	c.mv	a1,s2
    19e8:	004a8a93          	addi	s5,s5,4
    19ec:	451010ef          	jal	ra,363c <memcpy>
    19f0:	100b0b13          	addi	s6,s6,256
    19f4:	fb8a90e3          	bne	s5,s8,1994 <main+0x4f0>
    19f8:	6585                	c.lui	a1,0x1
    19fa:	13058693          	addi	a3,a1,304 # 1130 <flash_read_mid+0x4>
    19fe:	080c                	c.addi4spn	a1,sp,16
    1a00:	96ae                	c.add	a3,a1
    1a02:	99b6                	c.add	s3,a3
    1a04:	874e                	c.mv	a4,s3
    1a06:	4781                	c.li	a5,0
    1a08:	08000693          	li	a3,128
    1a0c:	d007f7d3          	fcvt.s.w	fa5,a5
    1a10:	0711                	c.addi	a4,4
    1a12:	0785                	c.addi	a5,1
    1a14:	00f7f7d3          	fadd.s	fa5,fa5,fa5
    1a18:	fef72e27          	fsw	fa5,-4(a4)
    1a1c:	fed798e3          	bne	a5,a3,1a0c <main+0x568>
    1a20:	00080537          	lui	a0,0x80
    1a24:	0a450513          	addi	a0,a0,164 # 800a4 <cst_libm_sincosf+0xa4>
    1a28:	4901                	c.li	s2,0
    1a2a:	4a01                	c.li	s4,0
    1a2c:	00080b37          	lui	s6,0x80
    1a30:	4c5010ef          	jal	ra,36f4 <puts>
    1a34:	0004aa83          	lw	s5,0(s1)
    1a38:	0905                	c.addi	s2,1
    1a3a:	8656                	c.mv	a2,s5
    1a3c:	012005b3          	add	a1,zero,s2
    1a40:	0ccb0513          	addi	a0,s6,204 # 800cc <cst_libm_sincosf+0xcc>
    1a44:	46b010ef          	jal	ra,36ae <iprintf>
    1a48:	015a0a33          	add	s4,s4,s5
    1a4c:	fd8fe0ef          	jal	ra,224 <delay_ms.constprop.12>
    1a50:	00448493          	addi	s1,s1,4
    1a54:	bea9605b          	bnec	s2,10,1a34 <main+0x590>
    1a58:	fccfe0ef          	jal	ra,224 <delay_ms.constprop.12>
    1a5c:	032a55b3          	divu	a1,s4,s2
    1a60:	00080537          	lui	a0,0x80
    1a64:	0e850513          	addi	a0,a0,232 # 800e8 <cst_libm_sincosf+0xe8>
    1a68:	447010ef          	jal	ra,36ae <iprintf>
    1a6c:	fb8fe0ef          	jal	ra,224 <delay_ms.constprop.12>
    1a70:	00080537          	lui	a0,0x80
    1a74:	10450513          	addi	a0,a0,260 # 80104 <cst_libm_sincosf+0x104>
    1a78:	47d010ef          	jal	ra,36f4 <puts>
    1a7c:	6605                	c.lui	a2,0x1
    1a7e:	13060593          	addi	a1,a2,304 # 1130 <flash_read_mid+0x4>
    1a82:	0810                	c.addi4spn	a2,sp,16
    1a84:	95b2                	c.add	a1,a2
    1a86:	76fd                	c.lui	a3,0xfffff
    1a88:	96ae                	c.add	a3,a1
    1a8a:	70068693          	addi	a3,a3,1792 # fffff700 <_DATA_LMA_START+0xdfffb208>
    1a8e:	4585                	c.li	a1,1
    1a90:	10040893          	addi	a7,s0,256
    1a94:	00100813          	li	a6,1
    1a98:	8636                	c.mv	a2,a3
    1a9a:	8722                	c.mv	a4,s0
    1a9c:	00c0006f          	j	1aa8 <main+0x604>
    1aa0:	00260613          	addi	a2,a2,2
    1aa4:	1d170a63          	beq	a4,a7,1c78 <main+0x7d4>
    1aa8:	00071783          	lh	a5,0(a4)
    1aac:	00061503          	lh	a0,0(a2)
    1ab0:	0709                	c.addi	a4,2
    1ab2:	8f89                	c.sub	a5,a0
    1ab4:	40f00533          	neg	a0,a5
    1ab8:	f2a787ff          	maxw	a5,a5,a0
    1abc:	fef852e3          	bge	a6,a5,1aa0 <main+0x5fc>
    1ac0:	00080537          	lui	a0,0x80
    1ac4:	00158593          	addi	a1,a1,1
    1ac8:	1d050513          	addi	a0,a0,464 # 801d0 <cst_libm_sincosf+0x1d0>
    1acc:	3e3010ef          	jal	ra,36ae <iprintf>
    1ad0:	f54fe0ef          	jal	ra,224 <delay_ms.constprop.12>
    1ad4:	f50fe0ef          	jal	ra,224 <delay_ms.constprop.12>
    1ad8:	00080537          	lui	a0,0x80
    1adc:	16050513          	addi	a0,a0,352 # 80160 <cst_libm_sincosf+0x160>
    1ae0:	415010ef          	jal	ra,36f4 <puts>
    1ae4:	00080537          	lui	a0,0x80
    1ae8:	18450513          	addi	a0,a0,388 # 80184 <cst_libm_sincosf+0x184>
    1aec:	409010ef          	jal	ra,36f4 <puts>
    1af0:	f34fe0ef          	jal	ra,224 <delay_ms.constprop.12>
    1af4:	00080737          	lui	a4,0x80
    1af8:	6785                	c.lui	a5,0x1
    1afa:	03472407          	flw	fs0,52(a4) # 80034 <cst_libm_sincosf+0x34>
    1afe:	a0078493          	addi	s1,a5,-1536 # a00 <pm_wait_bbpll_done+0x7c>
    1b02:	7afd                	c.lui	s5,0xfffff
    1b04:	b0078793          	addi	a5,a5,-1280
    1b08:	008484b3          	add	s1,s1,s0
    1b0c:	00f40a33          	add	s4,s0,a5
    1b10:	00080b37          	lui	s6,0x80
    1b14:	00080937          	lui	s2,0x80
    1b18:	600a8a93          	addi	s5,s5,1536 # fffff600 <_DATA_LMA_START+0xdfffb108>
    1b1c:	0009a507          	flw	fa0,0(s3)
    1b20:	01548433          	add	s0,s1,s5
    1b24:	708010ef          	jal	ra,322c <__extendsfdf2>
    1b28:	862a                	c.mv	a2,a0
    1b2a:	86ae                	c.mv	a3,a1
    1b2c:	1c0b0513          	addi	a0,s6,448 # 801c0 <cst_libm_sincosf+0x1c0>
    1b30:	37f010ef          	jal	ra,36ae <iprintf>
    1b34:	00041783          	lh	a5,0(s0)
    1b38:	10040413          	addi	s0,s0,256
    1b3c:	d007f553          	fcvt.s.w	fa0,a5
    1b40:	10857553          	fmul.s	fa0,fa0,fs0
    1b44:	6e8010ef          	jal	ra,322c <__extendsfdf2>
    1b48:	862a                	c.mv	a2,a0
    1b4a:	86ae                	c.mv	a3,a1
    1b4c:	1c890513          	addi	a0,s2,456 # 801c8 <cst_libm_sincosf+0x1c8>
    1b50:	35f010ef          	jal	ra,36ae <iprintf>
    1b54:	fe8490e3          	bne	s1,s0,1b34 <main+0x690>
    1b58:	00a00513          	li	a0,10
    1b5c:	371010ef          	jal	ra,36cc <putchar>
    1b60:	00248493          	addi	s1,s1,2
    1b64:	ec0fe0ef          	jal	ra,224 <delay_ms.constprop.12>
    1b68:	0991                	c.addi	s3,4
    1b6a:	fb4499e3          	bne	s1,s4,1b1c <main+0x678>
    1b6e:	6305                	c.lui	t1,0x1
    1b70:	911a                	c.add	sp,t1
    1b72:	17c12083          	lw	ra,380(sp)
    1b76:	4501                	c.li	a0,0
    1b78:	17812403          	lw	s0,376(sp)
    1b7c:	17412483          	lw	s1,372(sp)
    1b80:	17012903          	lw	s2,368(sp)
    1b84:	16c12983          	lw	s3,364(sp)
    1b88:	16812a03          	lw	s4,360(sp)
    1b8c:	16412a83          	lw	s5,356(sp)
    1b90:	16012b03          	lw	s6,352(sp)
    1b94:	15c12b83          	lw	s7,348(sp)
    1b98:	15812c03          	lw	s8,344(sp)
    1b9c:	15412c83          	lw	s9,340(sp)
    1ba0:	14c12407          	flw	fs0,332(sp)
    1ba4:	6119                	c.addi16sp	sp,384
    1ba6:	8082                	c.jr	ra
    1ba8:	00100793          	li	a5,1
    1bac:	00f40123          	sb	a5,2(s0)
    1bb0:	c05fe0ef          	jal	ra,7b4 <analog_write_reg8>
    1bb4:	0014e593          	ori	a1,s1,1
    1bb8:	0ff5f593          	andi	a1,a1,255
    1bbc:	03900513          	li	a0,57
    1bc0:	bf5fe0ef          	jal	ra,7b4 <analog_write_reg8>
    1bc4:	a55ff06f          	j	1618 <main+0x174>
    1bc8:	07f00513          	li	a0,127
    1bcc:	c2dfe0ef          	jal	ra,7f8 <analog_read_reg8>
    1bd0:	d89f940b          	addigp	s0,-632 # 80588 <g_pm_status_info>
    1bd4:	0405705b          	bbc	a0,0,1c14 <main+0x770>
    1bd8:	4214f25b          	bbs	s1,1,1bfc <main+0x758>
    1bdc:	47c1                	c.li	a5,16
    1bde:	00f40123          	sb	a5,2(s0)
    1be2:	bc1d                	c.j	1618 <main+0x174>
    1be4:	000fe537          	lui	a0,0xfe
    1be8:	0c050513          	addi	a0,a0,192 # fe0c0 <_STACK_TOP+0x5e0c0>
    1bec:	f20ff0ef          	jal	ra,130c <user_calib_adc_vref.constprop.9>
    1bf0:	000fe537          	lui	a0,0xfe
    1bf4:	815ff0ef          	jal	ra,1408 <user_calib_freq_offset.constprop.8>
    1bf8:	ba1ff06f          	j	1798 <main+0x2f4>
    1bfc:	02000793          	li	a5,32
    1c00:	0fd4f593          	andi	a1,s1,253
    1c04:	03900513          	li	a0,57
    1c08:	00f40123          	sb	a5,2(s0)
    1c0c:	ba9fe0ef          	jal	ra,7b4 <analog_write_reg8>
    1c10:	a09ff06f          	j	1618 <main+0x174>
    1c14:	47a1                	c.li	a5,8
    1c16:	00f40123          	sb	a5,2(s0)
    1c1a:	bafd                	c.j	1618 <main+0x174>
    1c1c:	001fe537          	lui	a0,0x1fe
    1c20:	0c050513          	addi	a0,a0,192 # 1fe0c0 <FLASH_SIZE+0xfe0c0>
    1c24:	ee8ff0ef          	jal	ra,130c <user_calib_adc_vref.constprop.9>
    1c28:	001fe537          	lui	a0,0x1fe
    1c2c:	fdcff0ef          	jal	ra,1408 <user_calib_freq_offset.constprop.8>
    1c30:	b69ff06f          	j	1798 <main+0x2f4>
    1c34:	0007e537          	lui	a0,0x7e
    1c38:	0c050513          	addi	a0,a0,192 # 7e0c0 <BIN_SIZE+0x79638>
    1c3c:	ed0ff0ef          	jal	ra,130c <user_calib_adc_vref.constprop.9>
    1c40:	0007e537          	lui	a0,0x7e
    1c44:	fc4ff0ef          	jal	ra,1408 <user_calib_freq_offset.constprop.8>
    1c48:	b51ff06f          	j	1798 <main+0x2f4>
    1c4c:	00000513          	li	a0,0
    1c50:	ebcff0ef          	jal	ra,130c <user_calib_adc_vref.constprop.9>
    1c54:	b45ff06f          	j	1798 <main+0x2f4>
    1c58:	0507d05b          	beqc	a5,16,1c98 <main+0x7f4>
    1c5c:	bf17e85b          	bnec	a5,17,1c4c <main+0x7a8>
    1c60:	0001e537          	lui	a0,0x1e
    1c64:	0c050513          	addi	a0,a0,192 # 1e0c0 <BIN_SIZE+0x19638>
    1c68:	ea4ff0ef          	jal	ra,130c <user_calib_adc_vref.constprop.9>
    1c6c:	0001e537          	lui	a0,0x1e
    1c70:	f98ff0ef          	jal	ra,1408 <user_calib_freq_offset.constprop.8>
    1c74:	b25ff06f          	j	1798 <main+0x2f4>
    1c78:	00158593          	addi	a1,a1,1
    1c7c:	10068693          	addi	a3,a3,256
    1c80:	a0a5ec5b          	bnec	a1,10,1a98 <main+0x5f4>
    1c84:	00080537          	lui	a0,0x80
    1c88:	12c50513          	addi	a0,a0,300 # 8012c <cst_libm_sincosf+0x12c>
    1c8c:	269010ef          	jal	ra,36f4 <puts>
    1c90:	d94fe0ef          	jal	ra,224 <delay_ms.constprop.12>
    1c94:	e41ff06f          	j	1ad4 <main+0x630>
    1c98:	0000e537          	lui	a0,0xe
    1c9c:	0c050513          	addi	a0,a0,192 # e0c0 <BIN_SIZE+0x9638>
    1ca0:	e6cff0ef          	jal	ra,130c <user_calib_adc_vref.constprop.9>
    1ca4:	0000e537          	lui	a0,0xe
    1ca8:	f60ff0ef          	jal	ra,1408 <user_calib_freq_offset.constprop.8>
    1cac:	b4f5                	c.j	1798 <main+0x2f4>
    1cae:	0001                	c.nop

00001cb0 <default_irq_entry>:
    1cb0:	a001                	c.j	1cb0 <default_irq_entry>

00001cb2 <trap_handler>:
    1cb2:	a001                	c.j	1cb2 <trap_handler>
    1cb4:	0001                	c.nop
	...

00001cb8 <riscv_dsp_cfft_q15>:
    1cb8:	ffc58793          	addi	a5,a1,-4
    1cbc:	4729                	c.li	a4,10
    1cbe:	00f76b63          	bltu	a4,a5,1cd4 <riscv_dsp_cfft_q15+0x1c>
    1cc2:	a05f970b          	addigp	a4,-1532 # 80204 <cst_libm_sincosf+0x204>
    1cc6:	0cf707db          	lea.w	a5,a4,a5
    1cca:	439c                	c.lw	a5,0(a5)
    1ccc:	00078067          	jr	a5
    1cd0:	38c0006f          	j	205c <riscv_dsp_cfft_rd4_q15>
    1cd4:	a011                	c.j	1cd8 <riscv_dsp_cfft_rd2_q15>
	...

00001cd8 <riscv_dsp_cfft_rd2_q15>:
    1cd8:	4789                	c.li	a5,2
    1cda:	00b797b3          	sll	a5,a5,a1
    1cde:	00f50e33          	add	t3,a0,a5
    1ce2:	000e2603          	lw	a2,0(t3)
    1ce6:	4114                	c.lw	a3,0(a0)
    1ce8:	7179                	c.addi16sp	sp,-48
    1cea:	7016067f          	srai16	a2,a2,1
    1cee:	701686ff          	srai16	a3,a3,1
    1cf2:	d24a                	c.swsp	s2,36(sp)
    1cf4:	cc56                	c.swsp	s5,24(sp)
    1cf6:	ca5a                	c.swsp	s6,20(sp)
    1cf8:	c85e                	c.swsp	s7,16(sp)
    1cfa:	00c6877f          	radd16	a4,a3,a2
    1cfe:	d622                	c.swsp	s0,44(sp)
    1d00:	d426                	c.swsp	s1,40(sp)
    1d02:	d04e                	c.swsp	s3,32(sp)
    1d04:	ce52                	c.swsp	s4,28(sp)
    1d06:	c662                	c.swsp	s8,12(sp)
    1d08:	c466                	c.swsp	s9,8(sp)
    1d0a:	02c686ff          	rsub16	a3,a3,a2
    1d0e:	c118                	c.sw	a4,0(a0)
    1d10:	4a85                	c.li	s5,1
    1d12:	00450b93          	addi	s7,a0,4 # e004 <BIN_SIZE+0x957c>
    1d16:	00de2023          	sw	a3,0(t3)
    1d1a:	8b2e                	c.mv	s6,a1
    1d1c:	892a                	c.mv	s2,a0
    1d1e:	00ba9ab3          	sll	s5,s5,a1
    1d22:	0d7e0d63          	beq	t3,s7,1dfc <riscv_dsp_cfft_rd2_q15+0x124>
    1d26:	0791                	c.addi	a5,4
    1d28:	4f29                	c.li	t5,10
    1d2a:	6ec1                	c.lui	t4,0x10
    1d2c:	40bf0f33          	sub	t5,t5,a1
    1d30:	953e                	c.add	a0,a5
    1d32:	85de                	c.mv	a1,s7
    1d34:	4881                	c.li	a7,0
    1d36:	a35f980b          	addigp	a6,-1484 # 80234 <riscv_dsp_cos_table_q15_1024+0x4>
    1d3a:	10000313          	li	t1,256
    1d3e:	1efd                	c.addi	t4,-1
    1d40:	0500006f          	j	1d90 <riscv_dsp_cfft_rd2_q15+0xb8>
    1d44:	00039283          	lh	t0,0(t2)
    1d48:	000f9783          	lh	a5,0(t6)
    1d4c:	00052f83          	lw	t6,0(a0)
    1d50:	4190                	c.lw	a2,0(a1)
    1d52:	86be                	c.mv	a3,a5
    1d54:	701f8fff          	srai16	t6,t6,1
    1d58:	7016067f          	srai16	a2,a2,1
    1d5c:	43f607ff          	sub16	a5,a2,t6
    1d60:	0e5696ff          	pkbb16	a3,a3,t0
    1d64:	38f692ff          	kmda	t0,a3,a5
    1d68:	78d797ff          	smxds	a5,a5,a3
    1d6c:	0102d693          	srli	a3,t0,0x10
    1d70:	3ed7177f          	pktb16	a4,a4,a3
    1d74:	83c1                	c.srli	a5,0x10
    1d76:	01f6067f          	radd16	a2,a2,t6
    1d7a:	07c2                	c.slli	a5,0x10
    1d7c:	01d77733          	and	a4,a4,t4
    1d80:	c190                	c.sw	a2,0(a1)
    1d82:	8f5d                	c.or	a4,a5
    1d84:	c118                	c.sw	a4,0(a0)
    1d86:	0591                	c.addi	a1,4
    1d88:	00450513          	addi	a0,a0,4
    1d8c:	06be0863          	beq	t3,a1,1dfc <riscv_dsp_cfft_rd2_q15+0x124>
    1d90:	0885                	c.addi	a7,1
    1d92:	01e897b3          	sll	a5,a7,t5
    1d96:	f0078693          	addi	a3,a5,-256
    1d9a:	40f30633          	sub	a2,t1,a5
    1d9e:	0af803db          	lea.h	t2,a6,a5
    1da2:	0ac80fdb          	lea.h	t6,a6,a2
    1da6:	40d302b3          	sub	t0,t1,a3
    1daa:	f8c04de3          	bgtz	a2,1d44 <riscv_dsp_cfft_rd2_q15+0x6c>
    1dae:	e0078793          	addi	a5,a5,-512
    1db2:	40f30fb3          	sub	t6,t1,a5
    1db6:	0af803db          	lea.h	t2,a6,a5
    1dba:	0a58065b          	lea.h	a2,a6,t0
    1dbe:	0ad806db          	lea.h	a3,a6,a3
    1dc2:	0bf807db          	lea.h	a5,a6,t6
    1dc6:	00505b63          	blez	t0,1ddc <riscv_dsp_cfft_rd2_q15+0x104>
    1dca:	00065283          	lhu	t0,0(a2)
    1dce:	00069783          	lh	a5,0(a3)
    1dd2:	405002b3          	neg	t0,t0
    1dd6:	3c02b2db          	bfos	t0,t0,15,0
    1dda:	bf8d                	c.j	1d4c <riscv_dsp_cfft_rd2_q15+0x74>
    1ddc:	00079283          	lh	t0,0(a5)
    1de0:	0003d603          	lhu	a2,0(t2)
    1de4:	40c00633          	neg	a2,a2
    1de8:	405006b3          	neg	a3,t0
    1dec:	3c0637db          	bfos	a5,a2,15,0
    1df0:	f5f05ee3          	blez	t6,1d4c <riscv_dsp_cfft_rd2_q15+0x74>
    1df4:	82be                	c.mv	t0,a5
    1df6:	3c06b7db          	bfos	a5,a3,15,0
    1dfa:	bf89                	c.j	1d4c <riscv_dsp_cfft_rd2_q15+0x74>
    1dfc:	ffeb0a13          	addi	s4,s6,-2
    1e00:	89d6                	c.mv	s3,s5
    1e02:	4e89                	c.li	t4,2
    1e04:	0c0a0863          	beqz	s4,1ed4 <riscv_dsp_cfft_rd2_q15+0x1fc>
    1e08:	44a9                	c.li	s1,10
    1e0a:	6341                	c.lui	t1,0x10
    1e0c:	416484b3          	sub	s1,s1,s6
    1e10:	a35f9f8b          	addigp	t6,-1484 # 80234 <riscv_dsp_cos_table_q15_1024+0x4>
    1e14:	10000293          	li	t0,256
    1e18:	fff30313          	addi	t1,t1,-1 # ffff <BIN_SIZE+0xb577>
    1e1c:	0019d993          	srli	s3,s3,0x1
    1e20:	00199413          	slli	s0,s3,0x1
    1e24:	0b3903db          	lea.h	t2,s2,s3
    1e28:	020e8463          	beqz	t4,1e50 <riscv_dsp_cfft_rd2_q15+0x178>
    1e2c:	00299813          	slli	a6,s3,0x2
    1e30:	861e                	c.mv	a2,t2
    1e32:	86ca                	c.mv	a3,s2
    1e34:	01d005b3          	add	a1,zero,t4
    1e38:	429c                	c.lw	a5,0(a3)
    1e3a:	4208                	c.lw	a0,0(a2)
    1e3c:	15fd                	c.addi	a1,-1
    1e3e:	00a7877f          	radd16	a4,a5,a0
    1e42:	c298                	c.sw	a4,0(a3)
    1e44:	02a787ff          	rsub16	a5,a5,a0
    1e48:	c21c                	c.sw	a5,0(a2)
    1e4a:	96c2                	c.add	a3,a6
    1e4c:	9642                	c.add	a2,a6
    1e4e:	f5ed                	c.bnez	a1,1e38 <riscv_dsp_cfft_rd2_q15+0x160>
    1e50:	00299893          	slli	a7,s3,0x2
    1e54:	8e5e                	c.mv	t3,s7
    1e56:	4f01                	c.li	t5,0
    1e58:	067b8a63          	beq	s7,t2,1ecc <riscv_dsp_cfft_rd2_q15+0x1f4>
    1e5c:	01df0f33          	add	t5,t5,t4
    1e60:	009f17b3          	sll	a5,t5,s1
    1e64:	40f286b3          	sub	a3,t0,a5
    1e68:	18d05063          	blez	a3,1fe8 <riscv_dsp_cfft_rd2_q15+0x310>
    1e6c:	0adf865b          	lea.h	a2,t6,a3
    1e70:	0aff87db          	lea.h	a5,t6,a5
    1e74:	00079683          	lh	a3,0(a5)
    1e78:	00061603          	lh	a2,0(a2)
    1e7c:	008e0533          	add	a0,t3,s0
    1e80:	85f2                	c.mv	a1,t3
    1e82:	8876                	c.mv	a6,t4
    1e84:	040e8063          	beqz	t4,1ec4 <riscv_dsp_cfft_rd2_q15+0x1ec>
    1e88:	0ed6167f          	pkbb16	a2,a2,a3
    1e8c:	4194                	c.lw	a3,0(a1)
    1e8e:	00052c83          	lw	s9,0(a0)
    1e92:	187d                	c.addi	a6,-1
    1e94:	439687ff          	sub16	a5,a3,s9
    1e98:	38f61c7f          	kmda	s8,a2,a5
    1e9c:	78c797ff          	smxds	a5,a5,a2
    1ea0:	010c5c13          	srli	s8,s8,0x10
    1ea4:	3f87177f          	pktb16	a4,a4,s8
    1ea8:	83c1                	c.srli	a5,0x10
    1eaa:	019686ff          	radd16	a3,a3,s9
    1eae:	07c2                	c.slli	a5,0x10
    1eb0:	00677733          	and	a4,a4,t1
    1eb4:	c194                	c.sw	a3,0(a1)
    1eb6:	8f5d                	c.or	a4,a5
    1eb8:	c118                	c.sw	a4,0(a0)
    1eba:	95c6                	c.add	a1,a7
    1ebc:	01150533          	add	a0,a0,a7
    1ec0:	fc0816e3          	bnez	a6,1e8c <riscv_dsp_cfft_rd2_q15+0x1b4>
    1ec4:	004e0e13          	addi	t3,t3,4
    1ec8:	f9c39ae3          	bne	t2,t3,1e5c <riscv_dsp_cfft_rd2_q15+0x184>
    1ecc:	1a7d                	c.addi	s4,-1
    1ece:	0e86                	c.slli	t4,0x1
    1ed0:	f40a16e3          	bnez	s4,1e1c <riscv_dsp_cfft_rd2_q15+0x144>
    1ed4:	4891                	c.li	a7,4
    1ed6:	016898b3          	sll	a7,a7,s6
    1eda:	01190833          	add	a6,s2,a7
    1ede:	87ca                	c.mv	a5,s2
    1ee0:	03090663          	beq	s2,a6,1f0c <riscv_dsp_cfft_rd2_q15+0x234>
    1ee4:	43cc                	c.lw	a1,4(a5)
    1ee6:	4394                	c.lw	a3,0(a5)
    1ee8:	4798                	c.lw	a4,8(a5)
    1eea:	47d0                	c.lw	a2,12(a5)
    1eec:	00b6857f          	radd16	a0,a3,a1
    1ef0:	02b686ff          	rsub16	a3,a3,a1
    1ef4:	00c705ff          	radd16	a1,a4,a2
    1ef8:	02c7077f          	rsub16	a4,a4,a2
    1efc:	c388                	c.sw	a0,0(a5)
    1efe:	c3d4                	c.sw	a3,4(a5)
    1f00:	c78c                	c.sw	a1,8(a5)
    1f02:	c7d8                	c.sw	a4,12(a5)
    1f04:	01078793          	addi	a5,a5,16
    1f08:	fcf81ee3          	bne	a6,a5,1ee4 <riscv_dsp_cfft_rd2_q15+0x20c>
    1f0c:	001ad813          	srli	a6,s5,0x1
    1f10:	0d09075b          	lea.w	a4,s2,a6
    1f14:	431c                	c.lw	a5,0(a4)
    1f16:	18f9                	c.addi	a7,-2
    1f18:	00492683          	lw	a3,4(s2)
    1f1c:	98ca                	c.add	a7,s2
    1f1e:	002ada93          	srli	s5,s5,0x2
    1f22:	00f92223          	sw	a5,4(s2)
    1f26:	01584333          	xor	t1,a6,s5
    1f2a:	00890613          	addi	a2,s2,8
    1f2e:	fee88513          	addi	a0,a7,-18
    1f32:	87c2                	c.mv	a5,a6
    1f34:	4591                	c.li	a1,4
    1f36:	1b7d                	c.addi	s6,-1
    1f38:	00d72023          	sw	a3,0(a4)
    1f3c:	0067c7b3          	xor	a5,a5,t1
    1f40:	00faf733          	and	a4,s5,a5
    1f44:	eb01                	c.bnez	a4,1f54 <riscv_dsp_cfft_rd2_q15+0x27c>
    1f46:	8756                	c.mv	a4,s5
    1f48:	8305                	c.srli	a4,0x1
    1f4a:	8fb9                	c.xor	a5,a4
    1f4c:	00f776b3          	and	a3,a4,a5
    1f50:	fe068ce3          	beqz	a3,1f48 <riscv_dsp_cfft_rd2_q15+0x270>
    1f54:	ffe58713          	addi	a4,a1,-2
    1f58:	02f77863          	bgeu	a4,a5,1f88 <riscv_dsp_cfft_rd2_q15+0x2b0>
    1f5c:	0cf906db          	lea.w	a3,s2,a5
    1f60:	0006ae83          	lw	t4,0(a3)
    1f64:	00062e03          	lw	t3,0(a2)
    1f68:	40f00733          	neg	a4,a5
    1f6c:	01d62023          	sw	t4,0(a2)
    1f70:	0ce8875b          	lea.w	a4,a7,a4
    1f74:	01c6a023          	sw	t3,0(a3)
    1f78:	ffe72e03          	lw	t3,-2(a4)
    1f7c:	00852683          	lw	a3,8(a0)
    1f80:	01c52423          	sw	t3,8(a0)
    1f84:	fed72f23          	sw	a3,-2(a4)
    1f88:	97c2                	c.add	a5,a6
    1f8a:	0cf907db          	lea.w	a5,s2,a5
    1f8e:	4394                	c.lw	a3,0(a5)
    1f90:	4258                	c.lw	a4,4(a2)
    1f92:	c254                	c.sw	a3,4(a2)
    1f94:	c398                	c.sw	a4,0(a5)
    1f96:	0b05f563          	bgeu	a1,a6,2040 <riscv_dsp_cfft_rd2_q15+0x368>
    1f9a:	e76587ff          	bitrev	a5,a1,s6
    1f9e:	02f5f763          	bgeu	a1,a5,1fcc <riscv_dsp_cfft_rd2_q15+0x2f4>
    1fa2:	0cf906db          	lea.w	a3,s2,a5
    1fa6:	0006ae83          	lw	t4,0(a3)
    1faa:	00862e03          	lw	t3,8(a2)
    1fae:	40f00733          	neg	a4,a5
    1fb2:	01d62423          	sw	t4,8(a2)
    1fb6:	0ce8875b          	lea.w	a4,a7,a4
    1fba:	01c6a023          	sw	t3,0(a3)
    1fbe:	ffe72e03          	lw	t3,-2(a4)
    1fc2:	4114                	c.lw	a3,0(a0)
    1fc4:	01c52023          	sw	t3,0(a0)
    1fc8:	fed72f23          	sw	a3,-2(a4)
    1fcc:	97c2                	c.add	a5,a6
    1fce:	0cf9075b          	lea.w	a4,s2,a5
    1fd2:	00072e03          	lw	t3,0(a4)
    1fd6:	4654                	c.lw	a3,12(a2)
    1fd8:	01c62623          	sw	t3,12(a2)
    1fdc:	1541                	c.addi	a0,-16
    1fde:	0641                	c.addi	a2,16
    1fe0:	0591                	c.addi	a1,4
    1fe2:	c314                	c.sw	a3,0(a4)
    1fe4:	f59ff06f          	j	1f3c <riscv_dsp_cfft_rd2_q15+0x264>
    1fe8:	f0078613          	addi	a2,a5,-256
    1fec:	40c286b3          	sub	a3,t0,a2
    1ff0:	02d05063          	blez	a3,2010 <riscv_dsp_cfft_rd2_q15+0x338>
    1ff4:	0adf86db          	lea.h	a3,t6,a3
    1ff8:	0006d683          	lhu	a3,0(a3)
    1ffc:	0acf865b          	lea.h	a2,t6,a2
    2000:	40d006b3          	neg	a3,a3
    2004:	00061603          	lh	a2,0(a2)
    2008:	3c06b6db          	bfos	a3,a3,15,0
    200c:	e71ff06f          	j	1e7c <riscv_dsp_cfft_rd2_q15+0x1a4>
    2010:	e0078793          	addi	a5,a5,-512
    2014:	0aff86db          	lea.h	a3,t6,a5
    2018:	0006d603          	lhu	a2,0(a3)
    201c:	40f287b3          	sub	a5,t0,a5
    2020:	0aff86db          	lea.h	a3,t6,a5
    2024:	40c00633          	neg	a2,a2
    2028:	00069683          	lh	a3,0(a3)
    202c:	3c06365b          	bfos	a2,a2,15,0
    2030:	e4f056e3          	blez	a5,1e7c <riscv_dsp_cfft_rd2_q15+0x1a4>
    2034:	40d007b3          	neg	a5,a3
    2038:	86b2                	c.mv	a3,a2
    203a:	3c07b65b          	bfos	a2,a5,15,0
    203e:	bd3d                	c.j	1e7c <riscv_dsp_cfft_rd2_q15+0x1a4>
    2040:	5432                	c.lwsp	s0,44(sp)
    2042:	54a2                	c.lwsp	s1,40(sp)
    2044:	5912                	c.lwsp	s2,36(sp)
    2046:	5982                	c.lwsp	s3,32(sp)
    2048:	4a72                	c.lwsp	s4,28(sp)
    204a:	4ae2                	c.lwsp	s5,24(sp)
    204c:	4b52                	c.lwsp	s6,20(sp)
    204e:	4bc2                	c.lwsp	s7,16(sp)
    2050:	4c32                	c.lwsp	s8,12(sp)
    2052:	4ca2                	c.lwsp	s9,8(sp)
    2054:	4501                	c.li	a0,0
    2056:	6145                	c.addi16sp	sp,48
    2058:	8082                	c.jr	ra
    205a:	0001                	c.nop

0000205c <riscv_dsp_cfft_rd4_q15>:
    205c:	715d                	c.addi16sp	sp,-80
    205e:	4785                	c.li	a5,1
    2060:	d26a                	c.swsp	s10,36(sp)
    2062:	00b79d33          	sll	s10,a5,a1
    2066:	ffed7693          	andi	a3,s10,-2
    206a:	c4a6                	c.swsp	s1,72(sp)
    206c:	0ad504db          	lea.h	s1,a0,a3
    2070:	c6a2                	c.swsp	s0,76(sp)
    2072:	00d50f33          	add	t5,a0,a3
    2076:	842a                	c.mv	s0,a0
    2078:	00d48833          	add	a6,s1,a3
    207c:	401c                	c.lw	a5,0(s0)
    207e:	000f2703          	lw	a4,0(t5)
    2082:	ca2e                	c.swsp	a1,20(sp)
    2084:	c22a                	c.swsp	a0,4(sp)
    2086:	00082583          	lw	a1,0(a6)
    208a:	4088                	c.lw	a0,0(s1)
    208c:	7017077f          	srai16	a4,a4,1
    2090:	701787ff          	srai16	a5,a5,1
    2094:	7015057f          	srai16	a0,a0,1
    2098:	701585ff          	srai16	a1,a1,1
    209c:	00a7867f          	radd16	a2,a5,a0
    20a0:	00b708ff          	radd16	a7,a4,a1
    20a4:	c2ca                	c.swsp	s2,68(sp)
    20a6:	c0ce                	c.swsp	s3,64(sp)
    20a8:	de52                	c.swsp	s4,60(sp)
    20aa:	dc56                	c.swsp	s5,56(sp)
    20ac:	da5a                	c.swsp	s6,52(sp)
    20ae:	d85e                	c.swsp	s7,48(sp)
    20b0:	d662                	c.swsp	s8,44(sp)
    20b2:	d466                	c.swsp	s9,40(sp)
    20b4:	d06e                	c.swsp	s11,32(sp)
    20b6:	0116037f          	radd16	t1,a2,a7
    20ba:	00642023          	sw	t1,0(s0)
    20be:	02a787ff          	rsub16	a5,a5,a0
    20c2:	02b7077f          	rsub16	a4,a4,a1
    20c6:	0316067f          	rsub16	a2,a2,a7
    20ca:	00cf2023          	sw	a2,0(t5)
    20ce:	06e7867f          	rcrsa16	a2,a5,a4
    20d2:	c090                	c.sw	a2,0(s1)
    20d4:	04e787ff          	rcras16	a5,a5,a4
    20d8:	0411                	c.addi	s0,4
    20da:	ce26                	c.swsp	s1,28(sp)
    20dc:	001d5493          	srli	s1,s10,0x1
    20e0:	cc6a                	c.swsp	s10,24(sp)
    20e2:	c622                	c.swsp	s0,12(sp)
    20e4:	00f82023          	sw	a5,0(a6)
    20e8:	c426                	c.swsp	s1,8(sp)
    20ea:	228f0b63          	beq	t5,s0,2320 <riscv_dsp_cfft_rd4_q15+0x2c4>
    20ee:	8622                	c.mv	a2,s0
    20f0:	4412                	c.lwsp	s0,4(sp)
    20f2:	4799                	c.li	a5,6
    20f4:	8822                	c.mv	a6,s0
    20f6:	c4f4987f          	maddr32	a6,s1,a5
    20fa:	00468893          	addi	a7,a3,4
    20fe:	44d2                	c.lwsp	s1,20(sp)
    2100:	0689                	c.addi	a3,2
    2102:	4e29                	c.li	t3,10
    2104:	0ad4055b          	lea.h	a0,s0,a3
    2108:	409e0e33          	sub	t3,t3,s1
    210c:	98a2                	c.add	a7,s0
    210e:	0811                	c.addi	a6,4
    2110:	4e8d                	c.li	t4,3
    2112:	4301                	c.li	t1,0
    2114:	a35f968b          	addigp	a3,-1484 # 80234 <riscv_dsp_cos_table_q15_1024+0x4>
    2118:	10000593          	li	a1,256
    211c:	0b00006f          	j	21cc <riscv_dsp_cfft_rd4_q15+0x170>
    2120:	0a5682db          	lea.h	t0,a3,t0
    2124:	0a9684db          	lea.h	s1,a3,s1
    2128:	00029403          	lh	s0,0(t0)
    212c:	00049283          	lh	t0,0(s1)
    2130:	0e8292ff          	pkbb16	t0,t0,s0
    2134:	385713ff          	kmda	t2,a4,t0
    2138:	7857177f          	smxds	a4,a4,t0
    213c:	01075713          	srli	a4,a4,0x10
    2140:	0103d293          	srli	t0,t2,0x10
    2144:	0e57177f          	pkbb16	a4,a4,t0
    2148:	01c312b3          	sll	t0,t1,t3
    214c:	00e8a023          	sw	a4,0(a7)
    2150:	405583b3          	sub	t2,a1,t0
    2154:	17f7877f          	kcrsa16	a4,a5,t6
    2158:	15f787ff          	kcras16	a5,a5,t6
    215c:	10705663          	blez	t2,2268 <riscv_dsp_cfft_rd4_q15+0x20c>
    2160:	0a5682db          	lea.h	t0,a3,t0
    2164:	0a7683db          	lea.h	t2,a3,t2
    2168:	00029403          	lh	s0,0(t0)
    216c:	00039f83          	lh	t6,0(t2)
    2170:	0e8f9fff          	pkbb16	t6,t6,s0
    2174:	39f712ff          	kmda	t0,a4,t6
    2178:	79f7177f          	smxds	a4,a4,t6
    217c:	8341                	c.srli	a4,0x10
    217e:	0102df93          	srli	t6,t0,0x10
    2182:	0ff7177f          	pkbb16	a4,a4,t6
    2186:	01ce9fb3          	sll	t6,t4,t3
    218a:	41f582b3          	sub	t0,a1,t6
    218e:	c118                	c.sw	a4,0(a0)
    2190:	0a505863          	blez	t0,2240 <riscv_dsp_cfft_rd4_q15+0x1e4>
    2194:	0bf68fdb          	lea.h	t6,a3,t6
    2198:	0a5682db          	lea.h	t0,a3,t0
    219c:	000f9383          	lh	t2,0(t6)
    21a0:	00029703          	lh	a4,0(t0)
    21a4:	0e77177f          	pkbb16	a4,a4,t2
    21a8:	38e79fff          	kmda	t6,a5,a4
    21ac:	78e797ff          	smxds	a5,a5,a4
    21b0:	83c1                	c.srli	a5,0x10
    21b2:	010fd713          	srli	a4,t6,0x10
    21b6:	0ee797ff          	pkbb16	a5,a5,a4
    21ba:	00f82023          	sw	a5,0(a6)
    21be:	0611                	c.addi	a2,4
    21c0:	0891                	c.addi	a7,4
    21c2:	0511                	c.addi	a0,4
    21c4:	0811                	c.addi	a6,4
    21c6:	0e8d                	c.addi	t4,3
    21c8:	14cf0c63          	beq	t5,a2,2320 <riscv_dsp_cfft_rd4_q15+0x2c4>
    21cc:	0008a403          	lw	s0,0(a7)
    21d0:	00052383          	lw	t2,0(a0)
    21d4:	00082f83          	lw	t6,0(a6)
    21d8:	421c                	c.lw	a5,0(a2)
    21da:	7014047f          	srai16	s0,s0,1
    21de:	701383ff          	srai16	t2,t2,1
    21e2:	701787ff          	srai16	a5,a5,1
    21e6:	701f8fff          	srai16	t6,t6,1
    21ea:	0305                	c.addi	t1,1
    21ec:	0077897f          	radd16	s2,a5,t2
    21f0:	01f4077f          	radd16	a4,s0,t6
    21f4:	00131293          	slli	t0,t1,0x1
    21f8:	00e909ff          	radd16	s3,s2,a4
    21fc:	01c292b3          	sll	t0,t0,t3
    2200:	405584b3          	sub	s1,a1,t0
    2204:	01362023          	sw	s3,0(a2)
    2208:	027787ff          	rsub16	a5,a5,t2
    220c:	03f40fff          	rsub16	t6,s0,t6
    2210:	12e9077f          	ksub16	a4,s2,a4
    2214:	f09046e3          	bgtz	s1,2120 <riscv_dsp_cfft_rd4_q15+0xc4>
    2218:	f0028393          	addi	t2,t0,-256
    221c:	40758433          	sub	s0,a1,t2
    2220:	06805863          	blez	s0,2290 <riscv_dsp_cfft_rd4_q15+0x234>
    2224:	0a86845b          	lea.h	s0,a3,s0
    2228:	00045403          	lhu	s0,0(s0)
    222c:	0a7683db          	lea.h	t2,a3,t2
    2230:	40800433          	neg	s0,s0
    2234:	00039283          	lh	t0,0(t2)
    2238:	3c04345b          	bfos	s0,s0,15,0
    223c:	ef5ff06f          	j	2130 <riscv_dsp_cfft_rd4_q15+0xd4>
    2240:	f00f8713          	addi	a4,t6,-256
    2244:	40e582b3          	sub	t0,a1,a4
    2248:	06505c63          	blez	t0,22c0 <riscv_dsp_cfft_rd4_q15+0x264>
    224c:	0a5682db          	lea.h	t0,a3,t0
    2250:	0002d383          	lhu	t2,0(t0)
    2254:	0ae6875b          	lea.h	a4,a3,a4
    2258:	407003b3          	neg	t2,t2
    225c:	00071703          	lh	a4,0(a4)
    2260:	3c03b3db          	bfos	t2,t2,15,0
    2264:	f41ff06f          	j	21a4 <riscv_dsp_cfft_rd4_q15+0x148>
    2268:	f0028f93          	addi	t6,t0,-256
    226c:	41f583b3          	sub	t2,a1,t6
    2270:	08705063          	blez	t2,22f0 <riscv_dsp_cfft_rd4_q15+0x294>
    2274:	0a7683db          	lea.h	t2,a3,t2
    2278:	0003d403          	lhu	s0,0(t2)
    227c:	0bf68fdb          	lea.h	t6,a3,t6
    2280:	40800433          	neg	s0,s0
    2284:	000f9f83          	lh	t6,0(t6)
    2288:	3c04345b          	bfos	s0,s0,15,0
    228c:	ee5ff06f          	j	2170 <riscv_dsp_cfft_rd4_q15+0x114>
    2290:	e0028493          	addi	s1,t0,-512
    2294:	0a9682db          	lea.h	t0,a3,s1
    2298:	0002d283          	lhu	t0,0(t0)
    229c:	409584b3          	sub	s1,a1,s1
    22a0:	0a96845b          	lea.h	s0,a3,s1
    22a4:	405003b3          	neg	t2,t0
    22a8:	00041403          	lh	s0,0(s0)
    22ac:	3c03b2db          	bfos	t0,t2,15,0
    22b0:	e89050e3          	blez	s1,2130 <riscv_dsp_cfft_rd4_q15+0xd4>
    22b4:	408003b3          	neg	t2,s0
    22b8:	8416                	c.mv	s0,t0
    22ba:	3c03b2db          	bfos	t0,t2,15,0
    22be:	bd8d                	c.j	2130 <riscv_dsp_cfft_rd4_q15+0xd4>
    22c0:	e00f8f93          	addi	t6,t6,-512
    22c4:	0bf6875b          	lea.h	a4,a3,t6
    22c8:	00075703          	lhu	a4,0(a4)
    22cc:	41f582b3          	sub	t0,a1,t6
    22d0:	0a5683db          	lea.h	t2,a3,t0
    22d4:	40e00fb3          	neg	t6,a4
    22d8:	00039383          	lh	t2,0(t2)
    22dc:	3c0fb75b          	bfos	a4,t6,15,0
    22e0:	ec5052e3          	blez	t0,21a4 <riscv_dsp_cfft_rd4_q15+0x148>
    22e4:	40700fb3          	neg	t6,t2
    22e8:	83ba                	c.mv	t2,a4
    22ea:	3c0fb75b          	bfos	a4,t6,15,0
    22ee:	bd5d                	c.j	21a4 <riscv_dsp_cfft_rd4_q15+0x148>
    22f0:	e0028293          	addi	t0,t0,-512
    22f4:	0a568fdb          	lea.h	t6,a3,t0
    22f8:	000fdf83          	lhu	t6,0(t6)
    22fc:	405583b3          	sub	t2,a1,t0
    2300:	0a76845b          	lea.h	s0,a3,t2
    2304:	41f002b3          	neg	t0,t6
    2308:	00041403          	lh	s0,0(s0)
    230c:	3c02bfdb          	bfos	t6,t0,15,0
    2310:	e67050e3          	blez	t2,2170 <riscv_dsp_cfft_rd4_q15+0x114>
    2314:	408002b3          	neg	t0,s0
    2318:	847e                	c.mv	s0,t6
    231a:	3c02bfdb          	bfos	t6,t0,15,0
    231e:	bd89                	c.j	2170 <riscv_dsp_cfft_rd4_q15+0x114>
    2320:	4452                	c.lwsp	s0,20(sp)
    2322:	4d22                	c.lwsp	s10,8(sp)
    2324:	00145793          	srli	a5,s0,0x1
    2328:	ffe78493          	addi	s1,a5,-2
    232c:	c826                	c.swsp	s1,16(sp)
    232e:	4b11                	c.li	s6,4
    2330:	1a048863          	beqz	s1,24e0 <riscv_dsp_cfft_rd4_q15+0x484>
    2334:	00a00b93          	li	s7,10
    2338:	408b8bb3          	sub	s7,s7,s0
    233c:	a35f998b          	addigp	s3,-1484 # 80234 <riscv_dsp_cos_table_q15_1024+0x4>
    2340:	10000a93          	li	s5,256
    2344:	4412                	c.lwsp	s0,4(sp)
    2346:	002d5d13          	srli	s10,s10,0x2
    234a:	001d1c93          	slli	s9,s10,0x1
    234e:	0ba40c5b          	lea.h	s8,s0,s10
    2352:	040b0d63          	beqz	s6,23ac <riscv_dsp_cfft_rd4_q15+0x350>
    2356:	8622                	c.mv	a2,s0
    2358:	003d1893          	slli	a7,s10,0x3
    235c:	019c0833          	add	a6,s8,s9
    2360:	8562                	c.mv	a0,s8
    2362:	0dac05db          	lea.w	a1,s8,s10
    2366:	835a                	c.mv	t1,s6
    2368:	4198                	c.lw	a4,0(a1)
    236a:	4114                	c.lw	a3,0(a0)
    236c:	421c                	c.lw	a5,0(a2)
    236e:	00082e83          	lw	t4,0(a6)
    2372:	00e68e7f          	radd16	t3,a3,a4
    2376:	02e686ff          	rsub16	a3,a3,a4
    237a:	01d7877f          	radd16	a4,a5,t4
    237e:	01c70f7f          	radd16	t5,a4,t3
    2382:	01e62023          	sw	t5,0(a2)
    2386:	03d787ff          	rsub16	a5,a5,t4
    238a:	03c7077f          	rsub16	a4,a4,t3
    238e:	c118                	c.sw	a4,0(a0)
    2390:	06d7877f          	rcrsa16	a4,a5,a3
    2394:	00e82023          	sw	a4,0(a6)
    2398:	04d787ff          	rcras16	a5,a5,a3
    239c:	c19c                	c.sw	a5,0(a1)
    239e:	137d                	c.addi	t1,-1
    23a0:	9646                	c.add	a2,a7
    23a2:	9846                	c.add	a6,a7
    23a4:	9546                	c.add	a0,a7
    23a6:	95c6                	c.add	a1,a7
    23a8:	fc0310e3          	bnez	t1,2368 <riscv_dsp_cfft_rd4_q15+0x30c>
    23ac:	4432                	c.lwsp	s0,12(sp)
    23ae:	13840363          	beq	s0,s8,24d4 <riscv_dsp_cfft_rd4_q15+0x478>
    23b2:	8922                	c.mv	s2,s0
    23b4:	4419                	c.li	s0,6
    23b6:	028d0db3          	mul	s11,s10,s0
    23ba:	003d1293          	slli	t0,s10,0x3
    23be:	002d1413          	slli	s0,s10,0x2
    23c2:	4a01                	c.li	s4,0
    23c4:	00812023          	sw	s0,0(sp)
    23c8:	016a0a33          	add	s4,s4,s6
    23cc:	017a17b3          	sll	a5,s4,s7
    23d0:	40fa8733          	sub	a4,s5,a5
    23d4:	28e05e63          	blez	a4,2670 <riscv_dsp_cfft_rd4_q15+0x614>
    23d8:	0af987db          	lea.h	a5,s3,a5
    23dc:	0ae9875b          	lea.h	a4,s3,a4
    23e0:	00079603          	lh	a2,0(a5)
    23e4:	00071683          	lh	a3,0(a4)
    23e8:	001a1793          	slli	a5,s4,0x1
    23ec:	01779733          	sll	a4,a5,s7
    23f0:	40ea85b3          	sub	a1,s5,a4
    23f4:	22b05063          	blez	a1,2614 <riscv_dsp_cfft_rd4_q15+0x5b8>
    23f8:	0ae9875b          	lea.h	a4,s3,a4
    23fc:	0ab9855b          	lea.h	a0,s3,a1
    2400:	00071583          	lh	a1,0(a4)
    2404:	00051703          	lh	a4,0(a0)
    2408:	014787b3          	add	a5,a5,s4
    240c:	017797b3          	sll	a5,a5,s7
    2410:	40fa8533          	sub	a0,s5,a5
    2414:	22a05a63          	blez	a0,2648 <riscv_dsp_cfft_rd4_q15+0x5ec>
    2418:	0af987db          	lea.h	a5,s3,a5
    241c:	0aa9855b          	lea.h	a0,s3,a0
    2420:	00079e03          	lh	t3,0(a5)
    2424:	00051503          	lh	a0,0(a0)
    2428:	0ec6987f          	pkbb16	a6,a3,a2
    242c:	0eb718ff          	pkbb16	a7,a4,a1
    2430:	0fc5137f          	pkbb16	t1,a0,t3
    2434:	080b0c63          	beqz	s6,24cc <riscv_dsp_cfft_rd4_q15+0x470>
    2438:	4402                	c.lwsp	s0,0(sp)
    243a:	012c8fb3          	add	t6,s9,s2
    243e:	00890f33          	add	t5,s2,s0
    2442:	01b90eb3          	add	t4,s2,s11
    2446:	8e4a                	c.mv	t3,s2
    2448:	01600433          	add	s0,zero,s6
    244c:	000ea683          	lw	a3,0(t4) # 10000 <BIN_SIZE+0xb578>
    2450:	000f2703          	lw	a4,0(t5)
    2454:	000fa603          	lw	a2,0(t6)
    2458:	000e2783          	lw	a5,0(t3)
    245c:	147d                	c.addi	s0,-1
    245e:	00d604ff          	radd16	s1,a2,a3
    2462:	00e7857f          	radd16	a0,a5,a4
    2466:	02d6067f          	rsub16	a2,a2,a3
    246a:	02e787ff          	rsub16	a5,a5,a4
    246e:	129506ff          	ksub16	a3,a0,s1
    2472:	16c7877f          	kcrsa16	a4,a5,a2
    2476:	391695ff          	kmda	a1,a3,a7
    247a:	14c787ff          	kcras16	a5,a5,a2
    247e:	791696ff          	smxds	a3,a3,a7
    2482:	3907167f          	kmda	a2,a4,a6
    2486:	386793ff          	kmda	t2,a5,t1
    248a:	0095057f          	radd16	a0,a0,s1
    248e:	82c1                	c.srli	a3,0x10
    2490:	81c1                	c.srli	a1,0x10
    2492:	7907177f          	smxds	a4,a4,a6
    2496:	00ae2023          	sw	a0,0(t3)
    249a:	0eb696ff          	pkbb16	a3,a3,a1
    249e:	8341                	c.srli	a4,0x10
    24a0:	8241                	c.srli	a2,0x10
    24a2:	786797ff          	smxds	a5,a5,t1
    24a6:	00dfa023          	sw	a3,0(t6)
    24aa:	0ec7177f          	pkbb16	a4,a4,a2
    24ae:	83c1                	c.srli	a5,0x10
    24b0:	0103d393          	srli	t2,t2,0x10
    24b4:	00ef2023          	sw	a4,0(t5)
    24b8:	0e7797ff          	pkbb16	a5,a5,t2
    24bc:	00fea023          	sw	a5,0(t4)
    24c0:	9e16                	c.add	t3,t0
    24c2:	9f96                	c.add	t6,t0
    24c4:	9f16                	c.add	t5,t0
    24c6:	9e96                	c.add	t4,t0
    24c8:	f80412e3          	bnez	s0,244c <riscv_dsp_cfft_rd4_q15+0x3f0>
    24cc:	00490913          	addi	s2,s2,4
    24d0:	ef2c1ce3          	bne	s8,s2,23c8 <riscv_dsp_cfft_rd4_q15+0x36c>
    24d4:	4442                	c.lwsp	s0,16(sp)
    24d6:	0b0a                	c.slli	s6,0x2
    24d8:	147d                	c.addi	s0,-1
    24da:	c822                	c.swsp	s0,16(sp)
    24dc:	e60414e3          	bnez	s0,2344 <riscv_dsp_cfft_rd4_q15+0x2e8>
    24e0:	4452                	c.lwsp	s0,20(sp)
    24e2:	4891                	c.li	a7,4
    24e4:	008898b3          	sll	a7,a7,s0
    24e8:	4412                	c.lwsp	s0,4(sp)
    24ea:	01140833          	add	a6,s0,a7
    24ee:	87a2                	c.mv	a5,s0
    24f0:	05040263          	beq	s0,a6,2534 <riscv_dsp_cfft_rd4_q15+0x4d8>
    24f4:	47d0                	c.lw	a2,12(a5)
    24f6:	4788                	c.lw	a0,8(a5)
    24f8:	43d4                	c.lw	a3,4(a5)
    24fa:	4398                	c.lw	a4,0(a5)
    24fc:	01078793          	addi	a5,a5,16
    2500:	00c685ff          	radd16	a1,a3,a2
    2504:	02c686ff          	rsub16	a3,a3,a2
    2508:	00a7067f          	radd16	a2,a4,a0
    250c:	02a7077f          	rsub16	a4,a4,a0
    2510:	00b6057f          	radd16	a0,a2,a1
    2514:	02b6067f          	rsub16	a2,a2,a1
    2518:	06d705ff          	rcrsa16	a1,a4,a3
    251c:	04d7077f          	rcras16	a4,a4,a3
    2520:	fea7a823          	sw	a0,-16(a5)
    2524:	fec7aa23          	sw	a2,-12(a5)
    2528:	feb7ac23          	sw	a1,-8(a5)
    252c:	fee7ae23          	sw	a4,-4(a5)
    2530:	fcf812e3          	bne	a6,a5,24f4 <riscv_dsp_cfft_rd4_q15+0x498>
    2534:	44f2                	c.lwsp	s1,28(sp)
    2536:	4412                	c.lwsp	s0,4(sp)
    2538:	409c                	c.lw	a5,0(s1)
    253a:	45e2                	c.lwsp	a1,24(sp)
    253c:	18f9                	c.addi	a7,-2
    253e:	4058                	c.lw	a4,4(s0)
    2540:	98a2                	c.add	a7,s0
    2542:	c05c                	c.sw	a5,4(s0)
    2544:	00840613          	addi	a2,s0,8
    2548:	47a2                	c.lwsp	a5,8(sp)
    254a:	4452                	c.lwsp	s0,20(sp)
    254c:	0025d813          	srli	a6,a1,0x2
    2550:	0107c333          	xor	t1,a5,a6
    2554:	fee88513          	addi	a0,a7,-18
    2558:	4591                	c.li	a1,4
    255a:	fff40e13          	addi	t3,s0,-1
    255e:	c098                	c.sw	a4,0(s1)
    2560:	00f347b3          	xor	a5,t1,a5
    2564:	00f87733          	and	a4,a6,a5
    2568:	eb01                	c.bnez	a4,2578 <riscv_dsp_cfft_rd4_q15+0x51c>
    256a:	8742                	c.mv	a4,a6
    256c:	8305                	c.srli	a4,0x1
    256e:	8fb9                	c.xor	a5,a4
    2570:	00f776b3          	and	a3,a4,a5
    2574:	fe068ce3          	beqz	a3,256c <riscv_dsp_cfft_rd4_q15+0x510>
    2578:	ffe58713          	addi	a4,a1,-2
    257c:	02f77863          	bgeu	a4,a5,25ac <riscv_dsp_cfft_rd4_q15+0x550>
    2580:	4412                	c.lwsp	s0,4(sp)
    2582:	00062e83          	lw	t4,0(a2)
    2586:	0cf406db          	lea.w	a3,s0,a5
    258a:	0006af03          	lw	t5,0(a3)
    258e:	40f00733          	neg	a4,a5
    2592:	01e62023          	sw	t5,0(a2)
    2596:	0ce8875b          	lea.w	a4,a7,a4
    259a:	01d6a023          	sw	t4,0(a3)
    259e:	ffe72e83          	lw	t4,-2(a4)
    25a2:	4514                	c.lw	a3,8(a0)
    25a4:	01d52423          	sw	t4,8(a0)
    25a8:	fed72f23          	sw	a3,-2(a4)
    25ac:	4422                	c.lwsp	s0,8(sp)
    25ae:	4492                	c.lwsp	s1,4(sp)
    25b0:	97a2                	c.add	a5,s0
    25b2:	0cf487db          	lea.w	a5,s1,a5
    25b6:	4394                	c.lw	a3,0(a5)
    25b8:	4258                	c.lw	a4,4(a2)
    25ba:	c254                	c.sw	a3,4(a2)
    25bc:	c398                	c.sw	a4,0(a5)
    25be:	1685f563          	bgeu	a1,s0,2728 <riscv_dsp_cfft_rd4_q15+0x6cc>
    25c2:	e7c587ff          	bitrev	a5,a1,t3
    25c6:	02f5f763          	bgeu	a1,a5,25f4 <riscv_dsp_cfft_rd4_q15+0x598>
    25ca:	0cf486db          	lea.w	a3,s1,a5
    25ce:	0006af03          	lw	t5,0(a3)
    25d2:	00862e83          	lw	t4,8(a2)
    25d6:	40f00733          	neg	a4,a5
    25da:	01e62423          	sw	t5,8(a2)
    25de:	0ce8875b          	lea.w	a4,a7,a4
    25e2:	01d6a023          	sw	t4,0(a3)
    25e6:	ffe72e83          	lw	t4,-2(a4)
    25ea:	4114                	c.lw	a3,0(a0)
    25ec:	01d52023          	sw	t4,0(a0)
    25f0:	fed72f23          	sw	a3,-2(a4)
    25f4:	4422                	c.lwsp	s0,8(sp)
    25f6:	4654                	c.lw	a3,12(a2)
    25f8:	97a2                	c.add	a5,s0
    25fa:	4412                	c.lwsp	s0,4(sp)
    25fc:	1541                	c.addi	a0,-16
    25fe:	0cf4075b          	lea.w	a4,s0,a5
    2602:	00072e83          	lw	t4,0(a4)
    2606:	0641                	c.addi	a2,16
    2608:	ffd62e23          	sw	t4,-4(a2)
    260c:	0591                	c.addi	a1,4
    260e:	c314                	c.sw	a3,0(a4)
    2610:	f51ff06f          	j	2560 <riscv_dsp_cfft_rd4_q15+0x504>
    2614:	f0070513          	addi	a0,a4,-256
    2618:	40aa85b3          	sub	a1,s5,a0
    261c:	06b05e63          	blez	a1,2698 <riscv_dsp_cfft_rd4_q15+0x63c>
    2620:	0ab985db          	lea.h	a1,s3,a1
    2624:	0005d583          	lhu	a1,0(a1)
    2628:	014787b3          	add	a5,a5,s4
    262c:	017797b3          	sll	a5,a5,s7
    2630:	0aa9875b          	lea.h	a4,s3,a0
    2634:	40b005b3          	neg	a1,a1
    2638:	40fa8533          	sub	a0,s5,a5
    263c:	00071703          	lh	a4,0(a4)
    2640:	3c05b5db          	bfos	a1,a1,15,0
    2644:	dca04ae3          	bgtz	a0,2418 <riscv_dsp_cfft_rd4_q15+0x3bc>
    2648:	f0078513          	addi	a0,a5,-256
    264c:	40aa8833          	sub	a6,s5,a0
    2650:	07005c63          	blez	a6,26c8 <riscv_dsp_cfft_rd4_q15+0x66c>
    2654:	0b09885b          	lea.h	a6,s3,a6
    2658:	00085e03          	lhu	t3,0(a6)
    265c:	0aa9855b          	lea.h	a0,s3,a0
    2660:	41c00e33          	neg	t3,t3
    2664:	00051503          	lh	a0,0(a0)
    2668:	3c0e3e5b          	bfos	t3,t3,15,0
    266c:	dbdff06f          	j	2428 <riscv_dsp_cfft_rd4_q15+0x3cc>
    2670:	f0078713          	addi	a4,a5,-256
    2674:	40ea86b3          	sub	a3,s5,a4
    2678:	08d05063          	blez	a3,26f8 <riscv_dsp_cfft_rd4_q15+0x69c>
    267c:	0ad986db          	lea.h	a3,s3,a3
    2680:	0006d603          	lhu	a2,0(a3)
    2684:	0ae9875b          	lea.h	a4,s3,a4
    2688:	40c00633          	neg	a2,a2
    268c:	00071683          	lh	a3,0(a4)
    2690:	3c06365b          	bfos	a2,a2,15,0
    2694:	d55ff06f          	j	23e8 <riscv_dsp_cfft_rd4_q15+0x38c>
    2698:	e0070713          	addi	a4,a4,-512
    269c:	0ae985db          	lea.h	a1,s3,a4
    26a0:	0005d583          	lhu	a1,0(a1)
    26a4:	40ea8533          	sub	a0,s5,a4
    26a8:	0aa9885b          	lea.h	a6,s3,a0
    26ac:	40b00733          	neg	a4,a1
    26b0:	3c07375b          	bfos	a4,a4,15,0
    26b4:	00081583          	lh	a1,0(a6)
    26b8:	d4a058e3          	blez	a0,2408 <riscv_dsp_cfft_rd4_q15+0x3ac>
    26bc:	40b00533          	neg	a0,a1
    26c0:	85ba                	c.mv	a1,a4
    26c2:	3c05375b          	bfos	a4,a0,15,0
    26c6:	b389                	c.j	2408 <riscv_dsp_cfft_rd4_q15+0x3ac>
    26c8:	e0078793          	addi	a5,a5,-512
    26cc:	0af9855b          	lea.h	a0,s3,a5
    26d0:	00055503          	lhu	a0,0(a0)
    26d4:	40fa87b3          	sub	a5,s5,a5
    26d8:	0af9885b          	lea.h	a6,s3,a5
    26dc:	40a00533          	neg	a0,a0
    26e0:	00081e03          	lh	t3,0(a6)
    26e4:	3c05355b          	bfos	a0,a0,15,0
    26e8:	d4f050e3          	blez	a5,2428 <riscv_dsp_cfft_rd4_q15+0x3cc>
    26ec:	41c007b3          	neg	a5,t3
    26f0:	8e2a                	c.mv	t3,a0
    26f2:	3c07b55b          	bfos	a0,a5,15,0
    26f6:	bb0d                	c.j	2428 <riscv_dsp_cfft_rd4_q15+0x3cc>
    26f8:	e0078793          	addi	a5,a5,-512
    26fc:	0af9875b          	lea.h	a4,s3,a5
    2700:	00075683          	lhu	a3,0(a4)
    2704:	40fa87b3          	sub	a5,s5,a5
    2708:	0af9875b          	lea.h	a4,s3,a5
    270c:	40d006b3          	neg	a3,a3
    2710:	00071603          	lh	a2,0(a4)
    2714:	3c06b6db          	bfos	a3,a3,15,0
    2718:	ccf058e3          	blez	a5,23e8 <riscv_dsp_cfft_rd4_q15+0x38c>
    271c:	40c007b3          	neg	a5,a2
    2720:	8636                	c.mv	a2,a3
    2722:	3c07b6db          	bfos	a3,a5,15,0
    2726:	b1c9                	c.j	23e8 <riscv_dsp_cfft_rd4_q15+0x38c>
    2728:	4436                	c.lwsp	s0,76(sp)
    272a:	44a6                	c.lwsp	s1,72(sp)
    272c:	4916                	c.lwsp	s2,68(sp)
    272e:	4986                	c.lwsp	s3,64(sp)
    2730:	5a72                	c.lwsp	s4,60(sp)
    2732:	5ae2                	c.lwsp	s5,56(sp)
    2734:	5b52                	c.lwsp	s6,52(sp)
    2736:	5bc2                	c.lwsp	s7,48(sp)
    2738:	5c32                	c.lwsp	s8,44(sp)
    273a:	5ca2                	c.lwsp	s9,40(sp)
    273c:	5d12                	c.lwsp	s10,36(sp)
    273e:	5d82                	c.lwsp	s11,32(sp)
    2740:	4501                	c.li	a0,0
    2742:	6161                	c.addi16sp	sp,80
    2744:	8082                	c.jr	ra
    2746:	0001                	c.nop

00002748 <riscv_dsp_cmag_q15>:
    2748:	7179                	c.addi16sp	sp,-48
    274a:	ce4e                	c.swsp	s3,28(sp)
    274c:	cc52                	c.swsp	s4,24(sp)
    274e:	ca56                	c.swsp	s5,20(sp)
    2750:	4785                	c.li	a5,1
    2752:	d606                	c.swsp	ra,44(sp)
    2754:	d422                	c.swsp	s0,40(sp)
    2756:	d226                	c.swsp	s1,36(sp)
    2758:	d04a                	c.swsp	s2,32(sp)
    275a:	c85a                	c.swsp	s6,16(sp)
    275c:	c65e                	c.swsp	s7,12(sp)
    275e:	c462                	c.swsp	s8,8(sp)
    2760:	89b2                	c.mv	s3,a2
    2762:	8aaa                	c.mv	s5,a0
    2764:	8a2e                	c.mv	s4,a1
    2766:	04c7f963          	bgeu	a5,a2,27b8 <riscv_dsp_cmag_q15+0x70>
    276a:	8c32                	c.mv	s8,a2
    276c:	8bae                	c.mv	s7,a1
    276e:	8b2a                	c.mv	s6,a0
    2770:	00100913          	li	s2,1
    2774:	000b2503          	lw	a0,0(s6)
    2778:	004b2403          	lw	s0,4(s6)
    277c:	1c79                	c.addi	s8,-2
    277e:	38a5157f          	kmda	a0,a0,a0
    2782:	3884147f          	kmda	s0,s0,s0
    2786:	8545                	c.srai	a0,0x11
    2788:	060000ef          	jal	ra,27e8 <riscv_dsp_sqrt_q15>
    278c:	84aa                	c.mv	s1,a0
    278e:	41145513          	srai	a0,s0,0x11
    2792:	2899                	c.jal	27e8 <riscv_dsp_sqrt_q15>
    2794:	0e9517ff          	pkbb16	a5,a0,s1
    2798:	00fba023          	sw	a5,0(s7)
    279c:	0b21                	c.addi	s6,8
    279e:	0b91                	c.addi	s7,4
    27a0:	fd896ae3          	bltu	s2,s8,2774 <riscv_dsp_cmag_q15+0x2c>
    27a4:	ffe98793          	addi	a5,s3,-2
    27a8:	8385                	c.srli	a5,0x1
    27aa:	0785                	c.addi	a5,1
    27ac:	0efa8adb          	lea.d	s5,s5,a5
    27b0:	0cfa0a5b          	lea.w	s4,s4,a5
    27b4:	0019f993          	andi	s3,s3,1
    27b8:	00099e63          	bnez	s3,27d4 <riscv_dsp_cmag_q15+0x8c>
    27bc:	50b2                	c.lwsp	ra,44(sp)
    27be:	5422                	c.lwsp	s0,40(sp)
    27c0:	5492                	c.lwsp	s1,36(sp)
    27c2:	5902                	c.lwsp	s2,32(sp)
    27c4:	49f2                	c.lwsp	s3,28(sp)
    27c6:	4a62                	c.lwsp	s4,24(sp)
    27c8:	4ad2                	c.lwsp	s5,20(sp)
    27ca:	4b42                	c.lwsp	s6,16(sp)
    27cc:	4bb2                	c.lwsp	s7,12(sp)
    27ce:	4c22                	c.lwsp	s8,8(sp)
    27d0:	6145                	c.addi16sp	sp,48
    27d2:	8082                	c.jr	ra
    27d4:	000aa503          	lw	a0,0(s5)
    27d8:	38a5157f          	kmda	a0,a0,a0
    27dc:	8545                	c.srai	a0,0x11
    27de:	2029                	c.jal	27e8 <riscv_dsp_sqrt_q15>
    27e0:	00aa1023          	sh	a0,0(s4)
    27e4:	bfe1                	c.j	27bc <riscv_dsp_cmag_q15+0x74>
    27e6:	0001                	c.nop

000027e8 <riscv_dsp_sqrt_q15>:
    27e8:	0aa05063          	blez	a0,2888 <riscv_dsp_sqrt_q15+0xa0>
    27ec:	af9505ff          	clz32	a1,a0
    27f0:	ff058293          	addi	t0,a1,-16
    27f4:	ffe2f313          	andi	t1,t0,-2
    27f8:	00651733          	sll	a4,a0,t1
    27fc:	66f9                	c.lui	a3,0x1e
    27fe:	46f7795b          	bbs	a4,15,2870 <riscv_dsp_sqrt_q15+0x88>
    2802:	7ae68793          	addi	a5,a3,1966 # 1e7ae <BIN_SIZE+0x19d26>
    2806:	00171393          	slli	t2,a4,0x1
    280a:	6611                	c.lui	a2,0x4
    280c:	40778833          	sub	a6,a5,t2
    2810:	2fa60893          	addi	a7,a2,762 # 42fa <__riscv_restore_0+0x5a>
    2814:	03180e33          	mul	t3,a6,a7
    2818:	40fe5e93          	srai	t4,t3,0xf
    281c:	40175693          	srai	a3,a4,0x1
    2820:	03d683b3          	mul	t2,a3,t4
    2824:	67b1                	c.lui	a5,0xc
    2826:	00135313          	srli	t1,t1,0x1
    282a:	40f3d613          	srai	a2,t2,0xf
    282e:	03d60833          	mul	a6,a2,t4
    2832:	40f85893          	srai	a7,a6,0xf
    2836:	41178e33          	sub	t3,a5,a7
    283a:	03de0eb3          	mul	t4,t3,t4
    283e:	40fedf13          	srai	t5,t4,0xf
    2842:	03e68fb3          	mul	t6,a3,t5
    2846:	40ffd593          	srai	a1,t6,0xf
    284a:	03e58533          	mul	a0,a1,t5
    284e:	40f55293          	srai	t0,a0,0xf
    2852:	405786b3          	sub	a3,a5,t0
    2856:	03e683b3          	mul	t2,a3,t5
    285a:	40f3d793          	srai	a5,t2,0xf
    285e:	02e78733          	mul	a4,a5,a4
    2862:	40f75613          	srai	a2,a4,0xf
    2866:	40665333          	sra	t1,a2,t1
    286a:	3c03355b          	bfos	a0,t1,15,0
    286e:	8082                	c.jr	ra
    2870:	7ae68f13          	addi	t5,a3,1966
    2874:	6f8d                	c.lui	t6,0x3
    2876:	40ef05b3          	sub	a1,t5,a4
    287a:	f5cf8513          	addi	a0,t6,-164 # 2f5c <__muldf3+0x3f8>
    287e:	02a582b3          	mul	t0,a1,a0
    2882:	40f2de93          	srai	t4,t0,0xf
    2886:	bf59                	c.j	281c <riscv_dsp_sqrt_q15+0x34>
    2888:	00a03533          	snez	a0,a0
    288c:	40a00533          	neg	a0,a0
    2890:	8082                	c.jr	ra
    2892:	0001                	c.nop

00002894 <sinf>:
    2894:	3f4917b7          	lui	a5,0x3f491
    2898:	fda78793          	addi	a5,a5,-38 # 3f490fda <_DATA_LMA_START+0x1f48cae2>
    289c:	e00505d3          	fmv.x.w	a1,fa0
    28a0:	7805a75b          	bfoz	a4,a1,30,0
    28a4:	02e7ee63          	bltu	a5,a4,28e0 <sinf+0x4c>
    28a8:	398007b7          	lui	a5,0x39800
    28ac:	10f76063          	bltu	a4,a5,29ac <sinf+0x118>
    28b0:	10a577d3          	fmul.s	fa5,fa0,fa0
    28b4:	801f978b          	addigp	a5,-2048 # 80000 <cst_libm_sincosf>
    28b8:	20a505d3          	fmv.s	fa1,fa0
    28bc:	6788                	c.flw	fa0,8(a5)
    28be:	63d4                	c.flw	fa3,4(a5)
    28c0:	6398                	c.flw	fa4,0(a5)
    28c2:	10a7f553          	fmul.s	fa0,fa5,fa0
    28c6:	00d57553          	fadd.s	fa0,fa0,fa3
    28ca:	10f57553          	fmul.s	fa0,fa0,fa5
    28ce:	00e57553          	fadd.s	fa0,fa0,fa4
    28d2:	10f57553          	fmul.s	fa0,fa0,fa5
    28d6:	10b57553          	fmul.s	fa0,fa0,fa1
    28da:	00a5f553          	fadd.s	fa0,fa1,fa0
    28de:	8082                	c.jr	ra
    28e0:	1101                	c.addi	sp,-32
    28e2:	464917b7          	lui	a5,0x46491
    28e6:	e4878793          	addi	a5,a5,-440 # 46490e48 <_DATA_LMA_START+0x2648c950>
    28ea:	ce06                	c.swsp	ra,28(sp)
    28ec:	0ee7e863          	bltu	a5,a4,29dc <sinf+0x148>
    28f0:	c55f978b          	addigp	a5,-940 # 80454 <cst_libm_rredf>
    28f4:	6398                	c.flw	fa4,0(a5)
    28f6:	00080737          	lui	a4,0x80
    28fa:	43c72587          	flw	fa1,1084(a4) # 8043c <riscv_dsp_cos_table_q15_1024+0x20c>
    28fe:	10e577d3          	fmul.s	fa5,fa0,fa4
    2902:	6798                	c.flw	fa4,8(a5)
    2904:	67d0                	c.flw	fa2,12(a5)
    2906:	6b94                	c.flw	fa3,16(a5)
    2908:	6bc8                	c.flw	fa0,20(a5)
    290a:	00b7f7d3          	fadd.s	fa5,fa5,fa1
    290e:	08b7f7d3          	fsub.s	fa5,fa5,fa1
    2912:	f00585d3          	fmv.w.x	fa1,a1
    2916:	10e7f753          	fmul.s	fa4,fa5,fa4
    291a:	10c7f653          	fmul.s	fa2,fa5,fa2
    291e:	10d7f6d3          	fmul.s	fa3,fa5,fa3
    2922:	08e5f753          	fsub.s	fa4,fa1,fa4
    2926:	c0079753          	fcvt.w.s	a4,fa5,rtz
    292a:	08c77753          	fsub.s	fa4,fa4,fa2
    292e:	10a7f7d3          	fmul.s	fa5,fa5,fa0
    2932:	00177793          	andi	a5,a4,1
    2936:	8b09                	c.andi	a4,2
    2938:	08d77753          	fsub.s	fa4,fa4,fa3
    293c:	08f77653          	fsub.s	fa2,fa4,fa5
    2940:	e00605d3          	fmv.x.w	a1,fa2
    2944:	f0058653          	fmv.w.x	fa2,a1
    2948:	10c67753          	fmul.s	fa4,fa2,fa2
    294c:	02078c63          	beqz	a5,2984 <sinf+0xf0>
    2950:	801f978b          	addigp	a5,-2048 # 80000 <cst_libm_sincosf>
    2954:	6f9c                	c.flw	fa5,24(a5)
    2956:	6bc8                	c.flw	fa0,20(a5)
    2958:	6b90                	c.flw	fa2,16(a5)
    295a:	10f777d3          	fmul.s	fa5,fa4,fa5
    295e:	67d4                	c.flw	fa3,12(a5)
    2960:	00a7f553          	fadd.s	fa0,fa5,fa0
    2964:	10e57553          	fmul.s	fa0,fa0,fa4
    2968:	00c57553          	fadd.s	fa0,fa0,fa2
    296c:	10e57553          	fmul.s	fa0,fa0,fa4
    2970:	00d57553          	fadd.s	fa0,fa0,fa3
    2974:	00070463          	beqz	a4,297c <sinf+0xe8>
    2978:	20a51553          	fneg.s	fa0,fa0
    297c:	40f2                	c.lwsp	ra,28(sp)
    297e:	6105                	c.addi16sp	sp,32
    2980:	00008067          	ret
    2984:	801f978b          	addigp	a5,-2048 # 80000 <cst_libm_sincosf>
    2988:	679c                	c.flw	fa5,8(a5)
    298a:	63c8                	c.flw	fa0,4(a5)
    298c:	6394                	c.flw	fa3,0(a5)
    298e:	10f777d3          	fmul.s	fa5,fa4,fa5
    2992:	00a7f553          	fadd.s	fa0,fa5,fa0
    2996:	10e57553          	fmul.s	fa0,fa0,fa4
    299a:	00d57553          	fadd.s	fa0,fa0,fa3
    299e:	f00586d3          	fmv.w.x	fa3,a1
    29a2:	10e57553          	fmul.s	fa0,fa0,fa4
    29a6:	10c57553          	fmul.s	fa0,fa0,fa2
    29aa:	b7d9                	c.j	2970 <sinf+0xdc>
    29ac:	00159693          	slli	a3,a1,0x1
    29b0:	ff0007b7          	lui	a5,0xff000
    29b4:	02f6e263          	bltu	a3,a5,29d8 <sinf+0x144>
    29b8:	00f68663          	beq	a3,a5,29c4 <sinf+0x130>
    29bc:	00a57553          	fadd.s	fa0,fa0,fa0
    29c0:	00008067          	ret
    29c4:	02100713          	li	a4,33
    29c8:	f0000553          	fmv.w.x	fa0,zero
    29cc:	18a57553          	fdiv.s	fa0,fa0,fa0
    29d0:	d8efc7ab          	swgp	a4,-628 # 8058c <__mculib_REENT_errno>
    29d4:	00008067          	ret
    29d8:	00008067          	ret
    29dc:	0068                	c.addi4spn	a0,sp,12
    29de:	283d                	c.jal	2a1c <ref__mathlib_rredf2>
    29e0:	4732                	c.lwsp	a4,12(sp)
    29e2:	e00505d3          	fmv.x.w	a1,fa0
    29e6:	02075763          	bgez	a4,2a14 <sinf+0x180>
    29ea:	00159693          	slli	a3,a1,0x1
    29ee:	ff0007b7          	lui	a5,0xff000
    29f2:	f8f6e5e3          	bltu	a3,a5,297c <sinf+0xe8>
    29f6:	00f68563          	beq	a3,a5,2a00 <sinf+0x16c>
    29fa:	00a57553          	fadd.s	fa0,fa0,fa0
    29fe:	bfbd                	c.j	297c <sinf+0xe8>
    2a00:	f0000553          	fmv.w.x	fa0,zero
    2a04:	02100713          	li	a4,33
    2a08:	18a57553          	fdiv.s	fa0,fa0,fa0
    2a0c:	d8efc7ab          	swgp	a4,-628 # 8058c <__mculib_REENT_errno>
    2a10:	f6dff06f          	j	297c <sinf+0xe8>
    2a14:	00177793          	andi	a5,a4,1
    2a18:	8b09                	c.andi	a4,2
    2a1a:	b72d                	c.j	2944 <sinf+0xb0>

00002a1c <ref__mathlib_rredf2>:
    2a1c:	00159713          	slli	a4,a1,0x1
    2a20:	ff0007b7          	lui	a5,0xff000
    2a24:	12f77c63          	bgeu	a4,a5,2b5c <ref__mathlib_rredf2+0x140>
    2a28:	7975a7db          	bfoz	a5,a1,30,23
    2a2c:	f8878793          	addi	a5,a5,-120 # feffff88 <_DATA_LMA_START+0xdeffba90>
    2a30:	4057d613          	srai	a2,a5,0x5
    2a34:	c6df968b          	addigp	a3,-916 # 8046c <twooverpi.0>
    2a38:	0cc688db          	lea.w	a7,a3,a2
    2a3c:	0008a303          	lw	t1,0(a7)
    2a40:	0048a703          	lw	a4,4(a7)
    2a44:	0088a803          	lw	a6,8(a7)
    2a48:	00859e13          	slli	t3,a1,0x8
    2a4c:	800008b7          	lui	a7,0x80000
    2a50:	8bfd                	c.andi	a5,31
    2a52:	011e6e33          	or	t3,t3,a7
    2a56:	cb8d                	c.beqz	a5,2a88 <ref__mathlib_rredf2+0x6c>
    2a58:	0cc686db          	lea.w	a3,a3,a2
    2a5c:	46d0                	c.lw	a2,12(a3)
    2a5e:	02000693          	li	a3,32
    2a62:	8e9d                	c.sub	a3,a5
    2a64:	00d75eb3          	srl	t4,a4,a3
    2a68:	00d858b3          	srl	a7,a6,a3
    2a6c:	00f31333          	sll	t1,t1,a5
    2a70:	00f71733          	sll	a4,a4,a5
    2a74:	00f81833          	sll	a6,a6,a5
    2a78:	00d656b3          	srl	a3,a2,a3
    2a7c:	006ee333          	or	t1,t4,t1
    2a80:	00e8e733          	or	a4,a7,a4
    2a84:	0106e833          	or	a6,a3,a6
    2a88:	f0ee167f          	mulr64	a2,t3,a4
    2a8c:	f10e187f          	mulr64	a6,t3,a6
    2a90:	f1c3137f          	mulr64	t1,t1,t3
    2a94:	00c88e33          	add	t3,a7,a2
    2a98:	006687b3          	add	a5,a3,t1
    2a9c:	011e3733          	sltu	a4,t3,a7
    2aa0:	00e787b3          	add	a5,a5,a4
    2aa4:	0b1e6663          	bltu	t3,a7,2b50 <ref__mathlib_rredf2+0x134>
    2aa8:	00d7b733          	sltu	a4,a5,a3
    2aac:	00d79693          	slli	a3,a5,0xd
    2ab0:	971e                	c.add	a4,t2
    2ab2:	83cd                	c.srli	a5,0x13
    2ab4:	d016f553          	fcvt.s.wu	fa0,a3
    2ab8:	07b6                	c.slli	a5,0xd
    2aba:	01a71693          	slli	a3,a4,0x1a
    2abe:	8fd5                	c.or	a5,a3
    2ac0:	d007f6d3          	fcvt.s.w	fa3,a5
    2ac4:	000807b7          	lui	a5,0x80
    2ac8:	4407a707          	flw	fa4,1088(a5) # 80440 <riscv_dsp_cos_table_q15_1024+0x210>
    2acc:	d01e77d3          	fcvt.s.wu	fa5,t3
    2ad0:	000807b7          	lui	a5,0x80
    2ad4:	6685                	c.lui	a3,0x1
    2ad6:	10e57553          	fmul.s	fa0,fa0,fa4
    2ada:	4447a707          	flw	fa4,1092(a5) # 80444 <riscv_dsp_cos_table_q15_1024+0x214>
    2ade:	80068693          	addi	a3,a3,-2048 # 800 <analog_read_reg8+0x8>
    2ae2:	02070713          	addi	a4,a4,32
    2ae6:	10e7f7d3          	fmul.s	fa5,fa5,fa4
    2aea:	8319                	c.srli	a4,0x6
    2aec:	00a6f753          	fadd.s	fa4,fa3,fa0
    2af0:	00f775d3          	fadd.s	fa1,fa4,fa5
    2af4:	e00587d3          	fmv.x.w	a5,fa1
    2af8:	97b6                	c.add	a5,a3
    2afa:	76fd                	c.lui	a3,0xfffff
    2afc:	00d7f7b3          	and	a5,a5,a3
    2b00:	f00785d3          	fmv.w.x	fa1,a5
    2b04:	08d5f6d3          	fsub.s	fa3,fa1,fa3
    2b08:	000806b7          	lui	a3,0x80
    2b0c:	000807b7          	lui	a5,0x80
    2b10:	44c6a607          	flw	fa2,1100(a3) # 8044c <riscv_dsp_cos_table_q15_1024+0x21c>
    2b14:	000806b7          	lui	a3,0x80
    2b18:	08a6f553          	fsub.s	fa0,fa3,fa0
    2b1c:	4506a707          	flw	fa4,1104(a3) # 80450 <riscv_dsp_cos_table_q15_1024+0x220>
    2b20:	10b67653          	fmul.s	fa2,fa2,fa1
    2b24:	10b77753          	fmul.s	fa4,fa4,fa1
    2b28:	08a7f7d3          	fsub.s	fa5,fa5,fa0
    2b2c:	4487a507          	flw	fa0,1096(a5) # 80448 <riscv_dsp_cos_table_q15_1024+0x218>
    2b30:	10a7f553          	fmul.s	fa0,fa5,fa0
    2b34:	00c57553          	fadd.s	fa0,fa0,fa2
    2b38:	00e57553          	fadd.s	fa0,fa0,fa4
    2b3c:	0005d863          	bgez	a1,2b4c <ref__mathlib_rredf2+0x130>
    2b40:	20a51553          	fneg.s	fa0,fa0
    2b44:	100007b7          	lui	a5,0x10000
    2b48:	40e78733          	sub	a4,a5,a4
    2b4c:	c118                	c.sw	a4,0(a0)
    2b4e:	8082                	c.jr	ra
    2b50:	00f6b733          	sltu	a4,a3,a5
    2b54:	00174713          	xori	a4,a4,1
    2b58:	f55ff06f          	j	2aac <ref__mathlib_rredf2+0x90>
    2b5c:	57fd                	c.li	a5,-1
    2b5e:	c11c                	c.sw	a5,0(a0)
    2b60:	8082                	c.jr	ra
    2b62:	0001                	c.nop

00002b64 <__muldf3>:
    2b64:	1101                	c.addi	sp,-32
    2b66:	ce22                	c.swsp	s0,28(sp)
    2b68:	cc26                	c.swsp	s1,24(sp)
    2b6a:	ca4a                	c.swsp	s2,20(sp)
    2b6c:	c84e                	c.swsp	s3,16(sp)
    2b6e:	c652                	c.swsp	s4,12(sp)
    2b70:	c456                	c.swsp	s5,8(sp)
    2b72:	c25a                	c.swsp	s6,4(sp)
    2b74:	00202373          	frrm	t1
    2b78:	7945a75b          	bfoz	a4,a1,30,20
    2b7c:	4c05a7db          	bfoz	a5,a1,19,0
    2b80:	81fd                	c.srli	a1,0x1f
    2b82:	10070963          	beqz	a4,2c94 <__muldf3+0x130>
    2b86:	7ff00813          	li	a6,2047
    2b8a:	07070963          	beq	a4,a6,2bfc <__muldf3+0x98>
    2b8e:	00800837          	lui	a6,0x800
    2b92:	078e                	c.slli	a5,0x3
    2b94:	01d55293          	srli	t0,a0,0x1d
    2b98:	0107e7b3          	or	a5,a5,a6
    2b9c:	c0170e13          	addi	t3,a4,-1023
    2ba0:	00f2e2b3          	or	t0,t0,a5
    2ba4:	050e                	c.slli	a0,0x3
    2ba6:	4701                	c.li	a4,0
    2ba8:	4381                	c.li	t2,0
    2baa:	4801                	c.li	a6,0
    2bac:	7946a8db          	bfoz	a7,a3,30,20
    2bb0:	4c06a7db          	bfoz	a5,a3,19,0
    2bb4:	01f6d693          	srli	a3,a3,0x1f
    2bb8:	12088a63          	beqz	a7,2cec <__muldf3+0x188>
    2bbc:	7ff00e93          	li	t4,2047
    2bc0:	17d88a63          	beq	a7,t4,2d34 <__muldf3+0x1d0>
    2bc4:	00800f37          	lui	t5,0x800
    2bc8:	078e                	c.slli	a5,0x3
    2bca:	01d65e93          	srli	t4,a2,0x1d
    2bce:	01e7e7b3          	or	a5,a5,t5
    2bd2:	c0188893          	addi	a7,a7,-1023 # 7ffffc01 <_DATA_LMA_START+0x5fffb709>
    2bd6:	00fee7b3          	or	a5,t4,a5
    2bda:	060e                	c.slli	a2,0x3
    2bdc:	9e46                	c.add	t3,a7
    2bde:	4f01                	c.li	t5,0
    2be0:	48bd                	c.li	a7,15
    2be2:	00d5ceb3          	xor	t4,a1,a3
    2be6:	001e0f93          	addi	t6,t3,1
    2bea:	16e8e363          	bltu	a7,a4,2d50 <__muldf3+0x1ec>
    2bee:	c8df988b          	addigp	a7,-884 # 8048c <twooverpi.0+0x20>
    2bf2:	0ce8875b          	lea.w	a4,a7,a4
    2bf6:	4318                	c.lw	a4,0(a4)
    2bf8:	00070067          	jr	a4
    2bfc:	00a7e2b3          	or	t0,a5,a0
    2c00:	32028263          	beqz	t0,2f24 <__muldf3+0x3c0>
    2c04:	0137d713          	srli	a4,a5,0x13
    2c08:	82be                	c.mv	t0,a5
    2c0a:	46070563          	beqz	a4,3074 <__muldf3+0x510>
    2c0e:	4731                	c.li	a4,12
    2c10:	7ff00e13          	li	t3,2047
    2c14:	438d                	c.li	t2,3
    2c16:	4801                	c.li	a6,0
    2c18:	f95ff06f          	j	2bac <__muldf3+0x48>
    2c1c:	00d00eb3          	add	t4,zero,a3
    2c20:	062f605b          	bnec	t5,2,2c80 <__muldf3+0x11c>
    2c24:	88f6                	c.mv	a7,t4
    2c26:	7ff00713          	li	a4,2047
    2c2a:	4781                	c.li	a5,0
    2c2c:	00000613          	li	a2,0
    2c30:	4581                	c.li	a1,0
    2c32:	fff006b7          	lui	a3,0xfff00
    2c36:	8eed                	c.and	a3,a1
    2c38:	4c07a7db          	bfoz	a5,a5,19,0
    2c3c:	8fd5                	c.or	a5,a3
    2c3e:	01471693          	slli	a3,a4,0x14
    2c42:	80100737          	lui	a4,0x80100
    2c46:	177d                	c.addi	a4,-1
    2c48:	8f7d                	c.and	a4,a5
    2c4a:	8f55                	c.or	a4,a3
    2c4c:	08fe                	c.slli	a7,0x1f
    2c4e:	7807275b          	bfoz	a4,a4,30,0
    2c52:	8532                	c.mv	a0,a2
    2c54:	011765b3          	or	a1,a4,a7
    2c58:	3e081e63          	bnez	a6,3054 <__muldf3+0x4f0>
    2c5c:	4472                	c.lwsp	s0,28(sp)
    2c5e:	44e2                	c.lwsp	s1,24(sp)
    2c60:	4952                	c.lwsp	s2,20(sp)
    2c62:	49c2                	c.lwsp	s3,16(sp)
    2c64:	4a32                	c.lwsp	s4,12(sp)
    2c66:	4aa2                	c.lwsp	s5,8(sp)
    2c68:	4b12                	c.lwsp	s6,4(sp)
    2c6a:	6105                	c.addi16sp	sp,32
    2c6c:	00008067          	ret
    2c70:	00b00eb3          	add	t4,zero,a1
    2c74:	8f1e                	c.mv	t5,t2
    2c76:	8796                	c.mv	a5,t0
    2c78:	00a00633          	add	a2,zero,a0
    2c7c:	ba2f545b          	beqc	t5,2,2c24 <__muldf3+0xc0>
    2c80:	363f525b          	beqc	t5,3,2fe4 <__muldf3+0x480>
    2c84:	221f685b          	bnec	t5,1,2eb4 <__muldf3+0x350>
    2c88:	88f6                	c.mv	a7,t4
    2c8a:	4701                	c.li	a4,0
    2c8c:	4781                	c.li	a5,0
    2c8e:	4601                	c.li	a2,0
    2c90:	fa1ff06f          	j	2c30 <__muldf3+0xcc>
    2c94:	00a7e2b3          	or	t0,a5,a0
    2c98:	28028063          	beqz	t0,2f18 <__muldf3+0x3b4>
    2c9c:	af97877f          	clz32	a4,a5
    2ca0:	00079663          	bnez	a5,2cac <__muldf3+0x148>
    2ca4:	af95077f          	clz32	a4,a0
    2ca8:	02070713          	addi	a4,a4,32 # 80100020 <_DATA_LMA_START+0x600fbb28>
    2cac:	ff570893          	addi	a7,a4,-11
    2cb0:	4871                	c.li	a6,28
    2cb2:	3b184b63          	blt	a6,a7,3068 <__muldf3+0x504>
    2cb6:	42f5                	c.li	t0,29
    2cb8:	ff870813          	addi	a6,a4,-8
    2cbc:	411282b3          	sub	t0,t0,a7
    2cc0:	005552b3          	srl	t0,a0,t0
    2cc4:	010797b3          	sll	a5,a5,a6
    2cc8:	00f2e2b3          	or	t0,t0,a5
    2ccc:	01051533          	sll	a0,a0,a6
    2cd0:	c0d00e13          	li	t3,-1011
    2cd4:	7946a8db          	bfoz	a7,a3,30,20
    2cd8:	40ee0e33          	sub	t3,t3,a4
    2cdc:	4c06a7db          	bfoz	a5,a3,19,0
    2ce0:	4701                	c.li	a4,0
    2ce2:	4381                	c.li	t2,0
    2ce4:	4801                	c.li	a6,0
    2ce6:	82fd                	c.srli	a3,0x1f
    2ce8:	ec089ae3          	bnez	a7,2bbc <__muldf3+0x58>
    2cec:	00c7e8b3          	or	a7,a5,a2
    2cf0:	24088263          	beqz	a7,2f34 <__muldf3+0x3d0>
    2cf4:	af9788ff          	clz32	a7,a5
    2cf8:	00079663          	bnez	a5,2d04 <__muldf3+0x1a0>
    2cfc:	af9608ff          	clz32	a7,a2
    2d00:	02088893          	addi	a7,a7,32
    2d04:	ff588f93          	addi	t6,a7,-11
    2d08:	4ef1                	c.li	t4,28
    2d0a:	35fec963          	blt	t4,t6,305c <__muldf3+0x4f8>
    2d0e:	4ef5                	c.li	t4,29
    2d10:	ff888f13          	addi	t5,a7,-8
    2d14:	41fe8eb3          	sub	t4,t4,t6
    2d18:	01d65eb3          	srl	t4,a2,t4
    2d1c:	01e797b3          	sll	a5,a5,t5
    2d20:	00fee7b3          	or	a5,t4,a5
    2d24:	01e61633          	sll	a2,a2,t5
    2d28:	411e0e33          	sub	t3,t3,a7
    2d2c:	c0de0e13          	addi	t3,t3,-1011
    2d30:	4f01                	c.li	t5,0
    2d32:	b57d                	c.j	2be0 <__muldf3+0x7c>
    2d34:	00c7e8b3          	or	a7,a5,a2
    2d38:	7ffe0e13          	addi	t3,t3,2047
    2d3c:	20088263          	beqz	a7,2f40 <__muldf3+0x3dc>
    2d40:	00376713          	ori	a4,a4,3
    2d44:	4f0d                	c.li	t5,3
    2d46:	e937fd5b          	bbs	a5,19,2be0 <__muldf3+0x7c>
    2d4a:	4841                	c.li	a6,16
    2d4c:	e95ff06f          	j	2be0 <__muldf3+0x7c>
    2d50:	6f41                	c.lui	t5,0x10
    2d52:	ffff0713          	addi	a4,t5,-1 # ffff <BIN_SIZE+0xb577>
    2d56:	00e678b3          	and	a7,a2,a4
    2d5a:	01055393          	srli	t2,a0,0x10
    2d5e:	031385b3          	mul	a1,t2,a7
    2d62:	8d79                	c.and	a0,a4
    2d64:	01065913          	srli	s2,a2,0x10
    2d68:	02a886b3          	mul	a3,a7,a0
    2d6c:	862e                	c.mv	a2,a1
    2d6e:	c4a9167f          	maddr32	a2,s2,a0
    2d72:	03238733          	mul	a4,t2,s2
    2d76:	0106d413          	srli	s0,a3,0x10
    2d7a:	9432                	c.add	s0,a2
    2d7c:	00b47463          	bgeu	s0,a1,2d84 <__muldf3+0x220>
    2d80:	01e70733          	add	a4,a4,t5
    2d84:	6b41                	c.lui	s6,0x10
    2d86:	fffb0f13          	addi	t5,s6,-1 # ffff <BIN_SIZE+0xb577>
    2d8a:	01e7f5b3          	and	a1,a5,t5
    2d8e:	02b38a33          	mul	s4,t2,a1
    2d92:	0107d993          	srli	s3,a5,0x10
    2d96:	01e47633          	and	a2,s0,t5
    2d9a:	01e6f6b3          	and	a3,a3,t5
    2d9e:	0642                	c.slli	a2,0x10
    2da0:	00d60f33          	add	t5,a2,a3
    2da4:	02b50ab3          	mul	s5,a0,a1
    2da8:	01045493          	srli	s1,s0,0x10
    2dac:	87d2                	c.mv	a5,s4
    2dae:	c4a997ff          	maddr32	a5,s3,a0
    2db2:	033383b3          	mul	t2,t2,s3
    2db6:	010ad693          	srli	a3,s5,0x10
    2dba:	96be                	c.add	a3,a5
    2dbc:	0146f463          	bgeu	a3,s4,2dc4 <__muldf3+0x260>
    2dc0:	016383b3          	add	t2,t2,s6
    2dc4:	6b41                	c.lui	s6,0x10
    2dc6:	fffb0413          	addi	s0,s6,-1 # ffff <BIN_SIZE+0xb577>
    2dca:	0102da13          	srli	s4,t0,0x10
    2dce:	0082f7b3          	and	a5,t0,s0
    2dd2:	031a02b3          	mul	t0,s4,a7
    2dd6:	0086f633          	and	a2,a3,s0
    2dda:	82c1                	c.srli	a3,0x10
    2ddc:	93b6                	c.add	t2,a3
    2dde:	0642                	c.slli	a2,0x10
    2de0:	008afab3          	and	s5,s5,s0
    2de4:	02f888b3          	mul	a7,a7,a5
    2de8:	01560433          	add	s0,a2,s5
    2dec:	94a2                	c.add	s1,s0
    2dee:	8696                	c.mv	a3,t0
    2df0:	c4f916ff          	maddr32	a3,s2,a5
    2df4:	03490633          	mul	a2,s2,s4
    2df8:	0108d513          	srli	a0,a7,0x10
    2dfc:	9536                	c.add	a0,a3
    2dfe:	00557363          	bgeu	a0,t0,2e04 <__muldf3+0x2a0>
    2e02:	965a                	c.add	a2,s6
    2e04:	02ba0ab3          	mul	s5,s4,a1
    2e08:	6b41                	c.lui	s6,0x10
    2e0a:	fffb0293          	addi	t0,s6,-1 # ffff <BIN_SIZE+0xb577>
    2e0e:	005576b3          	and	a3,a0,t0
    2e12:	06c2                	c.slli	a3,0x10
    2e14:	0058f8b3          	and	a7,a7,t0
    2e18:	02b78933          	mul	s2,a5,a1
    2e1c:	98b6                	c.add	a7,a3
    2e1e:	8141                	c.srli	a0,0x10
    2e20:	9532                	c.add	a0,a2
    2e22:	85d6                	c.mv	a1,s5
    2e24:	c4f995ff          	maddr32	a1,s3,a5
    2e28:	034982b3          	mul	t0,s3,s4
    2e2c:	01095693          	srli	a3,s2,0x10
    2e30:	00b687b3          	add	a5,a3,a1
    2e34:	0157f463          	bgeu	a5,s5,2e3c <__muldf3+0x2d8>
    2e38:	016282b3          	add	t0,t0,s6
    2e3c:	65c1                	c.lui	a1,0x10
    2e3e:	15fd                	c.addi	a1,-1
    2e40:	00b7f6b3          	and	a3,a5,a1
    2e44:	06c2                	c.slli	a3,0x10
    2e46:	00b975b3          	and	a1,s2,a1
    2e4a:	9726                	c.add	a4,s1
    2e4c:	96ae                	c.add	a3,a1
    2e4e:	00873633          	sltu	a2,a4,s0
    2e52:	969e                	c.add	a3,t2
    2e54:	9746                	c.add	a4,a7
    2e56:	00c684b3          	add	s1,a3,a2
    2e5a:	011735b3          	sltu	a1,a4,a7
    2e5e:	00a488b3          	add	a7,s1,a0
    2e62:	00b88433          	add	s0,a7,a1
    2e66:	00c4b633          	sltu	a2,s1,a2
    2e6a:	0076b6b3          	sltu	a3,a3,t2
    2e6e:	8ed1                	c.or	a3,a2
    2e70:	00b435b3          	sltu	a1,s0,a1
    2e74:	83c1                	c.srli	a5,0x10
    2e76:	00a8b533          	sltu	a0,a7,a0
    2e7a:	97b6                	c.add	a5,a3
    2e7c:	8dc9                	c.or	a1,a0
    2e7e:	00971613          	slli	a2,a4,0x9
    2e82:	97ae                	c.add	a5,a1
    2e84:	9796                	c.add	a5,t0
    2e86:	01e66633          	or	a2,a2,t5
    2e8a:	01745693          	srli	a3,s0,0x17
    2e8e:	07a6                	c.slli	a5,0x9
    2e90:	00c03633          	snez	a2,a2
    2e94:	835d                	c.srli	a4,0x17
    2e96:	8e59                	c.or	a2,a4
    2e98:	0426                	c.slli	s0,0x9
    2e9a:	8fd5                	c.or	a5,a3
    2e9c:	8e41                	c.or	a2,s0
    2e9e:	1f87f15b          	bbc	a5,24,3080 <__muldf3+0x51c>
    2ea2:	00165713          	srli	a4,a2,0x1
    2ea6:	8a05                	c.andi	a2,1
    2ea8:	01f79693          	slli	a3,a5,0x1f
    2eac:	8e59                	c.or	a2,a4
    2eae:	8e55                	c.or	a2,a3
    2eb0:	0017d793          	srli	a5,a5,0x1
    2eb4:	3fff8713          	addi	a4,t6,1023
    2eb8:	0ae05263          	blez	a4,2f5c <__muldf3+0x3f8>
    2ebc:	00767693          	andi	a3,a2,7
    2ec0:	c685                	c.beqz	a3,2ee8 <__muldf3+0x384>
    2ec2:	00186813          	ori	a6,a6,1
    2ec6:	1c235f5b          	beqc	t1,2,30a4 <__muldf3+0x540>
    2eca:	2633535b          	beqc	t1,3,3130 <__muldf3+0x5cc>
    2ece:	00031d63          	bnez	t1,2ee8 <__muldf3+0x384>
    2ed2:	00f67693          	andi	a3,a2,15
    2ed6:	0046d95b          	beqc	a3,4,2ee8 <__muldf3+0x384>
    2eda:	00460693          	addi	a3,a2,4
    2ede:	00c6b633          	sltu	a2,a3,a2
    2ee2:	97b2                	c.add	a5,a2
    2ee4:	00d00633          	add	a2,zero,a3
    2ee8:	0187f85b          	bbc	a5,24,2ef8 <__muldf3+0x394>
    2eec:	ff000737          	lui	a4,0xff000
    2ef0:	177d                	c.addi	a4,-1
    2ef2:	8ff9                	c.and	a5,a4
    2ef4:	400f8713          	addi	a4,t6,1024
    2ef8:	7fe00693          	li	a3,2046
    2efc:	88f6                	c.mv	a7,t4
    2efe:	18e6c363          	blt	a3,a4,3084 <__muldf3+0x520>
    2f02:	00365693          	srli	a3,a2,0x3
    2f06:	01d79613          	slli	a2,a5,0x1d
    2f0a:	8e55                	c.or	a2,a3
    2f0c:	5837a7db          	bfoz	a5,a5,22,3
    2f10:	7ff77713          	andi	a4,a4,2047
    2f14:	d1dff06f          	j	2c30 <__muldf3+0xcc>
    2f18:	4711                	c.li	a4,4
    2f1a:	4501                	c.li	a0,0
    2f1c:	4e01                	c.li	t3,0
    2f1e:	4385                	c.li	t2,1
    2f20:	4801                	c.li	a6,0
    2f22:	b169                	c.j	2bac <__muldf3+0x48>
    2f24:	4721                	c.li	a4,8
    2f26:	4501                	c.li	a0,0
    2f28:	7ff00e13          	li	t3,2047
    2f2c:	4389                	c.li	t2,2
    2f2e:	4801                	c.li	a6,0
    2f30:	c7dff06f          	j	2bac <__muldf3+0x48>
    2f34:	00176713          	ori	a4,a4,1
    2f38:	4781                	c.li	a5,0
    2f3a:	4601                	c.li	a2,0
    2f3c:	4f05                	c.li	t5,1
    2f3e:	b14d                	c.j	2be0 <__muldf3+0x7c>
    2f40:	00276713          	ori	a4,a4,2
    2f44:	4781                	c.li	a5,0
    2f46:	4601                	c.li	a2,0
    2f48:	4f09                	c.li	t5,2
    2f4a:	b959                	c.j	2be0 <__muldf3+0x7c>
    2f4c:	4881                	c.li	a7,0
    2f4e:	7ff00713          	li	a4,2047
    2f52:	000807b7          	lui	a5,0x80
    2f56:	4601                	c.li	a2,0
    2f58:	4841                	c.li	a6,16
    2f5a:	b9d9                	c.j	2c30 <__muldf3+0xcc>
    2f5c:	4685                	c.li	a3,1
    2f5e:	8e99                	c.sub	a3,a4
    2f60:	eb51                	c.bnez	a4,2ff4 <__muldf3+0x490>
    2f62:	00767593          	andi	a1,a2,7
    2f66:	873e                	c.mv	a4,a5
    2f68:	00058a63          	beqz	a1,2f7c <__muldf3+0x418>
    2f6c:	00186813          	ori	a6,a6,1
    2f70:	1e23565b          	beqc	t1,2,315c <__muldf3+0x5f8>
    2f74:	1c335c5b          	beqc	t1,3,314c <__muldf3+0x5e8>
    2f78:	1e030663          	beqz	t1,3164 <__muldf3+0x600>
    2f7c:	01875593          	srli	a1,a4,0x18
    2f80:	0015c593          	xori	a1,a1,1
    2f84:	0015f593          	andi	a1,a1,1
    2f88:	41ef8f93          	addi	t6,t6,1054
    2f8c:	01f61733          	sll	a4,a2,t6
    2f90:	00d65533          	srl	a0,a2,a3
    2f94:	01f79fb3          	sll	t6,a5,t6
    2f98:	00e03633          	snez	a2,a4
    2f9c:	00afefb3          	or	t6,t6,a0
    2fa0:	01f66633          	or	a2,a2,t6
    2fa4:	00767713          	andi	a4,a2,7
    2fa8:	00d7d7b3          	srl	a5,a5,a3
    2fac:	00070a63          	beqz	a4,2fc0 <__muldf3+0x45c>
    2fb0:	00186813          	ori	a6,a6,1
    2fb4:	1c23545b          	beqc	t1,2,317c <__muldf3+0x618>
    2fb8:	1c335e5b          	beqc	t1,3,3194 <__muldf3+0x630>
    2fbc:	14030a63          	beqz	t1,3110 <__muldf3+0x5ac>
    2fc0:	1777fc5b          	bbc	a5,23,3138 <__muldf3+0x5d4>
    2fc4:	00186813          	ori	a6,a6,1
    2fc8:	4705                	c.li	a4,1
    2fca:	4781                	c.li	a5,0
    2fcc:	00000613          	li	a2,0
    2fd0:	01d008b3          	add	a7,zero,t4
    2fd4:	c4058ee3          	beqz	a1,2c30 <__muldf3+0xcc>
    2fd8:	84087c5b          	bbc	a6,0,2c30 <__muldf3+0xcc>
    2fdc:	00286813          	ori	a6,a6,2
    2fe0:	04c0006f          	j	302c <__muldf3+0x4c8>
    2fe4:	4881                	c.li	a7,0
    2fe6:	7ff00713          	li	a4,2047
    2fea:	000807b7          	lui	a5,0x80
    2fee:	4601                	c.li	a2,0
    2ff0:	c41ff06f          	j	2c30 <__muldf3+0xcc>
    2ff4:	03800593          	li	a1,56
    2ff8:	0cd5da63          	bge	a1,a3,30cc <__muldf3+0x568>
    2ffc:	8e5d                	c.or	a2,a5
    2ffe:	c20d                	c.beqz	a2,3020 <__muldf3+0x4bc>
    3000:	00186813          	ori	a6,a6,1
    3004:	01d03633          	snez	a2,t4
    3008:	00235c5b          	beqc	t1,2,3020 <__muldf3+0x4bc>
    300c:	ffd30793          	addi	a5,t1,-3
    3010:	0017b793          	seqz	a5,a5
    3014:	001eb613          	seqz	a2,t4
    3018:	40f007b3          	neg	a5,a5
    301c:	00f67633          	and	a2,a2,a5
    3020:	00286813          	ori	a6,a6,2
    3024:	88f6                	c.mv	a7,t4
    3026:	4701                	c.li	a4,0
    3028:	00000793          	li	a5,0
    302c:	4581                	c.li	a1,0
    302e:	fff006b7          	lui	a3,0xfff00
    3032:	8eed                	c.and	a3,a1
    3034:	4c07a7db          	bfoz	a5,a5,19,0
    3038:	8fd5                	c.or	a5,a3
    303a:	801006b7          	lui	a3,0x80100
    303e:	16fd                	c.addi	a3,-1
    3040:	0752                	c.slli	a4,0x14
    3042:	8efd                	c.and	a3,a5
    3044:	8f55                	c.or	a4,a3
    3046:	08fe                	c.slli	a7,0x1f
    3048:	7807275b          	bfoz	a4,a4,30,0
    304c:	00c00533          	add	a0,zero,a2
    3050:	011765b3          	or	a1,a4,a7
    3054:	00182073          	csrs	fflags,a6
    3058:	c05ff06f          	j	2c5c <__muldf3+0xf8>
    305c:	fd888793          	addi	a5,a7,-40
    3060:	00f617b3          	sll	a5,a2,a5
    3064:	4601                	c.li	a2,0
    3066:	b1c9                	c.j	2d28 <__muldf3+0x1c4>
    3068:	fd870793          	addi	a5,a4,-40 # feffffd8 <_DATA_LMA_START+0xdeffbae0>
    306c:	00f512b3          	sll	t0,a0,a5
    3070:	4501                	c.li	a0,0
    3072:	b9b9                	c.j	2cd0 <__muldf3+0x16c>
    3074:	4731                	c.li	a4,12
    3076:	7ff00e13          	li	t3,2047
    307a:	438d                	c.li	t2,3
    307c:	4841                	c.li	a6,16
    307e:	b63d                	c.j	2bac <__muldf3+0x48>
    3080:	8ff2                	c.mv	t6,t3
    3082:	bd0d                	c.j	2eb4 <__muldf3+0x350>
    3084:	02235a5b          	beqc	t1,2,30b8 <__muldf3+0x554>
    3088:	0a33505b          	beqc	t1,3,3128 <__muldf3+0x5c4>
    308c:	02030863          	beqz	t1,30bc <__muldf3+0x558>
    3090:	001007b7          	lui	a5,0x100
    3094:	7fe00713          	li	a4,2046
    3098:	17fd                	c.addi	a5,-1
    309a:	567d                	c.li	a2,-1
    309c:	00586813          	ori	a6,a6,5
    30a0:	f8dff06f          	j	302c <__muldf3+0x4c8>
    30a4:	e40e82e3          	beqz	t4,2ee8 <__muldf3+0x384>
    30a8:	00860693          	addi	a3,a2,8
    30ac:	00c6b633          	sltu	a2,a3,a2
    30b0:	97b2                	c.add	a5,a2
    30b2:	8636                	c.mv	a2,a3
    30b4:	e35ff06f          	j	2ee8 <__muldf3+0x384>
    30b8:	fc0e8ce3          	beqz	t4,3090 <__muldf3+0x52c>
    30bc:	7ff00713          	li	a4,2047
    30c0:	4781                	c.li	a5,0
    30c2:	4601                	c.li	a2,0
    30c4:	00586813          	ori	a6,a6,5
    30c8:	f65ff06f          	j	302c <__muldf3+0x4c8>
    30cc:	45fd                	c.li	a1,31
    30ce:	0cd5dd63          	bge	a1,a3,31a8 <__muldf3+0x644>
    30d2:	5585                	c.li	a1,-31
    30d4:	40e58733          	sub	a4,a1,a4
    30d8:	00e7d733          	srl	a4,a5,a4
    30dc:	0006d8db          	beqc	a3,32,30ec <__muldf3+0x588>
    30e0:	43ef8f93          	addi	t6,t6,1086
    30e4:	01f797b3          	sll	a5,a5,t6
    30e8:	00f66633          	or	a2,a2,a5
    30ec:	00c03633          	snez	a2,a2
    30f0:	8e59                	c.or	a2,a4
    30f2:	00767793          	andi	a5,a2,7
    30f6:	c3dd                	c.beqz	a5,319c <__muldf3+0x638>
    30f8:	00186813          	ori	a6,a6,1
    30fc:	06235e5b          	beqc	t1,2,3178 <__muldf3+0x614>
    3100:	0833585b          	beqc	t1,3,3190 <__muldf3+0x62c>
    3104:	4585                	c.li	a1,1
    3106:	4781                	c.li	a5,0
    3108:	02031863          	bnez	t1,3138 <__muldf3+0x5d4>
    310c:	4781                	c.li	a5,0
    310e:	4585                	c.li	a1,1
    3110:	00f67713          	andi	a4,a2,15
    3114:	aa47565b          	beqc	a4,4,2fc0 <__muldf3+0x45c>
    3118:	00460713          	addi	a4,a2,4
    311c:	00c73633          	sltu	a2,a4,a2
    3120:	97b2                	c.add	a5,a2
    3122:	863a                	c.mv	a2,a4
    3124:	e9dff06f          	j	2fc0 <__muldf3+0x45c>
    3128:	f80e8ae3          	beqz	t4,30bc <__muldf3+0x558>
    312c:	f65ff06f          	j	3090 <__muldf3+0x52c>
    3130:	da0e9ce3          	bnez	t4,2ee8 <__muldf3+0x384>
    3134:	f75ff06f          	j	30a8 <__muldf3+0x544>
    3138:	00365713          	srli	a4,a2,0x3
    313c:	01d79613          	slli	a2,a5,0x1d
    3140:	8e59                	c.or	a2,a4
    3142:	5837a7db          	bfoz	a5,a5,22,3
    3146:	4701                	c.li	a4,0
    3148:	e89ff06f          	j	2fd0 <__muldf3+0x46c>
    314c:	e20e98e3          	bnez	t4,2f7c <__muldf3+0x418>
    3150:	ff863713          	sltiu	a4,a2,-8
    3154:	00174713          	xori	a4,a4,1
    3158:	973e                	c.add	a4,a5
    315a:	b50d                	c.j	2f7c <__muldf3+0x418>
    315c:	e20e80e3          	beqz	t4,2f7c <__muldf3+0x418>
    3160:	ff1ff06f          	j	3150 <__muldf3+0x5ec>
    3164:	00f67593          	andi	a1,a2,15
    3168:	a045da5b          	beqc	a1,4,2f7c <__muldf3+0x418>
    316c:	ffc63713          	sltiu	a4,a2,-4
    3170:	00174713          	xori	a4,a4,1
    3174:	973e                	c.add	a4,a5
    3176:	b519                	c.j	2f7c <__muldf3+0x418>
    3178:	4781                	c.li	a5,0
    317a:	4585                	c.li	a1,1
    317c:	e40e82e3          	beqz	t4,2fc0 <__muldf3+0x45c>
    3180:	00860713          	addi	a4,a2,8
    3184:	00c73633          	sltu	a2,a4,a2
    3188:	97b2                	c.add	a5,a2
    318a:	863a                	c.mv	a2,a4
    318c:	e35ff06f          	j	2fc0 <__muldf3+0x45c>
    3190:	4781                	c.li	a5,0
    3192:	4585                	c.li	a1,1
    3194:	e20e96e3          	bnez	t4,2fc0 <__muldf3+0x45c>
    3198:	fe9ff06f          	j	3180 <__muldf3+0x61c>
    319c:	820d                	c.srli	a2,0x3
    319e:	88f6                	c.mv	a7,t4
    31a0:	4701                	c.li	a4,0
    31a2:	4781                	c.li	a5,0
    31a4:	e35ff06f          	j	2fd8 <__muldf3+0x474>
    31a8:	4585                	c.li	a1,1
    31aa:	bbf9                	c.j	2f88 <__muldf3+0x424>
    31ac:	0001                	c.nop
	...

000031b0 <__floatsidf>:
    31b0:	c925                	c.beqz	a0,3220 <__floatsidf+0x70>
    31b2:	40a007b3          	neg	a5,a0
    31b6:	01f55613          	srli	a2,a0,0x1f
    31ba:	f2f5057f          	maxw	a0,a0,a5
    31be:	af95077f          	clz32	a4,a0
    31c2:	41e00793          	li	a5,1054
    31c6:	8f99                	c.sub	a5,a4
    31c8:	46a9                	c.li	a3,10
    31ca:	7ff7f793          	andi	a5,a5,2047
    31ce:	02e6df63          	bge	a3,a4,320c <__floatsidf+0x5c>
    31d2:	1755                	c.addi	a4,-11
    31d4:	00e516b3          	sll	a3,a0,a4
    31d8:	4c06a6db          	bfoz	a3,a3,19,0
    31dc:	00000713          	li	a4,0
    31e0:	4581                	c.li	a1,0
    31e2:	853a                	c.mv	a0,a4
    31e4:	fff00737          	lui	a4,0xfff00
    31e8:	8f6d                	c.and	a4,a1
    31ea:	4c06a6db          	bfoz	a3,a3,19,0
    31ee:	8ed9                	c.or	a3,a4
    31f0:	01479713          	slli	a4,a5,0x14
    31f4:	801007b7          	lui	a5,0x80100
    31f8:	17fd                	c.addi	a5,-1
    31fa:	8ff5                	c.and	a5,a3
    31fc:	8fd9                	c.or	a5,a4
    31fe:	7807a7db          	bfoz	a5,a5,30,0
    3202:	01f61713          	slli	a4,a2,0x1f
    3206:	00e7e5b3          	or	a1,a5,a4
    320a:	8082                	c.jr	ra
    320c:	46ad                	c.li	a3,11
    320e:	8e99                	c.sub	a3,a4
    3210:	00d556b3          	srl	a3,a0,a3
    3214:	0755                	c.addi	a4,21
    3216:	00e51733          	sll	a4,a0,a4
    321a:	4c06a6db          	bfoz	a3,a3,19,0
    321e:	b7c9                	c.j	31e0 <__floatsidf+0x30>
    3220:	4601                	c.li	a2,0
    3222:	4781                	c.li	a5,0
    3224:	4681                	c.li	a3,0
    3226:	4701                	c.li	a4,0
    3228:	bf65                	c.j	31e0 <__floatsidf+0x30>
	...

0000322c <__extendsfdf2>:
    322c:	e0050753          	fmv.x.w	a4,fa0
    3230:	002027f3          	frrm	a5
    3234:	797727db          	bfoz	a5,a4,30,23
    3238:	00178593          	addi	a1,a5,1 # 80100001 <_DATA_LMA_START+0x600fbb09>
    323c:	0ff5f593          	andi	a1,a1,255
    3240:	4505                	c.li	a0,1
    3242:	580726db          	bfoz	a3,a4,22,0
    3246:	01f75613          	srli	a2,a4,0x1f
    324a:	02b55d63          	bge	a0,a1,3284 <__extendsfdf2+0x58>
    324e:	0036d713          	srli	a4,a3,0x3
    3252:	38078793          	addi	a5,a5,896
    3256:	06f6                	c.slli	a3,0x1d
    3258:	4581                	c.li	a1,0
    325a:	8536                	c.mv	a0,a3
    325c:	fff006b7          	lui	a3,0xfff00
    3260:	8eed                	c.and	a3,a1
    3262:	4c07275b          	bfoz	a4,a4,19,0
    3266:	8ed9                	c.or	a3,a4
    3268:	51e7a75b          	bfoz	a4,a5,20,30
    326c:	801007b7          	lui	a5,0x80100
    3270:	17fd                	c.addi	a5,-1
    3272:	8ff5                	c.and	a5,a3
    3274:	8fd9                	c.or	a5,a4
    3276:	7807a7db          	bfoz	a5,a5,30,0
    327a:	01f61713          	slli	a4,a2,0x1f
    327e:	00e7e5b3          	or	a1,a5,a4
    3282:	8082                	c.jr	ra
    3284:	e785                	c.bnez	a5,32ac <__extendsfdf2+0x80>
    3286:	cabd                	c.beqz	a3,32fc <__extendsfdf2+0xd0>
    3288:	af9685ff          	clz32	a1,a3
    328c:	47a9                	c.li	a5,10
    328e:	06b7db63          	bge	a5,a1,3304 <__extendsfdf2+0xd8>
    3292:	ff558713          	addi	a4,a1,-11 # fff5 <BIN_SIZE+0xb56d>
    3296:	00e69733          	sll	a4,a3,a4
    329a:	4681                	c.li	a3,0
    329c:	38900793          	li	a5,905
    32a0:	8f8d                	c.sub	a5,a1
    32a2:	4c07275b          	bfoz	a4,a4,19,0
    32a6:	7ff7f793          	andi	a5,a5,2047
    32aa:	b77d                	c.j	3258 <__extendsfdf2+0x2c>
    32ac:	c6a1                	c.beqz	a3,32f4 <__extendsfdf2+0xc8>
    32ae:	00080737          	lui	a4,0x80
    32b2:	0036d793          	srli	a5,a3,0x3
    32b6:	00100837          	lui	a6,0x100
    32ba:	8fd9                	c.or	a5,a4
    32bc:	187d                	c.addi	a6,-1
    32be:	01d69713          	slli	a4,a3,0x1d
    32c2:	0107f7b3          	and	a5,a5,a6
    32c6:	4566f95b          	bbs	a3,22,3318 <__extendsfdf2+0xec>
    32ca:	4581                	c.li	a1,0
    32cc:	853a                	c.mv	a0,a4
    32ce:	fff00737          	lui	a4,0xfff00
    32d2:	8f6d                	c.and	a4,a1
    32d4:	0107f7b3          	and	a5,a5,a6
    32d8:	8fd9                	c.or	a5,a4
    32da:	7ff006b7          	lui	a3,0x7ff00
    32de:	8edd                	c.or	a3,a5
    32e0:	01f61713          	slli	a4,a2,0x1f
    32e4:	7806a6db          	bfoz	a3,a3,30,0
    32e8:	00e6e5b3          	or	a1,a3,a4
    32ec:	00186073          	csrsi	fflags,16
    32f0:	00008067          	ret
    32f4:	7ff00793          	li	a5,2047
    32f8:	4701                	c.li	a4,0
    32fa:	bfb9                	c.j	3258 <__extendsfdf2+0x2c>
    32fc:	4781                	c.li	a5,0
    32fe:	4701                	c.li	a4,0
    3300:	f59ff06f          	j	3258 <__extendsfdf2+0x2c>
    3304:	472d                	c.li	a4,11
    3306:	8f0d                	c.sub	a4,a1
    3308:	01558793          	addi	a5,a1,21
    330c:	00e6d733          	srl	a4,a3,a4
    3310:	00f696b3          	sll	a3,a3,a5
    3314:	f89ff06f          	j	329c <__extendsfdf2+0x70>
    3318:	4581                	c.li	a1,0
    331a:	853a                	c.mv	a0,a4
    331c:	fff00737          	lui	a4,0xfff00
    3320:	8f6d                	c.and	a4,a1
    3322:	0107f7b3          	and	a5,a5,a6
    3326:	8fd9                	c.or	a5,a4
    3328:	7ff006b7          	lui	a3,0x7ff00
    332c:	8edd                	c.or	a3,a5
    332e:	01f61713          	slli	a4,a2,0x1f
    3332:	7806a6db          	bfoz	a3,a3,30,0
    3336:	00e6e5b3          	or	a1,a3,a4
    333a:	8082                	c.jr	ra

0000333c <__truncdfsf2>:
    333c:	00202873          	frrm	a6
    3340:	7945a65b          	bfoz	a2,a1,30,20
    3344:	00160693          	addi	a3,a2,1
    3348:	0d65a8db          	bfoz	a7,a1,3,22
    334c:	01d55713          	srli	a4,a0,0x1d
    3350:	7ff6f693          	andi	a3,a3,2047
    3354:	4785                	c.li	a5,1
    3356:	01176733          	or	a4,a4,a7
    335a:	81fd                	c.srli	a1,0x1f
    335c:	00351893          	slli	a7,a0,0x3
    3360:	0cd7da63          	bge	a5,a3,3434 <__truncdfsf2+0xf8>
    3364:	c8060693          	addi	a3,a2,-896
    3368:	0fe00793          	li	a5,254
    336c:	06d7c863          	blt	a5,a3,33dc <__truncdfsf2+0xa0>
    3370:	10d05e63          	blez	a3,348c <__truncdfsf2+0x150>
    3374:	051a                	c.slli	a0,0x6
    3376:	00a03533          	snez	a0,a0
    337a:	070e                	c.slli	a4,0x3
    337c:	8f49                	c.or	a4,a0
    337e:	01d8d893          	srli	a7,a7,0x1d
    3382:	01176733          	or	a4,a4,a7
    3386:	00777613          	andi	a2,a4,7
    338a:	4781                	c.li	a5,0
    338c:	4501                	c.li	a0,0
    338e:	ca49                	c.beqz	a2,3420 <__truncdfsf2+0xe4>
    3390:	1628505b          	beqc	a6,2,34f0 <__truncdfsf2+0x1b4>
    3394:	0838525b          	beqc	a6,3,3418 <__truncdfsf2+0xdc>
    3398:	14080463          	beqz	a6,34e0 <__truncdfsf2+0x1a4>
    339c:	04000637          	lui	a2,0x4000
    33a0:	00e67633          	and	a2,a2,a4
    33a4:	28078863          	beqz	a5,3634 <__truncdfsf2+0x2f8>
    33a8:	0027e513          	ori	a0,a5,2
    33ac:	26060663          	beqz	a2,3618 <__truncdfsf2+0x2dc>
    33b0:	00168693          	addi	a3,a3,1 # 7ff00001 <_DATA_LMA_START+0x5fefbb09>
    33b4:	0ff00613          	li	a2,255
    33b8:	6437275b          	bfoz	a4,a4,25,3
    33bc:	0ff6f793          	andi	a5,a3,255
    33c0:	0ac68a63          	beq	a3,a2,3474 <__truncdfsf2+0x138>
    33c4:	07de                	c.slli	a5,0x17
    33c6:	5807275b          	bfoz	a4,a4,22,0
    33ca:	05fe                	c.slli	a1,0x1f
    33cc:	8fd9                	c.or	a5,a4
    33ce:	8fcd                	c.or	a5,a1
    33d0:	02051e63          	bnez	a0,340c <__truncdfsf2+0xd0>
    33d4:	f0078553          	fmv.w.x	fa0,a5
    33d8:	00008067          	ret
    33dc:	16080c63          	beqz	a6,3554 <__truncdfsf2+0x218>
    33e0:	1638545b          	beqc	a6,3,3548 <__truncdfsf2+0x20c>
    33e4:	1e285a5b          	beqc	a6,2,35d8 <__truncdfsf2+0x29c>
    33e8:	00500513          	li	a0,5
    33ec:	16080a63          	beqz	a6,3560 <__truncdfsf2+0x224>
    33f0:	1e385a5b          	beqc	a6,3,35e4 <__truncdfsf2+0x2a8>
    33f4:	1a285e5b          	beqc	a6,2,35b0 <__truncdfsf2+0x274>
    33f8:	00800737          	lui	a4,0x800
    33fc:	7f0007b7          	lui	a5,0x7f000
    3400:	177d                	c.addi	a4,-1
    3402:	8f5d                	c.or	a4,a5
    3404:	05fe                	c.slli	a1,0x1f
    3406:	780727db          	bfoz	a5,a4,30,0
    340a:	8fcd                	c.or	a5,a1
    340c:	00152073          	csrs	fflags,a0
    3410:	f0078553          	fmv.w.x	fa0,a5
    3414:	00008067          	ret
    3418:	4505                	c.li	a0,1
    341a:	e199                	c.bnez	a1,3420 <__truncdfsf2+0xe4>
    341c:	00870713          	addi	a4,a4,8 # 800008 <FLASH_SIZE+0x700008>
    3420:	04000637          	lui	a2,0x4000
    3424:	8e79                	c.and	a2,a4
    3426:	d3d9                	c.beqz	a5,33ac <__truncdfsf2+0x70>
    3428:	b805725b          	bbc	a0,0,33ac <__truncdfsf2+0x70>
    342c:	87aa                	c.mv	a5,a0
    342e:	0027e513          	ori	a0,a5,2
    3432:	bfad                	c.j	33ac <__truncdfsf2+0x70>
    3434:	011768b3          	or	a7,a4,a7
    3438:	e615                	c.bnez	a2,3464 <__truncdfsf2+0x128>
    343a:	01f59793          	slli	a5,a1,0x1f
    343e:	f8088be3          	beqz	a7,33d4 <__truncdfsf2+0x98>
    3442:	1828535b          	beqc	a6,2,35c8 <__truncdfsf2+0x28c>
    3446:	1238555b          	beqc	a6,3,3570 <__truncdfsf2+0x234>
    344a:	4705                	c.li	a4,1
    344c:	4789                	c.li	a5,2
    344e:	4605                	c.li	a2,1
    3450:	1a080463          	beqz	a6,35f8 <__truncdfsf2+0x2bc>
    3454:	83ed                	c.srli	a5,0x1b
    3456:	0017c793          	xori	a5,a5,1
    345a:	8b85                	c.andi	a5,1
    345c:	4505                	c.li	a0,1
    345e:	4681                	c.li	a3,0
    3460:	fa05                	c.bnez	a2,3390 <__truncdfsf2+0x54>
    3462:	bf7d                	c.j	3420 <__truncdfsf2+0xe4>
    3464:	08089a63          	bnez	a7,34f8 <__truncdfsf2+0x1bc>
    3468:	05fe                	c.slli	a1,0x1f
    346a:	7f8007b7          	lui	a5,0x7f800
    346e:	8fcd                	c.or	a5,a1
    3470:	f65ff06f          	j	33d4 <__truncdfsf2+0x98>
    3474:	00556513          	ori	a0,a0,5
    3478:	f6081ce3          	bnez	a6,33f0 <__truncdfsf2+0xb4>
    347c:	05fe                	c.slli	a1,0x1f
    347e:	7f8007b7          	lui	a5,0x7f800
    3482:	8fcd                	c.or	a5,a1
    3484:	00152073          	csrs	fflags,a0
    3488:	f89ff06f          	j	3410 <__truncdfsf2+0xd4>
    348c:	57a5                	c.li	a5,-23
    348e:	0af6c363          	blt	a3,a5,3534 <__truncdfsf2+0x1f8>
    3492:	4579                	c.li	a0,30
    3494:	008007b7          	lui	a5,0x800
    3498:	8d15                	c.sub	a0,a3
    349a:	437d                	c.li	t1,31
    349c:	8fd9                	c.or	a5,a4
    349e:	0ea34163          	blt	t1,a0,3580 <__truncdfsf2+0x244>
    34a2:	c8260613          	addi	a2,a2,-894 # 3fffc82 <FLASH_SIZE+0x3effc82>
    34a6:	00c89733          	sll	a4,a7,a2
    34aa:	00e03733          	snez	a4,a4
    34ae:	00c797b3          	sll	a5,a5,a2
    34b2:	00a8d8b3          	srl	a7,a7,a0
    34b6:	8f5d                	c.or	a4,a5
    34b8:	00e8e733          	or	a4,a7,a4
    34bc:	01f59793          	slli	a5,a1,0x1f
    34c0:	db11                	c.beqz	a4,33d4 <__truncdfsf2+0x98>
    34c2:	00171793          	slli	a5,a4,0x1
    34c6:	0077f693          	andi	a3,a5,7
    34ca:	00777613          	andi	a2,a4,7
    34ce:	14069763          	bnez	a3,361c <__truncdfsf2+0x2e0>
    34d2:	83ed                	c.srli	a5,0x1b
    34d4:	0017c793          	xori	a5,a5,1
    34d8:	8b85                	c.andi	a5,1
    34da:	4501                	c.li	a0,0
    34dc:	4681                	c.li	a3,0
    34de:	b749                	c.j	3460 <__truncdfsf2+0x124>
    34e0:	00f77613          	andi	a2,a4,15
    34e4:	aa465c5b          	beqc	a2,4,339c <__truncdfsf2+0x60>
    34e8:	00100513          	li	a0,1
    34ec:	0711                	c.addi	a4,4
    34ee:	bf0d                	c.j	3420 <__truncdfsf2+0xe4>
    34f0:	4505                	c.li	a0,1
    34f2:	d59d                	c.beqz	a1,3420 <__truncdfsf2+0xe4>
    34f4:	0721                	c.addi	a4,8
    34f6:	b72d                	c.j	3420 <__truncdfsf2+0xe4>
    34f8:	7ff00793          	li	a5,2047
    34fc:	4501                	c.li	a0,0
    34fe:	00f61963          	bne	a2,a5,3510 <__truncdfsf2+0x1d4>
    3502:	00400537          	lui	a0,0x400
    3506:	8d79                	c.and	a0,a4
    3508:	00153513          	seqz	a0,a0
    350c:	00451513          	slli	a0,a0,0x4
    3510:	070e                	c.slli	a4,0x3
    3512:	020007b7          	lui	a5,0x2000
    3516:	8f5d                	c.or	a4,a5
    3518:	0ff00693          	li	a3,255
    351c:	0ff00793          	li	a5,255
    3520:	00375713          	srli	a4,a4,0x3
    3524:	08f68a63          	beq	a3,a5,35b8 <__truncdfsf2+0x27c>
    3528:	5807275b          	bfoz	a4,a4,22,0
    352c:	0ff6f793          	andi	a5,a3,255
    3530:	e95ff06f          	j	33c4 <__truncdfsf2+0x88>
    3534:	08285a5b          	beqc	a6,2,35c8 <__truncdfsf2+0x28c>
    3538:	02385c5b          	beqc	a6,3,3570 <__truncdfsf2+0x234>
    353c:	0a080863          	beqz	a6,35ec <__truncdfsf2+0x2b0>
    3540:	4705                	c.li	a4,1
    3542:	4681                	c.li	a3,0
    3544:	4785                	c.li	a5,1
    3546:	b5a9                	c.j	3390 <__truncdfsf2+0x54>
    3548:	edb1                	c.bnez	a1,35a4 <__truncdfsf2+0x268>
    354a:	7f8007b7          	lui	a5,0x7f800
    354e:	4515                	c.li	a0,5
    3550:	ebdff06f          	j	340c <__truncdfsf2+0xd0>
    3554:	05fe                	c.slli	a1,0x1f
    3556:	7f8007b7          	lui	a5,0x7f800
    355a:	8fcd                	c.or	a5,a1
    355c:	4515                	c.li	a0,5
    355e:	b57d                	c.j	340c <__truncdfsf2+0xd0>
    3560:	577d                	c.li	a4,-1
    3562:	4781                	c.li	a5,0
    3564:	4515                	c.li	a0,5
    3566:	0fe00693          	li	a3,254
    356a:	0711                	c.addi	a4,4
    356c:	eb5ff06f          	j	3420 <__truncdfsf2+0xe4>
    3570:	4605                	c.li	a2,1
    3572:	4705                	c.li	a4,1
    3574:	00200793          	li	a5,2
    3578:	ec059ee3          	bnez	a1,3454 <__truncdfsf2+0x118>
    357c:	07a1                	c.addi	a5,8
    357e:	bdd9                	c.j	3454 <__truncdfsf2+0x118>
    3580:	5779                	c.li	a4,-2
    3582:	8f15                	c.sub	a4,a3
    3584:	00e7d733          	srl	a4,a5,a4
    3588:	000558db          	beqc	a0,32,3598 <__truncdfsf2+0x25c>
    358c:	ca260613          	addi	a2,a2,-862
    3590:	00c797b3          	sll	a5,a5,a2
    3594:	00f8e8b3          	or	a7,a7,a5
    3598:	011038b3          	snez	a7,a7
    359c:	00e8e733          	or	a4,a7,a4
    35a0:	f1dff06f          	j	34bc <__truncdfsf2+0x180>
    35a4:	577d                	c.li	a4,-1
    35a6:	0fe00693          	li	a3,254
    35aa:	4515                	c.li	a0,5
    35ac:	e05ff06f          	j	33b0 <__truncdfsf2+0x74>
    35b0:	e40584e3          	beqz	a1,33f8 <__truncdfsf2+0xbc>
    35b4:	4585                	c.li	a1,1
    35b6:	b5d9                	c.j	347c <__truncdfsf2+0x140>
    35b8:	cf21                	c.beqz	a4,3610 <__truncdfsf2+0x2d4>
    35ba:	4581                	c.li	a1,0
    35bc:	0ff00793          	li	a5,255
    35c0:	00400737          	lui	a4,0x400
    35c4:	e01ff06f          	j	33c4 <__truncdfsf2+0x88>
    35c8:	4605                	c.li	a2,1
    35ca:	4705                	c.li	a4,1
    35cc:	00200793          	li	a5,2
    35d0:	e80582e3          	beqz	a1,3454 <__truncdfsf2+0x118>
    35d4:	07a1                	c.addi	a5,8
    35d6:	bdbd                	c.j	3454 <__truncdfsf2+0x118>
    35d8:	d5f1                	c.beqz	a1,35a4 <__truncdfsf2+0x268>
    35da:	ff8007b7          	lui	a5,0xff800
    35de:	4515                	c.li	a0,5
    35e0:	e2dff06f          	j	340c <__truncdfsf2+0xd0>
    35e4:	e8058ce3          	beqz	a1,347c <__truncdfsf2+0x140>
    35e8:	e11ff06f          	j	33f8 <__truncdfsf2+0xbc>
    35ec:	4785                	c.li	a5,1
    35ee:	4681                	c.li	a3,0
    35f0:	4705                	c.li	a4,1
    35f2:	4505                	c.li	a0,1
    35f4:	ef9ff06f          	j	34ec <__truncdfsf2+0x1b0>
    35f8:	4705                	c.li	a4,1
    35fa:	4789                	c.li	a5,2
    35fc:	00100613          	li	a2,1
    3600:	0791                	c.addi	a5,4
    3602:	83ed                	c.srli	a5,0x1b
    3604:	0017c793          	xori	a5,a5,1
    3608:	8b85                	c.andi	a5,1
    360a:	4505                	c.li	a0,1
    360c:	4681                	c.li	a3,0
    360e:	bd89                	c.j	3460 <__truncdfsf2+0x124>
    3610:	0ff00793          	li	a5,255
    3614:	4701                	c.li	a4,0
    3616:	b37d                	c.j	33c4 <__truncdfsf2+0x88>
    3618:	830d                	c.srli	a4,0x3
    361a:	b739                	c.j	3528 <__truncdfsf2+0x1ec>
    361c:	ba285a5b          	beqc	a6,2,35d0 <__truncdfsf2+0x294>
    3620:	b4385c5b          	beqc	a6,3,3578 <__truncdfsf2+0x23c>
    3624:	e20818e3          	bnez	a6,3454 <__truncdfsf2+0x118>
    3628:	00f7f693          	andi	a3,a5,15
    362c:	a246d45b          	beqc	a3,4,3454 <__truncdfsf2+0x118>
    3630:	fd1ff06f          	j	3600 <__truncdfsf2+0x2c4>
    3634:	4505                	c.li	a0,1
    3636:	d6061de3          	bnez	a2,33b0 <__truncdfsf2+0x74>
    363a:	b5cd                	c.j	351c <__truncdfsf2+0x1e0>

0000363c <memcpy>:
    363c:	c63d                	c.beqz	a2,36aa <memcpy+0x6e>
    363e:	82aa                	c.mv	t0,a0
    3640:	83b2                	c.mv	t2,a2
    3642:	fe03f313          	andi	t1,t2,-32
    3646:	9316                	c.add	t1,t0
    3648:	02655863          	bge	a0,t1,3678 <memcpy+0x3c>
    364c:	4190                	c.lw	a2,0(a1)
    364e:	41d4                	c.lw	a3,4(a1)
    3650:	4598                	c.lw	a4,8(a1)
    3652:	45dc                	c.lw	a5,12(a1)
    3654:	c110                	c.sw	a2,0(a0)
    3656:	c154                	c.sw	a3,4(a0)
    3658:	c518                	c.sw	a4,8(a0)
    365a:	c55c                	c.sw	a5,12(a0)
    365c:	4990                	c.lw	a2,16(a1)
    365e:	49d4                	c.lw	a3,20(a1)
    3660:	4d98                	c.lw	a4,24(a1)
    3662:	4ddc                	c.lw	a5,28(a1)
    3664:	c910                	c.sw	a2,16(a0)
    3666:	c954                	c.sw	a3,20(a0)
    3668:	cd18                	c.sw	a4,24(a0)
    366a:	cd5c                	c.sw	a5,28(a0)
    366c:	02058593          	addi	a1,a1,32
    3670:	02050513          	addi	a0,a0,32 # 400020 <FLASH_SIZE+0x300020>
    3674:	fc654ce3          	blt	a0,t1,364c <memcpy+0x10>
    3678:	ffc3f313          	andi	t1,t2,-4
    367c:	00530333          	add	t1,t1,t0
    3680:	00655863          	bge	a0,t1,3690 <memcpy+0x54>
    3684:	4190                	c.lw	a2,0(a1)
    3686:	0591                	c.addi	a1,4
    3688:	c110                	c.sw	a2,0(a0)
    368a:	0511                	c.addi	a0,4
    368c:	fe654ce3          	blt	a0,t1,3684 <memcpy+0x48>
    3690:	00728333          	add	t1,t0,t2
    3694:	00655a63          	bge	a0,t1,36a8 <memcpy+0x6c>
    3698:	0005c603          	lbu	a2,0(a1)
    369c:	0585                	c.addi	a1,1
    369e:	00c50023          	sb	a2,0(a0)
    36a2:	0505                	c.addi	a0,1
    36a4:	fe654ae3          	blt	a0,t1,3698 <memcpy+0x5c>
    36a8:	8516                	c.mv	a0,t0
    36aa:	8082                	c.jr	ra
    36ac:	0001                	c.nop

000036ae <iprintf>:
    36ae:	7139                	c.addi16sp	sp,-64
    36b0:	d22e                	c.swsp	a1,36(sp)
    36b2:	104c                	c.addi4spn	a1,sp,36
    36b4:	ce06                	c.swsp	ra,28(sp)
    36b6:	d432                	c.swsp	a2,40(sp)
    36b8:	d636                	c.swsp	a3,44(sp)
    36ba:	d83a                	c.swsp	a4,48(sp)
    36bc:	da3e                	c.swsp	a5,52(sp)
    36be:	dc42                	c.swsp	a6,56(sp)
    36c0:	de46                	c.swsp	a7,60(sp)
    36c2:	c62e                	c.swsp	a1,12(sp)
    36c4:	20e1                	c.jal	378c <viprintf>
    36c6:	40f2                	c.lwsp	ra,28(sp)
    36c8:	6121                	c.addi16sp	sp,64
    36ca:	8082                	c.jr	ra

000036cc <putchar>:
    36cc:	3b1002ef          	jal	t0,427c <__riscv_save_0>
    36d0:	1141                	c.addi	sp,-16
    36d2:	842a                	c.mv	s0,a0
    36d4:	00a107a3          	sb	a0,15(sp)
    36d8:	4605                	c.li	a2,1
    36da:	00f10593          	addi	a1,sp,15
    36de:	4505                	c.li	a0,1
    36e0:	d9dfd0ef          	jal	ra,147c <_write>
    36e4:	e501                	c.bnez	a0,36ec <putchar+0x20>
    36e6:	4759                	c.li	a4,22
    36e8:	d8efc7ab          	swgp	a4,-628 # 8058c <__mculib_REENT_errno>
    36ec:	8522                	c.mv	a0,s0
    36ee:	0141                	c.addi	sp,16
    36f0:	3b10006f          	j	42a0 <__riscv_restore_0>

000036f4 <puts>:
    36f4:	389002ef          	jal	t0,427c <__riscv_save_0>
    36f8:	1101                	c.addi	sp,-32
    36fa:	c62a                	c.swsp	a0,12(sp)
    36fc:	2035                	c.jal	3728 <strlen>
    36fe:	45b2                	c.lwsp	a1,12(sp)
    3700:	862a                	c.mv	a2,a0
    3702:	4505                	c.li	a0,1
    3704:	d79fd0ef          	jal	ra,147c <_write>
    3708:	00054e63          	bltz	a0,3724 <puts+0x30>
    370c:	47a9                	c.li	a5,10
    370e:	4605                	c.li	a2,1
    3710:	01f10593          	addi	a1,sp,31
    3714:	4505                	c.li	a0,1
    3716:	00f10fa3          	sb	a5,31(sp)
    371a:	d63fd0ef          	jal	ra,147c <_write>
    371e:	6105                	c.addi16sp	sp,32
    3720:	3810006f          	j	42a0 <__riscv_restore_0>
    3724:	557d                	c.li	a0,-1
    3726:	bfe5                	c.j	371e <puts+0x2a>

00003728 <strlen>:
    3728:	87aa                	c.mv	a5,a0
    372a:	00350693          	addi	a3,a0,3
    372e:	9af1                	c.andi	a3,-4
    3730:	00d50863          	beq	a0,a3,3740 <strlen+0x18>
    3734:	00054583          	lbu	a1,0(a0)
    3738:	c991                	c.beqz	a1,374c <strlen+0x24>
    373a:	0505                	c.addi	a0,1
    373c:	fed51ce3          	bne	a0,a3,3734 <strlen+0xc>
    3740:	410c                	c.lw	a1,0(a0)
    3742:	200585db          	ffb	a1,a1,zero
    3746:	0511                	c.addi	a0,4
    3748:	dde5                	c.beqz	a1,3740 <strlen+0x18>
    374a:	952e                	c.add	a0,a1
    374c:	8d1d                	c.sub	a0,a5
    374e:	8082                	c.jr	ra
    3750:	0001                	c.nop

00003752 <__vprintf_help>:
    3752:	32b002ef          	jal	t0,427c <__riscv_save_0>
    3756:	d9bfa7ab          	lwgp	a5,-616 # 80598 <__printf_count>
    375a:	0785                	c.addi	a5,1
    375c:	d8ffcdab          	swgp	a5,-616 # 80598 <__printf_count>
    3760:	d97fa5ab          	lwgp	a1,-620 # 80594 <__vprintf_buf>
    3764:	d93fa7ab          	lwgp	a5,-624 # 80590 <__vprintf_buf_len>
    3768:	00178713          	addi	a4,a5,1 # ff800001 <_DATA_LMA_START+0xdf7fbb09>
    376c:	97ae                	c.add	a5,a1
    376e:	d8efc9ab          	swgp	a4,-624 # 80590 <__vprintf_buf_len>
    3772:	00a78023          	sb	a0,0(a5)
    3776:	4007695b          	bnec	a4,64,3788 <__vprintf_help+0x36>
    377a:	04000613          	li	a2,64
    377e:	4505                	c.li	a0,1
    3780:	cfdfd0ef          	jal	ra,147c <_write>
    3784:	d80fc9ab          	swgp	zero,-624 # 80590 <__vprintf_buf_len>
    3788:	3190006f          	j	42a0 <__riscv_restore_0>

0000378c <viprintf>:
    378c:	1141                	c.addi	sp,-16
    378e:	c606                	c.swsp	ra,12(sp)
    3790:	c422                	c.swsp	s0,8(sp)
    3792:	c226                	c.swsp	s1,4(sp)
    3794:	0800                	c.addi4spn	s0,sp,16
    3796:	c04a                	c.swsp	s2,0(sp)
    3798:	715d                	c.addi16sp	sp,-80
    379a:	00f10793          	addi	a5,sp,15
    379e:	00003637          	lui	a2,0x3
    37a2:	9bc1                	c.andi	a5,-16
    37a4:	75260613          	addi	a2,a2,1874 # 3752 <__vprintf_help>
    37a8:	d8ffcbab          	swgp	a5,-620 # 80594 <__vprintf_buf>
    37ac:	d80fc9ab          	swgp	zero,-624 # 80590 <__vprintf_buf_len>
    37b0:	20b5                	c.jal	381c <__printf_impl>
    37b2:	d93fa62b          	lwgp	a2,-624 # 80590 <__vprintf_buf_len>
    37b6:	d97fa5ab          	lwgp	a1,-620 # 80594 <__vprintf_buf>
    37ba:	4505                	c.li	a0,1
    37bc:	cc1fd0ef          	jal	ra,147c <_write>
    37c0:	d9bfa52b          	lwgp	a0,-616 # 80598 <__printf_count>
    37c4:	ff040113          	addi	sp,s0,-16
    37c8:	40b2                	c.lwsp	ra,12(sp)
    37ca:	4422                	c.lwsp	s0,8(sp)
    37cc:	4492                	c.lwsp	s1,4(sp)
    37ce:	4902                	c.lwsp	s2,0(sp)
    37d0:	0141                	c.addi	sp,16
    37d2:	8082                	c.jr	ra

000037d4 <__print_integral>:
    37d4:	2a9002ef          	jal	t0,427c <__riscv_save_0>
    37d8:	1101                	c.addi	sp,-32
    37da:	842a                	c.mv	s0,a0
    37dc:	84ae                	c.mv	s1,a1
    37de:	8932                	c.mv	s2,a2
    37e0:	c636                	c.swsp	a3,12(sp)
    37e2:	853a                	c.mv	a0,a4
    37e4:	85be                	c.mv	a1,a5
    37e6:	0830                	c.addi4spn	a2,sp,24
    37e8:	ca3e                	c.swsp	a5,20(sp)
    37ea:	2169                	c.jal	3c74 <__int_to_poly>
    37ec:	46b2                	c.lwsp	a3,12(sp)
    37ee:	882a                	c.mv	a6,a0
    37f0:	083c                	c.addi4spn	a5,sp,24
    37f2:	0858                	c.addi4spn	a4,sp,20
    37f4:	864a                	c.mv	a2,s2
    37f6:	85a6                	c.mv	a1,s1
    37f8:	8522                	c.mv	a0,s0
    37fa:	2969                	c.jal	3c94 <__print_integral_poly>
    37fc:	ccdf978b          	addigp	a5,-820 # 804cc <__digits>
    3800:	00a46563          	bltu	s0,a0,380a <__print_integral+0x36>
    3804:	6105                	c.addi16sp	sp,32
    3806:	29b0006f          	j	42a0 <__riscv_restore_0>
    380a:	00044703          	lbu	a4,0(s0)
    380e:	0405                	c.addi	s0,1
    3810:	973e                	c.add	a4,a5
    3812:	00074703          	lbu	a4,0(a4) # 400000 <FLASH_SIZE+0x300000>
    3816:	fee40fa3          	sb	a4,-1(s0)
    381a:	b7dd                	c.j	3800 <__print_integral+0x2c>

0000381c <__printf_impl>:
    381c:	231002ef          	jal	t0,424c <__riscv_save_12>
    3820:	a6010113          	addi	sp,sp,-1440
    3824:	6b85                	c.lui	s7,0x1
    3826:	842e                	c.mv	s0,a1
    3828:	cddf958b          	addigp	a1,-804 # 804dc <__digits+0x10>
    382c:	892a                	c.mv	s2,a0
    382e:	89b2                	c.mv	s3,a2
    3830:	01c10a93          	addi	s5,sp,28
    3834:	800b8b93          	addi	s7,s7,-2048 # 800 <analog_read_reg8+0x8>
    3838:	d80fcdab          	swgp	zero,-616 # 80598 <__printf_count>
    383c:	c42e                	c.swsp	a1,8(sp)
    383e:	00094503          	lbu	a0,0(s2)
    3842:	e509                	c.bnez	a0,384c <__printf_impl+0x30>
    3844:	5a010113          	addi	sp,sp,1440
    3848:	2410006f          	j	4288 <__riscv_restore_12>
    384c:	00190493          	addi	s1,s2,1
    3850:	005555db          	beqc	a0,37,385a <__printf_impl+0x3e>
    3854:	9982                	c.jalr	s3
    3856:	8926                	c.mv	s2,s1
    3858:	b7dd                	c.j	383e <__printf_impl+0x22>
    385a:	00194783          	lbu	a5,1(s2)
    385e:	0057e8db          	bnec	a5,37,386e <__printf_impl+0x52>
    3862:	02500513          	li	a0,37
    3866:	00290493          	addi	s1,s2,2
    386a:	9982                	c.jalr	s3
    386c:	b7ed                	c.j	3856 <__printf_impl+0x3a>
    386e:	4681                	c.li	a3,0
    3870:	4701                	c.li	a4,0
    3872:	d002                	c.swsp	zero,32(sp)
    3874:	0004c783          	lbu	a5,0(s1)
    3878:	0007e7db          	bnec	a5,32,3886 <__printf_impl+0x6a>
    387c:	00276713          	ori	a4,a4,2
    3880:	0485                	c.addi	s1,1
    3882:	4685                	c.li	a3,1
    3884:	bfc5                	c.j	3874 <__printf_impl+0x58>
    3886:	00d7e5db          	bnec	a5,45,3890 <__printf_impl+0x74>
    388a:	00476713          	ori	a4,a4,4
    388e:	bfcd                	c.j	3880 <__printf_impl+0x64>
    3890:	00b7e5db          	bnec	a5,43,389a <__printf_impl+0x7e>
    3894:	00876713          	ori	a4,a4,8
    3898:	b7e5                	c.j	3880 <__printf_impl+0x64>
    389a:	0037e5db          	bnec	a5,35,38a4 <__printf_impl+0x88>
    389e:	01076713          	ori	a4,a4,16
    38a2:	bff9                	c.j	3880 <__printf_impl+0x64>
    38a4:	0107e5db          	bnec	a5,48,38ae <__printf_impl+0x92>
    38a8:	02076713          	ori	a4,a4,32
    38ac:	bfd1                	c.j	3880 <__printf_impl+0x64>
    38ae:	c291                	c.beqz	a3,38b2 <__printf_impl+0x96>
    38b0:	d03a                	c.swsp	a4,32(sp)
    38b2:	04a7eadb          	bnec	a5,42,3906 <__printf_impl+0xea>
    38b6:	00042a03          	lw	s4,0(s0)
    38ba:	00440713          	addi	a4,s0,4
    38be:	000a5863          	bgez	s4,38ce <__printf_impl+0xb2>
    38c2:	5782                	c.lwsp	a5,32(sp)
    38c4:	41400a33          	neg	s4,s4
    38c8:	0047e793          	ori	a5,a5,4
    38cc:	d03e                	c.swsp	a5,32(sp)
    38ce:	0485                	c.addi	s1,1
    38d0:	843a                	c.mv	s0,a4
    38d2:	0004c783          	lbu	a5,0(s1)
    38d6:	5dfd                	c.li	s11,-1
    38d8:	06e7e4db          	bnec	a5,46,3940 <__printf_impl+0x124>
    38dc:	0014c783          	lbu	a5,1(s1)
    38e0:	04a7dbdb          	beqc	a5,42,3936 <__printf_impl+0x11a>
    38e4:	0485                	c.addi	s1,1
    38e6:	4d81                	c.li	s11,0
    38e8:	4725                	c.li	a4,9
    38ea:	4629                	c.li	a2,10
    38ec:	0004c783          	lbu	a5,0(s1)
    38f0:	fd078793          	addi	a5,a5,-48
    38f4:	0ff7f693          	andi	a3,a5,255
    38f8:	04d76463          	bltu	a4,a3,3940 <__printf_impl+0x124>
    38fc:	c4cd97ff          	maddr32	a5,s11,a2
    3900:	0485                	c.addi	s1,1
    3902:	8dbe                	c.mv	s11,a5
    3904:	b7e5                	c.j	38ec <__printf_impl+0xd0>
    3906:	fd078793          	addi	a5,a5,-48
    390a:	0ff7f793          	andi	a5,a5,255
    390e:	4725                	c.li	a4,9
    3910:	4a01                	c.li	s4,0
    3912:	fcf760e3          	bltu	a4,a5,38d2 <__printf_impl+0xb6>
    3916:	4725                	c.li	a4,9
    3918:	4629                	c.li	a2,10
    391a:	a029                	c.j	3924 <__printf_impl+0x108>
    391c:	c4ca17ff          	maddr32	a5,s4,a2
    3920:	0485                	c.addi	s1,1
    3922:	8a3e                	c.mv	s4,a5
    3924:	0004c783          	lbu	a5,0(s1)
    3928:	fd078793          	addi	a5,a5,-48
    392c:	0ff7f693          	andi	a3,a5,255
    3930:	fed776e3          	bgeu	a4,a3,391c <__printf_impl+0x100>
    3934:	bf79                	c.j	38d2 <__printf_impl+0xb6>
    3936:	401c                	c.lw	a5,0(s0)
    3938:	0489                	c.addi	s1,2
    393a:	0411                	c.addi	s0,4
    393c:	f2fd8dff          	maxw	s11,s11,a5
    3940:	43200613          	li	a2,1074
    3944:	0004c783          	lbu	a5,0(s1)
    3948:	f0cd867f          	minw	a2,s11,a2
    394c:	4687e8db          	bnec	a5,104,39bc <__printf_impl+0x1a0>
    3950:	5782                	c.lwsp	a5,32(sp)
    3952:	0014c703          	lbu	a4,1(s1)
    3956:	44876ddb          	bnec	a4,104,39b0 <__printf_impl+0x194>
    395a:	0407e793          	ori	a5,a5,64
    395e:	00248913          	addi	s2,s1,2
    3962:	d03e                	c.swsp	a5,32(sp)
    3964:	00094503          	lbu	a0,0(s2)
    3968:	07800793          	li	a5,120
    396c:	24a7e063          	bltu	a5,a0,3bac <__printf_impl+0x390>
    3970:	05700793          	li	a5,87
    3974:	06a7ee63          	bltu	a5,a0,39f0 <__printf_impl+0x1d4>
    3978:	4015595b          	beqc	a0,65,398a <__printf_impl+0x16e>
    397c:	fbb50793          	addi	a5,a0,-69
    3980:	0ff7f793          	andi	a5,a5,255
    3984:	4709                	c.li	a4,2
    3986:	22f76363          	bltu	a4,a5,3bac <__printf_impl+0x390>
    398a:	00740593          	addi	a1,s0,7
    398e:	99e1                	c.andi	a1,-8
    3990:	0005a803          	lw	a6,0(a1)
    3994:	0045a883          	lw	a7,4(a1)
    3998:	87aa                	c.mv	a5,a0
    399a:	02057c93          	andi	s9,a0,32
    399e:	00858413          	addi	s0,a1,8
    39a2:	86c2                	c.mv	a3,a6
    39a4:	8746                	c.mv	a4,a7
    39a6:	100c                	c.addi4spn	a1,sp,32
    39a8:	1048                	c.addi4spn	a0,sp,36
    39aa:	2e85                	c.jal	3d1a <__printf_float_impl>
    39ac:	84aa                	c.mv	s1,a0
    39ae:	a8bd                	c.j	3a2c <__printf_impl+0x210>
    39b0:	0807e793          	ori	a5,a5,128
    39b4:	00148913          	addi	s2,s1,1
    39b8:	d03e                	c.swsp	a5,32(sp)
    39ba:	b76d                	c.j	3964 <__printf_impl+0x148>
    39bc:	40c7eddb          	bnec	a5,108,39d6 <__printf_impl+0x1ba>
    39c0:	5782                	c.lwsp	a5,32(sp)
    39c2:	0014c703          	lbu	a4,1(s1)
    39c6:	40c765db          	bnec	a4,108,39d0 <__printf_impl+0x1b4>
    39ca:	2007e793          	ori	a5,a5,512
    39ce:	bf41                	c.j	395e <__printf_impl+0x142>
    39d0:	1007e793          	ori	a5,a5,256
    39d4:	b7c5                	c.j	39b4 <__printf_impl+0x198>
    39d6:	00148913          	addi	s2,s1,1
    39da:	41a7e7db          	bnec	a5,122,39e8 <__printf_impl+0x1cc>
    39de:	5782                	c.lwsp	a5,32(sp)
    39e0:	1007e793          	ori	a5,a5,256
    39e4:	d03e                	c.swsp	a5,32(sp)
    39e6:	bfbd                	c.j	3964 <__printf_impl+0x148>
    39e8:	ff47dbdb          	beqc	a5,116,39de <__printf_impl+0x1c2>
    39ec:	8926                	c.mv	s2,s1
    39ee:	bf9d                	c.j	3964 <__printf_impl+0x148>
    39f0:	fa850793          	addi	a5,a0,-88
    39f4:	0ff7f793          	andi	a5,a5,255
    39f8:	02000713          	li	a4,32
    39fc:	1af76863          	bltu	a4,a5,3bac <__printf_impl+0x390>
    3a00:	45a2                	c.lwsp	a1,8(sp)
    3a02:	0cf587db          	lea.w	a5,a1,a5
    3a06:	439c                	c.lw	a5,0(a5)
    3a08:	8782                	c.jr	a5
    3a0a:	45a9                	c.li	a1,10
    3a0c:	5782                	c.lwsp	a5,32(sp)
    3a0e:	1267f25b          	bbc	a5,6,3b32 <__printf_impl+0x316>
    3a12:	00044703          	lbu	a4,0(s0)
    3a16:	00440d13          	addi	s10,s0,4
    3a1a:	4781                	c.li	a5,0
    3a1c:	a281                	c.j	3b5c <__printf_impl+0x340>
    3a1e:	401c                	c.lw	a5,0(s0)
    3a20:	4c81                	c.li	s9,0
    3a22:	0411                	c.addi	s0,4
    3a24:	02510493          	addi	s1,sp,37
    3a28:	02f10223          	sb	a5,36(sp)
    3a2c:	02410c13          	addi	s8,sp,36
    3a30:	a01d                	c.j	3a56 <__printf_impl+0x23a>
    3a32:	00042c03          	lw	s8,0(s0)
    3a36:	85b2                	c.mv	a1,a2
    3a38:	8562                	c.mv	a0,s8
    3a3a:	c632                	c.swsp	a2,12(sp)
    3a3c:	2739                	c.jal	414a <strnlen>
    3a3e:	57fd                	c.li	a5,-1
    3a40:	00440c93          	addi	s9,s0,4
    3a44:	00fd8563          	beq	s11,a5,3a4e <__printf_impl+0x232>
    3a48:	4632                	c.lwsp	a2,12(sp)
    3a4a:	f0c5057f          	minw	a0,a0,a2
    3a4e:	8466                	c.mv	s0,s9
    3a50:	00ac04b3          	add	s1,s8,a0
    3a54:	4c81                	c.li	s9,0
    3a56:	5782                	c.lwsp	a5,32(sp)
    3a58:	02d00693          	li	a3,45
    3a5c:	40a7fb5b          	bbs	a5,10,3a72 <__printf_impl+0x256>
    3a60:	02b00693          	li	a3,43
    3a64:	4037f75b          	bbs	a5,3,3a72 <__printf_impl+0x256>
    3a68:	8d56                	c.mv	s10,s5
    3a6a:	0017f85b          	bbc	a5,1,3a7a <__printf_impl+0x25e>
    3a6e:	02000693          	li	a3,32
    3a72:	01d10d13          	addi	s10,sp,29
    3a76:	00d10e23          	sb	a3,28(sp)
    3a7a:	0177f6b3          	and	a3,a5,s7
    3a7e:	ca91                	c.beqz	a3,3a92 <__printf_impl+0x276>
    3a80:	03000693          	li	a3,48
    3a84:	00dd0023          	sb	a3,0(s10)
    3a88:	05800693          	li	a3,88
    3a8c:	00dd00a3          	sb	a3,1(s10)
    3a90:	0d09                	c.addi	s10,2
    3a92:	5627f75b          	bbs	a5,2,3c00 <__printf_impl+0x3e4>
    3a96:	41848db3          	sub	s11,s1,s8
    3a9a:	4057f95b          	bbs	a5,5,3aac <__printf_impl+0x290>
    3a9e:	41ba07b3          	sub	a5,s4,s11
    3aa2:	415d06b3          	sub	a3,s10,s5
    3aa6:	8f95                	c.sub	a5,a3
    3aa8:	16f04a63          	bgtz	a5,3c1c <__printf_impl+0x400>
    3aac:	87d6                	c.mv	a5,s5
    3aae:	a271                	c.j	3c3a <__printf_impl+0x41e>
    3ab0:	5682                	c.lwsp	a3,32(sp)
    3ab2:	0266f55b          	bbc	a3,6,3adc <__printf_impl+0x2c0>
    3ab6:	00040703          	lb	a4,0(s0)
    3aba:	00440d13          	addi	s10,s0,4
    3abe:	41f75793          	srai	a5,a4,0x1f
    3ac2:	0407d463          	bgez	a5,3b0a <__printf_impl+0x2ee>
    3ac6:	00e035b3          	snez	a1,a4
    3aca:	40f007b3          	neg	a5,a5
    3ace:	40e00733          	neg	a4,a4
    3ad2:	8f8d                	c.sub	a5,a1
    3ad4:	4006e693          	ori	a3,a3,1024
    3ad8:	d036                	c.swsp	a3,32(sp)
    3ada:	a805                	c.j	3b0a <__printf_impl+0x2ee>
    3adc:	0076f75b          	bbc	a3,7,3aea <__printf_impl+0x2ce>
    3ae0:	00041703          	lh	a4,0(s0)
    3ae4:	00440d13          	addi	s10,s0,4
    3ae8:	bfd9                	c.j	3abe <__printf_impl+0x2a2>
    3aea:	0086f65b          	bbc	a3,8,3af6 <__printf_impl+0x2da>
    3aee:	4018                	c.lw	a4,0(s0)
    3af0:	00440d13          	addi	s10,s0,4
    3af4:	b7e9                	c.j	3abe <__printf_impl+0x2a2>
    3af6:	be96fc5b          	bbc	a3,9,3aee <__printf_impl+0x2d2>
    3afa:	041d                	c.addi	s0,7
    3afc:	9861                	c.andi	s0,-8
    3afe:	405c                	c.lw	a5,4(s0)
    3b00:	4018                	c.lw	a4,0(s0)
    3b02:	00840d13          	addi	s10,s0,8
    3b06:	0007c963          	bltz	a5,3b18 <__printf_impl+0x2fc>
    3b0a:	56fd                	c.li	a3,-1
    3b0c:	45a9                	c.li	a1,10
    3b0e:	4c81                	c.li	s9,0
    3b10:	04dd9b63          	bne	s11,a3,3b66 <__printf_impl+0x34a>
    3b14:	4605                	c.li	a2,1
    3b16:	a0bd                	c.j	3b84 <__printf_impl+0x368>
    3b18:	f75d                	c.bnez	a4,3ac6 <__printf_impl+0x2aa>
    3b1a:	800005b7          	lui	a1,0x80000
    3b1e:	fab794e3          	bne	a5,a1,3ac6 <__printf_impl+0x2aa>
    3b22:	4701                	c.li	a4,0
    3b24:	800007b7          	lui	a5,0x80000
    3b28:	b775                	c.j	3ad4 <__printf_impl+0x2b8>
    3b2a:	45c1                	c.li	a1,16
    3b2c:	b5c5                	c.j	3a0c <__printf_impl+0x1f0>
    3b2e:	45a1                	c.li	a1,8
    3b30:	bdf1                	c.j	3a0c <__printf_impl+0x1f0>
    3b32:	0077f75b          	bbc	a5,7,3b40 <__printf_impl+0x324>
    3b36:	00045703          	lhu	a4,0(s0)
    3b3a:	00440d13          	addi	s10,s0,4
    3b3e:	bdf1                	c.j	3a1a <__printf_impl+0x1fe>
    3b40:	0087f65b          	bbc	a5,8,3b4c <__printf_impl+0x330>
    3b44:	4018                	c.lw	a4,0(s0)
    3b46:	00440d13          	addi	s10,s0,4
    3b4a:	bdc1                	c.j	3a1a <__printf_impl+0x1fe>
    3b4c:	be97fc5b          	bbc	a5,9,3b44 <__printf_impl+0x328>
    3b50:	041d                	c.addi	s0,7
    3b52:	9861                	c.andi	s0,-8
    3b54:	4018                	c.lw	a4,0(s0)
    3b56:	405c                	c.lw	a5,4(s0)
    3b58:	00840d13          	addi	s10,s0,8
    3b5c:	56fd                	c.li	a3,-1
    3b5e:	02057c93          	andi	s9,a0,32
    3b62:	02dd8863          	beq	s11,a3,3b92 <__printf_impl+0x376>
    3b66:	5682                	c.lwsp	a3,32(sp)
    3b68:	fdf6f693          	andi	a3,a3,-33
    3b6c:	d036                	c.swsp	a3,32(sp)
    3b6e:	0105eb5b          	bnec	a1,16,3b84 <__printf_impl+0x368>
    3b72:	5682                	c.lwsp	a3,32(sp)
    3b74:	0046f85b          	bbc	a3,4,3b84 <__printf_impl+0x368>
    3b78:	00f76533          	or	a0,a4,a5
    3b7c:	c501                	c.beqz	a0,3b84 <__printf_impl+0x368>
    3b7e:	0176e6b3          	or	a3,a3,s7
    3b82:	d036                	c.swsp	a3,32(sp)
    3b84:	86b2                	c.mv	a3,a2
    3b86:	5602                	c.lwsp	a2,32(sp)
    3b88:	1048                	c.addi4spn	a0,sp,36
    3b8a:	31a9                	c.jal	37d4 <__print_integral>
    3b8c:	846a                	c.mv	s0,s10
    3b8e:	84aa                	c.mv	s1,a0
    3b90:	bd71                	c.j	3a2c <__printf_impl+0x210>
    3b92:	4605                	c.li	a2,1
    3b94:	bfe9                	c.j	3b6e <__printf_impl+0x352>
    3b96:	5602                	c.lwsp	a2,32(sp)
    3b98:	d9bfa7ab          	lwgp	a5,-616 # 80598 <__printf_count>
    3b9c:	4018                	c.lw	a4,0(s0)
    3b9e:	00440693          	addi	a3,s0,4
    3ba2:	0066795b          	bbc	a2,6,3bb4 <__printf_impl+0x398>
    3ba6:	00f70023          	sb	a5,0(a4)
    3baa:	8436                	c.mv	s0,a3
    3bac:	1044                	c.addi4spn	s1,sp,36
    3bae:	4c81                	c.li	s9,0
    3bb0:	8c26                	c.mv	s8,s1
    3bb2:	b555                	c.j	3a56 <__printf_impl+0x23a>
    3bb4:	0076755b          	bbc	a2,7,3bbe <__printf_impl+0x3a2>
    3bb8:	00f71023          	sh	a5,0(a4)
    3bbc:	b7fd                	c.j	3baa <__printf_impl+0x38e>
    3bbe:	c31c                	c.sw	a5,0(a4)
    3bc0:	fe86755b          	bbs	a2,8,3baa <__printf_impl+0x38e>
    3bc4:	be96735b          	bbc	a2,9,3baa <__printf_impl+0x38e>
    3bc8:	87fd                	c.srai	a5,0x1f
    3bca:	c35c                	c.sw	a5,4(a4)
    3bcc:	bff9                	c.j	3baa <__printf_impl+0x38e>
    3bce:	000dc503          	lbu	a0,0(s11)
    3bd2:	0d85                	c.addi	s11,1
    3bd4:	00ace533          	or	a0,s9,a0
    3bd8:	9982                	c.jalr	s3
    3bda:	ffadeae3          	bltu	s11,s10,3bce <__printf_impl+0x3b2>
    3bde:	4781                	c.li	a5,0
    3be0:	015d6463          	bltu	s10,s5,3be8 <__printf_impl+0x3cc>
    3be4:	41aa87b3          	sub	a5,s5,s10
    3be8:	9a3e                	c.add	s4,a5
    3bea:	8d62                	c.mv	s10,s8
    3bec:	01a49c63          	bne	s1,s10,3c04 <__printf_impl+0x3e8>
    3bf0:	418484b3          	sub	s1,s1,s8
    3bf4:	409a04b3          	sub	s1,s4,s1
    3bf8:	00904d63          	bgtz	s1,3c12 <__printf_impl+0x3f6>
    3bfc:	0905                	c.addi	s2,1
    3bfe:	b181                	c.j	383e <__printf_impl+0x22>
    3c00:	8dd6                	c.mv	s11,s5
    3c02:	bfe1                	c.j	3bda <__printf_impl+0x3be>
    3c04:	000d4503          	lbu	a0,0(s10)
    3c08:	0d05                	c.addi	s10,1
    3c0a:	00ace533          	or	a0,s9,a0
    3c0e:	9982                	c.jalr	s3
    3c10:	bff1                	c.j	3bec <__printf_impl+0x3d0>
    3c12:	02000513          	li	a0,32
    3c16:	14fd                	c.addi	s1,-1
    3c18:	9982                	c.jalr	s3
    3c1a:	bff9                	c.j	3bf8 <__printf_impl+0x3dc>
    3c1c:	02000513          	li	a0,32
    3c20:	c63e                	c.swsp	a5,12(sp)
    3c22:	9982                	c.jalr	s3
    3c24:	47b2                	c.lwsp	a5,12(sp)
    3c26:	17fd                	c.addi	a5,-1
    3c28:	b541                	c.j	3aa8 <__printf_impl+0x28c>
    3c2a:	0007c503          	lbu	a0,0(a5) # 80000000 <_DATA_LMA_START+0x5fffbb08>
    3c2e:	c63e                	c.swsp	a5,12(sp)
    3c30:	00ace533          	or	a0,s9,a0
    3c34:	9982                	c.jalr	s3
    3c36:	47b2                	c.lwsp	a5,12(sp)
    3c38:	0785                	c.addi	a5,1
    3c3a:	ffa7e8e3          	bltu	a5,s10,3c2a <__printf_impl+0x40e>
    3c3e:	4781                	c.li	a5,0
    3c40:	015d6463          	bltu	s10,s5,3c48 <__printf_impl+0x42c>
    3c44:	41aa87b3          	sub	a5,s5,s10
    3c48:	9a3e                	c.add	s4,a5
    3c4a:	5782                	c.lwsp	a5,32(sp)
    3c4c:	0057f65b          	bbc	a5,5,3c58 <__printf_impl+0x43c>
    3c50:	41ba0a33          	sub	s4,s4,s11
    3c54:	01404b63          	bgtz	s4,3c6a <__printf_impl+0x44e>
    3c58:	fb8482e3          	beq	s1,s8,3bfc <__printf_impl+0x3e0>
    3c5c:	000c4503          	lbu	a0,0(s8)
    3c60:	0c05                	c.addi	s8,1
    3c62:	00ace533          	or	a0,s9,a0
    3c66:	9982                	c.jalr	s3
    3c68:	bfc5                	c.j	3c58 <__printf_impl+0x43c>
    3c6a:	03000513          	li	a0,48
    3c6e:	1a7d                	c.addi	s4,-1
    3c70:	9982                	c.jalr	s3
    3c72:	b7cd                	c.j	3c54 <__printf_impl+0x438>

00003c74 <__int_to_poly>:
    3c74:	872a                	c.mv	a4,a0
    3c76:	87ae                	c.mv	a5,a1
    3c78:	4501                	c.li	a0,0
    3c7a:	00f766b3          	or	a3,a4,a5
    3c7e:	e291                	c.bnez	a3,3c82 <__int_to_poly+0xe>
    3c80:	8082                	c.jr	ra
    3c82:	0aa606db          	lea.h	a3,a2,a0
    3c86:	00e69023          	sh	a4,0(a3)
    3c8a:	0505                	c.addi	a0,1
    3c8c:	df07077f          	wexti	a4,a4,16
    3c90:	83c1                	c.srli	a5,0x10
    3c92:	b7e5                	c.j	3c7a <__int_to_poly+0x6>

00003c94 <__print_integral_poly>:
    3c94:	5e8002ef          	jal	t0,427c <__riscv_save_0>
    3c98:	84ba                	c.mv	s1,a4
    3c9a:	fff80893          	addi	a7,a6,-1 # fffff <_STACK_TOP+0x5ffff>
    3c9e:	0b07875b          	lea.h	a4,a5,a6
    3ca2:	8346                	c.mv	t1,a7
    3ca4:	4401                	c.li	s0,0
    3ca6:	8e3a                	c.mv	t3,a4
    3ca8:	1779                	c.addi	a4,-2
    3caa:	02035563          	bgez	t1,3cd4 <__print_integral_poly+0x40>
    3cae:	03005f63          	blez	a6,3cec <__print_integral_poly+0x58>
    3cb2:	ffee5703          	lhu	a4,-2(t3)
    3cb6:	e701                	c.bnez	a4,3cbe <__print_integral_poly+0x2a>
    3cb8:	03105a63          	blez	a7,3cec <__print_integral_poly+0x58>
    3cbc:	8846                	c.mv	a6,a7
    3cbe:	8726                	c.mv	a4,s1
    3cc0:	16fd                	c.addi	a3,-1
    3cc2:	3fc9                	c.jal	3c94 <__print_integral_poly>
    3cc4:	87aa                	c.mv	a5,a0
    3cc6:	0505                	c.addi	a0,1
    3cc8:	00878023          	sb	s0,0(a5)
    3ccc:	409c                	c.lw	a5,0(s1)
    3cce:	0785                	c.addi	a5,1
    3cd0:	c09c                	c.sw	a5,0(s1)
    3cd2:	a3f9                	c.j	42a0 <__riscv_restore_0>
    3cd4:	00075e83          	lhu	t4,0(a4)
    3cd8:	0442                	c.slli	s0,0x10
    3cda:	9476                	c.add	s0,t4
    3cdc:	02b45eb3          	divu	t4,s0,a1
    3ce0:	137d                	c.addi	t1,-1
    3ce2:	02b47433          	remu	s0,s0,a1
    3ce6:	01d71023          	sh	t4,0(a4)
    3cea:	bf7d                	c.j	3ca8 <__print_integral_poly+0x14>
    3cec:	c011                	c.beqz	s0,3cf0 <__print_integral_poly+0x5c>
    3cee:	16fd                	c.addi	a3,-1
    3cf0:	00d04763          	bgtz	a3,3cfe <__print_integral_poly+0x6a>
    3cf4:	0085ee5b          	bnec	a1,8,3d10 <__print_integral_poly+0x7c>
    3cf8:	00467c5b          	bbc	a2,4,3d10 <__print_integral_poly+0x7c>
    3cfc:	4685                	c.li	a3,1
    3cfe:	4781                	c.li	a5,0
    3d00:	00f50733          	add	a4,a0,a5
    3d04:	00070023          	sb	zero,0(a4)
    3d08:	0785                	c.addi	a5,1
    3d0a:	fed7cbe3          	blt	a5,a3,3d00 <__print_integral_poly+0x6c>
    3d0e:	9536                	c.add	a0,a3
    3d10:	dc55                	c.beqz	s0,3ccc <__print_integral_poly+0x38>
    3d12:	00850023          	sb	s0,0(a0)
    3d16:	0505                	c.addi	a0,1
    3d18:	bf55                	c.j	3ccc <__print_integral_poly+0x38>

00003d1a <__printf_float_impl>:
    3d1a:	532002ef          	jal	t0,424c <__riscv_save_12>
    3d1e:	7169                	c.addi16sp	sp,-304
    3d20:	0df7fd13          	andi	s10,a5,223
    3d24:	c03e                	c.swsp	a5,0(sp)
    3d26:	8aaa                	c.mv	s5,a0
    3d28:	892e                	c.mv	s2,a1
    3d2a:	84b2                	c.mv	s1,a2
    3d2c:	8c36                	c.mv	s8,a3
    3d2e:	8cba                	c.mv	s9,a4
    3d30:	467d6c5b          	bnec	s10,71,3da8 <__printf_float_impl+0x8e>
    3d34:	0005a983          	lw	s3,0(a1) # 80000000 <_DATA_LMA_START+0x5fffbb08>
    3d38:	0109c993          	xori	s3,s3,16
    3d3c:	1049a9db          	bfoz	s3,s3,4,4
    3d40:	0604da63          	bgez	s1,3db4 <__printf_float_impl+0x9a>
    3d44:	44b5                	c.li	s1,13
    3d46:	401d535b          	beqc	s10,65,3d4c <__printf_float_impl+0x32>
    3d4a:	4499                	c.li	s1,6
    3d4c:	dffc047f          	wexti	s0,s8,31
    3d50:	c262                	c.swsp	s8,4(sp)
    3d52:	8055                	c.srli	s0,0x15
    3d54:	4c0caa5b          	bfoz	s4,s9,19,0
    3d58:	000cd863          	bgez	s9,3d68 <__printf_float_impl+0x4e>
    3d5c:	00092703          	lw	a4,0(s2)
    3d60:	40076713          	ori	a4,a4,1024
    3d64:	00e92023          	sw	a4,0(s2)
    3d68:	401d6a5b          	bnec	s10,65,3d7c <__printf_float_impl+0x62>
    3d6c:	00092703          	lw	a4,0(s2)
    3d70:	6685                	c.lui	a3,0x1
    3d72:	80068693          	addi	a3,a3,-2048 # 800 <analog_read_reg8+0x8>
    3d76:	8f55                	c.or	a4,a3
    3d78:	00e92023          	sw	a4,0(s2)
    3d7c:	7ff00713          	li	a4,2047
    3d80:	04e41563          	bne	s0,a4,3dca <__printf_float_impl+0xb0>
    3d84:	00092703          	lw	a4,0(s2)
    3d88:	018a65b3          	or	a1,s4,s8
    3d8c:	fdf77713          	andi	a4,a4,-33
    3d90:	00e92023          	sw	a4,0(s2)
    3d94:	c595                	c.beqz	a1,3dc0 <__printf_float_impl+0xa6>
    3d96:	000805b7          	lui	a1,0x80
    3d9a:	56058593          	addi	a1,a1,1376 # 80560 <__digits+0x94>
    3d9e:	8556                	c.mv	a0,s5
    3da0:	2e95                	c.jal	4114 <strcpy>
    3da2:	050d                	c.addi	a0,3
    3da4:	6155                	c.addi16sp	sp,304
    3da6:	a1cd                	c.j	4288 <__riscv_restore_12>
    3da8:	4981                	c.li	s3,0
    3daa:	f81d6b5b          	bnec	s10,65,3d40 <__printf_float_impl+0x26>
    3dae:	01f65993          	srli	s3,a2,0x1f
    3db2:	b779                	c.j	3d40 <__printf_float_impl+0x26>
    3db4:	fcc1                	c.bnez	s1,3d4c <__printf_float_impl+0x32>
    3db6:	fb9d0493          	addi	s1,s10,-71
    3dba:	0014b493          	seqz	s1,s1
    3dbe:	b779                	c.j	3d4c <__printf_float_impl+0x32>
    3dc0:	000805b7          	lui	a1,0x80
    3dc4:	56458593          	addi	a1,a1,1380 # 80564 <__digits+0x98>
    3dc8:	bfd9                	c.j	3d9e <__printf_float_impl+0x84>
    3dca:	e811                	c.bnez	s0,3dde <__printf_float_impl+0xc4>
    3dcc:	018a6733          	or	a4,s4,s8
    3dd0:	c0300413          	li	s0,-1021
    3dd4:	18071263          	bnez	a4,3f58 <__printf_float_impl+0x23e>
    3dd8:	03500413          	li	s0,53
    3ddc:	a819                	c.j	3df2 <__printf_float_impl+0xd8>
    3dde:	00100737          	lui	a4,0x100
    3de2:	01476a33          	or	s4,a4,s4
    3de6:	c0240413          	addi	s0,s0,-1022
    3dea:	03400713          	li	a4,52
    3dee:	16875363          	bge	a4,s0,3f54 <__printf_float_impl+0x23a>
    3df2:	fcb40413          	addi	s0,s0,-53
    3df6:	00445b13          	srli	s6,s0,0x4
    3dfa:	001b1b93          	slli	s7,s6,0x1
    3dfe:	865e                	c.mv	a2,s7
    3e00:	4581                	c.li	a1,0
    3e02:	1008                	c.addi4spn	a0,sp,32
    3e04:	2685                	c.jal	4164 <memset>
    3e06:	883d                	c.andi	s0,15
    3e08:	1a14                	c.addi4spn	a3,sp,304
    3e0a:	8622                	c.mv	a2,s0
    3e0c:	8562                	c.mv	a0,s8
    3e0e:	85d2                	c.mv	a1,s4
    3e10:	9bb6                	c.add	s7,a3
    3e12:	2129                	c.jal	421c <__ashldi3>
    3e14:	0b05                	c.addi	s6,1
    3e16:	100c                	c.addi4spn	a1,sp,32
    3e18:	4641                	c.li	a2,16
    3e1a:	eeab9823          	sh	a0,-272(s7)
    3e1e:	8e01                	c.sub	a2,s0
    3e20:	0b658bdb          	lea.h	s7,a1,s6
    3e24:	8562                	c.mv	a0,s8
    3e26:	85d2                	c.mv	a1,s4
    3e28:	26d1                	c.jal	41ec <__lshrdi3>
    3e2a:	865e                	c.mv	a2,s7
    3e2c:	35a1                	c.jal	3c74 <__int_to_poly>
    3e2e:	4d81                	c.li	s11,0
    3e30:	9b2a                	c.add	s6,a0
    3e32:	57fd                	c.li	a5,-1
    3e34:	ce3e                	c.swsp	a5,28(sp)
    3e36:	4441                	c.li	s0,16
    3e38:	401d535b          	beqc	s10,65,3e3e <__printf_float_impl+0x124>
    3e3c:	4429                	c.li	s0,10
    3e3e:	885a                	c.mv	a6,s6
    3e40:	101c                	c.addi4spn	a5,sp,32
    3e42:	4685                	c.li	a3,1
    3e44:	85a2                	c.mv	a1,s0
    3e46:	0878                	c.addi4spn	a4,sp,28
    3e48:	4601                	c.li	a2,0
    3e4a:	8556                	c.mv	a0,s5
    3e4c:	35a1                	c.jal	3c94 <__print_integral_poly>
    3e4e:	4582                	c.lwsp	a1,0(sp)
    3e50:	02e00793          	li	a5,46
    3e54:	001b3b13          	seqz	s6,s6
    3e58:	00f50023          	sb	a5,0(a0)
    3e5c:	0db5fa13          	andi	s4,a1,219
    3e60:	00150693          	addi	a3,a0,1
    3e64:	87da                	c.mv	a5,s6
    3e66:	401a535b          	beqc	s4,65,3e6c <__printf_float_impl+0x152>
    3e6a:	4781                	c.li	a5,0
    3e6c:	00148713          	addi	a4,s1,1
    3e70:	973e                	c.add	a4,a5
    3e72:	fffd8893          	addi	a7,s11,-1
    3e76:	1130                	c.addi4spn	a2,sp,168
    3e78:	001d9593          	slli	a1,s11,0x1
    3e7c:	0bb6065b          	lea.h	a2,a2,s11
    3e80:	8846                	c.mv	a6,a7
    3e82:	4781                	c.li	a5,0
    3e84:	1679                	c.addi	a2,-2
    3e86:	16085b63          	bgez	a6,3ffc <__printf_float_impl+0x2e2>
    3e8a:	01b05863          	blez	s11,3e9a <__printf_float_impl+0x180>
    3e8e:	1a10                	c.addi4spn	a2,sp,304
    3e90:	962e                	c.add	a2,a1
    3e92:	f7665603          	lhu	a2,-138(a2)
    3e96:	e211                	c.bnez	a2,3e9a <__printf_float_impl+0x180>
    3e98:	8dc6                	c.mv	s11,a7
    3e9a:	160b0a63          	beqz	s6,400e <__printf_float_impl+0x2f4>
    3e9e:	4672                	c.lwsp	a2,28(sp)
    3ea0:	0017bb13          	seqz	s6,a5
    3ea4:	167d                	c.addi	a2,-1
    3ea6:	ce32                	c.swsp	a2,28(sp)
    3ea8:	00f68023          	sb	a5,0(a3)
    3eac:	0685                	c.addi	a3,1
    3eae:	f371                	c.bnez	a4,3e72 <__printf_float_impl+0x158>
    3eb0:	567d625b          	bnec	s10,71,4014 <__printf_float_impl+0x2fa>
    3eb4:	47f2                	c.lwsp	a5,28(sp)
    3eb6:	fff48713          	addi	a4,s1,-1
    3eba:	1697df63          	bge	a5,s1,4038 <__printf_float_impl+0x31e>
    3ebe:	5671                	c.li	a2,-4
    3ec0:	16c7cc63          	blt	a5,a2,4038 <__printf_float_impl+0x31e>
    3ec4:	40f704b3          	sub	s1,a4,a5
    3ec8:	04600d13          	li	s10,70
    3ecc:	0489                	c.addi	s1,2
    3ece:	9526                	c.add	a0,s1
    3ed0:	fff54683          	lbu	a3,-1(a0)
    3ed4:	40145713          	srai	a4,s0,0x1
    3ed8:	fff50793          	addi	a5,a0,-1
    3edc:	00e6a6b3          	slt	a3,a3,a4
    3ee0:	0016c693          	xori	a3,a3,1
    3ee4:	863e                	c.mv	a2,a5
    3ee6:	1acaf463          	bgeu	s5,a2,408e <__printf_float_impl+0x374>
    3eea:	18069063          	bnez	a3,406a <__printf_float_impl+0x350>
    3eee:	17fd                	c.addi	a5,-1
    3ef0:	00178513          	addi	a0,a5,1
    3ef4:	00faf763          	bgeu	s5,a5,3f02 <__printf_float_impl+0x1e8>
    3ef8:	00098563          	beqz	s3,3f02 <__printf_float_impl+0x1e8>
    3efc:	0007c703          	lbu	a4,0(a5)
    3f00:	d77d                	c.beqz	a4,3eee <__printf_float_impl+0x1d4>
    3f02:	fff54783          	lbu	a5,-1(a0)
    3f06:	00e7e7db          	bnec	a5,46,3f14 <__printf_float_impl+0x1fa>
    3f0a:	00092783          	lw	a5,0(s2)
    3f0e:	4047f35b          	bbs	a5,4,3f14 <__printf_float_impl+0x1fa>
    3f12:	157d                	c.addi	a0,-1
    3f14:	46bd                	c.li	a3,15
    3f16:	ccdf970b          	addigp	a4,-820 # 804cc <__digits>
    3f1a:	1aaae863          	bltu	s5,a0,40ca <__printf_float_impl+0x3b0>
    3f1e:	5c5d615b          	bnec	s10,69,40e0 <__printf_float_impl+0x3c6>
    3f22:	01a50023          	sb	s10,0(a0)
    3f26:	4772                	c.lwsp	a4,28(sp)
    3f28:	02b00793          	li	a5,43
    3f2c:	00075463          	bgez	a4,3f34 <__printf_float_impl+0x21a>
    3f30:	02d00793          	li	a5,45
    3f34:	00f500a3          	sb	a5,1(a0)
    3f38:	47f2                	c.lwsp	a5,28(sp)
    3f3a:	4689                	c.li	a3,2
    3f3c:	40f00733          	neg	a4,a5
    3f40:	f2f7077f          	maxw	a4,a4,a5
    3f44:	41f75793          	srai	a5,a4,0x1f
    3f48:	4601                	c.li	a2,0
    3f4a:	45a9                	c.li	a1,10
    3f4c:	0509                	c.addi	a0,2
    3f4e:	887ff0ef          	jal	ra,37d4 <__print_integral>
    3f52:	bd89                	c.j	3da4 <__printf_float_impl+0x8a>
    3f54:	06804063          	bgtz	s0,3fb4 <__printf_float_impl+0x29a>
    3f58:	40800433          	neg	s0,s0
    3f5c:	00445b13          	srli	s6,s0,0x4
    3f60:	001b1b93          	slli	s7,s6,0x1
    3f64:	865e                	c.mv	a2,s7
    3f66:	4581                	c.li	a1,0
    3f68:	1128                	c.addi4spn	a0,sp,168
    3f6a:	2aed                	c.jal	4164 <memset>
    3f6c:	1134                	c.addi4spn	a3,sp,168
    3f6e:	883d                	c.andi	s0,15
    3f70:	9bb6                	c.add	s7,a3
    3f72:	02540413          	addi	s0,s0,37
    3f76:	885e                	c.mv	a6,s7
    3f78:	4701                	c.li	a4,0
    3f7a:	4512                	c.lwsp	a0,4(sp)
    3f7c:	8622                	c.mv	a2,s0
    3f7e:	8dba                	c.mv	s11,a4
    3f80:	85d2                	c.mv	a1,s4
    3f82:	0705                	c.addi	a4,1
    3f84:	c642                	c.swsp	a6,12(sp)
    3f86:	c43a                	c.swsp	a4,8(sp)
    3f88:	2495                	c.jal	41ec <__lshrdi3>
    3f8a:	4832                	c.lwsp	a6,12(sp)
    3f8c:	1441                	c.addi	s0,-16
    3f8e:	00a81023          	sh	a0,0(a6)
    3f92:	4722                	c.lwsp	a4,8(sp)
    3f94:	0809                	c.addi	a6,2
    3f96:	fe0452e3          	bgez	s0,3f7a <__printf_float_impl+0x260>
    3f9a:	0aeb8bdb          	lea.h	s7,s7,a4
    3f9e:	40800633          	neg	a2,s0
    3fa2:	8562                	c.mv	a0,s8
    3fa4:	85d2                	c.mv	a1,s4
    3fa6:	0d89                	c.addi	s11,2
    3fa8:	9dda                	c.add	s11,s6
    3faa:	2c8d                	c.jal	421c <__ashldi3>
    3fac:	4b01                	c.li	s6,0
    3fae:	00ab9023          	sh	a0,0(s7)
    3fb2:	b541                	c.j	3e32 <__printf_float_impl+0x118>
    3fb4:	03500613          	li	a2,53
    3fb8:	8e01                	c.sub	a2,s0
    3fba:	8562                	c.mv	a0,s8
    3fbc:	85d2                	c.mv	a1,s4
    3fbe:	243d                	c.jal	41ec <__lshrdi3>
    3fc0:	1010                	c.addi4spn	a2,sp,32
    3fc2:	394d                	c.jal	3c74 <__int_to_poly>
    3fc4:	02500613          	li	a2,37
    3fc8:	8b2a                	c.mv	s6,a0
    3fca:	40860433          	sub	s0,a2,s0
    3fce:	0a810b93          	addi	s7,sp,168
    3fd2:	4d81                	c.li	s11,0
    3fd4:	0d85                	c.addi	s11,1
    3fd6:	00045a63          	bgez	s0,3fea <__printf_float_impl+0x2d0>
    3fda:	40800633          	neg	a2,s0
    3fde:	8562                	c.mv	a0,s8
    3fe0:	85d2                	c.mv	a1,s4
    3fe2:	2c2d                	c.jal	421c <__ashldi3>
    3fe4:	00ab9023          	sh	a0,0(s7)
    3fe8:	b5a9                	c.j	3e32 <__printf_float_impl+0x118>
    3fea:	4512                	c.lwsp	a0,4(sp)
    3fec:	8622                	c.mv	a2,s0
    3fee:	85d2                	c.mv	a1,s4
    3ff0:	2af5                	c.jal	41ec <__lshrdi3>
    3ff2:	1441                	c.addi	s0,-16
    3ff4:	00ab9023          	sh	a0,0(s7)
    3ff8:	0b89                	c.addi	s7,2
    3ffa:	bfe9                	c.j	3fd4 <__printf_float_impl+0x2ba>
    3ffc:	00065303          	lhu	t1,0(a2)
    4000:	187d                	c.addi	a6,-1
    4002:	c48317ff          	maddr32	a5,t1,s0
    4006:	00f61023          	sh	a5,0(a2)
    400a:	83c1                	c.srli	a5,0x10
    400c:	bda5                	c.j	3e84 <__printf_float_impl+0x16a>
    400e:	177d                	c.addi	a4,-1
    4010:	4b01                	c.li	s6,0
    4012:	bd59                	c.j	3ea8 <__printf_float_impl+0x18e>
    4014:	8726                	c.mv	a4,s1
    4016:	ea6d5b5b          	beqc	s10,70,3ecc <__printf_float_impl+0x1b2>
    401a:	47f2                	c.lwsp	a5,28(sp)
    401c:	001a8613          	addi	a2,s5,1
    4020:	02f04463          	bgtz	a5,4048 <__printf_float_impl+0x32e>
    4024:	c785                	c.beqz	a5,404c <__printf_float_impl+0x332>
    4026:	40f507b3          	sub	a5,a0,a5
    402a:	02d7e963          	bltu	a5,a3,405c <__printf_float_impl+0x342>
    402e:	001ac783          	lbu	a5,1(s5)
    4032:	00fa8023          	sb	a5,0(s5)
    4036:	a819                	c.j	404c <__printf_float_impl+0x332>
    4038:	04500d13          	li	s10,69
    403c:	bff9                	c.j	401a <__printf_float_impl+0x300>
    403e:	fff54783          	lbu	a5,-1(a0)
    4042:	157d                	c.addi	a0,-1
    4044:	00f500a3          	sb	a5,1(a0)
    4048:	fec51be3          	bne	a0,a2,403e <__printf_float_impl+0x324>
    404c:	02e00793          	li	a5,46
    4050:	001a8513          	addi	a0,s5,1
    4054:	84ba                	c.mv	s1,a4
    4056:	00fa80a3          	sb	a5,1(s5)
    405a:	bd8d                	c.j	3ecc <__printf_float_impl+0x1b2>
    405c:	0007c603          	lbu	a2,0(a5)
    4060:	0785                	c.addi	a5,1
    4062:	0505                	c.addi	a0,1
    4064:	fec50fa3          	sb	a2,-1(a0)
    4068:	b7c9                	c.j	402a <__printf_float_impl+0x310>
    406a:	167d                	c.addi	a2,-1
    406c:	00064703          	lbu	a4,0(a2)
    4070:	a6e75bdb          	beqc	a4,46,3ee6 <__printf_float_impl+0x1cc>
    4074:	0705                	c.addi	a4,1
    4076:	0ff77713          	andi	a4,a4,255
    407a:	00875663          	bge	a4,s0,4086 <__printf_float_impl+0x36c>
    407e:	4681                	c.li	a3,0
    4080:	00e60023          	sb	a4,0(a2)
    4084:	b58d                	c.j	3ee6 <__printf_float_impl+0x1cc>
    4086:	8f01                	c.sub	a4,s0
    4088:	00e60023          	sb	a4,0(a2)
    408c:	bda9                	c.j	3ee6 <__printf_float_impl+0x1cc>
    408e:	873e                	c.mv	a4,a5
    4090:	e4068fe3          	beqz	a3,3eee <__printf_float_impl+0x1d4>
    4094:	02eae363          	bltu	s5,a4,40ba <__printf_float_impl+0x3a0>
    4098:	4705                	c.li	a4,1
    409a:	00ea8023          	sb	a4,0(s5)
    409e:	4772                	c.lwsp	a4,28(sp)
    40a0:	0705                	c.addi	a4,1
    40a2:	ce3a                	c.swsp	a4,28(sp)
    40a4:	426d515b          	beqc	s10,70,40c6 <__printf_float_impl+0x3ac>
    40a8:	001ac703          	lbu	a4,1(s5)
    40ac:	00ea8123          	sb	a4,2(s5)
    40b0:	02e00713          	li	a4,46
    40b4:	00ea80a3          	sb	a4,1(s5)
    40b8:	bd1d                	c.j	3eee <__printf_float_impl+0x1d4>
    40ba:	fff74683          	lbu	a3,-1(a4) # fffff <_STACK_TOP+0x5ffff>
    40be:	177d                	c.addi	a4,-1
    40c0:	00d700a3          	sb	a3,1(a4)
    40c4:	bfc1                	c.j	4094 <__printf_float_impl+0x37a>
    40c6:	87aa                	c.mv	a5,a0
    40c8:	b51d                	c.j	3eee <__printf_float_impl+0x1d4>
    40ca:	000ac783          	lbu	a5,0(s5)
    40ce:	00f6e763          	bltu	a3,a5,40dc <__printf_float_impl+0x3c2>
    40d2:	97ba                	c.add	a5,a4
    40d4:	0007c783          	lbu	a5,0(a5)
    40d8:	00fa8023          	sb	a5,0(s5)
    40dc:	0a85                	c.addi	s5,1
    40de:	bd35                	c.j	3f1a <__printf_float_impl+0x200>
    40e0:	cc1d625b          	bnec	s10,65,3da4 <__printf_float_impl+0x8a>
    40e4:	05000793          	li	a5,80
    40e8:	00f50023          	sb	a5,0(a0)
    40ec:	4772                	c.lwsp	a4,28(sp)
    40ee:	02b00793          	li	a5,43
    40f2:	00075463          	bgez	a4,40fa <__printf_float_impl+0x3e0>
    40f6:	02d00793          	li	a5,45
    40fa:	00f500a3          	sb	a5,1(a0)
    40fe:	4772                	c.lwsp	a4,28(sp)
    4100:	4685                	c.li	a3,1
    4102:	40e007b3          	neg	a5,a4
    4106:	f2e787ff          	maxw	a5,a5,a4
    410a:	00279713          	slli	a4,a5,0x2
    410e:	75d7b7db          	bfos	a5,a5,29,29
    4112:	bd1d                	c.j	3f48 <__printf_float_impl+0x22e>

00004114 <strcpy>:
    4114:	832a                	c.mv	t1,a0
    4116:	00b566b3          	or	a3,a0,a1
    411a:	8a8d                	c.andi	a3,3
    411c:	ee91                	c.bnez	a3,4138 <strcpy+0x24>
    411e:	419c                	c.lw	a5,0(a1)
    4120:	2007875b          	ffb	a4,a5,zero
    4124:	00071a63          	bnez	a4,4138 <strcpy+0x24>
    4128:	0591                	c.addi	a1,4
    412a:	c11c                	c.sw	a5,0(a0)
    412c:	0511                	c.addi	a0,4
    412e:	419c                	c.lw	a5,0(a1)
    4130:	2007875b          	ffb	a4,a5,zero
    4134:	fe070ae3          	beqz	a4,4128 <strcpy+0x14>
    4138:	0005c683          	lbu	a3,0(a1)
    413c:	0585                	c.addi	a1,1
    413e:	00d50023          	sb	a3,0(a0)
    4142:	0505                	c.addi	a0,1
    4144:	faf5                	c.bnez	a3,4138 <strcpy+0x24>
    4146:	851a                	c.mv	a0,t1
    4148:	8082                	c.jr	ra

0000414a <strnlen>:
    414a:	95aa                	c.add	a1,a0
    414c:	87aa                	c.mv	a5,a0
    414e:	00b78563          	beq	a5,a1,4158 <strnlen+0xe>
    4152:	0007c703          	lbu	a4,0(a5)
    4156:	e701                	c.bnez	a4,415e <strnlen+0x14>
    4158:	40a78533          	sub	a0,a5,a0
    415c:	8082                	c.jr	ra
    415e:	0785                	c.addi	a5,1
    4160:	b7fd                	c.j	414e <strnlen+0x4>
	...

00004164 <memset>:
    4164:	832a                	c.mv	t1,a0
    4166:	00c503b3          	add	t2,a0,a2
    416a:	00357693          	andi	a3,a0,3
    416e:	ce81                	c.beqz	a3,4186 <memset+0x22>
    4170:	ffc68693          	addi	a3,a3,-4
    4174:	40d507b3          	sub	a5,a0,a3
    4178:	06f3e463          	bltu	t2,a5,41e0 <memset+0x7c>
    417c:	00b50023          	sb	a1,0(a0)
    4180:	0505                	c.addi	a0,1
    4182:	fea79de3          	bne	a5,a0,417c <memset+0x18>
    4186:	04750d63          	beq	a0,t2,41e0 <memset+0x7c>
    418a:	05e2                	c.slli	a1,0x18
    418c:	0085d793          	srli	a5,a1,0x8
    4190:	95be                	c.add	a1,a5
    4192:	0105d793          	srli	a5,a1,0x10
    4196:	95be                	c.add	a1,a5
    4198:	40a38633          	sub	a2,t2,a0
    419c:	02000713          	li	a4,32
    41a0:	fe067693          	andi	a3,a2,-32
    41a4:	00a687b3          	add	a5,a3,a0
    41a8:	e285                	c.bnez	a3,41c8 <memset+0x64>
    41aa:	ffc67693          	andi	a3,a2,-4
    41ae:	ca8d                	c.beqz	a3,41e0 <memset+0x7c>
    41b0:	40d70633          	sub	a2,a4,a3
    41b4:	00a687b3          	add	a5,a3,a0
    41b8:	8736                	c.mv	a4,a3
    41ba:	8205                	c.srli	a2,0x1
    41bc:	00000697          	auipc	a3,0x0
    41c0:	00c686b3          	add	a3,a3,a2
    41c4:	00c68067          	jr	12(a3) # 41c8 <memset+0x64>
    41c8:	cd4c                	c.sw	a1,28(a0)
    41ca:	cd0c                	c.sw	a1,24(a0)
    41cc:	c94c                	c.sw	a1,20(a0)
    41ce:	c90c                	c.sw	a1,16(a0)
    41d0:	c54c                	c.sw	a1,12(a0)
    41d2:	c50c                	c.sw	a1,8(a0)
    41d4:	c14c                	c.sw	a1,4(a0)
    41d6:	c10c                	c.sw	a1,0(a0)
    41d8:	953a                	c.add	a0,a4
    41da:	fef517e3          	bne	a0,a5,41c8 <memset+0x64>
    41de:	bf6d                	c.j	4198 <memset+0x34>
    41e0:	879e                	c.mv	a5,t2
    41e2:	f8751de3          	bne	a0,t2,417c <memset+0x18>
    41e6:	851a                	c.mv	a0,t1
    41e8:	8082                	c.jr	ra
	...

000041ec <__lshrdi3>:
    41ec:	ce11                	c.beqz	a2,4208 <__lshrdi3+0x1c>
    41ee:	02000793          	li	a5,32
    41f2:	8f91                	c.sub	a5,a2
    41f4:	00f05c63          	blez	a5,420c <__lshrdi3+0x20>
    41f8:	00c55533          	srl	a0,a0,a2
    41fc:	00f597b3          	sll	a5,a1,a5
    4200:	00c5d633          	srl	a2,a1,a2
    4204:	8d5d                	c.or	a0,a5
    4206:	85b2                	c.mv	a1,a2
    4208:	00008067          	ret
    420c:	40f00533          	neg	a0,a5
    4210:	4601                	c.li	a2,0
    4212:	00a5d533          	srl	a0,a1,a0
    4216:	85b2                	c.mv	a1,a2
    4218:	bfc5                	c.j	4208 <__lshrdi3+0x1c>
    421a:	0001                	c.nop

0000421c <__ashldi3>:
    421c:	ce11                	c.beqz	a2,4238 <__ashldi3+0x1c>
    421e:	02000793          	li	a5,32
    4222:	8f91                	c.sub	a5,a2
    4224:	00f05c63          	blez	a5,423c <__ashldi3+0x20>
    4228:	00c595b3          	sll	a1,a1,a2
    422c:	00f557b3          	srl	a5,a0,a5
    4230:	00c51633          	sll	a2,a0,a2
    4234:	8ddd                	c.or	a1,a5
    4236:	8532                	c.mv	a0,a2
    4238:	00008067          	ret
    423c:	40f005b3          	neg	a1,a5
    4240:	4601                	c.li	a2,0
    4242:	00b515b3          	sll	a1,a0,a1
    4246:	8532                	c.mv	a0,a2
    4248:	bfc5                	c.j	4238 <__ashldi3+0x1c>
    424a:	0001                	c.nop

0000424c <__riscv_save_12>:
    424c:	7139                	c.addi16sp	sp,-64
    424e:	4301                	c.li	t1,0
    4250:	c66e                	c.swsp	s11,12(sp)
    4252:	a019                	c.j	4258 <__riscv_save_10+0x4>

00004254 <__riscv_save_10>:
    4254:	7139                	c.addi16sp	sp,-64
    4256:	5341                	c.li	t1,-16
    4258:	c86a                	c.swsp	s10,16(sp)
    425a:	ca66                	c.swsp	s9,20(sp)
    425c:	cc62                	c.swsp	s8,24(sp)
    425e:	ce5e                	c.swsp	s7,28(sp)
    4260:	a019                	c.j	4266 <__riscv_save_4+0x4>

00004262 <__riscv_save_4>:
    4262:	7139                	c.addi16sp	sp,-64
    4264:	5301                	c.li	t1,-32
    4266:	d05a                	c.swsp	s6,32(sp)
    4268:	d256                	c.swsp	s5,36(sp)
    426a:	d452                	c.swsp	s4,40(sp)
    426c:	d64e                	c.swsp	s3,44(sp)
    426e:	d84a                	c.swsp	s2,48(sp)
    4270:	da26                	c.swsp	s1,52(sp)
    4272:	dc22                	c.swsp	s0,56(sp)
    4274:	de06                	c.swsp	ra,60(sp)
    4276:	40610133          	sub	sp,sp,t1
    427a:	8282                	c.jr	t0

0000427c <__riscv_save_0>:
    427c:	1141                	c.addi	sp,-16
    427e:	c04a                	c.swsp	s2,0(sp)
    4280:	c226                	c.swsp	s1,4(sp)
    4282:	c422                	c.swsp	s0,8(sp)
    4284:	c606                	c.swsp	ra,12(sp)
    4286:	8282                	c.jr	t0

00004288 <__riscv_restore_12>:
    4288:	4db2                	c.lwsp	s11,12(sp)
    428a:	0141                	c.addi	sp,16

0000428c <__riscv_restore_10>:
    428c:	4d02                	c.lwsp	s10,0(sp)
    428e:	4c92                	c.lwsp	s9,4(sp)
    4290:	4c22                	c.lwsp	s8,8(sp)
    4292:	4bb2                	c.lwsp	s7,12(sp)
    4294:	0141                	c.addi	sp,16

00004296 <__riscv_restore_4>:
    4296:	4b02                	c.lwsp	s6,0(sp)
    4298:	4a92                	c.lwsp	s5,4(sp)
    429a:	4a22                	c.lwsp	s4,8(sp)
    429c:	49b2                	c.lwsp	s3,12(sp)
    429e:	0141                	c.addi	sp,16

000042a0 <__riscv_restore_0>:
    42a0:	4902                	c.lwsp	s2,0(sp)
    42a2:	4492                	c.lwsp	s1,4(sp)
    42a4:	4422                	c.lwsp	s0,8(sp)
    42a6:	40b2                	c.lwsp	ra,12(sp)
    42a8:	0141                	c.addi	sp,16
    42aa:	8082                	c.jr	ra
    42ac:	0010                	0x10
    42ae:	0000                	unimp
    42b0:	0000                	unimp
    42b2:	0000                	unimp
    42b4:	7a01                	c.lui	s4,0xfffe0
    42b6:	0052                	c.slli	zero,0x14
    42b8:	7c01                	c.lui	s8,0xfffe0
    42ba:	0105                	c.addi	sp,1
    42bc:	00020d1b          	sext.w	s10,tp
    42c0:	0048                	c.addi4spn	a0,sp,4
    42c2:	0000                	unimp
    42c4:	0018                	0x18
    42c6:	0000                	unimp
    42c8:	ff84                	c.fsw	fs1,56(a5)
    42ca:	0030ffff          	0x30ffff
    42ce:	0000                	unimp
    42d0:	4200                	c.lw	s0,0(a2)
    42d2:	400e                	0x400e
    42d4:	9b44                	exec.it	#876     !
    42d6:	420d                	c.li	tp,3
    42d8:	400e42db          	0x400e42db
    42dc:	9a44                	exec.it	#364     !
    42de:	420c                	c.lw	a1,0(a2)
    42e0:	0b99                	c.addi	s7,6
    42e2:	9842                	c.add	a6,a6
    42e4:	420a                	c.lwsp	tp,128(sp)
    42e6:	d7420997          	auipc	s3,0xd7420
    42ea:	d9d8                	c.sw	a4,52(a1)
    42ec:	dbda                	c.swsp	s6,244(sp)
    42ee:	0e42                	c.slli	t3,0x10
    42f0:	4440                	c.lw	s0,12(s0)
    42f2:	0896                	c.slli	a7,0x5
    42f4:	9542                	c.add	a0,a6
    42f6:	06944207          	flq	ft4,105(s0)
    42fa:	9342                	c.add	t1,a6
    42fc:	4205                	c.li	tp,1
    42fe:	0492                	c.slli	s1,0x4
    4300:	8942                	c.mv	s2,a6
    4302:	02884203          	lbu	tp,40(a6)
    4306:	8142                	c.mv	sp,a6
    4308:	0001                	c.nop
    430a:	0000                	unimp
    430c:	001c                	0x1c
    430e:	0000                	unimp
    4310:	0064                	c.addi4spn	s1,sp,12
    4312:	0000                	unimp
    4314:	ff68                	c.fsw	fa0,124(a4)
    4316:	000cffff          	0xcffff
    431a:	0000                	unimp
    431c:	4200                	c.lw	s0,0(a2)
    431e:	100e                	c.slli	zero,0x23
    4320:	8944                	exec.it	#556     !
    4322:	4204                	c.lw	s1,0(a2)
    4324:	0288                	c.addi4spn	a0,sp,320
    4326:	8142                	c.mv	sp,a6
    4328:	0001                	c.nop
    432a:	0000                	unimp
    432c:	002c                	c.addi4spn	a1,sp,8
    432e:	0000                	unimp
    4330:	0000                	unimp
    4332:	0000                	unimp
    4334:	7a01                	c.lui	s4,0xfffe0
    4336:	0052                	c.slli	zero,0x14
    4338:	7c01                	c.lui	s8,0xfffe0
    433a:	0101                	c.addi	sp,0
    433c:	0e020d1b          	addiw	s10,tp,224
    4340:	9b40                	exec.it	#868     !
    4342:	9a0d                	c.andi	a2,-29
    4344:	990c                	exec.it	#908     !
    4346:	970a980b          	addigp	a6,-77456 # 6d970 <BIN_SIZE+0x68ee8>
    434a:	9609                	c.srai	a2,0x22
    434c:	9508                	exec.it	#898     !
    434e:	93069407          	flh	fs0,-1744(a3)
    4352:	9205                	c.srli	a2,0x21
    4354:	8904                	exec.it	#524     !
    4356:	81028803          	lb	a6,-2032(t0)
    435a:	0001                	c.nop
    435c:	0044                	c.addi4spn	s1,sp,4
    435e:	0000                	unimp
    4360:	0034                	c.addi4spn	a3,sp,8
    4362:	0000                	unimp
    4364:	ff24                	c.fsw	fs1,120(a4)
    4366:	0024ffff          	0x24ffff
    436a:	0000                	unimp
    436c:	4200                	c.lw	s0,0(a2)
    436e:	0edb42db          	0xedb42db
    4372:	4230                	c.lw	a2,64(a2)
    4374:	42da                	c.lwsp	t0,148(sp)
    4376:	42d9                	c.li	t0,22
    4378:	42d8                	c.lw	a4,4(a3)
    437a:	d8d742d7          	0xd8d742d7
    437e:	dad9                	c.beqz	a3,4314 <__riscv_restore_0+0x74>
    4380:	42200edb          	0x42200edb
    4384:	42d6                	c.lwsp	t0,84(sp)
    4386:	42d5                	c.li	t0,21
    4388:	42d4                	c.lw	a3,4(a3)
    438a:	d4d342d3          	0xd4d342d3
    438e:	d6d5                	c.beqz	a3,433a <__riscv_restore_0+0x9a>
    4390:	d9d8                	c.sw	a4,52(a1)
    4392:	dbda                	c.swsp	s6,244(sp)
    4394:	100e                	c.slli	zero,0x23
    4396:	d242                	c.swsp	a6,36(sp)
    4398:	c942                	c.swsp	a6,144(sp)
    439a:	c842                	c.swsp	a6,16(sp)
    439c:	c142                	c.swsp	a6,128(sp)
    439e:	0e42                	c.slli	t3,0x10
    43a0:	0000                	unimp
	...
