
RV_NN_fully_connected_Benchmark.adx:     file format elf32-littleriscv
RV_NN_fully_connected_Benchmark.adx
architecture: riscv:rv32, flags 0x00000112:
EXEC_P, HAS_SYMS, D_PAGED
start address 0x20000000

Program Header:
    LOAD off    0x00001000 vaddr 0x20000000 paddr 0x20000000 align 2**12
         filesz 0x0000018a memsz 0x0000018a flags r-x
    LOAD off    0x00002000 vaddr 0x00000000 paddr 0x20000190 align 2**12
         filesz 0x000001bc memsz 0x000001bc flags rwx
    LOAD off    0x00002200 vaddr 0x00000200 paddr 0x20000350 align 2**12
         filesz 0x00004028 memsz 0x00004028 flags r-x
    LOAD off    0x00007000 vaddr 0x00080000 paddr 0x20004378 align 2**12
         filesz 0x000007b4 memsz 0x000007b4 flags rw-
    LOAD off    0x000077f0 vaddr 0x000807f0 paddr 0x20004b2c align 2**12
         filesz 0x00000022 memsz 0x00000022 flags rw-
    LOAD off    0x000087b8 vaddr 0x000807b8 paddr 0x20004b30 align 2**12
         filesz 0x00000000 memsz 0x00000038 flags rw-
0x70000000 off    0x00014433 vaddr 0x00000000 paddr 0x00000000 align 2**0
         filesz 0x00000040 memsz 0x00000000 flags r--

Sections:
Idx Name          Size      VMA       LMA       File off  Algn
  0 .vectors      0000018a  20000000  20000000  00001000  2**2
                  CONTENTS, ALLOC, LOAD, READONLY, CODE
  1 .retention_reset 00000154  00000000  20000190  00002000  2**2
                  CONTENTS, ALLOC, LOAD, READONLY, CODE
  2 .retention_data 00000064  00000158  200002e8  00002158  2**2
                  CONTENTS, ALLOC, LOAD, DATA
  3 .ram_code     00004028  00000200  20000350  00002200  2**8
                  CONTENTS, ALLOC, LOAD, READONLY, CODE
  4 .data         000007b4  00080000  20004378  00007000  2**3
                  CONTENTS, ALLOC, LOAD, DATA
  5 .sbss         00000038  000807b8  20004b30  000087b8  2**2
                  ALLOC
  6 .bss          00000000  000807f0  20004b2c  000087b8  2**2
                  ALLOC
  7 .sdk_version  00000022  000807f0  20004b2c  000077f0  2**2
                  CONTENTS, ALLOC, LOAD, DATA
  8 .debug_info   00004e02  00000000  00000000  00007812  2**0
                  CONTENTS, READONLY, DEBUGGING
  9 .debug_abbrev 00000a23  00000000  00000000  0000c614  2**0
                  CONTENTS, READONLY, DEBUGGING
 10 .debug_loc    00001347  00000000  00000000  0000d037  2**0
                  CONTENTS, READONLY, DEBUGGING
 11 .debug_aranges 00000198  00000000  00000000  0000e380  2**3
                  CONTENTS, READONLY, DEBUGGING
 12 .debug_ranges 000007e8  00000000  00000000  0000e518  2**3
                  CONTENTS, READONLY, DEBUGGING
 13 .debug_line   00002d6f  00000000  00000000  0000ed00  2**0
                  CONTENTS, READONLY, DEBUGGING
 14 .debug_str    0000297b  00000000  00000000  00011a6f  2**0
                  CONTENTS, READONLY, DEBUGGING
 15 .comment      00000049  00000000  00000000  000143ea  2**0
                  CONTENTS, READONLY
 16 .riscv.attributes 00000040  00000000  00000000  00014433  2**0
                  CONTENTS, READONLY
 17 .debug_frame  0000044c  00000000  00000000  00014474  2**2
                  CONTENTS, READONLY, DEBUGGING
SYMBOL TABLE:
20000000 l    d  .vectors	00000000 .vectors
00000000 l    d  .retention_reset	00000000 .retention_reset
00000158 l    d  .retention_data	00000000 .retention_data
00000200 l    d  .ram_code	00000000 .ram_code
00080000 l    d  .data	00000000 .data
000807b8 l    d  .sbss	00000000 .sbss
000807f0 l    d  .bss	00000000 .bss
000807f0 l    d  .sdk_version	00000000 .sdk_version
00000000 l    d  .debug_info	00000000 .debug_info
00000000 l    d  .debug_abbrev	00000000 .debug_abbrev
00000000 l    d  .debug_loc	00000000 .debug_loc
00000000 l    d  .debug_aranges	00000000 .debug_aranges
00000000 l    d  .debug_ranges	00000000 .debug_ranges
00000000 l    d  .debug_line	00000000 .debug_line
00000000 l    d  .debug_str	00000000 .debug_str
00000000 l    d  .comment	00000000 .comment
00000000 l    d  .riscv.attributes	00000000 .riscv.attributes
00000000 l    d  .debug_frame	00000000 .debug_frame
00000000 l    df *ABS*	00000000 ./boot/cstartup_flash.o
20000028 l       .vectors	00000000 _START
2000008e l       .vectors	00000000 _RETENTION_RESET_INIT
200000a6 l       .vectors	00000000 _RETENTION_RESET_BEGIN
200000b8 l       .vectors	00000000 _RETENTION_DATA_INIT
200000cc l       .vectors	00000000 _RETENTION_DATA_INIT_BEGIN
200000de l       .vectors	00000000 _RAMCODE_INIT
200000f6 l       .vectors	00000000 _RAMCODE_INIT_BEGIN
20000108 l       .vectors	00000000 _DATA_INIT
20000120 l       .vectors	00000000 _DATA_INIT_BEGIN
20000132 l       .vectors	00000000 _ZERO_BSS
20000146 l       .vectors	00000000 _ZERO_BSS_BEGIN
20000152 l       .vectors	00000000 _ZERO_AES
20000166 l       .vectors	00000000 _ZERO_AES_BEGIN
20000172 l       .vectors	00000000 _FILL_STK
20000172 l       .vectors	00000000 _MAIN_FUNC
20000188 l       .vectors	00000000 _END
00000022 l       .retention_reset	00000000 _ISTART
0000002a l       .retention_reset	00000000 _ISWS_USB_DIS
00000088 l       .retention_reset	00000000 _WAKEUP_FLASH
000000a2 l       .retention_reset	00000000 _MSPI_WAIT
000000bc l       .retention_reset	00000000 _WAIT_EFUSE_LOAD_AND_FLASH_WAKEUP_FINISH
000000c2 l       .retention_reset	00000000 _MULTI_ADDRESS_BEGIN
000000d2 l       .retention_reset	00000000 _IZERO_BSS
000000e6 l       .retention_reset	00000000 _IZERO_BSS_BEGIN
000000f2 l       .retention_reset	00000000 _IZERO_AES
00000106 l       .retention_reset	00000000 _IZERO_AES_BEGIN
00000112 l       .retention_reset	00000000 _IFILL_STK
00000112 l       .retention_reset	00000000 _IDATA_INIT
0000012a l       .retention_reset	00000000 _IDATA_INIT_BEGIN
0000013c l       .retention_reset	00000000 _IMAIN_FUNC
00000152 l       .retention_reset	00000000 _IEND
00000040 l       *ABS*	00000000 irqno
00000000 l    df *ABS*	00000000 
00000200 l     F .ram_code	00000020 delay_ms.constprop.14
0000140c l     F .ram_code	000000fc user_calib_adc_vref.constprop.9
00000220 l     F .ram_code	00000044 flash_send_addr
00000264 l     F .ram_code	00000048 flash_send_cmd
000002ac l     F .ram_code	00000060 clock_set_32k_tick
0000030c l     F .ram_code	0000004c analog_read_reg32.constprop.4
00000358 l     F .ram_code	00000024 clock_get_32k_tick
0000037c l     F .ram_code	00000094 pm_stimer_recover
00000410 l     F .ram_code	00000058 plic_exit_critical_sec
00000468 l     F .ram_code	00000060 plic_enter_critical_sec
000004c8 l     F .ram_code	00000180 flash_mspi_read_ram
00001204 l     F .ram_code	00000028 flash_read_uid.constprop.6
0000122c l     F .ram_code	00000028 flash_read_mid
00001254 l     F .ram_code	00000168 flash_read_mid_uid_with_check
00000648 l     F .ram_code	0000014c flash_mspi_read_ram.constprop.7
000013bc l     F .ram_code	00000020 flash_dread
00000794 l     F .ram_code	00000044 analog_write_reg8
000007d8 l     F .ram_code	0000004c analog_read_reg8
00000824 l     F .ram_code	00000140 clock_init_ram.constprop.11
000013dc l     F .ram_code	00000018 clock_init.constprop.10
00001508 l     F .ram_code	00000054 user_calib_freq_offset.constprop.8
00000964 l     F .ram_code	000000b4 pm_wait_bbpll_done
00000a18 l     F .ram_code	00000194 pm_sleep_start
00000bac l     F .ram_code	00000120 dr_putchar
00001560 l     F .ram_code	00000018 gpio_input_dis
00000ccc l     F .ram_code	0000030c pm_sleep_wakeup_ram.constprop.3
000013f4 l     F .ram_code	00000016 pm_sleep_wakeup.constprop.2
00000158 l     O .retention_data	00000004 flash_read_page
0000015c l     O .retention_data	00000001 g_pm_long_suspend
00000160 l     O .retention_data	00000004 g_pm_tick_cur
00000164 l     O .retention_data	00000029 pmcd
00000190 l     O .retention_data	00000004 g_pm_tick_32k_calib
00000194 l     O .retention_data	00000001 g_plic_preempt_en
00000198 l     O .retention_data	00000002 s_flash_preempt_config
0000019a l     O .retention_data	00000001 g_pm_suspend_power_cfg
0000019c l     O .retention_data	00000008 g_pm_early_wakeup_time_us
000001a4 l     O .retention_data	00000004 g_pm_tick_32k_cur
000001a8 l     O .retention_data	00000001 g_pm_tick_update_en
000001ac l     O .retention_data	00000004 g_pm_r_delay_cycle
000001b0 l     O .retention_data	00000008 g_pm_longsleep_early_wakeup_time_us
00080010 l     O .data	00000018 fully_connected_biases
00080028 l     O .data	0000003c fully_connected_input
00080068 l     O .data	00000058 fully_connected_int16_biases
000800c0 l     O .data	000000fc fully_connected_int16_input
000801bc l     O .data	0000002c fully_connected_int16_output_ref
000801e8 l     O .data	000002b5 fully_connected_int16_weights
000804a0 l     O .data	00000012 fully_connected_output_ref
000804b4 l     O .data	00000078 fully_connected_weights
000807b8 l     O .sbss	00000004 exception_mcause
000807bc l     O .sbss	00000004 exception_mdcause
000807c0 l     O .sbss	00000004 exception_mepc
000807c4 l     O .sbss	00000004 exception_mstatus
000807c8 l     O .sbss	00000004 exception_mtval
000807cc l     O .sbss	00000004 g_chip_version
000807d0 l     O .sbss	00000004 g_pm_status_info
000807a4 l     O .data	00000001 init_flag.4915
000807a8 l     O .data	00000006 sys_clk
000807f0 l     O .sdk_version	00000022 sdk_version
00000000 l    df *ABS*	00000000 riscv_fully_connected_s16.c.o
00001ce8 l       .ram_code	00000000 $x
00000000 l    df *ABS*	00000000 riscv_fully_connected_s8.c.o
00001d90 l       .ram_code	00000000 $x
00000000 l    df *ABS*	00000000 riscv_fully_connected_get_buffer_sizes_s8.c.o
00001e30 l       .ram_code	00000000 $x
00000000 l    df *ABS*	00000000 riscv_fully_connected_get_buffer_sizes_s16.c.o
00001e34 l       .ram_code	00000000 $x
00000000 l    df *ABS*	00000000 riscv_nn_vec_mat_mult_t_s8.c.o
00001e38 l       .ram_code	00000000 $x
00000000 l    df *ABS*	00000000 riscv_nn_vec_mat_mult_t_s16.c.o
00002f98 l       .ram_code	00000000 $x
00000000 l    df *ABS*	00000000 malloc.c
00000000 l    df *ABS*	00000000 nano-mallocr.c
00000000 l    df *ABS*	00000000 nano-mallocr.c
00000000 l    df *ABS*	00000000 printf.c
00000000 l    df *ABS*	00000000 puts.c
00000000 l    df *ABS*	00000000 strlen.c
00000000 l    df *ABS*	00000000 vprintf.c
000035c4 l     F .ram_code	0000003a __vprintf_help
000807dc l     O .sbss	00000004 __vprintf_buf
000807e0 l     O .sbss	00000004 __vprintf_buf_len
00000000 l    df *ABS*	00000000 printf_impl.c
00000000 l    df *ABS*	00000000 printf_impl_float.c
00000000 l    df *ABS*	00000000 strcpy.c
00000000 l    df *ABS*	00000000 strnlen.c
00000000 l    df *ABS*	00000000 _sbrk.c
000807ec l     O .sbss	00000004 heap_end.2408
00000000 l    df *ABS*	00000000 libgcc2.c
00000000 l    df *ABS*	00000000 libgcc2.c
00000000 l    df *ABS*	00000000 printf_data.c
00000000 l    df *ABS*	00000000 impure.c
000807f0 l     O .bss	00000000 impure_data
00001ce0  w      .ram_code	00000000 entry_irq55
00001ce0  w      .ram_code	00000000 entry_irq13
00003fb0 g     F .ram_code	0000007c strcpy
00001ce0  w      .ram_code	00000000 entry_irq15
000040a0 g     F .ram_code	0000002e .hidden __ashldi3
00001ce0  w      .ram_code	00000000 entry_irq27
00001ce0  w      .ram_code	00000000 entry_irq60
00001ce0  w      .ram_code	00000000 entry_irq1
00001ce0  w      .ram_code	00000000 entry_irq52
00001ce0  w      .ram_code	00000000 entry_irq50
00001ce0  w      .ram_code	00000000 entry_irq62
00003512 g     F .ram_code	0000001e printf
00080800 g       .data	00000000 __global_pointer$
000040d8 g       .ram_code	00000000 .hidden __riscv_save_8
00001ce0  w      .ram_code	00000000 entry_irq58
00004124 g       .ram_code	00000000 .hidden __riscv_restore_3
000001bc g       .retention_data	00000000 _RETENTION_DATA_VMA_END
00004110 g       .ram_code	00000000 .hidden __riscv_restore_10
000040d8 g       .ram_code	00000000 .hidden __riscv_save_11
0000364a g     F .ram_code	00000048 __print_integral
00000000 g       .retention_reset	00000000 _RETENTION_RESET_VMA_START
00001ce0  w      .ram_code	00000000 entry_irq10
00001ce0  w      .ram_code	00000000 entry_irq21
00000158 g       .retention_data	00000000 _AES_VMA_START
00001ce0  w      .ram_code	00000000 entry_irq48
00004124 g       .ram_code	00000000 .hidden __riscv_restore_2
00001ce0  w      .ram_code	00000000 entry_irq8
00001ce0  w      .ram_code	00000000 entry_irq33
000807f0 g       .bss	00000000 _BSS_VMA_END
20000190 g       *ABS*	00000000 _RETENTION_RESET_LMA_START
00002f98 g     F .ram_code	00000370 riscv_nn_vec_mat_mult_t_s16
00003692 g     F .ram_code	00000470 __printf_impl
00001e34 g     F .ram_code	00000004 riscv_fully_connected_s16_get_buffer_size
00001ce0  w      .ram_code	00000000 entry_irq12
00003530 g     F .ram_code	00000034 puts
00003308 g     F .ram_code	00000010 malloc
00001ce0  w      .ram_code	00000000 entry_irq14
000040d0 g       .ram_code	00000000 .hidden __riscv_save_12
00001ce0  w      .ram_code	00000000 entry_irq2
00001ce0  w      .ram_code	00000000 entry_irq51
00004110 g       .ram_code	00000000 .hidden __riscv_restore_11
00001ce0  w      .ram_code	00000000 entry_irq28
00001ce0  w      .ram_code	00000000 entry_irq43
00004100 g       .ram_code	00000000 .hidden __riscv_save_1
00004124 g       .ram_code	00000000 .hidden __riscv_restore_0
00001ce0  w      .ram_code	00000000 entry_irq20
000040e6 g       .ram_code	00000000 .hidden __riscv_save_7
000807b8 g       .sbss	00000000 _BSS_VMA_START
00001ce0  w      .ram_code	00000000 entry_irq63
000807b4 g       .data	00000000 _DATA_VMA_END
00001ce0  w      .ram_code	00000000 entry_irq46
00001ce0  w      .ram_code	00000000 entry_irq31
00001ce0  w      .ram_code	00000000 entry_irq16
00100000 g       *ABS*	00000000 FLASH_SIZE
0000411a g       .ram_code	00000000 .hidden __riscv_restore_5
00080000 g       .data	00000000 _DATA_VMA_START
00004046  w    F .ram_code	00000028 _sbrk
00001ce0  w      .ram_code	00000000 entry_irq53
00001ce0  w      .ram_code	00000000 entry_irq11
00000154 g       .retention_reset	00000000 _RETENTION_RESET_VMA_END
0000402e g     F .ram_code	00000018 strnlen
0000411a g       .ram_code	00000000 .hidden __riscv_restore_6
00001ce0  w      .ram_code	00000000 entry_irq5
00001ce8 g     F .ram_code	000000a6 riscv_fully_connected_s16
00001ce0  w      .ram_code	00000000 entry_irq23
00001ce2  w      .ram_code	00000000 trap_handler
00001ce0  w      .ram_code	00000000 entry_irq34
00004070 g     F .ram_code	0000002e .hidden __lshrdi3
00001ce0  w      .ram_code	00000000 entry_irq36
00001d90 g     F .ram_code	0000009e riscv_fully_connected_s8
000040d8 g       .ram_code	00000000 .hidden __riscv_save_9
00001ce0  w      .ram_code	00000000 entry_irq44
000035fe g     F .ram_code	0000004c vprintf
00001ce0  w      .ram_code	00000000 entry_irq45
00001ce0  w      .ram_code	00000000 entry_irq26
000040e6 g       .ram_code	00000000 .hidden __riscv_save_4
00001ce0  w      .ram_code	00000000 entry_irq41
00001ce0  w      .ram_code	00000000 entry_irq61
20000000 g       .vectors	00000000 BIN_BEGIN
000033d2 g     F .ram_code	00000090 _free_r
00004100 g       .ram_code	00000000 .hidden __riscv_save_3
00001e30 g     F .ram_code	00000004 riscv_fully_connected_s8_get_buffer_size
00001ce0  w      .ram_code	00000000 entry_irq38
00001100 g       .ram_code	00000000 __vectors
00004b4e g       *ABS*	00000000 BIN_SIZE
0008078c g     O .data	00000010 __digits
20000350 g       *ABS*	00000000 _RAMCODE_LMA_START
000807e8 g     O .sbss	00000004 __printf_count
00001ce0  w      .ram_code	00000000 entry_irq59
00001ce0  w      .ram_code	00000000 entry_irq6
000040d8 g       .ram_code	00000000 .hidden __riscv_save_10
000807e4 g     O .sbss	00000004 __mculib_REENT_errno
20004378 g       *ABS*	00000000 _DATA_LMA_START
00003b20 g     F .ram_code	00000090 __print_integral_poly
20000000 g       *ABS*	00000000 NDS_SAG_LMA_FLASH
0000411a g       .ram_code	00000000 .hidden __riscv_restore_4
00004110 g       .ram_code	00000000 .hidden __riscv_restore_8
000040e6 g       .ram_code	00000000 .hidden __riscv_save_6
20000000  w      .vectors	00000000 _RELAX_END_
00003bb0 g     F .ram_code	000003fe __printf_float_impl
00003328 g     F .ram_code	000000aa memset
00004110 g       .ram_code	00000000 .hidden __riscv_restore_9
0000411a g       .ram_code	00000000 .hidden __riscv_restore_7
000015c4 g     F .ram_code	00000718 main
00001ce0 g       .ram_code	00000000 default_irq_entry
00001ce0  w      .ram_code	00000000 entry_irq3
00000fd8 g     F .ram_code	00000100 trap_entry
00000158 g       .retention_data	00000000 _AES_VMA_END
00001ce0  w      .ram_code	00000000 entry_irq39
00001ce0  w      .ram_code	00000000 entry_irq49
00003462 g     F .ram_code	000000b0 _malloc_r
00001ce0  w      .ram_code	00000000 entry_irq57
00001ce0  w      .ram_code	00000000 entry_irq47
200002e8 g       *ABS*	00000000 _RETENTION_DATA_LMA_START
20000000 g     F .vectors	00000000 _RESET_ENTRY
00000158 g       .retention_data	00000000 _RETENTION_DATA_VMA_START
00001e38 g     F .ram_code	0000115e riscv_nn_vec_mat_mult_t_s8
00001ce0  w      .ram_code	00000000 entry_irq4
000a0000 g       *ABS*	00000000 _STACK_TOP
00001ce0  w      .ram_code	00000000 entry_irq22
00001ce0  w      .ram_code	00000000 entry_irq30
000807b0 g     O .data	00000004 _impure_ptr
00001ce0  w      .ram_code	00000000 entry_irq42
00001ce0  w      .ram_code	00000000 entry_irq24
00004100 g       .ram_code	00000000 .hidden __riscv_save_2
00004228 g       .ram_code	00000000 _RAMCODE_VMA_END
00000000  w      *ABS*	00000000 _ITB_BASE_
000040e6 g       .ram_code	00000000 .hidden __riscv_save_5
00001ce0  w      .ram_code	00000000 entry_irq19
0000157c g     F .ram_code	00000048 _write
00080818 g       .sdk_version	00000000 _end
00001ce0  w      .ram_code	00000000 entry_irq17
00001ce0  w      .ram_code	00000000 entry_irq9
00001ce0  w      .ram_code	00000000 entry_irq56
00001ce0  w      .ram_code	00000000 entry_irq35
00001ce0  w      .ram_code	00000000 entry_irq37
000001b8 g     O .retention_data	00000004 g_pm_mspi_cfg
00001ce0  w      .ram_code	00000000 entry_irq54
00001ce0  w      .ram_code	00000000 entry_irq40
0000410c g       .ram_code	00000000 .hidden __riscv_restore_12
00000200 g       .ram_code	00000000 _RAMCODE_VMA_START
00004100 g       .ram_code	00000000 .hidden __riscv_save_0
00003564 g     F .ram_code	0000005e strlen
00001ce0  w      .ram_code	00000000 entry_irq29
000807d8 g     O .sbss	00000004 __malloc_sbrk_start
000807d4 g     O .sbss	00000004 __malloc_free_list
00004124 g       .ram_code	00000000 .hidden __riscv_restore_1
00001ce0  w      .ram_code	00000000 entry_irq7
00001ce0  w      .ram_code	00000000 entry_irq32
00000000 g     F .retention_reset	00000000 _IRESET_ENTRY
00001ce0  w      .ram_code	00000000 entry_irq18
00003b02 g     F .ram_code	0000001e __int_to_poly
00003318 g     F .ram_code	00000010 free
00001ce0  w      .ram_code	00000000 entry_irq25



Disassembly of section .vectors:

20000000 <_RESET_ENTRY>:
20000000:	a025                	c.j	20000028 <_START>
	...
20000016:	0000                	unimp
20000018:	4b4e                	c.lwsp	s6,208(sp)
2000001a:	0000                	unimp
2000001c:	0000                	unimp
2000001e:	0000                	unimp
20000020:	544c4e4b          	fnmsub.h	ft8,fs8,ft4,fa0,rmm
20000024:	0000                	unimp
20000026:	          	sllw	a4,zero,zero

20000028 <_START>:
20000028:	e0080197          	auipc	gp,0xe0080
2000002c:	7d818193          	addi	gp,gp,2008 # 80800 <__global_pointer$>
20000030:	801002b7          	lui	t0,0x80100
20000034:	70028293          	addi	t0,t0,1792 # 80100700 <_DATA_LMA_START+0x600fc388>
20000038:	04000313          	li	t1,64
2000003c:	506280a3          	sb	t1,1281(t0)
20000040:	e00a0297          	auipc	t0,0xe00a0
20000044:	fc028293          	addi	t0,t0,-64 # a0000 <_STACK_TOP>
20000048:	8116                	c.mv	sp,t0
2000004a:	e0000297          	auipc	t0,0xe0000
2000004e:	fb628293          	addi	t0,t0,-74 # 0 <_ITB_BASE_>
20000052:	80029073          	csrw	uitb,t0
20000056:	6299                	c.lui	t0,0x6
20000058:	3002a2f3          	csrrs	t0,mstatus,t0
2000005c:	00301073          	fssr	zero
20000060:	e0001297          	auipc	t0,0xe0001
20000064:	0a028293          	addi	t0,t0,160 # 1100 <__vectors>
20000068:	30529073          	csrw	mtvec,t0
2000006c:	7d016073          	csrsi	mmisc_ctl,2
20000070:	e40002b7          	lui	t0,0xe4000
20000074:	4309                	c.li	t1,2
20000076:	0062a023          	sw	t1,0(t0) # e4000000 <_DATA_LMA_START+0xc3ffbc88>
2000007a:	7ca022f3          	csrr	t0,mcache_ctl
2000007e:	0012e293          	ori	t0,t0,1
20000082:	0022e293          	ori	t0,t0,2
20000086:	7ca29073          	csrw	mcache_ctl,t0
2000008a:	0000100f          	fence.i

2000008e <_RETENTION_RESET_INIT>:
2000008e:	00000317          	auipc	t1,0x0
20000092:	10230313          	addi	t1,t1,258 # 20000190 <_RETENTION_RESET_LMA_START>
20000096:	e0000397          	auipc	t2,0xe0000
2000009a:	f6a38393          	addi	t2,t2,-150 # 0 <_ITB_BASE_>
2000009e:	e0000e17          	auipc	t3,0xe0000
200000a2:	0b6e0e13          	addi	t3,t3,182 # 154 <_RETENTION_RESET_VMA_END>

200000a6 <_RETENTION_RESET_BEGIN>:
200000a6:	01c3f963          	bgeu	t2,t3,200000b8 <_RETENTION_DATA_INIT>
200000aa:	00032283          	lw	t0,0(t1)
200000ae:	0053a023          	sw	t0,0(t2)
200000b2:	0311                	c.addi	t1,4
200000b4:	0391                	c.addi	t2,4
200000b6:	bfc5                	c.j	200000a6 <_RETENTION_RESET_BEGIN>

200000b8 <_RETENTION_DATA_INIT>:
200000b8:	00000317          	auipc	t1,0x0
200000bc:	23030313          	addi	t1,t1,560 # 200002e8 <_RETENTION_DATA_LMA_START>
200000c0:	15800393          	li	t2,344
200000c4:	e0000e17          	auipc	t3,0xe0000
200000c8:	0f8e0e13          	addi	t3,t3,248 # 1bc <_RETENTION_DATA_VMA_END>

200000cc <_RETENTION_DATA_INIT_BEGIN>:
200000cc:	01c3f963          	bgeu	t2,t3,200000de <_RAMCODE_INIT>
200000d0:	00032283          	lw	t0,0(t1)
200000d4:	0053a023          	sw	t0,0(t2)
200000d8:	0311                	c.addi	t1,4
200000da:	0391                	c.addi	t2,4
200000dc:	bfc5                	c.j	200000cc <_RETENTION_DATA_INIT_BEGIN>

200000de <_RAMCODE_INIT>:
200000de:	00000317          	auipc	t1,0x0
200000e2:	27230313          	addi	t1,t1,626 # 20000350 <_RAMCODE_LMA_START>
200000e6:	e0000397          	auipc	t2,0xe0000
200000ea:	11a38393          	addi	t2,t2,282 # 200 <delay_ms.constprop.14>
200000ee:	e0004e17          	auipc	t3,0xe0004
200000f2:	13ae0e13          	addi	t3,t3,314 # 4228 <_RAMCODE_VMA_END>

200000f6 <_RAMCODE_INIT_BEGIN>:
200000f6:	01c3f963          	bgeu	t2,t3,20000108 <_DATA_INIT>
200000fa:	00032283          	lw	t0,0(t1)
200000fe:	0053a023          	sw	t0,0(t2)
20000102:	0311                	c.addi	t1,4
20000104:	0391                	c.addi	t2,4
20000106:	bfc5                	c.j	200000f6 <_RAMCODE_INIT_BEGIN>

20000108 <_DATA_INIT>:
20000108:	00004317          	auipc	t1,0x4
2000010c:	27030313          	addi	t1,t1,624 # 20004378 <_DATA_LMA_START>
20000110:	e0080397          	auipc	t2,0xe0080
20000114:	ef038393          	addi	t2,t2,-272 # 80000 <_DATA_VMA_START>
20000118:	e0080e17          	auipc	t3,0xe0080
2000011c:	69ce0e13          	addi	t3,t3,1692 # 807b4 <_DATA_VMA_END>

20000120 <_DATA_INIT_BEGIN>:
20000120:	01c3f963          	bgeu	t2,t3,20000132 <_ZERO_BSS>
20000124:	00032283          	lw	t0,0(t1)
20000128:	0053a023          	sw	t0,0(t2)
2000012c:	0311                	c.addi	t1,4
2000012e:	0391                	c.addi	t2,4
20000130:	bfc5                	c.j	20000120 <_DATA_INIT_BEGIN>

20000132 <_ZERO_BSS>:
20000132:	000002b7          	lui	t0,0x0
20000136:	e0080397          	auipc	t2,0xe0080
2000013a:	68238393          	addi	t2,t2,1666 # 807b8 <_BSS_VMA_START>
2000013e:	e0080e17          	auipc	t3,0xe0080
20000142:	6b2e0e13          	addi	t3,t3,1714 # 807f0 <_BSS_VMA_END>

20000146 <_ZERO_BSS_BEGIN>:
20000146:	01c3f663          	bgeu	t2,t3,20000152 <_ZERO_AES>
2000014a:	0053a023          	sw	t0,0(t2)
2000014e:	0391                	c.addi	t2,4
20000150:	bfdd                	c.j	20000146 <_ZERO_BSS_BEGIN>

20000152 <_ZERO_AES>:
20000152:	000002b7          	lui	t0,0x0
20000156:	e0000397          	auipc	t2,0xe0000
2000015a:	00238393          	addi	t2,t2,2 # 158 <_AES_VMA_END>
2000015e:	e0000e17          	auipc	t3,0xe0000
20000162:	ffae0e13          	addi	t3,t3,-6 # 158 <_AES_VMA_END>

20000166 <_ZERO_AES_BEGIN>:
20000166:	01c3f663          	bgeu	t2,t3,20000172 <_FILL_STK>
2000016a:	0053a023          	sw	t0,0(t2)
2000016e:	0391                	c.addi	t2,4
20000170:	bfdd                	c.j	20000166 <_ZERO_AES_BEGIN>

20000172 <_FILL_STK>:
20000172:	0001                	c.nop
20000174:	e0001297          	auipc	t0,0xe0001
20000178:	45028293          	addi	t0,t0,1104 # 15c4 <main>
2000017c:	9282                	c.jalr	t0
2000017e:	0001                	c.nop
20000180:	0001                	c.nop
20000182:	0001                	c.nop
20000184:	0001                	c.nop
20000186:	0001                	c.nop

20000188 <_END>:
20000188:	a001                	c.j	20000188 <_END>

Disassembly of section .retention_reset:

00000000 <_IRESET_ENTRY>:
   0:	a00d                	c.j	22 <_ISTART>
	...

00000022 <_ISTART>:
  22:	00080197          	auipc	gp,0x80
  26:	7de18193          	addi	gp,gp,2014 # 80800 <__global_pointer$>

0000002a <_ISWS_USB_DIS>:
  2a:	801002b7          	lui	t0,0x80100
  2e:	70028293          	addi	t0,t0,1792 # 80100700 <_DATA_LMA_START+0x600fc388>
  32:	04000313          	li	t1,64
  36:	506280a3          	sb	t1,1281(t0)
  3a:	000a0297          	auipc	t0,0xa0
  3e:	fc628293          	addi	t0,t0,-58 # a0000 <_STACK_TOP>
  42:	8116                	c.mv	sp,t0
  44:	00000297          	auipc	t0,0x0
  48:	fbc28293          	addi	t0,t0,-68 # 0 <_IRESET_ENTRY>
  4c:	80029073          	csrw	uitb,t0
  50:	6299                	c.lui	t0,0x6
  52:	3002a2f3          	csrrs	t0,mstatus,t0
  56:	00301073          	fssr	zero
  5a:	00001297          	auipc	t0,0x1
  5e:	0a628293          	addi	t0,t0,166 # 1100 <__vectors>
  62:	30529073          	csrw	mtvec,t0
  66:	7d016073          	csrsi	mmisc_ctl,2
  6a:	e40002b7          	lui	t0,0xe4000
  6e:	4309                	c.li	t1,2
  70:	0062a023          	sw	t1,0(t0) # e4000000 <_DATA_LMA_START+0xc3ffbc88>
  74:	7ca022f3          	csrr	t0,mcache_ctl
  78:	0012e293          	ori	t0,t0,1
  7c:	0022e293          	ori	t0,t0,2
  80:	7ca29073          	csrw	mcache_ctl,t0
  84:	0000100f          	fence.i

00000088 <_WAKEUP_FLASH>:
  88:	801402b7          	lui	t0,0x80140
  8c:	0ff00313          	li	t1,255
  90:	4381                	c.li	t2,0
  92:	0ab00e13          	li	t3,171
  96:	326284a3          	sb	t1,809(t0) # 80140329 <_DATA_LMA_START+0x6013bfb1>
  9a:	107280a3          	sb	t2,257(t0)
  9e:	11c28023          	sb	t3,256(t0)

000000a2 <_MSPI_WAIT>:
  a2:	801402b7          	lui	t0,0x80140
  a6:	10228383          	lb	t2,258(t0) # 80140102 <_DATA_LMA_START+0x6013bd8a>
  aa:	4e05                	c.li	t3,1
  ac:	4ec1                	c.li	t4,16
  ae:	fe7e0ae3          	beq	t3,t2,a2 <_MSPI_WAIT>
  b2:	11d280a3          	sb	t4,257(t0)
  b6:	4281                	c.li	t0,0
  b8:	14000313          	li	t1,320

000000bc <_WAIT_EFUSE_LOAD_AND_FLASH_WAKEUP_FINISH>:
  bc:	0285                	c.addi	t0,1
  be:	fe537fe3          	bgeu	t1,t0,bc <_WAIT_EFUSE_LOAD_AND_FLASH_WAKEUP_FINISH>

000000c2 <_MULTI_ADDRESS_BEGIN>:
  c2:	801402b7          	lui	t0,0x80140
  c6:	1b800313          	li	t1,440
  ca:	00032383          	lw	t2,0(t1)
  ce:	1072a223          	sw	t2,260(t0) # 80140104 <_DATA_LMA_START+0x6013bd8c>

000000d2 <_IZERO_BSS>:
  d2:	000002b7          	lui	t0,0x0
  d6:	00080397          	auipc	t2,0x80
  da:	6e238393          	addi	t2,t2,1762 # 807b8 <_BSS_VMA_START>
  de:	00080e17          	auipc	t3,0x80
  e2:	712e0e13          	addi	t3,t3,1810 # 807f0 <_BSS_VMA_END>

000000e6 <_IZERO_BSS_BEGIN>:
  e6:	01c3f663          	bgeu	t2,t3,f2 <_IZERO_AES>
  ea:	0053a023          	sw	t0,0(t2)
  ee:	0391                	c.addi	t2,4
  f0:	bfdd                	c.j	e6 <_IZERO_BSS_BEGIN>

000000f2 <_IZERO_AES>:
  f2:	000002b7          	lui	t0,0x0
  f6:	00000397          	auipc	t2,0x0
  fa:	06238393          	addi	t2,t2,98 # 158 <_AES_VMA_END>
  fe:	00000e17          	auipc	t3,0x0
 102:	05ae0e13          	addi	t3,t3,90 # 158 <_AES_VMA_END>

00000106 <_IZERO_AES_BEGIN>:
 106:	01c3f663          	bgeu	t2,t3,112 <_IDATA_INIT>
 10a:	0053a023          	sw	t0,0(t2)
 10e:	0391                	c.addi	t2,4
 110:	bfdd                	c.j	106 <_IZERO_AES_BEGIN>

00000112 <_IDATA_INIT>:
 112:	20004317          	auipc	t1,0x20004
 116:	26630313          	addi	t1,t1,614 # 20004378 <_DATA_LMA_START>
 11a:	00080397          	auipc	t2,0x80
 11e:	ee638393          	addi	t2,t2,-282 # 80000 <_DATA_VMA_START>
 122:	00080e17          	auipc	t3,0x80
 126:	692e0e13          	addi	t3,t3,1682 # 807b4 <_DATA_VMA_END>

0000012a <_IDATA_INIT_BEGIN>:
 12a:	01c3f963          	bgeu	t2,t3,13c <_IMAIN_FUNC>
 12e:	00032283          	lw	t0,0(t1)
 132:	0053a023          	sw	t0,0(t2)
 136:	0311                	c.addi	t1,4
 138:	0391                	c.addi	t2,4
 13a:	bfc5                	c.j	12a <_IDATA_INIT_BEGIN>

0000013c <_IMAIN_FUNC>:
 13c:	0001                	c.nop
 13e:	00001297          	auipc	t0,0x1
 142:	48628293          	addi	t0,t0,1158 # 15c4 <main>
 146:	9282                	c.jalr	t0
 148:	0001                	c.nop
 14a:	0001                	c.nop
 14c:	0001                	c.nop
 14e:	0001                	c.nop
 150:	0001                	c.nop

00000152 <_IEND>:
 152:	a001                	c.j	152 <_IEND>

Disassembly of section .ram_code:

00000200 <delay_ms.constprop.14>:
     200:	801407b7          	lui	a5,0x80140
     204:	0004e737          	lui	a4,0x4e
     208:	2007a603          	lw	a2,512(a5) # 80140200 <_DATA_LMA_START+0x6013be88>
     20c:	801406b7          	lui	a3,0x80140
     210:	20070713          	addi	a4,a4,512 # 4e200 <BIN_SIZE+0x496b2>
     214:	2006a783          	lw	a5,512(a3) # 80140200 <_DATA_LMA_START+0x6013be88>
     218:	8f91                	c.sub	a5,a2
     21a:	fef77de3          	bgeu	a4,a5,214 <delay_ms.constprop.14+0x14>
     21e:	8082                	c.jr	ra

00000220 <flash_send_addr>:
     220:	5d05275b          	bfoz	a4,a0,23,16
     224:	801407b7          	lui	a5,0x80140
     228:	801406b7          	lui	a3,0x80140
     22c:	10e78023          	sb	a4,256(a5) # 80140100 <_DATA_LMA_START+0x6013bd88>
     230:	10268783          	lb	a5,258(a3) # 80140102 <_DATA_LMA_START+0x6013bd8a>
     234:	fe07fe5b          	bbs	a5,0,230 <flash_send_addr+0x10>
     238:	3c8527db          	bfoz	a5,a0,15,8
     23c:	80140737          	lui	a4,0x80140
     240:	10f68023          	sb	a5,256(a3)
     244:	10270783          	lb	a5,258(a4) # 80140102 <_DATA_LMA_START+0x6013bd8a>
     248:	fe07fe5b          	bbs	a5,0,244 <flash_send_addr+0x24>
     24c:	0ff57513          	andi	a0,a0,255
     250:	801406b7          	lui	a3,0x80140
     254:	10a70023          	sb	a0,256(a4)
     258:	10268783          	lb	a5,258(a3) # 80140102 <_DATA_LMA_START+0x6013bd8a>
     25c:	fe07fe5b          	bbs	a5,0,258 <flash_send_addr+0x38>
     260:	00008067          	ret

00000264 <flash_send_cmd>:
     264:	801407b7          	lui	a5,0x80140
     268:	10178703          	lb	a4,257(a5) # 80140101 <_DATA_LMA_START+0x6013bd89>
     26c:	0ff77713          	andi	a4,a4,255
     270:	01076713          	ori	a4,a4,16
     274:	10e780a3          	sb	a4,257(a5)
     278:	0001                	c.nop
     27a:	0001                	c.nop
     27c:	0001                	c.nop
     27e:	0001                	c.nop
     280:	0001                	c.nop
     282:	0001                	c.nop
     284:	0001                	c.nop
     286:	0001                	c.nop
     288:	0001                	c.nop
     28a:	0001                	c.nop
     28c:	10178683          	lb	a3,257(a5)
     290:	80140737          	lui	a4,0x80140
     294:	0ef6f693          	andi	a3,a3,239
     298:	10d780a3          	sb	a3,257(a5)
     29c:	10a78023          	sb	a0,256(a5)
     2a0:	10270783          	lb	a5,258(a4) # 80140102 <_DATA_LMA_START+0x6013bd8a>
     2a4:	fe07fe5b          	bbs	a5,0,2a0 <flash_send_cmd+0x3c>
     2a8:	00008067          	ret

000002ac <clock_set_32k_tick>:
     2ac:	801406b7          	lui	a3,0x80140
     2b0:	20a68783          	lb	a5,522(a3) # 8014020a <_DATA_LMA_START+0x6013be92>
     2b4:	80140737          	lui	a4,0x80140
     2b8:	0ff7f793          	andi	a5,a5,255
     2bc:	0017e793          	ori	a5,a5,1
     2c0:	20f68523          	sb	a5,522(a3)
     2c4:	20b70683          	lb	a3,523(a4) # 8014020b <_DATA_LMA_START+0x6013be93>
     2c8:	20b70793          	addi	a5,a4,523
     2cc:	fe66fc5b          	bbs	a3,6,2c4 <clock_set_32k_tick+0x18>
     2d0:	20a72623          	sw	a0,524(a4)
     2d4:	4721                	c.li	a4,8
     2d6:	00e78023          	sb	a4,0(a5)
     2da:	0001                	c.nop
     2dc:	0001                	c.nop
     2de:	0001                	c.nop
     2e0:	0001                	c.nop
     2e2:	0001                	c.nop
     2e4:	0001                	c.nop
     2e6:	0001                	c.nop
     2e8:	0001                	c.nop
     2ea:	0001                	c.nop
     2ec:	0001                	c.nop
     2ee:	0001                	c.nop
     2f0:	0001                	c.nop
     2f2:	0001                	c.nop
     2f4:	0001                	c.nop
     2f6:	0001                	c.nop
     2f8:	00000013          	nop
     2fc:	801407b7          	lui	a5,0x80140
     300:	20b78703          	lb	a4,523(a5) # 8014020b <_DATA_LMA_START+0x6013be93>
     304:	fe377e5b          	bbs	a4,3,300 <clock_set_32k_tick+0x54>
     308:	00008067          	ret

0000030c <analog_read_reg32.constprop.4>:
     30c:	300027f3          	csrr	a5,mstatus
     310:	8ba1                	c.andi	a5,8
     312:	c789                	c.beqz	a5,31c <analog_read_reg32.constprop.4+0x10>
     314:	30047773          	csrrci	a4,mstatus,8
     318:	0ff0000f          	fence
     31c:	80140737          	lui	a4,0x80140
     320:	00400693          	li	a3,4
     324:	18d701a3          	sb	a3,387(a4) # 80140183 <_DATA_LMA_START+0x6013be0b>
     328:	06000693          	li	a3,96
     32c:	18d70023          	sb	a3,384(a4)
     330:	04000613          	li	a2,64
     334:	801406b7          	lui	a3,0x80140
     338:	18c70123          	sb	a2,386(a4)
     33c:	18268703          	lb	a4,386(a3) # 80140182 <_DATA_LMA_START+0x6013be0a>
     340:	fe777e5b          	bbs	a4,7,33c <analog_read_reg32.constprop.4+0x30>
     344:	1846a503          	lw	a0,388(a3)
     348:	00078663          	beqz	a5,354 <analog_read_reg32.constprop.4+0x48>
     34c:	3007a7f3          	csrrs	a5,mstatus,a5
     350:	0ff0000f          	fence
     354:	00008067          	ret

00000358 <clock_get_32k_tick>:
     358:	1141                	c.addi	sp,-16
     35a:	c422                	c.swsp	s0,8(sp)
     35c:	c606                	c.swsp	ra,12(sp)
     35e:	377d                	c.jal	30c <analog_read_reg32.constprop.4>
     360:	00a00433          	add	s0,zero,a0
     364:	fa9ff0ef          	jal	ra,30c <analog_read_reg32.constprop.4>
     368:	40850733          	sub	a4,a0,s0
     36c:	842a                	c.mv	s0,a0
     36e:	be176b5b          	bnec	a4,1,364 <clock_get_32k_tick+0xc>
     372:	40b2                	c.lwsp	ra,12(sp)
     374:	4422                	c.lwsp	s0,8(sp)
     376:	0141                	c.addi	sp,16
     378:	00008067          	ret

0000037c <pm_stimer_recover>:
     37c:	1141                	c.addi	sp,-16
     37e:	80140737          	lui	a4,0x80140
     382:	c606                	c.swsp	ra,12(sp)
     384:	4789                	c.li	a5,2
     386:	20f70c23          	sb	a5,536(a4) # 80140218 <_DATA_LMA_START+0x6013bea0>
     38a:	20a70783          	lb	a5,522(a4)
     38e:	0ff7f793          	andi	a5,a5,255
     392:	00c7e793          	ori	a5,a5,12
     396:	20f70523          	sb	a5,522(a4)
     39a:	3f7d                	c.jal	358 <clock_get_32k_tick>
     39c:	000007b7          	lui	a5,0x0
     3a0:	15878713          	addi	a4,a5,344 # 158 <_AES_VMA_END>
     3a4:	00474703          	lbu	a4,4(a4)
     3a8:	15878793          	addi	a5,a5,344
     3ac:	cf01                	c.beqz	a4,3c4 <pm_stimer_recover+0x48>
     3ae:	4b98                	c.lw	a4,16(a5)
     3b0:	5f90                	c.lw	a2,56(a5)
     3b2:	40e50733          	sub	a4,a0,a4
     3b6:	47d4                	c.lw	a3,12(a5)
     3b8:	0705                	c.addi	a4,1
     3ba:	8315                	c.srli	a4,0x5
     3bc:	c4c716ff          	maddr32	a3,a4,a2
     3c0:	c794                	c.sw	a3,8(a5)
     3c2:	a829                	c.j	3dc <pm_stimer_recover+0x60>
     3c4:	4b98                	c.lw	a4,16(a5)
     3c6:	5f94                	c.lw	a3,56(a5)
     3c8:	40e50733          	sub	a4,a0,a4
     3cc:	0705                	c.addi	a4,1
     3ce:	02d70733          	mul	a4,a4,a3
     3d2:	47d4                	c.lw	a3,12(a5)
     3d4:	8315                	c.srli	a4,0x5
     3d6:	9736                	c.add	a4,a3
     3d8:	00e7a423          	sw	a4,8(a5)
     3dc:	4b98                	c.lw	a4,16(a5)
     3de:	4794                	c.lw	a3,8(a5)
     3e0:	40e50733          	sub	a4,a0,a4
     3e4:	0705                	c.addi	a4,1
     3e6:	0505                	c.addi	a0,1
     3e8:	0685                	c.addi	a3,1
     3ea:	d788                	c.sw	a0,40(a5)
     3ec:	02e7a223          	sw	a4,36(a5)
     3f0:	80140637          	lui	a2,0x80140
     3f4:	801407b7          	lui	a5,0x80140
     3f8:	20d7a023          	sw	a3,512(a5) # 80140200 <_DATA_LMA_START+0x6013be88>
     3fc:	20b60783          	lb	a5,523(a2) # 8014020b <_DATA_LMA_START+0x6013be93>
     400:	be77fe5b          	bbc	a5,7,3fc <pm_stimer_recover+0x80>
     404:	20060c23          	sb	zero,536(a2)
     408:	40b2                	c.lwsp	ra,12(sp)
     40a:	0141                	c.addi	sp,16
     40c:	00008067          	ret

00000410 <plic_exit_critical_sec>:
     410:	000007b7          	lui	a5,0x0
     414:	15878793          	addi	a5,a5,344 # 158 <_AES_VMA_END>
     418:	03c78783          	lb	a5,60(a5)
     41c:	0ff7f793          	andi	a5,a5,255
     420:	c795                	c.beqz	a5,44c <plic_exit_critical_sec+0x3c>
     422:	c50d                	c.beqz	a0,44c <plic_exit_critical_sec+0x3c>
     424:	300027f3          	csrr	a5,mstatus
     428:	8ba1                	c.andi	a5,8
     42a:	0ff5f593          	andi	a1,a1,255
     42e:	c78d                	c.beqz	a5,458 <plic_exit_critical_sec+0x48>
     430:	30047773          	csrrci	a4,mstatus,8
     434:	0ff0000f          	fence
     438:	e4200737          	lui	a4,0xe4200
     43c:	c30c                	c.sw	a1,0(a4)
     43e:	0ff0000f          	fence
     442:	3007a7f3          	csrrs	a5,mstatus,a5
     446:	0ff0000f          	fence
     44a:	8082                	c.jr	ra
     44c:	cd81                	c.beqz	a1,464 <plic_exit_critical_sec+0x54>
     44e:	3005a5f3          	csrrs	a1,mstatus,a1
     452:	0ff0000f          	fence
     456:	8082                	c.jr	ra
     458:	e42007b7          	lui	a5,0xe4200
     45c:	00b7a023          	sw	a1,0(a5) # e4200000 <_DATA_LMA_START+0xc41fbc88>
     460:	0ff0000f          	fence
     464:	00008067          	ret

00000468 <plic_enter_critical_sec>:
     468:	000007b7          	lui	a5,0x0
     46c:	15878793          	addi	a5,a5,344 # 158 <_AES_VMA_END>
     470:	03c78783          	lb	a5,60(a5)
     474:	0ff7f793          	andi	a5,a5,255
     478:	cb85                	c.beqz	a5,4a8 <plic_enter_critical_sec+0x40>
     47a:	c51d                	c.beqz	a0,4a8 <plic_enter_critical_sec+0x40>
     47c:	e4200737          	lui	a4,0xe4200
     480:	4308                	c.lw	a0,0(a4)
     482:	04b57163          	bgeu	a0,a1,4c4 <plic_enter_critical_sec+0x5c>
     486:	300027f3          	csrr	a5,mstatus
     48a:	8ba1                	c.andi	a5,8
     48c:	cb85                	c.beqz	a5,4bc <plic_enter_critical_sec+0x54>
     48e:	300476f3          	csrrci	a3,mstatus,8
     492:	0ff0000f          	fence
     496:	c30c                	c.sw	a1,0(a4)
     498:	0ff0000f          	fence
     49c:	3007a7f3          	csrrs	a5,mstatus,a5
     4a0:	0ff0000f          	fence
     4a4:	00008067          	ret
     4a8:	30002573          	csrr	a0,mstatus
     4ac:	8921                	c.andi	a0,8
     4ae:	c919                	c.beqz	a0,4c4 <plic_enter_critical_sec+0x5c>
     4b0:	300477f3          	csrrci	a5,mstatus,8
     4b4:	0ff0000f          	fence
     4b8:	00008067          	ret
     4bc:	00b72023          	sw	a1,0(a4) # e4200000 <_DATA_LMA_START+0xc41fbc88>
     4c0:	0ff0000f          	fence
     4c4:	00008067          	ret

000004c8 <flash_mspi_read_ram>:
     4c8:	7179                	c.addi16sp	sp,-48
     4ca:	d226                	c.swsp	s1,36(sp)
     4cc:	000004b7          	lui	s1,0x0
     4d0:	15848493          	addi	s1,s1,344 # 158 <_AES_VMA_END>
     4d4:	d04a                	c.swsp	s2,32(sp)
     4d6:	c65e                	c.swsp	s7,12(sp)
     4d8:	892a                	c.mv	s2,a0
     4da:	8bae                	c.mv	s7,a1
     4dc:	0404c503          	lbu	a0,64(s1)
     4e0:	0414c583          	lbu	a1,65(s1)
     4e4:	d422                	c.swsp	s0,40(sp)
     4e6:	ce4e                	c.swsp	s3,28(sp)
     4e8:	cc52                	c.swsp	s4,24(sp)
     4ea:	ca56                	c.swsp	s5,20(sp)
     4ec:	c85a                	c.swsp	s6,16(sp)
     4ee:	d606                	c.swsp	ra,44(sp)
     4f0:	8b32                	c.mv	s6,a2
     4f2:	8ab6                	c.mv	s5,a3
     4f4:	843a                	c.mv	s0,a4
     4f6:	8a3e                	c.mv	s4,a5
     4f8:	f71ff0ef          	jal	ra,468 <plic_enter_critical_sec>
     4fc:	80140637          	lui	a2,0x80140
     500:	00a009b3          	add	s3,zero,a0
     504:	10260783          	lb	a5,258(a2) # 80140102 <_DATA_LMA_START+0x6013bd8a>
     508:	fe07fe5b          	bbs	a5,0,504 <flash_mspi_read_ram+0x3c>
     50c:	10160783          	lb	a5,257(a2)
     510:	80140737          	lui	a4,0x80140
     514:	0ff7f793          	andi	a5,a5,255
     518:	0107e793          	ori	a5,a5,16
     51c:	10f600a3          	sb	a5,257(a2)
     520:	32870783          	lb	a5,808(a4) # 80140328 <_DATA_LMA_START+0x6013bfb0>
     524:	be37fe5b          	bbc	a5,3,520 <flash_mspi_read_ram+0x58>
     528:	10170783          	lb	a5,257(a4)
     52c:	854a                	c.mv	a0,s2
     52e:	0fd7f793          	andi	a5,a5,253
     532:	10f700a3          	sb	a5,257(a4)
     536:	10170783          	lb	a5,257(a4)
     53a:	0f37f793          	andi	a5,a5,243
     53e:	10f700a3          	sb	a5,257(a4)
     542:	330d                	c.jal	264 <flash_send_cmd>
     544:	0e0b1e63          	bnez	s6,640 <flash_mspi_read_ram+0x178>
     548:	020a8063          	beqz	s5,568 <flash_mspi_read_ram+0xa0>
     54c:	00000713          	li	a4,0
     550:	80140637          	lui	a2,0x80140
     554:	10060023          	sb	zero,256(a2) # 80140100 <_DATA_LMA_START+0x6013bd88>
     558:	10260783          	lb	a5,258(a2)
     55c:	fe07fe5b          	bbs	a5,0,558 <flash_mspi_read_ram+0x90>
     560:	00170713          	addi	a4,a4,1
     564:	ff5718e3          	bne	a4,s5,554 <flash_mspi_read_ram+0x8c>
     568:	01b96cdb          	bnec	s2,59,580 <flash_mspi_read_ram+0xb8>
     56c:	80140737          	lui	a4,0x80140
     570:	10170783          	lb	a5,257(a4) # 80140101 <_DATA_LMA_START+0x6013bd89>
     574:	0f37f793          	andi	a5,a5,243
     578:	0047e793          	ori	a5,a5,4
     57c:	10f700a3          	sb	a5,257(a4)
     580:	801406b7          	lui	a3,0x80140
     584:	10168783          	lb	a5,257(a3) # 80140101 <_DATA_LMA_START+0x6013bd89>
     588:	80140737          	lui	a4,0x80140
     58c:	0ff7f793          	andi	a5,a5,255
     590:	0027e793          	ori	a5,a5,2
     594:	10f680a3          	sb	a5,257(a3)
     598:	10068023          	sb	zero,256(a3)
     59c:	10270783          	lb	a5,258(a4) # 80140102 <_DATA_LMA_START+0x6013bd8a>
     5a0:	fe07fe5b          	bbs	a5,0,59c <flash_mspi_read_ram+0xd4>
     5a4:	10170783          	lb	a5,257(a4)
     5a8:	801406b7          	lui	a3,0x80140
     5ac:	0ff7f793          	andi	a5,a5,255
     5b0:	0017e793          	ori	a5,a5,1
     5b4:	10f700a3          	sb	a5,257(a4)
     5b8:	10268783          	lb	a5,258(a3) # 80140102 <_DATA_LMA_START+0x6013bd8a>
     5bc:	fe07fe5b          	bbs	a5,0,5b8 <flash_mspi_read_ram+0xf0>
     5c0:	020a0263          	beqz	s4,5e4 <flash_mspi_read_ram+0x11c>
     5c4:	008a0a33          	add	s4,s4,s0
     5c8:	801406b7          	lui	a3,0x80140
     5cc:	10068783          	lb	a5,256(a3) # 80140100 <_DATA_LMA_START+0x6013bd88>
     5d0:	00140413          	addi	s0,s0,1
     5d4:	fef40fa3          	sb	a5,-1(s0)
     5d8:	10268783          	lb	a5,258(a3)
     5dc:	fe07fe5b          	bbs	a5,0,5d8 <flash_mspi_read_ram+0x110>
     5e0:	ff4416e3          	bne	s0,s4,5cc <flash_mspi_read_ram+0x104>
     5e4:	801407b7          	lui	a5,0x80140
     5e8:	10178703          	lb	a4,257(a5) # 80140101 <_DATA_LMA_START+0x6013bd89>
     5ec:	0fe77713          	andi	a4,a4,254
     5f0:	10e780a3          	sb	a4,257(a5)
     5f4:	01b968db          	bnec	s2,59,604 <flash_mspi_read_ram+0x13c>
     5f8:	10178703          	lb	a4,257(a5)
     5fc:	0f377713          	andi	a4,a4,243
     600:	10e780a3          	sb	a4,257(a5)
     604:	80140737          	lui	a4,0x80140
     608:	10170783          	lb	a5,257(a4) # 80140101 <_DATA_LMA_START+0x6013bd89>
     60c:	0ff7f793          	andi	a5,a5,255
     610:	0107e793          	ori	a5,a5,16
     614:	10f700a3          	sb	a5,257(a4)
     618:	0001                	c.nop
     61a:	0001                	c.nop
     61c:	0001                	c.nop
     61e:	0001                	c.nop
     620:	0001                	c.nop
     622:	5422                	c.lwsp	s0,40(sp)
     624:	0404c503          	lbu	a0,64(s1)
     628:	50b2                	c.lwsp	ra,44(sp)
     62a:	5492                	c.lwsp	s1,36(sp)
     62c:	5902                	c.lwsp	s2,32(sp)
     62e:	4a62                	c.lwsp	s4,24(sp)
     630:	4ad2                	c.lwsp	s5,20(sp)
     632:	4b42                	c.lwsp	s6,16(sp)
     634:	4bb2                	c.lwsp	s7,12(sp)
     636:	85ce                	c.mv	a1,s3
     638:	49f2                	c.lwsp	s3,28(sp)
     63a:	6145                	c.addi16sp	sp,48
     63c:	dd5ff06f          	j	410 <plic_exit_critical_sec>
     640:	855e                	c.mv	a0,s7
     642:	3ef9                	c.jal	220 <flash_send_addr>
     644:	f05ff06f          	j	548 <flash_mspi_read_ram+0x80>

00000648 <flash_mspi_read_ram.constprop.7>:
     648:	1101                	c.addi	sp,-32
     64a:	c64e                	c.swsp	s3,12(sp)
     64c:	000009b7          	lui	s3,0x0
     650:	15898993          	addi	s3,s3,344 # 158 <_AES_VMA_END>
     654:	cc22                	c.swsp	s0,24(sp)
     656:	c256                	c.swsp	s5,4(sp)
     658:	842e                	c.mv	s0,a1
     65a:	8aaa                	c.mv	s5,a0
     65c:	0419c583          	lbu	a1,65(s3)
     660:	0409c503          	lbu	a0,64(s3)
     664:	c84a                	c.swsp	s2,16(sp)
     666:	c452                	c.swsp	s4,8(sp)
     668:	ce06                	c.swsp	ra,28(sp)
     66a:	ca26                	c.swsp	s1,20(sp)
     66c:	8932                	c.mv	s2,a2
     66e:	3bed                	c.jal	468 <plic_enter_critical_sec>
     670:	80140737          	lui	a4,0x80140
     674:	00a00a33          	add	s4,zero,a0
     678:	10270783          	lb	a5,258(a4) # 80140102 <_DATA_LMA_START+0x6013bd8a>
     67c:	fe07fe5b          	bbs	a5,0,678 <flash_mspi_read_ram.constprop.7+0x30>
     680:	10170783          	lb	a5,257(a4)
     684:	801404b7          	lui	s1,0x80140
     688:	0ff7f793          	andi	a5,a5,255
     68c:	0107e793          	ori	a5,a5,16
     690:	10f700a3          	sb	a5,257(a4)
     694:	32848783          	lb	a5,808(s1) # 80140328 <_DATA_LMA_START+0x6013bfb0>
     698:	be37fe5b          	bbc	a5,3,694 <flash_mspi_read_ram.constprop.7+0x4c>
     69c:	10148783          	lb	a5,257(s1)
     6a0:	03b00513          	li	a0,59
     6a4:	0fd7f793          	andi	a5,a5,253
     6a8:	10f480a3          	sb	a5,257(s1)
     6ac:	10148783          	lb	a5,257(s1)
     6b0:	0f37f793          	andi	a5,a5,243
     6b4:	10f480a3          	sb	a5,257(s1)
     6b8:	badff0ef          	jal	ra,264 <flash_send_cmd>
     6bc:	01500533          	add	a0,zero,s5
     6c0:	b61ff0ef          	jal	ra,220 <flash_send_addr>
     6c4:	80140737          	lui	a4,0x80140
     6c8:	10048023          	sb	zero,256(s1)
     6cc:	10270783          	lb	a5,258(a4) # 80140102 <_DATA_LMA_START+0x6013bd8a>
     6d0:	fe07fe5b          	bbs	a5,0,6cc <flash_mspi_read_ram.constprop.7+0x84>
     6d4:	10170783          	lb	a5,257(a4)
     6d8:	801406b7          	lui	a3,0x80140
     6dc:	0f37f793          	andi	a5,a5,243
     6e0:	0047e793          	ori	a5,a5,4
     6e4:	10f700a3          	sb	a5,257(a4)
     6e8:	10170783          	lb	a5,257(a4)
     6ec:	0ff7f793          	andi	a5,a5,255
     6f0:	0027e793          	ori	a5,a5,2
     6f4:	10f700a3          	sb	a5,257(a4)
     6f8:	10070023          	sb	zero,256(a4)
     6fc:	10268783          	lb	a5,258(a3) # 80140102 <_DATA_LMA_START+0x6013bd8a>
     700:	fe07fe5b          	bbs	a5,0,6fc <flash_mspi_read_ram.constprop.7+0xb4>
     704:	10168783          	lb	a5,257(a3)
     708:	80140737          	lui	a4,0x80140
     70c:	0ff7f793          	andi	a5,a5,255
     710:	0017e793          	ori	a5,a5,1
     714:	10f680a3          	sb	a5,257(a3)
     718:	10270783          	lb	a5,258(a4) # 80140102 <_DATA_LMA_START+0x6013bd8a>
     71c:	fe07fe5b          	bbs	a5,0,718 <flash_mspi_read_ram.constprop.7+0xd0>
     720:	02090263          	beqz	s2,744 <flash_mspi_read_ram.constprop.7+0xfc>
     724:	01240633          	add	a2,s0,s2
     728:	80140737          	lui	a4,0x80140
     72c:	10070783          	lb	a5,256(a4) # 80140100 <_DATA_LMA_START+0x6013bd88>
     730:	00140413          	addi	s0,s0,1
     734:	fef40fa3          	sb	a5,-1(s0)
     738:	10270783          	lb	a5,258(a4)
     73c:	fe07fe5b          	bbs	a5,0,738 <flash_mspi_read_ram.constprop.7+0xf0>
     740:	fec416e3          	bne	s0,a2,72c <flash_mspi_read_ram.constprop.7+0xe4>
     744:	801407b7          	lui	a5,0x80140
     748:	10178703          	lb	a4,257(a5) # 80140101 <_DATA_LMA_START+0x6013bd89>
     74c:	0fe77713          	andi	a4,a4,254
     750:	10e780a3          	sb	a4,257(a5)
     754:	10178703          	lb	a4,257(a5)
     758:	0f377713          	andi	a4,a4,243
     75c:	10e780a3          	sb	a4,257(a5)
     760:	10178703          	lb	a4,257(a5)
     764:	0ff77713          	andi	a4,a4,255
     768:	01076713          	ori	a4,a4,16
     76c:	10e780a3          	sb	a4,257(a5)
     770:	0001                	c.nop
     772:	0001                	c.nop
     774:	0001                	c.nop
     776:	0001                	c.nop
     778:	0001                	c.nop
     77a:	4462                	c.lwsp	s0,24(sp)
     77c:	0409c503          	lbu	a0,64(s3)
     780:	40f2                	c.lwsp	ra,28(sp)
     782:	44d2                	c.lwsp	s1,20(sp)
     784:	4942                	c.lwsp	s2,16(sp)
     786:	49b2                	c.lwsp	s3,12(sp)
     788:	4a92                	c.lwsp	s5,4(sp)
     78a:	85d2                	c.mv	a1,s4
     78c:	4a22                	c.lwsp	s4,8(sp)
     78e:	6105                	c.addi16sp	sp,32
     790:	c81ff06f          	j	410 <plic_exit_critical_sec>

00000794 <analog_write_reg8>:
     794:	30002673          	csrr	a2,mstatus
     798:	8a21                	c.andi	a2,8
     79a:	c609                	c.beqz	a2,7a4 <analog_write_reg8+0x10>
     79c:	300477f3          	csrrci	a5,mstatus,8
     7a0:	0ff0000f          	fence
     7a4:	80140737          	lui	a4,0x80140
     7a8:	18a70023          	sb	a0,384(a4) # 80140180 <_DATA_LMA_START+0x6013be08>
     7ac:	18b70223          	sb	a1,388(a4)
     7b0:	06000693          	li	a3,96
     7b4:	801407b7          	lui	a5,0x80140
     7b8:	18d70123          	sb	a3,386(a4)
     7bc:	18278703          	lb	a4,386(a5) # 80140182 <_DATA_LMA_START+0x6013be0a>
     7c0:	fe777e5b          	bbs	a4,7,7bc <analog_write_reg8+0x28>
     7c4:	18078123          	sb	zero,386(a5)
     7c8:	00060663          	beqz	a2,7d4 <analog_write_reg8+0x40>
     7cc:	30062673          	csrrs	a2,mstatus,a2
     7d0:	0ff0000f          	fence
     7d4:	00008067          	ret

000007d8 <analog_read_reg8>:
     7d8:	300026f3          	csrr	a3,mstatus
     7dc:	8aa1                	c.andi	a3,8
     7de:	c689                	c.beqz	a3,7e8 <analog_read_reg8+0x10>
     7e0:	300477f3          	csrrci	a5,mstatus,8
     7e4:	0ff0000f          	fence
     7e8:	801407b7          	lui	a5,0x80140
     7ec:	18a78023          	sb	a0,384(a5) # 80140180 <_DATA_LMA_START+0x6013be08>
     7f0:	00100713          	li	a4,1
     7f4:	18e781a3          	sb	a4,387(a5)
     7f8:	04000613          	li	a2,64
     7fc:	80140737          	lui	a4,0x80140
     800:	18c78123          	sb	a2,386(a5)
     804:	18270783          	lb	a5,386(a4) # 80140182 <_DATA_LMA_START+0x6013be0a>
     808:	fe77fe5b          	bbs	a5,7,804 <analog_read_reg8+0x2c>
     80c:	18470503          	lb	a0,388(a4)
     810:	0ff57513          	andi	a0,a0,255
     814:	00068663          	beqz	a3,820 <analog_read_reg8+0x48>
     818:	3006a6f3          	csrrs	a3,mstatus,a3
     81c:	0ff0000f          	fence
     820:	00008067          	ret

00000824 <clock_init_ram.constprop.11>:
     824:	1141                	c.addi	sp,-16
     826:	80140737          	lui	a4,0x80140
     82a:	c606                	c.swsp	ra,12(sp)
     82c:	c422                	c.swsp	s0,8(sp)
     82e:	c226                	c.swsp	s1,4(sp)
     830:	10270783          	lb	a5,258(a4) # 80140102 <_DATA_LMA_START+0x6013bd8a>
     834:	fe07fe5b          	bbs	a5,0,830 <clock_init_ram.constprop.11+0xc>
     838:	10170783          	lb	a5,257(a4)
     83c:	801404b7          	lui	s1,0x80140
     840:	0ff7f793          	andi	a5,a5,255
     844:	0107e793          	ori	a5,a5,16
     848:	10f700a3          	sb	a5,257(a4)
     84c:	32848783          	lb	a5,808(s1) # 80140328 <_DATA_LMA_START+0x6013bfb0>
     850:	be37fe5b          	bbc	a5,3,84c <clock_init_ram.constprop.11+0x28>
     854:	1e848783          	lb	a5,488(s1)
     858:	08000513          	li	a0,128
     85c:	8bbd                	c.andi	a5,15
     85e:	1ef48423          	sb	a5,488(s1)
     862:	3f9d                	c.jal	7d8 <analog_read_reg8>
     864:	0e057593          	andi	a1,a0,224
     868:	0105e593          	ori	a1,a1,16
     86c:	08000513          	li	a0,128
     870:	f25ff0ef          	jal	ra,794 <analog_write_reg8>
     874:	00900513          	li	a0,9
     878:	f61ff0ef          	jal	ra,7d8 <analog_read_reg8>
     87c:	0f357593          	andi	a1,a0,243
     880:	0085e593          	ori	a1,a1,8
     884:	4525                	c.li	a0,9
     886:	3739                	c.jal	794 <analog_write_reg8>
     888:	0c000793          	li	a5,192
     88c:	fa9f940b          	addigp	s0,-88 # 807a8 <sys_clk>
     890:	00f41023          	sh	a5,0(s0)
     894:	08100513          	li	a0,129
     898:	4791                	c.li	a5,4
     89a:	1ef48da3          	sb	a5,507(s1)
     89e:	3f2d                	c.jal	7d8 <analog_read_reg8>
     8a0:	04056593          	ori	a1,a0,64
     8a4:	0ff5f593          	andi	a1,a1,255
     8a8:	08100513          	li	a0,129
     8ac:	ee9ff0ef          	jal	ra,794 <analog_write_reg8>
     8b0:	08800513          	li	a0,136
     8b4:	f25ff0ef          	jal	ra,7d8 <analog_read_reg8>
     8b8:	be557c5b          	bbc	a0,5,8b0 <clock_init_ram.constprop.11+0x8c>
     8bc:	08100513          	li	a0,129
     8c0:	f19ff0ef          	jal	ra,7d8 <analog_read_reg8>
     8c4:	0bf57593          	andi	a1,a0,191
     8c8:	08100513          	li	a0,129
     8cc:	ec9ff0ef          	jal	ra,794 <analog_write_reg8>
     8d0:	801407b7          	lui	a5,0x80140
     8d4:	1e978703          	lb	a4,489(a5) # 801401e9 <_DATA_LMA_START+0x6013be71>
     8d8:	8b3d                	c.andi	a4,15
     8da:	04076713          	ori	a4,a4,64
     8de:	1ee784a3          	sb	a4,489(a5)
     8e2:	1e878703          	lb	a4,488(a5)
     8e6:	f8076713          	ori	a4,a4,-128
     8ea:	0ff77713          	andi	a4,a4,255
     8ee:	1ee78423          	sb	a4,488(a5)
     8f2:	1e878703          	lb	a4,488(a5)
     8f6:	f8076713          	ori	a4,a4,-128
     8fa:	0ff77713          	andi	a4,a4,255
     8fe:	1ee78423          	sb	a4,488(a5)
     902:	1d878703          	lb	a4,472(a5)
     906:	00045683          	lhu	a3,0(s0)
     90a:	0fb77713          	andi	a4,a4,251
     90e:	1ce78c23          	sb	a4,472(a5)
     912:	1d878703          	lb	a4,472(a5)
     916:	8689                	c.srai	a3,0x2
     918:	00d402a3          	sb	a3,5(s0)
     91c:	0fc77713          	andi	a4,a4,252
     920:	1ce78c23          	sb	a4,472(a5)
     924:	1e878703          	lb	a4,488(a5)
     928:	0f077713          	andi	a4,a4,240
     92c:	00876713          	ori	a4,a4,8
     930:	1ee78423          	sb	a4,488(a5)
     934:	1e878703          	lb	a4,488(a5)
     938:	00045683          	lhu	a3,0(s0)
     93c:	08f77713          	andi	a4,a4,143
     940:	868d                	c.srai	a3,0x3
     942:	00d40123          	sb	a3,2(s0)
     946:	02076713          	ori	a4,a4,32
     94a:	1ee78423          	sb	a4,488(a5)
     94e:	0ff6f693          	andi	a3,a3,255
     952:	00d401a3          	sb	a3,3(s0)
     956:	00d40223          	sb	a3,4(s0)
     95a:	40b2                	c.lwsp	ra,12(sp)
     95c:	4422                	c.lwsp	s0,8(sp)
     95e:	4492                	c.lwsp	s1,4(sp)
     960:	0141                	c.addi	sp,16
     962:	8082                	c.jr	ra

00000964 <pm_wait_bbpll_done>:
     964:	1101                	c.addi	sp,-32
     966:	08100513          	li	a0,129
     96a:	cc22                	c.swsp	s0,24(sp)
     96c:	ca26                	c.swsp	s1,20(sp)
     96e:	c84a                	c.swsp	s2,16(sp)
     970:	ce06                	c.swsp	ra,28(sp)
     972:	359d                	c.jal	7d8 <analog_read_reg8>
     974:	04056593          	ori	a1,a0,64
     978:	892a                	c.mv	s2,a0
     97a:	0ff5f593          	andi	a1,a1,255
     97e:	08100513          	li	a0,129
     982:	0bf97913          	andi	s2,s2,191
     986:	4481                	c.li	s1,0
     988:	4475                	c.li	s0,29
     98a:	3529                	c.jal	794 <analog_write_reg8>
     98c:	000107a3          	sb	zero,15(sp)
     990:	00f10783          	lb	a5,15(sp)
     994:	0ff7f793          	andi	a5,a5,255
     998:	02f46063          	bltu	s0,a5,9b8 <pm_wait_bbpll_done+0x54>
     99c:	0001                	c.nop
     99e:	00f10783          	lb	a5,15(sp)
     9a2:	0785                	c.addi	a5,1
     9a4:	0ff7f793          	andi	a5,a5,255
     9a8:	00f107a3          	sb	a5,15(sp)
     9ac:	00f10783          	lb	a5,15(sp)
     9b0:	0ff7f793          	andi	a5,a5,255
     9b4:	fef474e3          	bgeu	s0,a5,99c <pm_wait_bbpll_done+0x38>
     9b8:	08800513          	li	a0,136
     9bc:	e1dff0ef          	jal	ra,7d8 <analog_read_reg8>
     9c0:	4255765b          	bbs	a0,5,9ec <pm_wait_bbpll_done+0x88>
     9c4:	cc95                	c.beqz	s1,a00 <pm_wait_bbpll_done+0x9c>
     9c6:	0414d35b          	beqc	s1,1,a0c <pm_wait_bbpll_done+0xa8>
     9ca:	85ca                	c.mv	a1,s2
     9cc:	08100513          	li	a0,129
     9d0:	dc5ff0ef          	jal	ra,794 <analog_write_reg8>
     9d4:	0024d65b          	beqc	s1,2,9e0 <pm_wait_bbpll_done+0x7c>
     9d8:	0485                	c.addi	s1,1
     9da:	0ff4f493          	andi	s1,s1,255
     9de:	b77d                	c.j	98c <pm_wait_bbpll_done+0x28>
     9e0:	40f2                	c.lwsp	ra,28(sp)
     9e2:	4462                	c.lwsp	s0,24(sp)
     9e4:	44d2                	c.lwsp	s1,20(sp)
     9e6:	4942                	c.lwsp	s2,16(sp)
     9e8:	6105                	c.addi16sp	sp,32
     9ea:	8082                	c.jr	ra
     9ec:	4462                	c.lwsp	s0,24(sp)
     9ee:	40f2                	c.lwsp	ra,28(sp)
     9f0:	44d2                	c.lwsp	s1,20(sp)
     9f2:	85ca                	c.mv	a1,s2
     9f4:	4942                	c.lwsp	s2,16(sp)
     9f6:	08100513          	li	a0,129
     9fa:	6105                	c.addi16sp	sp,32
     9fc:	d99ff06f          	j	794 <analog_write_reg8>
     a00:	04600593          	li	a1,70
     a04:	4505                	c.li	a0,1
     a06:	3379                	c.jal	794 <analog_write_reg8>
     a08:	fd1ff06f          	j	9d8 <pm_wait_bbpll_done+0x74>
     a0c:	04300593          	li	a1,67
     a10:	4505                	c.li	a0,1
     a12:	3349                	c.jal	794 <analog_write_reg8>
     a14:	fc5ff06f          	j	9d8 <pm_wait_bbpll_done+0x74>

00000a18 <pm_sleep_start>:
     a18:	1101                	c.addi	sp,-32
     a1a:	fcffa72b          	lwgp	a4,-52 # 807cc <g_chip_version>
     a1e:	000006b7          	lui	a3,0x0
     a22:	ce06                	c.swsp	ra,28(sp)
     a24:	cc22                	c.swsp	s0,24(sp)
     a26:	ca26                	c.swsp	s1,20(sp)
     a28:	0ff00793          	li	a5,255
     a2c:	19a6c583          	lbu	a1,410(a3) # 19a <g_pm_suspend_power_cfg>
     a30:	00f71a63          	bne	a4,a5,a44 <pm_sleep_start+0x2c>
     a34:	0fe5f593          	andi	a1,a1,254
     a38:	07d00513          	li	a0,125
     a3c:	d59ff0ef          	jal	ra,794 <analog_write_reg8>
     a40:	00c0006f          	j	a4c <pm_sleep_start+0x34>
     a44:	07d00513          	li	a0,125
     a48:	d4dff0ef          	jal	ra,794 <analog_write_reg8>
     a4c:	801406b7          	lui	a3,0x80140
     a50:	10268783          	lb	a5,258(a3) # 80140102 <_DATA_LMA_START+0x6013bd8a>
     a54:	fe07fe5b          	bbs	a5,0,a50 <pm_sleep_start+0x38>
     a58:	10168703          	lb	a4,257(a3)
     a5c:	801407b7          	lui	a5,0x80140
     a60:	0ff77713          	andi	a4,a4,255
     a64:	01076713          	ori	a4,a4,16
     a68:	10e680a3          	sb	a4,257(a3)
     a6c:	32878703          	lb	a4,808(a5) # 80140328 <_DATA_LMA_START+0x6013bfb0>
     a70:	be377e5b          	bbc	a4,3,a6c <pm_sleep_start+0x54>
     a74:	10178703          	lb	a4,257(a5)
     a78:	80140437          	lui	s0,0x80140
     a7c:	0fd77713          	andi	a4,a4,253
     a80:	10e780a3          	sb	a4,257(a5)
     a84:	10178703          	lb	a4,257(a5)
     a88:	0ef77713          	andi	a4,a4,239
     a8c:	10e780a3          	sb	a4,257(a5)
     a90:	fb900713          	li	a4,-71
     a94:	10e78023          	sb	a4,256(a5)
     a98:	10240783          	lb	a5,258(s0) # 80140102 <_DATA_LMA_START+0x6013bd8a>
     a9c:	fe07fe5b          	bbs	a5,0,a98 <pm_sleep_start+0x80>
     aa0:	10140783          	lb	a5,257(s0)
     aa4:	452d                	c.li	a0,11
     aa6:	0ff7f793          	andi	a5,a5,255
     aaa:	0107e793          	ori	a5,a5,16
     aae:	10f400a3          	sb	a5,257(s0)
     ab2:	320404a3          	sb	zero,809(s0)
     ab6:	330d                	c.jal	7d8 <analog_read_reg8>
     ab8:	0fc57593          	andi	a1,a0,252
     abc:	452d                	c.li	a0,11
     abe:	39d9                	c.jal	794 <analog_write_reg8>
     ac0:	08100513          	li	a0,129
     ac4:	d15ff0ef          	jal	ra,7d8 <analog_read_reg8>
     ac8:	f8056593          	ori	a1,a0,-128
     acc:	0ff5f593          	andi	a1,a1,255
     ad0:	08100513          	li	a0,129
     ad4:	cc1ff0ef          	jal	ra,794 <analog_write_reg8>
     ad8:	f8000793          	li	a5,-128
     adc:	1ef407a3          	sb	a5,495(s0)
     ae0:	03f00493          	li	s1,63
     ae4:	00012423          	sw	zero,8(sp)
     ae8:	47a2                	c.lwsp	a5,8(sp)
     aea:	00f4e763          	bltu	s1,a5,af8 <pm_sleep_start+0xe0>
     aee:	0001                	c.nop
     af0:	47a2                	c.lwsp	a5,8(sp)
     af2:	0785                	c.addi	a5,1
     af4:	c43e                	c.swsp	a5,8(sp)
     af6:	bfcd                	c.j	ae8 <pm_sleep_start+0xd0>
     af8:	08100513          	li	a0,129
     afc:	cddff0ef          	jal	ra,7d8 <analog_read_reg8>
     b00:	07f57593          	andi	a1,a0,127
     b04:	08100513          	li	a0,129
     b08:	c8dff0ef          	jal	ra,794 <analog_write_reg8>
     b0c:	00b00513          	li	a0,11
     b10:	cc9ff0ef          	jal	ra,7d8 <analog_read_reg8>
     b14:	00356593          	ori	a1,a0,3
     b18:	0ff5f593          	andi	a1,a1,255
     b1c:	452d                	c.li	a0,11
     b1e:	399d                	c.jal	794 <analog_write_reg8>
     b20:	08000593          	li	a1,128
     b24:	07d00513          	li	a0,125
     b28:	c6dff0ef          	jal	ra,794 <analog_write_reg8>
     b2c:	801407b7          	lui	a5,0x80140
     b30:	329784a3          	sb	s1,809(a5) # 80140329 <_DATA_LMA_START+0x6013bfb1>
     b34:	10178683          	lb	a3,257(a5)
     b38:	80140737          	lui	a4,0x80140
     b3c:	0ef6f693          	andi	a3,a3,239
     b40:	10d780a3          	sb	a3,257(a5)
     b44:	fab00693          	li	a3,-85
     b48:	10d78023          	sb	a3,256(a5)
     b4c:	10270783          	lb	a5,258(a4) # 80140102 <_DATA_LMA_START+0x6013bd8a>
     b50:	fe07fe5b          	bbs	a5,0,b4c <pm_sleep_start+0x134>
     b54:	10170783          	lb	a5,257(a4)
     b58:	12b00693          	li	a3,299
     b5c:	0ff7f793          	andi	a5,a5,255
     b60:	0107e793          	ori	a5,a5,16
     b64:	10f700a3          	sb	a5,257(a4)
     b68:	00012623          	sw	zero,12(sp)
     b6c:	47b2                	c.lwsp	a5,12(sp)
     b6e:	00f6e763          	bltu	a3,a5,b7c <pm_sleep_start+0x164>
     b72:	0001                	c.nop
     b74:	47b2                	c.lwsp	a5,12(sp)
     b76:	0785                	c.addi	a5,1
     b78:	c63e                	c.swsp	a5,12(sp)
     b7a:	bfcd                	c.j	b6c <pm_sleep_start+0x154>
     b7c:	08800513          	li	a0,136
     b80:	c59ff0ef          	jal	ra,7d8 <analog_read_reg8>
     b84:	be757c5b          	bbc	a0,7,b7c <pm_sleep_start+0x164>
     b88:	08800513          	li	a0,136
     b8c:	c4dff0ef          	jal	ra,7d8 <analog_read_reg8>
     b90:	be757c5b          	bbc	a0,7,b88 <pm_sleep_start+0x170>
     b94:	08800513          	li	a0,136
     b98:	c41ff0ef          	jal	ra,7d8 <analog_read_reg8>
     b9c:	be757c5b          	bbc	a0,7,b94 <pm_sleep_start+0x17c>
     ba0:	4462                	c.lwsp	s0,24(sp)
     ba2:	40f2                	c.lwsp	ra,28(sp)
     ba4:	44d2                	c.lwsp	s1,20(sp)
     ba6:	6105                	c.addi16sp	sp,32
     ba8:	dbdff06f          	j	964 <pm_wait_bbpll_done>

00000bac <dr_putchar>:
     bac:	1101                	c.addi	sp,-32
     bae:	ca26                	c.swsp	s1,20(sp)
     bb0:	cc22                	c.swsp	s0,24(sp)
     bb2:	ce06                	c.swsp	ra,28(sp)
     bb4:	c84a                	c.swsp	s2,16(sp)
     bb6:	fa5f948b          	addigp	s1,-92 # 807a4 <init_flag.4915>
     bba:	842a                	c.mv	s0,a0
     bbc:	0004c783          	lbu	a5,0(s1)
     bc0:	0c17d25b          	beqc	a5,1,c84 <dr_putchar+0xd8>
     bc4:	801407b7          	lui	a5,0x80140
     bc8:	30378703          	lb	a4,771(a5) # 80140303 <_DATA_LMA_START+0x6013bf8b>
     bcc:	30378783          	lb	a5,771(a5)
     bd0:	0fe77713          	andi	a4,a4,254
     bd4:	0ff7f793          	andi	a5,a5,255
     bd8:	0017e793          	ori	a5,a5,1
     bdc:	00e10223          	sb	a4,4(sp)
     be0:	86be                	c.mv	a3,a5
     be2:	4004735b          	bbs	s0,0,be8 <dr_putchar+0x3c>
     be6:	86ba                	c.mv	a3,a4
     be8:	00d102a3          	sb	a3,5(sp)
     bec:	86be                	c.mv	a3,a5
     bee:	4014735b          	bbs	s0,1,bf4 <dr_putchar+0x48>
     bf2:	86ba                	c.mv	a3,a4
     bf4:	00d10323          	sb	a3,6(sp)
     bf8:	86be                	c.mv	a3,a5
     bfa:	4024735b          	bbs	s0,2,c00 <dr_putchar+0x54>
     bfe:	86ba                	c.mv	a3,a4
     c00:	00d103a3          	sb	a3,7(sp)
     c04:	86be                	c.mv	a3,a5
     c06:	4034735b          	bbs	s0,3,c0c <dr_putchar+0x60>
     c0a:	86ba                	c.mv	a3,a4
     c0c:	00d10423          	sb	a3,8(sp)
     c10:	86be                	c.mv	a3,a5
     c12:	4044735b          	bbs	s0,4,c18 <dr_putchar+0x6c>
     c16:	86ba                	c.mv	a3,a4
     c18:	00d104a3          	sb	a3,9(sp)
     c1c:	86be                	c.mv	a3,a5
     c1e:	4054735b          	bbs	s0,5,c24 <dr_putchar+0x78>
     c22:	86ba                	c.mv	a3,a4
     c24:	00d10523          	sb	a3,10(sp)
     c28:	86be                	c.mv	a3,a5
     c2a:	4064735b          	bbs	s0,6,c30 <dr_putchar+0x84>
     c2e:	86ba                	c.mv	a3,a4
     c30:	00d105a3          	sb	a3,11(sp)
     c34:	801d                	c.srli	s0,0x7
     c36:	c019                	c.beqz	s0,c3c <dr_putchar+0x90>
     c38:	00f00733          	add	a4,zero,a5
     c3c:	00f106a3          	sb	a5,13(sp)
     c40:	801407b7          	lui	a5,0x80140
     c44:	00e10623          	sb	a4,12(sp)
     c48:	2007a603          	lw	a2,512(a5) # 80140200 <_DATA_LMA_START+0x6013be88>
     c4c:	00410513          	addi	a0,sp,4
     c50:	00e10813          	addi	a6,sp,14
     c54:	801406b7          	lui	a3,0x80140
     c58:	08900593          	li	a1,137
     c5c:	2006a783          	lw	a5,512(a3) # 80140200 <_DATA_LMA_START+0x6013be88>
     c60:	40c78733          	sub	a4,a5,a2
     c64:	fee5fce3          	bgeu	a1,a4,c5c <dr_putchar+0xb0>
     c68:	00054703          	lbu	a4,0(a0)
     c6c:	0505                	c.addi	a0,1
     c6e:	30e681a3          	sb	a4,771(a3)
     c72:	863e                	c.mv	a2,a5
     c74:	ff0514e3          	bne	a0,a6,c5c <dr_putchar+0xb0>
     c78:	40f2                	c.lwsp	ra,28(sp)
     c7a:	4462                	c.lwsp	s0,24(sp)
     c7c:	44d2                	c.lwsp	s1,20(sp)
     c7e:	4942                	c.lwsp	s2,16(sp)
     c80:	6105                	c.addi16sp	sp,32
     c82:	8082                	c.jr	ra
     c84:	80140937          	lui	s2,0x80140
     c88:	30690783          	lb	a5,774(s2) # 80140306 <_DATA_LMA_START+0x6013bf8e>
     c8c:	4539                	c.li	a0,14
     c8e:	0ff7f793          	andi	a5,a5,255
     c92:	0017e793          	ori	a5,a5,1
     c96:	30f90323          	sb	a5,774(s2)
     c9a:	3e3d                	c.jal	7d8 <analog_read_reg8>
     c9c:	0fc57593          	andi	a1,a0,252
     ca0:	0015e593          	ori	a1,a1,1
     ca4:	4539                	c.li	a0,14
     ca6:	34fd                	c.jal	794 <analog_write_reg8>
     ca8:	30290783          	lb	a5,770(s2)
     cac:	0fe7f793          	andi	a5,a5,254
     cb0:	30f90123          	sb	a5,770(s2)
     cb4:	30390783          	lb	a5,771(s2)
     cb8:	0ff7f793          	andi	a5,a5,255
     cbc:	0017e793          	ori	a5,a5,1
     cc0:	30f901a3          	sb	a5,771(s2)
     cc4:	00048023          	sb	zero,0(s1)
     cc8:	efdff06f          	j	bc4 <dr_putchar+0x18>

00000ccc <pm_sleep_wakeup_ram.constprop.3>:
     ccc:	1101                	c.addi	sp,-32
     cce:	c452                	c.swsp	s4,8(sp)
     cd0:	8a2a                	c.mv	s4,a0
     cd2:	ce06                	c.swsp	ra,28(sp)
     cd4:	cc22                	c.swsp	s0,24(sp)
     cd6:	ca26                	c.swsp	s1,20(sp)
     cd8:	c84a                	c.swsp	s2,16(sp)
     cda:	c64e                	c.swsp	s3,12(sp)
     cdc:	c256                	c.swsp	s5,4(sp)
     cde:	c05a                	c.swsp	s6,0(sp)
     ce0:	300029f3          	csrr	s3,mstatus
     ce4:	0089f993          	andi	s3,s3,8
     ce8:	00098663          	beqz	s3,cf4 <pm_sleep_wakeup_ram.constprop.3+0x28>
     cec:	300477f3          	csrrci	a5,mstatus,8
     cf0:	0ff0000f          	fence
     cf4:	801407b7          	lui	a5,0x80140
     cf8:	2147a683          	lw	a3,532(a5) # 80140214 <_DATA_LMA_START+0x6013be9c>
     cfc:	def5                	c.beqz	a3,cf8 <pm_sleep_wakeup_ram.constprop.3+0x2c>
     cfe:	00000437          	lui	s0,0x0
     d02:	15840693          	addi	a3,s0,344 # 158 <_AES_VMA_END>
     d06:	2147a783          	lw	a5,532(a5)
     d0a:	5298                	c.lw	a4,32(a3)
     d0c:	da9c                	c.sw	a5,48(a3)
     d0e:	15840413          	addi	s0,s0,344
     d12:	0792                	c.slli	a5,0x4
     d14:	cb11                	c.beqz	a4,d28 <pm_sleep_wakeup_ram.constprop.3+0x5c>
     d16:	03444603          	lbu	a2,52(s0)
     d1a:	4691                	c.li	a3,4
     d1c:	8f99                	c.sub	a5,a4
     d1e:	8e91                	c.sub	a3,a2
     d20:	40d7d7b3          	sra	a5,a5,a3
     d24:	00e787b3          	add	a5,a5,a4
     d28:	d01c                	c.sw	a5,32(s0)
     d2a:	5004                	c.lw	s1,32(s0)
     d2c:	485c                	c.lw	a5,20(s0)
     d2e:	8491                	c.srai	s1,0x4
     d30:	02f487b3          	mul	a5,s1,a5
     d34:	80140937          	lui	s2,0x80140
     d38:	20092a83          	lw	s5,512(s2) # 80140200 <_DATA_LMA_START+0x6013be88>
     d3c:	e0000737          	lui	a4,0xe0000
     d40:	415a0ab3          	sub	s5,s4,s5
     d44:	87c9                	c.srai	a5,0x12
     d46:	94be                	c.add	s1,a5
     d48:	0486                	c.slli	s1,0x1
     d4a:	dc04                	c.sw	s1,56(s0)
     d4c:	03577063          	bgeu	a4,s5,d6c <pm_sleep_wakeup_ram.constprop.3+0xa0>
     d50:	00098663          	beqz	s3,d5c <pm_sleep_wakeup_ram.constprop.3+0x90>
     d54:	3009a9f3          	csrrs	s3,mstatus,s3
     d58:	0ff0000f          	fence
     d5c:	06400513          	li	a0,100
     d60:	a79ff0ef          	jal	ra,7d8 <analog_read_reg8>
     d64:	01f57513          	andi	a0,a0,31
     d68:	25c0006f          	j	fc4 <pm_sleep_wakeup_ram.constprop.3+0x2f8>
     d6c:	04a41783          	lh	a5,74(s0)
     d70:	1137a7db          	bfoz	a5,a5,4,19
     d74:	02fafe63          	bgeu	s5,a5,db0 <pm_sleep_wakeup_ram.constprop.3+0xe4>
     d78:	45fd                	c.li	a1,31
     d7a:	06400513          	li	a0,100
     d7e:	801404b7          	lui	s1,0x80140
     d82:	20092403          	lw	s0,512(s2)
     d86:	3439                	c.jal	794 <analog_write_reg8>
     d88:	06400513          	li	a0,100
     d8c:	a4dff0ef          	jal	ra,7d8 <analog_read_reg8>
     d90:	2004a783          	lw	a5,512(s1) # 80140200 <_DATA_LMA_START+0x6013be88>
     d94:	897d                	c.andi	a0,31
     d96:	8f81                	c.sub	a5,s0
     d98:	0157f463          	bgeu	a5,s5,da0 <pm_sleep_wakeup_ram.constprop.3+0xd4>
     d9c:	fe0506e3          	beqz	a0,d88 <pm_sleep_wakeup_ram.constprop.3+0xbc>
     da0:	22098263          	beqz	s3,fc4 <pm_sleep_wakeup_ram.constprop.3+0x2f8>
     da4:	3009a9f3          	csrrs	s3,mstatus,s3
     da8:	0ff0000f          	fence
     dac:	2180006f          	j	fc4 <pm_sleep_wakeup_ram.constprop.3+0x2f8>
     db0:	1e890a83          	lb	s5,488(s2)
     db4:	00faf793          	andi	a5,s5,15
     db8:	1ef90423          	sb	a5,488(s2)
     dbc:	1d890b03          	lb	s6,472(s2)
     dc0:	0f8b7793          	andi	a5,s6,248
     dc4:	1cf90c23          	sb	a5,472(s2)
     dc8:	00100793          	li	a5,1
     dcc:	20f90c23          	sb	a5,536(s2)
     dd0:	20a90783          	lb	a5,522(s2)
     dd4:	0f77f793          	andi	a5,a5,247
     dd8:	20f90523          	sb	a5,522(s2)
     ddc:	d7cff0ef          	jal	ra,358 <clock_get_32k_tick>
     de0:	20092703          	lw	a4,512(s2)
     de4:	20b90783          	lb	a5,523(s2)
     de8:	5414                	c.lw	a3,40(s0)
     dea:	0ff7f793          	andi	a5,a5,255
     dee:	0027e793          	ori	a5,a5,2
     df2:	c468                	c.sw	a0,76(s0)
     df4:	c418                	c.sw	a4,8(s0)
     df6:	03444603          	lbu	a2,52(s0)
     dfa:	40d506b3          	sub	a3,a0,a3
     dfe:	20f905a3          	sb	a5,523(s2)
     e02:	d454                	c.sw	a3,44(s0)
     e04:	e215                	c.bnez	a2,e28 <pm_sleep_wakeup_ram.constprop.3+0x15c>
     e06:	445c                	c.lw	a5,12(s0)
     e08:	c385                	c.beqz	a5,e28 <pm_sleep_wakeup_ram.constprop.3+0x15c>
     e0a:	05044783          	lbu	a5,80(s0)
     e0e:	ef89                	c.bnez	a5,e28 <pm_sleep_wakeup_ram.constprop.3+0x15c>
     e10:	01042783          	lw	a5,16(s0)
     e14:	000276b7          	lui	a3,0x27
     e18:	40f507b3          	sub	a5,a0,a5
     e1c:	6c07a7db          	bfoz	a5,a5,27,0
     e20:	10068693          	addi	a3,a3,256 # 27100 <BIN_SIZE+0x225b2>
     e24:	00f6f863          	bgeu	a3,a5,e34 <pm_sleep_wakeup_ram.constprop.3+0x168>
     e28:	00176713          	ori	a4,a4,1
     e2c:	02040a23          	sb	zero,52(s0)
     e30:	c808                	c.sw	a0,16(s0)
     e32:	c458                	c.sw	a4,12(s0)
     e34:	02000593          	li	a1,32
     e38:	04b00513          	li	a0,75
     e3c:	959ff0ef          	jal	ra,794 <analog_write_reg8>
     e40:	45fd                	c.li	a1,31
     e42:	06400513          	li	a0,100
     e46:	32b9                	c.jal	794 <analog_write_reg8>
     e48:	03000593          	li	a1,48
     e4c:	07e00513          	li	a0,126
     e50:	945ff0ef          	jal	ra,794 <analog_write_reg8>
     e54:	0f900593          	li	a1,249
     e58:	04d00513          	li	a0,77
     e5c:	939ff0ef          	jal	ra,794 <analog_write_reg8>
     e60:	4585                	c.li	a1,1
     e62:	07f00513          	li	a0,127
     e66:	323d                	c.jal	794 <analog_write_reg8>
     e68:	04841783          	lh	a5,72(s0)
     e6c:	0ee00593          	li	a1,238
     e70:	1137a7db          	bfoz	a5,a5,4,19
     e74:	04c00513          	li	a0,76
     e78:	40fa0933          	sub	s2,s4,a5
     e7c:	919ff0ef          	jal	ra,794 <analog_write_reg8>
     e80:	05441583          	lh	a1,84(s0)
     e84:	04000513          	li	a0,64
     e88:	0ff5f593          	andi	a1,a1,255
     e8c:	909ff0ef          	jal	ra,794 <analog_write_reg8>
     e90:	445c                	c.lw	a5,12(s0)
     e92:	07ff0737          	lui	a4,0x7ff0
     e96:	40f907b3          	sub	a5,s2,a5
     e9a:	00f77763          	bgeu	a4,a5,ea8 <pm_sleep_wakeup_ram.constprop.3+0x1dc>
     e9e:	4705                	c.li	a4,1
     ea0:	00e40223          	sb	a4,4(s0)
     ea4:	0080006f          	j	eac <pm_sleep_wakeup_ram.constprop.3+0x1e0>
     ea8:	00040223          	sb	zero,4(s0)
     eac:	00444683          	lbu	a3,4(s0)
     eb0:	4808                	c.lw	a0,16(s0)
     eb2:	5c18                	c.lw	a4,56(s0)
     eb4:	c691                	c.beqz	a3,ec0 <pm_sleep_wakeup_ram.constprop.3+0x1f4>
     eb6:	02e7d7b3          	divu	a5,a5,a4
     eba:	0796                	c.slli	a5,0x5
     ebc:	953e                	c.add	a0,a5
     ebe:	a039                	c.j	ecc <pm_sleep_wakeup_ram.constprop.3+0x200>
     ec0:	8085                	c.srli	s1,0x1
     ec2:	0796                	c.slli	a5,0x5
     ec4:	97a6                	c.add	a5,s1
     ec6:	02e7d7b3          	divu	a5,a5,a4
     eca:	953e                	c.add	a0,a5
     ecc:	be0ff0ef          	jal	ra,2ac <clock_set_32k_tick>
     ed0:	06400513          	li	a0,100
     ed4:	905ff0ef          	jal	ra,7d8 <analog_read_reg8>
     ed8:	01f57513          	andi	a0,a0,31
     edc:	e901                	c.bnez	a0,eec <pm_sleep_wakeup_ram.constprop.3+0x220>
     ede:	3e2d                	c.jal	a18 <pm_sleep_start>
     ee0:	00100593          	li	a1,1
     ee4:	07f00513          	li	a0,127
     ee8:	8adff0ef          	jal	ra,794 <analog_write_reg8>
     eec:	80140737          	lui	a4,0x80140
     ef0:	02000793          	li	a5,32
     ef4:	1ef707a3          	sb	a5,495(a4) # 801401ef <_DATA_LMA_START+0x6013be77>
     ef8:	00200793          	li	a5,2
     efc:	20f70c23          	sb	a5,536(a4)
     f00:	20a70783          	lb	a5,522(a4)
     f04:	0ff7f793          	andi	a5,a5,255
     f08:	00c7e793          	ori	a5,a5,12
     f0c:	20f70523          	sb	a5,522(a4)
     f10:	c48ff0ef          	jal	ra,358 <clock_get_32k_tick>
     f14:	00444783          	lbu	a5,4(s0)
     f18:	cf81                	c.beqz	a5,f30 <pm_sleep_wakeup_ram.constprop.3+0x264>
     f1a:	481c                	c.lw	a5,16(s0)
     f1c:	5c14                	c.lw	a3,56(s0)
     f1e:	40f507b3          	sub	a5,a0,a5
     f22:	4458                	c.lw	a4,12(s0)
     f24:	0785                	c.addi	a5,1
     f26:	8395                	c.srli	a5,0x5
     f28:	c4d7977f          	maddr32	a4,a5,a3
     f2c:	c418                	c.sw	a4,8(s0)
     f2e:	a829                	c.j	f48 <pm_sleep_wakeup_ram.constprop.3+0x27c>
     f30:	481c                	c.lw	a5,16(s0)
     f32:	5c18                	c.lw	a4,56(s0)
     f34:	40f507b3          	sub	a5,a0,a5
     f38:	0785                	c.addi	a5,1
     f3a:	02e787b3          	mul	a5,a5,a4
     f3e:	4458                	c.lw	a4,12(s0)
     f40:	8395                	c.srli	a5,0x5
     f42:	97ba                	c.add	a5,a4
     f44:	00f42423          	sw	a5,8(s0)
     f48:	481c                	c.lw	a5,16(s0)
     f4a:	4414                	c.lw	a3,8(s0)
     f4c:	40f507b3          	sub	a5,a0,a5
     f50:	0785                	c.addi	a5,1
     f52:	0505                	c.addi	a0,1
     f54:	d05c                	c.sw	a5,36(s0)
     f56:	0685                	c.addi	a3,1
     f58:	02a42423          	sw	a0,40(s0)
     f5c:	801407b7          	lui	a5,0x80140
     f60:	80140737          	lui	a4,0x80140
     f64:	20d7a023          	sw	a3,512(a5) # 80140200 <_DATA_LMA_START+0x6013be88>
     f68:	20b70783          	lb	a5,523(a4) # 8014020b <_DATA_LMA_START+0x6013be93>
     f6c:	be77fe5b          	bbc	a5,7,f68 <pm_sleep_wakeup_ram.constprop.3+0x29c>
     f70:	20070c23          	sb	zero,536(a4)
     f74:	1d670c23          	sb	s6,472(a4)
     f78:	06400513          	li	a0,100
     f7c:	1f570423          	sb	s5,488(a4)
     f80:	859ff0ef          	jal	ra,7d8 <analog_read_reg8>
     f84:	fd1f970b          	addigp	a4,-48 # 807d0 <g_pm_status_info>
     f88:	00a700a3          	sb	a0,1(a4)
     f8c:	fd1f978b          	addigp	a5,-48 # 807d0 <g_pm_status_info>
     f90:	00157c5b          	bbc	a0,1,fa8 <pm_sleep_wakeup_ram.constprop.3+0x2dc>
     f94:	80140637          	lui	a2,0x80140
     f98:	400006b7          	lui	a3,0x40000
     f9c:	20062703          	lw	a4,512(a2) # 80140200 <_DATA_LMA_START+0x6013be88>
     fa0:	41470733          	sub	a4,a4,s4
     fa4:	fee6ece3          	bltu	a3,a4,f9c <pm_sleep_wakeup_ram.constprop.3+0x2d0>
     fa8:	00098663          	beqz	s3,fb4 <pm_sleep_wakeup_ram.constprop.3+0x2e8>
     fac:	3009a9f3          	csrrs	s3,mstatus,s3
     fb0:	0ff0000f          	fence
     fb4:	0017c783          	lbu	a5,1(a5)
     fb8:	10000513          	li	a0,256
     fbc:	c781                	c.beqz	a5,fc4 <pm_sleep_wakeup_ram.constprop.3+0x2f8>
     fbe:	40000537          	lui	a0,0x40000
     fc2:	8d5d                	c.or	a0,a5
     fc4:	40f2                	c.lwsp	ra,28(sp)
     fc6:	4462                	c.lwsp	s0,24(sp)
     fc8:	44d2                	c.lwsp	s1,20(sp)
     fca:	4942                	c.lwsp	s2,16(sp)
     fcc:	49b2                	c.lwsp	s3,12(sp)
     fce:	4a22                	c.lwsp	s4,8(sp)
     fd0:	4a92                	c.lwsp	s5,4(sp)
     fd2:	4b02                	c.lwsp	s6,0(sp)
     fd4:	6105                	c.addi16sp	sp,32
     fd6:	8082                	c.jr	ra

00000fd8 <trap_entry>:
     fd8:	1101                	c.addi	sp,-32
     fda:	ce2a                	c.swsp	a0,28(sp)
     fdc:	cc2e                	c.swsp	a1,24(sp)
     fde:	ca32                	c.swsp	a2,20(sp)
     fe0:	c836                	c.swsp	a3,16(sp)
     fe2:	c63a                	c.swsp	a4,12(sp)
     fe4:	c43e                	c.swsp	a5,8(sp)
     fe6:	34202773          	csrr	a4,mcause
     fea:	000007b7          	lui	a5,0x0
     fee:	15878793          	addi	a5,a5,344 # 158 <_AES_VMA_END>
     ff2:	03c78683          	lb	a3,60(a5)
     ff6:	0ff6f693          	andi	a3,a3,255
     ffa:	c2dd                	c.beqz	a3,10a0 <trap_entry+0xc8>
     ffc:	34102673          	csrr	a2,mepc
    1000:	300025f3          	csrr	a1,mstatus
    1004:	7c4026f3          	csrr	a3,mxstatus
    1008:	02074a63          	bltz	a4,103c <trap_entry+0x64>
    100c:	34302773          	csrr	a4,mtval
    1010:	fcefc5ab          	swgp	a4,-56 # 807c8 <exception_mtval>
    1014:	34102773          	csrr	a4,mepc
    1018:	fcefc1ab          	swgp	a4,-64 # 807c0 <exception_mepc>
    101c:	30002773          	csrr	a4,mstatus
    1020:	fcefc3ab          	swgp	a4,-60 # 807c4 <exception_mstatus>
    1024:	34202773          	csrr	a4,mcause
    1028:	faefcdab          	swgp	a4,-72 # 807b8 <_BSS_VMA_START>
    102c:	7c902773          	csrr	a4,mdcause
    1030:	faefcfab          	swgp	a4,-68 # 807bc <exception_mdcause>
    1034:	0001                	c.nop
    1036:	0001                	c.nop
    1038:	ffdff06f          	j	1034 <trap_entry+0x5c>
    103c:	7807275b          	bfoz	a4,a4,30,0
    1040:	0677545b          	beqc	a4,7,10a8 <trap_entry+0xd0>
    1044:	bc37645b          	bnec	a4,3,100c <trap_entry+0x34>
    1048:	e6600737          	lui	a4,0xe6600
    104c:	4358                	c.lw	a4,4(a4)
    104e:	03c78703          	lb	a4,60(a5)
    1052:	0ff77713          	andi	a4,a4,255
    1056:	c319                	c.beqz	a4,105c <trap_entry+0x84>
    1058:	30046773          	csrrsi	a4,mstatus,8
    105c:	03c78703          	lb	a4,60(a5)
    1060:	0ff77713          	andi	a4,a4,255
    1064:	00070463          	beqz	a4,106c <trap_entry+0x94>
    1068:	30047773          	csrrci	a4,mstatus,8
    106c:	e6600737          	lui	a4,0xe6600
    1070:	4505                	c.li	a0,1
    1072:	c348                	c.sw	a0,4(a4)
    1074:	03c78783          	lb	a5,60(a5)
    1078:	0ff7f793          	andi	a5,a5,255
    107c:	00078863          	beqz	a5,108c <trap_entry+0xb4>
    1080:	30059073          	csrw	mstatus,a1
    1084:	34161073          	csrw	mepc,a2
    1088:	7c469073          	csrw	mxstatus,a3
    108c:	4572                	c.lwsp	a0,28(sp)
    108e:	45e2                	c.lwsp	a1,24(sp)
    1090:	4652                	c.lwsp	a2,20(sp)
    1092:	46c2                	c.lwsp	a3,16(sp)
    1094:	4732                	c.lwsp	a4,12(sp)
    1096:	47a2                	c.lwsp	a5,8(sp)
    1098:	02010113          	addi	sp,sp,32
    109c:	30200073          	mret
    10a0:	4681                	c.li	a3,0
    10a2:	4581                	c.li	a1,0
    10a4:	4601                	c.li	a2,0
    10a6:	b78d                	c.j	1008 <trap_entry+0x30>
    10a8:	03c78703          	lb	a4,60(a5)
    10ac:	0ff77713          	andi	a4,a4,255
    10b0:	00070863          	beqz	a4,10c0 <trap_entry+0xe8>
    10b4:	08000713          	li	a4,128
    10b8:	30473773          	csrrc	a4,mie,a4
    10bc:	30046773          	csrrsi	a4,mstatus,8
    10c0:	03c78703          	lb	a4,60(a5)
    10c4:	0ff77713          	andi	a4,a4,255
    10c8:	d755                	c.beqz	a4,1074 <trap_entry+0x9c>
    10ca:	30047773          	csrrci	a4,mstatus,8
    10ce:	08000713          	li	a4,128
    10d2:	30472773          	csrrs	a4,mie,a4
    10d6:	bf79                	c.j	1074 <trap_entry+0x9c>
    10d8:	0001                	c.nop
	...

00001100 <__vectors>:
    1100:	0fd8                	c.addi4spn	a4,sp,980
    1102:	0000                	unimp
    1104:	1ce0                	c.addi4spn	s0,sp,636
    1106:	0000                	unimp
    1108:	1ce0                	c.addi4spn	s0,sp,636
    110a:	0000                	unimp
    110c:	1ce0                	c.addi4spn	s0,sp,636
    110e:	0000                	unimp
    1110:	1ce0                	c.addi4spn	s0,sp,636
    1112:	0000                	unimp
    1114:	1ce0                	c.addi4spn	s0,sp,636
    1116:	0000                	unimp
    1118:	1ce0                	c.addi4spn	s0,sp,636
    111a:	0000                	unimp
    111c:	1ce0                	c.addi4spn	s0,sp,636
    111e:	0000                	unimp
    1120:	1ce0                	c.addi4spn	s0,sp,636
    1122:	0000                	unimp
    1124:	1ce0                	c.addi4spn	s0,sp,636
    1126:	0000                	unimp
    1128:	1ce0                	c.addi4spn	s0,sp,636
    112a:	0000                	unimp
    112c:	1ce0                	c.addi4spn	s0,sp,636
    112e:	0000                	unimp
    1130:	1ce0                	c.addi4spn	s0,sp,636
    1132:	0000                	unimp
    1134:	1ce0                	c.addi4spn	s0,sp,636
    1136:	0000                	unimp
    1138:	1ce0                	c.addi4spn	s0,sp,636
    113a:	0000                	unimp
    113c:	1ce0                	c.addi4spn	s0,sp,636
    113e:	0000                	unimp
    1140:	1ce0                	c.addi4spn	s0,sp,636
    1142:	0000                	unimp
    1144:	1ce0                	c.addi4spn	s0,sp,636
    1146:	0000                	unimp
    1148:	1ce0                	c.addi4spn	s0,sp,636
    114a:	0000                	unimp
    114c:	1ce0                	c.addi4spn	s0,sp,636
    114e:	0000                	unimp
    1150:	1ce0                	c.addi4spn	s0,sp,636
    1152:	0000                	unimp
    1154:	1ce0                	c.addi4spn	s0,sp,636
    1156:	0000                	unimp
    1158:	1ce0                	c.addi4spn	s0,sp,636
    115a:	0000                	unimp
    115c:	1ce0                	c.addi4spn	s0,sp,636
    115e:	0000                	unimp
    1160:	1ce0                	c.addi4spn	s0,sp,636
    1162:	0000                	unimp
    1164:	1ce0                	c.addi4spn	s0,sp,636
    1166:	0000                	unimp
    1168:	1ce0                	c.addi4spn	s0,sp,636
    116a:	0000                	unimp
    116c:	1ce0                	c.addi4spn	s0,sp,636
    116e:	0000                	unimp
    1170:	1ce0                	c.addi4spn	s0,sp,636
    1172:	0000                	unimp
    1174:	1ce0                	c.addi4spn	s0,sp,636
    1176:	0000                	unimp
    1178:	1ce0                	c.addi4spn	s0,sp,636
    117a:	0000                	unimp
    117c:	1ce0                	c.addi4spn	s0,sp,636
    117e:	0000                	unimp
    1180:	1ce0                	c.addi4spn	s0,sp,636
    1182:	0000                	unimp
    1184:	1ce0                	c.addi4spn	s0,sp,636
    1186:	0000                	unimp
    1188:	1ce0                	c.addi4spn	s0,sp,636
    118a:	0000                	unimp
    118c:	1ce0                	c.addi4spn	s0,sp,636
    118e:	0000                	unimp
    1190:	1ce0                	c.addi4spn	s0,sp,636
    1192:	0000                	unimp
    1194:	1ce0                	c.addi4spn	s0,sp,636
    1196:	0000                	unimp
    1198:	1ce0                	c.addi4spn	s0,sp,636
    119a:	0000                	unimp
    119c:	1ce0                	c.addi4spn	s0,sp,636
    119e:	0000                	unimp
    11a0:	1ce0                	c.addi4spn	s0,sp,636
    11a2:	0000                	unimp
    11a4:	1ce0                	c.addi4spn	s0,sp,636
    11a6:	0000                	unimp
    11a8:	1ce0                	c.addi4spn	s0,sp,636
    11aa:	0000                	unimp
    11ac:	1ce0                	c.addi4spn	s0,sp,636
    11ae:	0000                	unimp
    11b0:	1ce0                	c.addi4spn	s0,sp,636
    11b2:	0000                	unimp
    11b4:	1ce0                	c.addi4spn	s0,sp,636
    11b6:	0000                	unimp
    11b8:	1ce0                	c.addi4spn	s0,sp,636
    11ba:	0000                	unimp
    11bc:	1ce0                	c.addi4spn	s0,sp,636
    11be:	0000                	unimp
    11c0:	1ce0                	c.addi4spn	s0,sp,636
    11c2:	0000                	unimp
    11c4:	1ce0                	c.addi4spn	s0,sp,636
    11c6:	0000                	unimp
    11c8:	1ce0                	c.addi4spn	s0,sp,636
    11ca:	0000                	unimp
    11cc:	1ce0                	c.addi4spn	s0,sp,636
    11ce:	0000                	unimp
    11d0:	1ce0                	c.addi4spn	s0,sp,636
    11d2:	0000                	unimp
    11d4:	1ce0                	c.addi4spn	s0,sp,636
    11d6:	0000                	unimp
    11d8:	1ce0                	c.addi4spn	s0,sp,636
    11da:	0000                	unimp
    11dc:	1ce0                	c.addi4spn	s0,sp,636
    11de:	0000                	unimp
    11e0:	1ce0                	c.addi4spn	s0,sp,636
    11e2:	0000                	unimp
    11e4:	1ce0                	c.addi4spn	s0,sp,636
    11e6:	0000                	unimp
    11e8:	1ce0                	c.addi4spn	s0,sp,636
    11ea:	0000                	unimp
    11ec:	1ce0                	c.addi4spn	s0,sp,636
    11ee:	0000                	unimp
    11f0:	1ce0                	c.addi4spn	s0,sp,636
    11f2:	0000                	unimp
    11f4:	1ce0                	c.addi4spn	s0,sp,636
    11f6:	0000                	unimp
    11f8:	1ce0                	c.addi4spn	s0,sp,636
    11fa:	0000                	unimp
    11fc:	1ce0                	c.addi4spn	s0,sp,636
    11fe:	0000                	unimp
    1200:	0001                	c.nop
	...

00001204 <flash_read_uid.constprop.6>:
    1204:	1141                	c.addi	sp,-16
    1206:	c606                	c.swsp	ra,12(sp)
    1208:	872a                	c.mv	a4,a0
    120a:	7d047073          	csrci	mmisc_ctl,8
    120e:	47c1                	c.li	a5,16
    1210:	4691                	c.li	a3,4
    1212:	4601                	c.li	a2,0
    1214:	00000593          	li	a1,0
    1218:	04b00513          	li	a0,75
    121c:	aacff0ef          	jal	ra,4c8 <flash_mspi_read_ram>
    1220:	7d046073          	csrsi	mmisc_ctl,8
    1224:	40b2                	c.lwsp	ra,12(sp)
    1226:	0141                	c.addi	sp,16
    1228:	00008067          	ret

0000122c <flash_read_mid>:
    122c:	1101                	c.addi	sp,-32
    122e:	ce06                	c.swsp	ra,28(sp)
    1230:	c602                	c.swsp	zero,12(sp)
    1232:	7d047073          	csrci	mmisc_ctl,8
    1236:	478d                	c.li	a5,3
    1238:	0078                	c.addi4spn	a4,sp,12
    123a:	4681                	c.li	a3,0
    123c:	4601                	c.li	a2,0
    123e:	4581                	c.li	a1,0
    1240:	09f00513          	li	a0,159
    1244:	a84ff0ef          	jal	ra,4c8 <flash_mspi_read_ram>
    1248:	7d046073          	csrsi	mmisc_ctl,8
    124c:	40f2                	c.lwsp	ra,28(sp)
    124e:	4532                	c.lwsp	a0,12(sp)
    1250:	6105                	c.addi16sp	sp,32
    1252:	8082                	c.jr	ra

00001254 <flash_read_mid_uid_with_check>:
    1254:	801f978b          	addigp	a5,-2048 # 80000 <_DATA_VMA_START>
    1258:	4798                	c.lw	a4,8(a5)
    125a:	4390                	c.lw	a2,0(a5)
    125c:	43d4                	c.lw	a3,4(a5)
    125e:	47dc                	c.lw	a5,12(a5)
    1260:	1101                	c.addi	sp,-32
    1262:	cc22                	c.swsp	s0,24(sp)
    1264:	ca26                	c.swsp	s1,20(sp)
    1266:	842a                	c.mv	s0,a0
    1268:	c43a                	c.swsp	a4,8(sp)
    126a:	c63e                	c.swsp	a5,12(sp)
    126c:	ce06                	c.swsp	ra,28(sp)
    126e:	84ae                	c.mv	s1,a1
    1270:	c032                	c.swsp	a2,0(sp)
    1272:	c236                	c.swsp	a3,4(sp)
    1274:	fb9ff0ef          	jal	ra,122c <flash_read_mid>
    1278:	77c1                	c.lui	a5,0xffff0
    127a:	17fd                	c.addi	a5,-1
    127c:	00146737          	lui	a4,0x146
    1280:	c008                	c.sw	a0,0(s0)
    1282:	8fe9                	c.and	a5,a0
    1284:	08570713          	addi	a4,a4,133 # 146085 <FLASH_SIZE+0x46085>
    1288:	02e78063          	beq	a5,a4,12a8 <flash_read_mid_uid_with_check+0x54>
    128c:	00166737          	lui	a4,0x166
    1290:	08570713          	addi	a4,a4,133 # 166085 <FLASH_SIZE+0x66085>
    1294:	4781                	c.li	a5,0
    1296:	00e50963          	beq	a0,a4,12a8 <flash_read_mid_uid_with_check+0x54>
    129a:	40f2                	c.lwsp	ra,28(sp)
    129c:	4462                	c.lwsp	s0,24(sp)
    129e:	44d2                	c.lwsp	s1,20(sp)
    12a0:	853e                	c.mv	a0,a5
    12a2:	6105                	c.addi16sp	sp,32
    12a4:	00008067          	ret
    12a8:	8526                	c.mv	a0,s1
    12aa:	3fa9                	c.jal	1204 <flash_read_uid.constprop.6>
    12ac:	0004c783          	lbu	a5,0(s1)
    12b0:	00014603          	lbu	a2,0(sp)
    12b4:	0014c683          	lbu	a3,1(s1)
    12b8:	00114703          	lbu	a4,1(sp)
    12bc:	8f91                	c.sub	a5,a2
    12be:	0017b793          	seqz	a5,a5
    12c2:	00e69363          	bne	a3,a4,12c8 <flash_read_mid_uid_with_check+0x74>
    12c6:	0785                	c.addi	a5,1
    12c8:	0024c683          	lbu	a3,2(s1)
    12cc:	00214703          	lbu	a4,2(sp)
    12d0:	00e69463          	bne	a3,a4,12d8 <flash_read_mid_uid_with_check+0x84>
    12d4:	00178793          	addi	a5,a5,1 # ffff0001 <_DATA_LMA_START+0xdffebc89>
    12d8:	0034c683          	lbu	a3,3(s1)
    12dc:	00314703          	lbu	a4,3(sp)
    12e0:	00e69463          	bne	a3,a4,12e8 <flash_read_mid_uid_with_check+0x94>
    12e4:	00178793          	addi	a5,a5,1
    12e8:	0044c683          	lbu	a3,4(s1)
    12ec:	00414703          	lbu	a4,4(sp)
    12f0:	00e69463          	bne	a3,a4,12f8 <flash_read_mid_uid_with_check+0xa4>
    12f4:	00178793          	addi	a5,a5,1
    12f8:	0054c683          	lbu	a3,5(s1)
    12fc:	00514703          	lbu	a4,5(sp)
    1300:	00e69463          	bne	a3,a4,1308 <flash_read_mid_uid_with_check+0xb4>
    1304:	00178793          	addi	a5,a5,1
    1308:	0064c683          	lbu	a3,6(s1)
    130c:	00614703          	lbu	a4,6(sp)
    1310:	00e69463          	bne	a3,a4,1318 <flash_read_mid_uid_with_check+0xc4>
    1314:	00178793          	addi	a5,a5,1
    1318:	0074c683          	lbu	a3,7(s1)
    131c:	00714703          	lbu	a4,7(sp)
    1320:	00e69463          	bne	a3,a4,1328 <flash_read_mid_uid_with_check+0xd4>
    1324:	00178793          	addi	a5,a5,1
    1328:	0084c683          	lbu	a3,8(s1)
    132c:	00814703          	lbu	a4,8(sp)
    1330:	00e69463          	bne	a3,a4,1338 <flash_read_mid_uid_with_check+0xe4>
    1334:	00178793          	addi	a5,a5,1
    1338:	0094c683          	lbu	a3,9(s1)
    133c:	00914703          	lbu	a4,9(sp)
    1340:	00e69463          	bne	a3,a4,1348 <flash_read_mid_uid_with_check+0xf4>
    1344:	00178793          	addi	a5,a5,1
    1348:	00a4c683          	lbu	a3,10(s1)
    134c:	00a14703          	lbu	a4,10(sp)
    1350:	00e69463          	bne	a3,a4,1358 <flash_read_mid_uid_with_check+0x104>
    1354:	00178793          	addi	a5,a5,1
    1358:	00b4c683          	lbu	a3,11(s1)
    135c:	00b14703          	lbu	a4,11(sp)
    1360:	00e69463          	bne	a3,a4,1368 <flash_read_mid_uid_with_check+0x114>
    1364:	00178793          	addi	a5,a5,1
    1368:	00c4c683          	lbu	a3,12(s1)
    136c:	00c14703          	lbu	a4,12(sp)
    1370:	00e69463          	bne	a3,a4,1378 <flash_read_mid_uid_with_check+0x124>
    1374:	00178793          	addi	a5,a5,1
    1378:	00d4c683          	lbu	a3,13(s1)
    137c:	00d14703          	lbu	a4,13(sp)
    1380:	00e69463          	bne	a3,a4,1388 <flash_read_mid_uid_with_check+0x134>
    1384:	00178793          	addi	a5,a5,1
    1388:	00e4c683          	lbu	a3,14(s1)
    138c:	00e14703          	lbu	a4,14(sp)
    1390:	00e69463          	bne	a3,a4,1398 <flash_read_mid_uid_with_check+0x144>
    1394:	00178793          	addi	a5,a5,1
    1398:	00f14683          	lbu	a3,15(sp)
    139c:	00f4c703          	lbu	a4,15(s1)
    13a0:	00e69463          	bne	a3,a4,13a8 <flash_read_mid_uid_with_check+0x154>
    13a4:	00178793          	addi	a5,a5,1
    13a8:	40f2                	c.lwsp	ra,28(sp)
    13aa:	4462                	c.lwsp	s0,24(sp)
    13ac:	17c1                	c.addi	a5,-16
    13ae:	00f037b3          	snez	a5,a5
    13b2:	44d2                	c.lwsp	s1,20(sp)
    13b4:	853e                	c.mv	a0,a5
    13b6:	6105                	c.addi16sp	sp,32
    13b8:	00008067          	ret

000013bc <flash_dread>:
    13bc:	1141                	c.addi	sp,-16
    13be:	c606                	c.swsp	ra,12(sp)
    13c0:	87b2                	c.mv	a5,a2
    13c2:	7d047073          	csrci	mmisc_ctl,8
    13c6:	862e                	c.mv	a2,a1
    13c8:	00f005b3          	add	a1,zero,a5
    13cc:	a7cff0ef          	jal	ra,648 <flash_mspi_read_ram.constprop.7>
    13d0:	7d046073          	csrsi	mmisc_ctl,8
    13d4:	40b2                	c.lwsp	ra,12(sp)
    13d6:	0141                	c.addi	sp,16
    13d8:	00008067          	ret

000013dc <clock_init.constprop.10>:
    13dc:	1141                	c.addi	sp,-16
    13de:	c606                	c.swsp	ra,12(sp)
    13e0:	7d047073          	csrci	mmisc_ctl,8
    13e4:	c40ff0ef          	jal	ra,824 <clock_init_ram.constprop.11>
    13e8:	7d046073          	csrsi	mmisc_ctl,8
    13ec:	40b2                	c.lwsp	ra,12(sp)
    13ee:	0141                	c.addi	sp,16
    13f0:	00008067          	ret

000013f4 <pm_sleep_wakeup.constprop.2>:
    13f4:	1141                	c.addi	sp,-16
    13f6:	c606                	c.swsp	ra,12(sp)
    13f8:	7d047073          	csrci	mmisc_ctl,8
    13fc:	8d1ff0ef          	jal	ra,ccc <pm_sleep_wakeup_ram.constprop.3>
    1400:	7d046073          	csrsi	mmisc_ctl,8
    1404:	40b2                	c.lwsp	ra,12(sp)
    1406:	0141                	c.addi	sp,16
    1408:	8082                	c.jr	ra
    140a:	0001                	c.nop

0000140c <user_calib_adc_vref.constprop.9>:
    140c:	1101                	c.addi	sp,-32
    140e:	ce06                	c.swsp	ra,28(sp)
    1410:	c402                	c.swsp	zero,8(sp)
    1412:	00011623          	sh	zero,12(sp)
    1416:	00010723          	sb	zero,14(sp)
    141a:	c54d                	c.beqz	a0,14c4 <user_calib_adc_vref.constprop.9+0xb8>
    141c:	000007b7          	lui	a5,0x0
    1420:	1587a783          	lw	a5,344(a5) # 158 <_AES_VMA_END>
    1424:	0030                	c.addi4spn	a2,sp,8
    1426:	459d                	c.li	a1,7
    1428:	9782                	c.jalr	a5
    142a:	00c14783          	lbu	a5,12(sp)
    142e:	1c07b75b          	bfos	a4,a5,7,0
    1432:	04074163          	bltz	a4,1474 <user_calib_adc_vref.constprop.9+0x68>
    1436:	00e14703          	lbu	a4,14(sp)
    143a:	00d14603          	lbu	a2,13(sp)
    143e:	0722                	c.slli	a4,0x8
    1440:	66c1                	c.lui	a3,0x10
    1442:	00c705b3          	add	a1,a4,a2
    1446:	16fd                	c.addi	a3,-1
    1448:	02d58663          	beq	a1,a3,1474 <user_calib_adc_vref.constprop.9+0x68>
    144c:	fd060613          	addi	a2,a2,-48
    1450:	9732                	c.add	a4,a2
    1452:	3c07275b          	bfoz	a4,a4,15,0
    1456:	0fb00693          	li	a3,251
    145a:	08e6e563          	bltu	a3,a4,14e4 <user_calib_adc_vref.constprop.9+0xd8>
    145e:	17b1                	c.addi	a5,-20
    1460:	1c07b7db          	bfos	a5,a5,7,0
    1464:	5731                	c.li	a4,-20
    1466:	06e78f63          	beq	a5,a4,14e4 <user_calib_adc_vref.constprop.9+0xd8>
    146a:	f9578513          	addi	a0,a5,-107
    146e:	00a03533          	snez	a0,a0
    1472:	a89d                	c.j	14e8 <user_calib_adc_vref.constprop.9+0xdc>
    1474:	801407b7          	lui	a5,0x80140
    1478:	06500713          	li	a4,101
    147c:	1ee78a23          	sb	a4,500(a5) # 801401f4 <_DATA_LMA_START+0x6013be7c>
    1480:	1c87a703          	lw	a4,456(a5)
    1484:	1e078a23          	sb	zero,500(a5)
    1488:	4c47275b          	bfoz	a4,a4,19,4
    148c:	380727db          	bfoz	a5,a4,14,0
    1490:	06078063          	beqz	a5,14f0 <user_calib_adc_vref.constprop.9+0xe4>
    1494:	1ff77713          	andi	a4,a4,511
    1498:	f9b70713          	addi	a4,a4,-101
    149c:	3c07275b          	bfoz	a4,a4,15,0
    14a0:	0c600693          	li	a3,198
    14a4:	04e6e063          	bltu	a3,a4,14e4 <user_calib_adc_vref.constprop.9+0xd8>
    14a8:	0097d513          	srli	a0,a5,0x9
    14ac:	1531                	c.addi	a0,-20
    14ae:	1c05355b          	bfos	a0,a0,7,0
    14b2:	57b1                	c.li	a5,-20
    14b4:	02f50863          	beq	a0,a5,14e4 <user_calib_adc_vref.constprop.9+0xd8>
    14b8:	fd550513          	addi	a0,a0,-43 # 3fffffd5 <_DATA_LMA_START+0x1fffbc5d>
    14bc:	00a03533          	snez	a0,a0
    14c0:	0280006f          	j	14e8 <user_calib_adc_vref.constprop.9+0xdc>
    14c4:	801407b7          	lui	a5,0x80140
    14c8:	06500713          	li	a4,101
    14cc:	1ee78a23          	sb	a4,500(a5) # 801401f4 <_DATA_LMA_START+0x6013be7c>
    14d0:	1c87a703          	lw	a4,456(a5)
    14d4:	1e078a23          	sb	zero,500(a5)
    14d8:	4c47275b          	bfoz	a4,a4,19,4
    14dc:	380727db          	bfoz	a5,a4,14,0
    14e0:	fa079ae3          	bnez	a5,1494 <user_calib_adc_vref.constprop.9+0x88>
    14e4:	00000513          	li	a0,0
    14e8:	40f2                	c.lwsp	ra,28(sp)
    14ea:	6105                	c.addi16sp	sp,32
    14ec:	00008067          	ret
    14f0:	00814503          	lbu	a0,8(sp)
    14f4:	00914783          	lbu	a5,9(sp)
    14f8:	953e                	c.add	a0,a5
    14fa:	f8050513          	addi	a0,a0,-128
    14fe:	3c05255b          	bfoz	a0,a0,15,0
    1502:	0fc53513          	sltiu	a0,a0,252
    1506:	b7cd                	c.j	14e8 <user_calib_adc_vref.constprop.9+0xdc>

00001508 <user_calib_freq_offset.constprop.8>:
    1508:	000007b7          	lui	a5,0x0
    150c:	1101                	c.addi	sp,-32
    150e:	1587a783          	lw	a5,344(a5) # 158 <_AES_VMA_END>
    1512:	577d                	c.li	a4,-1
    1514:	00f10613          	addi	a2,sp,15
    1518:	4585                	c.li	a1,1
    151a:	cc22                	c.swsp	s0,24(sp)
    151c:	ce06                	c.swsp	ra,28(sp)
    151e:	00e107a3          	sb	a4,15(sp)
    1522:	9782                	c.jalr	a5
    1524:	00f14403          	lbu	s0,15(sp)
    1528:	0ff00793          	li	a5,255
    152c:	00000513          	li	a0,0
    1530:	02f40263          	beq	s0,a5,1554 <user_calib_freq_offset.constprop.8+0x4c>
    1534:	08a00513          	li	a0,138
    1538:	aa0ff0ef          	jal	ra,7d8 <analog_read_reg8>
    153c:	03f47413          	andi	s0,s0,63
    1540:	04057593          	andi	a1,a0,64
    1544:	0085e5b3          	or	a1,a1,s0
    1548:	08a00513          	li	a0,138
    154c:	a48ff0ef          	jal	ra,794 <analog_write_reg8>
    1550:	00100513          	li	a0,1
    1554:	40f2                	c.lwsp	ra,28(sp)
    1556:	4462                	c.lwsp	s0,24(sp)
    1558:	6105                	c.addi16sp	sp,32
    155a:	8082                	c.jr	ra
    155c:	0001                	c.nop
	...

00001560 <gpio_input_dis>:
    1560:	801407b7          	lui	a5,0x80140
    1564:	30978703          	lb	a4,777(a5) # 80140309 <_DATA_LMA_START+0x6013bf91>
    1568:	fff54513          	not	a0,a0
    156c:	8d79                	c.and	a0,a4
    156e:	0ff57513          	andi	a0,a0,255
    1572:	30a784a3          	sb	a0,777(a5)
    1576:	8082                	c.jr	ra
    1578:	0001                	c.nop
	...

0000157c <_write>:
    157c:	1141                	c.addi	sp,-16
    157e:	c606                	c.swsp	ra,12(sp)
    1580:	c422                	c.swsp	s0,8(sp)
    1582:	c226                	c.swsp	s1,4(sp)
    1584:	c04a                	c.swsp	s2,0(sp)
    1586:	02c05763          	blez	a2,15b4 <_write+0x38>
    158a:	8932                	c.mv	s2,a2
    158c:	00b00433          	add	s0,zero,a1
    1590:	00c584b3          	add	s1,a1,a2
    1594:	00044503          	lbu	a0,0(s0)
    1598:	00140413          	addi	s0,s0,1
    159c:	e10ff0ef          	jal	ra,bac <dr_putchar>
    15a0:	fe941ae3          	bne	s0,s1,1594 <_write+0x18>
    15a4:	40b2                	c.lwsp	ra,12(sp)
    15a6:	4422                	c.lwsp	s0,8(sp)
    15a8:	854a                	c.mv	a0,s2
    15aa:	4492                	c.lwsp	s1,4(sp)
    15ac:	4902                	c.lwsp	s2,0(sp)
    15ae:	0141                	c.addi	sp,16
    15b0:	00008067          	ret
    15b4:	40b2                	c.lwsp	ra,12(sp)
    15b6:	4422                	c.lwsp	s0,8(sp)
    15b8:	4901                	c.li	s2,0
    15ba:	854a                	c.mv	a0,s2
    15bc:	4492                	c.lwsp	s1,4(sp)
    15be:	4902                	c.lwsp	s2,0(sp)
    15c0:	0141                	c.addi	sp,16
    15c2:	8082                	c.jr	ra

000015c4 <main>:
    15c4:	7155                	c.addi16sp	sp,-208
    15c6:	ffbc07b7          	lui	a5,0xffbc0
    15ca:	c786                	c.swsp	ra,204(sp)
    15cc:	17fd                	c.addi	a5,-1
    15ce:	80140737          	lui	a4,0x80140
    15d2:	c5a2                	c.swsp	s0,200(sp)
    15d4:	c3a6                	c.swsp	s1,196(sp)
    15d6:	c1ca                	c.swsp	s2,192(sp)
    15d8:	df4e                	c.swsp	s3,188(sp)
    15da:	dd52                	c.swsp	s4,184(sp)
    15dc:	db56                	c.swsp	s5,180(sp)
    15de:	d95a                	c.swsp	s6,176(sp)
    15e0:	d75e                	c.swsp	s7,172(sp)
    15e2:	1ef72023          	sw	a5,480(a4) # 801401e0 <_DATA_LMA_START+0x6013be68>
    15e6:	4589                	c.li	a1,2
    15e8:	08c00513          	li	a0,140
    15ec:	1ef72223          	sw	a5,484(a4)
    15f0:	9a4ff0ef          	jal	ra,794 <analog_write_reg8>
    15f4:	4581                	c.li	a1,0
    15f6:	4529                	c.li	a0,10
    15f8:	99cff0ef          	jal	ra,794 <analog_write_reg8>
    15fc:	03b00593          	li	a1,59
    1600:	00b00513          	li	a0,11
    1604:	990ff0ef          	jal	ra,794 <analog_write_reg8>
    1608:	00500513          	li	a0,5
    160c:	9ccff0ef          	jal	ra,7d8 <analog_read_reg8>
    1610:	0f757593          	andi	a1,a0,247
    1614:	00500513          	li	a0,5
    1618:	97cff0ef          	jal	ra,794 <analog_write_reg8>
    161c:	00600513          	li	a0,6
    1620:	9b8ff0ef          	jal	ra,7d8 <analog_read_reg8>
    1624:	03e57593          	andi	a1,a0,62
    1628:	00600513          	li	a0,6
    162c:	968ff0ef          	jal	ra,794 <analog_write_reg8>
    1630:	04500593          	li	a1,69
    1634:	00100513          	li	a0,1
    1638:	95cff0ef          	jal	ra,794 <analog_write_reg8>
    163c:	04c00593          	li	a1,76
    1640:	01c00513          	li	a0,28
    1644:	950ff0ef          	jal	ra,794 <analog_write_reg8>
    1648:	801007b7          	lui	a5,0x80100
    164c:	44478703          	lb	a4,1092(a5) # 80100444 <_DATA_LMA_START+0x600fc0cc>
    1650:	801016b7          	lui	a3,0x80101
    1654:	0ff77713          	andi	a4,a4,255
    1658:	00e76713          	ori	a4,a4,14
    165c:	44e78223          	sb	a4,1092(a5)
    1660:	45878703          	lb	a4,1112(a5)
    1664:	03800513          	li	a0,56
    1668:	0ff77713          	andi	a4,a4,255
    166c:	00e76713          	ori	a4,a4,14
    1670:	44e78c23          	sb	a4,1112(a5)
    1674:	46c78703          	lb	a4,1132(a5)
    1678:	0ff77713          	andi	a4,a4,255
    167c:	00e76713          	ori	a4,a4,14
    1680:	46e78623          	sb	a4,1132(a5)
    1684:	48078703          	lb	a4,1152(a5)
    1688:	0ff77713          	andi	a4,a4,255
    168c:	00e76713          	ori	a4,a4,14
    1690:	48e78023          	sb	a4,1152(a5)
    1694:	49478703          	lb	a4,1172(a5)
    1698:	0ff77713          	andi	a4,a4,255
    169c:	00e76713          	ori	a4,a4,14
    16a0:	48e78a23          	sb	a4,1172(a5)
    16a4:	4a878703          	lb	a4,1192(a5)
    16a8:	0ff77713          	andi	a4,a4,255
    16ac:	00e76713          	ori	a4,a4,14
    16b0:	4ae78423          	sb	a4,1192(a5)
    16b4:	4bc78703          	lb	a4,1212(a5)
    16b8:	0ff77713          	andi	a4,a4,255
    16bc:	00e76713          	ori	a4,a4,14
    16c0:	4ae78e23          	sb	a4,1212(a5)
    16c4:	4d078703          	lb	a4,1232(a5)
    16c8:	0ff77713          	andi	a4,a4,255
    16cc:	00e76713          	ori	a4,a4,14
    16d0:	4ce78823          	sb	a4,1232(a5)
    16d4:	83a68783          	lb	a5,-1990(a3) # 8010083a <_DATA_LMA_START+0x600fc4c2>
    16d8:	82068d23          	sb	zero,-1990(a3)
    16dc:	8fcff0ef          	jal	ra,7d8 <analog_read_reg8>
    16e0:	00a00433          	add	s0,zero,a0
    16e4:	03900513          	li	a0,57
    16e8:	8f0ff0ef          	jal	ra,7d8 <analog_read_reg8>
    16ec:	84aa                	c.mv	s1,a0
    16ee:	4004745b          	bbs	s0,0,16f6 <main+0x132>
    16f2:	5ae0006f          	j	1ca0 <main+0x6dc>
    16f6:	0fe47593          	andi	a1,s0,254
    16fa:	fd1f940b          	addigp	s0,-48 # 807d0 <g_pm_status_info>
    16fe:	03800513          	li	a0,56
    1702:	4004f45b          	bbs	s1,0,170a <main+0x146>
    1706:	57a0006f          	j	1c80 <main+0x6bc>
    170a:	4791                	c.li	a5,4
    170c:	00f40123          	sb	a5,2(s0)
    1710:	884ff0ef          	jal	ra,794 <analog_write_reg8>
    1714:	00100593          	li	a1,1
    1718:	07f00513          	li	a0,127
    171c:	878ff0ef          	jal	ra,794 <analog_write_reg8>
    1720:	06400513          	li	a0,100
    1724:	8b4ff0ef          	jal	ra,7d8 <analog_read_reg8>
    1728:	0c3527db          	bfoz	a5,a0,3,3
    172c:	00a400a3          	sb	a0,1(s0)
    1730:	00f40023          	sb	a5,0(s0)
    1734:	08800513          	li	a0,136
    1738:	8a0ff0ef          	jal	ra,7d8 <analog_read_reg8>
    173c:	be757c5b          	bbc	a0,7,1734 <main+0x170>
    1740:	a24ff0ef          	jal	ra,964 <pm_wait_bbpll_done>
    1744:	00244783          	lbu	a5,2(s0)
    1748:	0a87dc5b          	beqc	a5,8,1800 <main+0x23c>
    174c:	80140737          	lui	a4,0x80140
    1750:	20a70783          	lb	a5,522(a4) # 8014020a <_DATA_LMA_START+0x6013be92>
    1754:	0ff7f793          	andi	a5,a5,255
    1758:	00c7e793          	ori	a5,a5,12
    175c:	20f70523          	sb	a5,522(a4)
    1760:	00100793          	li	a5,1
    1764:	20f72023          	sw	a5,512(a4)
    1768:	801404b7          	lui	s1,0x80140
    176c:	1fd48783          	lb	a5,509(s1) # 801401fd <_DATA_LMA_START+0x6013be85>
    1770:	0ff7f793          	andi	a5,a5,255
    1774:	fcffc7ab          	swgp	a5,-52 # 807cc <g_chip_version>
    1778:	00244703          	lbu	a4,2(s0)
    177c:	04475c5b          	beqc	a4,4,17d4 <main+0x210>
    1780:	0ff00693          	li	a3,255
    1784:	04d78063          	beq	a5,a3,17c4 <main+0x200>
    1788:	08000593          	li	a1,128
    178c:	07d00513          	li	a0,125
    1790:	804ff0ef          	jal	ra,794 <analog_write_reg8>
    1794:	80140737          	lui	a4,0x80140
    1798:	06500793          	li	a5,101
    179c:	1ef70a23          	sb	a5,500(a4) # 801401f4 <_DATA_LMA_START+0x6013be7c>
    17a0:	1c872783          	lw	a5,456(a4)
    17a4:	1e070a23          	sb	zero,500(a4)
    17a8:	8bbd                	c.andi	a5,15
    17aa:	0037d55b          	beqc	a5,3,17b4 <main+0x1f0>
    17ae:	4725                	c.li	a4,9
    17b0:	04f77c63          	bgeu	a4,a5,1808 <main+0x244>
    17b4:	801407b7          	lui	a5,0x80140
    17b8:	02000713          	li	a4,32
    17bc:	1ee787a3          	sb	a4,495(a5) # 801401ef <_DATA_LMA_START+0x6013be77>
    17c0:	0000006f          	j	17c0 <main+0x1fc>
    17c4:	bc17625b          	bnec	a4,1,1788 <main+0x1c4>
    17c8:	07d00513          	li	a0,125
    17cc:	08000593          	li	a1,128
    17d0:	0180006f          	j	17e8 <main+0x224>
    17d4:	03900513          	li	a0,57
    17d8:	800ff0ef          	jal	ra,7d8 <analog_read_reg8>
    17dc:	00256593          	ori	a1,a0,2
    17e0:	0ff5f593          	andi	a1,a1,255
    17e4:	03900513          	li	a0,57
    17e8:	fadfe0ef          	jal	ra,794 <analog_write_reg8>
    17ec:	2004a503          	lw	a0,512(s1)
    17f0:	001877b7          	lui	a5,0x187
    17f4:	a0078793          	addi	a5,a5,-1536 # 186a00 <FLASH_SIZE+0x86a00>
    17f8:	953e                	c.add	a0,a5
    17fa:	3eed                	c.jal	13f4 <pm_sleep_wakeup.constprop.2>
    17fc:	f8dff06f          	j	1788 <main+0x1c4>
    1800:	b7dfe0ef          	jal	ra,37c <pm_stimer_recover>
    1804:	f65ff06f          	j	1768 <main+0x1a4>
    1808:	00f00513          	li	a0,15
    180c:	fcdfe0ef          	jal	ra,7d8 <analog_read_reg8>
    1810:	03f57593          	andi	a1,a0,63
    1814:	0405e593          	ori	a1,a1,64
    1818:	00f00513          	li	a0,15
    181c:	f79fe0ef          	jal	ra,794 <analog_write_reg8>
    1820:	18c4                	c.addi4spn	s1,sp,116
    1822:	06010913          	addi	s2,sp,96
    1826:	85a6                	c.mv	a1,s1
    1828:	854a                	c.mv	a0,s2
    182a:	342d                	c.jal	1254 <flash_read_mid_uid_with_check>
    182c:	0ff57513          	andi	a0,a0,255
    1830:	0015545b          	beqc	a0,1,1838 <main+0x274>
    1834:	4400006f          	j	1c74 <main+0x6b0>
    1838:	06214783          	lbu	a5,98(sp)
    183c:	474d                	c.li	a4,19
    183e:	0137e45b          	bnec	a5,19,1846 <main+0x282>
    1842:	41a0006f          	j	1c5c <main+0x698>
    1846:	3af77f63          	bgeu	a4,a5,1c04 <main+0x640>
    184a:	4755                	c.li	a4,21
    184c:	0157e45b          	bnec	a5,21,1854 <main+0x290>
    1850:	39c0006f          	j	1bec <main+0x628>
    1854:	36e7e063          	bltu	a5,a4,1bb4 <main+0x5f0>
    1858:	0167d45b          	beqc	a5,22,1860 <main+0x29c>
    185c:	4180006f          	j	1c74 <main+0x6b0>
    1860:	003fe537          	lui	a0,0x3fe
    1864:	0c050513          	addi	a0,a0,192 # 3fe0c0 <FLASH_SIZE+0x2fe0c0>
    1868:	ba5ff0ef          	jal	ra,140c <user_calib_adc_vref.constprop.9>
    186c:	003fe537          	lui	a0,0x3fe
    1870:	c99ff0ef          	jal	ra,1508 <user_calib_freq_offset.constprop.8>
    1874:	80140437          	lui	s0,0x80140
    1878:	b65ff0ef          	jal	ra,13dc <clock_init.constprop.10>
    187c:	30e40783          	lb	a5,782(s0) # 8014030e <_DATA_LMA_START+0x6013bf96>
    1880:	11000513          	li	a0,272
    1884:	0ff7f793          	andi	a5,a5,255
    1888:	0107e793          	ori	a5,a5,16
    188c:	30f40723          	sb	a5,782(s0)
    1890:	30a40783          	lb	a5,778(s0)
    1894:	0ef7f793          	andi	a5,a5,239
    1898:	30f40523          	sb	a5,778(s0)
    189c:	cc5ff0ef          	jal	ra,1560 <gpio_input_dis>
    18a0:	30e40783          	lb	a5,782(s0)
    18a4:	12000513          	li	a0,288
    18a8:	0ff7f793          	andi	a5,a5,255
    18ac:	0207e793          	ori	a5,a5,32
    18b0:	30f40723          	sb	a5,782(s0)
    18b4:	30a40783          	lb	a5,778(s0)
    18b8:	0df7f793          	andi	a5,a5,223
    18bc:	30f40523          	sb	a5,778(s0)
    18c0:	ca1ff0ef          	jal	ra,1560 <gpio_input_dis>
    18c4:	30e40783          	lb	a5,782(s0)
    18c8:	14000513          	li	a0,320
    18cc:	0ff7f793          	andi	a5,a5,255
    18d0:	0407e793          	ori	a5,a5,64
    18d4:	30f40723          	sb	a5,782(s0)
    18d8:	30a40783          	lb	a5,778(s0)
    18dc:	0bf7f793          	andi	a5,a5,191
    18e0:	30f40523          	sb	a5,778(s0)
    18e4:	c7dff0ef          	jal	ra,1560 <gpio_input_dis>
    18e8:	30e40783          	lb	a5,782(s0)
    18ec:	18000513          	li	a0,384
    18f0:	f807e793          	ori	a5,a5,-128
    18f4:	0ff7f793          	andi	a5,a5,255
    18f8:	30f40723          	sb	a5,782(s0)
    18fc:	30a40783          	lb	a5,778(s0)
    1900:	07f7f793          	andi	a5,a5,127
    1904:	30f40523          	sb	a5,778(s0)
    1908:	c59ff0ef          	jal	ra,1560 <gpio_input_dis>
    190c:	00080537          	lui	a0,0x80
    1910:	52c50513          	addi	a0,a0,1324 # 8052c <fully_connected_weights+0x78>
    1914:	41d010ef          	jal	ra,3530 <puts>
    1918:	65a9                	c.lui	a1,0xa
    191a:	00080537          	lui	a0,0x80
    191e:	0585                	c.addi	a1,1
    1920:	53050513          	addi	a0,a0,1328 # 80530 <fully_connected_weights+0x7c>
    1924:	3ef010ef          	jal	ra,3512 <printf>
    1928:	00080537          	lui	a0,0x80
    192c:	7e400593          	li	a1,2020
    1930:	54850513          	addi	a0,a0,1352 # 80548 <fully_connected_weights+0x94>
    1934:	3df010ef          	jal	ra,3512 <printf>
    1938:	000805b7          	lui	a1,0x80
    193c:	00080537          	lui	a0,0x80
    1940:	56058593          	addi	a1,a1,1376 # 80560 <fully_connected_weights+0xac>
    1944:	56c50513          	addi	a0,a0,1388 # 8056c <fully_connected_weights+0xb8>
    1948:	3cb010ef          	jal	ra,3512 <printf>
    194c:	8b5fe0ef          	jal	ra,200 <delay_ms.constprop.14>
    1950:	00080537          	lui	a0,0x80
    1954:	59450513          	addi	a0,a0,1428 # 80594 <fully_connected_weights+0xe0>
    1958:	3bb010ef          	jal	ra,3512 <printf>
    195c:	00080537          	lui	a0,0x80
    1960:	59850513          	addi	a0,a0,1432 # 80598 <fully_connected_weights+0xe4>
    1964:	3af010ef          	jal	ra,3512 <printf>
    1968:	899fe0ef          	jal	ra,200 <delay_ms.constprop.14>
    196c:	4799                	c.li	a5,6
    196e:	de3e                	c.swsp	a5,60(sp)
    1970:	cebe                	c.swsp	a5,92(sp)
    1972:	08000793          	li	a5,128
    1976:	dabe                	c.swsp	a5,116(sp)
    1978:	f9a00793          	li	a5,-102
    197c:	debe                	c.swsp	a5,124(sp)
    197e:	f8000793          	li	a5,-128
    1982:	c13e                	c.swsp	a5,128(sp)
    1984:	4689                	c.li	a3,2
    1986:	07f00793          	li	a5,127
    198a:	d436                	c.swsp	a3,40(sp)
    198c:	c33e                	c.swsp	a5,132(sp)
    198e:	4685                	c.li	a3,1
    1990:	500627b7          	lui	a5,0x50062
    1994:	d236                	c.swsp	a3,36(sp)
    1996:	69278793          	addi	a5,a5,1682 # 50062692 <_DATA_LMA_START+0x3005e31a>
    199a:	46a9                	c.li	a3,10
    199c:	470d                	c.li	a4,3
    199e:	d636                	c.swsp	a3,44(sp)
    19a0:	cc3e                	c.swsp	a5,24(sp)
    19a2:	46d1                	c.li	a3,20
    19a4:	57dd                	c.li	a5,-9
    19a6:	1808                	c.addi4spn	a0,sp,48
    19a8:	d03a                	c.swsp	a4,32(sp)
    19aa:	d836                	c.swsp	a3,48(sp)
    19ac:	c8ba                	c.swsp	a4,80(sp)
    19ae:	ce3e                	c.swsp	a5,28(sp)
    19b0:	d082                	c.swsp	zero,96(sp)
    19b2:	d282                	c.swsp	zero,100(sp)
    19b4:	d482                	c.swsp	zero,104(sp)
    19b6:	d682                	c.swsp	zero,108(sp)
    19b8:	06011823          	sh	zero,112(sp)
    19bc:	dc82                	c.swsp	zero,120(sp)
    19be:	298d                	c.jal	1e30 <riscv_fully_connected_s8_get_buffer_size>
    19c0:	00a00433          	add	s0,zero,a0
    19c4:	145010ef          	jal	ra,3308 <malloc>
    19c8:	ca22                	c.swsp	s0,20(sp)
    19ca:	c82a                	c.swsp	a0,16(sp)
    19cc:	b0005073          	csrwi	mcycle,0
    19d0:	b00029f3          	csrr	s3,mcycle
    19d4:	05010e13          	addi	t3,sp,80
    19d8:	811f930b          	addigp	t1,-2032 # 80010 <fully_connected_biases>
    19dc:	04010893          	addi	a7,sp,64
    19e0:	cb5f980b          	addigp	a6,-844 # 804b4 <fully_connected_weights>
    19e4:	181c                	c.addi4spn	a5,sp,48
    19e6:	829f970b          	addigp	a4,-2008 # 80028 <fully_connected_input>
    19ea:	1014                	c.addi4spn	a3,sp,32
    19ec:	0830                	c.addi4spn	a2,sp,24
    19ee:	85a6                	c.mv	a1,s1
    19f0:	0808                	c.addi4spn	a0,sp,16
    19f2:	c44a                	c.swsp	s2,8(sp)
    19f4:	c272                	c.swsp	t3,4(sp)
    19f6:	c01a                	c.swsp	t1,0(sp)
    19f8:	398000ef          	jal	ra,1d90 <riscv_fully_connected_s8>
    19fc:	b0002a73          	csrr	s4,mcycle
    1a00:	4542                	c.lwsp	a0,16(sp)
    1a02:	413a0a33          	sub	s4,s4,s3
    1a06:	c909                	c.beqz	a0,1a18 <main+0x454>
    1a08:	8622                	c.mv	a2,s0
    1a0a:	4581                	c.li	a1,0
    1a0c:	11d010ef          	jal	ra,3328 <memset>
    1a10:	01012503          	lw	a0,16(sp)
    1a14:	105010ef          	jal	ra,3318 <free>
    1a18:	ca1f998b          	addigp	s3,-864 # 804a0 <fully_connected_output_ref>
    1a1c:	07210b93          	addi	s7,sp,114
    1a20:	844a                	c.mv	s0,s2
    1a22:	4785                	c.li	a5,1
    1a24:	00000a93          	li	s5,0
    1a28:	00080b37          	lui	s6,0x80
    1a2c:	00040803          	lb	a6,0(s0)
    1a30:	00098703          	lb	a4,0(s3)
    1a34:	412405b3          	sub	a1,s0,s2
    1a38:	8642                	c.mv	a2,a6
    1a3a:	86ba                	c.mv	a3,a4
    1a3c:	5d0b0513          	addi	a0,s6,1488 # 805d0 <fully_connected_weights+0x11c>
    1a40:	00140413          	addi	s0,s0,1
    1a44:	00e80663          	beq	a6,a4,1a50 <main+0x48c>
    1a48:	2cb010ef          	jal	ra,3512 <printf>
    1a4c:	0a85                	c.addi	s5,1
    1a4e:	4781                	c.li	a5,0
    1a50:	00198993          	addi	s3,s3,1
    1a54:	fd741ce3          	bne	s0,s7,1a2c <main+0x468>
    1a58:	16078a63          	beqz	a5,1bcc <main+0x608>
    1a5c:	00080537          	lui	a0,0x80
    1a60:	6bc50513          	addi	a0,a0,1724 # 806bc <fully_connected_weights+0x208>
    1a64:	2af010ef          	jal	ra,3512 <printf>
    1a68:	00080537          	lui	a0,0x80
    1a6c:	014005b3          	add	a1,zero,s4
    1a70:	6f050513          	addi	a0,a0,1776 # 806f0 <fully_connected_weights+0x23c>
    1a74:	29f010ef          	jal	ra,3512 <printf>
    1a78:	4581                	c.li	a1,0
    1a7a:	02c00613          	li	a2,44
    1a7e:	8526                	c.mv	a0,s1
    1a80:	0a9010ef          	jal	ra,3328 <memset>
    1a84:	478d                	c.li	a5,3
    1a86:	d43e                	c.swsp	a5,40(sp)
    1a88:	d23e                	c.swsp	a5,36(sp)
    1a8a:	da3e                	c.swsp	a5,52(sp)
    1a8c:	dc3e                	c.swsp	a5,56(sp)
    1a8e:	77f9                	c.lui	a5,0xffffe
    1a90:	8f178793          	addi	a5,a5,-1807 # ffffd8f1 <_DATA_LMA_START+0xdfff9579>
    1a94:	d6be                	c.swsp	a5,108(sp)
    1a96:	67a1                	c.lui	a5,0x8
    1a98:	17fd                	c.addi	a5,-1
    1a9a:	d8be                	c.swsp	a5,112(sp)
    1a9c:	7fbca7b7          	lui	a5,0x7fbca
    1aa0:	461d                	c.li	a2,7
    1aa2:	f7e78793          	addi	a5,a5,-130 # 7fbc9f7e <_DATA_LMA_START+0x5fbc5c06>
    1aa6:	4689                	c.li	a3,2
    1aa8:	472d                	c.li	a4,11
    1aaa:	d632                	c.swsp	a2,44(sp)
    1aac:	cc3e                	c.swsp	a5,24(sp)
    1aae:	03f00613          	li	a2,63
    1ab2:	57d9                	c.li	a5,-10
    1ab4:	1808                	c.addi4spn	a0,sp,48
    1ab6:	d036                	c.swsp	a3,32(sp)
    1ab8:	d832                	c.swsp	a2,48(sp)
    1aba:	de3a                	c.swsp	a4,60(sp)
    1abc:	c8b6                	c.swsp	a3,80(sp)
    1abe:	ceba                	c.swsp	a4,92(sp)
    1ac0:	ce3e                	c.swsp	a5,28(sp)
    1ac2:	d082                	c.swsp	zero,96(sp)
    1ac4:	d282                	c.swsp	zero,100(sp)
    1ac6:	d482                	c.swsp	zero,104(sp)
    1ac8:	36c000ef          	jal	ra,1e34 <riscv_fully_connected_s16_get_buffer_size>
    1acc:	00a00433          	add	s0,zero,a0
    1ad0:	039010ef          	jal	ra,3308 <malloc>
    1ad4:	ca22                	c.swsp	s0,20(sp)
    1ad6:	c82a                	c.swsp	a0,16(sp)
    1ad8:	b0005073          	csrwi	mcycle,0
    1adc:	b00029f3          	csrr	s3,mcycle
    1ae0:	05010e93          	addi	t4,sp,80
    1ae4:	869f930b          	addigp	t1,-1944 # 80068 <fully_connected_int16_biases>
    1ae8:	04010893          	addi	a7,sp,64
    1aec:	9e9f980b          	addigp	a6,-1560 # 801e8 <fully_connected_int16_weights>
    1af0:	181c                	c.addi4spn	a5,sp,48
    1af2:	8c1f970b          	addigp	a4,-1856 # 800c0 <fully_connected_int16_input>
    1af6:	1014                	c.addi4spn	a3,sp,32
    1af8:	0830                	c.addi4spn	a2,sp,24
    1afa:	85ca                	c.mv	a1,s2
    1afc:	0808                	c.addi4spn	a0,sp,16
    1afe:	c426                	c.swsp	s1,8(sp)
    1b00:	c276                	c.swsp	t4,4(sp)
    1b02:	c01a                	c.swsp	t1,0(sp)
    1b04:	1e4000ef          	jal	ra,1ce8 <riscv_fully_connected_s16>
    1b08:	b00027f3          	csrr	a5,mcycle
    1b0c:	4542                	c.lwsp	a0,16(sp)
    1b0e:	413789b3          	sub	s3,a5,s3
    1b12:	c909                	c.beqz	a0,1b24 <main+0x560>
    1b14:	8622                	c.mv	a2,s0
    1b16:	4581                	c.li	a1,0
    1b18:	011010ef          	jal	ra,3328 <memset>
    1b1c:	01012503          	lw	a0,16(sp)
    1b20:	7f8010ef          	jal	ra,3318 <free>
    1b24:	9bdf990b          	addigp	s2,-1604 # 801bc <fully_connected_int16_output_ref>
    1b28:	4705                	c.li	a4,1
    1b2a:	4a01                	c.li	s4,0
    1b2c:	00000413          	li	s0,0
    1b30:	00080ab7          	lui	s5,0x80
    1b34:	00049883          	lh	a7,0(s1)
    1b38:	00091803          	lh	a6,0(s2)
    1b3c:	85a2                	c.mv	a1,s0
    1b3e:	86c2                	c.mv	a3,a6
    1b40:	8646                	c.mv	a2,a7
    1b42:	5d0a8513          	addi	a0,s5,1488 # 805d0 <fully_connected_weights+0x11c>
    1b46:	0405                	c.addi	s0,1
    1b48:	01088663          	beq	a7,a6,1b54 <main+0x590>
    1b4c:	1c7010ef          	jal	ra,3512 <printf>
    1b50:	0a05                	c.addi	s4,1
    1b52:	4701                	c.li	a4,0
    1b54:	0489                	c.addi	s1,2
    1b56:	0909                	c.addi	s2,2
    1b58:	bd646e5b          	bnec	s0,22,1b34 <main+0x570>
    1b5c:	0c070463          	beqz	a4,1c24 <main+0x660>
    1b60:	00080537          	lui	a0,0x80
    1b64:	72050513          	addi	a0,a0,1824 # 80720 <fully_connected_weights+0x26c>
    1b68:	1ab010ef          	jal	ra,3512 <printf>
    1b6c:	00080537          	lui	a0,0x80
    1b70:	013005b3          	add	a1,zero,s3
    1b74:	75850513          	addi	a0,a0,1880 # 80758 <fully_connected_weights+0x2a4>
    1b78:	19b010ef          	jal	ra,3512 <printf>
    1b7c:	00080537          	lui	a0,0x80
    1b80:	67450513          	addi	a0,a0,1652 # 80674 <fully_connected_weights+0x1c0>
    1b84:	18f010ef          	jal	ra,3512 <printf>
    1b88:	e78fe0ef          	jal	ra,200 <delay_ms.constprop.14>
    1b8c:	00080537          	lui	a0,0x80
    1b90:	68c50513          	addi	a0,a0,1676 # 8068c <fully_connected_weights+0x1d8>
    1b94:	17f010ef          	jal	ra,3512 <printf>
    1b98:	e68fe0ef          	jal	ra,200 <delay_ms.constprop.14>
    1b9c:	40be                	c.lwsp	ra,204(sp)
    1b9e:	442e                	c.lwsp	s0,200(sp)
    1ba0:	449e                	c.lwsp	s1,196(sp)
    1ba2:	490e                	c.lwsp	s2,192(sp)
    1ba4:	59fa                	c.lwsp	s3,188(sp)
    1ba6:	5a6a                	c.lwsp	s4,184(sp)
    1ba8:	5ada                	c.lwsp	s5,180(sp)
    1baa:	5b4a                	c.lwsp	s6,176(sp)
    1bac:	5bba                	c.lwsp	s7,172(sp)
    1bae:	4501                	c.li	a0,0
    1bb0:	6169                	c.addi16sp	sp,208
    1bb2:	8082                	c.jr	ra
    1bb4:	000fe537          	lui	a0,0xfe
    1bb8:	0c050513          	addi	a0,a0,192 # fe0c0 <_STACK_TOP+0x5e0c0>
    1bbc:	851ff0ef          	jal	ra,140c <user_calib_adc_vref.constprop.9>
    1bc0:	000fe537          	lui	a0,0xfe
    1bc4:	945ff0ef          	jal	ra,1508 <user_calib_freq_offset.constprop.8>
    1bc8:	cadff06f          	j	1874 <main+0x2b0>
    1bcc:	00080537          	lui	a0,0x80
    1bd0:	4649                	c.li	a2,18
    1bd2:	85d6                	c.mv	a1,s5
    1bd4:	5f450513          	addi	a0,a0,1524 # 805f4 <fully_connected_weights+0x140>
    1bd8:	13b010ef          	jal	ra,3512 <printf>
    1bdc:	00080537          	lui	a0,0x80
    1be0:	60850513          	addi	a0,a0,1544 # 80608 <fully_connected_weights+0x154>
    1be4:	12f010ef          	jal	ra,3512 <printf>
    1be8:	e91ff06f          	j	1a78 <main+0x4b4>
    1bec:	001fe537          	lui	a0,0x1fe
    1bf0:	0c050513          	addi	a0,a0,192 # 1fe0c0 <FLASH_SIZE+0xfe0c0>
    1bf4:	819ff0ef          	jal	ra,140c <user_calib_adc_vref.constprop.9>
    1bf8:	001fe537          	lui	a0,0x1fe
    1bfc:	90dff0ef          	jal	ra,1508 <user_calib_freq_offset.constprop.8>
    1c00:	c75ff06f          	j	1874 <main+0x2b0>
    1c04:	0507d05b          	beqc	a5,16,1c44 <main+0x680>
    1c08:	0717e65b          	bnec	a5,17,1c74 <main+0x6b0>
    1c0c:	0001e537          	lui	a0,0x1e
    1c10:	0c050513          	addi	a0,a0,192 # 1e0c0 <BIN_SIZE+0x19572>
    1c14:	ff8ff0ef          	jal	ra,140c <user_calib_adc_vref.constprop.9>
    1c18:	0001e537          	lui	a0,0x1e
    1c1c:	8edff0ef          	jal	ra,1508 <user_calib_freq_offset.constprop.8>
    1c20:	c55ff06f          	j	1874 <main+0x2b0>
    1c24:	00080537          	lui	a0,0x80
    1c28:	4659                	c.li	a2,22
    1c2a:	85d2                	c.mv	a1,s4
    1c2c:	5f450513          	addi	a0,a0,1524 # 805f4 <fully_connected_weights+0x140>
    1c30:	0e3010ef          	jal	ra,3512 <printf>
    1c34:	00080537          	lui	a0,0x80
    1c38:	63c50513          	addi	a0,a0,1596 # 8063c <fully_connected_weights+0x188>
    1c3c:	0d7010ef          	jal	ra,3512 <printf>
    1c40:	f3dff06f          	j	1b7c <main+0x5b8>
    1c44:	0000e537          	lui	a0,0xe
    1c48:	0c050513          	addi	a0,a0,192 # e0c0 <BIN_SIZE+0x9572>
    1c4c:	fc0ff0ef          	jal	ra,140c <user_calib_adc_vref.constprop.9>
    1c50:	0000e537          	lui	a0,0xe
    1c54:	8b5ff0ef          	jal	ra,1508 <user_calib_freq_offset.constprop.8>
    1c58:	c1dff06f          	j	1874 <main+0x2b0>
    1c5c:	0007e537          	lui	a0,0x7e
    1c60:	0c050513          	addi	a0,a0,192 # 7e0c0 <BIN_SIZE+0x79572>
    1c64:	fa8ff0ef          	jal	ra,140c <user_calib_adc_vref.constprop.9>
    1c68:	0007e537          	lui	a0,0x7e
    1c6c:	89dff0ef          	jal	ra,1508 <user_calib_freq_offset.constprop.8>
    1c70:	c05ff06f          	j	1874 <main+0x2b0>
    1c74:	00000513          	li	a0,0
    1c78:	f94ff0ef          	jal	ra,140c <user_calib_adc_vref.constprop.9>
    1c7c:	bf9ff06f          	j	1874 <main+0x2b0>
    1c80:	00100793          	li	a5,1
    1c84:	00f40123          	sb	a5,2(s0)
    1c88:	b0dfe0ef          	jal	ra,794 <analog_write_reg8>
    1c8c:	0014e593          	ori	a1,s1,1
    1c90:	0ff5f593          	andi	a1,a1,255
    1c94:	03900513          	li	a0,57
    1c98:	afdfe0ef          	jal	ra,794 <analog_write_reg8>
    1c9c:	a79ff06f          	j	1714 <main+0x150>
    1ca0:	07f00513          	li	a0,127
    1ca4:	b35fe0ef          	jal	ra,7d8 <analog_read_reg8>
    1ca8:	fd1f940b          	addigp	s0,-48 # 807d0 <g_pm_status_info>
    1cac:	0005785b          	bbc	a0,0,1cbc <main+0x6f8>
    1cb0:	4014fa5b          	bbs	s1,1,1cc4 <main+0x700>
    1cb4:	47c1                	c.li	a5,16
    1cb6:	00f40123          	sb	a5,2(s0)
    1cba:	bca9                	c.j	1714 <main+0x150>
    1cbc:	47a1                	c.li	a5,8
    1cbe:	00f40123          	sb	a5,2(s0)
    1cc2:	bc89                	c.j	1714 <main+0x150>
    1cc4:	02000793          	li	a5,32
    1cc8:	0fd4f593          	andi	a1,s1,253
    1ccc:	03900513          	li	a0,57
    1cd0:	00f40123          	sb	a5,2(s0)
    1cd4:	ac1fe0ef          	jal	ra,794 <analog_write_reg8>
    1cd8:	a3dff06f          	j	1714 <main+0x150>
    1cdc:	0001                	c.nop
	...

00001ce0 <default_irq_entry>:
    1ce0:	a001                	c.j	1ce0 <default_irq_entry>

00001ce2 <trap_handler>:
    1ce2:	a001                	c.j	1ce2 <trap_handler>
    1ce4:	0001                	c.nop
	...

00001ce8 <riscv_fully_connected_s16>:
    1ce8:	7139                	c.addi16sp	sp,-64
    1cea:	d452                	c.swsp	s4,40(sp)
    1cec:	00062a03          	lw	s4,0(a2)
    1cf0:	dc22                	c.swsp	s0,56(sp)
    1cf2:	da26                	c.swsp	s1,52(sp)
    1cf4:	d84a                	c.swsp	s2,48(sp)
    1cf6:	d64e                	c.swsp	s3,44(sp)
    1cf8:	d256                	c.swsp	s5,36(sp)
    1cfa:	d05a                	c.swsp	s6,32(sp)
    1cfc:	8ab2                	c.mv	s5,a2
    1cfe:	ce5e                	c.swsp	s7,28(sp)
    1d00:	cc62                	c.swsp	s8,24(sp)
    1d02:	ca66                	c.swsp	s9,20(sp)
    1d04:	7fff0637          	lui	a2,0x7fff0
    1d08:	de06                	c.swsp	ra,60(sp)
    1d0a:	4c86                	c.lwsp	s9,64(sp)
    1d0c:	4b16                	c.lwsp	s6,68(sp)
    1d0e:	4926                	c.lwsp	s2,72(sp)
    1d10:	4280                	c.lw	s0,0(a3)
    1d12:	89ae                	c.mv	s3,a1
    1d14:	84ba                	c.mv	s1,a4
    1d16:	8bbe                	c.mv	s7,a5
    1d18:	8c42                	c.mv	s8,a6
    1d1a:	06ca5763          	bge	s4,a2,1d88 <riscv_fully_connected_s16+0xa0>
    1d1e:	67a1                	c.lui	a5,0x8
    1d20:	00fa0a33          	add	s4,s4,a5
    1d24:	410a5a13          	srai	s4,s4,0x10
    1d28:	04040263          	beqz	s0,1d6c <riscv_fully_connected_s16+0x84>
    1d2c:	000ba803          	lw	a6,0(s7)
    1d30:	00cb2883          	lw	a7,12(s6)
    1d34:	004aa783          	lw	a5,4(s5)
    1d38:	0109ae03          	lw	t3,16(s3)
    1d3c:	00c9a303          	lw	t1,12(s3)
    1d40:	86ca                	c.mv	a3,s2
    1d42:	8526                	c.mv	a0,s1
    1d44:	8752                	c.mv	a4,s4
    1d46:	8666                	c.mv	a2,s9
    1d48:	85e2                	c.mv	a1,s8
    1d4a:	c272                	c.swsp	t3,4(sp)
    1d4c:	00612023          	sw	t1,0(sp)
    1d50:	248010ef          	jal	ra,2f98 <riscv_nn_vec_mat_mult_t_s16>
    1d54:	000ba803          	lw	a6,0(s7)
    1d58:	00cb2883          	lw	a7,12(s6)
    1d5c:	00181713          	slli	a4,a6,0x1
    1d60:	00189793          	slli	a5,a7,0x1
    1d64:	147d                	c.addi	s0,-1
    1d66:	94ba                	c.add	s1,a4
    1d68:	993e                	c.add	s2,a5
    1d6a:	f469                	c.bnez	s0,1d34 <riscv_fully_connected_s16+0x4c>
    1d6c:	50f2                	c.lwsp	ra,60(sp)
    1d6e:	5462                	c.lwsp	s0,56(sp)
    1d70:	54d2                	c.lwsp	s1,52(sp)
    1d72:	5942                	c.lwsp	s2,48(sp)
    1d74:	59b2                	c.lwsp	s3,44(sp)
    1d76:	5a22                	c.lwsp	s4,40(sp)
    1d78:	5a92                	c.lwsp	s5,36(sp)
    1d7a:	5b02                	c.lwsp	s6,32(sp)
    1d7c:	4bf2                	c.lwsp	s7,28(sp)
    1d7e:	4c62                	c.lwsp	s8,24(sp)
    1d80:	4cd2                	c.lwsp	s9,20(sp)
    1d82:	4501                	c.li	a0,0
    1d84:	6121                	c.addi16sp	sp,64
    1d86:	8082                	c.jr	ra
    1d88:	6a21                	c.lui	s4,0x8
    1d8a:	1a7d                	c.addi	s4,-1
    1d8c:	bf71                	c.j	1d28 <riscv_fully_connected_s16+0x40>
	...

00001d90 <riscv_fully_connected_s8>:
    1d90:	715d                	c.addi16sp	sp,-80
    1d92:	c2a6                	c.swsp	s1,68(sp)
    1d94:	4284                	c.lw	s1,0(a3)
    1d96:	de4e                	c.swsp	s3,60(sp)
    1d98:	dc52                	c.swsp	s4,56(sp)
    1d9a:	d85a                	c.swsp	s6,48(sp)
    1d9c:	d462                	c.swsp	s8,40(sp)
    1d9e:	c686                	c.swsp	ra,76(sp)
    1da0:	c4a2                	c.swsp	s0,72(sp)
    1da2:	c0ca                	c.swsp	s2,64(sp)
    1da4:	da56                	c.swsp	s5,52(sp)
    1da6:	d65e                	c.swsp	s7,44(sp)
    1da8:	d266                	c.swsp	s9,36(sp)
    1daa:	d06a                	c.swsp	s10,32(sp)
    1dac:	4c46                	c.lwsp	s8,80(sp)
    1dae:	4a56                	c.lwsp	s4,84(sp)
    1db0:	49e6                	c.lwsp	s3,88(sp)
    1db2:	00052b03          	lw	s6,0(a0) # 7e000 <BIN_SIZE+0x794b2>
    1db6:	cca9                	c.beqz	s1,1e10 <riscv_fully_connected_s8+0x80>
    1db8:	0007ae03          	lw	t3,0(a5) # 8000 <BIN_SIZE+0x34b2>
    1dbc:	00ca2303          	lw	t1,12(s4) # 800c <BIN_SIZE+0x34be>
    1dc0:	842e                	c.mv	s0,a1
    1dc2:	8d32                	c.mv	s10,a2
    1dc4:	893a                	c.mv	s2,a4
    1dc6:	8abe                	c.mv	s5,a5
    1dc8:	8bc2                	c.mv	s7,a6
    1dca:	4c85                	c.li	s9,1
    1dcc:	00442283          	lw	t0,4(s0)
    1dd0:	01042f83          	lw	t6,16(s0)
    1dd4:	00c42f03          	lw	t5,12(s0)
    1dd8:	004d2e83          	lw	t4,4(s10)
    1ddc:	000d2883          	lw	a7,0(s10)
    1de0:	00842803          	lw	a6,8(s0)
    1de4:	401c                	c.lw	a5,0(s0)
    1de6:	874e                	c.mv	a4,s3
    1de8:	854a                	c.mv	a0,s2
    1dea:	86e2                	c.mv	a3,s8
    1dec:	865a                	c.mv	a2,s6
    1dee:	85de                	c.mv	a1,s7
    1df0:	c41a                	c.swsp	t1,8(sp)
    1df2:	c272                	c.swsp	t3,4(sp)
    1df4:	cc16                	c.swsp	t0,24(sp)
    1df6:	ca66                	c.swsp	s9,20(sp)
    1df8:	c87e                	c.swsp	t6,16(sp)
    1dfa:	c67a                	c.swsp	t5,12(sp)
    1dfc:	c076                	c.swsp	t4,0(sp)
    1dfe:	282d                	c.jal	1e38 <riscv_nn_vec_mat_mult_t_s8>
    1e00:	000aae03          	lw	t3,0(s5)
    1e04:	00ca2303          	lw	t1,12(s4)
    1e08:	14fd                	c.addi	s1,-1
    1e0a:	9972                	c.add	s2,t3
    1e0c:	999a                	c.add	s3,t1
    1e0e:	fcdd                	c.bnez	s1,1dcc <riscv_fully_connected_s8+0x3c>
    1e10:	40b6                	c.lwsp	ra,76(sp)
    1e12:	4426                	c.lwsp	s0,72(sp)
    1e14:	4496                	c.lwsp	s1,68(sp)
    1e16:	4906                	c.lwsp	s2,64(sp)
    1e18:	59f2                	c.lwsp	s3,60(sp)
    1e1a:	5a62                	c.lwsp	s4,56(sp)
    1e1c:	5ad2                	c.lwsp	s5,52(sp)
    1e1e:	5b42                	c.lwsp	s6,48(sp)
    1e20:	5bb2                	c.lwsp	s7,44(sp)
    1e22:	5c22                	c.lwsp	s8,40(sp)
    1e24:	5c92                	c.lwsp	s9,36(sp)
    1e26:	5d02                	c.lwsp	s10,32(sp)
    1e28:	4501                	c.li	a0,0
    1e2a:	6161                	c.addi16sp	sp,80
    1e2c:	8082                	c.jr	ra
	...

00001e30 <riscv_fully_connected_s8_get_buffer_size>:
    1e30:	4501                	c.li	a0,0
    1e32:	8082                	c.jr	ra

00001e34 <riscv_fully_connected_s16_get_buffer_size>:
    1e34:	4501                	c.li	a0,0
    1e36:	8082                	c.jr	ra

00001e38 <riscv_nn_vec_mat_mult_t_s8>:
    1e38:	7161                	c.addi16sp	sp,-432
    1e3a:	1b812603          	lw	a2,440(sp)
    1e3e:	1b812283          	lw	t0,440(sp)
    1e42:	01f65313          	srli	t1,a2,0x1f
    1e46:	005303b3          	add	t2,t1,t0
    1e4a:	1b212223          	sw	s2,420(sp)
    1e4e:	19a12223          	sw	s10,388(sp)
    1e52:	cb3a                	c.swsp	a4,148(sp)
    1e54:	8d3a                	c.mv	s10,a4
    1e56:	1c812903          	lw	s2,456(sp)
    1e5a:	4013d713          	srai	a4,t2,0x1
    1e5e:	1a812623          	sw	s0,428(sp)
    1e62:	1a912423          	sw	s1,424(sp)
    1e66:	01079413          	slli	s0,a5,0x10
    1e6a:	19812623          	sw	s8,396(sp)
    1e6e:	19b12023          	sw	s11,384(sp)
    1e72:	1b312023          	sw	s3,416(sp)
    1e76:	19412e23          	sw	s4,412(sp)
    1e7a:	19512c23          	sw	s5,408(sp)
    1e7e:	19612a23          	sw	s6,404(sp)
    1e82:	19712823          	sw	s7,400(sp)
    1e86:	19912423          	sw	s9,392(sp)
    1e8a:	cc42                	c.swsp	a6,24(sp)
    1e8c:	c246                	c.swsp	a7,4(sp)
    1e8e:	c63a                	c.swsp	a4,12(sp)
    1e90:	8daa                	c.mv	s11,a0
    1e92:	8c2e                	c.mv	s8,a1
    1e94:	41045493          	srai	s1,s0,0x10
    1e98:	12090ae3          	beqz	s2,27cc <riscv_nn_vec_mat_mult_t_s8+0x994>
    1e9c:	0e9492ff          	pkbb16	t0,s1,s1
    1ea0:	01091f93          	slli	t6,s2,0x10
    1ea4:	410fde93          	srai	t4,t6,0x10
    1ea8:	0fde94ff          	pkbb16	s1,t4,t4
    1eac:	1b812803          	lw	a6,440(sp)
    1eb0:	4c85                	c.li	s9,1
    1eb2:	470cd563          	bge	s9,a6,231c <riscv_nn_vec_mat_mult_t_s8+0x4e4>
    1eb6:	1b012503          	lw	a0,432(sp)
    1eba:	4401                	c.li	s0,0
    1ebc:	40a00bb3          	neg	s7,a0
    1ec0:	f28b8aff          	maxw	s5,s7,s0
    1ec4:	1b012883          	lw	a7,432(sp)
    1ec8:	015c9333          	sll	t1,s9,s5
    1ecc:	1b412a03          	lw	s4,436(sp)
    1ed0:	1b412383          	lw	t2,436(sp)
    1ed4:	f2888eff          	maxw	t4,a7,s0
    1ed8:	fff30613          	addi	a2,t1,-1
    1edc:	1c412f03          	lw	t5,452(sp)
    1ee0:	1b412403          	lw	s0,436(sp)
    1ee4:	ffca7b13          	andi	s6,s4,-4
    1ee8:	40165713          	srai	a4,a2,0x1
    1eec:	00170993          	addi	s3,a4,1
    1ef0:	016d8cb3          	add	s9,s11,s6
    1ef4:	4023d593          	srai	a1,t2,0x2
    1ef8:	00139e13          	slli	t3,t2,0x1
    1efc:	001f1f93          	slli	t6,t5,0x1
    1f00:	41640533          	sub	a0,s0,s6
    1f04:	ce4e                	c.swsp	s3,28(sp)
    1f06:	c766                	c.swsp	s9,140(sp)
    1f08:	d562                	c.swsp	s8,168(sp)
    1f0a:	8cb6                	c.mv	s9,a3
    1f0c:	d256                	c.swsp	s5,36(sp)
    1f0e:	c832                	c.swsp	a2,16(sp)
    1f10:	c35a                	c.swsp	s6,132(sp)
    1f12:	ccba                	c.swsp	a4,88(sp)
    1f14:	c472                	c.swsp	t3,8(sp)
    1f16:	d076                	c.swsp	t4,32(sp)
    1f18:	c92a                	c.swsp	a0,144(sp)
    1f1a:	d17e                	c.swsp	t6,160(sp)
    1f1c:	c52e                	c.swsp	a1,136(sp)
    1f1e:	dcea                	c.swsp	s10,120(sp)
    1f20:	d86e                	c.swsp	s11,48(sp)
    1f22:	c89a                	c.swsp	t1,80(sp)
    1f24:	ca9e                	c.swsp	t2,84(sp)
    1f26:	016c09b3          	add	s3,s8,s6
    1f2a:	88e2                	c.mv	a7,s8
    1f2c:	4801                	c.li	a6,0
    1f2e:	8c26                	c.mv	s8,s1
    1f30:	3a0c8a63          	beqz	s9,22e4 <riscv_nn_vec_mat_mult_t_s8+0x4ac>
    1f34:	46a2                	c.lwsp	a3,8(sp)
    1f36:	1b412483          	lw	s1,436(sp)
    1f3a:	00d88db3          	add	s11,a7,a3
    1f3e:	4d2a                	c.lwsp	s10,136(sp)
    1f40:	d46e                	c.swsp	s11,40(sp)
    1f42:	000ca603          	lw	a2,0(s9)
    1f46:	004ca703          	lw	a4,4(s9)
    1f4a:	00988ab3          	add	s5,a7,s1
    1f4e:	0ca1                	c.addi	s9,8
    1f50:	3a0d0863          	beqz	s10,2300 <riscv_nn_vec_mat_mult_t_s8+0x4c8>
    1f54:	001d7b93          	andi	s7,s10,1
    1f58:	5442                	c.lwsp	s0,48(sp)
    1f5a:	8a6a                	c.mv	s4,s10
    1f5c:	fffd0b13          	addi	s6,s10,-1
    1f60:	080b8063          	beqz	s7,1fe0 <riscv_nn_vec_mat_mult_t_s8+0x1a8>
    1f64:	00042a03          	lw	s4,0(s0)
    1f68:	dc52                	c.swsp	s4,56(sp)
    1f6a:	de52                	c.swsp	s4,60(sp)
    1f6c:	5362                	c.lwsp	t1,56(sp)
    1f6e:	53f2                	c.lwsp	t2,60(sp)
    1f70:	0411                	c.addi	s0,4
    1f72:	de8303ff          	wexti	t2,t1,8
    1f76:	ac9385ff          	sunpkd820	a1,t2
    1f7a:	40b2857f          	add16	a0,t0,a1
    1f7e:	ac9a04ff          	sunpkd820	s1,s4
    1f82:	409286ff          	add16	a3,t0,s1
    1f86:	0008ad03          	lw	s10,0(a7)
    1f8a:	c0ea                	c.swsp	s10,64(sp)
    1f8c:	c2ea                	c.swsp	s10,68(sp)
    1f8e:	4306                	c.lwsp	t1,64(sp)
    1f90:	4396                	c.lwsp	t2,68(sp)
    1f92:	0891                	c.addi	a7,4
    1f94:	de830bff          	wexti	s7,t1,8
    1f98:	ac9b8dff          	sunpkd820	s11,s7
    1f9c:	41bc0a7f          	add16	s4,s8,s11
    1fa0:	ac9d03ff          	sunpkd820	t2,s10
    1fa4:	407c05ff          	add16	a1,s8,t2
    1fa8:	48aa167f          	kmada	a2,s4,a0
    1fac:	48d5967f          	kmada	a2,a1,a3
    1fb0:	000aa483          	lw	s1,0(s5)
    1fb4:	c4a6                	c.swsp	s1,72(sp)
    1fb6:	c6a6                	c.swsp	s1,76(sp)
    1fb8:	4d26                	c.lwsp	s10,72(sp)
    1fba:	4db6                	c.lwsp	s11,76(sp)
    1fbc:	0a91                	c.addi	s5,4
    1fbe:	de8d037f          	wexti	t1,s10,8
    1fc2:	ac930bff          	sunpkd820	s7,t1
    1fc6:	417c0dff          	add16	s11,s8,s7
    1fca:	ac948a7f          	sunpkd820	s4,s1
    1fce:	414c03ff          	add16	t2,s8,s4
    1fd2:	48ad977f          	kmada	a4,s11,a0
    1fd6:	48d3977f          	kmada	a4,t2,a3
    1fda:	8a5a                	c.mv	s4,s6
    1fdc:	100b0263          	beqz	s6,20e0 <riscv_nn_vec_mat_mult_t_s8+0x2a8>
    1fe0:	8522                	c.mv	a0,s0
    1fe2:	d0c2                	c.swsp	a6,96(sp)
    1fe4:	d8ce                	c.swsp	s3,112(sp)
    1fe6:	dee6                	c.swsp	s9,124(sp)
    1fe8:	08f12023          	sw	a5,128(sp)
    1fec:	1d212423          	sw	s2,456(sp)
    1ff0:	411c                	c.lw	a5,0(a0)
    1ff2:	8d3e                	c.mv	s10,a5
    1ff4:	8dbe                	c.mv	s11,a5
    1ff6:	00450e13          	addi	t3,a0,4
    1ffa:	de8d097f          	wexti	s2,s10,8
    1ffe:	ac9909ff          	sunpkd820	s3,s2
    2002:	41328f7f          	add16	t5,t0,s3
    2006:	ac978fff          	sunpkd820	t6,a5
    200a:	41f28eff          	add16	t4,t0,t6
    200e:	0008ac83          	lw	s9,0(a7)
    2012:	8466                	c.mv	s0,s9
    2014:	84e6                	c.mv	s1,s9
    2016:	00488793          	addi	a5,a7,4
    201a:	de84087f          	wexti	a6,s0,8
    201e:	ac980b7f          	sunpkd820	s6,a6
    2022:	416c047f          	add16	s0,s8,s6
    2026:	ac9c86ff          	sunpkd820	a3,s9
    202a:	40dc05ff          	add16	a1,s8,a3
    202e:	49e4167f          	kmada	a2,s0,t5
    2032:	49d5967f          	kmada	a2,a1,t4
    2036:	000aa483          	lw	s1,0(s5)
    203a:	8b26                	c.mv	s6,s1
    203c:	8ba6                	c.mv	s7,s1
    203e:	004a8f93          	addi	t6,s5,4
    2042:	de8b037f          	wexti	t1,s6,8
    2046:	ac930bff          	sunpkd820	s7,t1
    204a:	417c03ff          	add16	t2,s8,s7
    204e:	ac94897f          	sunpkd820	s2,s1
    2052:	412c09ff          	add16	s3,s8,s2
    2056:	49e3977f          	kmada	a4,t2,t5
    205a:	49d9977f          	kmada	a4,s3,t4
    205e:	000e2e03          	lw	t3,0(t3)
    2062:	8372                	c.mv	t1,t3
    2064:	83f2                	c.mv	t2,t3
    2066:	0521                	c.addi	a0,8
    2068:	de830f7f          	wexti	t5,t1,8
    206c:	ac9f0eff          	sunpkd820	t4,t5
    2070:	41d28cff          	add16	s9,t0,t4
    2074:	ac9e087f          	sunpkd820	a6,t3
    2078:	41028b7f          	add16	s6,t0,a6
    207c:	439c                	c.lw	a5,0(a5)
    207e:	8e3e                	c.mv	t3,a5
    2080:	8ebe                	c.mv	t4,a5
    2082:	08a1                	c.addi	a7,8
    2084:	de8e047f          	wexti	s0,t3,8
    2088:	ac9406ff          	sunpkd820	a3,s0
    208c:	40dc05ff          	add16	a1,s8,a3
    2090:	ac9784ff          	sunpkd820	s1,a5
    2094:	409c0bff          	add16	s7,s8,s1
    2098:	4995967f          	kmada	a2,a1,s9
    209c:	496b967f          	kmada	a2,s7,s6
    20a0:	000fa903          	lw	s2,0(t6)
    20a4:	8f4a                	c.mv	t5,s2
    20a6:	8fca                	c.mv	t6,s2
    20a8:	0aa1                	c.addi	s5,8
    20aa:	de8f09ff          	wexti	s3,t5,8
    20ae:	ac99887f          	sunpkd820	a6,s3
    20b2:	410c07ff          	add16	a5,s8,a6
    20b6:	ac99047f          	sunpkd820	s0,s2
    20ba:	408c06ff          	add16	a3,s8,s0
    20be:	4997977f          	kmada	a4,a5,s9
    20c2:	4966977f          	kmada	a4,a3,s6
    20c6:	1a79                	c.addi	s4,-2
    20c8:	f20a14e3          	bnez	s4,1ff0 <riscv_nn_vec_mat_mult_t_s8+0x1b8>
    20cc:	5806                	c.lwsp	a6,96(sp)
    20ce:	59c6                	c.lwsp	s3,112(sp)
    20d0:	5cf6                	c.lwsp	s9,124(sp)
    20d2:	478a                	c.lwsp	a5,128(sp)
    20d4:	1c812903          	lw	s2,456(sp)
    20d8:	d4ea                	c.swsp	s10,104(sp)
    20da:	d6ee                	c.swsp	s11,108(sp)
    20dc:	c89a                	c.swsp	t1,80(sp)
    20de:	ca9e                	c.swsp	t2,84(sp)
    20e0:	1b412883          	lw	a7,436(sp)
    20e4:	46ba                	c.lwsp	a3,140(sp)
    20e6:	01198ab3          	add	s5,s3,a7
    20ea:	88ce                	c.mv	a7,s3
    20ec:	1b412d03          	lw	s10,436(sp)
    20f0:	4d9a                	c.lwsp	s11,132(sp)
    20f2:	13addb63          	bge	s11,s10,2228 <riscv_nn_vec_mat_mult_t_s8+0x3f0>
    20f6:	4a4a                	c.lwsp	s4,144(sp)
    20f8:	003a7313          	andi	t1,s4,3
    20fc:	01468b33          	add	s6,a3,s4
    2100:	08030663          	beqz	t1,218c <riscv_nn_vec_mat_mult_t_s8+0x354>
    2104:	4385                	c.li	t2,1
    2106:	04730d63          	beq	t1,t2,2160 <riscv_nn_vec_mat_mult_t_s8+0x328>
    210a:	4509                	c.li	a0,2
    210c:	02a30663          	beq	t1,a0,2138 <riscv_nn_vec_mat_mult_t_s8+0x300>
    2110:	00068583          	lb	a1,0(a3)
    2114:	00088483          	lb	s1,0(a7)
    2118:	000a8b83          	lb	s7,0(s5)
    211c:	00f58433          	add	s0,a1,a5
    2120:	01248d33          	add	s10,s1,s2
    2124:	012b8db3          	add	s11,s7,s2
    2128:	c48d167f          	maddr32	a2,s10,s0
    212c:	c48d977f          	maddr32	a4,s11,s0
    2130:	0685                	c.addi	a3,1
    2132:	0885                	c.addi	a7,1
    2134:	001a8a93          	addi	s5,s5,1
    2138:	00068a03          	lb	s4,0(a3)
    213c:	00088303          	lb	t1,0(a7)
    2140:	000a8383          	lb	t2,0(s5)
    2144:	00fa05b3          	add	a1,s4,a5
    2148:	012304b3          	add	s1,t1,s2
    214c:	01238533          	add	a0,t2,s2
    2150:	c4b4967f          	maddr32	a2,s1,a1
    2154:	c4b5177f          	maddr32	a4,a0,a1
    2158:	0685                	c.addi	a3,1
    215a:	0885                	c.addi	a7,1
    215c:	001a8a93          	addi	s5,s5,1
    2160:	00068b83          	lb	s7,0(a3)
    2164:	00088403          	lb	s0,0(a7)
    2168:	000a8d03          	lb	s10,0(s5)
    216c:	00fb8a33          	add	s4,s7,a5
    2170:	01240db3          	add	s11,s0,s2
    2174:	012d0333          	add	t1,s10,s2
    2178:	0685                	c.addi	a3,1
    217a:	c54d967f          	maddr32	a2,s11,s4
    217e:	c543177f          	maddr32	a4,t1,s4
    2182:	0885                	c.addi	a7,1
    2184:	001a8a93          	addi	s5,s5,1
    2188:	0b668063          	beq	a3,s6,2228 <riscv_nn_vec_mat_mult_t_s8+0x3f0>
    218c:	d0f2                	c.swsp	t3,96(sp)
    218e:	d2f6                	c.swsp	t4,100(sp)
    2190:	d8fa                	c.swsp	t5,112(sp)
    2192:	dafe                	c.swsp	t6,116(sp)
    2194:	00068f83          	lb	t6,0(a3)
    2198:	00088e03          	lb	t3,0(a7)
    219c:	000a8f03          	lb	t5,0(s5)
    21a0:	00ff85b3          	add	a1,t6,a5
    21a4:	00168383          	lb	t2,1(a3)
    21a8:	00188483          	lb	s1,1(a7)
    21ac:	001a8b83          	lb	s7,1(s5)
    21b0:	012e0eb3          	add	t4,t3,s2
    21b4:	012f0533          	add	a0,t5,s2
    21b8:	c4be967f          	maddr32	a2,t4,a1
    21bc:	c4b5177f          	maddr32	a4,a0,a1
    21c0:	00268403          	lb	s0,2(a3)
    21c4:	00f38fb3          	add	t6,t2,a5
    21c8:	00288d03          	lb	s10,2(a7)
    21cc:	002a8303          	lb	t1,2(s5)
    21d0:	01248a33          	add	s4,s1,s2
    21d4:	012b8db3          	add	s11,s7,s2
    21d8:	c5fa167f          	maddr32	a2,s4,t6
    21dc:	c5fd977f          	maddr32	a4,s11,t6
    21e0:	00f404b3          	add	s1,s0,a5
    21e4:	00368e03          	lb	t3,3(a3)
    21e8:	00388f03          	lb	t5,3(a7)
    21ec:	003a8383          	lb	t2,3(s5)
    21f0:	012d0bb3          	add	s7,s10,s2
    21f4:	012305b3          	add	a1,t1,s2
    21f8:	c49b967f          	maddr32	a2,s7,s1
    21fc:	c495977f          	maddr32	a4,a1,s1
    2200:	00fe0eb3          	add	t4,t3,a5
    2204:	012f0433          	add	s0,t5,s2
    2208:	01238533          	add	a0,t2,s2
    220c:	0691                	c.addi	a3,4
    220e:	c5d4167f          	maddr32	a2,s0,t4
    2212:	c5d5177f          	maddr32	a4,a0,t4
    2216:	0891                	c.addi	a7,4
    2218:	0a91                	c.addi	s5,4
    221a:	f7669de3          	bne	a3,s6,2194 <riscv_nn_vec_mat_mult_t_s8+0x35c>
    221e:	5e06                	c.lwsp	t3,96(sp)
    2220:	5e96                	c.lwsp	t4,100(sp)
    2222:	5f46                	c.lwsp	t5,112(sp)
    2224:	07412f83          	lw	t6,116(sp)
    2228:	5a82                	c.lwsp	s5,32(sp)
    222a:	4892                	c.lwsp	a7,4(sp)
    222c:	01561633          	sll	a2,a2,s5
    2230:	40000537          	lui	a0,0x40000
    2234:	4581                	c.li	a1,0
    2236:	8516157f          	smar64	a0,a2,a7
    223a:	46c2                	c.lwsp	a3,16(sp)
    223c:	5312                	c.lwsp	t1,36(sp)
    223e:	dff50b7f          	wexti	s6,a0,31
    2242:	4df2                	c.lwsp	s11,28(sp)
    2244:	0166fd33          	and	s10,a3,s6
    2248:	406b5a33          	sra	s4,s6,t1
    224c:	000b4463          	bltz	s6,2254 <riscv_nn_vec_mat_mult_t_s8+0x41c>
    2250:	05812d83          	lw	s11,88(sp)
    2254:	5382                	c.lwsp	t2,32(sp)
    2256:	4492                	c.lwsp	s1,4(sp)
    2258:	00771733          	sll	a4,a4,t2
    225c:	40000637          	lui	a2,0x40000
    2260:	4681                	c.li	a3,0
    2262:	8497167f          	smar64	a2,a4,s1
    2266:	4542                	c.lwsp	a0,16(sp)
    2268:	01adabb3          	slt	s7,s11,s10
    226c:	dff6047f          	wexti	s0,a2,31
    2270:	5612                	c.lwsp	a2,36(sp)
    2272:	4b72                	c.lwsp	s6,28(sp)
    2274:	017a05b3          	add	a1,s4,s7
    2278:	00857ab3          	and	s5,a0,s0
    227c:	40c458b3          	sra	a7,s0,a2
    2280:	00044463          	bltz	s0,2288 <riscv_nn_vec_mat_mult_t_s8+0x450>
    2284:	05812b03          	lw	s6,88(sp)
    2288:	4362                	c.lwsp	t1,24(sp)
    228a:	015b26b3          	slt	a3,s6,s5
    228e:	1bc12383          	lw	t2,444(sp)
    2292:	00d88d33          	add	s10,a7,a3
    2296:	5466                	c.lwsp	s0,120(sp)
    2298:	00b30a33          	add	s4,t1,a1
    229c:	1c012b83          	lw	s7,448(sp)
    22a0:	1c412503          	lw	a0,452(sp)
    22a4:	01a30db3          	add	s11,t1,s10
    22a8:	1c012603          	lw	a2,448(sp)
    22ac:	1c412b03          	lw	s6,452(sp)
    22b0:	f34384ff          	maxw	s1,t2,s4
    22b4:	00a40ab3          	add	s5,s0,a0
    22b8:	f3b3877f          	maxw	a4,t2,s11
    22bc:	f09b85ff          	minw	a1,s7,s1
    22c0:	4d22                	c.lwsp	s10,8(sp)
    22c2:	f0e608ff          	minw	a7,a2,a4
    22c6:	016a86b3          	add	a3,s5,s6
    22ca:	00b40023          	sb	a1,0(s0)
    22ce:	4332                	c.lwsp	t1,12(sp)
    22d0:	0805                	c.addi	a6,1
    22d2:	011a8023          	sb	a7,0(s5)
    22d6:	dcb6                	c.swsp	a3,120(sp)
    22d8:	99ea                	c.add	s3,s10
    22da:	02685563          	bge	a6,t1,2304 <riscv_nn_vec_mat_mult_t_s8+0x4cc>
    22de:	58a2                	c.lwsp	a7,40(sp)
    22e0:	c40c9ae3          	bnez	s9,1f34 <riscv_nn_vec_mat_mult_t_s8+0xfc>
    22e4:	46a2                	c.lwsp	a3,8(sp)
    22e6:	1b412483          	lw	s1,436(sp)
    22ea:	00d88db3          	add	s11,a7,a3
    22ee:	4d2a                	c.lwsp	s10,136(sp)
    22f0:	d46e                	c.swsp	s11,40(sp)
    22f2:	4701                	c.li	a4,0
    22f4:	00000613          	li	a2,0
    22f8:	00988ab3          	add	s5,a7,s1
    22fc:	c40d1ce3          	bnez	s10,1f54 <riscv_nn_vec_mat_mult_t_s8+0x11c>
    2300:	56c2                	c.lwsp	a3,48(sp)
    2302:	b3ed                	c.j	20ec <riscv_nn_vec_mat_mult_t_s8+0x2b4>
    2304:	4e5a                	c.lwsp	t3,148(sp)
    2306:	5f8a                	c.lwsp	t6,160(sp)
    2308:	84e2                	c.mv	s1,s8
    230a:	86e6                	c.mv	a3,s9
    230c:	5c2a                	c.lwsp	s8,168(sp)
    230e:	4ca2                	c.lwsp	s9,8(sp)
    2310:	c46f9e7f          	maddr32	t3,t6,t1
    2314:	5dc2                	c.lwsp	s11,48(sp)
    2316:	c46c9c7f          	maddr32	s8,s9,t1
    231a:	cb72                	c.swsp	t3,148(sp)
    231c:	1b812f03          	lw	t5,440(sp)
    2320:	001f7e93          	andi	t4,t5,1
    2324:	460e8863          	beqz	t4,2794 <riscv_nn_vec_mat_mult_t_s8+0x95c>
    2328:	4701                	c.li	a4,0
    232a:	c299                	c.beqz	a3,2330 <riscv_nn_vec_mat_mult_t_s8+0x4f8>
    232c:	0006a703          	lw	a4,0(a3)
    2330:	1b412a03          	lw	s4,436(sp)
    2334:	4881                	c.li	a7,0
    2336:	402a5b93          	srai	s7,s4,0x2
    233a:	260b8963          	beqz	s7,25ac <riscv_nn_vec_mat_mult_t_s8+0x774>
    233e:	003bf393          	andi	t2,s7,3
    2342:	8862                	c.mv	a6,s8
    2344:	88ee                	c.mv	a7,s11
    2346:	8e5e                	c.mv	t3,s7
    2348:	fffb8593          	addi	a1,s7,-1
    234c:	10038c63          	beqz	t2,2464 <riscv_nn_vec_mat_mult_t_s8+0x62c>
    2350:	4405                	c.li	s0,1
    2352:	0a838f63          	beq	t2,s0,2410 <riscv_nn_vec_mat_mult_t_s8+0x5d8>
    2356:	4509                	c.li	a0,2
    2358:	06a38463          	beq	t2,a0,23c0 <riscv_nn_vec_mat_mult_t_s8+0x588>
    235c:	000daa83          	lw	s5,0(s11)
    2360:	17512023          	sw	s5,352(sp)
    2364:	17512223          	sw	s5,356(sp)
    2368:	16012603          	lw	a2,352(sp)
    236c:	16412683          	lw	a3,356(sp)
    2370:	004d8893          	addi	a7,s11,4
    2374:	de86087f          	wexti	a6,a2,8
    2378:	ac980b7f          	sunpkd820	s6,a6
    237c:	41628d7f          	add16	s10,t0,s6
    2380:	ac9a86ff          	sunpkd820	a3,s5
    2384:	40d289ff          	add16	s3,t0,a3
    2388:	000c2303          	lw	t1,0(s8)
    238c:	16612423          	sw	t1,360(sp)
    2390:	16612623          	sw	t1,364(sp)
    2394:	16812e03          	lw	t3,360(sp)
    2398:	16c12e83          	lw	t4,364(sp)
    239c:	004c0813          	addi	a6,s8,4
    23a0:	de8e0fff          	wexti	t6,t3,8
    23a4:	ac9f8cff          	sunpkd820	s9,t6
    23a8:	41948f7f          	add16	t5,s1,s9
    23ac:	ac930eff          	sunpkd820	t4,t1
    23b0:	41d48a7f          	add16	s4,s1,t4
    23b4:	49af177f          	kmada	a4,t5,s10
    23b8:	493a177f          	kmada	a4,s4,s3
    23bc:	00b00e33          	add	t3,zero,a1
    23c0:	0008a583          	lw	a1,0(a7)
    23c4:	c5ae                	c.swsp	a1,200(sp)
    23c6:	c7ae                	c.swsp	a1,204(sp)
    23c8:	462e                	c.lwsp	a2,200(sp)
    23ca:	46be                	c.lwsp	a3,204(sp)
    23cc:	0891                	c.addi	a7,4
    23ce:	de8603ff          	wexti	t2,a2,8
    23d2:	ac93847f          	sunpkd820	s0,t2
    23d6:	4082857f          	add16	a0,t0,s0
    23da:	ac958aff          	sunpkd820	s5,a1
    23de:	41528b7f          	add16	s6,t0,s5
    23e2:	00082d03          	lw	s10,0(a6)
    23e6:	c9ea                	c.swsp	s10,208(sp)
    23e8:	cbea                	c.swsp	s10,212(sp)
    23ea:	434e                	c.lwsp	t1,208(sp)
    23ec:	43de                	c.lwsp	t2,212(sp)
    23ee:	0811                	c.addi	a6,4
    23f0:	de8306ff          	wexti	a3,t1,8
    23f4:	ac9689ff          	sunpkd820	s3,a3
    23f8:	41348fff          	add16	t6,s1,s3
    23fc:	ac9d0cff          	sunpkd820	s9,s10
    2400:	41948f7f          	add16	t5,s1,s9
    2404:	48af977f          	kmada	a4,t6,a0
    2408:	496f177f          	kmada	a4,t5,s6
    240c:	fffe0e13          	addi	t3,t3,-1
    2410:	0008ae83          	lw	t4,0(a7)
    2414:	d976                	c.swsp	t4,176(sp)
    2416:	db76                	c.swsp	t4,180(sp)
    2418:	5a4a                	c.lwsp	s4,176(sp)
    241a:	5ada                	c.lwsp	s5,180(sp)
    241c:	0891                	c.addi	a7,4
    241e:	de8a05ff          	wexti	a1,s4,8
    2422:	ac95867f          	sunpkd820	a2,a1
    2426:	40c283ff          	add16	t2,t0,a2
    242a:	ac9e847f          	sunpkd820	s0,t4
    242e:	4082857f          	add16	a0,t0,s0
    2432:	00082a83          	lw	s5,0(a6)
    2436:	dd56                	c.swsp	s5,184(sp)
    2438:	df56                	c.swsp	s5,188(sp)
    243a:	5f6a                	c.lwsp	t5,184(sp)
    243c:	5ffa                	c.lwsp	t6,188(sp)
    243e:	0811                	c.addi	a6,4
    2440:	de8f0b7f          	wexti	s6,t5,8
    2444:	ac9b0d7f          	sunpkd820	s10,s6
    2448:	41a4837f          	add16	t1,s1,s10
    244c:	ac9a86ff          	sunpkd820	a3,s5
    2450:	40d489ff          	add16	s3,s1,a3
    2454:	4873177f          	kmada	a4,t1,t2
    2458:	48a9977f          	kmada	a4,s3,a0
    245c:	fffe0e13          	addi	t3,t3,-1
    2460:	140e0263          	beqz	t3,25a4 <riscv_nn_vec_mat_mult_t_s8+0x76c>
    2464:	8ca6                	c.mv	s9,s1
    2466:	86f2                	c.mv	a3,t3
    2468:	866e                	c.mv	a2,s11
    246a:	c45e                	c.swsp	s7,8(sp)
    246c:	c662                	c.swsp	s8,12(sp)
    246e:	c83e                	c.swsp	a5,16(sp)
    2470:	1d212423          	sw	s2,456(sp)
    2474:	0008ac03          	lw	s8,0(a7)
    2478:	cd62                	c.swsp	s8,152(sp)
    247a:	cf62                	c.swsp	s8,156(sp)
    247c:	4d6a                	c.lwsp	s10,152(sp)
    247e:	4dfa                	c.lwsp	s11,156(sp)
    2480:	00488913          	addi	s2,a7,4
    2484:	de8d07ff          	wexti	a5,s10,8
    2488:	ac978dff          	sunpkd820	s11,a5
    248c:	41b284ff          	add16	s1,t0,s11
    2490:	ac9c0bff          	sunpkd820	s7,s8
    2494:	41728fff          	add16	t6,t0,s7
    2498:	00082e83          	lw	t4,0(a6)
    249c:	8576                	c.mv	a0,t4
    249e:	85f6                	c.mv	a1,t4
    24a0:	00480a13          	addi	s4,a6,4
    24a4:	de8505ff          	wexti	a1,a0,8
    24a8:	ac9583ff          	sunpkd820	t2,a1
    24ac:	407c847f          	add16	s0,s9,t2
    24b0:	ac9e857f          	sunpkd820	a0,t4
    24b4:	40ac8aff          	add16	s5,s9,a0
    24b8:	4894177f          	kmada	a4,s0,s1
    24bc:	49fa977f          	kmada	a4,s5,t6
    24c0:	00092f03          	lw	t5,0(s2)
    24c4:	837a                	c.mv	t1,t5
    24c6:	83fa                	c.mv	t2,t5
    24c8:	00888993          	addi	s3,a7,8
    24cc:	de830b7f          	wexti	s6,t1,8
    24d0:	ac9b0d7f          	sunpkd820	s10,s6
    24d4:	41a2837f          	add16	t1,t0,s10
    24d8:	ac9f0e7f          	sunpkd820	t3,t5
    24dc:	41c28c7f          	add16	s8,t0,t3
    24e0:	000a2903          	lw	s2,0(s4)
    24e4:	8e4a                	c.mv	t3,s2
    24e6:	8eca                	c.mv	t4,s2
    24e8:	00880493          	addi	s1,a6,8
    24ec:	de8e07ff          	wexti	a5,t3,8
    24f0:	ac978dff          	sunpkd820	s11,a5
    24f4:	41bc8bff          	add16	s7,s9,s11
    24f8:	ac990fff          	sunpkd820	t6,s2
    24fc:	41fc8eff          	add16	t4,s9,t6
    2500:	486b977f          	kmada	a4,s7,t1
    2504:	498e977f          	kmada	a4,t4,s8
    2508:	0009aa03          	lw	s4,0(s3)
    250c:	8f52                	c.mv	t5,s4
    250e:	8fd2                	c.mv	t6,s4
    2510:	00c88593          	addi	a1,a7,12
    2514:	de8f03ff          	wexti	t2,t5,8
    2518:	ac93847f          	sunpkd820	s0,t2
    251c:	4082857f          	add16	a0,t0,s0
    2520:	ac9a0aff          	sunpkd820	s5,s4
    2524:	41528f7f          	add16	t5,t0,s5
    2528:	0004a983          	lw	s3,0(s1)
    252c:	844e                	c.mv	s0,s3
    252e:	84ce                	c.mv	s1,s3
    2530:	00c80313          	addi	t1,a6,12
    2534:	de840b7f          	wexti	s6,s0,8
    2538:	ac9b0d7f          	sunpkd820	s10,s6
    253c:	41ac8e7f          	add16	t3,s9,s10
    2540:	ac998c7f          	sunpkd820	s8,s3
    2544:	418c897f          	add16	s2,s9,s8
    2548:	48ae177f          	kmada	a4,t3,a0
    254c:	49e9177f          	kmada	a4,s2,t5
    2550:	4184                	c.lw	s1,0(a1)
    2552:	8926                	c.mv	s2,s1
    2554:	89a6                	c.mv	s3,s1
    2556:	08c1                	c.addi	a7,16
    2558:	de8907ff          	wexti	a5,s2,8
    255c:	ac978dff          	sunpkd820	s11,a5
    2560:	41b28bff          	add16	s7,t0,s11
    2564:	ac948fff          	sunpkd820	t6,s1
    2568:	41f28eff          	add16	t4,t0,t6
    256c:	00032583          	lw	a1,0(t1)
    2570:	8a2e                	c.mv	s4,a1
    2572:	8aae                	c.mv	s5,a1
    2574:	0841                	c.addi	a6,16
    2576:	de8a0a7f          	wexti	s4,s4,8
    257a:	ac9a03ff          	sunpkd820	t2,s4
    257e:	407c847f          	add16	s0,s9,t2
    2582:	ac95857f          	sunpkd820	a0,a1
    2586:	40ac8aff          	add16	s5,s9,a0
    258a:	4974177f          	kmada	a4,s0,s7
    258e:	49da977f          	kmada	a4,s5,t4
    2592:	16f1                	c.addi	a3,-4
    2594:	ee0690e3          	bnez	a3,2474 <riscv_nn_vec_mat_mult_t_s8+0x63c>
    2598:	4ba2                	c.lwsp	s7,8(sp)
    259a:	4c32                	c.lwsp	s8,12(sp)
    259c:	47c2                	c.lwsp	a5,16(sp)
    259e:	1c812903          	lw	s2,456(sp)
    25a2:	8db2                	c.mv	s11,a2
    25a4:	002b9893          	slli	a7,s7,0x2
    25a8:	9c46                	c.add	s8,a7
    25aa:	9dc6                	c.add	s11,a7
    25ac:	1b412283          	lw	t0,436(sp)
    25b0:	1658da63          	bge	a7,t0,2724 <riscv_nn_vec_mat_mult_t_s8+0x8ec>
    25b4:	41128833          	sub	a6,t0,a7
    25b8:	00787c93          	andi	s9,a6,7
    25bc:	010d8f33          	add	t5,s11,a6
    25c0:	0a0c8e63          	beqz	s9,267c <riscv_nn_vec_mat_mult_t_s8+0x844>
    25c4:	4605                	c.li	a2,1
    25c6:	08cc8d63          	beq	s9,a2,2660 <riscv_nn_vec_mat_mult_t_s8+0x828>
    25ca:	4989                	c.li	s3,2
    25cc:	073c8e63          	beq	s9,s3,2648 <riscv_nn_vec_mat_mult_t_s8+0x810>
    25d0:	430d                	c.li	t1,3
    25d2:	046c8f63          	beq	s9,t1,2630 <riscv_nn_vec_mat_mult_t_s8+0x7f8>
    25d6:	4b11                	c.li	s6,4
    25d8:	056c8063          	beq	s9,s6,2618 <riscv_nn_vec_mat_mult_t_s8+0x7e0>
    25dc:	4d15                	c.li	s10,5
    25de:	03ac8163          	beq	s9,s10,2600 <riscv_nn_vec_mat_mult_t_s8+0x7c8>
    25e2:	4e19                	c.li	t3,6
    25e4:	19cc90e3          	bne	s9,t3,2f64 <riscv_nn_vec_mat_mult_t_s8+0x112c>
    25e8:	000d8a03          	lb	s4,0(s11)
    25ec:	000c0583          	lb	a1,0(s8)
    25f0:	0d85                	c.addi	s11,1
    25f2:	00fa03b3          	add	t2,s4,a5
    25f6:	01258433          	add	s0,a1,s2
    25fa:	c474177f          	maddr32	a4,s0,t2
    25fe:	0c05                	c.addi	s8,1
    2600:	000d8503          	lb	a0,0(s11)
    2604:	000c0a83          	lb	s5,0(s8)
    2608:	0d85                	c.addi	s11,1
    260a:	00f506b3          	add	a3,a0,a5
    260e:	012a88b3          	add	a7,s5,s2
    2612:	c4d8977f          	maddr32	a4,a7,a3
    2616:	0c05                	c.addi	s8,1
    2618:	000d8283          	lb	t0,0(s11)
    261c:	000c0803          	lb	a6,0(s8)
    2620:	0d85                	c.addi	s11,1
    2622:	00f28cb3          	add	s9,t0,a5
    2626:	01280633          	add	a2,a6,s2
    262a:	c596177f          	maddr32	a4,a2,s9
    262e:	0c05                	c.addi	s8,1
    2630:	000d8983          	lb	s3,0(s11)
    2634:	000c0303          	lb	t1,0(s8)
    2638:	0d85                	c.addi	s11,1
    263a:	00f98b33          	add	s6,s3,a5
    263e:	01230d33          	add	s10,t1,s2
    2642:	c56d177f          	maddr32	a4,s10,s6
    2646:	0c05                	c.addi	s8,1
    2648:	000d8e03          	lb	t3,0(s11)
    264c:	000c0483          	lb	s1,0(s8)
    2650:	0d85                	c.addi	s11,1
    2652:	00fe0bb3          	add	s7,t3,a5
    2656:	01248fb3          	add	t6,s1,s2
    265a:	c57f977f          	maddr32	a4,t6,s7
    265e:	0c05                	c.addi	s8,1
    2660:	000d8e83          	lb	t4,0(s11)
    2664:	000c0a03          	lb	s4,0(s8)
    2668:	0d85                	c.addi	s11,1
    266a:	00fe83b3          	add	t2,t4,a5
    266e:	012a05b3          	add	a1,s4,s2
    2672:	c475977f          	maddr32	a4,a1,t2
    2676:	0c05                	c.addi	s8,1
    2678:	0bed8663          	beq	s11,t5,2724 <riscv_nn_vec_mat_mult_t_s8+0x8ec>
    267c:	000d8403          	lb	s0,0(s11)
    2680:	000c0a83          	lb	s5,0(s8)
    2684:	001d8683          	lb	a3,1(s11)
    2688:	001c0883          	lb	a7,1(s8)
    268c:	00f40533          	add	a0,s0,a5
    2690:	012a82b3          	add	t0,s5,s2
    2694:	c4a2977f          	maddr32	a4,t0,a0
    2698:	002d8c83          	lb	s9,2(s11)
    269c:	002c0803          	lb	a6,2(s8)
    26a0:	00f68633          	add	a2,a3,a5
    26a4:	012889b3          	add	s3,a7,s2
    26a8:	c4c9977f          	maddr32	a4,s3,a2
    26ac:	003d8303          	lb	t1,3(s11)
    26b0:	003c0b03          	lb	s6,3(s8)
    26b4:	00fc8d33          	add	s10,s9,a5
    26b8:	01280e33          	add	t3,a6,s2
    26bc:	c5ae177f          	maddr32	a4,t3,s10
    26c0:	004d8483          	lb	s1,4(s11)
    26c4:	004c0b83          	lb	s7,4(s8)
    26c8:	00f30fb3          	add	t6,t1,a5
    26cc:	012b0eb3          	add	t4,s6,s2
    26d0:	c5fe977f          	maddr32	a4,t4,t6
    26d4:	005d8a03          	lb	s4,5(s11)
    26d8:	005c0383          	lb	t2,5(s8)
    26dc:	00f485b3          	add	a1,s1,a5
    26e0:	012b8433          	add	s0,s7,s2
    26e4:	c4b4177f          	maddr32	a4,s0,a1
    26e8:	006d8a83          	lb	s5,6(s11)
    26ec:	006c0683          	lb	a3,6(s8)
    26f0:	00fa08b3          	add	a7,s4,a5
    26f4:	01238533          	add	a0,t2,s2
    26f8:	c515177f          	maddr32	a4,a0,a7
    26fc:	007d8283          	lb	t0,7(s11)
    2700:	007c0c83          	lb	s9,7(s8)
    2704:	00fa8633          	add	a2,s5,a5
    2708:	01268833          	add	a6,a3,s2
    270c:	c4c8177f          	maddr32	a4,a6,a2
    2710:	00f289b3          	add	s3,t0,a5
    2714:	012c8333          	add	t1,s9,s2
    2718:	0da1                	c.addi	s11,8
    271a:	c533177f          	maddr32	a4,t1,s3
    271e:	0c21                	c.addi	s8,8
    2720:	f5ed9ee3          	bne	s11,t5,267c <riscv_nn_vec_mat_mult_t_s8+0x844>
    2724:	1b012c03          	lw	s8,432(sp)
    2728:	00000f13          	li	t5,0
    272c:	f3ec097f          	maxw	s2,s8,t5
    2730:	01271933          	sll	s2,a4,s2
    2734:	4d92                	c.lwsp	s11,4(sp)
    2736:	1b012b03          	lw	s6,432(sp)
    273a:	40000737          	lui	a4,0x40000
    273e:	4781                	c.li	a5,0
    2740:	85b9177f          	smar64	a4,s2,s11
    2744:	41600d33          	neg	s10,s6
    2748:	f3ed0f7f          	maxw	t5,s10,t5
    274c:	4e05                	c.li	t3,1
    274e:	01ee14b3          	sll	s1,t3,t5
    2752:	dff7077f          	wexti	a4,a4,31
    2756:	fff48793          	addi	a5,s1,-1
    275a:	4017db93          	srai	s7,a5,0x1
    275e:	00072f93          	slti	t6,a4,0
    2762:	00e7feb3          	and	t4,a5,a4
    2766:	01fb8a33          	add	s4,s7,t6
    276a:	4ae2                	c.lwsp	s5,24(sp)
    276c:	41e753b3          	sra	t2,a4,t5
    2770:	01da25b3          	slt	a1,s4,t4
    2774:	1bc12883          	lw	a7,444(sp)
    2778:	00b38433          	add	s0,t2,a1
    277c:	1c012283          	lw	t0,448(sp)
    2780:	008a86b3          	add	a3,s5,s0
    2784:	09412603          	lw	a2,148(sp)
    2788:	f316857f          	maxw	a0,a3,a7
    278c:	f0550cff          	minw	s9,a0,t0
    2790:	01960023          	sb	s9,0(a2) # 40000000 <_DATA_LMA_START+0x1fffbc88>
    2794:	1ac12403          	lw	s0,428(sp)
    2798:	1a812483          	lw	s1,424(sp)
    279c:	1a412903          	lw	s2,420(sp)
    27a0:	1a012983          	lw	s3,416(sp)
    27a4:	19c12a03          	lw	s4,412(sp)
    27a8:	19812a83          	lw	s5,408(sp)
    27ac:	19412b03          	lw	s6,404(sp)
    27b0:	19012b83          	lw	s7,400(sp)
    27b4:	18c12c03          	lw	s8,396(sp)
    27b8:	18812c83          	lw	s9,392(sp)
    27bc:	18412d03          	lw	s10,388(sp)
    27c0:	18012d83          	lw	s11,384(sp)
    27c4:	4501                	c.li	a0,0
    27c6:	615d                	c.addi16sp	sp,432
    27c8:	00008067          	ret
    27cc:	0e9492ff          	pkbb16	t0,s1,s1
    27d0:	1b812583          	lw	a1,440(sp)
    27d4:	4505                	c.li	a0,1
    27d6:	3eb55b63          	bge	a0,a1,2bcc <riscv_nn_vec_mat_mult_t_s8+0xd94>
    27da:	1b012803          	lw	a6,432(sp)
    27de:	1b412a03          	lw	s4,436(sp)
    27e2:	410008b3          	neg	a7,a6
    27e6:	f3288f7f          	maxw	t5,a7,s2
    27ea:	01e519b3          	sll	s3,a0,t5
    27ee:	1b412b83          	lw	s7,436(sp)
    27f2:	fff98c93          	addi	s9,s3,-1
    27f6:	1c412603          	lw	a2,452(sp)
    27fa:	1b012383          	lw	t2,432(sp)
    27fe:	1b412883          	lw	a7,436(sp)
    2802:	ffca7a93          	andi	s5,s4,-4
    2806:	401cdb13          	srai	s6,s9,0x1
    280a:	f3238d7f          	maxw	s10,t2,s2
    280e:	402bde13          	srai	t3,s7,0x2
    2812:	001b9e93          	slli	t4,s7,0x1
    2816:	015c0433          	add	s0,s8,s5
    281a:	45da                	c.lwsp	a1,148(sp)
    281c:	001b0f93          	addi	t6,s6,1
    2820:	00161313          	slli	t1,a2,0x1
    2824:	015d84b3          	add	s1,s11,s5
    2828:	41588833          	sub	a6,a7,s5
    282c:	4701                	c.li	a4,0
    282e:	ce76                	c.swsp	t4,28(sp)
    2830:	d26a                	c.swsp	s10,36(sp)
    2832:	c172                	c.swsp	t3,128(sp)
    2834:	c962                	c.swsp	s8,144(sp)
    2836:	1d212423          	sw	s2,456(sp)
    283a:	8d36                	c.mv	s10,a3
    283c:	ded6                	c.swsp	s5,124(sp)
    283e:	c4da                	c.swsp	s6,72(sp)
    2840:	d07e                	c.swsp	t6,32(sp)
    2842:	c326                	c.swsp	s1,132(sp)
    2844:	c542                	c.swsp	a6,136(sp)
    2846:	c71a                	c.swsp	t1,140(sp)
    2848:	dce6                	c.swsp	s9,120(sp)
    284a:	c422                	c.swsp	s0,8(sp)
    284c:	dc6e                	c.swsp	s11,56(sp)
    284e:	d47a                	c.swsp	t5,40(sp)
    2850:	8562                	c.mv	a0,s8
    2852:	5e42                	c.lwsp	t3,48(sp)
    2854:	5ed2                	c.lwsp	t4,52(sp)
    2856:	8c3a                	c.mv	s8,a4
    2858:	00b00933          	add	s2,zero,a1
    285c:	320d0e63          	beqz	s10,2b98 <riscv_nn_vec_mat_mult_t_s8+0xd60>
    2860:	46f2                	c.lwsp	a3,28(sp)
    2862:	4f0a                	c.lwsp	t5,128(sp)
    2864:	00d50db3          	add	s11,a0,a3
    2868:	d86e                	c.swsp	s11,48(sp)
    286a:	000d2603          	lw	a2,0(s10)
    286e:	004d2703          	lw	a4,4(s10)
    2872:	01150833          	add	a6,a0,a7
    2876:	0d21                	c.addi	s10,8
    2878:	320f0c63          	beqz	t5,2bb0 <riscv_nn_vec_mat_mult_t_s8+0xd78>
    287c:	ffff0a13          	addi	s4,t5,-1
    2880:	001f7c93          	andi	s9,t5,1
    2884:	c0d2                	c.swsp	s4,64(sp)
    2886:	5de2                	c.lwsp	s11,56(sp)
    2888:	89fa                	c.mv	s3,t5
    288a:	060c8763          	beqz	s9,28f8 <riscv_nn_vec_mat_mult_t_s8+0xac0>
    288e:	000da983          	lw	s3,0(s11)
    2892:	c8ce                	c.swsp	s3,80(sp)
    2894:	cace                	c.swsp	s3,84(sp)
    2896:	4b46                	c.lwsp	s6,80(sp)
    2898:	4bd6                	c.lwsp	s7,84(sp)
    289a:	0d91                	c.addi	s11,4
    289c:	de8b0aff          	wexti	s5,s6,8
    28a0:	ac9a8bff          	sunpkd820	s7,s5
    28a4:	41728fff          	add16	t6,t0,s7
    28a8:	ac99837f          	sunpkd820	t1,s3
    28ac:	4062847f          	add16	s0,t0,t1
    28b0:	4104                	c.lw	s1,0(a0)
    28b2:	cca6                	c.swsp	s1,88(sp)
    28b4:	cea6                	c.swsp	s1,92(sp)
    28b6:	4a66                	c.lwsp	s4,88(sp)
    28b8:	4af6                	c.lwsp	s5,92(sp)
    28ba:	0511                	c.addi	a0,4
    28bc:	de8a03ff          	wexti	t2,s4,8
    28c0:	ac9385ff          	sunpkd820	a1,t2
    28c4:	ac9486ff          	sunpkd820	a3,s1
    28c8:	49f5967f          	kmada	a2,a1,t6
    28cc:	4886967f          	kmada	a2,a3,s0
    28d0:	00082f03          	lw	t5,0(a6)
    28d4:	d0fa                	c.swsp	t5,96(sp)
    28d6:	d2fa                	c.swsp	t5,100(sp)
    28d8:	5b06                	c.lwsp	s6,96(sp)
    28da:	5b96                	c.lwsp	s7,100(sp)
    28dc:	0811                	c.addi	a6,4
    28de:	de8b0cff          	wexti	s9,s6,8
    28e2:	ac9c89ff          	sunpkd820	s3,s9
    28e6:	ac9f0aff          	sunpkd820	s5,t5
    28ea:	49f9977f          	kmada	a4,s3,t6
    28ee:	488a977f          	kmada	a4,s5,s0
    28f2:	4986                	c.lwsp	s3,64(sp)
    28f4:	0c098e63          	beqz	s3,29d0 <riscv_nn_vec_mat_mult_t_s8+0xb98>
    28f8:	c0ca                	c.swsp	s2,64(sp)
    28fa:	d4e2                	c.swsp	s8,104(sp)
    28fc:	06f12823          	sw	a5,112(sp)
    2900:	1b112a23          	sw	a7,436(sp)
    2904:	000da783          	lw	a5,0(s11)
    2908:	8b3e                	c.mv	s6,a5
    290a:	8bbe                	c.mv	s7,a5
    290c:	004d8f93          	addi	t6,s11,4
    2910:	de8b097f          	wexti	s2,s6,8
    2914:	ac990c7f          	sunpkd820	s8,s2
    2918:	41828bff          	add16	s7,t0,s8
    291c:	ac978e7f          	sunpkd820	t3,a5
    2920:	41c2847f          	add16	s0,t0,t3
    2924:	00052e83          	lw	t4,0(a0) # 40000000 <_DATA_LMA_START+0x1fffbc88>
    2928:	8376                	c.mv	t1,t4
    292a:	83f6                	c.mv	t2,t4
    292c:	00450493          	addi	s1,a0,4
    2930:	de8308ff          	wexti	a7,t1,8
    2934:	ac988a7f          	sunpkd820	s4,a7
    2938:	ac9e85ff          	sunpkd820	a1,t4
    293c:	497a167f          	kmada	a2,s4,s7
    2940:	4885967f          	kmada	a2,a1,s0
    2944:	00082683          	lw	a3,0(a6)
    2948:	8e36                	c.mv	t3,a3
    294a:	8eb6                	c.mv	t4,a3
    294c:	00480b13          	addi	s6,a6,4
    2950:	de8e0f7f          	wexti	t5,t3,8
    2954:	ac9f0cff          	sunpkd820	s9,t5
    2958:	ac968aff          	sunpkd820	s5,a3
    295c:	497c977f          	kmada	a4,s9,s7
    2960:	488a977f          	kmada	a4,s5,s0
    2964:	000fa903          	lw	s2,0(t6)
    2968:	8f4a                	c.mv	t5,s2
    296a:	8fca                	c.mv	t6,s2
    296c:	0da1                	c.addi	s11,8
    296e:	de8f07ff          	wexti	a5,t5,8
    2972:	ac978fff          	sunpkd820	t6,a5
    2976:	41f28c7f          	add16	s8,t0,t6
    297a:	ac990bff          	sunpkd820	s7,s2
    297e:	417288ff          	add16	a7,t0,s7
    2982:	4080                	c.lw	s0,0(s1)
    2984:	8a22                	c.mv	s4,s0
    2986:	8aa2                	c.mv	s5,s0
    2988:	0521                	c.addi	a0,8
    298a:	de8a04ff          	wexti	s1,s4,8
    298e:	ac948a7f          	sunpkd820	s4,s1
    2992:	ac9405ff          	sunpkd820	a1,s0
    2996:	498a167f          	kmada	a2,s4,s8
    299a:	4915967f          	kmada	a2,a1,a7
    299e:	000b2683          	lw	a3,0(s6)
    29a2:	8436                	c.mv	s0,a3
    29a4:	84b6                	c.mv	s1,a3
    29a6:	0821                	c.addi	a6,8
    29a8:	de840b7f          	wexti	s6,s0,8
    29ac:	ac9b0f7f          	sunpkd820	t5,s6
    29b0:	ac968cff          	sunpkd820	s9,a3
    29b4:	498f177f          	kmada	a4,t5,s8
    29b8:	491c977f          	kmada	a4,s9,a7
    29bc:	19f9                	c.addi	s3,-2
    29be:	f40993e3          	bnez	s3,2904 <riscv_nn_vec_mat_mult_t_s8+0xacc>
    29c2:	4906                	c.lwsp	s2,64(sp)
    29c4:	5c26                	c.lwsp	s8,104(sp)
    29c6:	57c6                	c.lwsp	a5,112(sp)
    29c8:	1b412883          	lw	a7,436(sp)
    29cc:	c81a                	c.swsp	t1,16(sp)
    29ce:	ca1e                	c.swsp	t2,20(sp)
    29d0:	4522                	c.lwsp	a0,8(sp)
    29d2:	469a                	c.lwsp	a3,132(sp)
    29d4:	00a88833          	add	a6,a7,a0
    29d8:	5df6                	c.lwsp	s11,124(sp)
    29da:	0f1ddf63          	bge	s11,a7,2ad8 <riscv_nn_vec_mat_mult_t_s8+0xca0>
    29de:	432a                	c.lwsp	t1,136(sp)
    29e0:	00337393          	andi	t2,t1,3
    29e4:	00668ab3          	add	s5,a3,t1
    29e8:	06038a63          	beqz	t2,2a5c <riscv_nn_vec_mat_mult_t_s8+0xc24>
    29ec:	4985                	c.li	s3,1
    29ee:	05338563          	beq	t2,s3,2a38 <riscv_nn_vec_mat_mult_t_s8+0xc00>
    29f2:	4f89                	c.li	t6,2
    29f4:	03f38263          	beq	t2,t6,2a18 <riscv_nn_vec_mat_mult_t_s8+0xbe0>
    29f8:	00068b83          	lb	s7,0(a3)
    29fc:	00050403          	lb	s0,0(a0)
    2a00:	00080483          	lb	s1,0(a6)
    2a04:	00fb8a33          	add	s4,s7,a5
    2a08:	c544167f          	maddr32	a2,s0,s4
    2a0c:	c544977f          	maddr32	a4,s1,s4
    2a10:	0685                	c.addi	a3,1
    2a12:	0505                	c.addi	a0,1
    2a14:	00180813          	addi	a6,a6,1
    2a18:	00068583          	lb	a1,0(a3)
    2a1c:	00050b03          	lb	s6,0(a0)
    2a20:	00080f03          	lb	t5,0(a6)
    2a24:	00f58cb3          	add	s9,a1,a5
    2a28:	c59b167f          	maddr32	a2,s6,s9
    2a2c:	c59f177f          	maddr32	a4,t5,s9
    2a30:	0685                	c.addi	a3,1
    2a32:	0505                	c.addi	a0,1
    2a34:	00180813          	addi	a6,a6,1
    2a38:	00068303          	lb	t1,0(a3)
    2a3c:	00050d83          	lb	s11,0(a0)
    2a40:	00080383          	lb	t2,0(a6)
    2a44:	00f309b3          	add	s3,t1,a5
    2a48:	0685                	c.addi	a3,1
    2a4a:	c53d967f          	maddr32	a2,s11,s3
    2a4e:	c533977f          	maddr32	a4,t2,s3
    2a52:	0505                	c.addi	a0,1
    2a54:	00180813          	addi	a6,a6,1
    2a58:	09568063          	beq	a3,s5,2ad8 <riscv_nn_vec_mat_mult_t_s8+0xca0>
    2a5c:	4442                	c.lwsp	s0,16(sp)
    2a5e:	44d2                	c.lwsp	s1,20(sp)
    2a60:	c0f2                	c.swsp	t3,64(sp)
    2a62:	c2f6                	c.swsp	t4,68(sp)
    2a64:	00068e03          	lb	t3,0(a3)
    2a68:	00050e83          	lb	t4,0(a0)
    2a6c:	00080f83          	lb	t6,0(a6)
    2a70:	00fe0a33          	add	s4,t3,a5
    2a74:	00168b83          	lb	s7,1(a3)
    2a78:	00150b03          	lb	s6,1(a0)
    2a7c:	00180f03          	lb	t5,1(a6)
    2a80:	c54e967f          	maddr32	a2,t4,s4
    2a84:	c54f977f          	maddr32	a4,t6,s4
    2a88:	00268c83          	lb	s9,2(a3)
    2a8c:	00fb85b3          	add	a1,s7,a5
    2a90:	00250303          	lb	t1,2(a0)
    2a94:	00280d83          	lb	s11,2(a6)
    2a98:	c4bb167f          	maddr32	a2,s6,a1
    2a9c:	c4bf177f          	maddr32	a4,t5,a1
    2aa0:	00368383          	lb	t2,3(a3)
    2aa4:	00fc89b3          	add	s3,s9,a5
    2aa8:	00350e03          	lb	t3,3(a0)
    2aac:	00380e83          	lb	t4,3(a6)
    2ab0:	c533167f          	maddr32	a2,t1,s3
    2ab4:	c53d977f          	maddr32	a4,s11,s3
    2ab8:	00f38fb3          	add	t6,t2,a5
    2abc:	0691                	c.addi	a3,4
    2abe:	c5fe167f          	maddr32	a2,t3,t6
    2ac2:	c5fe977f          	maddr32	a4,t4,t6
    2ac6:	0511                	c.addi	a0,4
    2ac8:	0811                	c.addi	a6,4
    2aca:	f9569de3          	bne	a3,s5,2a64 <riscv_nn_vec_mat_mult_t_s8+0xc2c>
    2ace:	4e06                	c.lwsp	t3,64(sp)
    2ad0:	4e96                	c.lwsp	t4,68(sp)
    2ad2:	c822                	c.swsp	s0,16(sp)
    2ad4:	00912a23          	sw	s1,20(sp)
    2ad8:	5512                	c.lwsp	a0,36(sp)
    2ada:	4812                	c.lwsp	a6,4(sp)
    2adc:	00a61633          	sll	a2,a2,a0
    2ae0:	4581                	c.li	a1,0
    2ae2:	40000537          	lui	a0,0x40000
    2ae6:	8506157f          	smar64	a0,a2,a6
    2aea:	54e6                	c.lwsp	s1,120(sp)
    2aec:	56a2                	c.lwsp	a3,40(sp)
    2aee:	dff50aff          	wexti	s5,a0,31
    2af2:	5a02                	c.lwsp	s4,32(sp)
    2af4:	0154f433          	and	s0,s1,s5
    2af8:	40dadbb3          	sra	s7,s5,a3
    2afc:	000ac463          	bltz	s5,2b04 <riscv_nn_vec_mat_mult_t_s8+0xccc>
    2b00:	04812a03          	lw	s4,72(sp)
    2b04:	5b12                	c.lwsp	s6,36(sp)
    2b06:	4f12                	c.lwsp	t5,4(sp)
    2b08:	01671733          	sll	a4,a4,s6
    2b0c:	40000637          	lui	a2,0x40000
    2b10:	4681                	c.li	a3,0
    2b12:	85e7167f          	smar64	a2,a4,t5
    2b16:	5de6                	c.lwsp	s11,120(sp)
    2b18:	59a2                	c.lwsp	s3,40(sp)
    2b1a:	dff6037f          	wexti	t1,a2,31
    2b1e:	008a2cb3          	slt	s9,s4,s0
    2b22:	5502                	c.lwsp	a0,32(sp)
    2b24:	019b85b3          	add	a1,s7,s9
    2b28:	006df3b3          	and	t2,s11,t1
    2b2c:	41335fb3          	sra	t6,t1,s3
    2b30:	00034463          	bltz	t1,2b38 <riscv_nn_vec_mat_mult_t_s8+0xd00>
    2b34:	04812503          	lw	a0,72(sp)
    2b38:	4ae2                	c.lwsp	s5,24(sp)
    2b3a:	1bc12683          	lw	a3,444(sp)
    2b3e:	00ba84b3          	add	s1,s5,a1
    2b42:	1c012b03          	lw	s6,448(sp)
    2b46:	00752633          	slt	a2,a0,t2
    2b4a:	1c412f03          	lw	t5,452(sp)
    2b4e:	f2968bff          	maxw	s7,a3,s1
    2b52:	00cf8833          	add	a6,t6,a2
    2b56:	f17b077f          	minw	a4,s6,s7
    2b5a:	01e90cb3          	add	s9,s2,t5
    2b5e:	4da2                	c.lwsp	s11,8(sp)
    2b60:	00e90023          	sb	a4,0(s2)
    2b64:	43f2                	c.lwsp	t2,28(sp)
    2b66:	1c012903          	lw	s2,448(sp)
    2b6a:	010a8433          	add	s0,s5,a6
    2b6e:	f2868a7f          	maxw	s4,a3,s0
    2b72:	f14905ff          	minw	a1,s2,s4
    2b76:	1c412303          	lw	t1,452(sp)
    2b7a:	007d89b3          	add	s3,s11,t2
    2b7e:	4fb2                	c.lwsp	t6,12(sp)
    2b80:	0c05                	c.addi	s8,1
    2b82:	00bc8023          	sb	a1,0(s9)
    2b86:	c44e                	c.swsp	s3,8(sp)
    2b88:	006c8933          	add	s2,s9,t1
    2b8c:	03fc5463          	bge	s8,t6,2bb4 <riscv_nn_vec_mat_mult_t_s8+0xd7c>
    2b90:	03012503          	lw	a0,48(sp)
    2b94:	cc0d16e3          	bnez	s10,2860 <riscv_nn_vec_mat_mult_t_s8+0xa28>
    2b98:	46f2                	c.lwsp	a3,28(sp)
    2b9a:	4f0a                	c.lwsp	t5,128(sp)
    2b9c:	00d50db3          	add	s11,a0,a3
    2ba0:	d86e                	c.swsp	s11,48(sp)
    2ba2:	4701                	c.li	a4,0
    2ba4:	00000613          	li	a2,0
    2ba8:	01150833          	add	a6,a0,a7
    2bac:	cc0f18e3          	bnez	t5,287c <riscv_nn_vec_mat_mult_t_s8+0xa44>
    2bb0:	56e2                	c.lwsp	a3,56(sp)
    2bb2:	b51d                	c.j	29d8 <riscv_nn_vec_mat_mult_t_s8+0xba0>
    2bb4:	4eba                	c.lwsp	t4,140(sp)
    2bb6:	4c4a                	c.lwsp	s8,144(sp)
    2bb8:	86ea                	c.mv	a3,s10
    2bba:	4d5a                	c.lwsp	s10,148(sp)
    2bbc:	5de2                	c.lwsp	s11,56(sp)
    2bbe:	1c812903          	lw	s2,456(sp)
    2bc2:	c5fe9d7f          	maddr32	s10,t4,t6
    2bc6:	c5f39c7f          	maddr32	s8,t2,t6
    2bca:	cb6a                	c.swsp	s10,148(sp)
    2bcc:	1b812503          	lw	a0,440(sp)
    2bd0:	00157613          	andi	a2,a0,1
    2bd4:	bc0600e3          	beqz	a2,2794 <riscv_nn_vec_mat_mult_t_s8+0x95c>
    2bd8:	00068463          	beqz	a3,2be0 <riscv_nn_vec_mat_mult_t_s8+0xda8>
    2bdc:	0006a903          	lw	s2,0(a3)
    2be0:	1b412803          	lw	a6,436(sp)
    2be4:	4601                	c.li	a2,0
    2be6:	40285a93          	srai	s5,a6,0x2
    2bea:	220a8363          	beqz	s5,2e10 <riscv_nn_vec_mat_mult_t_s8+0xfd8>
    2bee:	003af493          	andi	s1,s5,3
    2bf2:	8662                	c.mv	a2,s8
    2bf4:	85ee                	c.mv	a1,s11
    2bf6:	8356                	c.mv	t1,s5
    2bf8:	fffa8b93          	addi	s7,s5,-1
    2bfc:	cce5                	c.beqz	s1,2cf4 <riscv_nn_vec_mat_mult_t_s8+0xebc>
    2bfe:	4405                	c.li	s0,1
    2c00:	0a848463          	beq	s1,s0,2ca8 <riscv_nn_vec_mat_mult_t_s8+0xe70>
    2c04:	4689                	c.li	a3,2
    2c06:	04d48f63          	beq	s1,a3,2c64 <riscv_nn_vec_mat_mult_t_s8+0xe2c>
    2c0a:	000daa03          	lw	s4,0(s11)
    2c0e:	17412823          	sw	s4,368(sp)
    2c12:	17412a23          	sw	s4,372(sp)
    2c16:	17012f03          	lw	t5,368(sp)
    2c1a:	17412f83          	lw	t6,372(sp)
    2c1e:	004d8593          	addi	a1,s11,4
    2c22:	de8f0b7f          	wexti	s6,t5,8
    2c26:	ac9b077f          	sunpkd820	a4,s6
    2c2a:	40e28cff          	add16	s9,t0,a4
    2c2e:	ac9a037f          	sunpkd820	t1,s4
    2c32:	406283ff          	add16	t2,t0,t1
    2c36:	000c2983          	lw	s3,0(s8)
    2c3a:	17312c23          	sw	s3,376(sp)
    2c3e:	17312e23          	sw	s3,380(sp)
    2c42:	17812e03          	lw	t3,376(sp)
    2c46:	17c12e83          	lw	t4,380(sp)
    2c4a:	004c0613          	addi	a2,s8,4
    2c4e:	de8e0fff          	wexti	t6,t3,8
    2c52:	ac9f88ff          	sunpkd820	a7,t6
    2c56:	ac998eff          	sunpkd820	t4,s3
    2c5a:	4998997f          	kmada	s2,a7,s9
    2c5e:	487e997f          	kmada	s2,t4,t2
    2c62:	835e                	c.mv	t1,s7
    2c64:	0005ad03          	lw	s10,0(a1)
    2c68:	cdea                	c.swsp	s10,216(sp)
    2c6a:	cfea                	c.swsp	s10,220(sp)
    2c6c:	486e                	c.lwsp	a6,216(sp)
    2c6e:	48fe                	c.lwsp	a7,220(sp)
    2c70:	0591                	c.addi	a1,4
    2c72:	de88057f          	wexti	a0,a6,8
    2c76:	ac9504ff          	sunpkd820	s1,a0
    2c7a:	40928bff          	add16	s7,t0,s1
    2c7e:	ac9d047f          	sunpkd820	s0,s10
    2c82:	40828a7f          	add16	s4,t0,s0
    2c86:	4214                	c.lw	a3,0(a2)
    2c88:	d1b6                	c.swsp	a3,224(sp)
    2c8a:	d3b6                	c.swsp	a3,228(sp)
    2c8c:	5f0e                	c.lwsp	t5,224(sp)
    2c8e:	5f9e                	c.lwsp	t6,228(sp)
    2c90:	0611                	c.addi	a2,4
    2c92:	de8f0b7f          	wexti	s6,t5,8
    2c96:	ac9b077f          	sunpkd820	a4,s6
    2c9a:	ac968cff          	sunpkd820	s9,a3
    2c9e:	4977197f          	kmada	s2,a4,s7
    2ca2:	494c997f          	kmada	s2,s9,s4
    2ca6:	137d                	c.addi	t1,-1
    2ca8:	0005a383          	lw	t2,0(a1)
    2cac:	d51e                	c.swsp	t2,168(sp)
    2cae:	d71e                	c.swsp	t2,172(sp)
    2cb0:	5e2a                	c.lwsp	t3,168(sp)
    2cb2:	5eba                	c.lwsp	t4,172(sp)
    2cb4:	0591                	c.addi	a1,4
    2cb6:	de8e09ff          	wexti	s3,t3,8
    2cba:	ac998fff          	sunpkd820	t6,s3
    2cbe:	41f28eff          	add16	t4,t0,t6
    2cc2:	ac9388ff          	sunpkd820	a7,t2
    2cc6:	41128d7f          	add16	s10,t0,a7
    2cca:	00062803          	lw	a6,0(a2) # 40000000 <_DATA_LMA_START+0x1fffbc88>
    2cce:	c1c2                	c.swsp	a6,192(sp)
    2cd0:	c3c2                	c.swsp	a6,196(sp)
    2cd2:	440e                	c.lwsp	s0,192(sp)
    2cd4:	449e                	c.lwsp	s1,196(sp)
    2cd6:	0611                	c.addi	a2,4
    2cd8:	de84057f          	wexti	a0,s0,8
    2cdc:	ac9504ff          	sunpkd820	s1,a0
    2ce0:	ac980bff          	sunpkd820	s7,a6
    2ce4:	49d4997f          	kmada	s2,s1,t4
    2ce8:	49ab997f          	kmada	s2,s7,s10
    2cec:	fff30313          	addi	t1,t1,-1
    2cf0:	10030c63          	beqz	t1,2e08 <riscv_nn_vec_mat_mult_t_s8+0xfd0>
    2cf4:	8cae                	c.mv	s9,a1
    2cf6:	c456                	c.swsp	s5,8(sp)
    2cf8:	c66e                	c.swsp	s11,12(sp)
    2cfa:	c862                	c.swsp	s8,16(sp)
    2cfc:	00f12e23          	sw	a5,28(sp)
    2d00:	000cac03          	lw	s8,0(s9)
    2d04:	8762                	c.mv	a4,s8
    2d06:	87e2                	c.mv	a5,s8
    2d08:	004c8a93          	addi	s5,s9,4
    2d0c:	de8707ff          	wexti	a5,a4,8
    2d10:	ac978dff          	sunpkd820	s11,a5
    2d14:	41b28a7f          	add16	s4,t0,s11
    2d18:	ac9c06ff          	sunpkd820	a3,s8
    2d1c:	40d28f7f          	add16	t5,t0,a3
    2d20:	00062b03          	lw	s6,0(a2)
    2d24:	855a                	c.mv	a0,s6
    2d26:	85da                	c.mv	a1,s6
    2d28:	00460713          	addi	a4,a2,4
    2d2c:	de8503ff          	wexti	t2,a0,8
    2d30:	ac9385ff          	sunpkd820	a1,t2
    2d34:	ac9b0e7f          	sunpkd820	t3,s6
    2d38:	4945997f          	kmada	s2,a1,s4
    2d3c:	49ee197f          	kmada	s2,t3,t5
    2d40:	000aa983          	lw	s3,0(s5)
    2d44:	884e                	c.mv	a6,s3
    2d46:	88ce                	c.mv	a7,s3
    2d48:	008c8f93          	addi	t6,s9,8
    2d4c:	de880eff          	wexti	t4,a6,8
    2d50:	ac9e88ff          	sunpkd820	a7,t4
    2d54:	41128d7f          	add16	s10,t0,a7
    2d58:	ac99887f          	sunpkd820	a6,s3
    2d5c:	4102847f          	add16	s0,t0,a6
    2d60:	4308                	c.lw	a0,0(a4)
    2d62:	8e2a                	c.mv	t3,a0
    2d64:	8eaa                	c.mv	t4,a0
    2d66:	00860493          	addi	s1,a2,8
    2d6a:	de8e0bff          	wexti	s7,t3,8
    2d6e:	ac9b8aff          	sunpkd820	s5,s7
    2d72:	ac950c7f          	sunpkd820	s8,a0
    2d76:	49aa997f          	kmada	s2,s5,s10
    2d7a:	488c197f          	kmada	s2,s8,s0
    2d7e:	000fa783          	lw	a5,0(t6)
    2d82:	8f3e                	c.mv	t5,a5
    2d84:	8fbe                	c.mv	t6,a5
    2d86:	00cc8a13          	addi	s4,s9,12
    2d8a:	de8f0dff          	wexti	s11,t5,8
    2d8e:	ac9d86ff          	sunpkd820	a3,s11
    2d92:	40d28f7f          	add16	t5,t0,a3
    2d96:	ac978b7f          	sunpkd820	s6,a5
    2d9a:	4162877f          	add16	a4,t0,s6
    2d9e:	0004a383          	lw	t2,0(s1)
    2da2:	841e                	c.mv	s0,t2
    2da4:	849e                	c.mv	s1,t2
    2da6:	00c60593          	addi	a1,a2,12
    2daa:	de840e7f          	wexti	t3,s0,8
    2dae:	ac9e09ff          	sunpkd820	s3,t3
    2db2:	ac938fff          	sunpkd820	t6,t2
    2db6:	49e9997f          	kmada	s2,s3,t5
    2dba:	48ef997f          	kmada	s2,t6,a4
    2dbe:	000a2e83          	lw	t4,0(s4)
    2dc2:	8a76                	c.mv	s4,t4
    2dc4:	8af6                	c.mv	s5,t4
    2dc6:	0cc1                	c.addi	s9,16
    2dc8:	de8a08ff          	wexti	a7,s4,8
    2dcc:	ac988d7f          	sunpkd820	s10,a7
    2dd0:	41a2887f          	add16	a6,t0,s10
    2dd4:	ac9e847f          	sunpkd820	s0,t4
    2dd8:	4082857f          	add16	a0,t0,s0
    2ddc:	4184                	c.lw	s1,0(a1)
    2dde:	8b26                	c.mv	s6,s1
    2de0:	8ba6                	c.mv	s7,s1
    2de2:	0641                	c.addi	a2,16
    2de4:	de8b0bff          	wexti	s7,s6,8
    2de8:	ac9b8aff          	sunpkd820	s5,s7
    2dec:	ac948c7f          	sunpkd820	s8,s1
    2df0:	490a997f          	kmada	s2,s5,a6
    2df4:	48ac197f          	kmada	s2,s8,a0
    2df8:	1371                	c.addi	t1,-4
    2dfa:	f00313e3          	bnez	t1,2d00 <riscv_nn_vec_mat_mult_t_s8+0xec8>
    2dfe:	4aa2                	c.lwsp	s5,8(sp)
    2e00:	4db2                	c.lwsp	s11,12(sp)
    2e02:	4c42                	c.lwsp	s8,16(sp)
    2e04:	01c12783          	lw	a5,28(sp)
    2e08:	002a9613          	slli	a2,s5,0x2
    2e0c:	9c32                	c.add	s8,a2
    2e0e:	9db2                	c.add	s11,a2
    2e10:	1b412283          	lw	t0,436(sp)
    2e14:	12565e63          	bge	a2,t0,2f50 <riscv_nn_vec_mat_mult_t_s8+0x1118>
    2e18:	40c28333          	sub	t1,t0,a2
    2e1c:	00737a13          	andi	s4,t1,7
    2e20:	006d8f33          	add	t5,s11,t1
    2e24:	0a0a0263          	beqz	s4,2ec8 <riscv_nn_vec_mat_mult_t_s8+0x1090>
    2e28:	4685                	c.li	a3,1
    2e2a:	08da0363          	beq	s4,a3,2eb0 <riscv_nn_vec_mat_mult_t_s8+0x1078>
    2e2e:	4b09                	c.li	s6,2
    2e30:	076a0663          	beq	s4,s6,2e9c <riscv_nn_vec_mat_mult_t_s8+0x1064>
    2e34:	470d                	c.li	a4,3
    2e36:	04ea0963          	beq	s4,a4,2e88 <riscv_nn_vec_mat_mult_t_s8+0x1050>
    2e3a:	4391                	c.li	t2,4
    2e3c:	027a0c63          	beq	s4,t2,2e74 <riscv_nn_vec_mat_mult_t_s8+0x103c>
    2e40:	4595                	c.li	a1,5
    2e42:	00ba0f63          	beq	s4,a1,2e60 <riscv_nn_vec_mat_mult_t_s8+0x1028>
    2e46:	4e19                	c.li	t3,6
    2e48:	13ca1c63          	bne	s4,t3,2f80 <riscv_nn_vec_mat_mult_t_s8+0x1148>
    2e4c:	000d8c83          	lb	s9,0(s11)
    2e50:	000c0883          	lb	a7,0(s8)
    2e54:	0d85                	c.addi	s11,1
    2e56:	00fc8d33          	add	s10,s9,a5
    2e5a:	c5a8997f          	maddr32	s2,a7,s10
    2e5e:	0c05                	c.addi	s8,1
    2e60:	000d8803          	lb	a6,0(s11)
    2e64:	000c0403          	lb	s0,0(s8)
    2e68:	0d85                	c.addi	s11,1
    2e6a:	00f80533          	add	a0,a6,a5
    2e6e:	c4a4197f          	maddr32	s2,s0,a0
    2e72:	0c05                	c.addi	s8,1
    2e74:	000d8483          	lb	s1,0(s11)
    2e78:	000c0b83          	lb	s7,0(s8)
    2e7c:	0d85                	c.addi	s11,1
    2e7e:	00f48ab3          	add	s5,s1,a5
    2e82:	c55b997f          	maddr32	s2,s7,s5
    2e86:	0c05                	c.addi	s8,1
    2e88:	000d8283          	lb	t0,0(s11)
    2e8c:	000c0603          	lb	a2,0(s8)
    2e90:	0d85                	c.addi	s11,1
    2e92:	00f28333          	add	t1,t0,a5
    2e96:	c466197f          	maddr32	s2,a2,t1
    2e9a:	0c05                	c.addi	s8,1
    2e9c:	000d8a03          	lb	s4,0(s11)
    2ea0:	000c0b03          	lb	s6,0(s8)
    2ea4:	0d85                	c.addi	s11,1
    2ea6:	00fa06b3          	add	a3,s4,a5
    2eaa:	c4db197f          	maddr32	s2,s6,a3
    2eae:	0c05                	c.addi	s8,1
    2eb0:	000d8703          	lb	a4,0(s11)
    2eb4:	000c0383          	lb	t2,0(s8)
    2eb8:	0d85                	c.addi	s11,1
    2eba:	00f705b3          	add	a1,a4,a5
    2ebe:	c4b3997f          	maddr32	s2,t2,a1
    2ec2:	0c05                	c.addi	s8,1
    2ec4:	09ed8663          	beq	s11,t5,2f50 <riscv_nn_vec_mat_mult_t_s8+0x1118>
    2ec8:	000d8e03          	lb	t3,0(s11)
    2ecc:	000c0983          	lb	s3,0(s8)
    2ed0:	001d8f83          	lb	t6,1(s11)
    2ed4:	00fe0eb3          	add	t4,t3,a5
    2ed8:	001c0c83          	lb	s9,1(s8)
    2edc:	c5d9997f          	maddr32	s2,s3,t4
    2ee0:	002d8883          	lb	a7,2(s11)
    2ee4:	00ff8d33          	add	s10,t6,a5
    2ee8:	002c0803          	lb	a6,2(s8)
    2eec:	c5ac997f          	maddr32	s2,s9,s10
    2ef0:	003d8403          	lb	s0,3(s11)
    2ef4:	00f88533          	add	a0,a7,a5
    2ef8:	003c0483          	lb	s1,3(s8)
    2efc:	c4a8197f          	maddr32	s2,a6,a0
    2f00:	004d8b83          	lb	s7,4(s11)
    2f04:	00f40ab3          	add	s5,s0,a5
    2f08:	004c0283          	lb	t0,4(s8)
    2f0c:	c554997f          	maddr32	s2,s1,s5
    2f10:	005d8303          	lb	t1,5(s11)
    2f14:	00fb8633          	add	a2,s7,a5
    2f18:	005c0a03          	lb	s4,5(s8)
    2f1c:	c4c2997f          	maddr32	s2,t0,a2
    2f20:	006d8b03          	lb	s6,6(s11)
    2f24:	00f306b3          	add	a3,t1,a5
    2f28:	006c0703          	lb	a4,6(s8)
    2f2c:	c4da197f          	maddr32	s2,s4,a3
    2f30:	007d8383          	lb	t2,7(s11)
    2f34:	00fb05b3          	add	a1,s6,a5
    2f38:	007c0e03          	lb	t3,7(s8)
    2f3c:	c4b7197f          	maddr32	s2,a4,a1
    2f40:	00f389b3          	add	s3,t2,a5
    2f44:	0da1                	c.addi	s11,8
    2f46:	c53e197f          	maddr32	s2,t3,s3
    2f4a:	0c21                	c.addi	s8,8
    2f4c:	f7ed9ee3          	bne	s11,t5,2ec8 <riscv_nn_vec_mat_mult_t_s8+0x1090>
    2f50:	1b012783          	lw	a5,432(sp)
    2f54:	00000f13          	li	t5,0
    2f58:	f3e78dff          	maxw	s11,a5,t5
    2f5c:	01b91933          	sll	s2,s2,s11
    2f60:	fd4ff06f          	j	2734 <riscv_nn_vec_mat_mult_t_s8+0x8fc>
    2f64:	000d8483          	lb	s1,0(s11)
    2f68:	000c0b83          	lb	s7,0(s8)
    2f6c:	0d85                	c.addi	s11,1
    2f6e:	00f48fb3          	add	t6,s1,a5
    2f72:	012b8eb3          	add	t4,s7,s2
    2f76:	c5fe977f          	maddr32	a4,t4,t6
    2f7a:	0c05                	c.addi	s8,1
    2f7c:	e6cff06f          	j	25e8 <riscv_nn_vec_mat_mult_t_s8+0x7b0>
    2f80:	000d8983          	lb	s3,0(s11)
    2f84:	000c0f83          	lb	t6,0(s8)
    2f88:	0d85                	c.addi	s11,1
    2f8a:	00f98eb3          	add	t4,s3,a5
    2f8e:	c5df997f          	maddr32	s2,t6,t4
    2f92:	0c05                	c.addi	s8,1
    2f94:	bd65                	c.j	2e4c <riscv_nn_vec_mat_mult_t_s8+0x1014>
	...

00002f98 <riscv_nn_vec_mat_mult_t_s16>:
    2f98:	7135                	c.addi16sp	sp,-160
    2f9a:	dee2                	c.swsp	s8,124(sp)
    2f9c:	8c46                	c.mv	s8,a7
    2f9e:	01f8d893          	srli	a7,a7,0x1f
    2fa2:	82c2                	c.mv	t0,a6
    2fa4:	98e2                	c.add	a7,s8
    2fa6:	dce6                	c.swsp	s9,120(sp)
    2fa8:	8cbe                	c.mv	s9,a5
    2faa:	20000793          	li	a5,512
    2fae:	c35a                	c.swsp	s6,132(sp)
    2fb0:	d22a                	c.swsp	a0,36(sp)
    2fb2:	8b2a                	c.mv	s6,a0
    2fb4:	f0f2857f          	minw	a0,t0,a5
    2fb8:	4018d793          	srai	a5,a7,0x1
    2fbc:	d042                	c.swsp	a6,32(sp)
    2fbe:	cf22                	c.swsp	s0,156(sp)
    2fc0:	4805                	c.li	a6,1
    2fc2:	cd26                	c.swsp	s1,152(sp)
    2fc4:	cb4a                	c.swsp	s2,148(sp)
    2fc6:	c94e                	c.swsp	s3,144(sp)
    2fc8:	c752                	c.swsp	s4,140(sp)
    2fca:	c556                	c.swsp	s5,136(sp)
    2fcc:	c15e                	c.swsp	s7,128(sp)
    2fce:	daea                	c.swsp	s10,116(sp)
    2fd0:	d8ee                	c.swsp	s11,112(sp)
    2fd2:	d43e                	c.swsp	a5,40(sp)
    2fd4:	1f885663          	bge	a6,s8,31c0 <riscv_nn_vec_mat_mult_t_s16+0x228>
    2fd8:	40255d13          	srai	s10,a0,0x2
    2fdc:	47b9                	c.li	a5,14
    2fde:	41978bb3          	sub	s7,a5,s9
    2fe2:	003d1793          	slli	a5,s10,0x3
    2fe6:	ffc57893          	andi	a7,a0,-4
    2fea:	8816                	c.mv	a6,t0
    2fec:	00129d93          	slli	s11,t0,0x1
    2ff0:	97da                	c.add	a5,s6
    2ff2:	41f75293          	srai	t0,a4,0x1f
    2ff6:	c816                	c.swsp	t0,16(sp)
    2ff8:	de3e                	c.swsp	a5,60(sp)
    2ffa:	410882b3          	sub	t0,a7,a6
    2ffe:	411807b3          	sub	a5,a6,a7
    3002:	c46a                	c.swsp	s10,8(sp)
    3004:	d66e                	c.swsp	s11,44(sp)
    3006:	da16                	c.swsp	t0,52(sp)
    3008:	41b88db3          	sub	s11,a7,s11
    300c:	c0be                	c.swsp	a5,64(sp)
    300e:	cce6                	c.swsp	s9,88(sp)
    3010:	47fd                	c.li	a5,31
    3012:	42a2                	c.lwsp	t0,8(sp)
    3014:	4cc2                	c.lwsp	s9,16(sp)
    3016:	417787b3          	sub	a5,a5,s7
    301a:	dc6e                	c.swsp	s11,56(sp)
    301c:	8b36                	c.mv	s6,a3
    301e:	4d81                	c.li	s11,0
    3020:	fe0b8d13          	addi	s10,s7,-32
    3024:	d846                	c.swsp	a7,48(sp)
    3026:	c2de                	c.swsp	s7,68(sp)
    3028:	c4be                	c.swsp	a5,72(sp)
    302a:	c6aa                	c.swsp	a0,76(sp)
    302c:	c22e                	c.swsp	a1,4(sp)
    302e:	c8ae                	c.swsp	a1,80(sp)
    3030:	cab6                	c.swsp	a3,84(sp)
    3032:	cee2                	c.swsp	s8,92(sp)
    3034:	4792                	c.lwsp	a5,4(sp)
    3036:	5682                	c.lwsp	a3,32(sp)
    3038:	55b2                	c.lwsp	a1,44(sp)
    303a:	00d78533          	add	a0,a5,a3
    303e:	00b786b3          	add	a3,a5,a1
    3042:	c236                	c.swsp	a3,4(sp)
    3044:	2a028863          	beqz	t0,32f4 <riscv_nn_vec_mat_mult_t_s16+0x35c>
    3048:	5c12                	c.lwsp	s8,36(sp)
    304a:	ca7e                	c.swsp	t6,20(sp)
    304c:	ce26                	c.swsp	s1,28(sp)
    304e:	8fe6                	c.mv	t6,s9
    3050:	84ea                	c.mv	s1,s10
    3052:	8b96                	c.mv	s7,t0
    3054:	8d3a                	c.mv	s10,a4
    3056:	4881                	c.li	a7,0
    3058:	872a                	c.mv	a4,a0
    305a:	4681                	c.li	a3,0
    305c:	8cb2                	c.mv	s9,a2
    305e:	853e                	c.mv	a0,a5
    3060:	c44a                	c.swsp	s2,8(sp)
    3062:	c64e                	c.swsp	s3,12(sp)
    3064:	c87a                	c.swsp	t5,16(sp)
    3066:	cc22                	c.swsp	s0,24(sp)
    3068:	000c2603          	lw	a2,0(s8)
    306c:	004c0793          	addi	a5,s8,4
    3070:	439c                	c.lw	a5,0(a5)
    3072:	0c21                	c.addi	s8,8
    3074:	00052803          	lw	a6,0(a0) # 40000000 <_DATA_LMA_START+0x1fffbc88>
    3078:	8342                	c.mv	t1,a6
    307a:	83c2                	c.mv	t2,a6
    307c:	0511                	c.addi	a0,4
    307e:	de8305ff          	wexti	a1,t1,8
    3082:	ac9585ff          	sunpkd820	a1,a1
    3086:	ac98087f          	sunpkd820	a6,a6
    308a:	2f0599ff          	pktt16	s3,a1,a6
    308e:	0f0595ff          	pkbb16	a1,a1,a6
    3092:	48c596ff          	kmada	a3,a1,a2
    3096:	48f996ff          	kmada	a3,s3,a5
    309a:	00072803          	lw	a6,0(a4) # 40000000 <_DATA_LMA_START+0x1fffbc88>
    309e:	8e42                	c.mv	t3,a6
    30a0:	8ec2                	c.mv	t4,a6
    30a2:	0711                	c.addi	a4,4
    30a4:	de8e05ff          	wexti	a1,t3,8
    30a8:	ac9585ff          	sunpkd820	a1,a1
    30ac:	ac98087f          	sunpkd820	a6,a6
    30b0:	2f0599ff          	pktt16	s3,a1,a6
    30b4:	0f0595ff          	pkbb16	a1,a1,a6
    30b8:	48c598ff          	kmada	a7,a1,a2
    30bc:	48f998ff          	kmada	a7,s3,a5
    30c0:	1bfd                	c.addi	s7,-1
    30c2:	fa0b93e3          	bnez	s7,3068 <riscv_nn_vec_mat_mult_t_s16+0xd0>
    30c6:	4792                	c.lwsp	a5,4(sp)
    30c8:	55d2                	c.lwsp	a1,52(sp)
    30ca:	8666                	c.mv	a2,s9
    30cc:	00b78533          	add	a0,a5,a1
    30d0:	55e2                	c.lwsp	a1,56(sp)
    30d2:	876a                	c.mv	a4,s10
    30d4:	8cfe                	c.mv	s9,t6
    30d6:	8d26                	c.mv	s10,s1
    30d8:	8a46                	c.mv	s4,a7
    30da:	41f8da93          	srai	s5,a7,0x1f
    30de:	4f42                	c.lwsp	t5,16(sp)
    30e0:	4fd2                	c.lwsp	t6,20(sp)
    30e2:	4462                	c.lwsp	s0,24(sp)
    30e4:	44f2                	c.lwsp	s1,28(sp)
    30e6:	58f2                	c.lwsp	a7,60(sp)
    30e8:	8936                	c.mv	s2,a3
    30ea:	97ae                	c.add	a5,a1
    30ec:	41f6d993          	srai	s3,a3,0x1f
    30f0:	5682                	c.lwsp	a3,32(sp)
    30f2:	55c2                	c.lwsp	a1,48(sp)
    30f4:	02d5de63          	bge	a1,a3,3130 <riscv_nn_vec_mat_mult_t_s16+0x198>
    30f8:	4686                	c.lwsp	a3,64(sp)
    30fa:	96be                	c.add	a3,a5
    30fc:	00089b83          	lh	s7,0(a7)
    3100:	00078803          	lb	a6,0(a5)
    3104:	00050583          	lb	a1,0(a0)
    3108:	0785                	c.addi	a5,1
    310a:	03780833          	mul	a6,a6,s7
    310e:	037585b3          	mul	a1,a1,s7
    3112:	0889                	c.addi	a7,2
    3114:	8f42                	c.mv	t5,a6
    3116:	842e                	c.mv	s0,a1
    3118:	41f85f93          	srai	t6,a6,0x1f
    311c:	41f5d493          	srai	s1,a1,0x1f
    3120:	c1e9197f          	add64	s2,s2,t5
    3124:	c08a1a7f          	add64	s4,s4,s0
    3128:	00150513          	addi	a0,a0,1
    312c:	fcd798e3          	bne	a5,a3,30fc <riscv_nn_vec_mat_mult_t_s16+0x164>
    3130:	ce01                	c.beqz	a2,3148 <riscv_nn_vec_mat_mult_t_s16+0x1b0>
    3132:	00062803          	lw	a6,0(a2)
    3136:	00462883          	lw	a7,4(a2)
    313a:	4608                	c.lw	a0,8(a2)
    313c:	464c                	c.lw	a1,12(a2)
    313e:	c109197f          	add64	s2,s2,a6
    3142:	0641                	c.addi	a2,16
    3144:	c0aa1a7f          	add64	s4,s4,a0
    3148:	032c87b3          	mul	a5,s9,s2
    314c:	f0e9157f          	mulr64	a0,s2,a4
    3150:	c53717ff          	maddr32	a5,a4,s3
    3154:	00f585b3          	add	a1,a1,a5
    3158:	180d4463          	bltz	s10,32e0 <riscv_nn_vec_mat_mult_t_s16+0x348>
    315c:	41a5d533          	sra	a0,a1,s10
    3160:	578a                	c.lwsp	a5,160(sp)
    3162:	0505                	c.addi	a0,1
    3164:	034c8833          	mul	a6,s9,s4
    3168:	8505                	c.srai	a0,0x1
    316a:	f2f5057f          	maxw	a0,a0,a5
    316e:	579a                	c.lwsp	a5,164(sp)
    3170:	c557187f          	maddr32	a6,a4,s5
    3174:	f0a787ff          	minw	a5,a5,a0
    3178:	00fb1023          	sh	a5,0(s6)
    317c:	f0ea157f          	mulr64	a0,s4,a4
    3180:	010585b3          	add	a1,a1,a6
    3184:	140d4463          	bltz	s10,32cc <riscv_nn_vec_mat_mult_t_s16+0x334>
    3188:	41a5d533          	sra	a0,a1,s10
    318c:	568a                	c.lwsp	a3,160(sp)
    318e:	00150793          	addi	a5,a0,1
    3192:	8785                	c.srai	a5,0x1
    3194:	f2d787ff          	maxw	a5,a5,a3
    3198:	569a                	c.lwsp	a3,164(sp)
    319a:	0b11                	c.addi	s6,4
    319c:	f0f687ff          	minw	a5,a3,a5
    31a0:	fefb1f23          	sh	a5,-2(s6)
    31a4:	57a2                	c.lwsp	a5,40(sp)
    31a6:	0d85                	c.addi	s11,1
    31a8:	e8fdc6e3          	blt	s11,a5,3034 <riscv_nn_vec_mat_mult_t_s16+0x9c>
    31ac:	45c6                	c.lwsp	a1,80(sp)
    31ae:	5432                	c.lwsp	s0,44(sp)
    31b0:	46d6                	c.lwsp	a3,84(sp)
    31b2:	4536                	c.lwsp	a0,76(sp)
    31b4:	c4f415ff          	maddr32	a1,s0,a5
    31b8:	4ce6                	c.lwsp	s9,88(sp)
    31ba:	078a                	c.slli	a5,0x2
    31bc:	4c76                	c.lwsp	s8,92(sp)
    31be:	96be                	c.add	a3,a5
    31c0:	001c7c13          	andi	s8,s8,1
    31c4:	0e0c0463          	beqz	s8,32ac <riscv_nn_vec_mat_mult_t_s16+0x314>
    31c8:	8509                	c.srai	a0,0x2
    31ca:	12050b63          	beqz	a0,3300 <riscv_nn_vec_mat_mult_t_s16+0x368>
    31ce:	5812                	c.lwsp	a6,36(sp)
    31d0:	8e2a                	c.mv	t3,a0
    31d2:	88ae                	c.mv	a7,a1
    31d4:	00000313          	li	t1,0
    31d8:	0008ae83          	lw	t4,0(a7)
    31dc:	8f76                	c.mv	t5,t4
    31de:	8ff6                	c.mv	t6,t4
    31e0:	0891                	c.addi	a7,4
    31e2:	de8f07ff          	wexti	a5,t5,8
    31e6:	ac9787ff          	sunpkd820	a5,a5
    31ea:	ac9e8eff          	sunpkd820	t4,t4
    31ee:	2fd792ff          	pktt16	t0,a5,t4
    31f2:	0fd797ff          	pkbb16	a5,a5,t4
    31f6:	00082e83          	lw	t4,0(a6)
    31fa:	49d7937f          	kmada	t1,a5,t4
    31fe:	00480793          	addi	a5,a6,4
    3202:	439c                	c.lw	a5,0(a5)
    3204:	0821                	c.addi	a6,8
    3206:	48f2937f          	kmada	t1,t0,a5
    320a:	1e7d                	c.addi	t3,-1
    320c:	fc0e16e3          	bnez	t3,31d8 <riscv_nn_vec_mat_mult_t_s16+0x240>
    3210:	5412                	c.lwsp	s0,36(sp)
    3212:	00351793          	slli	a5,a0,0x3
    3216:	050a                	c.slli	a0,0x2
    3218:	97a2                	c.add	a5,s0
    321a:	881a                	c.mv	a6,t1
    321c:	95aa                	c.add	a1,a0
    321e:	41f35893          	srai	a7,t1,0x1f
    3222:	d23e                	c.swsp	a5,36(sp)
    3224:	5782                	c.lwsp	a5,32(sp)
    3226:	02f55563          	bge	a0,a5,3250 <riscv_nn_vec_mat_mult_t_s16+0x2b8>
    322a:	8f89                	c.sub	a5,a0
    322c:	5312                	c.lwsp	t1,36(sp)
    322e:	97ae                	c.add	a5,a1
    3230:	00031f03          	lh	t5,0(t1)
    3234:	00058503          	lb	a0,0(a1)
    3238:	0585                	c.addi	a1,1
    323a:	0309                	c.addi	t1,2
    323c:	03e50533          	mul	a0,a0,t5
    3240:	00a00e33          	add	t3,zero,a0
    3244:	41f55e93          	srai	t4,a0,0x1f
    3248:	c1c8187f          	add64	a6,a6,t3
    324c:	fef592e3          	bne	a1,a5,3230 <riscv_nn_vec_mat_mult_t_s16+0x298>
    3250:	c611                	c.beqz	a2,325c <riscv_nn_vec_mat_mult_t_s16+0x2c4>
    3252:	4208                	c.lw	a0,0(a2)
    3254:	00462583          	lw	a1,4(a2)
    3258:	c0a8187f          	add64	a6,a6,a0
    325c:	02e885b3          	mul	a1,a7,a4
    3260:	41f75793          	srai	a5,a4,0x1f
    3264:	4639                	c.li	a2,14
    3266:	c50795ff          	maddr32	a1,a5,a6
    326a:	f107147f          	mulr64	s0,a4,a6
    326e:	41960633          	sub	a2,a2,s9
    3272:	fe060513          	addi	a0,a2,-32
    3276:	94ae                	c.add	s1,a1
    3278:	40a4d733          	sra	a4,s1,a0
    327c:	00055c63          	bgez	a0,3294 <riscv_nn_vec_mat_mult_t_s16+0x2fc>
    3280:	45fd                	c.li	a1,31
    3282:	00149793          	slli	a5,s1,0x1
    3286:	8d91                	c.sub	a1,a2
    3288:	00b797b3          	sll	a5,a5,a1
    328c:	00c45733          	srl	a4,s0,a2
    3290:	00f76733          	or	a4,a4,a5
    3294:	00170793          	addi	a5,a4,1
    3298:	570a                	c.lwsp	a4,160(sp)
    329a:	8785                	c.srai	a5,0x1
    329c:	f2e787ff          	maxw	a5,a5,a4
    32a0:	0a412703          	lw	a4,164(sp)
    32a4:	f0e787ff          	minw	a5,a5,a4
    32a8:	00f69023          	sh	a5,0(a3)
    32ac:	447a                	c.lwsp	s0,156(sp)
    32ae:	44ea                	c.lwsp	s1,152(sp)
    32b0:	495a                	c.lwsp	s2,148(sp)
    32b2:	49ca                	c.lwsp	s3,144(sp)
    32b4:	4a3a                	c.lwsp	s4,140(sp)
    32b6:	4aaa                	c.lwsp	s5,136(sp)
    32b8:	4b1a                	c.lwsp	s6,132(sp)
    32ba:	4b8a                	c.lwsp	s7,128(sp)
    32bc:	5c76                	c.lwsp	s8,124(sp)
    32be:	5ce6                	c.lwsp	s9,120(sp)
    32c0:	5d56                	c.lwsp	s10,116(sp)
    32c2:	5dc6                	c.lwsp	s11,112(sp)
    32c4:	4501                	c.li	a0,0
    32c6:	610d                	c.addi16sp	sp,160
    32c8:	00008067          	ret
    32cc:	46a6                	c.lwsp	a3,72(sp)
    32ce:	00159793          	slli	a5,a1,0x1
    32d2:	00d797b3          	sll	a5,a5,a3
    32d6:	4696                	c.lwsp	a3,68(sp)
    32d8:	00d55533          	srl	a0,a0,a3
    32dc:	8d5d                	c.or	a0,a5
    32de:	b57d                	c.j	318c <riscv_nn_vec_mat_mult_t_s16+0x1f4>
    32e0:	46a6                	c.lwsp	a3,72(sp)
    32e2:	00159793          	slli	a5,a1,0x1
    32e6:	00d797b3          	sll	a5,a5,a3
    32ea:	4696                	c.lwsp	a3,68(sp)
    32ec:	00d55533          	srl	a0,a0,a3
    32f0:	8d5d                	c.or	a0,a5
    32f2:	b5bd                	c.j	3160 <riscv_nn_vec_mat_mult_t_s16+0x1c8>
    32f4:	5892                	c.lwsp	a7,36(sp)
    32f6:	4a01                	c.li	s4,0
    32f8:	4a81                	c.li	s5,0
    32fa:	4901                	c.li	s2,0
    32fc:	4981                	c.li	s3,0
    32fe:	bbcd                	c.j	30f0 <riscv_nn_vec_mat_mult_t_s16+0x158>
    3300:	4801                	c.li	a6,0
    3302:	4881                	c.li	a7,0
    3304:	4501                	c.li	a0,0
    3306:	bf39                	c.j	3224 <riscv_nn_vec_mat_mult_t_s16+0x28c>

00003308 <malloc>:
    3308:	5f9002ef          	jal	t0,4100 <__riscv_save_0>
    330c:	85aa                	c.mv	a1,a0
    330e:	fb3fa52b          	lwgp	a0,-80 # 807b0 <_impure_ptr>
    3312:	2a81                	c.jal	3462 <_malloc_r>
    3314:	6110006f          	j	4124 <__riscv_restore_0>

00003318 <free>:
    3318:	5e9002ef          	jal	t0,4100 <__riscv_save_0>
    331c:	85aa                	c.mv	a1,a0
    331e:	fb3fa52b          	lwgp	a0,-80 # 807b0 <_impure_ptr>
    3322:	2845                	c.jal	33d2 <_free_r>
    3324:	6010006f          	j	4124 <__riscv_restore_0>

00003328 <memset>:
    3328:	433d                	c.li	t1,15
    332a:	872a                	c.mv	a4,a0
    332c:	02c37363          	bgeu	t1,a2,3352 <memset+0x2a>
    3330:	00f77793          	andi	a5,a4,15
    3334:	e3c1                	c.bnez	a5,33b4 <memset+0x8c>
    3336:	e5b5                	c.bnez	a1,33a2 <memset+0x7a>
    3338:	ff067693          	andi	a3,a2,-16
    333c:	8a3d                	c.andi	a2,15
    333e:	96ba                	c.add	a3,a4
    3340:	c30c                	c.sw	a1,0(a4)
    3342:	c34c                	c.sw	a1,4(a4)
    3344:	c70c                	c.sw	a1,8(a4)
    3346:	c74c                	c.sw	a1,12(a4)
    3348:	0741                	c.addi	a4,16
    334a:	fed76be3          	bltu	a4,a3,3340 <memset+0x18>
    334e:	e211                	c.bnez	a2,3352 <memset+0x2a>
    3350:	8082                	c.jr	ra
    3352:	40c306b3          	sub	a3,t1,a2
    3356:	068a                	c.slli	a3,0x2
    3358:	00000297          	auipc	t0,0x0
    335c:	005686b3          	add	a3,a3,t0
    3360:	00c68067          	jr	12(a3)
    3364:	00b70723          	sb	a1,14(a4)
    3368:	00b706a3          	sb	a1,13(a4)
    336c:	00b70623          	sb	a1,12(a4)
    3370:	00b705a3          	sb	a1,11(a4)
    3374:	00b70523          	sb	a1,10(a4)
    3378:	00b704a3          	sb	a1,9(a4)
    337c:	00b70423          	sb	a1,8(a4)
    3380:	00b703a3          	sb	a1,7(a4)
    3384:	00b70323          	sb	a1,6(a4)
    3388:	00b702a3          	sb	a1,5(a4)
    338c:	00b70223          	sb	a1,4(a4)
    3390:	00b701a3          	sb	a1,3(a4)
    3394:	00b70123          	sb	a1,2(a4)
    3398:	00b700a3          	sb	a1,1(a4)
    339c:	00b70023          	sb	a1,0(a4)
    33a0:	8082                	c.jr	ra
    33a2:	0ff5f593          	andi	a1,a1,255
    33a6:	00859693          	slli	a3,a1,0x8
    33aa:	8dd5                	c.or	a1,a3
    33ac:	01059693          	slli	a3,a1,0x10
    33b0:	8dd5                	c.or	a1,a3
    33b2:	b759                	c.j	3338 <memset+0x10>
    33b4:	00279693          	slli	a3,a5,0x2
    33b8:	00000297          	auipc	t0,0x0
    33bc:	9696                	c.add	a3,t0
    33be:	8286                	c.mv	t0,ra
    33c0:	fa8680e7          	jalr	-88(a3)
    33c4:	8096                	c.mv	ra,t0
    33c6:	17c1                	c.addi	a5,-16
    33c8:	8f1d                	c.sub	a4,a5
    33ca:	963e                	c.add	a2,a5
    33cc:	f8c373e3          	bgeu	t1,a2,3352 <memset+0x2a>
    33d0:	b79d                	c.j	3336 <memset+0xe>

000033d2 <_free_r>:
    33d2:	c5b5                	c.beqz	a1,343e <_free_r+0x6c>
    33d4:	ffc5a703          	lw	a4,-4(a1)
    33d8:	ffc58793          	addi	a5,a1,-4
    33dc:	00075363          	bgez	a4,33e2 <_free_r+0x10>
    33e0:	97ba                	c.add	a5,a4
    33e2:	fd7fa72b          	lwgp	a4,-44 # 807d4 <__malloc_free_list>
    33e6:	85b6                	c.mv	a1,a3
    33e8:	e711                	c.bnez	a4,33f4 <_free_r+0x22>
    33ea:	0007a223          	sw	zero,4(a5)
    33ee:	fcffcbab          	swgp	a5,-44 # 807d4 <__malloc_free_list>
    33f2:	8082                	c.jr	ra
    33f4:	02e7f063          	bgeu	a5,a4,3414 <_free_r+0x42>
    33f8:	4390                	c.lw	a2,0(a5)
    33fa:	00c786b3          	add	a3,a5,a2
    33fe:	00d71663          	bne	a4,a3,340a <_free_r+0x38>
    3402:	4314                	c.lw	a3,0(a4)
    3404:	4358                	c.lw	a4,4(a4)
    3406:	96b2                	c.add	a3,a2
    3408:	c394                	c.sw	a3,0(a5)
    340a:	c3d8                	c.sw	a4,4(a5)
    340c:	fcffcbab          	swgp	a5,-44 # 807d4 <__malloc_free_list>
    3410:	8082                	c.jr	ra
    3412:	8736                	c.mv	a4,a3
    3414:	4354                	c.lw	a3,4(a4)
    3416:	c299                	c.beqz	a3,341c <_free_r+0x4a>
    3418:	fed7fde3          	bgeu	a5,a3,3412 <_free_r+0x40>
    341c:	4310                	c.lw	a2,0(a4)
    341e:	00c705b3          	add	a1,a4,a2
    3422:	00f59f63          	bne	a1,a5,3440 <_free_r+0x6e>
    3426:	439c                	c.lw	a5,0(a5)
    3428:	97b2                	c.add	a5,a2
    342a:	c31c                	c.sw	a5,0(a4)
    342c:	00f70633          	add	a2,a4,a5
    3430:	00c69763          	bne	a3,a2,343e <_free_r+0x6c>
    3434:	4290                	c.lw	a2,0(a3)
    3436:	97b2                	c.add	a5,a2
    3438:	c31c                	c.sw	a5,0(a4)
    343a:	42dc                	c.lw	a5,4(a3)
    343c:	c35c                	c.sw	a5,4(a4)
    343e:	8082                	c.jr	ra
    3440:	00b7f663          	bgeu	a5,a1,344c <_free_r+0x7a>
    3444:	4731                	c.li	a4,12
    3446:	feefc3ab          	swgp	a4,-28 # 807e4 <__mculib_REENT_errno>
    344a:	8082                	c.jr	ra
    344c:	438c                	c.lw	a1,0(a5)
    344e:	00b78633          	add	a2,a5,a1
    3452:	00c69663          	bne	a3,a2,345e <_free_r+0x8c>
    3456:	4290                	c.lw	a2,0(a3)
    3458:	42d4                	c.lw	a3,4(a3)
    345a:	962e                	c.add	a2,a1
    345c:	c390                	c.sw	a2,0(a5)
    345e:	c3d4                	c.sw	a3,4(a5)
    3460:	bff1                	c.j	343c <_free_r+0x6a>

00003462 <_malloc_r>:
    3462:	49f002ef          	jal	t0,4100 <__riscv_save_0>
    3466:	00358493          	addi	s1,a1,3
    346a:	98f1                	c.andi	s1,-4
    346c:	04a1                	c.addi	s1,8
    346e:	47b1                	c.li	a5,12
    3470:	06f4f263          	bgeu	s1,a5,34d4 <_malloc_r+0x72>
    3474:	44b1                	c.li	s1,12
    3476:	06b4e163          	bltu	s1,a1,34d8 <_malloc_r+0x76>
    347a:	fd7fa42b          	lwgp	s0,-44 # 807d4 <__malloc_free_list>
    347e:	fd5f968b          	addigp	a3,-44 # 807d4 <__malloc_free_list>
    3482:	87a2                	c.mv	a5,s0
    3484:	cf89                	c.beqz	a5,349e <_malloc_r+0x3c>
    3486:	4398                	c.lw	a4,0(a5)
    3488:	8f05                	c.sub	a4,s1
    348a:	08074163          	bltz	a4,350c <_malloc_r+0xaa>
    348e:	462d                	c.li	a2,11
    3490:	04e67a63          	bgeu	a2,a4,34e4 <_malloc_r+0x82>
    3494:	c398                	c.sw	a4,0(a5)
    3496:	00e78433          	add	s0,a5,a4
    349a:	c004                	c.sw	s1,0(s0)
    349c:	e821                	c.bnez	s0,34ec <_malloc_r+0x8a>
    349e:	fd9f940b          	addigp	s0,-40 # 807d8 <__malloc_sbrk_start>
    34a2:	401c                	c.lw	a5,0(s0)
    34a4:	e789                	c.bnez	a5,34ae <_malloc_r+0x4c>
    34a6:	4501                	c.li	a0,0
    34a8:	39f000ef          	jal	ra,4046 <_sbrk>
    34ac:	c008                	c.sw	a0,0(s0)
    34ae:	8526                	c.mv	a0,s1
    34b0:	597d                	c.li	s2,-1
    34b2:	395000ef          	jal	ra,4046 <_sbrk>
    34b6:	03250163          	beq	a0,s2,34d8 <_malloc_r+0x76>
    34ba:	00350413          	addi	s0,a0,3
    34be:	9871                	c.andi	s0,-4
    34c0:	00a40863          	beq	s0,a0,34d0 <_malloc_r+0x6e>
    34c4:	40a40533          	sub	a0,s0,a0
    34c8:	37f000ef          	jal	ra,4046 <_sbrk>
    34cc:	01250663          	beq	a0,s2,34d8 <_malloc_r+0x76>
    34d0:	c004                	c.sw	s1,0(s0)
    34d2:	a829                	c.j	34ec <_malloc_r+0x8a>
    34d4:	fa04d1e3          	bgez	s1,3476 <_malloc_r+0x14>
    34d8:	4731                	c.li	a4,12
    34da:	4501                	c.li	a0,0
    34dc:	feefc3ab          	swgp	a4,-28 # 807e4 <__mculib_REENT_errno>
    34e0:	4450006f          	j	4124 <__riscv_restore_0>
    34e4:	43d8                	c.lw	a4,4(a5)
    34e6:	02f41063          	bne	s0,a5,3506 <_malloc_r+0xa4>
    34ea:	c298                	c.sw	a4,0(a3)
    34ec:	00b40513          	addi	a0,s0,11
    34f0:	00440793          	addi	a5,s0,4
    34f4:	9961                	c.andi	a0,-8
    34f6:	40f507b3          	sub	a5,a0,a5
    34fa:	d3fd                	c.beqz	a5,34e0 <_malloc_r+0x7e>
    34fc:	943e                	c.add	s0,a5
    34fe:	40f007b3          	neg	a5,a5
    3502:	c01c                	c.sw	a5,0(s0)
    3504:	bff1                	c.j	34e0 <_malloc_r+0x7e>
    3506:	c058                	c.sw	a4,4(s0)
    3508:	843e                	c.mv	s0,a5
    350a:	b7cd                	c.j	34ec <_malloc_r+0x8a>
    350c:	843e                	c.mv	s0,a5
    350e:	43dc                	c.lw	a5,4(a5)
    3510:	bf95                	c.j	3484 <_malloc_r+0x22>

00003512 <printf>:
    3512:	7139                	c.addi16sp	sp,-64
    3514:	d22e                	c.swsp	a1,36(sp)
    3516:	104c                	c.addi4spn	a1,sp,36
    3518:	ce06                	c.swsp	ra,28(sp)
    351a:	d432                	c.swsp	a2,40(sp)
    351c:	d636                	c.swsp	a3,44(sp)
    351e:	d83a                	c.swsp	a4,48(sp)
    3520:	da3e                	c.swsp	a5,52(sp)
    3522:	dc42                	c.swsp	a6,56(sp)
    3524:	de46                	c.swsp	a7,60(sp)
    3526:	c62e                	c.swsp	a1,12(sp)
    3528:	28d9                	c.jal	35fe <vprintf>
    352a:	40f2                	c.lwsp	ra,28(sp)
    352c:	6121                	c.addi16sp	sp,64
    352e:	8082                	c.jr	ra

00003530 <puts>:
    3530:	3d1002ef          	jal	t0,4100 <__riscv_save_0>
    3534:	1101                	c.addi	sp,-32
    3536:	c62a                	c.swsp	a0,12(sp)
    3538:	2035                	c.jal	3564 <strlen>
    353a:	45b2                	c.lwsp	a1,12(sp)
    353c:	862a                	c.mv	a2,a0
    353e:	4505                	c.li	a0,1
    3540:	83cfe0ef          	jal	ra,157c <_write>
    3544:	00054e63          	bltz	a0,3560 <puts+0x30>
    3548:	47a9                	c.li	a5,10
    354a:	4605                	c.li	a2,1
    354c:	01f10593          	addi	a1,sp,31
    3550:	4505                	c.li	a0,1
    3552:	00f10fa3          	sb	a5,31(sp)
    3556:	826fe0ef          	jal	ra,157c <_write>
    355a:	6105                	c.addi16sp	sp,32
    355c:	3c90006f          	j	4124 <__riscv_restore_0>
    3560:	557d                	c.li	a0,-1
    3562:	bfe5                	c.j	355a <puts+0x2a>

00003564 <strlen>:
    3564:	00357793          	andi	a5,a0,3
    3568:	872a                	c.mv	a4,a0
    356a:	e79d                	c.bnez	a5,3598 <strlen+0x34>
    356c:	0511                	c.addi	a0,4
    356e:	ffc52783          	lw	a5,-4(a0)
    3572:	200787db          	ffb	a5,a5,zero
    3576:	dbfd                	c.beqz	a5,356c <strlen+0x8>
    3578:	ffc54783          	lbu	a5,-4(a0)
    357c:	40e50733          	sub	a4,a0,a4
    3580:	ffd54683          	lbu	a3,-3(a0)
    3584:	ffe54603          	lbu	a2,-2(a0)
    3588:	c795                	c.beqz	a5,35b4 <strlen+0x50>
    358a:	c28d                	c.beqz	a3,35ac <strlen+0x48>
    358c:	ca05                	c.beqz	a2,35bc <strlen+0x58>
    358e:	fff70513          	addi	a0,a4,-1
    3592:	8082                	c.jr	ra
    3594:	fc068ce3          	beqz	a3,356c <strlen+0x8>
    3598:	00054783          	lbu	a5,0(a0)
    359c:	0505                	c.addi	a0,1
    359e:	00357693          	andi	a3,a0,3
    35a2:	fbed                	c.bnez	a5,3594 <strlen+0x30>
    35a4:	8d19                	c.sub	a0,a4
    35a6:	157d                	c.addi	a0,-1
    35a8:	00008067          	ret
    35ac:	ffd70513          	addi	a0,a4,-3
    35b0:	00008067          	ret
    35b4:	ffc70513          	addi	a0,a4,-4
    35b8:	00008067          	ret
    35bc:	ffe70513          	addi	a0,a4,-2
    35c0:	8082                	c.jr	ra
    35c2:	0001                	c.nop

000035c4 <__vprintf_help>:
    35c4:	33d002ef          	jal	t0,4100 <__riscv_save_0>
    35c8:	febfa7ab          	lwgp	a5,-24 # 807e8 <__printf_count>
    35cc:	0785                	c.addi	a5,1
    35ce:	feffc5ab          	swgp	a5,-24 # 807e8 <__printf_count>
    35d2:	fe1f940b          	addigp	s0,-32 # 807e0 <__vprintf_buf_len>
    35d6:	fdffa5ab          	lwgp	a1,-36 # 807dc <__vprintf_buf>
    35da:	401c                	c.lw	a5,0(s0)
    35dc:	00178713          	addi	a4,a5,1
    35e0:	97ae                	c.add	a5,a1
    35e2:	c018                	c.sw	a4,0(s0)
    35e4:	00a78023          	sb	a0,0(a5)
    35e8:	4007695b          	bnec	a4,64,35fa <__vprintf_help+0x36>
    35ec:	04000613          	li	a2,64
    35f0:	4505                	c.li	a0,1
    35f2:	f8bfd0ef          	jal	ra,157c <_write>
    35f6:	00042023          	sw	zero,0(s0)
    35fa:	32b0006f          	j	4124 <__riscv_restore_0>

000035fe <vprintf>:
    35fe:	1141                	c.addi	sp,-16
    3600:	c606                	c.swsp	ra,12(sp)
    3602:	c422                	c.swsp	s0,8(sp)
    3604:	c226                	c.swsp	s1,4(sp)
    3606:	c04a                	c.swsp	s2,0(sp)
    3608:	0800                	c.addi4spn	s0,sp,16
    360a:	715d                	c.addi16sp	sp,-80
    360c:	00f10793          	addi	a5,sp,15
    3610:	00003637          	lui	a2,0x3
    3614:	9bc1                	c.andi	a5,-16
    3616:	fddf948b          	addigp	s1,-36 # 807dc <__vprintf_buf>
    361a:	fe1f990b          	addigp	s2,-32 # 807e0 <__vprintf_buf_len>
    361e:	5c460613          	addi	a2,a2,1476 # 35c4 <__vprintf_help>
    3622:	c09c                	c.sw	a5,0(s1)
    3624:	00092023          	sw	zero,0(s2)
    3628:	20ad                	c.jal	3692 <__printf_impl>
    362a:	00092603          	lw	a2,0(s2)
    362e:	408c                	c.lw	a1,0(s1)
    3630:	4505                	c.li	a0,1
    3632:	f4bfd0ef          	jal	ra,157c <_write>
    3636:	febfa52b          	lwgp	a0,-24 # 807e8 <__printf_count>
    363a:	ff040113          	addi	sp,s0,-16
    363e:	40b2                	c.lwsp	ra,12(sp)
    3640:	4422                	c.lwsp	s0,8(sp)
    3642:	4492                	c.lwsp	s1,4(sp)
    3644:	4902                	c.lwsp	s2,0(sp)
    3646:	0141                	c.addi	sp,16
    3648:	8082                	c.jr	ra

0000364a <__print_integral>:
    364a:	2b7002ef          	jal	t0,4100 <__riscv_save_0>
    364e:	1101                	c.addi	sp,-32
    3650:	842a                	c.mv	s0,a0
    3652:	84ae                	c.mv	s1,a1
    3654:	8932                	c.mv	s2,a2
    3656:	c636                	c.swsp	a3,12(sp)
    3658:	85be                	c.mv	a1,a5
    365a:	ca32                	c.swsp	a2,20(sp)
    365c:	853a                	c.mv	a0,a4
    365e:	0830                	c.addi4spn	a2,sp,24
    3660:	214d                	c.jal	3b02 <__int_to_poly>
    3662:	46b2                	c.lwsp	a3,12(sp)
    3664:	882a                	c.mv	a6,a0
    3666:	083c                	c.addi4spn	a5,sp,24
    3668:	0858                	c.addi4spn	a4,sp,20
    366a:	864a                	c.mv	a2,s2
    366c:	85a6                	c.mv	a1,s1
    366e:	8522                	c.mv	a0,s0
    3670:	2945                	c.jal	3b20 <__print_integral_poly>
    3672:	f8df978b          	addigp	a5,-116 # 8078c <__digits>
    3676:	00a46563          	bltu	s0,a0,3680 <__print_integral+0x36>
    367a:	6105                	c.addi16sp	sp,32
    367c:	2a90006f          	j	4124 <__riscv_restore_0>
    3680:	00044703          	lbu	a4,0(s0)
    3684:	0405                	c.addi	s0,1
    3686:	973e                	c.add	a4,a5
    3688:	00070703          	lb	a4,0(a4)
    368c:	fee40fa3          	sb	a4,-1(s0)
    3690:	b7dd                	c.j	3676 <__print_integral+0x2c>

00003692 <__printf_impl>:
    3692:	23f002ef          	jal	t0,40d0 <__riscv_save_12>
    3696:	a6010113          	addi	sp,sp,-1440
    369a:	6b05                	c.lui	s6,0x1
    369c:	892a                	c.mv	s2,a0
    369e:	842e                	c.mv	s0,a1
    36a0:	89b2                	c.mv	s3,a2
    36a2:	01c10a13          	addi	s4,sp,28
    36a6:	800b0b13          	addi	s6,s6,-2048 # 800 <analog_read_reg8+0x28>
    36aa:	fe0fc5ab          	swgp	zero,-24 # 807e8 <__printf_count>
    36ae:	c456                	c.swsp	s5,8(sp)
    36b0:	00094503          	lbu	a0,0(s2)
    36b4:	e509                	c.bnez	a0,36be <__printf_impl+0x2c>
    36b6:	5a010113          	addi	sp,sp,1440
    36ba:	2530006f          	j	410c <__riscv_restore_12>
    36be:	00190493          	addi	s1,s2,1
    36c2:	005555db          	beqc	a0,37,36cc <__printf_impl+0x3a>
    36c6:	9982                	c.jalr	s3
    36c8:	8926                	c.mv	s2,s1
    36ca:	b7dd                	c.j	36b0 <__printf_impl+0x1e>
    36cc:	00194783          	lbu	a5,1(s2)
    36d0:	0057e8db          	bnec	a5,37,36e0 <__printf_impl+0x4e>
    36d4:	02500513          	li	a0,37
    36d8:	9982                	c.jalr	s3
    36da:	00290493          	addi	s1,s2,2
    36de:	b7ed                	c.j	36c8 <__printf_impl+0x36>
    36e0:	4681                	c.li	a3,0
    36e2:	4701                	c.li	a4,0
    36e4:	d002                	c.swsp	zero,32(sp)
    36e6:	0004c783          	lbu	a5,0(s1)
    36ea:	0007e7db          	bnec	a5,32,36f8 <__printf_impl+0x66>
    36ee:	00276713          	ori	a4,a4,2
    36f2:	0485                	c.addi	s1,1
    36f4:	4685                	c.li	a3,1
    36f6:	bfc5                	c.j	36e6 <__printf_impl+0x54>
    36f8:	00d7e5db          	bnec	a5,45,3702 <__printf_impl+0x70>
    36fc:	00476713          	ori	a4,a4,4
    3700:	bfcd                	c.j	36f2 <__printf_impl+0x60>
    3702:	00b7e5db          	bnec	a5,43,370c <__printf_impl+0x7a>
    3706:	00876713          	ori	a4,a4,8
    370a:	b7e5                	c.j	36f2 <__printf_impl+0x60>
    370c:	0037e5db          	bnec	a5,35,3716 <__printf_impl+0x84>
    3710:	01076713          	ori	a4,a4,16
    3714:	bff9                	c.j	36f2 <__printf_impl+0x60>
    3716:	0107e5db          	bnec	a5,48,3720 <__printf_impl+0x8e>
    371a:	02076713          	ori	a4,a4,32
    371e:	bfd1                	c.j	36f2 <__printf_impl+0x60>
    3720:	c291                	c.beqz	a3,3724 <__printf_impl+0x92>
    3722:	d03a                	c.swsp	a4,32(sp)
    3724:	04a7eadb          	bnec	a5,42,3778 <__printf_impl+0xe6>
    3728:	00042c03          	lw	s8,0(s0)
    372c:	00440713          	addi	a4,s0,4
    3730:	000c5863          	bgez	s8,3740 <__printf_impl+0xae>
    3734:	5782                	c.lwsp	a5,32(sp)
    3736:	41800c33          	neg	s8,s8
    373a:	0047e793          	ori	a5,a5,4
    373e:	d03e                	c.swsp	a5,32(sp)
    3740:	0485                	c.addi	s1,1
    3742:	843a                	c.mv	s0,a4
    3744:	0004c783          	lbu	a5,0(s1)
    3748:	5cfd                	c.li	s9,-1
    374a:	06e7e4db          	bnec	a5,46,37b2 <__printf_impl+0x120>
    374e:	0014c783          	lbu	a5,1(s1)
    3752:	04a7dbdb          	beqc	a5,42,37a8 <__printf_impl+0x116>
    3756:	0485                	c.addi	s1,1
    3758:	4c81                	c.li	s9,0
    375a:	4725                	c.li	a4,9
    375c:	4629                	c.li	a2,10
    375e:	0004c783          	lbu	a5,0(s1)
    3762:	fd078793          	addi	a5,a5,-48
    3766:	0ff7f693          	andi	a3,a5,255
    376a:	04d76463          	bltu	a4,a3,37b2 <__printf_impl+0x120>
    376e:	c4cc97ff          	maddr32	a5,s9,a2
    3772:	0485                	c.addi	s1,1
    3774:	8cbe                	c.mv	s9,a5
    3776:	b7e5                	c.j	375e <__printf_impl+0xcc>
    3778:	fd078793          	addi	a5,a5,-48
    377c:	0ff7f793          	andi	a5,a5,255
    3780:	4725                	c.li	a4,9
    3782:	4c01                	c.li	s8,0
    3784:	fcf760e3          	bltu	a4,a5,3744 <__printf_impl+0xb2>
    3788:	4725                	c.li	a4,9
    378a:	4629                	c.li	a2,10
    378c:	a029                	c.j	3796 <__printf_impl+0x104>
    378e:	c4cc17ff          	maddr32	a5,s8,a2
    3792:	0485                	c.addi	s1,1
    3794:	8c3e                	c.mv	s8,a5
    3796:	0004c783          	lbu	a5,0(s1)
    379a:	fd078793          	addi	a5,a5,-48
    379e:	0ff7f693          	andi	a3,a5,255
    37a2:	fed776e3          	bgeu	a4,a3,378e <__printf_impl+0xfc>
    37a6:	bf79                	c.j	3744 <__printf_impl+0xb2>
    37a8:	401c                	c.lw	a5,0(s0)
    37aa:	0489                	c.addi	s1,2
    37ac:	0411                	c.addi	s0,4
    37ae:	f2fc8cff          	maxw	s9,s9,a5
    37b2:	43200613          	li	a2,1074
    37b6:	f0cc867f          	minw	a2,s9,a2
    37ba:	0004c783          	lbu	a5,0(s1)
    37be:	4487efdb          	bnec	a5,104,381c <__printf_impl+0x18a>
    37c2:	5782                	c.lwsp	a5,32(sp)
    37c4:	0014c703          	lbu	a4,1(s1)
    37c8:	448764db          	bnec	a4,104,3810 <__printf_impl+0x17e>
    37cc:	0407e793          	ori	a5,a5,64
    37d0:	00248913          	addi	s2,s1,2
    37d4:	d03e                	c.swsp	a5,32(sp)
    37d6:	00094503          	lbu	a0,0(s2)
    37da:	06700793          	li	a5,103
    37de:	0aa7e263          	bltu	a5,a0,3882 <__printf_impl+0x1f0>
    37e2:	06500793          	li	a5,101
    37e6:	06f57d63          	bgeu	a0,a5,3860 <__printf_impl+0x1ce>
    37ea:	05800793          	li	a5,88
    37ee:	5785555b          	beqc	a0,88,3958 <__printf_impl+0x2c6>
    37f2:	04a7ef63          	bltu	a5,a0,3850 <__printf_impl+0x1be>
    37f6:	04100793          	li	a5,65
    37fa:	4615535b          	beqc	a0,65,3860 <__printf_impl+0x1ce>
    37fe:	00f56763          	bltu	a0,a5,380c <__printf_impl+0x17a>
    3802:	fbb50793          	addi	a5,a0,-69
    3806:	4709                	c.li	a4,2
    3808:	04f77c63          	bgeu	a4,a5,3860 <__printf_impl+0x1ce>
    380c:	84a2                	c.mv	s1,s0
    380e:	a481                	c.j	3a4e <__printf_impl+0x3bc>
    3810:	0807e793          	ori	a5,a5,128
    3814:	d03e                	c.swsp	a5,32(sp)
    3816:	00148913          	addi	s2,s1,1
    381a:	bf75                	c.j	37d6 <__printf_impl+0x144>
    381c:	40c7eddb          	bnec	a5,108,3836 <__printf_impl+0x1a4>
    3820:	5782                	c.lwsp	a5,32(sp)
    3822:	0014c703          	lbu	a4,1(s1)
    3826:	40c765db          	bnec	a4,108,3830 <__printf_impl+0x19e>
    382a:	2007e793          	ori	a5,a5,512
    382e:	b74d                	c.j	37d0 <__printf_impl+0x13e>
    3830:	1007e793          	ori	a5,a5,256
    3834:	b7c5                	c.j	3814 <__printf_impl+0x182>
    3836:	00148913          	addi	s2,s1,1
    383a:	41a7e7db          	bnec	a5,122,3848 <__printf_impl+0x1b6>
    383e:	5782                	c.lwsp	a5,32(sp)
    3840:	1007e793          	ori	a5,a5,256
    3844:	d03e                	c.swsp	a5,32(sp)
    3846:	bf41                	c.j	37d6 <__printf_impl+0x144>
    3848:	ff47dbdb          	beqc	a5,116,383e <__printf_impl+0x1ac>
    384c:	8926                	c.mv	s2,s1
    384e:	b761                	c.j	37d6 <__printf_impl+0x144>
    3850:	06300793          	li	a5,99
    3854:	50355cdb          	beqc	a0,99,396c <__printf_impl+0x2da>
    3858:	04a7e463          	bltu	a5,a0,38a0 <__printf_impl+0x20e>
    385c:	fa1568db          	bnec	a0,97,380c <__printf_impl+0x17a>
    3860:	041d                	c.addi	s0,7
    3862:	9861                	c.andi	s0,-8
    3864:	00042803          	lw	a6,0(s0)
    3868:	00442883          	lw	a7,4(s0)
    386c:	02057b93          	andi	s7,a0,32
    3870:	87aa                	c.mv	a5,a0
    3872:	86c2                	c.mv	a3,a6
    3874:	8746                	c.mv	a4,a7
    3876:	100c                	c.addi4spn	a1,sp,32
    3878:	1048                	c.addi4spn	a0,sp,36
    387a:	00840493          	addi	s1,s0,8
    387e:	2e0d                	c.jal	3bb0 <__printf_float_impl>
    3880:	aa45                	c.j	3a30 <__printf_impl+0x39e>
    3882:	07000793          	li	a5,112
    3886:	4d0559db          	beqc	a0,112,3958 <__printf_impl+0x2c6>
    388a:	04a7e163          	bltu	a5,a0,38cc <__printf_impl+0x23a>
    388e:	06e00793          	li	a5,110
    3892:	5ae553db          	beqc	a0,110,3a38 <__printf_impl+0x3a6>
    3896:	45a1                	c.li	a1,8
    3898:	0ca7e163          	bltu	a5,a0,395a <__printf_impl+0x2c8>
    389c:	f69568db          	bnec	a0,105,380c <__printf_impl+0x17a>
    38a0:	5682                	c.lwsp	a3,32(sp)
    38a2:	0e66f05b          	bbc	a3,6,3982 <__printf_impl+0x2f0>
    38a6:	00040703          	lb	a4,0(s0)
    38aa:	00440493          	addi	s1,s0,4
    38ae:	41f75793          	srai	a5,a4,0x1f
    38b2:	0e07df63          	bgez	a5,39b0 <__printf_impl+0x31e>
    38b6:	40e00733          	neg	a4,a4
    38ba:	00e035b3          	snez	a1,a4
    38be:	40f007b3          	neg	a5,a5
    38c2:	8f8d                	c.sub	a5,a1
    38c4:	4006e693          	ori	a3,a3,1024
    38c8:	d036                	c.swsp	a3,32(sp)
    38ca:	a0dd                	c.j	39b0 <__printf_impl+0x31e>
    38cc:	515553db          	beqc	a0,117,39d2 <__printf_impl+0x340>
    38d0:	498554db          	beqc	a0,120,3958 <__printf_impl+0x2c6>
    38d4:	f3356cdb          	bnec	a0,115,380c <__printf_impl+0x17a>
    38d8:	00042a83          	lw	s5,0(s0)
    38dc:	85b2                	c.mv	a1,a2
    38de:	8556                	c.mv	a0,s5
    38e0:	c632                	c.swsp	a2,12(sp)
    38e2:	27b1                	c.jal	402e <strnlen>
    38e4:	57fd                	c.li	a5,-1
    38e6:	00440493          	addi	s1,s0,4
    38ea:	00fc8563          	beq	s9,a5,38f4 <__printf_impl+0x262>
    38ee:	4632                	c.lwsp	a2,12(sp)
    38f0:	f0c5057f          	minw	a0,a0,a2
    38f4:	00aa8433          	add	s0,s5,a0
    38f8:	4b81                	c.li	s7,0
    38fa:	5782                	c.lwsp	a5,32(sp)
    38fc:	02d00693          	li	a3,45
    3900:	40a7fb5b          	bbs	a5,10,3916 <__printf_impl+0x284>
    3904:	02b00693          	li	a3,43
    3908:	4037f75b          	bbs	a5,3,3916 <__printf_impl+0x284>
    390c:	8cd2                	c.mv	s9,s4
    390e:	0017f85b          	bbc	a5,1,391e <__printf_impl+0x28c>
    3912:	02000693          	li	a3,32
    3916:	01d10c93          	addi	s9,sp,29
    391a:	00d10e23          	sb	a3,28(sp)
    391e:	0167f6b3          	and	a3,a5,s6
    3922:	ca91                	c.beqz	a3,3936 <__printf_impl+0x2a4>
    3924:	03000693          	li	a3,48
    3928:	00dc8023          	sb	a3,0(s9)
    392c:	05800693          	li	a3,88
    3930:	00dc80a3          	sb	a3,1(s9)
    3934:	0c89                	c.addi	s9,2
    3936:	5627f35b          	bbs	a5,2,3a9c <__printf_impl+0x40a>
    393a:	41540db3          	sub	s11,s0,s5
    393e:	4057fa5b          	bbs	a5,5,3952 <__printf_impl+0x2c0>
    3942:	41bc0d33          	sub	s10,s8,s11
    3946:	414c87b3          	sub	a5,s9,s4
    394a:	40fd0d33          	sub	s10,s10,a5
    394e:	17a04663          	bgtz	s10,3aba <__printf_impl+0x428>
    3952:	8d52                	c.mv	s10,s4
    3954:	9c52                	c.add	s8,s4
    3956:	aaad                	c.j	3ad0 <__printf_impl+0x43e>
    3958:	45c1                	c.li	a1,16
    395a:	5782                	c.lwsp	a5,32(sp)
    395c:	0667fd5b          	bbc	a5,6,39d6 <__printf_impl+0x344>
    3960:	00044703          	lbu	a4,0(s0)
    3964:	00440493          	addi	s1,s0,4
    3968:	4781                	c.li	a5,0
    396a:	a859                	c.j	3a00 <__printf_impl+0x36e>
    396c:	401c                	c.lw	a5,0(s0)
    396e:	00440493          	addi	s1,s0,4
    3972:	4b81                	c.li	s7,0
    3974:	02510413          	addi	s0,sp,37
    3978:	02f10223          	sb	a5,36(sp)
    397c:	02410a93          	addi	s5,sp,36
    3980:	bfad                	c.j	38fa <__printf_impl+0x268>
    3982:	0076f75b          	bbc	a3,7,3990 <__printf_impl+0x2fe>
    3986:	00440493          	addi	s1,s0,4
    398a:	00041703          	lh	a4,0(s0)
    398e:	b705                	c.j	38ae <__printf_impl+0x21c>
    3990:	0086f65b          	bbc	a3,8,399c <__printf_impl+0x30a>
    3994:	00440493          	addi	s1,s0,4
    3998:	4018                	c.lw	a4,0(s0)
    399a:	bf11                	c.j	38ae <__printf_impl+0x21c>
    399c:	be96fc5b          	bbc	a3,9,3994 <__printf_impl+0x302>
    39a0:	041d                	c.addi	s0,7
    39a2:	9861                	c.andi	s0,-8
    39a4:	405c                	c.lw	a5,4(s0)
    39a6:	00840493          	addi	s1,s0,8
    39aa:	4018                	c.lw	a4,0(s0)
    39ac:	0007c963          	bltz	a5,39be <__printf_impl+0x32c>
    39b0:	56fd                	c.li	a3,-1
    39b2:	45a9                	c.li	a1,10
    39b4:	4b81                	c.li	s7,0
    39b6:	04dc9a63          	bne	s9,a3,3a0a <__printf_impl+0x378>
    39ba:	4605                	c.li	a2,1
    39bc:	a0b5                	c.j	3a28 <__printf_impl+0x396>
    39be:	ee071ce3          	bnez	a4,38b6 <__printf_impl+0x224>
    39c2:	800005b7          	lui	a1,0x80000
    39c6:	eeb798e3          	bne	a5,a1,38b6 <__printf_impl+0x224>
    39ca:	4701                	c.li	a4,0
    39cc:	800007b7          	lui	a5,0x80000
    39d0:	bdd5                	c.j	38c4 <__printf_impl+0x232>
    39d2:	45a9                	c.li	a1,10
    39d4:	b759                	c.j	395a <__printf_impl+0x2c8>
    39d6:	0077f75b          	bbc	a5,7,39e4 <__printf_impl+0x352>
    39da:	00440493          	addi	s1,s0,4
    39de:	00045703          	lhu	a4,0(s0)
    39e2:	b759                	c.j	3968 <__printf_impl+0x2d6>
    39e4:	0087f65b          	bbc	a5,8,39f0 <__printf_impl+0x35e>
    39e8:	00440493          	addi	s1,s0,4
    39ec:	4018                	c.lw	a4,0(s0)
    39ee:	bfad                	c.j	3968 <__printf_impl+0x2d6>
    39f0:	be97fc5b          	bbc	a5,9,39e8 <__printf_impl+0x356>
    39f4:	041d                	c.addi	s0,7
    39f6:	9861                	c.andi	s0,-8
    39f8:	4018                	c.lw	a4,0(s0)
    39fa:	405c                	c.lw	a5,4(s0)
    39fc:	00840493          	addi	s1,s0,8
    3a00:	56fd                	c.li	a3,-1
    3a02:	02057b93          	andi	s7,a0,32
    3a06:	02dc8763          	beq	s9,a3,3a34 <__printf_impl+0x3a2>
    3a0a:	5682                	c.lwsp	a3,32(sp)
    3a0c:	fdf6f693          	andi	a3,a3,-33
    3a10:	d036                	c.swsp	a3,32(sp)
    3a12:	0105eb5b          	bnec	a1,16,3a28 <__printf_impl+0x396>
    3a16:	5682                	c.lwsp	a3,32(sp)
    3a18:	0046f85b          	bbc	a3,4,3a28 <__printf_impl+0x396>
    3a1c:	00f76533          	or	a0,a4,a5
    3a20:	c501                	c.beqz	a0,3a28 <__printf_impl+0x396>
    3a22:	0166e6b3          	or	a3,a3,s6
    3a26:	d036                	c.swsp	a3,32(sp)
    3a28:	86b2                	c.mv	a3,a2
    3a2a:	5602                	c.lwsp	a2,32(sp)
    3a2c:	1048                	c.addi4spn	a0,sp,36
    3a2e:	3931                	c.jal	364a <__print_integral>
    3a30:	842a                	c.mv	s0,a0
    3a32:	b7a9                	c.j	397c <__printf_impl+0x2ea>
    3a34:	4605                	c.li	a2,1
    3a36:	bff1                	c.j	3a12 <__printf_impl+0x380>
    3a38:	45a2                	c.lwsp	a1,8(sp)
    3a3a:	5682                	c.lwsp	a3,32(sp)
    3a3c:	00440493          	addi	s1,s0,4
    3a40:	febfa7ab          	lwgp	a5,-24 # 807e8 <__printf_count>
    3a44:	4018                	c.lw	a4,0(s0)
    3a46:	0066f85b          	bbc	a3,6,3a56 <__printf_impl+0x3c4>
    3a4a:	00f70023          	sb	a5,0(a4)
    3a4e:	1040                	c.addi4spn	s0,sp,36
    3a50:	4b81                	c.li	s7,0
    3a52:	8aa2                	c.mv	s5,s0
    3a54:	b55d                	c.j	38fa <__printf_impl+0x268>
    3a56:	0076f55b          	bbc	a3,7,3a60 <__printf_impl+0x3ce>
    3a5a:	00f71023          	sh	a5,0(a4)
    3a5e:	bfc5                	c.j	3a4e <__printf_impl+0x3bc>
    3a60:	c31c                	c.sw	a5,0(a4)
    3a62:	fe86f65b          	bbs	a3,8,3a4e <__printf_impl+0x3bc>
    3a66:	be96f45b          	bbc	a3,9,3a4e <__printf_impl+0x3bc>
    3a6a:	87fd                	c.srai	a5,0x1f
    3a6c:	c35c                	c.sw	a5,4(a4)
    3a6e:	b7c5                	c.j	3a4e <__printf_impl+0x3bc>
    3a70:	000dc503          	lbu	a0,0(s11)
    3a74:	0d85                	c.addi	s11,1
    3a76:	01756533          	or	a0,a0,s7
    3a7a:	9982                	c.jalr	s3
    3a7c:	41bc0d33          	sub	s10,s8,s11
    3a80:	ff9de8e3          	bltu	s11,s9,3a70 <__printf_impl+0x3de>
    3a84:	8c56                	c.mv	s8,s5
    3a86:	01841e63          	bne	s0,s8,3aa2 <__printf_impl+0x410>
    3a8a:	41540433          	sub	s0,s0,s5
    3a8e:	408d0433          	sub	s0,s10,s0
    3a92:	00804f63          	bgtz	s0,3ab0 <__printf_impl+0x41e>
    3a96:	0905                	c.addi	s2,1
    3a98:	8426                	c.mv	s0,s1
    3a9a:	b919                	c.j	36b0 <__printf_impl+0x1e>
    3a9c:	8dd2                	c.mv	s11,s4
    3a9e:	9c52                	c.add	s8,s4
    3aa0:	bff1                	c.j	3a7c <__printf_impl+0x3ea>
    3aa2:	000c4503          	lbu	a0,0(s8)
    3aa6:	0c05                	c.addi	s8,1
    3aa8:	01756533          	or	a0,a0,s7
    3aac:	9982                	c.jalr	s3
    3aae:	bfe1                	c.j	3a86 <__printf_impl+0x3f4>
    3ab0:	02000513          	li	a0,32
    3ab4:	9982                	c.jalr	s3
    3ab6:	147d                	c.addi	s0,-1
    3ab8:	bfe9                	c.j	3a92 <__printf_impl+0x400>
    3aba:	02000513          	li	a0,32
    3abe:	9982                	c.jalr	s3
    3ac0:	1d7d                	c.addi	s10,-1
    3ac2:	b571                	c.j	394e <__printf_impl+0x2bc>
    3ac4:	000d4503          	lbu	a0,0(s10)
    3ac8:	0d05                	c.addi	s10,1
    3aca:	01756533          	or	a0,a0,s7
    3ace:	9982                	c.jalr	s3
    3ad0:	41ac07b3          	sub	a5,s8,s10
