
NMSIS_DSP_cfft_q15_stack_N.adx:     file format elf32-littleriscv
NMSIS_DSP_cfft_q15_stack_N.adx
architecture: riscv:rv32, flags 0x00000112:
EXEC_P, HAS_SYMS, D_PAGED
start address 0x20000000

Program Header:
    LOAD off    0x00001000 vaddr 0x20000000 paddr 0x20000000 align 2**12
         filesz 0x0000018a memsz 0x0000018a flags r-x
    LOAD off    0x00002000 vaddr 0x00000000 paddr 0x20000190 align 2**12
         filesz 0x000001bc memsz 0x000001bc flags rwx
    LOAD off    0x00002200 vaddr 0x00000200 paddr 0x20000350 align 2**12
         filesz 0x00001102 memsz 0x00001102 flags r-x
    LOAD off    0x00003458 vaddr 0x20001458 paddr 0x20001458 align 2**12
         filesz 0x0000de00 memsz 0x0000de00 flags r-x
    LOAD off    0x00012000 vaddr 0x00080000 paddr 0x2000f258 align 2**12
         filesz 0x0000002c memsz 0x0000002c flags rw-
    LOAD off    0x00012070 vaddr 0x00080070 paddr 0x2000f284 align 2**12
         filesz 0x00000022 memsz 0x00000022 flags rw-
    LOAD off    0x00013030 vaddr 0x00080030 paddr 0x2000f288 align 2**12
         filesz 0x00000000 memsz 0x00000040 flags rw-
0x70000000 off    0x0003a8ae vaddr 0x00000000 paddr 0x00000000 align 2**0
         filesz 0x00000040 memsz 0x00000000 flags r--

Sections:
Idx Name          Size      VMA       LMA       File off  Algn
  0 .vectors      0000018a  20000000  20000000  00001000  2**2
                  CONTENTS, ALLOC, LOAD, READONLY, CODE
  1 .retention_reset 00000154  00000000  20000190  00002000  2**2
                  CONTENTS, ALLOC, LOAD, READONLY, CODE
  2 .retention_data 00000064  00000158  200002e8  00002158  2**2
                  CONTENTS, ALLOC, LOAD, DATA
  3 .ram_code     00001102  00000200  20000350  00002200  2**8
                  CONTENTS, ALLOC, LOAD, READONLY, CODE
  4 .text         00003bc8  20001458  20001458  00003458  2**2
                  CONTENTS, ALLOC, LOAD, READONLY, CODE
  5 .rodata       0000a130  20005020  20005020  00007020  2**3
                  CONTENTS, ALLOC, LOAD, READONLY, DATA
  6 .eh_frame     000000f8  2000f160  2000f160  00011160  2**2
                  CONTENTS, ALLOC, LOAD, READONLY, DATA
  7 .data         0000002c  00080000  2000f258  00012000  2**2
                  CONTENTS, ALLOC, LOAD, DATA
  8 .sbss         0000003c  00080030  2000f288  00013030  2**2
                  ALLOC
  9 .bss          00000004  0008006c  2000f2c4  00013030  2**2
                  ALLOC
 10 .sdk_version  00000022  00080070  2000f284  00012070  2**2
                  CONTENTS, ALLOC, LOAD, DATA
 11 .debug_info   0000d747  00000000  00000000  00012092  2**0
                  CONTENTS, READONLY, DEBUGGING
 12 .debug_abbrev 00001d40  00000000  00000000  0001f7d9  2**0
                  CONTENTS, READONLY, DEBUGGING
 13 .debug_loc    0000a0ce  00000000  00000000  00021519  2**0
                  CONTENTS, READONLY, DEBUGGING
 14 .debug_aranges 00000418  00000000  00000000  0002b5e8  2**3
                  CONTENTS, READONLY, DEBUGGING
 15 .debug_ranges 00000d08  00000000  00000000  0002ba00  2**3
                  CONTENTS, READONLY, DEBUGGING
 16 .debug_line   00009918  00000000  00000000  0002c708  2**0
                  CONTENTS, READONLY, DEBUGGING
 17 .debug_str    00004845  00000000  00000000  00036020  2**0
                  CONTENTS, READONLY, DEBUGGING
 18 .comment      00000049  00000000  00000000  0003a865  2**0
                  CONTENTS, READONLY
 19 .riscv.attributes 00000040  00000000  00000000  0003a8ae  2**0
                  CONTENTS, READONLY
 20 .debug_frame  00000a24  00000000  00000000  0003a8f0  2**2
                  CONTENTS, READONLY, DEBUGGING
SYMBOL TABLE:
20000000 l    d  .vectors	00000000 .vectors
00000000 l    d  .retention_reset	00000000 .retention_reset
00000158 l    d  .retention_data	00000000 .retention_data
00000200 l    d  .ram_code	00000000 .ram_code
20001458 l    d  .text	00000000 .text
20005020 l    d  .rodata	00000000 .rodata
2000f160 l    d  .eh_frame	00000000 .eh_frame
00080000 l    d  .data	00000000 .data
00080030 l    d  .sbss	00000000 .sbss
0008006c l    d  .bss	00000000 .bss
00080070 l    d  .sdk_version	00000000 .sdk_version
00000000 l    d  .debug_info	00000000 .debug_info
00000000 l    d  .debug_abbrev	00000000 .debug_abbrev
00000000 l    d  .debug_loc	00000000 .debug_loc
00000000 l    d  .debug_aranges	00000000 .debug_aranges
00000000 l    d  .debug_ranges	00000000 .debug_ranges
00000000 l    d  .debug_line	00000000 .debug_line
00000000 l    d  .debug_str	00000000 .debug_str
00000000 l    d  .comment	00000000 .comment
00000000 l    d  .riscv.attributes	00000000 .riscv.attributes
00000000 l    d  .debug_frame	00000000 .debug_frame
00000000 l    df *ABS*	00000000 ./boot/cstartup_flash.o
20000028 l       .vectors	00000000 _START
2000008e l       .vectors	00000000 _RETENTION_RESET_INIT
200000a6 l       .vectors	00000000 _RETENTION_RESET_BEGIN
200000b8 l       .vectors	00000000 _RETENTION_DATA_INIT
200000cc l       .vectors	00000000 _RETENTION_DATA_INIT_BEGIN
200000de l       .vectors	00000000 _RAMCODE_INIT
200000f6 l       .vectors	00000000 _RAMCODE_INIT_BEGIN
20000108 l       .vectors	00000000 _DATA_INIT
20000120 l       .vectors	00000000 _DATA_INIT_BEGIN
20000132 l       .vectors	00000000 _ZERO_BSS
20000146 l       .vectors	00000000 _ZERO_BSS_BEGIN
20000152 l       .vectors	00000000 _ZERO_AES
20000166 l       .vectors	00000000 _ZERO_AES_BEGIN
20000172 l       .vectors	00000000 _FILL_STK
20000172 l       .vectors	00000000 _MAIN_FUNC
20000188 l       .vectors	00000000 _END
00000022 l       .retention_reset	00000000 _ISTART
0000002a l       .retention_reset	00000000 _ISWS_USB_DIS
00000088 l       .retention_reset	00000000 _WAKEUP_FLASH
000000a2 l       .retention_reset	00000000 _MSPI_WAIT
000000bc l       .retention_reset	00000000 _WAIT_EFUSE_LOAD_AND_FLASH_WAKEUP_FINISH
000000c2 l       .retention_reset	00000000 _MULTI_ADDRESS_BEGIN
000000d2 l       .retention_reset	00000000 _IZERO_BSS
000000e6 l       .retention_reset	00000000 _IZERO_BSS_BEGIN
000000f2 l       .retention_reset	00000000 _IZERO_AES
00000106 l       .retention_reset	00000000 _IZERO_AES_BEGIN
00000112 l       .retention_reset	00000000 _IFILL_STK
00000112 l       .retention_reset	00000000 _IDATA_INIT
0000012a l       .retention_reset	00000000 _IDATA_INIT_BEGIN
0000013c l       .retention_reset	00000000 _IMAIN_FUNC
00000152 l       .retention_reset	00000000 _IEND
00000040 l       *ABS*	00000000 irqno
00000000 l    df *ABS*	00000000 
200015b8 l     F .text	0000003c efuse_get_adc_calib_value
00000200 l     F .ram_code	0000004c flash_send_addr
0000024c l     F .ram_code	00000048 flash_send_cmd
00000294 l     F .ram_code	00000060 clock_set_32k_tick
200015f8 l     F .text	00000138 user_calib_adc_vref
20001730 l     F .text	00000024 measure_stack_usage
20001758 l     F .text	0000001a fill_stack_pattern_to_sp
20001774 l     F .text	0000002c except_handler
200017a0 l     F .text	00000006 read_cycle_count
000002f4 l     F .ram_code	00000058 plic_exit_critical_sec
0000034c l     F .ram_code	00000060 plic_enter_critical_sec
000003ac l     F .ram_code	000001c0 flash_mspi_read_ram
20001458 l     F .text	00000034 flash_read_uid
2000148c l     F .text	0000002c flash_read_mid
200014b8 l     F .text	0000009c flash_read_mid_uid_with_check
20001554 l     F .text	0000002c flash_dread
0000056c l     F .ram_code	0000004c analog_read_reg32
000005b8 l     F .ram_code	00000034 clock_get_32k_tick
000005ec l     F .ram_code	00000094 pm_stimer_recover
00000680 l     F .ram_code	00000048 analog_write_reg8
000006c8 l     F .ram_code	00000050 analog_read_reg8
200017a8 l     F .text	00000030 rf_update_internal_cap
200017dc l     F .text	00000044 user_calib_freq_offset
20001824 l     F .text	000000e2 user_read_flash_value_calib
00000718 l     F .ram_code	000000b4 pm_wait_bbpll_done
000007cc l     F .ram_code	00000194 pm_sleep_start
20001908 l     F .text	00000094 gpio_set_up_down_res
00000960 l     F .ram_code	00000148 dr_putchar
2000199c l     F .text	000000b6 gpio_input_dis
00000aa8 l     F .ram_code	00000234 clock_init_ram
20001580 l     F .text	0000001c clock_init
00000cdc l     F .ram_code	00000314 pm_sleep_wakeup_ram.constprop.1
2000159c l     F .text	0000001a pm_sleep_wakeup.constprop.0
20001a54 l     F .text	000002e4 sys_init
20001d38 l     F .text	0000001a platform_init
20001d54 l     F .text	00000006 reset_cycle_count
20001d5c l     F .text	000000e0 user_init
20001e3c l     F .text	000000ac generate_sine_wave_q15
00000158 l     O .retention_data	00000004 flash_read_page
0000015c l     O .retention_data	00000001 g_plic_preempt_en
00000160 l     O .retention_data	00000002 s_flash_preempt_config
00000162 l     O .retention_data	00000001 g_pm_long_suspend
00000164 l     O .retention_data	00000004 g_pm_tick_cur
00000168 l     O .retention_data	00000029 pmcd
00000194 l     O .retention_data	00000004 g_pm_tick_32k_calib
00000198 l     O .retention_data	00000001 g_pm_suspend_power_cfg
0000019c l     O .retention_data	00000008 g_pm_early_wakeup_time_us
000001a4 l     O .retention_data	00000004 g_pm_tick_32k_cur
000001a8 l     O .retention_data	00000001 g_pm_tick_update_en
000001ac l     O .retention_data	00000004 g_pm_r_delay_cycle
000001b0 l     O .retention_data	00000008 g_pm_longsleep_early_wakeup_time_us
20005044 l     O .rodata	00000018 FFT_SIZES
2000505c l     O .rodata	0000000c flash_support_mid
00080030 l     O .sbss	00000004 __StackLimit
00080034 l     O .sbss	00000004 exception_mcause
00080038 l     O .sbss	00000004 exception_mdcause
0008003c l     O .sbss	00000004 exception_mepc
00080040 l     O .sbss	00000004 exception_mstatus
00080044 l     O .sbss	00000004 exception_mtval
00080048 l     O .sbss	00000004 g_chip_version
0008004c l     O .sbss	00000004 g_pm_status_info
0008001c l     O .data	00000001 init_flag.4915
00080020 l     O .data	00000006 sys_clk
00080070 l     O .sdk_version	00000022 sdk_version
00000000 l    df *ABS*	00000000 riscv_cmplx_mag_q15.c
20002090 l       .text	00000000 $x
00000000 l    df *ABS*	00000000 riscv_sqrt_q31.c
20002178 l       .text	00000000 $x
00000000 l    df *ABS*	00000000 riscv_cfft_q15.c
2000224c l       .text	00000000 $x
20002328 l       .text	00000000 $x
20002404 l       .text	00000000 $x
00000000 l    df *ABS*	00000000 riscv_cfft_radix4_q15.c
20002534 l       .text	00000000 $x
200027bc l       .text	00000000 $x
00000000 l    df *ABS*	00000000 riscv_cfft_init_q15.c
20002a48 l       .text	00000000 $x
20002a6c l       .text	00000000 $x
20002a94 l       .text	00000000 $x
20002ab8 l       .text	00000000 $x
20002adc l       .text	00000000 $x
20002b00 l       .text	00000000 $x
20002b24 l       .text	00000000 $x
20002b48 l       .text	00000000 $x
20002b6c l       .text	00000000 $x
20002b90 l       .text	00000000 $x
00000000 l    df *ABS*	00000000 riscv_bitreversal2.c
20002c08 l       .text	00000000 $x
00000000 l    df *ABS*	00000000 sinf.c
00000000 l    df *ABS*	00000000 ref_rredf.c
2000f098 l     O .rodata	00000020 twooverpi.2618
00000000 l    df *ABS*	00000000 divdf3.c
00000000 l    df *ABS*	00000000 muldf3.c
00000000 l    df *ABS*	00000000 floatsidf.c
00000000 l    df *ABS*	00000000 extendsfdf2.c
00000000 l    df *ABS*	00000000 truncdfsf2.c
00000000 l    df *ABS*	00000000 malloc.c
00000000 l    df *ABS*	00000000 nano-mallocr.c
00000000 l    df *ABS*	00000000 nano-mallocr.c
00000000 l    df *ABS*	00000000 printf.c
00000000 l    df *ABS*	00000000 putchar.c
00000000 l    df *ABS*	00000000 puts.c
00000000 l    df *ABS*	00000000 strlen.c
00000000 l    df *ABS*	00000000 vprintf.c
20004408 l     F .text	0000003a __vprintf_help
0008005c l     O .sbss	00000004 __vprintf_buf
00080060 l     O .sbss	00000004 __vprintf_buf_len
00000000 l    df *ABS*	00000000 printf_impl.c
00000000 l    df *ABS*	00000000 printf_impl_float.c
00000000 l    df *ABS*	00000000 strcpy.c
00000000 l    df *ABS*	00000000 strnlen.c
00000000 l    df *ABS*	00000000 _sbrk.c
00080068 l     O .sbss	00000004 heap_end.2408
00000000 l    df *ABS*	00000000 libgcc2.c
00000000 l    df *ABS*	00000000 libgcc2.c
00000000 l    df *ABS*	00000000 riscv_common_tables.c
00000000 l    df *ABS*	00000000 riscv_const_structs.c
00000000 l    df *ABS*	00000000 printf_data.c
00000000 l    df *ABS*	00000000 impure.c
0008006c l     O .bss	00000000 impure_data
2000434a g     F .text	00000028 putchar
20002088  w      .text	00000000 entry_irq55
20002088  w      .text	00000000 entry_irq13
20004df8 g     F .text	0000007c strcpy
20002088  w      .text	00000000 entry_irq15
20004f90 g     F .text	0000002e .hidden __ashldi3
2000ee88 g     O .rodata	000000c0 twiddleCoef_64_q15
20002088  w      .text	00000000 entry_irq27
20002088  w      .text	00000000 entry_irq60
20007190 g     O .rodata	00000f80 riscvBitRevIndexTable_fixed_2048
20002088  w      .text	00000000 entry_irq1
20002088  w      .text	00000000 entry_irq52
20002088  w      .text	00000000 entry_irq50
20009008 g     O .rodata	00003000 twiddleCoef_4096_q15
20002088  w      .text	00000000 entry_irq62
2000432c g     F .text	0000001e printf
00080800 g       .data	00000000 __global_pointer$
20004fc8 g       .text	00000000 .hidden __riscv_save_8
20002088  w      .text	00000000 entry_irq58
20005014 g       .text	00000000 .hidden __riscv_restore_3
000001bc g       .retention_data	00000000 _RETENTION_DATA_VMA_END
20005000 g       .text	00000000 .hidden __riscv_restore_10
20002328  w    F .text	000000da riscv_cfft_radix4by2_inverse_q15
20002404  w    F .text	0000012e riscv_cfft_q15
20008e70 g     O .rodata	000000e0 riscvBitRevIndexTable_fixed_128
20004fc8 g       .text	00000000 .hidden __riscv_save_11
20008ff0 g     O .rodata	00000018 riscvBitRevIndexTable_fixed_16
2000448e g     F .text	0000004c __print_integral
2000f038 g     O .rodata	00000010 riscv_cfft_sR_q15_len64
00000000 g       .retention_reset	00000000 _RETENTION_RESET_VMA_START
20002088  w      .text	00000000 entry_irq10
20002088  w      .text	00000000 entry_irq21
2000f048 g     O .rodata	00000010 riscv_cfft_sR_q15_len32
00000158 g       .retention_data	00000000 _AES_VMA_START
20002dc0 g     F .text	0000013e ref__mathlib_rredf2
20002088  w      .text	00000000 entry_irq48
20005014 g       .text	00000000 .hidden __riscv_restore_2
20002088  w      .text	00000000 entry_irq8
20002088  w      .text	00000000 entry_irq33
00080070 g       .bss	00000000 _BSS_VMA_END
20000190 g       *ABS*	00000000 _RETENTION_RESET_LMA_START
20003d40 g     F .text	0000007a .hidden __floatsidf
00080000 g     O .data	0000001c cst_libm_sincosf
200044da g     F .text	00000470 __printf_impl
20002088  w      .text	00000000 entry_irq12
20004372 g     F .text	00000034 puts
200088d0 g     O .rodata	000003c0 riscvBitRevIndexTable_fixed_512
200041cc g     F .text	00000010 malloc
20002088  w      .text	00000000 entry_irq14
20004fc0 g       .text	00000000 .hidden __riscv_save_12
20002088  w      .text	00000000 entry_irq2
20002088  w      .text	00000000 entry_irq51
2000eff8 g     O .rodata	00000010 riscv_cfft_sR_q15_len1024
20005000 g       .text	00000000 .hidden __riscv_restore_11
20002088  w      .text	00000000 entry_irq28
2000efd8 g     O .rodata	00000010 riscv_cfft_sR_q15_len4096
20002088  w      .text	00000000 entry_irq43
20004ff0 g       .text	00000000 .hidden __riscv_save_1
20005014 g       .text	00000000 .hidden __riscv_restore_0
20002088  w      .text	00000000 entry_irq20
20004fd6 g       .text	00000000 .hidden __riscv_save_7
20002b48  w    F .text	00000024 riscv_cfft_init_32_q15
00080030 g       .sbss	00000000 _BSS_VMA_START
20002088  w      .text	00000000 entry_irq63
0008002c g       .data	00000000 _DATA_VMA_END
20003dbc g     F .text	00000110 .hidden __extendsfdf2
20002088  w      .text	00000000 entry_irq46
20002088  w      .text	00000000 entry_irq31
20002088  w      .text	00000000 entry_irq16
00100000 g       *ABS*	00000000 FLASH_SIZE
2000500a g       .text	00000000 .hidden __riscv_restore_5
20002090  w    F .text	000000e6 riscv_cmplx_mag_q15
2000f008 g     O .rodata	00000010 riscv_cfft_sR_q15_len512
00080000 g       .data	00000000 _DATA_VMA_START
20008fc0 g     O .rodata	00000030 riscvBitRevIndexTable_fixed_32
20004f38  w    F .text	00000028 _sbrk
20002088  w      .text	00000000 entry_irq53
20002088  w      .text	00000000 entry_irq11
20002b00  w    F .text	00000024 riscv_cfft_init_128_q15
2000f080 g     O .rodata	00000018 cst_libm_rredf
00000154 g       .retention_reset	00000000 _RETENTION_RESET_VMA_END
20004e76 g     F .text	00000018 strnlen
2000500a g       .text	00000000 .hidden __riscv_restore_6
20002088  w      .text	00000000 entry_irq5
20002088  w      .text	00000000 entry_irq23
2000224c  w    F .text	000000da riscv_cfft_radix4by2_q15
2000208a  w      .text	00000000 trap_handler
20002088  w      .text	00000000 entry_irq34
20002534  w    F .text	00000286 riscv_radix4_butterfly_q15
20004f60 g     F .text	0000002e .hidden __lshrdi3
20002088  w      .text	00000000 entry_irq36
20004fc8 g       .text	00000000 .hidden __riscv_save_9
20002088  w      .text	00000000 entry_irq44
20004442 g     F .text	0000004c vprintf
20002088  w      .text	00000000 entry_irq45
20002088  w      .text	00000000 entry_irq26
20004fd6 g       .text	00000000 .hidden __riscv_save_4
20002c08  w    F .text	0000005a riscv_bitreversal_16
2000f018 g     O .rodata	00000010 riscv_cfft_sR_q15_len256
200027bc  w    F .text	0000028a riscv_radix4_butterfly_inverse_q15
20002088  w      .text	00000000 entry_irq41
20002088  w      .text	00000000 entry_irq61
20000000 g       .vectors	00000000 BIN_BEGIN
200041ec g     F .text	00000090 _free_r
20004ff0 g       .text	00000000 .hidden __riscv_save_3
20002088  w      .text	00000000 entry_irq38
00001200 g       .ram_code	00000000 __vectors
0000f2a6 g       *ABS*	00000000 BIN_SIZE
2000ed08 g     O .rodata	00000180 twiddleCoef_128_q15
20002b6c  w    F .text	00000022 riscv_cfft_init_16_q15
2000f138 g     O .rodata	00000010 __digits
20000350 g       *ABS*	00000000 _RAMCODE_LMA_START
2000f028 g     O .rodata	00000010 riscv_cfft_sR_q15_len128
00080064 g     O .sbss	00000004 __printf_count
20002088  w      .text	00000000 entry_irq59
20002a48  w    F .text	00000022 riscv_cfft_init_4096_q15
20002178  w    F .text	000000d2 riscv_sqrt_q31
20002f00 g     F .text	000007ee .hidden __divdf3
20002088  w      .text	00000000 entry_irq6
200036f0 g     F .text	0000064c .hidden __muldf3
20004fc8 g       .text	00000000 .hidden __riscv_save_10
00080050 g     O .sbss	00000004 __mculib_REENT_errno
2000f258 g       *ABS*	00000000 _DATA_LMA_START
20004968 g     F .text	00000090 __print_integral_poly
20000000 g       *ABS*	00000000 NDS_SAG_LMA_FLASH
2000500a g       .text	00000000 .hidden __riscv_restore_4
20005000 g       .text	00000000 .hidden __riscv_restore_8
20002a6c  w    F .text	00000026 riscv_cfft_init_2048_q15
20004fd6 g       .text	00000000 .hidden __riscv_save_6
20000000  w      .vectors	00000000 _RELAX_END_
20004e8e g     F .text	000000aa memset
200049f8 g     F .text	000003fe __printf_float_impl
20005000 g       .text	00000000 .hidden __riscv_restore_9
2000500a g       .text	00000000 .hidden __riscv_restore_7
20001f24 g     F .text	00000160 main
2000ef48 g     O .rodata	00000060 twiddleCoef_32_q15
20002088 g       .text	00000000 default_irq_entry
2000efa8 g     O .rodata	00000030 twiddleCoef_16_q15
20002a94  w    F .text	00000024 riscv_cfft_init_1024_q15
20002088  w      .text	00000000 entry_irq3
00000ff0 g     F .ram_code	00000182 trap_entry
00000158 g       .retention_data	00000000 _AES_VMA_END
20002b90  w    F .text	00000076 riscv_cfft_init_q15
20003ecc g     F .text	00000300 .hidden __truncdfsf2
20002088  w      .text	00000000 entry_irq39
20008110 g     O .rodata	000007c0 riscvBitRevIndexTable_fixed_1024
20002088  w      .text	00000000 entry_irq49
2000427c g     F .text	000000b0 _malloc_r
20008c90 g     O .rodata	000001e0 riscvBitRevIndexTable_fixed_256
20002088  w      .text	00000000 entry_irq57
20002088  w      .text	00000000 entry_irq47
200002e8 g       *ABS*	00000000 _RETENTION_DATA_LMA_START
20002ab8  w    F .text	00000024 riscv_cfft_init_512_q15
20000000 g     F .vectors	00000000 _RESET_ENTRY
2000d808 g     O .rodata	00000c00 twiddleCoef_1024_q15
00000158 g       .retention_data	00000000 _RETENTION_DATA_VMA_START
20002088  w      .text	00000000 entry_irq4
000a0000 g       *ABS*	00000000 _STACK_TOP
20002088  w      .text	00000000 entry_irq22
20002088  w      .text	00000000 entry_irq30
20008f50 g     O .rodata	00000070 riscvBitRevIndexTable_fixed_64
20002adc  w    F .text	00000024 riscv_cfft_init_256_q15
00080028 g     O .data	00000004 _impure_ptr
20002088  w      .text	00000000 entry_irq42
20002088  w      .text	00000000 entry_irq24
20002c64 g     F .text	0000015a sinf
20004ff0 g       .text	00000000 .hidden __riscv_save_2
00001302 g       .ram_code	00000000 _RAMCODE_VMA_END
00000000  w      *ABS*	00000000 _ITB_BASE_
20004fd6 g       .text	00000000 .hidden __riscv_save_5
20002088  w      .text	00000000 entry_irq19
20001ee8 g     F .text	0000003a _write
2000f058 g     O .rodata	00000010 riscv_cfft_sR_q15_len16
20005190 g     O .rodata	00000080 sqrt_initial_lut_q31
00080098 g       .sdk_version	00000000 _end
20002088  w      .text	00000000 entry_irq17
20002088  w      .text	00000000 entry_irq9
2000ea08 g     O .rodata	00000300 twiddleCoef_256_q15
20002088  w      .text	00000000 entry_irq56
20002088  w      .text	00000000 entry_irq35
20002088  w      .text	00000000 entry_irq37
2000efe8 g     O .rodata	00000010 riscv_cfft_sR_q15_len2048
000001b8 g     O .retention_data	00000004 g_pm_mspi_cfg
20002088  w      .text	00000000 entry_irq54
20002088  w      .text	00000000 entry_irq40
20005210 g     O .rodata	00001f80 riscvBitRevIndexTable_fixed_4096
20004ffc g       .text	00000000 .hidden __riscv_restore_12
00000200 g       .ram_code	00000000 _RAMCODE_VMA_START
20004ff0 g       .text	00000000 .hidden __riscv_save_0
200043a8 g     F .text	0000005e strlen
20002088  w      .text	00000000 entry_irq29
00080058 g     O .sbss	00000004 __malloc_sbrk_start
00080054 g     O .sbss	00000004 __malloc_free_list
2000c008 g     O .rodata	00001800 twiddleCoef_2048_q15
20005014 g       .text	00000000 .hidden __riscv_restore_1
2000e408 g     O .rodata	00000600 twiddleCoef_512_q15
20002088  w      .text	00000000 entry_irq7
20002b24  w    F .text	00000024 riscv_cfft_init_64_q15
20002088  w      .text	00000000 entry_irq32
00000000 g     F .retention_reset	00000000 _IRESET_ENTRY
20002088  w      .text	00000000 entry_irq18
2000494a g     F .text	0000001e __int_to_poly
200041dc g     F .text	00000010 free
20002088  w      .text	00000000 entry_irq25



Disassembly of section .vectors:

20000000 <_RESET_ENTRY>:
20000000:	a025                	c.j	20000028 <_START>
	...
20000016:	0000                	unimp
20000018:	f2a6                	c.fswsp	fs1,100(sp)
2000001a:	0000                	unimp
2000001c:	0000                	unimp
2000001e:	0000                	unimp
20000020:	544c4e4b          	fnmsub.h	ft8,fs8,ft4,fa0,rmm
20000024:	0000                	unimp
20000026:	          	sllw	a4,zero,zero

20000028 <_START>:
20000028:	e0080197          	auipc	gp,0xe0080
2000002c:	7d818193          	addi	gp,gp,2008 # 80800 <__global_pointer$>
20000030:	801002b7          	lui	t0,0x80100
20000034:	70028293          	addi	t0,t0,1792 # 80100700 <_DATA_LMA_START+0x600f14a8>
20000038:	04000313          	li	t1,64
2000003c:	506280a3          	sb	t1,1281(t0)
20000040:	e00a0297          	auipc	t0,0xe00a0
20000044:	fc028293          	addi	t0,t0,-64 # a0000 <_STACK_TOP>
20000048:	8116                	c.mv	sp,t0
2000004a:	e0000297          	auipc	t0,0xe0000
2000004e:	fb628293          	addi	t0,t0,-74 # 0 <_ITB_BASE_>
20000052:	80029073          	csrw	uitb,t0
20000056:	6299                	c.lui	t0,0x6
20000058:	3002a2f3          	csrrs	t0,mstatus,t0
2000005c:	00301073          	fssr	zero
20000060:	e0001297          	auipc	t0,0xe0001
20000064:	1a028293          	addi	t0,t0,416 # 1200 <__vectors>
20000068:	30529073          	csrw	mtvec,t0
2000006c:	7d016073          	csrsi	mmisc_ctl,2
20000070:	e40002b7          	lui	t0,0xe4000
20000074:	4309                	c.li	t1,2
20000076:	0062a023          	sw	t1,0(t0) # e4000000 <_DATA_LMA_START+0xc3ff0da8>
2000007a:	7ca022f3          	csrr	t0,mcache_ctl
2000007e:	0012e293          	ori	t0,t0,1
20000082:	0022e293          	ori	t0,t0,2
20000086:	7ca29073          	csrw	mcache_ctl,t0
2000008a:	0000100f          	fence.i

2000008e <_RETENTION_RESET_INIT>:
2000008e:	00000317          	auipc	t1,0x0
20000092:	10230313          	addi	t1,t1,258 # 20000190 <_RETENTION_RESET_LMA_START>
20000096:	e0000397          	auipc	t2,0xe0000
2000009a:	f6a38393          	addi	t2,t2,-150 # 0 <_ITB_BASE_>
2000009e:	e0000e17          	auipc	t3,0xe0000
200000a2:	0b6e0e13          	addi	t3,t3,182 # 154 <_RETENTION_RESET_VMA_END>

200000a6 <_RETENTION_RESET_BEGIN>:
200000a6:	01c3f963          	bgeu	t2,t3,200000b8 <_RETENTION_DATA_INIT>
200000aa:	00032283          	lw	t0,0(t1)
200000ae:	0053a023          	sw	t0,0(t2)
200000b2:	0311                	c.addi	t1,4
200000b4:	0391                	c.addi	t2,4
200000b6:	bfc5                	c.j	200000a6 <_RETENTION_RESET_BEGIN>

200000b8 <_RETENTION_DATA_INIT>:
200000b8:	00000317          	auipc	t1,0x0
200000bc:	23030313          	addi	t1,t1,560 # 200002e8 <_RETENTION_DATA_LMA_START>
200000c0:	15800393          	li	t2,344
200000c4:	e0000e17          	auipc	t3,0xe0000
200000c8:	0f8e0e13          	addi	t3,t3,248 # 1bc <_RETENTION_DATA_VMA_END>

200000cc <_RETENTION_DATA_INIT_BEGIN>:
200000cc:	01c3f963          	bgeu	t2,t3,200000de <_RAMCODE_INIT>
200000d0:	00032283          	lw	t0,0(t1)
200000d4:	0053a023          	sw	t0,0(t2)
200000d8:	0311                	c.addi	t1,4
200000da:	0391                	c.addi	t2,4
200000dc:	bfc5                	c.j	200000cc <_RETENTION_DATA_INIT_BEGIN>

200000de <_RAMCODE_INIT>:
200000de:	00000317          	auipc	t1,0x0
200000e2:	27230313          	addi	t1,t1,626 # 20000350 <_RAMCODE_LMA_START>
200000e6:	e0000397          	auipc	t2,0xe0000
200000ea:	11a38393          	addi	t2,t2,282 # 200 <flash_send_addr>
200000ee:	e0001e17          	auipc	t3,0xe0001
200000f2:	214e0e13          	addi	t3,t3,532 # 1302 <_RAMCODE_VMA_END>

200000f6 <_RAMCODE_INIT_BEGIN>:
200000f6:	01c3f963          	bgeu	t2,t3,20000108 <_DATA_INIT>
200000fa:	00032283          	lw	t0,0(t1)
200000fe:	0053a023          	sw	t0,0(t2)
20000102:	0311                	c.addi	t1,4
20000104:	0391                	c.addi	t2,4
20000106:	bfc5                	c.j	200000f6 <_RAMCODE_INIT_BEGIN>

20000108 <_DATA_INIT>:
20000108:	0000f317          	auipc	t1,0xf
2000010c:	15030313          	addi	t1,t1,336 # 2000f258 <_DATA_LMA_START>
20000110:	e0080397          	auipc	t2,0xe0080
20000114:	ef038393          	addi	t2,t2,-272 # 80000 <cst_libm_sincosf>
20000118:	e0080e17          	auipc	t3,0xe0080
2000011c:	f14e0e13          	addi	t3,t3,-236 # 8002c <_DATA_VMA_END>

20000120 <_DATA_INIT_BEGIN>:
20000120:	01c3f963          	bgeu	t2,t3,20000132 <_ZERO_BSS>
20000124:	00032283          	lw	t0,0(t1)
20000128:	0053a023          	sw	t0,0(t2)
2000012c:	0311                	c.addi	t1,4
2000012e:	0391                	c.addi	t2,4
20000130:	bfc5                	c.j	20000120 <_DATA_INIT_BEGIN>

20000132 <_ZERO_BSS>:
20000132:	000002b7          	lui	t0,0x0
20000136:	e0080397          	auipc	t2,0xe0080
2000013a:	efa38393          	addi	t2,t2,-262 # 80030 <_BSS_VMA_START>
2000013e:	e0080e17          	auipc	t3,0xe0080
20000142:	f32e0e13          	addi	t3,t3,-206 # 80070 <_BSS_VMA_END>

20000146 <_ZERO_BSS_BEGIN>:
20000146:	01c3f663          	bgeu	t2,t3,20000152 <_ZERO_AES>
2000014a:	0053a023          	sw	t0,0(t2)
2000014e:	0391                	c.addi	t2,4
20000150:	bfdd                	c.j	20000146 <_ZERO_BSS_BEGIN>

20000152 <_ZERO_AES>:
20000152:	000002b7          	lui	t0,0x0
20000156:	e0000397          	auipc	t2,0xe0000
2000015a:	00238393          	addi	t2,t2,2 # 158 <_AES_VMA_END>
2000015e:	e0000e17          	auipc	t3,0xe0000
20000162:	ffae0e13          	addi	t3,t3,-6 # 158 <_AES_VMA_END>

20000166 <_ZERO_AES_BEGIN>:
20000166:	01c3f663          	bgeu	t2,t3,20000172 <_FILL_STK>
2000016a:	0053a023          	sw	t0,0(t2)
2000016e:	0391                	c.addi	t2,4
20000170:	bfdd                	c.j	20000166 <_ZERO_AES_BEGIN>

20000172 <_FILL_STK>:
20000172:	0001                	c.nop
20000174:	00002297          	auipc	t0,0x2
20000178:	db028293          	addi	t0,t0,-592 # 20001f24 <main>
2000017c:	9282                	c.jalr	t0
2000017e:	0001                	c.nop
20000180:	0001                	c.nop
20000182:	0001                	c.nop
20000184:	0001                	c.nop
20000186:	0001                	c.nop

20000188 <_END>:
20000188:	a001                	c.j	20000188 <_END>

Disassembly of section .retention_reset:

00000000 <_IRESET_ENTRY>:
   0:	a00d                	c.j	22 <_ISTART>
	...

00000022 <_ISTART>:
  22:	00080197          	auipc	gp,0x80
  26:	7de18193          	addi	gp,gp,2014 # 80800 <__global_pointer$>

0000002a <_ISWS_USB_DIS>:
  2a:	801002b7          	lui	t0,0x80100
  2e:	70028293          	addi	t0,t0,1792 # 80100700 <_DATA_LMA_START+0x600f14a8>
  32:	04000313          	li	t1,64
  36:	506280a3          	sb	t1,1281(t0)
  3a:	000a0297          	auipc	t0,0xa0
  3e:	fc628293          	addi	t0,t0,-58 # a0000 <_STACK_TOP>
  42:	8116                	c.mv	sp,t0
  44:	00000297          	auipc	t0,0x0
  48:	fbc28293          	addi	t0,t0,-68 # 0 <_IRESET_ENTRY>
  4c:	80029073          	csrw	uitb,t0
  50:	6299                	c.lui	t0,0x6
  52:	3002a2f3          	csrrs	t0,mstatus,t0
  56:	00301073          	fssr	zero
  5a:	00001297          	auipc	t0,0x1
  5e:	1a628293          	addi	t0,t0,422 # 1200 <__vectors>
  62:	30529073          	csrw	mtvec,t0
  66:	7d016073          	csrsi	mmisc_ctl,2
  6a:	e40002b7          	lui	t0,0xe4000
  6e:	4309                	c.li	t1,2
  70:	0062a023          	sw	t1,0(t0) # e4000000 <_DATA_LMA_START+0xc3ff0da8>
  74:	7ca022f3          	csrr	t0,mcache_ctl
  78:	0012e293          	ori	t0,t0,1
  7c:	0022e293          	ori	t0,t0,2
  80:	7ca29073          	csrw	mcache_ctl,t0
  84:	0000100f          	fence.i

00000088 <_WAKEUP_FLASH>:
  88:	801402b7          	lui	t0,0x80140
  8c:	0ff00313          	li	t1,255
  90:	4381                	c.li	t2,0
  92:	0ab00e13          	li	t3,171
  96:	326284a3          	sb	t1,809(t0) # 80140329 <_DATA_LMA_START+0x601310d1>
  9a:	107280a3          	sb	t2,257(t0)
  9e:	11c28023          	sb	t3,256(t0)

000000a2 <_MSPI_WAIT>:
  a2:	801402b7          	lui	t0,0x80140
  a6:	10228383          	lb	t2,258(t0) # 80140102 <_DATA_LMA_START+0x60130eaa>
  aa:	4e05                	c.li	t3,1
  ac:	4ec1                	c.li	t4,16
  ae:	fe7e0ae3          	beq	t3,t2,a2 <_MSPI_WAIT>
  b2:	11d280a3          	sb	t4,257(t0)
  b6:	4281                	c.li	t0,0
  b8:	14000313          	li	t1,320

000000bc <_WAIT_EFUSE_LOAD_AND_FLASH_WAKEUP_FINISH>:
  bc:	0285                	c.addi	t0,1
  be:	fe537fe3          	bgeu	t1,t0,bc <_WAIT_EFUSE_LOAD_AND_FLASH_WAKEUP_FINISH>

000000c2 <_MULTI_ADDRESS_BEGIN>:
  c2:	801402b7          	lui	t0,0x80140
  c6:	1b800313          	li	t1,440
  ca:	00032383          	lw	t2,0(t1)
  ce:	1072a223          	sw	t2,260(t0) # 80140104 <_DATA_LMA_START+0x60130eac>

000000d2 <_IZERO_BSS>:
  d2:	000002b7          	lui	t0,0x0
  d6:	00080397          	auipc	t2,0x80
  da:	f5a38393          	addi	t2,t2,-166 # 80030 <_BSS_VMA_START>
  de:	00080e17          	auipc	t3,0x80
  e2:	f92e0e13          	addi	t3,t3,-110 # 80070 <_BSS_VMA_END>

000000e6 <_IZERO_BSS_BEGIN>:
  e6:	01c3f663          	bgeu	t2,t3,f2 <_IZERO_AES>
  ea:	0053a023          	sw	t0,0(t2)
  ee:	0391                	c.addi	t2,4
  f0:	bfdd                	c.j	e6 <_IZERO_BSS_BEGIN>

000000f2 <_IZERO_AES>:
  f2:	000002b7          	lui	t0,0x0
  f6:	00000397          	auipc	t2,0x0
  fa:	06238393          	addi	t2,t2,98 # 158 <_AES_VMA_END>
  fe:	00000e17          	auipc	t3,0x0
 102:	05ae0e13          	addi	t3,t3,90 # 158 <_AES_VMA_END>

00000106 <_IZERO_AES_BEGIN>:
 106:	01c3f663          	bgeu	t2,t3,112 <_IDATA_INIT>
 10a:	0053a023          	sw	t0,0(t2)
 10e:	0391                	c.addi	t2,4
 110:	bfdd                	c.j	106 <_IZERO_AES_BEGIN>

00000112 <_IDATA_INIT>:
 112:	2000f317          	auipc	t1,0x2000f
 116:	14630313          	addi	t1,t1,326 # 2000f258 <_DATA_LMA_START>
 11a:	00080397          	auipc	t2,0x80
 11e:	ee638393          	addi	t2,t2,-282 # 80000 <cst_libm_sincosf>
 122:	00080e17          	auipc	t3,0x80
 126:	f0ae0e13          	addi	t3,t3,-246 # 8002c <_DATA_VMA_END>

0000012a <_IDATA_INIT_BEGIN>:
 12a:	01c3f963          	bgeu	t2,t3,13c <_IMAIN_FUNC>
 12e:	00032283          	lw	t0,0(t1)
 132:	0053a023          	sw	t0,0(t2)
 136:	0311                	c.addi	t1,4
 138:	0391                	c.addi	t2,4
 13a:	bfc5                	c.j	12a <_IDATA_INIT_BEGIN>

0000013c <_IMAIN_FUNC>:
 13c:	0001                	c.nop
 13e:	20002297          	auipc	t0,0x20002
 142:	de628293          	addi	t0,t0,-538 # 20001f24 <main>
 146:	9282                	c.jalr	t0
 148:	0001                	c.nop
 14a:	0001                	c.nop
 14c:	0001                	c.nop
 14e:	0001                	c.nop
 150:	0001                	c.nop

00000152 <_IEND>:
 152:	a001                	c.j	152 <_IEND>

Disassembly of section .ram_code:

00000200 <flash_send_addr>:
     200:	5d05275b          	bfoz	a4,a0,23,16
     204:	801407b7          	lui	a5,0x80140
     208:	10e78023          	sb	a4,256(a5) # 80140100 <_DATA_LMA_START+0x60130ea8>
     20c:	801407b7          	lui	a5,0x80140
     210:	10278783          	lb	a5,258(a5) # 80140102 <_DATA_LMA_START+0x60130eaa>
     214:	fe07fc5b          	bbs	a5,0,20c <flash_send_addr+0xc>
     218:	3c8527db          	bfoz	a5,a0,15,8
     21c:	80140737          	lui	a4,0x80140
     220:	10f70023          	sb	a5,256(a4) # 80140100 <_DATA_LMA_START+0x60130ea8>
     224:	801407b7          	lui	a5,0x80140
     228:	10278783          	lb	a5,258(a5) # 80140102 <_DATA_LMA_START+0x60130eaa>
     22c:	fe07fc5b          	bbs	a5,0,224 <flash_send_addr+0x24>
     230:	0ff57513          	andi	a0,a0,255
     234:	801407b7          	lui	a5,0x80140
     238:	10a78023          	sb	a0,256(a5) # 80140100 <_DATA_LMA_START+0x60130ea8>
     23c:	801407b7          	lui	a5,0x80140
     240:	10278783          	lb	a5,258(a5) # 80140102 <_DATA_LMA_START+0x60130eaa>
     244:	fe07fc5b          	bbs	a5,0,23c <flash_send_addr+0x3c>
     248:	00008067          	ret

0000024c <flash_send_cmd>:
     24c:	801407b7          	lui	a5,0x80140
     250:	10178703          	lb	a4,257(a5) # 80140101 <_DATA_LMA_START+0x60130ea9>
     254:	0ff77713          	andi	a4,a4,255
     258:	01076713          	ori	a4,a4,16
     25c:	10e780a3          	sb	a4,257(a5)
     260:	0001                	c.nop
     262:	0001                	c.nop
     264:	0001                	c.nop
     266:	0001                	c.nop
     268:	0001                	c.nop
     26a:	0001                	c.nop
     26c:	0001                	c.nop
     26e:	0001                	c.nop
     270:	0001                	c.nop
     272:	0001                	c.nop
     274:	10178703          	lb	a4,257(a5)
     278:	0ef77713          	andi	a4,a4,239
     27c:	10e780a3          	sb	a4,257(a5)
     280:	10a78023          	sb	a0,256(a5)
     284:	801407b7          	lui	a5,0x80140
     288:	10278783          	lb	a5,258(a5) # 80140102 <_DATA_LMA_START+0x60130eaa>
     28c:	fe07fc5b          	bbs	a5,0,284 <flash_send_cmd+0x38>
     290:	00008067          	ret

00000294 <clock_set_32k_tick>:
     294:	80140737          	lui	a4,0x80140
     298:	20a70783          	lb	a5,522(a4) # 8014020a <_DATA_LMA_START+0x60130fb2>
     29c:	0ff7f793          	andi	a5,a5,255
     2a0:	0017e793          	ori	a5,a5,1
     2a4:	20f70523          	sb	a5,522(a4)
     2a8:	801407b7          	lui	a5,0x80140
     2ac:	20b78783          	lb	a5,523(a5) # 8014020b <_DATA_LMA_START+0x60130fb3>
     2b0:	fe67fc5b          	bbs	a5,6,2a8 <clock_set_32k_tick+0x14>
     2b4:	801407b7          	lui	a5,0x80140
     2b8:	20a7a623          	sw	a0,524(a5) # 8014020c <_DATA_LMA_START+0x60130fb4>
     2bc:	4721                	c.li	a4,8
     2be:	20e785a3          	sb	a4,523(a5)
     2c2:	0001                	c.nop
     2c4:	0001                	c.nop
     2c6:	0001                	c.nop
     2c8:	0001                	c.nop
     2ca:	0001                	c.nop
     2cc:	0001                	c.nop
     2ce:	0001                	c.nop
     2d0:	0001                	c.nop
     2d2:	0001                	c.nop
     2d4:	0001                	c.nop
     2d6:	0001                	c.nop
     2d8:	0001                	c.nop
     2da:	0001                	c.nop
     2dc:	0001                	c.nop
     2de:	0001                	c.nop
     2e0:	00000013          	nop
     2e4:	801407b7          	lui	a5,0x80140
     2e8:	20b78783          	lb	a5,523(a5) # 8014020b <_DATA_LMA_START+0x60130fb3>
     2ec:	fe37fc5b          	bbs	a5,3,2e4 <clock_set_32k_tick+0x50>
     2f0:	00008067          	ret

000002f4 <plic_exit_critical_sec>:
     2f4:	000007b7          	lui	a5,0x0
     2f8:	15878793          	addi	a5,a5,344 # 158 <_AES_VMA_END>
     2fc:	00478783          	lb	a5,4(a5)
     300:	0ff7f793          	andi	a5,a5,255
     304:	c795                	c.beqz	a5,330 <plic_exit_critical_sec+0x3c>
     306:	c50d                	c.beqz	a0,330 <plic_exit_critical_sec+0x3c>
     308:	300027f3          	csrr	a5,mstatus
     30c:	8ba1                	c.andi	a5,8
     30e:	0ff5f593          	andi	a1,a1,255
     312:	c78d                	c.beqz	a5,33c <plic_exit_critical_sec+0x48>
     314:	30047773          	csrrci	a4,mstatus,8
     318:	0ff0000f          	fence
     31c:	e4200737          	lui	a4,0xe4200
     320:	c30c                	c.sw	a1,0(a4)
     322:	0ff0000f          	fence
     326:	3007a7f3          	csrrs	a5,mstatus,a5
     32a:	0ff0000f          	fence
     32e:	8082                	c.jr	ra
     330:	cd81                	c.beqz	a1,348 <plic_exit_critical_sec+0x54>
     332:	3005a5f3          	csrrs	a1,mstatus,a1
     336:	0ff0000f          	fence
     33a:	8082                	c.jr	ra
     33c:	e42007b7          	lui	a5,0xe4200
     340:	00b7a023          	sw	a1,0(a5) # e4200000 <_DATA_LMA_START+0xc41f0da8>
     344:	0ff0000f          	fence
     348:	00008067          	ret

0000034c <plic_enter_critical_sec>:
     34c:	000007b7          	lui	a5,0x0
     350:	15878793          	addi	a5,a5,344 # 158 <_AES_VMA_END>
     354:	00478783          	lb	a5,4(a5)
     358:	0ff7f793          	andi	a5,a5,255
     35c:	cb85                	c.beqz	a5,38c <plic_enter_critical_sec+0x40>
     35e:	c51d                	c.beqz	a0,38c <plic_enter_critical_sec+0x40>
     360:	e4200737          	lui	a4,0xe4200
     364:	4308                	c.lw	a0,0(a4)
     366:	04b57163          	bgeu	a0,a1,3a8 <plic_enter_critical_sec+0x5c>
     36a:	300027f3          	csrr	a5,mstatus
     36e:	8ba1                	c.andi	a5,8
     370:	cb85                	c.beqz	a5,3a0 <plic_enter_critical_sec+0x54>
     372:	300476f3          	csrrci	a3,mstatus,8
     376:	0ff0000f          	fence
     37a:	c30c                	c.sw	a1,0(a4)
     37c:	0ff0000f          	fence
     380:	3007a7f3          	csrrs	a5,mstatus,a5
     384:	0ff0000f          	fence
     388:	00008067          	ret
     38c:	30002573          	csrr	a0,mstatus
     390:	8921                	c.andi	a0,8
     392:	c919                	c.beqz	a0,3a8 <plic_enter_critical_sec+0x5c>
     394:	300477f3          	csrrci	a5,mstatus,8
     398:	0ff0000f          	fence
     39c:	00008067          	ret
     3a0:	00b72023          	sw	a1,0(a4) # e4200000 <_DATA_LMA_START+0xc41f0da8>
     3a4:	0ff0000f          	fence
     3a8:	00008067          	ret

000003ac <flash_mspi_read_ram>:
     3ac:	1101                	c.addi	sp,-32
     3ae:	ce06                	c.swsp	ra,28(sp)
     3b0:	cc22                	c.swsp	s0,24(sp)
     3b2:	ca26                	c.swsp	s1,20(sp)
     3b4:	c84a                	c.swsp	s2,16(sp)
     3b6:	c64e                	c.swsp	s3,12(sp)
     3b8:	c452                	c.swsp	s4,8(sp)
     3ba:	c256                	c.swsp	s5,4(sp)
     3bc:	c05a                	c.swsp	s6,0(sp)
     3be:	892a                	c.mv	s2,a0
     3c0:	8b2e                	c.mv	s6,a1
     3c2:	8ab2                	c.mv	s5,a2
     3c4:	8a36                	c.mv	s4,a3
     3c6:	843a                	c.mv	s0,a4
     3c8:	84be                	c.mv	s1,a5
     3ca:	000007b7          	lui	a5,0x0
     3ce:	15878793          	addi	a5,a5,344 # 158 <_AES_VMA_END>
     3d2:	0097c583          	lbu	a1,9(a5)
     3d6:	0087c503          	lbu	a0,8(a5)
     3da:	3f8d                	c.jal	34c <plic_enter_critical_sec>
     3dc:	00a009b3          	add	s3,zero,a0
     3e0:	801407b7          	lui	a5,0x80140
     3e4:	10278783          	lb	a5,258(a5) # 80140102 <_DATA_LMA_START+0x60130eaa>
     3e8:	fe07fc5b          	bbs	a5,0,3e0 <flash_mspi_read_ram+0x34>
     3ec:	80140737          	lui	a4,0x80140
     3f0:	10170783          	lb	a5,257(a4) # 80140101 <_DATA_LMA_START+0x60130ea9>
     3f4:	0ff7f793          	andi	a5,a5,255
     3f8:	0107e793          	ori	a5,a5,16
     3fc:	10f700a3          	sb	a5,257(a4)
     400:	801407b7          	lui	a5,0x80140
     404:	32878783          	lb	a5,808(a5) # 80140328 <_DATA_LMA_START+0x601310d0>
     408:	be37fc5b          	bbc	a5,3,400 <flash_mspi_read_ram+0x54>
     40c:	801407b7          	lui	a5,0x80140
     410:	10178703          	lb	a4,257(a5) # 80140101 <_DATA_LMA_START+0x60130ea9>
     414:	0fd77713          	andi	a4,a4,253
     418:	10e780a3          	sb	a4,257(a5)
     41c:	10178703          	lb	a4,257(a5)
     420:	0f377713          	andi	a4,a4,243
     424:	10e780a3          	sb	a4,257(a5)
     428:	854a                	c.mv	a0,s2
     42a:	350d                	c.jal	24c <flash_send_cmd>
     42c:	0eb00793          	li	a5,235
     430:	00f90663          	beq	s2,a5,43c <flash_mspi_read_ram+0x90>
     434:	020a9063          	bnez	s5,454 <flash_mspi_read_ram+0xa8>
     438:	4701                	c.li	a4,0
     43a:	a82d                	c.j	474 <flash_mspi_read_ram+0xc8>
     43c:	80140737          	lui	a4,0x80140
     440:	10170783          	lb	a5,257(a4) # 80140101 <_DATA_LMA_START+0x60130ea9>
     444:	0f37f793          	andi	a5,a5,243
     448:	00c7e793          	ori	a5,a5,12
     44c:	10f700a3          	sb	a5,257(a4)
     450:	fe5ff06f          	j	434 <flash_mspi_read_ram+0x88>
     454:	855a                	c.mv	a0,s6
     456:	336d                	c.jal	200 <flash_send_addr>
     458:	fe1ff06f          	j	438 <flash_mspi_read_ram+0x8c>
     45c:	801407b7          	lui	a5,0x80140
     460:	10078023          	sb	zero,256(a5) # 80140100 <_DATA_LMA_START+0x60130ea8>
     464:	801407b7          	lui	a5,0x80140
     468:	10278783          	lb	a5,258(a5) # 80140102 <_DATA_LMA_START+0x60130eaa>
     46c:	fe07fc5b          	bbs	a5,0,464 <flash_mspi_read_ram+0xb8>
     470:	00170713          	addi	a4,a4,1
     474:	ff4764e3          	bltu	a4,s4,45c <flash_mspi_read_ram+0xb0>
     478:	05b956db          	beqc	s2,59,4c4 <flash_mspi_read_ram+0x118>
     47c:	80140737          	lui	a4,0x80140
     480:	10170783          	lb	a5,257(a4) # 80140101 <_DATA_LMA_START+0x60130ea9>
     484:	0ff7f793          	andi	a5,a5,255
     488:	0027e793          	ori	a5,a5,2
     48c:	10f700a3          	sb	a5,257(a4)
     490:	10070023          	sb	zero,256(a4)
     494:	801407b7          	lui	a5,0x80140
     498:	10278783          	lb	a5,258(a5) # 80140102 <_DATA_LMA_START+0x60130eaa>
     49c:	fe07fc5b          	bbs	a5,0,494 <flash_mspi_read_ram+0xe8>
     4a0:	80140737          	lui	a4,0x80140
     4a4:	10170783          	lb	a5,257(a4) # 80140101 <_DATA_LMA_START+0x60130ea9>
     4a8:	0ff7f793          	andi	a5,a5,255
     4ac:	0017e793          	ori	a5,a5,1
     4b0:	10f700a3          	sb	a5,257(a4)
     4b4:	801407b7          	lui	a5,0x80140
     4b8:	10278783          	lb	a5,258(a5) # 80140102 <_DATA_LMA_START+0x60130eaa>
     4bc:	fe07fc5b          	bbs	a5,0,4b4 <flash_mspi_read_ram+0x108>
     4c0:	4701                	c.li	a4,0
     4c2:	a82d                	c.j	4fc <flash_mspi_read_ram+0x150>
     4c4:	80140737          	lui	a4,0x80140
     4c8:	10170783          	lb	a5,257(a4) # 80140101 <_DATA_LMA_START+0x60130ea9>
     4cc:	0f37f793          	andi	a5,a5,243
     4d0:	0047e793          	ori	a5,a5,4
     4d4:	10f700a3          	sb	a5,257(a4)
     4d8:	fa5ff06f          	j	47c <flash_mspi_read_ram+0xd0>
     4dc:	00140693          	addi	a3,s0,1
     4e0:	801407b7          	lui	a5,0x80140
     4e4:	10078783          	lb	a5,256(a5) # 80140100 <_DATA_LMA_START+0x60130ea8>
     4e8:	00f40023          	sb	a5,0(s0)
     4ec:	801407b7          	lui	a5,0x80140
     4f0:	10278783          	lb	a5,258(a5) # 80140102 <_DATA_LMA_START+0x60130eaa>
     4f4:	fe07fc5b          	bbs	a5,0,4ec <flash_mspi_read_ram+0x140>
     4f8:	0705                	c.addi	a4,1
     4fa:	8436                	c.mv	s0,a3
     4fc:	fe9760e3          	bltu	a4,s1,4dc <flash_mspi_read_ram+0x130>
     500:	80140737          	lui	a4,0x80140
     504:	10170783          	lb	a5,257(a4) # 80140101 <_DATA_LMA_START+0x60130ea9>
     508:	0fe7f793          	andi	a5,a5,254
     50c:	10f700a3          	sb	a5,257(a4)
     510:	0eb00793          	li	a5,235
     514:	00f90463          	beq	s2,a5,51c <flash_mspi_read_ram+0x170>
     518:	01b96adb          	bnec	s2,59,52c <flash_mspi_read_ram+0x180>
     51c:	80140737          	lui	a4,0x80140
     520:	10170783          	lb	a5,257(a4) # 80140101 <_DATA_LMA_START+0x60130ea9>
     524:	0f37f793          	andi	a5,a5,243
     528:	10f700a3          	sb	a5,257(a4)
     52c:	80140737          	lui	a4,0x80140
     530:	10170783          	lb	a5,257(a4) # 80140101 <_DATA_LMA_START+0x60130ea9>
     534:	0ff7f793          	andi	a5,a5,255
     538:	0107e793          	ori	a5,a5,16
     53c:	10f700a3          	sb	a5,257(a4)
     540:	0001                	c.nop
     542:	0001                	c.nop
     544:	0001                	c.nop
     546:	0001                	c.nop
     548:	0001                	c.nop
     54a:	85ce                	c.mv	a1,s3
     54c:	000007b7          	lui	a5,0x0
     550:	1607c503          	lbu	a0,352(a5) # 160 <s_flash_preempt_config>
     554:	da1ff0ef          	jal	ra,2f4 <plic_exit_critical_sec>
     558:	40f2                	c.lwsp	ra,28(sp)
     55a:	4462                	c.lwsp	s0,24(sp)
     55c:	44d2                	c.lwsp	s1,20(sp)
     55e:	4942                	c.lwsp	s2,16(sp)
     560:	49b2                	c.lwsp	s3,12(sp)
     562:	4a22                	c.lwsp	s4,8(sp)
     564:	4a92                	c.lwsp	s5,4(sp)
     566:	4b02                	c.lwsp	s6,0(sp)
     568:	6105                	c.addi16sp	sp,32
     56a:	8082                	c.jr	ra

0000056c <analog_read_reg32>:
     56c:	300027f3          	csrr	a5,mstatus
     570:	8ba1                	c.andi	a5,8
     572:	c789                	c.beqz	a5,57c <analog_read_reg32+0x10>
     574:	30047773          	csrrci	a4,mstatus,8
     578:	0ff0000f          	fence
     57c:	80140737          	lui	a4,0x80140
     580:	00400693          	li	a3,4
     584:	18d701a3          	sb	a3,387(a4) # 80140183 <_DATA_LMA_START+0x60130f2b>
     588:	18a70023          	sb	a0,384(a4)
     58c:	04000693          	li	a3,64
     590:	18d70123          	sb	a3,386(a4)
     594:	80140737          	lui	a4,0x80140
     598:	18270703          	lb	a4,386(a4) # 80140182 <_DATA_LMA_START+0x60130f2a>
     59c:	fe777c5b          	bbs	a4,7,594 <analog_read_reg32+0x28>
     5a0:	80140737          	lui	a4,0x80140
     5a4:	18472503          	lw	a0,388(a4) # 80140184 <_DATA_LMA_START+0x60130f2c>
     5a8:	00078663          	beqz	a5,5b4 <analog_read_reg32+0x48>
     5ac:	3007a7f3          	csrrs	a5,mstatus,a5
     5b0:	0ff0000f          	fence
     5b4:	00008067          	ret

000005b8 <clock_get_32k_tick>:
     5b8:	1141                	c.addi	sp,-16
     5ba:	c606                	c.swsp	ra,12(sp)
     5bc:	c422                	c.swsp	s0,8(sp)
     5be:	06000513          	li	a0,96
     5c2:	376d                	c.jal	56c <analog_read_reg32>
     5c4:	00a00433          	add	s0,zero,a0
     5c8:	06000513          	li	a0,96
     5cc:	fa1ff0ef          	jal	ra,56c <analog_read_reg32>
     5d0:	408507b3          	sub	a5,a0,s0
     5d4:	0017d85b          	beqc	a5,1,5e4 <clock_get_32k_tick+0x2c>
     5d8:	00a41463          	bne	s0,a0,5e0 <clock_get_32k_tick+0x28>
     5dc:	00800533          	add	a0,zero,s0
     5e0:	842a                	c.mv	s0,a0
     5e2:	b7dd                	c.j	5c8 <clock_get_32k_tick+0x10>
     5e4:	40b2                	c.lwsp	ra,12(sp)
     5e6:	4422                	c.lwsp	s0,8(sp)
     5e8:	0141                	c.addi	sp,16
     5ea:	8082                	c.jr	ra

000005ec <pm_stimer_recover>:
     5ec:	1141                	c.addi	sp,-16
     5ee:	80140737          	lui	a4,0x80140
     5f2:	c606                	c.swsp	ra,12(sp)
     5f4:	4789                	c.li	a5,2
     5f6:	20f70c23          	sb	a5,536(a4) # 80140218 <_DATA_LMA_START+0x60130fc0>
     5fa:	20a70783          	lb	a5,522(a4)
     5fe:	0ff7f793          	andi	a5,a5,255
     602:	00c7e793          	ori	a5,a5,12
     606:	20f70523          	sb	a5,522(a4)
     60a:	377d                	c.jal	5b8 <clock_get_32k_tick>
     60c:	000007b7          	lui	a5,0x0
     610:	15878713          	addi	a4,a5,344 # 158 <_AES_VMA_END>
     614:	00a74703          	lbu	a4,10(a4)
     618:	15878793          	addi	a5,a5,344
     61c:	cf01                	c.beqz	a4,634 <pm_stimer_recover+0x48>
     61e:	4bd8                	c.lw	a4,20(a5)
     620:	5fd0                	c.lw	a2,60(a5)
     622:	40e50733          	sub	a4,a0,a4
     626:	4b94                	c.lw	a3,16(a5)
     628:	0705                	c.addi	a4,1
     62a:	8315                	c.srli	a4,0x5
     62c:	c4c716ff          	maddr32	a3,a4,a2
     630:	c7d4                	c.sw	a3,12(a5)
     632:	a829                	c.j	64c <pm_stimer_recover+0x60>
     634:	4bd8                	c.lw	a4,20(a5)
     636:	5fd4                	c.lw	a3,60(a5)
     638:	40e50733          	sub	a4,a0,a4
     63c:	0705                	c.addi	a4,1
     63e:	02d70733          	mul	a4,a4,a3
     642:	4b94                	c.lw	a3,16(a5)
     644:	8315                	c.srli	a4,0x5
     646:	9736                	c.add	a4,a3
     648:	00e7a623          	sw	a4,12(a5)
     64c:	4bd8                	c.lw	a4,20(a5)
     64e:	47d4                	c.lw	a3,12(a5)
     650:	40e50733          	sub	a4,a0,a4
     654:	0705                	c.addi	a4,1
     656:	0505                	c.addi	a0,1
     658:	0685                	c.addi	a3,1
     65a:	d7c8                	c.sw	a0,44(a5)
     65c:	02e7a423          	sw	a4,40(a5)
     660:	80140637          	lui	a2,0x80140
     664:	801407b7          	lui	a5,0x80140
     668:	20d7a023          	sw	a3,512(a5) # 80140200 <_DATA_LMA_START+0x60130fa8>
     66c:	20b60783          	lb	a5,523(a2) # 8014020b <_DATA_LMA_START+0x60130fb3>
     670:	be77fe5b          	bbc	a5,7,66c <pm_stimer_recover+0x80>
     674:	20060c23          	sb	zero,536(a2)
     678:	40b2                	c.lwsp	ra,12(sp)
     67a:	0141                	c.addi	sp,16
     67c:	00008067          	ret

00000680 <analog_write_reg8>:
     680:	30002773          	csrr	a4,mstatus
     684:	8b21                	c.andi	a4,8
     686:	c709                	c.beqz	a4,690 <analog_write_reg8+0x10>
     688:	300477f3          	csrrci	a5,mstatus,8
     68c:	0ff0000f          	fence
     690:	801407b7          	lui	a5,0x80140
     694:	18a78023          	sb	a0,384(a5) # 80140180 <_DATA_LMA_START+0x60130f28>
     698:	18b78223          	sb	a1,388(a5)
     69c:	06000693          	li	a3,96
     6a0:	18d78123          	sb	a3,386(a5)
     6a4:	801407b7          	lui	a5,0x80140
     6a8:	18278783          	lb	a5,386(a5) # 80140182 <_DATA_LMA_START+0x60130f2a>
     6ac:	fe77fc5b          	bbs	a5,7,6a4 <analog_write_reg8+0x24>
     6b0:	801407b7          	lui	a5,0x80140
     6b4:	18078123          	sb	zero,386(a5) # 80140182 <_DATA_LMA_START+0x60130f2a>
     6b8:	00070663          	beqz	a4,6c4 <analog_write_reg8+0x44>
     6bc:	30072773          	csrrs	a4,mstatus,a4
     6c0:	0ff0000f          	fence
     6c4:	00008067          	ret

000006c8 <analog_read_reg8>:
     6c8:	30002773          	csrr	a4,mstatus
     6cc:	8b21                	c.andi	a4,8
     6ce:	c709                	c.beqz	a4,6d8 <analog_read_reg8+0x10>
     6d0:	300477f3          	csrrci	a5,mstatus,8
     6d4:	0ff0000f          	fence
     6d8:	801407b7          	lui	a5,0x80140
     6dc:	18a78023          	sb	a0,384(a5) # 80140180 <_DATA_LMA_START+0x60130f28>
     6e0:	00100693          	li	a3,1
     6e4:	18d781a3          	sb	a3,387(a5)
     6e8:	04000693          	li	a3,64
     6ec:	18d78123          	sb	a3,386(a5)
     6f0:	801407b7          	lui	a5,0x80140
     6f4:	18278783          	lb	a5,386(a5) # 80140182 <_DATA_LMA_START+0x60130f2a>
     6f8:	fe77fc5b          	bbs	a5,7,6f0 <analog_read_reg8+0x28>
     6fc:	801407b7          	lui	a5,0x80140
     700:	18478503          	lb	a0,388(a5) # 80140184 <_DATA_LMA_START+0x60130f2c>
     704:	0ff57513          	andi	a0,a0,255
     708:	00070663          	beqz	a4,714 <analog_read_reg8+0x4c>
     70c:	30072773          	csrrs	a4,mstatus,a4
     710:	0ff0000f          	fence
     714:	00008067          	ret

00000718 <pm_wait_bbpll_done>:
     718:	1101                	c.addi	sp,-32
     71a:	08100513          	li	a0,129
     71e:	cc22                	c.swsp	s0,24(sp)
     720:	ca26                	c.swsp	s1,20(sp)
     722:	c84a                	c.swsp	s2,16(sp)
     724:	ce06                	c.swsp	ra,28(sp)
     726:	374d                	c.jal	6c8 <analog_read_reg8>
     728:	04056593          	ori	a1,a0,64
     72c:	892a                	c.mv	s2,a0
     72e:	0ff5f593          	andi	a1,a1,255
     732:	08100513          	li	a0,129
     736:	0bf97913          	andi	s2,s2,191
     73a:	4481                	c.li	s1,0
     73c:	4475                	c.li	s0,29
     73e:	3789                	c.jal	680 <analog_write_reg8>
     740:	000107a3          	sb	zero,15(sp)
     744:	00f10783          	lb	a5,15(sp)
     748:	0ff7f793          	andi	a5,a5,255
     74c:	02f46063          	bltu	s0,a5,76c <pm_wait_bbpll_done+0x54>
     750:	0001                	c.nop
     752:	00f10783          	lb	a5,15(sp)
     756:	0785                	c.addi	a5,1
     758:	0ff7f793          	andi	a5,a5,255
     75c:	00f107a3          	sb	a5,15(sp)
     760:	00f10783          	lb	a5,15(sp)
     764:	0ff7f793          	andi	a5,a5,255
     768:	fef474e3          	bgeu	s0,a5,750 <pm_wait_bbpll_done+0x38>
     76c:	08800513          	li	a0,136
     770:	f59ff0ef          	jal	ra,6c8 <analog_read_reg8>
     774:	4255765b          	bbs	a0,5,7a0 <pm_wait_bbpll_done+0x88>
     778:	cc95                	c.beqz	s1,7b4 <pm_wait_bbpll_done+0x9c>
     77a:	0414d35b          	beqc	s1,1,7c0 <pm_wait_bbpll_done+0xa8>
     77e:	85ca                	c.mv	a1,s2
     780:	08100513          	li	a0,129
     784:	efdff0ef          	jal	ra,680 <analog_write_reg8>
     788:	0024d65b          	beqc	s1,2,794 <pm_wait_bbpll_done+0x7c>
     78c:	0485                	c.addi	s1,1
     78e:	0ff4f493          	andi	s1,s1,255
     792:	b77d                	c.j	740 <pm_wait_bbpll_done+0x28>
     794:	40f2                	c.lwsp	ra,28(sp)
     796:	4462                	c.lwsp	s0,24(sp)
     798:	44d2                	c.lwsp	s1,20(sp)
     79a:	4942                	c.lwsp	s2,16(sp)
     79c:	6105                	c.addi16sp	sp,32
     79e:	8082                	c.jr	ra
     7a0:	4462                	c.lwsp	s0,24(sp)
     7a2:	40f2                	c.lwsp	ra,28(sp)
     7a4:	44d2                	c.lwsp	s1,20(sp)
     7a6:	85ca                	c.mv	a1,s2
     7a8:	4942                	c.lwsp	s2,16(sp)
     7aa:	08100513          	li	a0,129
     7ae:	6105                	c.addi16sp	sp,32
     7b0:	ed1ff06f          	j	680 <analog_write_reg8>
     7b4:	04600593          	li	a1,70
     7b8:	4505                	c.li	a0,1
     7ba:	35d9                	c.jal	680 <analog_write_reg8>
     7bc:	fd1ff06f          	j	78c <pm_wait_bbpll_done+0x74>
     7c0:	04300593          	li	a1,67
     7c4:	4505                	c.li	a0,1
     7c6:	3d6d                	c.jal	680 <analog_write_reg8>
     7c8:	fc5ff06f          	j	78c <pm_wait_bbpll_done+0x74>

000007cc <pm_sleep_start>:
     7cc:	1101                	c.addi	sp,-32
     7ce:	84bfa72b          	lwgp	a4,-1976 # 80048 <g_chip_version>
     7d2:	000006b7          	lui	a3,0x0
     7d6:	ce06                	c.swsp	ra,28(sp)
     7d8:	cc22                	c.swsp	s0,24(sp)
     7da:	ca26                	c.swsp	s1,20(sp)
     7dc:	0ff00793          	li	a5,255
     7e0:	1986c583          	lbu	a1,408(a3) # 198 <g_pm_suspend_power_cfg>
     7e4:	00f71a63          	bne	a4,a5,7f8 <pm_sleep_start+0x2c>
     7e8:	0fe5f593          	andi	a1,a1,254
     7ec:	07d00513          	li	a0,125
     7f0:	e91ff0ef          	jal	ra,680 <analog_write_reg8>
     7f4:	00c0006f          	j	800 <pm_sleep_start+0x34>
     7f8:	07d00513          	li	a0,125
     7fc:	e85ff0ef          	jal	ra,680 <analog_write_reg8>
     800:	801406b7          	lui	a3,0x80140
     804:	10268783          	lb	a5,258(a3) # 80140102 <_DATA_LMA_START+0x60130eaa>
     808:	fe07fe5b          	bbs	a5,0,804 <pm_sleep_start+0x38>
     80c:	10168703          	lb	a4,257(a3)
     810:	801407b7          	lui	a5,0x80140
     814:	0ff77713          	andi	a4,a4,255
     818:	01076713          	ori	a4,a4,16
     81c:	10e680a3          	sb	a4,257(a3)
     820:	32878703          	lb	a4,808(a5) # 80140328 <_DATA_LMA_START+0x601310d0>
     824:	be377e5b          	bbc	a4,3,820 <pm_sleep_start+0x54>
     828:	10178703          	lb	a4,257(a5)
     82c:	80140437          	lui	s0,0x80140
     830:	0fd77713          	andi	a4,a4,253
     834:	10e780a3          	sb	a4,257(a5)
     838:	10178703          	lb	a4,257(a5)
     83c:	0ef77713          	andi	a4,a4,239
     840:	10e780a3          	sb	a4,257(a5)
     844:	fb900713          	li	a4,-71
     848:	10e78023          	sb	a4,256(a5)
     84c:	10240783          	lb	a5,258(s0) # 80140102 <_DATA_LMA_START+0x60130eaa>
     850:	fe07fe5b          	bbs	a5,0,84c <pm_sleep_start+0x80>
     854:	10140783          	lb	a5,257(s0)
     858:	452d                	c.li	a0,11
     85a:	0ff7f793          	andi	a5,a5,255
     85e:	0107e793          	ori	a5,a5,16
     862:	10f400a3          	sb	a5,257(s0)
     866:	320404a3          	sb	zero,809(s0)
     86a:	3db9                	c.jal	6c8 <analog_read_reg8>
     86c:	0fc57593          	andi	a1,a0,252
     870:	452d                	c.li	a0,11
     872:	3539                	c.jal	680 <analog_write_reg8>
     874:	08100513          	li	a0,129
     878:	e51ff0ef          	jal	ra,6c8 <analog_read_reg8>
     87c:	f8056593          	ori	a1,a0,-128
     880:	0ff5f593          	andi	a1,a1,255
     884:	08100513          	li	a0,129
     888:	df9ff0ef          	jal	ra,680 <analog_write_reg8>
     88c:	f8000793          	li	a5,-128
     890:	1ef407a3          	sb	a5,495(s0)
     894:	03f00493          	li	s1,63
     898:	00012423          	sw	zero,8(sp)
     89c:	47a2                	c.lwsp	a5,8(sp)
     89e:	00f4e763          	bltu	s1,a5,8ac <pm_sleep_start+0xe0>
     8a2:	0001                	c.nop
     8a4:	47a2                	c.lwsp	a5,8(sp)
     8a6:	0785                	c.addi	a5,1
     8a8:	c43e                	c.swsp	a5,8(sp)
     8aa:	bfcd                	c.j	89c <pm_sleep_start+0xd0>
     8ac:	08100513          	li	a0,129
     8b0:	e19ff0ef          	jal	ra,6c8 <analog_read_reg8>
     8b4:	07f57593          	andi	a1,a0,127
     8b8:	08100513          	li	a0,129
     8bc:	dc5ff0ef          	jal	ra,680 <analog_write_reg8>
     8c0:	00b00513          	li	a0,11
     8c4:	e05ff0ef          	jal	ra,6c8 <analog_read_reg8>
     8c8:	00356593          	ori	a1,a0,3
     8cc:	0ff5f593          	andi	a1,a1,255
     8d0:	452d                	c.li	a0,11
     8d2:	337d                	c.jal	680 <analog_write_reg8>
     8d4:	08000593          	li	a1,128
     8d8:	07d00513          	li	a0,125
     8dc:	da5ff0ef          	jal	ra,680 <analog_write_reg8>
     8e0:	801407b7          	lui	a5,0x80140
     8e4:	329784a3          	sb	s1,809(a5) # 80140329 <_DATA_LMA_START+0x601310d1>
     8e8:	10178683          	lb	a3,257(a5)
     8ec:	80140737          	lui	a4,0x80140
     8f0:	0ef6f693          	andi	a3,a3,239
     8f4:	10d780a3          	sb	a3,257(a5)
     8f8:	fab00693          	li	a3,-85
     8fc:	10d78023          	sb	a3,256(a5)
     900:	10270783          	lb	a5,258(a4) # 80140102 <_DATA_LMA_START+0x60130eaa>
     904:	fe07fe5b          	bbs	a5,0,900 <pm_sleep_start+0x134>
     908:	10170783          	lb	a5,257(a4)
     90c:	12b00693          	li	a3,299
     910:	0ff7f793          	andi	a5,a5,255
     914:	0107e793          	ori	a5,a5,16
     918:	10f700a3          	sb	a5,257(a4)
     91c:	00012623          	sw	zero,12(sp)
     920:	47b2                	c.lwsp	a5,12(sp)
     922:	00f6e763          	bltu	a3,a5,930 <pm_sleep_start+0x164>
     926:	0001                	c.nop
     928:	47b2                	c.lwsp	a5,12(sp)
     92a:	0785                	c.addi	a5,1
     92c:	c63e                	c.swsp	a5,12(sp)
     92e:	bfcd                	c.j	920 <pm_sleep_start+0x154>
     930:	08800513          	li	a0,136
     934:	d95ff0ef          	jal	ra,6c8 <analog_read_reg8>
     938:	be757c5b          	bbc	a0,7,930 <pm_sleep_start+0x164>
     93c:	08800513          	li	a0,136
     940:	d89ff0ef          	jal	ra,6c8 <analog_read_reg8>
     944:	be757c5b          	bbc	a0,7,93c <pm_sleep_start+0x170>
     948:	08800513          	li	a0,136
     94c:	d7dff0ef          	jal	ra,6c8 <analog_read_reg8>
     950:	be757c5b          	bbc	a0,7,948 <pm_sleep_start+0x17c>
     954:	4462                	c.lwsp	s0,24(sp)
     956:	40f2                	c.lwsp	ra,28(sp)
     958:	44d2                	c.lwsp	s1,20(sp)
     95a:	6105                	c.addi16sp	sp,32
     95c:	dbdff06f          	j	718 <pm_wait_bbpll_done>

00000960 <dr_putchar>:
     960:	1101                	c.addi	sp,-32
     962:	ce06                	c.swsp	ra,28(sp)
     964:	cc22                	c.swsp	s0,24(sp)
     966:	ca26                	c.swsp	s1,20(sp)
     968:	00a00433          	add	s0,zero,a0
     96c:	81dfa78b          	lbugp	a5,-2020 # 8001c <init_flag.4915>
     970:	0817d85b          	beqc	a5,1,a00 <dr_putchar+0xa0>
     974:	801407b7          	lui	a5,0x80140
     978:	30378703          	lb	a4,771(a5) # 80140303 <_DATA_LMA_START+0x601310ab>
     97c:	0fe77713          	andi	a4,a4,254
     980:	30378783          	lb	a5,771(a5)
     984:	0ff7f793          	andi	a5,a5,255
     988:	0017e793          	ori	a5,a5,1
     98c:	00e10223          	sb	a4,4(sp)
     990:	0a047a5b          	bbc	s0,0,a44 <dr_putchar+0xe4>
     994:	00f006b3          	add	a3,zero,a5
     998:	00d102a3          	sb	a3,5(sp)
     99c:	0a14765b          	bbc	s0,1,a48 <dr_putchar+0xe8>
     9a0:	00f006b3          	add	a3,zero,a5
     9a4:	00d10323          	sb	a3,6(sp)
     9a8:	0a24725b          	bbc	s0,2,a4c <dr_putchar+0xec>
     9ac:	00f006b3          	add	a3,zero,a5
     9b0:	00d103a3          	sb	a3,7(sp)
     9b4:	08347e5b          	bbc	s0,3,a50 <dr_putchar+0xf0>
     9b8:	00f006b3          	add	a3,zero,a5
     9bc:	00d10423          	sb	a3,8(sp)
     9c0:	08447a5b          	bbc	s0,4,a54 <dr_putchar+0xf4>
     9c4:	00f006b3          	add	a3,zero,a5
     9c8:	00d104a3          	sb	a3,9(sp)
     9cc:	0854765b          	bbc	s0,5,a58 <dr_putchar+0xf8>
     9d0:	00f006b3          	add	a3,zero,a5
     9d4:	00d10523          	sb	a3,10(sp)
     9d8:	0864725b          	bbc	s0,6,a5c <dr_putchar+0xfc>
     9dc:	00f006b3          	add	a3,zero,a5
     9e0:	00d105a3          	sb	a3,11(sp)
     9e4:	801d                	c.srli	s0,0x7
     9e6:	c019                	c.beqz	s0,9ec <dr_putchar+0x8c>
     9e8:	00f00733          	add	a4,zero,a5
     9ec:	00e10623          	sb	a4,12(sp)
     9f0:	00f106a3          	sb	a5,13(sp)
     9f4:	801407b7          	lui	a5,0x80140
     9f8:	2007a603          	lw	a2,512(a5) # 80140200 <_DATA_LMA_START+0x60130fa8>
     9fc:	4581                	c.li	a1,0
     9fe:	a849                	c.j	a90 <dr_putchar+0x130>
     a00:	801404b7          	lui	s1,0x80140
     a04:	30648783          	lb	a5,774(s1) # 80140306 <_DATA_LMA_START+0x601310ae>
     a08:	0ff7f793          	andi	a5,a5,255
     a0c:	0017e793          	ori	a5,a5,1
     a10:	30f48323          	sb	a5,774(s1)
     a14:	4585                	c.li	a1,1
     a16:	4505                	c.li	a0,1
     a18:	20001097          	auipc	ra,0x20001
     a1c:	ef0080e7          	jalr	-272(ra) # 20001908 <gpio_set_up_down_res>
     a20:	30248783          	lb	a5,770(s1)
     a24:	0fe7f793          	andi	a5,a5,254
     a28:	30f48123          	sb	a5,770(s1)
     a2c:	30348783          	lb	a5,771(s1)
     a30:	0ff7f793          	andi	a5,a5,255
     a34:	0017e793          	ori	a5,a5,1
     a38:	30f481a3          	sb	a5,771(s1)
     a3c:	800fbe8b          	sbgp	zero,-2020 # 8001c <init_flag.4915>
     a40:	f35ff06f          	j	974 <dr_putchar+0x14>
     a44:	86ba                	c.mv	a3,a4
     a46:	bf89                	c.j	998 <dr_putchar+0x38>
     a48:	86ba                	c.mv	a3,a4
     a4a:	bfa9                	c.j	9a4 <dr_putchar+0x44>
     a4c:	86ba                	c.mv	a3,a4
     a4e:	b78d                	c.j	9b0 <dr_putchar+0x50>
     a50:	86ba                	c.mv	a3,a4
     a52:	b7ad                	c.j	9bc <dr_putchar+0x5c>
     a54:	86ba                	c.mv	a3,a4
     a56:	bf8d                	c.j	9c8 <dr_putchar+0x68>
     a58:	86ba                	c.mv	a3,a4
     a5a:	bfad                	c.j	9d4 <dr_putchar+0x74>
     a5c:	86ba                	c.mv	a3,a4
     a5e:	b749                	c.j	9e0 <dr_putchar+0x80>
     a60:	801407b7          	lui	a5,0x80140
     a64:	2007a703          	lw	a4,512(a5) # 80140200 <_DATA_LMA_START+0x60130fa8>
     a68:	40c707b3          	sub	a5,a4,a2
     a6c:	08900693          	li	a3,137
     a70:	fef6f8e3          	bgeu	a3,a5,a60 <dr_putchar+0x100>
     a74:	0808                	c.addi4spn	a0,sp,16
     a76:	00b507b3          	add	a5,a0,a1
     a7a:	ff47c683          	lbu	a3,-12(a5)
     a7e:	801407b7          	lui	a5,0x80140
     a82:	30d781a3          	sb	a3,771(a5) # 80140303 <_DATA_LMA_START+0x601310ab>
     a86:	0585                	c.addi	a1,1
     a88:	0ff5f593          	andi	a1,a1,255
     a8c:	00e00633          	add	a2,zero,a4
     a90:	47a5                	c.li	a5,9
     a92:	00b7e563          	bltu	a5,a1,a9c <dr_putchar+0x13c>
     a96:	8732                	c.mv	a4,a2
     a98:	fd1ff06f          	j	a68 <dr_putchar+0x108>
     a9c:	40f2                	c.lwsp	ra,28(sp)
     a9e:	4462                	c.lwsp	s0,24(sp)
     aa0:	44d2                	c.lwsp	s1,20(sp)
     aa2:	6105                	c.addi16sp	sp,32
     aa4:	00008067          	ret

00000aa8 <clock_init_ram>:
     aa8:	1101                	c.addi	sp,-32
     aaa:	ce06                	c.swsp	ra,28(sp)
     aac:	cc22                	c.swsp	s0,24(sp)
     aae:	ca26                	c.swsp	s1,20(sp)
     ab0:	c84a                	c.swsp	s2,16(sp)
     ab2:	c64e                	c.swsp	s3,12(sp)
     ab4:	c452                	c.swsp	s4,8(sp)
     ab6:	c256                	c.swsp	s5,4(sp)
     ab8:	c05a                	c.swsp	s6,0(sp)
     aba:	842a                	c.mv	s0,a0
     abc:	892e                	c.mv	s2,a1
     abe:	8ab2                	c.mv	s5,a2
     ac0:	84b6                	c.mv	s1,a3
     ac2:	8a3a                	c.mv	s4,a4
     ac4:	00f009b3          	add	s3,zero,a5
     ac8:	801407b7          	lui	a5,0x80140
     acc:	10278783          	lb	a5,258(a5) # 80140102 <_DATA_LMA_START+0x60130eaa>
     ad0:	fe07fc5b          	bbs	a5,0,ac8 <clock_init_ram+0x20>
     ad4:	80140737          	lui	a4,0x80140
     ad8:	10170783          	lb	a5,257(a4) # 80140101 <_DATA_LMA_START+0x60130ea9>
     adc:	0ff7f793          	andi	a5,a5,255
     ae0:	0107e793          	ori	a5,a5,16
     ae4:	10f700a3          	sb	a5,257(a4)
     ae8:	801407b7          	lui	a5,0x80140
     aec:	32878783          	lb	a5,808(a5) # 80140328 <_DATA_LMA_START+0x601310d0>
     af0:	be37fc5b          	bbc	a5,3,ae8 <clock_init_ram+0x40>
     af4:	80140b37          	lui	s6,0x80140
     af8:	1e8b0783          	lb	a5,488(s6) # 801401e8 <_DATA_LMA_START+0x60130f90>
     afc:	8bbd                	c.andi	a5,15
     afe:	1efb0423          	sb	a5,488(s6)
     b02:	08000513          	li	a0,128
     b06:	36c9                	c.jal	6c8 <analog_read_reg8>
     b08:	0e057593          	andi	a1,a0,224
     b0c:	182427db          	bfoz	a5,s0,6,2
     b10:	8ddd                	c.or	a1,a5
     b12:	08000513          	li	a0,128
     b16:	36ad                	c.jal	680 <analog_write_reg8>
     b18:	00900513          	li	a0,9
     b1c:	badff0ef          	jal	ra,6c8 <analog_read_reg8>
     b20:	0f357593          	andi	a1,a0,243
     b24:	083427db          	bfoz	a5,s0,2,3
     b28:	8ddd                	c.or	a1,a5
     b2a:	4525                	c.li	a0,9
     b2c:	b55ff0ef          	jal	ra,680 <analog_write_reg8>
     b30:	5c84245b          	bfoz	s0,s0,23,8
     b34:	828f80ab          	shgp	s0,-2016 # 80020 <sys_clk>
     b38:	aaaab7b7          	lui	a5,0xaaaab
     b3c:	aab78793          	addi	a5,a5,-1365 # aaaaaaab <_DATA_LMA_START+0x8aa9b853>
     b40:	02f43433          	mulhu	s0,s0,a5
     b44:	3054245b          	bfoz	s0,s0,12,5
     b48:	1e8b0da3          	sb	s0,507(s6)
     b4c:	08100513          	li	a0,129
     b50:	b79ff0ef          	jal	ra,6c8 <analog_read_reg8>
     b54:	04056593          	ori	a1,a0,64
     b58:	0ff5f593          	andi	a1,a1,255
     b5c:	08100513          	li	a0,129
     b60:	b21ff0ef          	jal	ra,680 <analog_write_reg8>
     b64:	08800513          	li	a0,136
     b68:	b61ff0ef          	jal	ra,6c8 <analog_read_reg8>
     b6c:	be557c5b          	bbc	a0,5,b64 <clock_init_ram+0xbc>
     b70:	08100513          	li	a0,129
     b74:	b55ff0ef          	jal	ra,6c8 <analog_read_reg8>
     b78:	0bf57593          	andi	a1,a0,191
     b7c:	08100513          	li	a0,129
     b80:	b01ff0ef          	jal	ra,680 <analog_write_reg8>
     b84:	0c19de5b          	beqc	s3,1,c60 <clock_init_ram+0x1b8>
     b88:	801407b7          	lui	a5,0x80140
     b8c:	1e978703          	lb	a4,489(a5) # 801401e9 <_DATA_LMA_START+0x60130f91>
     b90:	00f77693          	andi	a3,a4,15
     b94:	1079a75b          	bfoz	a4,s3,4,7
     b98:	00d76733          	or	a4,a4,a3
     b9c:	1ee784a3          	sb	a4,489(a5)
     ba0:	1e878703          	lb	a4,488(a5)
     ba4:	f8076713          	ori	a4,a4,-128
     ba8:	0ff77713          	andi	a4,a4,255
     bac:	1ee78423          	sb	a4,488(a5)
     bb0:	1e878703          	lb	a4,488(a5)
     bb4:	f8076713          	ori	a4,a4,-128
     bb8:	0ff77713          	andi	a4,a4,255
     bbc:	1ee78423          	sb	a4,488(a5)
     bc0:	821f978b          	addigp	a5,-2016 # 80020 <sys_clk>
     bc4:	0007d703          	lhu	a4,0(a5)
     bc8:	03374733          	div	a4,a4,s3
     bcc:	00e782a3          	sb	a4,5(a5)
     bd0:	0a14d25b          	beqc	s1,1,c74 <clock_init_ram+0x1cc>
     bd4:	80140737          	lui	a4,0x80140
     bd8:	1d870783          	lb	a5,472(a4) # 801401d8 <_DATA_LMA_START+0x60130f80>
     bdc:	0ff7f793          	andi	a5,a5,255
     be0:	0047e793          	ori	a5,a5,4
     be4:	1cf70c23          	sb	a5,472(a4)
     be8:	0a1a505b          	beqc	s4,1,c88 <clock_init_ram+0x1e0>
     bec:	801406b7          	lui	a3,0x80140
     bf0:	1d868703          	lb	a4,472(a3) # 801401d8 <_DATA_LMA_START+0x60130f80>
     bf4:	001a5793          	srli	a5,s4,0x1
     bf8:	0fc77713          	andi	a4,a4,252
     bfc:	00e7e7b3          	or	a5,a5,a4
     c00:	1cf68c23          	sb	a5,472(a3)
     c04:	08295c5b          	beqc	s2,2,c9c <clock_init_ram+0x1f4>
     c08:	0a395e5b          	beqc	s2,3,cc4 <clock_init_ram+0x21c>
     c0c:	01800713          	li	a4,24
     c10:	82efb18b          	sbgp	a4,-2014 # 80022 <sys_clk+0x2>
     c14:	80140737          	lui	a4,0x80140
     c18:	1e870783          	lb	a5,488(a4) # 801401e8 <_DATA_LMA_START+0x60130f90>
     c1c:	f8f7f793          	andi	a5,a5,-113
     c20:	00491913          	slli	s2,s2,0x4
     c24:	0127e933          	or	s2,a5,s2
     c28:	0ff97913          	andi	s2,s2,255
     c2c:	1f270423          	sb	s2,488(a4)
     c30:	821f978b          	addigp	a5,-2016 # 80020 <sys_clk>
     c34:	0027c703          	lbu	a4,2(a5)
     c38:	029754b3          	divu	s1,a4,s1
     c3c:	009781a3          	sb	s1,3(a5)
     c40:	0344d4b3          	divu	s1,s1,s4
     c44:	00978223          	sb	s1,4(a5)
     c48:	0819d65b          	beqc	s3,1,cd4 <clock_init_ram+0x22c>
     c4c:	40f2                	c.lwsp	ra,28(sp)
     c4e:	4462                	c.lwsp	s0,24(sp)
     c50:	44d2                	c.lwsp	s1,20(sp)
     c52:	4942                	c.lwsp	s2,16(sp)
     c54:	49b2                	c.lwsp	s3,12(sp)
     c56:	4a22                	c.lwsp	s4,8(sp)
     c58:	4a92                	c.lwsp	s5,4(sp)
     c5a:	4b02                	c.lwsp	s6,0(sp)
     c5c:	6105                	c.addi16sp	sp,32
     c5e:	8082                	c.jr	ra
     c60:	80140737          	lui	a4,0x80140
     c64:	1e870783          	lb	a5,488(a4) # 801401e8 <_DATA_LMA_START+0x60130f90>
     c68:	07f7f793          	andi	a5,a5,127
     c6c:	1ef70423          	sb	a5,488(a4)
     c70:	f61ff06f          	j	bd0 <clock_init_ram+0x128>
     c74:	80140737          	lui	a4,0x80140
     c78:	1d870783          	lb	a5,472(a4) # 801401d8 <_DATA_LMA_START+0x60130f80>
     c7c:	0fb7f793          	andi	a5,a5,251
     c80:	1cf70c23          	sb	a5,472(a4)
     c84:	f65ff06f          	j	be8 <clock_init_ram+0x140>
     c88:	80140737          	lui	a4,0x80140
     c8c:	1d870783          	lb	a5,472(a4) # 801401d8 <_DATA_LMA_START+0x60130f80>
     c90:	0fc7f793          	andi	a5,a5,252
     c94:	1cf70c23          	sb	a5,472(a4)
     c98:	f6dff06f          	j	c04 <clock_init_ram+0x15c>
     c9c:	80140737          	lui	a4,0x80140
     ca0:	1e870783          	lb	a5,488(a4) # 801401e8 <_DATA_LMA_START+0x60130f90>
     ca4:	0f07f793          	andi	a5,a5,240
     ca8:	0157e7b3          	or	a5,a5,s5
     cac:	1ef70423          	sb	a5,488(a4)
     cb0:	821f978b          	addigp	a5,-2016 # 80020 <sys_clk>
     cb4:	0007d703          	lhu	a4,0(a5)
     cb8:	03574ab3          	div	s5,a4,s5
     cbc:	01578123          	sb	s5,2(a5)
     cc0:	f55ff06f          	j	c14 <clock_init_ram+0x16c>
     cc4:	821f978b          	addigp	a5,-2016 # 80020 <sys_clk>
     cc8:	0007d703          	lhu	a4,0(a5)
     ccc:	00e78123          	sb	a4,2(a5)
     cd0:	f45ff06f          	j	c14 <clock_init_ram+0x16c>
     cd4:	82eff28b          	sbgp	a4,-2011 # 80025 <sys_clk+0x5>
     cd8:	f75ff06f          	j	c4c <clock_init_ram+0x1a4>

00000cdc <pm_sleep_wakeup_ram.constprop.1>:
     cdc:	1101                	c.addi	sp,-32
     cde:	c452                	c.swsp	s4,8(sp)
     ce0:	8a2a                	c.mv	s4,a0
     ce2:	ce06                	c.swsp	ra,28(sp)
     ce4:	cc22                	c.swsp	s0,24(sp)
     ce6:	ca26                	c.swsp	s1,20(sp)
     ce8:	c84a                	c.swsp	s2,16(sp)
     cea:	c64e                	c.swsp	s3,12(sp)
     cec:	c256                	c.swsp	s5,4(sp)
     cee:	c05a                	c.swsp	s6,0(sp)
     cf0:	300029f3          	csrr	s3,mstatus
     cf4:	0089f993          	andi	s3,s3,8
     cf8:	00098663          	beqz	s3,d04 <pm_sleep_wakeup_ram.constprop.1+0x28>
     cfc:	300477f3          	csrrci	a5,mstatus,8
     d00:	0ff0000f          	fence
     d04:	801407b7          	lui	a5,0x80140
     d08:	2147a683          	lw	a3,532(a5) # 80140214 <_DATA_LMA_START+0x60130fbc>
     d0c:	def5                	c.beqz	a3,d08 <pm_sleep_wakeup_ram.constprop.1+0x2c>
     d0e:	00000437          	lui	s0,0x0
     d12:	15840693          	addi	a3,s0,344 # 158 <_AES_VMA_END>
     d16:	2147a783          	lw	a5,532(a5)
     d1a:	52d8                	c.lw	a4,36(a3)
     d1c:	dadc                	c.sw	a5,52(a3)
     d1e:	15840413          	addi	s0,s0,344
     d22:	0792                	c.slli	a5,0x4
     d24:	cb11                	c.beqz	a4,d38 <pm_sleep_wakeup_ram.constprop.1+0x5c>
     d26:	03844603          	lbu	a2,56(s0)
     d2a:	4691                	c.li	a3,4
     d2c:	8f99                	c.sub	a5,a4
     d2e:	8e91                	c.sub	a3,a2
     d30:	40d7d7b3          	sra	a5,a5,a3
     d34:	00e787b3          	add	a5,a5,a4
     d38:	d05c                	c.sw	a5,36(s0)
     d3a:	5044                	c.lw	s1,36(s0)
     d3c:	4c1c                	c.lw	a5,24(s0)
     d3e:	8491                	c.srai	s1,0x4
     d40:	02f487b3          	mul	a5,s1,a5
     d44:	80140937          	lui	s2,0x80140
     d48:	20092a83          	lw	s5,512(s2) # 80140200 <_DATA_LMA_START+0x60130fa8>
     d4c:	e0000737          	lui	a4,0xe0000
     d50:	415a0ab3          	sub	s5,s4,s5
     d54:	87c9                	c.srai	a5,0x12
     d56:	94be                	c.add	s1,a5
     d58:	0486                	c.slli	s1,0x1
     d5a:	dc44                	c.sw	s1,60(s0)
     d5c:	03577063          	bgeu	a4,s5,d7c <pm_sleep_wakeup_ram.constprop.1+0xa0>
     d60:	00098663          	beqz	s3,d6c <pm_sleep_wakeup_ram.constprop.1+0x90>
     d64:	3009a9f3          	csrrs	s3,mstatus,s3
     d68:	0ff0000f          	fence
     d6c:	06400513          	li	a0,100
     d70:	959ff0ef          	jal	ra,6c8 <analog_read_reg8>
     d74:	01f57513          	andi	a0,a0,31
     d78:	2640006f          	j	fdc <pm_sleep_wakeup_ram.constprop.1+0x300>
     d7c:	04a41783          	lh	a5,74(s0)
     d80:	1137a7db          	bfoz	a5,a5,4,19
     d84:	02fafe63          	bgeu	s5,a5,dc0 <pm_sleep_wakeup_ram.constprop.1+0xe4>
     d88:	45fd                	c.li	a1,31
     d8a:	06400513          	li	a0,100
     d8e:	801404b7          	lui	s1,0x80140
     d92:	20092403          	lw	s0,512(s2)
     d96:	30ed                	c.jal	680 <analog_write_reg8>
     d98:	06400513          	li	a0,100
     d9c:	92dff0ef          	jal	ra,6c8 <analog_read_reg8>
     da0:	2004a783          	lw	a5,512(s1) # 80140200 <_DATA_LMA_START+0x60130fa8>
     da4:	897d                	c.andi	a0,31
     da6:	8f81                	c.sub	a5,s0
     da8:	0157f463          	bgeu	a5,s5,db0 <pm_sleep_wakeup_ram.constprop.1+0xd4>
     dac:	fe0506e3          	beqz	a0,d98 <pm_sleep_wakeup_ram.constprop.1+0xbc>
     db0:	22098663          	beqz	s3,fdc <pm_sleep_wakeup_ram.constprop.1+0x300>
     db4:	3009a9f3          	csrrs	s3,mstatus,s3
     db8:	0ff0000f          	fence
     dbc:	2200006f          	j	fdc <pm_sleep_wakeup_ram.constprop.1+0x300>
     dc0:	1e890a83          	lb	s5,488(s2)
     dc4:	00faf793          	andi	a5,s5,15
     dc8:	1ef90423          	sb	a5,488(s2)
     dcc:	1d890b03          	lb	s6,472(s2)
     dd0:	0f8b7793          	andi	a5,s6,248
     dd4:	1cf90c23          	sb	a5,472(s2)
     dd8:	00100793          	li	a5,1
     ddc:	20f90c23          	sb	a5,536(s2)
     de0:	20a90783          	lb	a5,522(s2)
     de4:	0f77f793          	andi	a5,a5,247
     de8:	20f90523          	sb	a5,522(s2)
     dec:	fccff0ef          	jal	ra,5b8 <clock_get_32k_tick>
     df0:	20092703          	lw	a4,512(s2)
     df4:	20b90783          	lb	a5,523(s2)
     df8:	5454                	c.lw	a3,44(s0)
     dfa:	0ff7f793          	andi	a5,a5,255
     dfe:	0027e793          	ori	a5,a5,2
     e02:	c468                	c.sw	a0,76(s0)
     e04:	c458                	c.sw	a4,12(s0)
     e06:	03844603          	lbu	a2,56(s0)
     e0a:	40d506b3          	sub	a3,a0,a3
     e0e:	20f905a3          	sb	a5,523(s2)
     e12:	d814                	c.sw	a3,48(s0)
     e14:	e215                	c.bnez	a2,e38 <pm_sleep_wakeup_ram.constprop.1+0x15c>
     e16:	481c                	c.lw	a5,16(s0)
     e18:	c385                	c.beqz	a5,e38 <pm_sleep_wakeup_ram.constprop.1+0x15c>
     e1a:	05044783          	lbu	a5,80(s0)
     e1e:	ef89                	c.bnez	a5,e38 <pm_sleep_wakeup_ram.constprop.1+0x15c>
     e20:	01442783          	lw	a5,20(s0)
     e24:	000276b7          	lui	a3,0x27
     e28:	40f507b3          	sub	a5,a0,a5
     e2c:	6c07a7db          	bfoz	a5,a5,27,0
     e30:	10068693          	addi	a3,a3,256 # 27100 <BIN_SIZE+0x17e5a>
     e34:	00f6f863          	bgeu	a3,a5,e44 <pm_sleep_wakeup_ram.constprop.1+0x168>
     e38:	00176713          	ori	a4,a4,1
     e3c:	02040c23          	sb	zero,56(s0)
     e40:	c848                	c.sw	a0,20(s0)
     e42:	c818                	c.sw	a4,16(s0)
     e44:	02000593          	li	a1,32
     e48:	04b00513          	li	a0,75
     e4c:	835ff0ef          	jal	ra,680 <analog_write_reg8>
     e50:	01f00593          	li	a1,31
     e54:	06400513          	li	a0,100
     e58:	829ff0ef          	jal	ra,680 <analog_write_reg8>
     e5c:	03000593          	li	a1,48
     e60:	07e00513          	li	a0,126
     e64:	81dff0ef          	jal	ra,680 <analog_write_reg8>
     e68:	0f900593          	li	a1,249
     e6c:	04d00513          	li	a0,77
     e70:	811ff0ef          	jal	ra,680 <analog_write_reg8>
     e74:	00100593          	li	a1,1
     e78:	07f00513          	li	a0,127
     e7c:	805ff0ef          	jal	ra,680 <analog_write_reg8>
     e80:	04841783          	lh	a5,72(s0)
     e84:	0ee00593          	li	a1,238
     e88:	1137a7db          	bfoz	a5,a5,4,19
     e8c:	04c00513          	li	a0,76
     e90:	40fa0933          	sub	s2,s4,a5
     e94:	fecff0ef          	jal	ra,680 <analog_write_reg8>
     e98:	05441583          	lh	a1,84(s0)
     e9c:	04000513          	li	a0,64
     ea0:	0ff5f593          	andi	a1,a1,255
     ea4:	fdcff0ef          	jal	ra,680 <analog_write_reg8>
     ea8:	481c                	c.lw	a5,16(s0)
     eaa:	07ff0737          	lui	a4,0x7ff0
     eae:	40f907b3          	sub	a5,s2,a5
     eb2:	00f77763          	bgeu	a4,a5,ec0 <pm_sleep_wakeup_ram.constprop.1+0x1e4>
     eb6:	4705                	c.li	a4,1
     eb8:	00e40523          	sb	a4,10(s0)
     ebc:	0080006f          	j	ec4 <pm_sleep_wakeup_ram.constprop.1+0x1e8>
     ec0:	00040523          	sb	zero,10(s0)
     ec4:	00a44683          	lbu	a3,10(s0)
     ec8:	4848                	c.lw	a0,20(s0)
     eca:	5c58                	c.lw	a4,60(s0)
     ecc:	c691                	c.beqz	a3,ed8 <pm_sleep_wakeup_ram.constprop.1+0x1fc>
     ece:	02e7d7b3          	divu	a5,a5,a4
     ed2:	0796                	c.slli	a5,0x5
     ed4:	953e                	c.add	a0,a5
     ed6:	a039                	c.j	ee4 <pm_sleep_wakeup_ram.constprop.1+0x208>
     ed8:	8085                	c.srli	s1,0x1
     eda:	0796                	c.slli	a5,0x5
     edc:	97a6                	c.add	a5,s1
     ede:	02e7d7b3          	divu	a5,a5,a4
     ee2:	953e                	c.add	a0,a5
     ee4:	bb0ff0ef          	jal	ra,294 <clock_set_32k_tick>
     ee8:	06400513          	li	a0,100
     eec:	fdcff0ef          	jal	ra,6c8 <analog_read_reg8>
     ef0:	01f57513          	andi	a0,a0,31
     ef4:	e901                	c.bnez	a0,f04 <pm_sleep_wakeup_ram.constprop.1+0x228>
     ef6:	38d9                	c.jal	7cc <pm_sleep_start>
     ef8:	00100593          	li	a1,1
     efc:	07f00513          	li	a0,127
     f00:	f80ff0ef          	jal	ra,680 <analog_write_reg8>
     f04:	80140737          	lui	a4,0x80140
     f08:	02000793          	li	a5,32
     f0c:	1ef707a3          	sb	a5,495(a4) # 801401ef <_DATA_LMA_START+0x60130f97>
     f10:	00200793          	li	a5,2
     f14:	20f70c23          	sb	a5,536(a4)
     f18:	20a70783          	lb	a5,522(a4)
     f1c:	0ff7f793          	andi	a5,a5,255
     f20:	00c7e793          	ori	a5,a5,12
     f24:	20f70523          	sb	a5,522(a4)
     f28:	e90ff0ef          	jal	ra,5b8 <clock_get_32k_tick>
     f2c:	00a44783          	lbu	a5,10(s0)
     f30:	cf81                	c.beqz	a5,f48 <pm_sleep_wakeup_ram.constprop.1+0x26c>
     f32:	485c                	c.lw	a5,20(s0)
     f34:	5c54                	c.lw	a3,60(s0)
     f36:	40f507b3          	sub	a5,a0,a5
     f3a:	4818                	c.lw	a4,16(s0)
     f3c:	0785                	c.addi	a5,1
     f3e:	8395                	c.srli	a5,0x5
     f40:	c4d7977f          	maddr32	a4,a5,a3
     f44:	c458                	c.sw	a4,12(s0)
     f46:	a829                	c.j	f60 <pm_sleep_wakeup_ram.constprop.1+0x284>
     f48:	485c                	c.lw	a5,20(s0)
     f4a:	5c58                	c.lw	a4,60(s0)
     f4c:	40f507b3          	sub	a5,a0,a5
     f50:	0785                	c.addi	a5,1
     f52:	02e787b3          	mul	a5,a5,a4
     f56:	4818                	c.lw	a4,16(s0)
     f58:	8395                	c.srli	a5,0x5
     f5a:	97ba                	c.add	a5,a4
     f5c:	00f42623          	sw	a5,12(s0)
     f60:	485c                	c.lw	a5,20(s0)
     f62:	4454                	c.lw	a3,12(s0)
     f64:	40f507b3          	sub	a5,a0,a5
     f68:	0785                	c.addi	a5,1
     f6a:	0505                	c.addi	a0,1
     f6c:	d41c                	c.sw	a5,40(s0)
     f6e:	0685                	c.addi	a3,1
     f70:	02a42623          	sw	a0,44(s0)
     f74:	801407b7          	lui	a5,0x80140
     f78:	80140737          	lui	a4,0x80140
     f7c:	20d7a023          	sw	a3,512(a5) # 80140200 <_DATA_LMA_START+0x60130fa8>
     f80:	20b70783          	lb	a5,523(a4) # 8014020b <_DATA_LMA_START+0x60130fb3>
     f84:	be77fe5b          	bbc	a5,7,f80 <pm_sleep_wakeup_ram.constprop.1+0x2a4>
     f88:	20070c23          	sb	zero,536(a4)
     f8c:	1d670c23          	sb	s6,472(a4)
     f90:	06400513          	li	a0,100
     f94:	1f570423          	sb	s5,488(a4)
     f98:	f30ff0ef          	jal	ra,6c8 <analog_read_reg8>
     f9c:	84df970b          	addigp	a4,-1972 # 8004c <g_pm_status_info>
     fa0:	00a700a3          	sb	a0,1(a4)
     fa4:	84df978b          	addigp	a5,-1972 # 8004c <g_pm_status_info>
     fa8:	00157c5b          	bbc	a0,1,fc0 <pm_sleep_wakeup_ram.constprop.1+0x2e4>
     fac:	80140637          	lui	a2,0x80140
     fb0:	400006b7          	lui	a3,0x40000
     fb4:	20062703          	lw	a4,512(a2) # 80140200 <_DATA_LMA_START+0x60130fa8>
     fb8:	41470733          	sub	a4,a4,s4
     fbc:	fee6ece3          	bltu	a3,a4,fb4 <pm_sleep_wakeup_ram.constprop.1+0x2d8>
     fc0:	00098663          	beqz	s3,fcc <pm_sleep_wakeup_ram.constprop.1+0x2f0>
     fc4:	3009a9f3          	csrrs	s3,mstatus,s3
     fc8:	0ff0000f          	fence
     fcc:	0017c783          	lbu	a5,1(a5)
     fd0:	10000513          	li	a0,256
     fd4:	c781                	c.beqz	a5,fdc <pm_sleep_wakeup_ram.constprop.1+0x300>
     fd6:	40000537          	lui	a0,0x40000
     fda:	8d5d                	c.or	a0,a5
     fdc:	40f2                	c.lwsp	ra,28(sp)
     fde:	4462                	c.lwsp	s0,24(sp)
     fe0:	44d2                	c.lwsp	s1,20(sp)
     fe2:	4942                	c.lwsp	s2,16(sp)
     fe4:	49b2                	c.lwsp	s3,12(sp)
     fe6:	4a22                	c.lwsp	s4,8(sp)
     fe8:	4a92                	c.lwsp	s5,4(sp)
     fea:	4b02                	c.lwsp	s6,0(sp)
     fec:	6105                	c.addi16sp	sp,32
     fee:	8082                	c.jr	ra

00000ff0 <trap_entry>:
     ff0:	7175                	c.addi16sp	sp,-144
     ff2:	c706                	c.swsp	ra,140(sp)
     ff4:	c516                	c.swsp	t0,136(sp)
     ff6:	c31a                	c.swsp	t1,132(sp)
     ff8:	c11e                	c.swsp	t2,128(sp)
     ffa:	deaa                	c.swsp	a0,124(sp)
     ffc:	dcae                	c.swsp	a1,120(sp)
     ffe:	dab2                	c.swsp	a2,116(sp)
    1000:	d8b6                	c.swsp	a3,112(sp)
    1002:	d6ba                	c.swsp	a4,108(sp)
    1004:	d4be                	c.swsp	a5,104(sp)
    1006:	d2c2                	c.swsp	a6,100(sp)
    1008:	d0c6                	c.swsp	a7,96(sp)
    100a:	cef2                	c.swsp	t3,92(sp)
    100c:	ccf6                	c.swsp	t4,88(sp)
    100e:	cafa                	c.swsp	t5,84(sp)
    1010:	c8fe                	c.swsp	t6,80(sp)
    1012:	e682                	c.fswsp	ft0,76(sp)
    1014:	e486                	c.fswsp	ft1,72(sp)
    1016:	e28a                	c.fswsp	ft2,68(sp)
    1018:	e08e                	c.fswsp	ft3,64(sp)
    101a:	fe12                	c.fswsp	ft4,60(sp)
    101c:	fc16                	c.fswsp	ft5,56(sp)
    101e:	fa1a                	c.fswsp	ft6,52(sp)
    1020:	f81e                	c.fswsp	ft7,48(sp)
    1022:	f62a                	c.fswsp	fa0,44(sp)
    1024:	f42e                	c.fswsp	fa1,40(sp)
    1026:	f232                	c.fswsp	fa2,36(sp)
    1028:	f036                	c.fswsp	fa3,32(sp)
    102a:	ee3a                	c.fswsp	fa4,28(sp)
    102c:	ec3e                	c.fswsp	fa5,24(sp)
    102e:	ea42                	c.fswsp	fa6,20(sp)
    1030:	e846                	c.fswsp	fa7,16(sp)
    1032:	e672                	c.fswsp	ft8,12(sp)
    1034:	e476                	c.fswsp	ft9,8(sp)
    1036:	e27a                	c.fswsp	ft10,4(sp)
    1038:	e07e                	c.fswsp	ft11,0(sp)
    103a:	34202773          	csrr	a4,mcause
    103e:	86ba                	c.mv	a3,a4
    1040:	000007b7          	lui	a5,0x0
    1044:	15878793          	addi	a5,a5,344 # 158 <_AES_VMA_END>
    1048:	00478783          	lb	a5,4(a5)
    104c:	0ff7f793          	andi	a5,a5,255
    1050:	02078463          	beqz	a5,1078 <trap_entry+0x88>
    1054:	341025f3          	csrr	a1,mepc
    1058:	30002573          	csrr	a0,mstatus
    105c:	7c402673          	csrr	a2,mxstatus
    1060:	0206c063          	bltz	a3,1080 <trap_entry+0x90>
    1064:	0006d663          	bgez	a3,1070 <trap_entry+0x80>
    1068:	7807275b          	bfoz	a4,a4,30,0
    106c:	04375e5b          	beqc	a4,3,10c8 <trap_entry+0xd8>
    1070:	20000097          	auipc	ra,0x20000
    1074:	704080e7          	jalr	1796(ra) # 20001774 <except_handler>
    1078:	4601                	c.li	a2,0
    107a:	4501                	c.li	a0,0
    107c:	4581                	c.li	a1,0
    107e:	b7cd                	c.j	1060 <trap_entry+0x70>
    1080:	780727db          	bfoz	a5,a4,30,0
    1084:	be77e05b          	bnec	a5,7,1064 <trap_entry+0x74>
    1088:	000007b7          	lui	a5,0x0
    108c:	15878793          	addi	a5,a5,344 # 158 <_AES_VMA_END>
    1090:	00478783          	lb	a5,4(a5)
    1094:	0ff7f793          	andi	a5,a5,255
    1098:	00078863          	beqz	a5,10a8 <trap_entry+0xb8>
    109c:	08000793          	li	a5,128
    10a0:	3047b7f3          	csrrc	a5,mie,a5
    10a4:	300467f3          	csrrsi	a5,mstatus,8
    10a8:	000007b7          	lui	a5,0x0
    10ac:	15878793          	addi	a5,a5,344 # 158 <_AES_VMA_END>
    10b0:	00478783          	lb	a5,4(a5)
    10b4:	0ff7f793          	andi	a5,a5,255
    10b8:	c7b1                	c.beqz	a5,1104 <trap_entry+0x114>
    10ba:	300477f3          	csrrci	a5,mstatus,8
    10be:	08000793          	li	a5,128
    10c2:	3047a7f3          	csrrs	a5,mie,a5
    10c6:	a83d                	c.j	1104 <trap_entry+0x114>
    10c8:	e66007b7          	lui	a5,0xe6600
    10cc:	43dc                	c.lw	a5,4(a5)
    10ce:	000007b7          	lui	a5,0x0
    10d2:	15878793          	addi	a5,a5,344 # 158 <_AES_VMA_END>
    10d6:	00478783          	lb	a5,4(a5)
    10da:	0ff7f793          	andi	a5,a5,255
    10de:	c399                	c.beqz	a5,10e4 <trap_entry+0xf4>
    10e0:	300467f3          	csrrsi	a5,mstatus,8
    10e4:	000007b7          	lui	a5,0x0
    10e8:	15878793          	addi	a5,a5,344 # 158 <_AES_VMA_END>
    10ec:	00478783          	lb	a5,4(a5)
    10f0:	0ff7f793          	andi	a5,a5,255
    10f4:	00078463          	beqz	a5,10fc <trap_entry+0x10c>
    10f8:	300477f3          	csrrci	a5,mstatus,8
    10fc:	e66007b7          	lui	a5,0xe6600
    1100:	4705                	c.li	a4,1
    1102:	c3d8                	c.sw	a4,4(a5)
    1104:	000007b7          	lui	a5,0x0
    1108:	15878793          	addi	a5,a5,344 # 158 <_AES_VMA_END>
    110c:	00478783          	lb	a5,4(a5)
    1110:	0ff7f793          	andi	a5,a5,255
    1114:	00078863          	beqz	a5,1124 <trap_entry+0x134>
    1118:	30051073          	csrw	mstatus,a0
    111c:	34159073          	csrw	mepc,a1
    1120:	7c461073          	csrw	mxstatus,a2
    1124:	40ba                	c.lwsp	ra,140(sp)
    1126:	42aa                	c.lwsp	t0,136(sp)
    1128:	431a                	c.lwsp	t1,132(sp)
    112a:	438a                	c.lwsp	t2,128(sp)
    112c:	5576                	c.lwsp	a0,124(sp)
    112e:	55e6                	c.lwsp	a1,120(sp)
    1130:	5656                	c.lwsp	a2,116(sp)
    1132:	56c6                	c.lwsp	a3,112(sp)
    1134:	5736                	c.lwsp	a4,108(sp)
    1136:	57a6                	c.lwsp	a5,104(sp)
    1138:	5816                	c.lwsp	a6,100(sp)
    113a:	5886                	c.lwsp	a7,96(sp)
    113c:	4e76                	c.lwsp	t3,92(sp)
    113e:	4ee6                	c.lwsp	t4,88(sp)
    1140:	4f56                	c.lwsp	t5,84(sp)
    1142:	4fc6                	c.lwsp	t6,80(sp)
    1144:	6036                	c.flwsp	ft0,76(sp)
    1146:	60a6                	c.flwsp	ft1,72(sp)
    1148:	6116                	c.flwsp	ft2,68(sp)
    114a:	6186                	c.flwsp	ft3,64(sp)
    114c:	7272                	c.flwsp	ft4,60(sp)
    114e:	72e2                	c.flwsp	ft5,56(sp)
    1150:	7352                	c.flwsp	ft6,52(sp)
    1152:	73c2                	c.flwsp	ft7,48(sp)
    1154:	7532                	c.flwsp	fa0,44(sp)
    1156:	75a2                	c.flwsp	fa1,40(sp)
    1158:	7612                	c.flwsp	fa2,36(sp)
    115a:	7682                	c.flwsp	fa3,32(sp)
    115c:	6772                	c.flwsp	fa4,28(sp)
    115e:	67e2                	c.flwsp	fa5,24(sp)
    1160:	6852                	c.flwsp	fa6,20(sp)
    1162:	68c2                	c.flwsp	fa7,16(sp)
    1164:	6e32                	c.flwsp	ft8,12(sp)
    1166:	6ea2                	c.flwsp	ft9,8(sp)
    1168:	6f12                	c.flwsp	ft10,4(sp)
    116a:	6f82                	c.flwsp	ft11,0(sp)
    116c:	6149                	c.addi16sp	sp,144
    116e:	30200073          	mret
    1172:	0001                	c.nop
	...

00001200 <__vectors>:
    1200:	0ff0                	c.addi4spn	a2,sp,988
    1202:	0000                	unimp
    1204:	2088                	c.fld	fa0,0(s1)
    1206:	2000                	c.fld	fs0,0(s0)
    1208:	2088                	c.fld	fa0,0(s1)
    120a:	2000                	c.fld	fs0,0(s0)
    120c:	2088                	c.fld	fa0,0(s1)
    120e:	2000                	c.fld	fs0,0(s0)
    1210:	2088                	c.fld	fa0,0(s1)
    1212:	2000                	c.fld	fs0,0(s0)
    1214:	2088                	c.fld	fa0,0(s1)
    1216:	2000                	c.fld	fs0,0(s0)
    1218:	2088                	c.fld	fa0,0(s1)
    121a:	2000                	c.fld	fs0,0(s0)
    121c:	2088                	c.fld	fa0,0(s1)
    121e:	2000                	c.fld	fs0,0(s0)
    1220:	2088                	c.fld	fa0,0(s1)
    1222:	2000                	c.fld	fs0,0(s0)
    1224:	2088                	c.fld	fa0,0(s1)
    1226:	2000                	c.fld	fs0,0(s0)
    1228:	2088                	c.fld	fa0,0(s1)
    122a:	2000                	c.fld	fs0,0(s0)
    122c:	2088                	c.fld	fa0,0(s1)
    122e:	2000                	c.fld	fs0,0(s0)
    1230:	2088                	c.fld	fa0,0(s1)
    1232:	2000                	c.fld	fs0,0(s0)
    1234:	2088                	c.fld	fa0,0(s1)
    1236:	2000                	c.fld	fs0,0(s0)
    1238:	2088                	c.fld	fa0,0(s1)
    123a:	2000                	c.fld	fs0,0(s0)
    123c:	2088                	c.fld	fa0,0(s1)
    123e:	2000                	c.fld	fs0,0(s0)
    1240:	2088                	c.fld	fa0,0(s1)
    1242:	2000                	c.fld	fs0,0(s0)
    1244:	2088                	c.fld	fa0,0(s1)
    1246:	2000                	c.fld	fs0,0(s0)
    1248:	2088                	c.fld	fa0,0(s1)
    124a:	2000                	c.fld	fs0,0(s0)
    124c:	2088                	c.fld	fa0,0(s1)
    124e:	2000                	c.fld	fs0,0(s0)
    1250:	2088                	c.fld	fa0,0(s1)
    1252:	2000                	c.fld	fs0,0(s0)
    1254:	2088                	c.fld	fa0,0(s1)
    1256:	2000                	c.fld	fs0,0(s0)
    1258:	2088                	c.fld	fa0,0(s1)
    125a:	2000                	c.fld	fs0,0(s0)
    125c:	2088                	c.fld	fa0,0(s1)
    125e:	2000                	c.fld	fs0,0(s0)
    1260:	2088                	c.fld	fa0,0(s1)
    1262:	2000                	c.fld	fs0,0(s0)
    1264:	2088                	c.fld	fa0,0(s1)
    1266:	2000                	c.fld	fs0,0(s0)
    1268:	2088                	c.fld	fa0,0(s1)
    126a:	2000                	c.fld	fs0,0(s0)
    126c:	2088                	c.fld	fa0,0(s1)
    126e:	2000                	c.fld	fs0,0(s0)
    1270:	2088                	c.fld	fa0,0(s1)
    1272:	2000                	c.fld	fs0,0(s0)
    1274:	2088                	c.fld	fa0,0(s1)
    1276:	2000                	c.fld	fs0,0(s0)
    1278:	2088                	c.fld	fa0,0(s1)
    127a:	2000                	c.fld	fs0,0(s0)
    127c:	2088                	c.fld	fa0,0(s1)
    127e:	2000                	c.fld	fs0,0(s0)
    1280:	2088                	c.fld	fa0,0(s1)
    1282:	2000                	c.fld	fs0,0(s0)
    1284:	2088                	c.fld	fa0,0(s1)
    1286:	2000                	c.fld	fs0,0(s0)
    1288:	2088                	c.fld	fa0,0(s1)
    128a:	2000                	c.fld	fs0,0(s0)
    128c:	2088                	c.fld	fa0,0(s1)
    128e:	2000                	c.fld	fs0,0(s0)
    1290:	2088                	c.fld	fa0,0(s1)
    1292:	2000                	c.fld	fs0,0(s0)
    1294:	2088                	c.fld	fa0,0(s1)
    1296:	2000                	c.fld	fs0,0(s0)
    1298:	2088                	c.fld	fa0,0(s1)
    129a:	2000                	c.fld	fs0,0(s0)
    129c:	2088                	c.fld	fa0,0(s1)
    129e:	2000                	c.fld	fs0,0(s0)
    12a0:	2088                	c.fld	fa0,0(s1)
    12a2:	2000                	c.fld	fs0,0(s0)
    12a4:	2088                	c.fld	fa0,0(s1)
    12a6:	2000                	c.fld	fs0,0(s0)
    12a8:	2088                	c.fld	fa0,0(s1)
    12aa:	2000                	c.fld	fs0,0(s0)
    12ac:	2088                	c.fld	fa0,0(s1)
    12ae:	2000                	c.fld	fs0,0(s0)
    12b0:	2088                	c.fld	fa0,0(s1)
    12b2:	2000                	c.fld	fs0,0(s0)
    12b4:	2088                	c.fld	fa0,0(s1)
    12b6:	2000                	c.fld	fs0,0(s0)
    12b8:	2088                	c.fld	fa0,0(s1)
    12ba:	2000                	c.fld	fs0,0(s0)
    12bc:	2088                	c.fld	fa0,0(s1)
    12be:	2000                	c.fld	fs0,0(s0)
    12c0:	2088                	c.fld	fa0,0(s1)
    12c2:	2000                	c.fld	fs0,0(s0)
    12c4:	2088                	c.fld	fa0,0(s1)
    12c6:	2000                	c.fld	fs0,0(s0)
    12c8:	2088                	c.fld	fa0,0(s1)
    12ca:	2000                	c.fld	fs0,0(s0)
    12cc:	2088                	c.fld	fa0,0(s1)
    12ce:	2000                	c.fld	fs0,0(s0)
    12d0:	2088                	c.fld	fa0,0(s1)
    12d2:	2000                	c.fld	fs0,0(s0)
    12d4:	2088                	c.fld	fa0,0(s1)
    12d6:	2000                	c.fld	fs0,0(s0)
    12d8:	2088                	c.fld	fa0,0(s1)
    12da:	2000                	c.fld	fs0,0(s0)
    12dc:	2088                	c.fld	fa0,0(s1)
    12de:	2000                	c.fld	fs0,0(s0)
    12e0:	2088                	c.fld	fa0,0(s1)
    12e2:	2000                	c.fld	fs0,0(s0)
    12e4:	2088                	c.fld	fa0,0(s1)
    12e6:	2000                	c.fld	fs0,0(s0)
    12e8:	2088                	c.fld	fa0,0(s1)
    12ea:	2000                	c.fld	fs0,0(s0)
    12ec:	2088                	c.fld	fa0,0(s1)
    12ee:	2000                	c.fld	fs0,0(s0)
    12f0:	2088                	c.fld	fa0,0(s1)
    12f2:	2000                	c.fld	fs0,0(s0)
    12f4:	2088                	c.fld	fa0,0(s1)
    12f6:	2000                	c.fld	fs0,0(s0)
    12f8:	2088                	c.fld	fa0,0(s1)
    12fa:	2000                	c.fld	fs0,0(s0)
    12fc:	2088                	c.fld	fa0,0(s1)
    12fe:	2000                	c.fld	fs0,0(s0)
    1300:	0001                	c.nop

Disassembly of section .text:

20001458 <flash_read_uid>:
20001458:	7d047073          	csrci	mmisc_ctl,8
2000145c:	40b5565b          	beqc	a0,75,20001468 <flash_read_uid+0x10>
20001460:	7d046073          	csrsi	mmisc_ctl,8
20001464:	00008067          	ret
20001468:	1141                	c.addi	sp,-16
2000146a:	c606                	c.swsp	ra,12(sp)
2000146c:	872e                	c.mv	a4,a1
2000146e:	47c1                	c.li	a5,16
20001470:	4691                	c.li	a3,4
20001472:	4601                	c.li	a2,0
20001474:	00000593          	li	a1,0
20001478:	dffff097          	auipc	ra,0xdffff
2000147c:	f34080e7          	jalr	-204(ra) # 3ac <flash_mspi_read_ram>
20001480:	7d046073          	csrsi	mmisc_ctl,8
20001484:	40b2                	c.lwsp	ra,12(sp)
20001486:	0141                	c.addi	sp,16
20001488:	00008067          	ret

2000148c <flash_read_mid>:
2000148c:	1101                	c.addi	sp,-32
2000148e:	ce06                	c.swsp	ra,28(sp)
20001490:	c602                	c.swsp	zero,12(sp)
20001492:	7d047073          	csrci	mmisc_ctl,8
20001496:	478d                	c.li	a5,3
20001498:	0078                	c.addi4spn	a4,sp,12
2000149a:	4681                	c.li	a3,0
2000149c:	4601                	c.li	a2,0
2000149e:	4581                	c.li	a1,0
200014a0:	09f00513          	li	a0,159
200014a4:	dffff097          	auipc	ra,0xdffff
200014a8:	f08080e7          	jalr	-248(ra) # 3ac <flash_mspi_read_ram>
200014ac:	7d046073          	csrsi	mmisc_ctl,8
200014b0:	4532                	c.lwsp	a0,12(sp)
200014b2:	40f2                	c.lwsp	ra,28(sp)
200014b4:	6105                	c.addi16sp	sp,32
200014b6:	8082                	c.jr	ra

200014b8 <flash_read_mid_uid_with_check>:
200014b8:	1101                	c.addi	sp,-32
200014ba:	ce06                	c.swsp	ra,28(sp)
200014bc:	cc22                	c.swsp	s0,24(sp)
200014be:	ca26                	c.swsp	s1,20(sp)
200014c0:	84aa                	c.mv	s1,a0
200014c2:	842e                	c.mv	s0,a1
200014c4:	200057b7          	lui	a5,0x20005
200014c8:	03478793          	addi	a5,a5,52 # 20005034 <__riscv_restore_0+0x20>
200014cc:	4390                	c.lw	a2,0(a5)
200014ce:	43d4                	c.lw	a3,4(a5)
200014d0:	4798                	c.lw	a4,8(a5)
200014d2:	c032                	c.swsp	a2,0(sp)
200014d4:	c236                	c.swsp	a3,4(sp)
200014d6:	c43a                	c.swsp	a4,8(sp)
200014d8:	47dc                	c.lw	a5,12(a5)
200014da:	c63e                	c.swsp	a5,12(sp)
200014dc:	fb1ff0ef          	jal	ra,2000148c <flash_read_mid>
200014e0:	c088                	c.sw	a0,0(s1)
200014e2:	4481                	c.li	s1,0
200014e4:	4789                	c.li	a5,2
200014e6:	0297e163          	bltu	a5,s1,20001508 <flash_read_mid_uid_with_check+0x50>
200014ea:	200057b7          	lui	a5,0x20005
200014ee:	05c78793          	addi	a5,a5,92 # 2000505c <flash_support_mid>
200014f2:	0c9787db          	lea.w	a5,a5,s1
200014f6:	439c                	c.lw	a5,0(a5)
200014f8:	00f50463          	beq	a0,a5,20001500 <flash_read_mid_uid_with_check+0x48>
200014fc:	0485                	c.addi	s1,1
200014fe:	b7dd                	c.j	200014e4 <flash_read_mid_uid_with_check+0x2c>
20001500:	85a2                	c.mv	a1,s0
20001502:	04b00513          	li	a0,75
20001506:	3f89                	c.jal	20001458 <flash_read_uid>
20001508:	0434d45b          	beqc	s1,3,20001550 <flash_read_mid_uid_with_check+0x98>
2000150c:	4601                	c.li	a2,0
2000150e:	4781                	c.li	a5,0
20001510:	0080006f          	j	20001518 <flash_read_mid_uid_with_check+0x60>
20001514:	00178793          	addi	a5,a5,1
20001518:	473d                	c.li	a4,15
2000151a:	00f76f63          	bltu	a4,a5,20001538 <flash_read_mid_uid_with_check+0x80>
2000151e:	00f40733          	add	a4,s0,a5
20001522:	00074683          	lbu	a3,0(a4)
20001526:	080c                	c.addi4spn	a1,sp,16
20001528:	00f58733          	add	a4,a1,a5
2000152c:	ff074703          	lbu	a4,-16(a4)
20001530:	fee692e3          	bne	a3,a4,20001514 <flash_read_mid_uid_with_check+0x5c>
20001534:	0605                	c.addi	a2,1
20001536:	bff9                	c.j	20001514 <flash_read_mid_uid_with_check+0x5c>
20001538:	01065a5b          	beqc	a2,16,2000154c <flash_read_mid_uid_with_check+0x94>
2000153c:	00100513          	li	a0,1
20001540:	40f2                	c.lwsp	ra,28(sp)
20001542:	4462                	c.lwsp	s0,24(sp)
20001544:	44d2                	c.lwsp	s1,20(sp)
20001546:	6105                	c.addi16sp	sp,32
20001548:	00008067          	ret
2000154c:	4501                	c.li	a0,0
2000154e:	bfcd                	c.j	20001540 <flash_read_mid_uid_with_check+0x88>
20001550:	4501                	c.li	a0,0
20001552:	b7fd                	c.j	20001540 <flash_read_mid_uid_with_check+0x88>

20001554 <flash_dread>:
20001554:	1141                	c.addi	sp,-16
20001556:	c606                	c.swsp	ra,12(sp)
20001558:	87ae                	c.mv	a5,a1
2000155a:	8732                	c.mv	a4,a2
2000155c:	7d047073          	csrci	mmisc_ctl,8
20001560:	4685                	c.li	a3,1
20001562:	4605                	c.li	a2,1
20001564:	00a005b3          	add	a1,zero,a0
20001568:	03b00513          	li	a0,59
2000156c:	dffff097          	auipc	ra,0xdffff
20001570:	e40080e7          	jalr	-448(ra) # 3ac <flash_mspi_read_ram>
20001574:	7d046073          	csrsi	mmisc_ctl,8
20001578:	40b2                	c.lwsp	ra,12(sp)
2000157a:	0141                	c.addi	sp,16
2000157c:	00008067          	ret

20001580 <clock_init>:
20001580:	1141                	c.addi	sp,-16
20001582:	c606                	c.swsp	ra,12(sp)
20001584:	7d047073          	csrci	mmisc_ctl,8
20001588:	dffff097          	auipc	ra,0xdffff
2000158c:	520080e7          	jalr	1312(ra) # aa8 <clock_init_ram>
20001590:	7d046073          	csrsi	mmisc_ctl,8
20001594:	40b2                	c.lwsp	ra,12(sp)
20001596:	0141                	c.addi	sp,16
20001598:	00008067          	ret

2000159c <pm_sleep_wakeup.constprop.0>:
2000159c:	1141                	c.addi	sp,-16
2000159e:	c606                	c.swsp	ra,12(sp)
200015a0:	7d047073          	csrci	mmisc_ctl,8
200015a4:	dffff097          	auipc	ra,0xdffff
200015a8:	738080e7          	jalr	1848(ra) # cdc <pm_sleep_wakeup_ram.constprop.1>
200015ac:	7d046073          	csrsi	mmisc_ctl,8
200015b0:	40b2                	c.lwsp	ra,12(sp)
200015b2:	0141                	c.addi	sp,16
200015b4:	8082                	c.jr	ra
	...

200015b8 <efuse_get_adc_calib_value>:
200015b8:	80140737          	lui	a4,0x80140
200015bc:	06500793          	li	a5,101
200015c0:	1ef70a23          	sb	a5,500(a4) # 801401f4 <_DATA_LMA_START+0x60130f9c>
200015c4:	1c872783          	lw	a5,456(a4)
200015c8:	1e070a23          	sb	zero,500(a4)
200015cc:	4c47a7db          	bfoz	a5,a5,19,4
200015d0:	3807a75b          	bfoz	a4,a5,14,0
200015d4:	cf11                	c.beqz	a4,200015f0 <efuse_get_adc_calib_value+0x38>
200015d6:	1ff7f793          	andi	a5,a5,511
200015da:	3e878793          	addi	a5,a5,1000
200015de:	8325                	c.srli	a4,0x9
200015e0:	00f51023          	sh	a5,0(a0) # 40000000 <_DATA_LMA_START+0x1fff0da8>
200015e4:	1731                	c.addi	a4,-20
200015e6:	00e58023          	sb	a4,0(a1)
200015ea:	4505                	c.li	a0,1
200015ec:	00008067          	ret
200015f0:	4501                	c.li	a0,0
200015f2:	8082                	c.jr	ra
200015f4:	0001                	c.nop
	...

200015f8 <user_calib_adc_vref>:
200015f8:	1101                	c.addi	sp,-32
200015fa:	ce06                	c.swsp	ra,28(sp)
200015fc:	c402                	c.swsp	zero,8(sp)
200015fe:	00011623          	sh	zero,12(sp)
20001602:	00010723          	sb	zero,14(sp)
20001606:	00011323          	sh	zero,6(sp)
2000160a:	000102a3          	sb	zero,5(sp)
2000160e:	c1bd                	c.beqz	a1,20001674 <user_calib_adc_vref+0x7c>
20001610:	87ae                	c.mv	a5,a1
20001612:	00156b5b          	bnec	a0,1,20001628 <user_calib_adc_vref+0x30>
20001616:	00000737          	lui	a4,0x0
2000161a:	15872703          	lw	a4,344(a4) # 158 <_AES_VMA_END>
2000161e:	0030                	c.addi4spn	a2,sp,8
20001620:	459d                	c.li	a1,7
20001622:	853e                	c.mv	a0,a5
20001624:	000700e7          	jalr	a4
20001628:	00c14703          	lbu	a4,12(sp)
2000162c:	1c0737db          	bfos	a5,a4,7,0
20001630:	0607ce63          	bltz	a5,200016ac <user_calib_adc_vref+0xb4>
20001634:	00e14583          	lbu	a1,14(sp)
20001638:	00859613          	slli	a2,a1,0x8
2000163c:	00d14783          	lbu	a5,13(sp)
20001640:	963e                	c.add	a2,a5
20001642:	66c1                	c.lui	a3,0x10
20001644:	16fd                	c.addi	a3,-1
20001646:	06d60363          	beq	a2,a3,200016ac <user_calib_adc_vref+0xb4>
2000164a:	1731                	c.addi	a4,-20
2000164c:	1c07375b          	bfos	a4,a4,7,0
20001650:	fd060793          	addi	a5,a2,-48
20001654:	3c07a7db          	bfoz	a5,a5,15,0
20001658:	0fb00693          	li	a3,251
2000165c:	0af6ea63          	bltu	a3,a5,20001710 <user_calib_adc_vref+0x118>
20001660:	57b5                	c.li	a5,-19
20001662:	0af74d63          	blt	a4,a5,2000171c <user_calib_adc_vref+0x124>
20001666:	06a00793          	li	a5,106
2000166a:	0ae7db63          	bge	a5,a4,20001720 <user_calib_adc_vref+0x128>
2000166e:	4501                	c.li	a0,0
20001670:	0a40006f          	j	20001714 <user_calib_adc_vref+0x11c>
20001674:	00510593          	addi	a1,sp,5
20001678:	00610513          	addi	a0,sp,6
2000167c:	f3dff0ef          	jal	ra,200015b8 <efuse_get_adc_calib_value>
20001680:	c951                	c.beqz	a0,20001714 <user_calib_adc_vref+0x11c>
20001682:	00611783          	lh	a5,6(sp)
20001686:	bb378793          	addi	a5,a5,-1101
2000168a:	3c07a7db          	bfoz	a5,a5,15,0
2000168e:	0c600713          	li	a4,198
20001692:	06f76963          	bltu	a4,a5,20001704 <user_calib_adc_vref+0x10c>
20001696:	00510783          	lb	a5,5(sp)
2000169a:	5735                	c.li	a4,-19
2000169c:	06e7c663          	blt	a5,a4,20001708 <user_calib_adc_vref+0x110>
200016a0:	02a00713          	li	a4,42
200016a4:	06f75463          	bge	a4,a5,2000170c <user_calib_adc_vref+0x114>
200016a8:	4501                	c.li	a0,0
200016aa:	a0ad                	c.j	20001714 <user_calib_adc_vref+0x11c>
200016ac:	00510593          	addi	a1,sp,5
200016b0:	00610513          	addi	a0,sp,6
200016b4:	f05ff0ef          	jal	ra,200015b8 <efuse_get_adc_calib_value>
200016b8:	c515                	c.beqz	a0,200016e4 <user_calib_adc_vref+0xec>
200016ba:	00611783          	lh	a5,6(sp)
200016be:	bb378793          	addi	a5,a5,-1101
200016c2:	3c07a7db          	bfoz	a5,a5,15,0
200016c6:	0c600713          	li	a4,198
200016ca:	04f76d63          	bltu	a4,a5,20001724 <user_calib_adc_vref+0x12c>
200016ce:	00510783          	lb	a5,5(sp)
200016d2:	5735                	c.li	a4,-19
200016d4:	04e7ca63          	blt	a5,a4,20001728 <user_calib_adc_vref+0x130>
200016d8:	02a00713          	li	a4,42
200016dc:	04f75863          	bge	a4,a5,2000172c <user_calib_adc_vref+0x134>
200016e0:	4501                	c.li	a0,0
200016e2:	a80d                	c.j	20001714 <user_calib_adc_vref+0x11c>
200016e4:	00814783          	lbu	a5,8(sp)
200016e8:	00914703          	lbu	a4,9(sp)
200016ec:	97ba                	c.add	a5,a4
200016ee:	f8078793          	addi	a5,a5,-128
200016f2:	3c07a7db          	bfoz	a5,a5,15,0
200016f6:	0fb00713          	li	a4,251
200016fa:	00f76d63          	bltu	a4,a5,20001714 <user_calib_adc_vref+0x11c>
200016fe:	4505                	c.li	a0,1
20001700:	0140006f          	j	20001714 <user_calib_adc_vref+0x11c>
20001704:	4501                	c.li	a0,0
20001706:	a039                	c.j	20001714 <user_calib_adc_vref+0x11c>
20001708:	4501                	c.li	a0,0
2000170a:	a029                	c.j	20001714 <user_calib_adc_vref+0x11c>
2000170c:	4505                	c.li	a0,1
2000170e:	a019                	c.j	20001714 <user_calib_adc_vref+0x11c>
20001710:	00000513          	li	a0,0
20001714:	40f2                	c.lwsp	ra,28(sp)
20001716:	6105                	c.addi16sp	sp,32
20001718:	00008067          	ret
2000171c:	4501                	c.li	a0,0
2000171e:	bfdd                	c.j	20001714 <user_calib_adc_vref+0x11c>
20001720:	4505                	c.li	a0,1
20001722:	bfcd                	c.j	20001714 <user_calib_adc_vref+0x11c>
20001724:	4501                	c.li	a0,0
20001726:	b7fd                	c.j	20001714 <user_calib_adc_vref+0x11c>
20001728:	4501                	c.li	a0,0
2000172a:	b7ed                	c.j	20001714 <user_calib_adc_vref+0x11c>
2000172c:	4505                	c.li	a0,1
2000172e:	b7dd                	c.j	20001714 <user_calib_adc_vref+0x11c>

20001730 <measure_stack_usage>:
20001730:	00200533          	add	a0,zero,sp
20001734:	833fa7ab          	lwgp	a5,-2000 # 80030 <_BSS_VMA_START>
20001738:	00a7fc63          	bgeu	a5,a0,20001750 <measure_stack_usage+0x20>
2000173c:	4394                	c.lw	a3,0(a5)
2000173e:	aaaab737          	lui	a4,0xaaaab
20001742:	aaa70713          	addi	a4,a4,-1366 # aaaaaaaa <_DATA_LMA_START+0x8aa9b852>
20001746:	00e69563          	bne	a3,a4,20001750 <measure_stack_usage+0x20>
2000174a:	0791                	c.addi	a5,4
2000174c:	fedff06f          	j	20001738 <measure_stack_usage+0x8>
20001750:	8d1d                	c.sub	a0,a5
20001752:	8082                	c.jr	ra
20001754:	0001                	c.nop
	...

20001758 <fill_stack_pattern_to_sp>:
20001758:	868a                	c.mv	a3,sp
2000175a:	833fa7ab          	lwgp	a5,-2000 # 80030 <_BSS_VMA_START>
2000175e:	a039                	c.j	2000176c <fill_stack_pattern_to_sp+0x14>
20001760:	aaaab737          	lui	a4,0xaaaab
20001764:	aaa70713          	addi	a4,a4,-1366 # aaaaaaaa <_DATA_LMA_START+0x8aa9b852>
20001768:	c398                	c.sw	a4,0(a5)
2000176a:	0791                	c.addi	a5,4
2000176c:	fed7eae3          	bltu	a5,a3,20001760 <fill_stack_pattern_to_sp+0x8>
20001770:	8082                	c.jr	ra
	...

20001774 <except_handler>:
20001774:	34302773          	csrr	a4,mtval
20001778:	84efc3ab          	swgp	a4,-1980 # 80044 <exception_mtval>
2000177c:	34102773          	csrr	a4,mepc
20001780:	82efcfab          	swgp	a4,-1988 # 8003c <exception_mepc>
20001784:	30002773          	csrr	a4,mstatus
20001788:	84efc1ab          	swgp	a4,-1984 # 80040 <exception_mstatus>
2000178c:	34202773          	csrr	a4,mcause
20001790:	82efcbab          	swgp	a4,-1996 # 80034 <exception_mcause>
20001794:	7c902773          	csrr	a4,mdcause
20001798:	82efcdab          	swgp	a4,-1992 # 80038 <exception_mdcause>
2000179c:	0001                	c.nop
2000179e:	bffd                	c.j	2000179c <except_handler+0x28>

200017a0 <read_cycle_count>:
200017a0:	b0002573          	csrr	a0,mcycle
200017a4:	8082                	c.jr	ra
	...

200017a8 <rf_update_internal_cap>:
200017a8:	1141                	c.addi	sp,-16
200017aa:	c422                	c.swsp	s0,8(sp)
200017ac:	842a                	c.mv	s0,a0
200017ae:	08a00513          	li	a0,138
200017b2:	c606                	c.swsp	ra,12(sp)
200017b4:	03f47413          	andi	s0,s0,63
200017b8:	dffff097          	auipc	ra,0xdffff
200017bc:	f10080e7          	jalr	-240(ra) # 6c8 <analog_read_reg8>
200017c0:	04057593          	andi	a1,a0,64
200017c4:	8dc1                	c.or	a1,s0
200017c6:	4422                	c.lwsp	s0,8(sp)
200017c8:	40b2                	c.lwsp	ra,12(sp)
200017ca:	08a00513          	li	a0,138
200017ce:	0141                	c.addi	sp,16
200017d0:	dffff317          	auipc	t1,0xdffff
200017d4:	eb030067          	jr	-336(t1) # 680 <analog_write_reg8>
200017d8:	0001                	c.nop
	...

200017dc <user_calib_freq_offset>:
200017dc:	1101                	c.addi	sp,-32
200017de:	ce06                	c.swsp	ra,28(sp)
200017e0:	57fd                	c.li	a5,-1
200017e2:	00f107a3          	sb	a5,15(sp)
200017e6:	00156d5b          	bnec	a0,1,20001800 <user_calib_freq_offset+0x24>
200017ea:	872e                	c.mv	a4,a1
200017ec:	000007b7          	lui	a5,0x0
200017f0:	1587a783          	lw	a5,344(a5) # 158 <_AES_VMA_END>
200017f4:	00f10613          	addi	a2,sp,15
200017f8:	4585                	c.li	a1,1
200017fa:	853a                	c.mv	a0,a4
200017fc:	000780e7          	jalr	a5
20001800:	00f14503          	lbu	a0,15(sp)
20001804:	0ff00793          	li	a5,255
20001808:	00f50a63          	beq	a0,a5,2000181c <user_calib_freq_offset+0x40>
2000180c:	f9dff0ef          	jal	ra,200017a8 <rf_update_internal_cap>
20001810:	00100513          	li	a0,1
20001814:	40f2                	c.lwsp	ra,28(sp)
20001816:	6105                	c.addi16sp	sp,32
20001818:	00008067          	ret
2000181c:	4501                	c.li	a0,0
2000181e:	bfdd                	c.j	20001814 <user_calib_freq_offset+0x38>
20001820:	0001                	c.nop
	...

20001824 <user_read_flash_value_calib>:
20001824:	7179                	c.addi16sp	sp,-48
20001826:	d606                	c.swsp	ra,44(sp)
20001828:	006c                	c.addi4spn	a1,sp,12
2000182a:	0868                	c.addi4spn	a0,sp,28
2000182c:	c8dff0ef          	jal	ra,200014b8 <flash_read_mid_uid_with_check>
20001830:	0ff57513          	andi	a0,a0,255
20001834:	0c15625b          	bnec	a0,1,200018f8 <user_read_flash_value_calib+0xd4>
20001838:	01e14783          	lbu	a5,30(sp)
2000183c:	0737d45b          	beqc	a5,19,200018a4 <user_read_flash_value_calib+0x80>
20001840:	474d                	c.li	a4,19
20001842:	02f77563          	bgeu	a4,a5,2000186c <user_read_flash_value_calib+0x48>
20001846:	0957d75b          	beqc	a5,21,200018d4 <user_read_flash_value_calib+0xb0>
2000184a:	4755                	c.li	a4,21
2000184c:	06e7e863          	bltu	a5,a4,200018bc <user_read_flash_value_calib+0x98>
20001850:	0967ee5b          	bnec	a5,22,200018ec <user_read_flash_value_calib+0xc8>
20001854:	003fe5b7          	lui	a1,0x3fe
20001858:	0c058593          	addi	a1,a1,192 # 3fe0c0 <FLASH_SIZE+0x2fe0c0>
2000185c:	4505                	c.li	a0,1
2000185e:	3b69                	c.jal	200015f8 <user_calib_adc_vref>
20001860:	003fe5b7          	lui	a1,0x3fe
20001864:	4505                	c.li	a0,1
20001866:	3f9d                	c.jal	200017dc <user_calib_freq_offset>
20001868:	0980006f          	j	20001900 <user_read_flash_value_calib+0xdc>
2000186c:	0307d05b          	beqc	a5,16,2000188c <user_read_flash_value_calib+0x68>
20001870:	0717ee5b          	bnec	a5,17,200018ec <user_read_flash_value_calib+0xc8>
20001874:	65f9                	c.lui	a1,0x1e
20001876:	0c058593          	addi	a1,a1,192 # 1e0c0 <BIN_SIZE+0xee1a>
2000187a:	4505                	c.li	a0,1
2000187c:	d7dff0ef          	jal	ra,200015f8 <user_calib_adc_vref>
20001880:	65f9                	c.lui	a1,0x1e
20001882:	4505                	c.li	a0,1
20001884:	f59ff0ef          	jal	ra,200017dc <user_calib_freq_offset>
20001888:	0780006f          	j	20001900 <user_read_flash_value_calib+0xdc>
2000188c:	65b9                	c.lui	a1,0xe
2000188e:	0c058593          	addi	a1,a1,192 # e0c0 <_RAMCODE_VMA_END+0xcdbe>
20001892:	4505                	c.li	a0,1
20001894:	d65ff0ef          	jal	ra,200015f8 <user_calib_adc_vref>
20001898:	65b9                	c.lui	a1,0xe
2000189a:	4505                	c.li	a0,1
2000189c:	f41ff0ef          	jal	ra,200017dc <user_calib_freq_offset>
200018a0:	0600006f          	j	20001900 <user_read_flash_value_calib+0xdc>
200018a4:	0007e5b7          	lui	a1,0x7e
200018a8:	0c058593          	addi	a1,a1,192 # 7e0c0 <BIN_SIZE+0x6ee1a>
200018ac:	4505                	c.li	a0,1
200018ae:	33a9                	c.jal	200015f8 <user_calib_adc_vref>
200018b0:	0007e5b7          	lui	a1,0x7e
200018b4:	4505                	c.li	a0,1
200018b6:	371d                	c.jal	200017dc <user_calib_freq_offset>
200018b8:	0480006f          	j	20001900 <user_read_flash_value_calib+0xdc>
200018bc:	000fe5b7          	lui	a1,0xfe
200018c0:	0c058593          	addi	a1,a1,192 # fe0c0 <_STACK_TOP+0x5e0c0>
200018c4:	4505                	c.li	a0,1
200018c6:	3b0d                	c.jal	200015f8 <user_calib_adc_vref>
200018c8:	000fe5b7          	lui	a1,0xfe
200018cc:	4505                	c.li	a0,1
200018ce:	3739                	c.jal	200017dc <user_calib_freq_offset>
200018d0:	0300006f          	j	20001900 <user_read_flash_value_calib+0xdc>
200018d4:	001fe5b7          	lui	a1,0x1fe
200018d8:	0c058593          	addi	a1,a1,192 # 1fe0c0 <FLASH_SIZE+0xfe0c0>
200018dc:	4505                	c.li	a0,1
200018de:	3b29                	c.jal	200015f8 <user_calib_adc_vref>
200018e0:	001fe5b7          	lui	a1,0x1fe
200018e4:	4505                	c.li	a0,1
200018e6:	3ddd                	c.jal	200017dc <user_calib_freq_offset>
200018e8:	0180006f          	j	20001900 <user_read_flash_value_calib+0xdc>
200018ec:	4581                	c.li	a1,0
200018ee:	4505                	c.li	a0,1
200018f0:	d09ff0ef          	jal	ra,200015f8 <user_calib_adc_vref>
200018f4:	00c0006f          	j	20001900 <user_read_flash_value_calib+0xdc>
200018f8:	4581                	c.li	a1,0
200018fa:	4505                	c.li	a0,1
200018fc:	cfdff0ef          	jal	ra,200015f8 <user_calib_adc_vref>
20001900:	50b2                	c.lwsp	ra,44(sp)
20001902:	6145                	c.addi16sp	sp,48
20001904:	8082                	c.jr	ra
20001906:	0001                	c.nop

20001908 <gpio_set_up_down_res>:
20001908:	1101                	c.addi	sp,-32
2000190a:	ce06                	c.swsp	ra,28(sp)
2000190c:	cc22                	c.swsp	s0,24(sp)
2000190e:	ca26                	c.swsp	s1,20(sp)
20001910:	c84a                	c.swsp	s2,16(sp)
20001912:	c64e                	c.swsp	s3,12(sp)
20001914:	0035f913          	andi	s2,a1,3
20001918:	00855413          	srli	s0,a0,0x8
2000191c:	0474245b          	bfoz	s0,s0,1,7
20001920:	0f057793          	andi	a5,a0,240
20001924:	00f037b3          	snez	a5,a5
20001928:	943e                	c.add	s0,a5
2000192a:	0439                	c.addi	s0,14
2000192c:	0ff47413          	andi	s0,s0,255
20001930:	01157793          	andi	a5,a0,17
20001934:	ef91                	c.bnez	a5,20001950 <gpio_set_up_down_res+0x48>
20001936:	02257793          	andi	a5,a0,34
2000193a:	ef99                	c.bnez	a5,20001958 <gpio_set_up_down_res+0x50>
2000193c:	04457793          	andi	a5,a0,68
20001940:	ebb1                	c.bnez	a5,20001994 <gpio_set_up_down_res+0x8c>
20001942:	08857513          	andi	a0,a0,136
20001946:	cd1d                	c.beqz	a0,20001984 <gpio_set_up_down_res+0x7c>
20001948:	03f00493          	li	s1,63
2000194c:	4999                	c.li	s3,6
2000194e:	a809                	c.j	20001960 <gpio_set_up_down_res+0x58>
20001950:	0fc00493          	li	s1,252
20001954:	4981                	c.li	s3,0
20001956:	a029                	c.j	20001960 <gpio_set_up_down_res+0x58>
20001958:	0f300493          	li	s1,243
2000195c:	00200993          	li	s3,2
20001960:	00800533          	add	a0,zero,s0
20001964:	dffff097          	auipc	ra,0xdffff
20001968:	d64080e7          	jalr	-668(ra) # 6c8 <analog_read_reg8>
2000196c:	013915b3          	sll	a1,s2,s3
20001970:	8d65                	c.and	a0,s1
20001972:	8dc9                	c.or	a1,a0
20001974:	0ff5f593          	andi	a1,a1,255
20001978:	00800533          	add	a0,zero,s0
2000197c:	dffff097          	auipc	ra,0xdffff
20001980:	d04080e7          	jalr	-764(ra) # 680 <analog_write_reg8>
20001984:	40f2                	c.lwsp	ra,28(sp)
20001986:	4462                	c.lwsp	s0,24(sp)
20001988:	44d2                	c.lwsp	s1,20(sp)
2000198a:	4942                	c.lwsp	s2,16(sp)
2000198c:	49b2                	c.lwsp	s3,12(sp)
2000198e:	6105                	c.addi16sp	sp,32
20001990:	00008067          	ret
20001994:	0cf00493          	li	s1,207
20001998:	4991                	c.li	s3,4
2000199a:	b7d9                	c.j	20001960 <gpio_set_up_down_res+0x58>

2000199c <gpio_input_dis>:
2000199c:	6785                	c.lui	a5,0x1
2000199e:	f0078793          	addi	a5,a5,-256 # f00 <pm_sleep_wakeup_ram.constprop.1+0x224>
200019a2:	8fe9                	c.and	a5,a0
200019a4:	cb95                	c.beqz	a5,200019d8 <gpio_input_dis+0x3c>
200019a6:	10000713          	li	a4,256
200019aa:	02e78763          	beq	a5,a4,200019d8 <gpio_input_dis+0x3c>
200019ae:	40000713          	li	a4,1024
200019b2:	02e78363          	beq	a5,a4,200019d8 <gpio_input_dis+0x3c>
200019b6:	1141                	c.addi	sp,-16
200019b8:	c606                	c.swsp	ra,12(sp)
200019ba:	c422                	c.swsp	s0,8(sp)
200019bc:	00a00433          	add	s0,zero,a0
200019c0:	20000713          	li	a4,512
200019c4:	04e78063          	beq	a5,a4,20001a04 <gpio_input_dis+0x68>
200019c8:	30000713          	li	a4,768
200019cc:	06e78063          	beq	a5,a4,20001a2c <gpio_input_dis+0x90>
200019d0:	40b2                	c.lwsp	ra,12(sp)
200019d2:	4422                	c.lwsp	s0,8(sp)
200019d4:	0141                	c.addi	sp,16
200019d6:	8082                	c.jr	ra
200019d8:	00855793          	srli	a5,a0,0x8
200019dc:	00140737          	lui	a4,0x140
200019e0:	30170713          	addi	a4,a4,769 # 140301 <FLASH_SIZE+0x40301>
200019e4:	0ef707db          	lea.d	a5,a4,a5
200019e8:	80000737          	lui	a4,0x80000
200019ec:	8fd9                	c.or	a5,a4
200019ee:	00078703          	lb	a4,0(a5)
200019f2:	fff54513          	not	a0,a0
200019f6:	8d79                	c.and	a0,a4
200019f8:	0ff57513          	andi	a0,a0,255
200019fc:	00a78023          	sb	a0,0(a5)
20001a00:	00008067          	ret
20001a04:	0bd00513          	li	a0,189
20001a08:	dffff097          	auipc	ra,0xdffff
20001a0c:	cc0080e7          	jalr	-832(ra) # 6c8 <analog_read_reg8>
20001a10:	fff44413          	not	s0,s0
20001a14:	00a47433          	and	s0,s0,a0
20001a18:	0ff47593          	andi	a1,s0,255
20001a1c:	0bd00513          	li	a0,189
20001a20:	dffff097          	auipc	ra,0xdffff
20001a24:	c60080e7          	jalr	-928(ra) # 680 <analog_write_reg8>
20001a28:	fa9ff06f          	j	200019d0 <gpio_input_dis+0x34>
20001a2c:	0c000513          	li	a0,192
20001a30:	dffff097          	auipc	ra,0xdffff
20001a34:	c98080e7          	jalr	-872(ra) # 6c8 <analog_read_reg8>
20001a38:	fff44413          	not	s0,s0
20001a3c:	00a47433          	and	s0,s0,a0
20001a40:	0ff47593          	andi	a1,s0,255
20001a44:	0c000513          	li	a0,192
20001a48:	dffff097          	auipc	ra,0xdffff
20001a4c:	c38080e7          	jalr	-968(ra) # 680 <analog_write_reg8>
20001a50:	b741                	c.j	200019d0 <gpio_input_dis+0x34>
20001a52:	0001                	c.nop

20001a54 <sys_init>:
20001a54:	1141                	c.addi	sp,-16
20001a56:	ffbc07b7          	lui	a5,0xffbc0
20001a5a:	c422                	c.swsp	s0,8(sp)
20001a5c:	c04a                	c.swsp	s2,0(sp)
20001a5e:	c606                	c.swsp	ra,12(sp)
20001a60:	c226                	c.swsp	s1,4(sp)
20001a62:	80140737          	lui	a4,0x80140
20001a66:	17fd                	c.addi	a5,-1
20001a68:	892a                	c.mv	s2,a0
20001a6a:	842e                	c.mv	s0,a1
20001a6c:	1ef72023          	sw	a5,480(a4) # 801401e0 <_DATA_LMA_START+0x60130f88>
20001a70:	00200593          	li	a1,2
20001a74:	08c00513          	li	a0,140
20001a78:	1ef72223          	sw	a5,484(a4)
20001a7c:	dffff097          	auipc	ra,0xdffff
20001a80:	c04080e7          	jalr	-1020(ra) # 680 <analog_write_reg8>
20001a84:	2439545b          	beqc	s2,3,20001ccc <sys_init+0x278>
20001a88:	85ca                	c.mv	a1,s2
20001a8a:	4529                	c.li	a0,10
20001a8c:	dffff097          	auipc	ra,0xdffff
20001a90:	bf4080e7          	jalr	-1036(ra) # 680 <analog_write_reg8>
20001a94:	03b00593          	li	a1,59
20001a98:	00b00513          	li	a0,11
20001a9c:	dffff097          	auipc	ra,0xdffff
20001aa0:	be4080e7          	jalr	-1052(ra) # 680 <analog_write_reg8>
20001aa4:	00500513          	li	a0,5
20001aa8:	dffff097          	auipc	ra,0xdffff
20001aac:	c20080e7          	jalr	-992(ra) # 6c8 <analog_read_reg8>
20001ab0:	0f757593          	andi	a1,a0,247
20001ab4:	00500513          	li	a0,5
20001ab8:	dffff097          	auipc	ra,0xdffff
20001abc:	bc8080e7          	jalr	-1080(ra) # 680 <analog_write_reg8>
20001ac0:	00600513          	li	a0,6
20001ac4:	dffff097          	auipc	ra,0xdffff
20001ac8:	c04080e7          	jalr	-1020(ra) # 6c8 <analog_read_reg8>
20001acc:	fc146793          	ori	a5,s0,-63
20001ad0:	fff7c793          	not	a5,a5
20001ad4:	8fe9                	c.and	a5,a0
20001ad6:	0ff7f593          	andi	a1,a5,255
20001ada:	4519                	c.li	a0,6
20001adc:	dffff097          	auipc	ra,0xdffff
20001ae0:	ba4080e7          	jalr	-1116(ra) # 680 <analog_write_reg8>
20001ae4:	04500593          	li	a1,69
20001ae8:	00100513          	li	a0,1
20001aec:	dffff097          	auipc	ra,0xdffff
20001af0:	b94080e7          	jalr	-1132(ra) # 680 <analog_write_reg8>
20001af4:	04c00593          	li	a1,76
20001af8:	01c00513          	li	a0,28
20001afc:	dffff097          	auipc	ra,0xdffff
20001b00:	b84080e7          	jalr	-1148(ra) # 680 <analog_write_reg8>
20001b04:	001007b7          	lui	a5,0x100
20001b08:	44478693          	addi	a3,a5,1092 # 100444 <FLASH_SIZE+0x444>
20001b0c:	800005b7          	lui	a1,0x80000
20001b10:	4e478713          	addi	a4,a5,1252
20001b14:	00b6e633          	or	a2,a3,a1
20001b18:	00060783          	lb	a5,0(a2)
20001b1c:	01468693          	addi	a3,a3,20 # 10014 <BIN_SIZE+0xd6e>
20001b20:	0ff7f793          	andi	a5,a5,255
20001b24:	00e7e793          	ori	a5,a5,14
20001b28:	00f60023          	sb	a5,0(a2)
20001b2c:	fee694e3          	bne	a3,a4,20001b14 <sys_init+0xc0>
20001b30:	801017b7          	lui	a5,0x80101
20001b34:	83a78703          	lb	a4,-1990(a5) # 8010083a <_DATA_LMA_START+0x600f15e2>
20001b38:	03800513          	li	a0,56
20001b3c:	82078d23          	sb	zero,-1990(a5)
20001b40:	dffff097          	auipc	ra,0xdffff
20001b44:	b88080e7          	jalr	-1144(ra) # 6c8 <analog_read_reg8>
20001b48:	00a00433          	add	s0,zero,a0
20001b4c:	03900513          	li	a0,57
20001b50:	dffff097          	auipc	ra,0xdffff
20001b54:	b78080e7          	jalr	-1160(ra) # 6c8 <analog_read_reg8>
20001b58:	84aa                	c.mv	s1,a0
20001b5a:	1404795b          	bbc	s0,0,20001cac <sys_init+0x258>
20001b5e:	0fe47593          	andi	a1,s0,254
20001b62:	84df940b          	addigp	s0,-1972 # 8004c <g_pm_status_info>
20001b66:	03800513          	li	a0,56
20001b6a:	1804fd5b          	bbc	s1,0,20001d04 <sys_init+0x2b0>
20001b6e:	4791                	c.li	a5,4
20001b70:	00f40123          	sb	a5,2(s0)
20001b74:	dffff097          	auipc	ra,0xdffff
20001b78:	b0c080e7          	jalr	-1268(ra) # 680 <analog_write_reg8>
20001b7c:	00100593          	li	a1,1
20001b80:	07f00513          	li	a0,127
20001b84:	dffff097          	auipc	ra,0xdffff
20001b88:	afc080e7          	jalr	-1284(ra) # 680 <analog_write_reg8>
20001b8c:	06400513          	li	a0,100
20001b90:	dffff097          	auipc	ra,0xdffff
20001b94:	b38080e7          	jalr	-1224(ra) # 6c8 <analog_read_reg8>
20001b98:	0c3527db          	bfoz	a5,a0,3,3
20001b9c:	00a400a3          	sb	a0,1(s0)
20001ba0:	00f40023          	sb	a5,0(s0)
20001ba4:	08800513          	li	a0,136
20001ba8:	dffff097          	auipc	ra,0xdffff
20001bac:	b20080e7          	jalr	-1248(ra) # 6c8 <analog_read_reg8>
20001bb0:	be757a5b          	bbc	a0,7,20001ba4 <sys_init+0x150>
20001bb4:	dffff097          	auipc	ra,0xdffff
20001bb8:	b64080e7          	jalr	-1180(ra) # 718 <pm_wait_bbpll_done>
20001bbc:	00244783          	lbu	a5,2(s0)
20001bc0:	0e87d05b          	beqc	a5,8,20001ca0 <sys_init+0x24c>
20001bc4:	80140737          	lui	a4,0x80140
20001bc8:	20a70783          	lb	a5,522(a4) # 8014020a <_DATA_LMA_START+0x60130fb2>
20001bcc:	0ff7f793          	andi	a5,a5,255
20001bd0:	00c7e793          	ori	a5,a5,12
20001bd4:	20f70523          	sb	a5,522(a4)
20001bd8:	00100793          	li	a5,1
20001bdc:	20f72023          	sw	a5,512(a4)
20001be0:	801404b7          	lui	s1,0x80140
20001be4:	1fd48783          	lb	a5,509(s1) # 801401fd <_DATA_LMA_START+0x60130fa5>
20001be8:	0ff7f793          	andi	a5,a5,255
20001bec:	84ffc5ab          	swgp	a5,-1976 # 80048 <g_chip_version>
20001bf0:	00244703          	lbu	a4,2(s0)
20001bf4:	06475a5b          	beqc	a4,4,20001c68 <sys_init+0x214>
20001bf8:	0ff00693          	li	a3,255
20001bfc:	04d78e63          	beq	a5,a3,20001c58 <sys_init+0x204>
20001c00:	08000593          	li	a1,128
20001c04:	07d00513          	li	a0,125
20001c08:	dffff097          	auipc	ra,0xdffff
20001c0c:	a78080e7          	jalr	-1416(ra) # 680 <analog_write_reg8>
20001c10:	02395a5b          	beqc	s2,3,20001c44 <sys_init+0x1f0>
20001c14:	80140737          	lui	a4,0x80140
20001c18:	06500793          	li	a5,101
20001c1c:	1ef70a23          	sb	a5,500(a4) # 801401f4 <_DATA_LMA_START+0x60130f9c>
20001c20:	1c872783          	lw	a5,456(a4)
20001c24:	1e070a23          	sb	zero,500(a4)
20001c28:	8bbd                	c.andi	a5,15
20001c2a:	0037d55b          	beqc	a5,3,20001c34 <sys_init+0x1e0>
20001c2e:	4725                	c.li	a4,9
20001c30:	0ef77e63          	bgeu	a4,a5,20001d2c <sys_init+0x2d8>
20001c34:	801407b7          	lui	a5,0x80140
20001c38:	02000713          	li	a4,32
20001c3c:	1ee787a3          	sb	a4,495(a5) # 801401ef <_DATA_LMA_START+0x60130f97>
20001c40:	0000006f          	j	20001c40 <sys_init+0x1ec>
20001c44:	04400593          	li	a1,68
20001c48:	00c00513          	li	a0,12
20001c4c:	dffff097          	auipc	ra,0xdffff
20001c50:	a34080e7          	jalr	-1484(ra) # 680 <analog_write_reg8>
20001c54:	fc1ff06f          	j	20001c14 <sys_init+0x1c0>
20001c58:	ba17645b          	bnec	a4,1,20001c00 <sys_init+0x1ac>
20001c5c:	07d00513          	li	a0,125
20001c60:	08000593          	li	a1,128
20001c64:	01c0006f          	j	20001c80 <sys_init+0x22c>
20001c68:	03900513          	li	a0,57
20001c6c:	dffff097          	auipc	ra,0xdffff
20001c70:	a5c080e7          	jalr	-1444(ra) # 6c8 <analog_read_reg8>
20001c74:	00256593          	ori	a1,a0,2
20001c78:	0ff5f593          	andi	a1,a1,255
20001c7c:	03900513          	li	a0,57
20001c80:	dffff097          	auipc	ra,0xdffff
20001c84:	a00080e7          	jalr	-1536(ra) # 680 <analog_write_reg8>
20001c88:	2004a503          	lw	a0,512(s1)
20001c8c:	001877b7          	lui	a5,0x187
20001c90:	a0078793          	addi	a5,a5,-1536 # 186a00 <FLASH_SIZE+0x86a00>
20001c94:	00f50533          	add	a0,a0,a5
20001c98:	905ff0ef          	jal	ra,2000159c <pm_sleep_wakeup.constprop.0>
20001c9c:	f65ff06f          	j	20001c00 <sys_init+0x1ac>
20001ca0:	dffff097          	auipc	ra,0xdffff
20001ca4:	94c080e7          	jalr	-1716(ra) # 5ec <pm_stimer_recover>
20001ca8:	f39ff06f          	j	20001be0 <sys_init+0x18c>
20001cac:	07f00513          	li	a0,127
20001cb0:	dffff097          	auipc	ra,0xdffff
20001cb4:	a18080e7          	jalr	-1512(ra) # 6c8 <analog_read_reg8>
20001cb8:	84df940b          	addigp	s0,-1972 # 8004c <g_pm_status_info>
20001cbc:	0405705b          	bbc	a0,0,20001cfc <sys_init+0x2a8>
20001cc0:	4214f05b          	bbs	s1,1,20001ce0 <sys_init+0x28c>
20001cc4:	47c1                	c.li	a5,16
20001cc6:	00f40123          	sb	a5,2(s0)
20001cca:	bd4d                	c.j	20001b7c <sys_init+0x128>
20001ccc:	04000593          	li	a1,64
20001cd0:	00c00513          	li	a0,12
20001cd4:	dffff097          	auipc	ra,0xdffff
20001cd8:	9ac080e7          	jalr	-1620(ra) # 680 <analog_write_reg8>
20001cdc:	dadff06f          	j	20001a88 <sys_init+0x34>
20001ce0:	02000793          	li	a5,32
20001ce4:	0fd4f593          	andi	a1,s1,253
20001ce8:	03900513          	li	a0,57
20001cec:	00f40123          	sb	a5,2(s0)
20001cf0:	dffff097          	auipc	ra,0xdffff
20001cf4:	990080e7          	jalr	-1648(ra) # 680 <analog_write_reg8>
20001cf8:	e85ff06f          	j	20001b7c <sys_init+0x128>
20001cfc:	47a1                	c.li	a5,8
20001cfe:	00f40123          	sb	a5,2(s0)
20001d02:	bdad                	c.j	20001b7c <sys_init+0x128>
20001d04:	00100793          	li	a5,1
20001d08:	00f40123          	sb	a5,2(s0)
20001d0c:	dffff097          	auipc	ra,0xdffff
20001d10:	974080e7          	jalr	-1676(ra) # 680 <analog_write_reg8>
20001d14:	0014e593          	ori	a1,s1,1
20001d18:	0ff5f593          	andi	a1,a1,255
20001d1c:	03900513          	li	a0,57
20001d20:	dffff097          	auipc	ra,0xdffff
20001d24:	960080e7          	jalr	-1696(ra) # 680 <analog_write_reg8>
20001d28:	e55ff06f          	j	20001b7c <sys_init+0x128>
20001d2c:	40b2                	c.lwsp	ra,12(sp)
20001d2e:	4422                	c.lwsp	s0,8(sp)
20001d30:	4492                	c.lwsp	s1,4(sp)
20001d32:	4902                	c.lwsp	s2,0(sp)
20001d34:	0141                	c.addi	sp,16
20001d36:	8082                	c.jr	ra

20001d38 <platform_init>:
20001d38:	1141                	c.addi	sp,-16
20001d3a:	c606                	c.swsp	ra,12(sp)
20001d3c:	d19ff0ef          	jal	ra,20001a54 <sys_init>
20001d40:	4585                	c.li	a1,1
20001d42:	08000513          	li	a0,128
20001d46:	36c9                	c.jal	20001908 <gpio_set_up_down_res>
20001d48:	addff0ef          	jal	ra,20001824 <user_read_flash_value_calib>
20001d4c:	40b2                	c.lwsp	ra,12(sp)
20001d4e:	0141                	c.addi	sp,16
20001d50:	8082                	c.jr	ra
20001d52:	0001                	c.nop

20001d54 <reset_cycle_count>:
20001d54:	b0005073          	csrwi	mcycle,0
20001d58:	8082                	c.jr	ra
	...

20001d5c <user_init>:
20001d5c:	1141                	c.addi	sp,-16
20001d5e:	c606                	c.swsp	ra,12(sp)
20001d60:	c422                	c.swsp	s0,8(sp)
20001d62:	80140437          	lui	s0,0x80140
20001d66:	30e40783          	lb	a5,782(s0) # 8014030e <_DATA_LMA_START+0x601310b6>
20001d6a:	0ff7f793          	andi	a5,a5,255
20001d6e:	0107e793          	ori	a5,a5,16
20001d72:	30f40723          	sb	a5,782(s0)
20001d76:	30a40783          	lb	a5,778(s0)
20001d7a:	0ef7f793          	andi	a5,a5,239
20001d7e:	30f40523          	sb	a5,778(s0)
20001d82:	11000513          	li	a0,272
20001d86:	3919                	c.jal	2000199c <gpio_input_dis>
20001d88:	30e40783          	lb	a5,782(s0)
20001d8c:	0ff7f793          	andi	a5,a5,255
20001d90:	0207e793          	ori	a5,a5,32
20001d94:	30f40723          	sb	a5,782(s0)
20001d98:	30a40783          	lb	a5,778(s0)
20001d9c:	0df7f793          	andi	a5,a5,223
20001da0:	30f40523          	sb	a5,778(s0)
20001da4:	12000513          	li	a0,288
20001da8:	bf5ff0ef          	jal	ra,2000199c <gpio_input_dis>
20001dac:	30e40783          	lb	a5,782(s0)
20001db0:	0ff7f793          	andi	a5,a5,255
20001db4:	0407e793          	ori	a5,a5,64
20001db8:	30f40723          	sb	a5,782(s0)
20001dbc:	30a40783          	lb	a5,778(s0)
20001dc0:	0bf7f793          	andi	a5,a5,191
20001dc4:	30f40523          	sb	a5,778(s0)
20001dc8:	14000513          	li	a0,320
20001dcc:	bd1ff0ef          	jal	ra,2000199c <gpio_input_dis>
20001dd0:	30e40783          	lb	a5,782(s0)
20001dd4:	f807e793          	ori	a5,a5,-128
20001dd8:	0ff7f793          	andi	a5,a5,255
20001ddc:	30f40723          	sb	a5,782(s0)
20001de0:	30a40783          	lb	a5,778(s0)
20001de4:	07f7f793          	andi	a5,a5,127
20001de8:	30f40523          	sb	a5,778(s0)
20001dec:	18000513          	li	a0,384
20001df0:	badff0ef          	jal	ra,2000199c <gpio_input_dis>
20001df4:	20005537          	lui	a0,0x20005
20001df8:	12850513          	addi	a0,a0,296 # 20005128 <flash_support_mid+0xcc>
20001dfc:	576020ef          	jal	ra,20004372 <puts>
20001e00:	65a9                	c.lui	a1,0xa
20001e02:	0585                	c.addi	a1,1
20001e04:	20005537          	lui	a0,0x20005
20001e08:	12c50513          	addi	a0,a0,300 # 2000512c <flash_support_mid+0xd0>
20001e0c:	520020ef          	jal	ra,2000432c <printf>
20001e10:	7e400593          	li	a1,2020
20001e14:	20005537          	lui	a0,0x20005
20001e18:	14450513          	addi	a0,a0,324 # 20005144 <flash_support_mid+0xe8>
20001e1c:	510020ef          	jal	ra,2000432c <printf>
20001e20:	200055b7          	lui	a1,0x20005
20001e24:	15c58593          	addi	a1,a1,348 # 2000515c <flash_support_mid+0x100>
20001e28:	20005537          	lui	a0,0x20005
20001e2c:	16850513          	addi	a0,a0,360 # 20005168 <flash_support_mid+0x10c>
20001e30:	4fc020ef          	jal	ra,2000432c <printf>
20001e34:	40b2                	c.lwsp	ra,12(sp)
20001e36:	4422                	c.lwsp	s0,8(sp)
20001e38:	0141                	c.addi	sp,16
20001e3a:	8082                	c.jr	ra

20001e3c <generate_sine_wave_q15>:
20001e3c:	7179                	c.addi16sp	sp,-48
20001e3e:	d606                	c.swsp	ra,44(sp)
20001e40:	d422                	c.swsp	s0,40(sp)
20001e42:	d226                	c.swsp	s1,36(sp)
20001e44:	d04a                	c.swsp	s2,32(sp)
20001e46:	ce4e                	c.swsp	s3,28(sp)
20001e48:	cc52                	c.swsp	s4,24(sp)
20001e4a:	e622                	c.fswsp	fs0,12(sp)
20001e4c:	e426                	c.fswsp	fs1,8(sp)
20001e4e:	84aa                	c.mv	s1,a0
20001e50:	8a2e                	c.mv	s4,a1
20001e52:	20a504d3          	fmv.s	fs1,fa0
20001e56:	20b58453          	fmv.s	fs0,fa1
20001e5a:	4401                	c.li	s0,0
20001e5c:	0740006f          	j	20001ed0 <generate_sine_wave_q15+0x94>
20001e60:	20948553          	fmv.s	fa0,fs1
20001e64:	759010ef          	jal	ra,20003dbc <__extendsfdf2>
20001e68:	200057b7          	lui	a5,0x20005
20001e6c:	02078793          	addi	a5,a5,32 # 20005020 <__riscv_restore_0+0xc>
20001e70:	4390                	c.lw	a2,0(a5)
20001e72:	43d4                	c.lw	a3,4(a5)
20001e74:	07d010ef          	jal	ra,200036f0 <__muldf3>
20001e78:	892a                	c.mv	s2,a0
20001e7a:	89ae                	c.mv	s3,a1
20001e7c:	00800533          	add	a0,zero,s0
20001e80:	6c1010ef          	jal	ra,20003d40 <__floatsidf>
20001e84:	864a                	c.mv	a2,s2
20001e86:	86ce                	c.mv	a3,s3
20001e88:	069010ef          	jal	ra,200036f0 <__muldf3>
20001e8c:	892a                	c.mv	s2,a0
20001e8e:	89ae                	c.mv	s3,a1
20001e90:	20840553          	fmv.s	fa0,fs0
20001e94:	729010ef          	jal	ra,20003dbc <__extendsfdf2>
20001e98:	862a                	c.mv	a2,a0
20001e9a:	86ae                	c.mv	a3,a1
20001e9c:	854a                	c.mv	a0,s2
20001e9e:	85ce                	c.mv	a1,s3
20001ea0:	060010ef          	jal	ra,20002f00 <__divdf3>
20001ea4:	028020ef          	jal	ra,20003ecc <__truncdfsf2>
20001ea8:	5bd000ef          	jal	ra,20002c64 <sinf>
20001eac:	200057b7          	lui	a5,0x20005
20001eb0:	0287a787          	flw	fa5,40(a5) # 20005028 <__riscv_restore_0+0x14>
20001eb4:	10f57553          	fmul.s	fa0,fa0,fa5
20001eb8:	00241713          	slli	a4,s0,0x2
20001ebc:	00e486b3          	add	a3,s1,a4
20001ec0:	c00517d3          	fcvt.w.s	a5,fa0,rtz
20001ec4:	00f69023          	sh	a5,0(a3)
20001ec8:	00069123          	sh	zero,2(a3)
20001ecc:	00140413          	addi	s0,s0,1
20001ed0:	f94448e3          	blt	s0,s4,20001e60 <generate_sine_wave_q15+0x24>
20001ed4:	50b2                	c.lwsp	ra,44(sp)
20001ed6:	5422                	c.lwsp	s0,40(sp)
20001ed8:	5492                	c.lwsp	s1,36(sp)
20001eda:	5902                	c.lwsp	s2,32(sp)
20001edc:	49f2                	c.lwsp	s3,28(sp)
20001ede:	4a62                	c.lwsp	s4,24(sp)
20001ee0:	6432                	c.flwsp	fs0,12(sp)
20001ee2:	64a2                	c.flwsp	fs1,8(sp)
20001ee4:	6145                	c.addi16sp	sp,48
20001ee6:	8082                	c.jr	ra

20001ee8 <_write>:
20001ee8:	1141                	c.addi	sp,-16
20001eea:	c606                	c.swsp	ra,12(sp)
20001eec:	c422                	c.swsp	s0,8(sp)
20001eee:	c226                	c.swsp	s1,4(sp)
20001ef0:	c04a                	c.swsp	s2,0(sp)
20001ef2:	892e                	c.mv	s2,a1
20001ef4:	84b2                	c.mv	s1,a2
20001ef6:	4401                	c.li	s0,0
20001ef8:	0180006f          	j	20001f10 <_write+0x28>
20001efc:	008907b3          	add	a5,s2,s0
20001f00:	0007c503          	lbu	a0,0(a5)
20001f04:	dffff097          	auipc	ra,0xdffff
20001f08:	a5c080e7          	jalr	-1444(ra) # 960 <dr_putchar>
20001f0c:	00140413          	addi	s0,s0,1
20001f10:	fe9446e3          	blt	s0,s1,20001efc <_write+0x14>
20001f14:	8522                	c.mv	a0,s0
20001f16:	40b2                	c.lwsp	ra,12(sp)
20001f18:	4422                	c.lwsp	s0,8(sp)
20001f1a:	4492                	c.lwsp	s1,4(sp)
20001f1c:	4902                	c.lwsp	s2,0(sp)
20001f1e:	0141                	c.addi	sp,16
20001f20:	8082                	c.jr	ra
	...

20001f24 <main>:
20001f24:	7179                	c.addi16sp	sp,-48
20001f26:	d606                	c.swsp	ra,44(sp)
20001f28:	d422                	c.swsp	s0,40(sp)
20001f2a:	d226                	c.swsp	s1,36(sp)
20001f2c:	d04a                	c.swsp	s2,32(sp)
20001f2e:	ce4e                	c.swsp	s3,28(sp)
20001f30:	cc52                	c.swsp	s4,24(sp)
20001f32:	ca56                	c.swsp	s5,20(sp)
20001f34:	c85a                	c.swsp	s6,16(sp)
20001f36:	4581                	c.li	a1,0
20001f38:	4501                	c.li	a0,0
20001f3a:	3bfd                	c.jal	20001d38 <platform_init>
20001f3c:	4791                	c.li	a5,4
20001f3e:	4705                	c.li	a4,1
20001f40:	4685                	c.li	a3,1
20001f42:	4621                	c.li	a2,8
20001f44:	4589                	c.li	a1,2
20001f46:	6531                	c.lui	a0,0xc
20001f48:	04250513          	addi	a0,a0,66 # c042 <_RAMCODE_VMA_END+0xad40>
20001f4c:	e34ff0ef          	jal	ra,20001580 <clock_init>
20001f50:	e0dff0ef          	jal	ra,20001d5c <user_init>
20001f54:	001f978b          	addigp	a5,129024 # a0000 <_STACK_TOP>
20001f58:	777d                	c.lui	a4,0xfffff
20001f5a:	973e                	c.add	a4,a5
20001f5c:	82efc9ab          	swgp	a4,-2000 # 80030 <_BSS_VMA_START>
20001f60:	0ef77063          	bgeu	a4,a5,20002040 <main+0x11c>
20001f64:	00000913          	li	s2,0
20001f68:	4795                	c.li	a5,5
20001f6a:	1127c163          	blt	a5,s2,2000206c <main+0x148>
20001f6e:	200057b7          	lui	a5,0x20005
20001f72:	04478793          	addi	a5,a5,68 # 20005044 <FFT_SIZES>
20001f76:	0d2787db          	lea.w	a5,a5,s2
20001f7a:	4380                	c.lw	s0,0(a5)
20001f7c:	00241993          	slli	s3,s0,0x2
20001f80:	01300533          	add	a0,zero,s3
20001f84:	248020ef          	jal	ra,200041cc <malloc>
20001f88:	84aa                	c.mv	s1,a0
20001f8a:	854e                	c.mv	a0,s3
20001f8c:	240020ef          	jal	ra,200041cc <malloc>
20001f90:	89aa                	c.mv	s3,a0
20001f92:	0c048163          	beqz	s1,20002054 <main+0x130>
20001f96:	0a050f63          	beqz	a0,20002054 <main+0x130>
20001f9a:	200057b7          	lui	a5,0x20005
20001f9e:	02c7a587          	flw	fa1,44(a5) # 2000502c <__riscv_restore_0+0x18>
20001fa2:	200057b7          	lui	a5,0x20005
20001fa6:	0307a507          	flw	fa0,48(a5) # 20005030 <__riscv_restore_0+0x1c>
20001faa:	85a2                	c.mv	a1,s0
20001fac:	8526                	c.mv	a0,s1
20001fae:	3579                	c.jal	20001e3c <generate_sine_wave_q15>
20001fb0:	3c0425db          	bfoz	a1,s0,15,0
20001fb4:	00410513          	addi	a0,sp,4
20001fb8:	3d9000ef          	jal	ra,20002b90 <riscv_cfft_init_q15>
20001fbc:	008005b3          	add	a1,zero,s0
20001fc0:	20005537          	lui	a0,0x20005
20001fc4:	0e450513          	addi	a0,a0,228 # 200050e4 <flash_support_mid+0x88>
20001fc8:	364020ef          	jal	ra,2000432c <printf>
20001fcc:	f8cff0ef          	jal	ra,20001758 <fill_stack_pattern_to_sp>
20001fd0:	d85ff0ef          	jal	ra,20001d54 <reset_cycle_count>
20001fd4:	fccff0ef          	jal	ra,200017a0 <read_cycle_count>
20001fd8:	8b2a                	c.mv	s6,a0
20001fda:	4685                	c.li	a3,1
20001fdc:	4601                	c.li	a2,0
20001fde:	85a6                	c.mv	a1,s1
20001fe0:	0048                	c.addi4spn	a0,sp,4
20001fe2:	210d                	c.jal	20002404 <riscv_cfft_q15>
20001fe4:	fbcff0ef          	jal	ra,200017a0 <read_cycle_count>
20001fe8:	00a00a33          	add	s4,zero,a0
20001fec:	f44ff0ef          	jal	ra,20001730 <measure_stack_usage>
20001ff0:	8aaa                	c.mv	s5,a0
20001ff2:	416a0a33          	sub	s4,s4,s6
20001ff6:	8622                	c.mv	a2,s0
20001ff8:	85ce                	c.mv	a1,s3
20001ffa:	8526                	c.mv	a0,s1
20001ffc:	094000ef          	jal	ra,20002090 <riscv_cmplx_mag_q15>
20002000:	015005b3          	add	a1,zero,s5
20002004:	20005537          	lui	a0,0x20005
20002008:	0f450513          	addi	a0,a0,244 # 200050f4 <flash_support_mid+0x98>
2000200c:	320020ef          	jal	ra,2000432c <printf>
20002010:	014005b3          	add	a1,zero,s4
20002014:	20005537          	lui	a0,0x20005
20002018:	11050513          	addi	a0,a0,272 # 20005110 <flash_support_mid+0xb4>
2000201c:	310020ef          	jal	ra,2000432c <printf>
20002020:	00a00513          	li	a0,10
20002024:	326020ef          	jal	ra,2000434a <putchar>
20002028:	00900533          	add	a0,zero,s1
2000202c:	1b0020ef          	jal	ra,200041dc <free>
20002030:	01300533          	add	a0,zero,s3
20002034:	1a8020ef          	jal	ra,200041dc <free>
20002038:	00190913          	addi	s2,s2,1
2000203c:	f2dff06f          	j	20001f68 <main+0x44>
20002040:	20005537          	lui	a0,0x20005
20002044:	06850513          	addi	a0,a0,104 # 20005068 <flash_support_mid+0xc>
20002048:	32a020ef          	jal	ra,20004372 <puts>
2000204c:	fff00513          	li	a0,-1
20002050:	0200006f          	j	20002070 <main+0x14c>
20002054:	008005b3          	add	a1,zero,s0
20002058:	20005537          	lui	a0,0x20005
2000205c:	0b450513          	addi	a0,a0,180 # 200050b4 <flash_support_mid+0x58>
20002060:	2cc020ef          	jal	ra,2000432c <printf>
20002064:	fff00513          	li	a0,-1
20002068:	0080006f          	j	20002070 <main+0x14c>
2000206c:	00000513          	li	a0,0
20002070:	50b2                	c.lwsp	ra,44(sp)
20002072:	5422                	c.lwsp	s0,40(sp)
20002074:	5492                	c.lwsp	s1,36(sp)
20002076:	5902                	c.lwsp	s2,32(sp)
20002078:	49f2                	c.lwsp	s3,28(sp)
2000207a:	4a62                	c.lwsp	s4,24(sp)
2000207c:	4ad2                	c.lwsp	s5,20(sp)
2000207e:	4b42                	c.lwsp	s6,16(sp)
20002080:	6145                	c.addi16sp	sp,48
20002082:	8082                	c.jr	ra
20002084:	0001                	c.nop
	...

20002088 <default_irq_entry>:
20002088:	a001                	c.j	20002088 <default_irq_entry>

2000208a <trap_handler>:
2000208a:	a001                	c.j	2000208a <trap_handler>
2000208c:	0001                	c.nop
	...

20002090 <riscv_cmplx_mag_q15>:
20002090:	7139                	c.addi16sp	sp,-64
20002092:	d64e                	c.swsp	s3,44(sp)
20002094:	d452                	c.swsp	s4,40(sp)
20002096:	d256                	c.swsp	s5,36(sp)
20002098:	d05a                	c.swsp	s6,32(sp)
2000209a:	de06                	c.swsp	ra,60(sp)
2000209c:	00265b13          	srli	s6,a2,0x2
200020a0:	dc22                	c.swsp	s0,56(sp)
200020a2:	da26                	c.swsp	s1,52(sp)
200020a4:	d84a                	c.swsp	s2,48(sp)
200020a6:	ce5e                	c.swsp	s7,28(sp)
200020a8:	8ab2                	c.mv	s5,a2
200020aa:	8a2a                	c.mv	s4,a0
200020ac:	89ae                	c.mv	s3,a1
200020ae:	080b0163          	beqz	s6,20002130 <riscv_cmplx_mag_q15+0xa0>
200020b2:	84aa                	c.mv	s1,a0
200020b4:	8bda                	c.mv	s7,s6
200020b6:	842e                	c.mv	s0,a1
200020b8:	00c10913          	addi	s2,sp,12
200020bc:	4088                	c.lw	a0,0(s1)
200020be:	38a5157f          	kmda	a0,a0,a0
200020c2:	85ca                	c.mv	a1,s2
200020c4:	8105                	c.srli	a0,0x1
200020c6:	284d                	c.jal	20002178 <riscv_sqrt_q31>
200020c8:	00e11783          	lh	a5,14(sp)
200020cc:	00448513          	addi	a0,s1,4
200020d0:	00f41023          	sh	a5,0(s0)
200020d4:	4108                	c.lw	a0,0(a0)
200020d6:	38a5157f          	kmda	a0,a0,a0
200020da:	85ca                	c.mv	a1,s2
200020dc:	8105                	c.srli	a0,0x1
200020de:	2869                	c.jal	20002178 <riscv_sqrt_q31>
200020e0:	00e11783          	lh	a5,14(sp)
200020e4:	00848513          	addi	a0,s1,8
200020e8:	00f41123          	sh	a5,2(s0)
200020ec:	4108                	c.lw	a0,0(a0)
200020ee:	38a5157f          	kmda	a0,a0,a0
200020f2:	85ca                	c.mv	a1,s2
200020f4:	8105                	c.srli	a0,0x1
200020f6:	2049                	c.jal	20002178 <riscv_sqrt_q31>
200020f8:	00e11783          	lh	a5,14(sp)
200020fc:	00c48513          	addi	a0,s1,12
20002100:	00f41223          	sh	a5,4(s0)
20002104:	4108                	c.lw	a0,0(a0)
20002106:	04c1                	c.addi	s1,16
20002108:	38a5157f          	kmda	a0,a0,a0
2000210c:	85ca                	c.mv	a1,s2
2000210e:	8105                	c.srli	a0,0x1
20002110:	068000ef          	jal	ra,20002178 <riscv_sqrt_q31>
20002114:	00e11783          	lh	a5,14(sp)
20002118:	1bfd                	c.addi	s7,-1
2000211a:	0421                	c.addi	s0,8
2000211c:	fef41f23          	sh	a5,-2(s0)
20002120:	f80b9ee3          	bnez	s7,200020bc <riscv_cmplx_mag_q15+0x2c>
20002124:	003b1793          	slli	a5,s6,0x3
20002128:	0b12                	c.slli	s6,0x4
2000212a:	99be                	c.add	s3,a5
2000212c:	016a0a33          	add	s4,s4,s6
20002130:	003afa93          	andi	s5,s5,3
20002134:	020a8663          	beqz	s5,20002160 <riscv_cmplx_mag_q15+0xd0>
20002138:	0a86                	c.slli	s5,0x1
2000213a:	9ace                	c.add	s5,s3
2000213c:	00c10913          	addi	s2,sp,12
20002140:	000a2503          	lw	a0,0(s4)
20002144:	0a11                	c.addi	s4,4
20002146:	38a5157f          	kmda	a0,a0,a0
2000214a:	85ca                	c.mv	a1,s2
2000214c:	8105                	c.srli	a0,0x1
2000214e:	202d                	c.jal	20002178 <riscv_sqrt_q31>
20002150:	00e11783          	lh	a5,14(sp)
20002154:	00298993          	addi	s3,s3,2
20002158:	fef99f23          	sh	a5,-2(s3)
2000215c:	ff5992e3          	bne	s3,s5,20002140 <riscv_cmplx_mag_q15+0xb0>
20002160:	50f2                	c.lwsp	ra,60(sp)
20002162:	5462                	c.lwsp	s0,56(sp)
20002164:	54d2                	c.lwsp	s1,52(sp)
20002166:	5942                	c.lwsp	s2,48(sp)
20002168:	59b2                	c.lwsp	s3,44(sp)
2000216a:	5a22                	c.lwsp	s4,40(sp)
2000216c:	5a92                	c.lwsp	s5,36(sp)
2000216e:	5b02                	c.lwsp	s6,32(sp)
20002170:	4bf2                	c.lwsp	s7,28(sp)
20002172:	6121                	c.addi16sp	sp,64
20002174:	8082                	c.jr	ra
	...

20002178 <riscv_sqrt_q31>:
20002178:	00a04a63          	bgtz	a0,2000218c <riscv_sqrt_q31+0x14>
2000217c:	4701                	c.li	a4,0
2000217e:	00a03533          	snez	a0,a0
20002182:	40a00533          	neg	a0,a0
20002186:	c198                	c.sw	a4,0(a1)
20002188:	00008067          	ret
2000218c:	af95067f          	clz32	a2,a0
20002190:	fff60813          	addi	a6,a2,-1
20002194:	00187893          	andi	a7,a6,1
20002198:	0a089463          	bnez	a7,20002240 <riscv_sqrt_q31+0xc8>
2000219c:	01051533          	sll	a0,a0,a6
200021a0:	41a55793          	srai	a5,a0,0x1a
200021a4:	17e1                	c.addi	a5,-8
200021a6:	00003717          	auipc	a4,0x3
200021aa:	fea70713          	addi	a4,a4,-22 # 20005190 <sqrt_initial_lut_q31>
200021ae:	078a                	c.slli	a5,0x2
200021b0:	97ba                	c.add	a5,a4
200021b2:	4394                	c.lw	a3,0(a5)
200021b4:	30000337          	lui	t1,0x30000
200021b8:	e0d6977f          	mulsr64	a4,a3,a3
200021bc:	dfc7077f          	wexti	a4,a4,28
200021c0:	e0e5177f          	mulsr64	a4,a0,a4
200021c4:	dff7077f          	wexti	a4,a4,31
200021c8:	40e30733          	sub	a4,t1,a4
200021cc:	e0d7177f          	mulsr64	a4,a4,a3
200021d0:	dfd706ff          	wexti	a3,a4,29
200021d4:	e0d6977f          	mulsr64	a4,a3,a3
200021d8:	dfc7077f          	wexti	a4,a4,28
200021dc:	e0e5177f          	mulsr64	a4,a0,a4
200021e0:	dff7077f          	wexti	a4,a4,31
200021e4:	40e30733          	sub	a4,t1,a4
200021e8:	e0d7177f          	mulsr64	a4,a4,a3
200021ec:	dfd7077f          	wexti	a4,a4,29
200021f0:	e0e71e7f          	mulsr64	t3,a4,a4
200021f4:	dfce0e7f          	wexti	t3,t3,28
200021f8:	e1c51e7f          	mulsr64	t3,a0,t3
200021fc:	dffe0e7f          	wexti	t3,t3,31
20002200:	41c30333          	sub	t1,t1,t3
20002204:	e0e3177f          	mulsr64	a4,t1,a4
20002208:	dfd7077f          	wexti	a4,a4,29
2000220c:	e0e5177f          	mulsr64	a4,a0,a4
20002210:	dfc7077f          	wexti	a4,a4,28
20002214:	00089c63          	bnez	a7,2000222c <riscv_sqrt_q31+0xb4>
20002218:	01f85793          	srli	a5,a6,0x1f
2000221c:	97c2                	c.add	a5,a6
2000221e:	8785                	c.srai	a5,0x1
20002220:	40f75733          	sra	a4,a4,a5
20002224:	00000513          	li	a0,0
20002228:	c198                	c.sw	a4,0(a1)
2000222a:	8082                	c.jr	ra
2000222c:	1679                	c.addi	a2,-2
2000222e:	01f65793          	srli	a5,a2,0x1f
20002232:	97b2                	c.add	a5,a2
20002234:	8785                	c.srai	a5,0x1
20002236:	40f75733          	sra	a4,a4,a5
2000223a:	4501                	c.li	a0,0
2000223c:	fedff06f          	j	20002228 <riscv_sqrt_q31+0xb0>
20002240:	ffe60713          	addi	a4,a2,-2
20002244:	00e51533          	sll	a0,a0,a4
20002248:	bfa1                	c.j	200021a0 <riscv_sqrt_q31+0x28>
	...

2000224c <riscv_cfft_radix4by2_q15>:
2000224c:	1101                	c.addi	sp,-32
2000224e:	ca26                	c.swsp	s1,20(sp)
20002250:	c84a                	c.swsp	s2,16(sp)
20002252:	c64e                	c.swsp	s3,12(sp)
20002254:	0015d913          	srli	s2,a1,0x1
20002258:	00159993          	slli	s3,a1,0x1
2000225c:	ce06                	c.swsp	ra,28(sp)
2000225e:	cc22                	c.swsp	s0,24(sp)
20002260:	84b2                	c.mv	s1,a2
20002262:	99aa                	c.add	s3,a0
20002264:	0a090263          	beqz	s2,20002308 <riscv_cfft_radix4by2_q15+0xbc>
20002268:	842a                	c.mv	s0,a0
2000226a:	884e                	c.mv	a6,s3
2000226c:	862a                	c.mv	a2,a0
2000226e:	8326                	c.mv	t1,s1
20002270:	88ca                	c.mv	a7,s2
20002272:	4581                	c.li	a1,0
20002274:	00032e03          	lw	t3,0(t1) # 30000000 <_DATA_LMA_START+0xfff0da8>
20002278:	0311                	c.addi	t1,4
2000227a:	4218                	c.lw	a4,0(a2)
2000227c:	00b7077f          	radd16	a4,a4,a1
20002280:	00082683          	lw	a3,0(a6)
20002284:	00b686ff          	radd16	a3,a3,a1
20002288:	12d707ff          	ksub16	a5,a4,a3
2000228c:	00d7077f          	radd16	a4,a4,a3
20002290:	c218                	c.sw	a4,0(a2)
20002292:	0611                	c.addi	a2,4
20002294:	38fe177f          	kmda	a4,t3,a5
20002298:	79c797ff          	smxds	a5,a5,t3
2000229c:	8741                	c.srai	a4,0x10
2000229e:	3ee797ff          	pktb16	a5,a5,a4
200022a2:	00f82023          	sw	a5,0(a6)
200022a6:	18fd                	c.addi	a7,-1
200022a8:	0811                	c.addi	a6,4
200022aa:	fc0895e3          	bnez	a7,20002274 <riscv_cfft_radix4by2_q15+0x28>
200022ae:	4689                	c.li	a3,2
200022b0:	8626                	c.mv	a2,s1
200022b2:	85ca                	c.mv	a1,s2
200022b4:	8522                	c.mv	a0,s0
200022b6:	2cbd                	c.jal	20002534 <riscv_radix4_butterfly_q15>
200022b8:	85ca                	c.mv	a1,s2
200022ba:	854e                	c.mv	a0,s3
200022bc:	4689                	c.li	a3,2
200022be:	8626                	c.mv	a2,s1
200022c0:	274000ef          	jal	ra,20002534 <riscv_radix4_butterfly_q15>
200022c4:	00391593          	slli	a1,s2,0x3
200022c8:	8522                	c.mv	a0,s0
200022ca:	95a2                	c.add	a1,s0
200022cc:	00051603          	lh	a2,0(a0)
200022d0:	00251683          	lh	a3,2(a0)
200022d4:	00451703          	lh	a4,4(a0)
200022d8:	00651783          	lh	a5,6(a0)
200022dc:	0606                	c.slli	a2,0x1
200022de:	0686                	c.slli	a3,0x1
200022e0:	0706                	c.slli	a4,0x1
200022e2:	0786                	c.slli	a5,0x1
200022e4:	00c51023          	sh	a2,0(a0)
200022e8:	00d51123          	sh	a3,2(a0)
200022ec:	00e51223          	sh	a4,4(a0)
200022f0:	00f51323          	sh	a5,6(a0)
200022f4:	0521                	c.addi	a0,8
200022f6:	fca59be3          	bne	a1,a0,200022cc <riscv_cfft_radix4by2_q15+0x80>
200022fa:	40f2                	c.lwsp	ra,28(sp)
200022fc:	4462                	c.lwsp	s0,24(sp)
200022fe:	44d2                	c.lwsp	s1,20(sp)
20002300:	4942                	c.lwsp	s2,16(sp)
20002302:	49b2                	c.lwsp	s3,12(sp)
20002304:	6105                	c.addi16sp	sp,32
20002306:	8082                	c.jr	ra
20002308:	4689                	c.li	a3,2
2000230a:	4581                	c.li	a1,0
2000230c:	228000ef          	jal	ra,20002534 <riscv_radix4_butterfly_q15>
20002310:	4462                	c.lwsp	s0,24(sp)
20002312:	40f2                	c.lwsp	ra,28(sp)
20002314:	4942                	c.lwsp	s2,16(sp)
20002316:	8626                	c.mv	a2,s1
20002318:	854e                	c.mv	a0,s3
2000231a:	44d2                	c.lwsp	s1,20(sp)
2000231c:	49b2                	c.lwsp	s3,12(sp)
2000231e:	4689                	c.li	a3,2
20002320:	4581                	c.li	a1,0
20002322:	6105                	c.addi16sp	sp,32
20002324:	ac01                	c.j	20002534 <riscv_radix4_butterfly_q15>
	...

20002328 <riscv_cfft_radix4by2_inverse_q15>:
20002328:	1101                	c.addi	sp,-32
2000232a:	ca26                	c.swsp	s1,20(sp)
2000232c:	c84a                	c.swsp	s2,16(sp)
2000232e:	c64e                	c.swsp	s3,12(sp)
20002330:	0015d913          	srli	s2,a1,0x1
20002334:	00159993          	slli	s3,a1,0x1
20002338:	ce06                	c.swsp	ra,28(sp)
2000233a:	cc22                	c.swsp	s0,24(sp)
2000233c:	84b2                	c.mv	s1,a2
2000233e:	99aa                	c.add	s3,a0
20002340:	0a090263          	beqz	s2,200023e4 <riscv_cfft_radix4by2_inverse_q15+0xbc>
20002344:	842a                	c.mv	s0,a0
20002346:	884e                	c.mv	a6,s3
20002348:	862a                	c.mv	a2,a0
2000234a:	8326                	c.mv	t1,s1
2000234c:	88ca                	c.mv	a7,s2
2000234e:	4581                	c.li	a1,0
20002350:	00032783          	lw	a5,0(t1)
20002354:	0311                	c.addi	t1,4
20002356:	4218                	c.lw	a4,0(a2)
20002358:	00b7077f          	radd16	a4,a4,a1
2000235c:	00082683          	lw	a3,0(a6)
20002360:	00b686ff          	radd16	a3,a3,a1
20002364:	12d70e7f          	ksub16	t3,a4,a3
20002368:	00d7077f          	radd16	a4,a4,a3
2000236c:	c218                	c.sw	a4,0(a2)
2000236e:	0611                	c.addi	a2,4
20002370:	69c7977f          	smdrs	a4,a5,t3
20002374:	3bc797ff          	kmxda	a5,a5,t3
20002378:	8741                	c.srai	a4,0x10
2000237a:	3ee797ff          	pktb16	a5,a5,a4
2000237e:	00f82023          	sw	a5,0(a6)
20002382:	18fd                	c.addi	a7,-1
20002384:	0811                	c.addi	a6,4
20002386:	fc0895e3          	bnez	a7,20002350 <riscv_cfft_radix4by2_inverse_q15+0x28>
2000238a:	4689                	c.li	a3,2
2000238c:	8626                	c.mv	a2,s1
2000238e:	85ca                	c.mv	a1,s2
20002390:	8522                	c.mv	a0,s0
20002392:	212d                	c.jal	200027bc <riscv_radix4_butterfly_inverse_q15>
20002394:	85ca                	c.mv	a1,s2
20002396:	854e                	c.mv	a0,s3
20002398:	4689                	c.li	a3,2
2000239a:	8626                	c.mv	a2,s1
2000239c:	420000ef          	jal	ra,200027bc <riscv_radix4_butterfly_inverse_q15>
200023a0:	00391593          	slli	a1,s2,0x3
200023a4:	8522                	c.mv	a0,s0
200023a6:	95a2                	c.add	a1,s0
200023a8:	00051603          	lh	a2,0(a0)
200023ac:	00251683          	lh	a3,2(a0)
200023b0:	00451703          	lh	a4,4(a0)
200023b4:	00651783          	lh	a5,6(a0)
200023b8:	0606                	c.slli	a2,0x1
200023ba:	0686                	c.slli	a3,0x1
200023bc:	0706                	c.slli	a4,0x1
200023be:	0786                	c.slli	a5,0x1
200023c0:	00c51023          	sh	a2,0(a0)
200023c4:	00d51123          	sh	a3,2(a0)
200023c8:	00e51223          	sh	a4,4(a0)
200023cc:	00f51323          	sh	a5,6(a0)
200023d0:	0521                	c.addi	a0,8
200023d2:	fca59be3          	bne	a1,a0,200023a8 <riscv_cfft_radix4by2_inverse_q15+0x80>
200023d6:	40f2                	c.lwsp	ra,28(sp)
200023d8:	4462                	c.lwsp	s0,24(sp)
200023da:	44d2                	c.lwsp	s1,20(sp)
200023dc:	4942                	c.lwsp	s2,16(sp)
200023de:	49b2                	c.lwsp	s3,12(sp)
200023e0:	6105                	c.addi16sp	sp,32
200023e2:	8082                	c.jr	ra
200023e4:	4689                	c.li	a3,2
200023e6:	4581                	c.li	a1,0
200023e8:	3d4000ef          	jal	ra,200027bc <riscv_radix4_butterfly_inverse_q15>
200023ec:	4462                	c.lwsp	s0,24(sp)
200023ee:	40f2                	c.lwsp	ra,28(sp)
200023f0:	4942                	c.lwsp	s2,16(sp)
200023f2:	8626                	c.mv	a2,s1
200023f4:	854e                	c.mv	a0,s3
200023f6:	44d2                	c.lwsp	s1,20(sp)
200023f8:	49b2                	c.lwsp	s3,12(sp)
200023fa:	4689                	c.li	a3,2
200023fc:	4581                	c.li	a1,0
200023fe:	6105                	c.addi16sp	sp,32
20002400:	ae75                	c.j	200027bc <riscv_radix4_butterfly_inverse_q15>
	...

20002404 <riscv_cfft_q15>:
20002404:	1141                	c.addi	sp,-16
20002406:	c422                	c.swsp	s0,8(sp)
20002408:	c226                	c.swsp	s1,4(sp)
2000240a:	c04a                	c.swsp	s2,0(sp)
2000240c:	4705                	c.li	a4,1
2000240e:	c606                	c.swsp	ra,12(sp)
20002410:	00055783          	lhu	a5,0(a0)
20002414:	842a                	c.mv	s0,a0
20002416:	892e                	c.mv	s2,a1
20002418:	84b6                	c.mv	s1,a3
2000241a:	0ae60163          	beq	a2,a4,200024bc <riscv_cfft_q15+0xb8>
2000241e:	10000713          	li	a4,256
20002422:	08e78563          	beq	a5,a4,200024ac <riscv_cfft_q15+0xa8>
20002426:	02f77563          	bgeu	a4,a5,20002450 <riscv_cfft_q15+0x4c>
2000242a:	80078713          	addi	a4,a5,-2048
2000242e:	c32d                	c.beqz	a4,20002490 <riscv_cfft_q15+0x8c>
20002430:	6685                	c.lui	a3,0x1
20002432:	80068693          	addi	a3,a3,-2048 # 800 <pm_sleep_start+0x34>
20002436:	6705                	c.lui	a4,0x1
20002438:	06f6f263          	bgeu	a3,a5,2000249c <riscv_cfft_q15+0x98>
2000243c:	06e78863          	beq	a5,a4,200024ac <riscv_cfft_q15+0xa8>
20002440:	02049463          	bnez	s1,20002468 <riscv_cfft_q15+0x64>
20002444:	40b2                	c.lwsp	ra,12(sp)
20002446:	4422                	c.lwsp	s0,8(sp)
20002448:	4492                	c.lwsp	s1,4(sp)
2000244a:	4902                	c.lwsp	s2,0(sp)
2000244c:	0141                	c.addi	sp,16
2000244e:	8082                	c.jr	ra
20002450:	04000713          	li	a4,64
20002454:	04e78c63          	beq	a5,a4,200024ac <riscv_cfft_q15+0xa8>
20002458:	02f77463          	bgeu	a4,a5,20002480 <riscv_cfft_q15+0x7c>
2000245c:	08000713          	li	a4,128
20002460:	02e78863          	beq	a5,a4,20002490 <riscv_cfft_q15+0x8c>
20002464:	fe0480e3          	beqz	s1,20002444 <riscv_cfft_q15+0x40>
20002468:	00c45583          	lhu	a1,12(s0)
2000246c:	4410                	c.lw	a2,8(s0)
2000246e:	4422                	c.lwsp	s0,8(sp)
20002470:	40b2                	c.lwsp	ra,12(sp)
20002472:	4492                	c.lwsp	s1,4(sp)
20002474:	854a                	c.mv	a0,s2
20002476:	4902                	c.lwsp	s2,0(sp)
20002478:	01010113          	addi	sp,sp,16
2000247c:	78c0006f          	j	20002c08 <riscv_bitreversal_16>
20002480:	01000713          	li	a4,16
20002484:	02e78463          	beq	a5,a4,200024ac <riscv_cfft_q15+0xa8>
20002488:	02000713          	li	a4,32
2000248c:	fae79ae3          	bne	a5,a4,20002440 <riscv_cfft_q15+0x3c>
20002490:	4050                	c.lw	a2,4(s0)
20002492:	85be                	c.mv	a1,a5
20002494:	854a                	c.mv	a0,s2
20002496:	3b5d                	c.jal	2000224c <riscv_cfft_radix4by2_q15>
20002498:	fa9ff06f          	j	20002440 <riscv_cfft_q15+0x3c>
2000249c:	20000713          	li	a4,512
200024a0:	fee788e3          	beq	a5,a4,20002490 <riscv_cfft_q15+0x8c>
200024a4:	40000713          	li	a4,1024
200024a8:	f8e79ce3          	bne	a5,a4,20002440 <riscv_cfft_q15+0x3c>
200024ac:	4050                	c.lw	a2,4(s0)
200024ae:	4685                	c.li	a3,1
200024b0:	85be                	c.mv	a1,a5
200024b2:	854a                	c.mv	a0,s2
200024b4:	080000ef          	jal	ra,20002534 <riscv_radix4_butterfly_q15>
200024b8:	f89ff06f          	j	20002440 <riscv_cfft_q15+0x3c>
200024bc:	10000713          	li	a4,256
200024c0:	06e78263          	beq	a5,a4,20002524 <riscv_cfft_q15+0x120>
200024c4:	00f77e63          	bgeu	a4,a5,200024e0 <riscv_cfft_q15+0xdc>
200024c8:	80078713          	addi	a4,a5,-2048
200024cc:	cf15                	c.beqz	a4,20002508 <riscv_cfft_q15+0x104>
200024ce:	6685                	c.lui	a3,0x1
200024d0:	80068693          	addi	a3,a3,-2048 # 800 <pm_sleep_start+0x34>
200024d4:	6705                	c.lui	a4,0x1
200024d6:	02f6ff63          	bgeu	a3,a5,20002514 <riscv_cfft_q15+0x110>
200024da:	f6e793e3          	bne	a5,a4,20002440 <riscv_cfft_q15+0x3c>
200024de:	a099                	c.j	20002524 <riscv_cfft_q15+0x120>
200024e0:	04000713          	li	a4,64
200024e4:	04e78063          	beq	a5,a4,20002524 <riscv_cfft_q15+0x120>
200024e8:	00f77863          	bgeu	a4,a5,200024f8 <riscv_cfft_q15+0xf4>
200024ec:	08000713          	li	a4,128
200024f0:	00e78c63          	beq	a5,a4,20002508 <riscv_cfft_q15+0x104>
200024f4:	f4dff06f          	j	20002440 <riscv_cfft_q15+0x3c>
200024f8:	01000713          	li	a4,16
200024fc:	02e78463          	beq	a5,a4,20002524 <riscv_cfft_q15+0x120>
20002500:	02000713          	li	a4,32
20002504:	f2e79ee3          	bne	a5,a4,20002440 <riscv_cfft_q15+0x3c>
20002508:	4050                	c.lw	a2,4(s0)
2000250a:	85be                	c.mv	a1,a5
2000250c:	854a                	c.mv	a0,s2
2000250e:	3d29                	c.jal	20002328 <riscv_cfft_radix4by2_inverse_q15>
20002510:	f31ff06f          	j	20002440 <riscv_cfft_q15+0x3c>
20002514:	20000713          	li	a4,512
20002518:	fee788e3          	beq	a5,a4,20002508 <riscv_cfft_q15+0x104>
2000251c:	40000713          	li	a4,1024
20002520:	f2e790e3          	bne	a5,a4,20002440 <riscv_cfft_q15+0x3c>
20002524:	4050                	c.lw	a2,4(s0)
20002526:	4685                	c.li	a3,1
20002528:	85be                	c.mv	a1,a5
2000252a:	854a                	c.mv	a0,s2
2000252c:	290000ef          	jal	ra,200027bc <riscv_radix4_butterfly_inverse_q15>
20002530:	bf01                	c.j	20002440 <riscv_cfft_q15+0x3c>
	...

20002534 <riscv_radix4_butterfly_q15>:
20002534:	ffc5f313          	andi	t1,a1,-4
20002538:	7139                	c.addi16sp	sp,-64
2000253a:	00650e33          	add	t3,a0,t1
2000253e:	8732                	c.mv	a4,a2
20002540:	006e0eb3          	add	t4,t3,t1
20002544:	0025d613          	srli	a2,a1,0x2
20002548:	dc26                	c.swsp	s1,56(sp)
2000254a:	44b1                	c.li	s1,12
2000254c:	029684b3          	mul	s1,a3,s1
20002550:	de22                	c.swsp	s0,60(sp)
20002552:	da4a                	c.swsp	s2,52(sp)
20002554:	d25a                	c.swsp	s6,36(sp)
20002556:	00369913          	slli	s2,a3,0x3
2000255a:	00269b13          	slli	s6,a3,0x2
2000255e:	88aa                	c.mv	a7,a0
20002560:	9376                	c.add	t1,t4
20002562:	843a                	c.mv	s0,a4
20002564:	83ba                	c.mv	t2,a4
20002566:	82ba                	c.mv	t0,a4
20002568:	8f2a                	c.mv	t5,a0
2000256a:	8fb2                	c.mv	t6,a2
2000256c:	4681                	c.li	a3,0
2000256e:	d84e                	c.swsp	s3,48(sp)
20002570:	d652                	c.swsp	s4,44(sp)
20002572:	d456                	c.swsp	s5,40(sp)
20002574:	d05e                	c.swsp	s7,32(sp)
20002576:	ce62                	c.swsp	s8,28(sp)
20002578:	cc66                	c.swsp	s9,24(sp)
2000257a:	ca6a                	c.swsp	s10,20(sp)
2000257c:	01b12823          	sw	s11,16(sp)
20002580:	000f2783          	lw	a5,0(t5)
20002584:	00d787ff          	radd16	a5,a5,a3
20002588:	00d787ff          	radd16	a5,a5,a3
2000258c:	000ea803          	lw	a6,0(t4)
20002590:	00d8087f          	radd16	a6,a6,a3
20002594:	00d8087f          	radd16	a6,a6,a3
20002598:	1107857f          	kadd16	a0,a5,a6
2000259c:	130787ff          	ksub16	a5,a5,a6
200025a0:	000e2803          	lw	a6,0(t3)
200025a4:	00d8087f          	radd16	a6,a6,a3
200025a8:	00d8087f          	radd16	a6,a6,a3
200025ac:	00032983          	lw	s3,0(t1)
200025b0:	00d989ff          	radd16	s3,s3,a3
200025b4:	00d989ff          	radd16	s3,s3,a3
200025b8:	1138087f          	kadd16	a6,a6,s3
200025bc:	010509ff          	radd16	s3,a0,a6
200025c0:	013f2023          	sw	s3,0(t5)
200025c4:	0f11                	c.addi	t5,4
200025c6:	1305057f          	ksub16	a0,a0,a6
200025ca:	0002a803          	lw	a6,0(t0)
200025ce:	38a819ff          	kmda	s3,a6,a0
200025d2:	7905157f          	smxds	a0,a0,a6
200025d6:	000e2803          	lw	a6,0(t3)
200025da:	00d8087f          	radd16	a6,a6,a3
200025de:	00d8087f          	radd16	a6,a6,a3
200025e2:	4109d993          	srai	s3,s3,0x10
200025e6:	3f35157f          	pktb16	a0,a0,s3
200025ea:	00ae2023          	sw	a0,0(t3)
200025ee:	0e11                	c.addi	t3,4
200025f0:	00032503          	lw	a0,0(t1)
200025f4:	00d5057f          	radd16	a0,a0,a3
200025f8:	00d5057f          	radd16	a0,a0,a3
200025fc:	12a8057f          	ksub16	a0,a6,a0
20002600:	14a7887f          	kcras16	a6,a5,a0
20002604:	16a787ff          	kcrsa16	a5,a5,a0
20002608:	0003a983          	lw	s3,0(t2)
2000260c:	38f9957f          	kmda	a0,s3,a5
20002610:	793797ff          	smxds	a5,a5,s3
20002614:	8541                	c.srai	a0,0x10
20002616:	3ea797ff          	pktb16	a5,a5,a0
2000261a:	00fea023          	sw	a5,0(t4)
2000261e:	0e91                	c.addi	t4,4
20002620:	401c                	c.lw	a5,0(s0)
20002622:	3907957f          	kmda	a0,a5,a6
20002626:	78f817ff          	smxds	a5,a6,a5
2000262a:	8541                	c.srai	a0,0x10
2000262c:	3ea797ff          	pktb16	a5,a5,a0
20002630:	00f32023          	sw	a5,0(t1)
20002634:	1ffd                	c.addi	t6,-1
20002636:	0311                	c.addi	t1,4
20002638:	92ca                	c.add	t0,s2
2000263a:	93da                	c.add	t2,s6
2000263c:	9426                	c.add	s0,s1
2000263e:	f40f91e3          	bnez	t6,20002580 <riscv_radix4_butterfly_q15+0x4c>
20002642:	4791                	c.li	a5,4
20002644:	10c7f263          	bgeu	a5,a2,20002748 <riscv_radix4_butterfly_q15+0x214>
20002648:	8bb2                	c.mv	s7,a2
2000264a:	4db1                	c.li	s11,12
2000264c:	4501                	c.li	a0,0
2000264e:	86ba                	c.mv	a3,a4
20002650:	03bb0cb3          	mul	s9,s6,s11
20002654:	83de                	c.mv	t2,s7
20002656:	002bdb93          	srli	s7,s7,0x2
2000265a:	002b1c13          	slli	s8,s6,0x2
2000265e:	002b9a93          	slli	s5,s7,0x2
20002662:	00239e13          	slli	t3,t2,0x2
20002666:	0b0e                	c.slli	s6,0x3
20002668:	84c6                	c.mv	s1,a7
2000266a:	8a36                	c.mv	s4,a3
2000266c:	89b6                	c.mv	s3,a3
2000266e:	8936                	c.mv	s2,a3
20002670:	4401                	c.li	s0,0
20002672:	87b2                	c.mv	a5,a2
20002674:	8746                	c.mv	a4,a7
20002676:	8836                	c.mv	a6,a3
20002678:	01912623          	sw	s9,12(sp)
2000267c:	00092283          	lw	t0,0(s2)
20002680:	0009af83          	lw	t6,0(s3)
20002684:	000a2f03          	lw	t5,0(s4)
20002688:	009a86b3          	add	a3,s5,s1
2000268c:	00da88b3          	add	a7,s5,a3
20002690:	8326                	c.mv	t1,s1
20002692:	011a8633          	add	a2,s5,a7
20002696:	08b47963          	bgeu	s0,a1,20002728 <riscv_radix4_butterfly_q15+0x1f4>
2000269a:	8ea2                	c.mv	t4,s0
2000269c:	c256                	c.swsp	s5,4(sp)
2000269e:	c426                	c.swsp	s1,8(sp)
200026a0:	00032a83          	lw	s5,0(t1)
200026a4:	0008ac83          	lw	s9,0(a7)
200026a8:	119a84ff          	kadd16	s1,s5,s9
200026ac:	139a8aff          	ksub16	s5,s5,s9
200026b0:	0006ac83          	lw	s9,0(a3)
200026b4:	00062d03          	lw	s10,0(a2)
200026b8:	11ac8cff          	kadd16	s9,s9,s10
200026bc:	01948d7f          	radd16	s10,s1,s9
200026c0:	00ad0d7f          	radd16	s10,s10,a0
200026c4:	01a32023          	sw	s10,0(t1)
200026c8:	9372                	c.add	t1,t3
200026ca:	039484ff          	rsub16	s1,s1,s9
200026ce:	389f9cff          	kmda	s9,t6,s1
200026d2:	79f494ff          	smxds	s1,s1,t6
200026d6:	0006ad03          	lw	s10,0(a3)
200026da:	410cdc93          	srai	s9,s9,0x10
200026de:	3f9494ff          	pktb16	s1,s1,s9
200026e2:	c284                	c.sw	s1,0(a3)
200026e4:	96f2                	c.add	a3,t3
200026e6:	4204                	c.lw	s1,0(a2)
200026e8:	129d04ff          	ksub16	s1,s10,s1
200026ec:	049a8cff          	rcras16	s9,s5,s1
200026f0:	069a84ff          	rcrsa16	s1,s5,s1
200026f4:	38929aff          	kmda	s5,t0,s1
200026f8:	785494ff          	smxds	s1,s1,t0
200026fc:	410ada93          	srai	s5,s5,0x10
20002700:	3f5494ff          	pktb16	s1,s1,s5
20002704:	0098a023          	sw	s1,0(a7)
20002708:	98f2                	c.add	a7,t3
2000270a:	399f14ff          	kmda	s1,t5,s9
2000270e:	79ec9cff          	smxds	s9,s9,t5
20002712:	84c1                	c.srai	s1,0x10
20002714:	3e9c9cff          	pktb16	s9,s9,s1
20002718:	01962023          	sw	s9,0(a2)
2000271c:	9e9e                	c.add	t4,t2
2000271e:	9672                	c.add	a2,t3
20002720:	f8bee0e3          	bltu	t4,a1,200026a0 <riscv_radix4_butterfly_q15+0x16c>
20002724:	4a92                	c.lwsp	s5,4(sp)
20002726:	44a2                	c.lwsp	s1,8(sp)
20002728:	46b2                	c.lwsp	a3,12(sp)
2000272a:	0405                	c.addi	s0,1
2000272c:	9962                	c.add	s2,s8
2000272e:	99da                	c.add	s3,s6
20002730:	9a36                	c.add	s4,a3
20002732:	0491                	c.addi	s1,4
20002734:	f48b94e3          	bne	s7,s0,2000267c <riscv_radix4_butterfly_q15+0x148>
20002738:	863e                	c.mv	a2,a5
2000273a:	4791                	c.li	a5,4
2000273c:	88ba                	c.mv	a7,a4
2000273e:	86c2                	c.mv	a3,a6
20002740:	01800b33          	add	s6,zero,s8
20002744:	f177e6e3          	bltu	a5,s7,20002650 <riscv_radix4_butterfly_q15+0x11c>
20002748:	0008a783          	lw	a5,0(a7)
2000274c:	00488e93          	addi	t4,a7,4
20002750:	000ea703          	lw	a4,0(t4)
20002754:	00888313          	addi	t1,a7,8
20002758:	00032e03          	lw	t3,0(t1)
2000275c:	00c88813          	addi	a6,a7,12
20002760:	00082583          	lw	a1,0(a6)
20002764:	11c786ff          	kadd16	a3,a5,t3
20002768:	10b7057f          	kadd16	a0,a4,a1
2000276c:	00a6857f          	radd16	a0,a3,a0
20002770:	00a8a023          	sw	a0,0(a7)
20002774:	10b7057f          	kadd16	a0,a4,a1
20002778:	02a686ff          	rsub16	a3,a3,a0
2000277c:	00dea023          	sw	a3,0(t4)
20002780:	13c787ff          	ksub16	a5,a5,t3
20002784:	12b7077f          	ksub16	a4,a4,a1
20002788:	06e786ff          	rcrsa16	a3,a5,a4
2000278c:	00d32023          	sw	a3,0(t1)
20002790:	04e787ff          	rcras16	a5,a5,a4
20002794:	00f82023          	sw	a5,0(a6)
20002798:	167d                	c.addi	a2,-1
2000279a:	08c1                	c.addi	a7,16
2000279c:	f655                	c.bnez	a2,20002748 <riscv_radix4_butterfly_q15+0x214>
2000279e:	5472                	c.lwsp	s0,60(sp)
200027a0:	54e2                	c.lwsp	s1,56(sp)
200027a2:	5952                	c.lwsp	s2,52(sp)
200027a4:	59c2                	c.lwsp	s3,48(sp)
200027a6:	5a32                	c.lwsp	s4,44(sp)
200027a8:	5aa2                	c.lwsp	s5,40(sp)
200027aa:	5b12                	c.lwsp	s6,36(sp)
200027ac:	5b82                	c.lwsp	s7,32(sp)
200027ae:	4c72                	c.lwsp	s8,28(sp)
200027b0:	4ce2                	c.lwsp	s9,24(sp)
200027b2:	4d52                	c.lwsp	s10,20(sp)
200027b4:	4dc2                	c.lwsp	s11,16(sp)
200027b6:	6121                	c.addi16sp	sp,64
200027b8:	8082                	c.jr	ra
	...

200027bc <riscv_radix4_butterfly_inverse_q15>:
200027bc:	ffc5f813          	andi	a6,a1,-4
200027c0:	7139                	c.addi16sp	sp,-64
200027c2:	01050333          	add	t1,a0,a6
200027c6:	8732                	c.mv	a4,a2
200027c8:	01030e33          	add	t3,t1,a6
200027cc:	0025d613          	srli	a2,a1,0x2
200027d0:	de22                	c.swsp	s0,60(sp)
200027d2:	4431                	c.li	s0,12
200027d4:	02868433          	mul	s0,a3,s0
200027d8:	dc26                	c.swsp	s1,56(sp)
200027da:	d25a                	c.swsp	s6,36(sp)
200027dc:	00369493          	slli	s1,a3,0x3
200027e0:	00269b13          	slli	s6,a3,0x2
200027e4:	88aa                	c.mv	a7,a0
200027e6:	9872                	c.add	a6,t3
200027e8:	83ba                	c.mv	t2,a4
200027ea:	82ba                	c.mv	t0,a4
200027ec:	8fba                	c.mv	t6,a4
200027ee:	8eaa                	c.mv	t4,a0
200027f0:	8f32                	c.mv	t5,a2
200027f2:	4681                	c.li	a3,0
200027f4:	da4a                	c.swsp	s2,52(sp)
200027f6:	d84e                	c.swsp	s3,48(sp)
200027f8:	d652                	c.swsp	s4,44(sp)
200027fa:	d456                	c.swsp	s5,40(sp)
200027fc:	d05e                	c.swsp	s7,32(sp)
200027fe:	ce62                	c.swsp	s8,28(sp)
20002800:	cc66                	c.swsp	s9,24(sp)
20002802:	ca6a                	c.swsp	s10,20(sp)
20002804:	01b12823          	sw	s11,16(sp)
20002808:	000ea783          	lw	a5,0(t4)
2000280c:	00d787ff          	radd16	a5,a5,a3
20002810:	00d787ff          	radd16	a5,a5,a3
20002814:	000e2503          	lw	a0,0(t3)
20002818:	00d5057f          	radd16	a0,a0,a3
2000281c:	00d5057f          	radd16	a0,a0,a3
20002820:	10a7897f          	kadd16	s2,a5,a0
20002824:	12a787ff          	ksub16	a5,a5,a0
20002828:	00032503          	lw	a0,0(t1)
2000282c:	00d5057f          	radd16	a0,a0,a3
20002830:	00d5057f          	radd16	a0,a0,a3
20002834:	00082983          	lw	s3,0(a6)
20002838:	00d989ff          	radd16	s3,s3,a3
2000283c:	00d989ff          	radd16	s3,s3,a3
20002840:	1135057f          	kadd16	a0,a0,s3
20002844:	00a909ff          	radd16	s3,s2,a0
20002848:	013ea023          	sw	s3,0(t4)
2000284c:	0e91                	c.addi	t4,4
2000284e:	12a9097f          	ksub16	s2,s2,a0
20002852:	000fa503          	lw	a0,0(t6)
20002856:	692519ff          	smdrs	s3,a0,s2
2000285a:	3b25197f          	kmxda	s2,a0,s2
2000285e:	00032503          	lw	a0,0(t1)
20002862:	00d5057f          	radd16	a0,a0,a3
20002866:	00d5057f          	radd16	a0,a0,a3
2000286a:	4109d993          	srai	s3,s3,0x10
2000286e:	3f39197f          	pktb16	s2,s2,s3
20002872:	01232023          	sw	s2,0(t1)
20002876:	0311                	c.addi	t1,4
20002878:	00082903          	lw	s2,0(a6)
2000287c:	00d9097f          	radd16	s2,s2,a3
20002880:	00d9097f          	radd16	s2,s2,a3
20002884:	1325057f          	ksub16	a0,a0,s2
20002888:	16a789ff          	kcrsa16	s3,a5,a0
2000288c:	14a787ff          	kcras16	a5,a5,a0
20002890:	0002a503          	lw	a0,0(t0)
20002894:	68f5197f          	smdrs	s2,a0,a5
20002898:	3af517ff          	kmxda	a5,a0,a5
2000289c:	41095513          	srai	a0,s2,0x10
200028a0:	3ea797ff          	pktb16	a5,a5,a0
200028a4:	00fe2023          	sw	a5,0(t3)
200028a8:	0e11                	c.addi	t3,4
200028aa:	0003a783          	lw	a5,0(t2)
200028ae:	6937957f          	smdrs	a0,a5,s3
200028b2:	3b3797ff          	kmxda	a5,a5,s3
200028b6:	8541                	c.srai	a0,0x10
200028b8:	3ea797ff          	pktb16	a5,a5,a0
200028bc:	00f82023          	sw	a5,0(a6)
200028c0:	1f7d                	c.addi	t5,-1
200028c2:	0811                	c.addi	a6,4
200028c4:	9fa6                	c.add	t6,s1
200028c6:	92da                	c.add	t0,s6
200028c8:	93a2                	c.add	t2,s0
200028ca:	f20f1fe3          	bnez	t5,20002808 <riscv_radix4_butterfly_inverse_q15+0x4c>
200028ce:	4791                	c.li	a5,4
200028d0:	10c7f263          	bgeu	a5,a2,200029d4 <riscv_radix4_butterfly_inverse_q15+0x218>
200028d4:	8bb2                	c.mv	s7,a2
200028d6:	4db1                	c.li	s11,12
200028d8:	4501                	c.li	a0,0
200028da:	86ba                	c.mv	a3,a4
200028dc:	03bb0cb3          	mul	s9,s6,s11
200028e0:	83de                	c.mv	t2,s7
200028e2:	002bdb93          	srli	s7,s7,0x2
200028e6:	002b1c13          	slli	s8,s6,0x2
200028ea:	002b9a93          	slli	s5,s7,0x2
200028ee:	00239e13          	slli	t3,t2,0x2
200028f2:	0b0e                	c.slli	s6,0x3
200028f4:	84c6                	c.mv	s1,a7
200028f6:	8a36                	c.mv	s4,a3
200028f8:	89b6                	c.mv	s3,a3
200028fa:	8936                	c.mv	s2,a3
200028fc:	4401                	c.li	s0,0
200028fe:	87b2                	c.mv	a5,a2
20002900:	8746                	c.mv	a4,a7
20002902:	8836                	c.mv	a6,a3
20002904:	01912623          	sw	s9,12(sp)
20002908:	00092283          	lw	t0,0(s2)
2000290c:	0009af83          	lw	t6,0(s3)
20002910:	000a2f03          	lw	t5,0(s4)
20002914:	009a86b3          	add	a3,s5,s1
20002918:	00da88b3          	add	a7,s5,a3
2000291c:	8326                	c.mv	t1,s1
2000291e:	011a8633          	add	a2,s5,a7
20002922:	08b47963          	bgeu	s0,a1,200029b4 <riscv_radix4_butterfly_inverse_q15+0x1f8>
20002926:	8ea2                	c.mv	t4,s0
20002928:	c256                	c.swsp	s5,4(sp)
2000292a:	c426                	c.swsp	s1,8(sp)
2000292c:	00032a83          	lw	s5,0(t1)
20002930:	0008ac83          	lw	s9,0(a7)
20002934:	119a84ff          	kadd16	s1,s5,s9
20002938:	139a8aff          	ksub16	s5,s5,s9
2000293c:	0006ac83          	lw	s9,0(a3)
20002940:	00062d03          	lw	s10,0(a2)
20002944:	11ac8cff          	kadd16	s9,s9,s10
20002948:	01948d7f          	radd16	s10,s1,s9
2000294c:	00ad0d7f          	radd16	s10,s10,a0
20002950:	01a32023          	sw	s10,0(t1)
20002954:	9372                	c.add	t1,t3
20002956:	039484ff          	rsub16	s1,s1,s9
2000295a:	689f9cff          	smdrs	s9,t6,s1
2000295e:	3a9f94ff          	kmxda	s1,t6,s1
20002962:	0006ad03          	lw	s10,0(a3)
20002966:	410cdc93          	srai	s9,s9,0x10
2000296a:	3f9494ff          	pktb16	s1,s1,s9
2000296e:	c284                	c.sw	s1,0(a3)
20002970:	96f2                	c.add	a3,t3
20002972:	4204                	c.lw	s1,0(a2)
20002974:	129d04ff          	ksub16	s1,s10,s1
20002978:	069a8cff          	rcrsa16	s9,s5,s1
2000297c:	049a84ff          	rcras16	s1,s5,s1
20002980:	68929aff          	smdrs	s5,t0,s1
20002984:	3a9294ff          	kmxda	s1,t0,s1
20002988:	410ada93          	srai	s5,s5,0x10
2000298c:	3f5494ff          	pktb16	s1,s1,s5
20002990:	0098a023          	sw	s1,0(a7)
20002994:	98f2                	c.add	a7,t3
20002996:	699f14ff          	smdrs	s1,t5,s9
2000299a:	3b9f1cff          	kmxda	s9,t5,s9
2000299e:	84c1                	c.srai	s1,0x10
200029a0:	3e9c9cff          	pktb16	s9,s9,s1
200029a4:	01962023          	sw	s9,0(a2)
200029a8:	9e9e                	c.add	t4,t2
200029aa:	9672                	c.add	a2,t3
200029ac:	f8bee0e3          	bltu	t4,a1,2000292c <riscv_radix4_butterfly_inverse_q15+0x170>
200029b0:	4a92                	c.lwsp	s5,4(sp)
200029b2:	44a2                	c.lwsp	s1,8(sp)
200029b4:	46b2                	c.lwsp	a3,12(sp)
200029b6:	0405                	c.addi	s0,1
200029b8:	9962                	c.add	s2,s8
200029ba:	99da                	c.add	s3,s6
200029bc:	9a36                	c.add	s4,a3
200029be:	0491                	c.addi	s1,4
200029c0:	f48b94e3          	bne	s7,s0,20002908 <riscv_radix4_butterfly_inverse_q15+0x14c>
200029c4:	863e                	c.mv	a2,a5
200029c6:	4791                	c.li	a5,4
200029c8:	88ba                	c.mv	a7,a4
200029ca:	86c2                	c.mv	a3,a6
200029cc:	01800b33          	add	s6,zero,s8
200029d0:	f177e6e3          	bltu	a5,s7,200028dc <riscv_radix4_butterfly_inverse_q15+0x120>
200029d4:	0008a783          	lw	a5,0(a7)
200029d8:	00488e93          	addi	t4,a7,4
200029dc:	000ea703          	lw	a4,0(t4)
200029e0:	00888313          	addi	t1,a7,8
200029e4:	00032e03          	lw	t3,0(t1)
200029e8:	00c88813          	addi	a6,a7,12
200029ec:	00082583          	lw	a1,0(a6)
200029f0:	11c786ff          	kadd16	a3,a5,t3
200029f4:	10b7057f          	kadd16	a0,a4,a1
200029f8:	00a6857f          	radd16	a0,a3,a0
200029fc:	00a8a023          	sw	a0,0(a7)
20002a00:	10b7057f          	kadd16	a0,a4,a1
20002a04:	02a686ff          	rsub16	a3,a3,a0
20002a08:	00dea023          	sw	a3,0(t4)
20002a0c:	13c787ff          	ksub16	a5,a5,t3
20002a10:	12b7077f          	ksub16	a4,a4,a1
20002a14:	04e786ff          	rcras16	a3,a5,a4
20002a18:	00d32023          	sw	a3,0(t1)
20002a1c:	06e787ff          	rcrsa16	a5,a5,a4
20002a20:	00f82023          	sw	a5,0(a6)
20002a24:	167d                	c.addi	a2,-1
20002a26:	08c1                	c.addi	a7,16
20002a28:	f655                	c.bnez	a2,200029d4 <riscv_radix4_butterfly_inverse_q15+0x218>
20002a2a:	5472                	c.lwsp	s0,60(sp)
20002a2c:	54e2                	c.lwsp	s1,56(sp)
20002a2e:	5952                	c.lwsp	s2,52(sp)
20002a30:	59c2                	c.lwsp	s3,48(sp)
20002a32:	5a32                	c.lwsp	s4,44(sp)
20002a34:	5aa2                	c.lwsp	s5,40(sp)
20002a36:	5b12                	c.lwsp	s6,36(sp)
20002a38:	5b82                	c.lwsp	s7,32(sp)
20002a3a:	4c72                	c.lwsp	s8,28(sp)
20002a3c:	4ce2                	c.lwsp	s9,24(sp)
20002a3e:	4d52                	c.lwsp	s10,20(sp)
20002a40:	4dc2                	c.lwsp	s11,16(sp)
20002a42:	6121                	c.addi16sp	sp,64
20002a44:	8082                	c.jr	ra
	...

20002a48 <riscv_cfft_init_4096_q15>:
20002a48:	0000c797          	auipc	a5,0xc
20002a4c:	59078793          	addi	a5,a5,1424 # 2000efd8 <riscv_cfft_sR_q15_len4096>
20002a50:	00c7d683          	lhu	a3,12(a5)
20002a54:	4798                	c.lw	a4,8(a5)
20002a56:	43dc                	c.lw	a5,4(a5)
20002a58:	6605                	c.lui	a2,0x1
20002a5a:	00c51023          	sh	a2,0(a0)
20002a5e:	00d51623          	sh	a3,12(a0)
20002a62:	c15c                	c.sw	a5,4(a0)
20002a64:	c518                	c.sw	a4,8(a0)
20002a66:	4501                	c.li	a0,0
20002a68:	8082                	c.jr	ra
	...

20002a6c <riscv_cfft_init_2048_q15>:
20002a6c:	0000c797          	auipc	a5,0xc
20002a70:	57c78793          	addi	a5,a5,1404 # 2000efe8 <riscv_cfft_sR_q15_len2048>
20002a74:	00c7d683          	lhu	a3,12(a5)
20002a78:	4798                	c.lw	a4,8(a5)
20002a7a:	6605                	c.lui	a2,0x1
20002a7c:	43dc                	c.lw	a5,4(a5)
20002a7e:	80060613          	addi	a2,a2,-2048 # 800 <pm_sleep_start+0x34>
20002a82:	00c51023          	sh	a2,0(a0)
20002a86:	00d51623          	sh	a3,12(a0)
20002a8a:	c15c                	c.sw	a5,4(a0)
20002a8c:	c518                	c.sw	a4,8(a0)
20002a8e:	4501                	c.li	a0,0
20002a90:	8082                	c.jr	ra
	...

20002a94 <riscv_cfft_init_1024_q15>:
20002a94:	0000c797          	auipc	a5,0xc
20002a98:	56478793          	addi	a5,a5,1380 # 2000eff8 <riscv_cfft_sR_q15_len1024>
20002a9c:	00c7d683          	lhu	a3,12(a5)
20002aa0:	4798                	c.lw	a4,8(a5)
20002aa2:	43dc                	c.lw	a5,4(a5)
20002aa4:	40000613          	li	a2,1024
20002aa8:	00c51023          	sh	a2,0(a0)
20002aac:	00d51623          	sh	a3,12(a0)
20002ab0:	c15c                	c.sw	a5,4(a0)
20002ab2:	c518                	c.sw	a4,8(a0)
20002ab4:	4501                	c.li	a0,0
20002ab6:	8082                	c.jr	ra

20002ab8 <riscv_cfft_init_512_q15>:
20002ab8:	0000c797          	auipc	a5,0xc
20002abc:	55078793          	addi	a5,a5,1360 # 2000f008 <riscv_cfft_sR_q15_len512>
20002ac0:	00c7d683          	lhu	a3,12(a5)
20002ac4:	4798                	c.lw	a4,8(a5)
20002ac6:	43dc                	c.lw	a5,4(a5)
20002ac8:	20000613          	li	a2,512
20002acc:	00c51023          	sh	a2,0(a0)
20002ad0:	00d51623          	sh	a3,12(a0)
20002ad4:	c15c                	c.sw	a5,4(a0)
20002ad6:	c518                	c.sw	a4,8(a0)
20002ad8:	4501                	c.li	a0,0
20002ada:	8082                	c.jr	ra

20002adc <riscv_cfft_init_256_q15>:
20002adc:	0000c797          	auipc	a5,0xc
20002ae0:	53c78793          	addi	a5,a5,1340 # 2000f018 <riscv_cfft_sR_q15_len256>
20002ae4:	00c7d683          	lhu	a3,12(a5)
20002ae8:	4798                	c.lw	a4,8(a5)
20002aea:	43dc                	c.lw	a5,4(a5)
20002aec:	10000613          	li	a2,256
20002af0:	00c51023          	sh	a2,0(a0)
20002af4:	00d51623          	sh	a3,12(a0)
20002af8:	c15c                	c.sw	a5,4(a0)
20002afa:	c518                	c.sw	a4,8(a0)
20002afc:	4501                	c.li	a0,0
20002afe:	8082                	c.jr	ra

20002b00 <riscv_cfft_init_128_q15>:
20002b00:	0000c797          	auipc	a5,0xc
20002b04:	52878793          	addi	a5,a5,1320 # 2000f028 <riscv_cfft_sR_q15_len128>
20002b08:	00c7d683          	lhu	a3,12(a5)
20002b0c:	4798                	c.lw	a4,8(a5)
20002b0e:	43dc                	c.lw	a5,4(a5)
20002b10:	08000613          	li	a2,128
20002b14:	00c51023          	sh	a2,0(a0)
20002b18:	00d51623          	sh	a3,12(a0)
20002b1c:	c15c                	c.sw	a5,4(a0)
20002b1e:	c518                	c.sw	a4,8(a0)
20002b20:	4501                	c.li	a0,0
20002b22:	8082                	c.jr	ra

20002b24 <riscv_cfft_init_64_q15>:
20002b24:	0000c797          	auipc	a5,0xc
20002b28:	51478793          	addi	a5,a5,1300 # 2000f038 <riscv_cfft_sR_q15_len64>
20002b2c:	00c7d683          	lhu	a3,12(a5)
20002b30:	4798                	c.lw	a4,8(a5)
20002b32:	43dc                	c.lw	a5,4(a5)
20002b34:	04000613          	li	a2,64
20002b38:	00c51023          	sh	a2,0(a0)
20002b3c:	00d51623          	sh	a3,12(a0)
20002b40:	c15c                	c.sw	a5,4(a0)
20002b42:	c518                	c.sw	a4,8(a0)
20002b44:	4501                	c.li	a0,0
20002b46:	8082                	c.jr	ra

20002b48 <riscv_cfft_init_32_q15>:
20002b48:	0000c797          	auipc	a5,0xc
20002b4c:	50078793          	addi	a5,a5,1280 # 2000f048 <riscv_cfft_sR_q15_len32>
20002b50:	00c7d683          	lhu	a3,12(a5)
20002b54:	4798                	c.lw	a4,8(a5)
20002b56:	43dc                	c.lw	a5,4(a5)
20002b58:	02000613          	li	a2,32
20002b5c:	00c51023          	sh	a2,0(a0)
20002b60:	00d51623          	sh	a3,12(a0)
20002b64:	c15c                	c.sw	a5,4(a0)
20002b66:	c518                	c.sw	a4,8(a0)
20002b68:	4501                	c.li	a0,0
20002b6a:	8082                	c.jr	ra

20002b6c <riscv_cfft_init_16_q15>:
20002b6c:	0000c797          	auipc	a5,0xc
20002b70:	4ec78793          	addi	a5,a5,1260 # 2000f058 <riscv_cfft_sR_q15_len16>
20002b74:	00c7d683          	lhu	a3,12(a5)
20002b78:	4798                	c.lw	a4,8(a5)
20002b7a:	43dc                	c.lw	a5,4(a5)
20002b7c:	4641                	c.li	a2,16
20002b7e:	00c51023          	sh	a2,0(a0)
20002b82:	00d51623          	sh	a3,12(a0)
20002b86:	c15c                	c.sw	a5,4(a0)
20002b88:	c518                	c.sw	a4,8(a0)
20002b8a:	4501                	c.li	a0,0
20002b8c:	8082                	c.jr	ra
	...

20002b90 <riscv_cfft_init_q15>:
20002b90:	10000793          	li	a5,256
20002b94:	04f58e63          	beq	a1,a5,20002bf0 <riscv_cfft_init_q15+0x60>
20002b98:	00b7fe63          	bgeu	a5,a1,20002bb4 <riscv_cfft_init_q15+0x24>
20002b9c:	80058793          	addi	a5,a1,-2048
20002ba0:	cbb1                	c.beqz	a5,20002bf4 <riscv_cfft_init_q15+0x64>
20002ba2:	6705                	c.lui	a4,0x1
20002ba4:	80070713          	addi	a4,a4,-2048 # 800 <pm_sleep_start+0x34>
20002ba8:	6785                	c.lui	a5,0x1
20002baa:	02b77163          	bgeu	a4,a1,20002bcc <riscv_cfft_init_q15+0x3c>
20002bae:	04f59563          	bne	a1,a5,20002bf8 <riscv_cfft_init_q15+0x68>
20002bb2:	bd59                	c.j	20002a48 <riscv_cfft_init_4096_q15>
20002bb4:	04000793          	li	a5,64
20002bb8:	04f58263          	beq	a1,a5,20002bfc <riscv_cfft_init_q15+0x6c>
20002bbc:	02b7f263          	bgeu	a5,a1,20002be0 <riscv_cfft_init_q15+0x50>
20002bc0:	08000793          	li	a5,128
20002bc4:	02f59a63          	bne	a1,a5,20002bf8 <riscv_cfft_init_q15+0x68>
20002bc8:	f39ff06f          	j	20002b00 <riscv_cfft_init_128_q15>
20002bcc:	20000793          	li	a5,512
20002bd0:	02f58863          	beq	a1,a5,20002c00 <riscv_cfft_init_q15+0x70>
20002bd4:	40000793          	li	a5,1024
20002bd8:	02f59063          	bne	a1,a5,20002bf8 <riscv_cfft_init_q15+0x68>
20002bdc:	eb9ff06f          	j	20002a94 <riscv_cfft_init_1024_q15>
20002be0:	47c1                	c.li	a5,16
20002be2:	02f58163          	beq	a1,a5,20002c04 <riscv_cfft_init_q15+0x74>
20002be6:	02000793          	li	a5,32
20002bea:	00f59763          	bne	a1,a5,20002bf8 <riscv_cfft_init_q15+0x68>
20002bee:	bfa9                	c.j	20002b48 <riscv_cfft_init_32_q15>
20002bf0:	eedff06f          	j	20002adc <riscv_cfft_init_256_q15>
20002bf4:	e79ff06f          	j	20002a6c <riscv_cfft_init_2048_q15>
20002bf8:	557d                	c.li	a0,-1
20002bfa:	8082                	c.jr	ra
20002bfc:	f29ff06f          	j	20002b24 <riscv_cfft_init_64_q15>
20002c00:	eb9ff06f          	j	20002ab8 <riscv_cfft_init_512_q15>
20002c04:	b7a5                	c.j	20002b6c <riscv_cfft_init_16_q15>
	...

20002c08 <riscv_bitreversal_16>:
20002c08:	cda1                	c.beqz	a1,20002c60 <riscv_bitreversal_16+0x58>
20002c0a:	15fd                	c.addi	a1,-1
20002c0c:	8185                	c.srli	a1,0x1
20002c0e:	00259813          	slli	a6,a1,0x2
20002c12:	00460793          	addi	a5,a2,4
20002c16:	983e                	c.add	a6,a5
20002c18:	00265783          	lhu	a5,2(a2)
20002c1c:	00065703          	lhu	a4,0(a2)
20002c20:	0611                	c.addi	a2,4
20002c22:	8389                	c.srli	a5,0x2
20002c24:	0786                	c.slli	a5,0x1
20002c26:	8309                	c.srli	a4,0x2
20002c28:	00f506b3          	add	a3,a0,a5
20002c2c:	0706                	c.slli	a4,0x1
20002c2e:	0006d303          	lhu	t1,0(a3)
20002c32:	00e505b3          	add	a1,a0,a4
20002c36:	0005d883          	lhu	a7,0(a1)
20002c3a:	0789                	c.addi	a5,2
20002c3c:	00659023          	sh	t1,0(a1)
20002c40:	97aa                	c.add	a5,a0
20002c42:	0709                	c.addi	a4,2
20002c44:	01169023          	sh	a7,0(a3)
20002c48:	00a70733          	add	a4,a4,a0
20002c4c:	0007d583          	lhu	a1,0(a5) # 1000 <trap_entry+0x10>
20002c50:	00075683          	lhu	a3,0(a4)
20002c54:	00b71023          	sh	a1,0(a4)
20002c58:	00d79023          	sh	a3,0(a5)
20002c5c:	fac81ee3          	bne	a6,a2,20002c18 <riscv_bitreversal_16+0x10>
20002c60:	8082                	c.jr	ra
	...

20002c64 <sinf>:
20002c64:	3f491737          	lui	a4,0x3f491
20002c68:	e00507d3          	fmv.x.w	a5,fa0
20002c6c:	fda70713          	addi	a4,a4,-38 # 3f490fda <_DATA_LMA_START+0x1f481d82>
20002c70:	85be                	c.mv	a1,a5
20002c72:	7807a6db          	bfoz	a3,a5,30,0
20002c76:	02d76963          	bltu	a4,a3,20002ca8 <sinf+0x44>
20002c7a:	39800737          	lui	a4,0x39800
20002c7e:	0ae6e963          	bltu	a3,a4,20002d30 <sinf+0xcc>
20002c82:	10a577d3          	fmul.s	fa5,fa0,fa0
20002c86:	801f970b          	addigp	a4,-2048 # 80000 <cst_libm_sincosf>
20002c8a:	20a505d3          	fmv.s	fa1,fa0
20002c8e:	6354                	c.flw	fa3,4(a4)
20002c90:	6708                	c.flw	fa0,8(a4)
20002c92:	6318                	c.flw	fa4,0(a4)
20002c94:	68f57543          	fmadd.s	fa0,fa0,fa5,fa3
20002c98:	70f57543          	fmadd.s	fa0,fa0,fa5,fa4
20002c9c:	10f57553          	fmul.s	fa0,fa0,fa5
20002ca0:	58a5f543          	fmadd.s	fa0,fa1,fa0,fa1
20002ca4:	00008067          	ret
20002ca8:	1101                	c.addi	sp,-32
20002caa:	46491737          	lui	a4,0x46491
20002cae:	ce06                	c.swsp	ra,28(sp)
20002cb0:	e4870713          	addi	a4,a4,-440 # 46490e48 <_DATA_LMA_START+0x26481bf0>
20002cb4:	0ad76663          	bltu	a4,a3,20002d60 <sinf+0xfc>
20002cb8:	2000f737          	lui	a4,0x2000f
20002cbc:	2000f6b7          	lui	a3,0x2000f
20002cc0:	0686a587          	flw	fa1,104(a3) # 2000f068 <riscv_cfft_sR_q15_len16+0x10>
20002cc4:	08072787          	flw	fa5,128(a4) # 2000f080 <cst_libm_rredf>
20002cc8:	08070713          	addi	a4,a4,128
20002ccc:	6710                	c.flw	fa2,8(a4)
20002cce:	58f577c3          	fmadd.s	fa5,fa0,fa5,fa1
20002cd2:	6754                	c.flw	fa3,12(a4)
20002cd4:	6b18                	c.flw	fa4,16(a4)
20002cd6:	6b48                	c.flw	fa0,20(a4)
20002cd8:	08b7f7d3          	fsub.s	fa5,fa5,fa1
20002cdc:	f00785d3          	fmv.w.x	fa1,a5
20002ce0:	58c7f64b          	fnmsub.s	fa2,fa5,fa2,fa1
20002ce4:	c0079753          	fcvt.w.s	a4,fa5,rtz
20002ce8:	60d7f6cb          	fnmsub.s	fa3,fa5,fa3,fa2
20002cec:	00177693          	andi	a3,a4,1
20002cf0:	00277713          	andi	a4,a4,2
20002cf4:	68e7f74b          	fnmsub.s	fa4,fa5,fa4,fa3
20002cf8:	70a7f5cb          	fnmsub.s	fa1,fa5,fa0,fa4
20002cfc:	e00587d3          	fmv.x.w	a5,fa1
20002d00:	f00785d3          	fmv.w.x	fa1,a5
20002d04:	10b5f7d3          	fmul.s	fa5,fa1,fa1
20002d08:	cec1                	c.beqz	a3,20002da0 <sinf+0x13c>
20002d0a:	801f978b          	addigp	a5,-2048 # 80000 <cst_libm_sincosf>
20002d0e:	6f88                	c.flw	fa0,24(a5)
20002d10:	6bd0                	c.flw	fa2,20(a5)
20002d12:	6b94                	c.flw	fa3,16(a5)
20002d14:	67d8                	c.flw	fa4,12(a5)
20002d16:	60f57543          	fmadd.s	fa0,fa0,fa5,fa2
20002d1a:	68f57543          	fmadd.s	fa0,fa0,fa5,fa3
20002d1e:	70f57543          	fmadd.s	fa0,fa0,fa5,fa4
20002d22:	c319                	c.beqz	a4,20002d28 <sinf+0xc4>
20002d24:	20a51553          	fneg.s	fa0,fa0
20002d28:	40f2                	c.lwsp	ra,28(sp)
20002d2a:	6105                	c.addi16sp	sp,32
20002d2c:	00008067          	ret
20002d30:	00179593          	slli	a1,a5,0x1
20002d34:	ff000737          	lui	a4,0xff000
20002d38:	00e5e863          	bltu	a1,a4,20002d48 <sinf+0xe4>
20002d3c:	00e58863          	beq	a1,a4,20002d4c <sinf+0xe8>
20002d40:	00a57553          	fadd.s	fa0,fa0,fa0
20002d44:	00008067          	ret
20002d48:	00008067          	ret
20002d4c:	02100713          	li	a4,33
20002d50:	f0000553          	fmv.w.x	fa0,zero
20002d54:	84efc9ab          	swgp	a4,-1968 # 80050 <__mculib_REENT_errno>
20002d58:	18a57553          	fdiv.s	fa0,fa0,fa0
20002d5c:	00008067          	ret
20002d60:	0068                	c.addi4spn	a0,sp,12
20002d62:	28b9                	c.jal	20002dc0 <ref__mathlib_rredf2>
20002d64:	4732                	c.lwsp	a4,12(sp)
20002d66:	e00507d3          	fmv.x.w	a5,fa0
20002d6a:	02075763          	bgez	a4,20002d98 <sinf+0x134>
20002d6e:	00179593          	slli	a1,a5,0x1
20002d72:	ff000737          	lui	a4,0xff000
20002d76:	fae5e9e3          	bltu	a1,a4,20002d28 <sinf+0xc4>
20002d7a:	00e58563          	beq	a1,a4,20002d84 <sinf+0x120>
20002d7e:	00a57553          	fadd.s	fa0,fa0,fa0
20002d82:	b75d                	c.j	20002d28 <sinf+0xc4>
20002d84:	f0000553          	fmv.w.x	fa0,zero
20002d88:	02100713          	li	a4,33
20002d8c:	84efc9ab          	swgp	a4,-1968 # 80050 <__mculib_REENT_errno>
20002d90:	18a57553          	fdiv.s	fa0,fa0,fa0
20002d94:	f95ff06f          	j	20002d28 <sinf+0xc4>
20002d98:	00177693          	andi	a3,a4,1
20002d9c:	8b09                	c.andi	a4,2
20002d9e:	b78d                	c.j	20002d00 <sinf+0x9c>
20002da0:	801f968b          	addigp	a3,-2048 # 80000 <cst_libm_sincosf>
20002da4:	6688                	c.flw	fa0,8(a3)
20002da6:	62d4                	c.flw	fa3,4(a3)
20002da8:	6298                	c.flw	fa4,0(a3)
20002daa:	68f57543          	fmadd.s	fa0,fa0,fa5,fa3
20002dae:	70f57543          	fmadd.s	fa0,fa0,fa5,fa4
20002db2:	10f57553          	fmul.s	fa0,fa0,fa5
20002db6:	58a5f543          	fmadd.s	fa0,fa1,fa0,fa1
20002dba:	f72d                	c.bnez	a4,20002d24 <sinf+0xc0>
20002dbc:	b7b5                	c.j	20002d28 <sinf+0xc4>
20002dbe:	0001                	c.nop

20002dc0 <ref__mathlib_rredf2>:
20002dc0:	00159713          	slli	a4,a1,0x1
20002dc4:	ff0007b7          	lui	a5,0xff000
20002dc8:	12f77863          	bgeu	a4,a5,20002ef8 <ref__mathlib_rredf2+0x138>
20002dcc:	7975a7db          	bfoz	a5,a1,30,23
20002dd0:	f8878793          	addi	a5,a5,-120 # feffff88 <_DATA_LMA_START+0xdeff0d30>
20002dd4:	2000f6b7          	lui	a3,0x2000f
20002dd8:	4057d613          	srai	a2,a5,0x5
20002ddc:	09868693          	addi	a3,a3,152 # 2000f098 <twooverpi.2618>
20002de0:	0cc688db          	lea.w	a7,a3,a2
20002de4:	00859313          	slli	t1,a1,0x8
20002de8:	80000e37          	lui	t3,0x80000
20002dec:	8bfd                	c.andi	a5,31
20002dee:	01c36e33          	or	t3,t1,t3
20002df2:	0048a703          	lw	a4,4(a7)
20002df6:	0008a303          	lw	t1,0(a7)
20002dfa:	0088a803          	lw	a6,8(a7)
20002dfe:	cb8d                	c.beqz	a5,20002e30 <ref__mathlib_rredf2+0x70>
20002e00:	00c8a603          	lw	a2,12(a7)
20002e04:	02000693          	li	a3,32
20002e08:	40f686b3          	sub	a3,a3,a5
20002e0c:	00d75eb3          	srl	t4,a4,a3
20002e10:	00d858b3          	srl	a7,a6,a3
20002e14:	00f31333          	sll	t1,t1,a5
20002e18:	00f71733          	sll	a4,a4,a5
20002e1c:	00f81833          	sll	a6,a6,a5
20002e20:	00d656b3          	srl	a3,a2,a3
20002e24:	006ee333          	or	t1,t4,t1
20002e28:	00e8e733          	or	a4,a7,a4
20002e2c:	0106e833          	or	a6,a3,a6
20002e30:	f0ee167f          	mulr64	a2,t3,a4
20002e34:	f10e187f          	mulr64	a6,t3,a6
20002e38:	f1c3137f          	mulr64	t1,t1,t3
20002e3c:	00c88733          	add	a4,a7,a2
20002e40:	006687b3          	add	a5,a3,t1
20002e44:	01173e33          	sltu	t3,a4,a7
20002e48:	01c787b3          	add	a5,a5,t3
20002e4c:	0b176063          	bltu	a4,a7,20002eec <ref__mathlib_rredf2+0x12c>
20002e50:	00d7b633          	sltu	a2,a5,a3
20002e54:	961e                	c.add	a2,t2
20002e56:	0137d693          	srli	a3,a5,0x13
20002e5a:	01a61813          	slli	a6,a2,0x1a
20002e5e:	06b6                	c.slli	a3,0xd
20002e60:	0106e6b3          	or	a3,a3,a6
20002e64:	07b6                	c.slli	a5,0xd
20002e66:	d006f6d3          	fcvt.s.w	fa3,a3
20002e6a:	2000f6b7          	lui	a3,0x2000f
20002e6e:	06c6a587          	flw	fa1,108(a3) # 2000f06c <riscv_cfft_sR_q15_len16+0x14>
20002e72:	d017f753          	fcvt.s.wu	fa4,a5
20002e76:	2000f7b7          	lui	a5,0x2000f
20002e7a:	0707a607          	flw	fa2,112(a5) # 2000f070 <riscv_cfft_sR_q15_len16+0x18>
20002e7e:	d0177553          	fcvt.s.wu	fa0,a4
20002e82:	6685                	c.lui	a3,0x1
20002e84:	80068693          	addi	a3,a3,-2048 # 800 <pm_sleep_start+0x34>
20002e88:	68b777c3          	fmadd.s	fa5,fa4,fa1,fa3
20002e8c:	777d                	c.lui	a4,0xfffff
20002e8e:	02060613          	addi	a2,a2,32
20002e92:	8219                	c.srli	a2,0x6
20002e94:	78c577c3          	fmadd.s	fa5,fa0,fa2,fa5
20002e98:	e00787d3          	fmv.x.w	a5,fa5
20002e9c:	97b6                	c.add	a5,a3
20002e9e:	8ff9                	c.and	a5,a4
20002ea0:	f00787d3          	fmv.w.x	fa5,a5
20002ea4:	08d7f6d3          	fsub.s	fa3,fa5,fa3
20002ea8:	2000f737          	lui	a4,0x2000f
20002eac:	68b7774b          	fnmsub.s	fa4,fa4,fa1,fa3
20002eb0:	70c57747          	fmsub.s	fa4,fa0,fa2,fa4
20002eb4:	07472507          	flw	fa0,116(a4) # 2000f074 <riscv_cfft_sR_q15_len16+0x1c>
20002eb8:	2000f737          	lui	a4,0x2000f
20002ebc:	f0078653          	fmv.w.x	fa2,a5
20002ec0:	10a77753          	fmul.s	fa4,fa4,fa0
20002ec4:	07872507          	flw	fa0,120(a4) # 2000f078 <riscv_cfft_sR_q15_len16+0x20>
20002ec8:	2000f737          	lui	a4,0x2000f
20002ecc:	70a7f543          	fmadd.s	fa0,fa5,fa0,fa4
20002ed0:	07c72787          	flw	fa5,124(a4) # 2000f07c <riscv_cfft_sR_q15_len16+0x24>
20002ed4:	50f67543          	fmadd.s	fa0,fa2,fa5,fa0
20002ed8:	0005d863          	bgez	a1,20002ee8 <ref__mathlib_rredf2+0x128>
20002edc:	20a51553          	fneg.s	fa0,fa0
20002ee0:	100007b7          	lui	a5,0x10000
20002ee4:	40c78633          	sub	a2,a5,a2
20002ee8:	c110                	c.sw	a2,0(a0)
20002eea:	8082                	c.jr	ra
20002eec:	00f6b633          	sltu	a2,a3,a5
20002ef0:	00164613          	xori	a2,a2,1
20002ef4:	f61ff06f          	j	20002e54 <ref__mathlib_rredf2+0x94>
20002ef8:	57fd                	c.li	a5,-1
20002efa:	c11c                	c.sw	a5,0(a0)
20002efc:	8082                	c.jr	ra
20002efe:	0001                	c.nop

20002f00 <__divdf3>:
20002f00:	1101                	c.addi	sp,-32
20002f02:	ce22                	c.swsp	s0,28(sp)
20002f04:	cc26                	c.swsp	s1,24(sp)
20002f06:	ca4a                	c.swsp	s2,20(sp)
20002f08:	c84e                	c.swsp	s3,16(sp)
20002f0a:	c652                	c.swsp	s4,12(sp)
20002f0c:	00202ef3          	frrm	t4
20002f10:	7945a75b          	bfoz	a4,a1,30,20
20002f14:	4c05a7db          	bfoz	a5,a1,19,0
20002f18:	81fd                	c.srli	a1,0x1f
20002f1a:	c76d                	c.beqz	a4,20003004 <__divdf3+0x104>
20002f1c:	7ff00813          	li	a6,2047
20002f20:	07070c63          	beq	a4,a6,20002f98 <__divdf3+0x98>
20002f24:	078e                	c.slli	a5,0x3
20002f26:	00800837          	lui	a6,0x800
20002f2a:	01d55893          	srli	a7,a0,0x1d
20002f2e:	0107e7b3          	or	a5,a5,a6
20002f32:	00f8e8b3          	or	a7,a7,a5
20002f36:	050e                	c.slli	a0,0x3
20002f38:	c0170f93          	addi	t6,a4,-1023
20002f3c:	4781                	c.li	a5,0
20002f3e:	4381                	c.li	t2,0
20002f40:	00000e13          	li	t3,0
20002f44:	7946a85b          	bfoz	a6,a3,30,20
20002f48:	4c06a75b          	bfoz	a4,a3,19,0
20002f4c:	01f6d693          	srli	a3,a3,0x1f
20002f50:	06080663          	beqz	a6,20002fbc <__divdf3+0xbc>
20002f54:	7ff00313          	li	t1,2047
20002f58:	0e680c63          	beq	a6,t1,20003050 <__divdf3+0x150>
20002f5c:	070e                	c.slli	a4,0x3
20002f5e:	00800f37          	lui	t5,0x800
20002f62:	01d65313          	srli	t1,a2,0x1d
20002f66:	01e76733          	or	a4,a4,t5
20002f6a:	c0180813          	addi	a6,a6,-1023 # 7ffc01 <FLASH_SIZE+0x6ffc01>
20002f6e:	00e36733          	or	a4,t1,a4
20002f72:	060e                	c.slli	a2,0x3
20002f74:	410f8fb3          	sub	t6,t6,a6
20002f78:	00000293          	li	t0,0
20002f7c:	00d5c833          	xor	a6,a1,a3
20002f80:	433d                	c.li	t1,15
20002f82:	8f42                	c.mv	t5,a6
20002f84:	12f36263          	bltu	t1,a5,200030a8 <__divdf3+0x1a8>
20002f88:	2000f337          	lui	t1,0x2000f
20002f8c:	0b830313          	addi	t1,t1,184 # 2000f0b8 <twooverpi.2618+0x20>
20002f90:	0cf307db          	lea.w	a5,t1,a5
20002f94:	439c                	c.lw	a5,0(a5)
20002f96:	8782                	c.jr	a5
20002f98:	00a7e8b3          	or	a7,a5,a0
20002f9c:	0e089a63          	bnez	a7,20003090 <__divdf3+0x190>
20002fa0:	7946a85b          	bfoz	a6,a3,30,20
20002fa4:	4c06a75b          	bfoz	a4,a3,19,0
20002fa8:	47a1                	c.li	a5,8
20002faa:	4501                	c.li	a0,0
20002fac:	7ff00f93          	li	t6,2047
20002fb0:	4389                	c.li	t2,2
20002fb2:	4e01                	c.li	t3,0
20002fb4:	01f6d693          	srli	a3,a3,0x1f
20002fb8:	f8081ee3          	bnez	a6,20002f54 <__divdf3+0x54>
20002fbc:	00c76833          	or	a6,a4,a2
20002fc0:	0a080663          	beqz	a6,2000306c <__divdf3+0x16c>
20002fc4:	af97087f          	clz32	a6,a4
20002fc8:	00071663          	bnez	a4,20002fd4 <__divdf3+0xd4>
20002fcc:	af96087f          	clz32	a6,a2
20002fd0:	02080813          	addi	a6,a6,32
20002fd4:	ff580293          	addi	t0,a6,-11
20002fd8:	4371                	c.li	t1,28
20002fda:	36534363          	blt	t1,t0,20003340 <__divdf3+0x440>
20002fde:	4375                	c.li	t1,29
20002fe0:	ff880f13          	addi	t5,a6,-8
20002fe4:	40530333          	sub	t1,t1,t0
20002fe8:	00665333          	srl	t1,a2,t1
20002fec:	01e71733          	sll	a4,a4,t5
20002ff0:	00e36733          	or	a4,t1,a4
20002ff4:	01e61633          	sll	a2,a2,t5
20002ff8:	9fc2                	c.add	t6,a6
20002ffa:	3f3f8f93          	addi	t6,t6,1011
20002ffe:	4281                	c.li	t0,0
20003000:	f7dff06f          	j	20002f7c <__divdf3+0x7c>
20003004:	00a7e8b3          	or	a7,a5,a0
20003008:	06088e63          	beqz	a7,20003084 <__divdf3+0x184>
2000300c:	af97877f          	clz32	a4,a5
20003010:	00079663          	bnez	a5,2000301c <__divdf3+0x11c>
20003014:	af95077f          	clz32	a4,a0
20003018:	02070713          	addi	a4,a4,32
2000301c:	ff570313          	addi	t1,a4,-11
20003020:	4871                	c.li	a6,28
20003022:	32684563          	blt	a6,t1,2000334c <__divdf3+0x44c>
20003026:	48f5                	c.li	a7,29
20003028:	ff870813          	addi	a6,a4,-8
2000302c:	406888b3          	sub	a7,a7,t1
20003030:	011558b3          	srl	a7,a0,a7
20003034:	010797b3          	sll	a5,a5,a6
20003038:	00f8e8b3          	or	a7,a7,a5
2000303c:	01051533          	sll	a0,a0,a6
20003040:	c0d00f93          	li	t6,-1011
20003044:	40ef8fb3          	sub	t6,t6,a4
20003048:	4781                	c.li	a5,0
2000304a:	4381                	c.li	t2,0
2000304c:	4e01                	c.li	t3,0
2000304e:	bddd                	c.j	20002f44 <__divdf3+0x44>
20003050:	00c76833          	or	a6,a4,a2
20003054:	801f8f93          	addi	t6,t6,-2047
20003058:	02080063          	beqz	a6,20003078 <__divdf3+0x178>
2000305c:	0037e793          	ori	a5,a5,3
20003060:	428d                	c.li	t0,3
20003062:	f1377d5b          	bbs	a4,19,20002f7c <__divdf3+0x7c>
20003066:	4e41                	c.li	t3,16
20003068:	f15ff06f          	j	20002f7c <__divdf3+0x7c>
2000306c:	0017e793          	ori	a5,a5,1
20003070:	4701                	c.li	a4,0
20003072:	4601                	c.li	a2,0
20003074:	4285                	c.li	t0,1
20003076:	b719                	c.j	20002f7c <__divdf3+0x7c>
20003078:	0027e793          	ori	a5,a5,2
2000307c:	4701                	c.li	a4,0
2000307e:	4601                	c.li	a2,0
20003080:	4289                	c.li	t0,2
20003082:	bded                	c.j	20002f7c <__divdf3+0x7c>
20003084:	4791                	c.li	a5,4
20003086:	4501                	c.li	a0,0
20003088:	4f81                	c.li	t6,0
2000308a:	4385                	c.li	t2,1
2000308c:	4e01                	c.li	t3,0
2000308e:	bd5d                	c.j	20002f44 <__divdf3+0x44>
20003090:	0137d713          	srli	a4,a5,0x13
20003094:	88be                	c.mv	a7,a5
20003096:	7ff00f93          	li	t6,2047
2000309a:	47b1                	c.li	a5,12
2000309c:	438d                	c.li	t2,3
2000309e:	4e41                	c.li	t3,16
200030a0:	ea0702e3          	beqz	a4,20002f44 <__divdf3+0x44>
200030a4:	4e01                	c.li	t3,0
200030a6:	bd79                	c.j	20002f44 <__divdf3+0x44>
200030a8:	2f176063          	bltu	a4,a7,20003388 <__divdf3+0x488>
200030ac:	2ce88c63          	beq	a7,a4,20003384 <__divdf3+0x484>
200030b0:	85aa                	c.mv	a1,a0
200030b2:	1ffd                	c.addi	t6,-1
200030b4:	00000513          	li	a0,0
200030b8:	0722                	c.slli	a4,0x8
200030ba:	01865313          	srli	t1,a2,0x18
200030be:	00e36333          	or	t1,t1,a4
200030c2:	01035293          	srli	t0,t1,0x10
200030c6:	0258d733          	divu	a4,a7,t0
200030ca:	3c0323db          	bfoz	t2,t1,15,0
200030ce:	00861413          	slli	s0,a2,0x8
200030d2:	0105d793          	srli	a5,a1,0x10
200030d6:	0258f8b3          	remu	a7,a7,t0
200030da:	02e38633          	mul	a2,t2,a4
200030de:	08c2                	c.slli	a7,0x10
200030e0:	0117e7b3          	or	a5,a5,a7
200030e4:	00c7fc63          	bgeu	a5,a2,200030fc <__divdf3+0x1fc>
200030e8:	979a                	c.add	a5,t1
200030ea:	fff70693          	addi	a3,a4,-1
200030ee:	3a67e963          	bltu	a5,t1,200034a0 <__divdf3+0x5a0>
200030f2:	3ac7f763          	bgeu	a5,a2,200034a0 <__divdf3+0x5a0>
200030f6:	1779                	c.addi	a4,-2
200030f8:	006787b3          	add	a5,a5,t1
200030fc:	8f91                	c.sub	a5,a2
200030fe:	0257d6b3          	divu	a3,a5,t0
20003102:	0257f7b3          	remu	a5,a5,t0
20003106:	02d38933          	mul	s2,t2,a3
2000310a:	0eb797ff          	pkbb16	a5,a5,a1
2000310e:	0127fb63          	bgeu	a5,s2,20003124 <__divdf3+0x224>
20003112:	979a                	c.add	a5,t1
20003114:	fff68613          	addi	a2,a3,-1
20003118:	3867e663          	bltu	a5,t1,200034a4 <__divdf3+0x5a4>
2000311c:	3927f463          	bgeu	a5,s2,200034a4 <__divdf3+0x5a4>
20003120:	16f9                	c.addi	a3,-2
20003122:	979a                	c.add	a5,t1
20003124:	0742                	c.slli	a4,0x10
20003126:	69c1                	c.lui	s3,0x10
20003128:	8f55                	c.or	a4,a3
2000312a:	fff98693          	addi	a3,s3,-1 # ffff <BIN_SIZE+0xd59>
2000312e:	00d478b3          	and	a7,s0,a3
20003132:	01075613          	srli	a2,a4,0x10
20003136:	031605b3          	mul	a1,a2,a7
2000313a:	8ef9                	c.and	a3,a4
2000313c:	01045493          	srli	s1,s0,0x10
20003140:	412787b3          	sub	a5,a5,s2
20003144:	03168a33          	mul	s4,a3,a7
20003148:	892e                	c.mv	s2,a1
2000314a:	c4d4997f          	maddr32	s2,s1,a3
2000314e:	02960633          	mul	a2,a2,s1
20003152:	010a5693          	srli	a3,s4,0x10
20003156:	96ca                	c.add	a3,s2
20003158:	00b6f463          	bgeu	a3,a1,20003160 <__divdf3+0x260>
2000315c:	01360633          	add	a2,a2,s3
20003160:	69c1                	c.lui	s3,0x10
20003162:	19fd                	c.addi	s3,-1
20003164:	0106d913          	srli	s2,a3,0x10
20003168:	0136f5b3          	and	a1,a3,s3
2000316c:	05c2                	c.slli	a1,0x10
2000316e:	013a76b3          	and	a3,s4,s3
20003172:	964a                	c.add	a2,s2
20003174:	00d585b3          	add	a1,a1,a3
20003178:	1ec7e463          	bltu	a5,a2,20003360 <__divdf3+0x460>
2000317c:	1cc78e63          	beq	a5,a2,20003358 <__divdf3+0x458>
20003180:	40c786b3          	sub	a3,a5,a2
20003184:	40b505b3          	sub	a1,a0,a1
20003188:	00b53533          	sltu	a0,a0,a1
2000318c:	40a68533          	sub	a0,a3,a0
20003190:	3fff8793          	addi	a5,t6,1023
20003194:	3aa30863          	beq	t1,a0,20003544 <__divdf3+0x644>
20003198:	02555633          	divu	a2,a0,t0
2000319c:	0105d693          	srli	a3,a1,0x10
200031a0:	02557533          	remu	a0,a0,t0
200031a4:	02c38833          	mul	a6,t2,a2
200031a8:	0542                	c.slli	a0,0x10
200031aa:	8d55                	c.or	a0,a3
200031ac:	01057c63          	bgeu	a0,a6,200031c4 <__divdf3+0x2c4>
200031b0:	951a                	c.add	a0,t1
200031b2:	fff60693          	addi	a3,a2,-1
200031b6:	3a656763          	bltu	a0,t1,20003564 <__divdf3+0x664>
200031ba:	3b057563          	bgeu	a0,a6,20003564 <__divdf3+0x664>
200031be:	1679                	c.addi	a2,-2
200031c0:	00650533          	add	a0,a0,t1
200031c4:	41050533          	sub	a0,a0,a6
200031c8:	025556b3          	divu	a3,a0,t0
200031cc:	02557533          	remu	a0,a0,t0
200031d0:	02d383b3          	mul	t2,t2,a3
200031d4:	0eb5157f          	pkbb16	a0,a0,a1
200031d8:	00757c63          	bgeu	a0,t2,200031f0 <__divdf3+0x2f0>
200031dc:	951a                	c.add	a0,t1
200031de:	fff68593          	addi	a1,a3,-1
200031e2:	36656f63          	bltu	a0,t1,20003560 <__divdf3+0x660>
200031e6:	36757d63          	bgeu	a0,t2,20003560 <__divdf3+0x660>
200031ea:	16f9                	c.addi	a3,-2
200031ec:	00650533          	add	a0,a0,t1
200031f0:	0642                	c.slli	a2,0x10
200031f2:	8e55                	c.or	a2,a3
200031f4:	01065813          	srli	a6,a2,0x10
200031f8:	031805b3          	mul	a1,a6,a7
200031fc:	3c0626db          	bfoz	a3,a2,15,0
20003200:	40750533          	sub	a0,a0,t2
20003204:	02d888b3          	mul	a7,a7,a3
20003208:	82ae                	c.mv	t0,a1
2000320a:	c4d492ff          	maddr32	t0,s1,a3
2000320e:	030484b3          	mul	s1,s1,a6
20003212:	0108d693          	srli	a3,a7,0x10
20003216:	9696                	c.add	a3,t0
20003218:	00b6f463          	bgeu	a3,a1,20003220 <__divdf3+0x320>
2000321c:	65c1                	c.lui	a1,0x10
2000321e:	94ae                	c.add	s1,a1
20003220:	6841                	c.lui	a6,0x10
20003222:	187d                	c.addi	a6,-1
20003224:	0106d593          	srli	a1,a3,0x10
20003228:	0106f6b3          	and	a3,a3,a6
2000322c:	06c2                	c.slli	a3,0x10
2000322e:	0108f8b3          	and	a7,a7,a6
20003232:	94ae                	c.add	s1,a1
20003234:	00d888b3          	add	a7,a7,a3
20003238:	22957263          	bgeu	a0,s1,2000345c <__divdf3+0x55c>
2000323c:	951a                	c.add	a0,t1
2000323e:	fff60693          	addi	a3,a2,-1
20003242:	3c656163          	bltu	a0,t1,20003604 <__divdf3+0x704>
20003246:	32956963          	bltu	a0,s1,20003578 <__divdf3+0x678>
2000324a:	42950f63          	beq	a0,s1,20003688 <__divdf3+0x788>
2000324e:	8636                	c.mv	a2,a3
20003250:	00166613          	ori	a2,a2,1
20003254:	18f05c63          	blez	a5,200033ec <__divdf3+0x4ec>
20003258:	00767693          	andi	a3,a2,7
2000325c:	20069e63          	bnez	a3,20003478 <__divdf3+0x578>
20003260:	01e00833          	add	a6,zero,t5
20003264:	0187785b          	bbc	a4,24,20003274 <__divdf3+0x374>
20003268:	ff0007b7          	lui	a5,0xff000
2000326c:	17fd                	c.addi	a5,-1
2000326e:	8f7d                	c.and	a4,a5
20003270:	400f8793          	addi	a5,t6,1024
20003274:	7fe00693          	li	a3,2046
20003278:	12f6c263          	blt	a3,a5,2000339c <__divdf3+0x49c>
2000327c:	00365693          	srli	a3,a2,0x3
20003280:	01d71613          	slli	a2,a4,0x1d
20003284:	8e55                	c.or	a2,a3
20003286:	7ff7f793          	andi	a5,a5,2047
2000328a:	583726db          	bfoz	a3,a4,22,3
2000328e:	a01d                	c.j	200032b4 <__divdf3+0x3b4>
20003290:	8f2e                	c.mv	t5,a1
20003292:	8746                	c.mv	a4,a7
20003294:	862a                	c.mv	a2,a0
20003296:	829e                	c.mv	t0,t2
20003298:	3822da5b          	beqc	t0,2,2000362c <__divdf3+0x72c>
2000329c:	0832da5b          	beqc	t0,3,20003330 <__divdf3+0x430>
200032a0:	3012dc5b          	beqc	t0,1,200035b8 <__divdf3+0x6b8>
200032a4:	3fff8793          	addi	a5,t6,1023
200032a8:	fadff06f          	j	20003254 <__divdf3+0x354>
200032ac:	7ff00793          	li	a5,2047
200032b0:	4681                	c.li	a3,0
200032b2:	4601                	c.li	a2,0
200032b4:	4581                	c.li	a1,0
200032b6:	fff00737          	lui	a4,0xfff00
200032ba:	8f6d                	c.and	a4,a1
200032bc:	4c06a6db          	bfoz	a3,a3,19,0
200032c0:	8f55                	c.or	a4,a3
200032c2:	01479693          	slli	a3,a5,0x14
200032c6:	801007b7          	lui	a5,0x80100
200032ca:	17fd                	c.addi	a5,-1
200032cc:	8ff9                	c.and	a5,a4
200032ce:	8fd5                	c.or	a5,a3
200032d0:	087e                	c.slli	a6,0x1f
200032d2:	7807a7db          	bfoz	a5,a5,30,0
200032d6:	8532                	c.mv	a0,a2
200032d8:	0107e5b3          	or	a1,a5,a6
200032dc:	020e1863          	bnez	t3,2000330c <__divdf3+0x40c>
200032e0:	4472                	c.lwsp	s0,28(sp)
200032e2:	44e2                	c.lwsp	s1,24(sp)
200032e4:	4952                	c.lwsp	s2,20(sp)
200032e6:	49c2                	c.lwsp	s3,16(sp)
200032e8:	4a32                	c.lwsp	s4,12(sp)
200032ea:	6105                	c.addi16sp	sp,32
200032ec:	00008067          	ret
200032f0:	8f36                	c.mv	t5,a3
200032f2:	b75d                	c.j	20003298 <__divdf3+0x398>
200032f4:	4781                	c.li	a5,0
200032f6:	4681                	c.li	a3,0
200032f8:	4601                	c.li	a2,0
200032fa:	bf6d                	c.j	200032b4 <__divdf3+0x3b4>
200032fc:	7ff007b7          	lui	a5,0x7ff00
20003300:	087e                	c.slli	a6,0x1f
20003302:	4501                	c.li	a0,0
20003304:	0107e5b3          	or	a1,a5,a6
20003308:	008e6e13          	ori	t3,t3,8
2000330c:	001e2073          	csrs	fflags,t3
20003310:	4472                	c.lwsp	s0,28(sp)
20003312:	44e2                	c.lwsp	s1,24(sp)
20003314:	4952                	c.lwsp	s2,20(sp)
20003316:	49c2                	c.lwsp	s3,16(sp)
20003318:	4a32                	c.lwsp	s4,12(sp)
2000331a:	6105                	c.addi16sp	sp,32
2000331c:	00008067          	ret
20003320:	4801                	c.li	a6,0
20003322:	7ff00793          	li	a5,2047
20003326:	000806b7          	lui	a3,0x80
2000332a:	4601                	c.li	a2,0
2000332c:	4e41                	c.li	t3,16
2000332e:	b759                	c.j	200032b4 <__divdf3+0x3b4>
20003330:	4801                	c.li	a6,0
20003332:	7ff00793          	li	a5,2047
20003336:	000806b7          	lui	a3,0x80
2000333a:	4601                	c.li	a2,0
2000333c:	f79ff06f          	j	200032b4 <__divdf3+0x3b4>
20003340:	fd880713          	addi	a4,a6,-40 # ffd8 <BIN_SIZE+0xd32>
20003344:	00e61733          	sll	a4,a2,a4
20003348:	4601                	c.li	a2,0
2000334a:	b17d                	c.j	20002ff8 <__divdf3+0xf8>
2000334c:	fd870893          	addi	a7,a4,-40 # ffefffd8 <_DATA_LMA_START+0xdfef0d80>
20003350:	011518b3          	sll	a7,a0,a7
20003354:	4501                	c.li	a0,0
20003356:	b1ed                	c.j	20003040 <__divdf3+0x140>
20003358:	00000693          	li	a3,0
2000335c:	e2b574e3          	bgeu	a0,a1,20003184 <__divdf3+0x284>
20003360:	9522                	c.add	a0,s0
20003362:	008536b3          	sltu	a3,a0,s0
20003366:	969a                	c.add	a3,t1
20003368:	00d787b3          	add	a5,a5,a3
2000336c:	fff70913          	addi	s2,a4,-1
20003370:	0ef37c63          	bgeu	t1,a5,20003468 <__divdf3+0x568>
20003374:	1ec7ea63          	bltu	a5,a2,20003568 <__divdf3+0x668>
20003378:	30f60263          	beq	a2,a5,2000367c <__divdf3+0x77c>
2000337c:	40c786b3          	sub	a3,a5,a2
20003380:	874a                	c.mv	a4,s2
20003382:	b509                	c.j	20003184 <__divdf3+0x284>
20003384:	d2c566e3          	bltu	a0,a2,200030b0 <__divdf3+0x1b0>
20003388:	01f89593          	slli	a1,a7,0x1f
2000338c:	00155793          	srli	a5,a0,0x1
20003390:	0018d893          	srli	a7,a7,0x1
20003394:	8ddd                	c.or	a1,a5
20003396:	057e                	c.slli	a0,0x1f
20003398:	d21ff06f          	j	200030b8 <__divdf3+0x1b8>
2000339c:	122ed45b          	beqc	t4,2,200034c4 <__divdf3+0x5c4>
200033a0:	223ed25b          	beqc	t4,3,200035c4 <__divdf3+0x6c4>
200033a4:	120e8263          	beqz	t4,200034c8 <__divdf3+0x5c8>
200033a8:	00100737          	lui	a4,0x100
200033ac:	7fe00793          	li	a5,2046
200033b0:	fff70693          	addi	a3,a4,-1 # fffff <_STACK_TOP+0x5ffff>
200033b4:	fff00613          	li	a2,-1
200033b8:	005e6e13          	ori	t3,t3,5
200033bc:	4581                	c.li	a1,0
200033be:	fff00737          	lui	a4,0xfff00
200033c2:	8532                	c.mv	a0,a2
200033c4:	00b77633          	and	a2,a4,a1
200033c8:	4c06a75b          	bfoz	a4,a3,19,0
200033cc:	8f51                	c.or	a4,a2
200033ce:	80100637          	lui	a2,0x80100
200033d2:	167d                	c.addi	a2,-1
200033d4:	8e79                	c.and	a2,a4
200033d6:	07d2                	c.slli	a5,0x14
200033d8:	8fd1                	c.or	a5,a2
200033da:	087e                	c.slli	a6,0x1f
200033dc:	7807a7db          	bfoz	a5,a5,30,0
200033e0:	0107e5b3          	or	a1,a5,a6
200033e4:	001e2073          	csrs	fflags,t3
200033e8:	f29ff06f          	j	20003310 <__divdf3+0x410>
200033ec:	efd5                	c.bnez	a5,200034a8 <__divdf3+0x5a8>
200033ee:	00767793          	andi	a5,a2,7
200033f2:	86ba                	c.mv	a3,a4
200033f4:	24079263          	bnez	a5,20003638 <__divdf3+0x738>
200033f8:	01875513          	srli	a0,a4,0x18
200033fc:	00154513          	xori	a0,a0,1
20003400:	8905                	c.andi	a0,1
20003402:	4585                	c.li	a1,1
20003404:	41ef8713          	addi	a4,t6,1054
20003408:	00e697b3          	sll	a5,a3,a4
2000340c:	00b65833          	srl	a6,a2,a1
20003410:	00e61733          	sll	a4,a2,a4
20003414:	00e03733          	snez	a4,a4
20003418:	0107e633          	or	a2,a5,a6
2000341c:	8e59                	c.or	a2,a4
2000341e:	00767793          	andi	a5,a2,7
20003422:	00b6d733          	srl	a4,a3,a1
20003426:	cb89                	c.beqz	a5,20003438 <__divdf3+0x538>
20003428:	001e6e13          	ori	t3,t3,1
2000342c:	282ed25b          	beqc	t4,2,200036b0 <__divdf3+0x7b0>
20003430:	263ed45b          	beqc	t4,3,20003698 <__divdf3+0x798>
20003434:	0e0e8c63          	beqz	t4,2000352c <__divdf3+0x62c>
20003438:	2377745b          	bbc	a4,23,20003660 <__divdf3+0x760>
2000343c:	001e6e13          	ori	t3,t3,1
20003440:	4785                	c.li	a5,1
20003442:	4681                	c.li	a3,0
20003444:	00000613          	li	a2,0
20003448:	01e00833          	add	a6,zero,t5
2000344c:	e60504e3          	beqz	a0,200032b4 <__divdf3+0x3b4>
20003450:	a60e725b          	bbc	t3,0,200032b4 <__divdf3+0x3b4>
20003454:	002e6e13          	ori	t3,t3,2
20003458:	f65ff06f          	j	200033bc <__divdf3+0x4bc>
2000345c:	de951ae3          	bne	a0,s1,20003250 <__divdf3+0x350>
20003460:	de088ae3          	beqz	a7,20003254 <__divdf3+0x354>
20003464:	dd9ff06f          	j	2000323c <__divdf3+0x33c>
20003468:	f0f31ae3          	bne	t1,a5,2000337c <__divdf3+0x47c>
2000346c:	f08574e3          	bgeu	a0,s0,20003374 <__divdf3+0x474>
20003470:	40c306b3          	sub	a3,t1,a2
20003474:	874a                	c.mv	a4,s2
20003476:	b339                	c.j	20003184 <__divdf3+0x284>
20003478:	001e6e13          	ori	t3,t3,1
2000347c:	162ed85b          	beqc	t4,2,200035ec <__divdf3+0x6ec>
20003480:	143ed85b          	beqc	t4,3,200035d0 <__divdf3+0x6d0>
20003484:	dc0e9ee3          	bnez	t4,20003260 <__divdf3+0x360>
20003488:	00f67693          	andi	a3,a2,15
2000348c:	887a                	c.mv	a6,t5
2000348e:	9c46db5b          	beqc	a3,4,20003264 <__divdf3+0x364>
20003492:	86b2                	c.mv	a3,a2
20003494:	00468613          	addi	a2,a3,4 # 80004 <cst_libm_sincosf+0x4>
20003498:	00d636b3          	sltu	a3,a2,a3
2000349c:	9736                	c.add	a4,a3
2000349e:	b3d9                	c.j	20003264 <__divdf3+0x364>
200034a0:	8736                	c.mv	a4,a3
200034a2:	b9a9                	c.j	200030fc <__divdf3+0x1fc>
200034a4:	86b2                	c.mv	a3,a2
200034a6:	b9bd                	c.j	20003124 <__divdf3+0x224>
200034a8:	4585                	c.li	a1,1
200034aa:	8d9d                	c.sub	a1,a5
200034ac:	03800693          	li	a3,56
200034b0:	02b6da63          	bge	a3,a1,200034e4 <__divdf3+0x5e4>
200034b4:	8e59                	c.or	a2,a4
200034b6:	e26d                	c.bnez	a2,20003598 <__divdf3+0x698>
200034b8:	002e6e13          	ori	t3,t3,2
200034bc:	887a                	c.mv	a6,t5
200034be:	4781                	c.li	a5,0
200034c0:	4681                	c.li	a3,0
200034c2:	bded                	c.j	200033bc <__divdf3+0x4bc>
200034c4:	ee0f02e3          	beqz	t5,200033a8 <__divdf3+0x4a8>
200034c8:	7ff00793          	li	a5,2047
200034cc:	4681                	c.li	a3,0
200034ce:	4601                	c.li	a2,0
200034d0:	ee9ff06f          	j	200033b8 <__divdf3+0x4b8>
200034d4:	4585                	c.li	a1,1
200034d6:	8d9d                	c.sub	a1,a5
200034d8:	03800693          	li	a3,56
200034dc:	0ab6ce63          	blt	a3,a1,20003598 <__divdf3+0x698>
200034e0:	fff00613          	li	a2,-1
200034e4:	46fd                	c.li	a3,31
200034e6:	20b6d163          	bge	a3,a1,200036e8 <__divdf3+0x7e8>
200034ea:	5685                	c.li	a3,-31
200034ec:	40f687b3          	sub	a5,a3,a5
200034f0:	00f757b3          	srl	a5,a4,a5
200034f4:	0005d8db          	beqc	a1,32,20003504 <__divdf3+0x604>
200034f8:	43ef8f93          	addi	t6,t6,1086
200034fc:	01f71733          	sll	a4,a4,t6
20003500:	00e66633          	or	a2,a2,a4
20003504:	00c03633          	snez	a2,a2
20003508:	8e5d                	c.or	a2,a5
2000350a:	00767793          	andi	a5,a2,7
2000350e:	16078163          	beqz	a5,20003670 <__divdf3+0x770>
20003512:	001e6e13          	ori	t3,t3,1
20003516:	182edb5b          	beqc	t4,2,200036ac <__divdf3+0x7ac>
2000351a:	163edd5b          	beqc	t4,3,20003694 <__divdf3+0x794>
2000351e:	4505                	c.li	a0,1
20003520:	4701                	c.li	a4,0
20003522:	120e9f63          	bnez	t4,20003660 <__divdf3+0x760>
20003526:	4505                	c.li	a0,1
20003528:	00000713          	li	a4,0
2000352c:	00f67793          	andi	a5,a2,15
20003530:	b047d45b          	beqc	a5,4,20003438 <__divdf3+0x538>
20003534:	00460793          	addi	a5,a2,4 # 80100004 <_DATA_LMA_START+0x600f0dac>
20003538:	00c7b633          	sltu	a2,a5,a2
2000353c:	9732                	c.add	a4,a2
2000353e:	863e                	c.mv	a2,a5
20003540:	ef9ff06f          	j	20003438 <__divdf3+0x538>
20003544:	0cf05463          	blez	a5,2000360c <__divdf3+0x70c>
20003548:	001e6e13          	ori	t3,t3,1
2000354c:	082ede5b          	beqc	t4,2,200035e8 <__divdf3+0x6e8>
20003550:	063ede5b          	beqc	t4,3,200035cc <__divdf3+0x6cc>
20003554:	567d                	c.li	a2,-1
20003556:	d00e95e3          	bnez	t4,20003260 <__divdf3+0x360>
2000355a:	56fd                	c.li	a3,-1
2000355c:	f39ff06f          	j	20003494 <__divdf3+0x594>
20003560:	86ae                	c.mv	a3,a1
20003562:	b179                	c.j	200031f0 <__divdf3+0x2f0>
20003564:	8636                	c.mv	a2,a3
20003566:	b9b9                	c.j	200031c4 <__divdf3+0x2c4>
20003568:	9522                	c.add	a0,s0
2000356a:	008536b3          	sltu	a3,a0,s0
2000356e:	969a                	c.add	a3,t1
20003570:	97b6                	c.add	a5,a3
20003572:	1779                	c.addi	a4,-2
20003574:	c0dff06f          	j	20003180 <__divdf3+0x280>
20003578:	00141693          	slli	a3,s0,0x1
2000357c:	0086b433          	sltu	s0,a3,s0
20003580:	9322                	c.add	t1,s0
20003582:	951a                	c.add	a0,t1
20003584:	1679                	c.addi	a2,-2
20003586:	8436                	c.mv	s0,a3
20003588:	cc9514e3          	bne	a0,s1,20003250 <__divdf3+0x350>
2000358c:	cc8884e3          	beq	a7,s0,20003254 <__divdf3+0x354>
20003590:	00166613          	ori	a2,a2,1
20003594:	cc1ff06f          	j	20003254 <__divdf3+0x354>
20003598:	001e6e13          	ori	t3,t3,1
2000359c:	01e03633          	snez	a2,t5
200035a0:	b02edc5b          	beqc	t4,2,200034b8 <__divdf3+0x5b8>
200035a4:	ffde8793          	addi	a5,t4,-3
200035a8:	0017b793          	seqz	a5,a5
200035ac:	001f3613          	seqz	a2,t5
200035b0:	40f007b3          	neg	a5,a5
200035b4:	8e7d                	c.and	a2,a5
200035b6:	b709                	c.j	200034b8 <__divdf3+0x5b8>
200035b8:	887a                	c.mv	a6,t5
200035ba:	4781                	c.li	a5,0
200035bc:	4681                	c.li	a3,0
200035be:	4601                	c.li	a2,0
200035c0:	cf5ff06f          	j	200032b4 <__divdf3+0x3b4>
200035c4:	de0f12e3          	bnez	t5,200033a8 <__divdf3+0x4a8>
200035c8:	f01ff06f          	j	200034c8 <__divdf3+0x5c8>
200035cc:	fff00613          	li	a2,-1
200035d0:	4805                	c.li	a6,1
200035d2:	c80f19e3          	bnez	t5,20003264 <__divdf3+0x364>
200035d6:	00860693          	addi	a3,a2,8
200035da:	00c6b633          	sltu	a2,a3,a2
200035de:	9732                	c.add	a4,a2
200035e0:	4801                	c.li	a6,0
200035e2:	8636                	c.mv	a2,a3
200035e4:	c81ff06f          	j	20003264 <__divdf3+0x364>
200035e8:	fff00613          	li	a2,-1
200035ec:	4801                	c.li	a6,0
200035ee:	c60f0be3          	beqz	t5,20003264 <__divdf3+0x364>
200035f2:	00860693          	addi	a3,a2,8
200035f6:	00c6b633          	sltu	a2,a3,a2
200035fa:	9732                	c.add	a4,a2
200035fc:	4805                	c.li	a6,1
200035fe:	8636                	c.mv	a2,a3
20003600:	c65ff06f          	j	20003264 <__divdf3+0x364>
20003604:	8636                	c.mv	a2,a3
20003606:	f89503e3          	beq	a0,s1,2000358c <__divdf3+0x68c>
2000360a:	b199                	c.j	20003250 <__divdf3+0x350>
2000360c:	ec0794e3          	bnez	a5,200034d4 <__divdf3+0x5d4>
20003610:	001e6e13          	ori	t3,t3,1
20003614:	0a2ede5b          	beqc	t4,2,200036d0 <__divdf3+0x7d0>
20003618:	0a3ed05b          	beqc	t4,3,200036b8 <__divdf3+0x7b8>
2000361c:	0c0e8263          	beqz	t4,200036e0 <__divdf3+0x7e0>
20003620:	86ba                	c.mv	a3,a4
20003622:	567d                	c.li	a2,-1
20003624:	c0100f93          	li	t6,-1023
20003628:	dd1ff06f          	j	200033f8 <__divdf3+0x4f8>
2000362c:	887a                	c.mv	a6,t5
2000362e:	7ff00793          	li	a5,2047
20003632:	4681                	c.li	a3,0
20003634:	4601                	c.li	a2,0
20003636:	b9bd                	c.j	200032b4 <__divdf3+0x3b4>
20003638:	001e6e13          	ori	t3,t3,1
2000363c:	082ede5b          	beqc	t4,2,200036d8 <__divdf3+0x7d8>
20003640:	083ed05b          	beqc	t4,3,200036c0 <__divdf3+0x7c0>
20003644:	da0e9ae3          	bnez	t4,200033f8 <__divdf3+0x4f8>
20003648:	00f67793          	andi	a5,a2,15
2000364c:	9a47d65b          	beqc	a5,4,200033f8 <__divdf3+0x4f8>
20003650:	ffc63793          	sltiu	a5,a2,-4
20003654:	0017c793          	xori	a5,a5,1
20003658:	86ba                	c.mv	a3,a4
2000365a:	973e                	c.add	a4,a5
2000365c:	d9dff06f          	j	200033f8 <__divdf3+0x4f8>
20003660:	01d71793          	slli	a5,a4,0x1d
20003664:	820d                	c.srli	a2,0x3
20003666:	8e5d                	c.or	a2,a5
20003668:	583726db          	bfoz	a3,a4,22,3
2000366c:	4781                	c.li	a5,0
2000366e:	bbe9                	c.j	20003448 <__divdf3+0x548>
20003670:	820d                	c.srli	a2,0x3
20003672:	887a                	c.mv	a6,t5
20003674:	4781                	c.li	a5,0
20003676:	4681                	c.li	a3,0
20003678:	dd9ff06f          	j	20003450 <__divdf3+0x550>
2000367c:	eeb566e3          	bltu	a0,a1,20003568 <__divdf3+0x668>
20003680:	874a                	c.mv	a4,s2
20003682:	4681                	c.li	a3,0
20003684:	b01ff06f          	j	20003184 <__divdf3+0x284>
20003688:	ef1468e3          	bltu	s0,a7,20003578 <__divdf3+0x678>
2000368c:	8636                	c.mv	a2,a3
2000368e:	f08891e3          	bne	a7,s0,20003590 <__divdf3+0x690>
20003692:	b6c9                	c.j	20003254 <__divdf3+0x354>
20003694:	4505                	c.li	a0,1
20003696:	4701                	c.li	a4,0
20003698:	da0f10e3          	bnez	t5,20003438 <__divdf3+0x538>
2000369c:	00860793          	addi	a5,a2,8
200036a0:	00c7b633          	sltu	a2,a5,a2
200036a4:	9732                	c.add	a4,a2
200036a6:	863e                	c.mv	a2,a5
200036a8:	d91ff06f          	j	20003438 <__divdf3+0x538>
200036ac:	4505                	c.li	a0,1
200036ae:	4701                	c.li	a4,0
200036b0:	d80f04e3          	beqz	t5,20003438 <__divdf3+0x538>
200036b4:	fe9ff06f          	j	2000369c <__divdf3+0x79c>
200036b8:	86ba                	c.mv	a3,a4
200036ba:	c0100f93          	li	t6,-1023
200036be:	567d                	c.li	a2,-1
200036c0:	d20f1ce3          	bnez	t5,200033f8 <__divdf3+0x4f8>
200036c4:	ff863793          	sltiu	a5,a2,-8
200036c8:	0017c793          	xori	a5,a5,1
200036cc:	973e                	c.add	a4,a5
200036ce:	b32d                	c.j	200033f8 <__divdf3+0x4f8>
200036d0:	86ba                	c.mv	a3,a4
200036d2:	c0100f93          	li	t6,-1023
200036d6:	567d                	c.li	a2,-1
200036d8:	d20f00e3          	beqz	t5,200033f8 <__divdf3+0x4f8>
200036dc:	fe9ff06f          	j	200036c4 <__divdf3+0x7c4>
200036e0:	c0100f93          	li	t6,-1023
200036e4:	567d                	c.li	a2,-1
200036e6:	b7ad                	c.j	20003650 <__divdf3+0x750>
200036e8:	86ba                	c.mv	a3,a4
200036ea:	4505                	c.li	a0,1
200036ec:	bb21                	c.j	20003404 <__divdf3+0x504>
	...

200036f0 <__muldf3>:
200036f0:	1101                	c.addi	sp,-32
200036f2:	ce22                	c.swsp	s0,28(sp)
200036f4:	cc26                	c.swsp	s1,24(sp)
200036f6:	ca4a                	c.swsp	s2,20(sp)
200036f8:	c84e                	c.swsp	s3,16(sp)
200036fa:	c652                	c.swsp	s4,12(sp)
200036fc:	c456                	c.swsp	s5,8(sp)
200036fe:	c25a                	c.swsp	s6,4(sp)
20003700:	00202373          	frrm	t1
20003704:	7945a75b          	bfoz	a4,a1,30,20
20003708:	4c05a7db          	bfoz	a5,a1,19,0
2000370c:	81fd                	c.srli	a1,0x1f
2000370e:	10070b63          	beqz	a4,20003824 <__muldf3+0x134>
20003712:	7ff00813          	li	a6,2047
20003716:	07070b63          	beq	a4,a6,2000378c <__muldf3+0x9c>
2000371a:	00800837          	lui	a6,0x800
2000371e:	078e                	c.slli	a5,0x3
20003720:	01d55293          	srli	t0,a0,0x1d
20003724:	0107e7b3          	or	a5,a5,a6
20003728:	c0170e13          	addi	t3,a4,-1023 # ffeffc01 <_DATA_LMA_START+0xdfef09a9>
2000372c:	00f2e2b3          	or	t0,t0,a5
20003730:	050e                	c.slli	a0,0x3
20003732:	4701                	c.li	a4,0
20003734:	4381                	c.li	t2,0
20003736:	4801                	c.li	a6,0
20003738:	7946a8db          	bfoz	a7,a3,30,20
2000373c:	4c06a7db          	bfoz	a5,a3,19,0
20003740:	01f6d693          	srli	a3,a3,0x1f
20003744:	12088c63          	beqz	a7,2000387c <__muldf3+0x18c>
20003748:	7ff00e93          	li	t4,2047
2000374c:	17d88c63          	beq	a7,t4,200038c4 <__muldf3+0x1d4>
20003750:	00800f37          	lui	t5,0x800
20003754:	078e                	c.slli	a5,0x3
20003756:	01d65e93          	srli	t4,a2,0x1d
2000375a:	01e7e7b3          	or	a5,a5,t5
2000375e:	c0188893          	addi	a7,a7,-1023
20003762:	00fee7b3          	or	a5,t4,a5
20003766:	060e                	c.slli	a2,0x3
20003768:	9e46                	c.add	t3,a7
2000376a:	4f01                	c.li	t5,0
2000376c:	48bd                	c.li	a7,15
2000376e:	00d5ceb3          	xor	t4,a1,a3
20003772:	001e0f93          	addi	t6,t3,1 # 80000001 <_DATA_LMA_START+0x5fff0da9>
20003776:	16e8e563          	bltu	a7,a4,200038e0 <__muldf3+0x1f0>
2000377a:	2000f8b7          	lui	a7,0x2000f
2000377e:	0f888893          	addi	a7,a7,248 # 2000f0f8 <twooverpi.2618+0x60>
20003782:	0ce8875b          	lea.w	a4,a7,a4
20003786:	4318                	c.lw	a4,0(a4)
20003788:	00070067          	jr	a4
2000378c:	00a7e2b3          	or	t0,a5,a0
20003790:	32028263          	beqz	t0,20003ab4 <__muldf3+0x3c4>
20003794:	0137d713          	srli	a4,a5,0x13
20003798:	82be                	c.mv	t0,a5
2000379a:	46070563          	beqz	a4,20003c04 <__muldf3+0x514>
2000379e:	4731                	c.li	a4,12
200037a0:	7ff00e13          	li	t3,2047
200037a4:	438d                	c.li	t2,3
200037a6:	4801                	c.li	a6,0
200037a8:	f91ff06f          	j	20003738 <__muldf3+0x48>
200037ac:	00d00eb3          	add	t4,zero,a3
200037b0:	062f605b          	bnec	t5,2,20003810 <__muldf3+0x120>
200037b4:	88f6                	c.mv	a7,t4
200037b6:	7ff00713          	li	a4,2047
200037ba:	4781                	c.li	a5,0
200037bc:	00000613          	li	a2,0
200037c0:	4581                	c.li	a1,0
200037c2:	fff006b7          	lui	a3,0xfff00
200037c6:	8eed                	c.and	a3,a1
200037c8:	4c07a7db          	bfoz	a5,a5,19,0
200037cc:	8fd5                	c.or	a5,a3
200037ce:	01471693          	slli	a3,a4,0x14
200037d2:	80100737          	lui	a4,0x80100
200037d6:	177d                	c.addi	a4,-1
200037d8:	8f7d                	c.and	a4,a5
200037da:	8f55                	c.or	a4,a3
200037dc:	08fe                	c.slli	a7,0x1f
200037de:	7807275b          	bfoz	a4,a4,30,0
200037e2:	8532                	c.mv	a0,a2
200037e4:	011765b3          	or	a1,a4,a7
200037e8:	3e081e63          	bnez	a6,20003be4 <__muldf3+0x4f4>
200037ec:	4472                	c.lwsp	s0,28(sp)
200037ee:	44e2                	c.lwsp	s1,24(sp)
200037f0:	4952                	c.lwsp	s2,20(sp)
200037f2:	49c2                	c.lwsp	s3,16(sp)
200037f4:	4a32                	c.lwsp	s4,12(sp)
200037f6:	4aa2                	c.lwsp	s5,8(sp)
200037f8:	4b12                	c.lwsp	s6,4(sp)
200037fa:	6105                	c.addi16sp	sp,32
200037fc:	00008067          	ret
20003800:	00b00eb3          	add	t4,zero,a1
20003804:	8f1e                	c.mv	t5,t2
20003806:	8796                	c.mv	a5,t0
20003808:	00a00633          	add	a2,zero,a0
2000380c:	ba2f545b          	beqc	t5,2,200037b4 <__muldf3+0xc4>
20003810:	363f525b          	beqc	t5,3,20003b74 <__muldf3+0x484>
20003814:	221f685b          	bnec	t5,1,20003a44 <__muldf3+0x354>
20003818:	88f6                	c.mv	a7,t4
2000381a:	4701                	c.li	a4,0
2000381c:	4781                	c.li	a5,0
2000381e:	4601                	c.li	a2,0
20003820:	fa1ff06f          	j	200037c0 <__muldf3+0xd0>
20003824:	00a7e2b3          	or	t0,a5,a0
20003828:	28028063          	beqz	t0,20003aa8 <__muldf3+0x3b8>
2000382c:	af97877f          	clz32	a4,a5
20003830:	00079663          	bnez	a5,2000383c <__muldf3+0x14c>
20003834:	af95077f          	clz32	a4,a0
20003838:	02070713          	addi	a4,a4,32 # 80100020 <_DATA_LMA_START+0x600f0dc8>
2000383c:	ff570893          	addi	a7,a4,-11
20003840:	4871                	c.li	a6,28
20003842:	3b184b63          	blt	a6,a7,20003bf8 <__muldf3+0x508>
20003846:	42f5                	c.li	t0,29
20003848:	ff870813          	addi	a6,a4,-8
2000384c:	411282b3          	sub	t0,t0,a7
20003850:	005552b3          	srl	t0,a0,t0
20003854:	010797b3          	sll	a5,a5,a6
20003858:	00f2e2b3          	or	t0,t0,a5
2000385c:	01051533          	sll	a0,a0,a6
20003860:	c0d00e13          	li	t3,-1011
20003864:	7946a8db          	bfoz	a7,a3,30,20
20003868:	40ee0e33          	sub	t3,t3,a4
2000386c:	4c06a7db          	bfoz	a5,a3,19,0
20003870:	4701                	c.li	a4,0
20003872:	4381                	c.li	t2,0
20003874:	4801                	c.li	a6,0
20003876:	82fd                	c.srli	a3,0x1f
20003878:	ec0898e3          	bnez	a7,20003748 <__muldf3+0x58>
2000387c:	00c7e8b3          	or	a7,a5,a2
20003880:	24088263          	beqz	a7,20003ac4 <__muldf3+0x3d4>
20003884:	af9788ff          	clz32	a7,a5
20003888:	00079663          	bnez	a5,20003894 <__muldf3+0x1a4>
2000388c:	af9608ff          	clz32	a7,a2
20003890:	02088893          	addi	a7,a7,32
20003894:	ff588f93          	addi	t6,a7,-11
20003898:	4ef1                	c.li	t4,28
2000389a:	35fec963          	blt	t4,t6,20003bec <__muldf3+0x4fc>
2000389e:	4ef5                	c.li	t4,29
200038a0:	ff888f13          	addi	t5,a7,-8
200038a4:	41fe8eb3          	sub	t4,t4,t6
200038a8:	01d65eb3          	srl	t4,a2,t4
200038ac:	01e797b3          	sll	a5,a5,t5
200038b0:	00fee7b3          	or	a5,t4,a5
200038b4:	01e61633          	sll	a2,a2,t5
200038b8:	411e0e33          	sub	t3,t3,a7
200038bc:	c0de0e13          	addi	t3,t3,-1011
200038c0:	4f01                	c.li	t5,0
200038c2:	b56d                	c.j	2000376c <__muldf3+0x7c>
200038c4:	00c7e8b3          	or	a7,a5,a2
200038c8:	7ffe0e13          	addi	t3,t3,2047
200038cc:	20088263          	beqz	a7,20003ad0 <__muldf3+0x3e0>
200038d0:	00376713          	ori	a4,a4,3
200038d4:	4f0d                	c.li	t5,3
200038d6:	e937fb5b          	bbs	a5,19,2000376c <__muldf3+0x7c>
200038da:	4841                	c.li	a6,16
200038dc:	e91ff06f          	j	2000376c <__muldf3+0x7c>
200038e0:	6f41                	c.lui	t5,0x10
200038e2:	ffff0713          	addi	a4,t5,-1 # ffff <BIN_SIZE+0xd59>
200038e6:	00e678b3          	and	a7,a2,a4
200038ea:	01055393          	srli	t2,a0,0x10
200038ee:	031385b3          	mul	a1,t2,a7
200038f2:	8d79                	c.and	a0,a4
200038f4:	01065913          	srli	s2,a2,0x10
200038f8:	02a886b3          	mul	a3,a7,a0
200038fc:	862e                	c.mv	a2,a1
200038fe:	c4a9167f          	maddr32	a2,s2,a0
20003902:	03238733          	mul	a4,t2,s2
20003906:	0106d413          	srli	s0,a3,0x10
2000390a:	9432                	c.add	s0,a2
2000390c:	00b47463          	bgeu	s0,a1,20003914 <__muldf3+0x224>
20003910:	01e70733          	add	a4,a4,t5
20003914:	6b41                	c.lui	s6,0x10
20003916:	fffb0f13          	addi	t5,s6,-1 # ffff <BIN_SIZE+0xd59>
2000391a:	01e7f5b3          	and	a1,a5,t5
2000391e:	02b38a33          	mul	s4,t2,a1
20003922:	0107d993          	srli	s3,a5,0x10
20003926:	01e47633          	and	a2,s0,t5
2000392a:	01e6f6b3          	and	a3,a3,t5
2000392e:	0642                	c.slli	a2,0x10
20003930:	00d60f33          	add	t5,a2,a3
20003934:	02b50ab3          	mul	s5,a0,a1
20003938:	01045493          	srli	s1,s0,0x10
2000393c:	87d2                	c.mv	a5,s4
2000393e:	c4a997ff          	maddr32	a5,s3,a0
20003942:	033383b3          	mul	t2,t2,s3
20003946:	010ad693          	srli	a3,s5,0x10
2000394a:	96be                	c.add	a3,a5
2000394c:	0146f463          	bgeu	a3,s4,20003954 <__muldf3+0x264>
20003950:	016383b3          	add	t2,t2,s6
20003954:	6b41                	c.lui	s6,0x10
20003956:	fffb0413          	addi	s0,s6,-1 # ffff <BIN_SIZE+0xd59>
2000395a:	0102da13          	srli	s4,t0,0x10
2000395e:	0082f7b3          	and	a5,t0,s0
20003962:	031a02b3          	mul	t0,s4,a7
20003966:	0086f633          	and	a2,a3,s0
2000396a:	82c1                	c.srli	a3,0x10
2000396c:	93b6                	c.add	t2,a3
2000396e:	0642                	c.slli	a2,0x10
20003970:	008afab3          	and	s5,s5,s0
20003974:	02f888b3          	mul	a7,a7,a5
20003978:	01560433          	add	s0,a2,s5
2000397c:	94a2                	c.add	s1,s0
2000397e:	8696                	c.mv	a3,t0
20003980:	c4f916ff          	maddr32	a3,s2,a5
20003984:	03490633          	mul	a2,s2,s4
20003988:	0108d513          	srli	a0,a7,0x10
2000398c:	9536                	c.add	a0,a3
2000398e:	00557363          	bgeu	a0,t0,20003994 <__muldf3+0x2a4>
20003992:	965a                	c.add	a2,s6
20003994:	02ba0ab3          	mul	s5,s4,a1
20003998:	6b41                	c.lui	s6,0x10
2000399a:	fffb0293          	addi	t0,s6,-1 # ffff <BIN_SIZE+0xd59>
2000399e:	005576b3          	and	a3,a0,t0
200039a2:	06c2                	c.slli	a3,0x10
200039a4:	0058f8b3          	and	a7,a7,t0
200039a8:	02b78933          	mul	s2,a5,a1
200039ac:	98b6                	c.add	a7,a3
200039ae:	8141                	c.srli	a0,0x10
200039b0:	9532                	c.add	a0,a2
200039b2:	85d6                	c.mv	a1,s5
200039b4:	c4f995ff          	maddr32	a1,s3,a5
200039b8:	034982b3          	mul	t0,s3,s4
200039bc:	01095693          	srli	a3,s2,0x10
200039c0:	00b687b3          	add	a5,a3,a1
200039c4:	0157f463          	bgeu	a5,s5,200039cc <__muldf3+0x2dc>
200039c8:	016282b3          	add	t0,t0,s6
200039cc:	65c1                	c.lui	a1,0x10
200039ce:	15fd                	c.addi	a1,-1
200039d0:	00b7f6b3          	and	a3,a5,a1
200039d4:	06c2                	c.slli	a3,0x10
200039d6:	00b975b3          	and	a1,s2,a1
200039da:	9726                	c.add	a4,s1
200039dc:	96ae                	c.add	a3,a1
200039de:	00873633          	sltu	a2,a4,s0
200039e2:	969e                	c.add	a3,t2
200039e4:	9746                	c.add	a4,a7
200039e6:	00c684b3          	add	s1,a3,a2
200039ea:	011735b3          	sltu	a1,a4,a7
200039ee:	00a488b3          	add	a7,s1,a0
200039f2:	00b88433          	add	s0,a7,a1
200039f6:	00c4b633          	sltu	a2,s1,a2
200039fa:	0076b6b3          	sltu	a3,a3,t2
200039fe:	8ed1                	c.or	a3,a2
20003a00:	00b435b3          	sltu	a1,s0,a1
20003a04:	83c1                	c.srli	a5,0x10
20003a06:	00a8b533          	sltu	a0,a7,a0
20003a0a:	97b6                	c.add	a5,a3
20003a0c:	8dc9                	c.or	a1,a0
20003a0e:	00971613          	slli	a2,a4,0x9
20003a12:	97ae                	c.add	a5,a1
20003a14:	9796                	c.add	a5,t0
20003a16:	01e66633          	or	a2,a2,t5
20003a1a:	01745693          	srli	a3,s0,0x17
20003a1e:	07a6                	c.slli	a5,0x9
20003a20:	00c03633          	snez	a2,a2
20003a24:	835d                	c.srli	a4,0x17
20003a26:	8e59                	c.or	a2,a4
20003a28:	0426                	c.slli	s0,0x9
20003a2a:	8fd5                	c.or	a5,a3
20003a2c:	8e41                	c.or	a2,s0
20003a2e:	1f87f15b          	bbc	a5,24,20003c10 <__muldf3+0x520>
20003a32:	00165713          	srli	a4,a2,0x1
20003a36:	8a05                	c.andi	a2,1
20003a38:	01f79693          	slli	a3,a5,0x1f
20003a3c:	8e59                	c.or	a2,a4
20003a3e:	8e55                	c.or	a2,a3
20003a40:	0017d793          	srli	a5,a5,0x1
20003a44:	3fff8713          	addi	a4,t6,1023
20003a48:	0ae05263          	blez	a4,20003aec <__muldf3+0x3fc>
20003a4c:	00767693          	andi	a3,a2,7
