
NMSIS_DSP_cfft_q15_benchmark_N.adx:     file format elf32-littleriscv
NMSIS_DSP_cfft_q15_benchmark_N.adx
architecture: riscv:rv32, flags 0x00000112:
EXEC_P, HAS_SYMS, D_PAGED
start address 0x20000000

Program Header:
    LOAD off    0x00001000 vaddr 0x20000000 paddr 0x20000000 align 2**12
         filesz 0x0000018a memsz 0x0000018a flags r-x
    LOAD off    0x00002000 vaddr 0x00000000 paddr 0x20000190 align 2**12
         filesz 0x000001bc memsz 0x000001bc flags rwx
    LOAD off    0x00002200 vaddr 0x00000200 paddr 0x20000350 align 2**12
         filesz 0x00004328 memsz 0x00004328 flags r-x
    LOAD off    0x00007000 vaddr 0x00080000 paddr 0x20004678 align 2**12
         filesz 0x0000a188 memsz 0x0000a1c0 flags rw-
    LOAD off    0x000111c0 vaddr 0x0008a1c0 paddr 0x2000e800 align 2**12
         filesz 0x00000022 memsz 0x00000022 flags rw-
    LOAD off    0x000121c0 vaddr 0x0008a1c0 paddr 0x2000e838 align 2**12
         filesz 0x00000000 memsz 0x00000000 flags rw-
0x70000000 off    0x00021900 vaddr 0x00000000 paddr 0x00000000 align 2**0
         filesz 0x00000040 memsz 0x00000000 flags r--

Sections:
Idx Name          Size      VMA       LMA       File off  Algn
  0 .vectors      0000018a  20000000  20000000  00001000  2**2
                  CONTENTS, ALLOC, LOAD, READONLY, CODE
  1 .retention_reset 00000154  00000000  20000190  00002000  2**2
                  CONTENTS, ALLOC, LOAD, READONLY, CODE
  2 .retention_data 00000064  00000158  200002e8  00002158  2**2
                  CONTENTS, ALLOC, LOAD, DATA
  3 .ram_code     00004328  00000200  20000350  00002200  2**8
                  CONTENTS, ALLOC, LOAD, READONLY, CODE
  4 .data         0000a188  00080000  20004678  00007000  2**3
                  CONTENTS, ALLOC, LOAD, DATA
  5 .sbss         00000038  0008a188  2000e800  00011188  2**2
                  ALLOC
  6 .bss          00000000  0008a1c0  2000e838  000121c0  2**2
                  ALLOC
  7 .sdk_version  00000022  0008a1c0  2000e800  000111c0  2**2
                  CONTENTS, ALLOC, LOAD, DATA
  8 .debug_info   000054f9  00000000  00000000  000111e2  2**0
                  CONTENTS, READONLY, DEBUGGING
  9 .debug_abbrev 00000e5c  00000000  00000000  000166db  2**0
                  CONTENTS, READONLY, DEBUGGING
 10 .debug_loc    0000322d  00000000  00000000  00017537  2**0
                  CONTENTS, READONLY, DEBUGGING
 11 .debug_aranges 000001f8  00000000  00000000  0001a768  2**3
                  CONTENTS, READONLY, DEBUGGING
 12 .debug_ranges 00000bc8  00000000  00000000  0001a960  2**3
                  CONTENTS, READONLY, DEBUGGING
 13 .debug_line   00003643  00000000  00000000  0001b528  2**0
                  CONTENTS, READONLY, DEBUGGING
 14 .debug_str    00002d4c  00000000  00000000  0001eb6b  2**0
                  CONTENTS, READONLY, DEBUGGING
 15 .comment      00000049  00000000  00000000  000218b7  2**0
                  CONTENTS, READONLY
 16 .riscv.attributes 00000040  00000000  00000000  00021900  2**0
                  CONTENTS, READONLY
 17 .debug_frame  000004a4  00000000  00000000  00021940  2**2
                  CONTENTS, READONLY, DEBUGGING
SYMBOL TABLE:
20000000 l    d  .vectors	00000000 .vectors
00000000 l    d  .retention_reset	00000000 .retention_reset
00000158 l    d  .retention_data	00000000 .retention_data
00000200 l    d  .ram_code	00000000 .ram_code
00080000 l    d  .data	00000000 .data
0008a188 l    d  .sbss	00000000 .sbss
0008a1c0 l    d  .bss	00000000 .bss
0008a1c0 l    d  .sdk_version	00000000 .sdk_version
00000000 l    d  .debug_info	00000000 .debug_info
00000000 l    d  .debug_abbrev	00000000 .debug_abbrev
00000000 l    d  .debug_loc	00000000 .debug_loc
00000000 l    d  .debug_aranges	00000000 .debug_aranges
00000000 l    d  .debug_ranges	00000000 .debug_ranges
00000000 l    d  .debug_line	00000000 .debug_line
00000000 l    d  .debug_str	00000000 .debug_str
00000000 l    d  .comment	00000000 .comment
00000000 l    d  .riscv.attributes	00000000 .riscv.attributes
00000000 l    d  .debug_frame	00000000 .debug_frame
00000000 l    df *ABS*	00000000 ./boot/cstartup_flash.o
20000028 l       .vectors	00000000 _START
2000008e l       .vectors	00000000 _RETENTION_RESET_INIT
200000a6 l       .vectors	00000000 _RETENTION_RESET_BEGIN
200000b8 l       .vectors	00000000 _RETENTION_DATA_INIT
200000cc l       .vectors	00000000 _RETENTION_DATA_INIT_BEGIN
200000de l       .vectors	00000000 _RAMCODE_INIT
200000f6 l       .vectors	00000000 _RAMCODE_INIT_BEGIN
20000108 l       .vectors	00000000 _DATA_INIT
20000120 l       .vectors	00000000 _DATA_INIT_BEGIN
20000132 l       .vectors	00000000 _ZERO_BSS
20000146 l       .vectors	00000000 _ZERO_BSS_BEGIN
20000152 l       .vectors	00000000 _ZERO_AES
20000166 l       .vectors	00000000 _ZERO_AES_BEGIN
20000172 l       .vectors	00000000 _FILL_STK
20000172 l       .vectors	00000000 _MAIN_FUNC
20000188 l       .vectors	00000000 _END
00000022 l       .retention_reset	00000000 _ISTART
0000002a l       .retention_reset	00000000 _ISWS_USB_DIS
00000088 l       .retention_reset	00000000 _WAKEUP_FLASH
000000a2 l       .retention_reset	00000000 _MSPI_WAIT
000000bc l       .retention_reset	00000000 _WAIT_EFUSE_LOAD_AND_FLASH_WAKEUP_FINISH
000000c2 l       .retention_reset	00000000 _MULTI_ADDRESS_BEGIN
000000d2 l       .retention_reset	00000000 _IZERO_BSS
000000e6 l       .retention_reset	00000000 _IZERO_BSS_BEGIN
000000f2 l       .retention_reset	00000000 _IZERO_AES
00000106 l       .retention_reset	00000000 _IZERO_AES_BEGIN
00000112 l       .retention_reset	00000000 _IFILL_STK
00000112 l       .retention_reset	00000000 _IDATA_INIT
0000012a l       .retention_reset	00000000 _IDATA_INIT_BEGIN
0000013c l       .retention_reset	00000000 _IMAIN_FUNC
00000152 l       .retention_reset	00000000 _IEND
00000040 l       *ABS*	00000000 irqno
00000000 l    df *ABS*	00000000 
00000200 l     F .ram_code	00000024 delay_ms
00000224 l     F .ram_code	00000020 delay_ms.constprop.12
0000130c l     F .ram_code	000000fc user_calib_adc_vref.constprop.9
00000244 l     F .ram_code	00000044 flash_send_addr
00000288 l     F .ram_code	00000048 flash_send_cmd
000002d0 l     F .ram_code	00000060 clock_set_32k_tick
00000330 l     F .ram_code	0000004c analog_read_reg32.constprop.4
0000037c l     F .ram_code	00000024 clock_get_32k_tick
000003a0 l     F .ram_code	00000094 pm_stimer_recover
00000434 l     F .ram_code	00000058 plic_exit_critical_sec
0000048c l     F .ram_code	00000060 plic_enter_critical_sec
000004ec l     F .ram_code	00000180 flash_mspi_read_ram
00001104 l     F .ram_code	00000028 flash_read_uid.constprop.6
0000112c l     F .ram_code	00000028 flash_read_mid
00001154 l     F .ram_code	00000168 flash_read_mid_uid_with_check
0000066c l     F .ram_code	0000014c flash_mspi_read_ram.constprop.7
000012bc l     F .ram_code	00000020 flash_dread
000007b8 l     F .ram_code	00000044 analog_write_reg8
000007fc l     F .ram_code	0000004c analog_read_reg8
00000848 l     F .ram_code	00000140 clock_init_ram.constprop.11
000012dc l     F .ram_code	00000018 clock_init.constprop.10
00001408 l     F .ram_code	00000054 user_calib_freq_offset.constprop.8
00000988 l     F .ram_code	000000b4 pm_wait_bbpll_done
00000a3c l     F .ram_code	00000194 pm_sleep_start
00001460 l     F .ram_code	00000018 gpio_input_dis
00000bd0 l     F .ram_code	00000308 pm_sleep_wakeup_ram.constprop.3
000012f4 l     F .ram_code	00000016 pm_sleep_wakeup.constprop.2
00000158 l     O .retention_data	00000004 flash_read_page
0000015c l     O .retention_data	00000001 g_pm_long_suspend
00000160 l     O .retention_data	00000004 g_pm_tick_cur
00000164 l     O .retention_data	00000029 pmcd
00000190 l     O .retention_data	00000004 g_pm_tick_32k_calib
00000194 l     O .retention_data	00000001 g_plic_preempt_en
00000198 l     O .retention_data	00000002 s_flash_preempt_config
0000019a l     O .retention_data	00000001 g_pm_suspend_power_cfg
0000019c l     O .retention_data	00000008 g_pm_early_wakeup_time_us
000001a4 l     O .retention_data	00000004 g_pm_tick_32k_cur
000001a8 l     O .retention_data	00000001 g_pm_tick_update_en
000001ac l     O .retention_data	00000004 g_pm_r_delay_cycle
000001b0 l     O .retention_data	00000008 g_pm_longsleep_early_wakeup_time_us
0008a188 l     O .sbss	00000004 exception_mcause
0008a18c l     O .sbss	00000004 exception_mdcause
0008a190 l     O .sbss	00000004 exception_mepc
0008a194 l     O .sbss	00000004 exception_mstatus
0008a198 l     O .sbss	00000004 exception_mtval
0008a19c l     O .sbss	00000004 g_chip_version
0008a1a0 l     O .sbss	00000004 g_pm_status_info
0008a17c l     O .data	00000006 sys_clk
0008a1c0 l     O .sdk_version	00000022 sdk_version
00000000 l    df *ABS*	00000000 riscv_cmplx_mag_q15.c.o
00001c24 l       .ram_code	00000000 $x
00000000 l    df *ABS*	00000000 riscv_sqrt_q31.c.o
00001d0c l       .ram_code	00000000 $x
00000000 l    df *ABS*	00000000 riscv_cfft_q15.c.o
00001ddc l       .ram_code	00000000 $x
00001eec l       .ram_code	00000000 $x
00001ffc l       .ram_code	00000000 $x
00000000 l    df *ABS*	00000000 riscv_cfft_radix4_q15.c.o
0000212c l       .ram_code	00000000 $x
00002418 l       .ram_code	00000000 $x
00000000 l    df *ABS*	00000000 riscv_cfft_init_q15.c.o
00002704 l       .ram_code	00000000 $x
00002728 l       .ram_code	00000000 $x
00002750 l       .ram_code	00000000 $x
00002774 l       .ram_code	00000000 $x
00002798 l       .ram_code	00000000 $x
000027bc l       .ram_code	00000000 $x
000027e0 l       .ram_code	00000000 $x
00002804 l       .ram_code	00000000 $x
00002828 l       .ram_code	00000000 $x
0000284c l       .ram_code	00000000 $x
00000000 l    df *ABS*	00000000 riscv_bitreversal2.c.o
000028c4 l       .ram_code	00000000 $x
00000000 l    df *ABS*	00000000 sinf.c
00000000 l    df *ABS*	00000000 ref_rredf.c
0008a104 l     O .data	00000020 twooverpi.2618
00000000 l    df *ABS*	00000000 muldf3.c
00000000 l    df *ABS*	00000000 floatsidf.c
00000000 l    df *ABS*	00000000 truncdfsf2.c
00000000 l    df *ABS*	00000000 malloc.c
00000000 l    df *ABS*	00000000 memcpy.c
00000000 l    df *ABS*	00000000 nano-mallocr.c
00000000 l    df *ABS*	00000000 nano-mallocr.c
00000000 l    df *ABS*	00000000 printf.c
00000000 l    df *ABS*	00000000 putchar.c
00000000 l    df *ABS*	00000000 vprintf.c
00003820 l     F .ram_code	0000003a __vprintf_help
0008a1b0 l     O .sbss	00000004 __vprintf_buf
0008a1b4 l     O .sbss	00000004 __vprintf_buf_len
00000000 l    df *ABS*	00000000 printf_impl.c
00000000 l    df *ABS*	00000000 printf_impl_float.c
00000000 l    df *ABS*	00000000 strcpy.c
00000000 l    df *ABS*	00000000 strnlen.c
00000000 l    df *ABS*	00000000 _sbrk.c
0008a1bc l     O .sbss	00000004 heap_end.2408
00000000 l    df *ABS*	00000000 libgcc2.c
00000000 l    df *ABS*	00000000 libgcc2.c
00000000 l    df *ABS*	00000000 printf_data.c
00000000 l    df *ABS*	00000000 impure.c
0008a1c0 l     O .bss	00000000 impure_data
000037f8 g     F .ram_code	00000028 putchar
00001c1c  w      .ram_code	00000000 entry_irq55
00001c1c  w      .ram_code	00000000 entry_irq13
00004208 g     F .ram_code	0000007c strcpy
00001c1c  w      .ram_code	00000000 entry_irq15
000043a0 g     F .ram_code	0000002e .hidden __ashldi3
00089ef4 g     O .data	000000c0 twiddleCoef_64_q15
00001c1c  w      .ram_code	00000000 entry_irq27
00001c1c  w      .ram_code	00000000 entry_irq60
000821fc g     O .data	00000f80 riscvBitRevIndexTable_fixed_2048
00001c1c  w      .ram_code	00000000 entry_irq1
00001c1c  w      .ram_code	00000000 entry_irq52
00001c1c  w      .ram_code	00000000 entry_irq50
00084074 g     O .data	00003000 twiddleCoef_4096_q15
00001c1c  w      .ram_code	00000000 entry_irq62
000037da g     F .ram_code	0000001e printf
00080800 g       .data	00000000 __global_pointer$
000043d8 g       .ram_code	00000000 .hidden __riscv_save_8
00001c1c  w      .ram_code	00000000 entry_irq58
00004424 g       .ram_code	00000000 .hidden __riscv_restore_3
000001bc g       .retention_data	00000000 _RETENTION_DATA_VMA_END
00004410 g       .ram_code	00000000 .hidden __riscv_restore_10
00001eec  w    F .ram_code	0000010e riscv_cfft_radix4by2_inverse_q15
00001ffc  w    F .ram_code	0000012e riscv_cfft_q15
00083edc g     O .data	000000e0 riscvBitRevIndexTable_fixed_128
000043d8 g       .ram_code	00000000 .hidden __riscv_save_11
0008405c g     O .data	00000018 riscvBitRevIndexTable_fixed_16
000038a6 g     F .ram_code	00000048 __print_integral
0008a0a4 g     O .data	00000010 riscv_cfft_sR_q15_len64
00000000 g       .retention_reset	00000000 _RETENTION_RESET_VMA_START
00001c1c  w      .ram_code	00000000 entry_irq10
00001c1c  w      .ram_code	00000000 entry_irq21
0008a0b4 g     O .data	00000010 riscv_cfft_sR_q15_len32
00000158 g       .retention_data	00000000 _AES_VMA_START
00002a7c g     F .ram_code	0000013a ref__mathlib_rredf2
00001c1c  w      .ram_code	00000000 entry_irq48
00004424 g       .ram_code	00000000 .hidden __riscv_restore_2
00001c1c  w      .ram_code	00000000 entry_irq8
00001c1c  w      .ram_code	00000000 entry_irq33
0008a1c0 g       .bss	00000000 _BSS_VMA_END
000035a0 g     F .ram_code	000000fa memcpy
20000190 g       *ABS*	00000000 _RETENTION_RESET_LMA_START
00003204 g     F .ram_code	0000007a .hidden __floatsidf
00080000 g     O .data	0000001c cst_libm_sincosf
000038ee g     F .ram_code	00000470 __printf_impl
00001c1c  w      .ram_code	00000000 entry_irq12
0008393c g     O .data	000003c0 riscvBitRevIndexTable_fixed_512
00003580 g     F .ram_code	00000010 malloc
00001c1c  w      .ram_code	00000000 entry_irq14
000043d0 g       .ram_code	00000000 .hidden __riscv_save_12
00001c1c  w      .ram_code	00000000 entry_irq2
00001c1c  w      .ram_code	00000000 entry_irq51
0008a064 g     O .data	00000010 riscv_cfft_sR_q15_len1024
00004410 g       .ram_code	00000000 .hidden __riscv_restore_11
00001c1c  w      .ram_code	00000000 entry_irq28
0008a044 g     O .data	00000010 riscv_cfft_sR_q15_len4096
00001c1c  w      .ram_code	00000000 entry_irq43
00004400 g       .ram_code	00000000 .hidden __riscv_save_1
00004424 g       .ram_code	00000000 .hidden __riscv_restore_0
00001c1c  w      .ram_code	00000000 entry_irq20
000043e6 g       .ram_code	00000000 .hidden __riscv_save_7
00002804  w    F .ram_code	00000024 riscv_cfft_init_32_q15
0008a188 g       .sbss	00000000 _BSS_VMA_START
00001c1c  w      .ram_code	00000000 entry_irq63
0008a188 g       .data	00000000 _DATA_VMA_END
00001c1c  w      .ram_code	00000000 entry_irq46
00001c1c  w      .ram_code	00000000 entry_irq31
00001c1c  w      .ram_code	00000000 entry_irq16
00100000 g       *ABS*	00000000 FLASH_SIZE
0000441a g       .ram_code	00000000 .hidden __riscv_restore_5
00001c24  w    F .ram_code	000000e6 riscv_cmplx_mag_q15
0008a074 g     O .data	00000010 riscv_cfft_sR_q15_len512
00080000 g       .data	00000000 _DATA_VMA_START
0008402c g     O .data	00000030 riscvBitRevIndexTable_fixed_32
00004348  w    F .ram_code	00000028 _sbrk
00001c1c  w      .ram_code	00000000 entry_irq53
00001c1c  w      .ram_code	00000000 entry_irq11
000027bc  w    F .ram_code	00000024 riscv_cfft_init_128_q15
0008a0ec g     O .data	00000018 cst_libm_rredf
00000154 g       .retention_reset	00000000 _RETENTION_RESET_VMA_END
00004286 g     F .ram_code	00000018 strnlen
0000441a g       .ram_code	00000000 .hidden __riscv_restore_6
00001c1c  w      .ram_code	00000000 entry_irq5
00001c1c  w      .ram_code	00000000 entry_irq23
00001ddc  w    F .ram_code	0000010e riscv_cfft_radix4by2_q15
00001c1e  w      .ram_code	00000000 trap_handler
00001c1c  w      .ram_code	00000000 entry_irq34
0000212c  w    F .ram_code	000002ec riscv_radix4_butterfly_q15
00004370 g     F .ram_code	0000002e .hidden __lshrdi3
00001c1c  w      .ram_code	00000000 entry_irq36
000043d8 g       .ram_code	00000000 .hidden __riscv_save_9
00001c1c  w      .ram_code	00000000 entry_irq44
0000385a g     F .ram_code	0000004c vprintf
00001c1c  w      .ram_code	00000000 entry_irq45
00001c1c  w      .ram_code	00000000 entry_irq26
000043e6 g       .ram_code	00000000 .hidden __riscv_save_4
000028c4  w    F .ram_code	0000005a riscv_bitreversal_16
0008a084 g     O .data	00000010 riscv_cfft_sR_q15_len256
00002418  w    F .ram_code	000002ec riscv_radix4_butterfly_inverse_q15
00001c1c  w      .ram_code	00000000 entry_irq41
00001c1c  w      .ram_code	00000000 entry_irq61
20000000 g       .vectors	00000000 BIN_BEGIN
0000369a g     F .ram_code	00000090 _free_r
00004400 g       .ram_code	00000000 .hidden __riscv_save_3
00001c1c  w      .ram_code	00000000 entry_irq38
00001000 g       .ram_code	00000000 __vectors
0000e822 g       *ABS*	00000000 BIN_SIZE
00089d74 g     O .data	00000180 twiddleCoef_128_q15
00002828  w    F .ram_code	00000022 riscv_cfft_init_16_q15
0008a164 g     O .data	00000010 __digits
20000350 g       *ABS*	00000000 _RAMCODE_LMA_START
0008a094 g     O .data	00000010 riscv_cfft_sR_q15_len128
0008a1b8 g     O .sbss	00000004 __printf_count
00001c1c  w      .ram_code	00000000 entry_irq59
00002704  w    F .ram_code	00000022 riscv_cfft_init_4096_q15
00001d0c  w    F .ram_code	000000ce riscv_sqrt_q31
00001c1c  w      .ram_code	00000000 entry_irq6
00002bb8 g     F .ram_code	00000648 .hidden __muldf3
000043d8 g       .ram_code	00000000 .hidden __riscv_save_10
0008a1a4 g     O .sbss	00000004 __mculib_REENT_errno
20004678 g       *ABS*	00000000 _DATA_LMA_START
00003d7c g     F .ram_code	00000090 __print_integral_poly
20000000 g       *ABS*	00000000 NDS_SAG_LMA_FLASH
0000441a g       .ram_code	00000000 .hidden __riscv_restore_4
00004410 g       .ram_code	00000000 .hidden __riscv_restore_8
00002728  w    F .ram_code	00000026 riscv_cfft_init_2048_q15
000043e6 g       .ram_code	00000000 .hidden __riscv_save_6
20000000  w      .vectors	00000000 _RELAX_END_
0000429e g     F .ram_code	000000aa memset
00003e0c g     F .ram_code	000003fa __printf_float_impl
00004410 g       .ram_code	00000000 .hidden __riscv_restore_9
0000441a g       .ram_code	00000000 .hidden __riscv_restore_7
000014a4 g     F .ram_code	00000776 main
00089fb4 g     O .data	00000060 twiddleCoef_32_q15
00001c1c g       .ram_code	00000000 default_irq_entry
0008a014 g     O .data	00000030 twiddleCoef_16_q15
00002750  w    F .ram_code	00000024 riscv_cfft_init_1024_q15
00001c1c  w      .ram_code	00000000 entry_irq3
00000ed8 g     F .ram_code	00000100 trap_entry
00000158 g       .retention_data	00000000 _AES_VMA_END
0000284c  w    F .ram_code	00000076 riscv_cfft_init_q15
00003280 g     F .ram_code	00000300 .hidden __truncdfsf2
00001c1c  w      .ram_code	00000000 entry_irq39
0008317c g     O .data	000007c0 riscvBitRevIndexTable_fixed_1024
00001c1c  w      .ram_code	00000000 entry_irq49
0000372a g     F .ram_code	000000b0 _malloc_r
00083cfc g     O .data	000001e0 riscvBitRevIndexTable_fixed_256
00001c1c  w      .ram_code	00000000 entry_irq57
00001c1c  w      .ram_code	00000000 entry_irq47
200002e8 g       *ABS*	00000000 _RETENTION_DATA_LMA_START
00002774  w    F .ram_code	00000024 riscv_cfft_init_512_q15
20000000 g     F .vectors	00000000 _RESET_ENTRY
00088874 g     O .data	00000c00 twiddleCoef_1024_q15
00000158 g       .retention_data	00000000 _RETENTION_DATA_VMA_START
00001c1c  w      .ram_code	00000000 entry_irq4
000a0000 g       *ABS*	00000000 _STACK_TOP
00001c1c  w      .ram_code	00000000 entry_irq22
00001c1c  w      .ram_code	00000000 entry_irq30
00083fbc g     O .data	00000070 riscvBitRevIndexTable_fixed_64
00002798  w    F .ram_code	00000024 riscv_cfft_init_256_q15
0008a184 g     O .data	00000004 _impure_ptr
00001c1c  w      .ram_code	00000000 entry_irq42
00001c1c  w      .ram_code	00000000 entry_irq24
00002920 g     F .ram_code	0000015a sinf
00004400 g       .ram_code	00000000 .hidden __riscv_save_2
00004528 g       .ram_code	00000000 _RAMCODE_VMA_END
00000000  w      *ABS*	00000000 _ITB_BASE_
000043e6 g       .ram_code	00000000 .hidden __riscv_save_5
00001c1c  w      .ram_code	00000000 entry_irq19
0000147c g     F .ram_code	00000026 _write
0008a0c4 g     O .data	00000010 riscv_cfft_sR_q15_len16
000801fc g     O .data	00000080 sqrt_initial_lut_q31
0008a1e8 g       .sdk_version	00000000 _end
00001c1c  w      .ram_code	00000000 entry_irq17
00001c1c  w      .ram_code	00000000 entry_irq9
00089a74 g     O .data	00000300 twiddleCoef_256_q15
00001c1c  w      .ram_code	00000000 entry_irq56
00001c1c  w      .ram_code	00000000 entry_irq35
00001c1c  w      .ram_code	00000000 entry_irq37
0008a054 g     O .data	00000010 riscv_cfft_sR_q15_len2048
000001b8 g     O .retention_data	00000004 g_pm_mspi_cfg
00001c1c  w      .ram_code	00000000 entry_irq54
00001c1c  w      .ram_code	00000000 entry_irq40
0008027c g     O .data	00001f80 riscvBitRevIndexTable_fixed_4096
0000440c g       .ram_code	00000000 .hidden __riscv_restore_12
00000200 g       .ram_code	00000000 _RAMCODE_VMA_START
00004400 g       .ram_code	00000000 .hidden __riscv_save_0
00001c1c  w      .ram_code	00000000 entry_irq29
0008a1ac g     O .sbss	00000004 __malloc_sbrk_start
0008a1a8 g     O .sbss	00000004 __malloc_free_list
00087074 g     O .data	00001800 twiddleCoef_2048_q15
00004424 g       .ram_code	00000000 .hidden __riscv_restore_1
00089474 g     O .data	00000600 twiddleCoef_512_q15
00001c1c  w      .ram_code	00000000 entry_irq7
000027e0  w    F .ram_code	00000024 riscv_cfft_init_64_q15
00001c1c  w      .ram_code	00000000 entry_irq32
00000000 g     F .retention_reset	00000000 _IRESET_ENTRY
00001c1c  w      .ram_code	00000000 entry_irq18
00003d5e g     F .ram_code	0000001e __int_to_poly
00003590 g     F .ram_code	00000010 free
00001c1c  w      .ram_code	00000000 entry_irq25



Disassembly of section .vectors:

20000000 <_RESET_ENTRY>:
20000000:	a025                	c.j	20000028 <_START>
	...
20000016:	0000                	unimp
20000018:	e822                	c.fswsp	fs0,16(sp)
2000001a:	0000                	unimp
2000001c:	0000                	unimp
2000001e:	0000                	unimp
20000020:	544c4e4b          	fnmsub.h	ft8,fs8,ft4,fa0,rmm
20000024:	0000                	unimp
20000026:	          	sllw	a4,zero,zero

20000028 <_START>:
20000028:	e0080197          	auipc	gp,0xe0080
2000002c:	7d818193          	addi	gp,gp,2008 # 80800 <__global_pointer$>
20000030:	801002b7          	lui	t0,0x80100
20000034:	70028293          	addi	t0,t0,1792 # 80100700 <_DATA_LMA_START+0x600fc088>
20000038:	04000313          	li	t1,64
2000003c:	506280a3          	sb	t1,1281(t0)
20000040:	e00a0297          	auipc	t0,0xe00a0
20000044:	fc028293          	addi	t0,t0,-64 # a0000 <_STACK_TOP>
20000048:	8116                	c.mv	sp,t0
2000004a:	e0000297          	auipc	t0,0xe0000
2000004e:	fb628293          	addi	t0,t0,-74 # 0 <_ITB_BASE_>
20000052:	80029073          	csrw	uitb,t0
20000056:	6299                	c.lui	t0,0x6
20000058:	3002a2f3          	csrrs	t0,mstatus,t0
2000005c:	00301073          	fssr	zero
20000060:	e0001297          	auipc	t0,0xe0001
20000064:	fa028293          	addi	t0,t0,-96 # 1000 <__vectors>
20000068:	30529073          	csrw	mtvec,t0
2000006c:	7d016073          	csrsi	mmisc_ctl,2
20000070:	e40002b7          	lui	t0,0xe4000
20000074:	4309                	c.li	t1,2
20000076:	0062a023          	sw	t1,0(t0) # e4000000 <_DATA_LMA_START+0xc3ffb988>
2000007a:	7ca022f3          	csrr	t0,mcache_ctl
2000007e:	0012e293          	ori	t0,t0,1
20000082:	0022e293          	ori	t0,t0,2
20000086:	7ca29073          	csrw	mcache_ctl,t0
2000008a:	0000100f          	fence.i

2000008e <_RETENTION_RESET_INIT>:
2000008e:	00000317          	auipc	t1,0x0
20000092:	10230313          	addi	t1,t1,258 # 20000190 <_RETENTION_RESET_LMA_START>
20000096:	e0000397          	auipc	t2,0xe0000
2000009a:	f6a38393          	addi	t2,t2,-150 # 0 <_ITB_BASE_>
2000009e:	e0000e17          	auipc	t3,0xe0000
200000a2:	0b6e0e13          	addi	t3,t3,182 # 154 <_RETENTION_RESET_VMA_END>

200000a6 <_RETENTION_RESET_BEGIN>:
200000a6:	01c3f963          	bgeu	t2,t3,200000b8 <_RETENTION_DATA_INIT>
200000aa:	00032283          	lw	t0,0(t1)
200000ae:	0053a023          	sw	t0,0(t2)
200000b2:	0311                	c.addi	t1,4
200000b4:	0391                	c.addi	t2,4
200000b6:	bfc5                	c.j	200000a6 <_RETENTION_RESET_BEGIN>

200000b8 <_RETENTION_DATA_INIT>:
200000b8:	00000317          	auipc	t1,0x0
200000bc:	23030313          	addi	t1,t1,560 # 200002e8 <_RETENTION_DATA_LMA_START>
200000c0:	15800393          	li	t2,344
200000c4:	e0000e17          	auipc	t3,0xe0000
200000c8:	0f8e0e13          	addi	t3,t3,248 # 1bc <_RETENTION_DATA_VMA_END>

200000cc <_RETENTION_DATA_INIT_BEGIN>:
200000cc:	01c3f963          	bgeu	t2,t3,200000de <_RAMCODE_INIT>
200000d0:	00032283          	lw	t0,0(t1)
200000d4:	0053a023          	sw	t0,0(t2)
200000d8:	0311                	c.addi	t1,4
200000da:	0391                	c.addi	t2,4
200000dc:	bfc5                	c.j	200000cc <_RETENTION_DATA_INIT_BEGIN>

200000de <_RAMCODE_INIT>:
200000de:	00000317          	auipc	t1,0x0
200000e2:	27230313          	addi	t1,t1,626 # 20000350 <_RAMCODE_LMA_START>
200000e6:	e0000397          	auipc	t2,0xe0000
200000ea:	11a38393          	addi	t2,t2,282 # 200 <delay_ms>
200000ee:	e0004e17          	auipc	t3,0xe0004
200000f2:	43ae0e13          	addi	t3,t3,1082 # 4528 <_RAMCODE_VMA_END>

200000f6 <_RAMCODE_INIT_BEGIN>:
200000f6:	01c3f963          	bgeu	t2,t3,20000108 <_DATA_INIT>
200000fa:	00032283          	lw	t0,0(t1)
200000fe:	0053a023          	sw	t0,0(t2)
20000102:	0311                	c.addi	t1,4
20000104:	0391                	c.addi	t2,4
20000106:	bfc5                	c.j	200000f6 <_RAMCODE_INIT_BEGIN>

20000108 <_DATA_INIT>:
20000108:	00004317          	auipc	t1,0x4
2000010c:	57030313          	addi	t1,t1,1392 # 20004678 <_DATA_LMA_START>
20000110:	e0080397          	auipc	t2,0xe0080
20000114:	ef038393          	addi	t2,t2,-272 # 80000 <cst_libm_sincosf>
20000118:	e008ae17          	auipc	t3,0xe008a
2000011c:	070e0e13          	addi	t3,t3,112 # 8a188 <_DATA_VMA_END>

20000120 <_DATA_INIT_BEGIN>:
20000120:	01c3f963          	bgeu	t2,t3,20000132 <_ZERO_BSS>
20000124:	00032283          	lw	t0,0(t1)
20000128:	0053a023          	sw	t0,0(t2)
2000012c:	0311                	c.addi	t1,4
2000012e:	0391                	c.addi	t2,4
20000130:	bfc5                	c.j	20000120 <_DATA_INIT_BEGIN>

20000132 <_ZERO_BSS>:
20000132:	000002b7          	lui	t0,0x0
20000136:	e008a397          	auipc	t2,0xe008a
2000013a:	05238393          	addi	t2,t2,82 # 8a188 <_DATA_VMA_END>
2000013e:	e008ae17          	auipc	t3,0xe008a
20000142:	082e0e13          	addi	t3,t3,130 # 8a1c0 <_BSS_VMA_END>

20000146 <_ZERO_BSS_BEGIN>:
20000146:	01c3f663          	bgeu	t2,t3,20000152 <_ZERO_AES>
2000014a:	0053a023          	sw	t0,0(t2)
2000014e:	0391                	c.addi	t2,4
20000150:	bfdd                	c.j	20000146 <_ZERO_BSS_BEGIN>

20000152 <_ZERO_AES>:
20000152:	000002b7          	lui	t0,0x0
20000156:	e0000397          	auipc	t2,0xe0000
2000015a:	00238393          	addi	t2,t2,2 # 158 <_AES_VMA_END>
2000015e:	e0000e17          	auipc	t3,0xe0000
20000162:	ffae0e13          	addi	t3,t3,-6 # 158 <_AES_VMA_END>

20000166 <_ZERO_AES_BEGIN>:
20000166:	01c3f663          	bgeu	t2,t3,20000172 <_FILL_STK>
2000016a:	0053a023          	sw	t0,0(t2)
2000016e:	0391                	c.addi	t2,4
20000170:	bfdd                	c.j	20000166 <_ZERO_AES_BEGIN>

20000172 <_FILL_STK>:
20000172:	0001                	c.nop
20000174:	e0001297          	auipc	t0,0xe0001
20000178:	33028293          	addi	t0,t0,816 # 14a4 <main>
2000017c:	9282                	c.jalr	t0
2000017e:	0001                	c.nop
20000180:	0001                	c.nop
20000182:	0001                	c.nop
20000184:	0001                	c.nop
20000186:	0001                	c.nop

20000188 <_END>:
20000188:	a001                	c.j	20000188 <_END>

Disassembly of section .retention_reset:

00000000 <_IRESET_ENTRY>:
   0:	a00d                	c.j	22 <_ISTART>
	...

00000022 <_ISTART>:
  22:	00080197          	auipc	gp,0x80
  26:	7de18193          	addi	gp,gp,2014 # 80800 <__global_pointer$>

0000002a <_ISWS_USB_DIS>:
  2a:	801002b7          	lui	t0,0x80100
  2e:	70028293          	addi	t0,t0,1792 # 80100700 <_DATA_LMA_START+0x600fc088>
  32:	04000313          	li	t1,64
  36:	506280a3          	sb	t1,1281(t0)
  3a:	000a0297          	auipc	t0,0xa0
  3e:	fc628293          	addi	t0,t0,-58 # a0000 <_STACK_TOP>
  42:	8116                	c.mv	sp,t0
  44:	00000297          	auipc	t0,0x0
  48:	fbc28293          	addi	t0,t0,-68 # 0 <_IRESET_ENTRY>
  4c:	80029073          	csrw	uitb,t0
  50:	6299                	c.lui	t0,0x6
  52:	3002a2f3          	csrrs	t0,mstatus,t0
  56:	00301073          	fssr	zero
  5a:	00001297          	auipc	t0,0x1
  5e:	fa628293          	addi	t0,t0,-90 # 1000 <__vectors>
  62:	30529073          	csrw	mtvec,t0
  66:	7d016073          	csrsi	mmisc_ctl,2
  6a:	e40002b7          	lui	t0,0xe4000
  6e:	4309                	c.li	t1,2
  70:	0062a023          	sw	t1,0(t0) # e4000000 <_DATA_LMA_START+0xc3ffb988>
  74:	7ca022f3          	csrr	t0,mcache_ctl
  78:	0012e293          	ori	t0,t0,1
  7c:	0022e293          	ori	t0,t0,2
  80:	7ca29073          	csrw	mcache_ctl,t0
  84:	0000100f          	fence.i

00000088 <_WAKEUP_FLASH>:
  88:	801402b7          	lui	t0,0x80140
  8c:	0ff00313          	li	t1,255
  90:	4381                	c.li	t2,0
  92:	0ab00e13          	li	t3,171
  96:	326284a3          	sb	t1,809(t0) # 80140329 <_DATA_LMA_START+0x6013bcb1>
  9a:	107280a3          	sb	t2,257(t0)
  9e:	11c28023          	sb	t3,256(t0)

000000a2 <_MSPI_WAIT>:
  a2:	801402b7          	lui	t0,0x80140
  a6:	10228383          	lb	t2,258(t0) # 80140102 <_DATA_LMA_START+0x6013ba8a>
  aa:	4e05                	c.li	t3,1
  ac:	4ec1                	c.li	t4,16
  ae:	fe7e0ae3          	beq	t3,t2,a2 <_MSPI_WAIT>
  b2:	11d280a3          	sb	t4,257(t0)
  b6:	4281                	c.li	t0,0
  b8:	14000313          	li	t1,320

000000bc <_WAIT_EFUSE_LOAD_AND_FLASH_WAKEUP_FINISH>:
  bc:	0285                	c.addi	t0,1
  be:	fe537fe3          	bgeu	t1,t0,bc <_WAIT_EFUSE_LOAD_AND_FLASH_WAKEUP_FINISH>

000000c2 <_MULTI_ADDRESS_BEGIN>:
  c2:	801402b7          	lui	t0,0x80140
  c6:	1b800313          	li	t1,440
  ca:	00032383          	lw	t2,0(t1)
  ce:	1072a223          	sw	t2,260(t0) # 80140104 <_DATA_LMA_START+0x6013ba8c>

000000d2 <_IZERO_BSS>:
  d2:	000002b7          	lui	t0,0x0
  d6:	0008a397          	auipc	t2,0x8a
  da:	0b238393          	addi	t2,t2,178 # 8a188 <_DATA_VMA_END>
  de:	0008ae17          	auipc	t3,0x8a
  e2:	0e2e0e13          	addi	t3,t3,226 # 8a1c0 <_BSS_VMA_END>

000000e6 <_IZERO_BSS_BEGIN>:
  e6:	01c3f663          	bgeu	t2,t3,f2 <_IZERO_AES>
  ea:	0053a023          	sw	t0,0(t2)
  ee:	0391                	c.addi	t2,4
  f0:	bfdd                	c.j	e6 <_IZERO_BSS_BEGIN>

000000f2 <_IZERO_AES>:
  f2:	000002b7          	lui	t0,0x0
  f6:	00000397          	auipc	t2,0x0
  fa:	06238393          	addi	t2,t2,98 # 158 <_AES_VMA_END>
  fe:	00000e17          	auipc	t3,0x0
 102:	05ae0e13          	addi	t3,t3,90 # 158 <_AES_VMA_END>

00000106 <_IZERO_AES_BEGIN>:
 106:	01c3f663          	bgeu	t2,t3,112 <_IDATA_INIT>
 10a:	0053a023          	sw	t0,0(t2)
 10e:	0391                	c.addi	t2,4
 110:	bfdd                	c.j	106 <_IZERO_AES_BEGIN>

00000112 <_IDATA_INIT>:
 112:	20004317          	auipc	t1,0x20004
 116:	56630313          	addi	t1,t1,1382 # 20004678 <_DATA_LMA_START>
 11a:	00080397          	auipc	t2,0x80
 11e:	ee638393          	addi	t2,t2,-282 # 80000 <cst_libm_sincosf>
 122:	0008ae17          	auipc	t3,0x8a
 126:	066e0e13          	addi	t3,t3,102 # 8a188 <_DATA_VMA_END>

0000012a <_IDATA_INIT_BEGIN>:
 12a:	01c3f963          	bgeu	t2,t3,13c <_IMAIN_FUNC>
 12e:	00032283          	lw	t0,0(t1)
 132:	0053a023          	sw	t0,0(t2)
 136:	0311                	c.addi	t1,4
 138:	0391                	c.addi	t2,4
 13a:	bfc5                	c.j	12a <_IDATA_INIT_BEGIN>

0000013c <_IMAIN_FUNC>:
 13c:	0001                	c.nop
 13e:	00001297          	auipc	t0,0x1
 142:	36628293          	addi	t0,t0,870 # 14a4 <main>
 146:	9282                	c.jalr	t0
 148:	0001                	c.nop
 14a:	0001                	c.nop
 14c:	0001                	c.nop
 14e:	0001                	c.nop
 150:	0001                	c.nop

00000152 <_IEND>:
 152:	a001                	c.j	152 <_IEND>

Disassembly of section .ram_code:

00000200 <delay_ms>:
     200:	000047b7          	lui	a5,0x4
     204:	e8078793          	addi	a5,a5,-384 # 3e80 <__printf_float_impl+0x74>
     208:	02f50533          	mul	a0,a0,a5
     20c:	801407b7          	lui	a5,0x80140
     210:	2007a683          	lw	a3,512(a5) # 80140200 <_DATA_LMA_START+0x6013bb88>
     214:	80140737          	lui	a4,0x80140
     218:	20072783          	lw	a5,512(a4) # 80140200 <_DATA_LMA_START+0x6013bb88>
     21c:	8f95                	c.sub	a5,a3
     21e:	fef57de3          	bgeu	a0,a5,218 <delay_ms+0x18>
     222:	8082                	c.jr	ra

00000224 <delay_ms.constprop.12>:
     224:	801407b7          	lui	a5,0x80140
     228:	00027737          	lui	a4,0x27
     22c:	2007a603          	lw	a2,512(a5) # 80140200 <_DATA_LMA_START+0x6013bb88>
     230:	801406b7          	lui	a3,0x80140
     234:	10070713          	addi	a4,a4,256 # 27100 <BIN_SIZE+0x188de>
     238:	2006a783          	lw	a5,512(a3) # 80140200 <_DATA_LMA_START+0x6013bb88>
     23c:	8f91                	c.sub	a5,a2
     23e:	fef77de3          	bgeu	a4,a5,238 <delay_ms.constprop.12+0x14>
     242:	8082                	c.jr	ra

00000244 <flash_send_addr>:
     244:	5d05275b          	bfoz	a4,a0,23,16
     248:	801407b7          	lui	a5,0x80140
     24c:	801406b7          	lui	a3,0x80140
     250:	10e78023          	sb	a4,256(a5) # 80140100 <_DATA_LMA_START+0x6013ba88>
     254:	10268783          	lb	a5,258(a3) # 80140102 <_DATA_LMA_START+0x6013ba8a>
     258:	fe07fe5b          	bbs	a5,0,254 <flash_send_addr+0x10>
     25c:	3c8527db          	bfoz	a5,a0,15,8
     260:	80140737          	lui	a4,0x80140
     264:	10f68023          	sb	a5,256(a3)
     268:	10270783          	lb	a5,258(a4) # 80140102 <_DATA_LMA_START+0x6013ba8a>
     26c:	fe07fe5b          	bbs	a5,0,268 <flash_send_addr+0x24>
     270:	0ff57513          	andi	a0,a0,255
     274:	801406b7          	lui	a3,0x80140
     278:	10a70023          	sb	a0,256(a4)
     27c:	10268783          	lb	a5,258(a3) # 80140102 <_DATA_LMA_START+0x6013ba8a>
     280:	fe07fe5b          	bbs	a5,0,27c <flash_send_addr+0x38>
     284:	00008067          	ret

00000288 <flash_send_cmd>:
     288:	801407b7          	lui	a5,0x80140
     28c:	10178703          	lb	a4,257(a5) # 80140101 <_DATA_LMA_START+0x6013ba89>
     290:	0ff77713          	andi	a4,a4,255
     294:	01076713          	ori	a4,a4,16
     298:	10e780a3          	sb	a4,257(a5)
     29c:	0001                	c.nop
     29e:	0001                	c.nop
     2a0:	0001                	c.nop
     2a2:	0001                	c.nop
     2a4:	0001                	c.nop
     2a6:	0001                	c.nop
     2a8:	0001                	c.nop
     2aa:	0001                	c.nop
     2ac:	0001                	c.nop
     2ae:	0001                	c.nop
     2b0:	10178683          	lb	a3,257(a5)
     2b4:	80140737          	lui	a4,0x80140
     2b8:	0ef6f693          	andi	a3,a3,239
     2bc:	10d780a3          	sb	a3,257(a5)
     2c0:	10a78023          	sb	a0,256(a5)
     2c4:	10270783          	lb	a5,258(a4) # 80140102 <_DATA_LMA_START+0x6013ba8a>
     2c8:	fe07fe5b          	bbs	a5,0,2c4 <flash_send_cmd+0x3c>
     2cc:	00008067          	ret

000002d0 <clock_set_32k_tick>:
     2d0:	801406b7          	lui	a3,0x80140
     2d4:	20a68783          	lb	a5,522(a3) # 8014020a <_DATA_LMA_START+0x6013bb92>
     2d8:	80140737          	lui	a4,0x80140
     2dc:	0ff7f793          	andi	a5,a5,255
     2e0:	0017e793          	ori	a5,a5,1
     2e4:	20f68523          	sb	a5,522(a3)
     2e8:	20b70683          	lb	a3,523(a4) # 8014020b <_DATA_LMA_START+0x6013bb93>
     2ec:	20b70793          	addi	a5,a4,523
     2f0:	fe66fc5b          	bbs	a3,6,2e8 <clock_set_32k_tick+0x18>
     2f4:	20a72623          	sw	a0,524(a4)
     2f8:	4721                	c.li	a4,8
     2fa:	00e78023          	sb	a4,0(a5)
     2fe:	0001                	c.nop
     300:	0001                	c.nop
     302:	0001                	c.nop
     304:	0001                	c.nop
     306:	0001                	c.nop
     308:	0001                	c.nop
     30a:	0001                	c.nop
     30c:	0001                	c.nop
     30e:	0001                	c.nop
     310:	0001                	c.nop
     312:	0001                	c.nop
     314:	0001                	c.nop
     316:	0001                	c.nop
     318:	0001                	c.nop
     31a:	0001                	c.nop
     31c:	00000013          	nop
     320:	801407b7          	lui	a5,0x80140
     324:	20b78703          	lb	a4,523(a5) # 8014020b <_DATA_LMA_START+0x6013bb93>
     328:	fe377e5b          	bbs	a4,3,324 <clock_set_32k_tick+0x54>
     32c:	00008067          	ret

00000330 <analog_read_reg32.constprop.4>:
     330:	300027f3          	csrr	a5,mstatus
     334:	8ba1                	c.andi	a5,8
     336:	c789                	c.beqz	a5,340 <analog_read_reg32.constprop.4+0x10>
     338:	30047773          	csrrci	a4,mstatus,8
     33c:	0ff0000f          	fence
     340:	80140737          	lui	a4,0x80140
     344:	00400693          	li	a3,4
     348:	18d701a3          	sb	a3,387(a4) # 80140183 <_DATA_LMA_START+0x6013bb0b>
     34c:	06000693          	li	a3,96
     350:	18d70023          	sb	a3,384(a4)
     354:	04000613          	li	a2,64
     358:	801406b7          	lui	a3,0x80140
     35c:	18c70123          	sb	a2,386(a4)
     360:	18268703          	lb	a4,386(a3) # 80140182 <_DATA_LMA_START+0x6013bb0a>
     364:	fe777e5b          	bbs	a4,7,360 <analog_read_reg32.constprop.4+0x30>
     368:	1846a503          	lw	a0,388(a3)
     36c:	00078663          	beqz	a5,378 <analog_read_reg32.constprop.4+0x48>
     370:	3007a7f3          	csrrs	a5,mstatus,a5
     374:	0ff0000f          	fence
     378:	00008067          	ret

0000037c <clock_get_32k_tick>:
     37c:	1141                	c.addi	sp,-16
     37e:	c422                	c.swsp	s0,8(sp)
     380:	c606                	c.swsp	ra,12(sp)
     382:	377d                	c.jal	330 <analog_read_reg32.constprop.4>
     384:	00a00433          	add	s0,zero,a0
     388:	fa9ff0ef          	jal	ra,330 <analog_read_reg32.constprop.4>
     38c:	40850733          	sub	a4,a0,s0
     390:	842a                	c.mv	s0,a0
     392:	be176b5b          	bnec	a4,1,388 <clock_get_32k_tick+0xc>
     396:	40b2                	c.lwsp	ra,12(sp)
     398:	4422                	c.lwsp	s0,8(sp)
     39a:	0141                	c.addi	sp,16
     39c:	00008067          	ret

000003a0 <pm_stimer_recover>:
     3a0:	1141                	c.addi	sp,-16
     3a2:	80140737          	lui	a4,0x80140
     3a6:	c606                	c.swsp	ra,12(sp)
     3a8:	4789                	c.li	a5,2
     3aa:	20f70c23          	sb	a5,536(a4) # 80140218 <_DATA_LMA_START+0x6013bba0>
     3ae:	20a70783          	lb	a5,522(a4)
     3b2:	0ff7f793          	andi	a5,a5,255
     3b6:	00c7e793          	ori	a5,a5,12
     3ba:	20f70523          	sb	a5,522(a4)
     3be:	3f7d                	c.jal	37c <clock_get_32k_tick>
     3c0:	000007b7          	lui	a5,0x0
     3c4:	15878713          	addi	a4,a5,344 # 158 <_AES_VMA_END>
     3c8:	00474703          	lbu	a4,4(a4)
     3cc:	15878793          	addi	a5,a5,344
     3d0:	cf01                	c.beqz	a4,3e8 <pm_stimer_recover+0x48>
     3d2:	4b98                	c.lw	a4,16(a5)
     3d4:	5f90                	c.lw	a2,56(a5)
     3d6:	40e50733          	sub	a4,a0,a4
     3da:	47d4                	c.lw	a3,12(a5)
     3dc:	0705                	c.addi	a4,1
     3de:	8315                	c.srli	a4,0x5
     3e0:	c4c716ff          	maddr32	a3,a4,a2
     3e4:	c794                	c.sw	a3,8(a5)
     3e6:	a829                	c.j	400 <pm_stimer_recover+0x60>
     3e8:	4b98                	c.lw	a4,16(a5)
     3ea:	5f94                	c.lw	a3,56(a5)
     3ec:	40e50733          	sub	a4,a0,a4
     3f0:	0705                	c.addi	a4,1
     3f2:	02d70733          	mul	a4,a4,a3
     3f6:	47d4                	c.lw	a3,12(a5)
     3f8:	8315                	c.srli	a4,0x5
     3fa:	9736                	c.add	a4,a3
     3fc:	00e7a423          	sw	a4,8(a5)
     400:	4b98                	c.lw	a4,16(a5)
     402:	4794                	c.lw	a3,8(a5)
     404:	40e50733          	sub	a4,a0,a4
     408:	0705                	c.addi	a4,1
     40a:	0505                	c.addi	a0,1
     40c:	0685                	c.addi	a3,1
     40e:	d788                	c.sw	a0,40(a5)
     410:	02e7a223          	sw	a4,36(a5)
     414:	80140637          	lui	a2,0x80140
     418:	801407b7          	lui	a5,0x80140
     41c:	20d7a023          	sw	a3,512(a5) # 80140200 <_DATA_LMA_START+0x6013bb88>
     420:	20b60783          	lb	a5,523(a2) # 8014020b <_DATA_LMA_START+0x6013bb93>
     424:	be77fe5b          	bbc	a5,7,420 <pm_stimer_recover+0x80>
     428:	20060c23          	sb	zero,536(a2)
     42c:	40b2                	c.lwsp	ra,12(sp)
     42e:	0141                	c.addi	sp,16
     430:	00008067          	ret

00000434 <plic_exit_critical_sec>:
     434:	000007b7          	lui	a5,0x0
     438:	15878793          	addi	a5,a5,344 # 158 <_AES_VMA_END>
     43c:	03c78783          	lb	a5,60(a5)
     440:	0ff7f793          	andi	a5,a5,255
     444:	c795                	c.beqz	a5,470 <plic_exit_critical_sec+0x3c>
     446:	c50d                	c.beqz	a0,470 <plic_exit_critical_sec+0x3c>
     448:	300027f3          	csrr	a5,mstatus
     44c:	8ba1                	c.andi	a5,8
     44e:	0ff5f593          	andi	a1,a1,255
     452:	c78d                	c.beqz	a5,47c <plic_exit_critical_sec+0x48>
     454:	30047773          	csrrci	a4,mstatus,8
     458:	0ff0000f          	fence
     45c:	e4200737          	lui	a4,0xe4200
     460:	c30c                	c.sw	a1,0(a4)
     462:	0ff0000f          	fence
     466:	3007a7f3          	csrrs	a5,mstatus,a5
     46a:	0ff0000f          	fence
     46e:	8082                	c.jr	ra
     470:	cd81                	c.beqz	a1,488 <plic_exit_critical_sec+0x54>
     472:	3005a5f3          	csrrs	a1,mstatus,a1
     476:	0ff0000f          	fence
     47a:	8082                	c.jr	ra
     47c:	e42007b7          	lui	a5,0xe4200
     480:	00b7a023          	sw	a1,0(a5) # e4200000 <_DATA_LMA_START+0xc41fb988>
     484:	0ff0000f          	fence
     488:	00008067          	ret

0000048c <plic_enter_critical_sec>:
     48c:	000007b7          	lui	a5,0x0
     490:	15878793          	addi	a5,a5,344 # 158 <_AES_VMA_END>
     494:	03c78783          	lb	a5,60(a5)
     498:	0ff7f793          	andi	a5,a5,255
     49c:	cb85                	c.beqz	a5,4cc <plic_enter_critical_sec+0x40>
     49e:	c51d                	c.beqz	a0,4cc <plic_enter_critical_sec+0x40>
     4a0:	e4200737          	lui	a4,0xe4200
     4a4:	4308                	c.lw	a0,0(a4)
     4a6:	04b57163          	bgeu	a0,a1,4e8 <plic_enter_critical_sec+0x5c>
     4aa:	300027f3          	csrr	a5,mstatus
     4ae:	8ba1                	c.andi	a5,8
     4b0:	cb85                	c.beqz	a5,4e0 <plic_enter_critical_sec+0x54>
     4b2:	300476f3          	csrrci	a3,mstatus,8
     4b6:	0ff0000f          	fence
     4ba:	c30c                	c.sw	a1,0(a4)
     4bc:	0ff0000f          	fence
     4c0:	3007a7f3          	csrrs	a5,mstatus,a5
     4c4:	0ff0000f          	fence
     4c8:	00008067          	ret
     4cc:	30002573          	csrr	a0,mstatus
     4d0:	8921                	c.andi	a0,8
     4d2:	c919                	c.beqz	a0,4e8 <plic_enter_critical_sec+0x5c>
     4d4:	300477f3          	csrrci	a5,mstatus,8
     4d8:	0ff0000f          	fence
     4dc:	00008067          	ret
     4e0:	00b72023          	sw	a1,0(a4) # e4200000 <_DATA_LMA_START+0xc41fb988>
     4e4:	0ff0000f          	fence
     4e8:	00008067          	ret

000004ec <flash_mspi_read_ram>:
     4ec:	7179                	c.addi16sp	sp,-48
     4ee:	d226                	c.swsp	s1,36(sp)
     4f0:	000004b7          	lui	s1,0x0
     4f4:	15848493          	addi	s1,s1,344 # 158 <_AES_VMA_END>
     4f8:	d04a                	c.swsp	s2,32(sp)
     4fa:	c65e                	c.swsp	s7,12(sp)
     4fc:	892a                	c.mv	s2,a0
     4fe:	8bae                	c.mv	s7,a1
     500:	0404c503          	lbu	a0,64(s1)
     504:	0414c583          	lbu	a1,65(s1)
     508:	d422                	c.swsp	s0,40(sp)
     50a:	ce4e                	c.swsp	s3,28(sp)
     50c:	cc52                	c.swsp	s4,24(sp)
     50e:	ca56                	c.swsp	s5,20(sp)
     510:	c85a                	c.swsp	s6,16(sp)
     512:	d606                	c.swsp	ra,44(sp)
     514:	8b32                	c.mv	s6,a2
     516:	8ab6                	c.mv	s5,a3
     518:	843a                	c.mv	s0,a4
     51a:	8a3e                	c.mv	s4,a5
     51c:	f71ff0ef          	jal	ra,48c <plic_enter_critical_sec>
     520:	80140637          	lui	a2,0x80140
     524:	00a009b3          	add	s3,zero,a0
     528:	10260783          	lb	a5,258(a2) # 80140102 <_DATA_LMA_START+0x6013ba8a>
     52c:	fe07fe5b          	bbs	a5,0,528 <flash_mspi_read_ram+0x3c>
     530:	10160783          	lb	a5,257(a2)
     534:	80140737          	lui	a4,0x80140
     538:	0ff7f793          	andi	a5,a5,255
     53c:	0107e793          	ori	a5,a5,16
     540:	10f600a3          	sb	a5,257(a2)
     544:	32870783          	lb	a5,808(a4) # 80140328 <_DATA_LMA_START+0x6013bcb0>
     548:	be37fe5b          	bbc	a5,3,544 <flash_mspi_read_ram+0x58>
     54c:	10170783          	lb	a5,257(a4)
     550:	854a                	c.mv	a0,s2
     552:	0fd7f793          	andi	a5,a5,253
     556:	10f700a3          	sb	a5,257(a4)
     55a:	10170783          	lb	a5,257(a4)
     55e:	0f37f793          	andi	a5,a5,243
     562:	10f700a3          	sb	a5,257(a4)
     566:	330d                	c.jal	288 <flash_send_cmd>
     568:	0e0b1e63          	bnez	s6,664 <flash_mspi_read_ram+0x178>
     56c:	020a8063          	beqz	s5,58c <flash_mspi_read_ram+0xa0>
     570:	00000713          	li	a4,0
     574:	80140637          	lui	a2,0x80140
     578:	10060023          	sb	zero,256(a2) # 80140100 <_DATA_LMA_START+0x6013ba88>
     57c:	10260783          	lb	a5,258(a2)
     580:	fe07fe5b          	bbs	a5,0,57c <flash_mspi_read_ram+0x90>
     584:	00170713          	addi	a4,a4,1
     588:	ff5718e3          	bne	a4,s5,578 <flash_mspi_read_ram+0x8c>
     58c:	01b96cdb          	bnec	s2,59,5a4 <flash_mspi_read_ram+0xb8>
     590:	80140737          	lui	a4,0x80140
     594:	10170783          	lb	a5,257(a4) # 80140101 <_DATA_LMA_START+0x6013ba89>
     598:	0f37f793          	andi	a5,a5,243
     59c:	0047e793          	ori	a5,a5,4
     5a0:	10f700a3          	sb	a5,257(a4)
     5a4:	801406b7          	lui	a3,0x80140
     5a8:	10168783          	lb	a5,257(a3) # 80140101 <_DATA_LMA_START+0x6013ba89>
     5ac:	80140737          	lui	a4,0x80140
     5b0:	0ff7f793          	andi	a5,a5,255
     5b4:	0027e793          	ori	a5,a5,2
     5b8:	10f680a3          	sb	a5,257(a3)
     5bc:	10068023          	sb	zero,256(a3)
     5c0:	10270783          	lb	a5,258(a4) # 80140102 <_DATA_LMA_START+0x6013ba8a>
     5c4:	fe07fe5b          	bbs	a5,0,5c0 <flash_mspi_read_ram+0xd4>
     5c8:	10170783          	lb	a5,257(a4)
     5cc:	801406b7          	lui	a3,0x80140
     5d0:	0ff7f793          	andi	a5,a5,255
     5d4:	0017e793          	ori	a5,a5,1
     5d8:	10f700a3          	sb	a5,257(a4)
     5dc:	10268783          	lb	a5,258(a3) # 80140102 <_DATA_LMA_START+0x6013ba8a>
     5e0:	fe07fe5b          	bbs	a5,0,5dc <flash_mspi_read_ram+0xf0>
     5e4:	020a0263          	beqz	s4,608 <flash_mspi_read_ram+0x11c>
     5e8:	008a0a33          	add	s4,s4,s0
     5ec:	801406b7          	lui	a3,0x80140
     5f0:	10068783          	lb	a5,256(a3) # 80140100 <_DATA_LMA_START+0x6013ba88>
     5f4:	00140413          	addi	s0,s0,1
     5f8:	fef40fa3          	sb	a5,-1(s0)
     5fc:	10268783          	lb	a5,258(a3)
     600:	fe07fe5b          	bbs	a5,0,5fc <flash_mspi_read_ram+0x110>
     604:	ff4416e3          	bne	s0,s4,5f0 <flash_mspi_read_ram+0x104>
     608:	801407b7          	lui	a5,0x80140
     60c:	10178703          	lb	a4,257(a5) # 80140101 <_DATA_LMA_START+0x6013ba89>
     610:	0fe77713          	andi	a4,a4,254
     614:	10e780a3          	sb	a4,257(a5)
     618:	01b968db          	bnec	s2,59,628 <flash_mspi_read_ram+0x13c>
     61c:	10178703          	lb	a4,257(a5)
     620:	0f377713          	andi	a4,a4,243
     624:	10e780a3          	sb	a4,257(a5)
     628:	80140737          	lui	a4,0x80140
     62c:	10170783          	lb	a5,257(a4) # 80140101 <_DATA_LMA_START+0x6013ba89>
     630:	0ff7f793          	andi	a5,a5,255
     634:	0107e793          	ori	a5,a5,16
     638:	10f700a3          	sb	a5,257(a4)
     63c:	0001                	c.nop
     63e:	0001                	c.nop
     640:	0001                	c.nop
     642:	0001                	c.nop
     644:	0001                	c.nop
     646:	5422                	c.lwsp	s0,40(sp)
     648:	0404c503          	lbu	a0,64(s1)
     64c:	50b2                	c.lwsp	ra,44(sp)
     64e:	5492                	c.lwsp	s1,36(sp)
     650:	5902                	c.lwsp	s2,32(sp)
     652:	4a62                	c.lwsp	s4,24(sp)
     654:	4ad2                	c.lwsp	s5,20(sp)
     656:	4b42                	c.lwsp	s6,16(sp)
     658:	4bb2                	c.lwsp	s7,12(sp)
     65a:	85ce                	c.mv	a1,s3
     65c:	49f2                	c.lwsp	s3,28(sp)
     65e:	6145                	c.addi16sp	sp,48
     660:	dd5ff06f          	j	434 <plic_exit_critical_sec>
     664:	855e                	c.mv	a0,s7
     666:	3ef9                	c.jal	244 <flash_send_addr>
     668:	f05ff06f          	j	56c <flash_mspi_read_ram+0x80>

0000066c <flash_mspi_read_ram.constprop.7>:
     66c:	1101                	c.addi	sp,-32
     66e:	c64e                	c.swsp	s3,12(sp)
     670:	000009b7          	lui	s3,0x0
     674:	15898993          	addi	s3,s3,344 # 158 <_AES_VMA_END>
     678:	cc22                	c.swsp	s0,24(sp)
     67a:	c256                	c.swsp	s5,4(sp)
     67c:	842e                	c.mv	s0,a1
     67e:	8aaa                	c.mv	s5,a0
     680:	0419c583          	lbu	a1,65(s3)
     684:	0409c503          	lbu	a0,64(s3)
     688:	c84a                	c.swsp	s2,16(sp)
     68a:	c452                	c.swsp	s4,8(sp)
     68c:	ce06                	c.swsp	ra,28(sp)
     68e:	ca26                	c.swsp	s1,20(sp)
     690:	8932                	c.mv	s2,a2
     692:	3bed                	c.jal	48c <plic_enter_critical_sec>
     694:	80140737          	lui	a4,0x80140
     698:	00a00a33          	add	s4,zero,a0
     69c:	10270783          	lb	a5,258(a4) # 80140102 <_DATA_LMA_START+0x6013ba8a>
     6a0:	fe07fe5b          	bbs	a5,0,69c <flash_mspi_read_ram.constprop.7+0x30>
     6a4:	10170783          	lb	a5,257(a4)
     6a8:	801404b7          	lui	s1,0x80140
     6ac:	0ff7f793          	andi	a5,a5,255
     6b0:	0107e793          	ori	a5,a5,16
     6b4:	10f700a3          	sb	a5,257(a4)
     6b8:	32848783          	lb	a5,808(s1) # 80140328 <_DATA_LMA_START+0x6013bcb0>
     6bc:	be37fe5b          	bbc	a5,3,6b8 <flash_mspi_read_ram.constprop.7+0x4c>
     6c0:	10148783          	lb	a5,257(s1)
     6c4:	03b00513          	li	a0,59
     6c8:	0fd7f793          	andi	a5,a5,253
     6cc:	10f480a3          	sb	a5,257(s1)
     6d0:	10148783          	lb	a5,257(s1)
     6d4:	0f37f793          	andi	a5,a5,243
     6d8:	10f480a3          	sb	a5,257(s1)
     6dc:	badff0ef          	jal	ra,288 <flash_send_cmd>
     6e0:	01500533          	add	a0,zero,s5
     6e4:	b61ff0ef          	jal	ra,244 <flash_send_addr>
     6e8:	80140737          	lui	a4,0x80140
     6ec:	10048023          	sb	zero,256(s1)
     6f0:	10270783          	lb	a5,258(a4) # 80140102 <_DATA_LMA_START+0x6013ba8a>
     6f4:	fe07fe5b          	bbs	a5,0,6f0 <flash_mspi_read_ram.constprop.7+0x84>
     6f8:	10170783          	lb	a5,257(a4)
     6fc:	801406b7          	lui	a3,0x80140
     700:	0f37f793          	andi	a5,a5,243
     704:	0047e793          	ori	a5,a5,4
     708:	10f700a3          	sb	a5,257(a4)
     70c:	10170783          	lb	a5,257(a4)
     710:	0ff7f793          	andi	a5,a5,255
     714:	0027e793          	ori	a5,a5,2
     718:	10f700a3          	sb	a5,257(a4)
     71c:	10070023          	sb	zero,256(a4)
     720:	10268783          	lb	a5,258(a3) # 80140102 <_DATA_LMA_START+0x6013ba8a>
     724:	fe07fe5b          	bbs	a5,0,720 <flash_mspi_read_ram.constprop.7+0xb4>
     728:	10168783          	lb	a5,257(a3)
     72c:	80140737          	lui	a4,0x80140
     730:	0ff7f793          	andi	a5,a5,255
     734:	0017e793          	ori	a5,a5,1
     738:	10f680a3          	sb	a5,257(a3)
     73c:	10270783          	lb	a5,258(a4) # 80140102 <_DATA_LMA_START+0x6013ba8a>
     740:	fe07fe5b          	bbs	a5,0,73c <flash_mspi_read_ram.constprop.7+0xd0>
     744:	02090263          	beqz	s2,768 <flash_mspi_read_ram.constprop.7+0xfc>
     748:	01240633          	add	a2,s0,s2
     74c:	80140737          	lui	a4,0x80140
     750:	10070783          	lb	a5,256(a4) # 80140100 <_DATA_LMA_START+0x6013ba88>
     754:	00140413          	addi	s0,s0,1
     758:	fef40fa3          	sb	a5,-1(s0)
     75c:	10270783          	lb	a5,258(a4)
     760:	fe07fe5b          	bbs	a5,0,75c <flash_mspi_read_ram.constprop.7+0xf0>
     764:	fec416e3          	bne	s0,a2,750 <flash_mspi_read_ram.constprop.7+0xe4>
     768:	801407b7          	lui	a5,0x80140
     76c:	10178703          	lb	a4,257(a5) # 80140101 <_DATA_LMA_START+0x6013ba89>
     770:	0fe77713          	andi	a4,a4,254
     774:	10e780a3          	sb	a4,257(a5)
     778:	10178703          	lb	a4,257(a5)
     77c:	0f377713          	andi	a4,a4,243
     780:	10e780a3          	sb	a4,257(a5)
     784:	10178703          	lb	a4,257(a5)
     788:	0ff77713          	andi	a4,a4,255
     78c:	01076713          	ori	a4,a4,16
     790:	10e780a3          	sb	a4,257(a5)
     794:	0001                	c.nop
     796:	0001                	c.nop
     798:	0001                	c.nop
     79a:	0001                	c.nop
     79c:	0001                	c.nop
     79e:	4462                	c.lwsp	s0,24(sp)
     7a0:	0409c503          	lbu	a0,64(s3)
     7a4:	40f2                	c.lwsp	ra,28(sp)
     7a6:	44d2                	c.lwsp	s1,20(sp)
     7a8:	4942                	c.lwsp	s2,16(sp)
     7aa:	49b2                	c.lwsp	s3,12(sp)
     7ac:	4a92                	c.lwsp	s5,4(sp)
     7ae:	85d2                	c.mv	a1,s4
     7b0:	4a22                	c.lwsp	s4,8(sp)
     7b2:	6105                	c.addi16sp	sp,32
     7b4:	c81ff06f          	j	434 <plic_exit_critical_sec>

000007b8 <analog_write_reg8>:
     7b8:	30002673          	csrr	a2,mstatus
     7bc:	8a21                	c.andi	a2,8
     7be:	c609                	c.beqz	a2,7c8 <analog_write_reg8+0x10>
     7c0:	300477f3          	csrrci	a5,mstatus,8
     7c4:	0ff0000f          	fence
     7c8:	80140737          	lui	a4,0x80140
     7cc:	18a70023          	sb	a0,384(a4) # 80140180 <_DATA_LMA_START+0x6013bb08>
     7d0:	18b70223          	sb	a1,388(a4)
     7d4:	06000693          	li	a3,96
     7d8:	801407b7          	lui	a5,0x80140
     7dc:	18d70123          	sb	a3,386(a4)
     7e0:	18278703          	lb	a4,386(a5) # 80140182 <_DATA_LMA_START+0x6013bb0a>
     7e4:	fe777e5b          	bbs	a4,7,7e0 <analog_write_reg8+0x28>
     7e8:	18078123          	sb	zero,386(a5)
     7ec:	00060663          	beqz	a2,7f8 <analog_write_reg8+0x40>
     7f0:	30062673          	csrrs	a2,mstatus,a2
     7f4:	0ff0000f          	fence
     7f8:	00008067          	ret

000007fc <analog_read_reg8>:
     7fc:	300026f3          	csrr	a3,mstatus
     800:	8aa1                	c.andi	a3,8
     802:	c689                	c.beqz	a3,80c <analog_read_reg8+0x10>
     804:	300477f3          	csrrci	a5,mstatus,8
     808:	0ff0000f          	fence
     80c:	801407b7          	lui	a5,0x80140
     810:	18a78023          	sb	a0,384(a5) # 80140180 <_DATA_LMA_START+0x6013bb08>
     814:	00100713          	li	a4,1
     818:	18e781a3          	sb	a4,387(a5)
     81c:	04000613          	li	a2,64
     820:	80140737          	lui	a4,0x80140
     824:	18c78123          	sb	a2,386(a5)
     828:	18270783          	lb	a5,386(a4) # 80140182 <_DATA_LMA_START+0x6013bb0a>
     82c:	fe77fe5b          	bbs	a5,7,828 <analog_read_reg8+0x2c>
     830:	18470503          	lb	a0,388(a4)
     834:	0ff57513          	andi	a0,a0,255
     838:	00068663          	beqz	a3,844 <analog_read_reg8+0x48>
     83c:	3006a6f3          	csrrs	a3,mstatus,a3
     840:	0ff0000f          	fence
     844:	00008067          	ret

00000848 <clock_init_ram.constprop.11>:
     848:	1141                	c.addi	sp,-16
     84a:	80140737          	lui	a4,0x80140
     84e:	c606                	c.swsp	ra,12(sp)
     850:	c422                	c.swsp	s0,8(sp)
     852:	c226                	c.swsp	s1,4(sp)
     854:	10270783          	lb	a5,258(a4) # 80140102 <_DATA_LMA_START+0x6013ba8a>
     858:	fe07fe5b          	bbs	a5,0,854 <clock_init_ram.constprop.11+0xc>
     85c:	10170783          	lb	a5,257(a4)
     860:	801404b7          	lui	s1,0x80140
     864:	0ff7f793          	andi	a5,a5,255
     868:	0107e793          	ori	a5,a5,16
     86c:	10f700a3          	sb	a5,257(a4)
     870:	32848783          	lb	a5,808(s1) # 80140328 <_DATA_LMA_START+0x6013bcb0>
     874:	be37fe5b          	bbc	a5,3,870 <clock_init_ram.constprop.11+0x28>
     878:	1e848783          	lb	a5,488(s1)
     87c:	08000513          	li	a0,128
     880:	8bbd                	c.andi	a5,15
     882:	1ef48423          	sb	a5,488(s1)
     886:	3f9d                	c.jal	7fc <analog_read_reg8>
     888:	0e057593          	andi	a1,a0,224
     88c:	0105e593          	ori	a1,a1,16
     890:	08000513          	li	a0,128
     894:	f25ff0ef          	jal	ra,7b8 <analog_write_reg8>
     898:	00900513          	li	a0,9
     89c:	f61ff0ef          	jal	ra,7fc <analog_read_reg8>
     8a0:	0f357593          	andi	a1,a0,243
     8a4:	0085e593          	ori	a1,a1,8
     8a8:	4525                	c.li	a0,9
     8aa:	3739                	c.jal	7b8 <analog_write_reg8>
     8ac:	0c000793          	li	a5,192
     8b0:	17d2940b          	addigp	s0,39292 # 8a17c <sys_clk>
     8b4:	00f41023          	sh	a5,0(s0)
     8b8:	08100513          	li	a0,129
     8bc:	4791                	c.li	a5,4
     8be:	1ef48da3          	sb	a5,507(s1)
     8c2:	3f2d                	c.jal	7fc <analog_read_reg8>
     8c4:	04056593          	ori	a1,a0,64
     8c8:	0ff5f593          	andi	a1,a1,255
     8cc:	08100513          	li	a0,129
     8d0:	ee9ff0ef          	jal	ra,7b8 <analog_write_reg8>
     8d4:	08800513          	li	a0,136
     8d8:	f25ff0ef          	jal	ra,7fc <analog_read_reg8>
     8dc:	be557c5b          	bbc	a0,5,8d4 <clock_init_ram.constprop.11+0x8c>
     8e0:	08100513          	li	a0,129
     8e4:	f19ff0ef          	jal	ra,7fc <analog_read_reg8>
     8e8:	0bf57593          	andi	a1,a0,191
     8ec:	08100513          	li	a0,129
     8f0:	ec9ff0ef          	jal	ra,7b8 <analog_write_reg8>
     8f4:	801407b7          	lui	a5,0x80140
     8f8:	1e978703          	lb	a4,489(a5) # 801401e9 <_DATA_LMA_START+0x6013bb71>
     8fc:	8b3d                	c.andi	a4,15
     8fe:	04076713          	ori	a4,a4,64
     902:	1ee784a3          	sb	a4,489(a5)
     906:	1e878703          	lb	a4,488(a5)
     90a:	f8076713          	ori	a4,a4,-128
     90e:	0ff77713          	andi	a4,a4,255
     912:	1ee78423          	sb	a4,488(a5)
     916:	1e878703          	lb	a4,488(a5)
     91a:	f8076713          	ori	a4,a4,-128
     91e:	0ff77713          	andi	a4,a4,255
     922:	1ee78423          	sb	a4,488(a5)
     926:	1d878703          	lb	a4,472(a5)
     92a:	00045683          	lhu	a3,0(s0)
     92e:	0fb77713          	andi	a4,a4,251
     932:	1ce78c23          	sb	a4,472(a5)
     936:	1d878703          	lb	a4,472(a5)
     93a:	8689                	c.srai	a3,0x2
     93c:	00d402a3          	sb	a3,5(s0)
     940:	0fc77713          	andi	a4,a4,252
     944:	1ce78c23          	sb	a4,472(a5)
     948:	1e878703          	lb	a4,488(a5)
     94c:	0f077713          	andi	a4,a4,240
     950:	00876713          	ori	a4,a4,8
     954:	1ee78423          	sb	a4,488(a5)
     958:	1e878703          	lb	a4,488(a5)
     95c:	00045683          	lhu	a3,0(s0)
     960:	08f77713          	andi	a4,a4,143
     964:	868d                	c.srai	a3,0x3
     966:	00d40123          	sb	a3,2(s0)
     96a:	02076713          	ori	a4,a4,32
     96e:	1ee78423          	sb	a4,488(a5)
     972:	0ff6f693          	andi	a3,a3,255
     976:	00d401a3          	sb	a3,3(s0)
     97a:	00d40223          	sb	a3,4(s0)
     97e:	40b2                	c.lwsp	ra,12(sp)
     980:	4422                	c.lwsp	s0,8(sp)
     982:	4492                	c.lwsp	s1,4(sp)
     984:	0141                	c.addi	sp,16
     986:	8082                	c.jr	ra

00000988 <pm_wait_bbpll_done>:
     988:	1101                	c.addi	sp,-32
     98a:	08100513          	li	a0,129
     98e:	cc22                	c.swsp	s0,24(sp)
     990:	ca26                	c.swsp	s1,20(sp)
     992:	c84a                	c.swsp	s2,16(sp)
     994:	ce06                	c.swsp	ra,28(sp)
     996:	359d                	c.jal	7fc <analog_read_reg8>
     998:	04056593          	ori	a1,a0,64
     99c:	892a                	c.mv	s2,a0
     99e:	0ff5f593          	andi	a1,a1,255
     9a2:	08100513          	li	a0,129
     9a6:	0bf97913          	andi	s2,s2,191
     9aa:	4481                	c.li	s1,0
     9ac:	4475                	c.li	s0,29
     9ae:	3529                	c.jal	7b8 <analog_write_reg8>
     9b0:	000107a3          	sb	zero,15(sp)
     9b4:	00f10783          	lb	a5,15(sp)
     9b8:	0ff7f793          	andi	a5,a5,255
     9bc:	02f46063          	bltu	s0,a5,9dc <pm_wait_bbpll_done+0x54>
     9c0:	0001                	c.nop
     9c2:	00f10783          	lb	a5,15(sp)
     9c6:	0785                	c.addi	a5,1
     9c8:	0ff7f793          	andi	a5,a5,255
     9cc:	00f107a3          	sb	a5,15(sp)
     9d0:	00f10783          	lb	a5,15(sp)
     9d4:	0ff7f793          	andi	a5,a5,255
     9d8:	fef474e3          	bgeu	s0,a5,9c0 <pm_wait_bbpll_done+0x38>
     9dc:	08800513          	li	a0,136
     9e0:	e1dff0ef          	jal	ra,7fc <analog_read_reg8>
     9e4:	4255765b          	bbs	a0,5,a10 <pm_wait_bbpll_done+0x88>
     9e8:	cc95                	c.beqz	s1,a24 <pm_wait_bbpll_done+0x9c>
     9ea:	0414d35b          	beqc	s1,1,a30 <pm_wait_bbpll_done+0xa8>
     9ee:	85ca                	c.mv	a1,s2
     9f0:	08100513          	li	a0,129
     9f4:	dc5ff0ef          	jal	ra,7b8 <analog_write_reg8>
     9f8:	0024d65b          	beqc	s1,2,a04 <pm_wait_bbpll_done+0x7c>
     9fc:	0485                	c.addi	s1,1
     9fe:	0ff4f493          	andi	s1,s1,255
     a02:	b77d                	c.j	9b0 <pm_wait_bbpll_done+0x28>
     a04:	40f2                	c.lwsp	ra,28(sp)
     a06:	4462                	c.lwsp	s0,24(sp)
     a08:	44d2                	c.lwsp	s1,20(sp)
     a0a:	4942                	c.lwsp	s2,16(sp)
     a0c:	6105                	c.addi16sp	sp,32
     a0e:	8082                	c.jr	ra
     a10:	4462                	c.lwsp	s0,24(sp)
     a12:	40f2                	c.lwsp	ra,28(sp)
     a14:	44d2                	c.lwsp	s1,20(sp)
     a16:	85ca                	c.mv	a1,s2
     a18:	4942                	c.lwsp	s2,16(sp)
     a1a:	08100513          	li	a0,129
     a1e:	6105                	c.addi16sp	sp,32
     a20:	d99ff06f          	j	7b8 <analog_write_reg8>
     a24:	04600593          	li	a1,70
     a28:	4505                	c.li	a0,1
     a2a:	3379                	c.jal	7b8 <analog_write_reg8>
     a2c:	fd1ff06f          	j	9fc <pm_wait_bbpll_done+0x74>
     a30:	04300593          	li	a1,67
     a34:	4505                	c.li	a0,1
     a36:	3349                	c.jal	7b8 <analog_write_reg8>
     a38:	fc5ff06f          	j	9fc <pm_wait_bbpll_done+0x74>

00000a3c <pm_sleep_start>:
     a3c:	1101                	c.addi	sp,-32
     a3e:	19d2a72b          	lwgp	a4,39324 # 8a19c <g_chip_version>
     a42:	000006b7          	lui	a3,0x0
     a46:	ce06                	c.swsp	ra,28(sp)
     a48:	cc22                	c.swsp	s0,24(sp)
     a4a:	ca26                	c.swsp	s1,20(sp)
     a4c:	0ff00793          	li	a5,255
     a50:	19a6c583          	lbu	a1,410(a3) # 19a <g_pm_suspend_power_cfg>
     a54:	00f71a63          	bne	a4,a5,a68 <pm_sleep_start+0x2c>
     a58:	0fe5f593          	andi	a1,a1,254
     a5c:	07d00513          	li	a0,125
     a60:	d59ff0ef          	jal	ra,7b8 <analog_write_reg8>
     a64:	00c0006f          	j	a70 <pm_sleep_start+0x34>
     a68:	07d00513          	li	a0,125
     a6c:	d4dff0ef          	jal	ra,7b8 <analog_write_reg8>
     a70:	801406b7          	lui	a3,0x80140
     a74:	10268783          	lb	a5,258(a3) # 80140102 <_DATA_LMA_START+0x6013ba8a>
     a78:	fe07fe5b          	bbs	a5,0,a74 <pm_sleep_start+0x38>
     a7c:	10168703          	lb	a4,257(a3)
     a80:	801407b7          	lui	a5,0x80140
     a84:	0ff77713          	andi	a4,a4,255
     a88:	01076713          	ori	a4,a4,16
     a8c:	10e680a3          	sb	a4,257(a3)
     a90:	32878703          	lb	a4,808(a5) # 80140328 <_DATA_LMA_START+0x6013bcb0>
     a94:	be377e5b          	bbc	a4,3,a90 <pm_sleep_start+0x54>
     a98:	10178703          	lb	a4,257(a5)
     a9c:	80140437          	lui	s0,0x80140
     aa0:	0fd77713          	andi	a4,a4,253
     aa4:	10e780a3          	sb	a4,257(a5)
     aa8:	10178703          	lb	a4,257(a5)
     aac:	0ef77713          	andi	a4,a4,239
     ab0:	10e780a3          	sb	a4,257(a5)
     ab4:	fb900713          	li	a4,-71
     ab8:	10e78023          	sb	a4,256(a5)
     abc:	10240783          	lb	a5,258(s0) # 80140102 <_DATA_LMA_START+0x6013ba8a>
     ac0:	fe07fe5b          	bbs	a5,0,abc <pm_sleep_start+0x80>
     ac4:	10140783          	lb	a5,257(s0)
     ac8:	452d                	c.li	a0,11
     aca:	0ff7f793          	andi	a5,a5,255
     ace:	0107e793          	ori	a5,a5,16
     ad2:	10f400a3          	sb	a5,257(s0)
     ad6:	320404a3          	sb	zero,809(s0)
     ada:	330d                	c.jal	7fc <analog_read_reg8>
     adc:	0fc57593          	andi	a1,a0,252
     ae0:	452d                	c.li	a0,11
     ae2:	39d9                	c.jal	7b8 <analog_write_reg8>
     ae4:	08100513          	li	a0,129
     ae8:	d15ff0ef          	jal	ra,7fc <analog_read_reg8>
     aec:	f8056593          	ori	a1,a0,-128
     af0:	0ff5f593          	andi	a1,a1,255
     af4:	08100513          	li	a0,129
     af8:	cc1ff0ef          	jal	ra,7b8 <analog_write_reg8>
     afc:	f8000793          	li	a5,-128
     b00:	1ef407a3          	sb	a5,495(s0)
     b04:	03f00493          	li	s1,63
     b08:	00012423          	sw	zero,8(sp)
     b0c:	47a2                	c.lwsp	a5,8(sp)
     b0e:	00f4e763          	bltu	s1,a5,b1c <pm_sleep_start+0xe0>
     b12:	0001                	c.nop
     b14:	47a2                	c.lwsp	a5,8(sp)
     b16:	0785                	c.addi	a5,1
     b18:	c43e                	c.swsp	a5,8(sp)
     b1a:	bfcd                	c.j	b0c <pm_sleep_start+0xd0>
     b1c:	08100513          	li	a0,129
     b20:	cddff0ef          	jal	ra,7fc <analog_read_reg8>
     b24:	07f57593          	andi	a1,a0,127
     b28:	08100513          	li	a0,129
     b2c:	c8dff0ef          	jal	ra,7b8 <analog_write_reg8>
     b30:	00b00513          	li	a0,11
     b34:	cc9ff0ef          	jal	ra,7fc <analog_read_reg8>
     b38:	00356593          	ori	a1,a0,3
     b3c:	0ff5f593          	andi	a1,a1,255
     b40:	452d                	c.li	a0,11
     b42:	399d                	c.jal	7b8 <analog_write_reg8>
     b44:	08000593          	li	a1,128
     b48:	07d00513          	li	a0,125
     b4c:	c6dff0ef          	jal	ra,7b8 <analog_write_reg8>
     b50:	801407b7          	lui	a5,0x80140
     b54:	329784a3          	sb	s1,809(a5) # 80140329 <_DATA_LMA_START+0x6013bcb1>
     b58:	10178683          	lb	a3,257(a5)
     b5c:	80140737          	lui	a4,0x80140
     b60:	0ef6f693          	andi	a3,a3,239
     b64:	10d780a3          	sb	a3,257(a5)
     b68:	fab00693          	li	a3,-85
     b6c:	10d78023          	sb	a3,256(a5)
     b70:	10270783          	lb	a5,258(a4) # 80140102 <_DATA_LMA_START+0x6013ba8a>
     b74:	fe07fe5b          	bbs	a5,0,b70 <pm_sleep_start+0x134>
     b78:	10170783          	lb	a5,257(a4)
     b7c:	12b00693          	li	a3,299
     b80:	0ff7f793          	andi	a5,a5,255
     b84:	0107e793          	ori	a5,a5,16
     b88:	10f700a3          	sb	a5,257(a4)
     b8c:	00012623          	sw	zero,12(sp)
     b90:	47b2                	c.lwsp	a5,12(sp)
     b92:	00f6e763          	bltu	a3,a5,ba0 <pm_sleep_start+0x164>
     b96:	0001                	c.nop
     b98:	47b2                	c.lwsp	a5,12(sp)
     b9a:	0785                	c.addi	a5,1
     b9c:	c63e                	c.swsp	a5,12(sp)
     b9e:	bfcd                	c.j	b90 <pm_sleep_start+0x154>
     ba0:	08800513          	li	a0,136
     ba4:	c59ff0ef          	jal	ra,7fc <analog_read_reg8>
     ba8:	be757c5b          	bbc	a0,7,ba0 <pm_sleep_start+0x164>
     bac:	08800513          	li	a0,136
     bb0:	c4dff0ef          	jal	ra,7fc <analog_read_reg8>
     bb4:	be757c5b          	bbc	a0,7,bac <pm_sleep_start+0x170>
     bb8:	08800513          	li	a0,136
     bbc:	c41ff0ef          	jal	ra,7fc <analog_read_reg8>
     bc0:	be757c5b          	bbc	a0,7,bb8 <pm_sleep_start+0x17c>
     bc4:	4462                	c.lwsp	s0,24(sp)
     bc6:	40f2                	c.lwsp	ra,28(sp)
     bc8:	44d2                	c.lwsp	s1,20(sp)
     bca:	6105                	c.addi16sp	sp,32
     bcc:	dbdff06f          	j	988 <pm_wait_bbpll_done>

00000bd0 <pm_sleep_wakeup_ram.constprop.3>:
     bd0:	1101                	c.addi	sp,-32
     bd2:	c452                	c.swsp	s4,8(sp)
     bd4:	8a2a                	c.mv	s4,a0
     bd6:	ce06                	c.swsp	ra,28(sp)
     bd8:	cc22                	c.swsp	s0,24(sp)
     bda:	ca26                	c.swsp	s1,20(sp)
     bdc:	c84a                	c.swsp	s2,16(sp)
     bde:	c64e                	c.swsp	s3,12(sp)
     be0:	c256                	c.swsp	s5,4(sp)
     be2:	c05a                	c.swsp	s6,0(sp)
     be4:	300029f3          	csrr	s3,mstatus
     be8:	0089f993          	andi	s3,s3,8
     bec:	00098663          	beqz	s3,bf8 <pm_sleep_wakeup_ram.constprop.3+0x28>
     bf0:	300477f3          	csrrci	a5,mstatus,8
     bf4:	0ff0000f          	fence
     bf8:	801407b7          	lui	a5,0x80140
     bfc:	2147a683          	lw	a3,532(a5) # 80140214 <_DATA_LMA_START+0x6013bb9c>
     c00:	def5                	c.beqz	a3,bfc <pm_sleep_wakeup_ram.constprop.3+0x2c>
     c02:	00000437          	lui	s0,0x0
     c06:	15840693          	addi	a3,s0,344 # 158 <_AES_VMA_END>
     c0a:	2147a783          	lw	a5,532(a5)
     c0e:	5298                	c.lw	a4,32(a3)
     c10:	da9c                	c.sw	a5,48(a3)
     c12:	15840413          	addi	s0,s0,344
     c16:	0792                	c.slli	a5,0x4
     c18:	cb11                	c.beqz	a4,c2c <pm_sleep_wakeup_ram.constprop.3+0x5c>
     c1a:	03444603          	lbu	a2,52(s0)
     c1e:	4691                	c.li	a3,4
     c20:	8f99                	c.sub	a5,a4
     c22:	8e91                	c.sub	a3,a2
     c24:	40d7d7b3          	sra	a5,a5,a3
     c28:	00e787b3          	add	a5,a5,a4
     c2c:	d01c                	c.sw	a5,32(s0)
     c2e:	5004                	c.lw	s1,32(s0)
     c30:	485c                	c.lw	a5,20(s0)
     c32:	8491                	c.srai	s1,0x4
     c34:	02f487b3          	mul	a5,s1,a5
     c38:	80140937          	lui	s2,0x80140
     c3c:	20092a83          	lw	s5,512(s2) # 80140200 <_DATA_LMA_START+0x6013bb88>
     c40:	e0000737          	lui	a4,0xe0000
     c44:	415a0ab3          	sub	s5,s4,s5
     c48:	87c9                	c.srai	a5,0x12
     c4a:	94be                	c.add	s1,a5
     c4c:	0486                	c.slli	s1,0x1
     c4e:	dc04                	c.sw	s1,56(s0)
     c50:	03577063          	bgeu	a4,s5,c70 <pm_sleep_wakeup_ram.constprop.3+0xa0>
     c54:	00098663          	beqz	s3,c60 <pm_sleep_wakeup_ram.constprop.3+0x90>
     c58:	3009a9f3          	csrrs	s3,mstatus,s3
     c5c:	0ff0000f          	fence
     c60:	06400513          	li	a0,100
     c64:	b99ff0ef          	jal	ra,7fc <analog_read_reg8>
     c68:	01f57513          	andi	a0,a0,31
     c6c:	2580006f          	j	ec4 <pm_sleep_wakeup_ram.constprop.3+0x2f4>
     c70:	04a41783          	lh	a5,74(s0)
     c74:	1137a7db          	bfoz	a5,a5,4,19
     c78:	02fafe63          	bgeu	s5,a5,cb4 <pm_sleep_wakeup_ram.constprop.3+0xe4>
     c7c:	45fd                	c.li	a1,31
     c7e:	06400513          	li	a0,100
     c82:	801404b7          	lui	s1,0x80140
     c86:	20092403          	lw	s0,512(s2)
     c8a:	363d                	c.jal	7b8 <analog_write_reg8>
     c8c:	06400513          	li	a0,100
     c90:	b6dff0ef          	jal	ra,7fc <analog_read_reg8>
     c94:	2004a783          	lw	a5,512(s1) # 80140200 <_DATA_LMA_START+0x6013bb88>
     c98:	897d                	c.andi	a0,31
     c9a:	8f81                	c.sub	a5,s0
     c9c:	0157f463          	bgeu	a5,s5,ca4 <pm_sleep_wakeup_ram.constprop.3+0xd4>
     ca0:	fe0506e3          	beqz	a0,c8c <pm_sleep_wakeup_ram.constprop.3+0xbc>
     ca4:	22098063          	beqz	s3,ec4 <pm_sleep_wakeup_ram.constprop.3+0x2f4>
     ca8:	3009a9f3          	csrrs	s3,mstatus,s3
     cac:	0ff0000f          	fence
     cb0:	2140006f          	j	ec4 <pm_sleep_wakeup_ram.constprop.3+0x2f4>
     cb4:	1e890a83          	lb	s5,488(s2)
     cb8:	00faf793          	andi	a5,s5,15
     cbc:	1ef90423          	sb	a5,488(s2)
     cc0:	1d890b03          	lb	s6,472(s2)
     cc4:	0f8b7793          	andi	a5,s6,248
     cc8:	1cf90c23          	sb	a5,472(s2)
     ccc:	00100793          	li	a5,1
     cd0:	20f90c23          	sb	a5,536(s2)
     cd4:	20a90783          	lb	a5,522(s2)
     cd8:	0f77f793          	andi	a5,a5,247
     cdc:	20f90523          	sb	a5,522(s2)
     ce0:	e9cff0ef          	jal	ra,37c <clock_get_32k_tick>
     ce4:	20092703          	lw	a4,512(s2)
     ce8:	20b90783          	lb	a5,523(s2)
     cec:	5414                	c.lw	a3,40(s0)
     cee:	0ff7f793          	andi	a5,a5,255
     cf2:	0027e793          	ori	a5,a5,2
     cf6:	c468                	c.sw	a0,76(s0)
     cf8:	c418                	c.sw	a4,8(s0)
     cfa:	03444603          	lbu	a2,52(s0)
     cfe:	40d506b3          	sub	a3,a0,a3
     d02:	20f905a3          	sb	a5,523(s2)
     d06:	d454                	c.sw	a3,44(s0)
     d08:	e215                	c.bnez	a2,d2c <pm_sleep_wakeup_ram.constprop.3+0x15c>
     d0a:	445c                	c.lw	a5,12(s0)
     d0c:	c385                	c.beqz	a5,d2c <pm_sleep_wakeup_ram.constprop.3+0x15c>
     d0e:	05044783          	lbu	a5,80(s0)
     d12:	ef89                	c.bnez	a5,d2c <pm_sleep_wakeup_ram.constprop.3+0x15c>
     d14:	01042783          	lw	a5,16(s0)
     d18:	000276b7          	lui	a3,0x27
     d1c:	40f507b3          	sub	a5,a0,a5
     d20:	6c07a7db          	bfoz	a5,a5,27,0
     d24:	10068693          	addi	a3,a3,256 # 27100 <BIN_SIZE+0x188de>
     d28:	00f6f863          	bgeu	a3,a5,d38 <pm_sleep_wakeup_ram.constprop.3+0x168>
     d2c:	00176713          	ori	a4,a4,1
     d30:	02040a23          	sb	zero,52(s0)
     d34:	c808                	c.sw	a0,16(s0)
     d36:	c458                	c.sw	a4,12(s0)
     d38:	02000593          	li	a1,32
     d3c:	04b00513          	li	a0,75
     d40:	a79ff0ef          	jal	ra,7b8 <analog_write_reg8>
     d44:	45fd                	c.li	a1,31
     d46:	06400513          	li	a0,100
     d4a:	34bd                	c.jal	7b8 <analog_write_reg8>
     d4c:	03000593          	li	a1,48
     d50:	07e00513          	li	a0,126
     d54:	a65ff0ef          	jal	ra,7b8 <analog_write_reg8>
     d58:	0f900593          	li	a1,249
     d5c:	04d00513          	li	a0,77
     d60:	a59ff0ef          	jal	ra,7b8 <analog_write_reg8>
     d64:	4585                	c.li	a1,1
     d66:	07f00513          	li	a0,127
     d6a:	34b9                	c.jal	7b8 <analog_write_reg8>
     d6c:	04841783          	lh	a5,72(s0)
     d70:	0ee00593          	li	a1,238
     d74:	1137a7db          	bfoz	a5,a5,4,19
     d78:	04c00513          	li	a0,76
     d7c:	40fa0933          	sub	s2,s4,a5
     d80:	a39ff0ef          	jal	ra,7b8 <analog_write_reg8>
     d84:	05441583          	lh	a1,84(s0)
     d88:	04000513          	li	a0,64
     d8c:	0ff5f593          	andi	a1,a1,255
     d90:	a29ff0ef          	jal	ra,7b8 <analog_write_reg8>
     d94:	445c                	c.lw	a5,12(s0)
     d96:	07ff0737          	lui	a4,0x7ff0
     d9a:	40f907b3          	sub	a5,s2,a5
     d9e:	00f77763          	bgeu	a4,a5,dac <pm_sleep_wakeup_ram.constprop.3+0x1dc>
     da2:	4705                	c.li	a4,1
     da4:	00e40223          	sb	a4,4(s0)
     da8:	0080006f          	j	db0 <pm_sleep_wakeup_ram.constprop.3+0x1e0>
     dac:	00040223          	sb	zero,4(s0)
     db0:	00444683          	lbu	a3,4(s0)
     db4:	4808                	c.lw	a0,16(s0)
     db6:	5c18                	c.lw	a4,56(s0)
     db8:	c691                	c.beqz	a3,dc4 <pm_sleep_wakeup_ram.constprop.3+0x1f4>
     dba:	02e7d7b3          	divu	a5,a5,a4
     dbe:	0796                	c.slli	a5,0x5
     dc0:	953e                	c.add	a0,a5
     dc2:	a039                	c.j	dd0 <pm_sleep_wakeup_ram.constprop.3+0x200>
     dc4:	8085                	c.srli	s1,0x1
     dc6:	0796                	c.slli	a5,0x5
     dc8:	97a6                	c.add	a5,s1
     dca:	02e7d7b3          	divu	a5,a5,a4
     dce:	953e                	c.add	a0,a5
     dd0:	d00ff0ef          	jal	ra,2d0 <clock_set_32k_tick>
     dd4:	06400513          	li	a0,100
     dd8:	a25ff0ef          	jal	ra,7fc <analog_read_reg8>
     ddc:	01f57513          	andi	a0,a0,31
     de0:	e511                	c.bnez	a0,dec <pm_sleep_wakeup_ram.constprop.3+0x21c>
     de2:	39a9                	c.jal	a3c <pm_sleep_start>
     de4:	4585                	c.li	a1,1
     de6:	07f00513          	li	a0,127
     dea:	32f9                	c.jal	7b8 <analog_write_reg8>
     dec:	80140737          	lui	a4,0x80140
     df0:	02000793          	li	a5,32
     df4:	1ef707a3          	sb	a5,495(a4) # 801401ef <_DATA_LMA_START+0x6013bb77>
     df8:	00200793          	li	a5,2
     dfc:	20f70c23          	sb	a5,536(a4)
     e00:	20a70783          	lb	a5,522(a4)
     e04:	0ff7f793          	andi	a5,a5,255
     e08:	00c7e793          	ori	a5,a5,12
     e0c:	20f70523          	sb	a5,522(a4)
     e10:	d6cff0ef          	jal	ra,37c <clock_get_32k_tick>
     e14:	00444783          	lbu	a5,4(s0)
     e18:	cf81                	c.beqz	a5,e30 <pm_sleep_wakeup_ram.constprop.3+0x260>
     e1a:	481c                	c.lw	a5,16(s0)
     e1c:	5c14                	c.lw	a3,56(s0)
     e1e:	40f507b3          	sub	a5,a0,a5
     e22:	4458                	c.lw	a4,12(s0)
     e24:	0785                	c.addi	a5,1
     e26:	8395                	c.srli	a5,0x5
     e28:	c4d7977f          	maddr32	a4,a5,a3
     e2c:	c418                	c.sw	a4,8(s0)
     e2e:	a829                	c.j	e48 <pm_sleep_wakeup_ram.constprop.3+0x278>
     e30:	481c                	c.lw	a5,16(s0)
     e32:	5c18                	c.lw	a4,56(s0)
     e34:	40f507b3          	sub	a5,a0,a5
     e38:	0785                	c.addi	a5,1
     e3a:	02e787b3          	mul	a5,a5,a4
     e3e:	4458                	c.lw	a4,12(s0)
     e40:	8395                	c.srli	a5,0x5
     e42:	97ba                	c.add	a5,a4
     e44:	00f42423          	sw	a5,8(s0)
     e48:	481c                	c.lw	a5,16(s0)
     e4a:	4414                	c.lw	a3,8(s0)
     e4c:	40f507b3          	sub	a5,a0,a5
     e50:	0785                	c.addi	a5,1
     e52:	0505                	c.addi	a0,1
     e54:	d05c                	c.sw	a5,36(s0)
     e56:	0685                	c.addi	a3,1
     e58:	02a42423          	sw	a0,40(s0)
     e5c:	801407b7          	lui	a5,0x80140
     e60:	80140737          	lui	a4,0x80140
     e64:	20d7a023          	sw	a3,512(a5) # 80140200 <_DATA_LMA_START+0x6013bb88>
     e68:	20b70783          	lb	a5,523(a4) # 8014020b <_DATA_LMA_START+0x6013bb93>
     e6c:	be77fe5b          	bbc	a5,7,e68 <pm_sleep_wakeup_ram.constprop.3+0x298>
     e70:	20070c23          	sb	zero,536(a4)
     e74:	1d670c23          	sb	s6,472(a4)
     e78:	06400513          	li	a0,100
     e7c:	1f570423          	sb	s5,488(a4)
     e80:	97dff0ef          	jal	ra,7fc <analog_read_reg8>
     e84:	1a12970b          	addigp	a4,39328 # 8a1a0 <g_pm_status_info>
     e88:	00a700a3          	sb	a0,1(a4)
     e8c:	1a12978b          	addigp	a5,39328 # 8a1a0 <g_pm_status_info>
     e90:	00157c5b          	bbc	a0,1,ea8 <pm_sleep_wakeup_ram.constprop.3+0x2d8>
     e94:	80140637          	lui	a2,0x80140
     e98:	400006b7          	lui	a3,0x40000
     e9c:	20062703          	lw	a4,512(a2) # 80140200 <_DATA_LMA_START+0x6013bb88>
     ea0:	41470733          	sub	a4,a4,s4
     ea4:	fee6ece3          	bltu	a3,a4,e9c <pm_sleep_wakeup_ram.constprop.3+0x2cc>
     ea8:	00098663          	beqz	s3,eb4 <pm_sleep_wakeup_ram.constprop.3+0x2e4>
     eac:	3009a9f3          	csrrs	s3,mstatus,s3
     eb0:	0ff0000f          	fence
     eb4:	0017c783          	lbu	a5,1(a5)
     eb8:	10000513          	li	a0,256
     ebc:	c781                	c.beqz	a5,ec4 <pm_sleep_wakeup_ram.constprop.3+0x2f4>
     ebe:	40000537          	lui	a0,0x40000
     ec2:	8d5d                	c.or	a0,a5
     ec4:	40f2                	c.lwsp	ra,28(sp)
     ec6:	4462                	c.lwsp	s0,24(sp)
     ec8:	44d2                	c.lwsp	s1,20(sp)
     eca:	4942                	c.lwsp	s2,16(sp)
     ecc:	49b2                	c.lwsp	s3,12(sp)
     ece:	4a22                	c.lwsp	s4,8(sp)
     ed0:	4a92                	c.lwsp	s5,4(sp)
     ed2:	4b02                	c.lwsp	s6,0(sp)
     ed4:	6105                	c.addi16sp	sp,32
     ed6:	8082                	c.jr	ra

00000ed8 <trap_entry>:
     ed8:	1101                	c.addi	sp,-32
     eda:	ce2a                	c.swsp	a0,28(sp)
     edc:	cc2e                	c.swsp	a1,24(sp)
     ede:	ca32                	c.swsp	a2,20(sp)
     ee0:	c836                	c.swsp	a3,16(sp)
     ee2:	c63a                	c.swsp	a4,12(sp)
     ee4:	c43e                	c.swsp	a5,8(sp)
     ee6:	34202773          	csrr	a4,mcause
     eea:	000007b7          	lui	a5,0x0
     eee:	15878793          	addi	a5,a5,344 # 158 <_AES_VMA_END>
     ef2:	03c78683          	lb	a3,60(a5)
     ef6:	0ff6f693          	andi	a3,a3,255
     efa:	c2dd                	c.beqz	a3,fa0 <trap_entry+0xc8>
     efc:	34102673          	csrr	a2,mepc
     f00:	300025f3          	csrr	a1,mstatus
     f04:	7c4026f3          	csrr	a3,mxstatus
     f08:	02074a63          	bltz	a4,f3c <trap_entry+0x64>
     f0c:	34302773          	csrr	a4,mtval
     f10:	18e2ccab          	swgp	a4,39320 # 8a198 <exception_mtval>
     f14:	34102773          	csrr	a4,mepc
     f18:	18e2c8ab          	swgp	a4,39312 # 8a190 <exception_mepc>
     f1c:	30002773          	csrr	a4,mstatus
     f20:	18e2caab          	swgp	a4,39316 # 8a194 <exception_mstatus>
     f24:	34202773          	csrr	a4,mcause
     f28:	18e2c4ab          	swgp	a4,39304 # 8a188 <_DATA_VMA_END>
     f2c:	7c902773          	csrr	a4,mdcause
     f30:	18e2c6ab          	swgp	a4,39308 # 8a18c <exception_mdcause>
     f34:	0001                	c.nop
     f36:	0001                	c.nop
     f38:	ffdff06f          	j	f34 <trap_entry+0x5c>
     f3c:	7807275b          	bfoz	a4,a4,30,0
     f40:	0677545b          	beqc	a4,7,fa8 <trap_entry+0xd0>
     f44:	bc37645b          	bnec	a4,3,f0c <trap_entry+0x34>
     f48:	e6600737          	lui	a4,0xe6600
     f4c:	4358                	c.lw	a4,4(a4)
     f4e:	03c78703          	lb	a4,60(a5)
     f52:	0ff77713          	andi	a4,a4,255
     f56:	c319                	c.beqz	a4,f5c <trap_entry+0x84>
     f58:	30046773          	csrrsi	a4,mstatus,8
     f5c:	03c78703          	lb	a4,60(a5)
     f60:	0ff77713          	andi	a4,a4,255
     f64:	00070463          	beqz	a4,f6c <trap_entry+0x94>
     f68:	30047773          	csrrci	a4,mstatus,8
     f6c:	e6600737          	lui	a4,0xe6600
     f70:	4505                	c.li	a0,1
     f72:	c348                	c.sw	a0,4(a4)
     f74:	03c78783          	lb	a5,60(a5)
     f78:	0ff7f793          	andi	a5,a5,255
     f7c:	00078863          	beqz	a5,f8c <trap_entry+0xb4>
     f80:	30059073          	csrw	mstatus,a1
     f84:	34161073          	csrw	mepc,a2
     f88:	7c469073          	csrw	mxstatus,a3
     f8c:	4572                	c.lwsp	a0,28(sp)
     f8e:	45e2                	c.lwsp	a1,24(sp)
     f90:	4652                	c.lwsp	a2,20(sp)
     f92:	46c2                	c.lwsp	a3,16(sp)
     f94:	4732                	c.lwsp	a4,12(sp)
     f96:	47a2                	c.lwsp	a5,8(sp)
     f98:	02010113          	addi	sp,sp,32
     f9c:	30200073          	mret
     fa0:	4681                	c.li	a3,0
     fa2:	4581                	c.li	a1,0
     fa4:	4601                	c.li	a2,0
     fa6:	b78d                	c.j	f08 <trap_entry+0x30>
     fa8:	03c78703          	lb	a4,60(a5)
     fac:	0ff77713          	andi	a4,a4,255
     fb0:	00070863          	beqz	a4,fc0 <trap_entry+0xe8>
     fb4:	08000713          	li	a4,128
     fb8:	30473773          	csrrc	a4,mie,a4
     fbc:	30046773          	csrrsi	a4,mstatus,8
     fc0:	03c78703          	lb	a4,60(a5)
     fc4:	0ff77713          	andi	a4,a4,255
     fc8:	d755                	c.beqz	a4,f74 <trap_entry+0x9c>
     fca:	30047773          	csrrci	a4,mstatus,8
     fce:	08000713          	li	a4,128
     fd2:	30472773          	csrrs	a4,mie,a4
     fd6:	bf79                	c.j	f74 <trap_entry+0x9c>
     fd8:	0001                	c.nop
	...

00001000 <__vectors>:
    1000:	0ed8                	c.addi4spn	a4,sp,852
    1002:	0000                	unimp
    1004:	1c1c                	c.addi4spn	a5,sp,560
    1006:	0000                	unimp
    1008:	1c1c                	c.addi4spn	a5,sp,560
    100a:	0000                	unimp
    100c:	1c1c                	c.addi4spn	a5,sp,560
    100e:	0000                	unimp
    1010:	1c1c                	c.addi4spn	a5,sp,560
    1012:	0000                	unimp
    1014:	1c1c                	c.addi4spn	a5,sp,560
    1016:	0000                	unimp
    1018:	1c1c                	c.addi4spn	a5,sp,560
    101a:	0000                	unimp
    101c:	1c1c                	c.addi4spn	a5,sp,560
    101e:	0000                	unimp
    1020:	1c1c                	c.addi4spn	a5,sp,560
    1022:	0000                	unimp
    1024:	1c1c                	c.addi4spn	a5,sp,560
    1026:	0000                	unimp
    1028:	1c1c                	c.addi4spn	a5,sp,560
    102a:	0000                	unimp
    102c:	1c1c                	c.addi4spn	a5,sp,560
    102e:	0000                	unimp
    1030:	1c1c                	c.addi4spn	a5,sp,560
    1032:	0000                	unimp
    1034:	1c1c                	c.addi4spn	a5,sp,560
    1036:	0000                	unimp
    1038:	1c1c                	c.addi4spn	a5,sp,560
    103a:	0000                	unimp
    103c:	1c1c                	c.addi4spn	a5,sp,560
    103e:	0000                	unimp
    1040:	1c1c                	c.addi4spn	a5,sp,560
    1042:	0000                	unimp
    1044:	1c1c                	c.addi4spn	a5,sp,560
    1046:	0000                	unimp
    1048:	1c1c                	c.addi4spn	a5,sp,560
    104a:	0000                	unimp
    104c:	1c1c                	c.addi4spn	a5,sp,560
    104e:	0000                	unimp
    1050:	1c1c                	c.addi4spn	a5,sp,560
    1052:	0000                	unimp
    1054:	1c1c                	c.addi4spn	a5,sp,560
    1056:	0000                	unimp
    1058:	1c1c                	c.addi4spn	a5,sp,560
    105a:	0000                	unimp
    105c:	1c1c                	c.addi4spn	a5,sp,560
    105e:	0000                	unimp
    1060:	1c1c                	c.addi4spn	a5,sp,560
    1062:	0000                	unimp
    1064:	1c1c                	c.addi4spn	a5,sp,560
    1066:	0000                	unimp
    1068:	1c1c                	c.addi4spn	a5,sp,560
    106a:	0000                	unimp
    106c:	1c1c                	c.addi4spn	a5,sp,560
    106e:	0000                	unimp
    1070:	1c1c                	c.addi4spn	a5,sp,560
    1072:	0000                	unimp
    1074:	1c1c                	c.addi4spn	a5,sp,560
    1076:	0000                	unimp
    1078:	1c1c                	c.addi4spn	a5,sp,560
    107a:	0000                	unimp
    107c:	1c1c                	c.addi4spn	a5,sp,560
    107e:	0000                	unimp
    1080:	1c1c                	c.addi4spn	a5,sp,560
    1082:	0000                	unimp
    1084:	1c1c                	c.addi4spn	a5,sp,560
    1086:	0000                	unimp
    1088:	1c1c                	c.addi4spn	a5,sp,560
    108a:	0000                	unimp
    108c:	1c1c                	c.addi4spn	a5,sp,560
    108e:	0000                	unimp
    1090:	1c1c                	c.addi4spn	a5,sp,560
    1092:	0000                	unimp
    1094:	1c1c                	c.addi4spn	a5,sp,560
    1096:	0000                	unimp
    1098:	1c1c                	c.addi4spn	a5,sp,560
    109a:	0000                	unimp
    109c:	1c1c                	c.addi4spn	a5,sp,560
    109e:	0000                	unimp
    10a0:	1c1c                	c.addi4spn	a5,sp,560
    10a2:	0000                	unimp
    10a4:	1c1c                	c.addi4spn	a5,sp,560
    10a6:	0000                	unimp
    10a8:	1c1c                	c.addi4spn	a5,sp,560
    10aa:	0000                	unimp
    10ac:	1c1c                	c.addi4spn	a5,sp,560
    10ae:	0000                	unimp
    10b0:	1c1c                	c.addi4spn	a5,sp,560
    10b2:	0000                	unimp
    10b4:	1c1c                	c.addi4spn	a5,sp,560
    10b6:	0000                	unimp
    10b8:	1c1c                	c.addi4spn	a5,sp,560
    10ba:	0000                	unimp
    10bc:	1c1c                	c.addi4spn	a5,sp,560
    10be:	0000                	unimp
    10c0:	1c1c                	c.addi4spn	a5,sp,560
    10c2:	0000                	unimp
    10c4:	1c1c                	c.addi4spn	a5,sp,560
    10c6:	0000                	unimp
    10c8:	1c1c                	c.addi4spn	a5,sp,560
    10ca:	0000                	unimp
    10cc:	1c1c                	c.addi4spn	a5,sp,560
    10ce:	0000                	unimp
    10d0:	1c1c                	c.addi4spn	a5,sp,560
    10d2:	0000                	unimp
    10d4:	1c1c                	c.addi4spn	a5,sp,560
    10d6:	0000                	unimp
    10d8:	1c1c                	c.addi4spn	a5,sp,560
    10da:	0000                	unimp
    10dc:	1c1c                	c.addi4spn	a5,sp,560
    10de:	0000                	unimp
    10e0:	1c1c                	c.addi4spn	a5,sp,560
    10e2:	0000                	unimp
    10e4:	1c1c                	c.addi4spn	a5,sp,560
    10e6:	0000                	unimp
    10e8:	1c1c                	c.addi4spn	a5,sp,560
    10ea:	0000                	unimp
    10ec:	1c1c                	c.addi4spn	a5,sp,560
    10ee:	0000                	unimp
    10f0:	1c1c                	c.addi4spn	a5,sp,560
    10f2:	0000                	unimp
    10f4:	1c1c                	c.addi4spn	a5,sp,560
    10f6:	0000                	unimp
    10f8:	1c1c                	c.addi4spn	a5,sp,560
    10fa:	0000                	unimp
    10fc:	1c1c                	c.addi4spn	a5,sp,560
    10fe:	0000                	unimp
    1100:	0001                	c.nop
	...

00001104 <flash_read_uid.constprop.6>:
    1104:	1141                	c.addi	sp,-16
    1106:	c606                	c.swsp	ra,12(sp)
    1108:	872a                	c.mv	a4,a0
    110a:	7d047073          	csrci	mmisc_ctl,8
    110e:	47c1                	c.li	a5,16
    1110:	4691                	c.li	a3,4
    1112:	4601                	c.li	a2,0
    1114:	00000593          	li	a1,0
    1118:	04b00513          	li	a0,75
    111c:	bd0ff0ef          	jal	ra,4ec <flash_mspi_read_ram>
    1120:	7d046073          	csrsi	mmisc_ctl,8
    1124:	40b2                	c.lwsp	ra,12(sp)
    1126:	0141                	c.addi	sp,16
    1128:	00008067          	ret

0000112c <flash_read_mid>:
    112c:	1101                	c.addi	sp,-32
    112e:	ce06                	c.swsp	ra,28(sp)
    1130:	c602                	c.swsp	zero,12(sp)
    1132:	7d047073          	csrci	mmisc_ctl,8
    1136:	478d                	c.li	a5,3
    1138:	0078                	c.addi4spn	a4,sp,12
    113a:	4681                	c.li	a3,0
    113c:	4601                	c.li	a2,0
    113e:	4581                	c.li	a1,0
    1140:	09f00513          	li	a0,159
    1144:	ba8ff0ef          	jal	ra,4ec <flash_mspi_read_ram>
    1148:	7d046073          	csrsi	mmisc_ctl,8
    114c:	40f2                	c.lwsp	ra,28(sp)
    114e:	4532                	c.lwsp	a0,12(sp)
    1150:	6105                	c.addi16sp	sp,32
    1152:	8082                	c.jr	ra

00001154 <flash_read_mid_uid_with_check>:
    1154:	831f978b          	addigp	a5,-2000 # 80030 <cst_libm_sincosf+0x30>
    1158:	4798                	c.lw	a4,8(a5)
    115a:	4390                	c.lw	a2,0(a5)
    115c:	43d4                	c.lw	a3,4(a5)
    115e:	47dc                	c.lw	a5,12(a5)
    1160:	1101                	c.addi	sp,-32
    1162:	cc22                	c.swsp	s0,24(sp)
    1164:	ca26                	c.swsp	s1,20(sp)
    1166:	842a                	c.mv	s0,a0
    1168:	c43a                	c.swsp	a4,8(sp)
    116a:	c63e                	c.swsp	a5,12(sp)
    116c:	ce06                	c.swsp	ra,28(sp)
    116e:	84ae                	c.mv	s1,a1
    1170:	c032                	c.swsp	a2,0(sp)
    1172:	c236                	c.swsp	a3,4(sp)
    1174:	fb9ff0ef          	jal	ra,112c <flash_read_mid>
    1178:	77c1                	c.lui	a5,0xffff0
    117a:	17fd                	c.addi	a5,-1
    117c:	00146737          	lui	a4,0x146
    1180:	c008                	c.sw	a0,0(s0)
    1182:	8fe9                	c.and	a5,a0
    1184:	08570713          	addi	a4,a4,133 # 146085 <FLASH_SIZE+0x46085>
    1188:	02e78063          	beq	a5,a4,11a8 <flash_read_mid_uid_with_check+0x54>
    118c:	00166737          	lui	a4,0x166
    1190:	08570713          	addi	a4,a4,133 # 166085 <FLASH_SIZE+0x66085>
    1194:	4781                	c.li	a5,0
    1196:	00e50963          	beq	a0,a4,11a8 <flash_read_mid_uid_with_check+0x54>
    119a:	40f2                	c.lwsp	ra,28(sp)
    119c:	4462                	c.lwsp	s0,24(sp)
    119e:	44d2                	c.lwsp	s1,20(sp)
    11a0:	853e                	c.mv	a0,a5
    11a2:	6105                	c.addi16sp	sp,32
    11a4:	00008067          	ret
    11a8:	8526                	c.mv	a0,s1
    11aa:	3fa9                	c.jal	1104 <flash_read_uid.constprop.6>
    11ac:	0004c783          	lbu	a5,0(s1)
    11b0:	00014603          	lbu	a2,0(sp)
    11b4:	0014c683          	lbu	a3,1(s1)
    11b8:	00114703          	lbu	a4,1(sp)
    11bc:	8f91                	c.sub	a5,a2
    11be:	0017b793          	seqz	a5,a5
    11c2:	00e69363          	bne	a3,a4,11c8 <flash_read_mid_uid_with_check+0x74>
    11c6:	0785                	c.addi	a5,1
    11c8:	0024c683          	lbu	a3,2(s1)
    11cc:	00214703          	lbu	a4,2(sp)
    11d0:	00e69463          	bne	a3,a4,11d8 <flash_read_mid_uid_with_check+0x84>
    11d4:	00178793          	addi	a5,a5,1 # ffff0001 <_DATA_LMA_START+0xdffeb989>
    11d8:	0034c683          	lbu	a3,3(s1)
    11dc:	00314703          	lbu	a4,3(sp)
    11e0:	00e69463          	bne	a3,a4,11e8 <flash_read_mid_uid_with_check+0x94>
    11e4:	00178793          	addi	a5,a5,1
    11e8:	0044c683          	lbu	a3,4(s1)
    11ec:	00414703          	lbu	a4,4(sp)
    11f0:	00e69463          	bne	a3,a4,11f8 <flash_read_mid_uid_with_check+0xa4>
    11f4:	00178793          	addi	a5,a5,1
    11f8:	0054c683          	lbu	a3,5(s1)
    11fc:	00514703          	lbu	a4,5(sp)
    1200:	00e69463          	bne	a3,a4,1208 <flash_read_mid_uid_with_check+0xb4>
    1204:	00178793          	addi	a5,a5,1
    1208:	0064c683          	lbu	a3,6(s1)
    120c:	00614703          	lbu	a4,6(sp)
    1210:	00e69463          	bne	a3,a4,1218 <flash_read_mid_uid_with_check+0xc4>
    1214:	00178793          	addi	a5,a5,1
    1218:	0074c683          	lbu	a3,7(s1)
    121c:	00714703          	lbu	a4,7(sp)
    1220:	00e69463          	bne	a3,a4,1228 <flash_read_mid_uid_with_check+0xd4>
    1224:	00178793          	addi	a5,a5,1
    1228:	0084c683          	lbu	a3,8(s1)
    122c:	00814703          	lbu	a4,8(sp)
    1230:	00e69463          	bne	a3,a4,1238 <flash_read_mid_uid_with_check+0xe4>
    1234:	00178793          	addi	a5,a5,1
    1238:	0094c683          	lbu	a3,9(s1)
    123c:	00914703          	lbu	a4,9(sp)
    1240:	00e69463          	bne	a3,a4,1248 <flash_read_mid_uid_with_check+0xf4>
    1244:	00178793          	addi	a5,a5,1
    1248:	00a4c683          	lbu	a3,10(s1)
    124c:	00a14703          	lbu	a4,10(sp)
    1250:	00e69463          	bne	a3,a4,1258 <flash_read_mid_uid_with_check+0x104>
    1254:	00178793          	addi	a5,a5,1
    1258:	00b4c683          	lbu	a3,11(s1)
    125c:	00b14703          	lbu	a4,11(sp)
    1260:	00e69463          	bne	a3,a4,1268 <flash_read_mid_uid_with_check+0x114>
    1264:	00178793          	addi	a5,a5,1
    1268:	00c4c683          	lbu	a3,12(s1)
    126c:	00c14703          	lbu	a4,12(sp)
    1270:	00e69463          	bne	a3,a4,1278 <flash_read_mid_uid_with_check+0x124>
    1274:	00178793          	addi	a5,a5,1
    1278:	00d4c683          	lbu	a3,13(s1)
    127c:	00d14703          	lbu	a4,13(sp)
    1280:	00e69463          	bne	a3,a4,1288 <flash_read_mid_uid_with_check+0x134>
    1284:	00178793          	addi	a5,a5,1
    1288:	00e4c683          	lbu	a3,14(s1)
    128c:	00e14703          	lbu	a4,14(sp)
    1290:	00e69463          	bne	a3,a4,1298 <flash_read_mid_uid_with_check+0x144>
    1294:	00178793          	addi	a5,a5,1
    1298:	00f14683          	lbu	a3,15(sp)
    129c:	00f4c703          	lbu	a4,15(s1)
    12a0:	00e69463          	bne	a3,a4,12a8 <flash_read_mid_uid_with_check+0x154>
    12a4:	00178793          	addi	a5,a5,1
    12a8:	40f2                	c.lwsp	ra,28(sp)
    12aa:	4462                	c.lwsp	s0,24(sp)
    12ac:	17c1                	c.addi	a5,-16
    12ae:	00f037b3          	snez	a5,a5
    12b2:	44d2                	c.lwsp	s1,20(sp)
    12b4:	853e                	c.mv	a0,a5
    12b6:	6105                	c.addi16sp	sp,32
    12b8:	00008067          	ret

000012bc <flash_dread>:
    12bc:	1141                	c.addi	sp,-16
    12be:	c606                	c.swsp	ra,12(sp)
    12c0:	87b2                	c.mv	a5,a2
    12c2:	7d047073          	csrci	mmisc_ctl,8
    12c6:	862e                	c.mv	a2,a1
    12c8:	00f005b3          	add	a1,zero,a5
    12cc:	ba0ff0ef          	jal	ra,66c <flash_mspi_read_ram.constprop.7>
    12d0:	7d046073          	csrsi	mmisc_ctl,8
    12d4:	40b2                	c.lwsp	ra,12(sp)
    12d6:	0141                	c.addi	sp,16
    12d8:	00008067          	ret

000012dc <clock_init.constprop.10>:
    12dc:	1141                	c.addi	sp,-16
    12de:	c606                	c.swsp	ra,12(sp)
    12e0:	7d047073          	csrci	mmisc_ctl,8
    12e4:	d64ff0ef          	jal	ra,848 <clock_init_ram.constprop.11>
    12e8:	7d046073          	csrsi	mmisc_ctl,8
    12ec:	40b2                	c.lwsp	ra,12(sp)
    12ee:	0141                	c.addi	sp,16
    12f0:	00008067          	ret

000012f4 <pm_sleep_wakeup.constprop.2>:
    12f4:	1141                	c.addi	sp,-16
    12f6:	c606                	c.swsp	ra,12(sp)
    12f8:	7d047073          	csrci	mmisc_ctl,8
    12fc:	8d5ff0ef          	jal	ra,bd0 <pm_sleep_wakeup_ram.constprop.3>
    1300:	7d046073          	csrsi	mmisc_ctl,8
    1304:	40b2                	c.lwsp	ra,12(sp)
    1306:	0141                	c.addi	sp,16
    1308:	8082                	c.jr	ra
    130a:	0001                	c.nop

0000130c <user_calib_adc_vref.constprop.9>:
    130c:	1101                	c.addi	sp,-32
    130e:	ce06                	c.swsp	ra,28(sp)
    1310:	c402                	c.swsp	zero,8(sp)
    1312:	00011623          	sh	zero,12(sp)
    1316:	00010723          	sb	zero,14(sp)
    131a:	c54d                	c.beqz	a0,13c4 <user_calib_adc_vref.constprop.9+0xb8>
    131c:	000007b7          	lui	a5,0x0
    1320:	1587a783          	lw	a5,344(a5) # 158 <_AES_VMA_END>
    1324:	0030                	c.addi4spn	a2,sp,8
    1326:	459d                	c.li	a1,7
    1328:	9782                	c.jalr	a5
    132a:	00c14783          	lbu	a5,12(sp)
    132e:	1c07b75b          	bfos	a4,a5,7,0
    1332:	04074163          	bltz	a4,1374 <user_calib_adc_vref.constprop.9+0x68>
    1336:	00e14703          	lbu	a4,14(sp)
    133a:	00d14603          	lbu	a2,13(sp)
    133e:	0722                	c.slli	a4,0x8
    1340:	66c1                	c.lui	a3,0x10
    1342:	00c705b3          	add	a1,a4,a2
    1346:	16fd                	c.addi	a3,-1
    1348:	02d58663          	beq	a1,a3,1374 <user_calib_adc_vref.constprop.9+0x68>
    134c:	fd060613          	addi	a2,a2,-48
    1350:	9732                	c.add	a4,a2
    1352:	3c07275b          	bfoz	a4,a4,15,0
    1356:	0fb00693          	li	a3,251
    135a:	08e6e563          	bltu	a3,a4,13e4 <user_calib_adc_vref.constprop.9+0xd8>
    135e:	17b1                	c.addi	a5,-20
    1360:	1c07b7db          	bfos	a5,a5,7,0
    1364:	5731                	c.li	a4,-20
    1366:	06e78f63          	beq	a5,a4,13e4 <user_calib_adc_vref.constprop.9+0xd8>
    136a:	f9578513          	addi	a0,a5,-107
    136e:	00a03533          	snez	a0,a0
    1372:	a89d                	c.j	13e8 <user_calib_adc_vref.constprop.9+0xdc>
    1374:	801407b7          	lui	a5,0x80140
    1378:	06500713          	li	a4,101
    137c:	1ee78a23          	sb	a4,500(a5) # 801401f4 <_DATA_LMA_START+0x6013bb7c>
    1380:	1c87a703          	lw	a4,456(a5)
    1384:	1e078a23          	sb	zero,500(a5)
    1388:	4c47275b          	bfoz	a4,a4,19,4
    138c:	380727db          	bfoz	a5,a4,14,0
    1390:	06078063          	beqz	a5,13f0 <user_calib_adc_vref.constprop.9+0xe4>
    1394:	1ff77713          	andi	a4,a4,511
    1398:	f9b70713          	addi	a4,a4,-101
    139c:	3c07275b          	bfoz	a4,a4,15,0
    13a0:	0c600693          	li	a3,198
    13a4:	04e6e063          	bltu	a3,a4,13e4 <user_calib_adc_vref.constprop.9+0xd8>
    13a8:	0097d513          	srli	a0,a5,0x9
    13ac:	1531                	c.addi	a0,-20
    13ae:	1c05355b          	bfos	a0,a0,7,0
    13b2:	57b1                	c.li	a5,-20
    13b4:	02f50863          	beq	a0,a5,13e4 <user_calib_adc_vref.constprop.9+0xd8>
    13b8:	fd550513          	addi	a0,a0,-43 # 3fffffd5 <_DATA_LMA_START+0x1fffb95d>
    13bc:	00a03533          	snez	a0,a0
    13c0:	0280006f          	j	13e8 <user_calib_adc_vref.constprop.9+0xdc>
    13c4:	801407b7          	lui	a5,0x80140
    13c8:	06500713          	li	a4,101
    13cc:	1ee78a23          	sb	a4,500(a5) # 801401f4 <_DATA_LMA_START+0x6013bb7c>
    13d0:	1c87a703          	lw	a4,456(a5)
    13d4:	1e078a23          	sb	zero,500(a5)
    13d8:	4c47275b          	bfoz	a4,a4,19,4
    13dc:	380727db          	bfoz	a5,a4,14,0
    13e0:	fa079ae3          	bnez	a5,1394 <user_calib_adc_vref.constprop.9+0x88>
    13e4:	00000513          	li	a0,0
    13e8:	40f2                	c.lwsp	ra,28(sp)
    13ea:	6105                	c.addi16sp	sp,32
    13ec:	00008067          	ret
    13f0:	00814503          	lbu	a0,8(sp)
    13f4:	00914783          	lbu	a5,9(sp)
    13f8:	953e                	c.add	a0,a5
    13fa:	f8050513          	addi	a0,a0,-128
    13fe:	3c05255b          	bfoz	a0,a0,15,0
    1402:	0fc53513          	sltiu	a0,a0,252
    1406:	b7cd                	c.j	13e8 <user_calib_adc_vref.constprop.9+0xdc>

00001408 <user_calib_freq_offset.constprop.8>:
    1408:	000007b7          	lui	a5,0x0
    140c:	1101                	c.addi	sp,-32
    140e:	1587a783          	lw	a5,344(a5) # 158 <_AES_VMA_END>
    1412:	577d                	c.li	a4,-1
    1414:	00f10613          	addi	a2,sp,15
    1418:	4585                	c.li	a1,1
    141a:	cc22                	c.swsp	s0,24(sp)
    141c:	ce06                	c.swsp	ra,28(sp)
    141e:	00e107a3          	sb	a4,15(sp)
    1422:	9782                	c.jalr	a5
    1424:	00f14403          	lbu	s0,15(sp)
    1428:	0ff00793          	li	a5,255
    142c:	00000513          	li	a0,0
    1430:	02f40263          	beq	s0,a5,1454 <user_calib_freq_offset.constprop.8+0x4c>
    1434:	08a00513          	li	a0,138
    1438:	bc4ff0ef          	jal	ra,7fc <analog_read_reg8>
    143c:	03f47413          	andi	s0,s0,63
    1440:	04057593          	andi	a1,a0,64
    1444:	0085e5b3          	or	a1,a1,s0
    1448:	08a00513          	li	a0,138
    144c:	b6cff0ef          	jal	ra,7b8 <analog_write_reg8>
    1450:	00100513          	li	a0,1
    1454:	40f2                	c.lwsp	ra,28(sp)
    1456:	4462                	c.lwsp	s0,24(sp)
    1458:	6105                	c.addi16sp	sp,32
    145a:	8082                	c.jr	ra
    145c:	0001                	c.nop
	...

00001460 <gpio_input_dis>:
    1460:	801407b7          	lui	a5,0x80140
    1464:	30978703          	lb	a4,777(a5) # 80140309 <_DATA_LMA_START+0x6013bc91>
    1468:	fff54513          	not	a0,a0
    146c:	8d79                	c.and	a0,a4
    146e:	0ff57513          	andi	a0,a0,255
    1472:	30a784a3          	sb	a0,777(a5)
    1476:	8082                	c.jr	ra
    1478:	0001                	c.nop
	...

0000147c <_write>:
    147c:	02c05063          	blez	a2,149c <_write+0x20>
    1480:	00c586b3          	add	a3,a1,a2
    1484:	80101737          	lui	a4,0x80101
    1488:	0005c783          	lbu	a5,0(a1)
    148c:	0585                	c.addi	a1,1
    148e:	80f70c23          	sb	a5,-2024(a4) # 80100818 <_DATA_LMA_START+0x600fc1a0>
    1492:	fed59be3          	bne	a1,a3,1488 <_write+0xc>
    1496:	8532                	c.mv	a0,a2
    1498:	00008067          	ret
    149c:	4601                	c.li	a2,0
    149e:	8532                	c.mv	a0,a2
    14a0:	8082                	c.jr	ra
    14a2:	0001                	c.nop

000014a4 <main>:
    14a4:	7131                	c.addi16sp	sp,-192
    14a6:	ffbc07b7          	lui	a5,0xffbc0
    14aa:	df06                	c.swsp	ra,188(sp)
    14ac:	17fd                	c.addi	a5,-1
    14ae:	80140737          	lui	a4,0x80140
    14b2:	dd22                	c.swsp	s0,184(sp)
    14b4:	db26                	c.swsp	s1,180(sp)
    14b6:	d94a                	c.swsp	s2,176(sp)
    14b8:	d74e                	c.swsp	s3,172(sp)
    14ba:	d552                	c.swsp	s4,168(sp)
    14bc:	d356                	c.swsp	s5,164(sp)
    14be:	d15a                	c.swsp	s6,160(sp)
    14c0:	cf5e                	c.swsp	s7,156(sp)
    14c2:	cd62                	c.swsp	s8,152(sp)
    14c4:	cb66                	c.swsp	s9,148(sp)
    14c6:	c96a                	c.swsp	s10,144(sp)
    14c8:	c76e                	c.swsp	s11,140(sp)
    14ca:	fea2                	c.fswsp	fs0,124(sp)
    14cc:	1ef72023          	sw	a5,480(a4) # 801401e0 <_DATA_LMA_START+0x6013bb68>
    14d0:	00200593          	li	a1,2
    14d4:	08c00513          	li	a0,140
    14d8:	1ef72223          	sw	a5,484(a4)
    14dc:	adcff0ef          	jal	ra,7b8 <analog_write_reg8>
    14e0:	4581                	c.li	a1,0
    14e2:	4529                	c.li	a0,10
    14e4:	ad4ff0ef          	jal	ra,7b8 <analog_write_reg8>
    14e8:	03b00593          	li	a1,59
    14ec:	00b00513          	li	a0,11
    14f0:	ac8ff0ef          	jal	ra,7b8 <analog_write_reg8>
    14f4:	00500513          	li	a0,5
    14f8:	b04ff0ef          	jal	ra,7fc <analog_read_reg8>
    14fc:	0f757593          	andi	a1,a0,247
    1500:	00500513          	li	a0,5
    1504:	ab4ff0ef          	jal	ra,7b8 <analog_write_reg8>
    1508:	00600513          	li	a0,6
    150c:	af0ff0ef          	jal	ra,7fc <analog_read_reg8>
    1510:	03e57593          	andi	a1,a0,62
    1514:	00600513          	li	a0,6
    1518:	aa0ff0ef          	jal	ra,7b8 <analog_write_reg8>
    151c:	04500593          	li	a1,69
    1520:	00100513          	li	a0,1
    1524:	a94ff0ef          	jal	ra,7b8 <analog_write_reg8>
    1528:	04c00593          	li	a1,76
    152c:	01c00513          	li	a0,28
    1530:	a88ff0ef          	jal	ra,7b8 <analog_write_reg8>
    1534:	801007b7          	lui	a5,0x80100
    1538:	44478703          	lb	a4,1092(a5) # 80100444 <_DATA_LMA_START+0x600fbdcc>
    153c:	801016b7          	lui	a3,0x80101
    1540:	0ff77713          	andi	a4,a4,255
    1544:	00e76713          	ori	a4,a4,14
    1548:	44e78223          	sb	a4,1092(a5)
    154c:	45878703          	lb	a4,1112(a5)
    1550:	03800513          	li	a0,56
    1554:	0ff77713          	andi	a4,a4,255
    1558:	00e76713          	ori	a4,a4,14
    155c:	44e78c23          	sb	a4,1112(a5)
    1560:	46c78703          	lb	a4,1132(a5)
    1564:	0ff77713          	andi	a4,a4,255
    1568:	00e76713          	ori	a4,a4,14
    156c:	46e78623          	sb	a4,1132(a5)
    1570:	48078703          	lb	a4,1152(a5)
    1574:	0ff77713          	andi	a4,a4,255
    1578:	00e76713          	ori	a4,a4,14
    157c:	48e78023          	sb	a4,1152(a5)
    1580:	49478703          	lb	a4,1172(a5)
    1584:	0ff77713          	andi	a4,a4,255
    1588:	00e76713          	ori	a4,a4,14
    158c:	48e78a23          	sb	a4,1172(a5)
    1590:	4a878703          	lb	a4,1192(a5)
    1594:	0ff77713          	andi	a4,a4,255
    1598:	00e76713          	ori	a4,a4,14
    159c:	4ae78423          	sb	a4,1192(a5)
    15a0:	4bc78703          	lb	a4,1212(a5)
    15a4:	0ff77713          	andi	a4,a4,255
    15a8:	00e76713          	ori	a4,a4,14
    15ac:	4ae78e23          	sb	a4,1212(a5)
    15b0:	4d078703          	lb	a4,1232(a5)
    15b4:	0ff77713          	andi	a4,a4,255
    15b8:	00e76713          	ori	a4,a4,14
    15bc:	4ce78823          	sb	a4,1232(a5)
    15c0:	83a68783          	lb	a5,-1990(a3) # 8010083a <_DATA_LMA_START+0x600fc1c2>
    15c4:	82068d23          	sb	zero,-1990(a3)
    15c8:	a34ff0ef          	jal	ra,7fc <analog_read_reg8>
    15cc:	00a00433          	add	s0,zero,a0
    15d0:	03900513          	li	a0,57
    15d4:	a28ff0ef          	jal	ra,7fc <analog_read_reg8>
    15d8:	84aa                	c.mv	s1,a0
    15da:	4004745b          	bbs	s0,0,15e2 <main+0x13e>
    15de:	5da0006f          	j	1bb8 <main+0x714>
    15e2:	0fe47593          	andi	a1,s0,254
    15e6:	1a12940b          	addigp	s0,39328 # 8a1a0 <g_pm_status_info>
    15ea:	03800513          	li	a0,56
    15ee:	4004f45b          	bbs	s1,0,15f6 <main+0x152>
    15f2:	5a60006f          	j	1b98 <main+0x6f4>
    15f6:	4791                	c.li	a5,4
    15f8:	00f40123          	sb	a5,2(s0)
    15fc:	9bcff0ef          	jal	ra,7b8 <analog_write_reg8>
    1600:	00100593          	li	a1,1
    1604:	07f00513          	li	a0,127
    1608:	9b0ff0ef          	jal	ra,7b8 <analog_write_reg8>
    160c:	06400513          	li	a0,100
    1610:	9ecff0ef          	jal	ra,7fc <analog_read_reg8>
    1614:	0c3527db          	bfoz	a5,a0,3,3
    1618:	00a400a3          	sb	a0,1(s0)
    161c:	00f40023          	sb	a5,0(s0)
    1620:	08800513          	li	a0,136
    1624:	9d8ff0ef          	jal	ra,7fc <analog_read_reg8>
    1628:	be757c5b          	bbc	a0,7,1620 <main+0x17c>
    162c:	b5cff0ef          	jal	ra,988 <pm_wait_bbpll_done>
    1630:	00244783          	lbu	a5,2(s0)
    1634:	0a87dc5b          	beqc	a5,8,16ec <main+0x248>
    1638:	80140737          	lui	a4,0x80140
    163c:	20a70783          	lb	a5,522(a4) # 8014020a <_DATA_LMA_START+0x6013bb92>
    1640:	0ff7f793          	andi	a5,a5,255
    1644:	00c7e793          	ori	a5,a5,12
    1648:	20f70523          	sb	a5,522(a4)
    164c:	00100793          	li	a5,1
    1650:	20f72023          	sw	a5,512(a4)
    1654:	801404b7          	lui	s1,0x80140
    1658:	1fd48783          	lb	a5,509(s1) # 801401fd <_DATA_LMA_START+0x6013bb85>
    165c:	0ff7f793          	andi	a5,a5,255
    1660:	18f2ceab          	swgp	a5,39324 # 8a19c <g_chip_version>
    1664:	00244703          	lbu	a4,2(s0)
    1668:	04475c5b          	beqc	a4,4,16c0 <main+0x21c>
    166c:	0ff00693          	li	a3,255
    1670:	04d78063          	beq	a5,a3,16b0 <main+0x20c>
    1674:	08000593          	li	a1,128
    1678:	07d00513          	li	a0,125
    167c:	93cff0ef          	jal	ra,7b8 <analog_write_reg8>
    1680:	80140737          	lui	a4,0x80140
    1684:	06500793          	li	a5,101
    1688:	1ef70a23          	sb	a5,500(a4) # 801401f4 <_DATA_LMA_START+0x6013bb7c>
    168c:	1c872783          	lw	a5,456(a4)
    1690:	1e070a23          	sb	zero,500(a4)
    1694:	8bbd                	c.andi	a5,15
    1696:	0037d55b          	beqc	a5,3,16a0 <main+0x1fc>
    169a:	4725                	c.li	a4,9
    169c:	04f77c63          	bgeu	a4,a5,16f4 <main+0x250>
    16a0:	801407b7          	lui	a5,0x80140
    16a4:	02000713          	li	a4,32
    16a8:	1ee787a3          	sb	a4,495(a5) # 801401ef <_DATA_LMA_START+0x6013bb77>
    16ac:	0000006f          	j	16ac <main+0x208>
    16b0:	bc17625b          	bnec	a4,1,1674 <main+0x1d0>
    16b4:	07d00513          	li	a0,125
    16b8:	08000593          	li	a1,128
    16bc:	0180006f          	j	16d4 <main+0x230>
    16c0:	03900513          	li	a0,57
    16c4:	938ff0ef          	jal	ra,7fc <analog_read_reg8>
    16c8:	00256593          	ori	a1,a0,2
    16cc:	0ff5f593          	andi	a1,a1,255
    16d0:	03900513          	li	a0,57
    16d4:	8e4ff0ef          	jal	ra,7b8 <analog_write_reg8>
    16d8:	2004a503          	lw	a0,512(s1)
    16dc:	001877b7          	lui	a5,0x187
    16e0:	a0078793          	addi	a5,a5,-1536 # 186a00 <FLASH_SIZE+0x86a00>
    16e4:	953e                	c.add	a0,a5
    16e6:	3139                	c.jal	12f4 <pm_sleep_wakeup.constprop.2>
    16e8:	f8dff06f          	j	1674 <main+0x1d0>
    16ec:	cb5fe0ef          	jal	ra,3a0 <pm_stimer_recover>
    16f0:	f65ff06f          	j	1654 <main+0x1b0>
    16f4:	00f00513          	li	a0,15
    16f8:	904ff0ef          	jal	ra,7fc <analog_read_reg8>
    16fc:	03f57593          	andi	a1,a0,63
    1700:	0405e593          	ori	a1,a1,64
    1704:	00f00513          	li	a0,15
    1708:	8b0ff0ef          	jal	ra,7b8 <analog_write_reg8>
    170c:	04810a93          	addi	s5,sp,72
    1710:	85d6                	c.mv	a1,s5
    1712:	1808                	c.addi4spn	a0,sp,48
    1714:	a41ff0ef          	jal	ra,1154 <flash_read_mid_uid_with_check>
    1718:	0ff57513          	andi	a0,a0,255
    171c:	0015545b          	beqc	a0,1,1724 <main+0x280>
    1720:	4b40006f          	j	1bd4 <main+0x730>
    1724:	03214783          	lbu	a5,50(sp)
    1728:	474d                	c.li	a4,19
    172a:	0137e45b          	bnec	a5,19,1732 <main+0x28e>
    172e:	4520006f          	j	1b80 <main+0x6dc>
    1732:	42f77763          	bgeu	a4,a5,1b60 <main+0x6bc>
    1736:	4755                	c.li	a4,21
    1738:	0157e45b          	bnec	a5,21,1740 <main+0x29c>
    173c:	40c0006f          	j	1b48 <main+0x6a4>
    1740:	3ee7e863          	bltu	a5,a4,1b30 <main+0x68c>
    1744:	0167d45b          	beqc	a5,22,174c <main+0x2a8>
    1748:	48c0006f          	j	1bd4 <main+0x730>
    174c:	003fe537          	lui	a0,0x3fe
    1750:	0c050513          	addi	a0,a0,192 # 3fe0c0 <FLASH_SIZE+0x2fe0c0>
    1754:	bb9ff0ef          	jal	ra,130c <user_calib_adc_vref.constprop.9>
    1758:	003fe537          	lui	a0,0x3fe
    175c:	cadff0ef          	jal	ra,1408 <user_calib_freq_offset.constprop.8>
    1760:	80140437          	lui	s0,0x80140
    1764:	b79ff0ef          	jal	ra,12dc <clock_init.constprop.10>
    1768:	30e40783          	lb	a5,782(s0) # 8014030e <_DATA_LMA_START+0x6013bc96>
    176c:	11000513          	li	a0,272
    1770:	0ff7f793          	andi	a5,a5,255
    1774:	0107e793          	ori	a5,a5,16
    1778:	30f40723          	sb	a5,782(s0)
    177c:	30a40783          	lb	a5,778(s0)
    1780:	00080c37          	lui	s8,0x80
    1784:	0ef7f793          	andi	a5,a5,239
    1788:	30f40523          	sb	a5,778(s0)
    178c:	cd5ff0ef          	jal	ra,1460 <gpio_input_dis>
    1790:	30e40783          	lb	a5,782(s0)
    1794:	12000513          	li	a0,288
    1798:	0ff7f793          	andi	a5,a5,255
    179c:	0207e793          	ori	a5,a5,32
    17a0:	30f40723          	sb	a5,782(s0)
    17a4:	30a40783          	lb	a5,778(s0)
    17a8:	1804                	c.addi4spn	s1,sp,48
    17aa:	0df7f793          	andi	a5,a5,223
    17ae:	30f40523          	sb	a5,778(s0)
    17b2:	317d                	c.jal	1460 <gpio_input_dis>
    17b4:	30e40783          	lb	a5,782(s0)
    17b8:	14000513          	li	a0,320
    17bc:	0ff7f793          	andi	a5,a5,255
    17c0:	0407e793          	ori	a5,a5,64
    17c4:	30f40723          	sb	a5,782(s0)
    17c8:	30a40783          	lb	a5,778(s0)
    17cc:	0bf7f793          	andi	a5,a5,191
    17d0:	30f40523          	sb	a5,778(s0)
    17d4:	c8dff0ef          	jal	ra,1460 <gpio_input_dis>
    17d8:	30e40783          	lb	a5,782(s0)
    17dc:	18000513          	li	a0,384
    17e0:	f807e793          	ori	a5,a5,-128
    17e4:	0ff7f793          	andi	a5,a5,255
    17e8:	30f40723          	sb	a5,782(s0)
    17ec:	30a40783          	lb	a5,778(s0)
    17f0:	07f7f793          	andi	a5,a5,127
    17f4:	30f40523          	sb	a5,778(s0)
    17f8:	c69ff0ef          	jal	ra,1460 <gpio_input_dis>
    17fc:	33140783          	lb	a5,817(s0)
    1800:	00b00513          	li	a0,11
    1804:	0f37f793          	andi	a5,a5,243
    1808:	32f408a3          	sb	a5,817(s0)
    180c:	30640783          	lb	a5,774(s0)
    1810:	0df7f793          	andi	a5,a5,223
    1814:	30f40323          	sb	a5,774(s0)
    1818:	33140783          	lb	a5,817(s0)
    181c:	0cf7f793          	andi	a5,a5,207
    1820:	32f408a3          	sb	a5,817(s0)
    1824:	30640783          	lb	a5,774(s0)
    1828:	0bf7f793          	andi	a5,a5,191
    182c:	30f40323          	sb	a5,774(s0)
    1830:	30140783          	lb	a5,769(s0)
    1834:	0ff7f793          	andi	a5,a5,255
    1838:	0607e793          	ori	a5,a5,96
    183c:	30f400a3          	sb	a5,769(s0)
    1840:	fbdfe0ef          	jal	ra,7fc <analog_read_reg8>
    1844:	f8056593          	ori	a1,a0,-128
    1848:	0ff5f593          	andi	a1,a1,255
    184c:	00b00513          	li	a0,11
    1850:	f69fe0ef          	jal	ra,7b8 <analog_write_reg8>
    1854:	801017b7          	lui	a5,0x80101
    1858:	c0178703          	lb	a4,-1023(a5) # 80100c01 <_DATA_LMA_START+0x600fc589>
    185c:	3e800513          	li	a0,1000
    1860:	f8076713          	ori	a4,a4,-128
    1864:	0ff77713          	andi	a4,a4,255
    1868:	c0e780a3          	sb	a4,-1023(a5)
    186c:	00100713          	li	a4,1
    1870:	82e78e23          	sb	a4,-1988(a5)
    1874:	83d78703          	lb	a4,-1987(a5)
    1878:	020c0413          	addi	s0,s8,32 # 80020 <cst_libm_sincosf+0x20>
    187c:	0ff77713          	andi	a4,a4,255
    1880:	00176713          	ori	a4,a4,1
    1884:	82e78ea3          	sb	a4,-1987(a5)
    1888:	979fe0ef          	jal	ra,200 <delay_ms>
    188c:	000806b7          	lui	a3,0x80
    1890:	65a9                	c.lui	a1,0xa
    1892:	00080537          	lui	a0,0x80
    1896:	05868693          	addi	a3,a3,88 # 80058 <cst_libm_sincosf+0x58>
    189a:	7e300613          	li	a2,2019
    189e:	0585                	c.addi	a1,1
    18a0:	06450513          	addi	a0,a0,100 # 80064 <cst_libm_sincosf+0x64>
    18a4:	737010ef          	jal	ra,37da <printf>
    18a8:	831f978b          	addigp	a5,-2000 # 80030 <cst_libm_sincosf+0x30>
    18ac:	00080737          	lui	a4,0x80
    18b0:	4b88                	c.lw	a0,16(a5)
    18b2:	4bcc                	c.lw	a1,20(a5)
    18b4:	4f90                	c.lw	a2,24(a5)
    18b6:	4fd4                	c.lw	a3,28(a5)
    18b8:	01c72407          	flw	fs0,28(a4) # 8001c <cst_libm_sincosf+0x1c>
    18bc:	00080837          	lui	a6,0x80
    18c0:	5398                	c.lw	a4,32(a5)
    18c2:	53dc                	c.lw	a5,36(a5)
    18c4:	c622                	c.swsp	s0,12(sp)
    18c6:	02880413          	addi	s0,a6,40 # 80028 <cst_libm_sincosf+0x28>
    18ca:	c822                	c.swsp	s0,16(sp)
    18cc:	d82a                	c.swsp	a0,48(sp)
    18ce:	da2e                	c.swsp	a1,52(sp)
    18d0:	dc32                	c.swsp	a2,56(sp)
    18d2:	de36                	c.swsp	a3,60(sp)
    18d4:	c0ba                	c.swsp	a4,64(sp)
    18d6:	c2be                	c.swsp	a5,68(sp)
    18d8:	4080                	c.lw	s0,0(s1)
    18da:	00241d93          	slli	s11,s0,0x2
    18de:	856e                	c.mv	a0,s11
    18e0:	4a1010ef          	jal	ra,3580 <malloc>
    18e4:	89aa                	c.mv	s3,a0
    18e6:	856e                	c.mv	a0,s11
    18e8:	499010ef          	jal	ra,3580 <malloc>
    18ec:	00141b93          	slli	s7,s0,0x1
    18f0:	8b2a                	c.mv	s6,a0
    18f2:	855e                	c.mv	a0,s7
    18f4:	48d010ef          	jal	ra,3580 <malloc>
    18f8:	892a                	c.mv	s2,a0
    18fa:	855e                	c.mv	a0,s7
    18fc:	485010ef          	jal	ra,3580 <malloc>
    1900:	8a2a                	c.mv	s4,a0
    1902:	20098963          	beqz	s3,1b14 <main+0x670>
    1906:	200b0763          	beqz	s6,1b14 <main+0x670>
    190a:	20090563          	beqz	s2,1b14 <main+0x670>
    190e:	20050363          	beqz	a0,1b14 <main+0x670>
    1912:	04805763          	blez	s0,1960 <main+0x4bc>
    1916:	8d5a                	c.mv	s10,s6
    1918:	f0000553          	fmv.w.x	fa0,zero
    191c:	4c81                	c.li	s9,0
    191e:	a01d                	c.j	1944 <main+0x4a0>
    1920:	0e5010ef          	jal	ra,3204 <__floatsidf>
    1924:	46b2                	c.lwsp	a3,12(sp)
    1926:	4290                	c.lw	a2,0(a3)
    1928:	0046a683          	lw	a3,4(a3)
    192c:	28c010ef          	jal	ra,2bb8 <__muldf3>
    1930:	46c2                	c.lwsp	a3,16(sp)
    1932:	4290                	c.lw	a2,0(a3)
    1934:	0046a683          	lw	a3,4(a3)
    1938:	280010ef          	jal	ra,2bb8 <__muldf3>
    193c:	145010ef          	jal	ra,3280 <__truncdfsf2>
    1940:	7e1000ef          	jal	ra,2920 <sinf>
    1944:	10857553          	fmul.s	fa0,fa0,fs0
    1948:	000d1123          	sh	zero,2(s10)
    194c:	0d11                	c.addi	s10,4
    194e:	0c85                	c.addi	s9,1
    1950:	01900533          	add	a0,zero,s9
    1954:	c00517d3          	fcvt.w.s	a5,fa0,rtz
    1958:	fefd1e23          	sh	a5,-4(s10)
    195c:	fd9412e3          	bne	s0,s9,1920 <main+0x47c>
    1960:	3c0425db          	bfoz	a1,s0,15,0
    1964:	02410513          	addi	a0,sp,36
    1968:	6e5000ef          	jal	ra,284c <riscv_cfft_init_q15>
    196c:	00080537          	lui	a0,0x80
    1970:	008005b3          	add	a1,zero,s0
    1974:	0e050513          	addi	a0,a0,224 # 800e0 <cst_libm_sincosf+0xe0>
    1978:	663010ef          	jal	ra,37da <printf>
    197c:	8a9fe0ef          	jal	ra,224 <delay_ms.constprop.12>
    1980:	8cd6                	c.mv	s9,s5
    1982:	01790333          	add	t1,s2,s7
    1986:	8d56                	c.mv	s10,s5
    1988:	4c01                	c.li	s8,0
    198a:	4885                	c.li	a7,1
    198c:	866e                	c.mv	a2,s11
    198e:	85da                	c.mv	a1,s6
    1990:	854e                	c.mv	a0,s3
    1992:	ce46                	c.swsp	a7,28(sp)
    1994:	00612c23          	sw	t1,24(sp)
    1998:	409010ef          	jal	ra,35a0 <memcpy>
    199c:	b0005073          	csrwi	mcycle,0
    19a0:	b0002773          	csrr	a4,mcycle
    19a4:	4685                	c.li	a3,1
    19a6:	4601                	c.li	a2,0
    19a8:	85ce                	c.mv	a1,s3
    19aa:	1048                	c.addi4spn	a0,sp,36
    19ac:	00e12a23          	sw	a4,20(sp)
    19b0:	64c000ef          	jal	ra,1ffc <riscv_cfft_q15>
    19b4:	b00027f3          	csrr	a5,mcycle
    19b8:	4752                	c.lwsp	a4,20(sp)
    19ba:	8622                	c.mv	a2,s0
    19bc:	8f99                	c.sub	a5,a4
    19be:	85ca                	c.mv	a1,s2
    19c0:	854e                	c.mv	a0,s3
    19c2:	00fd2023          	sw	a5,0(s10)
    19c6:	0c05                	c.addi	s8,1
    19c8:	25c000ef          	jal	ra,1c24 <riscv_cmplx_mag_q15>
    19cc:	4362                	c.lwsp	t1,24(sp)
    19ce:	48f2                	c.lwsp	a7,28(sp)
    19d0:	121c565b          	beqc	s8,1,1afc <main+0x658>
    19d4:	10805463          	blez	s0,1adc <main+0x638>
    19d8:	000a1703          	lh	a4,0(s4)
    19dc:	00091783          	lh	a5,0(s2)
    19e0:	40e787b3          	sub	a5,a5,a4
    19e4:	40f00733          	neg	a4,a5
    19e8:	f2e787ff          	maxw	a5,a5,a4
    19ec:	02f8c663          	blt	a7,a5,1a18 <main+0x574>
    19f0:	00290713          	addi	a4,s2,2
    19f4:	002a0693          	addi	a3,s4,2
    19f8:	0ee30263          	beq	t1,a4,1adc <main+0x638>
    19fc:	00069603          	lh	a2,0(a3)
    1a00:	00071783          	lh	a5,0(a4)
    1a04:	0689                	c.addi	a3,2
    1a06:	8f91                	c.sub	a5,a2
    1a08:	40f00633          	neg	a2,a5
    1a0c:	f2c787ff          	maxw	a5,a5,a2
    1a10:	00270713          	addi	a4,a4,2
    1a14:	fef8d2e3          	bge	a7,a5,19f8 <main+0x554>
    1a18:	00080537          	lui	a0,0x80
    1a1c:	8622                	c.mv	a2,s0
    1a1e:	85e2                	c.mv	a1,s8
    1a20:	1b850513          	addi	a0,a0,440 # 801b8 <cst_libm_sincosf+0x1b8>
    1a24:	5b7010ef          	jal	ra,37da <printf>
    1a28:	ffcfe0ef          	jal	ra,224 <delay_ms.constprop.12>
    1a2c:	00080537          	lui	a0,0x80
    1a30:	008005b3          	add	a1,zero,s0
    1a34:	13850513          	addi	a0,a0,312 # 80138 <cst_libm_sincosf+0x138>
    1a38:	5a3010ef          	jal	ra,37da <printf>
    1a3c:	4d81                	c.li	s11,0
    1a3e:	4b81                	c.li	s7,0
    1a40:	00080d37          	lui	s10,0x80
    1a44:	fe0fe0ef          	jal	ra,224 <delay_ms.constprop.12>
    1a48:	000cac03          	lw	s8,0(s9)
    1a4c:	0d85                	c.addi	s11,1
    1a4e:	8662                	c.mv	a2,s8
    1a50:	01b005b3          	add	a1,zero,s11
    1a54:	170d0513          	addi	a0,s10,368 # 80170 <cst_libm_sincosf+0x170>
    1a58:	583010ef          	jal	ra,37da <printf>
    1a5c:	fc8fe0ef          	jal	ra,224 <delay_ms.constprop.12>
    1a60:	9be2                	c.add	s7,s8
    1a62:	0c91                	c.addi	s9,4
    1a64:	beade25b          	bnec	s11,10,1a48 <main+0x5a4>
    1a68:	ccccd637          	lui	a2,0xccccd
    1a6c:	ccd60613          	addi	a2,a2,-819 # cccccccd <_DATA_LMA_START+0xaccc8655>
    1a70:	02cbb633          	mulhu	a2,s7,a2
    1a74:	00080537          	lui	a0,0x80
    1a78:	85a2                	c.mv	a1,s0
    1a7a:	18c50513          	addi	a0,a0,396 # 8018c <cst_libm_sincosf+0x18c>
    1a7e:	0491                	c.addi	s1,4
    1a80:	00365613          	srli	a2,a2,0x3
    1a84:	557010ef          	jal	ra,37da <printf>
    1a88:	f9cfe0ef          	jal	ra,224 <delay_ms.constprop.12>
    1a8c:	00a00513          	li	a0,10
    1a90:	569010ef          	jal	ra,37f8 <putchar>
    1a94:	01300533          	add	a0,zero,s3
    1a98:	2f9010ef          	jal	ra,3590 <free>
    1a9c:	01600533          	add	a0,zero,s6
    1aa0:	2f1010ef          	jal	ra,3590 <free>
    1aa4:	01200533          	add	a0,zero,s2
    1aa8:	2e9010ef          	jal	ra,3590 <free>
    1aac:	01400533          	add	a0,zero,s4
    1ab0:	2e1010ef          	jal	ra,3590 <free>
    1ab4:	e35492e3          	bne	s1,s5,18d8 <main+0x434>
    1ab8:	00000513          	li	a0,0
    1abc:	50fa                	c.lwsp	ra,188(sp)
    1abe:	546a                	c.lwsp	s0,184(sp)
    1ac0:	54da                	c.lwsp	s1,180(sp)
    1ac2:	594a                	c.lwsp	s2,176(sp)
    1ac4:	59ba                	c.lwsp	s3,172(sp)
    1ac6:	5a2a                	c.lwsp	s4,168(sp)
    1ac8:	5a9a                	c.lwsp	s5,164(sp)
    1aca:	5b0a                	c.lwsp	s6,160(sp)
    1acc:	4bfa                	c.lwsp	s7,156(sp)
    1ace:	4c6a                	c.lwsp	s8,152(sp)
    1ad0:	4cda                	c.lwsp	s9,148(sp)
    1ad2:	4d4a                	c.lwsp	s10,144(sp)
    1ad4:	4dba                	c.lwsp	s11,140(sp)
    1ad6:	7476                	c.flwsp	fs0,124(sp)
    1ad8:	6129                	c.addi16sp	sp,192
    1ada:	8082                	c.jr	ra
    1adc:	00ac545b          	beqc	s8,10,1ae4 <main+0x640>
    1ae0:	0d11                	c.addi	s10,4
    1ae2:	b56d                	c.j	198c <main+0x4e8>
    1ae4:	00080537          	lui	a0,0x80
    1ae8:	008005b3          	add	a1,zero,s0
    1aec:	10050513          	addi	a0,a0,256 # 80100 <cst_libm_sincosf+0x100>
    1af0:	4eb010ef          	jal	ra,37da <printf>
    1af4:	f30fe0ef          	jal	ra,224 <delay_ms.constprop.12>
    1af8:	f35ff06f          	j	1a2c <main+0x588>
    1afc:	865e                	c.mv	a2,s7
    1afe:	85ca                	c.mv	a1,s2
    1b00:	8552                	c.mv	a0,s4
    1b02:	cc46                	c.swsp	a7,24(sp)
    1b04:	00612a23          	sw	t1,20(sp)
    1b08:	299010ef          	jal	ra,35a0 <memcpy>
    1b0c:	4352                	c.lwsp	t1,20(sp)
    1b0e:	48e2                	c.lwsp	a7,24(sp)
    1b10:	0d11                	c.addi	s10,4
    1b12:	bdad                	c.j	198c <main+0x4e8>
    1b14:	00080537          	lui	a0,0x80
    1b18:	008005b3          	add	a1,zero,s0
    1b1c:	0b450513          	addi	a0,a0,180 # 800b4 <cst_libm_sincosf+0xb4>
    1b20:	4bb010ef          	jal	ra,37da <printf>
    1b24:	f00fe0ef          	jal	ra,224 <delay_ms.constprop.12>
    1b28:	fff00513          	li	a0,-1
    1b2c:	f91ff06f          	j	1abc <main+0x618>
    1b30:	000fe537          	lui	a0,0xfe
    1b34:	0c050513          	addi	a0,a0,192 # fe0c0 <_STACK_TOP+0x5e0c0>
    1b38:	fd4ff0ef          	jal	ra,130c <user_calib_adc_vref.constprop.9>
    1b3c:	000fe537          	lui	a0,0xfe
    1b40:	8c9ff0ef          	jal	ra,1408 <user_calib_freq_offset.constprop.8>
    1b44:	c1dff06f          	j	1760 <main+0x2bc>
    1b48:	001fe537          	lui	a0,0x1fe
    1b4c:	0c050513          	addi	a0,a0,192 # 1fe0c0 <FLASH_SIZE+0xfe0c0>
    1b50:	fbcff0ef          	jal	ra,130c <user_calib_adc_vref.constprop.9>
    1b54:	001fe537          	lui	a0,0x1fe
    1b58:	8b1ff0ef          	jal	ra,1408 <user_calib_freq_offset.constprop.8>
    1b5c:	c05ff06f          	j	1760 <main+0x2bc>
    1b60:	0907d05b          	beqc	a5,16,1be0 <main+0x73c>
    1b64:	0717e85b          	bnec	a5,17,1bd4 <main+0x730>
    1b68:	0001e537          	lui	a0,0x1e
    1b6c:	0c050513          	addi	a0,a0,192 # 1e0c0 <BIN_SIZE+0xf89e>
    1b70:	f9cff0ef          	jal	ra,130c <user_calib_adc_vref.constprop.9>
    1b74:	0001e537          	lui	a0,0x1e
    1b78:	891ff0ef          	jal	ra,1408 <user_calib_freq_offset.constprop.8>
    1b7c:	be5ff06f          	j	1760 <main+0x2bc>
    1b80:	0007e537          	lui	a0,0x7e
    1b84:	0c050513          	addi	a0,a0,192 # 7e0c0 <BIN_SIZE+0x6f89e>
    1b88:	f84ff0ef          	jal	ra,130c <user_calib_adc_vref.constprop.9>
    1b8c:	0007e537          	lui	a0,0x7e
    1b90:	879ff0ef          	jal	ra,1408 <user_calib_freq_offset.constprop.8>
    1b94:	bcdff06f          	j	1760 <main+0x2bc>
    1b98:	00100793          	li	a5,1
    1b9c:	00f40123          	sb	a5,2(s0)
    1ba0:	c19fe0ef          	jal	ra,7b8 <analog_write_reg8>
    1ba4:	0014e593          	ori	a1,s1,1
    1ba8:	0ff5f593          	andi	a1,a1,255
    1bac:	03900513          	li	a0,57
    1bb0:	c09fe0ef          	jal	ra,7b8 <analog_write_reg8>
    1bb4:	a4dff06f          	j	1600 <main+0x15c>
    1bb8:	07f00513          	li	a0,127
    1bbc:	c41fe0ef          	jal	ra,7fc <analog_read_reg8>
    1bc0:	1a12940b          	addigp	s0,39328 # 8a1a0 <g_pm_status_info>
    1bc4:	0405765b          	bbc	a0,0,1c10 <main+0x76c>
    1bc8:	4214f85b          	bbs	s1,1,1bf8 <main+0x754>
    1bcc:	47c1                	c.li	a5,16
    1bce:	00f40123          	sb	a5,2(s0)
    1bd2:	b43d                	c.j	1600 <main+0x15c>
    1bd4:	00000513          	li	a0,0
    1bd8:	f34ff0ef          	jal	ra,130c <user_calib_adc_vref.constprop.9>
    1bdc:	b85ff06f          	j	1760 <main+0x2bc>
    1be0:	0000e537          	lui	a0,0xe
    1be4:	0c050513          	addi	a0,a0,192 # e0c0 <_RAMCODE_VMA_END+0x9b98>
    1be8:	f24ff0ef          	jal	ra,130c <user_calib_adc_vref.constprop.9>
    1bec:	0000e537          	lui	a0,0xe
    1bf0:	819ff0ef          	jal	ra,1408 <user_calib_freq_offset.constprop.8>
    1bf4:	b6dff06f          	j	1760 <main+0x2bc>
    1bf8:	02000793          	li	a5,32
    1bfc:	0fd4f593          	andi	a1,s1,253
    1c00:	03900513          	li	a0,57
    1c04:	00f40123          	sb	a5,2(s0)
    1c08:	bb1fe0ef          	jal	ra,7b8 <analog_write_reg8>
    1c0c:	9f5ff06f          	j	1600 <main+0x15c>
    1c10:	47a1                	c.li	a5,8
    1c12:	00f40123          	sb	a5,2(s0)
    1c16:	9ebff06f          	j	1600 <main+0x15c>
    1c1a:	0001                	c.nop

00001c1c <default_irq_entry>:
    1c1c:	a001                	c.j	1c1c <default_irq_entry>

00001c1e <trap_handler>:
    1c1e:	a001                	c.j	1c1e <trap_handler>
    1c20:	0001                	c.nop
	...

00001c24 <riscv_cmplx_mag_q15>:
    1c24:	7139                	c.addi16sp	sp,-64
    1c26:	d64e                	c.swsp	s3,44(sp)
    1c28:	d452                	c.swsp	s4,40(sp)
    1c2a:	d256                	c.swsp	s5,36(sp)
    1c2c:	d05a                	c.swsp	s6,32(sp)
    1c2e:	de06                	c.swsp	ra,60(sp)
    1c30:	00265b13          	srli	s6,a2,0x2
    1c34:	dc22                	c.swsp	s0,56(sp)
    1c36:	da26                	c.swsp	s1,52(sp)
    1c38:	d84a                	c.swsp	s2,48(sp)
    1c3a:	ce5e                	c.swsp	s7,28(sp)
    1c3c:	8ab2                	c.mv	s5,a2
    1c3e:	8a2a                	c.mv	s4,a0
    1c40:	89ae                	c.mv	s3,a1
    1c42:	080b0163          	beqz	s6,1cc4 <riscv_cmplx_mag_q15+0xa0>
    1c46:	84aa                	c.mv	s1,a0
    1c48:	8bda                	c.mv	s7,s6
    1c4a:	842e                	c.mv	s0,a1
    1c4c:	00c10913          	addi	s2,sp,12
    1c50:	4088                	c.lw	a0,0(s1)
    1c52:	38a5157f          	kmda	a0,a0,a0
    1c56:	85ca                	c.mv	a1,s2
    1c58:	8105                	c.srli	a0,0x1
    1c5a:	284d                	c.jal	1d0c <riscv_sqrt_q31>
    1c5c:	00e11783          	lh	a5,14(sp)
    1c60:	00448513          	addi	a0,s1,4
    1c64:	00f41023          	sh	a5,0(s0)
    1c68:	4108                	c.lw	a0,0(a0)
    1c6a:	38a5157f          	kmda	a0,a0,a0
    1c6e:	85ca                	c.mv	a1,s2
    1c70:	8105                	c.srli	a0,0x1
    1c72:	2869                	c.jal	1d0c <riscv_sqrt_q31>
    1c74:	00e11783          	lh	a5,14(sp)
    1c78:	00848513          	addi	a0,s1,8
    1c7c:	00f41123          	sh	a5,2(s0)
    1c80:	4108                	c.lw	a0,0(a0)
    1c82:	38a5157f          	kmda	a0,a0,a0
    1c86:	85ca                	c.mv	a1,s2
    1c88:	8105                	c.srli	a0,0x1
    1c8a:	2049                	c.jal	1d0c <riscv_sqrt_q31>
    1c8c:	00e11783          	lh	a5,14(sp)
    1c90:	00c48513          	addi	a0,s1,12
    1c94:	00f41223          	sh	a5,4(s0)
    1c98:	4108                	c.lw	a0,0(a0)
    1c9a:	04c1                	c.addi	s1,16
    1c9c:	38a5157f          	kmda	a0,a0,a0
    1ca0:	85ca                	c.mv	a1,s2
    1ca2:	8105                	c.srli	a0,0x1
    1ca4:	068000ef          	jal	ra,1d0c <riscv_sqrt_q31>
    1ca8:	00e11783          	lh	a5,14(sp)
    1cac:	1bfd                	c.addi	s7,-1
    1cae:	0421                	c.addi	s0,8
    1cb0:	fef41f23          	sh	a5,-2(s0)
    1cb4:	f80b9ee3          	bnez	s7,1c50 <riscv_cmplx_mag_q15+0x2c>
    1cb8:	003b1793          	slli	a5,s6,0x3
    1cbc:	0b12                	c.slli	s6,0x4
    1cbe:	99be                	c.add	s3,a5
    1cc0:	016a0a33          	add	s4,s4,s6
    1cc4:	003afa93          	andi	s5,s5,3
    1cc8:	020a8663          	beqz	s5,1cf4 <riscv_cmplx_mag_q15+0xd0>
    1ccc:	0a86                	c.slli	s5,0x1
    1cce:	9ace                	c.add	s5,s3
    1cd0:	00c10913          	addi	s2,sp,12
    1cd4:	000a2503          	lw	a0,0(s4)
    1cd8:	0a11                	c.addi	s4,4
    1cda:	38a5157f          	kmda	a0,a0,a0
    1cde:	85ca                	c.mv	a1,s2
    1ce0:	8105                	c.srli	a0,0x1
    1ce2:	202d                	c.jal	1d0c <riscv_sqrt_q31>
    1ce4:	00e11783          	lh	a5,14(sp)
    1ce8:	00298993          	addi	s3,s3,2
    1cec:	fef99f23          	sh	a5,-2(s3)
    1cf0:	ff5992e3          	bne	s3,s5,1cd4 <riscv_cmplx_mag_q15+0xb0>
    1cf4:	50f2                	c.lwsp	ra,60(sp)
    1cf6:	5462                	c.lwsp	s0,56(sp)
    1cf8:	54d2                	c.lwsp	s1,52(sp)
    1cfa:	5942                	c.lwsp	s2,48(sp)
    1cfc:	59b2                	c.lwsp	s3,44(sp)
    1cfe:	5a22                	c.lwsp	s4,40(sp)
    1d00:	5a92                	c.lwsp	s5,36(sp)
    1d02:	5b02                	c.lwsp	s6,32(sp)
    1d04:	4bf2                	c.lwsp	s7,28(sp)
    1d06:	6121                	c.addi16sp	sp,64
    1d08:	8082                	c.jr	ra
	...

00001d0c <riscv_sqrt_q31>:
    1d0c:	00a04a63          	bgtz	a0,1d20 <riscv_sqrt_q31+0x14>
    1d10:	4701                	c.li	a4,0
    1d12:	00a03533          	snez	a0,a0
    1d16:	40a00533          	neg	a0,a0
    1d1a:	c198                	c.sw	a4,0(a1)
    1d1c:	00008067          	ret
    1d20:	af95067f          	clz32	a2,a0
    1d24:	fff60813          	addi	a6,a2,-1
    1d28:	00187893          	andi	a7,a6,1
    1d2c:	0a089263          	bnez	a7,1dd0 <riscv_sqrt_q31+0xc4>
    1d30:	01051533          	sll	a0,a0,a6
    1d34:	41a55793          	srai	a5,a0,0x1a
    1d38:	17e1                	c.addi	a5,-8
    1d3a:	9fc18713          	addi	a4,gp,-1540 # 801fc <sqrt_initial_lut_q31>
    1d3e:	078a                	c.slli	a5,0x2
    1d40:	97ba                	c.add	a5,a4
    1d42:	4394                	c.lw	a3,0(a5)
    1d44:	30000337          	lui	t1,0x30000
    1d48:	e0d6977f          	mulsr64	a4,a3,a3
    1d4c:	dfc7077f          	wexti	a4,a4,28
    1d50:	e0e5177f          	mulsr64	a4,a0,a4
    1d54:	dff7077f          	wexti	a4,a4,31
    1d58:	40e30733          	sub	a4,t1,a4
    1d5c:	e0d7177f          	mulsr64	a4,a4,a3
    1d60:	dfd706ff          	wexti	a3,a4,29
    1d64:	e0d6977f          	mulsr64	a4,a3,a3
    1d68:	dfc7077f          	wexti	a4,a4,28
    1d6c:	e0e5177f          	mulsr64	a4,a0,a4
    1d70:	dff7077f          	wexti	a4,a4,31
    1d74:	40e30733          	sub	a4,t1,a4
    1d78:	e0d7177f          	mulsr64	a4,a4,a3
    1d7c:	dfd7077f          	wexti	a4,a4,29
    1d80:	e0e71e7f          	mulsr64	t3,a4,a4
    1d84:	dfce0e7f          	wexti	t3,t3,28
    1d88:	e1c51e7f          	mulsr64	t3,a0,t3
    1d8c:	dffe0e7f          	wexti	t3,t3,31
    1d90:	41c30333          	sub	t1,t1,t3
    1d94:	e0e3177f          	mulsr64	a4,t1,a4
    1d98:	dfd7077f          	wexti	a4,a4,29
    1d9c:	e0e5177f          	mulsr64	a4,a0,a4
    1da0:	dfc7077f          	wexti	a4,a4,28
    1da4:	00089c63          	bnez	a7,1dbc <riscv_sqrt_q31+0xb0>
    1da8:	01f85793          	srli	a5,a6,0x1f
    1dac:	97c2                	c.add	a5,a6
    1dae:	8785                	c.srai	a5,0x1
    1db0:	40f75733          	sra	a4,a4,a5
    1db4:	00000513          	li	a0,0
    1db8:	c198                	c.sw	a4,0(a1)
    1dba:	8082                	c.jr	ra
    1dbc:	1679                	c.addi	a2,-2
    1dbe:	01f65793          	srli	a5,a2,0x1f
    1dc2:	97b2                	c.add	a5,a2
    1dc4:	8785                	c.srai	a5,0x1
    1dc6:	40f75733          	sra	a4,a4,a5
    1dca:	4501                	c.li	a0,0
    1dcc:	fedff06f          	j	1db8 <riscv_sqrt_q31+0xac>
    1dd0:	ffe60713          	addi	a4,a2,-2
    1dd4:	00e51533          	sll	a0,a0,a4
    1dd8:	bfb1                	c.j	1d34 <riscv_sqrt_q31+0x28>
	...

00001ddc <riscv_cfft_radix4by2_q15>:
    1ddc:	1101                	c.addi	sp,-32
    1dde:	ca26                	c.swsp	s1,20(sp)
    1de0:	c84a                	c.swsp	s2,16(sp)
    1de2:	c64e                	c.swsp	s3,12(sp)
    1de4:	0015d913          	srli	s2,a1,0x1
    1de8:	00159993          	slli	s3,a1,0x1
    1dec:	ce06                	c.swsp	ra,28(sp)
    1dee:	cc22                	c.swsp	s0,24(sp)
    1df0:	84b2                	c.mv	s1,a2
    1df2:	99aa                	c.add	s3,a0
    1df4:	0c090c63          	beqz	s2,1ecc <riscv_cfft_radix4by2_q15+0xf0>
    1df8:	842a                	c.mv	s0,a0
    1dfa:	884e                	c.mv	a6,s3
    1dfc:	862a                	c.mv	a2,a0
    1dfe:	8326                	c.mv	t1,s1
    1e00:	88ca                	c.mv	a7,s2
    1e02:	4581                	c.li	a1,0
    1e04:	00032e03          	lw	t3,0(t1) # 30000000 <_DATA_LMA_START+0xfffb988>
    1e08:	0311                	c.addi	t1,4
    1e0a:	4218                	c.lw	a4,0(a2)
    1e0c:	00b7077f          	radd16	a4,a4,a1
    1e10:	00082683          	lw	a3,0(a6)
    1e14:	00b686ff          	radd16	a3,a3,a1
    1e18:	12d707ff          	ksub16	a5,a4,a3
    1e1c:	00d7077f          	radd16	a4,a4,a3
    1e20:	c218                	c.sw	a4,0(a2)
    1e22:	0611                	c.addi	a2,4
    1e24:	38fe177f          	kmda	a4,t3,a5
    1e28:	79c797ff          	smxds	a5,a5,t3
    1e2c:	8741                	c.srai	a4,0x10
    1e2e:	3ee797ff          	pktb16	a5,a5,a4
    1e32:	00f82023          	sw	a5,0(a6)
    1e36:	18fd                	c.addi	a7,-1
    1e38:	0811                	c.addi	a6,4
    1e3a:	fc0895e3          	bnez	a7,1e04 <riscv_cfft_radix4by2_q15+0x28>
    1e3e:	4689                	c.li	a3,2
    1e40:	8626                	c.mv	a2,s1
    1e42:	85ca                	c.mv	a1,s2
    1e44:	8522                	c.mv	a0,s0
    1e46:	24dd                	c.jal	212c <riscv_radix4_butterfly_q15>
    1e48:	854e                	c.mv	a0,s3
    1e4a:	4689                	c.li	a3,2
    1e4c:	8626                	c.mv	a2,s1
    1e4e:	85ca                	c.mv	a1,s2
    1e50:	2dc000ef          	jal	ra,212c <riscv_radix4_butterfly_q15>
    1e54:	00347793          	andi	a5,s0,3
    1e58:	8522                	c.mv	a0,s0
    1e5a:	eb8d                	c.bnez	a5,1e8c <riscv_cfft_radix4by2_q15+0xb0>
    1e5c:	00391593          	slli	a1,s2,0x3
    1e60:	008585b3          	add	a1,a1,s0
    1e64:	415c                	c.lw	a5,4(a0)
    1e66:	4118                	c.lw	a4,0(a0)
    1e68:	0521                	c.addi	a0,8
    1e6a:	741787ff          	slli16	a5,a5,1
    1e6e:	7417077f          	slli16	a4,a4,1
    1e72:	fee52c23          	sw	a4,-8(a0) # dff8 <_RAMCODE_VMA_END+0x9ad0>
    1e76:	fef52e23          	sw	a5,-4(a0)
    1e7a:	feb515e3          	bne	a0,a1,1e64 <riscv_cfft_radix4by2_q15+0x88>
    1e7e:	40f2                	c.lwsp	ra,28(sp)
    1e80:	4462                	c.lwsp	s0,24(sp)
    1e82:	44d2                	c.lwsp	s1,20(sp)
    1e84:	4942                	c.lwsp	s2,16(sp)
    1e86:	49b2                	c.lwsp	s3,12(sp)
    1e88:	6105                	c.addi16sp	sp,32
    1e8a:	8082                	c.jr	ra
    1e8c:	090e                	c.slli	s2,0x3
    1e8e:	9922                	c.add	s2,s0
    1e90:	00051603          	lh	a2,0(a0)
    1e94:	00451703          	lh	a4,4(a0)
    1e98:	00251683          	lh	a3,2(a0)
    1e9c:	0606                	c.slli	a2,0x1
    1e9e:	0706                	c.slli	a4,0x1
    1ea0:	00651783          	lh	a5,6(a0)
    1ea4:	00c51023          	sh	a2,0(a0)
    1ea8:	00e51223          	sh	a4,4(a0)
    1eac:	0686                	c.slli	a3,0x1
    1eae:	0786                	c.slli	a5,0x1
    1eb0:	00d51123          	sh	a3,2(a0)
    1eb4:	00f51323          	sh	a5,6(a0)
    1eb8:	0521                	c.addi	a0,8
    1eba:	fd251be3          	bne	a0,s2,1e90 <riscv_cfft_radix4by2_q15+0xb4>
    1ebe:	40f2                	c.lwsp	ra,28(sp)
    1ec0:	4462                	c.lwsp	s0,24(sp)
    1ec2:	44d2                	c.lwsp	s1,20(sp)
    1ec4:	4942                	c.lwsp	s2,16(sp)
    1ec6:	49b2                	c.lwsp	s3,12(sp)
    1ec8:	6105                	c.addi16sp	sp,32
    1eca:	8082                	c.jr	ra
    1ecc:	4689                	c.li	a3,2
    1ece:	4581                	c.li	a1,0
    1ed0:	25c000ef          	jal	ra,212c <riscv_radix4_butterfly_q15>
    1ed4:	4462                	c.lwsp	s0,24(sp)
    1ed6:	40f2                	c.lwsp	ra,28(sp)
    1ed8:	4942                	c.lwsp	s2,16(sp)
    1eda:	8626                	c.mv	a2,s1
    1edc:	854e                	c.mv	a0,s3
    1ede:	44d2                	c.lwsp	s1,20(sp)
    1ee0:	49b2                	c.lwsp	s3,12(sp)
    1ee2:	4689                	c.li	a3,2
    1ee4:	4581                	c.li	a1,0
    1ee6:	6105                	c.addi16sp	sp,32
    1ee8:	a491                	c.j	212c <riscv_radix4_butterfly_q15>
	...

00001eec <riscv_cfft_radix4by2_inverse_q15>:
    1eec:	1101                	c.addi	sp,-32
    1eee:	ca26                	c.swsp	s1,20(sp)
    1ef0:	c84a                	c.swsp	s2,16(sp)
    1ef2:	c64e                	c.swsp	s3,12(sp)
    1ef4:	0015d913          	srli	s2,a1,0x1
    1ef8:	00159993          	slli	s3,a1,0x1
    1efc:	ce06                	c.swsp	ra,28(sp)
    1efe:	cc22                	c.swsp	s0,24(sp)
    1f00:	84b2                	c.mv	s1,a2
    1f02:	99aa                	c.add	s3,a0
    1f04:	0c090c63          	beqz	s2,1fdc <riscv_cfft_radix4by2_inverse_q15+0xf0>
    1f08:	842a                	c.mv	s0,a0
    1f0a:	884e                	c.mv	a6,s3
    1f0c:	862a                	c.mv	a2,a0
    1f0e:	8326                	c.mv	t1,s1
    1f10:	88ca                	c.mv	a7,s2
    1f12:	4581                	c.li	a1,0
    1f14:	00032783          	lw	a5,0(t1)
    1f18:	0311                	c.addi	t1,4
    1f1a:	4218                	c.lw	a4,0(a2)
    1f1c:	00b7077f          	radd16	a4,a4,a1
    1f20:	00082683          	lw	a3,0(a6)
    1f24:	00b686ff          	radd16	a3,a3,a1
    1f28:	12d70e7f          	ksub16	t3,a4,a3
    1f2c:	00d7077f          	radd16	a4,a4,a3
    1f30:	c218                	c.sw	a4,0(a2)
    1f32:	0611                	c.addi	a2,4
    1f34:	69c7977f          	smdrs	a4,a5,t3
    1f38:	3bc797ff          	kmxda	a5,a5,t3
    1f3c:	8741                	c.srai	a4,0x10
    1f3e:	3ee797ff          	pktb16	a5,a5,a4
    1f42:	00f82023          	sw	a5,0(a6)
    1f46:	18fd                	c.addi	a7,-1
    1f48:	0811                	c.addi	a6,4
    1f4a:	fc0895e3          	bnez	a7,1f14 <riscv_cfft_radix4by2_inverse_q15+0x28>
    1f4e:	4689                	c.li	a3,2
    1f50:	8626                	c.mv	a2,s1
    1f52:	85ca                	c.mv	a1,s2
    1f54:	8522                	c.mv	a0,s0
    1f56:	21c9                	c.jal	2418 <riscv_radix4_butterfly_inverse_q15>
    1f58:	854e                	c.mv	a0,s3
    1f5a:	4689                	c.li	a3,2
    1f5c:	8626                	c.mv	a2,s1
    1f5e:	85ca                	c.mv	a1,s2
    1f60:	4b8000ef          	jal	ra,2418 <riscv_radix4_butterfly_inverse_q15>
    1f64:	00347793          	andi	a5,s0,3
    1f68:	8522                	c.mv	a0,s0
    1f6a:	eb8d                	c.bnez	a5,1f9c <riscv_cfft_radix4by2_inverse_q15+0xb0>
    1f6c:	00391593          	slli	a1,s2,0x3
    1f70:	008585b3          	add	a1,a1,s0
    1f74:	415c                	c.lw	a5,4(a0)
    1f76:	4118                	c.lw	a4,0(a0)
    1f78:	0521                	c.addi	a0,8
    1f7a:	741787ff          	slli16	a5,a5,1
    1f7e:	7417077f          	slli16	a4,a4,1
    1f82:	fee52c23          	sw	a4,-8(a0)
    1f86:	fef52e23          	sw	a5,-4(a0)
    1f8a:	feb515e3          	bne	a0,a1,1f74 <riscv_cfft_radix4by2_inverse_q15+0x88>
    1f8e:	40f2                	c.lwsp	ra,28(sp)
    1f90:	4462                	c.lwsp	s0,24(sp)
    1f92:	44d2                	c.lwsp	s1,20(sp)
    1f94:	4942                	c.lwsp	s2,16(sp)
    1f96:	49b2                	c.lwsp	s3,12(sp)
    1f98:	6105                	c.addi16sp	sp,32
    1f9a:	8082                	c.jr	ra
    1f9c:	090e                	c.slli	s2,0x3
    1f9e:	9922                	c.add	s2,s0
    1fa0:	00051603          	lh	a2,0(a0)
    1fa4:	00451703          	lh	a4,4(a0)
    1fa8:	00251683          	lh	a3,2(a0)
    1fac:	0606                	c.slli	a2,0x1
    1fae:	0706                	c.slli	a4,0x1
    1fb0:	00651783          	lh	a5,6(a0)
    1fb4:	00c51023          	sh	a2,0(a0)
    1fb8:	00e51223          	sh	a4,4(a0)
    1fbc:	0686                	c.slli	a3,0x1
    1fbe:	0786                	c.slli	a5,0x1
    1fc0:	00d51123          	sh	a3,2(a0)
    1fc4:	00f51323          	sh	a5,6(a0)
    1fc8:	0521                	c.addi	a0,8
    1fca:	fd251be3          	bne	a0,s2,1fa0 <riscv_cfft_radix4by2_inverse_q15+0xb4>
    1fce:	40f2                	c.lwsp	ra,28(sp)
    1fd0:	4462                	c.lwsp	s0,24(sp)
    1fd2:	44d2                	c.lwsp	s1,20(sp)
    1fd4:	4942                	c.lwsp	s2,16(sp)
    1fd6:	49b2                	c.lwsp	s3,12(sp)
    1fd8:	6105                	c.addi16sp	sp,32
    1fda:	8082                	c.jr	ra
    1fdc:	4689                	c.li	a3,2
    1fde:	4581                	c.li	a1,0
    1fe0:	438000ef          	jal	ra,2418 <riscv_radix4_butterfly_inverse_q15>
    1fe4:	4462                	c.lwsp	s0,24(sp)
    1fe6:	40f2                	c.lwsp	ra,28(sp)
    1fe8:	4942                	c.lwsp	s2,16(sp)
    1fea:	8626                	c.mv	a2,s1
    1fec:	854e                	c.mv	a0,s3
    1fee:	44d2                	c.lwsp	s1,20(sp)
    1ff0:	49b2                	c.lwsp	s3,12(sp)
    1ff2:	4689                	c.li	a3,2
    1ff4:	4581                	c.li	a1,0
    1ff6:	6105                	c.addi16sp	sp,32
    1ff8:	a105                	c.j	2418 <riscv_radix4_butterfly_inverse_q15>
	...

00001ffc <riscv_cfft_q15>:
    1ffc:	1141                	c.addi	sp,-16
    1ffe:	c422                	c.swsp	s0,8(sp)
    2000:	c226                	c.swsp	s1,4(sp)
    2002:	c04a                	c.swsp	s2,0(sp)
    2004:	4705                	c.li	a4,1
    2006:	c606                	c.swsp	ra,12(sp)
    2008:	00055783          	lhu	a5,0(a0)
    200c:	842a                	c.mv	s0,a0
    200e:	892e                	c.mv	s2,a1
    2010:	84b6                	c.mv	s1,a3
    2012:	0ae60163          	beq	a2,a4,20b4 <riscv_cfft_q15+0xb8>
    2016:	10000713          	li	a4,256
    201a:	08e78563          	beq	a5,a4,20a4 <riscv_cfft_q15+0xa8>
    201e:	02f77563          	bgeu	a4,a5,2048 <riscv_cfft_q15+0x4c>
    2022:	80078713          	addi	a4,a5,-2048
    2026:	c32d                	c.beqz	a4,2088 <riscv_cfft_q15+0x8c>
    2028:	6685                	c.lui	a3,0x1
    202a:	80068693          	addi	a3,a3,-2048 # 800 <analog_read_reg8+0x4>
    202e:	6705                	c.lui	a4,0x1
    2030:	06f6f263          	bgeu	a3,a5,2094 <riscv_cfft_q15+0x98>
    2034:	06e78863          	beq	a5,a4,20a4 <riscv_cfft_q15+0xa8>
    2038:	02049463          	bnez	s1,2060 <riscv_cfft_q15+0x64>
    203c:	40b2                	c.lwsp	ra,12(sp)
    203e:	4422                	c.lwsp	s0,8(sp)
    2040:	4492                	c.lwsp	s1,4(sp)
    2042:	4902                	c.lwsp	s2,0(sp)
    2044:	0141                	c.addi	sp,16
    2046:	8082                	c.jr	ra
    2048:	04000713          	li	a4,64
    204c:	04e78c63          	beq	a5,a4,20a4 <riscv_cfft_q15+0xa8>
    2050:	02f77463          	bgeu	a4,a5,2078 <riscv_cfft_q15+0x7c>
    2054:	08000713          	li	a4,128
    2058:	02e78863          	beq	a5,a4,2088 <riscv_cfft_q15+0x8c>
    205c:	fe0480e3          	beqz	s1,203c <riscv_cfft_q15+0x40>
    2060:	00c45583          	lhu	a1,12(s0)
    2064:	4410                	c.lw	a2,8(s0)
    2066:	4422                	c.lwsp	s0,8(sp)
    2068:	40b2                	c.lwsp	ra,12(sp)
    206a:	4492                	c.lwsp	s1,4(sp)
    206c:	854a                	c.mv	a0,s2
    206e:	4902                	c.lwsp	s2,0(sp)
    2070:	01010113          	addi	sp,sp,16
    2074:	0510006f          	j	28c4 <riscv_bitreversal_16>
    2078:	01000713          	li	a4,16
    207c:	02e78463          	beq	a5,a4,20a4 <riscv_cfft_q15+0xa8>
    2080:	02000713          	li	a4,32
    2084:	fae79ae3          	bne	a5,a4,2038 <riscv_cfft_q15+0x3c>
    2088:	4050                	c.lw	a2,4(s0)
    208a:	85be                	c.mv	a1,a5
    208c:	854a                	c.mv	a0,s2
    208e:	33b9                	c.jal	1ddc <riscv_cfft_radix4by2_q15>
    2090:	fa9ff06f          	j	2038 <riscv_cfft_q15+0x3c>
    2094:	20000713          	li	a4,512
    2098:	fee788e3          	beq	a5,a4,2088 <riscv_cfft_q15+0x8c>
    209c:	40000713          	li	a4,1024
    20a0:	f8e79ce3          	bne	a5,a4,2038 <riscv_cfft_q15+0x3c>
    20a4:	4050                	c.lw	a2,4(s0)
    20a6:	4685                	c.li	a3,1
    20a8:	85be                	c.mv	a1,a5
    20aa:	854a                	c.mv	a0,s2
    20ac:	080000ef          	jal	ra,212c <riscv_radix4_butterfly_q15>
    20b0:	f89ff06f          	j	2038 <riscv_cfft_q15+0x3c>
    20b4:	10000713          	li	a4,256
    20b8:	06e78263          	beq	a5,a4,211c <riscv_cfft_q15+0x120>
    20bc:	00f77e63          	bgeu	a4,a5,20d8 <riscv_cfft_q15+0xdc>
    20c0:	80078713          	addi	a4,a5,-2048
    20c4:	cf15                	c.beqz	a4,2100 <riscv_cfft_q15+0x104>
    20c6:	6685                	c.lui	a3,0x1
    20c8:	80068693          	addi	a3,a3,-2048 # 800 <analog_read_reg8+0x4>
    20cc:	6705                	c.lui	a4,0x1
    20ce:	02f6ff63          	bgeu	a3,a5,210c <riscv_cfft_q15+0x110>
    20d2:	f6e793e3          	bne	a5,a4,2038 <riscv_cfft_q15+0x3c>
    20d6:	a099                	c.j	211c <riscv_cfft_q15+0x120>
    20d8:	04000713          	li	a4,64
    20dc:	04e78063          	beq	a5,a4,211c <riscv_cfft_q15+0x120>
    20e0:	00f77863          	bgeu	a4,a5,20f0 <riscv_cfft_q15+0xf4>
    20e4:	08000713          	li	a4,128
    20e8:	00e78c63          	beq	a5,a4,2100 <riscv_cfft_q15+0x104>
    20ec:	f4dff06f          	j	2038 <riscv_cfft_q15+0x3c>
    20f0:	01000713          	li	a4,16
    20f4:	02e78463          	beq	a5,a4,211c <riscv_cfft_q15+0x120>
    20f8:	02000713          	li	a4,32
    20fc:	f2e79ee3          	bne	a5,a4,2038 <riscv_cfft_q15+0x3c>
    2100:	4050                	c.lw	a2,4(s0)
    2102:	85be                	c.mv	a1,a5
    2104:	854a                	c.mv	a0,s2
    2106:	33dd                	c.jal	1eec <riscv_cfft_radix4by2_inverse_q15>
    2108:	f31ff06f          	j	2038 <riscv_cfft_q15+0x3c>
    210c:	20000713          	li	a4,512
    2110:	fee788e3          	beq	a5,a4,2100 <riscv_cfft_q15+0x104>
    2114:	40000713          	li	a4,1024
    2118:	f2e790e3          	bne	a5,a4,2038 <riscv_cfft_q15+0x3c>
    211c:	4050                	c.lw	a2,4(s0)
    211e:	4685                	c.li	a3,1
    2120:	85be                	c.mv	a1,a5
    2122:	854a                	c.mv	a0,s2
    2124:	2f4000ef          	jal	ra,2418 <riscv_radix4_butterfly_inverse_q15>
    2128:	bf01                	c.j	2038 <riscv_cfft_q15+0x3c>
	...

0000212c <riscv_radix4_butterfly_q15>:
    212c:	ffc5f313          	andi	t1,a1,-4
    2130:	715d                	c.addi16sp	sp,-80
    2132:	00650e33          	add	t3,a0,t1
    2136:	8832                	c.mv	a6,a2
    2138:	006e0f33          	add	t5,t3,t1
    213c:	0025d613          	srli	a2,a1,0x2
    2140:	c0ce                	c.swsp	s3,64(sp)
    2142:	49b1                	c.li	s3,12
    2144:	033689b3          	mul	s3,a3,s3
    2148:	c6a2                	c.swsp	s0,76(sp)
    214a:	c4a6                	c.swsp	s1,72(sp)
    214c:	c2ca                	c.swsp	s2,68(sp)
    214e:	de52                	c.swsp	s4,60(sp)
    2150:	00269913          	slli	s2,a3,0x2
    2154:	00369a13          	slli	s4,a3,0x3
    2158:	87aa                	c.mv	a5,a0
    215a:	006f0eb3          	add	t4,t5,t1
    215e:	84c2                	c.mv	s1,a6
    2160:	8442                	c.mv	s0,a6
    2162:	83c2                	c.mv	t2,a6
    2164:	8faa                	c.mv	t6,a0
    2166:	82b2                	c.mv	t0,a2
    2168:	4681                	c.li	a3,0
    216a:	dc56                	c.swsp	s5,56(sp)
    216c:	da5a                	c.swsp	s6,52(sp)
    216e:	d85e                	c.swsp	s7,48(sp)
    2170:	d662                	c.swsp	s8,44(sp)
    2172:	d466                	c.swsp	s9,40(sp)
    2174:	d26a                	c.swsp	s10,36(sp)
    2176:	d06e                	c.swsp	s11,32(sp)
    2178:	000fa703          	lw	a4,0(t6)
    217c:	00d7077f          	radd16	a4,a4,a3
    2180:	00d7077f          	radd16	a4,a4,a3
    2184:	000f2883          	lw	a7,0(t5)
    2188:	00d888ff          	radd16	a7,a7,a3
    218c:	00d888ff          	radd16	a7,a7,a3
    2190:	1117057f          	kadd16	a0,a4,a7
    2194:	1317077f          	ksub16	a4,a4,a7
    2198:	000e2883          	lw	a7,0(t3)
    219c:	00d888ff          	radd16	a7,a7,a3
    21a0:	00d888ff          	radd16	a7,a7,a3
    21a4:	000eaa83          	lw	s5,0(t4)
    21a8:	00da8aff          	radd16	s5,s5,a3
    21ac:	00da8aff          	radd16	s5,s5,a3
    21b0:	115888ff          	kadd16	a7,a7,s5
    21b4:	01150aff          	radd16	s5,a0,a7
    21b8:	015fa023          	sw	s5,0(t6)
    21bc:	0f91                	c.addi	t6,4
    21be:	1315057f          	ksub16	a0,a0,a7
    21c2:	0003a883          	lw	a7,0(t2)
    21c6:	38a89aff          	kmda	s5,a7,a0
    21ca:	7915157f          	smxds	a0,a0,a7
    21ce:	000e2883          	lw	a7,0(t3)
    21d2:	00d888ff          	radd16	a7,a7,a3
    21d6:	00d888ff          	radd16	a7,a7,a3
    21da:	410ada93          	srai	s5,s5,0x10
    21de:	3f55157f          	pktb16	a0,a0,s5
    21e2:	00ae2023          	sw	a0,0(t3)
    21e6:	0e11                	c.addi	t3,4
    21e8:	000ea503          	lw	a0,0(t4)
    21ec:	00d5057f          	radd16	a0,a0,a3
    21f0:	00d5057f          	radd16	a0,a0,a3
    21f4:	12a8857f          	ksub16	a0,a7,a0
    21f8:	14a708ff          	kcras16	a7,a4,a0
    21fc:	16a7077f          	kcrsa16	a4,a4,a0
    2200:	00042a83          	lw	s5,0(s0)
    2204:	38ea957f          	kmda	a0,s5,a4
    2208:	7957177f          	smxds	a4,a4,s5
    220c:	8541                	c.srai	a0,0x10
    220e:	3ea7177f          	pktb16	a4,a4,a0
    2212:	00ef2023          	sw	a4,0(t5)
    2216:	0f11                	c.addi	t5,4
    2218:	4098                	c.lw	a4,0(s1)
    221a:	3917157f          	kmda	a0,a4,a7
    221e:	78e8977f          	smxds	a4,a7,a4
    2222:	8541                	c.srai	a0,0x10
    2224:	3ea7177f          	pktb16	a4,a4,a0
    2228:	00eea023          	sw	a4,0(t4)
    222c:	12fd                	c.addi	t0,-1
    222e:	0e91                	c.addi	t4,4
    2230:	93d2                	c.add	t2,s4
    2232:	944a                	c.add	s0,s2
    2234:	94ce                	c.add	s1,s3
    2236:	f40291e3          	bnez	t0,2178 <riscv_radix4_butterfly_q15+0x4c>
    223a:	4711                	c.li	a4,4
    223c:	854a                	c.mv	a0,s2
    223e:	16c77563          	bgeu	a4,a2,23a8 <riscv_radix4_butterfly_q15+0x27c>
    2242:	0045d693          	srli	a3,a1,0x4
    2246:	fff68713          	addi	a4,a3,-1
    224a:	ce3e                	c.swsp	a5,28(sp)
    224c:	00269993          	slli	s3,a3,0x2
    2250:	82b2                	c.mv	t0,a2
    2252:	4381                	c.li	t2,0
    2254:	8e32                	c.mv	t3,a2
    2256:	87b6                	c.mv	a5,a3
    2258:	00e12c23          	sw	a4,24(sp)
    225c:	88be                	c.mv	a7,a5
    225e:	00f5f363          	bgeu	a1,a5,2264 <riscv_radix4_butterfly_q15+0x138>
    2262:	88ae                	c.mv	a7,a1
    2264:	4731                	c.li	a4,12
    2266:	02e506b3          	mul	a3,a0,a4
    226a:	4af2                	c.lwsp	s5,28(sp)
    226c:	8c42                	c.mv	s8,a6
    226e:	8bc2                	c.mv	s7,a6
    2270:	8b42                	c.mv	s6,a6
    2272:	8742                	c.mv	a4,a6
    2274:	ca3e                	c.swsp	a5,20(sp)
    2276:	00251c93          	slli	s9,a0,0x2
    227a:	00351d13          	slli	s10,a0,0x3
    227e:	4901                	c.li	s2,0
    2280:	4a01                	c.li	s4,0
    2282:	87f2                	c.mv	a5,t3
    2284:	00d00833          	add	a6,zero,a3
    2288:	000b2483          	lw	s1,0(s6)
    228c:	000ba403          	lw	s0,0(s7)
    2290:	000c2f83          	lw	t6,0(s8)
    2294:	015986b3          	add	a3,s3,s5
    2298:	00d98e33          	add	t3,s3,a3
    229c:	9a2a                	c.add	s4,a0
    229e:	8ed6                	c.mv	t4,s5
    22a0:	01c98633          	add	a2,s3,t3
    22a4:	8f4a                	c.mv	t5,s2
    22a6:	c45e                	c.swsp	s7,8(sp)
    22a8:	c64e                	c.swsp	s3,12(sp)
    22aa:	c85a                	c.swsp	s6,16(sp)
    22ac:	000eab03          	lw	s6,0(t4)
    22b0:	000e2b83          	lw	s7,0(t3)
    22b4:	117b09ff          	kadd16	s3,s6,s7
    22b8:	137b0b7f          	ksub16	s6,s6,s7
    22bc:	0006ab83          	lw	s7,0(a3)
    22c0:	00062d83          	lw	s11,0(a2)
    22c4:	11bb8bff          	kadd16	s7,s7,s11
    22c8:	01798dff          	radd16	s11,s3,s7
    22cc:	007d8dff          	radd16	s11,s11,t2
    22d0:	01bea023          	sw	s11,0(t4)
    22d4:	9e9a                	c.add	t4,t1
    22d6:	037989ff          	rsub16	s3,s3,s7
    22da:	39341bff          	kmda	s7,s0,s3
    22de:	788999ff          	smxds	s3,s3,s0
    22e2:	0006ad83          	lw	s11,0(a3)
    22e6:	410bdb93          	srai	s7,s7,0x10
    22ea:	3f7999ff          	pktb16	s3,s3,s7
    22ee:	0136a023          	sw	s3,0(a3)
    22f2:	969a                	c.add	a3,t1
    22f4:	00062983          	lw	s3,0(a2)
    22f8:	133d89ff          	ksub16	s3,s11,s3
    22fc:	053b0bff          	rcras16	s7,s6,s3
    2300:	073b09ff          	rcrsa16	s3,s6,s3
    2304:	39349b7f          	kmda	s6,s1,s3
    2308:	789999ff          	smxds	s3,s3,s1
    230c:	410b5b13          	srai	s6,s6,0x10
    2310:	3f6999ff          	pktb16	s3,s3,s6
    2314:	013e2023          	sw	s3,0(t3)
    2318:	9e1a                	c.add	t3,t1
    231a:	397f99ff          	kmda	s3,t6,s7
    231e:	79fb9bff          	smxds	s7,s7,t6
    2322:	4109d993          	srai	s3,s3,0x10
    2326:	3f3b9bff          	pktb16	s7,s7,s3
    232a:	01762023          	sw	s7,0(a2)
    232e:	9f16                	c.add	t5,t0
    2330:	961a                	c.add	a2,t1
    2332:	f6bf6de3          	bltu	t5,a1,22ac <riscv_radix4_butterfly_q15+0x180>
    2336:	4ba2                	c.lwsp	s7,8(sp)
    2338:	4b42                	c.lwsp	s6,16(sp)
    233a:	0905                	c.addi	s2,1
    233c:	49b2                	c.lwsp	s3,12(sp)
    233e:	9b66                	c.add	s6,s9
    2340:	9bea                	c.add	s7,s10
    2342:	9c42                	c.add	s8,a6
    2344:	0a91                	c.addi	s5,4
    2346:	f51961e3          	bltu	s2,a7,2288 <riscv_radix4_butterfly_q15+0x15c>
    234a:	883a                	c.mv	a6,a4
    234c:	4762                	c.lwsp	a4,24(sp)
    234e:	8e3e                	c.mv	t3,a5
    2350:	47d2                	c.lwsp	a5,20(sp)
    2352:	03276963          	bltu	a4,s2,2384 <riscv_radix4_butterfly_q15+0x258>
    2356:	002a1693          	slli	a3,s4,0x2
    235a:	00d80333          	add	t1,a6,a3
    235e:	4731                	c.li	a4,12
    2360:	02e50533          	mul	a0,a0,a4
    2364:	00d308b3          	add	a7,t1,a3
    2368:	4762                	c.lwsp	a4,24(sp)
    236a:	96c6                	c.add	a3,a7
    236c:	00032e83          	lw	t4,0(t1)
    2370:	0008ae83          	lw	t4,0(a7)
    2374:	0006ae83          	lw	t4,0(a3)
    2378:	0905                	c.addi	s2,1
    237a:	9366                	c.add	t1,s9
    237c:	98ea                	c.add	a7,s10
    237e:	96aa                	c.add	a3,a0
    2380:	ff2776e3          	bgeu	a4,s2,236c <riscv_radix4_butterfly_q15+0x240>
    2384:	4711                	c.li	a4,4
    2386:	8566                	c.mv	a0,s9
    2388:	00f77e63          	bgeu	a4,a5,23a4 <riscv_radix4_butterfly_q15+0x278>
    238c:	0027d693          	srli	a3,a5,0x2
    2390:	00279313          	slli	t1,a5,0x2
    2394:	82be                	c.mv	t0,a5
    2396:	fff68793          	addi	a5,a3,-1
    239a:	cc3e                	c.swsp	a5,24(sp)
    239c:	00269993          	slli	s3,a3,0x2
    23a0:	87b6                	c.mv	a5,a3
    23a2:	bd6d                	c.j	225c <riscv_radix4_butterfly_q15+0x130>
    23a4:	47f2                	c.lwsp	a5,28(sp)
    23a6:	8672                	c.mv	a2,t3
    23a8:	4398                	c.lw	a4,0(a5)
    23aa:	00478e93          	addi	t4,a5,4
    23ae:	000ea683          	lw	a3,0(t4)
    23b2:	00878313          	addi	t1,a5,8
    23b6:	00032e03          	lw	t3,0(t1)
    23ba:	00c78893          	addi	a7,a5,12
    23be:	0008a503          	lw	a0,0(a7)
    23c2:	11c705ff          	kadd16	a1,a4,t3
    23c6:	10a6887f          	kadd16	a6,a3,a0
    23ca:	0105887f          	radd16	a6,a1,a6
    23ce:	0107a023          	sw	a6,0(a5)
    23d2:	10a6887f          	kadd16	a6,a3,a0
    23d6:	030585ff          	rsub16	a1,a1,a6
    23da:	00bea023          	sw	a1,0(t4)
    23de:	13c7077f          	ksub16	a4,a4,t3
    23e2:	12a686ff          	ksub16	a3,a3,a0
    23e6:	06d705ff          	rcrsa16	a1,a4,a3
    23ea:	00b32023          	sw	a1,0(t1)
    23ee:	04d7077f          	rcras16	a4,a4,a3
    23f2:	00e8a023          	sw	a4,0(a7)
    23f6:	167d                	c.addi	a2,-1
    23f8:	07c1                	c.addi	a5,16
    23fa:	f65d                	c.bnez	a2,23a8 <riscv_radix4_butterfly_q15+0x27c>
    23fc:	4436                	c.lwsp	s0,76(sp)
    23fe:	44a6                	c.lwsp	s1,72(sp)
    2400:	4916                	c.lwsp	s2,68(sp)
    2402:	4986                	c.lwsp	s3,64(sp)
    2404:	5a72                	c.lwsp	s4,60(sp)
    2406:	5ae2                	c.lwsp	s5,56(sp)
    2408:	5b52                	c.lwsp	s6,52(sp)
    240a:	5bc2                	c.lwsp	s7,48(sp)
    240c:	5c32                	c.lwsp	s8,44(sp)
    240e:	5ca2                	c.lwsp	s9,40(sp)
    2410:	5d12                	c.lwsp	s10,36(sp)
    2412:	5d82                	c.lwsp	s11,32(sp)
    2414:	6161                	c.addi16sp	sp,80
    2416:	8082                	c.jr	ra

00002418 <riscv_radix4_butterfly_inverse_q15>:
    2418:	ffc5f313          	andi	t1,a1,-4
    241c:	715d                	c.addi16sp	sp,-80
    241e:	006508b3          	add	a7,a0,t1
    2422:	8832                	c.mv	a6,a2
    2424:	00688eb3          	add	t4,a7,t1
    2428:	0025d613          	srli	a2,a1,0x2
    242c:	c2ca                	c.swsp	s2,68(sp)
    242e:	4931                	c.li	s2,12
    2430:	03268933          	mul	s2,a3,s2
    2434:	c6a2                	c.swsp	s0,76(sp)
    2436:	c4a6                	c.swsp	s1,72(sp)
    2438:	c0ce                	c.swsp	s3,64(sp)
    243a:	00269493          	slli	s1,a3,0x2
    243e:	00369993          	slli	s3,a3,0x3
    2442:	87aa                	c.mv	a5,a0
    2444:	006e8e33          	add	t3,t4,t1
    2448:	8442                	c.mv	s0,a6
    244a:	83c2                	c.mv	t2,a6
    244c:	82c2                	c.mv	t0,a6
    244e:	8f2a                	c.mv	t5,a0
    2450:	8fb2                	c.mv	t6,a2
    2452:	4681                	c.li	a3,0
    2454:	de52                	c.swsp	s4,60(sp)
    2456:	dc56                	c.swsp	s5,56(sp)
    2458:	da5a                	c.swsp	s6,52(sp)
    245a:	d85e                	c.swsp	s7,48(sp)
    245c:	d662                	c.swsp	s8,44(sp)
    245e:	d466                	c.swsp	s9,40(sp)
    2460:	d26a                	c.swsp	s10,36(sp)
    2462:	d06e                	c.swsp	s11,32(sp)
    2464:	000f2703          	lw	a4,0(t5)
    2468:	00d7077f          	radd16	a4,a4,a3
    246c:	00d7077f          	radd16	a4,a4,a3
    2470:	000ea503          	lw	a0,0(t4)
    2474:	00d5057f          	radd16	a0,a0,a3
    2478:	00d5057f          	radd16	a0,a0,a3
    247c:	10a70a7f          	kadd16	s4,a4,a0
    2480:	12a7077f          	ksub16	a4,a4,a0
    2484:	0008a503          	lw	a0,0(a7)
    2488:	00d5057f          	radd16	a0,a0,a3
    248c:	00d5057f          	radd16	a0,a0,a3
    2490:	000e2a83          	lw	s5,0(t3)
    2494:	00da8aff          	radd16	s5,s5,a3
    2498:	00da8aff          	radd16	s5,s5,a3
    249c:	1155057f          	kadd16	a0,a0,s5
    24a0:	00aa0aff          	radd16	s5,s4,a0
    24a4:	015f2023          	sw	s5,0(t5)
    24a8:	0f11                	c.addi	t5,4
    24aa:	12aa0a7f          	ksub16	s4,s4,a0
    24ae:	0002a503          	lw	a0,0(t0)
    24b2:	69451aff          	smdrs	s5,a0,s4
    24b6:	3b451a7f          	kmxda	s4,a0,s4
    24ba:	0008a503          	lw	a0,0(a7)
    24be:	00d5057f          	radd16	a0,a0,a3
    24c2:	00d5057f          	radd16	a0,a0,a3
    24c6:	410ada93          	srai	s5,s5,0x10
    24ca:	3f5a1a7f          	pktb16	s4,s4,s5
    24ce:	0148a023          	sw	s4,0(a7)
    24d2:	0891                	c.addi	a7,4
    24d4:	000e2a03          	lw	s4,0(t3)
    24d8:	00da0a7f          	radd16	s4,s4,a3
    24dc:	00da0a7f          	radd16	s4,s4,a3
    24e0:	1345057f          	ksub16	a0,a0,s4
    24e4:	16a70a7f          	kcrsa16	s4,a4,a0
    24e8:	14a7077f          	kcras16	a4,a4,a0
    24ec:	0003a503          	lw	a0,0(t2)
    24f0:	68e51aff          	smdrs	s5,a0,a4
    24f4:	3ae5177f          	kmxda	a4,a0,a4
    24f8:	410ad513          	srai	a0,s5,0x10
    24fc:	3ea7177f          	pktb16	a4,a4,a0
    2500:	00eea023          	sw	a4,0(t4)
    2504:	0e91                	c.addi	t4,4
    2506:	4018                	c.lw	a4,0(s0)
    2508:	6947157f          	smdrs	a0,a4,s4
    250c:	3b47177f          	kmxda	a4,a4,s4
    2510:	8541                	c.srai	a0,0x10
    2512:	3ea7177f          	pktb16	a4,a4,a0
    2516:	00ee2023          	sw	a4,0(t3)
    251a:	1ffd                	c.addi	t6,-1
    251c:	0e11                	c.addi	t3,4
    251e:	92ce                	c.add	t0,s3
    2520:	93a6                	c.add	t2,s1
    2522:	944a                	c.add	s0,s2
    2524:	f40f90e3          	bnez	t6,2464 <riscv_radix4_butterfly_inverse_q15+0x4c>
    2528:	4711                	c.li	a4,4
    252a:	8526                	c.mv	a0,s1
    252c:	16c77463          	bgeu	a4,a2,2694 <riscv_radix4_butterfly_inverse_q15+0x27c>
    2530:	0045d693          	srli	a3,a1,0x4
    2534:	fff68713          	addi	a4,a3,-1
    2538:	ce3e                	c.swsp	a5,28(sp)
    253a:	00269993          	slli	s3,a3,0x2
    253e:	82b2                	c.mv	t0,a2
    2540:	4381                	c.li	t2,0
    2542:	8e32                	c.mv	t3,a2
    2544:	87b6                	c.mv	a5,a3
    2546:	cc3a                	c.swsp	a4,24(sp)
    2548:	88be                	c.mv	a7,a5
    254a:	00f5f363          	bgeu	a1,a5,2550 <riscv_radix4_butterfly_inverse_q15+0x138>
    254e:	88ae                	c.mv	a7,a1
    2550:	4731                	c.li	a4,12
    2552:	02e506b3          	mul	a3,a0,a4
    2556:	4af2                	c.lwsp	s5,28(sp)
    2558:	8c42                	c.mv	s8,a6
    255a:	8bc2                	c.mv	s7,a6
    255c:	8b42                	c.mv	s6,a6
    255e:	8742                	c.mv	a4,a6
    2560:	ca3e                	c.swsp	a5,20(sp)
    2562:	00251c93          	slli	s9,a0,0x2
    2566:	00351d13          	slli	s10,a0,0x3
    256a:	4901                	c.li	s2,0
    256c:	4a01                	c.li	s4,0
    256e:	87f2                	c.mv	a5,t3
    2570:	00d00833          	add	a6,zero,a3
    2574:	000b2483          	lw	s1,0(s6)
    2578:	000ba403          	lw	s0,0(s7)
    257c:	000c2f83          	lw	t6,0(s8)
    2580:	015986b3          	add	a3,s3,s5
    2584:	00d98e33          	add	t3,s3,a3
    2588:	9a2a                	c.add	s4,a0
    258a:	8ed6                	c.mv	t4,s5
    258c:	01c98633          	add	a2,s3,t3
    2590:	8f4a                	c.mv	t5,s2
    2592:	c45e                	c.swsp	s7,8(sp)
    2594:	c64e                	c.swsp	s3,12(sp)
    2596:	c85a                	c.swsp	s6,16(sp)
    2598:	000eab03          	lw	s6,0(t4)
    259c:	000e2b83          	lw	s7,0(t3)
    25a0:	117b09ff          	kadd16	s3,s6,s7
    25a4:	137b0b7f          	ksub16	s6,s6,s7
    25a8:	0006ab83          	lw	s7,0(a3)
    25ac:	00062d83          	lw	s11,0(a2)
    25b0:	11bb8bff          	kadd16	s7,s7,s11
    25b4:	01798dff          	radd16	s11,s3,s7
    25b8:	007d8dff          	radd16	s11,s11,t2
    25bc:	01bea023          	sw	s11,0(t4)
    25c0:	9e9a                	c.add	t4,t1
    25c2:	037989ff          	rsub16	s3,s3,s7
    25c6:	69341bff          	smdrs	s7,s0,s3
    25ca:	3b3419ff          	kmxda	s3,s0,s3
    25ce:	0006ad83          	lw	s11,0(a3)
    25d2:	410bdb93          	srai	s7,s7,0x10
    25d6:	3f7999ff          	pktb16	s3,s3,s7
    25da:	0136a023          	sw	s3,0(a3)
    25de:	969a                	c.add	a3,t1
    25e0:	00062983          	lw	s3,0(a2)
    25e4:	133d89ff          	ksub16	s3,s11,s3
    25e8:	073b0bff          	rcrsa16	s7,s6,s3
    25ec:	053b09ff          	rcras16	s3,s6,s3
    25f0:	69349b7f          	smdrs	s6,s1,s3
    25f4:	3b3499ff          	kmxda	s3,s1,s3
    25f8:	410b5b13          	srai	s6,s6,0x10
    25fc:	3f6999ff          	pktb16	s3,s3,s6
    2600:	013e2023          	sw	s3,0(t3)
    2604:	9e1a                	c.add	t3,t1
    2606:	697f99ff          	smdrs	s3,t6,s7
    260a:	3b7f9bff          	kmxda	s7,t6,s7
    260e:	4109d993          	srai	s3,s3,0x10
    2612:	3f3b9bff          	pktb16	s7,s7,s3
    2616:	01762023          	sw	s7,0(a2)
    261a:	9f16                	c.add	t5,t0
    261c:	961a                	c.add	a2,t1
    261e:	f6bf6de3          	bltu	t5,a1,2598 <riscv_radix4_butterfly_inverse_q15+0x180>
    2622:	4ba2                	c.lwsp	s7,8(sp)
    2624:	4b42                	c.lwsp	s6,16(sp)
    2626:	0905                	c.addi	s2,1
    2628:	49b2                	c.lwsp	s3,12(sp)
    262a:	9b66                	c.add	s6,s9
    262c:	9bea                	c.add	s7,s10
    262e:	9c42                	c.add	s8,a6
    2630:	0a91                	c.addi	s5,4
    2632:	f51961e3          	bltu	s2,a7,2574 <riscv_radix4_butterfly_inverse_q15+0x15c>
    2636:	883a                	c.mv	a6,a4
    2638:	4762                	c.lwsp	a4,24(sp)
    263a:	8e3e                	c.mv	t3,a5
    263c:	47d2                	c.lwsp	a5,20(sp)
    263e:	03276963          	bltu	a4,s2,2670 <riscv_radix4_butterfly_inverse_q15+0x258>
    2642:	002a1693          	slli	a3,s4,0x2
    2646:	00d80333          	add	t1,a6,a3
    264a:	4731                	c.li	a4,12
    264c:	02e50533          	mul	a0,a0,a4
    2650:	00d308b3          	add	a7,t1,a3
    2654:	4762                	c.lwsp	a4,24(sp)
    2656:	96c6                	c.add	a3,a7
    2658:	00032e83          	lw	t4,0(t1)
    265c:	0008ae83          	lw	t4,0(a7)
    2660:	0006ae83          	lw	t4,0(a3)
    2664:	0905                	c.addi	s2,1
    2666:	9366                	c.add	t1,s9
    2668:	98ea                	c.add	a7,s10
    266a:	96aa                	c.add	a3,a0
    266c:	ff2776e3          	bgeu	a4,s2,2658 <riscv_radix4_butterfly_inverse_q15+0x240>
    2670:	4711                	c.li	a4,4
    2672:	8566                	c.mv	a0,s9
    2674:	00f77e63          	bgeu	a4,a5,2690 <riscv_radix4_butterfly_inverse_q15+0x278>
    2678:	0027d693          	srli	a3,a5,0x2
    267c:	00279313          	slli	t1,a5,0x2
    2680:	82be                	c.mv	t0,a5
    2682:	fff68793          	addi	a5,a3,-1
    2686:	cc3e                	c.swsp	a5,24(sp)
    2688:	00269993          	slli	s3,a3,0x2
    268c:	87b6                	c.mv	a5,a3
    268e:	bd6d                	c.j	2548 <riscv_radix4_butterfly_inverse_q15+0x130>
    2690:	47f2                	c.lwsp	a5,28(sp)
    2692:	8672                	c.mv	a2,t3
    2694:	4398                	c.lw	a4,0(a5)
    2696:	00478e93          	addi	t4,a5,4
    269a:	000ea683          	lw	a3,0(t4)
    269e:	00878313          	addi	t1,a5,8
    26a2:	00032e03          	lw	t3,0(t1)
    26a6:	00c78893          	addi	a7,a5,12
    26aa:	0008a503          	lw	a0,0(a7)
    26ae:	11c705ff          	kadd16	a1,a4,t3
    26b2:	10a6887f          	kadd16	a6,a3,a0
    26b6:	0105887f          	radd16	a6,a1,a6
    26ba:	0107a023          	sw	a6,0(a5)
    26be:	10a6887f          	kadd16	a6,a3,a0
    26c2:	030585ff          	rsub16	a1,a1,a6
    26c6:	00bea023          	sw	a1,0(t4)
    26ca:	13c7077f          	ksub16	a4,a4,t3
    26ce:	12a686ff          	ksub16	a3,a3,a0
    26d2:	04d705ff          	rcras16	a1,a4,a3
    26d6:	00b32023          	sw	a1,0(t1)
    26da:	06d7077f          	rcrsa16	a4,a4,a3
    26de:	00e8a023          	sw	a4,0(a7)
    26e2:	167d                	c.addi	a2,-1
    26e4:	07c1                	c.addi	a5,16
    26e6:	f65d                	c.bnez	a2,2694 <riscv_radix4_butterfly_inverse_q15+0x27c>
    26e8:	4436                	c.lwsp	s0,76(sp)
    26ea:	44a6                	c.lwsp	s1,72(sp)
    26ec:	4916                	c.lwsp	s2,68(sp)
    26ee:	4986                	c.lwsp	s3,64(sp)
    26f0:	5a72                	c.lwsp	s4,60(sp)
    26f2:	5ae2                	c.lwsp	s5,56(sp)
    26f4:	5b52                	c.lwsp	s6,52(sp)
    26f6:	5bc2                	c.lwsp	s7,48(sp)
    26f8:	5c32                	c.lwsp	s8,44(sp)
    26fa:	5ca2                	c.lwsp	s9,40(sp)
    26fc:	5d12                	c.lwsp	s10,36(sp)
    26fe:	5d82                	c.lwsp	s11,32(sp)
    2700:	6161                	c.addi16sp	sp,80
    2702:	8082                	c.jr	ra

00002704 <riscv_cfft_init_4096_q15>:
    2704:	00088797          	auipc	a5,0x88
    2708:	94078793          	addi	a5,a5,-1728 # 8a044 <riscv_cfft_sR_q15_len4096>
    270c:	00c7d683          	lhu	a3,12(a5)
    2710:	4798                	c.lw	a4,8(a5)
    2712:	43dc                	c.lw	a5,4(a5)
    2714:	6605                	c.lui	a2,0x1
    2716:	00c51023          	sh	a2,0(a0)
    271a:	00d51623          	sh	a3,12(a0)
    271e:	c15c                	c.sw	a5,4(a0)
    2720:	c518                	c.sw	a4,8(a0)
    2722:	4501                	c.li	a0,0
    2724:	8082                	c.jr	ra
	...

00002728 <riscv_cfft_init_2048_q15>:
    2728:	00088797          	auipc	a5,0x88
    272c:	92c78793          	addi	a5,a5,-1748 # 8a054 <riscv_cfft_sR_q15_len2048>
    2730:	00c7d683          	lhu	a3,12(a5)
    2734:	4798                	c.lw	a4,8(a5)
    2736:	6605                	c.lui	a2,0x1
    2738:	43dc                	c.lw	a5,4(a5)
    273a:	80060613          	addi	a2,a2,-2048 # 800 <analog_read_reg8+0x4>
    273e:	00c51023          	sh	a2,0(a0)
    2742:	00d51623          	sh	a3,12(a0)
    2746:	c15c                	c.sw	a5,4(a0)
    2748:	c518                	c.sw	a4,8(a0)
    274a:	4501                	c.li	a0,0
    274c:	8082                	c.jr	ra
	...

00002750 <riscv_cfft_init_1024_q15>:
    2750:	00088797          	auipc	a5,0x88
    2754:	91478793          	addi	a5,a5,-1772 # 8a064 <riscv_cfft_sR_q15_len1024>
    2758:	00c7d683          	lhu	a3,12(a5)
    275c:	4798                	c.lw	a4,8(a5)
    275e:	43dc                	c.lw	a5,4(a5)
    2760:	40000613          	li	a2,1024
    2764:	00c51023          	sh	a2,0(a0)
    2768:	00d51623          	sh	a3,12(a0)
    276c:	c15c                	c.sw	a5,4(a0)
    276e:	c518                	c.sw	a4,8(a0)
    2770:	4501                	c.li	a0,0
    2772:	8082                	c.jr	ra

00002774 <riscv_cfft_init_512_q15>:
    2774:	00088797          	auipc	a5,0x88
    2778:	90078793          	addi	a5,a5,-1792 # 8a074 <riscv_cfft_sR_q15_len512>
    277c:	00c7d683          	lhu	a3,12(a5)
    2780:	4798                	c.lw	a4,8(a5)
    2782:	43dc                	c.lw	a5,4(a5)
    2784:	20000613          	li	a2,512
    2788:	00c51023          	sh	a2,0(a0)
    278c:	00d51623          	sh	a3,12(a0)
    2790:	c15c                	c.sw	a5,4(a0)
    2792:	c518                	c.sw	a4,8(a0)
    2794:	4501                	c.li	a0,0
    2796:	8082                	c.jr	ra

00002798 <riscv_cfft_init_256_q15>:
    2798:	00088797          	auipc	a5,0x88
    279c:	8ec78793          	addi	a5,a5,-1812 # 8a084 <riscv_cfft_sR_q15_len256>
    27a0:	00c7d683          	lhu	a3,12(a5)
    27a4:	4798                	c.lw	a4,8(a5)
    27a6:	43dc                	c.lw	a5,4(a5)
    27a8:	10000613          	li	a2,256
    27ac:	00c51023          	sh	a2,0(a0)
    27b0:	00d51623          	sh	a3,12(a0)
    27b4:	c15c                	c.sw	a5,4(a0)
    27b6:	c518                	c.sw	a4,8(a0)
    27b8:	4501                	c.li	a0,0
    27ba:	8082                	c.jr	ra

000027bc <riscv_cfft_init_128_q15>:
    27bc:	00088797          	auipc	a5,0x88
    27c0:	8d878793          	addi	a5,a5,-1832 # 8a094 <riscv_cfft_sR_q15_len128>
    27c4:	00c7d683          	lhu	a3,12(a5)
    27c8:	4798                	c.lw	a4,8(a5)
    27ca:	43dc                	c.lw	a5,4(a5)
    27cc:	08000613          	li	a2,128
    27d0:	00c51023          	sh	a2,0(a0)
    27d4:	00d51623          	sh	a3,12(a0)
    27d8:	c15c                	c.sw	a5,4(a0)
    27da:	c518                	c.sw	a4,8(a0)
    27dc:	4501                	c.li	a0,0
    27de:	8082                	c.jr	ra

000027e0 <riscv_cfft_init_64_q15>:
    27e0:	00088797          	auipc	a5,0x88
    27e4:	8c478793          	addi	a5,a5,-1852 # 8a0a4 <riscv_cfft_sR_q15_len64>
    27e8:	00c7d683          	lhu	a3,12(a5)
    27ec:	4798                	c.lw	a4,8(a5)
    27ee:	43dc                	c.lw	a5,4(a5)
    27f0:	04000613          	li	a2,64
    27f4:	00c51023          	sh	a2,0(a0)
    27f8:	00d51623          	sh	a3,12(a0)
    27fc:	c15c                	c.sw	a5,4(a0)
    27fe:	c518                	c.sw	a4,8(a0)
    2800:	4501                	c.li	a0,0
    2802:	8082                	c.jr	ra

00002804 <riscv_cfft_init_32_q15>:
    2804:	00088797          	auipc	a5,0x88
    2808:	8b078793          	addi	a5,a5,-1872 # 8a0b4 <riscv_cfft_sR_q15_len32>
    280c:	00c7d683          	lhu	a3,12(a5)
    2810:	4798                	c.lw	a4,8(a5)
    2812:	43dc                	c.lw	a5,4(a5)
    2814:	02000613          	li	a2,32
    2818:	00c51023          	sh	a2,0(a0)
    281c:	00d51623          	sh	a3,12(a0)
    2820:	c15c                	c.sw	a5,4(a0)
    2822:	c518                	c.sw	a4,8(a0)
    2824:	4501                	c.li	a0,0
    2826:	8082                	c.jr	ra

00002828 <riscv_cfft_init_16_q15>:
    2828:	00088797          	auipc	a5,0x88
    282c:	89c78793          	addi	a5,a5,-1892 # 8a0c4 <riscv_cfft_sR_q15_len16>
    2830:	00c7d683          	lhu	a3,12(a5)
    2834:	4798                	c.lw	a4,8(a5)
    2836:	43dc                	c.lw	a5,4(a5)
    2838:	4641                	c.li	a2,16
    283a:	00c51023          	sh	a2,0(a0)
    283e:	00d51623          	sh	a3,12(a0)
    2842:	c15c                	c.sw	a5,4(a0)
    2844:	c518                	c.sw	a4,8(a0)
    2846:	4501                	c.li	a0,0
    2848:	8082                	c.jr	ra
	...

0000284c <riscv_cfft_init_q15>:
    284c:	10000793          	li	a5,256
    2850:	04f58e63          	beq	a1,a5,28ac <riscv_cfft_init_q15+0x60>
    2854:	00b7fe63          	bgeu	a5,a1,2870 <riscv_cfft_init_q15+0x24>
    2858:	80058793          	addi	a5,a1,-2048 # 9800 <_RAMCODE_VMA_END+0x52d8>
    285c:	cbb1                	c.beqz	a5,28b0 <riscv_cfft_init_q15+0x64>
    285e:	6705                	c.lui	a4,0x1
    2860:	80070713          	addi	a4,a4,-2048 # 800 <analog_read_reg8+0x4>
    2864:	6785                	c.lui	a5,0x1
    2866:	02b77163          	bgeu	a4,a1,2888 <riscv_cfft_init_q15+0x3c>
    286a:	04f59563          	bne	a1,a5,28b4 <riscv_cfft_init_q15+0x68>
    286e:	bd59                	c.j	2704 <riscv_cfft_init_4096_q15>
    2870:	04000793          	li	a5,64
    2874:	04f58263          	beq	a1,a5,28b8 <riscv_cfft_init_q15+0x6c>
    2878:	02b7f263          	bgeu	a5,a1,289c <riscv_cfft_init_q15+0x50>
    287c:	08000793          	li	a5,128
    2880:	02f59a63          	bne	a1,a5,28b4 <riscv_cfft_init_q15+0x68>
    2884:	f39ff06f          	j	27bc <riscv_cfft_init_128_q15>
    2888:	20000793          	li	a5,512
    288c:	02f58863          	beq	a1,a5,28bc <riscv_cfft_init_q15+0x70>
    2890:	40000793          	li	a5,1024
    2894:	02f59063          	bne	a1,a5,28b4 <riscv_cfft_init_q15+0x68>
    2898:	eb9ff06f          	j	2750 <riscv_cfft_init_1024_q15>
    289c:	47c1                	c.li	a5,16
    289e:	02f58163          	beq	a1,a5,28c0 <riscv_cfft_init_q15+0x74>
    28a2:	02000793          	li	a5,32
    28a6:	00f59763          	bne	a1,a5,28b4 <riscv_cfft_init_q15+0x68>
    28aa:	bfa9                	c.j	2804 <riscv_cfft_init_32_q15>
    28ac:	eedff06f          	j	2798 <riscv_cfft_init_256_q15>
    28b0:	e79ff06f          	j	2728 <riscv_cfft_init_2048_q15>
    28b4:	557d                	c.li	a0,-1
    28b6:	8082                	c.jr	ra
    28b8:	f29ff06f          	j	27e0 <riscv_cfft_init_64_q15>
    28bc:	eb9ff06f          	j	2774 <riscv_cfft_init_512_q15>
    28c0:	b7a5                	c.j	2828 <riscv_cfft_init_16_q15>
	...

000028c4 <riscv_bitreversal_16>:
    28c4:	cda1                	c.beqz	a1,291c <riscv_bitreversal_16+0x58>
    28c6:	15fd                	c.addi	a1,-1
    28c8:	8185                	c.srli	a1,0x1
    28ca:	00259813          	slli	a6,a1,0x2
    28ce:	00460793          	addi	a5,a2,4
    28d2:	983e                	c.add	a6,a5
    28d4:	00265783          	lhu	a5,2(a2)
    28d8:	00065703          	lhu	a4,0(a2)
    28dc:	0611                	c.addi	a2,4
    28de:	8389                	c.srli	a5,0x2
    28e0:	0786                	c.slli	a5,0x1
    28e2:	8309                	c.srli	a4,0x2
    28e4:	00f506b3          	add	a3,a0,a5
    28e8:	0706                	c.slli	a4,0x1
    28ea:	0006d303          	lhu	t1,0(a3)
    28ee:	00e505b3          	add	a1,a0,a4
    28f2:	0005d883          	lhu	a7,0(a1)
    28f6:	0789                	c.addi	a5,2
    28f8:	00659023          	sh	t1,0(a1)
    28fc:	97aa                	c.add	a5,a0
    28fe:	0709                	c.addi	a4,2
    2900:	01169023          	sh	a7,0(a3)
    2904:	00a70733          	add	a4,a4,a0
    2908:	0007d583          	lhu	a1,0(a5) # 1000 <__vectors>
    290c:	00075683          	lhu	a3,0(a4)
    2910:	00b71023          	sh	a1,0(a4)
    2914:	00d79023          	sh	a3,0(a5)
    2918:	fac81ee3          	bne	a6,a2,28d4 <riscv_bitreversal_16+0x10>
    291c:	8082                	c.jr	ra
	...

00002920 <sinf>:
    2920:	3f491737          	lui	a4,0x3f491
    2924:	e00507d3          	fmv.x.w	a5,fa0
    2928:	fda70713          	addi	a4,a4,-38 # 3f490fda <_DATA_LMA_START+0x1f48c962>
    292c:	85be                	c.mv	a1,a5
    292e:	7807a6db          	bfoz	a3,a5,30,0
    2932:	02d76963          	bltu	a4,a3,2964 <sinf+0x44>
    2936:	39800737          	lui	a4,0x39800
    293a:	0ae6e963          	bltu	a3,a4,29ec <sinf+0xcc>
    293e:	10a577d3          	fmul.s	fa5,fa0,fa0
    2942:	801f970b          	addigp	a4,-2048 # 80000 <cst_libm_sincosf>
    2946:	20a505d3          	fmv.s	fa1,fa0
    294a:	6354                	c.flw	fa3,4(a4)
    294c:	6708                	c.flw	fa0,8(a4)
    294e:	6318                	c.flw	fa4,0(a4)
    2950:	68f57543          	fmadd.s	fa0,fa0,fa5,fa3
    2954:	70f57543          	fmadd.s	fa0,fa0,fa5,fa4
    2958:	10f57553          	fmul.s	fa0,fa0,fa5
    295c:	58a5f543          	fmadd.s	fa0,fa1,fa0,fa1
    2960:	00008067          	ret
    2964:	1101                	c.addi	sp,-32
    2966:	46491737          	lui	a4,0x46491
    296a:	ce06                	c.swsp	ra,28(sp)
    296c:	e4870713          	addi	a4,a4,-440 # 46490e48 <_DATA_LMA_START+0x2648c7d0>
    2970:	0ad76663          	bltu	a4,a3,2a1c <sinf+0xfc>
    2974:	0008a737          	lui	a4,0x8a
    2978:	0008a6b7          	lui	a3,0x8a
    297c:	0d46a587          	flw	fa1,212(a3) # 8a0d4 <riscv_cfft_sR_q15_len16+0x10>
    2980:	0ec72787          	flw	fa5,236(a4) # 8a0ec <cst_libm_rredf>
    2984:	0ed2970b          	addigp	a4,39148 # 8a0ec <cst_libm_rredf>
    2988:	6710                	c.flw	fa2,8(a4)
    298a:	58f577c3          	fmadd.s	fa5,fa0,fa5,fa1
    298e:	6754                	c.flw	fa3,12(a4)
    2990:	6b18                	c.flw	fa4,16(a4)
    2992:	6b48                	c.flw	fa0,20(a4)
    2994:	08b7f7d3          	fsub.s	fa5,fa5,fa1
    2998:	f00785d3          	fmv.w.x	fa1,a5
    299c:	58c7f64b          	fnmsub.s	fa2,fa5,fa2,fa1
    29a0:	c0079753          	fcvt.w.s	a4,fa5,rtz
    29a4:	60d7f6cb          	fnmsub.s	fa3,fa5,fa3,fa2
    29a8:	00177693          	andi	a3,a4,1
    29ac:	00277713          	andi	a4,a4,2
    29b0:	68e7f74b          	fnmsub.s	fa4,fa5,fa4,fa3
    29b4:	70a7f5cb          	fnmsub.s	fa1,fa5,fa0,fa4
    29b8:	e00587d3          	fmv.x.w	a5,fa1
    29bc:	f00785d3          	fmv.w.x	fa1,a5
    29c0:	10b5f7d3          	fmul.s	fa5,fa1,fa1
    29c4:	cec1                	c.beqz	a3,2a5c <sinf+0x13c>
    29c6:	801f978b          	addigp	a5,-2048 # 80000 <cst_libm_sincosf>
    29ca:	6f88                	c.flw	fa0,24(a5)
    29cc:	6bd0                	c.flw	fa2,20(a5)
    29ce:	6b94                	c.flw	fa3,16(a5)
    29d0:	67d8                	c.flw	fa4,12(a5)
    29d2:	60f57543          	fmadd.s	fa0,fa0,fa5,fa2
    29d6:	68f57543          	fmadd.s	fa0,fa0,fa5,fa3
    29da:	70f57543          	fmadd.s	fa0,fa0,fa5,fa4
    29de:	c319                	c.beqz	a4,29e4 <sinf+0xc4>
    29e0:	20a51553          	fneg.s	fa0,fa0
    29e4:	40f2                	c.lwsp	ra,28(sp)
    29e6:	6105                	c.addi16sp	sp,32
    29e8:	00008067          	ret
    29ec:	00179593          	slli	a1,a5,0x1
    29f0:	ff000737          	lui	a4,0xff000
    29f4:	00e5e863          	bltu	a1,a4,2a04 <sinf+0xe4>
    29f8:	00e58863          	beq	a1,a4,2a08 <sinf+0xe8>
    29fc:	00a57553          	fadd.s	fa0,fa0,fa0
    2a00:	00008067          	ret
    2a04:	00008067          	ret
    2a08:	02100713          	li	a4,33
    2a0c:	f0000553          	fmv.w.x	fa0,zero
    2a10:	1ae2c2ab          	swgp	a4,39332 # 8a1a4 <__mculib_REENT_errno>
    2a14:	18a57553          	fdiv.s	fa0,fa0,fa0
    2a18:	00008067          	ret
    2a1c:	0068                	c.addi4spn	a0,sp,12
    2a1e:	28b9                	c.jal	2a7c <ref__mathlib_rredf2>
    2a20:	4732                	c.lwsp	a4,12(sp)
    2a22:	e00507d3          	fmv.x.w	a5,fa0
    2a26:	02075763          	bgez	a4,2a54 <sinf+0x134>
    2a2a:	00179593          	slli	a1,a5,0x1
    2a2e:	ff000737          	lui	a4,0xff000
    2a32:	fae5e9e3          	bltu	a1,a4,29e4 <sinf+0xc4>
    2a36:	00e58563          	beq	a1,a4,2a40 <sinf+0x120>
    2a3a:	00a57553          	fadd.s	fa0,fa0,fa0
    2a3e:	b75d                	c.j	29e4 <sinf+0xc4>
    2a40:	f0000553          	fmv.w.x	fa0,zero
    2a44:	02100713          	li	a4,33
    2a48:	1ae2c2ab          	swgp	a4,39332 # 8a1a4 <__mculib_REENT_errno>
    2a4c:	18a57553          	fdiv.s	fa0,fa0,fa0
    2a50:	f95ff06f          	j	29e4 <sinf+0xc4>
    2a54:	00177693          	andi	a3,a4,1
    2a58:	8b09                	c.andi	a4,2
    2a5a:	b78d                	c.j	29bc <sinf+0x9c>
    2a5c:	801f968b          	addigp	a3,-2048 # 80000 <cst_libm_sincosf>
    2a60:	6688                	c.flw	fa0,8(a3)
    2a62:	62d4                	c.flw	fa3,4(a3)
    2a64:	6298                	c.flw	fa4,0(a3)
    2a66:	68f57543          	fmadd.s	fa0,fa0,fa5,fa3
    2a6a:	70f57543          	fmadd.s	fa0,fa0,fa5,fa4
    2a6e:	10f57553          	fmul.s	fa0,fa0,fa5
    2a72:	58a5f543          	fmadd.s	fa0,fa1,fa0,fa1
    2a76:	f72d                	c.bnez	a4,29e0 <sinf+0xc0>
    2a78:	b7b5                	c.j	29e4 <sinf+0xc4>
    2a7a:	0001                	c.nop

00002a7c <ref__mathlib_rredf2>:
    2a7c:	00159713          	slli	a4,a1,0x1
    2a80:	ff0007b7          	lui	a5,0xff000
    2a84:	12f77663          	bgeu	a4,a5,2bb0 <ref__mathlib_rredf2+0x134>
    2a88:	7975a7db          	bfoz	a5,a1,30,23
    2a8c:	f8878793          	addi	a5,a5,-120 # feffff88 <_DATA_LMA_START+0xdeffb910>
    2a90:	4057d613          	srai	a2,a5,0x5
    2a94:	1052968b          	addigp	a3,39172 # 8a104 <twooverpi.2618>
    2a98:	0cc688db          	lea.w	a7,a3,a2
    2a9c:	00859313          	slli	t1,a1,0x8
    2aa0:	80000e37          	lui	t3,0x80000
    2aa4:	8bfd                	c.andi	a5,31
    2aa6:	01c36e33          	or	t3,t1,t3
    2aaa:	0048a703          	lw	a4,4(a7)
    2aae:	0008a303          	lw	t1,0(a7)
    2ab2:	0088a803          	lw	a6,8(a7)
    2ab6:	cb8d                	c.beqz	a5,2ae8 <ref__mathlib_rredf2+0x6c>
    2ab8:	00c8a603          	lw	a2,12(a7)
    2abc:	02000693          	li	a3,32
    2ac0:	40f686b3          	sub	a3,a3,a5
    2ac4:	00d75eb3          	srl	t4,a4,a3
    2ac8:	00d858b3          	srl	a7,a6,a3
    2acc:	00f31333          	sll	t1,t1,a5
    2ad0:	00f71733          	sll	a4,a4,a5
    2ad4:	00f81833          	sll	a6,a6,a5
    2ad8:	00d656b3          	srl	a3,a2,a3
    2adc:	006ee333          	or	t1,t4,t1
    2ae0:	00e8e733          	or	a4,a7,a4
    2ae4:	0106e833          	or	a6,a3,a6
    2ae8:	f0ee167f          	mulr64	a2,t3,a4
    2aec:	f10e187f          	mulr64	a6,t3,a6
    2af0:	f1c3137f          	mulr64	t1,t1,t3
    2af4:	00c88733          	add	a4,a7,a2
    2af8:	006687b3          	add	a5,a3,t1
    2afc:	01173e33          	sltu	t3,a4,a7
    2b00:	01c787b3          	add	a5,a5,t3
    2b04:	0b176063          	bltu	a4,a7,2ba4 <ref__mathlib_rredf2+0x128>
    2b08:	00d7b633          	sltu	a2,a5,a3
    2b0c:	961e                	c.add	a2,t2
    2b0e:	0137d693          	srli	a3,a5,0x13
    2b12:	01a61813          	slli	a6,a2,0x1a
    2b16:	06b6                	c.slli	a3,0xd
    2b18:	0106e6b3          	or	a3,a3,a6
    2b1c:	07b6                	c.slli	a5,0xd
    2b1e:	d006f6d3          	fcvt.s.w	fa3,a3
    2b22:	0008a6b7          	lui	a3,0x8a
    2b26:	0d86a587          	flw	fa1,216(a3) # 8a0d8 <riscv_cfft_sR_q15_len16+0x14>
    2b2a:	d017f753          	fcvt.s.wu	fa4,a5
    2b2e:	0008a7b7          	lui	a5,0x8a
    2b32:	0dc7a607          	flw	fa2,220(a5) # 8a0dc <riscv_cfft_sR_q15_len16+0x18>
    2b36:	d0177553          	fcvt.s.wu	fa0,a4
    2b3a:	6685                	c.lui	a3,0x1
    2b3c:	80068693          	addi	a3,a3,-2048 # 800 <analog_read_reg8+0x4>
    2b40:	68b777c3          	fmadd.s	fa5,fa4,fa1,fa3
    2b44:	777d                	c.lui	a4,0xfffff
    2b46:	02060613          	addi	a2,a2,32
    2b4a:	8219                	c.srli	a2,0x6
    2b4c:	78c577c3          	fmadd.s	fa5,fa0,fa2,fa5
    2b50:	e00787d3          	fmv.x.w	a5,fa5
    2b54:	97b6                	c.add	a5,a3
    2b56:	8ff9                	c.and	a5,a4
    2b58:	f00787d3          	fmv.w.x	fa5,a5
    2b5c:	08d7f6d3          	fsub.s	fa3,fa5,fa3
    2b60:	0008a737          	lui	a4,0x8a
    2b64:	68b7774b          	fnmsub.s	fa4,fa4,fa1,fa3
    2b68:	70c57747          	fmsub.s	fa4,fa0,fa2,fa4
    2b6c:	0e072507          	flw	fa0,224(a4) # 8a0e0 <riscv_cfft_sR_q15_len16+0x1c>
    2b70:	0008a737          	lui	a4,0x8a
    2b74:	f0078653          	fmv.w.x	fa2,a5
    2b78:	10a77753          	fmul.s	fa4,fa4,fa0
    2b7c:	0e472507          	flw	fa0,228(a4) # 8a0e4 <riscv_cfft_sR_q15_len16+0x20>
    2b80:	0008a737          	lui	a4,0x8a
    2b84:	70a7f543          	fmadd.s	fa0,fa5,fa0,fa4
    2b88:	0e872787          	flw	fa5,232(a4) # 8a0e8 <riscv_cfft_sR_q15_len16+0x24>
    2b8c:	50f67543          	fmadd.s	fa0,fa2,fa5,fa0
    2b90:	0005d863          	bgez	a1,2ba0 <ref__mathlib_rredf2+0x124>
    2b94:	20a51553          	fneg.s	fa0,fa0
    2b98:	100007b7          	lui	a5,0x10000
    2b9c:	40c78633          	sub	a2,a5,a2
    2ba0:	c110                	c.sw	a2,0(a0)
    2ba2:	8082                	c.jr	ra
    2ba4:	00f6b633          	sltu	a2,a3,a5
    2ba8:	00164613          	xori	a2,a2,1
    2bac:	f61ff06f          	j	2b0c <ref__mathlib_rredf2+0x90>
    2bb0:	57fd                	c.li	a5,-1
    2bb2:	c11c                	c.sw	a5,0(a0)
    2bb4:	8082                	c.jr	ra
    2bb6:	0001                	c.nop

00002bb8 <__muldf3>:
    2bb8:	1101                	c.addi	sp,-32
    2bba:	ce22                	c.swsp	s0,28(sp)
    2bbc:	cc26                	c.swsp	s1,24(sp)
    2bbe:	ca4a                	c.swsp	s2,20(sp)
    2bc0:	c84e                	c.swsp	s3,16(sp)
    2bc2:	c652                	c.swsp	s4,12(sp)
    2bc4:	c456                	c.swsp	s5,8(sp)
    2bc6:	c25a                	c.swsp	s6,4(sp)
    2bc8:	00202373          	frrm	t1
    2bcc:	7945a75b          	bfoz	a4,a1,30,20
    2bd0:	4c05a7db          	bfoz	a5,a1,19,0
    2bd4:	81fd                	c.srli	a1,0x1f
    2bd6:	10070963          	beqz	a4,2ce8 <__muldf3+0x130>
    2bda:	7ff00813          	li	a6,2047
    2bde:	07070963          	beq	a4,a6,2c50 <__muldf3+0x98>
    2be2:	00800837          	lui	a6,0x800
    2be6:	078e                	c.slli	a5,0x3
    2be8:	01d55293          	srli	t0,a0,0x1d
    2bec:	0107e7b3          	or	a5,a5,a6
    2bf0:	c0170e13          	addi	t3,a4,-1023
    2bf4:	00f2e2b3          	or	t0,t0,a5
    2bf8:	050e                	c.slli	a0,0x3
    2bfa:	4701                	c.li	a4,0
    2bfc:	4381                	c.li	t2,0
    2bfe:	4801                	c.li	a6,0
    2c00:	7946a8db          	bfoz	a7,a3,30,20
    2c04:	4c06a7db          	bfoz	a5,a3,19,0
    2c08:	01f6d693          	srli	a3,a3,0x1f
    2c0c:	12088a63          	beqz	a7,2d40 <__muldf3+0x188>
    2c10:	7ff00e93          	li	t4,2047
    2c14:	17d88a63          	beq	a7,t4,2d88 <__muldf3+0x1d0>
    2c18:	00800f37          	lui	t5,0x800
    2c1c:	078e                	c.slli	a5,0x3
    2c1e:	01d65e93          	srli	t4,a2,0x1d
    2c22:	01e7e7b3          	or	a5,a5,t5
    2c26:	c0188893          	addi	a7,a7,-1023
    2c2a:	00fee7b3          	or	a5,t4,a5
    2c2e:	060e                	c.slli	a2,0x3
    2c30:	9e46                	c.add	t3,a7
    2c32:	4f01                	c.li	t5,0
    2c34:	48bd                	c.li	a7,15
    2c36:	00d5ceb3          	xor	t4,a1,a3
    2c3a:	001e0f93          	addi	t6,t3,1 # 80000001 <_DATA_LMA_START+0x5fffb989>
    2c3e:	16e8e363          	bltu	a7,a4,2da4 <__muldf3+0x1ec>
    2c42:	1252988b          	addigp	a7,39204 # 8a124 <twooverpi.2618+0x20>
    2c46:	0ce8875b          	lea.w	a4,a7,a4
    2c4a:	4318                	c.lw	a4,0(a4)
    2c4c:	00070067          	jr	a4
    2c50:	00a7e2b3          	or	t0,a5,a0
    2c54:	32028263          	beqz	t0,2f78 <__muldf3+0x3c0>
    2c58:	0137d713          	srli	a4,a5,0x13
    2c5c:	82be                	c.mv	t0,a5
    2c5e:	46070563          	beqz	a4,30c8 <__muldf3+0x510>
    2c62:	4731                	c.li	a4,12
    2c64:	7ff00e13          	li	t3,2047
    2c68:	438d                	c.li	t2,3
    2c6a:	4801                	c.li	a6,0
    2c6c:	f95ff06f          	j	2c00 <__muldf3+0x48>
    2c70:	00d00eb3          	add	t4,zero,a3
    2c74:	062f605b          	bnec	t5,2,2cd4 <__muldf3+0x11c>
    2c78:	88f6                	c.mv	a7,t4
    2c7a:	7ff00713          	li	a4,2047
    2c7e:	4781                	c.li	a5,0
    2c80:	00000613          	li	a2,0
    2c84:	4581                	c.li	a1,0
    2c86:	fff006b7          	lui	a3,0xfff00
    2c8a:	8eed                	c.and	a3,a1
    2c8c:	4c07a7db          	bfoz	a5,a5,19,0
    2c90:	8fd5                	c.or	a5,a3
    2c92:	01471693          	slli	a3,a4,0x14
    2c96:	80100737          	lui	a4,0x80100
    2c9a:	177d                	c.addi	a4,-1
    2c9c:	8f7d                	c.and	a4,a5
    2c9e:	8f55                	c.or	a4,a3
    2ca0:	08fe                	c.slli	a7,0x1f
    2ca2:	7807275b          	bfoz	a4,a4,30,0
    2ca6:	8532                	c.mv	a0,a2
    2ca8:	011765b3          	or	a1,a4,a7
    2cac:	3e081e63          	bnez	a6,30a8 <__muldf3+0x4f0>
    2cb0:	4472                	c.lwsp	s0,28(sp)
    2cb2:	44e2                	c.lwsp	s1,24(sp)
    2cb4:	4952                	c.lwsp	s2,20(sp)
    2cb6:	49c2                	c.lwsp	s3,16(sp)
    2cb8:	4a32                	c.lwsp	s4,12(sp)
    2cba:	4aa2                	c.lwsp	s5,8(sp)
    2cbc:	4b12                	c.lwsp	s6,4(sp)
    2cbe:	6105                	c.addi16sp	sp,32
    2cc0:	00008067          	ret
    2cc4:	00b00eb3          	add	t4,zero,a1
    2cc8:	8f1e                	c.mv	t5,t2
    2cca:	8796                	c.mv	a5,t0
    2ccc:	00a00633          	add	a2,zero,a0
    2cd0:	ba2f545b          	beqc	t5,2,2c78 <__muldf3+0xc0>
    2cd4:	363f525b          	beqc	t5,3,3038 <__muldf3+0x480>
    2cd8:	221f685b          	bnec	t5,1,2f08 <__muldf3+0x350>
    2cdc:	88f6                	c.mv	a7,t4
    2cde:	4701                	c.li	a4,0
    2ce0:	4781                	c.li	a5,0
    2ce2:	4601                	c.li	a2,0
    2ce4:	fa1ff06f          	j	2c84 <__muldf3+0xcc>
    2ce8:	00a7e2b3          	or	t0,a5,a0
    2cec:	28028063          	beqz	t0,2f6c <__muldf3+0x3b4>
    2cf0:	af97877f          	clz32	a4,a5
    2cf4:	00079663          	bnez	a5,2d00 <__muldf3+0x148>
    2cf8:	af95077f          	clz32	a4,a0
    2cfc:	02070713          	addi	a4,a4,32 # 80100020 <_DATA_LMA_START+0x600fb9a8>
    2d00:	ff570893          	addi	a7,a4,-11
    2d04:	4871                	c.li	a6,28
    2d06:	3b184b63          	blt	a6,a7,30bc <__muldf3+0x504>
    2d0a:	42f5                	c.li	t0,29
    2d0c:	ff870813          	addi	a6,a4,-8
    2d10:	411282b3          	sub	t0,t0,a7
    2d14:	005552b3          	srl	t0,a0,t0
    2d18:	010797b3          	sll	a5,a5,a6
    2d1c:	00f2e2b3          	or	t0,t0,a5
    2d20:	01051533          	sll	a0,a0,a6
    2d24:	c0d00e13          	li	t3,-1011
    2d28:	7946a8db          	bfoz	a7,a3,30,20
    2d2c:	40ee0e33          	sub	t3,t3,a4
    2d30:	4c06a7db          	bfoz	a5,a3,19,0
    2d34:	4701                	c.li	a4,0
    2d36:	4381                	c.li	t2,0
    2d38:	4801                	c.li	a6,0
    2d3a:	82fd                	c.srli	a3,0x1f
    2d3c:	ec089ae3          	bnez	a7,2c10 <__muldf3+0x58>
    2d40:	00c7e8b3          	or	a7,a5,a2
    2d44:	24088263          	beqz	a7,2f88 <__muldf3+0x3d0>
    2d48:	af9788ff          	clz32	a7,a5
    2d4c:	00079663          	bnez	a5,2d58 <__muldf3+0x1a0>
    2d50:	af9608ff          	clz32	a7,a2
    2d54:	02088893          	addi	a7,a7,32
    2d58:	ff588f93          	addi	t6,a7,-11
    2d5c:	4ef1                	c.li	t4,28
    2d5e:	35fec963          	blt	t4,t6,30b0 <__muldf3+0x4f8>
    2d62:	4ef5                	c.li	t4,29
    2d64:	ff888f13          	addi	t5,a7,-8
    2d68:	41fe8eb3          	sub	t4,t4,t6
    2d6c:	01d65eb3          	srl	t4,a2,t4
    2d70:	01e797b3          	sll	a5,a5,t5
    2d74:	00fee7b3          	or	a5,t4,a5
    2d78:	01e61633          	sll	a2,a2,t5
    2d7c:	411e0e33          	sub	t3,t3,a7
    2d80:	c0de0e13          	addi	t3,t3,-1011
    2d84:	4f01                	c.li	t5,0
    2d86:	b57d                	c.j	2c34 <__muldf3+0x7c>
    2d88:	00c7e8b3          	or	a7,a5,a2
    2d8c:	7ffe0e13          	addi	t3,t3,2047
    2d90:	20088263          	beqz	a7,2f94 <__muldf3+0x3dc>
    2d94:	00376713          	ori	a4,a4,3
    2d98:	4f0d                	c.li	t5,3
    2d9a:	e937fd5b          	bbs	a5,19,2c34 <__muldf3+0x7c>
    2d9e:	4841                	c.li	a6,16
    2da0:	e95ff06f          	j	2c34 <__muldf3+0x7c>
    2da4:	6f41                	c.lui	t5,0x10
    2da6:	ffff0713          	addi	a4,t5,-1 # ffff <BIN_SIZE+0x17dd>
    2daa:	00e678b3          	and	a7,a2,a4
    2dae:	01055393          	srli	t2,a0,0x10
    2db2:	031385b3          	mul	a1,t2,a7
    2db6:	8d79                	c.and	a0,a4
    2db8:	01065913          	srli	s2,a2,0x10
    2dbc:	02a886b3          	mul	a3,a7,a0
    2dc0:	862e                	c.mv	a2,a1
    2dc2:	c4a9167f          	maddr32	a2,s2,a0
    2dc6:	03238733          	mul	a4,t2,s2
    2dca:	0106d413          	srli	s0,a3,0x10
    2dce:	9432                	c.add	s0,a2
    2dd0:	00b47463          	bgeu	s0,a1,2dd8 <__muldf3+0x220>
    2dd4:	01e70733          	add	a4,a4,t5
    2dd8:	6b41                	c.lui	s6,0x10
    2dda:	fffb0f13          	addi	t5,s6,-1 # ffff <BIN_SIZE+0x17dd>
    2dde:	01e7f5b3          	and	a1,a5,t5
    2de2:	02b38a33          	mul	s4,t2,a1
    2de6:	0107d993          	srli	s3,a5,0x10
    2dea:	01e47633          	and	a2,s0,t5
    2dee:	01e6f6b3          	and	a3,a3,t5
    2df2:	0642                	c.slli	a2,0x10
    2df4:	00d60f33          	add	t5,a2,a3
    2df8:	02b50ab3          	mul	s5,a0,a1
    2dfc:	01045493          	srli	s1,s0,0x10
    2e00:	87d2                	c.mv	a5,s4
    2e02:	c4a997ff          	maddr32	a5,s3,a0
    2e06:	033383b3          	mul	t2,t2,s3
    2e0a:	010ad693          	srli	a3,s5,0x10
    2e0e:	96be                	c.add	a3,a5
    2e10:	0146f463          	bgeu	a3,s4,2e18 <__muldf3+0x260>
    2e14:	016383b3          	add	t2,t2,s6
    2e18:	6b41                	c.lui	s6,0x10
    2e1a:	fffb0413          	addi	s0,s6,-1 # ffff <BIN_SIZE+0x17dd>
    2e1e:	0102da13          	srli	s4,t0,0x10
    2e22:	0082f7b3          	and	a5,t0,s0
    2e26:	031a02b3          	mul	t0,s4,a7
    2e2a:	0086f633          	and	a2,a3,s0
    2e2e:	82c1                	c.srli	a3,0x10
    2e30:	93b6                	c.add	t2,a3
    2e32:	0642                	c.slli	a2,0x10
    2e34:	008afab3          	and	s5,s5,s0
    2e38:	02f888b3          	mul	a7,a7,a5
    2e3c:	01560433          	add	s0,a2,s5
    2e40:	94a2                	c.add	s1,s0
    2e42:	8696                	c.mv	a3,t0
    2e44:	c4f916ff          	maddr32	a3,s2,a5
    2e48:	03490633          	mul	a2,s2,s4
    2e4c:	0108d513          	srli	a0,a7,0x10
    2e50:	9536                	c.add	a0,a3
    2e52:	00557363          	bgeu	a0,t0,2e58 <__muldf3+0x2a0>
    2e56:	965a                	c.add	a2,s6
    2e58:	02ba0ab3          	mul	s5,s4,a1
    2e5c:	6b41                	c.lui	s6,0x10
    2e5e:	fffb0293          	addi	t0,s6,-1 # ffff <BIN_SIZE+0x17dd>
    2e62:	005576b3          	and	a3,a0,t0
    2e66:	06c2                	c.slli	a3,0x10
    2e68:	0058f8b3          	and	a7,a7,t0
    2e6c:	02b78933          	mul	s2,a5,a1
    2e70:	98b6                	c.add	a7,a3
    2e72:	8141                	c.srli	a0,0x10
    2e74:	9532                	c.add	a0,a2
    2e76:	85d6                	c.mv	a1,s5
    2e78:	c4f995ff          	maddr32	a1,s3,a5
    2e7c:	034982b3          	mul	t0,s3,s4
    2e80:	01095693          	srli	a3,s2,0x10
    2e84:	00b687b3          	add	a5,a3,a1
    2e88:	0157f463          	bgeu	a5,s5,2e90 <__muldf3+0x2d8>
    2e8c:	016282b3          	add	t0,t0,s6
    2e90:	65c1                	c.lui	a1,0x10
    2e92:	15fd                	c.addi	a1,-1
    2e94:	00b7f6b3          	and	a3,a5,a1
    2e98:	06c2                	c.slli	a3,0x10
    2e9a:	00b975b3          	and	a1,s2,a1
    2e9e:	9726                	c.add	a4,s1
    2ea0:	96ae                	c.add	a3,a1
    2ea2:	00873633          	sltu	a2,a4,s0
    2ea6:	969e                	c.add	a3,t2
    2ea8:	9746                	c.add	a4,a7
    2eaa:	00c684b3          	add	s1,a3,a2
    2eae:	011735b3          	sltu	a1,a4,a7
    2eb2:	00a488b3          	add	a7,s1,a0
    2eb6:	00b88433          	add	s0,a7,a1
    2eba:	00c4b633          	sltu	a2,s1,a2
    2ebe:	0076b6b3          	sltu	a3,a3,t2
    2ec2:	8ed1                	c.or	a3,a2
    2ec4:	00b435b3          	sltu	a1,s0,a1
    2ec8:	83c1                	c.srli	a5,0x10
    2eca:	00a8b533          	sltu	a0,a7,a0
    2ece:	97b6                	c.add	a5,a3
    2ed0:	8dc9                	c.or	a1,a0
    2ed2:	00971613          	slli	a2,a4,0x9
    2ed6:	97ae                	c.add	a5,a1
    2ed8:	9796                	c.add	a5,t0
    2eda:	01e66633          	or	a2,a2,t5
    2ede:	01745693          	srli	a3,s0,0x17
    2ee2:	07a6                	c.slli	a5,0x9
    2ee4:	00c03633          	snez	a2,a2
    2ee8:	835d                	c.srli	a4,0x17
    2eea:	8e59                	c.or	a2,a4
    2eec:	0426                	c.slli	s0,0x9
    2eee:	8fd5                	c.or	a5,a3
    2ef0:	8e41                	c.or	a2,s0
    2ef2:	1f87f15b          	bbc	a5,24,30d4 <__muldf3+0x51c>
    2ef6:	00165713          	srli	a4,a2,0x1
    2efa:	8a05                	c.andi	a2,1
    2efc:	01f79693          	slli	a3,a5,0x1f
    2f00:	8e59                	c.or	a2,a4
    2f02:	8e55                	c.or	a2,a3
    2f04:	0017d793          	srli	a5,a5,0x1
    2f08:	3fff8713          	addi	a4,t6,1023
    2f0c:	0ae05263          	blez	a4,2fb0 <__muldf3+0x3f8>
    2f10:	00767693          	andi	a3,a2,7
    2f14:	c685                	c.beqz	a3,2f3c <__muldf3+0x384>
    2f16:	00186813          	ori	a6,a6,1
    2f1a:	1c235f5b          	beqc	t1,2,30f8 <__muldf3+0x540>
    2f1e:	2633535b          	beqc	t1,3,3184 <__muldf3+0x5cc>
    2f22:	00031d63          	bnez	t1,2f3c <__muldf3+0x384>
    2f26:	00f67693          	andi	a3,a2,15
    2f2a:	0046d95b          	beqc	a3,4,2f3c <__muldf3+0x384>
    2f2e:	00460693          	addi	a3,a2,4
    2f32:	00c6b633          	sltu	a2,a3,a2
    2f36:	97b2                	c.add	a5,a2
    2f38:	00d00633          	add	a2,zero,a3
    2f3c:	0187f85b          	bbc	a5,24,2f4c <__muldf3+0x394>
    2f40:	ff000737          	lui	a4,0xff000
    2f44:	177d                	c.addi	a4,-1
    2f46:	8ff9                	c.and	a5,a4
    2f48:	400f8713          	addi	a4,t6,1024
    2f4c:	7fe00693          	li	a3,2046
    2f50:	88f6                	c.mv	a7,t4
    2f52:	18e6c363          	blt	a3,a4,30d8 <__muldf3+0x520>
    2f56:	00365693          	srli	a3,a2,0x3
    2f5a:	01d79613          	slli	a2,a5,0x1d
    2f5e:	8e55                	c.or	a2,a3
    2f60:	5837a7db          	bfoz	a5,a5,22,3
    2f64:	7ff77713          	andi	a4,a4,2047
    2f68:	d1dff06f          	j	2c84 <__muldf3+0xcc>
    2f6c:	4711                	c.li	a4,4
    2f6e:	4501                	c.li	a0,0
    2f70:	4e01                	c.li	t3,0
    2f72:	4385                	c.li	t2,1
    2f74:	4801                	c.li	a6,0
    2f76:	b169                	c.j	2c00 <__muldf3+0x48>
    2f78:	4721                	c.li	a4,8
    2f7a:	4501                	c.li	a0,0
    2f7c:	7ff00e13          	li	t3,2047
    2f80:	4389                	c.li	t2,2
    2f82:	4801                	c.li	a6,0
    2f84:	c7dff06f          	j	2c00 <__muldf3+0x48>
    2f88:	00176713          	ori	a4,a4,1
    2f8c:	4781                	c.li	a5,0
    2f8e:	4601                	c.li	a2,0
    2f90:	4f05                	c.li	t5,1
    2f92:	b14d                	c.j	2c34 <__muldf3+0x7c>
    2f94:	00276713          	ori	a4,a4,2
    2f98:	4781                	c.li	a5,0
    2f9a:	4601                	c.li	a2,0
    2f9c:	4f09                	c.li	t5,2
    2f9e:	b959                	c.j	2c34 <__muldf3+0x7c>
    2fa0:	4881                	c.li	a7,0
    2fa2:	7ff00713          	li	a4,2047
    2fa6:	000807b7          	lui	a5,0x80
    2faa:	4601                	c.li	a2,0
    2fac:	4841                	c.li	a6,16
    2fae:	b9d9                	c.j	2c84 <__muldf3+0xcc>
    2fb0:	4685                	c.li	a3,1
    2fb2:	8e99                	c.sub	a3,a4
    2fb4:	eb51                	c.bnez	a4,3048 <__muldf3+0x490>
    2fb6:	00767593          	andi	a1,a2,7
    2fba:	873e                	c.mv	a4,a5
    2fbc:	00058a63          	beqz	a1,2fd0 <__muldf3+0x418>
    2fc0:	00186813          	ori	a6,a6,1
    2fc4:	1e23565b          	beqc	t1,2,31b0 <__muldf3+0x5f8>
    2fc8:	1c335c5b          	beqc	t1,3,31a0 <__muldf3+0x5e8>
    2fcc:	1e030663          	beqz	t1,31b8 <__muldf3+0x600>
    2fd0:	01875593          	srli	a1,a4,0x18
    2fd4:	0015c593          	xori	a1,a1,1
    2fd8:	0015f593          	andi	a1,a1,1
    2fdc:	41ef8f93          	addi	t6,t6,1054
    2fe0:	01f61733          	sll	a4,a2,t6
    2fe4:	00d65533          	srl	a0,a2,a3
    2fe8:	01f79fb3          	sll	t6,a5,t6
    2fec:	00e03633          	snez	a2,a4
    2ff0:	00afefb3          	or	t6,t6,a0
    2ff4:	01f66633          	or	a2,a2,t6
    2ff8:	00767713          	andi	a4,a2,7
    2ffc:	00d7d7b3          	srl	a5,a5,a3
    3000:	00070a63          	beqz	a4,3014 <__muldf3+0x45c>
    3004:	00186813          	ori	a6,a6,1
    3008:	1c23545b          	beqc	t1,2,31d0 <__muldf3+0x618>
    300c:	1c335e5b          	beqc	t1,3,31e8 <__muldf3+0x630>
    3010:	14030a63          	beqz	t1,3164 <__muldf3+0x5ac>
    3014:	1777fc5b          	bbc	a5,23,318c <__muldf3+0x5d4>
    3018:	00186813          	ori	a6,a6,1
    301c:	4705                	c.li	a4,1
    301e:	4781                	c.li	a5,0
    3020:	00000613          	li	a2,0
    3024:	01d008b3          	add	a7,zero,t4
    3028:	c4058ee3          	beqz	a1,2c84 <__muldf3+0xcc>
    302c:	84087c5b          	bbc	a6,0,2c84 <__muldf3+0xcc>
    3030:	00286813          	ori	a6,a6,2
    3034:	04c0006f          	j	3080 <__muldf3+0x4c8>
    3038:	4881                	c.li	a7,0
    303a:	7ff00713          	li	a4,2047
    303e:	000807b7          	lui	a5,0x80
    3042:	4601                	c.li	a2,0
    3044:	c41ff06f          	j	2c84 <__muldf3+0xcc>
    3048:	03800593          	li	a1,56
    304c:	0cd5da63          	bge	a1,a3,3120 <__muldf3+0x568>
    3050:	8e5d                	c.or	a2,a5
    3052:	c20d                	c.beqz	a2,3074 <__muldf3+0x4bc>
    3054:	00186813          	ori	a6,a6,1
    3058:	01d03633          	snez	a2,t4
    305c:	00235c5b          	beqc	t1,2,3074 <__muldf3+0x4bc>
    3060:	ffd30793          	addi	a5,t1,-3
    3064:	0017b793          	seqz	a5,a5
    3068:	001eb613          	seqz	a2,t4
    306c:	40f007b3          	neg	a5,a5
    3070:	00f67633          	and	a2,a2,a5
    3074:	00286813          	ori	a6,a6,2
    3078:	88f6                	c.mv	a7,t4
    307a:	4701                	c.li	a4,0
    307c:	00000793          	li	a5,0
    3080:	4581                	c.li	a1,0
    3082:	fff006b7          	lui	a3,0xfff00
    3086:	8eed                	c.and	a3,a1
    3088:	4c07a7db          	bfoz	a5,a5,19,0
    308c:	8fd5                	c.or	a5,a3
    308e:	801006b7          	lui	a3,0x80100
    3092:	16fd                	c.addi	a3,-1
    3094:	0752                	c.slli	a4,0x14
    3096:	8efd                	c.and	a3,a5
    3098:	8f55                	c.or	a4,a3
    309a:	08fe                	c.slli	a7,0x1f
    309c:	7807275b          	bfoz	a4,a4,30,0
    30a0:	00c00533          	add	a0,zero,a2
    30a4:	011765b3          	or	a1,a4,a7
    30a8:	00182073          	csrs	fflags,a6
    30ac:	c05ff06f          	j	2cb0 <__muldf3+0xf8>
    30b0:	fd888793          	addi	a5,a7,-40
    30b4:	00f617b3          	sll	a5,a2,a5
    30b8:	4601                	c.li	a2,0
    30ba:	b1c9                	c.j	2d7c <__muldf3+0x1c4>
    30bc:	fd870793          	addi	a5,a4,-40 # feffffd8 <_DATA_LMA_START+0xdeffb960>
    30c0:	00f512b3          	sll	t0,a0,a5
    30c4:	4501                	c.li	a0,0
    30c6:	b9b9                	c.j	2d24 <__muldf3+0x16c>
    30c8:	4731                	c.li	a4,12
    30ca:	7ff00e13          	li	t3,2047
    30ce:	438d                	c.li	t2,3
    30d0:	4841                	c.li	a6,16
    30d2:	b63d                	c.j	2c00 <__muldf3+0x48>
    30d4:	8ff2                	c.mv	t6,t3
    30d6:	bd0d                	c.j	2f08 <__muldf3+0x350>
    30d8:	02235a5b          	beqc	t1,2,310c <__muldf3+0x554>
    30dc:	0a33505b          	beqc	t1,3,317c <__muldf3+0x5c4>
    30e0:	02030863          	beqz	t1,3110 <__muldf3+0x558>
    30e4:	001007b7          	lui	a5,0x100
    30e8:	7fe00713          	li	a4,2046
    30ec:	17fd                	c.addi	a5,-1
    30ee:	567d                	c.li	a2,-1
    30f0:	00586813          	ori	a6,a6,5
    30f4:	f8dff06f          	j	3080 <__muldf3+0x4c8>
    30f8:	e40e82e3          	beqz	t4,2f3c <__muldf3+0x384>
    30fc:	00860693          	addi	a3,a2,8
    3100:	00c6b633          	sltu	a2,a3,a2
    3104:	97b2                	c.add	a5,a2
    3106:	8636                	c.mv	a2,a3
    3108:	e35ff06f          	j	2f3c <__muldf3+0x384>
    310c:	fc0e8ce3          	beqz	t4,30e4 <__muldf3+0x52c>
    3110:	7ff00713          	li	a4,2047
    3114:	4781                	c.li	a5,0
    3116:	4601                	c.li	a2,0
    3118:	00586813          	ori	a6,a6,5
    311c:	f65ff06f          	j	3080 <__muldf3+0x4c8>
    3120:	45fd                	c.li	a1,31
    3122:	0cd5dd63          	bge	a1,a3,31fc <__muldf3+0x644>
    3126:	5585                	c.li	a1,-31
    3128:	40e58733          	sub	a4,a1,a4
    312c:	00e7d733          	srl	a4,a5,a4
    3130:	0006d8db          	beqc	a3,32,3140 <__muldf3+0x588>
    3134:	43ef8f93          	addi	t6,t6,1086
    3138:	01f797b3          	sll	a5,a5,t6
    313c:	00f66633          	or	a2,a2,a5
    3140:	00c03633          	snez	a2,a2
    3144:	8e59                	c.or	a2,a4
    3146:	00767793          	andi	a5,a2,7
    314a:	c3dd                	c.beqz	a5,31f0 <__muldf3+0x638>
    314c:	00186813          	ori	a6,a6,1
    3150:	06235e5b          	beqc	t1,2,31cc <__muldf3+0x614>
    3154:	0833585b          	beqc	t1,3,31e4 <__muldf3+0x62c>
    3158:	4585                	c.li	a1,1
    315a:	4781                	c.li	a5,0
    315c:	02031863          	bnez	t1,318c <__muldf3+0x5d4>
    3160:	4781                	c.li	a5,0
    3162:	4585                	c.li	a1,1
    3164:	00f67713          	andi	a4,a2,15
    3168:	aa47565b          	beqc	a4,4,3014 <__muldf3+0x45c>
    316c:	00460713          	addi	a4,a2,4
    3170:	00c73633          	sltu	a2,a4,a2
    3174:	97b2                	c.add	a5,a2
    3176:	863a                	c.mv	a2,a4
    3178:	e9dff06f          	j	3014 <__muldf3+0x45c>
    317c:	f80e8ae3          	beqz	t4,3110 <__muldf3+0x558>
    3180:	f65ff06f          	j	30e4 <__muldf3+0x52c>
    3184:	da0e9ce3          	bnez	t4,2f3c <__muldf3+0x384>
    3188:	f75ff06f          	j	30fc <__muldf3+0x544>
    318c:	00365713          	srli	a4,a2,0x3
    3190:	01d79613          	slli	a2,a5,0x1d
    3194:	8e59                	c.or	a2,a4
    3196:	5837a7db          	bfoz	a5,a5,22,3
    319a:	4701                	c.li	a4,0
    319c:	e89ff06f          	j	3024 <__muldf3+0x46c>
    31a0:	e20e98e3          	bnez	t4,2fd0 <__muldf3+0x418>
    31a4:	ff863713          	sltiu	a4,a2,-8
    31a8:	00174713          	xori	a4,a4,1
    31ac:	973e                	c.add	a4,a5
    31ae:	b50d                	c.j	2fd0 <__muldf3+0x418>
    31b0:	e20e80e3          	beqz	t4,2fd0 <__muldf3+0x418>
    31b4:	ff1ff06f          	j	31a4 <__muldf3+0x5ec>
    31b8:	00f67593          	andi	a1,a2,15
    31bc:	a045da5b          	beqc	a1,4,2fd0 <__muldf3+0x418>
    31c0:	ffc63713          	sltiu	a4,a2,-4
    31c4:	00174713          	xori	a4,a4,1
    31c8:	973e                	c.add	a4,a5
    31ca:	b519                	c.j	2fd0 <__muldf3+0x418>
    31cc:	4781                	c.li	a5,0
    31ce:	4585                	c.li	a1,1
    31d0:	e40e82e3          	beqz	t4,3014 <__muldf3+0x45c>
    31d4:	00860713          	addi	a4,a2,8
    31d8:	00c73633          	sltu	a2,a4,a2
    31dc:	97b2                	c.add	a5,a2
    31de:	863a                	c.mv	a2,a4
    31e0:	e35ff06f          	j	3014 <__muldf3+0x45c>
    31e4:	4781                	c.li	a5,0
    31e6:	4585                	c.li	a1,1
    31e8:	e20e96e3          	bnez	t4,3014 <__muldf3+0x45c>
    31ec:	fe9ff06f          	j	31d4 <__muldf3+0x61c>
    31f0:	820d                	c.srli	a2,0x3
    31f2:	88f6                	c.mv	a7,t4
    31f4:	4701                	c.li	a4,0
    31f6:	4781                	c.li	a5,0
    31f8:	e35ff06f          	j	302c <__muldf3+0x474>
    31fc:	4585                	c.li	a1,1
    31fe:	bbf9                	c.j	2fdc <__muldf3+0x424>
    3200:	0001                	c.nop
	...

00003204 <__floatsidf>:
    3204:	c925                	c.beqz	a0,3274 <__floatsidf+0x70>
    3206:	40a007b3          	neg	a5,a0
    320a:	01f55613          	srli	a2,a0,0x1f
    320e:	f2f5057f          	maxw	a0,a0,a5
    3212:	af95077f          	clz32	a4,a0
    3216:	41e00793          	li	a5,1054
    321a:	8f99                	c.sub	a5,a4
    321c:	46a9                	c.li	a3,10
    321e:	7ff7f793          	andi	a5,a5,2047
    3222:	02e6df63          	bge	a3,a4,3260 <__floatsidf+0x5c>
    3226:	1755                	c.addi	a4,-11
    3228:	00e516b3          	sll	a3,a0,a4
    322c:	4c06a6db          	bfoz	a3,a3,19,0
    3230:	00000713          	li	a4,0
    3234:	4581                	c.li	a1,0
    3236:	853a                	c.mv	a0,a4
    3238:	fff00737          	lui	a4,0xfff00
    323c:	8f6d                	c.and	a4,a1
    323e:	4c06a6db          	bfoz	a3,a3,19,0
    3242:	8ed9                	c.or	a3,a4
    3244:	01479713          	slli	a4,a5,0x14
    3248:	801007b7          	lui	a5,0x80100
    324c:	17fd                	c.addi	a5,-1
    324e:	8ff5                	c.and	a5,a3
    3250:	8fd9                	c.or	a5,a4
    3252:	7807a7db          	bfoz	a5,a5,30,0
    3256:	01f61713          	slli	a4,a2,0x1f
    325a:	00e7e5b3          	or	a1,a5,a4
    325e:	8082                	c.jr	ra
    3260:	46ad                	c.li	a3,11
    3262:	8e99                	c.sub	a3,a4
    3264:	00d556b3          	srl	a3,a0,a3
    3268:	0755                	c.addi	a4,21
    326a:	00e51733          	sll	a4,a0,a4
    326e:	4c06a6db          	bfoz	a3,a3,19,0
    3272:	b7c9                	c.j	3234 <__floatsidf+0x30>
    3274:	4601                	c.li	a2,0
    3276:	4781                	c.li	a5,0
    3278:	4681                	c.li	a3,0
    327a:	4701                	c.li	a4,0
    327c:	bf65                	c.j	3234 <__floatsidf+0x30>
	...

00003280 <__truncdfsf2>:
    3280:	00202873          	frrm	a6
    3284:	7945a65b          	bfoz	a2,a1,30,20
    3288:	00160693          	addi	a3,a2,1
    328c:	0d65a8db          	bfoz	a7,a1,3,22
    3290:	01d55713          	srli	a4,a0,0x1d
    3294:	7ff6f693          	andi	a3,a3,2047
    3298:	4785                	c.li	a5,1
    329a:	01176733          	or	a4,a4,a7
    329e:	81fd                	c.srli	a1,0x1f
    32a0:	00351893          	slli	a7,a0,0x3
    32a4:	0cd7da63          	bge	a5,a3,3378 <__truncdfsf2+0xf8>
    32a8:	c8060693          	addi	a3,a2,-896
    32ac:	0fe00793          	li	a5,254
    32b0:	06d7c863          	blt	a5,a3,3320 <__truncdfsf2+0xa0>
    32b4:	10d05e63          	blez	a3,33d0 <__truncdfsf2+0x150>
    32b8:	051a                	c.slli	a0,0x6
    32ba:	00a03533          	snez	a0,a0
    32be:	070e                	c.slli	a4,0x3
    32c0:	8f49                	c.or	a4,a0
    32c2:	01d8d893          	srli	a7,a7,0x1d
    32c6:	01176733          	or	a4,a4,a7
    32ca:	00777613          	andi	a2,a4,7
    32ce:	4781                	c.li	a5,0
    32d0:	4501                	c.li	a0,0
    32d2:	ca49                	c.beqz	a2,3364 <__truncdfsf2+0xe4>
    32d4:	1628505b          	beqc	a6,2,3434 <__truncdfsf2+0x1b4>
    32d8:	0838525b          	beqc	a6,3,335c <__truncdfsf2+0xdc>
    32dc:	14080463          	beqz	a6,3424 <__truncdfsf2+0x1a4>
    32e0:	04000637          	lui	a2,0x4000
    32e4:	00e67633          	and	a2,a2,a4
    32e8:	28078863          	beqz	a5,3578 <__truncdfsf2+0x2f8>
    32ec:	0027e513          	ori	a0,a5,2
    32f0:	26060663          	beqz	a2,355c <__truncdfsf2+0x2dc>
    32f4:	00168693          	addi	a3,a3,1 # 80100001 <_DATA_LMA_START+0x600fb989>
    32f8:	0ff00613          	li	a2,255
    32fc:	6437275b          	bfoz	a4,a4,25,3
    3300:	0ff6f793          	andi	a5,a3,255
    3304:	0ac68a63          	beq	a3,a2,33b8 <__truncdfsf2+0x138>
    3308:	07de                	c.slli	a5,0x17
    330a:	5807275b          	bfoz	a4,a4,22,0
    330e:	05fe                	c.slli	a1,0x1f
    3310:	8fd9                	c.or	a5,a4
    3312:	8fcd                	c.or	a5,a1
    3314:	02051e63          	bnez	a0,3350 <__truncdfsf2+0xd0>
    3318:	f0078553          	fmv.w.x	fa0,a5
    331c:	00008067          	ret
    3320:	16080c63          	beqz	a6,3498 <__truncdfsf2+0x218>
    3324:	1638545b          	beqc	a6,3,348c <__truncdfsf2+0x20c>
    3328:	1e285a5b          	beqc	a6,2,351c <__truncdfsf2+0x29c>
    332c:	00500513          	li	a0,5
    3330:	16080a63          	beqz	a6,34a4 <__truncdfsf2+0x224>
    3334:	1e385a5b          	beqc	a6,3,3528 <__truncdfsf2+0x2a8>
    3338:	1a285e5b          	beqc	a6,2,34f4 <__truncdfsf2+0x274>
    333c:	00800737          	lui	a4,0x800
    3340:	7f0007b7          	lui	a5,0x7f000
    3344:	177d                	c.addi	a4,-1
    3346:	8f5d                	c.or	a4,a5
    3348:	05fe                	c.slli	a1,0x1f
    334a:	780727db          	bfoz	a5,a4,30,0
    334e:	8fcd                	c.or	a5,a1
    3350:	00152073          	csrs	fflags,a0
    3354:	f0078553          	fmv.w.x	fa0,a5
    3358:	00008067          	ret
    335c:	4505                	c.li	a0,1
    335e:	e199                	c.bnez	a1,3364 <__truncdfsf2+0xe4>
    3360:	00870713          	addi	a4,a4,8 # 800008 <FLASH_SIZE+0x700008>
    3364:	04000637          	lui	a2,0x4000
    3368:	8e79                	c.and	a2,a4
    336a:	d3d9                	c.beqz	a5,32f0 <__truncdfsf2+0x70>
    336c:	b805725b          	bbc	a0,0,32f0 <__truncdfsf2+0x70>
    3370:	87aa                	c.mv	a5,a0
    3372:	0027e513          	ori	a0,a5,2
    3376:	bfad                	c.j	32f0 <__truncdfsf2+0x70>
    3378:	011768b3          	or	a7,a4,a7
    337c:	e615                	c.bnez	a2,33a8 <__truncdfsf2+0x128>
    337e:	01f59793          	slli	a5,a1,0x1f
    3382:	f8088be3          	beqz	a7,3318 <__truncdfsf2+0x98>
    3386:	1828535b          	beqc	a6,2,350c <__truncdfsf2+0x28c>
    338a:	1238555b          	beqc	a6,3,34b4 <__truncdfsf2+0x234>
    338e:	4705                	c.li	a4,1
    3390:	4789                	c.li	a5,2
    3392:	4605                	c.li	a2,1
    3394:	1a080463          	beqz	a6,353c <__truncdfsf2+0x2bc>
    3398:	83ed                	c.srli	a5,0x1b
    339a:	0017c793          	xori	a5,a5,1
    339e:	8b85                	c.andi	a5,1
    33a0:	4505                	c.li	a0,1
    33a2:	4681                	c.li	a3,0
    33a4:	fa05                	c.bnez	a2,32d4 <__truncdfsf2+0x54>
    33a6:	bf7d                	c.j	3364 <__truncdfsf2+0xe4>
    33a8:	08089a63          	bnez	a7,343c <__truncdfsf2+0x1bc>
    33ac:	05fe                	c.slli	a1,0x1f
    33ae:	7f8007b7          	lui	a5,0x7f800
    33b2:	8fcd                	c.or	a5,a1
    33b4:	f65ff06f          	j	3318 <__truncdfsf2+0x98>
    33b8:	00556513          	ori	a0,a0,5
    33bc:	f6081ce3          	bnez	a6,3334 <__truncdfsf2+0xb4>
    33c0:	05fe                	c.slli	a1,0x1f
    33c2:	7f8007b7          	lui	a5,0x7f800
    33c6:	8fcd                	c.or	a5,a1
    33c8:	00152073          	csrs	fflags,a0
    33cc:	f89ff06f          	j	3354 <__truncdfsf2+0xd4>
    33d0:	57a5                	c.li	a5,-23
    33d2:	0af6c363          	blt	a3,a5,3478 <__truncdfsf2+0x1f8>
    33d6:	4579                	c.li	a0,30
    33d8:	008007b7          	lui	a5,0x800
    33dc:	8d15                	c.sub	a0,a3
    33de:	437d                	c.li	t1,31
    33e0:	8fd9                	c.or	a5,a4
    33e2:	0ea34163          	blt	t1,a0,34c4 <__truncdfsf2+0x244>
    33e6:	c8260613          	addi	a2,a2,-894 # 3fffc82 <FLASH_SIZE+0x3effc82>
    33ea:	00c89733          	sll	a4,a7,a2
    33ee:	00e03733          	snez	a4,a4
    33f2:	00c797b3          	sll	a5,a5,a2
    33f6:	00a8d8b3          	srl	a7,a7,a0
    33fa:	8f5d                	c.or	a4,a5
    33fc:	00e8e733          	or	a4,a7,a4
    3400:	01f59793          	slli	a5,a1,0x1f
    3404:	db11                	c.beqz	a4,3318 <__truncdfsf2+0x98>
    3406:	00171793          	slli	a5,a4,0x1
    340a:	0077f693          	andi	a3,a5,7
    340e:	00777613          	andi	a2,a4,7
    3412:	14069763          	bnez	a3,3560 <__truncdfsf2+0x2e0>
    3416:	83ed                	c.srli	a5,0x1b
    3418:	0017c793          	xori	a5,a5,1
    341c:	8b85                	c.andi	a5,1
    341e:	4501                	c.li	a0,0
    3420:	4681                	c.li	a3,0
    3422:	b749                	c.j	33a4 <__truncdfsf2+0x124>
    3424:	00f77613          	andi	a2,a4,15
    3428:	aa465c5b          	beqc	a2,4,32e0 <__truncdfsf2+0x60>
    342c:	00100513          	li	a0,1
    3430:	0711                	c.addi	a4,4
    3432:	bf0d                	c.j	3364 <__truncdfsf2+0xe4>
    3434:	4505                	c.li	a0,1
    3436:	d59d                	c.beqz	a1,3364 <__truncdfsf2+0xe4>
    3438:	0721                	c.addi	a4,8
    343a:	b72d                	c.j	3364 <__truncdfsf2+0xe4>
    343c:	7ff00793          	li	a5,2047
    3440:	4501                	c.li	a0,0
    3442:	00f61963          	bne	a2,a5,3454 <__truncdfsf2+0x1d4>
    3446:	00400537          	lui	a0,0x400
    344a:	8d79                	c.and	a0,a4
    344c:	00153513          	seqz	a0,a0
    3450:	00451513          	slli	a0,a0,0x4
    3454:	070e                	c.slli	a4,0x3
    3456:	020007b7          	lui	a5,0x2000
    345a:	8f5d                	c.or	a4,a5
    345c:	0ff00693          	li	a3,255
    3460:	0ff00793          	li	a5,255
    3464:	00375713          	srli	a4,a4,0x3
    3468:	08f68a63          	beq	a3,a5,34fc <__truncdfsf2+0x27c>
    346c:	5807275b          	bfoz	a4,a4,22,0
    3470:	0ff6f793          	andi	a5,a3,255
    3474:	e95ff06f          	j	3308 <__truncdfsf2+0x88>
    3478:	08285a5b          	beqc	a6,2,350c <__truncdfsf2+0x28c>
    347c:	02385c5b          	beqc	a6,3,34b4 <__truncdfsf2+0x234>
    3480:	0a080863          	beqz	a6,3530 <__truncdfsf2+0x2b0>
    3484:	4705                	c.li	a4,1
    3486:	4681                	c.li	a3,0
    3488:	4785                	c.li	a5,1
    348a:	b5a9                	c.j	32d4 <__truncdfsf2+0x54>
    348c:	edb1                	c.bnez	a1,34e8 <__truncdfsf2+0x268>
    348e:	7f8007b7          	lui	a5,0x7f800
    3492:	4515                	c.li	a0,5
    3494:	ebdff06f          	j	3350 <__truncdfsf2+0xd0>
    3498:	05fe                	c.slli	a1,0x1f
    349a:	7f8007b7          	lui	a5,0x7f800
    349e:	8fcd                	c.or	a5,a1
    34a0:	4515                	c.li	a0,5
    34a2:	b57d                	c.j	3350 <__truncdfsf2+0xd0>
    34a4:	577d                	c.li	a4,-1
    34a6:	4781                	c.li	a5,0
    34a8:	4515                	c.li	a0,5
    34aa:	0fe00693          	li	a3,254
    34ae:	0711                	c.addi	a4,4
    34b0:	eb5ff06f          	j	3364 <__truncdfsf2+0xe4>
    34b4:	4605                	c.li	a2,1
    34b6:	4705                	c.li	a4,1
    34b8:	00200793          	li	a5,2
    34bc:	ec059ee3          	bnez	a1,3398 <__truncdfsf2+0x118>
    34c0:	07a1                	c.addi	a5,8
    34c2:	bdd9                	c.j	3398 <__truncdfsf2+0x118>
    34c4:	5779                	c.li	a4,-2
    34c6:	8f15                	c.sub	a4,a3
    34c8:	00e7d733          	srl	a4,a5,a4
    34cc:	000558db          	beqc	a0,32,34dc <__truncdfsf2+0x25c>
    34d0:	ca260613          	addi	a2,a2,-862
    34d4:	00c797b3          	sll	a5,a5,a2
    34d8:	00f8e8b3          	or	a7,a7,a5
    34dc:	011038b3          	snez	a7,a7
    34e0:	00e8e733          	or	a4,a7,a4
    34e4:	f1dff06f          	j	3400 <__truncdfsf2+0x180>
    34e8:	577d                	c.li	a4,-1
    34ea:	0fe00693          	li	a3,254
    34ee:	4515                	c.li	a0,5
    34f0:	e05ff06f          	j	32f4 <__truncdfsf2+0x74>
    34f4:	e40584e3          	beqz	a1,333c <__truncdfsf2+0xbc>
    34f8:	4585                	c.li	a1,1
    34fa:	b5d9                	c.j	33c0 <__truncdfsf2+0x140>
    34fc:	cf21                	c.beqz	a4,3554 <__truncdfsf2+0x2d4>
    34fe:	4581                	c.li	a1,0
    3500:	0ff00793          	li	a5,255
    3504:	00400737          	lui	a4,0x400
    3508:	e01ff06f          	j	3308 <__truncdfsf2+0x88>
    350c:	4605                	c.li	a2,1
    350e:	4705                	c.li	a4,1
    3510:	00200793          	li	a5,2
    3514:	e80582e3          	beqz	a1,3398 <__truncdfsf2+0x118>
    3518:	07a1                	c.addi	a5,8
    351a:	bdbd                	c.j	3398 <__truncdfsf2+0x118>
    351c:	d5f1                	c.beqz	a1,34e8 <__truncdfsf2+0x268>
    351e:	ff8007b7          	lui	a5,0xff800
    3522:	4515                	c.li	a0,5
    3524:	e2dff06f          	j	3350 <__truncdfsf2+0xd0>
    3528:	e8058ce3          	beqz	a1,33c0 <__truncdfsf2+0x140>
    352c:	e11ff06f          	j	333c <__truncdfsf2+0xbc>
    3530:	4785                	c.li	a5,1
    3532:	4681                	c.li	a3,0
    3534:	4705                	c.li	a4,1
    3536:	4505                	c.li	a0,1
    3538:	ef9ff06f          	j	3430 <__truncdfsf2+0x1b0>
    353c:	4705                	c.li	a4,1
    353e:	4789                	c.li	a5,2
    3540:	00100613          	li	a2,1
    3544:	0791                	c.addi	a5,4
    3546:	83ed                	c.srli	a5,0x1b
    3548:	0017c793          	xori	a5,a5,1
    354c:	8b85                	c.andi	a5,1
    354e:	4505                	c.li	a0,1
    3550:	4681                	c.li	a3,0
    3552:	bd89                	c.j	33a4 <__truncdfsf2+0x124>
    3554:	0ff00793          	li	a5,255
    3558:	4701                	c.li	a4,0
    355a:	b37d                	c.j	3308 <__truncdfsf2+0x88>
    355c:	830d                	c.srli	a4,0x3
    355e:	b739                	c.j	346c <__truncdfsf2+0x1ec>
    3560:	ba285a5b          	beqc	a6,2,3514 <__truncdfsf2+0x294>
    3564:	b4385c5b          	beqc	a6,3,34bc <__truncdfsf2+0x23c>
    3568:	e20818e3          	bnez	a6,3398 <__truncdfsf2+0x118>
    356c:	00f7f693          	andi	a3,a5,15
    3570:	a246d45b          	beqc	a3,4,3398 <__truncdfsf2+0x118>
    3574:	fd1ff06f          	j	3544 <__truncdfsf2+0x2c4>
    3578:	4505                	c.li	a0,1
    357a:	d6061de3          	bnez	a2,32f4 <__truncdfsf2+0x74>
    357e:	b5cd                	c.j	3460 <__truncdfsf2+0x1e0>

00003580 <malloc>:
    3580:	681002ef          	jal	t0,4400 <__riscv_save_0>
    3584:	85aa                	c.mv	a1,a0
    3586:	1852a52b          	lwgp	a0,39300 # 8a184 <_impure_ptr>
    358a:	2245                	c.jal	372a <_malloc_r>
    358c:	6990006f          	j	4424 <__riscv_restore_0>

00003590 <free>:
    3590:	671002ef          	jal	t0,4400 <__riscv_save_0>
    3594:	85aa                	c.mv	a1,a0
    3596:	1852a52b          	lwgp	a0,39300 # 8a184 <_impure_ptr>
    359a:	2201                	c.jal	369a <_free_r>
    359c:	6890006f          	j	4424 <__riscv_restore_0>

000035a0 <memcpy>:
    35a0:	00a5c7b3          	xor	a5,a1,a0
    35a4:	8b8d                	c.andi	a5,3
    35a6:	00c508b3          	add	a7,a0,a2
    35aa:	ebb9                	c.bnez	a5,3600 <memcpy+0x60>
    35ac:	478d                	c.li	a5,3
    35ae:	04c7f963          	bgeu	a5,a2,3600 <memcpy+0x60>
    35b2:	00357713          	andi	a4,a0,3
    35b6:	87aa                	c.mv	a5,a0
    35b8:	06071263          	bnez	a4,361c <memcpy+0x7c>
    35bc:	ffc8f813          	andi	a6,a7,-4
    35c0:	40f806b3          	sub	a3,a6,a5
    35c4:	02000713          	li	a4,32
    35c8:	02000393          	li	t2,32
    35cc:	06d74c63          	blt	a4,a3,3644 <memcpy+0xa4>
    35d0:	0307f463          	bgeu	a5,a6,35f8 <memcpy+0x58>
    35d4:	86ae                	c.mv	a3,a1
    35d6:	873e                	c.mv	a4,a5
    35d8:	4290                	c.lw	a2,0(a3)
    35da:	0711                	c.addi	a4,4
    35dc:	fec72e23          	sw	a2,-4(a4) # 3ffffc <FLASH_SIZE+0x2ffffc>
    35e0:	0691                	c.addi	a3,4
    35e2:	ff076be3          	bltu	a4,a6,35d8 <memcpy+0x38>
    35e6:	fff7c713          	not	a4,a5
    35ea:	983a                	c.add	a6,a4
    35ec:	ffc87813          	andi	a6,a6,-4
    35f0:	0811                	c.addi	a6,4
    35f2:	97c2                	c.add	a5,a6
    35f4:	010585b3          	add	a1,a1,a6
    35f8:	0117e863          	bltu	a5,a7,3608 <memcpy+0x68>
    35fc:	00008067          	ret
    3600:	ff157ee3          	bgeu	a0,a7,35fc <memcpy+0x5c>
    3604:	00a007b3          	add	a5,zero,a0
    3608:	0005c703          	lbu	a4,0(a1) # 10000 <BIN_SIZE+0x17de>
    360c:	0785                	c.addi	a5,1
    360e:	fee78fa3          	sb	a4,-1(a5) # ff7fffff <_DATA_LMA_START+0xdf7fb987>
    3612:	0585                	c.addi	a1,1
    3614:	ff17eae3          	bltu	a5,a7,3608 <memcpy+0x68>
    3618:	00008067          	ret
    361c:	0005c703          	lbu	a4,0(a1)
    3620:	0785                	c.addi	a5,1
    3622:	fee78fa3          	sb	a4,-1(a5)
    3626:	0037f713          	andi	a4,a5,3
    362a:	0585                	c.addi	a1,1
    362c:	db41                	c.beqz	a4,35bc <memcpy+0x1c>
    362e:	0005c703          	lbu	a4,0(a1)
    3632:	0785                	c.addi	a5,1
    3634:	fee78fa3          	sb	a4,-1(a5)
    3638:	0037f713          	andi	a4,a5,3
    363c:	0585                	c.addi	a1,1
    363e:	ff79                	c.bnez	a4,361c <memcpy+0x7c>
    3640:	f7dff06f          	j	35bc <memcpy+0x1c>
    3644:	4dd8                	c.lw	a4,28(a1)
    3646:	0005a283          	lw	t0,0(a1)
    364a:	0045af83          	lw	t6,4(a1)
    364e:	0085af03          	lw	t5,8(a1)
    3652:	00c5ae83          	lw	t4,12(a1)
    3656:	0105ae03          	lw	t3,16(a1)
    365a:	0145a303          	lw	t1,20(a1)
    365e:	4d90                	c.lw	a2,24(a1)
    3660:	02458593          	addi	a1,a1,36
    3664:	ffc5a683          	lw	a3,-4(a1)
    3668:	02478793          	addi	a5,a5,36
    366c:	fee7ac23          	sw	a4,-8(a5)
    3670:	fc57ae23          	sw	t0,-36(a5)
    3674:	fff7a023          	sw	t6,-32(a5)
    3678:	ffe7a223          	sw	t5,-28(a5)
    367c:	ffd7a423          	sw	t4,-24(a5)
    3680:	ffc7a623          	sw	t3,-20(a5)
    3684:	fe67a823          	sw	t1,-16(a5)
    3688:	fec7aa23          	sw	a2,-12(a5)
    368c:	40f80733          	sub	a4,a6,a5
    3690:	fed7ae23          	sw	a3,-4(a5)
    3694:	fae3c8e3          	blt	t2,a4,3644 <memcpy+0xa4>
    3698:	bf25                	c.j	35d0 <memcpy+0x30>

0000369a <_free_r>:
    369a:	c5b5                	c.beqz	a1,3706 <_free_r+0x6c>
    369c:	ffc5a703          	lw	a4,-4(a1)
    36a0:	ffc58793          	addi	a5,a1,-4
    36a4:	00075363          	bgez	a4,36aa <_free_r+0x10>
    36a8:	97ba                	c.add	a5,a4
    36aa:	1a92a72b          	lwgp	a4,39336 # 8a1a8 <__malloc_free_list>
    36ae:	85b6                	c.mv	a1,a3
    36b0:	e711                	c.bnez	a4,36bc <_free_r+0x22>
    36b2:	0007a223          	sw	zero,4(a5)
    36b6:	1af2c4ab          	swgp	a5,39336 # 8a1a8 <__malloc_free_list>
    36ba:	8082                	c.jr	ra
    36bc:	02e7f063          	bgeu	a5,a4,36dc <_free_r+0x42>
    36c0:	4390                	c.lw	a2,0(a5)
    36c2:	00c786b3          	add	a3,a5,a2
    36c6:	00d71663          	bne	a4,a3,36d2 <_free_r+0x38>
    36ca:	4314                	c.lw	a3,0(a4)
    36cc:	4358                	c.lw	a4,4(a4)
    36ce:	96b2                	c.add	a3,a2
    36d0:	c394                	c.sw	a3,0(a5)
    36d2:	c3d8                	c.sw	a4,4(a5)
    36d4:	1af2c4ab          	swgp	a5,39336 # 8a1a8 <__malloc_free_list>
    36d8:	8082                	c.jr	ra
    36da:	8736                	c.mv	a4,a3
    36dc:	4354                	c.lw	a3,4(a4)
    36de:	c299                	c.beqz	a3,36e4 <_free_r+0x4a>
    36e0:	fed7fde3          	bgeu	a5,a3,36da <_free_r+0x40>
    36e4:	4310                	c.lw	a2,0(a4)
    36e6:	00c705b3          	add	a1,a4,a2
    36ea:	00f59f63          	bne	a1,a5,3708 <_free_r+0x6e>
    36ee:	439c                	c.lw	a5,0(a5)
    36f0:	97b2                	c.add	a5,a2
    36f2:	c31c                	c.sw	a5,0(a4)
    36f4:	00f70633          	add	a2,a4,a5
    36f8:	00c69763          	bne	a3,a2,3706 <_free_r+0x6c>
    36fc:	4290                	c.lw	a2,0(a3)
    36fe:	97b2                	c.add	a5,a2
    3700:	c31c                	c.sw	a5,0(a4)
    3702:	42dc                	c.lw	a5,4(a3)
    3704:	c35c                	c.sw	a5,4(a4)
    3706:	8082                	c.jr	ra
    3708:	00b7f663          	bgeu	a5,a1,3714 <_free_r+0x7a>
    370c:	4731                	c.li	a4,12
    370e:	1ae2c2ab          	swgp	a4,39332 # 8a1a4 <__mculib_REENT_errno>
    3712:	8082                	c.jr	ra
    3714:	438c                	c.lw	a1,0(a5)
    3716:	00b78633          	add	a2,a5,a1
    371a:	00c69663          	bne	a3,a2,3726 <_free_r+0x8c>
    371e:	4290                	c.lw	a2,0(a3)
    3720:	42d4                	c.lw	a3,4(a3)
    3722:	962e                	c.add	a2,a1
    3724:	c390                	c.sw	a2,0(a5)
    3726:	c3d4                	c.sw	a3,4(a5)
    3728:	bff1                	c.j	3704 <_free_r+0x6a>

0000372a <_malloc_r>:
    372a:	4d7002ef          	jal	t0,4400 <__riscv_save_0>
    372e:	00358493          	addi	s1,a1,3
    3732:	98f1                	c.andi	s1,-4
    3734:	04a1                	c.addi	s1,8
    3736:	47b1                	c.li	a5,12
    3738:	06f4f263          	bgeu	s1,a5,379c <_malloc_r+0x72>
    373c:	44b1                	c.li	s1,12
    373e:	06b4e163          	bltu	s1,a1,37a0 <_malloc_r+0x76>
    3742:	1a92a42b          	lwgp	s0,39336 # 8a1a8 <__malloc_free_list>
    3746:	1a92968b          	addigp	a3,39336 # 8a1a8 <__malloc_free_list>
    374a:	87a2                	c.mv	a5,s0
    374c:	cf89                	c.beqz	a5,3766 <_malloc_r+0x3c>
    374e:	4398                	c.lw	a4,0(a5)
    3750:	8f05                	c.sub	a4,s1
    3752:	08074163          	bltz	a4,37d4 <_malloc_r+0xaa>
    3756:	462d                	c.li	a2,11
    3758:	04e67a63          	bgeu	a2,a4,37ac <_malloc_r+0x82>
    375c:	c398                	c.sw	a4,0(a5)
    375e:	00e78433          	add	s0,a5,a4
    3762:	c004                	c.sw	s1,0(s0)
    3764:	e821                	c.bnez	s0,37b4 <_malloc_r+0x8a>
    3766:	1ad2940b          	addigp	s0,39340 # 8a1ac <__malloc_sbrk_start>
    376a:	401c                	c.lw	a5,0(s0)
    376c:	e789                	c.bnez	a5,3776 <_malloc_r+0x4c>
    376e:	4501                	c.li	a0,0
    3770:	3d9000ef          	jal	ra,4348 <_sbrk>
    3774:	c008                	c.sw	a0,0(s0)
    3776:	8526                	c.mv	a0,s1
    3778:	597d                	c.li	s2,-1
    377a:	3cf000ef          	jal	ra,4348 <_sbrk>
    377e:	03250163          	beq	a0,s2,37a0 <_malloc_r+0x76>
    3782:	00350413          	addi	s0,a0,3 # 400003 <FLASH_SIZE+0x300003>
    3786:	9871                	c.andi	s0,-4
    3788:	00a40863          	beq	s0,a0,3798 <_malloc_r+0x6e>
    378c:	40a40533          	sub	a0,s0,a0
    3790:	3b9000ef          	jal	ra,4348 <_sbrk>
    3794:	01250663          	beq	a0,s2,37a0 <_malloc_r+0x76>
    3798:	c004                	c.sw	s1,0(s0)
    379a:	a829                	c.j	37b4 <_malloc_r+0x8a>
    379c:	fa04d1e3          	bgez	s1,373e <_malloc_r+0x14>
    37a0:	4731                	c.li	a4,12
    37a2:	4501                	c.li	a0,0
    37a4:	1ae2c2ab          	swgp	a4,39332 # 8a1a4 <__mculib_REENT_errno>
    37a8:	47d0006f          	j	4424 <__riscv_restore_0>
    37ac:	43d8                	c.lw	a4,4(a5)
    37ae:	02f41063          	bne	s0,a5,37ce <_malloc_r+0xa4>
    37b2:	c298                	c.sw	a4,0(a3)
    37b4:	00b40513          	addi	a0,s0,11
    37b8:	00440793          	addi	a5,s0,4
    37bc:	9961                	c.andi	a0,-8
    37be:	40f507b3          	sub	a5,a0,a5
    37c2:	d3fd                	c.beqz	a5,37a8 <_malloc_r+0x7e>
    37c4:	943e                	c.add	s0,a5
    37c6:	40f007b3          	neg	a5,a5
    37ca:	c01c                	c.sw	a5,0(s0)
    37cc:	bff1                	c.j	37a8 <_malloc_r+0x7e>
    37ce:	c058                	c.sw	a4,4(s0)
    37d0:	843e                	c.mv	s0,a5
    37d2:	b7cd                	c.j	37b4 <_malloc_r+0x8a>
    37d4:	843e                	c.mv	s0,a5
    37d6:	43dc                	c.lw	a5,4(a5)
    37d8:	bf95                	c.j	374c <_malloc_r+0x22>

000037da <printf>:
    37da:	7139                	c.addi16sp	sp,-64
    37dc:	d22e                	c.swsp	a1,36(sp)
    37de:	104c                	c.addi4spn	a1,sp,36
    37e0:	ce06                	c.swsp	ra,28(sp)
    37e2:	d432                	c.swsp	a2,40(sp)
    37e4:	d636                	c.swsp	a3,44(sp)
    37e6:	d83a                	c.swsp	a4,48(sp)
    37e8:	da3e                	c.swsp	a5,52(sp)
    37ea:	dc42                	c.swsp	a6,56(sp)
    37ec:	de46                	c.swsp	a7,60(sp)
    37ee:	c62e                	c.swsp	a1,12(sp)
    37f0:	20ad                	c.jal	385a <vprintf>
    37f2:	40f2                	c.lwsp	ra,28(sp)
    37f4:	6121                	c.addi16sp	sp,64
    37f6:	8082                	c.jr	ra

000037f8 <putchar>:
    37f8:	409002ef          	jal	t0,4400 <__riscv_save_0>
    37fc:	1141                	c.addi	sp,-16
    37fe:	842a                	c.mv	s0,a0
    3800:	00a107a3          	sb	a0,15(sp)
    3804:	4605                	c.li	a2,1
    3806:	00f10593          	addi	a1,sp,15
    380a:	4505                	c.li	a0,1
    380c:	c71fd0ef          	jal	ra,147c <_write>
    3810:	e501                	c.bnez	a0,3818 <putchar+0x20>
    3812:	4759                	c.li	a4,22
    3814:	1ae2c2ab          	swgp	a4,39332 # 8a1a4 <__mculib_REENT_errno>
    3818:	8522                	c.mv	a0,s0
    381a:	0141                	c.addi	sp,16
    381c:	4090006f          	j	4424 <__riscv_restore_0>

00003820 <__vprintf_help>:
    3820:	3e1002ef          	jal	t0,4400 <__riscv_save_0>
    3824:	1b92a7ab          	lwgp	a5,39352 # 8a1b8 <__printf_count>
    3828:	0785                	c.addi	a5,1
    382a:	1af2ccab          	swgp	a5,39352 # 8a1b8 <__printf_count>
    382e:	1b52940b          	addigp	s0,39348 # 8a1b4 <__vprintf_buf_len>
    3832:	1b12a5ab          	lwgp	a1,39344 # 8a1b0 <__vprintf_buf>
    3836:	401c                	c.lw	a5,0(s0)
    3838:	00178713          	addi	a4,a5,1
    383c:	97ae                	c.add	a5,a1
    383e:	c018                	c.sw	a4,0(s0)
    3840:	00a78023          	sb	a0,0(a5)
    3844:	4007695b          	bnec	a4,64,3856 <__vprintf_help+0x36>
    3848:	04000613          	li	a2,64
    384c:	4505                	c.li	a0,1
    384e:	c2ffd0ef          	jal	ra,147c <_write>
    3852:	00042023          	sw	zero,0(s0)
    3856:	3cf0006f          	j	4424 <__riscv_restore_0>

0000385a <vprintf>:
    385a:	1141                	c.addi	sp,-16
    385c:	c606                	c.swsp	ra,12(sp)
    385e:	c422                	c.swsp	s0,8(sp)
    3860:	c226                	c.swsp	s1,4(sp)
    3862:	c04a                	c.swsp	s2,0(sp)
    3864:	0800                	c.addi4spn	s0,sp,16
    3866:	715d                	c.addi16sp	sp,-80
    3868:	00f10793          	addi	a5,sp,15
    386c:	00004637          	lui	a2,0x4
    3870:	9bc1                	c.andi	a5,-16
    3872:	1b12948b          	addigp	s1,39344 # 8a1b0 <__vprintf_buf>
    3876:	1b52990b          	addigp	s2,39348 # 8a1b4 <__vprintf_buf_len>
    387a:	82060613          	addi	a2,a2,-2016 # 3820 <__vprintf_help>
    387e:	c09c                	c.sw	a5,0(s1)
    3880:	00092023          	sw	zero,0(s2)
    3884:	20ad                	c.jal	38ee <__printf_impl>
    3886:	00092603          	lw	a2,0(s2)
    388a:	408c                	c.lw	a1,0(s1)
    388c:	4505                	c.li	a0,1
    388e:	beffd0ef          	jal	ra,147c <_write>
    3892:	1b92a52b          	lwgp	a0,39352 # 8a1b8 <__printf_count>
    3896:	ff040113          	addi	sp,s0,-16
    389a:	40b2                	c.lwsp	ra,12(sp)
    389c:	4422                	c.lwsp	s0,8(sp)
    389e:	4492                	c.lwsp	s1,4(sp)
    38a0:	4902                	c.lwsp	s2,0(sp)
    38a2:	0141                	c.addi	sp,16
    38a4:	8082                	c.jr	ra

000038a6 <__print_integral>:
    38a6:	35b002ef          	jal	t0,4400 <__riscv_save_0>
    38aa:	1101                	c.addi	sp,-32
    38ac:	842a                	c.mv	s0,a0
    38ae:	84ae                	c.mv	s1,a1
    38b0:	8932                	c.mv	s2,a2
    38b2:	c636                	c.swsp	a3,12(sp)
    38b4:	85be                	c.mv	a1,a5
    38b6:	ca32                	c.swsp	a2,20(sp)
    38b8:	853a                	c.mv	a0,a4
    38ba:	0830                	c.addi4spn	a2,sp,24
    38bc:	214d                	c.jal	3d5e <__int_to_poly>
    38be:	46b2                	c.lwsp	a3,12(sp)
    38c0:	882a                	c.mv	a6,a0
    38c2:	083c                	c.addi4spn	a5,sp,24
    38c4:	0858                	c.addi4spn	a4,sp,20
    38c6:	864a                	c.mv	a2,s2
    38c8:	85a6                	c.mv	a1,s1
    38ca:	8522                	c.mv	a0,s0
    38cc:	2945                	c.jal	3d7c <__print_integral_poly>
    38ce:	1652978b          	addigp	a5,39268 # 8a164 <__digits>
    38d2:	00a46563          	bltu	s0,a0,38dc <__print_integral+0x36>
    38d6:	6105                	c.addi16sp	sp,32
    38d8:	34d0006f          	j	4424 <__riscv_restore_0>
    38dc:	00044703          	lbu	a4,0(s0)
    38e0:	0405                	c.addi	s0,1
    38e2:	973e                	c.add	a4,a5
    38e4:	00070703          	lb	a4,0(a4)
    38e8:	fee40fa3          	sb	a4,-1(s0)
    38ec:	b7dd                	c.j	38d2 <__print_integral+0x2c>

000038ee <__printf_impl>:
    38ee:	2e3002ef          	jal	t0,43d0 <__riscv_save_12>
    38f2:	a6010113          	addi	sp,sp,-1440
    38f6:	6b05                	c.lui	s6,0x1
    38f8:	892a                	c.mv	s2,a0
    38fa:	842e                	c.mv	s0,a1
    38fc:	89b2                	c.mv	s3,a2
    38fe:	01c10a13          	addi	s4,sp,28
    3902:	800b0b13          	addi	s6,s6,-2048 # 800 <analog_read_reg8+0x4>
    3906:	1a02ccab          	swgp	zero,39352 # 8a1b8 <__printf_count>
    390a:	c456                	c.swsp	s5,8(sp)
    390c:	00094503          	lbu	a0,0(s2)
    3910:	e509                	c.bnez	a0,391a <__printf_impl+0x2c>
    3912:	5a010113          	addi	sp,sp,1440
    3916:	2f70006f          	j	440c <__riscv_restore_12>
    391a:	00190493          	addi	s1,s2,1
    391e:	005555db          	beqc	a0,37,3928 <__printf_impl+0x3a>
    3922:	9982                	c.jalr	s3
    3924:	8926                	c.mv	s2,s1
    3926:	b7dd                	c.j	390c <__printf_impl+0x1e>
    3928:	00194783          	lbu	a5,1(s2)
    392c:	0057e8db          	bnec	a5,37,393c <__printf_impl+0x4e>
    3930:	02500513          	li	a0,37
    3934:	9982                	c.jalr	s3
    3936:	00290493          	addi	s1,s2,2
    393a:	b7ed                	c.j	3924 <__printf_impl+0x36>
    393c:	4681                	c.li	a3,0
    393e:	4701                	c.li	a4,0
    3940:	d002                	c.swsp	zero,32(sp)
    3942:	0004c783          	lbu	a5,0(s1)
    3946:	0007e7db          	bnec	a5,32,3954 <__printf_impl+0x66>
    394a:	00276713          	ori	a4,a4,2
    394e:	0485                	c.addi	s1,1
    3950:	4685                	c.li	a3,1
    3952:	bfc5                	c.j	3942 <__printf_impl+0x54>
    3954:	00d7e5db          	bnec	a5,45,395e <__printf_impl+0x70>
    3958:	00476713          	ori	a4,a4,4
    395c:	bfcd                	c.j	394e <__printf_impl+0x60>
    395e:	00b7e5db          	bnec	a5,43,3968 <__printf_impl+0x7a>
    3962:	00876713          	ori	a4,a4,8
    3966:	b7e5                	c.j	394e <__printf_impl+0x60>
    3968:	0037e5db          	bnec	a5,35,3972 <__printf_impl+0x84>
    396c:	01076713          	ori	a4,a4,16
    3970:	bff9                	c.j	394e <__printf_impl+0x60>
    3972:	0107e5db          	bnec	a5,48,397c <__printf_impl+0x8e>
    3976:	02076713          	ori	a4,a4,32
    397a:	bfd1                	c.j	394e <__printf_impl+0x60>
    397c:	c291                	c.beqz	a3,3980 <__printf_impl+0x92>
    397e:	d03a                	c.swsp	a4,32(sp)
    3980:	04a7eadb          	bnec	a5,42,39d4 <__printf_impl+0xe6>
    3984:	00042c03          	lw	s8,0(s0)
    3988:	00440713          	addi	a4,s0,4
    398c:	000c5863          	bgez	s8,399c <__printf_impl+0xae>
    3990:	5782                	c.lwsp	a5,32(sp)
    3992:	41800c33          	neg	s8,s8
    3996:	0047e793          	ori	a5,a5,4
    399a:	d03e                	c.swsp	a5,32(sp)
    399c:	0485                	c.addi	s1,1
    399e:	843a                	c.mv	s0,a4
    39a0:	0004c783          	lbu	a5,0(s1)
    39a4:	5cfd                	c.li	s9,-1
    39a6:	06e7e4db          	bnec	a5,46,3a0e <__printf_impl+0x120>
    39aa:	0014c783          	lbu	a5,1(s1)
    39ae:	04a7dbdb          	beqc	a5,42,3a04 <__printf_impl+0x116>
    39b2:	0485                	c.addi	s1,1
    39b4:	4c81                	c.li	s9,0
    39b6:	4725                	c.li	a4,9
    39b8:	4629                	c.li	a2,10
    39ba:	0004c783          	lbu	a5,0(s1)
    39be:	fd078793          	addi	a5,a5,-48
    39c2:	0ff7f693          	andi	a3,a5,255
    39c6:	04d76463          	bltu	a4,a3,3a0e <__printf_impl+0x120>
    39ca:	c4cc97ff          	maddr32	a5,s9,a2
    39ce:	0485                	c.addi	s1,1
    39d0:	8cbe                	c.mv	s9,a5
