
Andes_DSP_Math_benchmark.adx:     file format elf32-littleriscv
Andes_DSP_Math_benchmark.adx
architecture: riscv:rv32, flags 0x00000112:
EXEC_P, HAS_SYMS, D_PAGED
start address 0x20000000

Program Header:
    LOAD off    0x00001000 vaddr 0x20000000 paddr 0x20000000 align 2**12
         filesz 0x0000018a memsz 0x0000018a flags r-x
    LOAD off    0x00002000 vaddr 0x00000000 paddr 0x20000190 align 2**12
         filesz 0x000001bc memsz 0x000001bc flags rwx
    LOAD off    0x00002200 vaddr 0x00000200 paddr 0x20000350 align 2**12
         filesz 0x00005134 memsz 0x00005134 flags r-x
    LOAD off    0x00008000 vaddr 0x00080000 paddr 0x20005488 align 2**12
         filesz 0x00000984 memsz 0x00000984 flags rw-
    LOAD off    0x000089c8 vaddr 0x000809c8 paddr 0x20005e0c align 2**12
         filesz 0x00000022 memsz 0x00000022 flags rw-
    LOAD off    0x00009988 vaddr 0x00080988 paddr 0x20005e10 align 2**12
         filesz 0x00000000 memsz 0x00000040 flags rw-
0x70000000 off    0x00008a5d vaddr 0x00000000 paddr 0x00000000 align 2**0
         filesz 0x0000004a memsz 0x00000000 flags r--

Sections:
Idx Name          Size      VMA       LMA       File off  Algn
  0 .vectors      0000018a  20000000  20000000  00001000  2**2
                  CONTENTS, ALLOC, LOAD, READONLY, CODE
  1 .retention_reset 00000154  00000000  20000190  00002000  2**2
                  CONTENTS, ALLOC, LOAD, READONLY, CODE
  2 .retention_data 00000064  00000158  200002e8  00002158  2**2
                  CONTENTS, ALLOC, LOAD, DATA
  3 .ram_code     00005134  00000200  20000350  00002200  2**8
                  CONTENTS, ALLOC, LOAD, READONLY, CODE
  4 .data         00000984  00080000  20005488  00008000  2**3
                  CONTENTS, ALLOC, LOAD, DATA
  5 .sbss         0000003c  00080988  20005e10  00009988  2**2
                  ALLOC
  6 .bss          00000004  000809c4  20005e4c  00009988  2**2
                  ALLOC
  7 .sdk_version  00000022  000809c8  20005e0c  000089c8  2**2
                  CONTENTS, ALLOC, LOAD, DATA
  8 .comment      00000073  00000000  00000000  000089ea  2**0
                  CONTENTS, READONLY
  9 .riscv.attributes 0000004a  00000000  00000000  00008a5d  2**0
                  CONTENTS, READONLY
 10 .debug_info   0000316b  00000000  00000000  00008aa7  2**0
                  CONTENTS, READONLY, DEBUGGING
 11 .debug_abbrev 00000ddb  00000000  00000000  0000bc12  2**0
                  CONTENTS, READONLY, DEBUGGING
 12 .debug_loc    000053cb  00000000  00000000  0000c9ed  2**0
                  CONTENTS, READONLY, DEBUGGING
 13 .debug_aranges 00000140  00000000  00000000  00011db8  2**3
                  CONTENTS, READONLY, DEBUGGING
 14 .debug_ranges 000006a0  00000000  00000000  00011ef8  2**0
                  CONTENTS, READONLY, DEBUGGING
 15 .debug_line   000021ae  00000000  00000000  00012598  2**0
                  CONTENTS, READONLY, DEBUGGING
 16 .debug_str    00001375  00000000  00000000  00014746  2**0
                  CONTENTS, READONLY, DEBUGGING
 17 .debug_frame  00000178  00000000  00000000  00015abc  2**2
                  CONTENTS, READONLY, DEBUGGING
SYMBOL TABLE:
20000000 l    d  .vectors	00000000 .vectors
00000000 l    d  .retention_reset	00000000 .retention_reset
00000158 l    d  .retention_data	00000000 .retention_data
00000200 l    d  .ram_code	00000000 .ram_code
00080000 l    d  .data	00000000 .data
00080988 l    d  .sbss	00000000 .sbss
000809c4 l    d  .bss	00000000 .bss
000809c8 l    d  .sdk_version	00000000 .sdk_version
00000000 l    d  .comment	00000000 .comment
00000000 l    d  .riscv.attributes	00000000 .riscv.attributes
00000000 l    d  .debug_info	00000000 .debug_info
00000000 l    d  .debug_abbrev	00000000 .debug_abbrev
00000000 l    d  .debug_loc	00000000 .debug_loc
00000000 l    d  .debug_aranges	00000000 .debug_aranges
00000000 l    d  .debug_ranges	00000000 .debug_ranges
00000000 l    d  .debug_line	00000000 .debug_line
00000000 l    d  .debug_str	00000000 .debug_str
00000000 l    d  .debug_frame	00000000 .debug_frame
00000000 l    df *ABS*	00000000 ./boot/cstartup_flash.o
20000028 l       .vectors	00000000 _START
2000008e l       .vectors	00000000 _RETENTION_RESET_INIT
200000a6 l       .vectors	00000000 _RETENTION_RESET_BEGIN
200000b8 l       .vectors	00000000 _RETENTION_DATA_INIT
200000cc l       .vectors	00000000 _RETENTION_DATA_INIT_BEGIN
200000de l       .vectors	00000000 _RAMCODE_INIT
200000f6 l       .vectors	00000000 _RAMCODE_INIT_BEGIN
20000108 l       .vectors	00000000 _DATA_INIT
20000120 l       .vectors	00000000 _DATA_INIT_BEGIN
20000132 l       .vectors	00000000 _ZERO_BSS
20000146 l       .vectors	00000000 _ZERO_BSS_BEGIN
20000152 l       .vectors	00000000 _ZERO_AES
20000166 l       .vectors	00000000 _ZERO_AES_BEGIN
20000172 l       .vectors	00000000 _FILL_STK
20000172 l       .vectors	00000000 _MAIN_FUNC
20000188 l       .vectors	00000000 _END
00000022 l       .retention_reset	00000000 _ISTART
0000002a l       .retention_reset	00000000 _ISWS_USB_DIS
00000088 l       .retention_reset	00000000 _WAKEUP_FLASH
000000a2 l       .retention_reset	00000000 _MSPI_WAIT
000000bc l       .retention_reset	00000000 _WAIT_EFUSE_LOAD_AND_FLASH_WAKEUP_FINISH
000000c2 l       .retention_reset	00000000 _MULTI_ADDRESS_BEGIN
000000d2 l       .retention_reset	00000000 _IZERO_BSS
000000e6 l       .retention_reset	00000000 _IZERO_BSS_BEGIN
000000f2 l       .retention_reset	00000000 _IZERO_AES
00000106 l       .retention_reset	00000000 _IZERO_AES_BEGIN
00000112 l       .retention_reset	00000000 _IFILL_STK
00000112 l       .retention_reset	00000000 _IDATA_INIT
0000012a l       .retention_reset	00000000 _IDATA_INIT_BEGIN
0000013c l       .retention_reset	00000000 _IMAIN_FUNC
00000152 l       .retention_reset	00000000 _IEND
00000040 l       *ABS*	00000000 irqno
00000000 l    df *ABS*	00000000 
00000200 l     F .ram_code	00000020 delay_ms.constprop.12
0000140c l     F .ram_code	000000fc user_calib_adc_vref.constprop.9
00000220 l     F .ram_code	00000044 flash_send_addr
00000264 l     F .ram_code	00000048 flash_send_cmd
000002ac l     F .ram_code	00000060 clock_set_32k_tick
0000030c l     F .ram_code	0000004c analog_read_reg32.constprop.4
00000358 l     F .ram_code	00000024 clock_get_32k_tick
0000037c l     F .ram_code	00000090 pm_stimer_recover
0000040c l     F .ram_code	00000058 plic_exit_critical_sec
00000464 l     F .ram_code	00000060 plic_enter_critical_sec
000004c4 l     F .ram_code	00000180 flash_mspi_read_ram
00001204 l     F .ram_code	00000028 flash_read_uid.constprop.6
0000122c l     F .ram_code	00000028 flash_read_mid
00001254 l     F .ram_code	00000168 flash_read_mid_uid_with_check
00000644 l     F .ram_code	0000014c flash_mspi_read_ram.constprop.7
000013bc l     F .ram_code	00000020 flash_dread
00000790 l     F .ram_code	00000044 analog_write_reg8
000007d4 l     F .ram_code	0000004c analog_read_reg8
00000820 l     F .ram_code	00000140 clock_init_ram.constprop.11
000013dc l     F .ram_code	00000018 clock_init.constprop.10
00001508 l     F .ram_code	00000054 user_calib_freq_offset.constprop.8
00000960 l     F .ram_code	000000b4 pm_wait_bbpll_done
00000a14 l     F .ram_code	00000194 pm_sleep_start
00000ba8 l     F .ram_code	00000120 dr_putchar
00001560 l     F .ram_code	00000018 gpio_input_dis
00000cc8 l     F .ram_code	0000030c pm_sleep_wakeup_ram.constprop.3
000013f4 l     F .ram_code	00000016 pm_sleep_wakeup.constprop.2
00000158 l     O .retention_data	00000004 flash_read_page
0000015c l     O .retention_data	00000001 g_pm_long_suspend
00000160 l     O .retention_data	00000029 pmcd
0000018c l     O .retention_data	00000004 g_pm_tick_32k_calib
00000190 l     O .retention_data	00000004 g_pm_tick_cur
00000194 l     O .retention_data	00000001 g_plic_preempt_en
00000198 l     O .retention_data	00000002 s_flash_preempt_config
0000019a l     O .retention_data	00000001 g_pm_suspend_power_cfg
0000019c l     O .retention_data	00000008 g_pm_early_wakeup_time_us
000001a4 l     O .retention_data	00000004 g_pm_tick_32k_cur
000001a8 l     O .retention_data	00000001 g_pm_tick_update_en
000001ac l     O .retention_data	00000004 g_pm_r_delay_cycle
000001b0 l     O .retention_data	00000008 g_pm_longsleep_early_wakeup_time_us
0008006c l     O .data	00000018 FIR_SIZES
00080988 l     O .sbss	00000004 clkFastfreq
0008098c l     O .sbss	00000004 exception_mcause
00080990 l     O .sbss	00000004 exception_mdcause
00080994 l     O .sbss	00000004 exception_mepc
00080998 l     O .sbss	00000004 exception_mstatus
0008099c l     O .sbss	00000004 exception_mtval
000809a0 l     O .sbss	00000004 g_chip_version
000809a4 l     O .sbss	00000004 g_pm_status_info
00080974 l     O .data	00000001 init_flag.5287
00080978 l     O .data	00000006 sys_clk
000809c8 l     O .sdk_version	00000022 sdk_version
00000000 l    df *ABS*	00000000 riscv_dsp_atan2_f32.c
00080430 l     O .data	00000194 aractanlut
00000000 l    df *ABS*	00000000 riscv_dsp_atan2_q15.c
000805c4 l     O .data	00000010 gb
000805d4 l     O .data	00000010 ga
00000000 l    df *ABS*	00000000 riscv_dsp_cos_f32.c
00000000 l    df *ABS*	00000000 riscv_dsp_cos_q15.c
00000000 l    df *ABS*	00000000 riscv_dsp_sin_f32.c
00000000 l    df *ABS*	00000000 riscv_dsp_sin_q15.c
00000000 l    df *ABS*	00000000 riscv_dsp_sqrt_f32.c
00000000 l    df *ABS*	00000000 riscv_dsp_sqrt_q15.c
00000000 l    df *ABS*	00000000 cosf.c
00000000 l    df *ABS*	00000000 ref_rredf.c
00080820 l     O .data	00000020 twooverpi.0
00000000 l    df *ABS*	00000000 sincosf.c
00000000 l    df *ABS*	00000000 sinf.c
00000000 l    df *ABS*	00000000 divdf3.c
00000000 l    df *ABS*	00000000 muldf3.c
00000000 l    df *ABS*	00000000 fixdfsi.c
00000000 l    df *ABS*	00000000 fixunsdfsi.c
00000000 l    df *ABS*	00000000 floatsidf.c
00000000 l    df *ABS*	00000000 extendsfdf2.c
00000000 l    df *ABS*	00000000 truncdfsf2.c
00000000 l    df *ABS*	00000000 malloc.c
00000000 l    df *ABS*	00000000 nano-mallocr.c
00000000 l    df *ABS*	00000000 nano-mallocr.c
00000000 l    df *ABS*	00000000 printf.c
00000000 l    df *ABS*	00000000 puts.c
00000000 l    df *ABS*	00000000 vprintf.c
00004736 l     F .ram_code	0000003a __vprintf_help
000809b4 l     O .sbss	00000004 __vprintf_buf_len
000809b8 l     O .sbss	00000004 __vprintf_buf
00000000 l    df *ABS*	00000000 printf_impl.c
00000000 l    df *ABS*	00000000 printf_impl_float.c
00000000 l    df *ABS*	00000000 strnlen.c
00000000 l    df *ABS*	00000000 _sbrk.c
000809c0 l     O .sbss	00000004 heap_end.0
00000000 l    df *ABS*	00000000 libgcc2.c
00000000 l    df *ABS*	00000000 libgcc2.c
00000000 l    df *ABS*	00000000 riscv_dsp_cos_table_q15_1024.c
00000000 l    df *ABS*	00000000 printf_data.c
00000000 l    df *ABS*	00000000 impure.c
000809c4 l     O .bss	00000000 impure_data
00002768  w      .ram_code	00000000 entry_irq55
00002768  w      .ram_code	00000000 entry_irq13
00005100 g     F .ram_code	00000036 strcpy
00002768  w      .ram_code	00000000 entry_irq15
000051ac g     F .ram_code	0000002e .hidden __ashldi3
00002768  w      .ram_code	00000000 entry_irq27
00002768  w      .ram_code	00000000 entry_irq60
00002768  w      .ram_code	00000000 entry_irq1
00002768  w      .ram_code	00000000 entry_irq52
00002768  w      .ram_code	00000000 entry_irq50
00002768  w      .ram_code	00000000 entry_irq62
000046b8 g     F .ram_code	0000001e printf
00080800 g       .data	00000000 __global_pointer$
000051e4 g       .ram_code	00000000 .hidden __riscv_save_8
00002768  w      .ram_code	00000000 entry_irq58
00002854 g     F .ram_code	00000092 riscv_dsp_atan2_q15
00005230 g       .ram_code	00000000 .hidden __riscv_restore_3
000001bc g       .retention_data	00000000 _RETENTION_DATA_VMA_END
00002770 g     F .ram_code	000000e2 riscv_dsp_atan2_f32
0000521c g       .ram_code	00000000 .hidden __riscv_restore_10
00002964 g     F .ram_code	00000078 riscv_dsp_sin_q15
000051e4 g       .ram_code	00000000 .hidden __riscv_save_11
000047b8 g     F .ram_code	00000048 __print_integral
00004800 g     F .ram_code	0000045a __printf_impl_lite
00000000 g       .retention_reset	00000000 _RETENTION_RESET_VMA_START
00002768  w      .ram_code	00000000 entry_irq10
00002768  w      .ram_code	00000000 entry_irq21
00000158 g       .retention_data	00000000 _AES_VMA_START
00002c48 g     F .ram_code	00000146 ref__mathlib_rredf2
00002768  w      .ram_code	00000000 entry_irq48
00005230 g       .ram_code	00000000 .hidden __riscv_restore_2
00002768  w      .ram_code	00000000 entry_irq8
00002768  w      .ram_code	00000000 entry_irq33
000809c8 g       .bss	00000000 _BSS_VMA_END
20000190 g       *ABS*	00000000 _RETENTION_RESET_LMA_START
0000405c g     F .ram_code	0000007a .hidden __floatsidf
00080000 g     O .data	0000001c cst_libm_sincosf
00004800 g     F .ram_code	0000045a __printf_impl
00002768  w      .ram_code	00000000 entry_irq12
000046d6 g     F .ram_code	00000034 puts
000044e8 g     F .ram_code	00000008 malloc
00002768  w      .ram_code	00000000 entry_irq14
000051dc g       .ram_code	00000000 .hidden __riscv_save_12
00003fc4 g     F .ram_code	00000096 .hidden __fixunsdfsi
000028e8 g     F .ram_code	00000002 riscv_dsp_cos_f32
00002768  w      .ram_code	00000000 entry_irq2
00002768  w      .ram_code	00000000 entry_irq51
0000521c g       .ram_code	00000000 .hidden __riscv_restore_11
00002768  w      .ram_code	00000000 entry_irq28
00002768  w      .ram_code	00000000 entry_irq43
0000520c g       .ram_code	00000000 .hidden __riscv_save_1
00005230 g       .ram_code	00000000 .hidden __riscv_restore_0
00002768  w      .ram_code	00000000 entry_irq20
000051f2 g       .ram_code	00000000 .hidden __riscv_save_7
00080988 g       .sbss	00000000 _BSS_VMA_START
00002768  w      .ram_code	00000000 entry_irq63
00080984 g       .data	00000000 _DATA_VMA_END
000805e4 g     O .data	00000202 riscv_dsp_cos_table_q15_linear_1024
000040d8 g     F .ram_code	00000110 .hidden __extendsfdf2
00002768  w      .ram_code	00000000 entry_irq46
00002768  w      .ram_code	00000000 entry_irq31
00002768  w      .ram_code	00000000 entry_irq16
000028ec g     F .ram_code	00000070 riscv_dsp_cos_q15
00100000 g       *ABS*	00000000 FLASH_SIZE
00005226 g       .ram_code	00000000 .hidden __riscv_restore_5
00080000 g       .data	00000000 _DATA_VMA_START
0000514e  w    F .ram_code	0000002c _sbrk
00002768  w      .ram_code	00000000 entry_irq53
00002768  w      .ram_code	00000000 entry_irq11
00080808 g     O .data	00000018 cst_libm_rredf
00000154 g       .retention_reset	00000000 _RETENTION_RESET_VMA_END
00002aa8 g     F .ram_code	000001a0 cosf
00005136 g     F .ram_code	00000018 strnlen
00005226 g       .ram_code	00000000 .hidden __riscv_restore_6
00002768  w      .ram_code	00000000 entry_irq5
00003efc g     F .ram_code	000000c8 .hidden __fixdfsi
00002768  w      .ram_code	00000000 entry_irq23
0000276a  w      .ram_code	00000000 trap_handler
00002768  w      .ram_code	00000000 entry_irq34
0000517c g     F .ram_code	0000002e .hidden __lshrdi3
00002768  w      .ram_code	00000000 entry_irq36
000051e4 g       .ram_code	00000000 .hidden __riscv_save_9
00002768  w      .ram_code	00000000 entry_irq44
00004770 g     F .ram_code	00000048 vprintf
00002768  w      .ram_code	00000000 entry_irq45
00002768  w      .ram_code	00000000 entry_irq26
000051f2 g       .ram_code	00000000 .hidden __riscv_save_4
00002768  w      .ram_code	00000000 entry_irq41
00002768  w      .ram_code	00000000 entry_irq61
20000000 g       .vectors	00000000 BIN_BEGIN
0000457e g     F .ram_code	00000090 _free_r
0000520c g       .ram_code	00000000 .hidden __riscv_save_3
000029e0 g     F .ram_code	0000001a riscv_dsp_sqrt_f32
00002768  w      .ram_code	00000000 entry_irq38
00001100 g       .ram_code	00000000 __vectors
00005e2e g       *ABS*	00000000 BIN_SIZE
000808d8 g     O .data	00000010 __digits
20000350 g       *ABS*	00000000 _RAMCODE_LMA_START
000809bc g     O .sbss	00000004 __printf_count
00002768  w      .ram_code	00000000 entry_irq59
000030c4 g     F .ram_code	000007ea .hidden __divdf3
00002768  w      .ram_code	00000000 entry_irq6
000038b0 g     F .ram_code	00000648 .hidden __muldf3
000051e4 g       .ram_code	00000000 .hidden __riscv_save_10
000809a8 g     O .sbss	00000004 __mculib_REENT_errno
20005488 g       *ABS*	00000000 _DATA_LMA_START
00004c7a g     F .ram_code	00000086 __print_integral_poly
20000000 g       *ABS*	00000000 NDS_SAG_LMA_FLASH
00005226 g       .ram_code	00000000 .hidden __riscv_restore_4
0000521c g       .ram_code	00000000 .hidden __riscv_restore_8
000051f2 g       .ram_code	00000000 .hidden __riscv_save_6
20000000  w      .vectors	00000000 _RELAX_END_
00004d00 g     F .ram_code	00000400 __printf_float_impl
000044f8 g     F .ram_code	00000086 memset
0000521c g       .ram_code	00000000 .hidden __riscv_restore_9
00005226 g       .ram_code	00000000 .hidden __riscv_restore_7
000015c4 g     F .ram_code	000011a0 main
00002768 g       .ram_code	00000000 default_irq_entry
00002768  w      .ram_code	00000000 entry_irq3
00000fd4 g     F .ram_code	00000100 trap_entry
00000158 g       .retention_data	00000000 _AES_VMA_END
000041e8 g     F .ram_code	00000300 .hidden __truncdfsf2
00002768  w      .ram_code	00000000 entry_irq39
00002768  w      .ram_code	00000000 entry_irq49
0000460e g     F .ram_code	000000aa _malloc_r
00002768  w      .ram_code	00000000 entry_irq57
00002768  w      .ram_code	00000000 entry_irq47
200002e8 g       *ABS*	00000000 _RETENTION_DATA_LMA_START
20000000 g     F .vectors	00000000 _RESET_ENTRY
000046b8 g     F .ram_code	0000001e iprintf
00000158 g       .retention_data	00000000 _RETENTION_DATA_VMA_START
00002768  w      .ram_code	00000000 entry_irq4
000a0000 g       *ABS*	00000000 _STACK_TOP
00002768  w      .ram_code	00000000 entry_irq22
00002768  w      .ram_code	00000000 entry_irq30
00002d90 g     F .ram_code	000001a4 sincosf
00080980 g     O .data	00000004 _impure_ptr
00002768  w      .ram_code	00000000 entry_irq42
00002768  w      .ram_code	00000000 entry_irq24
00002f38 g     F .ram_code	0000018c sinf
0000520c g       .ram_code	00000000 .hidden __riscv_save_2
00005334 g       .ram_code	00000000 _RAMCODE_VMA_END
00000000  w      *ABS*	00000000 _ITB_BASE_
000051f2 g       .ram_code	00000000 .hidden __riscv_save_5
00002768  w      .ram_code	00000000 entry_irq19
000029fc g     F .ram_code	000000aa riscv_dsp_sqrt_q15
0000157c g     F .ram_code	00000048 _write
000809f0 g       .sdk_version	00000000 _end
00002768  w      .ram_code	00000000 entry_irq17
00002960 g     F .ram_code	00000002 riscv_dsp_sin_f32
00002768  w      .ram_code	00000000 entry_irq9
00002768  w      .ram_code	00000000 entry_irq56
00002768  w      .ram_code	00000000 entry_irq35
00002768  w      .ram_code	00000000 entry_irq37
000001b8 g     O .retention_data	00000004 g_pm_mspi_cfg
00002768  w      .ram_code	00000000 entry_irq54
00002768  w      .ram_code	00000000 entry_irq40
00005218 g       .ram_code	00000000 .hidden __riscv_restore_12
00000200 g       .ram_code	00000000 _RAMCODE_VMA_START
0000520c g       .ram_code	00000000 .hidden __riscv_save_0
0000470c g     F .ram_code	00000028 strlen
00002768  w      .ram_code	00000000 entry_irq29
000809ac g     O .sbss	00000004 __malloc_sbrk_start
000809b0 g     O .sbss	00000004 __malloc_free_list
00005230 g       .ram_code	00000000 .hidden __riscv_restore_1
00002768  w      .ram_code	00000000 entry_irq7
00002768  w      .ram_code	00000000 entry_irq32
00000000 g     F .retention_reset	00000000 _IRESET_ENTRY
00002768  w      .ram_code	00000000 entry_irq18
00004770 g     F .ram_code	00000048 viprintf
00004c5a g     F .ram_code	00000020 __int_to_poly
000044f0 g     F .ram_code	00000008 free
00002768  w      .ram_code	00000000 entry_irq25



Disassembly of section .vectors:

20000000 <_RESET_ENTRY>:
20000000:	a025                	c.j	20000028 <_START>
	...
20000016:	0000                	unimp
20000018:	5e2e                	c.lwsp	t3,232(sp)
2000001a:	0000                	unimp
2000001c:	0000                	unimp
2000001e:	0000                	unimp
20000020:	544c4e4b          	fnmsub.h	ft8,fs8,ft4,fa0,rmm
20000024:	0000                	unimp
20000026:	          	sllw	a4,zero,zero

20000028 <_START>:
20000028:	e0080197          	auipc	gp,0xe0080
2000002c:	7d818193          	addi	gp,gp,2008 # 80800 <__global_pointer$>
20000030:	801002b7          	lui	t0,0x80100
20000034:	70028293          	addi	t0,t0,1792 # 80100700 <_DATA_LMA_START+0x600fb278>
20000038:	04000313          	li	t1,64
2000003c:	506280a3          	sb	t1,1281(t0)
20000040:	e00a0297          	auipc	t0,0xe00a0
20000044:	fc028293          	addi	t0,t0,-64 # a0000 <_STACK_TOP>
20000048:	8116                	c.mv	sp,t0
2000004a:	e0000297          	auipc	t0,0xe0000
2000004e:	fb628293          	addi	t0,t0,-74 # 0 <_ITB_BASE_>
20000052:	80029073          	csrw	uitb,t0
20000056:	6299                	c.lui	t0,0x6
20000058:	3002a2f3          	csrrs	t0,mstatus,t0
2000005c:	00301073          	fssr	zero
20000060:	e0001297          	auipc	t0,0xe0001
20000064:	0a028293          	addi	t0,t0,160 # 1100 <__vectors>
20000068:	30529073          	csrw	mtvec,t0
2000006c:	7d016073          	csrsi	mmisc_ctl,2
20000070:	e40002b7          	lui	t0,0xe4000
20000074:	4309                	c.li	t1,2
20000076:	0062a023          	sw	t1,0(t0) # e4000000 <_DATA_LMA_START+0xc3ffab78>
2000007a:	7ca022f3          	csrr	t0,mcache_ctl
2000007e:	0012e293          	ori	t0,t0,1
20000082:	0022e293          	ori	t0,t0,2
20000086:	7ca29073          	csrw	mcache_ctl,t0
2000008a:	0000100f          	fence.i

2000008e <_RETENTION_RESET_INIT>:
2000008e:	00000317          	auipc	t1,0x0
20000092:	10230313          	addi	t1,t1,258 # 20000190 <_RETENTION_RESET_LMA_START>
20000096:	e0000397          	auipc	t2,0xe0000
2000009a:	f6a38393          	addi	t2,t2,-150 # 0 <_ITB_BASE_>
2000009e:	e0000e17          	auipc	t3,0xe0000
200000a2:	0b6e0e13          	addi	t3,t3,182 # 154 <_RETENTION_RESET_VMA_END>

200000a6 <_RETENTION_RESET_BEGIN>:
200000a6:	01c3f963          	bgeu	t2,t3,200000b8 <_RETENTION_DATA_INIT>
200000aa:	00032283          	lw	t0,0(t1)
200000ae:	0053a023          	sw	t0,0(t2)
200000b2:	0311                	c.addi	t1,4
200000b4:	0391                	c.addi	t2,4
200000b6:	bfc5                	c.j	200000a6 <_RETENTION_RESET_BEGIN>

200000b8 <_RETENTION_DATA_INIT>:
200000b8:	00000317          	auipc	t1,0x0
200000bc:	23030313          	addi	t1,t1,560 # 200002e8 <_RETENTION_DATA_LMA_START>
200000c0:	15800393          	li	t2,344
200000c4:	e0000e17          	auipc	t3,0xe0000
200000c8:	0f8e0e13          	addi	t3,t3,248 # 1bc <_RETENTION_DATA_VMA_END>

200000cc <_RETENTION_DATA_INIT_BEGIN>:
200000cc:	01c3f963          	bgeu	t2,t3,200000de <_RAMCODE_INIT>
200000d0:	00032283          	lw	t0,0(t1)
200000d4:	0053a023          	sw	t0,0(t2)
200000d8:	0311                	c.addi	t1,4
200000da:	0391                	c.addi	t2,4
200000dc:	bfc5                	c.j	200000cc <_RETENTION_DATA_INIT_BEGIN>

200000de <_RAMCODE_INIT>:
200000de:	00000317          	auipc	t1,0x0
200000e2:	27230313          	addi	t1,t1,626 # 20000350 <_RAMCODE_LMA_START>
200000e6:	e0000397          	auipc	t2,0xe0000
200000ea:	11a38393          	addi	t2,t2,282 # 200 <delay_ms.constprop.12>
200000ee:	e0005e17          	auipc	t3,0xe0005
200000f2:	246e0e13          	addi	t3,t3,582 # 5334 <_RAMCODE_VMA_END>

200000f6 <_RAMCODE_INIT_BEGIN>:
200000f6:	01c3f963          	bgeu	t2,t3,20000108 <_DATA_INIT>
200000fa:	00032283          	lw	t0,0(t1)
200000fe:	0053a023          	sw	t0,0(t2)
20000102:	0311                	c.addi	t1,4
20000104:	0391                	c.addi	t2,4
20000106:	bfc5                	c.j	200000f6 <_RAMCODE_INIT_BEGIN>

20000108 <_DATA_INIT>:
20000108:	00005317          	auipc	t1,0x5
2000010c:	38030313          	addi	t1,t1,896 # 20005488 <_DATA_LMA_START>
20000110:	e0080397          	auipc	t2,0xe0080
20000114:	ef038393          	addi	t2,t2,-272 # 80000 <cst_libm_sincosf>
20000118:	e0081e17          	auipc	t3,0xe0081
2000011c:	86ce0e13          	addi	t3,t3,-1940 # 80984 <_DATA_VMA_END>

20000120 <_DATA_INIT_BEGIN>:
20000120:	01c3f963          	bgeu	t2,t3,20000132 <_ZERO_BSS>
20000124:	00032283          	lw	t0,0(t1)
20000128:	0053a023          	sw	t0,0(t2)
2000012c:	0311                	c.addi	t1,4
2000012e:	0391                	c.addi	t2,4
20000130:	bfc5                	c.j	20000120 <_DATA_INIT_BEGIN>

20000132 <_ZERO_BSS>:
20000132:	000002b7          	lui	t0,0x0
20000136:	e0081397          	auipc	t2,0xe0081
2000013a:	85238393          	addi	t2,t2,-1966 # 80988 <_BSS_VMA_START>
2000013e:	e0081e17          	auipc	t3,0xe0081
20000142:	88ae0e13          	addi	t3,t3,-1910 # 809c8 <_BSS_VMA_END>

20000146 <_ZERO_BSS_BEGIN>:
20000146:	01c3f663          	bgeu	t2,t3,20000152 <_ZERO_AES>
2000014a:	0053a023          	sw	t0,0(t2)
2000014e:	0391                	c.addi	t2,4
20000150:	bfdd                	c.j	20000146 <_ZERO_BSS_BEGIN>

20000152 <_ZERO_AES>:
20000152:	000002b7          	lui	t0,0x0
20000156:	e0000397          	auipc	t2,0xe0000
2000015a:	00238393          	addi	t2,t2,2 # 158 <_AES_VMA_END>
2000015e:	e0000e17          	auipc	t3,0xe0000
20000162:	ffae0e13          	addi	t3,t3,-6 # 158 <_AES_VMA_END>

20000166 <_ZERO_AES_BEGIN>:
20000166:	01c3f663          	bgeu	t2,t3,20000172 <_FILL_STK>
2000016a:	0053a023          	sw	t0,0(t2)
2000016e:	0391                	c.addi	t2,4
20000170:	bfdd                	c.j	20000166 <_ZERO_AES_BEGIN>

20000172 <_FILL_STK>:
20000172:	0001                	c.nop
20000174:	e0001297          	auipc	t0,0xe0001
20000178:	45028293          	addi	t0,t0,1104 # 15c4 <main>
2000017c:	9282                	c.jalr	t0
2000017e:	0001                	c.nop
20000180:	0001                	c.nop
20000182:	0001                	c.nop
20000184:	0001                	c.nop
20000186:	0001                	c.nop

20000188 <_END>:
20000188:	a001                	c.j	20000188 <_END>

Disassembly of section .retention_reset:

00000000 <_IRESET_ENTRY>:
   0:	a00d                	c.j	22 <_ISTART>
	...

00000022 <_ISTART>:
  22:	00080197          	auipc	gp,0x80
  26:	7de18193          	addi	gp,gp,2014 # 80800 <__global_pointer$>

0000002a <_ISWS_USB_DIS>:
  2a:	801002b7          	lui	t0,0x80100
  2e:	70028293          	addi	t0,t0,1792 # 80100700 <_DATA_LMA_START+0x600fb278>
  32:	04000313          	li	t1,64
  36:	506280a3          	sb	t1,1281(t0)
  3a:	000a0297          	auipc	t0,0xa0
  3e:	fc628293          	addi	t0,t0,-58 # a0000 <_STACK_TOP>
  42:	8116                	c.mv	sp,t0
  44:	00000297          	auipc	t0,0x0
  48:	fbc28293          	addi	t0,t0,-68 # 0 <_IRESET_ENTRY>
  4c:	80029073          	csrw	uitb,t0
  50:	6299                	c.lui	t0,0x6
  52:	3002a2f3          	csrrs	t0,mstatus,t0
  56:	00301073          	fssr	zero
  5a:	00001297          	auipc	t0,0x1
  5e:	0a628293          	addi	t0,t0,166 # 1100 <__vectors>
  62:	30529073          	csrw	mtvec,t0
  66:	7d016073          	csrsi	mmisc_ctl,2
  6a:	e40002b7          	lui	t0,0xe4000
  6e:	4309                	c.li	t1,2
  70:	0062a023          	sw	t1,0(t0) # e4000000 <_DATA_LMA_START+0xc3ffab78>
  74:	7ca022f3          	csrr	t0,mcache_ctl
  78:	0012e293          	ori	t0,t0,1
  7c:	0022e293          	ori	t0,t0,2
  80:	7ca29073          	csrw	mcache_ctl,t0
  84:	0000100f          	fence.i

00000088 <_WAKEUP_FLASH>:
  88:	801402b7          	lui	t0,0x80140
  8c:	0ff00313          	li	t1,255
  90:	4381                	c.li	t2,0
  92:	0ab00e13          	li	t3,171
  96:	326284a3          	sb	t1,809(t0) # 80140329 <_DATA_LMA_START+0x6013aea1>
  9a:	107280a3          	sb	t2,257(t0)
  9e:	11c28023          	sb	t3,256(t0)

000000a2 <_MSPI_WAIT>:
  a2:	801402b7          	lui	t0,0x80140
  a6:	10228383          	lb	t2,258(t0) # 80140102 <_DATA_LMA_START+0x6013ac7a>
  aa:	4e05                	c.li	t3,1
  ac:	4ec1                	c.li	t4,16
  ae:	fe7e0ae3          	beq	t3,t2,a2 <_MSPI_WAIT>
  b2:	11d280a3          	sb	t4,257(t0)
  b6:	4281                	c.li	t0,0
  b8:	14000313          	li	t1,320

000000bc <_WAIT_EFUSE_LOAD_AND_FLASH_WAKEUP_FINISH>:
  bc:	0285                	c.addi	t0,1
  be:	fe537fe3          	bgeu	t1,t0,bc <_WAIT_EFUSE_LOAD_AND_FLASH_WAKEUP_FINISH>

000000c2 <_MULTI_ADDRESS_BEGIN>:
  c2:	801402b7          	lui	t0,0x80140
  c6:	1b800313          	li	t1,440
  ca:	00032383          	lw	t2,0(t1)
  ce:	1072a223          	sw	t2,260(t0) # 80140104 <_DATA_LMA_START+0x6013ac7c>

000000d2 <_IZERO_BSS>:
  d2:	000002b7          	lui	t0,0x0
  d6:	00081397          	auipc	t2,0x81
  da:	8b238393          	addi	t2,t2,-1870 # 80988 <_BSS_VMA_START>
  de:	00081e17          	auipc	t3,0x81
  e2:	8eae0e13          	addi	t3,t3,-1814 # 809c8 <_BSS_VMA_END>

000000e6 <_IZERO_BSS_BEGIN>:
  e6:	01c3f663          	bgeu	t2,t3,f2 <_IZERO_AES>
  ea:	0053a023          	sw	t0,0(t2)
  ee:	0391                	c.addi	t2,4
  f0:	bfdd                	c.j	e6 <_IZERO_BSS_BEGIN>

000000f2 <_IZERO_AES>:
  f2:	000002b7          	lui	t0,0x0
  f6:	00000397          	auipc	t2,0x0
  fa:	06238393          	addi	t2,t2,98 # 158 <_AES_VMA_END>
  fe:	00000e17          	auipc	t3,0x0
 102:	05ae0e13          	addi	t3,t3,90 # 158 <_AES_VMA_END>

00000106 <_IZERO_AES_BEGIN>:
 106:	01c3f663          	bgeu	t2,t3,112 <_IDATA_INIT>
 10a:	0053a023          	sw	t0,0(t2)
 10e:	0391                	c.addi	t2,4
 110:	bfdd                	c.j	106 <_IZERO_AES_BEGIN>

00000112 <_IDATA_INIT>:
 112:	20005317          	auipc	t1,0x20005
 116:	37630313          	addi	t1,t1,886 # 20005488 <_DATA_LMA_START>
 11a:	00080397          	auipc	t2,0x80
 11e:	ee638393          	addi	t2,t2,-282 # 80000 <cst_libm_sincosf>
 122:	00081e17          	auipc	t3,0x81
 126:	862e0e13          	addi	t3,t3,-1950 # 80984 <_DATA_VMA_END>

0000012a <_IDATA_INIT_BEGIN>:
 12a:	01c3f963          	bgeu	t2,t3,13c <_IMAIN_FUNC>
 12e:	00032283          	lw	t0,0(t1)
 132:	0053a023          	sw	t0,0(t2)
 136:	0311                	c.addi	t1,4
 138:	0391                	c.addi	t2,4
 13a:	bfc5                	c.j	12a <_IDATA_INIT_BEGIN>

0000013c <_IMAIN_FUNC>:
 13c:	0001                	c.nop
 13e:	00001297          	auipc	t0,0x1
 142:	48628293          	addi	t0,t0,1158 # 15c4 <main>
 146:	9282                	c.jalr	t0
 148:	0001                	c.nop
 14a:	0001                	c.nop
 14c:	0001                	c.nop
 14e:	0001                	c.nop
 150:	0001                	c.nop

00000152 <_IEND>:
 152:	a001                	c.j	152 <_IEND>

Disassembly of section .ram_code:

00000200 <delay_ms.constprop.12>:
     200:	801407b7          	lui	a5,0x80140
     204:	0004e737          	lui	a4,0x4e
     208:	2007a603          	lw	a2,512(a5) # 80140200 <_DATA_LMA_START+0x6013ad78>
     20c:	801406b7          	lui	a3,0x80140
     210:	20070713          	addi	a4,a4,512 # 4e200 <BIN_SIZE+0x483d2>
     214:	2006a783          	lw	a5,512(a3) # 80140200 <_DATA_LMA_START+0x6013ad78>
     218:	8f91                	c.sub	a5,a2
     21a:	fef77de3          	bgeu	a4,a5,214 <delay_ms.constprop.12+0x14>
     21e:	8082                	c.jr	ra

00000220 <flash_send_addr>:
     220:	5d05275b          	bfoz	a4,a0,23,16
     224:	801407b7          	lui	a5,0x80140
     228:	801406b7          	lui	a3,0x80140
     22c:	10e78023          	sb	a4,256(a5) # 80140100 <_DATA_LMA_START+0x6013ac78>
     230:	10268783          	lb	a5,258(a3) # 80140102 <_DATA_LMA_START+0x6013ac7a>
     234:	fe07fe5b          	bbs	a5,0,230 <flash_send_addr+0x10>
     238:	3c8527db          	bfoz	a5,a0,15,8
     23c:	80140737          	lui	a4,0x80140
     240:	10f68023          	sb	a5,256(a3)
     244:	10270783          	lb	a5,258(a4) # 80140102 <_DATA_LMA_START+0x6013ac7a>
     248:	fe07fe5b          	bbs	a5,0,244 <flash_send_addr+0x24>
     24c:	0ff57513          	andi	a0,a0,255
     250:	801406b7          	lui	a3,0x80140
     254:	10a70023          	sb	a0,256(a4)
     258:	10268783          	lb	a5,258(a3) # 80140102 <_DATA_LMA_START+0x6013ac7a>
     25c:	fe07fe5b          	bbs	a5,0,258 <flash_send_addr+0x38>
     260:	00008067          	ret

00000264 <flash_send_cmd>:
     264:	801407b7          	lui	a5,0x80140
     268:	10178703          	lb	a4,257(a5) # 80140101 <_DATA_LMA_START+0x6013ac79>
     26c:	0ff77713          	andi	a4,a4,255
     270:	01076713          	ori	a4,a4,16
     274:	10e780a3          	sb	a4,257(a5)
     278:	0001                	c.nop
     27a:	0001                	c.nop
     27c:	0001                	c.nop
     27e:	0001                	c.nop
     280:	0001                	c.nop
     282:	0001                	c.nop
     284:	0001                	c.nop
     286:	0001                	c.nop
     288:	0001                	c.nop
     28a:	0001                	c.nop
     28c:	10178683          	lb	a3,257(a5)
     290:	80140737          	lui	a4,0x80140
     294:	0ef6f693          	andi	a3,a3,239
     298:	10d780a3          	sb	a3,257(a5)
     29c:	10a78023          	sb	a0,256(a5)
     2a0:	10270783          	lb	a5,258(a4) # 80140102 <_DATA_LMA_START+0x6013ac7a>
     2a4:	fe07fe5b          	bbs	a5,0,2a0 <flash_send_cmd+0x3c>
     2a8:	00008067          	ret

000002ac <clock_set_32k_tick>:
     2ac:	801406b7          	lui	a3,0x80140
     2b0:	20a68783          	lb	a5,522(a3) # 8014020a <_DATA_LMA_START+0x6013ad82>
     2b4:	80140737          	lui	a4,0x80140
     2b8:	0ff7f793          	andi	a5,a5,255
     2bc:	0017e793          	ori	a5,a5,1
     2c0:	20f68523          	sb	a5,522(a3)
     2c4:	20b70683          	lb	a3,523(a4) # 8014020b <_DATA_LMA_START+0x6013ad83>
     2c8:	20b70793          	addi	a5,a4,523
     2cc:	fe66fc5b          	bbs	a3,6,2c4 <clock_set_32k_tick+0x18>
     2d0:	20a72623          	sw	a0,524(a4)
     2d4:	4721                	c.li	a4,8
     2d6:	00e78023          	sb	a4,0(a5)
     2da:	0001                	c.nop
     2dc:	0001                	c.nop
     2de:	0001                	c.nop
     2e0:	0001                	c.nop
     2e2:	0001                	c.nop
     2e4:	0001                	c.nop
     2e6:	0001                	c.nop
     2e8:	0001                	c.nop
     2ea:	0001                	c.nop
     2ec:	0001                	c.nop
     2ee:	0001                	c.nop
     2f0:	0001                	c.nop
     2f2:	0001                	c.nop
     2f4:	0001                	c.nop
     2f6:	0001                	c.nop
     2f8:	00000013          	nop
     2fc:	801407b7          	lui	a5,0x80140
     300:	20b78703          	lb	a4,523(a5) # 8014020b <_DATA_LMA_START+0x6013ad83>
     304:	fe377e5b          	bbs	a4,3,300 <clock_set_32k_tick+0x54>
     308:	00008067          	ret

0000030c <analog_read_reg32.constprop.4>:
     30c:	300027f3          	csrr	a5,mstatus
     310:	8ba1                	c.andi	a5,8
     312:	c789                	c.beqz	a5,31c <analog_read_reg32.constprop.4+0x10>
     314:	30047773          	csrrci	a4,mstatus,8
     318:	0ff0000f          	fence
     31c:	80140737          	lui	a4,0x80140
     320:	00400693          	li	a3,4
     324:	18d701a3          	sb	a3,387(a4) # 80140183 <_DATA_LMA_START+0x6013acfb>
     328:	06000693          	li	a3,96
     32c:	18d70023          	sb	a3,384(a4)
     330:	04000613          	li	a2,64
     334:	801406b7          	lui	a3,0x80140
     338:	18c70123          	sb	a2,386(a4)
     33c:	18268703          	lb	a4,386(a3) # 80140182 <_DATA_LMA_START+0x6013acfa>
     340:	fe777e5b          	bbs	a4,7,33c <analog_read_reg32.constprop.4+0x30>
     344:	1846a503          	lw	a0,388(a3)
     348:	00078663          	beqz	a5,354 <analog_read_reg32.constprop.4+0x48>
     34c:	3007a7f3          	csrrs	a5,mstatus,a5
     350:	0ff0000f          	fence
     354:	00008067          	ret

00000358 <clock_get_32k_tick>:
     358:	1141                	c.addi	sp,-16
     35a:	c422                	c.swsp	s0,8(sp)
     35c:	c606                	c.swsp	ra,12(sp)
     35e:	377d                	c.jal	30c <analog_read_reg32.constprop.4>
     360:	00a00433          	add	s0,zero,a0
     364:	fa9ff0ef          	jal	ra,30c <analog_read_reg32.constprop.4>
     368:	40850733          	sub	a4,a0,s0
     36c:	842a                	c.mv	s0,a0
     36e:	be176b5b          	bnec	a4,1,364 <clock_get_32k_tick+0xc>
     372:	40b2                	c.lwsp	ra,12(sp)
     374:	4422                	c.lwsp	s0,8(sp)
     376:	0141                	c.addi	sp,16
     378:	00008067          	ret

0000037c <pm_stimer_recover>:
     37c:	1141                	c.addi	sp,-16
     37e:	80140737          	lui	a4,0x80140
     382:	c606                	c.swsp	ra,12(sp)
     384:	4789                	c.li	a5,2
     386:	20f70c23          	sb	a5,536(a4) # 80140218 <_DATA_LMA_START+0x6013ad90>
     38a:	20a70783          	lb	a5,522(a4)
     38e:	0ff7f793          	andi	a5,a5,255
     392:	00c7e793          	ori	a5,a5,12
     396:	20f70523          	sb	a5,522(a4)
     39a:	3f7d                	c.jal	358 <clock_get_32k_tick>
     39c:	00000737          	lui	a4,0x0
     3a0:	15870793          	addi	a5,a4,344 # 158 <_AES_VMA_END>
     3a4:	0047c783          	lbu	a5,4(a5)
     3a8:	15870713          	addi	a4,a4,344
     3ac:	cf81                	c.beqz	a5,3c4 <pm_stimer_recover+0x48>
     3ae:	4754                	c.lw	a3,12(a4)
     3b0:	5b50                	c.lw	a2,52(a4)
     3b2:	40d506b3          	sub	a3,a0,a3
     3b6:	471c                	c.lw	a5,8(a4)
     3b8:	0685                	c.addi	a3,1
     3ba:	8295                	c.srli	a3,0x5
     3bc:	c4c697ff          	maddr32	a5,a3,a2
     3c0:	0180006f          	j	3d8 <pm_stimer_recover+0x5c>
     3c4:	475c                	c.lw	a5,12(a4)
     3c6:	5b54                	c.lw	a3,52(a4)
     3c8:	40f507b3          	sub	a5,a0,a5
     3cc:	0785                	c.addi	a5,1
     3ce:	02d787b3          	mul	a5,a5,a3
     3d2:	4714                	c.lw	a3,8(a4)
     3d4:	8395                	c.srli	a5,0x5
     3d6:	97b6                	c.add	a5,a3
     3d8:	4754                	c.lw	a3,12(a4)
     3da:	00150593          	addi	a1,a0,1
     3de:	8d15                	c.sub	a0,a3
     3e0:	0505                	c.addi	a0,1
     3e2:	00178613          	addi	a2,a5,1
     3e6:	df1c                	c.sw	a5,56(a4)
     3e8:	d34c                	c.sw	a1,36(a4)
     3ea:	d308                	c.sw	a0,32(a4)
     3ec:	801407b7          	lui	a5,0x80140
     3f0:	801406b7          	lui	a3,0x80140
     3f4:	20c7a023          	sw	a2,512(a5) # 80140200 <_DATA_LMA_START+0x6013ad78>
     3f8:	20b68783          	lb	a5,523(a3) # 8014020b <_DATA_LMA_START+0x6013ad83>
     3fc:	be77fe5b          	bbc	a5,7,3f8 <pm_stimer_recover+0x7c>
     400:	20068c23          	sb	zero,536(a3)
     404:	40b2                	c.lwsp	ra,12(sp)
     406:	0141                	c.addi	sp,16
     408:	00008067          	ret

0000040c <plic_exit_critical_sec>:
     40c:	000007b7          	lui	a5,0x0
     410:	15878793          	addi	a5,a5,344 # 158 <_AES_VMA_END>
     414:	03c78783          	lb	a5,60(a5)
     418:	0ff7f793          	andi	a5,a5,255
     41c:	c795                	c.beqz	a5,448 <plic_exit_critical_sec+0x3c>
     41e:	c50d                	c.beqz	a0,448 <plic_exit_critical_sec+0x3c>
     420:	300027f3          	csrr	a5,mstatus
     424:	8ba1                	c.andi	a5,8
     426:	0ff5f593          	andi	a1,a1,255
     42a:	c78d                	c.beqz	a5,454 <plic_exit_critical_sec+0x48>
     42c:	30047773          	csrrci	a4,mstatus,8
     430:	0ff0000f          	fence
     434:	e4200737          	lui	a4,0xe4200
     438:	c30c                	c.sw	a1,0(a4)
     43a:	0ff0000f          	fence
     43e:	3007a7f3          	csrrs	a5,mstatus,a5
     442:	0ff0000f          	fence
     446:	8082                	c.jr	ra
     448:	cd81                	c.beqz	a1,460 <plic_exit_critical_sec+0x54>
     44a:	3005a5f3          	csrrs	a1,mstatus,a1
     44e:	0ff0000f          	fence
     452:	8082                	c.jr	ra
     454:	e42007b7          	lui	a5,0xe4200
     458:	00b7a023          	sw	a1,0(a5) # e4200000 <_DATA_LMA_START+0xc41fab78>
     45c:	0ff0000f          	fence
     460:	00008067          	ret

00000464 <plic_enter_critical_sec>:
     464:	000007b7          	lui	a5,0x0
     468:	15878793          	addi	a5,a5,344 # 158 <_AES_VMA_END>
     46c:	03c78783          	lb	a5,60(a5)
     470:	0ff7f793          	andi	a5,a5,255
     474:	cb85                	c.beqz	a5,4a4 <plic_enter_critical_sec+0x40>
     476:	c51d                	c.beqz	a0,4a4 <plic_enter_critical_sec+0x40>
     478:	e4200737          	lui	a4,0xe4200
     47c:	4308                	c.lw	a0,0(a4)
     47e:	04b57163          	bgeu	a0,a1,4c0 <plic_enter_critical_sec+0x5c>
     482:	300027f3          	csrr	a5,mstatus
     486:	8ba1                	c.andi	a5,8
     488:	cb85                	c.beqz	a5,4b8 <plic_enter_critical_sec+0x54>
     48a:	300476f3          	csrrci	a3,mstatus,8
     48e:	0ff0000f          	fence
     492:	c30c                	c.sw	a1,0(a4)
     494:	0ff0000f          	fence
     498:	3007a7f3          	csrrs	a5,mstatus,a5
     49c:	0ff0000f          	fence
     4a0:	00008067          	ret
     4a4:	30002573          	csrr	a0,mstatus
     4a8:	8921                	c.andi	a0,8
     4aa:	c919                	c.beqz	a0,4c0 <plic_enter_critical_sec+0x5c>
     4ac:	300477f3          	csrrci	a5,mstatus,8
     4b0:	0ff0000f          	fence
     4b4:	00008067          	ret
     4b8:	00b72023          	sw	a1,0(a4) # e4200000 <_DATA_LMA_START+0xc41fab78>
     4bc:	0ff0000f          	fence
     4c0:	00008067          	ret

000004c4 <flash_mspi_read_ram>:
     4c4:	7179                	c.addi16sp	sp,-48
     4c6:	d226                	c.swsp	s1,36(sp)
     4c8:	000004b7          	lui	s1,0x0
     4cc:	15848493          	addi	s1,s1,344 # 158 <_AES_VMA_END>
     4d0:	d04a                	c.swsp	s2,32(sp)
     4d2:	c65e                	c.swsp	s7,12(sp)
     4d4:	892a                	c.mv	s2,a0
     4d6:	8bae                	c.mv	s7,a1
     4d8:	0404c503          	lbu	a0,64(s1)
     4dc:	0414c583          	lbu	a1,65(s1)
     4e0:	d422                	c.swsp	s0,40(sp)
     4e2:	ce4e                	c.swsp	s3,28(sp)
     4e4:	cc52                	c.swsp	s4,24(sp)
     4e6:	ca56                	c.swsp	s5,20(sp)
     4e8:	c85a                	c.swsp	s6,16(sp)
     4ea:	d606                	c.swsp	ra,44(sp)
     4ec:	8b32                	c.mv	s6,a2
     4ee:	8ab6                	c.mv	s5,a3
     4f0:	843a                	c.mv	s0,a4
     4f2:	8a3e                	c.mv	s4,a5
     4f4:	f71ff0ef          	jal	ra,464 <plic_enter_critical_sec>
     4f8:	80140637          	lui	a2,0x80140
     4fc:	00a009b3          	add	s3,zero,a0
     500:	10260783          	lb	a5,258(a2) # 80140102 <_DATA_LMA_START+0x6013ac7a>
     504:	fe07fe5b          	bbs	a5,0,500 <flash_mspi_read_ram+0x3c>
     508:	10160783          	lb	a5,257(a2)
     50c:	80140737          	lui	a4,0x80140
     510:	0ff7f793          	andi	a5,a5,255
     514:	0107e793          	ori	a5,a5,16
     518:	10f600a3          	sb	a5,257(a2)
     51c:	32870783          	lb	a5,808(a4) # 80140328 <_DATA_LMA_START+0x6013aea0>
     520:	be37fe5b          	bbc	a5,3,51c <flash_mspi_read_ram+0x58>
     524:	10170783          	lb	a5,257(a4)
     528:	854a                	c.mv	a0,s2
     52a:	0fd7f793          	andi	a5,a5,253
     52e:	10f700a3          	sb	a5,257(a4)
     532:	10170783          	lb	a5,257(a4)
     536:	0f37f793          	andi	a5,a5,243
     53a:	10f700a3          	sb	a5,257(a4)
     53e:	331d                	c.jal	264 <flash_send_cmd>
     540:	0e0b1e63          	bnez	s6,63c <flash_mspi_read_ram+0x178>
     544:	020a8063          	beqz	s5,564 <flash_mspi_read_ram+0xa0>
     548:	00000713          	li	a4,0
     54c:	80140637          	lui	a2,0x80140
     550:	10060023          	sb	zero,256(a2) # 80140100 <_DATA_LMA_START+0x6013ac78>
     554:	10260783          	lb	a5,258(a2)
     558:	fe07fe5b          	bbs	a5,0,554 <flash_mspi_read_ram+0x90>
     55c:	00170713          	addi	a4,a4,1
     560:	ff5718e3          	bne	a4,s5,550 <flash_mspi_read_ram+0x8c>
     564:	01b96cdb          	bnec	s2,59,57c <flash_mspi_read_ram+0xb8>
     568:	80140737          	lui	a4,0x80140
     56c:	10170783          	lb	a5,257(a4) # 80140101 <_DATA_LMA_START+0x6013ac79>
     570:	0f37f793          	andi	a5,a5,243
     574:	0047e793          	ori	a5,a5,4
     578:	10f700a3          	sb	a5,257(a4)
     57c:	801406b7          	lui	a3,0x80140
     580:	10168783          	lb	a5,257(a3) # 80140101 <_DATA_LMA_START+0x6013ac79>
     584:	80140737          	lui	a4,0x80140
     588:	0ff7f793          	andi	a5,a5,255
     58c:	0027e793          	ori	a5,a5,2
     590:	10f680a3          	sb	a5,257(a3)
     594:	10068023          	sb	zero,256(a3)
     598:	10270783          	lb	a5,258(a4) # 80140102 <_DATA_LMA_START+0x6013ac7a>
     59c:	fe07fe5b          	bbs	a5,0,598 <flash_mspi_read_ram+0xd4>
     5a0:	10170783          	lb	a5,257(a4)
     5a4:	801406b7          	lui	a3,0x80140
     5a8:	0ff7f793          	andi	a5,a5,255
     5ac:	0017e793          	ori	a5,a5,1
     5b0:	10f700a3          	sb	a5,257(a4)
     5b4:	10268783          	lb	a5,258(a3) # 80140102 <_DATA_LMA_START+0x6013ac7a>
     5b8:	fe07fe5b          	bbs	a5,0,5b4 <flash_mspi_read_ram+0xf0>
     5bc:	020a0263          	beqz	s4,5e0 <flash_mspi_read_ram+0x11c>
     5c0:	008a0a33          	add	s4,s4,s0
     5c4:	801406b7          	lui	a3,0x80140
     5c8:	10068783          	lb	a5,256(a3) # 80140100 <_DATA_LMA_START+0x6013ac78>
     5cc:	00140413          	addi	s0,s0,1
     5d0:	fef40fa3          	sb	a5,-1(s0)
     5d4:	10268783          	lb	a5,258(a3)
     5d8:	fe07fe5b          	bbs	a5,0,5d4 <flash_mspi_read_ram+0x110>
     5dc:	ff4416e3          	bne	s0,s4,5c8 <flash_mspi_read_ram+0x104>
     5e0:	801407b7          	lui	a5,0x80140
     5e4:	10178703          	lb	a4,257(a5) # 80140101 <_DATA_LMA_START+0x6013ac79>
     5e8:	0fe77713          	andi	a4,a4,254
     5ec:	10e780a3          	sb	a4,257(a5)
     5f0:	01b968db          	bnec	s2,59,600 <flash_mspi_read_ram+0x13c>
     5f4:	10178703          	lb	a4,257(a5)
     5f8:	0f377713          	andi	a4,a4,243
     5fc:	10e780a3          	sb	a4,257(a5)
     600:	80140737          	lui	a4,0x80140
     604:	10170783          	lb	a5,257(a4) # 80140101 <_DATA_LMA_START+0x6013ac79>
     608:	0ff7f793          	andi	a5,a5,255
     60c:	0107e793          	ori	a5,a5,16
     610:	10f700a3          	sb	a5,257(a4)
     614:	0001                	c.nop
     616:	0001                	c.nop
     618:	0001                	c.nop
     61a:	0001                	c.nop
     61c:	0001                	c.nop
     61e:	5422                	c.lwsp	s0,40(sp)
     620:	0404c503          	lbu	a0,64(s1)
     624:	50b2                	c.lwsp	ra,44(sp)
     626:	5492                	c.lwsp	s1,36(sp)
     628:	5902                	c.lwsp	s2,32(sp)
     62a:	4a62                	c.lwsp	s4,24(sp)
     62c:	4ad2                	c.lwsp	s5,20(sp)
     62e:	4b42                	c.lwsp	s6,16(sp)
     630:	4bb2                	c.lwsp	s7,12(sp)
     632:	85ce                	c.mv	a1,s3
     634:	49f2                	c.lwsp	s3,28(sp)
     636:	6145                	c.addi16sp	sp,48
     638:	dd5ff06f          	j	40c <plic_exit_critical_sec>
     63c:	855e                	c.mv	a0,s7
     63e:	36cd                	c.jal	220 <flash_send_addr>
     640:	f05ff06f          	j	544 <flash_mspi_read_ram+0x80>

00000644 <flash_mspi_read_ram.constprop.7>:
     644:	1101                	c.addi	sp,-32
     646:	c64e                	c.swsp	s3,12(sp)
     648:	000009b7          	lui	s3,0x0
     64c:	15898993          	addi	s3,s3,344 # 158 <_AES_VMA_END>
     650:	cc22                	c.swsp	s0,24(sp)
     652:	c256                	c.swsp	s5,4(sp)
     654:	842e                	c.mv	s0,a1
     656:	8aaa                	c.mv	s5,a0
     658:	0419c583          	lbu	a1,65(s3)
     65c:	0409c503          	lbu	a0,64(s3)
     660:	c84a                	c.swsp	s2,16(sp)
     662:	c452                	c.swsp	s4,8(sp)
     664:	ce06                	c.swsp	ra,28(sp)
     666:	ca26                	c.swsp	s1,20(sp)
     668:	8932                	c.mv	s2,a2
     66a:	3bed                	c.jal	464 <plic_enter_critical_sec>
     66c:	80140737          	lui	a4,0x80140
     670:	00a00a33          	add	s4,zero,a0
     674:	10270783          	lb	a5,258(a4) # 80140102 <_DATA_LMA_START+0x6013ac7a>
     678:	fe07fe5b          	bbs	a5,0,674 <flash_mspi_read_ram.constprop.7+0x30>
     67c:	10170783          	lb	a5,257(a4)
     680:	801404b7          	lui	s1,0x80140
     684:	0ff7f793          	andi	a5,a5,255
     688:	0107e793          	ori	a5,a5,16
     68c:	10f700a3          	sb	a5,257(a4)
     690:	32848783          	lb	a5,808(s1) # 80140328 <_DATA_LMA_START+0x6013aea0>
     694:	be37fe5b          	bbc	a5,3,690 <flash_mspi_read_ram.constprop.7+0x4c>
     698:	10148783          	lb	a5,257(s1)
     69c:	03b00513          	li	a0,59
     6a0:	0fd7f793          	andi	a5,a5,253
     6a4:	10f480a3          	sb	a5,257(s1)
     6a8:	10148783          	lb	a5,257(s1)
     6ac:	0f37f793          	andi	a5,a5,243
     6b0:	10f480a3          	sb	a5,257(s1)
     6b4:	bb1ff0ef          	jal	ra,264 <flash_send_cmd>
     6b8:	01500533          	add	a0,zero,s5
     6bc:	b65ff0ef          	jal	ra,220 <flash_send_addr>
     6c0:	80140737          	lui	a4,0x80140
     6c4:	10048023          	sb	zero,256(s1)
     6c8:	10270783          	lb	a5,258(a4) # 80140102 <_DATA_LMA_START+0x6013ac7a>
     6cc:	fe07fe5b          	bbs	a5,0,6c8 <flash_mspi_read_ram.constprop.7+0x84>
     6d0:	10170783          	lb	a5,257(a4)
     6d4:	801406b7          	lui	a3,0x80140
     6d8:	0f37f793          	andi	a5,a5,243
     6dc:	0047e793          	ori	a5,a5,4
     6e0:	10f700a3          	sb	a5,257(a4)
     6e4:	10170783          	lb	a5,257(a4)
     6e8:	0ff7f793          	andi	a5,a5,255
     6ec:	0027e793          	ori	a5,a5,2
     6f0:	10f700a3          	sb	a5,257(a4)
     6f4:	10070023          	sb	zero,256(a4)
     6f8:	10268783          	lb	a5,258(a3) # 80140102 <_DATA_LMA_START+0x6013ac7a>
     6fc:	fe07fe5b          	bbs	a5,0,6f8 <flash_mspi_read_ram.constprop.7+0xb4>
     700:	10168783          	lb	a5,257(a3)
     704:	80140737          	lui	a4,0x80140
     708:	0ff7f793          	andi	a5,a5,255
     70c:	0017e793          	ori	a5,a5,1
     710:	10f680a3          	sb	a5,257(a3)
     714:	10270783          	lb	a5,258(a4) # 80140102 <_DATA_LMA_START+0x6013ac7a>
     718:	fe07fe5b          	bbs	a5,0,714 <flash_mspi_read_ram.constprop.7+0xd0>
     71c:	02090263          	beqz	s2,740 <flash_mspi_read_ram.constprop.7+0xfc>
     720:	01240633          	add	a2,s0,s2
     724:	80140737          	lui	a4,0x80140
     728:	10070783          	lb	a5,256(a4) # 80140100 <_DATA_LMA_START+0x6013ac78>
     72c:	00140413          	addi	s0,s0,1
     730:	fef40fa3          	sb	a5,-1(s0)
     734:	10270783          	lb	a5,258(a4)
     738:	fe07fe5b          	bbs	a5,0,734 <flash_mspi_read_ram.constprop.7+0xf0>
     73c:	fec416e3          	bne	s0,a2,728 <flash_mspi_read_ram.constprop.7+0xe4>
     740:	801407b7          	lui	a5,0x80140
     744:	10178703          	lb	a4,257(a5) # 80140101 <_DATA_LMA_START+0x6013ac79>
     748:	0fe77713          	andi	a4,a4,254
     74c:	10e780a3          	sb	a4,257(a5)
     750:	10178703          	lb	a4,257(a5)
     754:	0f377713          	andi	a4,a4,243
     758:	10e780a3          	sb	a4,257(a5)
     75c:	10178703          	lb	a4,257(a5)
     760:	0ff77713          	andi	a4,a4,255
     764:	01076713          	ori	a4,a4,16
     768:	10e780a3          	sb	a4,257(a5)
     76c:	0001                	c.nop
     76e:	0001                	c.nop
     770:	0001                	c.nop
     772:	0001                	c.nop
     774:	0001                	c.nop
     776:	4462                	c.lwsp	s0,24(sp)
     778:	0409c503          	lbu	a0,64(s3)
     77c:	40f2                	c.lwsp	ra,28(sp)
     77e:	44d2                	c.lwsp	s1,20(sp)
     780:	4942                	c.lwsp	s2,16(sp)
     782:	49b2                	c.lwsp	s3,12(sp)
     784:	4a92                	c.lwsp	s5,4(sp)
     786:	85d2                	c.mv	a1,s4
     788:	4a22                	c.lwsp	s4,8(sp)
     78a:	6105                	c.addi16sp	sp,32
     78c:	c81ff06f          	j	40c <plic_exit_critical_sec>

00000790 <analog_write_reg8>:
     790:	30002673          	csrr	a2,mstatus
     794:	8a21                	c.andi	a2,8
     796:	c609                	c.beqz	a2,7a0 <analog_write_reg8+0x10>
     798:	300477f3          	csrrci	a5,mstatus,8
     79c:	0ff0000f          	fence
     7a0:	80140737          	lui	a4,0x80140
     7a4:	18a70023          	sb	a0,384(a4) # 80140180 <_DATA_LMA_START+0x6013acf8>
     7a8:	18b70223          	sb	a1,388(a4)
     7ac:	06000693          	li	a3,96
     7b0:	801407b7          	lui	a5,0x80140
     7b4:	18d70123          	sb	a3,386(a4)
     7b8:	18278703          	lb	a4,386(a5) # 80140182 <_DATA_LMA_START+0x6013acfa>
     7bc:	fe777e5b          	bbs	a4,7,7b8 <analog_write_reg8+0x28>
     7c0:	18078123          	sb	zero,386(a5)
     7c4:	00060663          	beqz	a2,7d0 <analog_write_reg8+0x40>
     7c8:	30062673          	csrrs	a2,mstatus,a2
     7cc:	0ff0000f          	fence
     7d0:	00008067          	ret

000007d4 <analog_read_reg8>:
     7d4:	300026f3          	csrr	a3,mstatus
     7d8:	8aa1                	c.andi	a3,8
     7da:	c689                	c.beqz	a3,7e4 <analog_read_reg8+0x10>
     7dc:	300477f3          	csrrci	a5,mstatus,8
     7e0:	0ff0000f          	fence
     7e4:	801407b7          	lui	a5,0x80140
     7e8:	18a78023          	sb	a0,384(a5) # 80140180 <_DATA_LMA_START+0x6013acf8>
     7ec:	00100713          	li	a4,1
     7f0:	18e781a3          	sb	a4,387(a5)
     7f4:	04000613          	li	a2,64
     7f8:	80140737          	lui	a4,0x80140
     7fc:	18c78123          	sb	a2,386(a5)
     800:	18270783          	lb	a5,386(a4) # 80140182 <_DATA_LMA_START+0x6013acfa>
     804:	fe77fe5b          	bbs	a5,7,800 <analog_read_reg8+0x2c>
     808:	18470503          	lb	a0,388(a4)
     80c:	0ff57513          	andi	a0,a0,255
     810:	00068663          	beqz	a3,81c <analog_read_reg8+0x48>
     814:	3006a6f3          	csrrs	a3,mstatus,a3
     818:	0ff0000f          	fence
     81c:	00008067          	ret

00000820 <clock_init_ram.constprop.11>:
     820:	1141                	c.addi	sp,-16
     822:	80140737          	lui	a4,0x80140
     826:	c606                	c.swsp	ra,12(sp)
     828:	c422                	c.swsp	s0,8(sp)
     82a:	c226                	c.swsp	s1,4(sp)
     82c:	10270783          	lb	a5,258(a4) # 80140102 <_DATA_LMA_START+0x6013ac7a>
     830:	fe07fe5b          	bbs	a5,0,82c <clock_init_ram.constprop.11+0xc>
     834:	10170783          	lb	a5,257(a4)
     838:	801404b7          	lui	s1,0x80140
     83c:	0ff7f793          	andi	a5,a5,255
     840:	0107e793          	ori	a5,a5,16
     844:	10f700a3          	sb	a5,257(a4)
     848:	32848783          	lb	a5,808(s1) # 80140328 <_DATA_LMA_START+0x6013aea0>
     84c:	be37fe5b          	bbc	a5,3,848 <clock_init_ram.constprop.11+0x28>
     850:	1e848783          	lb	a5,488(s1)
     854:	08000513          	li	a0,128
     858:	8bbd                	c.andi	a5,15
     85a:	1ef48423          	sb	a5,488(s1)
     85e:	3f9d                	c.jal	7d4 <analog_read_reg8>
     860:	0e057593          	andi	a1,a0,224
     864:	0105e593          	ori	a1,a1,16
     868:	08000513          	li	a0,128
     86c:	f25ff0ef          	jal	ra,790 <analog_write_reg8>
     870:	00900513          	li	a0,9
     874:	f61ff0ef          	jal	ra,7d4 <analog_read_reg8>
     878:	0f357593          	andi	a1,a0,243
     87c:	0085e593          	ori	a1,a1,8
     880:	4525                	c.li	a0,9
     882:	3739                	c.jal	790 <analog_write_reg8>
     884:	0c000793          	li	a5,192
     888:	1780140b          	addigp	s0,376 # 80978 <sys_clk>
     88c:	00f41023          	sh	a5,0(s0)
     890:	08100513          	li	a0,129
     894:	4791                	c.li	a5,4
     896:	1ef48da3          	sb	a5,507(s1)
     89a:	3f2d                	c.jal	7d4 <analog_read_reg8>
     89c:	04056593          	ori	a1,a0,64
     8a0:	0ff5f593          	andi	a1,a1,255
     8a4:	08100513          	li	a0,129
     8a8:	ee9ff0ef          	jal	ra,790 <analog_write_reg8>
     8ac:	08800513          	li	a0,136
     8b0:	f25ff0ef          	jal	ra,7d4 <analog_read_reg8>
     8b4:	be557c5b          	bbc	a0,5,8ac <clock_init_ram.constprop.11+0x8c>
     8b8:	08100513          	li	a0,129
     8bc:	f19ff0ef          	jal	ra,7d4 <analog_read_reg8>
     8c0:	0bf57593          	andi	a1,a0,191
     8c4:	08100513          	li	a0,129
     8c8:	ec9ff0ef          	jal	ra,790 <analog_write_reg8>
     8cc:	801407b7          	lui	a5,0x80140
     8d0:	1e978703          	lb	a4,489(a5) # 801401e9 <_DATA_LMA_START+0x6013ad61>
     8d4:	8b3d                	c.andi	a4,15
     8d6:	04076713          	ori	a4,a4,64
     8da:	1ee784a3          	sb	a4,489(a5)
     8de:	1e878703          	lb	a4,488(a5)
     8e2:	f8076713          	ori	a4,a4,-128
     8e6:	0ff77713          	andi	a4,a4,255
     8ea:	1ee78423          	sb	a4,488(a5)
     8ee:	1e878703          	lb	a4,488(a5)
     8f2:	f8076713          	ori	a4,a4,-128
     8f6:	0ff77713          	andi	a4,a4,255
     8fa:	1ee78423          	sb	a4,488(a5)
     8fe:	1d878703          	lb	a4,472(a5)
     902:	00045683          	lhu	a3,0(s0)
     906:	0fb77713          	andi	a4,a4,251
     90a:	1ce78c23          	sb	a4,472(a5)
     90e:	1d878703          	lb	a4,472(a5)
     912:	8689                	c.srai	a3,0x2
     914:	00d402a3          	sb	a3,5(s0)
     918:	0fc77713          	andi	a4,a4,252
     91c:	1ce78c23          	sb	a4,472(a5)
     920:	1e878703          	lb	a4,488(a5)
     924:	0f077713          	andi	a4,a4,240
     928:	00876713          	ori	a4,a4,8
     92c:	1ee78423          	sb	a4,488(a5)
     930:	1e878703          	lb	a4,488(a5)
     934:	00045683          	lhu	a3,0(s0)
     938:	08f77713          	andi	a4,a4,143
     93c:	868d                	c.srai	a3,0x3
     93e:	00d40123          	sb	a3,2(s0)
     942:	02076713          	ori	a4,a4,32
     946:	1ee78423          	sb	a4,488(a5)
     94a:	0ff6f693          	andi	a3,a3,255
     94e:	00d401a3          	sb	a3,3(s0)
     952:	00d40223          	sb	a3,4(s0)
     956:	40b2                	c.lwsp	ra,12(sp)
     958:	4422                	c.lwsp	s0,8(sp)
     95a:	4492                	c.lwsp	s1,4(sp)
     95c:	0141                	c.addi	sp,16
     95e:	8082                	c.jr	ra

00000960 <pm_wait_bbpll_done>:
     960:	1101                	c.addi	sp,-32
     962:	08100513          	li	a0,129
     966:	cc22                	c.swsp	s0,24(sp)
     968:	ca26                	c.swsp	s1,20(sp)
     96a:	c84a                	c.swsp	s2,16(sp)
     96c:	ce06                	c.swsp	ra,28(sp)
     96e:	359d                	c.jal	7d4 <analog_read_reg8>
     970:	04056593          	ori	a1,a0,64
     974:	892a                	c.mv	s2,a0
     976:	0ff5f593          	andi	a1,a1,255
     97a:	08100513          	li	a0,129
     97e:	0bf97913          	andi	s2,s2,191
     982:	4481                	c.li	s1,0
     984:	4475                	c.li	s0,29
     986:	3529                	c.jal	790 <analog_write_reg8>
     988:	000107a3          	sb	zero,15(sp)
     98c:	00f10783          	lb	a5,15(sp)
     990:	0ff7f793          	andi	a5,a5,255
     994:	02f46063          	bltu	s0,a5,9b4 <pm_wait_bbpll_done+0x54>
     998:	0001                	c.nop
     99a:	00f10783          	lb	a5,15(sp)
     99e:	0785                	c.addi	a5,1
     9a0:	0ff7f793          	andi	a5,a5,255
     9a4:	00f107a3          	sb	a5,15(sp)
     9a8:	00f10783          	lb	a5,15(sp)
     9ac:	0ff7f793          	andi	a5,a5,255
     9b0:	fef474e3          	bgeu	s0,a5,998 <pm_wait_bbpll_done+0x38>
     9b4:	08800513          	li	a0,136
     9b8:	e1dff0ef          	jal	ra,7d4 <analog_read_reg8>
     9bc:	4255765b          	bbs	a0,5,9e8 <pm_wait_bbpll_done+0x88>
     9c0:	cc95                	c.beqz	s1,9fc <pm_wait_bbpll_done+0x9c>
     9c2:	0414d35b          	beqc	s1,1,a08 <pm_wait_bbpll_done+0xa8>
     9c6:	85ca                	c.mv	a1,s2
     9c8:	08100513          	li	a0,129
     9cc:	dc5ff0ef          	jal	ra,790 <analog_write_reg8>
     9d0:	0024d65b          	beqc	s1,2,9dc <pm_wait_bbpll_done+0x7c>
     9d4:	0485                	c.addi	s1,1
     9d6:	0ff4f493          	andi	s1,s1,255
     9da:	b77d                	c.j	988 <pm_wait_bbpll_done+0x28>
     9dc:	40f2                	c.lwsp	ra,28(sp)
     9de:	4462                	c.lwsp	s0,24(sp)
     9e0:	44d2                	c.lwsp	s1,20(sp)
     9e2:	4942                	c.lwsp	s2,16(sp)
     9e4:	6105                	c.addi16sp	sp,32
     9e6:	8082                	c.jr	ra
     9e8:	4462                	c.lwsp	s0,24(sp)
     9ea:	40f2                	c.lwsp	ra,28(sp)
     9ec:	44d2                	c.lwsp	s1,20(sp)
     9ee:	85ca                	c.mv	a1,s2
     9f0:	4942                	c.lwsp	s2,16(sp)
     9f2:	08100513          	li	a0,129
     9f6:	6105                	c.addi16sp	sp,32
     9f8:	d99ff06f          	j	790 <analog_write_reg8>
     9fc:	04600593          	li	a1,70
     a00:	4505                	c.li	a0,1
     a02:	3379                	c.jal	790 <analog_write_reg8>
     a04:	fd1ff06f          	j	9d4 <pm_wait_bbpll_done+0x74>
     a08:	04300593          	li	a1,67
     a0c:	4505                	c.li	a0,1
     a0e:	3349                	c.jal	790 <analog_write_reg8>
     a10:	fc5ff06f          	j	9d4 <pm_wait_bbpll_done+0x74>

00000a14 <pm_sleep_start>:
     a14:	1101                	c.addi	sp,-32
     a16:	1a00272b          	lwgp	a4,416 # 809a0 <g_chip_version>
     a1a:	000006b7          	lui	a3,0x0
     a1e:	ce06                	c.swsp	ra,28(sp)
     a20:	cc22                	c.swsp	s0,24(sp)
     a22:	ca26                	c.swsp	s1,20(sp)
     a24:	0ff00793          	li	a5,255
     a28:	19a6c583          	lbu	a1,410(a3) # 19a <g_pm_suspend_power_cfg>
     a2c:	00f71a63          	bne	a4,a5,a40 <pm_sleep_start+0x2c>
     a30:	0fe5f593          	andi	a1,a1,254
     a34:	07d00513          	li	a0,125
     a38:	d59ff0ef          	jal	ra,790 <analog_write_reg8>
     a3c:	00c0006f          	j	a48 <pm_sleep_start+0x34>
     a40:	07d00513          	li	a0,125
     a44:	d4dff0ef          	jal	ra,790 <analog_write_reg8>
     a48:	801406b7          	lui	a3,0x80140
     a4c:	10268783          	lb	a5,258(a3) # 80140102 <_DATA_LMA_START+0x6013ac7a>
     a50:	fe07fe5b          	bbs	a5,0,a4c <pm_sleep_start+0x38>
     a54:	10168703          	lb	a4,257(a3)
     a58:	801407b7          	lui	a5,0x80140
     a5c:	0ff77713          	andi	a4,a4,255
     a60:	01076713          	ori	a4,a4,16
     a64:	10e680a3          	sb	a4,257(a3)
     a68:	32878703          	lb	a4,808(a5) # 80140328 <_DATA_LMA_START+0x6013aea0>
     a6c:	be377e5b          	bbc	a4,3,a68 <pm_sleep_start+0x54>
     a70:	10178703          	lb	a4,257(a5)
     a74:	80140437          	lui	s0,0x80140
     a78:	0fd77713          	andi	a4,a4,253
     a7c:	10e780a3          	sb	a4,257(a5)
     a80:	10178703          	lb	a4,257(a5)
     a84:	0ef77713          	andi	a4,a4,239
     a88:	10e780a3          	sb	a4,257(a5)
     a8c:	fb900713          	li	a4,-71
     a90:	10e78023          	sb	a4,256(a5)
     a94:	10240783          	lb	a5,258(s0) # 80140102 <_DATA_LMA_START+0x6013ac7a>
     a98:	fe07fe5b          	bbs	a5,0,a94 <pm_sleep_start+0x80>
     a9c:	10140783          	lb	a5,257(s0)
     aa0:	452d                	c.li	a0,11
     aa2:	0ff7f793          	andi	a5,a5,255
     aa6:	0107e793          	ori	a5,a5,16
     aaa:	10f400a3          	sb	a5,257(s0)
     aae:	320404a3          	sb	zero,809(s0)
     ab2:	330d                	c.jal	7d4 <analog_read_reg8>
     ab4:	0fc57593          	andi	a1,a0,252
     ab8:	452d                	c.li	a0,11
     aba:	39d9                	c.jal	790 <analog_write_reg8>
     abc:	08100513          	li	a0,129
     ac0:	d15ff0ef          	jal	ra,7d4 <analog_read_reg8>
     ac4:	f8056593          	ori	a1,a0,-128
     ac8:	0ff5f593          	andi	a1,a1,255
     acc:	08100513          	li	a0,129
     ad0:	cc1ff0ef          	jal	ra,790 <analog_write_reg8>
     ad4:	f8000793          	li	a5,-128
     ad8:	1ef407a3          	sb	a5,495(s0)
     adc:	03f00493          	li	s1,63
     ae0:	00012423          	sw	zero,8(sp)
     ae4:	47a2                	c.lwsp	a5,8(sp)
     ae6:	00f4e763          	bltu	s1,a5,af4 <pm_sleep_start+0xe0>
     aea:	0001                	c.nop
     aec:	47a2                	c.lwsp	a5,8(sp)
     aee:	0785                	c.addi	a5,1
     af0:	c43e                	c.swsp	a5,8(sp)
     af2:	bfcd                	c.j	ae4 <pm_sleep_start+0xd0>
     af4:	08100513          	li	a0,129
     af8:	cddff0ef          	jal	ra,7d4 <analog_read_reg8>
     afc:	07f57593          	andi	a1,a0,127
     b00:	08100513          	li	a0,129
     b04:	c8dff0ef          	jal	ra,790 <analog_write_reg8>
     b08:	00b00513          	li	a0,11
     b0c:	cc9ff0ef          	jal	ra,7d4 <analog_read_reg8>
     b10:	00356593          	ori	a1,a0,3
     b14:	0ff5f593          	andi	a1,a1,255
     b18:	452d                	c.li	a0,11
     b1a:	399d                	c.jal	790 <analog_write_reg8>
     b1c:	08000593          	li	a1,128
     b20:	07d00513          	li	a0,125
     b24:	c6dff0ef          	jal	ra,790 <analog_write_reg8>
     b28:	801407b7          	lui	a5,0x80140
     b2c:	329784a3          	sb	s1,809(a5) # 80140329 <_DATA_LMA_START+0x6013aea1>
     b30:	10178683          	lb	a3,257(a5)
     b34:	80140737          	lui	a4,0x80140
     b38:	0ef6f693          	andi	a3,a3,239
     b3c:	10d780a3          	sb	a3,257(a5)
     b40:	fab00693          	li	a3,-85
     b44:	10d78023          	sb	a3,256(a5)
     b48:	10270783          	lb	a5,258(a4) # 80140102 <_DATA_LMA_START+0x6013ac7a>
     b4c:	fe07fe5b          	bbs	a5,0,b48 <pm_sleep_start+0x134>
     b50:	10170783          	lb	a5,257(a4)
     b54:	12b00693          	li	a3,299
     b58:	0ff7f793          	andi	a5,a5,255
     b5c:	0107e793          	ori	a5,a5,16
     b60:	10f700a3          	sb	a5,257(a4)
     b64:	00012623          	sw	zero,12(sp)
     b68:	47b2                	c.lwsp	a5,12(sp)
     b6a:	00f6e763          	bltu	a3,a5,b78 <pm_sleep_start+0x164>
     b6e:	0001                	c.nop
     b70:	47b2                	c.lwsp	a5,12(sp)
     b72:	0785                	c.addi	a5,1
     b74:	c63e                	c.swsp	a5,12(sp)
     b76:	bfcd                	c.j	b68 <pm_sleep_start+0x154>
     b78:	08800513          	li	a0,136
     b7c:	c59ff0ef          	jal	ra,7d4 <analog_read_reg8>
     b80:	be757c5b          	bbc	a0,7,b78 <pm_sleep_start+0x164>
     b84:	08800513          	li	a0,136
     b88:	c4dff0ef          	jal	ra,7d4 <analog_read_reg8>
     b8c:	be757c5b          	bbc	a0,7,b84 <pm_sleep_start+0x170>
     b90:	08800513          	li	a0,136
     b94:	c41ff0ef          	jal	ra,7d4 <analog_read_reg8>
     b98:	be757c5b          	bbc	a0,7,b90 <pm_sleep_start+0x17c>
     b9c:	4462                	c.lwsp	s0,24(sp)
     b9e:	40f2                	c.lwsp	ra,28(sp)
     ba0:	44d2                	c.lwsp	s1,20(sp)
     ba2:	6105                	c.addi16sp	sp,32
     ba4:	dbdff06f          	j	960 <pm_wait_bbpll_done>

00000ba8 <dr_putchar>:
     ba8:	1101                	c.addi	sp,-32
     baa:	ca26                	c.swsp	s1,20(sp)
     bac:	cc22                	c.swsp	s0,24(sp)
     bae:	ce06                	c.swsp	ra,28(sp)
     bb0:	c84a                	c.swsp	s2,16(sp)
     bb2:	1740148b          	addigp	s1,372 # 80974 <init_flag.5287>
     bb6:	842a                	c.mv	s0,a0
     bb8:	0004c783          	lbu	a5,0(s1)
     bbc:	0c17d25b          	beqc	a5,1,c80 <dr_putchar+0xd8>
     bc0:	801407b7          	lui	a5,0x80140
     bc4:	30378703          	lb	a4,771(a5) # 80140303 <_DATA_LMA_START+0x6013ae7b>
     bc8:	30378783          	lb	a5,771(a5)
     bcc:	0fe77713          	andi	a4,a4,254
     bd0:	0ff7f793          	andi	a5,a5,255
     bd4:	0017e793          	ori	a5,a5,1
     bd8:	00e10223          	sb	a4,4(sp)
     bdc:	86be                	c.mv	a3,a5
     bde:	4004735b          	bbs	s0,0,be4 <dr_putchar+0x3c>
     be2:	86ba                	c.mv	a3,a4
     be4:	00d102a3          	sb	a3,5(sp)
     be8:	86be                	c.mv	a3,a5
     bea:	4014735b          	bbs	s0,1,bf0 <dr_putchar+0x48>
     bee:	86ba                	c.mv	a3,a4
     bf0:	00d10323          	sb	a3,6(sp)
     bf4:	86be                	c.mv	a3,a5
     bf6:	4024735b          	bbs	s0,2,bfc <dr_putchar+0x54>
     bfa:	86ba                	c.mv	a3,a4
     bfc:	00d103a3          	sb	a3,7(sp)
     c00:	86be                	c.mv	a3,a5
     c02:	4034735b          	bbs	s0,3,c08 <dr_putchar+0x60>
     c06:	86ba                	c.mv	a3,a4
     c08:	00d10423          	sb	a3,8(sp)
     c0c:	86be                	c.mv	a3,a5
     c0e:	4044735b          	bbs	s0,4,c14 <dr_putchar+0x6c>
     c12:	86ba                	c.mv	a3,a4
     c14:	00d104a3          	sb	a3,9(sp)
     c18:	86be                	c.mv	a3,a5
     c1a:	4054735b          	bbs	s0,5,c20 <dr_putchar+0x78>
     c1e:	86ba                	c.mv	a3,a4
     c20:	00d10523          	sb	a3,10(sp)
     c24:	86be                	c.mv	a3,a5
     c26:	4064735b          	bbs	s0,6,c2c <dr_putchar+0x84>
     c2a:	86ba                	c.mv	a3,a4
     c2c:	00d105a3          	sb	a3,11(sp)
     c30:	801d                	c.srli	s0,0x7
     c32:	c019                	c.beqz	s0,c38 <dr_putchar+0x90>
     c34:	00f00733          	add	a4,zero,a5
     c38:	00f106a3          	sb	a5,13(sp)
     c3c:	801407b7          	lui	a5,0x80140
     c40:	00e10623          	sb	a4,12(sp)
     c44:	2007a603          	lw	a2,512(a5) # 80140200 <_DATA_LMA_START+0x6013ad78>
     c48:	00410513          	addi	a0,sp,4
     c4c:	00e10813          	addi	a6,sp,14
     c50:	801406b7          	lui	a3,0x80140
     c54:	08900593          	li	a1,137
     c58:	2006a783          	lw	a5,512(a3) # 80140200 <_DATA_LMA_START+0x6013ad78>
     c5c:	40c78733          	sub	a4,a5,a2
     c60:	fee5fce3          	bgeu	a1,a4,c58 <dr_putchar+0xb0>
     c64:	00054703          	lbu	a4,0(a0)
     c68:	0505                	c.addi	a0,1
     c6a:	30e681a3          	sb	a4,771(a3)
     c6e:	863e                	c.mv	a2,a5
     c70:	ff0514e3          	bne	a0,a6,c58 <dr_putchar+0xb0>
     c74:	40f2                	c.lwsp	ra,28(sp)
     c76:	4462                	c.lwsp	s0,24(sp)
     c78:	44d2                	c.lwsp	s1,20(sp)
     c7a:	4942                	c.lwsp	s2,16(sp)
     c7c:	6105                	c.addi16sp	sp,32
     c7e:	8082                	c.jr	ra
     c80:	80140937          	lui	s2,0x80140
     c84:	30690783          	lb	a5,774(s2) # 80140306 <_DATA_LMA_START+0x6013ae7e>
     c88:	4539                	c.li	a0,14
     c8a:	0ff7f793          	andi	a5,a5,255
     c8e:	0017e793          	ori	a5,a5,1
     c92:	30f90323          	sb	a5,774(s2)
     c96:	3e3d                	c.jal	7d4 <analog_read_reg8>
     c98:	0fc57593          	andi	a1,a0,252
     c9c:	0015e593          	ori	a1,a1,1
     ca0:	4539                	c.li	a0,14
     ca2:	34fd                	c.jal	790 <analog_write_reg8>
     ca4:	30290783          	lb	a5,770(s2)
     ca8:	0fe7f793          	andi	a5,a5,254
     cac:	30f90123          	sb	a5,770(s2)
     cb0:	30390783          	lb	a5,771(s2)
     cb4:	0ff7f793          	andi	a5,a5,255
     cb8:	0017e793          	ori	a5,a5,1
     cbc:	30f901a3          	sb	a5,771(s2)
     cc0:	00048023          	sb	zero,0(s1)
     cc4:	efdff06f          	j	bc0 <dr_putchar+0x18>

00000cc8 <pm_sleep_wakeup_ram.constprop.3>:
     cc8:	1101                	c.addi	sp,-32
     cca:	c452                	c.swsp	s4,8(sp)
     ccc:	8a2a                	c.mv	s4,a0
     cce:	ce06                	c.swsp	ra,28(sp)
     cd0:	cc22                	c.swsp	s0,24(sp)
     cd2:	ca26                	c.swsp	s1,20(sp)
     cd4:	c84a                	c.swsp	s2,16(sp)
     cd6:	c64e                	c.swsp	s3,12(sp)
     cd8:	c256                	c.swsp	s5,4(sp)
     cda:	c05a                	c.swsp	s6,0(sp)
     cdc:	300029f3          	csrr	s3,mstatus
     ce0:	0089f993          	andi	s3,s3,8
     ce4:	00098663          	beqz	s3,cf0 <pm_sleep_wakeup_ram.constprop.3+0x28>
     ce8:	300477f3          	csrrci	a5,mstatus,8
     cec:	0ff0000f          	fence
     cf0:	801407b7          	lui	a5,0x80140
     cf4:	2147a683          	lw	a3,532(a5) # 80140214 <_DATA_LMA_START+0x6013ad8c>
     cf8:	def5                	c.beqz	a3,cf4 <pm_sleep_wakeup_ram.constprop.3+0x2c>
     cfa:	00000437          	lui	s0,0x0
     cfe:	15840693          	addi	a3,s0,344 # 158 <_AES_VMA_END>
     d02:	2147a783          	lw	a5,532(a5)
     d06:	4ed8                	c.lw	a4,28(a3)
     d08:	d6dc                	c.sw	a5,44(a3)
     d0a:	15840413          	addi	s0,s0,344
     d0e:	0792                	c.slli	a5,0x4
     d10:	cb11                	c.beqz	a4,d24 <pm_sleep_wakeup_ram.constprop.3+0x5c>
     d12:	03044603          	lbu	a2,48(s0)
     d16:	4691                	c.li	a3,4
     d18:	8f99                	c.sub	a5,a4
     d1a:	8e91                	c.sub	a3,a2
     d1c:	40d7d7b3          	sra	a5,a5,a3
     d20:	00e787b3          	add	a5,a5,a4
     d24:	4818                	c.lw	a4,16(s0)
     d26:	4047d493          	srai	s1,a5,0x4
     d2a:	02e48733          	mul	a4,s1,a4
     d2e:	80140937          	lui	s2,0x80140
     d32:	20092a83          	lw	s5,512(s2) # 80140200 <_DATA_LMA_START+0x6013ad78>
     d36:	cc5c                	c.sw	a5,28(s0)
     d38:	415a0ab3          	sub	s5,s4,s5
     d3c:	e00006b7          	lui	a3,0xe0000
     d40:	41275793          	srai	a5,a4,0x12
     d44:	94be                	c.add	s1,a5
     d46:	0486                	c.slli	s1,0x1
     d48:	02942a23          	sw	s1,52(s0)
     d4c:	0356f063          	bgeu	a3,s5,d6c <pm_sleep_wakeup_ram.constprop.3+0xa4>
     d50:	00098663          	beqz	s3,d5c <pm_sleep_wakeup_ram.constprop.3+0x94>
     d54:	3009a9f3          	csrrs	s3,mstatus,s3
     d58:	0ff0000f          	fence
     d5c:	06400513          	li	a0,100
     d60:	a75ff0ef          	jal	ra,7d4 <analog_read_reg8>
     d64:	01f57513          	andi	a0,a0,31
     d68:	2580006f          	j	fc0 <pm_sleep_wakeup_ram.constprop.3+0x2f8>
     d6c:	04a41783          	lh	a5,74(s0)
     d70:	1137a7db          	bfoz	a5,a5,4,19
     d74:	02fafe63          	bgeu	s5,a5,db0 <pm_sleep_wakeup_ram.constprop.3+0xe8>
     d78:	45fd                	c.li	a1,31
     d7a:	06400513          	li	a0,100
     d7e:	801404b7          	lui	s1,0x80140
     d82:	20092403          	lw	s0,512(s2)
     d86:	3429                	c.jal	790 <analog_write_reg8>
     d88:	06400513          	li	a0,100
     d8c:	a49ff0ef          	jal	ra,7d4 <analog_read_reg8>
     d90:	2004a783          	lw	a5,512(s1) # 80140200 <_DATA_LMA_START+0x6013ad78>
     d94:	897d                	c.andi	a0,31
     d96:	8f81                	c.sub	a5,s0
     d98:	0157f463          	bgeu	a5,s5,da0 <pm_sleep_wakeup_ram.constprop.3+0xd8>
     d9c:	fe0506e3          	beqz	a0,d88 <pm_sleep_wakeup_ram.constprop.3+0xc0>
     da0:	22098063          	beqz	s3,fc0 <pm_sleep_wakeup_ram.constprop.3+0x2f8>
     da4:	3009a9f3          	csrrs	s3,mstatus,s3
     da8:	0ff0000f          	fence
     dac:	2140006f          	j	fc0 <pm_sleep_wakeup_ram.constprop.3+0x2f8>
     db0:	1e890a83          	lb	s5,488(s2)
     db4:	00faf793          	andi	a5,s5,15
     db8:	1ef90423          	sb	a5,488(s2)
     dbc:	1d890b03          	lb	s6,472(s2)
     dc0:	0f8b7793          	andi	a5,s6,248
     dc4:	1cf90c23          	sb	a5,472(s2)
     dc8:	00100793          	li	a5,1
     dcc:	20f90c23          	sb	a5,536(s2)
     dd0:	20a90783          	lb	a5,522(s2)
     dd4:	0f77f793          	andi	a5,a5,247
     dd8:	20f90523          	sb	a5,522(s2)
     ddc:	d7cff0ef          	jal	ra,358 <clock_get_32k_tick>
     de0:	20092703          	lw	a4,512(s2)
     de4:	20b90783          	lb	a5,523(s2)
     de8:	5054                	c.lw	a3,36(s0)
     dea:	0ff7f793          	andi	a5,a5,255
     dee:	0027e793          	ori	a5,a5,2
     df2:	c468                	c.sw	a0,76(s0)
     df4:	dc18                	c.sw	a4,56(s0)
     df6:	03044603          	lbu	a2,48(s0)
     dfa:	40d506b3          	sub	a3,a0,a3
     dfe:	20f905a3          	sb	a5,523(s2)
     e02:	d414                	c.sw	a3,40(s0)
     e04:	e215                	c.bnez	a2,e28 <pm_sleep_wakeup_ram.constprop.3+0x160>
     e06:	441c                	c.lw	a5,8(s0)
     e08:	c385                	c.beqz	a5,e28 <pm_sleep_wakeup_ram.constprop.3+0x160>
     e0a:	05044783          	lbu	a5,80(s0)
     e0e:	ef89                	c.bnez	a5,e28 <pm_sleep_wakeup_ram.constprop.3+0x160>
     e10:	00c42783          	lw	a5,12(s0)
     e14:	000276b7          	lui	a3,0x27
     e18:	40f507b3          	sub	a5,a0,a5
     e1c:	6c07a7db          	bfoz	a5,a5,27,0
     e20:	10068693          	addi	a3,a3,256 # 27100 <BIN_SIZE+0x212d2>
     e24:	00f6f863          	bgeu	a3,a5,e34 <pm_sleep_wakeup_ram.constprop.3+0x16c>
     e28:	00176713          	ori	a4,a4,1
     e2c:	02040823          	sb	zero,48(s0)
     e30:	c448                	c.sw	a0,12(s0)
     e32:	c418                	c.sw	a4,8(s0)
     e34:	02000593          	li	a1,32
     e38:	04b00513          	li	a0,75
     e3c:	955ff0ef          	jal	ra,790 <analog_write_reg8>
     e40:	45fd                	c.li	a1,31
     e42:	06400513          	li	a0,100
     e46:	32a9                	c.jal	790 <analog_write_reg8>
     e48:	03000593          	li	a1,48
     e4c:	07e00513          	li	a0,126
     e50:	941ff0ef          	jal	ra,790 <analog_write_reg8>
     e54:	0f900593          	li	a1,249
     e58:	04d00513          	li	a0,77
     e5c:	935ff0ef          	jal	ra,790 <analog_write_reg8>
     e60:	4585                	c.li	a1,1
     e62:	07f00513          	li	a0,127
     e66:	322d                	c.jal	790 <analog_write_reg8>
     e68:	04841783          	lh	a5,72(s0)
     e6c:	0ee00593          	li	a1,238
     e70:	1137a7db          	bfoz	a5,a5,4,19
     e74:	04c00513          	li	a0,76
     e78:	40fa0933          	sub	s2,s4,a5
     e7c:	915ff0ef          	jal	ra,790 <analog_write_reg8>
     e80:	05441583          	lh	a1,84(s0)
     e84:	04000513          	li	a0,64
     e88:	0ff5f593          	andi	a1,a1,255
     e8c:	905ff0ef          	jal	ra,790 <analog_write_reg8>
     e90:	441c                	c.lw	a5,8(s0)
     e92:	07ff06b7          	lui	a3,0x7ff0
     e96:	40f907b3          	sub	a5,s2,a5
     e9a:	00168713          	addi	a4,a3,1 # 7ff0001 <FLASH_SIZE+0x7ef0001>
     e9e:	00e7b733          	sltu	a4,a5,a4
     ea2:	00174713          	xori	a4,a4,1
     ea6:	00e40223          	sb	a4,4(s0)
     eaa:	00f6f963          	bgeu	a3,a5,ebc <pm_sleep_wakeup_ram.constprop.3+0x1f4>
     eae:	5858                	c.lw	a4,52(s0)
     eb0:	4448                	c.lw	a0,12(s0)
     eb2:	02e7d7b3          	divu	a5,a5,a4
     eb6:	0796                	c.slli	a5,0x5
     eb8:	953e                	c.add	a0,a5
     eba:	a809                	c.j	ecc <pm_sleep_wakeup_ram.constprop.3+0x204>
     ebc:	5848                	c.lw	a0,52(s0)
     ebe:	8085                	c.srli	s1,0x1
     ec0:	0796                	c.slli	a5,0x5
     ec2:	97a6                	c.add	a5,s1
     ec4:	02a7d7b3          	divu	a5,a5,a0
     ec8:	4448                	c.lw	a0,12(s0)
     eca:	953e                	c.add	a0,a5
     ecc:	be0ff0ef          	jal	ra,2ac <clock_set_32k_tick>
     ed0:	06400513          	li	a0,100
     ed4:	901ff0ef          	jal	ra,7d4 <analog_read_reg8>
     ed8:	01f57513          	andi	a0,a0,31
     edc:	e901                	c.bnez	a0,eec <pm_sleep_wakeup_ram.constprop.3+0x224>
     ede:	3e1d                	c.jal	a14 <pm_sleep_start>
     ee0:	00100593          	li	a1,1
     ee4:	07f00513          	li	a0,127
     ee8:	8a9ff0ef          	jal	ra,790 <analog_write_reg8>
     eec:	80140737          	lui	a4,0x80140
     ef0:	02000793          	li	a5,32
     ef4:	1ef707a3          	sb	a5,495(a4) # 801401ef <_DATA_LMA_START+0x6013ad67>
     ef8:	00200793          	li	a5,2
     efc:	20f70c23          	sb	a5,536(a4)
     f00:	20a70783          	lb	a5,522(a4)
     f04:	0ff7f793          	andi	a5,a5,255
     f08:	00c7e793          	ori	a5,a5,12
     f0c:	20f70523          	sb	a5,522(a4)
     f10:	c48ff0ef          	jal	ra,358 <clock_get_32k_tick>
     f14:	00444783          	lbu	a5,4(s0)
     f18:	cf81                	c.beqz	a5,f30 <pm_sleep_wakeup_ram.constprop.3+0x268>
     f1a:	4458                	c.lw	a4,12(s0)
     f1c:	5854                	c.lw	a3,52(s0)
     f1e:	40e50733          	sub	a4,a0,a4
     f22:	441c                	c.lw	a5,8(s0)
     f24:	0705                	c.addi	a4,1
     f26:	8315                	c.srli	a4,0x5
     f28:	c4d717ff          	maddr32	a5,a4,a3
     f2c:	0180006f          	j	f44 <pm_sleep_wakeup_ram.constprop.3+0x27c>
     f30:	445c                	c.lw	a5,12(s0)
     f32:	5858                	c.lw	a4,52(s0)
     f34:	40f507b3          	sub	a5,a0,a5
     f38:	0785                	c.addi	a5,1
     f3a:	02e787b3          	mul	a5,a5,a4
     f3e:	4418                	c.lw	a4,8(s0)
     f40:	8395                	c.srli	a5,0x5
     f42:	97ba                	c.add	a5,a4
     f44:	4458                	c.lw	a4,12(s0)
     f46:	00150613          	addi	a2,a0,1
     f4a:	8d19                	c.sub	a0,a4
     f4c:	0505                	c.addi	a0,1
     f4e:	00178693          	addi	a3,a5,1
     f52:	dc1c                	c.sw	a5,56(s0)
     f54:	d050                	c.sw	a2,36(s0)
     f56:	d008                	c.sw	a0,32(s0)
     f58:	801407b7          	lui	a5,0x80140
     f5c:	80140737          	lui	a4,0x80140
     f60:	20d7a023          	sw	a3,512(a5) # 80140200 <_DATA_LMA_START+0x6013ad78>
     f64:	20b70783          	lb	a5,523(a4) # 8014020b <_DATA_LMA_START+0x6013ad83>
     f68:	be77fe5b          	bbc	a5,7,f64 <pm_sleep_wakeup_ram.constprop.3+0x29c>
     f6c:	20070c23          	sb	zero,536(a4)
     f70:	1d670c23          	sb	s6,472(a4)
     f74:	06400513          	li	a0,100
     f78:	1f570423          	sb	s5,488(a4)
     f7c:	859ff0ef          	jal	ra,7d4 <analog_read_reg8>
     f80:	1a40170b          	addigp	a4,420 # 809a4 <g_pm_status_info>
     f84:	00a700a3          	sb	a0,1(a4)
     f88:	1a40178b          	addigp	a5,420 # 809a4 <g_pm_status_info>
     f8c:	00157c5b          	bbc	a0,1,fa4 <pm_sleep_wakeup_ram.constprop.3+0x2dc>
     f90:	80140637          	lui	a2,0x80140
     f94:	400006b7          	lui	a3,0x40000
     f98:	20062703          	lw	a4,512(a2) # 80140200 <_DATA_LMA_START+0x6013ad78>
     f9c:	41470733          	sub	a4,a4,s4
     fa0:	fee6ece3          	bltu	a3,a4,f98 <pm_sleep_wakeup_ram.constprop.3+0x2d0>
     fa4:	00098663          	beqz	s3,fb0 <pm_sleep_wakeup_ram.constprop.3+0x2e8>
     fa8:	3009a9f3          	csrrs	s3,mstatus,s3
     fac:	0ff0000f          	fence
     fb0:	0017c783          	lbu	a5,1(a5)
     fb4:	10000513          	li	a0,256
     fb8:	c781                	c.beqz	a5,fc0 <pm_sleep_wakeup_ram.constprop.3+0x2f8>
     fba:	40000537          	lui	a0,0x40000
     fbe:	8d5d                	c.or	a0,a5
     fc0:	40f2                	c.lwsp	ra,28(sp)
     fc2:	4462                	c.lwsp	s0,24(sp)
     fc4:	44d2                	c.lwsp	s1,20(sp)
     fc6:	4942                	c.lwsp	s2,16(sp)
     fc8:	49b2                	c.lwsp	s3,12(sp)
     fca:	4a22                	c.lwsp	s4,8(sp)
     fcc:	4a92                	c.lwsp	s5,4(sp)
     fce:	4b02                	c.lwsp	s6,0(sp)
     fd0:	6105                	c.addi16sp	sp,32
     fd2:	8082                	c.jr	ra

00000fd4 <trap_entry>:
     fd4:	1101                	c.addi	sp,-32
     fd6:	ce2a                	c.swsp	a0,28(sp)
     fd8:	cc2e                	c.swsp	a1,24(sp)
     fda:	ca32                	c.swsp	a2,20(sp)
     fdc:	c836                	c.swsp	a3,16(sp)
     fde:	c63a                	c.swsp	a4,12(sp)
     fe0:	c43e                	c.swsp	a5,8(sp)
     fe2:	34202773          	csrr	a4,mcause
     fe6:	000007b7          	lui	a5,0x0
     fea:	15878793          	addi	a5,a5,344 # 158 <_AES_VMA_END>
     fee:	03c78683          	lb	a3,60(a5)
     ff2:	0ff6f693          	andi	a3,a3,255
     ff6:	c2dd                	c.beqz	a3,109c <trap_entry+0xc8>
     ff8:	34102673          	csrr	a2,mepc
     ffc:	300025f3          	csrr	a1,mstatus
    1000:	7c4026f3          	csrr	a3,mxstatus
    1004:	02074a63          	bltz	a4,1038 <trap_entry+0x64>
    1008:	34302773          	csrr	a4,mtval
    100c:	18e04e2b          	swgp	a4,412 # 8099c <exception_mtval>
    1010:	34102773          	csrr	a4,mepc
    1014:	18e04a2b          	swgp	a4,404 # 80994 <exception_mepc>
    1018:	30002773          	csrr	a4,mstatus
    101c:	18e04c2b          	swgp	a4,408 # 80998 <exception_mstatus>
    1020:	34202773          	csrr	a4,mcause
    1024:	18e0462b          	swgp	a4,396 # 8098c <exception_mcause>
    1028:	7c902773          	csrr	a4,mdcause
    102c:	18e0482b          	swgp	a4,400 # 80990 <exception_mdcause>
    1030:	0001                	c.nop
    1032:	0001                	c.nop
    1034:	ffdff06f          	j	1030 <trap_entry+0x5c>
    1038:	7807275b          	bfoz	a4,a4,30,0
    103c:	0677545b          	beqc	a4,7,10a4 <trap_entry+0xd0>
    1040:	bc37645b          	bnec	a4,3,1008 <trap_entry+0x34>
    1044:	e6600737          	lui	a4,0xe6600
    1048:	4358                	c.lw	a4,4(a4)
    104a:	03c78703          	lb	a4,60(a5)
    104e:	0ff77713          	andi	a4,a4,255
    1052:	c319                	c.beqz	a4,1058 <trap_entry+0x84>
    1054:	30046773          	csrrsi	a4,mstatus,8
    1058:	03c78703          	lb	a4,60(a5)
    105c:	0ff77713          	andi	a4,a4,255
    1060:	00070463          	beqz	a4,1068 <trap_entry+0x94>
    1064:	30047773          	csrrci	a4,mstatus,8
    1068:	e6600737          	lui	a4,0xe6600
    106c:	4505                	c.li	a0,1
    106e:	c348                	c.sw	a0,4(a4)
    1070:	03c78783          	lb	a5,60(a5)
    1074:	0ff7f793          	andi	a5,a5,255
    1078:	00078863          	beqz	a5,1088 <trap_entry+0xb4>
    107c:	30059073          	csrw	mstatus,a1
    1080:	34161073          	csrw	mepc,a2
    1084:	7c469073          	csrw	mxstatus,a3
    1088:	4572                	c.lwsp	a0,28(sp)
    108a:	45e2                	c.lwsp	a1,24(sp)
    108c:	4652                	c.lwsp	a2,20(sp)
    108e:	46c2                	c.lwsp	a3,16(sp)
    1090:	4732                	c.lwsp	a4,12(sp)
    1092:	47a2                	c.lwsp	a5,8(sp)
    1094:	02010113          	addi	sp,sp,32
    1098:	30200073          	mret
    109c:	4681                	c.li	a3,0
    109e:	4581                	c.li	a1,0
    10a0:	4601                	c.li	a2,0
    10a2:	b78d                	c.j	1004 <trap_entry+0x30>
    10a4:	03c78703          	lb	a4,60(a5)
    10a8:	0ff77713          	andi	a4,a4,255
    10ac:	00070863          	beqz	a4,10bc <trap_entry+0xe8>
    10b0:	08000713          	li	a4,128
    10b4:	30473773          	csrrc	a4,mie,a4
    10b8:	30046773          	csrrsi	a4,mstatus,8
    10bc:	03c78703          	lb	a4,60(a5)
    10c0:	0ff77713          	andi	a4,a4,255
    10c4:	d755                	c.beqz	a4,1070 <trap_entry+0x9c>
    10c6:	30047773          	csrrci	a4,mstatus,8
    10ca:	08000713          	li	a4,128
    10ce:	30472773          	csrrs	a4,mie,a4
    10d2:	bf79                	c.j	1070 <trap_entry+0x9c>
    10d4:	0001                	c.nop
	...

00001100 <__vectors>:
    1100:	0fd4                	c.addi4spn	a3,sp,980
    1102:	0000                	unimp
    1104:	2768                	c.fld	fa0,200(a4)
    1106:	0000                	unimp
    1108:	2768                	c.fld	fa0,200(a4)
    110a:	0000                	unimp
    110c:	2768                	c.fld	fa0,200(a4)
    110e:	0000                	unimp
    1110:	2768                	c.fld	fa0,200(a4)
    1112:	0000                	unimp
    1114:	2768                	c.fld	fa0,200(a4)
    1116:	0000                	unimp
    1118:	2768                	c.fld	fa0,200(a4)
    111a:	0000                	unimp
    111c:	2768                	c.fld	fa0,200(a4)
    111e:	0000                	unimp
    1120:	2768                	c.fld	fa0,200(a4)
    1122:	0000                	unimp
    1124:	2768                	c.fld	fa0,200(a4)
    1126:	0000                	unimp
    1128:	2768                	c.fld	fa0,200(a4)
    112a:	0000                	unimp
    112c:	2768                	c.fld	fa0,200(a4)
    112e:	0000                	unimp
    1130:	2768                	c.fld	fa0,200(a4)
    1132:	0000                	unimp
    1134:	2768                	c.fld	fa0,200(a4)
    1136:	0000                	unimp
    1138:	2768                	c.fld	fa0,200(a4)
    113a:	0000                	unimp
    113c:	2768                	c.fld	fa0,200(a4)
    113e:	0000                	unimp
    1140:	2768                	c.fld	fa0,200(a4)
    1142:	0000                	unimp
    1144:	2768                	c.fld	fa0,200(a4)
    1146:	0000                	unimp
    1148:	2768                	c.fld	fa0,200(a4)
    114a:	0000                	unimp
    114c:	2768                	c.fld	fa0,200(a4)
    114e:	0000                	unimp
    1150:	2768                	c.fld	fa0,200(a4)
    1152:	0000                	unimp
    1154:	2768                	c.fld	fa0,200(a4)
    1156:	0000                	unimp
    1158:	2768                	c.fld	fa0,200(a4)
    115a:	0000                	unimp
    115c:	2768                	c.fld	fa0,200(a4)
    115e:	0000                	unimp
    1160:	2768                	c.fld	fa0,200(a4)
    1162:	0000                	unimp
    1164:	2768                	c.fld	fa0,200(a4)
    1166:	0000                	unimp
    1168:	2768                	c.fld	fa0,200(a4)
    116a:	0000                	unimp
    116c:	2768                	c.fld	fa0,200(a4)
    116e:	0000                	unimp
    1170:	2768                	c.fld	fa0,200(a4)
    1172:	0000                	unimp
    1174:	2768                	c.fld	fa0,200(a4)
    1176:	0000                	unimp
    1178:	2768                	c.fld	fa0,200(a4)
    117a:	0000                	unimp
    117c:	2768                	c.fld	fa0,200(a4)
    117e:	0000                	unimp
    1180:	2768                	c.fld	fa0,200(a4)
    1182:	0000                	unimp
    1184:	2768                	c.fld	fa0,200(a4)
    1186:	0000                	unimp
    1188:	2768                	c.fld	fa0,200(a4)
    118a:	0000                	unimp
    118c:	2768                	c.fld	fa0,200(a4)
    118e:	0000                	unimp
    1190:	2768                	c.fld	fa0,200(a4)
    1192:	0000                	unimp
    1194:	2768                	c.fld	fa0,200(a4)
    1196:	0000                	unimp
    1198:	2768                	c.fld	fa0,200(a4)
    119a:	0000                	unimp
    119c:	2768                	c.fld	fa0,200(a4)
    119e:	0000                	unimp
    11a0:	2768                	c.fld	fa0,200(a4)
    11a2:	0000                	unimp
    11a4:	2768                	c.fld	fa0,200(a4)
    11a6:	0000                	unimp
    11a8:	2768                	c.fld	fa0,200(a4)
    11aa:	0000                	unimp
    11ac:	2768                	c.fld	fa0,200(a4)
    11ae:	0000                	unimp
    11b0:	2768                	c.fld	fa0,200(a4)
    11b2:	0000                	unimp
    11b4:	2768                	c.fld	fa0,200(a4)
    11b6:	0000                	unimp
    11b8:	2768                	c.fld	fa0,200(a4)
    11ba:	0000                	unimp
    11bc:	2768                	c.fld	fa0,200(a4)
    11be:	0000                	unimp
    11c0:	2768                	c.fld	fa0,200(a4)
    11c2:	0000                	unimp
    11c4:	2768                	c.fld	fa0,200(a4)
    11c6:	0000                	unimp
    11c8:	2768                	c.fld	fa0,200(a4)
    11ca:	0000                	unimp
    11cc:	2768                	c.fld	fa0,200(a4)
    11ce:	0000                	unimp
    11d0:	2768                	c.fld	fa0,200(a4)
    11d2:	0000                	unimp
    11d4:	2768                	c.fld	fa0,200(a4)
    11d6:	0000                	unimp
    11d8:	2768                	c.fld	fa0,200(a4)
    11da:	0000                	unimp
    11dc:	2768                	c.fld	fa0,200(a4)
    11de:	0000                	unimp
    11e0:	2768                	c.fld	fa0,200(a4)
    11e2:	0000                	unimp
    11e4:	2768                	c.fld	fa0,200(a4)
    11e6:	0000                	unimp
    11e8:	2768                	c.fld	fa0,200(a4)
    11ea:	0000                	unimp
    11ec:	2768                	c.fld	fa0,200(a4)
    11ee:	0000                	unimp
    11f0:	2768                	c.fld	fa0,200(a4)
    11f2:	0000                	unimp
    11f4:	2768                	c.fld	fa0,200(a4)
    11f6:	0000                	unimp
    11f8:	2768                	c.fld	fa0,200(a4)
    11fa:	0000                	unimp
    11fc:	2768                	c.fld	fa0,200(a4)
    11fe:	0000                	unimp
    1200:	0001                	c.nop
	...

00001204 <flash_read_uid.constprop.6>:
    1204:	1141                	c.addi	sp,-16
    1206:	c606                	c.swsp	ra,12(sp)
    1208:	872a                	c.mv	a4,a0
    120a:	7d047073          	csrci	mmisc_ctl,8
    120e:	47c1                	c.li	a5,16
    1210:	4691                	c.li	a3,4
    1212:	4601                	c.li	a2,0
    1214:	00000593          	li	a1,0
    1218:	04b00513          	li	a0,75
    121c:	aa8ff0ef          	jal	ra,4c4 <flash_mspi_read_ram>
    1220:	7d046073          	csrsi	mmisc_ctl,8
    1224:	40b2                	c.lwsp	ra,12(sp)
    1226:	0141                	c.addi	sp,16
    1228:	00008067          	ret

0000122c <flash_read_mid>:
    122c:	1101                	c.addi	sp,-32
    122e:	ce06                	c.swsp	ra,28(sp)
    1230:	c602                	c.swsp	zero,12(sp)
    1232:	7d047073          	csrci	mmisc_ctl,8
    1236:	478d                	c.li	a5,3
    1238:	0078                	c.addi4spn	a4,sp,12
    123a:	4681                	c.li	a3,0
    123c:	4601                	c.li	a2,0
    123e:	4581                	c.li	a1,0
    1240:	09f00513          	li	a0,159
    1244:	a80ff0ef          	jal	ra,4c4 <flash_mspi_read_ram>
    1248:	7d046073          	csrsi	mmisc_ctl,8
    124c:	40f2                	c.lwsp	ra,28(sp)
    124e:	4532                	c.lwsp	a0,12(sp)
    1250:	6105                	c.addi16sp	sp,32
    1252:	8082                	c.jr	ra

00001254 <flash_read_mid_uid_with_check>:
    1254:	85df978b          	addigp	a5,-1956 # 8005c <cst_libm_sincosf+0x5c>
    1258:	4798                	c.lw	a4,8(a5)
    125a:	4390                	c.lw	a2,0(a5)
    125c:	43d4                	c.lw	a3,4(a5)
    125e:	47dc                	c.lw	a5,12(a5)
    1260:	1101                	c.addi	sp,-32
    1262:	cc22                	c.swsp	s0,24(sp)
    1264:	ca26                	c.swsp	s1,20(sp)
    1266:	842a                	c.mv	s0,a0
    1268:	c43a                	c.swsp	a4,8(sp)
    126a:	c63e                	c.swsp	a5,12(sp)
    126c:	ce06                	c.swsp	ra,28(sp)
    126e:	84ae                	c.mv	s1,a1
    1270:	c032                	c.swsp	a2,0(sp)
    1272:	c236                	c.swsp	a3,4(sp)
    1274:	fb9ff0ef          	jal	ra,122c <flash_read_mid>
    1278:	77c1                	c.lui	a5,0xffff0
    127a:	17fd                	c.addi	a5,-1
    127c:	00146737          	lui	a4,0x146
    1280:	c008                	c.sw	a0,0(s0)
    1282:	8fe9                	c.and	a5,a0
    1284:	08570713          	addi	a4,a4,133 # 146085 <FLASH_SIZE+0x46085>
    1288:	02e78063          	beq	a5,a4,12a8 <flash_read_mid_uid_with_check+0x54>
    128c:	00166737          	lui	a4,0x166
    1290:	08570713          	addi	a4,a4,133 # 166085 <FLASH_SIZE+0x66085>
    1294:	4781                	c.li	a5,0
    1296:	00e50963          	beq	a0,a4,12a8 <flash_read_mid_uid_with_check+0x54>
    129a:	40f2                	c.lwsp	ra,28(sp)
    129c:	4462                	c.lwsp	s0,24(sp)
    129e:	44d2                	c.lwsp	s1,20(sp)
    12a0:	853e                	c.mv	a0,a5
    12a2:	6105                	c.addi16sp	sp,32
    12a4:	00008067          	ret
    12a8:	8526                	c.mv	a0,s1
    12aa:	3fa9                	c.jal	1204 <flash_read_uid.constprop.6>
    12ac:	0004c783          	lbu	a5,0(s1)
    12b0:	00014603          	lbu	a2,0(sp)
    12b4:	0014c683          	lbu	a3,1(s1)
    12b8:	00114703          	lbu	a4,1(sp)
    12bc:	8f91                	c.sub	a5,a2
    12be:	0017b793          	seqz	a5,a5
    12c2:	00e69363          	bne	a3,a4,12c8 <flash_read_mid_uid_with_check+0x74>
    12c6:	0785                	c.addi	a5,1
    12c8:	0024c683          	lbu	a3,2(s1)
    12cc:	00214703          	lbu	a4,2(sp)
    12d0:	00e69463          	bne	a3,a4,12d8 <flash_read_mid_uid_with_check+0x84>
    12d4:	00178793          	addi	a5,a5,1 # ffff0001 <_DATA_LMA_START+0xdffeab79>
    12d8:	0034c683          	lbu	a3,3(s1)
    12dc:	00314703          	lbu	a4,3(sp)
    12e0:	00e69463          	bne	a3,a4,12e8 <flash_read_mid_uid_with_check+0x94>
    12e4:	00178793          	addi	a5,a5,1
    12e8:	0044c683          	lbu	a3,4(s1)
    12ec:	00414703          	lbu	a4,4(sp)
    12f0:	00e69463          	bne	a3,a4,12f8 <flash_read_mid_uid_with_check+0xa4>
    12f4:	00178793          	addi	a5,a5,1
    12f8:	0054c683          	lbu	a3,5(s1)
    12fc:	00514703          	lbu	a4,5(sp)
    1300:	00e69463          	bne	a3,a4,1308 <flash_read_mid_uid_with_check+0xb4>
    1304:	00178793          	addi	a5,a5,1
    1308:	0064c683          	lbu	a3,6(s1)
    130c:	00614703          	lbu	a4,6(sp)
    1310:	00e69463          	bne	a3,a4,1318 <flash_read_mid_uid_with_check+0xc4>
    1314:	00178793          	addi	a5,a5,1
    1318:	0074c683          	lbu	a3,7(s1)
    131c:	00714703          	lbu	a4,7(sp)
    1320:	00e69463          	bne	a3,a4,1328 <flash_read_mid_uid_with_check+0xd4>
    1324:	00178793          	addi	a5,a5,1
    1328:	0084c683          	lbu	a3,8(s1)
    132c:	00814703          	lbu	a4,8(sp)
    1330:	00e69463          	bne	a3,a4,1338 <flash_read_mid_uid_with_check+0xe4>
    1334:	00178793          	addi	a5,a5,1
    1338:	0094c683          	lbu	a3,9(s1)
    133c:	00914703          	lbu	a4,9(sp)
    1340:	00e69463          	bne	a3,a4,1348 <flash_read_mid_uid_with_check+0xf4>
    1344:	00178793          	addi	a5,a5,1
    1348:	00a4c683          	lbu	a3,10(s1)
    134c:	00a14703          	lbu	a4,10(sp)
    1350:	00e69463          	bne	a3,a4,1358 <flash_read_mid_uid_with_check+0x104>
    1354:	00178793          	addi	a5,a5,1
    1358:	00b4c683          	lbu	a3,11(s1)
    135c:	00b14703          	lbu	a4,11(sp)
    1360:	00e69463          	bne	a3,a4,1368 <flash_read_mid_uid_with_check+0x114>
    1364:	00178793          	addi	a5,a5,1
    1368:	00c4c683          	lbu	a3,12(s1)
    136c:	00c14703          	lbu	a4,12(sp)
    1370:	00e69463          	bne	a3,a4,1378 <flash_read_mid_uid_with_check+0x124>
    1374:	00178793          	addi	a5,a5,1
    1378:	00d4c683          	lbu	a3,13(s1)
    137c:	00d14703          	lbu	a4,13(sp)
    1380:	00e69463          	bne	a3,a4,1388 <flash_read_mid_uid_with_check+0x134>
    1384:	00178793          	addi	a5,a5,1
    1388:	00e4c683          	lbu	a3,14(s1)
    138c:	00e14703          	lbu	a4,14(sp)
    1390:	00e69463          	bne	a3,a4,1398 <flash_read_mid_uid_with_check+0x144>
    1394:	00178793          	addi	a5,a5,1
    1398:	00f14683          	lbu	a3,15(sp)
    139c:	00f4c703          	lbu	a4,15(s1)
    13a0:	00e69463          	bne	a3,a4,13a8 <flash_read_mid_uid_with_check+0x154>
    13a4:	00178793          	addi	a5,a5,1
    13a8:	40f2                	c.lwsp	ra,28(sp)
    13aa:	4462                	c.lwsp	s0,24(sp)
    13ac:	17c1                	c.addi	a5,-16
    13ae:	00f037b3          	snez	a5,a5
    13b2:	44d2                	c.lwsp	s1,20(sp)
    13b4:	853e                	c.mv	a0,a5
    13b6:	6105                	c.addi16sp	sp,32
    13b8:	00008067          	ret

000013bc <flash_dread>:
    13bc:	1141                	c.addi	sp,-16
    13be:	c606                	c.swsp	ra,12(sp)
    13c0:	87b2                	c.mv	a5,a2
    13c2:	7d047073          	csrci	mmisc_ctl,8
    13c6:	862e                	c.mv	a2,a1
    13c8:	00f005b3          	add	a1,zero,a5
    13cc:	a78ff0ef          	jal	ra,644 <flash_mspi_read_ram.constprop.7>
    13d0:	7d046073          	csrsi	mmisc_ctl,8
    13d4:	40b2                	c.lwsp	ra,12(sp)
    13d6:	0141                	c.addi	sp,16
    13d8:	00008067          	ret

000013dc <clock_init.constprop.10>:
    13dc:	1141                	c.addi	sp,-16
    13de:	c606                	c.swsp	ra,12(sp)
    13e0:	7d047073          	csrci	mmisc_ctl,8
    13e4:	c3cff0ef          	jal	ra,820 <clock_init_ram.constprop.11>
    13e8:	7d046073          	csrsi	mmisc_ctl,8
    13ec:	40b2                	c.lwsp	ra,12(sp)
    13ee:	0141                	c.addi	sp,16
    13f0:	00008067          	ret

000013f4 <pm_sleep_wakeup.constprop.2>:
    13f4:	1141                	c.addi	sp,-16
    13f6:	c606                	c.swsp	ra,12(sp)
    13f8:	7d047073          	csrci	mmisc_ctl,8
    13fc:	8cdff0ef          	jal	ra,cc8 <pm_sleep_wakeup_ram.constprop.3>
    1400:	7d046073          	csrsi	mmisc_ctl,8
    1404:	40b2                	c.lwsp	ra,12(sp)
    1406:	0141                	c.addi	sp,16
    1408:	8082                	c.jr	ra
    140a:	0001                	c.nop

0000140c <user_calib_adc_vref.constprop.9>:
    140c:	1101                	c.addi	sp,-32
    140e:	ce06                	c.swsp	ra,28(sp)
    1410:	c402                	c.swsp	zero,8(sp)
    1412:	00011623          	sh	zero,12(sp)
    1416:	00010723          	sb	zero,14(sp)
    141a:	c54d                	c.beqz	a0,14c4 <user_calib_adc_vref.constprop.9+0xb8>
    141c:	000007b7          	lui	a5,0x0
    1420:	1587a783          	lw	a5,344(a5) # 158 <_AES_VMA_END>
    1424:	0030                	c.addi4spn	a2,sp,8
    1426:	459d                	c.li	a1,7
    1428:	9782                	c.jalr	a5
    142a:	00c14783          	lbu	a5,12(sp)
    142e:	1c07b75b          	bfos	a4,a5,7,0
    1432:	04074163          	bltz	a4,1474 <user_calib_adc_vref.constprop.9+0x68>
    1436:	00e14703          	lbu	a4,14(sp)
    143a:	00d14603          	lbu	a2,13(sp)
    143e:	0722                	c.slli	a4,0x8
    1440:	66c1                	c.lui	a3,0x10
    1442:	00c705b3          	add	a1,a4,a2
    1446:	16fd                	c.addi	a3,-1
    1448:	02d58663          	beq	a1,a3,1474 <user_calib_adc_vref.constprop.9+0x68>
    144c:	fd060613          	addi	a2,a2,-48
    1450:	9732                	c.add	a4,a2
    1452:	3c07275b          	bfoz	a4,a4,15,0
    1456:	0fb00693          	li	a3,251
    145a:	08e6e563          	bltu	a3,a4,14e4 <user_calib_adc_vref.constprop.9+0xd8>
    145e:	17b1                	c.addi	a5,-20
    1460:	1c07b7db          	bfos	a5,a5,7,0
    1464:	5731                	c.li	a4,-20
    1466:	06e78f63          	beq	a5,a4,14e4 <user_calib_adc_vref.constprop.9+0xd8>
    146a:	f9578513          	addi	a0,a5,-107
    146e:	00a03533          	snez	a0,a0
    1472:	a89d                	c.j	14e8 <user_calib_adc_vref.constprop.9+0xdc>
    1474:	801407b7          	lui	a5,0x80140
    1478:	06500713          	li	a4,101
    147c:	1ee78a23          	sb	a4,500(a5) # 801401f4 <_DATA_LMA_START+0x6013ad6c>
    1480:	1c87a703          	lw	a4,456(a5)
    1484:	1e078a23          	sb	zero,500(a5)
    1488:	4c47275b          	bfoz	a4,a4,19,4
    148c:	380727db          	bfoz	a5,a4,14,0
    1490:	06078063          	beqz	a5,14f0 <user_calib_adc_vref.constprop.9+0xe4>
    1494:	1ff77713          	andi	a4,a4,511
    1498:	f9b70713          	addi	a4,a4,-101
    149c:	3c07275b          	bfoz	a4,a4,15,0
    14a0:	0c600693          	li	a3,198
    14a4:	04e6e063          	bltu	a3,a4,14e4 <user_calib_adc_vref.constprop.9+0xd8>
    14a8:	0097d513          	srli	a0,a5,0x9
    14ac:	1531                	c.addi	a0,-20
    14ae:	1c05355b          	bfos	a0,a0,7,0
    14b2:	57b1                	c.li	a5,-20
    14b4:	02f50863          	beq	a0,a5,14e4 <user_calib_adc_vref.constprop.9+0xd8>
    14b8:	fd550513          	addi	a0,a0,-43 # 3fffffd5 <_DATA_LMA_START+0x1fffab4d>
    14bc:	00a03533          	snez	a0,a0
    14c0:	0280006f          	j	14e8 <user_calib_adc_vref.constprop.9+0xdc>
    14c4:	801407b7          	lui	a5,0x80140
    14c8:	06500713          	li	a4,101
    14cc:	1ee78a23          	sb	a4,500(a5) # 801401f4 <_DATA_LMA_START+0x6013ad6c>
    14d0:	1c87a703          	lw	a4,456(a5)
    14d4:	1e078a23          	sb	zero,500(a5)
    14d8:	4c47275b          	bfoz	a4,a4,19,4
    14dc:	380727db          	bfoz	a5,a4,14,0
    14e0:	fa079ae3          	bnez	a5,1494 <user_calib_adc_vref.constprop.9+0x88>
    14e4:	00000513          	li	a0,0
    14e8:	40f2                	c.lwsp	ra,28(sp)
    14ea:	6105                	c.addi16sp	sp,32
    14ec:	00008067          	ret
    14f0:	00814503          	lbu	a0,8(sp)
    14f4:	00914783          	lbu	a5,9(sp)
    14f8:	953e                	c.add	a0,a5
    14fa:	f8050513          	addi	a0,a0,-128
    14fe:	3c05255b          	bfoz	a0,a0,15,0
    1502:	0fc53513          	sltiu	a0,a0,252
    1506:	b7cd                	c.j	14e8 <user_calib_adc_vref.constprop.9+0xdc>

00001508 <user_calib_freq_offset.constprop.8>:
    1508:	000007b7          	lui	a5,0x0
    150c:	1101                	c.addi	sp,-32
    150e:	1587a783          	lw	a5,344(a5) # 158 <_AES_VMA_END>
    1512:	577d                	c.li	a4,-1
    1514:	00f10613          	addi	a2,sp,15
    1518:	4585                	c.li	a1,1
    151a:	cc22                	c.swsp	s0,24(sp)
    151c:	ce06                	c.swsp	ra,28(sp)
    151e:	00e107a3          	sb	a4,15(sp)
    1522:	9782                	c.jalr	a5
    1524:	00f14403          	lbu	s0,15(sp)
    1528:	0ff00793          	li	a5,255
    152c:	00000513          	li	a0,0
    1530:	02f40263          	beq	s0,a5,1554 <user_calib_freq_offset.constprop.8+0x4c>
    1534:	08a00513          	li	a0,138
    1538:	a9cff0ef          	jal	ra,7d4 <analog_read_reg8>
    153c:	03f47413          	andi	s0,s0,63
    1540:	04057593          	andi	a1,a0,64
    1544:	0085e5b3          	or	a1,a1,s0
    1548:	08a00513          	li	a0,138
    154c:	a44ff0ef          	jal	ra,790 <analog_write_reg8>
    1550:	00100513          	li	a0,1
    1554:	40f2                	c.lwsp	ra,28(sp)
    1556:	4462                	c.lwsp	s0,24(sp)
    1558:	6105                	c.addi16sp	sp,32
    155a:	8082                	c.jr	ra
    155c:	0001                	c.nop
	...

00001560 <gpio_input_dis>:
    1560:	801407b7          	lui	a5,0x80140
    1564:	30978703          	lb	a4,777(a5) # 80140309 <_DATA_LMA_START+0x6013ae81>
    1568:	fff54513          	not	a0,a0
    156c:	8d79                	c.and	a0,a4
    156e:	0ff57513          	andi	a0,a0,255
    1572:	30a784a3          	sb	a0,777(a5)
    1576:	8082                	c.jr	ra
    1578:	0001                	c.nop
	...

0000157c <_write>:
    157c:	1141                	c.addi	sp,-16
    157e:	c606                	c.swsp	ra,12(sp)
    1580:	c422                	c.swsp	s0,8(sp)
    1582:	c226                	c.swsp	s1,4(sp)
    1584:	c04a                	c.swsp	s2,0(sp)
    1586:	02c05763          	blez	a2,15b4 <_write+0x38>
    158a:	8932                	c.mv	s2,a2
    158c:	00b00433          	add	s0,zero,a1
    1590:	00c584b3          	add	s1,a1,a2
    1594:	00044503          	lbu	a0,0(s0)
    1598:	00140413          	addi	s0,s0,1
    159c:	e0cff0ef          	jal	ra,ba8 <dr_putchar>
    15a0:	fe941ae3          	bne	s0,s1,1594 <_write+0x18>
    15a4:	40b2                	c.lwsp	ra,12(sp)
    15a6:	4422                	c.lwsp	s0,8(sp)
    15a8:	854a                	c.mv	a0,s2
    15aa:	4492                	c.lwsp	s1,4(sp)
    15ac:	4902                	c.lwsp	s2,0(sp)
    15ae:	0141                	c.addi	sp,16
    15b0:	00008067          	ret
    15b4:	40b2                	c.lwsp	ra,12(sp)
    15b6:	4422                	c.lwsp	s0,8(sp)
    15b8:	4901                	c.li	s2,0
    15ba:	854a                	c.mv	a0,s2
    15bc:	4492                	c.lwsp	s1,4(sp)
    15be:	4902                	c.lwsp	s2,0(sp)
    15c0:	0141                	c.addi	sp,16
    15c2:	8082                	c.jr	ra

000015c4 <main>:
    15c4:	7171                	c.addi16sp	sp,-176
    15c6:	ffbc07b7          	lui	a5,0xffbc0
    15ca:	d706                	c.swsp	ra,172(sp)
    15cc:	17fd                	c.addi	a5,-1
    15ce:	80140737          	lui	a4,0x80140
    15d2:	d522                	c.swsp	s0,168(sp)
    15d4:	d326                	c.swsp	s1,164(sp)
    15d6:	d14a                	c.swsp	s2,160(sp)
    15d8:	cf4e                	c.swsp	s3,156(sp)
    15da:	cd52                	c.swsp	s4,152(sp)
    15dc:	cb56                	c.swsp	s5,148(sp)
    15de:	c95a                	c.swsp	s6,144(sp)
    15e0:	c75e                	c.swsp	s7,140(sp)
    15e2:	c562                	c.swsp	s8,136(sp)
    15e4:	c366                	c.swsp	s9,132(sp)
    15e6:	c16a                	c.swsp	s10,128(sp)
    15e8:	deee                	c.swsp	s11,124(sp)
    15ea:	f6a2                	c.fswsp	fs0,108(sp)
    15ec:	f4a6                	c.fswsp	fs1,104(sp)
    15ee:	f2ca                	c.fswsp	fs2,100(sp)
    15f0:	f0ce                	c.fswsp	fs3,96(sp)
    15f2:	1ef72023          	sw	a5,480(a4) # 801401e0 <_DATA_LMA_START+0x6013ad58>
    15f6:	4589                	c.li	a1,2
    15f8:	08c00513          	li	a0,140
    15fc:	1ef72223          	sw	a5,484(a4)
    1600:	990ff0ef          	jal	ra,790 <analog_write_reg8>
    1604:	4581                	c.li	a1,0
    1606:	4529                	c.li	a0,10
    1608:	988ff0ef          	jal	ra,790 <analog_write_reg8>
    160c:	03b00593          	li	a1,59
    1610:	00b00513          	li	a0,11
    1614:	97cff0ef          	jal	ra,790 <analog_write_reg8>
    1618:	00500513          	li	a0,5
    161c:	9b8ff0ef          	jal	ra,7d4 <analog_read_reg8>
    1620:	0f757593          	andi	a1,a0,247
    1624:	00500513          	li	a0,5
    1628:	968ff0ef          	jal	ra,790 <analog_write_reg8>
    162c:	00600513          	li	a0,6
    1630:	9a4ff0ef          	jal	ra,7d4 <analog_read_reg8>
    1634:	03e57593          	andi	a1,a0,62
    1638:	00600513          	li	a0,6
    163c:	954ff0ef          	jal	ra,790 <analog_write_reg8>
    1640:	04500593          	li	a1,69
    1644:	00100513          	li	a0,1
    1648:	948ff0ef          	jal	ra,790 <analog_write_reg8>
    164c:	04c00593          	li	a1,76
    1650:	01c00513          	li	a0,28
    1654:	93cff0ef          	jal	ra,790 <analog_write_reg8>
    1658:	801007b7          	lui	a5,0x80100
    165c:	44478703          	lb	a4,1092(a5) # 80100444 <_DATA_LMA_START+0x600fafbc>
    1660:	801016b7          	lui	a3,0x80101
    1664:	0ff77713          	andi	a4,a4,255
    1668:	00e76713          	ori	a4,a4,14
    166c:	44e78223          	sb	a4,1092(a5)
    1670:	45878703          	lb	a4,1112(a5)
    1674:	03800513          	li	a0,56
    1678:	0ff77713          	andi	a4,a4,255
    167c:	00e76713          	ori	a4,a4,14
    1680:	44e78c23          	sb	a4,1112(a5)
    1684:	46c78703          	lb	a4,1132(a5)
    1688:	0ff77713          	andi	a4,a4,255
    168c:	00e76713          	ori	a4,a4,14
    1690:	46e78623          	sb	a4,1132(a5)
    1694:	48078703          	lb	a4,1152(a5)
    1698:	0ff77713          	andi	a4,a4,255
    169c:	00e76713          	ori	a4,a4,14
    16a0:	48e78023          	sb	a4,1152(a5)
    16a4:	49478703          	lb	a4,1172(a5)
    16a8:	0ff77713          	andi	a4,a4,255
    16ac:	00e76713          	ori	a4,a4,14
    16b0:	48e78a23          	sb	a4,1172(a5)
    16b4:	4a878703          	lb	a4,1192(a5)
    16b8:	0ff77713          	andi	a4,a4,255
    16bc:	00e76713          	ori	a4,a4,14
    16c0:	4ae78423          	sb	a4,1192(a5)
    16c4:	4bc78703          	lb	a4,1212(a5)
    16c8:	0ff77713          	andi	a4,a4,255
    16cc:	00e76713          	ori	a4,a4,14
    16d0:	4ae78e23          	sb	a4,1212(a5)
    16d4:	4d078703          	lb	a4,1232(a5)
    16d8:	0ff77713          	andi	a4,a4,255
    16dc:	00e76713          	ori	a4,a4,14
    16e0:	4ce78823          	sb	a4,1232(a5)
    16e4:	83a68783          	lb	a5,-1990(a3) # 8010083a <_DATA_LMA_START+0x600fb3b2>
    16e8:	82068d23          	sb	zero,-1990(a3)
    16ec:	8e8ff0ef          	jal	ra,7d4 <analog_read_reg8>
    16f0:	00a00433          	add	s0,zero,a0
    16f4:	03900513          	li	a0,57
    16f8:	8dcff0ef          	jal	ra,7d4 <analog_read_reg8>
    16fc:	84aa                	c.mv	s1,a0
    16fe:	1804735b          	bbc	s0,0,1884 <main+0x2c0>
    1702:	0fe47593          	andi	a1,s0,254
    1706:	14057b5b          	bbc	a0,0,185c <main+0x298>
    170a:	1a40140b          	addigp	s0,420 # 809a4 <g_pm_status_info>
    170e:	4791                	c.li	a5,4
    1710:	03800513          	li	a0,56
    1714:	00f40123          	sb	a5,2(s0)
    1718:	878ff0ef          	jal	ra,790 <analog_write_reg8>
    171c:	00100593          	li	a1,1
    1720:	07f00513          	li	a0,127
    1724:	86cff0ef          	jal	ra,790 <analog_write_reg8>
    1728:	06400513          	li	a0,100
    172c:	8a8ff0ef          	jal	ra,7d4 <analog_read_reg8>
    1730:	0c3527db          	bfoz	a5,a0,3,3
    1734:	00a400a3          	sb	a0,1(s0)
    1738:	00f40023          	sb	a5,0(s0)
    173c:	08800513          	li	a0,136
    1740:	894ff0ef          	jal	ra,7d4 <analog_read_reg8>
    1744:	be757c5b          	bbc	a0,7,173c <main+0x178>
    1748:	a18ff0ef          	jal	ra,960 <pm_wait_bbpll_done>
    174c:	00244783          	lbu	a5,2(s0)
    1750:	0a87dc5b          	beqc	a5,8,1808 <main+0x244>
    1754:	80140737          	lui	a4,0x80140
    1758:	20a70783          	lb	a5,522(a4) # 8014020a <_DATA_LMA_START+0x6013ad82>
    175c:	0ff7f793          	andi	a5,a5,255
    1760:	00c7e793          	ori	a5,a5,12
    1764:	20f70523          	sb	a5,522(a4)
    1768:	00100793          	li	a5,1
    176c:	20f72023          	sw	a5,512(a4)
    1770:	801404b7          	lui	s1,0x80140
    1774:	1fd48783          	lb	a5,509(s1) # 801401fd <_DATA_LMA_START+0x6013ad75>
    1778:	0ff7f793          	andi	a5,a5,255
    177c:	1af0402b          	swgp	a5,416 # 809a0 <g_chip_version>
    1780:	00244703          	lbu	a4,2(s0)
    1784:	04475c5b          	beqc	a4,4,17dc <main+0x218>
    1788:	0ff00693          	li	a3,255
    178c:	04d78063          	beq	a5,a3,17cc <main+0x208>
    1790:	08000593          	li	a1,128
    1794:	07d00513          	li	a0,125
    1798:	ff9fe0ef          	jal	ra,790 <analog_write_reg8>
    179c:	80140737          	lui	a4,0x80140
    17a0:	06500793          	li	a5,101
    17a4:	1ef70a23          	sb	a5,500(a4) # 801401f4 <_DATA_LMA_START+0x6013ad6c>
    17a8:	1c872783          	lw	a5,456(a4)
    17ac:	1e070a23          	sb	zero,500(a4)
    17b0:	8bbd                	c.andi	a5,15
    17b2:	0037d55b          	beqc	a5,3,17bc <main+0x1f8>
    17b6:	4725                	c.li	a4,9
    17b8:	04f77c63          	bgeu	a4,a5,1810 <main+0x24c>
    17bc:	801407b7          	lui	a5,0x80140
    17c0:	02000713          	li	a4,32
    17c4:	1ee787a3          	sb	a4,495(a5) # 801401ef <_DATA_LMA_START+0x6013ad67>
    17c8:	0000006f          	j	17c8 <main+0x204>
    17cc:	bc17625b          	bnec	a4,1,1790 <main+0x1cc>
    17d0:	07d00513          	li	a0,125
    17d4:	08000593          	li	a1,128
    17d8:	0180006f          	j	17f0 <main+0x22c>
    17dc:	03900513          	li	a0,57
    17e0:	ff5fe0ef          	jal	ra,7d4 <analog_read_reg8>
    17e4:	00256593          	ori	a1,a0,2
    17e8:	0ff5f593          	andi	a1,a1,255
    17ec:	03900513          	li	a0,57
    17f0:	fa1fe0ef          	jal	ra,790 <analog_write_reg8>
    17f4:	2004a503          	lw	a0,512(s1)
    17f8:	001877b7          	lui	a5,0x187
    17fc:	a0078793          	addi	a5,a5,-1536 # 186a00 <FLASH_SIZE+0x86a00>
    1800:	953e                	c.add	a0,a5
    1802:	3ecd                	c.jal	13f4 <pm_sleep_wakeup.constprop.2>
    1804:	f8dff06f          	j	1790 <main+0x1cc>
    1808:	b75fe0ef          	jal	ra,37c <pm_stimer_recover>
    180c:	f65ff06f          	j	1770 <main+0x1ac>
    1810:	00f00513          	li	a0,15
    1814:	fc1fe0ef          	jal	ra,7d4 <analog_read_reg8>
    1818:	03f57593          	andi	a1,a0,63
    181c:	0405e593          	ori	a1,a1,64
    1820:	00f00513          	li	a0,15
    1824:	f6dfe0ef          	jal	ra,790 <analog_write_reg8>
    1828:	088c                	c.addi4spn	a1,sp,80
    182a:	00e8                	c.addi4spn	a0,sp,76
    182c:	a29ff0ef          	jal	ra,1254 <flash_read_mid_uid_with_check>
    1830:	0ff57513          	andi	a0,a0,255
    1834:	0015545b          	beqc	a0,1,183c <main+0x278>
    1838:	7210006f          	j	2758 <main+0x1194>
    183c:	04e10783          	lb	a5,78(sp)
    1840:	4719                	c.li	a4,6
    1842:	17c1                	c.addi	a5,-16
    1844:	0ff7f793          	andi	a5,a5,255
    1848:	00f77463          	bgeu	a4,a5,1850 <main+0x28c>
    184c:	70d0006f          	j	2758 <main+0x1194>
    1850:	841f970b          	addigp	a4,-1984 # 80040 <cst_libm_sincosf+0x40>
    1854:	0cf707db          	lea.w	a5,a4,a5
    1858:	439c                	c.lw	a5,0(a5)
    185a:	8782                	c.jr	a5
    185c:	00100793          	li	a5,1
    1860:	1a40140b          	addigp	s0,420 # 809a4 <g_pm_status_info>
    1864:	03800513          	li	a0,56
    1868:	00f40123          	sb	a5,2(s0)
    186c:	f25fe0ef          	jal	ra,790 <analog_write_reg8>
    1870:	0014e593          	ori	a1,s1,1
    1874:	0ff5f593          	andi	a1,a1,255
    1878:	03900513          	li	a0,57
    187c:	f15fe0ef          	jal	ra,790 <analog_write_reg8>
    1880:	e9dff06f          	j	171c <main+0x158>
    1884:	07f00513          	li	a0,127
    1888:	f4dfe0ef          	jal	ra,7d4 <analog_read_reg8>
    188c:	4005745b          	bbs	a0,0,1894 <main+0x2d0>
    1890:	6410006f          	j	26d0 <main+0x110c>
    1894:	0014f45b          	bbc	s1,1,189c <main+0x2d8>
    1898:	61d0006f          	j	26b4 <main+0x10f0>
    189c:	1a40140b          	addigp	s0,420 # 809a4 <g_pm_status_info>
    18a0:	47c1                	c.li	a5,16
    18a2:	00f40123          	sb	a5,2(s0)
    18a6:	bd9d                	c.j	171c <main+0x158>
    18a8:	003fe537          	lui	a0,0x3fe
    18ac:	0c050513          	addi	a0,a0,192 # 3fe0c0 <FLASH_SIZE+0x2fe0c0>
    18b0:	b5dff0ef          	jal	ra,140c <user_calib_adc_vref.constprop.9>
    18b4:	003fe537          	lui	a0,0x3fe
    18b8:	c51ff0ef          	jal	ra,1508 <user_calib_freq_offset.constprop.8>
    18bc:	80140437          	lui	s0,0x80140
    18c0:	b1dff0ef          	jal	ra,13dc <clock_init.constprop.10>
    18c4:	30e40783          	lb	a5,782(s0) # 8014030e <_DATA_LMA_START+0x6013ae86>
    18c8:	11000513          	li	a0,272
    18cc:	0ff7f793          	andi	a5,a5,255
    18d0:	0107e793          	ori	a5,a5,16
    18d4:	30f40723          	sb	a5,782(s0)
    18d8:	30a40783          	lb	a5,778(s0)
    18dc:	0ef7f793          	andi	a5,a5,239
    18e0:	30f40523          	sb	a5,778(s0)
    18e4:	c7dff0ef          	jal	ra,1560 <gpio_input_dis>
    18e8:	30e40783          	lb	a5,782(s0)
    18ec:	12000513          	li	a0,288
    18f0:	0ff7f793          	andi	a5,a5,255
    18f4:	0207e793          	ori	a5,a5,32
    18f8:	30f40723          	sb	a5,782(s0)
    18fc:	30a40783          	lb	a5,778(s0)
    1900:	0df7f793          	andi	a5,a5,223
    1904:	30f40523          	sb	a5,778(s0)
    1908:	c59ff0ef          	jal	ra,1560 <gpio_input_dis>
    190c:	30e40783          	lb	a5,782(s0)
    1910:	14000513          	li	a0,320
    1914:	0ff7f793          	andi	a5,a5,255
    1918:	0407e793          	ori	a5,a5,64
    191c:	30f40723          	sb	a5,782(s0)
    1920:	30a40783          	lb	a5,778(s0)
    1924:	0bf7f793          	andi	a5,a5,191
    1928:	30f40523          	sb	a5,778(s0)
    192c:	c35ff0ef          	jal	ra,1560 <gpio_input_dis>
    1930:	30e40783          	lb	a5,782(s0)
    1934:	18000513          	li	a0,384
    1938:	f807e793          	ori	a5,a5,-128
    193c:	0ff7f793          	andi	a5,a5,255
    1940:	30f40723          	sb	a5,782(s0)
    1944:	30a40783          	lb	a5,778(s0)
    1948:	07f7f793          	andi	a5,a5,127
    194c:	30f40523          	sb	a5,778(s0)
    1950:	c11ff0ef          	jal	ra,1560 <gpio_input_dis>
    1954:	00080537          	lui	a0,0x80
    1958:	08450513          	addi	a0,a0,132 # 80084 <FIR_SIZES+0x18>
    195c:	57b020ef          	jal	ra,46d6 <puts>
    1960:	65a9                	c.lui	a1,0xa
    1962:	00080537          	lui	a0,0x80
    1966:	0585                	c.addi	a1,1
    1968:	08850513          	addi	a0,a0,136 # 80088 <FIR_SIZES+0x1c>
    196c:	54d020ef          	jal	ra,46b8 <iprintf>
    1970:	00080537          	lui	a0,0x80
    1974:	7e400593          	li	a1,2020
    1978:	0a050513          	addi	a0,a0,160 # 800a0 <FIR_SIZES+0x34>
    197c:	53d020ef          	jal	ra,46b8 <iprintf>
    1980:	000805b7          	lui	a1,0x80
    1984:	00080537          	lui	a0,0x80
    1988:	0b858593          	addi	a1,a1,184 # 800b8 <FIR_SIZES+0x4c>
    198c:	0c450513          	addi	a0,a0,196 # 800c4 <FIR_SIZES+0x58>
    1990:	529020ef          	jal	ra,46b8 <iprintf>
    1994:	86dfe0ef          	jal	ra,200 <delay_ms.constprop.12>
    1998:	300027f3          	csrr	a5,mstatus
    199c:	0037f65b          	bbc	a5,3,19a8 <main+0x3e4>
    19a0:	300477f3          	csrrci	a5,mstatus,8
    19a4:	0ff0000f          	fence
    19a8:	17a0250b          	lbugp	a0,378 # 8097a <sys_clk+0x2>
    19ac:	6b0020ef          	jal	ra,405c <__floatsidf>
    19b0:	000807b7          	lui	a5,0x80
    19b4:	02078793          	addi	a5,a5,32 # 80020 <cst_libm_sincosf+0x20>
    19b8:	4390                	c.lw	a2,0(a5)
    19ba:	43d4                	c.lw	a3,4(a5)
    19bc:	00080437          	lui	s0,0x80
    19c0:	6f1010ef          	jal	ra,38b0 <__muldf3>
    19c4:	1880148b          	addigp	s1,392 # 80988 <_BSS_VMA_START>
    19c8:	5fc020ef          	jal	ra,3fc4 <__fixunsdfsi>
    19cc:	00a4a023          	sw	a0,0(s1)
    19d0:	40040513          	addi	a0,s0,1024 # 80400 <FIR_SIZES+0x394>
    19d4:	4e5020ef          	jal	ra,46b8 <iprintf>
    19d8:	00080537          	lui	a0,0x80
    19dc:	0ec50513          	addi	a0,a0,236 # 800ec <FIR_SIZES+0x80>
    19e0:	4d9020ef          	jal	ra,46b8 <iprintf>
    19e4:	40040513          	addi	a0,s0,1024
    19e8:	4d1020ef          	jal	ra,46b8 <iprintf>
    19ec:	0004a583          	lw	a1,0(s1)
    19f0:	00080537          	lui	a0,0x80
    19f4:	11850513          	addi	a0,a0,280 # 80118 <FIR_SIZES+0xac>
    19f8:	4c1020ef          	jal	ra,46b8 <iprintf>
    19fc:	40040513          	addi	a0,s0,1024
    1a00:	4b9020ef          	jal	ra,46b8 <iprintf>
    1a04:	00080537          	lui	a0,0x80
    1a08:	13850513          	addi	a0,a0,312 # 80138 <FIR_SIZES+0xcc>
    1a0c:	4ad020ef          	jal	ra,46b8 <iprintf>
    1a10:	00080537          	lui	a0,0x80
    1a14:	16050513          	addi	a0,a0,352 # 80160 <FIR_SIZES+0xf4>
    1a18:	4a1020ef          	jal	ra,46b8 <iprintf>
    1a1c:	000807b7          	lui	a5,0x80
    1a20:	03c7a487          	flw	fs1,60(a5) # 8003c <cst_libm_sincosf+0x3c>
    1a24:	00080737          	lui	a4,0x80
    1a28:	03872907          	flw	fs2,56(a4) # 80038 <cst_libm_sincosf+0x38>
    1a2c:	209489d3          	fmv.s	fs3,fs1
    1a30:	aaaabd37          	lui	s10,0xaaaab
    1a34:	86df940b          	addigp	s0,-1940 # 8006c <FIR_SIZES>
    1a38:	aaad0d13          	addi	s10,s10,-1366 # aaaaaaaa <_DATA_LMA_START+0x8aaa5622>
    1a3c:	c022                	c.swsp	s0,0(sp)
    1a3e:	c222                	c.swsp	s0,4(sp)
    1a40:	4412                	c.lwsp	s0,4(sp)
    1a42:	4000                	c.lw	s0,0(s0)
    1a44:	00241913          	slli	s2,s0,0x2
    1a48:	01200533          	add	a0,zero,s2
    1a4c:	29d020ef          	jal	ra,44e8 <malloc>
    1a50:	8baa                	c.mv	s7,a0
    1a52:	854a                	c.mv	a0,s2
    1a54:	295020ef          	jal	ra,44e8 <malloc>
    1a58:	00141d93          	slli	s11,s0,0x1
    1a5c:	8caa                	c.mv	s9,a0
    1a5e:	856e                	c.mv	a0,s11
    1a60:	289020ef          	jal	ra,44e8 <malloc>
    1a64:	8b2a                	c.mv	s6,a0
    1a66:	856e                	c.mv	a0,s11
    1a68:	281020ef          	jal	ra,44e8 <malloc>
    1a6c:	8c2a                	c.mv	s8,a0
    1a6e:	5c0b8763          	beqz	s7,203c <main+0xa78>
    1a72:	5c0c8563          	beqz	s9,203c <main+0xa78>
    1a76:	5c0b0363          	beqz	s6,203c <main+0xa78>
    1a7a:	5c050163          	beqz	a0,203c <main+0xa78>
    1a7e:	02805b63          	blez	s0,1ab4 <main+0x4f0>
    1a82:	fff40793          	addi	a5,s0,-1
    1a86:	d007f753          	fcvt.s.w	fa4,a5
    1a8a:	86de                	c.mv	a3,s7
    1a8c:	875a                	c.mv	a4,s6
    1a8e:	4781                	c.li	a5,0
    1a90:	d007f7d3          	fcvt.s.w	fa5,a5
    1a94:	0691                	c.addi	a3,4
    1a96:	0709                	c.addi	a4,2
    1a98:	00178793          	addi	a5,a5,1
    1a9c:	18e7f7d3          	fdiv.s	fa5,fa5,fa4
    1aa0:	1127f6d3          	fmul.s	fa3,fa5,fs2
    1aa4:	fef6ae27          	fsw	fa5,-4(a3)
    1aa8:	c0069653          	fcvt.w.s	a2,fa3,rtz
    1aac:	fec71f23          	sh	a2,-2(a4)
    1ab0:	fef410e3          	bne	s0,a5,1a90 <main+0x4cc>
    1ab4:	878a                	c.mv	a5,sp
    1ab6:	0009f737          	lui	a4,0x9f
    1aba:	00f77f63          	bgeu	a4,a5,1ad8 <main+0x514>
    1abe:	fff61637          	lui	a2,0xfff61
    1ac2:	167d                	c.addi	a2,-1
    1ac4:	97b2                	c.add	a5,a2
    1ac6:	ffc7f613          	andi	a2,a5,-4
    1aca:	0611                	c.addi	a2,4
    1acc:	0aa00593          	li	a1,170
    1ad0:	0009f537          	lui	a0,0x9f
    1ad4:	225020ef          	jal	ra,44f8 <memset>
    1ad8:	b0005073          	csrwi	mcycle,0
    1adc:	b0205073          	csrwi	minstret,0
    1ae0:	b00027f3          	csrr	a5,mcycle
    1ae4:	b0202af3          	csrr	s5,minstret
    1ae8:	02805463          	blez	s0,1b10 <main+0x54c>
    1aec:	89de                	c.mv	s3,s7
    1aee:	8a66                	c.mv	s4,s9
    1af0:	01790933          	add	s2,s2,s7
    1af4:	0009a507          	flw	fa0,0(s3)
    1af8:	0a11                	c.addi	s4,4
    1afa:	c43e                	c.swsp	a5,8(sp)
    1afc:	00498993          	addi	s3,s3,4
    1b00:	6e1000ef          	jal	ra,29e0 <riscv_dsp_sqrt_f32>
    1b04:	feaa2e27          	fsw	fa0,-4(s4)
    1b08:	00812783          	lw	a5,8(sp)
    1b0c:	ff3914e3          	bne	s2,s3,1af4 <main+0x530>
    1b10:	b0002773          	csrr	a4,mcycle
    1b14:	b02026f3          	csrr	a3,minstret
    1b18:	8f1d                	c.sub	a4,a5
    1b1a:	415686b3          	sub	a3,a3,s5
    1b1e:	880a                	c.mv	a6,sp
    1b20:	0009f7b7          	lui	a5,0x9f
    1b24:	5307f663          	bgeu	a5,a6,2050 <main+0xa8c>
    1b28:	439c                	c.lw	a5,0(a5)
    1b2a:	53a79363          	bne	a5,s10,2050 <main+0xa8c>
    1b2e:	0009f7b7          	lui	a5,0x9f
    1b32:	a029                	c.j	1b3c <main+0x578>
    1b34:	0007a603          	lw	a2,0(a5) # 9f000 <_end+0x1e610>
    1b38:	01a61663          	bne	a2,s10,1b44 <main+0x580>
    1b3c:	00478793          	addi	a5,a5,4
    1b40:	ff07eae3          	bltu	a5,a6,1b34 <main+0x570>
    1b44:	4090                	c.lw	a2,0(s1)
    1b46:	d0177453          	fcvt.s.wu	fs0,a4
    1b4a:	00080537          	lui	a0,0x80
    1b4e:	85a2                	c.mv	a1,s0
    1b50:	d01677d3          	fcvt.s.wu	fa5,a2
    1b54:	1a050513          	addi	a0,a0,416 # 801a0 <FIR_SIZES+0x134>
    1b58:	c842                	c.swsp	a6,16(sp)
    1b5a:	c63e                	c.swsp	a5,12(sp)
    1b5c:	d436                	c.swsp	a3,40(sp)
    1b5e:	c43a                	c.swsp	a4,8(sp)
    1b60:	18f47453          	fdiv.s	fs0,fs0,fa5
    1b64:	355020ef          	jal	ra,46b8 <iprintf>
    1b68:	4722                	c.lwsp	a4,8(sp)
    1b6a:	00080ab7          	lui	s5,0x80
    1b6e:	85ba                	c.mv	a1,a4
    1b70:	1b4a8513          	addi	a0,s5,436 # 801b4 <FIR_SIZES+0x148>
    1b74:	345020ef          	jal	ra,46b8 <iprintf>
    1b78:	56a2                	c.lwsp	a3,40(sp)
    1b7a:	00080a37          	lui	s4,0x80
    1b7e:	85b6                	c.mv	a1,a3
    1b80:	1c8a0513          	addi	a0,s4,456 # 801c8 <FIR_SIZES+0x15c>
    1b84:	335020ef          	jal	ra,46b8 <iprintf>
    1b88:	000809b7          	lui	s3,0x80
    1b8c:	00080937          	lui	s2,0x80
    1b90:	10947453          	fmul.s	fs0,fs0,fs1
    1b94:	20840553          	fmv.s	fa0,fs0
    1b98:	540020ef          	jal	ra,40d8 <__extendsfdf2>
    1b9c:	862a                	c.mv	a2,a0
    1b9e:	86ae                	c.mv	a3,a1
    1ba0:	1ec98513          	addi	a0,s3,492 # 801ec <FIR_SIZES+0x180>
    1ba4:	315020ef          	jal	ra,46b8 <iprintf>
    1ba8:	47b2                	c.lwsp	a5,12(sp)
    1baa:	4842                	c.lwsp	a6,16(sp)
    1bac:	21090513          	addi	a0,s2,528 # 80210 <FIR_SIZES+0x1a4>
    1bb0:	40f805b3          	sub	a1,a6,a5
    1bb4:	305020ef          	jal	ra,46b8 <iprintf>
    1bb8:	878a                	c.mv	a5,sp
    1bba:	0009f737          	lui	a4,0x9f
    1bbe:	00f77f63          	bgeu	a4,a5,1bdc <main+0x618>
    1bc2:	fff61637          	lui	a2,0xfff61
    1bc6:	167d                	c.addi	a2,-1
    1bc8:	97b2                	c.add	a5,a2
    1bca:	ffc7f613          	andi	a2,a5,-4
    1bce:	0611                	c.addi	a2,4
    1bd0:	0aa00593          	li	a1,170
    1bd4:	0009f537          	lui	a0,0x9f
    1bd8:	121020ef          	jal	ra,44f8 <memset>
    1bdc:	b0005073          	csrwi	mcycle,0
    1be0:	b0205073          	csrwi	minstret,0
    1be4:	b0002673          	csrr	a2,mcycle
    1be8:	b02026f3          	csrr	a3,minstret
    1bec:	02805a63          	blez	s0,1c20 <main+0x65c>
    1bf0:	87da                	c.mv	a5,s6
    1bf2:	8762                	c.mv	a4,s8
    1bf4:	016d8db3          	add	s11,s11,s6
    1bf8:	00079503          	lh	a0,0(a5)
    1bfc:	0789                	c.addi	a5,2
    1bfe:	c83a                	c.swsp	a4,16(sp)
    1c00:	d436                	c.swsp	a3,40(sp)
    1c02:	c632                	c.swsp	a2,12(sp)
    1c04:	c43e                	c.swsp	a5,8(sp)
    1c06:	cc3e                	c.swsp	a5,24(sp)
    1c08:	5f5000ef          	jal	ra,29fc <riscv_dsp_sqrt_q15>
    1c0c:	4742                	c.lwsp	a4,16(sp)
    1c0e:	47a2                	c.lwsp	a5,8(sp)
    1c10:	00a71023          	sh	a0,0(a4) # 9f000 <_end+0x1e610>
    1c14:	4632                	c.lwsp	a2,12(sp)
    1c16:	0709                	c.addi	a4,2
    1c18:	02812683          	lw	a3,40(sp)
    1c1c:	fcfd9ee3          	bne	s11,a5,1bf8 <main+0x634>
    1c20:	b00027f3          	csrr	a5,mcycle
    1c24:	b0202773          	csrr	a4,minstret
    1c28:	8f91                	c.sub	a5,a2
    1c2a:	40d706b3          	sub	a3,a4,a3
    1c2e:	870a                	c.mv	a4,sp
    1c30:	0009f637          	lui	a2,0x9f
    1c34:	40e67a63          	bgeu	a2,a4,2048 <main+0xa84>
    1c38:	4210                	c.lw	a2,0(a2)
    1c3a:	0009fdb7          	lui	s11,0x9f
    1c3e:	01a60763          	beq	a2,s10,1c4c <main+0x688>
    1c42:	a809                	c.j	1c54 <main+0x690>
    1c44:	000da603          	lw	a2,0(s11) # 9f000 <_end+0x1e610>
    1c48:	01a61663          	bne	a2,s10,1c54 <main+0x690>
    1c4c:	004d8d93          	addi	s11,s11,4
    1c50:	feedeae3          	bltu	s11,a4,1c44 <main+0x680>
    1c54:	4090                	c.lw	a2,0(s1)
    1c56:	d017f453          	fcvt.s.wu	fs0,a5
    1c5a:	00080537          	lui	a0,0x80
    1c5e:	85a2                	c.mv	a1,s0
    1c60:	d01677d3          	fcvt.s.wu	fa5,a2
    1c64:	22850513          	addi	a0,a0,552 # 80228 <FIR_SIZES+0x1bc>
    1c68:	d43a                	c.swsp	a4,40(sp)
    1c6a:	c636                	c.swsp	a3,12(sp)
    1c6c:	00f12423          	sw	a5,8(sp)
    1c70:	18f47453          	fdiv.s	fs0,fs0,fa5
    1c74:	245020ef          	jal	ra,46b8 <iprintf>
    1c78:	47a2                	c.lwsp	a5,8(sp)
    1c7a:	1b4a8513          	addi	a0,s5,436
    1c7e:	85be                	c.mv	a1,a5
    1c80:	239020ef          	jal	ra,46b8 <iprintf>
    1c84:	46b2                	c.lwsp	a3,12(sp)
    1c86:	1c8a0513          	addi	a0,s4,456
    1c8a:	85b6                	c.mv	a1,a3
    1c8c:	22d020ef          	jal	ra,46b8 <iprintf>
    1c90:	11347453          	fmul.s	fs0,fs0,fs3
    1c94:	20840553          	fmv.s	fa0,fs0
    1c98:	440020ef          	jal	ra,40d8 <__extendsfdf2>
    1c9c:	862a                	c.mv	a2,a0
    1c9e:	86ae                	c.mv	a3,a1
    1ca0:	1ec98513          	addi	a0,s3,492
    1ca4:	215020ef          	jal	ra,46b8 <iprintf>
    1ca8:	02812703          	lw	a4,40(sp)
    1cac:	21090513          	addi	a0,s2,528
    1cb0:	41b705b3          	sub	a1,a4,s11
    1cb4:	205020ef          	jal	ra,46b8 <iprintf>
    1cb8:	01700533          	add	a0,zero,s7
    1cbc:	035020ef          	jal	ra,44f0 <free>
    1cc0:	01900533          	add	a0,zero,s9
    1cc4:	02d020ef          	jal	ra,44f0 <free>
    1cc8:	01600533          	add	a0,zero,s6
    1ccc:	025020ef          	jal	ra,44f0 <free>
    1cd0:	01800533          	add	a0,zero,s8
    1cd4:	01d020ef          	jal	ra,44f0 <free>
    1cd8:	4412                	c.lwsp	s0,4(sp)
    1cda:	00440693          	addi	a3,s0,4
    1cde:	c236                	c.swsp	a3,4(sp)
    1ce0:	885f958b          	addigp	a1,-1916 # 80084 <FIR_SIZES+0x18>
    1ce4:	d4d59ee3          	bne	a1,a3,1a40 <main+0x47c>
    1ce8:	00080537          	lui	a0,0x80
    1cec:	23c50513          	addi	a0,a0,572 # 8023c <FIR_SIZES+0x1d0>
    1cf0:	1c9020ef          	jal	ra,46b8 <iprintf>
    1cf4:	000805b7          	lui	a1,0x80
    1cf8:	40058513          	addi	a0,a1,1024 # 80400 <FIR_SIZES+0x394>
    1cfc:	1bd020ef          	jal	ra,46b8 <iprintf>
    1d00:	00080537          	lui	a0,0x80
    1d04:	25c50513          	addi	a0,a0,604 # 8025c <FIR_SIZES+0x1f0>
    1d08:	1b1020ef          	jal	ra,46b8 <iprintf>
    1d0c:	00080537          	lui	a0,0x80
    1d10:	28450513          	addi	a0,a0,644 # 80284 <FIR_SIZES+0x218>
    1d14:	1a5020ef          	jal	ra,46b8 <iprintf>
    1d18:	000807b7          	lui	a5,0x80
    1d1c:	03c7a487          	flw	fs1,60(a5) # 8003c <cst_libm_sincosf+0x3c>
    1d20:	4402                	c.lwsp	s0,0(sp)
    1d22:	000807b7          	lui	a5,0x80
    1d26:	209489d3          	fmv.s	fs3,fs1
    1d2a:	0387a907          	flw	fs2,56(a5) # 80038 <cst_libm_sincosf+0x38>
    1d2e:	aaaab7b7          	lui	a5,0xaaaab
    1d32:	aaa78593          	addi	a1,a5,-1366 # aaaaaaaa <_DATA_LMA_START+0x8aaa5622>
    1d36:	86a2                	c.mv	a3,s0
    1d38:	c422                	c.swsp	s0,8(sp)
    1d3a:	c62e                	c.swsp	a1,12(sp)
    1d3c:	4280                	c.lw	s0,0(a3)
    1d3e:	00241913          	slli	s2,s0,0x2
    1d42:	854a                	c.mv	a0,s2
    1d44:	7a4020ef          	jal	ra,44e8 <malloc>
    1d48:	8baa                	c.mv	s7,a0
    1d4a:	854a                	c.mv	a0,s2
    1d4c:	79c020ef          	jal	ra,44e8 <malloc>
    1d50:	8caa                	c.mv	s9,a0
    1d52:	854a                	c.mv	a0,s2
    1d54:	794020ef          	jal	ra,44e8 <malloc>
    1d58:	00141693          	slli	a3,s0,0x1
    1d5c:	8daa                	c.mv	s11,a0
    1d5e:	8536                	c.mv	a0,a3
    1d60:	8d36                	c.mv	s10,a3
    1d62:	d436                	c.swsp	a3,40(sp)
    1d64:	784020ef          	jal	ra,44e8 <malloc>
    1d68:	8b2a                	c.mv	s6,a0
    1d6a:	856a                	c.mv	a0,s10
    1d6c:	77c020ef          	jal	ra,44e8 <malloc>
    1d70:	8c2a                	c.mv	s8,a0
    1d72:	856a                	c.mv	a0,s10
    1d74:	774020ef          	jal	ra,44e8 <malloc>
    1d78:	8d2a                	c.mv	s10,a0
    1d7a:	2c0b8f63          	beqz	s7,2058 <main+0xa94>
    1d7e:	2c0c8d63          	beqz	s9,2058 <main+0xa94>
    1d82:	2c0d8b63          	beqz	s11,2058 <main+0xa94>
    1d86:	2c0b0963          	beqz	s6,2058 <main+0xa94>
    1d8a:	2c0c0763          	beqz	s8,2058 <main+0xa94>
    1d8e:	2c050563          	beqz	a0,2058 <main+0xa94>
    1d92:	08805563          	blez	s0,1e1c <main+0x858>
    1d96:	8522                	c.mv	a0,s0
    1d98:	2c4020ef          	jal	ra,405c <__floatsidf>
    1d9c:	000807b7          	lui	a5,0x80
    1da0:	02878793          	addi	a5,a5,40 # 80028 <cst_libm_sincosf+0x28>
    1da4:	4390                	c.lw	a2,0(a5)
    1da6:	43d4                	c.lw	a3,4(a5)
    1da8:	885e                	c.mv	a6,s7
    1daa:	8766                	c.mv	a4,s9
    1dac:	8ada                	c.mv	s5,s6
    1dae:	8a62                	c.mv	s4,s8
    1db0:	4981                	c.li	s3,0
    1db2:	c82a                	c.swsp	a0,16(sp)
    1db4:	ca2e                	c.swsp	a1,20(sp)
    1db6:	cc32                	c.swsp	a2,24(sp)
    1db8:	00d12e23          	sw	a3,28(sp)
    1dbc:	854e                	c.mv	a0,s3
    1dbe:	d642                	c.swsp	a6,44(sp)
    1dc0:	02e12023          	sw	a4,32(sp)
    1dc4:	298020ef          	jal	ra,405c <__floatsidf>
    1dc8:	4662                	c.lwsp	a2,24(sp)
    1dca:	46f2                	c.lwsp	a3,28(sp)
    1dcc:	002a8a93          	addi	s5,s5,2
    1dd0:	2e1010ef          	jal	ra,38b0 <__muldf3>
    1dd4:	46d2                	c.lwsp	a3,20(sp)
    1dd6:	4642                	c.lwsp	a2,16(sp)
    1dd8:	002a0a13          	addi	s4,s4,2
    1ddc:	2e8010ef          	jal	ra,30c4 <__divdf3>
    1de0:	408020ef          	jal	ra,41e8 <__truncdfsf2>
    1de4:	182c                	c.addi4spn	a1,sp,56
    1de6:	1868                	c.addi4spn	a0,sp,60
    1de8:	7a9000ef          	jal	ra,2d90 <sincosf>
    1dec:	7762                	c.flwsp	fa4,56(sp)
    1dee:	77f2                	c.flwsp	fa5,60(sp)
    1df0:	5832                	c.lwsp	a6,44(sp)
    1df2:	112776d3          	fmul.s	fa3,fa4,fs2
    1df6:	00f82027          	fsw	fa5,0(a6)
    1dfa:	1127f7d3          	fmul.s	fa5,fa5,fs2
    1dfe:	5702                	c.lwsp	a4,32(sp)
    1e00:	0985                	c.addi	s3,1
    1e02:	c00696d3          	fcvt.w.s	a3,fa3,rtz
    1e06:	e318                	c.fsw	fa4,0(a4)
    1e08:	0811                	c.addi	a6,4
    1e0a:	c00797d3          	fcvt.w.s	a5,fa5,rtz
    1e0e:	0711                	c.addi	a4,4
    1e10:	feda1f23          	sh	a3,-2(s4)
    1e14:	fefa9f23          	sh	a5,-2(s5)
    1e18:	fb3412e3          	bne	s0,s3,1dbc <main+0x7f8>
    1e1c:	878a                	c.mv	a5,sp
    1e1e:	0009f737          	lui	a4,0x9f
    1e22:	00f77f63          	bgeu	a4,a5,1e40 <main+0x87c>
    1e26:	fff61637          	lui	a2,0xfff61
    1e2a:	167d                	c.addi	a2,-1
    1e2c:	97b2                	c.add	a5,a2
    1e2e:	ffc7f613          	andi	a2,a5,-4
    1e32:	0611                	c.addi	a2,4
    1e34:	0aa00593          	li	a1,170
    1e38:	0009f537          	lui	a0,0x9f
    1e3c:	6bc020ef          	jal	ra,44f8 <memset>
    1e40:	b0005073          	csrwi	mcycle,0
    1e44:	b0205073          	csrwi	minstret,0
    1e48:	b0002773          	csrr	a4,mcycle
    1e4c:	b02027f3          	csrr	a5,minstret
    1e50:	02805863          	blez	s0,1e80 <main+0x8bc>
    1e54:	89de                	c.mv	s3,s7
    1e56:	8ae6                	c.mv	s5,s9
    1e58:	8a6e                	c.mv	s4,s11
    1e5a:	995e                	c.add	s2,s7
    1e5c:	000aa587          	flw	fa1,0(s5)
    1e60:	0009a507          	flw	fa0,0(s3)
    1e64:	cc3e                	c.swsp	a5,24(sp)
    1e66:	c83a                	c.swsp	a4,16(sp)
    1e68:	00498993          	addi	s3,s3,4
    1e6c:	105000ef          	jal	ra,2770 <riscv_dsp_atan2_f32>
    1e70:	00aa2027          	fsw	fa0,0(s4)
    1e74:	0a91                	c.addi	s5,4
    1e76:	0a11                	c.addi	s4,4
    1e78:	4742                	c.lwsp	a4,16(sp)
    1e7a:	47e2                	c.lwsp	a5,24(sp)
    1e7c:	ff2990e3          	bne	s3,s2,1e5c <main+0x898>
    1e80:	b0002673          	csrr	a2,mcycle
    1e84:	b02026f3          	csrr	a3,minstret
    1e88:	40e60733          	sub	a4,a2,a4
    1e8c:	8e9d                	c.sub	a3,a5
    1e8e:	880a                	c.mv	a6,sp
    1e90:	0009f7b7          	lui	a5,0x9f
    1e94:	7507f863          	bgeu	a5,a6,25e4 <main+0x1020>
    1e98:	439c                	c.lw	a5,0(a5)
    1e9a:	45b2                	c.lwsp	a1,12(sp)
    1e9c:	74b79463          	bne	a5,a1,25e4 <main+0x1020>
    1ea0:	0009f7b7          	lui	a5,0x9f
    1ea4:	0791                	c.addi	a5,4
    1ea6:	0107f763          	bgeu	a5,a6,1eb4 <main+0x8f0>
    1eaa:	4390                	c.lw	a2,0(a5)
    1eac:	00c12583          	lw	a1,12(sp)
    1eb0:	feb60ae3          	beq	a2,a1,1ea4 <main+0x8e0>
    1eb4:	4090                	c.lw	a2,0(s1)
    1eb6:	d0177453          	fcvt.s.wu	fs0,a4
    1eba:	00080537          	lui	a0,0x80
    1ebe:	85a2                	c.mv	a1,s0
    1ec0:	d01677d3          	fcvt.s.wu	fa5,a2
    1ec4:	2c450513          	addi	a0,a0,708 # 802c4 <FIR_SIZES+0x258>
    1ec8:	d63e                	c.swsp	a5,44(sp)
    1eca:	d042                	c.swsp	a6,32(sp)
    1ecc:	cc36                	c.swsp	a3,24(sp)
    1ece:	c83a                	c.swsp	a4,16(sp)
    1ed0:	18f47453          	fdiv.s	fs0,fs0,fa5
    1ed4:	7e4020ef          	jal	ra,46b8 <iprintf>
    1ed8:	4742                	c.lwsp	a4,16(sp)
    1eda:	00080ab7          	lui	s5,0x80
    1ede:	85ba                	c.mv	a1,a4
    1ee0:	1b4a8513          	addi	a0,s5,436 # 801b4 <FIR_SIZES+0x148>
    1ee4:	7d4020ef          	jal	ra,46b8 <iprintf>
    1ee8:	46e2                	c.lwsp	a3,24(sp)
    1eea:	00080a37          	lui	s4,0x80
    1eee:	85b6                	c.mv	a1,a3
    1ef0:	1c8a0513          	addi	a0,s4,456 # 801c8 <FIR_SIZES+0x15c>
    1ef4:	7c4020ef          	jal	ra,46b8 <iprintf>
    1ef8:	000809b7          	lui	s3,0x80
    1efc:	00080937          	lui	s2,0x80
    1f00:	10947453          	fmul.s	fs0,fs0,fs1
    1f04:	20840553          	fmv.s	fa0,fs0
    1f08:	1d0020ef          	jal	ra,40d8 <__extendsfdf2>
    1f0c:	862a                	c.mv	a2,a0
    1f0e:	86ae                	c.mv	a3,a1
    1f10:	1ec98513          	addi	a0,s3,492 # 801ec <FIR_SIZES+0x180>
    1f14:	7a4020ef          	jal	ra,46b8 <iprintf>
    1f18:	5802                	c.lwsp	a6,32(sp)
    1f1a:	57b2                	c.lwsp	a5,44(sp)
    1f1c:	21090513          	addi	a0,s2,528 # 80210 <FIR_SIZES+0x1a4>
    1f20:	40f805b3          	sub	a1,a6,a5
    1f24:	794020ef          	jal	ra,46b8 <iprintf>
    1f28:	878a                	c.mv	a5,sp
    1f2a:	0009f737          	lui	a4,0x9f
    1f2e:	00f77f63          	bgeu	a4,a5,1f4c <main+0x988>
    1f32:	fff61637          	lui	a2,0xfff61
    1f36:	167d                	c.addi	a2,-1
    1f38:	97b2                	c.add	a5,a2
    1f3a:	ffc7f613          	andi	a2,a5,-4
    1f3e:	0611                	c.addi	a2,4
    1f40:	0aa00593          	li	a1,170
    1f44:	0009f537          	lui	a0,0x9f
    1f48:	5b0020ef          	jal	ra,44f8 <memset>
    1f4c:	b0005073          	csrwi	mcycle,0
    1f50:	b0205073          	csrwi	minstret,0
    1f54:	b00028f3          	csrr	a7,mcycle
    1f58:	b0202873          	csrr	a6,minstret
    1f5c:	04805263          	blez	s0,1fa0 <main+0x9dc>
    1f60:	55a2                	c.lwsp	a1,40(sp)
    1f62:	875a                	c.mv	a4,s6
    1f64:	8662                	c.mv	a2,s8
    1f66:	86ea                	c.mv	a3,s10
    1f68:	00bb07b3          	add	a5,s6,a1
    1f6c:	00071503          	lh	a0,0(a4) # 9f000 <_end+0x1e610>
    1f70:	00061583          	lh	a1,0(a2) # fff61000 <_DATA_LMA_START+0xdff5bb78>
    1f74:	0709                	c.addi	a4,2
    1f76:	d842                	c.swsp	a6,48(sp)
    1f78:	d646                	c.swsp	a7,44(sp)
    1f7a:	d036                	c.swsp	a3,32(sp)
    1f7c:	cc3e                	c.swsp	a5,24(sp)
    1f7e:	c832                	c.swsp	a2,16(sp)
    1f80:	d43a                	c.swsp	a4,40(sp)
    1f82:	da3a                	c.swsp	a4,52(sp)
    1f84:	0d1000ef          	jal	ra,2854 <riscv_dsp_atan2_q15>
    1f88:	5682                	c.lwsp	a3,32(sp)
    1f8a:	4642                	c.lwsp	a2,16(sp)
    1f8c:	5722                	c.lwsp	a4,40(sp)
    1f8e:	47e2                	c.lwsp	a5,24(sp)
    1f90:	00a69023          	sh	a0,0(a3)
    1f94:	0609                	c.addi	a2,2
    1f96:	0689                	c.addi	a3,2
    1f98:	58b2                	c.lwsp	a7,44(sp)
    1f9a:	5842                	c.lwsp	a6,48(sp)
    1f9c:	fce798e3          	bne	a5,a4,1f6c <main+0x9a8>
    1fa0:	b0002773          	csrr	a4,mcycle
    1fa4:	b02026f3          	csrr	a3,minstret
    1fa8:	41170733          	sub	a4,a4,a7
    1fac:	410686b3          	sub	a3,a3,a6
    1fb0:	880a                	c.mv	a6,sp
    1fb2:	0009f7b7          	lui	a5,0x9f
    1fb6:	6307f363          	bgeu	a5,a6,25dc <main+0x1018>
    1fba:	439c                	c.lw	a5,0(a5)
    1fbc:	00c12583          	lw	a1,12(sp)
    1fc0:	60b79e63          	bne	a5,a1,25dc <main+0x1018>
    1fc4:	0009f7b7          	lui	a5,0x9f
    1fc8:	0791                	c.addi	a5,4
    1fca:	0107f763          	bgeu	a5,a6,1fd8 <main+0xa14>
    1fce:	4390                	c.lw	a2,0(a5)
    1fd0:	00c12583          	lw	a1,12(sp)
    1fd4:	feb60ae3          	beq	a2,a1,1fc8 <main+0xa04>
    1fd8:	4090                	c.lw	a2,0(s1)
    1fda:	d0177453          	fcvt.s.wu	fs0,a4
    1fde:	00080537          	lui	a0,0x80
    1fe2:	85a2                	c.mv	a1,s0
    1fe4:	d01677d3          	fcvt.s.wu	fa5,a2
    1fe8:	2d850513          	addi	a0,a0,728 # 802d8 <FIR_SIZES+0x26c>
    1fec:	d042                	c.swsp	a6,32(sp)
    1fee:	c83e                	c.swsp	a5,16(sp)
    1ff0:	cc36                	c.swsp	a3,24(sp)
    1ff2:	d43a                	c.swsp	a4,40(sp)
    1ff4:	18f47453          	fdiv.s	fs0,fs0,fa5
    1ff8:	6c0020ef          	jal	ra,46b8 <iprintf>
    1ffc:	5722                	c.lwsp	a4,40(sp)
    1ffe:	1b4a8513          	addi	a0,s5,436
    2002:	85ba                	c.mv	a1,a4
    2004:	6b4020ef          	jal	ra,46b8 <iprintf>
    2008:	46e2                	c.lwsp	a3,24(sp)
    200a:	1c8a0513          	addi	a0,s4,456
    200e:	85b6                	c.mv	a1,a3
    2010:	6a8020ef          	jal	ra,46b8 <iprintf>
    2014:	11347453          	fmul.s	fs0,fs0,fs3
    2018:	20840553          	fmv.s	fa0,fs0
    201c:	0bc020ef          	jal	ra,40d8 <__extendsfdf2>
    2020:	862a                	c.mv	a2,a0
    2022:	86ae                	c.mv	a3,a1
    2024:	1ec98513          	addi	a0,s3,492
    2028:	690020ef          	jal	ra,46b8 <iprintf>
    202c:	47c2                	c.lwsp	a5,16(sp)
    202e:	5802                	c.lwsp	a6,32(sp)
    2030:	21090513          	addi	a0,s2,528
    2034:	40f805b3          	sub	a1,a6,a5
    2038:	02c0006f          	j	2064 <main+0xaa0>
    203c:	00080537          	lui	a0,0x80
    2040:	85a2                	c.mv	a1,s0
    2042:	17c50513          	addi	a0,a0,380 # 8017c <FIR_SIZES+0x110>
    2046:	b1bd                	c.j	1cb4 <main+0x6f0>
    2048:	0009fdb7          	lui	s11,0x9f
    204c:	c09ff06f          	j	1c54 <main+0x690>
    2050:	0009f7b7          	lui	a5,0x9f
    2054:	af1ff06f          	j	1b44 <main+0x580>
    2058:	00080537          	lui	a0,0x80
    205c:	008005b3          	add	a1,zero,s0
    2060:	2a050513          	addi	a0,a0,672 # 802a0 <FIR_SIZES+0x234>
    2064:	654020ef          	jal	ra,46b8 <iprintf>
    2068:	01700533          	add	a0,zero,s7
    206c:	484020ef          	jal	ra,44f0 <free>
    2070:	01900533          	add	a0,zero,s9
    2074:	47c020ef          	jal	ra,44f0 <free>
    2078:	01b00533          	add	a0,zero,s11
    207c:	474020ef          	jal	ra,44f0 <free>
    2080:	01600533          	add	a0,zero,s6
    2084:	46c020ef          	jal	ra,44f0 <free>
    2088:	01800533          	add	a0,zero,s8
    208c:	464020ef          	jal	ra,44f0 <free>
    2090:	01a00533          	add	a0,zero,s10
    2094:	45c020ef          	jal	ra,44f0 <free>
    2098:	4422                	c.lwsp	s0,8(sp)
    209a:	00440693          	addi	a3,s0,4
    209e:	4412                	c.lwsp	s0,4(sp)
    20a0:	00d12423          	sw	a3,8(sp)
    20a4:	c8d41ce3          	bne	s0,a3,1d3c <main+0x778>
    20a8:	00080537          	lui	a0,0x80
    20ac:	2ec50513          	addi	a0,a0,748 # 802ec <FIR_SIZES+0x280>
    20b0:	608020ef          	jal	ra,46b8 <iprintf>
    20b4:	000806b7          	lui	a3,0x80
    20b8:	40068513          	addi	a0,a3,1024 # 80400 <FIR_SIZES+0x394>
    20bc:	5fc020ef          	jal	ra,46b8 <iprintf>
    20c0:	00080537          	lui	a0,0x80
    20c4:	30c50513          	addi	a0,a0,780 # 8030c <FIR_SIZES+0x2a0>
    20c8:	5f0020ef          	jal	ra,46b8 <iprintf>
    20cc:	00080537          	lui	a0,0x80
    20d0:	33450513          	addi	a0,a0,820 # 80334 <FIR_SIZES+0x2c8>
    20d4:	5e4020ef          	jal	ra,46b8 <iprintf>
    20d8:	000807b7          	lui	a5,0x80
    20dc:	03c7a407          	flw	fs0,60(a5) # 8003c <cst_libm_sincosf+0x3c>
    20e0:	aaaab7b7          	lui	a5,0xaaaab
    20e4:	aaa78c13          	addi	s8,a5,-1366 # aaaaaaaa <_DATA_LMA_START+0x8aaa5622>
    20e8:	208409d3          	fmv.s	fs3,fs0
    20ec:	20840953          	fmv.s	fs2,fs0
    20f0:	208404d3          	fmv.s	fs1,fs0
    20f4:	4682                	c.lwsp	a3,0(sp)
    20f6:	4280                	c.lw	s0,0(a3)
    20f8:	00241d13          	slli	s10,s0,0x2
    20fc:	01a00533          	add	a0,zero,s10
    2100:	3e8020ef          	jal	ra,44e8 <malloc>
    2104:	8baa                	c.mv	s7,a0
    2106:	856a                	c.mv	a0,s10
    2108:	3e0020ef          	jal	ra,44e8 <malloc>
    210c:	8daa                	c.mv	s11,a0
    210e:	856a                	c.mv	a0,s10
    2110:	3d8020ef          	jal	ra,44e8 <malloc>
    2114:	00141c93          	slli	s9,s0,0x1
    2118:	c22a                	c.swsp	a0,4(sp)
    211a:	8aaa                	c.mv	s5,a0
    211c:	01900533          	add	a0,zero,s9
    2120:	3c8020ef          	jal	ra,44e8 <malloc>
    2124:	8b2a                	c.mv	s6,a0
    2126:	8566                	c.mv	a0,s9
    2128:	3c0020ef          	jal	ra,44e8 <malloc>
    212c:	c62a                	c.swsp	a0,12(sp)
    212e:	8a2a                	c.mv	s4,a0
    2130:	01900533          	add	a0,zero,s9
    2134:	3b4020ef          	jal	ra,44e8 <malloc>
    2138:	d42a                	c.swsp	a0,40(sp)
    213a:	4a0b8963          	beqz	s7,25ec <main+0x1028>
    213e:	4a0d8763          	beqz	s11,25ec <main+0x1028>
    2142:	4a0a8563          	beqz	s5,25ec <main+0x1028>
    2146:	4a0b0363          	beqz	s6,25ec <main+0x1028>
    214a:	4a0a0163          	beqz	s4,25ec <main+0x1028>
    214e:	48050f63          	beqz	a0,25ec <main+0x1028>
    2152:	08805563          	blez	s0,21dc <main+0xc18>
    2156:	8522                	c.mv	a0,s0
    2158:	705010ef          	jal	ra,405c <__floatsidf>
    215c:	000807b7          	lui	a5,0x80
    2160:	02878793          	addi	a5,a5,40 # 80028 <cst_libm_sincosf+0x28>
    2164:	4390                	c.lw	a2,0(a5)
    2166:	43d4                	c.lw	a3,4(a5)
    2168:	000807b7          	lui	a5,0x80
    216c:	03078793          	addi	a5,a5,48 # 80030 <cst_libm_sincosf+0x30>
    2170:	cc32                	c.swsp	a2,24(sp)
    2172:	ce36                	c.swsp	a3,28(sp)
    2174:	4390                	c.lw	a2,0(a5)
    2176:	43d4                	c.lw	a3,4(a5)
    2178:	8a5e                	c.mv	s4,s7
    217a:	89da                	c.mv	s3,s6
    217c:	4901                	c.li	s2,0
    217e:	c82a                	c.swsp	a0,16(sp)
    2180:	ca2e                	c.swsp	a1,20(sp)
    2182:	d032                	c.swsp	a2,32(sp)
    2184:	02d12223          	sw	a3,36(sp)
    2188:	01200533          	add	a0,zero,s2
    218c:	6d1010ef          	jal	ra,405c <__floatsidf>
    2190:	4662                	c.lwsp	a2,24(sp)
    2192:	46f2                	c.lwsp	a3,28(sp)
    2194:	00190913          	addi	s2,s2,1
    2198:	718010ef          	jal	ra,38b0 <__muldf3>
    219c:	4642                	c.lwsp	a2,16(sp)
    219e:	46d2                	c.lwsp	a3,20(sp)
    21a0:	004a0a13          	addi	s4,s4,4
    21a4:	721000ef          	jal	ra,30c4 <__divdf3>
    21a8:	040020ef          	jal	ra,41e8 <__truncdfsf2>
    21ac:	feaa2e27          	fsw	fa0,-4(s4)
    21b0:	729010ef          	jal	ra,40d8 <__extendsfdf2>
    21b4:	000806b7          	lui	a3,0x80
    21b8:	02868693          	addi	a3,a3,40 # 80028 <cst_libm_sincosf+0x28>
    21bc:	4290                	c.lw	a2,0(a3)
    21be:	42d4                	c.lw	a3,4(a3)
    21c0:	00298993          	addi	s3,s3,2
    21c4:	701000ef          	jal	ra,30c4 <__divdf3>
    21c8:	5602                	c.lwsp	a2,32(sp)
    21ca:	5692                	c.lwsp	a3,36(sp)
    21cc:	6e4010ef          	jal	ra,38b0 <__muldf3>
    21d0:	52d010ef          	jal	ra,3efc <__fixdfsi>
    21d4:	fea99f23          	sh	a0,-2(s3)
    21d8:	fb2418e3          	bne	s0,s2,2188 <main+0xbc4>
    21dc:	878a                	c.mv	a5,sp
    21de:	0009f737          	lui	a4,0x9f
    21e2:	00f77f63          	bgeu	a4,a5,2200 <main+0xc3c>
    21e6:	fff61637          	lui	a2,0xfff61
    21ea:	167d                	c.addi	a2,-1
    21ec:	97b2                	c.add	a5,a2
    21ee:	ffc7f613          	andi	a2,a5,-4
    21f2:	0611                	c.addi	a2,4
    21f4:	0aa00593          	li	a1,170
    21f8:	0009f537          	lui	a0,0x9f
    21fc:	2fc020ef          	jal	ra,44f8 <memset>
    2200:	b0005073          	csrwi	mcycle,0
    2204:	b0205073          	csrwi	minstret,0
    2208:	b0002af3          	csrr	s5,mcycle
    220c:	b0202a73          	csrr	s4,minstret
    2210:	02805263          	blez	s0,2234 <main+0xc70>
    2214:	895e                	c.mv	s2,s7
    2216:	89ee                	c.mv	s3,s11
    2218:	017d07b3          	add	a5,s10,s7
    221c:	00092507          	flw	fa0,0(s2)
    2220:	c83e                	c.swsp	a5,16(sp)
    2222:	0991                	c.addi	s3,4
    2224:	73c000ef          	jal	ra,2960 <riscv_dsp_sin_f32>
    2228:	47c2                	c.lwsp	a5,16(sp)
    222a:	0911                	c.addi	s2,4
    222c:	fea9ae27          	fsw	fa0,-4(s3)
    2230:	ff2796e3          	bne	a5,s2,221c <main+0xc58>
    2234:	b0002773          	csrr	a4,mcycle
    2238:	b02026f3          	csrr	a3,minstret
    223c:	41570733          	sub	a4,a4,s5
    2240:	414686b3          	sub	a3,a3,s4
    2244:	880a                	c.mv	a6,sp
    2246:	0009f7b7          	lui	a5,0x9f
    224a:	4707f163          	bgeu	a5,a6,26ac <main+0x10e8>
    224e:	439c                	c.lw	a5,0(a5)
    2250:	45879e63          	bne	a5,s8,26ac <main+0x10e8>
    2254:	0009f7b7          	lui	a5,0x9f
    2258:	0791                	c.addi	a5,4
    225a:	0107f563          	bgeu	a5,a6,2264 <main+0xca0>
    225e:	4390                	c.lw	a2,0(a5)
    2260:	ff860ce3          	beq	a2,s8,2258 <main+0xc94>
    2264:	4090                	c.lw	a2,0(s1)
    2266:	d0177553          	fcvt.s.wu	fa0,a4
    226a:	00080537          	lui	a0,0x80
    226e:	85a2                	c.mv	a1,s0
    2270:	d01677d3          	fcvt.s.wu	fa5,a2
    2274:	37450513          	addi	a0,a0,884 # 80374 <FIR_SIZES+0x308>
    2278:	d842                	c.swsp	a6,48(sp)
    227a:	d03e                	c.swsp	a5,32(sp)
    227c:	d636                	c.swsp	a3,44(sp)
    227e:	00e12c23          	sw	a4,24(sp)
    2282:	18f57553          	fdiv.s	fa0,fa0,fa5
    2286:	00080ab7          	lui	s5,0x80
    228a:	00080a37          	lui	s4,0x80
    228e:	000809b7          	lui	s3,0x80
    2292:	00080937          	lui	s2,0x80
    2296:	10857553          	fmul.s	fa0,fa0,fs0
    229a:	e82a                	c.fswsp	fa0,16(sp)
    229c:	41c020ef          	jal	ra,46b8 <iprintf>
    22a0:	4762                	c.lwsp	a4,24(sp)
    22a2:	1b4a8513          	addi	a0,s5,436 # 801b4 <FIR_SIZES+0x148>
    22a6:	85ba                	c.mv	a1,a4
    22a8:	410020ef          	jal	ra,46b8 <iprintf>
    22ac:	56b2                	c.lwsp	a3,44(sp)
    22ae:	1c8a0513          	addi	a0,s4,456 # 801c8 <FIR_SIZES+0x15c>
    22b2:	85b6                	c.mv	a1,a3
    22b4:	404020ef          	jal	ra,46b8 <iprintf>
    22b8:	6542                	c.flwsp	fa0,16(sp)
    22ba:	61f010ef          	jal	ra,40d8 <__extendsfdf2>
    22be:	0001                	c.nop
    22c0:	862a                	c.mv	a2,a0
    22c2:	86ae                	c.mv	a3,a1
    22c4:	1ec98513          	addi	a0,s3,492 # 801ec <FIR_SIZES+0x180>
    22c8:	3f0020ef          	jal	ra,46b8 <iprintf>
    22cc:	5782                	c.lwsp	a5,32(sp)
    22ce:	5842                	c.lwsp	a6,48(sp)
    22d0:	21090513          	addi	a0,s2,528 # 80210 <FIR_SIZES+0x1a4>
    22d4:	40f805b3          	sub	a1,a6,a5
    22d8:	3e0020ef          	jal	ra,46b8 <iprintf>
    22dc:	878a                	c.mv	a5,sp
    22de:	0009f737          	lui	a4,0x9f
    22e2:	00f77f63          	bgeu	a4,a5,2300 <main+0xd3c>
    22e6:	fff61637          	lui	a2,0xfff61
    22ea:	167d                	c.addi	a2,-1
    22ec:	97b2                	c.add	a5,a2
    22ee:	ffc7f613          	andi	a2,a5,-4
    22f2:	0611                	c.addi	a2,4
    22f4:	0aa00593          	li	a1,170
    22f8:	0009f537          	lui	a0,0x9f
    22fc:	1fc020ef          	jal	ra,44f8 <memset>
    2300:	b0005073          	csrwi	mcycle,0
    2304:	b0205073          	csrwi	minstret,0
    2308:	b00025f3          	csrr	a1,mcycle
    230c:	b0202673          	csrr	a2,minstret
    2310:	02805c63          	blez	s0,2348 <main+0xd84>
    2314:	4692                	c.lwsp	a3,4(sp)
    2316:	875e                	c.mv	a4,s7
    2318:	017d07b3          	add	a5,s10,s7
    231c:	6308                	c.flw	fa0,0(a4)
    231e:	0691                	c.addi	a3,4
    2320:	0711                	c.addi	a4,4
    2322:	d83e                	c.swsp	a5,48(sp)
    2324:	d632                	c.swsp	a2,44(sp)
    2326:	d02e                	c.swsp	a1,32(sp)
    2328:	cc3a                	c.swsp	a4,24(sp)
    232a:	c836                	c.swsp	a3,16(sp)
    232c:	02d12a23          	sw	a3,52(sp)
    2330:	5b8000ef          	jal	ra,28e8 <riscv_dsp_cos_f32>
    2334:	46c2                	c.lwsp	a3,16(sp)
    2336:	4762                	c.lwsp	a4,24(sp)
    2338:	57c2                	c.lwsp	a5,48(sp)
    233a:	fea6ae27          	fsw	fa0,-4(a3)
    233e:	5582                	c.lwsp	a1,32(sp)
    2340:	02c12603          	lw	a2,44(sp)
    2344:	fce79ce3          	bne	a5,a4,231c <main+0xd58>
    2348:	b0002773          	csrr	a4,mcycle
    234c:	b02026f3          	csrr	a3,minstret
    2350:	8f0d                	c.sub	a4,a1
    2352:	8e91                	c.sub	a3,a2
    2354:	880a                	c.mv	a6,sp
    2356:	0009f7b7          	lui	a5,0x9f
    235a:	3507f563          	bgeu	a5,a6,26a4 <main+0x10e0>
    235e:	439c                	c.lw	a5,0(a5)
    2360:	35879263          	bne	a5,s8,26a4 <main+0x10e0>
    2364:	0009f7b7          	lui	a5,0x9f
    2368:	0791                	c.addi	a5,4
    236a:	0107f563          	bgeu	a5,a6,2374 <main+0xdb0>
    236e:	4390                	c.lw	a2,0(a5)
    2370:	ff860ce3          	beq	a2,s8,2368 <main+0xda4>
    2374:	4090                	c.lw	a2,0(s1)
    2376:	d0177553          	fcvt.s.wu	fa0,a4
    237a:	00080537          	lui	a0,0x80
    237e:	85a2                	c.mv	a1,s0
    2380:	d01677d3          	fcvt.s.wu	fa5,a2
    2384:	38850513          	addi	a0,a0,904 # 80388 <FIR_SIZES+0x31c>
    2388:	d842                	c.swsp	a6,48(sp)
    238a:	d03e                	c.swsp	a5,32(sp)
    238c:	d636                	c.swsp	a3,44(sp)
    238e:	00e12c23          	sw	a4,24(sp)
    2392:	18f57553          	fdiv.s	fa0,fa0,fa5
    2396:	11357553          	fmul.s	fa0,fa0,fs3
    239a:	e82a                	c.fswsp	fa0,16(sp)
    239c:	31c020ef          	jal	ra,46b8 <iprintf>
    23a0:	4762                	c.lwsp	a4,24(sp)
    23a2:	1b4a8513          	addi	a0,s5,436
    23a6:	85ba                	c.mv	a1,a4
    23a8:	310020ef          	jal	ra,46b8 <iprintf>
    23ac:	56b2                	c.lwsp	a3,44(sp)
    23ae:	1c8a0513          	addi	a0,s4,456
    23b2:	85b6                	c.mv	a1,a3
    23b4:	304020ef          	jal	ra,46b8 <iprintf>
    23b8:	6542                	c.flwsp	fa0,16(sp)
    23ba:	51f010ef          	jal	ra,40d8 <__extendsfdf2>
    23be:	0001                	c.nop
    23c0:	862a                	c.mv	a2,a0
    23c2:	86ae                	c.mv	a3,a1
    23c4:	1ec98513          	addi	a0,s3,492
    23c8:	2f0020ef          	jal	ra,46b8 <iprintf>
    23cc:	5782                	c.lwsp	a5,32(sp)
    23ce:	5842                	c.lwsp	a6,48(sp)
    23d0:	21090513          	addi	a0,s2,528
    23d4:	40f805b3          	sub	a1,a6,a5
    23d8:	2e0020ef          	jal	ra,46b8 <iprintf>
    23dc:	878a                	c.mv	a5,sp
    23de:	0009f737          	lui	a4,0x9f
    23e2:	00f77f63          	bgeu	a4,a5,2400 <main+0xe3c>
    23e6:	fff61637          	lui	a2,0xfff61
    23ea:	167d                	c.addi	a2,-1
    23ec:	97b2                	c.add	a5,a2
    23ee:	ffc7f613          	andi	a2,a5,-4
    23f2:	0611                	c.addi	a2,4
    23f4:	0aa00593          	li	a1,170
    23f8:	0009f537          	lui	a0,0x9f
    23fc:	0fc020ef          	jal	ra,44f8 <memset>
    2400:	b0005073          	csrwi	mcycle,0
    2404:	b0205073          	csrwi	minstret,0
    2408:	b0002673          	csrr	a2,mcycle
    240c:	b02026f3          	csrr	a3,minstret
    2410:	02805c63          	blez	s0,2448 <main+0xe84>
    2414:	4732                	c.lwsp	a4,12(sp)
    2416:	87da                	c.mv	a5,s6
    2418:	016c85b3          	add	a1,s9,s6
    241c:	00079503          	lh	a0,0(a5) # 9f000 <_end+0x1e610>
    2420:	0789                	c.addi	a5,2
    2422:	d83a                	c.swsp	a4,48(sp)
    2424:	d62e                	c.swsp	a1,44(sp)
    2426:	d036                	c.swsp	a3,32(sp)
    2428:	cc32                	c.swsp	a2,24(sp)
    242a:	c83e                	c.swsp	a5,16(sp)
    242c:	02f12a23          	sw	a5,52(sp)
    2430:	534000ef          	jal	ra,2964 <riscv_dsp_sin_q15>
    2434:	5742                	c.lwsp	a4,48(sp)
    2436:	47c2                	c.lwsp	a5,16(sp)
    2438:	55b2                	c.lwsp	a1,44(sp)
    243a:	00a71023          	sh	a0,0(a4) # 9f000 <_end+0x1e610>
    243e:	4662                	c.lwsp	a2,24(sp)
    2440:	0709                	c.addi	a4,2
    2442:	5682                	c.lwsp	a3,32(sp)
    2444:	fcb79ce3          	bne	a5,a1,241c <main+0xe58>
    2448:	b0002773          	csrr	a4,mcycle
    244c:	b02027f3          	csrr	a5,minstret
    2450:	8f11                	c.sub	a4,a2
    2452:	40d786b3          	sub	a3,a5,a3
    2456:	880a                	c.mv	a6,sp
    2458:	0009f7b7          	lui	a5,0x9f
    245c:	2507f063          	bgeu	a5,a6,269c <main+0x10d8>
    2460:	0007a783          	lw	a5,0(a5) # 9f000 <_end+0x1e610>
    2464:	23879c63          	bne	a5,s8,269c <main+0x10d8>
    2468:	0009f7b7          	lui	a5,0x9f
    246c:	0791                	c.addi	a5,4
    246e:	0107f563          	bgeu	a5,a6,2478 <main+0xeb4>
    2472:	4390                	c.lw	a2,0(a5)
    2474:	ff860ce3          	beq	a2,s8,246c <main+0xea8>
    2478:	4090                	c.lw	a2,0(s1)
    247a:	d0177553          	fcvt.s.wu	fa0,a4
    247e:	00080537          	lui	a0,0x80
    2482:	85a2                	c.mv	a1,s0
    2484:	d01677d3          	fcvt.s.wu	fa5,a2
    2488:	39c50513          	addi	a0,a0,924 # 8039c <FIR_SIZES+0x330>
    248c:	d83e                	c.swsp	a5,48(sp)
    248e:	d642                	c.swsp	a6,44(sp)
    2490:	d036                	c.swsp	a3,32(sp)
    2492:	00e12c23          	sw	a4,24(sp)
    2496:	18f57553          	fdiv.s	fa0,fa0,fa5
    249a:	11257553          	fmul.s	fa0,fa0,fs2
    249e:	e82a                	c.fswsp	fa0,16(sp)
    24a0:	218020ef          	jal	ra,46b8 <iprintf>
    24a4:	4762                	c.lwsp	a4,24(sp)
    24a6:	1b4a8513          	addi	a0,s5,436
    24aa:	85ba                	c.mv	a1,a4
    24ac:	20c020ef          	jal	ra,46b8 <iprintf>
    24b0:	5682                	c.lwsp	a3,32(sp)
    24b2:	1c8a0513          	addi	a0,s4,456
    24b6:	85b6                	c.mv	a1,a3
    24b8:	200020ef          	jal	ra,46b8 <iprintf>
    24bc:	6542                	c.flwsp	fa0,16(sp)
    24be:	41b010ef          	jal	ra,40d8 <__extendsfdf2>
    24c2:	0001                	c.nop
    24c4:	862a                	c.mv	a2,a0
    24c6:	86ae                	c.mv	a3,a1
    24c8:	1ec98513          	addi	a0,s3,492
    24cc:	1ec020ef          	jal	ra,46b8 <iprintf>
    24d0:	5832                	c.lwsp	a6,44(sp)
    24d2:	57c2                	c.lwsp	a5,48(sp)
    24d4:	21090513          	addi	a0,s2,528
    24d8:	40f805b3          	sub	a1,a6,a5
    24dc:	1dc020ef          	jal	ra,46b8 <iprintf>
    24e0:	878a                	c.mv	a5,sp
    24e2:	0009f737          	lui	a4,0x9f
    24e6:	00f77f63          	bgeu	a4,a5,2504 <main+0xf40>
    24ea:	fff61637          	lui	a2,0xfff61
    24ee:	167d                	c.addi	a2,-1
    24f0:	97b2                	c.add	a5,a2
    24f2:	ffc7f613          	andi	a2,a5,-4
    24f6:	0611                	c.addi	a2,4
    24f8:	0aa00593          	li	a1,170
    24fc:	0009f537          	lui	a0,0x9f
    2500:	7f9010ef          	jal	ra,44f8 <memset>
    2504:	b0005073          	csrwi	mcycle,0
    2508:	b0205073          	csrwi	minstret,0
    250c:	b00025f3          	csrr	a1,mcycle
    2510:	b0202673          	csrr	a2,minstret
    2514:	02805a63          	blez	s0,2548 <main+0xf84>
    2518:	56a2                	c.lwsp	a3,40(sp)
    251a:	875a                	c.mv	a4,s6
    251c:	016c87b3          	add	a5,s9,s6
    2520:	00071503          	lh	a0,0(a4) # 9f000 <_end+0x1e610>
    2524:	0709                	c.addi	a4,2
    2526:	d83e                	c.swsp	a5,48(sp)
    2528:	d636                	c.swsp	a3,44(sp)
    252a:	d032                	c.swsp	a2,32(sp)
    252c:	cc2e                	c.swsp	a1,24(sp)
    252e:	c83a                	c.swsp	a4,16(sp)
    2530:	da3a                	c.swsp	a4,52(sp)
    2532:	2e6d                	c.jal	28ec <riscv_dsp_cos_q15>
    2534:	56b2                	c.lwsp	a3,44(sp)
    2536:	4742                	c.lwsp	a4,16(sp)
    2538:	57c2                	c.lwsp	a5,48(sp)
    253a:	00a69023          	sh	a0,0(a3)
    253e:	45e2                	c.lwsp	a1,24(sp)
    2540:	0689                	c.addi	a3,2
    2542:	5602                	c.lwsp	a2,32(sp)
    2544:	fcf71ee3          	bne	a4,a5,2520 <main+0xf5c>
    2548:	b0002773          	csrr	a4,mcycle
    254c:	b02026f3          	csrr	a3,minstret
    2550:	8f0d                	c.sub	a4,a1
    2552:	8e91                	c.sub	a3,a2
    2554:	880a                	c.mv	a6,sp
    2556:	0009f7b7          	lui	a5,0x9f
    255a:	1307fd63          	bgeu	a5,a6,2694 <main+0x10d0>
    255e:	439c                	c.lw	a5,0(a5)
    2560:	13879a63          	bne	a5,s8,2694 <main+0x10d0>
    2564:	0009f7b7          	lui	a5,0x9f
    2568:	0791                	c.addi	a5,4
    256a:	0107f563          	bgeu	a5,a6,2574 <main+0xfb0>
    256e:	4390                	c.lw	a2,0(a5)
    2570:	ff860ce3          	beq	a2,s8,2568 <main+0xfa4>
    2574:	4090                	c.lw	a2,0(s1)
    2576:	d0177553          	fcvt.s.wu	fa0,a4
    257a:	00080537          	lui	a0,0x80
    257e:	85a2                	c.mv	a1,s0
    2580:	d01677d3          	fcvt.s.wu	fa5,a2
    2584:	3b050513          	addi	a0,a0,944 # 803b0 <FIR_SIZES+0x344>
    2588:	d842                	c.swsp	a6,48(sp)
    258a:	d03e                	c.swsp	a5,32(sp)
    258c:	d636                	c.swsp	a3,44(sp)
    258e:	00e12c23          	sw	a4,24(sp)
    2592:	18f57553          	fdiv.s	fa0,fa0,fa5
    2596:	10957553          	fmul.s	fa0,fa0,fs1
    259a:	e82a                	c.fswsp	fa0,16(sp)
    259c:	11c020ef          	jal	ra,46b8 <iprintf>
    25a0:	4762                	c.lwsp	a4,24(sp)
    25a2:	1b4a8513          	addi	a0,s5,436
    25a6:	85ba                	c.mv	a1,a4
    25a8:	110020ef          	jal	ra,46b8 <iprintf>
    25ac:	56b2                	c.lwsp	a3,44(sp)
    25ae:	1c8a0513          	addi	a0,s4,456
    25b2:	85b6                	c.mv	a1,a3
    25b4:	104020ef          	jal	ra,46b8 <iprintf>
    25b8:	6542                	c.flwsp	fa0,16(sp)
    25ba:	31f010ef          	jal	ra,40d8 <__extendsfdf2>
    25be:	0001                	c.nop
    25c0:	862a                	c.mv	a2,a0
    25c2:	86ae                	c.mv	a3,a1
    25c4:	1ec98513          	addi	a0,s3,492
    25c8:	0f0020ef          	jal	ra,46b8 <iprintf>
    25cc:	5782                	c.lwsp	a5,32(sp)
    25ce:	5842                	c.lwsp	a6,48(sp)
    25d0:	21090513          	addi	a0,s2,528
    25d4:	40f805b3          	sub	a1,a6,a5
    25d8:	0200006f          	j	25f8 <main+0x1034>
    25dc:	0009f7b7          	lui	a5,0x9f
    25e0:	9f9ff06f          	j	1fd8 <main+0xa14>
    25e4:	0009f7b7          	lui	a5,0x9f
    25e8:	8cdff06f          	j	1eb4 <main+0x8f0>
    25ec:	00080537          	lui	a0,0x80
    25f0:	008005b3          	add	a1,zero,s0
    25f4:	35050513          	addi	a0,a0,848 # 80350 <FIR_SIZES+0x2e4>
    25f8:	0c0020ef          	jal	ra,46b8 <iprintf>
    25fc:	01700533          	add	a0,zero,s7
    2600:	6f1010ef          	jal	ra,44f0 <free>
    2604:	01b00533          	add	a0,zero,s11
    2608:	6e9010ef          	jal	ra,44f0 <free>
    260c:	00412503          	lw	a0,4(sp)
    2610:	6e1010ef          	jal	ra,44f0 <free>
    2614:	01600533          	add	a0,zero,s6
    2618:	6d9010ef          	jal	ra,44f0 <free>
    261c:	00c12503          	lw	a0,12(sp)
    2620:	6d1010ef          	jal	ra,44f0 <free>
    2624:	02812503          	lw	a0,40(sp)
    2628:	6c9010ef          	jal	ra,44f0 <free>
    262c:	4402                	c.lwsp	s0,0(sp)
    262e:	46a2                	c.lwsp	a3,8(sp)
    2630:	00440593          	addi	a1,s0,4
    2634:	00b12023          	sw	a1,0(sp)
    2638:	aad59ee3          	bne	a1,a3,20f4 <main+0xb30>
    263c:	00080537          	lui	a0,0x80
    2640:	3c450513          	addi	a0,a0,964 # 803c4 <FIR_SIZES+0x358>
    2644:	074020ef          	jal	ra,46b8 <iprintf>
    2648:	000804b7          	lui	s1,0x80
    264c:	40048513          	addi	a0,s1,1024 # 80400 <FIR_SIZES+0x394>
    2650:	068020ef          	jal	ra,46b8 <iprintf>
    2654:	00080537          	lui	a0,0x80
    2658:	3e850513          	addi	a0,a0,1000 # 803e8 <FIR_SIZES+0x37c>
    265c:	05c020ef          	jal	ra,46b8 <iprintf>
    2660:	00080537          	lui	a0,0x80
    2664:	40450513          	addi	a0,a0,1028 # 80404 <FIR_SIZES+0x398>
    2668:	050020ef          	jal	ra,46b8 <iprintf>
    266c:	50ba                	c.lwsp	ra,172(sp)
    266e:	542a                	c.lwsp	s0,168(sp)
    2670:	549a                	c.lwsp	s1,164(sp)
    2672:	590a                	c.lwsp	s2,160(sp)
    2674:	49fa                	c.lwsp	s3,156(sp)
    2676:	4a6a                	c.lwsp	s4,152(sp)
    2678:	4ada                	c.lwsp	s5,148(sp)
    267a:	4b4a                	c.lwsp	s6,144(sp)
    267c:	4bba                	c.lwsp	s7,140(sp)
    267e:	4c2a                	c.lwsp	s8,136(sp)
    2680:	4c9a                	c.lwsp	s9,132(sp)
    2682:	4d0a                	c.lwsp	s10,128(sp)
    2684:	5df6                	c.lwsp	s11,124(sp)
    2686:	7436                	c.flwsp	fs0,108(sp)
    2688:	74a6                	c.flwsp	fs1,104(sp)
    268a:	7916                	c.flwsp	fs2,100(sp)
    268c:	7986                	c.flwsp	fs3,96(sp)
    268e:	4501                	c.li	a0,0
    2690:	614d                	c.addi16sp	sp,176
    2692:	8082                	c.jr	ra
    2694:	0009f7b7          	lui	a5,0x9f
    2698:	eddff06f          	j	2574 <main+0xfb0>
    269c:	0009f7b7          	lui	a5,0x9f
    26a0:	dd9ff06f          	j	2478 <main+0xeb4>
    26a4:	0009f7b7          	lui	a5,0x9f
    26a8:	ccdff06f          	j	2374 <main+0xdb0>
    26ac:	0009f7b7          	lui	a5,0x9f
    26b0:	bb5ff06f          	j	2264 <main+0xca0>
    26b4:	1a40140b          	addigp	s0,420 # 809a4 <g_pm_status_info>
    26b8:	02000793          	li	a5,32
    26bc:	0fd4f593          	andi	a1,s1,253
    26c0:	03900513          	li	a0,57
    26c4:	00f40123          	sb	a5,2(s0)
    26c8:	8c8fe0ef          	jal	ra,790 <analog_write_reg8>
    26cc:	850ff06f          	j	171c <main+0x158>
    26d0:	1a40140b          	addigp	s0,420 # 809a4 <g_pm_status_info>
    26d4:	00800793          	li	a5,8
    26d8:	00f40123          	sb	a5,2(s0)
    26dc:	840ff06f          	j	171c <main+0x158>
    26e0:	001fe537          	lui	a0,0x1fe
    26e4:	0c050513          	addi	a0,a0,192 # 1fe0c0 <FLASH_SIZE+0xfe0c0>
    26e8:	d25fe0ef          	jal	ra,140c <user_calib_adc_vref.constprop.9>
    26ec:	001fe537          	lui	a0,0x1fe
    26f0:	e19fe0ef          	jal	ra,1508 <user_calib_freq_offset.constprop.8>
    26f4:	9c8ff06f          	j	18bc <main+0x2f8>
    26f8:	000fe537          	lui	a0,0xfe
    26fc:	0c050513          	addi	a0,a0,192 # fe0c0 <_STACK_TOP+0x5e0c0>
    2700:	d0dfe0ef          	jal	ra,140c <user_calib_adc_vref.constprop.9>
    2704:	000fe537          	lui	a0,0xfe
    2708:	e01fe0ef          	jal	ra,1508 <user_calib_freq_offset.constprop.8>
    270c:	9b0ff06f          	j	18bc <main+0x2f8>
    2710:	0007e537          	lui	a0,0x7e
    2714:	0c050513          	addi	a0,a0,192 # 7e0c0 <BIN_SIZE+0x78292>
    2718:	cf5fe0ef          	jal	ra,140c <user_calib_adc_vref.constprop.9>
    271c:	0007e537          	lui	a0,0x7e
    2720:	de9fe0ef          	jal	ra,1508 <user_calib_freq_offset.constprop.8>
    2724:	998ff06f          	j	18bc <main+0x2f8>
    2728:	0001e537          	lui	a0,0x1e
    272c:	0c050513          	addi	a0,a0,192 # 1e0c0 <BIN_SIZE+0x18292>
    2730:	cddfe0ef          	jal	ra,140c <user_calib_adc_vref.constprop.9>
    2734:	0001e537          	lui	a0,0x1e
    2738:	dd1fe0ef          	jal	ra,1508 <user_calib_freq_offset.constprop.8>
    273c:	980ff06f          	j	18bc <main+0x2f8>
    2740:	0000e537          	lui	a0,0xe
    2744:	0c050513          	addi	a0,a0,192 # e0c0 <BIN_SIZE+0x8292>
    2748:	cc5fe0ef          	jal	ra,140c <user_calib_adc_vref.constprop.9>
    274c:	0000e537          	lui	a0,0xe
    2750:	db9fe0ef          	jal	ra,1508 <user_calib_freq_offset.constprop.8>
    2754:	968ff06f          	j	18bc <main+0x2f8>
    2758:	00000513          	li	a0,0
    275c:	cb1fe0ef          	jal	ra,140c <user_calib_adc_vref.constprop.9>
    2760:	95cff06f          	j	18bc <main+0x2f8>
    2764:	0001                	c.nop
	...

00002768 <default_irq_entry>:
    2768:	a001                	c.j	2768 <default_irq_entry>

0000276a <trap_handler>:
    276a:	a001                	c.j	276a <trap_handler>
    276c:	0001                	c.nop
	...

00002770 <riscv_dsp_atan2_f32>:
    2770:	20a527d3          	fabs.s	fa5,fa0
    2774:	20b5a753          	fabs.s	fa4,fa1
    2778:	20a506d3          	fmv.s	fa3,fa0
    277c:	a0f717d3          	flt.s	a5,fa4,fa5
    2780:	04078e63          	beqz	a5,27dc <riscv_dsp_atan2_f32+0x6c>
    2784:	18f773d3          	fdiv.s	ft7,fa4,fa5
    2788:	000805b7          	lui	a1,0x80
    278c:	4245a807          	flw	fa6,1060(a1) # 80424 <FIR_SIZES+0x3b8>
    2790:	c31f980b          	addigp	a6,-976 # 80430 <aractanlut>
    2794:	000808b7          	lui	a7,0x80
    2798:	f0000153          	fmv.w.x	ft2,zero
    279c:	4288a887          	flw	fa7,1064(a7) # 80428 <FIR_SIZES+0x3bc>
    27a0:	a0269fd3          	flt.s	t6,fa3,ft2
    27a4:	1103fe53          	fmul.s	ft8,ft7,fa6
    27a8:	c01e1e53          	fcvt.wu.s	t3,ft8,rtz
    27ac:	d01e7ed3          	fcvt.s.wu	ft9,t3
    27b0:	0dc80edb          	lea.w	t4,a6,t3
    27b4:	000eaf07          	flw	ft10,0(t4)
    27b8:	004eaf87          	flw	ft11,4(t4)
    27bc:	09de77d3          	fsub.s	fa5,ft8,ft9
    27c0:	09eff753          	fsub.s	fa4,ft11,ft10
    27c4:	10f77053          	fmul.s	ft0,fa4,fa5
    27c8:	01e070d3          	fadd.s	ft1,ft0,ft10
    27cc:	0818f553          	fsub.s	fa0,fa7,ft1
    27d0:	040f9863          	bnez	t6,2820 <riscv_dsp_atan2_f32+0xb0>
    27d4:	a02597d3          	flt.s	a5,fa1,ft2
    27d8:	efb1                	c.bnez	a5,2834 <riscv_dsp_atan2_f32+0xc4>
    27da:	8082                	c.jr	ra
    27dc:	18e7f053          	fdiv.s	ft0,fa5,fa4
    27e0:	000802b7          	lui	t0,0x80
    27e4:	4242a087          	flw	ft1,1060(t0) # 80424 <FIR_SIZES+0x3b8>
    27e8:	c31f970b          	addigp	a4,-976 # 80430 <aractanlut>
    27ec:	10107153          	fmul.s	ft2,ft0,ft1
    27f0:	c01113d3          	fcvt.wu.s	t2,ft2,rtz
    27f4:	d013f653          	fcvt.s.wu	fa2,t2
    27f8:	0c7706db          	lea.w	a3,a4,t2
    27fc:	6288                	c.flw	fa0,0(a3)
    27fe:	0046a187          	flw	ft3,4(a3)
    2802:	08c17253          	fsub.s	ft4,ft2,fa2
    2806:	f0000153          	fmv.w.x	ft2,zero
    280a:	08a1f2d3          	fsub.s	ft5,ft3,fa0
    280e:	a0269fd3          	flt.s	t6,fa3,ft2
    2812:	1042f353          	fmul.s	ft6,ft5,ft4
    2816:	00a37553          	fadd.s	fa0,ft6,fa0
    281a:	fa0f8de3          	beqz	t6,27d4 <riscv_dsp_atan2_f32+0x64>
    281e:	0001                	c.nop
    2820:	a0259353          	flt.s	t1,fa1,ft2
    2824:	20a516d3          	fneg.s	fa3,fa0
    2828:	00031e63          	bnez	t1,2844 <riscv_dsp_atan2_f32+0xd4>
    282c:	20d68553          	fmv.s	fa0,fa3
    2830:	00008067          	ret
    2834:	000802b7          	lui	t0,0x80
    2838:	42c2a587          	flw	fa1,1068(t0) # 8042c <FIR_SIZES+0x3c0>
    283c:	08a5f553          	fsub.s	fa0,fa1,fa0
    2840:	00008067          	ret
    2844:	00080737          	lui	a4,0x80
    2848:	42c72607          	flw	fa2,1068(a4) # 8042c <FIR_SIZES+0x3c0>
    284c:	08c57553          	fsub.s	fa0,fa0,fa2
    2850:	8082                	c.jr	ra
    2852:	0001                	c.nop

00002854 <riscv_dsp_atan2_q15>:
    2854:	c125                	c.beqz	a0,28b4 <riscv_dsp_atan2_q15+0x60>
    2856:	4789                	c.li	a5,2
    2858:	00000713          	li	a4,0
    285c:	06054863          	bltz	a0,28cc <riscv_dsp_atan2_q15+0x78>
    2860:	04b05e63          	blez	a1,28bc <riscv_dsp_atan2_q15+0x68>
    2864:	00b54863          	blt	a0,a1,2874 <riscv_dsp_atan2_q15+0x20>
    2868:	40b502b3          	sub	t0,a0,a1
    286c:	0705                	c.addi	a4,1
    286e:	95aa                	c.add	a1,a0
    2870:	00500533          	add	a0,zero,t0
    2874:	00f51313          	slli	t1,a0,0xf
    2878:	02b353b3          	divu	t2,t1,a1
    287c:	dc5f980b          	addigp	a6,-572 # 805c4 <gb>
    2880:	dd5f988b          	addigp	a7,-556 # 805d4 <ga>
    2884:	00d71e13          	slli	t3,a4,0xd
    2888:	40c3de93          	srai	t4,t2,0xc
    288c:	0bd80f5b          	lea.h	t5,a6,t4
    2890:	000f1f83          	lh	t6,0(t5)
    2894:	0bd8855b          	lea.h	a0,a7,t4
    2898:	00051783          	lh	a5,0(a0) # e000 <BIN_SIZE+0x81d2>
    289c:	027f86b3          	mul	a3,t6,t2
    28a0:	4106d293          	srai	t0,a3,0x10
    28a4:	00f28733          	add	a4,t0,a5
    28a8:	01c70333          	add	t1,a4,t3
    28ac:	3c03355b          	bfos	a0,t1,15,0
    28b0:	00008067          	ret
    28b4:	4501                	c.li	a0,0
    28b6:	0205c563          	bltz	a1,28e0 <riscv_dsp_atan2_q15+0x8c>
    28ba:	8082                	c.jr	ra
    28bc:	40b006b3          	neg	a3,a1
    28c0:	85aa                	c.mv	a1,a0
    28c2:	8536                	c.mv	a0,a3
    28c4:	873e                	c.mv	a4,a5
    28c6:	fab547e3          	blt	a0,a1,2874 <riscv_dsp_atan2_q15+0x20>
    28ca:	bf79                	c.j	2868 <riscv_dsp_atan2_q15+0x14>
    28cc:	40b005b3          	neg	a1,a1
    28d0:	40a00533          	neg	a0,a0
    28d4:	57f9                	c.li	a5,-2
    28d6:	5771                	c.li	a4,-4
    28d8:	f8b046e3          	bgtz	a1,2864 <riscv_dsp_atan2_q15+0x10>
    28dc:	fe1ff06f          	j	28bc <riscv_dsp_atan2_q15+0x68>
    28e0:	6521                	c.lui	a0,0x8
    28e2:	157d                	c.addi	a0,-1
    28e4:	8082                	c.jr	ra
    28e6:	0001                	c.nop

000028e8 <riscv_dsp_cos_f32>:
    28e8:	a2c1                	c.j	2aa8 <cosf>
    28ea:	0001                	c.nop

000028ec <riscv_dsp_cos_q15>:
    28ec:	77e1                	c.lui	a5,0xffff8
    28ee:	06f50563          	beq	a0,a5,2958 <riscv_dsp_cos_q15+0x6c>
    28f2:	ad45057f          	kabsw	a0,a0
    28f6:	3c05385b          	bfos	a6,a0,15,0
    28fa:	6291                	c.lui	t0,0x4
    28fc:	0502c463          	blt	t0,a6,2944 <riscv_dsp_cos_q15+0x58>
    2900:	3c0523db          	bfoz	t2,a0,15,0
    2904:	00000593          	li	a1,0
    2908:	de5f960b          	addigp	a2,-540 # 805e4 <riscv_dsp_cos_table_q15_linear_1024>
    290c:	00685893          	srli	a7,a6,0x6
    2910:	0b160e5b          	lea.h	t3,a2,a7
    2914:	000e1503          	lh	a0,0(t3)
    2918:	002e1f83          	lh	t6,2(t3)
    291c:	fc087e93          	andi	t4,a6,-64
    2920:	41d38f33          	sub	t5,t2,t4
    2924:	3c0f37db          	bfos	a5,t5,15,0
    2928:	2997b2db          	bfos	t0,a5,10,25
    292c:	40af8733          	sub	a4,t6,a0
    2930:	46e2957f          	kmmawb	a0,t0,a4
    2934:	00058463          	beqz	a1,293c <riscv_dsp_cos_q15+0x50>
    2938:	40a00533          	neg	a0,a0
    293c:	3c05355b          	bfos	a0,a0,15,0
    2940:	00008067          	ret
    2944:	7761                	c.lui	a4,0xffff8
    2946:	40a70333          	sub	t1,a4,a0
    294a:	3c0323db          	bfoz	t2,t1,15,0
    294e:	3c03385b          	bfos	a6,t1,15,0
    2952:	4585                	c.li	a1,1
    2954:	fb5ff06f          	j	2908 <riscv_dsp_cos_q15+0x1c>
    2958:	7561                	c.lui	a0,0xffff8
    295a:	8082                	c.jr	ra
    295c:	0001                	c.nop
	...

00002960 <riscv_dsp_sin_f32>:
    2960:	abe1                	c.j	2f38 <sinf>
    2962:	0001                	c.nop

00002964 <riscv_dsp_sin_q15>:
    2964:	77e1                	c.lui	a5,0xffff8
    2966:	06f50963          	beq	a0,a5,29d8 <riscv_dsp_sin_q15+0x74>
    296a:	ad4502ff          	kabsw	t0,a0
    296e:	3c02b85b          	bfos	a6,t0,15,0
    2972:	6691                	c.lui	a3,0x4
    2974:	0506c463          	blt	a3,a6,29bc <riscv_dsp_sin_q15+0x58>
    2978:	3c02a3db          	bfoz	t2,t0,15,0
    297c:	00685593          	srli	a1,a6,0x6
    2980:	0ff00613          	li	a2,255
    2984:	40b60e33          	sub	t3,a2,a1
    2988:	de5f9e8b          	addigp	t4,-540 # 805e4 <riscv_dsp_cos_table_q15_linear_1024>
    298c:	0bce8f5b          	lea.h	t5,t4,t3
    2990:	002f1283          	lh	t0,2(t5)
    2994:	000f1683          	lh	a3,0(t5)
    2998:	fc087f93          	andi	t6,a6,-64
    299c:	41f387b3          	sub	a5,t2,t6
    29a0:	3c07b35b          	bfos	t1,a5,15,0
    29a4:	0656977f          	ksubh	a4,a3,t0
    29a8:	299333db          	bfos	t2,t1,10,25
    29ac:	46e392ff          	kmmawb	t0,t2,a4
    29b0:	00054e63          	bltz	a0,29cc <riscv_dsp_sin_q15+0x68>
    29b4:	3c02b55b          	bfos	a0,t0,15,0
    29b8:	00008067          	ret
    29bc:	7761                	c.lui	a4,0xffff8
    29be:	40570333          	sub	t1,a4,t0
    29c2:	3c0323db          	bfoz	t2,t1,15,0
    29c6:	3c03385b          	bfos	a6,t1,15,0
    29ca:	bf4d                	c.j	297c <riscv_dsp_sin_q15+0x18>
    29cc:	40500533          	neg	a0,t0
    29d0:	3c05355b          	bfos	a0,a0,15,0
    29d4:	00008067          	ret
    29d8:	4501                	c.li	a0,0
    29da:	8082                	c.jr	ra
    29dc:	0001                	c.nop
	...

000029e0 <riscv_dsp_sqrt_f32>:
    29e0:	f00007d3          	fmv.w.x	fa5,zero
    29e4:	a0a787d3          	fle.s	a5,fa5,fa0
    29e8:	c781                	c.beqz	a5,29f0 <riscv_dsp_sqrt_f32+0x10>
    29ea:	58057553          	fsqrt.s	fa0,fa0
    29ee:	8082                	c.jr	ra
    29f0:	000802b7          	lui	t0,0x80
    29f4:	7e82a507          	flw	fa0,2024(t0) # 807e8 <riscv_dsp_cos_table_q15_linear_1024+0x204>
    29f8:	8082                	c.jr	ra
    29fa:	0001                	c.nop

000029fc <riscv_dsp_sqrt_q15>:
    29fc:	0aa05063          	blez	a0,2a9c <riscv_dsp_sqrt_q15+0xa0>
    2a00:	af9505ff          	clz32	a1,a0
    2a04:	ff058293          	addi	t0,a1,-16
    2a08:	ffe2f313          	andi	t1,t0,-2
    2a0c:	00651733          	sll	a4,a0,t1
    2a10:	66f9                	c.lui	a3,0x1e
    2a12:	46f7795b          	bbs	a4,15,2a84 <riscv_dsp_sqrt_q15+0x88>
    2a16:	7ae68793          	addi	a5,a3,1966 # 1e7ae <BIN_SIZE+0x18980>
    2a1a:	00171393          	slli	t2,a4,0x1
    2a1e:	6611                	c.lui	a2,0x4
    2a20:	40778833          	sub	a6,a5,t2
    2a24:	2fa60893          	addi	a7,a2,762 # 42fa <__truncdfsf2+0x112>
    2a28:	03180e33          	mul	t3,a6,a7
    2a2c:	40fe5e93          	srai	t4,t3,0xf
    2a30:	40175693          	srai	a3,a4,0x1
    2a34:	03d683b3          	mul	t2,a3,t4
    2a38:	67b1                	c.lui	a5,0xc
    2a3a:	00135313          	srli	t1,t1,0x1
    2a3e:	40f3d613          	srai	a2,t2,0xf
    2a42:	03d60833          	mul	a6,a2,t4
    2a46:	40f85893          	srai	a7,a6,0xf
    2a4a:	41178e33          	sub	t3,a5,a7
    2a4e:	03de0eb3          	mul	t4,t3,t4
    2a52:	40fedf13          	srai	t5,t4,0xf
    2a56:	03e68fb3          	mul	t6,a3,t5
    2a5a:	40ffd593          	srai	a1,t6,0xf
    2a5e:	03e58533          	mul	a0,a1,t5
    2a62:	40f55293          	srai	t0,a0,0xf
    2a66:	405786b3          	sub	a3,a5,t0
    2a6a:	03e683b3          	mul	t2,a3,t5
    2a6e:	40f3d793          	srai	a5,t2,0xf
    2a72:	02e78733          	mul	a4,a5,a4
    2a76:	40f75613          	srai	a2,a4,0xf
    2a7a:	40665333          	sra	t1,a2,t1
    2a7e:	3c03355b          	bfos	a0,t1,15,0
    2a82:	8082                	c.jr	ra
    2a84:	7ae68f13          	addi	t5,a3,1966
    2a88:	6f8d                	c.lui	t6,0x3
    2a8a:	40ef05b3          	sub	a1,t5,a4
    2a8e:	f5cf8513          	addi	a0,t6,-164 # 2f5c <sinf+0x24>
    2a92:	02a582b3          	mul	t0,a1,a0
    2a96:	40f2de93          	srai	t4,t0,0xf
    2a9a:	bf59                	c.j	2a30 <riscv_dsp_sqrt_q15+0x34>
    2a9c:	00a03533          	snez	a0,a0
    2aa0:	40a00533          	neg	a0,a0
    2aa4:	8082                	c.jr	ra
    2aa6:	0001                	c.nop

00002aa8 <cosf>:
    2aa8:	3f4917b7          	lui	a5,0x3f491
    2aac:	fda78793          	addi	a5,a5,-38 # 3f490fda <_DATA_LMA_START+0x1f48bb52>
    2ab0:	e00505d3          	fmv.x.w	a1,fa0
    2ab4:	7805a75b          	bfoz	a4,a1,30,0
    2ab8:	02e7ec63          	bltu	a5,a4,2af0 <cosf+0x48>
    2abc:	398007b7          	lui	a5,0x39800
    2ac0:	10f76263          	bltu	a4,a5,2bc4 <cosf+0x11c>
    2ac4:	10a57753          	fmul.s	fa4,fa0,fa0
    2ac8:	801f978b          	addigp	a5,-2048 # 80000 <cst_libm_sincosf>
    2acc:	6f9c                	c.flw	fa5,24(a5)
    2ace:	6bc8                	c.flw	fa0,20(a5)
    2ad0:	6b90                	c.flw	fa2,16(a5)
    2ad2:	10f777d3          	fmul.s	fa5,fa4,fa5
    2ad6:	67d4                	c.flw	fa3,12(a5)
    2ad8:	00a7f553          	fadd.s	fa0,fa5,fa0
    2adc:	10e57553          	fmul.s	fa0,fa0,fa4
    2ae0:	00c57553          	fadd.s	fa0,fa0,fa2
    2ae4:	10e57553          	fmul.s	fa0,fa0,fa4
    2ae8:	00d57553          	fadd.s	fa0,fa0,fa3
    2aec:	00008067          	ret
    2af0:	1101                	c.addi	sp,-32
    2af2:	464917b7          	lui	a5,0x46491
    2af6:	e4878793          	addi	a5,a5,-440 # 46490e48 <_DATA_LMA_START+0x2648b9c0>
    2afa:	ce06                	c.swsp	ra,28(sp)
    2afc:	10e7e063          	bltu	a5,a4,2bfc <cosf+0x154>
    2b00:	0080178b          	addigp	a5,8 # 80808 <cst_libm_rredf>
    2b04:	6398                	c.flw	fa4,0(a5)
    2b06:	00080737          	lui	a4,0x80
    2b0a:	7f072587          	flw	fa1,2032(a4) # 807f0 <riscv_dsp_cos_table_q15_linear_1024+0x20c>
    2b0e:	10e577d3          	fmul.s	fa5,fa0,fa4
    2b12:	6798                	c.flw	fa4,8(a5)
    2b14:	67d0                	c.flw	fa2,12(a5)
    2b16:	6b94                	c.flw	fa3,16(a5)
    2b18:	6bc8                	c.flw	fa0,20(a5)
    2b1a:	00b7f7d3          	fadd.s	fa5,fa5,fa1
    2b1e:	08b7f7d3          	fsub.s	fa5,fa5,fa1
    2b22:	f00585d3          	fmv.w.x	fa1,a1
    2b26:	10e7f753          	fmul.s	fa4,fa5,fa4
    2b2a:	10c7f653          	fmul.s	fa2,fa5,fa2
    2b2e:	10d7f6d3          	fmul.s	fa3,fa5,fa3
    2b32:	08e5f753          	fsub.s	fa4,fa1,fa4
    2b36:	c0079753          	fcvt.w.s	a4,fa5,rtz
    2b3a:	08c77753          	fsub.s	fa4,fa4,fa2
    2b3e:	10a7f7d3          	fmul.s	fa5,fa5,fa0
    2b42:	00177793          	andi	a5,a4,1
    2b46:	8b09                	c.andi	a4,2
    2b48:	08d77753          	fsub.s	fa4,fa4,fa3
    2b4c:	08f775d3          	fsub.s	fa1,fa4,fa5
    2b50:	e00585d3          	fmv.x.w	a1,fa1
    2b54:	f00585d3          	fmv.w.x	fa1,a1
    2b58:	10b5f6d3          	fmul.s	fa3,fa1,fa1
    2b5c:	cb95                	c.beqz	a5,2b90 <cosf+0xe8>
    2b5e:	801f978b          	addigp	a5,-2048 # 80000 <cst_libm_sincosf>
    2b62:	679c                	c.flw	fa5,8(a5)
    2b64:	63d8                	c.flw	fa4,4(a5)
    2b66:	6388                	c.flw	fa0,0(a5)
    2b68:	10f6f7d3          	fmul.s	fa5,fa3,fa5
    2b6c:	00e7f7d3          	fadd.s	fa5,fa5,fa4
    2b70:	10d7f7d3          	fmul.s	fa5,fa5,fa3
    2b74:	00a7f7d3          	fadd.s	fa5,fa5,fa0
    2b78:	10d7f7d3          	fmul.s	fa5,fa5,fa3
    2b7c:	10b7f7d3          	fmul.s	fa5,fa5,fa1
    2b80:	00b7f553          	fadd.s	fa0,fa5,fa1
    2b84:	02070a63          	beqz	a4,2bb8 <cosf+0x110>
    2b88:	40f2                	c.lwsp	ra,28(sp)
    2b8a:	6105                	c.addi16sp	sp,32
    2b8c:	00008067          	ret
    2b90:	801f978b          	addigp	a5,-2048 # 80000 <cst_libm_sincosf>
    2b94:	6f98                	c.flw	fa4,24(a5)
    2b96:	6bc8                	c.flw	fa0,20(a5)
    2b98:	6b90                	c.flw	fa2,16(a5)
    2b9a:	10e6f753          	fmul.s	fa4,fa3,fa4
    2b9e:	67dc                	c.flw	fa5,12(a5)
    2ba0:	00a77553          	fadd.s	fa0,fa4,fa0
    2ba4:	10d57553          	fmul.s	fa0,fa0,fa3
    2ba8:	00c57553          	fadd.s	fa0,fa0,fa2
    2bac:	10d57553          	fmul.s	fa0,fa0,fa3
    2bb0:	00f57553          	fadd.s	fa0,fa0,fa5
    2bb4:	fc070ae3          	beqz	a4,2b88 <cosf+0xe0>
    2bb8:	40f2                	c.lwsp	ra,28(sp)
    2bba:	20a51553          	fneg.s	fa0,fa0
    2bbe:	6105                	c.addi16sp	sp,32
    2bc0:	00008067          	ret
    2bc4:	00159693          	slli	a3,a1,0x1
    2bc8:	ff0007b7          	lui	a5,0xff000
    2bcc:	02f6e263          	bltu	a3,a5,2bf0 <cosf+0x148>
    2bd0:	00f68663          	beq	a3,a5,2bdc <cosf+0x134>
    2bd4:	00a57553          	fadd.s	fa0,fa0,fa0
    2bd8:	00008067          	ret
    2bdc:	02100713          	li	a4,33
    2be0:	f0000553          	fmv.w.x	fa0,zero
    2be4:	18a57553          	fdiv.s	fa0,fa0,fa0
    2be8:	1ae0442b          	swgp	a4,424 # 809a8 <__mculib_REENT_errno>
    2bec:	00008067          	ret
    2bf0:	000807b7          	lui	a5,0x80
    2bf4:	7ec7a507          	flw	fa0,2028(a5) # 807ec <riscv_dsp_cos_table_q15_linear_1024+0x208>
    2bf8:	00008067          	ret
    2bfc:	0068                	c.addi4spn	a0,sp,12
    2bfe:	20a9                	c.jal	2c48 <ref__mathlib_rredf2>
    2c00:	4732                	c.lwsp	a4,12(sp)
    2c02:	e00505d3          	fmv.x.w	a1,fa0
    2c06:	02075d63          	bgez	a4,2c40 <cosf+0x198>
    2c0a:	00159693          	slli	a3,a1,0x1
    2c0e:	ff0007b7          	lui	a5,0xff000
    2c12:	00f6e763          	bltu	a3,a5,2c20 <cosf+0x178>
    2c16:	00f68b63          	beq	a3,a5,2c2c <cosf+0x184>
    2c1a:	00a57553          	fadd.s	fa0,fa0,fa0
    2c1e:	b7ad                	c.j	2b88 <cosf+0xe0>
    2c20:	000807b7          	lui	a5,0x80
    2c24:	7ec7a507          	flw	fa0,2028(a5) # 807ec <riscv_dsp_cos_table_q15_linear_1024+0x208>
    2c28:	f61ff06f          	j	2b88 <cosf+0xe0>
    2c2c:	f0000553          	fmv.w.x	fa0,zero
    2c30:	02100713          	li	a4,33
    2c34:	18a57553          	fdiv.s	fa0,fa0,fa0
    2c38:	1ae0442b          	swgp	a4,424 # 809a8 <__mculib_REENT_errno>
    2c3c:	f4dff06f          	j	2b88 <cosf+0xe0>
    2c40:	00177793          	andi	a5,a4,1
    2c44:	8b09                	c.andi	a4,2
    2c46:	b739                	c.j	2b54 <cosf+0xac>

00002c48 <ref__mathlib_rredf2>:
    2c48:	00159713          	slli	a4,a1,0x1
    2c4c:	ff0007b7          	lui	a5,0xff000
    2c50:	12f77c63          	bgeu	a4,a5,2d88 <ref__mathlib_rredf2+0x140>
    2c54:	7975a7db          	bfoz	a5,a1,30,23
    2c58:	f8878793          	addi	a5,a5,-120 # feffff88 <_DATA_LMA_START+0xdeffab00>
    2c5c:	4057d613          	srai	a2,a5,0x5
    2c60:	0200168b          	addigp	a3,32 # 80820 <twooverpi.0>
    2c64:	0cc688db          	lea.w	a7,a3,a2
    2c68:	0008a303          	lw	t1,0(a7)
    2c6c:	0048a703          	lw	a4,4(a7)
    2c70:	0088a803          	lw	a6,8(a7)
    2c74:	00859e13          	slli	t3,a1,0x8
    2c78:	800008b7          	lui	a7,0x80000
    2c7c:	8bfd                	c.andi	a5,31
    2c7e:	011e6e33          	or	t3,t3,a7
    2c82:	cb8d                	c.beqz	a5,2cb4 <ref__mathlib_rredf2+0x6c>
    2c84:	0cc686db          	lea.w	a3,a3,a2
    2c88:	46d0                	c.lw	a2,12(a3)
    2c8a:	02000693          	li	a3,32
    2c8e:	8e9d                	c.sub	a3,a5
    2c90:	00d75eb3          	srl	t4,a4,a3
    2c94:	00d858b3          	srl	a7,a6,a3
    2c98:	00f31333          	sll	t1,t1,a5
    2c9c:	00f71733          	sll	a4,a4,a5
    2ca0:	00f81833          	sll	a6,a6,a5
    2ca4:	00d656b3          	srl	a3,a2,a3
    2ca8:	006ee333          	or	t1,t4,t1
    2cac:	00e8e733          	or	a4,a7,a4
    2cb0:	0106e833          	or	a6,a3,a6
    2cb4:	f0ee167f          	mulr64	a2,t3,a4
    2cb8:	f10e187f          	mulr64	a6,t3,a6
    2cbc:	f1c3137f          	mulr64	t1,t1,t3
    2cc0:	00c88e33          	add	t3,a7,a2
    2cc4:	006687b3          	add	a5,a3,t1
    2cc8:	011e3733          	sltu	a4,t3,a7
    2ccc:	00e787b3          	add	a5,a5,a4
    2cd0:	0b1e6663          	bltu	t3,a7,2d7c <ref__mathlib_rredf2+0x134>
    2cd4:	00d7b733          	sltu	a4,a5,a3
    2cd8:	00d79693          	slli	a3,a5,0xd
    2cdc:	971e                	c.add	a4,t2
    2cde:	83cd                	c.srli	a5,0x13
    2ce0:	d016f553          	fcvt.s.wu	fa0,a3
    2ce4:	07b6                	c.slli	a5,0xd
    2ce6:	01a71693          	slli	a3,a4,0x1a
    2cea:	8fd5                	c.or	a5,a3
    2cec:	d007f6d3          	fcvt.s.w	fa3,a5
    2cf0:	000807b7          	lui	a5,0x80
    2cf4:	7f47a707          	flw	fa4,2036(a5) # 807f4 <riscv_dsp_cos_table_q15_linear_1024+0x210>
    2cf8:	d01e77d3          	fcvt.s.wu	fa5,t3
    2cfc:	000807b7          	lui	a5,0x80
    2d00:	6685                	c.lui	a3,0x1
    2d02:	10e57553          	fmul.s	fa0,fa0,fa4
    2d06:	7f87a707          	flw	fa4,2040(a5) # 807f8 <riscv_dsp_cos_table_q15_linear_1024+0x214>
    2d0a:	80068693          	addi	a3,a3,-2048 # 800 <analog_read_reg8+0x2c>
    2d0e:	02070713          	addi	a4,a4,32
    2d12:	10e7f7d3          	fmul.s	fa5,fa5,fa4
    2d16:	8319                	c.srli	a4,0x6
    2d18:	00a6f753          	fadd.s	fa4,fa3,fa0
    2d1c:	00f775d3          	fadd.s	fa1,fa4,fa5
    2d20:	e00587d3          	fmv.x.w	a5,fa1
    2d24:	97b6                	c.add	a5,a3
    2d26:	76fd                	c.lui	a3,0xfffff
    2d28:	00d7f7b3          	and	a5,a5,a3
    2d2c:	f00785d3          	fmv.w.x	fa1,a5
    2d30:	08d5f6d3          	fsub.s	fa3,fa1,fa3
    2d34:	000816b7          	lui	a3,0x81
    2d38:	000807b7          	lui	a5,0x80
    2d3c:	8006a607          	flw	fa2,-2048(a3) # 80800 <__global_pointer$>
    2d40:	000816b7          	lui	a3,0x81
    2d44:	08a6f553          	fsub.s	fa0,fa3,fa0
    2d48:	8046a707          	flw	fa4,-2044(a3) # 80804 <__global_pointer$+0x4>
    2d4c:	10b67653          	fmul.s	fa2,fa2,fa1
    2d50:	10b77753          	fmul.s	fa4,fa4,fa1
    2d54:	08a7f7d3          	fsub.s	fa5,fa5,fa0
    2d58:	7fc7a507          	flw	fa0,2044(a5) # 807fc <riscv_dsp_cos_table_q15_linear_1024+0x218>
    2d5c:	10a7f553          	fmul.s	fa0,fa5,fa0
    2d60:	00c57553          	fadd.s	fa0,fa0,fa2
    2d64:	00e57553          	fadd.s	fa0,fa0,fa4
    2d68:	0005d863          	bgez	a1,2d78 <ref__mathlib_rredf2+0x130>
    2d6c:	20a51553          	fneg.s	fa0,fa0
    2d70:	100007b7          	lui	a5,0x10000
    2d74:	40e78733          	sub	a4,a5,a4
    2d78:	c118                	c.sw	a4,0(a0)
    2d7a:	8082                	c.jr	ra
    2d7c:	00f6b733          	sltu	a4,a3,a5
    2d80:	00174713          	xori	a4,a4,1
    2d84:	f55ff06f          	j	2cd8 <ref__mathlib_rredf2+0x90>
    2d88:	57fd                	c.li	a5,-1
    2d8a:	c11c                	c.sw	a5,0(a0)
    2d8c:	8082                	c.jr	ra
    2d8e:	0001                	c.nop

00002d90 <sincosf>:
    2d90:	1101                	c.addi	sp,-32
    2d92:	3f491737          	lui	a4,0x3f491
    2d96:	cc22                	c.swsp	s0,24(sp)
    2d98:	ca26                	c.swsp	s1,20(sp)
    2d9a:	fda70713          	addi	a4,a4,-38 # 3f490fda <_DATA_LMA_START+0x1f48bb52>
    2d9e:	ce06                	c.swsp	ra,28(sp)
    2da0:	e00507d3          	fmv.x.w	a5,fa0
    2da4:	842a                	c.mv	s0,a0
    2da6:	84ae                	c.mv	s1,a1
    2da8:	7807a6db          	bfoz	a3,a5,30,0
    2dac:	0ed76c63          	bltu	a4,a3,2ea4 <sincosf+0x114>
    2db0:	39800737          	lui	a4,0x39800
    2db4:	863e                	c.mv	a2,a5
    2db6:	0ce6e763          	bltu	a3,a4,2e84 <sincosf+0xf4>
    2dba:	4701                	c.li	a4,0
    2dbc:	00000693          	li	a3,0
    2dc0:	f00785d3          	fmv.w.x	fa1,a5
    2dc4:	10b5f6d3          	fmul.s	fa3,fa1,fa1
    2dc8:	00081637          	lui	a2,0x81
    2dcc:	84062787          	flw	fa5,-1984(a2) # 80840 <twooverpi.0+0x20>
    2dd0:	00081637          	lui	a2,0x81
    2dd4:	84462707          	flw	fa4,-1980(a2) # 80844 <twooverpi.0+0x24>
    2dd8:	10f6f7d3          	fmul.s	fa5,fa3,fa5
    2ddc:	00081637          	lui	a2,0x81
    2de0:	000807b7          	lui	a5,0x80
    2de4:	00e7f7d3          	fadd.s	fa5,fa5,fa4
    2de8:	84c62707          	flw	fa4,-1972(a2) # 8084c <twooverpi.0+0x2c>
    2dec:	00081637          	lui	a2,0x81
    2df0:	85062607          	flw	fa2,-1968(a2) # 80850 <twooverpi.0+0x30>
    2df4:	10e6f753          	fmul.s	fa4,fa3,fa4
    2df8:	00081637          	lui	a2,0x81
    2dfc:	10d7f7d3          	fmul.s	fa5,fa5,fa3
    2e00:	00c77753          	fadd.s	fa4,fa4,fa2
    2e04:	84862607          	flw	fa2,-1976(a2) # 80848 <twooverpi.0+0x28>
    2e08:	00081637          	lui	a2,0x81
    2e0c:	08c7f7d3          	fsub.s	fa5,fa5,fa2
    2e10:	85462607          	flw	fa2,-1964(a2) # 80854 <twooverpi.0+0x34>
    2e14:	10d77753          	fmul.s	fa4,fa4,fa3
    2e18:	10d7f7d3          	fmul.s	fa5,fa5,fa3
    2e1c:	08c77753          	fsub.s	fa4,fa4,fa2
    2e20:	10b7f7d3          	fmul.s	fa5,fa5,fa1
    2e24:	10d77753          	fmul.s	fa4,fa4,fa3
    2e28:	7ec7a687          	flw	fa3,2028(a5) # 807ec <riscv_dsp_cos_table_q15_linear_1024+0x208>
    2e2c:	00b7f7d3          	fadd.s	fa5,fa5,fa1
    2e30:	00d77753          	fadd.s	fa4,fa4,fa3
    2e34:	ce81                	c.beqz	a3,2e4c <sincosf+0xbc>
    2e36:	cb0d                	c.beqz	a4,2e68 <sincosf+0xd8>
    2e38:	20e71753          	fneg.s	fa4,fa4
    2e3c:	e018                	c.fsw	fa4,0(s0)
    2e3e:	e09c                	c.fsw	fa5,0(s1)
    2e40:	40f2                	c.lwsp	ra,28(sp)
    2e42:	4462                	c.lwsp	s0,24(sp)
    2e44:	44d2                	c.lwsp	s1,20(sp)
    2e46:	6105                	c.addi16sp	sp,32
    2e48:	00008067          	ret
    2e4c:	00070663          	beqz	a4,2e58 <sincosf+0xc8>
    2e50:	20f797d3          	fneg.s	fa5,fa5
    2e54:	20e71753          	fneg.s	fa4,fa4
    2e58:	e01c                	c.fsw	fa5,0(s0)
    2e5a:	40f2                	c.lwsp	ra,28(sp)
    2e5c:	4462                	c.lwsp	s0,24(sp)
    2e5e:	e098                	c.fsw	fa4,0(s1)
    2e60:	44d2                	c.lwsp	s1,20(sp)
    2e62:	6105                	c.addi16sp	sp,32
    2e64:	00008067          	ret
    2e68:	20f797d3          	fneg.s	fa5,fa5
    2e6c:	fd1ff06f          	j	2e3c <sincosf+0xac>
    2e70:	85be                	c.mv	a1,a5
    2e72:	0068                	c.addi4spn	a0,sp,12
    2e74:	3bd1                	c.jal	2c48 <ref__mathlib_rredf2>
    2e76:	4732                	c.lwsp	a4,12(sp)
    2e78:	e00507d3          	fmv.x.w	a5,fa0
    2e7c:	0a075863          	bgez	a4,2f2c <sincosf+0x19c>
    2e80:	00f00633          	add	a2,zero,a5
    2e84:	00161613          	slli	a2,a2,0x1
    2e88:	ff000737          	lui	a4,0xff000
    2e8c:	08e66863          	bltu	a2,a4,2f1c <sincosf+0x18c>
    2e90:	06e60c63          	beq	a2,a4,2f08 <sincosf+0x178>
    2e94:	f0078553          	fmv.w.x	fa0,a5
    2e98:	00a577d3          	fadd.s	fa5,fa0,fa0
    2e9c:	e09c                	c.fsw	fa5,0(s1)
    2e9e:	e01c                	c.fsw	fa5,0(s0)
    2ea0:	fa1ff06f          	j	2e40 <sincosf+0xb0>
    2ea4:	46491737          	lui	a4,0x46491
    2ea8:	e4870713          	addi	a4,a4,-440 # 46490e48 <_DATA_LMA_START+0x2648b9c0>
    2eac:	fcd762e3          	bltu	a4,a3,2e70 <sincosf+0xe0>
    2eb0:	0080170b          	addigp	a4,8 # 80808 <cst_libm_rredf>
    2eb4:	6318                	c.flw	fa4,0(a4)
    2eb6:	000806b7          	lui	a3,0x80
    2eba:	7f06a587          	flw	fa1,2032(a3) # 807f0 <riscv_dsp_cos_table_q15_linear_1024+0x20c>
    2ebe:	10e577d3          	fmul.s	fa5,fa0,fa4
    2ec2:	6718                	c.flw	fa4,8(a4)
    2ec4:	6750                	c.flw	fa2,12(a4)
    2ec6:	6b14                	c.flw	fa3,16(a4)
    2ec8:	6b48                	c.flw	fa0,20(a4)
    2eca:	00b7f7d3          	fadd.s	fa5,fa5,fa1
    2ece:	08b7f7d3          	fsub.s	fa5,fa5,fa1
    2ed2:	f00785d3          	fmv.w.x	fa1,a5
    2ed6:	10e7f753          	fmul.s	fa4,fa5,fa4
    2eda:	10c7f653          	fmul.s	fa2,fa5,fa2
    2ede:	10d7f6d3          	fmul.s	fa3,fa5,fa3
    2ee2:	08e5f753          	fsub.s	fa4,fa1,fa4
    2ee6:	c0079753          	fcvt.w.s	a4,fa5,rtz
    2eea:	08c77753          	fsub.s	fa4,fa4,fa2
    2eee:	10a7f7d3          	fmul.s	fa5,fa5,fa0
    2ef2:	00177693          	andi	a3,a4,1
    2ef6:	8b09                	c.andi	a4,2
    2ef8:	08d77753          	fsub.s	fa4,fa4,fa3
    2efc:	08f77553          	fsub.s	fa0,fa4,fa5
    2f00:	e00507d3          	fmv.x.w	a5,fa0
    2f04:	ebdff06f          	j	2dc0 <sincosf+0x30>
    2f08:	f00007d3          	fmv.w.x	fa5,zero
    2f0c:	02100713          	li	a4,33
    2f10:	18f7f7d3          	fdiv.s	fa5,fa5,fa5
    2f14:	1ae0442b          	swgp	a4,424 # 809a8 <__mculib_REENT_errno>
    2f18:	f85ff06f          	j	2e9c <sincosf+0x10c>
    2f1c:	c01c                	c.sw	a5,0(s0)
    2f1e:	00080737          	lui	a4,0x80
    2f22:	7ec72783          	lw	a5,2028(a4) # 807ec <riscv_dsp_cos_table_q15_linear_1024+0x208>
    2f26:	c09c                	c.sw	a5,0(s1)
    2f28:	f19ff06f          	j	2e40 <sincosf+0xb0>
    2f2c:	00177693          	andi	a3,a4,1
    2f30:	8b09                	c.andi	a4,2
    2f32:	b579                	c.j	2dc0 <sincosf+0x30>
    2f34:	0001                	c.nop
	...

00002f38 <sinf>:
    2f38:	3f4917b7          	lui	a5,0x3f491
    2f3c:	fda78793          	addi	a5,a5,-38 # 3f490fda <_DATA_LMA_START+0x1f48bb52>
    2f40:	e00505d3          	fmv.x.w	a1,fa0
    2f44:	7805a75b          	bfoz	a4,a1,30,0
    2f48:	02e7ee63          	bltu	a5,a4,2f84 <sinf+0x4c>
    2f4c:	398007b7          	lui	a5,0x39800
    2f50:	10f76063          	bltu	a4,a5,3050 <sinf+0x118>
    2f54:	10a577d3          	fmul.s	fa5,fa0,fa0
    2f58:	801f978b          	addigp	a5,-2048 # 80000 <cst_libm_sincosf>
    2f5c:	20a505d3          	fmv.s	fa1,fa0
    2f60:	6788                	c.flw	fa0,8(a5)
    2f62:	63d4                	c.flw	fa3,4(a5)
    2f64:	6398                	c.flw	fa4,0(a5)
    2f66:	10a7f553          	fmul.s	fa0,fa5,fa0
    2f6a:	00d57553          	fadd.s	fa0,fa0,fa3
    2f6e:	10f57553          	fmul.s	fa0,fa0,fa5
    2f72:	00e57553          	fadd.s	fa0,fa0,fa4
    2f76:	10f57553          	fmul.s	fa0,fa0,fa5
    2f7a:	10b57553          	fmul.s	fa0,fa0,fa1
    2f7e:	00a5f553          	fadd.s	fa0,fa1,fa0
    2f82:	8082                	c.jr	ra
    2f84:	1101                	c.addi	sp,-32
    2f86:	464917b7          	lui	a5,0x46491
    2f8a:	e4878793          	addi	a5,a5,-440 # 46490e48 <_DATA_LMA_START+0x2648b9c0>
    2f8e:	ce06                	c.swsp	ra,28(sp)
    2f90:	0ee7e863          	bltu	a5,a4,3080 <sinf+0x148>
    2f94:	0080178b          	addigp	a5,8 # 80808 <cst_libm_rredf>
    2f98:	6398                	c.flw	fa4,0(a5)
    2f9a:	00080737          	lui	a4,0x80
    2f9e:	7f072587          	flw	fa1,2032(a4) # 807f0 <riscv_dsp_cos_table_q15_linear_1024+0x20c>
    2fa2:	10e577d3          	fmul.s	fa5,fa0,fa4
    2fa6:	6798                	c.flw	fa4,8(a5)
    2fa8:	67d0                	c.flw	fa2,12(a5)
    2faa:	6b94                	c.flw	fa3,16(a5)
    2fac:	6bc8                	c.flw	fa0,20(a5)
    2fae:	00b7f7d3          	fadd.s	fa5,fa5,fa1
    2fb2:	08b7f7d3          	fsub.s	fa5,fa5,fa1
    2fb6:	f00585d3          	fmv.w.x	fa1,a1
    2fba:	10e7f753          	fmul.s	fa4,fa5,fa4
    2fbe:	10c7f653          	fmul.s	fa2,fa5,fa2
    2fc2:	10d7f6d3          	fmul.s	fa3,fa5,fa3
    2fc6:	08e5f753          	fsub.s	fa4,fa1,fa4
    2fca:	c0079753          	fcvt.w.s	a4,fa5,rtz
    2fce:	08c77753          	fsub.s	fa4,fa4,fa2
    2fd2:	10a7f7d3          	fmul.s	fa5,fa5,fa0
    2fd6:	00177793          	andi	a5,a4,1
    2fda:	8b09                	c.andi	a4,2
    2fdc:	08d77753          	fsub.s	fa4,fa4,fa3
    2fe0:	08f77653          	fsub.s	fa2,fa4,fa5
    2fe4:	e00605d3          	fmv.x.w	a1,fa2
    2fe8:	f0058653          	fmv.w.x	fa2,a1
    2fec:	10c67753          	fmul.s	fa4,fa2,fa2
    2ff0:	02078c63          	beqz	a5,3028 <sinf+0xf0>
    2ff4:	801f978b          	addigp	a5,-2048 # 80000 <cst_libm_sincosf>
    2ff8:	6f9c                	c.flw	fa5,24(a5)
    2ffa:	6bc8                	c.flw	fa0,20(a5)
    2ffc:	6b90                	c.flw	fa2,16(a5)
    2ffe:	10f777d3          	fmul.s	fa5,fa4,fa5
    3002:	67d4                	c.flw	fa3,12(a5)
    3004:	00a7f553          	fadd.s	fa0,fa5,fa0
    3008:	10e57553          	fmul.s	fa0,fa0,fa4
    300c:	00c57553          	fadd.s	fa0,fa0,fa2
    3010:	10e57553          	fmul.s	fa0,fa0,fa4
    3014:	00d57553          	fadd.s	fa0,fa0,fa3
    3018:	00070463          	beqz	a4,3020 <sinf+0xe8>
    301c:	20a51553          	fneg.s	fa0,fa0
    3020:	40f2                	c.lwsp	ra,28(sp)
    3022:	6105                	c.addi16sp	sp,32
    3024:	00008067          	ret
    3028:	801f978b          	addigp	a5,-2048 # 80000 <cst_libm_sincosf>
    302c:	679c                	c.flw	fa5,8(a5)
    302e:	63c8                	c.flw	fa0,4(a5)
    3030:	6394                	c.flw	fa3,0(a5)
    3032:	10f777d3          	fmul.s	fa5,fa4,fa5
    3036:	00a7f553          	fadd.s	fa0,fa5,fa0
    303a:	10e57553          	fmul.s	fa0,fa0,fa4
    303e:	00d57553          	fadd.s	fa0,fa0,fa3
    3042:	f00586d3          	fmv.w.x	fa3,a1
    3046:	10e57553          	fmul.s	fa0,fa0,fa4
    304a:	10c57553          	fmul.s	fa0,fa0,fa2
    304e:	b7d9                	c.j	3014 <sinf+0xdc>
    3050:	00159693          	slli	a3,a1,0x1
    3054:	ff0007b7          	lui	a5,0xff000
    3058:	02f6e263          	bltu	a3,a5,307c <sinf+0x144>
    305c:	00f68663          	beq	a3,a5,3068 <sinf+0x130>
    3060:	00a57553          	fadd.s	fa0,fa0,fa0
    3064:	00008067          	ret
    3068:	02100713          	li	a4,33
    306c:	f0000553          	fmv.w.x	fa0,zero
    3070:	18a57553          	fdiv.s	fa0,fa0,fa0
    3074:	1ae0442b          	swgp	a4,424 # 809a8 <__mculib_REENT_errno>
    3078:	00008067          	ret
    307c:	00008067          	ret
    3080:	0068                	c.addi4spn	a0,sp,12
    3082:	bc7ff0ef          	jal	ra,2c48 <ref__mathlib_rredf2>
    3086:	4732                	c.lwsp	a4,12(sp)
    3088:	e00505d3          	fmv.x.w	a1,fa0
    308c:	02075863          	bgez	a4,30bc <sinf+0x184>
    3090:	00159693          	slli	a3,a1,0x1
    3094:	ff0007b7          	lui	a5,0xff000
    3098:	f8f6e4e3          	bltu	a3,a5,3020 <sinf+0xe8>
    309c:	00f68663          	beq	a3,a5,30a8 <sinf+0x170>
    30a0:	00a57553          	fadd.s	fa0,fa0,fa0
    30a4:	f7dff06f          	j	3020 <sinf+0xe8>
    30a8:	f0000553          	fmv.w.x	fa0,zero
    30ac:	02100713          	li	a4,33
    30b0:	18a57553          	fdiv.s	fa0,fa0,fa0
    30b4:	1ae0442b          	swgp	a4,424 # 809a8 <__mculib_REENT_errno>
    30b8:	f69ff06f          	j	3020 <sinf+0xe8>
    30bc:	00177793          	andi	a5,a4,1
    30c0:	8b09                	c.andi	a4,2
    30c2:	b71d                	c.j	2fe8 <sinf+0xb0>

000030c4 <__divdf3>:
    30c4:	1101                	c.addi	sp,-32
    30c6:	ce22                	c.swsp	s0,28(sp)
    30c8:	cc26                	c.swsp	s1,24(sp)
    30ca:	ca4a                	c.swsp	s2,20(sp)
    30cc:	c84e                	c.swsp	s3,16(sp)
    30ce:	c652                	c.swsp	s4,12(sp)
    30d0:	00202ef3          	frrm	t4
    30d4:	7945a75b          	bfoz	a4,a1,30,20
    30d8:	4c05a7db          	bfoz	a5,a1,19,0
    30dc:	81fd                	c.srli	a1,0x1f
    30de:	c37d                	c.beqz	a4,31c4 <__divdf3+0x100>
    30e0:	7ff00813          	li	a6,2047
    30e4:	07070a63          	beq	a4,a6,3158 <__divdf3+0x94>
    30e8:	078e                	c.slli	a5,0x3
    30ea:	00800837          	lui	a6,0x800
    30ee:	01d55893          	srli	a7,a0,0x1d
    30f2:	0107e7b3          	or	a5,a5,a6
    30f6:	00f8e8b3          	or	a7,a7,a5
    30fa:	050e                	c.slli	a0,0x3
    30fc:	c0170f93          	addi	t6,a4,-1023
    3100:	4781                	c.li	a5,0
    3102:	4381                	c.li	t2,0
    3104:	00000e13          	li	t3,0
    3108:	7946a85b          	bfoz	a6,a3,30,20
    310c:	4c06a75b          	bfoz	a4,a3,19,0
    3110:	01f6d693          	srli	a3,a3,0x1f
    3114:	06080463          	beqz	a6,317c <__divdf3+0xb8>
    3118:	7ff00313          	li	t1,2047
    311c:	0e680a63          	beq	a6,t1,3210 <__divdf3+0x14c>
    3120:	070e                	c.slli	a4,0x3
    3122:	00800f37          	lui	t5,0x800
    3126:	01d65313          	srli	t1,a2,0x1d
    312a:	01e76733          	or	a4,a4,t5
    312e:	c0180813          	addi	a6,a6,-1023 # 7ffc01 <FLASH_SIZE+0x6ffc01>
    3132:	00e36733          	or	a4,t1,a4
    3136:	060e                	c.slli	a2,0x3
    3138:	410f8fb3          	sub	t6,t6,a6
    313c:	00000293          	li	t0,0
    3140:	00d5c833          	xor	a6,a1,a3
    3144:	433d                	c.li	t1,15
    3146:	8f42                	c.mv	t5,a6
    3148:	12f36063          	bltu	t1,a5,3268 <__divdf3+0x1a4>
    314c:	0580130b          	addigp	t1,88 # 80858 <twooverpi.0+0x38>
    3150:	0cf307db          	lea.w	a5,t1,a5
    3154:	439c                	c.lw	a5,0(a5)
    3156:	8782                	c.jr	a5
    3158:	00a7e8b3          	or	a7,a5,a0
    315c:	0e089a63          	bnez	a7,3250 <__divdf3+0x18c>
    3160:	7946a85b          	bfoz	a6,a3,30,20
    3164:	4c06a75b          	bfoz	a4,a3,19,0
    3168:	47a1                	c.li	a5,8
    316a:	4501                	c.li	a0,0
    316c:	7ff00f93          	li	t6,2047
    3170:	4389                	c.li	t2,2
    3172:	4e01                	c.li	t3,0
    3174:	01f6d693          	srli	a3,a3,0x1f
    3178:	fa0810e3          	bnez	a6,3118 <__divdf3+0x54>
    317c:	00c76833          	or	a6,a4,a2
    3180:	0a080663          	beqz	a6,322c <__divdf3+0x168>
    3184:	af97087f          	clz32	a6,a4
    3188:	00071663          	bnez	a4,3194 <__divdf3+0xd0>
    318c:	af96087f          	clz32	a6,a2
    3190:	02080813          	addi	a6,a6,32
    3194:	ff580293          	addi	t0,a6,-11
    3198:	4371                	c.li	t1,28
    319a:	36534363          	blt	t1,t0,3500 <__divdf3+0x43c>
    319e:	4375                	c.li	t1,29
    31a0:	ff880f13          	addi	t5,a6,-8
    31a4:	40530333          	sub	t1,t1,t0
    31a8:	00665333          	srl	t1,a2,t1
    31ac:	01e71733          	sll	a4,a4,t5
    31b0:	00e36733          	or	a4,t1,a4
    31b4:	01e61633          	sll	a2,a2,t5
    31b8:	9fc2                	c.add	t6,a6
    31ba:	3f3f8f93          	addi	t6,t6,1011
    31be:	4281                	c.li	t0,0
    31c0:	f81ff06f          	j	3140 <__divdf3+0x7c>
    31c4:	00a7e8b3          	or	a7,a5,a0
    31c8:	06088e63          	beqz	a7,3244 <__divdf3+0x180>
    31cc:	af97877f          	clz32	a4,a5
    31d0:	00079663          	bnez	a5,31dc <__divdf3+0x118>
    31d4:	af95077f          	clz32	a4,a0
    31d8:	02070713          	addi	a4,a4,32
    31dc:	ff570313          	addi	t1,a4,-11
    31e0:	4871                	c.li	a6,28
    31e2:	32684563          	blt	a6,t1,350c <__divdf3+0x448>
    31e6:	48f5                	c.li	a7,29
    31e8:	ff870813          	addi	a6,a4,-8
    31ec:	406888b3          	sub	a7,a7,t1
    31f0:	011558b3          	srl	a7,a0,a7
    31f4:	010797b3          	sll	a5,a5,a6
    31f8:	00f8e8b3          	or	a7,a7,a5
    31fc:	01051533          	sll	a0,a0,a6
    3200:	c0d00f93          	li	t6,-1011
    3204:	40ef8fb3          	sub	t6,t6,a4
    3208:	4781                	c.li	a5,0
    320a:	4381                	c.li	t2,0
    320c:	4e01                	c.li	t3,0
    320e:	bded                	c.j	3108 <__divdf3+0x44>
    3210:	00c76833          	or	a6,a4,a2
    3214:	801f8f93          	addi	t6,t6,-2047
    3218:	02080063          	beqz	a6,3238 <__divdf3+0x174>
    321c:	0037e793          	ori	a5,a5,3
    3220:	428d                	c.li	t0,3
    3222:	f1377f5b          	bbs	a4,19,3140 <__divdf3+0x7c>
    3226:	4e41                	c.li	t3,16
    3228:	f19ff06f          	j	3140 <__divdf3+0x7c>
    322c:	0017e793          	ori	a5,a5,1
    3230:	4701                	c.li	a4,0
    3232:	4601                	c.li	a2,0
    3234:	4285                	c.li	t0,1
    3236:	b729                	c.j	3140 <__divdf3+0x7c>
    3238:	0027e793          	ori	a5,a5,2
    323c:	4701                	c.li	a4,0
    323e:	4601                	c.li	a2,0
    3240:	4289                	c.li	t0,2
    3242:	bdfd                	c.j	3140 <__divdf3+0x7c>
    3244:	4791                	c.li	a5,4
    3246:	4501                	c.li	a0,0
    3248:	4f81                	c.li	t6,0
    324a:	4385                	c.li	t2,1
    324c:	4e01                	c.li	t3,0
    324e:	bd6d                	c.j	3108 <__divdf3+0x44>
    3250:	0137d713          	srli	a4,a5,0x13
    3254:	88be                	c.mv	a7,a5
    3256:	7ff00f93          	li	t6,2047
    325a:	47b1                	c.li	a5,12
    325c:	438d                	c.li	t2,3
    325e:	4e41                	c.li	t3,16
    3260:	ea0704e3          	beqz	a4,3108 <__divdf3+0x44>
    3264:	4e01                	c.li	t3,0
    3266:	b54d                	c.j	3108 <__divdf3+0x44>
    3268:	2f176063          	bltu	a4,a7,3548 <__divdf3+0x484>
    326c:	2ce88c63          	beq	a7,a4,3544 <__divdf3+0x480>
    3270:	85aa                	c.mv	a1,a0
    3272:	1ffd                	c.addi	t6,-1
    3274:	00000513          	li	a0,0
    3278:	0722                	c.slli	a4,0x8
    327a:	01865313          	srli	t1,a2,0x18
    327e:	00e36333          	or	t1,t1,a4
    3282:	01035293          	srli	t0,t1,0x10
    3286:	0258d733          	divu	a4,a7,t0
    328a:	3c0323db          	bfoz	t2,t1,15,0
    328e:	00861413          	slli	s0,a2,0x8
    3292:	0105d793          	srli	a5,a1,0x10
    3296:	0258f8b3          	remu	a7,a7,t0
    329a:	02e38633          	mul	a2,t2,a4
    329e:	08c2                	c.slli	a7,0x10
    32a0:	0117e7b3          	or	a5,a5,a7
    32a4:	00c7fc63          	bgeu	a5,a2,32bc <__divdf3+0x1f8>
    32a8:	979a                	c.add	a5,t1
    32aa:	fff70693          	addi	a3,a4,-1
    32ae:	3a67e963          	bltu	a5,t1,3660 <__divdf3+0x59c>
    32b2:	3ac7f763          	bgeu	a5,a2,3660 <__divdf3+0x59c>
    32b6:	1779                	c.addi	a4,-2
    32b8:	006787b3          	add	a5,a5,t1
    32bc:	8f91                	c.sub	a5,a2
    32be:	0257d6b3          	divu	a3,a5,t0
    32c2:	0257f7b3          	remu	a5,a5,t0
    32c6:	02d38933          	mul	s2,t2,a3
    32ca:	0eb797ff          	pkbb16	a5,a5,a1
    32ce:	0127fb63          	bgeu	a5,s2,32e4 <__divdf3+0x220>
    32d2:	979a                	c.add	a5,t1
    32d4:	fff68613          	addi	a2,a3,-1
    32d8:	3867e663          	bltu	a5,t1,3664 <__divdf3+0x5a0>
    32dc:	3927f463          	bgeu	a5,s2,3664 <__divdf3+0x5a0>
    32e0:	16f9                	c.addi	a3,-2
    32e2:	979a                	c.add	a5,t1
    32e4:	0742                	c.slli	a4,0x10
    32e6:	69c1                	c.lui	s3,0x10
    32e8:	8f55                	c.or	a4,a3
    32ea:	fff98693          	addi	a3,s3,-1 # ffff <BIN_SIZE+0xa1d1>
    32ee:	00d478b3          	and	a7,s0,a3
    32f2:	01075613          	srli	a2,a4,0x10
    32f6:	031605b3          	mul	a1,a2,a7
    32fa:	8ef9                	c.and	a3,a4
    32fc:	01045493          	srli	s1,s0,0x10
    3300:	412787b3          	sub	a5,a5,s2
    3304:	03168a33          	mul	s4,a3,a7
    3308:	892e                	c.mv	s2,a1
    330a:	c4d4997f          	maddr32	s2,s1,a3
    330e:	02960633          	mul	a2,a2,s1
    3312:	010a5693          	srli	a3,s4,0x10
    3316:	96ca                	c.add	a3,s2
    3318:	00b6f463          	bgeu	a3,a1,3320 <__divdf3+0x25c>
    331c:	01360633          	add	a2,a2,s3
    3320:	69c1                	c.lui	s3,0x10
    3322:	19fd                	c.addi	s3,-1
    3324:	0106d913          	srli	s2,a3,0x10
    3328:	0136f5b3          	and	a1,a3,s3
    332c:	05c2                	c.slli	a1,0x10
    332e:	013a76b3          	and	a3,s4,s3
    3332:	964a                	c.add	a2,s2
    3334:	00d585b3          	add	a1,a1,a3
    3338:	1ec7e463          	bltu	a5,a2,3520 <__divdf3+0x45c>
    333c:	1cc78e63          	beq	a5,a2,3518 <__divdf3+0x454>
    3340:	40c786b3          	sub	a3,a5,a2
    3344:	40b505b3          	sub	a1,a0,a1
    3348:	00b53533          	sltu	a0,a0,a1
    334c:	40a68533          	sub	a0,a3,a0
    3350:	3fff8793          	addi	a5,t6,1023
    3354:	3aa30863          	beq	t1,a0,3704 <__divdf3+0x640>
    3358:	02555633          	divu	a2,a0,t0
    335c:	0105d693          	srli	a3,a1,0x10
    3360:	02557533          	remu	a0,a0,t0
    3364:	02c38833          	mul	a6,t2,a2
    3368:	0542                	c.slli	a0,0x10
    336a:	8d55                	c.or	a0,a3
    336c:	01057c63          	bgeu	a0,a6,3384 <__divdf3+0x2c0>
    3370:	951a                	c.add	a0,t1
    3372:	fff60693          	addi	a3,a2,-1
    3376:	3a656763          	bltu	a0,t1,3724 <__divdf3+0x660>
    337a:	3b057563          	bgeu	a0,a6,3724 <__divdf3+0x660>
    337e:	1679                	c.addi	a2,-2
    3380:	00650533          	add	a0,a0,t1
    3384:	41050533          	sub	a0,a0,a6
    3388:	025556b3          	divu	a3,a0,t0
    338c:	02557533          	remu	a0,a0,t0
    3390:	02d383b3          	mul	t2,t2,a3
    3394:	0eb5157f          	pkbb16	a0,a0,a1
    3398:	00757c63          	bgeu	a0,t2,33b0 <__divdf3+0x2ec>
    339c:	951a                	c.add	a0,t1
    339e:	fff68593          	addi	a1,a3,-1
    33a2:	36656f63          	bltu	a0,t1,3720 <__divdf3+0x65c>
    33a6:	36757d63          	bgeu	a0,t2,3720 <__divdf3+0x65c>
    33aa:	16f9                	c.addi	a3,-2
    33ac:	00650533          	add	a0,a0,t1
    33b0:	0642                	c.slli	a2,0x10
    33b2:	8e55                	c.or	a2,a3
    33b4:	01065813          	srli	a6,a2,0x10
    33b8:	031805b3          	mul	a1,a6,a7
    33bc:	3c0626db          	bfoz	a3,a2,15,0
    33c0:	40750533          	sub	a0,a0,t2
    33c4:	02d888b3          	mul	a7,a7,a3
    33c8:	82ae                	c.mv	t0,a1
    33ca:	c4d492ff          	maddr32	t0,s1,a3
    33ce:	030484b3          	mul	s1,s1,a6
    33d2:	0108d693          	srli	a3,a7,0x10
    33d6:	9696                	c.add	a3,t0
    33d8:	00b6f463          	bgeu	a3,a1,33e0 <__divdf3+0x31c>
    33dc:	65c1                	c.lui	a1,0x10
    33de:	94ae                	c.add	s1,a1
    33e0:	6841                	c.lui	a6,0x10
    33e2:	187d                	c.addi	a6,-1
    33e4:	0106d593          	srli	a1,a3,0x10
    33e8:	0106f6b3          	and	a3,a3,a6
    33ec:	06c2                	c.slli	a3,0x10
    33ee:	0108f8b3          	and	a7,a7,a6
    33f2:	94ae                	c.add	s1,a1
    33f4:	00d888b3          	add	a7,a7,a3
    33f8:	22957263          	bgeu	a0,s1,361c <__divdf3+0x558>
    33fc:	951a                	c.add	a0,t1
    33fe:	fff60693          	addi	a3,a2,-1
    3402:	3c656163          	bltu	a0,t1,37c4 <__divdf3+0x700>
    3406:	32956963          	bltu	a0,s1,3738 <__divdf3+0x674>
    340a:	42950f63          	beq	a0,s1,3848 <__divdf3+0x784>
    340e:	8636                	c.mv	a2,a3
    3410:	00166613          	ori	a2,a2,1
    3414:	18f05c63          	blez	a5,35ac <__divdf3+0x4e8>
    3418:	00767693          	andi	a3,a2,7
    341c:	20069e63          	bnez	a3,3638 <__divdf3+0x574>
    3420:	01e00833          	add	a6,zero,t5
    3424:	0187785b          	bbc	a4,24,3434 <__divdf3+0x370>
    3428:	ff0007b7          	lui	a5,0xff000
    342c:	17fd                	c.addi	a5,-1
    342e:	8f7d                	c.and	a4,a5
    3430:	400f8793          	addi	a5,t6,1024
    3434:	7fe00693          	li	a3,2046
    3438:	12f6c263          	blt	a3,a5,355c <__divdf3+0x498>
    343c:	00365693          	srli	a3,a2,0x3
    3440:	01d71613          	slli	a2,a4,0x1d
    3444:	8e55                	c.or	a2,a3
    3446:	7ff7f793          	andi	a5,a5,2047
    344a:	583726db          	bfoz	a3,a4,22,3
    344e:	a01d                	c.j	3474 <__divdf3+0x3b0>
    3450:	8f2e                	c.mv	t5,a1
    3452:	8746                	c.mv	a4,a7
    3454:	862a                	c.mv	a2,a0
    3456:	829e                	c.mv	t0,t2
    3458:	3822da5b          	beqc	t0,2,37ec <__divdf3+0x728>
    345c:	0832da5b          	beqc	t0,3,34f0 <__divdf3+0x42c>
    3460:	3012dc5b          	beqc	t0,1,3778 <__divdf3+0x6b4>
    3464:	3fff8793          	addi	a5,t6,1023
    3468:	fadff06f          	j	3414 <__divdf3+0x350>
    346c:	7ff00793          	li	a5,2047
    3470:	4681                	c.li	a3,0
    3472:	4601                	c.li	a2,0
    3474:	4581                	c.li	a1,0
    3476:	fff00737          	lui	a4,0xfff00
    347a:	8f6d                	c.and	a4,a1
    347c:	4c06a6db          	bfoz	a3,a3,19,0
    3480:	8f55                	c.or	a4,a3
    3482:	01479693          	slli	a3,a5,0x14
    3486:	801007b7          	lui	a5,0x80100
    348a:	17fd                	c.addi	a5,-1
    348c:	8ff9                	c.and	a5,a4
    348e:	8fd5                	c.or	a5,a3
    3490:	087e                	c.slli	a6,0x1f
    3492:	7807a7db          	bfoz	a5,a5,30,0
    3496:	8532                	c.mv	a0,a2
    3498:	0107e5b3          	or	a1,a5,a6
    349c:	020e1863          	bnez	t3,34cc <__divdf3+0x408>
    34a0:	4472                	c.lwsp	s0,28(sp)
    34a2:	44e2                	c.lwsp	s1,24(sp)
    34a4:	4952                	c.lwsp	s2,20(sp)
    34a6:	49c2                	c.lwsp	s3,16(sp)
    34a8:	4a32                	c.lwsp	s4,12(sp)
    34aa:	6105                	c.addi16sp	sp,32
    34ac:	00008067          	ret
    34b0:	8f36                	c.mv	t5,a3
    34b2:	b75d                	c.j	3458 <__divdf3+0x394>
    34b4:	4781                	c.li	a5,0
    34b6:	4681                	c.li	a3,0
    34b8:	4601                	c.li	a2,0
    34ba:	bf6d                	c.j	3474 <__divdf3+0x3b0>
    34bc:	7ff007b7          	lui	a5,0x7ff00
    34c0:	087e                	c.slli	a6,0x1f
    34c2:	4501                	c.li	a0,0
    34c4:	0107e5b3          	or	a1,a5,a6
    34c8:	008e6e13          	ori	t3,t3,8
    34cc:	001e2073          	csrs	fflags,t3
    34d0:	4472                	c.lwsp	s0,28(sp)
    34d2:	44e2                	c.lwsp	s1,24(sp)
    34d4:	4952                	c.lwsp	s2,20(sp)
    34d6:	49c2                	c.lwsp	s3,16(sp)
    34d8:	4a32                	c.lwsp	s4,12(sp)
    34da:	6105                	c.addi16sp	sp,32
    34dc:	00008067          	ret
    34e0:	4801                	c.li	a6,0
    34e2:	7ff00793          	li	a5,2047
    34e6:	000806b7          	lui	a3,0x80
    34ea:	4601                	c.li	a2,0
    34ec:	4e41                	c.li	t3,16
    34ee:	b759                	c.j	3474 <__divdf3+0x3b0>
    34f0:	4801                	c.li	a6,0
    34f2:	7ff00793          	li	a5,2047
    34f6:	000806b7          	lui	a3,0x80
    34fa:	4601                	c.li	a2,0
    34fc:	f79ff06f          	j	3474 <__divdf3+0x3b0>
    3500:	fd880713          	addi	a4,a6,-40 # ffd8 <BIN_SIZE+0xa1aa>
    3504:	00e61733          	sll	a4,a2,a4
    3508:	4601                	c.li	a2,0
    350a:	b17d                	c.j	31b8 <__divdf3+0xf4>
    350c:	fd870893          	addi	a7,a4,-40 # ffefffd8 <_DATA_LMA_START+0xdfefab50>
    3510:	011518b3          	sll	a7,a0,a7
    3514:	4501                	c.li	a0,0
    3516:	b1ed                	c.j	3200 <__divdf3+0x13c>
    3518:	00000693          	li	a3,0
    351c:	e2b574e3          	bgeu	a0,a1,3344 <__divdf3+0x280>
    3520:	9522                	c.add	a0,s0
    3522:	008536b3          	sltu	a3,a0,s0
    3526:	969a                	c.add	a3,t1
    3528:	00d787b3          	add	a5,a5,a3
    352c:	fff70913          	addi	s2,a4,-1
    3530:	0ef37c63          	bgeu	t1,a5,3628 <__divdf3+0x564>
    3534:	1ec7ea63          	bltu	a5,a2,3728 <__divdf3+0x664>
    3538:	30f60263          	beq	a2,a5,383c <__divdf3+0x778>
    353c:	40c786b3          	sub	a3,a5,a2
    3540:	874a                	c.mv	a4,s2
    3542:	b509                	c.j	3344 <__divdf3+0x280>
    3544:	d2c566e3          	bltu	a0,a2,3270 <__divdf3+0x1ac>
    3548:	01f89593          	slli	a1,a7,0x1f
    354c:	00155793          	srli	a5,a0,0x1
    3550:	0018d893          	srli	a7,a7,0x1
    3554:	8ddd                	c.or	a1,a5
    3556:	057e                	c.slli	a0,0x1f
    3558:	d21ff06f          	j	3278 <__divdf3+0x1b4>
    355c:	122ed45b          	beqc	t4,2,3684 <__divdf3+0x5c0>
    3560:	223ed25b          	beqc	t4,3,3784 <__divdf3+0x6c0>
    3564:	120e8263          	beqz	t4,3688 <__divdf3+0x5c4>
    3568:	00100737          	lui	a4,0x100
    356c:	7fe00793          	li	a5,2046
    3570:	fff70693          	addi	a3,a4,-1 # fffff <_STACK_TOP+0x5ffff>
    3574:	fff00613          	li	a2,-1
    3578:	005e6e13          	ori	t3,t3,5
    357c:	4581                	c.li	a1,0
    357e:	fff00737          	lui	a4,0xfff00
    3582:	8532                	c.mv	a0,a2
    3584:	00b77633          	and	a2,a4,a1
    3588:	4c06a75b          	bfoz	a4,a3,19,0
    358c:	8f51                	c.or	a4,a2
    358e:	80100637          	lui	a2,0x80100
    3592:	167d                	c.addi	a2,-1
    3594:	8e79                	c.and	a2,a4
    3596:	07d2                	c.slli	a5,0x14
    3598:	8fd1                	c.or	a5,a2
    359a:	087e                	c.slli	a6,0x1f
    359c:	7807a7db          	bfoz	a5,a5,30,0
    35a0:	0107e5b3          	or	a1,a5,a6
    35a4:	001e2073          	csrs	fflags,t3
    35a8:	f29ff06f          	j	34d0 <__divdf3+0x40c>
    35ac:	efd5                	c.bnez	a5,3668 <__divdf3+0x5a4>
    35ae:	00767793          	andi	a5,a2,7
    35b2:	86ba                	c.mv	a3,a4
    35b4:	24079263          	bnez	a5,37f8 <__divdf3+0x734>
    35b8:	01875513          	srli	a0,a4,0x18
    35bc:	00154513          	xori	a0,a0,1
    35c0:	8905                	c.andi	a0,1
    35c2:	4585                	c.li	a1,1
    35c4:	41ef8713          	addi	a4,t6,1054
    35c8:	00e697b3          	sll	a5,a3,a4
    35cc:	00b65833          	srl	a6,a2,a1
    35d0:	00e61733          	sll	a4,a2,a4
    35d4:	00e03733          	snez	a4,a4
    35d8:	0107e633          	or	a2,a5,a6
    35dc:	8e59                	c.or	a2,a4
    35de:	00767793          	andi	a5,a2,7
    35e2:	00b6d733          	srl	a4,a3,a1
    35e6:	cb89                	c.beqz	a5,35f8 <__divdf3+0x534>
    35e8:	001e6e13          	ori	t3,t3,1
    35ec:	282ed25b          	beqc	t4,2,3870 <__divdf3+0x7ac>
    35f0:	263ed45b          	beqc	t4,3,3858 <__divdf3+0x794>
    35f4:	0e0e8c63          	beqz	t4,36ec <__divdf3+0x628>
    35f8:	2377745b          	bbc	a4,23,3820 <__divdf3+0x75c>
    35fc:	001e6e13          	ori	t3,t3,1
    3600:	4785                	c.li	a5,1
    3602:	4681                	c.li	a3,0
    3604:	00000613          	li	a2,0
    3608:	01e00833          	add	a6,zero,t5
    360c:	e60504e3          	beqz	a0,3474 <__divdf3+0x3b0>
    3610:	a60e725b          	bbc	t3,0,3474 <__divdf3+0x3b0>
    3614:	002e6e13          	ori	t3,t3,2
    3618:	f65ff06f          	j	357c <__divdf3+0x4b8>
    361c:	de951ae3          	bne	a0,s1,3410 <__divdf3+0x34c>
    3620:	de088ae3          	beqz	a7,3414 <__divdf3+0x350>
    3624:	dd9ff06f          	j	33fc <__divdf3+0x338>
    3628:	f0f31ae3          	bne	t1,a5,353c <__divdf3+0x478>
    362c:	f08574e3          	bgeu	a0,s0,3534 <__divdf3+0x470>
    3630:	40c306b3          	sub	a3,t1,a2
    3634:	874a                	c.mv	a4,s2
    3636:	b339                	c.j	3344 <__divdf3+0x280>
    3638:	001e6e13          	ori	t3,t3,1
    363c:	162ed85b          	beqc	t4,2,37ac <__divdf3+0x6e8>
    3640:	143ed85b          	beqc	t4,3,3790 <__divdf3+0x6cc>
    3644:	dc0e9ee3          	bnez	t4,3420 <__divdf3+0x35c>
    3648:	00f67693          	andi	a3,a2,15
    364c:	887a                	c.mv	a6,t5
    364e:	9c46db5b          	beqc	a3,4,3424 <__divdf3+0x360>
    3652:	86b2                	c.mv	a3,a2
    3654:	00468613          	addi	a2,a3,4 # 80004 <cst_libm_sincosf+0x4>
    3658:	00d636b3          	sltu	a3,a2,a3
    365c:	9736                	c.add	a4,a3
    365e:	b3d9                	c.j	3424 <__divdf3+0x360>
    3660:	8736                	c.mv	a4,a3
    3662:	b9a9                	c.j	32bc <__divdf3+0x1f8>
    3664:	86b2                	c.mv	a3,a2
    3666:	b9bd                	c.j	32e4 <__divdf3+0x220>
    3668:	4585                	c.li	a1,1
    366a:	8d9d                	c.sub	a1,a5
    366c:	03800693          	li	a3,56
    3670:	02b6da63          	bge	a3,a1,36a4 <__divdf3+0x5e0>
    3674:	8e59                	c.or	a2,a4
    3676:	e26d                	c.bnez	a2,3758 <__divdf3+0x694>
    3678:	002e6e13          	ori	t3,t3,2
    367c:	887a                	c.mv	a6,t5
    367e:	4781                	c.li	a5,0
    3680:	4681                	c.li	a3,0
    3682:	bded                	c.j	357c <__divdf3+0x4b8>
    3684:	ee0f02e3          	beqz	t5,3568 <__divdf3+0x4a4>
    3688:	7ff00793          	li	a5,2047
    368c:	4681                	c.li	a3,0
    368e:	4601                	c.li	a2,0
    3690:	ee9ff06f          	j	3578 <__divdf3+0x4b4>
    3694:	4585                	c.li	a1,1
    3696:	8d9d                	c.sub	a1,a5
    3698:	03800693          	li	a3,56
    369c:	0ab6ce63          	blt	a3,a1,3758 <__divdf3+0x694>
    36a0:	fff00613          	li	a2,-1
    36a4:	46fd                	c.li	a3,31
    36a6:	20b6d163          	bge	a3,a1,38a8 <__divdf3+0x7e4>
    36aa:	5685                	c.li	a3,-31
    36ac:	40f687b3          	sub	a5,a3,a5
    36b0:	00f757b3          	srl	a5,a4,a5
    36b4:	0005d8db          	beqc	a1,32,36c4 <__divdf3+0x600>
    36b8:	43ef8f93          	addi	t6,t6,1086
    36bc:	01f71733          	sll	a4,a4,t6
    36c0:	00e66633          	or	a2,a2,a4
    36c4:	00c03633          	snez	a2,a2
    36c8:	8e5d                	c.or	a2,a5
    36ca:	00767793          	andi	a5,a2,7
    36ce:	16078163          	beqz	a5,3830 <__divdf3+0x76c>
    36d2:	001e6e13          	ori	t3,t3,1
    36d6:	182edb5b          	beqc	t4,2,386c <__divdf3+0x7a8>
    36da:	163edd5b          	beqc	t4,3,3854 <__divdf3+0x790>
    36de:	4505                	c.li	a0,1
    36e0:	4701                	c.li	a4,0
    36e2:	120e9f63          	bnez	t4,3820 <__divdf3+0x75c>
    36e6:	4505                	c.li	a0,1
    36e8:	00000713          	li	a4,0
    36ec:	00f67793          	andi	a5,a2,15
    36f0:	b047d45b          	beqc	a5,4,35f8 <__divdf3+0x534>
    36f4:	00460793          	addi	a5,a2,4 # 80100004 <_DATA_LMA_START+0x600fab7c>
    36f8:	00c7b633          	sltu	a2,a5,a2
    36fc:	9732                	c.add	a4,a2
    36fe:	863e                	c.mv	a2,a5
    3700:	ef9ff06f          	j	35f8 <__divdf3+0x534>
    3704:	0cf05463          	blez	a5,37cc <__divdf3+0x708>
    3708:	001e6e13          	ori	t3,t3,1
    370c:	082ede5b          	beqc	t4,2,37a8 <__divdf3+0x6e4>
    3710:	063ede5b          	beqc	t4,3,378c <__divdf3+0x6c8>
    3714:	567d                	c.li	a2,-1
    3716:	d00e95e3          	bnez	t4,3420 <__divdf3+0x35c>
    371a:	56fd                	c.li	a3,-1
    371c:	f39ff06f          	j	3654 <__divdf3+0x590>
    3720:	86ae                	c.mv	a3,a1
    3722:	b179                	c.j	33b0 <__divdf3+0x2ec>
    3724:	8636                	c.mv	a2,a3
    3726:	b9b9                	c.j	3384 <__divdf3+0x2c0>
    3728:	9522                	c.add	a0,s0
    372a:	008536b3          	sltu	a3,a0,s0
    372e:	969a                	c.add	a3,t1
    3730:	97b6                	c.add	a5,a3
    3732:	1779                	c.addi	a4,-2
    3734:	c0dff06f          	j	3340 <__divdf3+0x27c>
    3738:	00141693          	slli	a3,s0,0x1
    373c:	0086b433          	sltu	s0,a3,s0
    3740:	9322                	c.add	t1,s0
    3742:	951a                	c.add	a0,t1
    3744:	1679                	c.addi	a2,-2
    3746:	8436                	c.mv	s0,a3
    3748:	cc9514e3          	bne	a0,s1,3410 <__divdf3+0x34c>
    374c:	cc8884e3          	beq	a7,s0,3414 <__divdf3+0x350>
    3750:	00166613          	ori	a2,a2,1
    3754:	cc1ff06f          	j	3414 <__divdf3+0x350>
    3758:	001e6e13          	ori	t3,t3,1
    375c:	01e03633          	snez	a2,t5
    3760:	b02edc5b          	beqc	t4,2,3678 <__divdf3+0x5b4>
    3764:	ffde8793          	addi	a5,t4,-3
    3768:	0017b793          	seqz	a5,a5
    376c:	001f3613          	seqz	a2,t5
    3770:	40f007b3          	neg	a5,a5
    3774:	8e7d                	c.and	a2,a5
    3776:	b709                	c.j	3678 <__divdf3+0x5b4>
    3778:	887a                	c.mv	a6,t5
    377a:	4781                	c.li	a5,0
    377c:	4681                	c.li	a3,0
    377e:	4601                	c.li	a2,0
    3780:	cf5ff06f          	j	3474 <__divdf3+0x3b0>
    3784:	de0f12e3          	bnez	t5,3568 <__divdf3+0x4a4>
    3788:	f01ff06f          	j	3688 <__divdf3+0x5c4>
    378c:	fff00613          	li	a2,-1
    3790:	4805                	c.li	a6,1
    3792:	c80f19e3          	bnez	t5,3424 <__divdf3+0x360>
    3796:	00860693          	addi	a3,a2,8
    379a:	00c6b633          	sltu	a2,a3,a2
    379e:	9732                	c.add	a4,a2
    37a0:	4801                	c.li	a6,0
    37a2:	8636                	c.mv	a2,a3
    37a4:	c81ff06f          	j	3424 <__divdf3+0x360>
    37a8:	fff00613          	li	a2,-1
    37ac:	4801                	c.li	a6,0
    37ae:	c60f0be3          	beqz	t5,3424 <__divdf3+0x360>
    37b2:	00860693          	addi	a3,a2,8
    37b6:	00c6b633          	sltu	a2,a3,a2
    37ba:	9732                	c.add	a4,a2
    37bc:	4805                	c.li	a6,1
    37be:	8636                	c.mv	a2,a3
    37c0:	c65ff06f          	j	3424 <__divdf3+0x360>
    37c4:	8636                	c.mv	a2,a3
    37c6:	f89503e3          	beq	a0,s1,374c <__divdf3+0x688>
    37ca:	b199                	c.j	3410 <__divdf3+0x34c>
    37cc:	ec0794e3          	bnez	a5,3694 <__divdf3+0x5d0>
    37d0:	001e6e13          	ori	t3,t3,1
    37d4:	0a2ede5b          	beqc	t4,2,3890 <__divdf3+0x7cc>
    37d8:	0a3ed05b          	beqc	t4,3,3878 <__divdf3+0x7b4>
    37dc:	0c0e8263          	beqz	t4,38a0 <__divdf3+0x7dc>
    37e0:	86ba                	c.mv	a3,a4
    37e2:	567d                	c.li	a2,-1
    37e4:	c0100f93          	li	t6,-1023
    37e8:	dd1ff06f          	j	35b8 <__divdf3+0x4f4>
    37ec:	887a                	c.mv	a6,t5
    37ee:	7ff00793          	li	a5,2047
    37f2:	4681                	c.li	a3,0
    37f4:	4601                	c.li	a2,0
    37f6:	b9bd                	c.j	3474 <__divdf3+0x3b0>
    37f8:	001e6e13          	ori	t3,t3,1
    37fc:	082ede5b          	beqc	t4,2,3898 <__divdf3+0x7d4>
    3800:	083ed05b          	beqc	t4,3,3880 <__divdf3+0x7bc>
    3804:	da0e9ae3          	bnez	t4,35b8 <__divdf3+0x4f4>
    3808:	00f67793          	andi	a5,a2,15
    380c:	9a47d65b          	beqc	a5,4,35b8 <__divdf3+0x4f4>
    3810:	ffc63793          	sltiu	a5,a2,-4
    3814:	0017c793          	xori	a5,a5,1
    3818:	86ba                	c.mv	a3,a4
    381a:	973e                	c.add	a4,a5
    381c:	d9dff06f          	j	35b8 <__divdf3+0x4f4>
    3820:	01d71793          	slli	a5,a4,0x1d
    3824:	820d                	c.srli	a2,0x3
    3826:	8e5d                	c.or	a2,a5
    3828:	583726db          	bfoz	a3,a4,22,3
    382c:	4781                	c.li	a5,0
    382e:	bbe9                	c.j	3608 <__divdf3+0x544>
    3830:	820d                	c.srli	a2,0x3
    3832:	887a                	c.mv	a6,t5
    3834:	4781                	c.li	a5,0
    3836:	4681                	c.li	a3,0
    3838:	dd9ff06f          	j	3610 <__divdf3+0x54c>
    383c:	eeb566e3          	bltu	a0,a1,3728 <__divdf3+0x664>
    3840:	874a                	c.mv	a4,s2
    3842:	4681                	c.li	a3,0
    3844:	b01ff06f          	j	3344 <__divdf3+0x280>
    3848:	ef1468e3          	bltu	s0,a7,3738 <__divdf3+0x674>
    384c:	8636                	c.mv	a2,a3
    384e:	f08891e3          	bne	a7,s0,3750 <__divdf3+0x68c>
    3852:	b6c9                	c.j	3414 <__divdf3+0x350>
    3854:	4505                	c.li	a0,1
    3856:	4701                	c.li	a4,0
    3858:	da0f10e3          	bnez	t5,35f8 <__divdf3+0x534>
    385c:	00860793          	addi	a5,a2,8
    3860:	00c7b633          	sltu	a2,a5,a2
    3864:	9732                	c.add	a4,a2
    3866:	863e                	c.mv	a2,a5
    3868:	d91ff06f          	j	35f8 <__divdf3+0x534>
    386c:	4505                	c.li	a0,1
    386e:	4701                	c.li	a4,0
    3870:	d80f04e3          	beqz	t5,35f8 <__divdf3+0x534>
    3874:	fe9ff06f          	j	385c <__divdf3+0x798>
    3878:	86ba                	c.mv	a3,a4
    387a:	c0100f93          	li	t6,-1023
    387e:	567d                	c.li	a2,-1
    3880:	d20f1ce3          	bnez	t5,35b8 <__divdf3+0x4f4>
    3884:	ff863793          	sltiu	a5,a2,-8
    3888:	0017c793          	xori	a5,a5,1
    388c:	973e                	c.add	a4,a5
    388e:	b32d                	c.j	35b8 <__divdf3+0x4f4>
    3890:	86ba                	c.mv	a3,a4
    3892:	c0100f93          	li	t6,-1023
    3896:	567d                	c.li	a2,-1
    3898:	d20f00e3          	beqz	t5,35b8 <__divdf3+0x4f4>
    389c:	fe9ff06f          	j	3884 <__divdf3+0x7c0>
    38a0:	c0100f93          	li	t6,-1023
    38a4:	567d                	c.li	a2,-1
    38a6:	b7ad                	c.j	3810 <__divdf3+0x74c>
    38a8:	86ba                	c.mv	a3,a4
    38aa:	4505                	c.li	a0,1
    38ac:	bb21                	c.j	35c4 <__divdf3+0x500>
	...

000038b0 <__muldf3>:
    38b0:	1101                	c.addi	sp,-32
    38b2:	ce22                	c.swsp	s0,28(sp)
    38b4:	cc26                	c.swsp	s1,24(sp)
    38b6:	ca4a                	c.swsp	s2,20(sp)
    38b8:	c84e                	c.swsp	s3,16(sp)
    38ba:	c652                	c.swsp	s4,12(sp)
    38bc:	c456                	c.swsp	s5,8(sp)
    38be:	c25a                	c.swsp	s6,4(sp)
    38c0:	00202373          	frrm	t1
    38c4:	7945a75b          	bfoz	a4,a1,30,20
    38c8:	4c05a7db          	bfoz	a5,a1,19,0
    38cc:	81fd                	c.srli	a1,0x1f
    38ce:	10070963          	beqz	a4,39e0 <__muldf3+0x130>
    38d2:	7ff00813          	li	a6,2047
    38d6:	07070963          	beq	a4,a6,3948 <__muldf3+0x98>
    38da:	00800837          	lui	a6,0x800
    38de:	078e                	c.slli	a5,0x3
    38e0:	01d55293          	srli	t0,a0,0x1d
    38e4:	0107e7b3          	or	a5,a5,a6
    38e8:	c0170e13          	addi	t3,a4,-1023 # ffeffc01 <_DATA_LMA_START+0xdfefa779>
    38ec:	00f2e2b3          	or	t0,t0,a5
    38f0:	050e                	c.slli	a0,0x3
    38f2:	4701                	c.li	a4,0
    38f4:	4381                	c.li	t2,0
    38f6:	4801                	c.li	a6,0
    38f8:	7946a8db          	bfoz	a7,a3,30,20
    38fc:	4c06a7db          	bfoz	a5,a3,19,0
    3900:	01f6d693          	srli	a3,a3,0x1f
    3904:	12088a63          	beqz	a7,3a38 <__muldf3+0x188>
    3908:	7ff00e93          	li	t4,2047
    390c:	17d88a63          	beq	a7,t4,3a80 <__muldf3+0x1d0>
    3910:	00800f37          	lui	t5,0x800
    3914:	078e                	c.slli	a5,0x3
    3916:	01d65e93          	srli	t4,a2,0x1d
    391a:	01e7e7b3          	or	a5,a5,t5
    391e:	c0188893          	addi	a7,a7,-1023 # 7ffffc01 <_DATA_LMA_START+0x5fffa779>
    3922:	00fee7b3          	or	a5,t4,a5
    3926:	060e                	c.slli	a2,0x3
    3928:	9e46                	c.add	t3,a7
    392a:	4f01                	c.li	t5,0
    392c:	48bd                	c.li	a7,15
    392e:	00d5ceb3          	xor	t4,a1,a3
    3932:	001e0f93          	addi	t6,t3,1
    3936:	16e8e363          	bltu	a7,a4,3a9c <__muldf3+0x1ec>
    393a:	0980188b          	addigp	a7,152 # 80898 <twooverpi.0+0x78>
    393e:	0ce8875b          	lea.w	a4,a7,a4
    3942:	4318                	c.lw	a4,0(a4)
    3944:	00070067          	jr	a4
    3948:	00a7e2b3          	or	t0,a5,a0
    394c:	32028263          	beqz	t0,3c70 <__muldf3+0x3c0>
    3950:	0137d713          	srli	a4,a5,0x13
    3954:	82be                	c.mv	t0,a5
    3956:	46070563          	beqz	a4,3dc0 <__muldf3+0x510>
    395a:	4731                	c.li	a4,12
    395c:	7ff00e13          	li	t3,2047
    3960:	438d                	c.li	t2,3
    3962:	4801                	c.li	a6,0
    3964:	f95ff06f          	j	38f8 <__muldf3+0x48>
    3968:	00d00eb3          	add	t4,zero,a3
    396c:	062f605b          	bnec	t5,2,39cc <__muldf3+0x11c>
    3970:	88f6                	c.mv	a7,t4
    3972:	7ff00713          	li	a4,2047
    3976:	4781                	c.li	a5,0
    3978:	00000613          	li	a2,0
    397c:	4581                	c.li	a1,0
    397e:	fff006b7          	lui	a3,0xfff00
    3982:	8eed                	c.and	a3,a1
    3984:	4c07a7db          	bfoz	a5,a5,19,0
    3988:	8fd5                	c.or	a5,a3
    398a:	01471693          	slli	a3,a4,0x14
    398e:	80100737          	lui	a4,0x80100
    3992:	177d                	c.addi	a4,-1
    3994:	8f7d                	c.and	a4,a5
    3996:	8f55                	c.or	a4,a3
    3998:	08fe                	c.slli	a7,0x1f
    399a:	7807275b          	bfoz	a4,a4,30,0
    399e:	8532                	c.mv	a0,a2
    39a0:	011765b3          	or	a1,a4,a7
    39a4:	3e081e63          	bnez	a6,3da0 <__muldf3+0x4f0>
    39a8:	4472                	c.lwsp	s0,28(sp)
    39aa:	44e2                	c.lwsp	s1,24(sp)
    39ac:	4952                	c.lwsp	s2,20(sp)
    39ae:	49c2                	c.lwsp	s3,16(sp)
    39b0:	4a32                	c.lwsp	s4,12(sp)
    39b2:	4aa2                	c.lwsp	s5,8(sp)
    39b4:	4b12                	c.lwsp	s6,4(sp)
    39b6:	6105                	c.addi16sp	sp,32
    39b8:	00008067          	ret
    39bc:	00b00eb3          	add	t4,zero,a1
    39c0:	8f1e                	c.mv	t5,t2
    39c2:	8796                	c.mv	a5,t0
    39c4:	00a00633          	add	a2,zero,a0
    39c8:	ba2f545b          	beqc	t5,2,3970 <__muldf3+0xc0>
    39cc:	363f525b          	beqc	t5,3,3d30 <__muldf3+0x480>
    39d0:	221f685b          	bnec	t5,1,3c00 <__muldf3+0x350>
    39d4:	88f6                	c.mv	a7,t4
    39d6:	4701                	c.li	a4,0
    39d8:	4781                	c.li	a5,0
    39da:	4601                	c.li	a2,0
    39dc:	fa1ff06f          	j	397c <__muldf3+0xcc>
    39e0:	00a7e2b3          	or	t0,a5,a0
    39e4:	28028063          	beqz	t0,3c64 <__muldf3+0x3b4>
    39e8:	af97877f          	clz32	a4,a5
    39ec:	00079663          	bnez	a5,39f8 <__muldf3+0x148>
    39f0:	af95077f          	clz32	a4,a0
    39f4:	02070713          	addi	a4,a4,32 # 80100020 <_DATA_LMA_START+0x600fab98>
    39f8:	ff570893          	addi	a7,a4,-11
    39fc:	4871                	c.li	a6,28
    39fe:	3b184b63          	blt	a6,a7,3db4 <__muldf3+0x504>
    3a02:	42f5                	c.li	t0,29
    3a04:	ff870813          	addi	a6,a4,-8
    3a08:	411282b3          	sub	t0,t0,a7
    3a0c:	005552b3          	srl	t0,a0,t0
    3a10:	010797b3          	sll	a5,a5,a6
    3a14:	00f2e2b3          	or	t0,t0,a5
    3a18:	01051533          	sll	a0,a0,a6
    3a1c:	c0d00e13          	li	t3,-1011
    3a20:	7946a8db          	bfoz	a7,a3,30,20
    3a24:	40ee0e33          	sub	t3,t3,a4
    3a28:	4c06a7db          	bfoz	a5,a3,19,0
    3a2c:	4701                	c.li	a4,0
    3a2e:	4381                	c.li	t2,0
    3a30:	4801                	c.li	a6,0
    3a32:	82fd                	c.srli	a3,0x1f
    3a34:	ec089ae3          	bnez	a7,3908 <__muldf3+0x58>
    3a38:	00c7e8b3          	or	a7,a5,a2
    3a3c:	24088263          	beqz	a7,3c80 <__muldf3+0x3d0>
    3a40:	af9788ff          	clz32	a7,a5
    3a44:	00079663          	bnez	a5,3a50 <__muldf3+0x1a0>
    3a48:	af9608ff          	clz32	a7,a2
    3a4c:	02088893          	addi	a7,a7,32
    3a50:	ff588f93          	addi	t6,a7,-11
    3a54:	4ef1                	c.li	t4,28
    3a56:	35fec963          	blt	t4,t6,3da8 <__muldf3+0x4f8>
    3a5a:	4ef5                	c.li	t4,29
    3a5c:	ff888f13          	addi	t5,a7,-8
    3a60:	41fe8eb3          	sub	t4,t4,t6
    3a64:	01d65eb3          	srl	t4,a2,t4
    3a68:	01e797b3          	sll	a5,a5,t5
    3a6c:	00fee7b3          	or	a5,t4,a5
    3a70:	01e61633          	sll	a2,a2,t5
    3a74:	411e0e33          	sub	t3,t3,a7
    3a78:	c0de0e13          	addi	t3,t3,-1011
    3a7c:	4f01                	c.li	t5,0
    3a7e:	b57d                	c.j	392c <__muldf3+0x7c>
    3a80:	00c7e8b3          	or	a7,a5,a2
    3a84:	7ffe0e13          	addi	t3,t3,2047
    3a88:	20088263          	beqz	a7,3c8c <__muldf3+0x3dc>
    3a8c:	00376713          	ori	a4,a4,3
    3a90:	4f0d                	c.li	t5,3
    3a92:	e937fd5b          	bbs	a5,19,392c <__muldf3+0x7c>
    3a96:	4841                	c.li	a6,16
    3a98:	e95ff06f          	j	392c <__muldf3+0x7c>
    3a9c:	6f41                	c.lui	t5,0x10
    3a9e:	ffff0713          	addi	a4,t5,-1 # ffff <BIN_SIZE+0xa1d1>
    3aa2:	00e678b3          	and	a7,a2,a4
    3aa6:	01055393          	srli	t2,a0,0x10
    3aaa:	031385b3          	mul	a1,t2,a7
    3aae:	8d79                	c.and	a0,a4
    3ab0:	01065913          	srli	s2,a2,0x10
    3ab4:	02a886b3          	mul	a3,a7,a0
    3ab8:	862e                	c.mv	a2,a1
    3aba:	c4a9167f          	maddr32	a2,s2,a0
    3abe:	03238733          	mul	a4,t2,s2
    3ac2:	0106d413          	srli	s0,a3,0x10
    3ac6:	9432                	c.add	s0,a2
    3ac8:	00b47463          	bgeu	s0,a1,3ad0 <__muldf3+0x220>
    3acc:	01e70733          	add	a4,a4,t5
    3ad0:	6b41                	c.lui	s6,0x10
    3ad2:	fffb0f13          	addi	t5,s6,-1 # ffff <BIN_SIZE+0xa1d1>
    3ad6:	01e7f5b3          	and	a1,a5,t5
    3ada:	02b38a33          	mul	s4,t2,a1
    3ade:	0107d993          	srli	s3,a5,0x10
    3ae2:	01e47633          	and	a2,s0,t5
    3ae6:	01e6f6b3          	and	a3,a3,t5
    3aea:	0642                	c.slli	a2,0x10
    3aec:	00d60f33          	add	t5,a2,a3
    3af0:	02b50ab3          	mul	s5,a0,a1
    3af4:	01045493          	srli	s1,s0,0x10
    3af8:	87d2                	c.mv	a5,s4
    3afa:	c4a997ff          	maddr32	a5,s3,a0
    3afe:	033383b3          	mul	t2,t2,s3
    3b02:	010ad693          	srli	a3,s5,0x10
    3b06:	96be                	c.add	a3,a5
    3b08:	0146f463          	bgeu	a3,s4,3b10 <__muldf3+0x260>
    3b0c:	016383b3          	add	t2,t2,s6
    3b10:	6b41                	c.lui	s6,0x10
    3b12:	fffb0413          	addi	s0,s6,-1 # ffff <BIN_SIZE+0xa1d1>
    3b16:	0102da13          	srli	s4,t0,0x10
    3b1a:	0082f7b3          	and	a5,t0,s0
    3b1e:	031a02b3          	mul	t0,s4,a7
    3b22:	0086f633          	and	a2,a3,s0
    3b26:	82c1                	c.srli	a3,0x10
    3b28:	93b6                	c.add	t2,a3
    3b2a:	0642                	c.slli	a2,0x10
    3b2c:	008afab3          	and	s5,s5,s0
    3b30:	02f888b3          	mul	a7,a7,a5
    3b34:	01560433          	add	s0,a2,s5
    3b38:	94a2                	c.add	s1,s0
    3b3a:	8696                	c.mv	a3,t0
    3b3c:	c4f916ff          	maddr32	a3,s2,a5
    3b40:	03490633          	mul	a2,s2,s4
    3b44:	0108d513          	srli	a0,a7,0x10
    3b48:	9536                	c.add	a0,a3
    3b4a:	00557363          	bgeu	a0,t0,3b50 <__muldf3+0x2a0>
    3b4e:	965a                	c.add	a2,s6
    3b50:	02ba0ab3          	mul	s5,s4,a1
    3b54:	6b41                	c.lui	s6,0x10
    3b56:	fffb0293          	addi	t0,s6,-1 # ffff <BIN_SIZE+0xa1d1>
    3b5a:	005576b3          	and	a3,a0,t0
    3b5e:	06c2                	c.slli	a3,0x10
    3b60:	0058f8b3          	and	a7,a7,t0
    3b64:	02b78933          	mul	s2,a5,a1
    3b68:	98b6                	c.add	a7,a3
    3b6a:	8141                	c.srli	a0,0x10
    3b6c:	9532                	c.add	a0,a2
    3b6e:	85d6                	c.mv	a1,s5
    3b70:	c4f995ff          	maddr32	a1,s3,a5
    3b74:	034982b3          	mul	t0,s3,s4
    3b78:	01095693          	srli	a3,s2,0x10
    3b7c:	00b687b3          	add	a5,a3,a1
    3b80:	0157f463          	bgeu	a5,s5,3b88 <__muldf3+0x2d8>
    3b84:	016282b3          	add	t0,t0,s6
    3b88:	65c1                	c.lui	a1,0x10
    3b8a:	15fd                	c.addi	a1,-1
    3b8c:	00b7f6b3          	and	a3,a5,a1
    3b90:	06c2                	c.slli	a3,0x10
    3b92:	00b975b3          	and	a1,s2,a1
    3b96:	9726                	c.add	a4,s1
    3b98:	96ae                	c.add	a3,a1
    3b9a:	00873633          	sltu	a2,a4,s0
    3b9e:	969e                	c.add	a3,t2
    3ba0:	9746                	c.add	a4,a7
    3ba2:	00c684b3          	add	s1,a3,a2
    3ba6:	011735b3          	sltu	a1,a4,a7
    3baa:	00a488b3          	add	a7,s1,a0
    3bae:	00b88433          	add	s0,a7,a1
    3bb2:	00c4b633          	sltu	a2,s1,a2
    3bb6:	0076b6b3          	sltu	a3,a3,t2
    3bba:	8ed1                	c.or	a3,a2
    3bbc:	00b435b3          	sltu	a1,s0,a1
    3bc0:	83c1                	c.srli	a5,0x10
    3bc2:	00a8b533          	sltu	a0,a7,a0
    3bc6:	97b6                	c.add	a5,a3
    3bc8:	8dc9                	c.or	a1,a0
    3bca:	00971613          	slli	a2,a4,0x9
    3bce:	97ae                	c.add	a5,a1
    3bd0:	9796                	c.add	a5,t0
    3bd2:	01e66633          	or	a2,a2,t5
    3bd6:	01745693          	srli	a3,s0,0x17
    3bda:	07a6                	c.slli	a5,0x9
    3bdc:	00c03633          	snez	a2,a2
    3be0:	835d                	c.srli	a4,0x17
    3be2:	8e59                	c.or	a2,a4
    3be4:	0426                	c.slli	s0,0x9
    3be6:	8fd5                	c.or	a5,a3
    3be8:	8e41                	c.or	a2,s0
    3bea:	1f87f15b          	bbc	a5,24,3dcc <__muldf3+0x51c>
    3bee:	00165713          	srli	a4,a2,0x1
    3bf2:	8a05                	c.andi	a2,1
    3bf4:	01f79693          	slli	a3,a5,0x1f
    3bf8:	8e59                	c.or	a2,a4
    3bfa:	8e55                	c.or	a2,a3
    3bfc:	0017d793          	srli	a5,a5,0x1
    3c00:	3fff8713          	addi	a4,t6,1023
    3c04:	0ae05263          	blez	a4,3ca8 <__muldf3+0x3f8>
    3c08:	00767693          	andi	a3,a2,7
    3c0c:	c685                	c.beqz	a3,3c34 <__muldf3+0x384>
    3c0e:	00186813          	ori	a6,a6,1
    3c12:	1c235f5b          	beqc	t1,2,3df0 <__muldf3+0x540>
    3c16:	2633535b          	beqc	t1,3,3e7c <__muldf3+0x5cc>
    3c1a:	00031d63          	bnez	t1,3c34 <__muldf3+0x384>
    3c1e:	00f67693          	andi	a3,a2,15
    3c22:	0046d95b          	beqc	a3,4,3c34 <__muldf3+0x384>
    3c26:	00460693          	addi	a3,a2,4
    3c2a:	00c6b633          	sltu	a2,a3,a2
    3c2e:	97b2                	c.add	a5,a2
    3c30:	00d00633          	add	a2,zero,a3
    3c34:	0187f85b          	bbc	a5,24,3c44 <__muldf3+0x394>
    3c38:	ff000737          	lui	a4,0xff000
    3c3c:	177d                	c.addi	a4,-1
    3c3e:	8ff9                	c.and	a5,a4
    3c40:	400f8713          	addi	a4,t6,1024
    3c44:	7fe00693          	li	a3,2046
