
RV_NN_Softmax_Benchmark.adx:     file format elf32-littleriscv
RV_NN_Softmax_Benchmark.adx
architecture: riscv:rv32, flags 0x00000112:
EXEC_P, HAS_SYMS, D_PAGED
start address 0x20000000

Program Header:
    LOAD off    0x00001000 vaddr 0x20000000 paddr 0x20000000 align 2**12
         filesz 0x0000018a memsz 0x0000018a flags r-x
    LOAD off    0x00002000 vaddr 0x00000000 paddr 0x20000190 align 2**12
         filesz 0x000001bc memsz 0x000001bc flags rwx
    LOAD off    0x00002200 vaddr 0x00000200 paddr 0x20000350 align 2**12
         filesz 0x00004c24 memsz 0x00004c24 flags r-x
    LOAD off    0x00007000 vaddr 0x00080000 paddr 0x20004f78 align 2**12
         filesz 0x00000d48 memsz 0x00000d84 flags rw-
    LOAD off    0x00007d88 vaddr 0x00080d88 paddr 0x20005cc0 align 2**12
         filesz 0x00000022 memsz 0x00000022 flags rw-
    LOAD off    0x00008d84 vaddr 0x00080d84 paddr 0x20005cfc align 2**12
         filesz 0x00000000 memsz 0x00000004 flags rw-
0x70000000 off    0x00015820 vaddr 0x00000000 paddr 0x00000000 align 2**0
         filesz 0x00000040 memsz 0x00000000 flags r--

Sections:
Idx Name          Size      VMA       LMA       File off  Algn
  0 .vectors      0000018a  20000000  20000000  00001000  2**2
                  CONTENTS, ALLOC, LOAD, READONLY, CODE
  1 .retention_reset 00000154  00000000  20000190  00002000  2**2
                  CONTENTS, ALLOC, LOAD, READONLY, CODE
  2 .retention_data 00000064  00000158  200002e8  00002158  2**2
                  CONTENTS, ALLOC, LOAD, DATA
  3 .ram_code     00004c24  00000200  20000350  00002200  2**8
                  CONTENTS, ALLOC, LOAD, READONLY, CODE
  4 .data         00000d48  00080000  20004f78  00007000  2**3
                  CONTENTS, ALLOC, LOAD, DATA
  5 .sbss         0000003c  00080d48  20005cc0  00007d48  2**2
                  ALLOC
  6 .bss          00000004  00080d84  20005cfc  00008d84  2**2
                  ALLOC
  7 .sdk_version  00000022  00080d88  20005cc0  00007d88  2**2
                  CONTENTS, ALLOC, LOAD, DATA
  8 .debug_info   00005267  00000000  00000000  00007daa  2**0
                  CONTENTS, READONLY, DEBUGGING
  9 .debug_abbrev 00000a1c  00000000  00000000  0000d011  2**0
                  CONTENTS, READONLY, DEBUGGING
 10 .debug_loc    000019bf  00000000  00000000  0000da2d  2**0
                  CONTENTS, READONLY, DEBUGGING
 11 .debug_aranges 000001a8  00000000  00000000  0000f3f0  2**3
                  CONTENTS, READONLY, DEBUGGING
 12 .debug_ranges 000008f0  00000000  00000000  0000f598  2**3
                  CONTENTS, READONLY, DEBUGGING
 13 .debug_line   00002fce  00000000  00000000  0000fe88  2**0
                  CONTENTS, READONLY, DEBUGGING
 14 .debug_str    00002981  00000000  00000000  00012e56  2**0
                  CONTENTS, READONLY, DEBUGGING
 15 .comment      00000049  00000000  00000000  000157d7  2**0
                  CONTENTS, READONLY
 16 .riscv.attributes 00000040  00000000  00000000  00015820  2**0
                  CONTENTS, READONLY
 17 .debug_frame  000004b8  00000000  00000000  00015860  2**2
                  CONTENTS, READONLY, DEBUGGING
SYMBOL TABLE:
20000000 l    d  .vectors	00000000 .vectors
00000000 l    d  .retention_reset	00000000 .retention_reset
00000158 l    d  .retention_data	00000000 .retention_data
00000200 l    d  .ram_code	00000000 .ram_code
00080000 l    d  .data	00000000 .data
00080d48 l    d  .sbss	00000000 .sbss
00080d84 l    d  .bss	00000000 .bss
00080d88 l    d  .sdk_version	00000000 .sdk_version
00000000 l    d  .debug_info	00000000 .debug_info
00000000 l    d  .debug_abbrev	00000000 .debug_abbrev
00000000 l    d  .debug_loc	00000000 .debug_loc
00000000 l    d  .debug_aranges	00000000 .debug_aranges
00000000 l    d  .debug_ranges	00000000 .debug_ranges
00000000 l    d  .debug_line	00000000 .debug_line
00000000 l    d  .debug_str	00000000 .debug_str
00000000 l    d  .comment	00000000 .comment
00000000 l    d  .riscv.attributes	00000000 .riscv.attributes
00000000 l    d  .debug_frame	00000000 .debug_frame
00000000 l    df *ABS*	00000000 ./boot/cstartup_flash.o
20000028 l       .vectors	00000000 _START
2000008e l       .vectors	00000000 _RETENTION_RESET_INIT
200000a6 l       .vectors	00000000 _RETENTION_RESET_BEGIN
200000b8 l       .vectors	00000000 _RETENTION_DATA_INIT
200000cc l       .vectors	00000000 _RETENTION_DATA_INIT_BEGIN
200000de l       .vectors	00000000 _RAMCODE_INIT
200000f6 l       .vectors	00000000 _RAMCODE_INIT_BEGIN
20000108 l       .vectors	00000000 _DATA_INIT
20000120 l       .vectors	00000000 _DATA_INIT_BEGIN
20000132 l       .vectors	00000000 _ZERO_BSS
20000146 l       .vectors	00000000 _ZERO_BSS_BEGIN
20000152 l       .vectors	00000000 _ZERO_AES
20000166 l       .vectors	00000000 _ZERO_AES_BEGIN
20000172 l       .vectors	00000000 _FILL_STK
20000172 l       .vectors	00000000 _MAIN_FUNC
20000188 l       .vectors	00000000 _END
00000022 l       .retention_reset	00000000 _ISTART
0000002a l       .retention_reset	00000000 _ISWS_USB_DIS
00000088 l       .retention_reset	00000000 _WAKEUP_FLASH
000000a2 l       .retention_reset	00000000 _MSPI_WAIT
000000bc l       .retention_reset	00000000 _WAIT_EFUSE_LOAD_AND_FLASH_WAKEUP_FINISH
000000c2 l       .retention_reset	00000000 _MULTI_ADDRESS_BEGIN
000000d2 l       .retention_reset	00000000 _IZERO_BSS
000000e6 l       .retention_reset	00000000 _IZERO_BSS_BEGIN
000000f2 l       .retention_reset	00000000 _IZERO_AES
00000106 l       .retention_reset	00000000 _IZERO_AES_BEGIN
00000112 l       .retention_reset	00000000 _IFILL_STK
00000112 l       .retention_reset	00000000 _IDATA_INIT
0000012a l       .retention_reset	00000000 _IDATA_INIT_BEGIN
0000013c l       .retention_reset	00000000 _IMAIN_FUNC
00000152 l       .retention_reset	00000000 _IEND
00000040 l       *ABS*	00000000 irqno
00000000 l    df *ABS*	00000000 
00000200 l     F .ram_code	00000020 delay_ms.constprop.13
0000140c l     F .ram_code	000000fc user_calib_adc_vref.constprop.9
00000220 l     F .ram_code	00000044 flash_send_addr
00000264 l     F .ram_code	00000048 flash_send_cmd
000002ac l     F .ram_code	00000060 clock_set_32k_tick
00001508 l     F .ram_code	0000018a validate.constprop.12
00001694 l     F .ram_code	00000076 validate_s16.lto_priv.14
00001694 l     F .ram_code	00000076 validate_s16.lto_priv.15
0000030c l     F .ram_code	0000004c analog_read_reg32.constprop.4
00000358 l     F .ram_code	00000024 clock_get_32k_tick
0000037c l     F .ram_code	00000094 pm_stimer_recover
00000410 l     F .ram_code	00000058 plic_exit_critical_sec
00000468 l     F .ram_code	00000060 plic_enter_critical_sec
000004c8 l     F .ram_code	00000180 flash_mspi_read_ram
00001204 l     F .ram_code	00000028 flash_read_uid.constprop.6
0000122c l     F .ram_code	00000028 flash_read_mid
00001254 l     F .ram_code	00000168 flash_read_mid_uid_with_check
00000648 l     F .ram_code	0000014c flash_mspi_read_ram.constprop.7
000013bc l     F .ram_code	00000020 flash_dread
00000794 l     F .ram_code	00000044 analog_write_reg8
000007d8 l     F .ram_code	0000004c analog_read_reg8
00000824 l     F .ram_code	00000140 clock_init_ram.constprop.11
000013dc l     F .ram_code	00000018 clock_init.constprop.10
0000170c l     F .ram_code	00000054 user_calib_freq_offset.constprop.8
00000964 l     F .ram_code	000000b4 pm_wait_bbpll_done
00000a18 l     F .ram_code	00000194 pm_sleep_start
00000bac l     F .ram_code	00000120 dr_putchar
00001764 l     F .ram_code	00000018 gpio_input_dis
00000ccc l     F .ram_code	0000030c pm_sleep_wakeup_ram.constprop.3
000013f4 l     F .ram_code	00000016 pm_sleep_wakeup.constprop.2
00000158 l     O .retention_data	00000004 flash_read_page
0000015c l     O .retention_data	00000001 g_pm_long_suspend
00000160 l     O .retention_data	00000004 g_pm_tick_cur
00000164 l     O .retention_data	00000029 pmcd
00000190 l     O .retention_data	00000004 g_pm_tick_32k_calib
00000194 l     O .retention_data	00000001 g_plic_preempt_en
00000198 l     O .retention_data	00000002 s_flash_preempt_config
0000019a l     O .retention_data	00000001 g_pm_suspend_power_cfg
0000019c l     O .retention_data	00000008 g_pm_early_wakeup_time_us
000001a4 l     O .retention_data	00000004 g_pm_tick_32k_cur
000001a8 l     O .retention_data	00000001 g_pm_tick_update_en
000001ac l     O .retention_data	00000004 g_pm_r_delay_cycle
000001b0 l     O .retention_data	00000008 g_pm_longsleep_early_wakeup_time_us
000803fc l     O .data	0000000a softmax_input
00080408 l     O .data	0000000a softmax_output_ref
00080414 l     O .data	00000402 softmax_s16_exp_lut
00080818 l     O .data	0000003c softmax_s16_input
00080854 l     O .data	00000402 softmax_s16_one_by_one_lut
00080c58 l     O .data	0000003c softmax_s16_output_ref
00080c94 l     O .data	00000018 softmax_s8_s16_input
00080cac l     O .data	00000030 softmax_s8_s16_output_ref
00080d48 l     O .sbss	00000004 exception_mcause
00080d4c l     O .sbss	00000004 exception_mdcause
00080d50 l     O .sbss	00000004 exception_mepc
00080d54 l     O .sbss	00000004 exception_mstatus
00080d58 l     O .sbss	00000004 exception_mtval
00080d5c l     O .sbss	00000004 g_chip_version
00080d60 l     O .sbss	00000004 g_pm_status_info
00080d64 l     O .sbss	00000004 stack_limit
00080d38 l     O .data	00000001 init_flag.4915
00080d3c l     O .data	00000006 sys_clk
00080d88 l     O .sdk_version	00000022 sdk_version
00000000 l    df *ABS*	00000000 riscv_softmax_s8_s16.c.o
00002074 l       .ram_code	00000000 $x
00000000 l    df *ABS*	00000000 riscv_softmax_s16.c.o
0000207c l       .ram_code	00000000 $x
00000000 l    df *ABS*	00000000 riscv_softmax_s8.c.o
0000226c l       .ram_code	00000000 $x
00000000 l    df *ABS*	00000000 riscv_nn_softmax_common_s8.c.o
00002274 l       .ram_code	00000000 $x
00000000 l    df *ABS*	00000000 malloc.c
00000000 l    df *ABS*	00000000 nano-mallocr.c
00000000 l    df *ABS*	00000000 nano-mallocr.c
00000000 l    df *ABS*	00000000 printf.c
00000000 l    df *ABS*	00000000 puts.c
00000000 l    df *ABS*	00000000 strlen.c
00000000 l    df *ABS*	00000000 vprintf.c
000041c0 l     F .ram_code	0000003a __vprintf_help
00080d70 l     O .sbss	00000004 __vprintf_buf
00080d74 l     O .sbss	00000004 __vprintf_buf_len
00000000 l    df *ABS*	00000000 printf_impl.c
00000000 l    df *ABS*	00000000 printf_impl_float.c
00000000 l    df *ABS*	00000000 strcpy.c
00000000 l    df *ABS*	00000000 strnlen.c
00000000 l    df *ABS*	00000000 _sbrk.c
00080d80 l     O .sbss	00000004 heap_end.2408
00000000 l    df *ABS*	00000000 libgcc2.c
00000000 l    df *ABS*	00000000 libgcc2.c
00000000 l    df *ABS*	00000000 printf_data.c
00000000 l    df *ABS*	00000000 impure.c
00080d84 l     O .bss	00000000 impure_data
0000206c  w      .ram_code	00000000 entry_irq55
0000206c  w      .ram_code	00000000 entry_irq13
00004bac g     F .ram_code	0000007c strcpy
0000206c  w      .ram_code	00000000 entry_irq15
00004c9c g     F .ram_code	0000002e .hidden __ashldi3
0000206c  w      .ram_code	00000000 entry_irq27
0000206c  w      .ram_code	00000000 entry_irq60
0000206c  w      .ram_code	00000000 entry_irq1
0000206c  w      .ram_code	00000000 entry_irq52
0000206c  w      .ram_code	00000000 entry_irq50
0000206c  w      .ram_code	00000000 entry_irq62
0000410c g     F .ram_code	0000001e printf
00080800 g       .data	00000000 __global_pointer$
00004cd4 g       .ram_code	00000000 .hidden __riscv_save_8
0000206c  w      .ram_code	00000000 entry_irq58
0000207c g     F .ram_code	000001f0 riscv_softmax_s16
00004d20 g       .ram_code	00000000 .hidden __riscv_restore_3
000001bc g       .retention_data	00000000 _RETENTION_DATA_VMA_END
00004d0c g       .ram_code	00000000 .hidden __riscv_restore_10
00004cd4 g       .ram_code	00000000 .hidden __riscv_save_11
00004246 g     F .ram_code	00000048 __print_integral
00000000 g       .retention_reset	00000000 _RETENTION_RESET_VMA_START
0000206c  w      .ram_code	00000000 entry_irq10
0000206c  w      .ram_code	00000000 entry_irq21
00000158 g       .retention_data	00000000 _AES_VMA_START
0000206c  w      .ram_code	00000000 entry_irq48
00004d20 g       .ram_code	00000000 .hidden __riscv_restore_2
0000206c  w      .ram_code	00000000 entry_irq8
0000206c  w      .ram_code	00000000 entry_irq33
00080d88 g       .bss	00000000 _BSS_VMA_END
20000190 g       *ABS*	00000000 _RETENTION_RESET_LMA_START
0000428e g     F .ram_code	00000470 __printf_impl
0000206c  w      .ram_code	00000000 entry_irq12
0000412a g     F .ram_code	00000034 puts
00003f04 g     F .ram_code	00000010 malloc
0000206c  w      .ram_code	00000000 entry_irq14
00002274 g     F .ram_code	00001c90 riscv_nn_softmax_common_s8
00004ccc g       .ram_code	00000000 .hidden __riscv_save_12
0000206c  w      .ram_code	00000000 entry_irq2
0000206c  w      .ram_code	00000000 entry_irq51
00004d0c g       .ram_code	00000000 .hidden __riscv_restore_11
0000206c  w      .ram_code	00000000 entry_irq28
0000206c  w      .ram_code	00000000 entry_irq43
00004cfc g       .ram_code	00000000 .hidden __riscv_save_1
00004d20 g       .ram_code	00000000 .hidden __riscv_restore_0
0000206c  w      .ram_code	00000000 entry_irq20
00004ce2 g       .ram_code	00000000 .hidden __riscv_save_7
00080d48 g       .sbss	00000000 _BSS_VMA_START
0000206c  w      .ram_code	00000000 entry_irq63
00080d48 g       .data	00000000 _DATA_VMA_END
0000206c  w      .ram_code	00000000 entry_irq46
0000206c  w      .ram_code	00000000 entry_irq31
0000206c  w      .ram_code	00000000 entry_irq16
00100000 g       *ABS*	00000000 FLASH_SIZE
00004d16 g       .ram_code	00000000 .hidden __riscv_restore_5
00080000 g       .data	00000000 _DATA_VMA_START
00004c42  w    F .ram_code	00000028 _sbrk
0000206c  w      .ram_code	00000000 entry_irq53
0000206c  w      .ram_code	00000000 entry_irq11
00000154 g       .retention_reset	00000000 _RETENTION_RESET_VMA_END
00004c2a g     F .ram_code	00000018 strnlen
00004d16 g       .ram_code	00000000 .hidden __riscv_restore_6
0000206c  w      .ram_code	00000000 entry_irq5
0000206c  w      .ram_code	00000000 entry_irq23
0000206e  w      .ram_code	00000000 trap_handler
0000206c  w      .ram_code	00000000 entry_irq34
00004c6c g     F .ram_code	0000002e .hidden __lshrdi3
0000206c  w      .ram_code	00000000 entry_irq36
00004cd4 g       .ram_code	00000000 .hidden __riscv_save_9
0000206c  w      .ram_code	00000000 entry_irq44
000041fa g     F .ram_code	0000004c vprintf
0000206c  w      .ram_code	00000000 entry_irq45
0000206c  w      .ram_code	00000000 entry_irq26
00004ce2 g       .ram_code	00000000 .hidden __riscv_save_4
0000206c  w      .ram_code	00000000 entry_irq41
0000206c  w      .ram_code	00000000 entry_irq61
20000000 g       .vectors	00000000 BIN_BEGIN
00003fcc g     F .ram_code	00000090 _free_r
00004cfc g       .ram_code	00000000 .hidden __riscv_save_3
0000206c  w      .ram_code	00000000 entry_irq38
00001100 g       .ram_code	00000000 __vectors
00005ce2 g       *ABS*	00000000 BIN_SIZE
00080d20 g     O .data	00000010 __digits
20000350 g       *ABS*	00000000 _RAMCODE_LMA_START
00080d7c g     O .sbss	00000004 __printf_count
0000206c  w      .ram_code	00000000 entry_irq59
00002074 g     F .ram_code	00000006 riscv_softmax_s8_s16
0000206c  w      .ram_code	00000000 entry_irq6
00004cd4 g       .ram_code	00000000 .hidden __riscv_save_10
00080d78 g     O .sbss	00000004 __mculib_REENT_errno
20004f78 g       *ABS*	00000000 _DATA_LMA_START
0000471c g     F .ram_code	00000090 __print_integral_poly
20000000 g       *ABS*	00000000 NDS_SAG_LMA_FLASH
00004d16 g       .ram_code	00000000 .hidden __riscv_restore_4
00004d0c g       .ram_code	00000000 .hidden __riscv_restore_8
00004ce2 g       .ram_code	00000000 .hidden __riscv_save_6
20000000  w      .vectors	00000000 _RELAX_END_
000047ac g     F .ram_code	000003fe __printf_float_impl
00003f24 g     F .ram_code	000000a8 memset
00004d0c g       .ram_code	00000000 .hidden __riscv_restore_9
00004d16 g       .ram_code	00000000 .hidden __riscv_restore_7
000017c8 g     F .ram_code	000008a4 main
0000206c g       .ram_code	00000000 default_irq_entry
0000206c  w      .ram_code	00000000 entry_irq3
00000fd8 g     F .ram_code	00000100 trap_entry
00000158 g       .retention_data	00000000 _AES_VMA_END
0000206c  w      .ram_code	00000000 entry_irq39
0000206c  w      .ram_code	00000000 entry_irq49
0000405c g     F .ram_code	000000b0 _malloc_r
0000206c  w      .ram_code	00000000 entry_irq57
0000206c  w      .ram_code	00000000 entry_irq47
200002e8 g       *ABS*	00000000 _RETENTION_DATA_LMA_START
20000000 g     F .vectors	00000000 _RESET_ENTRY
00000158 g       .retention_data	00000000 _RETENTION_DATA_VMA_START
0000206c  w      .ram_code	00000000 entry_irq4
000a0000 g       *ABS*	00000000 _STACK_TOP
0000206c  w      .ram_code	00000000 entry_irq22
0000206c  w      .ram_code	00000000 entry_irq30
00080d44 g     O .data	00000004 _impure_ptr
0000206c  w      .ram_code	00000000 entry_irq42
0000206c  w      .ram_code	00000000 entry_irq24
00004cfc g       .ram_code	00000000 .hidden __riscv_save_2
00004e24 g       .ram_code	00000000 _RAMCODE_VMA_END
00000000  w      *ABS*	00000000 _ITB_BASE_
00004ce2 g       .ram_code	00000000 .hidden __riscv_save_5
0000206c  w      .ram_code	00000000 entry_irq19
00001780 g     F .ram_code	00000048 _write
00080db0 g       .sdk_version	00000000 _end
0000206c  w      .ram_code	00000000 entry_irq17
0000206c  w      .ram_code	00000000 entry_irq9
0000206c  w      .ram_code	00000000 entry_irq56
0000206c  w      .ram_code	00000000 entry_irq35
0000206c  w      .ram_code	00000000 entry_irq37
000001b8 g     O .retention_data	00000004 g_pm_mspi_cfg
0000206c  w      .ram_code	00000000 entry_irq54
0000206c  w      .ram_code	00000000 entry_irq40
00004d08 g       .ram_code	00000000 .hidden __riscv_restore_12
00000200 g       .ram_code	00000000 _RAMCODE_VMA_START
00004cfc g       .ram_code	00000000 .hidden __riscv_save_0
00004160 g     F .ram_code	0000005e strlen
0000206c  w      .ram_code	00000000 entry_irq29
00080d6c g     O .sbss	00000004 __malloc_sbrk_start
00080d68 g     O .sbss	00000004 __malloc_free_list
00004d20 g       .ram_code	00000000 .hidden __riscv_restore_1
0000226c g     F .ram_code	00000006 riscv_softmax_s8
0000206c  w      .ram_code	00000000 entry_irq7
0000206c  w      .ram_code	00000000 entry_irq32
00000000 g     F .retention_reset	00000000 _IRESET_ENTRY
0000206c  w      .ram_code	00000000 entry_irq18
000046fe g     F .ram_code	0000001e __int_to_poly
00003f14 g     F .ram_code	00000010 free
0000206c  w      .ram_code	00000000 entry_irq25



Disassembly of section .vectors:

20000000 <_RESET_ENTRY>:
20000000:	a025                	c.j	20000028 <_START>
	...
20000016:	0000                	unimp
20000018:	5ce2                	c.lwsp	s9,56(sp)
2000001a:	0000                	unimp
2000001c:	0000                	unimp
2000001e:	0000                	unimp
20000020:	544c4e4b          	fnmsub.h	ft8,fs8,ft4,fa0,rmm
20000024:	0000                	unimp
20000026:	          	sllw	a4,zero,zero

20000028 <_START>:
20000028:	e0080197          	auipc	gp,0xe0080
2000002c:	7d818193          	addi	gp,gp,2008 # 80800 <__global_pointer$>
20000030:	801002b7          	lui	t0,0x80100
20000034:	70028293          	addi	t0,t0,1792 # 80100700 <_DATA_LMA_START+0x600fb788>
20000038:	04000313          	li	t1,64
2000003c:	506280a3          	sb	t1,1281(t0)
20000040:	e00a0297          	auipc	t0,0xe00a0
20000044:	fc028293          	addi	t0,t0,-64 # a0000 <_STACK_TOP>
20000048:	8116                	c.mv	sp,t0
2000004a:	e0000297          	auipc	t0,0xe0000
2000004e:	fb628293          	addi	t0,t0,-74 # 0 <_ITB_BASE_>
20000052:	80029073          	csrw	uitb,t0
20000056:	6299                	c.lui	t0,0x6
20000058:	3002a2f3          	csrrs	t0,mstatus,t0
2000005c:	00301073          	fssr	zero
20000060:	e0001297          	auipc	t0,0xe0001
20000064:	0a028293          	addi	t0,t0,160 # 1100 <__vectors>
20000068:	30529073          	csrw	mtvec,t0
2000006c:	7d016073          	csrsi	mmisc_ctl,2
20000070:	e40002b7          	lui	t0,0xe4000
20000074:	4309                	c.li	t1,2
20000076:	0062a023          	sw	t1,0(t0) # e4000000 <_DATA_LMA_START+0xc3ffb088>
2000007a:	7ca022f3          	csrr	t0,mcache_ctl
2000007e:	0012e293          	ori	t0,t0,1
20000082:	0022e293          	ori	t0,t0,2
20000086:	7ca29073          	csrw	mcache_ctl,t0
2000008a:	0000100f          	fence.i

2000008e <_RETENTION_RESET_INIT>:
2000008e:	00000317          	auipc	t1,0x0
20000092:	10230313          	addi	t1,t1,258 # 20000190 <_RETENTION_RESET_LMA_START>
20000096:	e0000397          	auipc	t2,0xe0000
2000009a:	f6a38393          	addi	t2,t2,-150 # 0 <_ITB_BASE_>
2000009e:	e0000e17          	auipc	t3,0xe0000
200000a2:	0b6e0e13          	addi	t3,t3,182 # 154 <_RETENTION_RESET_VMA_END>

200000a6 <_RETENTION_RESET_BEGIN>:
200000a6:	01c3f963          	bgeu	t2,t3,200000b8 <_RETENTION_DATA_INIT>
200000aa:	00032283          	lw	t0,0(t1)
200000ae:	0053a023          	sw	t0,0(t2)
200000b2:	0311                	c.addi	t1,4
200000b4:	0391                	c.addi	t2,4
200000b6:	bfc5                	c.j	200000a6 <_RETENTION_RESET_BEGIN>

200000b8 <_RETENTION_DATA_INIT>:
200000b8:	00000317          	auipc	t1,0x0
200000bc:	23030313          	addi	t1,t1,560 # 200002e8 <_RETENTION_DATA_LMA_START>
200000c0:	15800393          	li	t2,344
200000c4:	e0000e17          	auipc	t3,0xe0000
200000c8:	0f8e0e13          	addi	t3,t3,248 # 1bc <_RETENTION_DATA_VMA_END>

200000cc <_RETENTION_DATA_INIT_BEGIN>:
200000cc:	01c3f963          	bgeu	t2,t3,200000de <_RAMCODE_INIT>
200000d0:	00032283          	lw	t0,0(t1)
200000d4:	0053a023          	sw	t0,0(t2)
200000d8:	0311                	c.addi	t1,4
200000da:	0391                	c.addi	t2,4
200000dc:	bfc5                	c.j	200000cc <_RETENTION_DATA_INIT_BEGIN>

200000de <_RAMCODE_INIT>:
200000de:	00000317          	auipc	t1,0x0
200000e2:	27230313          	addi	t1,t1,626 # 20000350 <_RAMCODE_LMA_START>
200000e6:	e0000397          	auipc	t2,0xe0000
200000ea:	11a38393          	addi	t2,t2,282 # 200 <delay_ms.constprop.13>
200000ee:	e0005e17          	auipc	t3,0xe0005
200000f2:	d36e0e13          	addi	t3,t3,-714 # 4e24 <_RAMCODE_VMA_END>

200000f6 <_RAMCODE_INIT_BEGIN>:
200000f6:	01c3f963          	bgeu	t2,t3,20000108 <_DATA_INIT>
200000fa:	00032283          	lw	t0,0(t1)
200000fe:	0053a023          	sw	t0,0(t2)
20000102:	0311                	c.addi	t1,4
20000104:	0391                	c.addi	t2,4
20000106:	bfc5                	c.j	200000f6 <_RAMCODE_INIT_BEGIN>

20000108 <_DATA_INIT>:
20000108:	00005317          	auipc	t1,0x5
2000010c:	e7030313          	addi	t1,t1,-400 # 20004f78 <_DATA_LMA_START>
20000110:	e0080397          	auipc	t2,0xe0080
20000114:	ef038393          	addi	t2,t2,-272 # 80000 <_DATA_VMA_START>
20000118:	e0081e17          	auipc	t3,0xe0081
2000011c:	c30e0e13          	addi	t3,t3,-976 # 80d48 <_DATA_VMA_END>

20000120 <_DATA_INIT_BEGIN>:
20000120:	01c3f963          	bgeu	t2,t3,20000132 <_ZERO_BSS>
20000124:	00032283          	lw	t0,0(t1)
20000128:	0053a023          	sw	t0,0(t2)
2000012c:	0311                	c.addi	t1,4
2000012e:	0391                	c.addi	t2,4
20000130:	bfc5                	c.j	20000120 <_DATA_INIT_BEGIN>

20000132 <_ZERO_BSS>:
20000132:	000002b7          	lui	t0,0x0
20000136:	e0081397          	auipc	t2,0xe0081
2000013a:	c1238393          	addi	t2,t2,-1006 # 80d48 <_DATA_VMA_END>
2000013e:	e0081e17          	auipc	t3,0xe0081
20000142:	c4ae0e13          	addi	t3,t3,-950 # 80d88 <_BSS_VMA_END>

20000146 <_ZERO_BSS_BEGIN>:
20000146:	01c3f663          	bgeu	t2,t3,20000152 <_ZERO_AES>
2000014a:	0053a023          	sw	t0,0(t2)
2000014e:	0391                	c.addi	t2,4
20000150:	bfdd                	c.j	20000146 <_ZERO_BSS_BEGIN>

20000152 <_ZERO_AES>:
20000152:	000002b7          	lui	t0,0x0
20000156:	e0000397          	auipc	t2,0xe0000
2000015a:	00238393          	addi	t2,t2,2 # 158 <_AES_VMA_END>
2000015e:	e0000e17          	auipc	t3,0xe0000
20000162:	ffae0e13          	addi	t3,t3,-6 # 158 <_AES_VMA_END>

20000166 <_ZERO_AES_BEGIN>:
20000166:	01c3f663          	bgeu	t2,t3,20000172 <_FILL_STK>
2000016a:	0053a023          	sw	t0,0(t2)
2000016e:	0391                	c.addi	t2,4
20000170:	bfdd                	c.j	20000166 <_ZERO_AES_BEGIN>

20000172 <_FILL_STK>:
20000172:	0001                	c.nop
20000174:	e0001297          	auipc	t0,0xe0001
20000178:	65428293          	addi	t0,t0,1620 # 17c8 <main>
2000017c:	9282                	c.jalr	t0
2000017e:	0001                	c.nop
20000180:	0001                	c.nop
20000182:	0001                	c.nop
20000184:	0001                	c.nop
20000186:	0001                	c.nop

20000188 <_END>:
20000188:	a001                	c.j	20000188 <_END>

Disassembly of section .retention_reset:

00000000 <_IRESET_ENTRY>:
   0:	a00d                	c.j	22 <_ISTART>
	...

00000022 <_ISTART>:
  22:	00080197          	auipc	gp,0x80
  26:	7de18193          	addi	gp,gp,2014 # 80800 <__global_pointer$>

0000002a <_ISWS_USB_DIS>:
  2a:	801002b7          	lui	t0,0x80100
  2e:	70028293          	addi	t0,t0,1792 # 80100700 <_DATA_LMA_START+0x600fb788>
  32:	04000313          	li	t1,64
  36:	506280a3          	sb	t1,1281(t0)
  3a:	000a0297          	auipc	t0,0xa0
  3e:	fc628293          	addi	t0,t0,-58 # a0000 <_STACK_TOP>
  42:	8116                	c.mv	sp,t0
  44:	00000297          	auipc	t0,0x0
  48:	fbc28293          	addi	t0,t0,-68 # 0 <_IRESET_ENTRY>
  4c:	80029073          	csrw	uitb,t0
  50:	6299                	c.lui	t0,0x6
  52:	3002a2f3          	csrrs	t0,mstatus,t0
  56:	00301073          	fssr	zero
  5a:	00001297          	auipc	t0,0x1
  5e:	0a628293          	addi	t0,t0,166 # 1100 <__vectors>
  62:	30529073          	csrw	mtvec,t0
  66:	7d016073          	csrsi	mmisc_ctl,2
  6a:	e40002b7          	lui	t0,0xe4000
  6e:	4309                	c.li	t1,2
  70:	0062a023          	sw	t1,0(t0) # e4000000 <_DATA_LMA_START+0xc3ffb088>
  74:	7ca022f3          	csrr	t0,mcache_ctl
  78:	0012e293          	ori	t0,t0,1
  7c:	0022e293          	ori	t0,t0,2
  80:	7ca29073          	csrw	mcache_ctl,t0
  84:	0000100f          	fence.i

00000088 <_WAKEUP_FLASH>:
  88:	801402b7          	lui	t0,0x80140
  8c:	0ff00313          	li	t1,255
  90:	4381                	c.li	t2,0
  92:	0ab00e13          	li	t3,171
  96:	326284a3          	sb	t1,809(t0) # 80140329 <_DATA_LMA_START+0x6013b3b1>
  9a:	107280a3          	sb	t2,257(t0)
  9e:	11c28023          	sb	t3,256(t0)

000000a2 <_MSPI_WAIT>:
  a2:	801402b7          	lui	t0,0x80140
  a6:	10228383          	lb	t2,258(t0) # 80140102 <_DATA_LMA_START+0x6013b18a>
  aa:	4e05                	c.li	t3,1
  ac:	4ec1                	c.li	t4,16
  ae:	fe7e0ae3          	beq	t3,t2,a2 <_MSPI_WAIT>
  b2:	11d280a3          	sb	t4,257(t0)
  b6:	4281                	c.li	t0,0
  b8:	14000313          	li	t1,320

000000bc <_WAIT_EFUSE_LOAD_AND_FLASH_WAKEUP_FINISH>:
  bc:	0285                	c.addi	t0,1
  be:	fe537fe3          	bgeu	t1,t0,bc <_WAIT_EFUSE_LOAD_AND_FLASH_WAKEUP_FINISH>

000000c2 <_MULTI_ADDRESS_BEGIN>:
  c2:	801402b7          	lui	t0,0x80140
  c6:	1b800313          	li	t1,440
  ca:	00032383          	lw	t2,0(t1)
  ce:	1072a223          	sw	t2,260(t0) # 80140104 <_DATA_LMA_START+0x6013b18c>

000000d2 <_IZERO_BSS>:
  d2:	000002b7          	lui	t0,0x0
  d6:	00081397          	auipc	t2,0x81
  da:	c7238393          	addi	t2,t2,-910 # 80d48 <_DATA_VMA_END>
  de:	00081e17          	auipc	t3,0x81
  e2:	caae0e13          	addi	t3,t3,-854 # 80d88 <_BSS_VMA_END>

000000e6 <_IZERO_BSS_BEGIN>:
  e6:	01c3f663          	bgeu	t2,t3,f2 <_IZERO_AES>
  ea:	0053a023          	sw	t0,0(t2)
  ee:	0391                	c.addi	t2,4
  f0:	bfdd                	c.j	e6 <_IZERO_BSS_BEGIN>

000000f2 <_IZERO_AES>:
  f2:	000002b7          	lui	t0,0x0
  f6:	00000397          	auipc	t2,0x0
  fa:	06238393          	addi	t2,t2,98 # 158 <_AES_VMA_END>
  fe:	00000e17          	auipc	t3,0x0
 102:	05ae0e13          	addi	t3,t3,90 # 158 <_AES_VMA_END>

00000106 <_IZERO_AES_BEGIN>:
 106:	01c3f663          	bgeu	t2,t3,112 <_IDATA_INIT>
 10a:	0053a023          	sw	t0,0(t2)
 10e:	0391                	c.addi	t2,4
 110:	bfdd                	c.j	106 <_IZERO_AES_BEGIN>

00000112 <_IDATA_INIT>:
 112:	20005317          	auipc	t1,0x20005
 116:	e6630313          	addi	t1,t1,-410 # 20004f78 <_DATA_LMA_START>
 11a:	00080397          	auipc	t2,0x80
 11e:	ee638393          	addi	t2,t2,-282 # 80000 <_DATA_VMA_START>
 122:	00081e17          	auipc	t3,0x81
 126:	c26e0e13          	addi	t3,t3,-986 # 80d48 <_DATA_VMA_END>

0000012a <_IDATA_INIT_BEGIN>:
 12a:	01c3f963          	bgeu	t2,t3,13c <_IMAIN_FUNC>
 12e:	00032283          	lw	t0,0(t1)
 132:	0053a023          	sw	t0,0(t2)
 136:	0311                	c.addi	t1,4
 138:	0391                	c.addi	t2,4
 13a:	bfc5                	c.j	12a <_IDATA_INIT_BEGIN>

0000013c <_IMAIN_FUNC>:
 13c:	0001                	c.nop
 13e:	00001297          	auipc	t0,0x1
 142:	68a28293          	addi	t0,t0,1674 # 17c8 <main>
 146:	9282                	c.jalr	t0
 148:	0001                	c.nop
 14a:	0001                	c.nop
 14c:	0001                	c.nop
 14e:	0001                	c.nop
 150:	0001                	c.nop

00000152 <_IEND>:
 152:	a001                	c.j	152 <_IEND>

Disassembly of section .ram_code:

00000200 <delay_ms.constprop.13>:
     200:	801407b7          	lui	a5,0x80140
     204:	0004e737          	lui	a4,0x4e
     208:	2007a603          	lw	a2,512(a5) # 80140200 <_DATA_LMA_START+0x6013b288>
     20c:	801406b7          	lui	a3,0x80140
     210:	20070713          	addi	a4,a4,512 # 4e200 <BIN_SIZE+0x4851e>
     214:	2006a783          	lw	a5,512(a3) # 80140200 <_DATA_LMA_START+0x6013b288>
     218:	8f91                	c.sub	a5,a2
     21a:	fef77de3          	bgeu	a4,a5,214 <delay_ms.constprop.13+0x14>
     21e:	8082                	c.jr	ra

00000220 <flash_send_addr>:
     220:	5d05275b          	bfoz	a4,a0,23,16
     224:	801407b7          	lui	a5,0x80140
     228:	801406b7          	lui	a3,0x80140
     22c:	10e78023          	sb	a4,256(a5) # 80140100 <_DATA_LMA_START+0x6013b188>
     230:	10268783          	lb	a5,258(a3) # 80140102 <_DATA_LMA_START+0x6013b18a>
     234:	fe07fe5b          	bbs	a5,0,230 <flash_send_addr+0x10>
     238:	3c8527db          	bfoz	a5,a0,15,8
     23c:	80140737          	lui	a4,0x80140
     240:	10f68023          	sb	a5,256(a3)
     244:	10270783          	lb	a5,258(a4) # 80140102 <_DATA_LMA_START+0x6013b18a>
     248:	fe07fe5b          	bbs	a5,0,244 <flash_send_addr+0x24>
     24c:	0ff57513          	andi	a0,a0,255
     250:	801406b7          	lui	a3,0x80140
     254:	10a70023          	sb	a0,256(a4)
     258:	10268783          	lb	a5,258(a3) # 80140102 <_DATA_LMA_START+0x6013b18a>
     25c:	fe07fe5b          	bbs	a5,0,258 <flash_send_addr+0x38>
     260:	00008067          	ret

00000264 <flash_send_cmd>:
     264:	801407b7          	lui	a5,0x80140
     268:	10178703          	lb	a4,257(a5) # 80140101 <_DATA_LMA_START+0x6013b189>
     26c:	0ff77713          	andi	a4,a4,255
     270:	01076713          	ori	a4,a4,16
     274:	10e780a3          	sb	a4,257(a5)
     278:	0001                	c.nop
     27a:	0001                	c.nop
     27c:	0001                	c.nop
     27e:	0001                	c.nop
     280:	0001                	c.nop
     282:	0001                	c.nop
     284:	0001                	c.nop
     286:	0001                	c.nop
     288:	0001                	c.nop
     28a:	0001                	c.nop
     28c:	10178683          	lb	a3,257(a5)
     290:	80140737          	lui	a4,0x80140
     294:	0ef6f693          	andi	a3,a3,239
     298:	10d780a3          	sb	a3,257(a5)
     29c:	10a78023          	sb	a0,256(a5)
     2a0:	10270783          	lb	a5,258(a4) # 80140102 <_DATA_LMA_START+0x6013b18a>
     2a4:	fe07fe5b          	bbs	a5,0,2a0 <flash_send_cmd+0x3c>
     2a8:	00008067          	ret

000002ac <clock_set_32k_tick>:
     2ac:	801406b7          	lui	a3,0x80140
     2b0:	20a68783          	lb	a5,522(a3) # 8014020a <_DATA_LMA_START+0x6013b292>
     2b4:	80140737          	lui	a4,0x80140
     2b8:	0ff7f793          	andi	a5,a5,255
     2bc:	0017e793          	ori	a5,a5,1
     2c0:	20f68523          	sb	a5,522(a3)
     2c4:	20b70683          	lb	a3,523(a4) # 8014020b <_DATA_LMA_START+0x6013b293>
     2c8:	20b70793          	addi	a5,a4,523
     2cc:	fe66fc5b          	bbs	a3,6,2c4 <clock_set_32k_tick+0x18>
     2d0:	20a72623          	sw	a0,524(a4)
     2d4:	4721                	c.li	a4,8
     2d6:	00e78023          	sb	a4,0(a5)
     2da:	0001                	c.nop
     2dc:	0001                	c.nop
     2de:	0001                	c.nop
     2e0:	0001                	c.nop
     2e2:	0001                	c.nop
     2e4:	0001                	c.nop
     2e6:	0001                	c.nop
     2e8:	0001                	c.nop
     2ea:	0001                	c.nop
     2ec:	0001                	c.nop
     2ee:	0001                	c.nop
     2f0:	0001                	c.nop
     2f2:	0001                	c.nop
     2f4:	0001                	c.nop
     2f6:	0001                	c.nop
     2f8:	00000013          	nop
     2fc:	801407b7          	lui	a5,0x80140
     300:	20b78703          	lb	a4,523(a5) # 8014020b <_DATA_LMA_START+0x6013b293>
     304:	fe377e5b          	bbs	a4,3,300 <clock_set_32k_tick+0x54>
     308:	00008067          	ret

0000030c <analog_read_reg32.constprop.4>:
     30c:	300027f3          	csrr	a5,mstatus
     310:	8ba1                	c.andi	a5,8
     312:	c789                	c.beqz	a5,31c <analog_read_reg32.constprop.4+0x10>
     314:	30047773          	csrrci	a4,mstatus,8
     318:	0ff0000f          	fence
     31c:	80140737          	lui	a4,0x80140
     320:	00400693          	li	a3,4
     324:	18d701a3          	sb	a3,387(a4) # 80140183 <_DATA_LMA_START+0x6013b20b>
     328:	06000693          	li	a3,96
     32c:	18d70023          	sb	a3,384(a4)
     330:	04000613          	li	a2,64
     334:	801406b7          	lui	a3,0x80140
     338:	18c70123          	sb	a2,386(a4)
     33c:	18268703          	lb	a4,386(a3) # 80140182 <_DATA_LMA_START+0x6013b20a>
     340:	fe777e5b          	bbs	a4,7,33c <analog_read_reg32.constprop.4+0x30>
     344:	1846a503          	lw	a0,388(a3)
     348:	00078663          	beqz	a5,354 <analog_read_reg32.constprop.4+0x48>
     34c:	3007a7f3          	csrrs	a5,mstatus,a5
     350:	0ff0000f          	fence
     354:	00008067          	ret

00000358 <clock_get_32k_tick>:
     358:	1141                	c.addi	sp,-16
     35a:	c422                	c.swsp	s0,8(sp)
     35c:	c606                	c.swsp	ra,12(sp)
     35e:	377d                	c.jal	30c <analog_read_reg32.constprop.4>
     360:	00a00433          	add	s0,zero,a0
     364:	fa9ff0ef          	jal	ra,30c <analog_read_reg32.constprop.4>
     368:	40850733          	sub	a4,a0,s0
     36c:	842a                	c.mv	s0,a0
     36e:	be176b5b          	bnec	a4,1,364 <clock_get_32k_tick+0xc>
     372:	40b2                	c.lwsp	ra,12(sp)
     374:	4422                	c.lwsp	s0,8(sp)
     376:	0141                	c.addi	sp,16
     378:	00008067          	ret

0000037c <pm_stimer_recover>:
     37c:	1141                	c.addi	sp,-16
     37e:	80140737          	lui	a4,0x80140
     382:	c606                	c.swsp	ra,12(sp)
     384:	4789                	c.li	a5,2
     386:	20f70c23          	sb	a5,536(a4) # 80140218 <_DATA_LMA_START+0x6013b2a0>
     38a:	20a70783          	lb	a5,522(a4)
     38e:	0ff7f793          	andi	a5,a5,255
     392:	00c7e793          	ori	a5,a5,12
     396:	20f70523          	sb	a5,522(a4)
     39a:	3f7d                	c.jal	358 <clock_get_32k_tick>
     39c:	000007b7          	lui	a5,0x0
     3a0:	15878713          	addi	a4,a5,344 # 158 <_AES_VMA_END>
     3a4:	00474703          	lbu	a4,4(a4)
     3a8:	15878793          	addi	a5,a5,344
     3ac:	cf01                	c.beqz	a4,3c4 <pm_stimer_recover+0x48>
     3ae:	4b98                	c.lw	a4,16(a5)
     3b0:	5f90                	c.lw	a2,56(a5)
     3b2:	40e50733          	sub	a4,a0,a4
     3b6:	47d4                	c.lw	a3,12(a5)
     3b8:	0705                	c.addi	a4,1
     3ba:	8315                	c.srli	a4,0x5
     3bc:	c4c716ff          	maddr32	a3,a4,a2
     3c0:	c794                	c.sw	a3,8(a5)
     3c2:	a829                	c.j	3dc <pm_stimer_recover+0x60>
     3c4:	4b98                	c.lw	a4,16(a5)
     3c6:	5f94                	c.lw	a3,56(a5)
     3c8:	40e50733          	sub	a4,a0,a4
     3cc:	0705                	c.addi	a4,1
     3ce:	02d70733          	mul	a4,a4,a3
     3d2:	47d4                	c.lw	a3,12(a5)
     3d4:	8315                	c.srli	a4,0x5
     3d6:	9736                	c.add	a4,a3
     3d8:	00e7a423          	sw	a4,8(a5)
     3dc:	4b98                	c.lw	a4,16(a5)
     3de:	4794                	c.lw	a3,8(a5)
     3e0:	40e50733          	sub	a4,a0,a4
     3e4:	0705                	c.addi	a4,1
     3e6:	0505                	c.addi	a0,1
     3e8:	0685                	c.addi	a3,1
     3ea:	d788                	c.sw	a0,40(a5)
     3ec:	02e7a223          	sw	a4,36(a5)
     3f0:	80140637          	lui	a2,0x80140
     3f4:	801407b7          	lui	a5,0x80140
     3f8:	20d7a023          	sw	a3,512(a5) # 80140200 <_DATA_LMA_START+0x6013b288>
     3fc:	20b60783          	lb	a5,523(a2) # 8014020b <_DATA_LMA_START+0x6013b293>
     400:	be77fe5b          	bbc	a5,7,3fc <pm_stimer_recover+0x80>
     404:	20060c23          	sb	zero,536(a2)
     408:	40b2                	c.lwsp	ra,12(sp)
     40a:	0141                	c.addi	sp,16
     40c:	00008067          	ret

00000410 <plic_exit_critical_sec>:
     410:	000007b7          	lui	a5,0x0
     414:	15878793          	addi	a5,a5,344 # 158 <_AES_VMA_END>
     418:	03c78783          	lb	a5,60(a5)
     41c:	0ff7f793          	andi	a5,a5,255
     420:	c795                	c.beqz	a5,44c <plic_exit_critical_sec+0x3c>
     422:	c50d                	c.beqz	a0,44c <plic_exit_critical_sec+0x3c>
     424:	300027f3          	csrr	a5,mstatus
     428:	8ba1                	c.andi	a5,8
     42a:	0ff5f593          	andi	a1,a1,255
     42e:	c78d                	c.beqz	a5,458 <plic_exit_critical_sec+0x48>
     430:	30047773          	csrrci	a4,mstatus,8
     434:	0ff0000f          	fence
     438:	e4200737          	lui	a4,0xe4200
     43c:	c30c                	c.sw	a1,0(a4)
     43e:	0ff0000f          	fence
     442:	3007a7f3          	csrrs	a5,mstatus,a5
     446:	0ff0000f          	fence
     44a:	8082                	c.jr	ra
     44c:	cd81                	c.beqz	a1,464 <plic_exit_critical_sec+0x54>
     44e:	3005a5f3          	csrrs	a1,mstatus,a1
     452:	0ff0000f          	fence
     456:	8082                	c.jr	ra
     458:	e42007b7          	lui	a5,0xe4200
     45c:	00b7a023          	sw	a1,0(a5) # e4200000 <_DATA_LMA_START+0xc41fb088>
     460:	0ff0000f          	fence
     464:	00008067          	ret

00000468 <plic_enter_critical_sec>:
     468:	000007b7          	lui	a5,0x0
     46c:	15878793          	addi	a5,a5,344 # 158 <_AES_VMA_END>
     470:	03c78783          	lb	a5,60(a5)
     474:	0ff7f793          	andi	a5,a5,255
     478:	cb85                	c.beqz	a5,4a8 <plic_enter_critical_sec+0x40>
     47a:	c51d                	c.beqz	a0,4a8 <plic_enter_critical_sec+0x40>
     47c:	e4200737          	lui	a4,0xe4200
     480:	4308                	c.lw	a0,0(a4)
     482:	04b57163          	bgeu	a0,a1,4c4 <plic_enter_critical_sec+0x5c>
     486:	300027f3          	csrr	a5,mstatus
     48a:	8ba1                	c.andi	a5,8
     48c:	cb85                	c.beqz	a5,4bc <plic_enter_critical_sec+0x54>
     48e:	300476f3          	csrrci	a3,mstatus,8
     492:	0ff0000f          	fence
     496:	c30c                	c.sw	a1,0(a4)
     498:	0ff0000f          	fence
     49c:	3007a7f3          	csrrs	a5,mstatus,a5
     4a0:	0ff0000f          	fence
     4a4:	00008067          	ret
     4a8:	30002573          	csrr	a0,mstatus
     4ac:	8921                	c.andi	a0,8
     4ae:	c919                	c.beqz	a0,4c4 <plic_enter_critical_sec+0x5c>
     4b0:	300477f3          	csrrci	a5,mstatus,8
     4b4:	0ff0000f          	fence
     4b8:	00008067          	ret
     4bc:	00b72023          	sw	a1,0(a4) # e4200000 <_DATA_LMA_START+0xc41fb088>
     4c0:	0ff0000f          	fence
     4c4:	00008067          	ret

000004c8 <flash_mspi_read_ram>:
     4c8:	7179                	c.addi16sp	sp,-48
     4ca:	d226                	c.swsp	s1,36(sp)
     4cc:	000004b7          	lui	s1,0x0
     4d0:	15848493          	addi	s1,s1,344 # 158 <_AES_VMA_END>
     4d4:	d04a                	c.swsp	s2,32(sp)
     4d6:	c65e                	c.swsp	s7,12(sp)
     4d8:	892a                	c.mv	s2,a0
     4da:	8bae                	c.mv	s7,a1
     4dc:	0404c503          	lbu	a0,64(s1)
     4e0:	0414c583          	lbu	a1,65(s1)
     4e4:	d422                	c.swsp	s0,40(sp)
     4e6:	ce4e                	c.swsp	s3,28(sp)
     4e8:	cc52                	c.swsp	s4,24(sp)
     4ea:	ca56                	c.swsp	s5,20(sp)
     4ec:	c85a                	c.swsp	s6,16(sp)
     4ee:	d606                	c.swsp	ra,44(sp)
     4f0:	8b32                	c.mv	s6,a2
     4f2:	8ab6                	c.mv	s5,a3
     4f4:	843a                	c.mv	s0,a4
     4f6:	8a3e                	c.mv	s4,a5
     4f8:	f71ff0ef          	jal	ra,468 <plic_enter_critical_sec>
     4fc:	80140637          	lui	a2,0x80140
     500:	00a009b3          	add	s3,zero,a0
     504:	10260783          	lb	a5,258(a2) # 80140102 <_DATA_LMA_START+0x6013b18a>
     508:	fe07fe5b          	bbs	a5,0,504 <flash_mspi_read_ram+0x3c>
     50c:	10160783          	lb	a5,257(a2)
     510:	80140737          	lui	a4,0x80140
     514:	0ff7f793          	andi	a5,a5,255
     518:	0107e793          	ori	a5,a5,16
     51c:	10f600a3          	sb	a5,257(a2)
     520:	32870783          	lb	a5,808(a4) # 80140328 <_DATA_LMA_START+0x6013b3b0>
     524:	be37fe5b          	bbc	a5,3,520 <flash_mspi_read_ram+0x58>
     528:	10170783          	lb	a5,257(a4)
     52c:	854a                	c.mv	a0,s2
     52e:	0fd7f793          	andi	a5,a5,253
     532:	10f700a3          	sb	a5,257(a4)
     536:	10170783          	lb	a5,257(a4)
     53a:	0f37f793          	andi	a5,a5,243
     53e:	10f700a3          	sb	a5,257(a4)
     542:	330d                	c.jal	264 <flash_send_cmd>
     544:	0e0b1e63          	bnez	s6,640 <flash_mspi_read_ram+0x178>
     548:	020a8063          	beqz	s5,568 <flash_mspi_read_ram+0xa0>
     54c:	00000713          	li	a4,0
     550:	80140637          	lui	a2,0x80140
     554:	10060023          	sb	zero,256(a2) # 80140100 <_DATA_LMA_START+0x6013b188>
     558:	10260783          	lb	a5,258(a2)
     55c:	fe07fe5b          	bbs	a5,0,558 <flash_mspi_read_ram+0x90>
     560:	00170713          	addi	a4,a4,1
     564:	ff5718e3          	bne	a4,s5,554 <flash_mspi_read_ram+0x8c>
     568:	01b96cdb          	bnec	s2,59,580 <flash_mspi_read_ram+0xb8>
     56c:	80140737          	lui	a4,0x80140
     570:	10170783          	lb	a5,257(a4) # 80140101 <_DATA_LMA_START+0x6013b189>
     574:	0f37f793          	andi	a5,a5,243
     578:	0047e793          	ori	a5,a5,4
     57c:	10f700a3          	sb	a5,257(a4)
     580:	801406b7          	lui	a3,0x80140
     584:	10168783          	lb	a5,257(a3) # 80140101 <_DATA_LMA_START+0x6013b189>
     588:	80140737          	lui	a4,0x80140
     58c:	0ff7f793          	andi	a5,a5,255
     590:	0027e793          	ori	a5,a5,2
     594:	10f680a3          	sb	a5,257(a3)
     598:	10068023          	sb	zero,256(a3)
     59c:	10270783          	lb	a5,258(a4) # 80140102 <_DATA_LMA_START+0x6013b18a>
     5a0:	fe07fe5b          	bbs	a5,0,59c <flash_mspi_read_ram+0xd4>
     5a4:	10170783          	lb	a5,257(a4)
     5a8:	801406b7          	lui	a3,0x80140
     5ac:	0ff7f793          	andi	a5,a5,255
     5b0:	0017e793          	ori	a5,a5,1
     5b4:	10f700a3          	sb	a5,257(a4)
     5b8:	10268783          	lb	a5,258(a3) # 80140102 <_DATA_LMA_START+0x6013b18a>
     5bc:	fe07fe5b          	bbs	a5,0,5b8 <flash_mspi_read_ram+0xf0>
     5c0:	020a0263          	beqz	s4,5e4 <flash_mspi_read_ram+0x11c>
     5c4:	008a0a33          	add	s4,s4,s0
     5c8:	801406b7          	lui	a3,0x80140
     5cc:	10068783          	lb	a5,256(a3) # 80140100 <_DATA_LMA_START+0x6013b188>
     5d0:	00140413          	addi	s0,s0,1
     5d4:	fef40fa3          	sb	a5,-1(s0)
     5d8:	10268783          	lb	a5,258(a3)
     5dc:	fe07fe5b          	bbs	a5,0,5d8 <flash_mspi_read_ram+0x110>
     5e0:	ff4416e3          	bne	s0,s4,5cc <flash_mspi_read_ram+0x104>
     5e4:	801407b7          	lui	a5,0x80140
     5e8:	10178703          	lb	a4,257(a5) # 80140101 <_DATA_LMA_START+0x6013b189>
     5ec:	0fe77713          	andi	a4,a4,254
     5f0:	10e780a3          	sb	a4,257(a5)
     5f4:	01b968db          	bnec	s2,59,604 <flash_mspi_read_ram+0x13c>
     5f8:	10178703          	lb	a4,257(a5)
     5fc:	0f377713          	andi	a4,a4,243
     600:	10e780a3          	sb	a4,257(a5)
     604:	80140737          	lui	a4,0x80140
     608:	10170783          	lb	a5,257(a4) # 80140101 <_DATA_LMA_START+0x6013b189>
     60c:	0ff7f793          	andi	a5,a5,255
     610:	0107e793          	ori	a5,a5,16
     614:	10f700a3          	sb	a5,257(a4)
     618:	0001                	c.nop
     61a:	0001                	c.nop
     61c:	0001                	c.nop
     61e:	0001                	c.nop
     620:	0001                	c.nop
     622:	5422                	c.lwsp	s0,40(sp)
     624:	0404c503          	lbu	a0,64(s1)
     628:	50b2                	c.lwsp	ra,44(sp)
     62a:	5492                	c.lwsp	s1,36(sp)
     62c:	5902                	c.lwsp	s2,32(sp)
     62e:	4a62                	c.lwsp	s4,24(sp)
     630:	4ad2                	c.lwsp	s5,20(sp)
     632:	4b42                	c.lwsp	s6,16(sp)
     634:	4bb2                	c.lwsp	s7,12(sp)
     636:	85ce                	c.mv	a1,s3
     638:	49f2                	c.lwsp	s3,28(sp)
     63a:	6145                	c.addi16sp	sp,48
     63c:	dd5ff06f          	j	410 <plic_exit_critical_sec>
     640:	855e                	c.mv	a0,s7
     642:	3ef9                	c.jal	220 <flash_send_addr>
     644:	f05ff06f          	j	548 <flash_mspi_read_ram+0x80>

00000648 <flash_mspi_read_ram.constprop.7>:
     648:	1101                	c.addi	sp,-32
     64a:	c64e                	c.swsp	s3,12(sp)
     64c:	000009b7          	lui	s3,0x0
     650:	15898993          	addi	s3,s3,344 # 158 <_AES_VMA_END>
     654:	cc22                	c.swsp	s0,24(sp)
     656:	c256                	c.swsp	s5,4(sp)
     658:	842e                	c.mv	s0,a1
     65a:	8aaa                	c.mv	s5,a0
     65c:	0419c583          	lbu	a1,65(s3)
     660:	0409c503          	lbu	a0,64(s3)
     664:	c84a                	c.swsp	s2,16(sp)
     666:	c452                	c.swsp	s4,8(sp)
     668:	ce06                	c.swsp	ra,28(sp)
     66a:	ca26                	c.swsp	s1,20(sp)
     66c:	8932                	c.mv	s2,a2
     66e:	3bed                	c.jal	468 <plic_enter_critical_sec>
     670:	80140737          	lui	a4,0x80140
     674:	00a00a33          	add	s4,zero,a0
     678:	10270783          	lb	a5,258(a4) # 80140102 <_DATA_LMA_START+0x6013b18a>
     67c:	fe07fe5b          	bbs	a5,0,678 <flash_mspi_read_ram.constprop.7+0x30>
     680:	10170783          	lb	a5,257(a4)
     684:	801404b7          	lui	s1,0x80140
     688:	0ff7f793          	andi	a5,a5,255
     68c:	0107e793          	ori	a5,a5,16
     690:	10f700a3          	sb	a5,257(a4)
     694:	32848783          	lb	a5,808(s1) # 80140328 <_DATA_LMA_START+0x6013b3b0>
     698:	be37fe5b          	bbc	a5,3,694 <flash_mspi_read_ram.constprop.7+0x4c>
     69c:	10148783          	lb	a5,257(s1)
     6a0:	03b00513          	li	a0,59
     6a4:	0fd7f793          	andi	a5,a5,253
     6a8:	10f480a3          	sb	a5,257(s1)
     6ac:	10148783          	lb	a5,257(s1)
     6b0:	0f37f793          	andi	a5,a5,243
     6b4:	10f480a3          	sb	a5,257(s1)
     6b8:	badff0ef          	jal	ra,264 <flash_send_cmd>
     6bc:	01500533          	add	a0,zero,s5
     6c0:	b61ff0ef          	jal	ra,220 <flash_send_addr>
     6c4:	80140737          	lui	a4,0x80140
     6c8:	10048023          	sb	zero,256(s1)
     6cc:	10270783          	lb	a5,258(a4) # 80140102 <_DATA_LMA_START+0x6013b18a>
     6d0:	fe07fe5b          	bbs	a5,0,6cc <flash_mspi_read_ram.constprop.7+0x84>
     6d4:	10170783          	lb	a5,257(a4)
     6d8:	801406b7          	lui	a3,0x80140
     6dc:	0f37f793          	andi	a5,a5,243
     6e0:	0047e793          	ori	a5,a5,4
     6e4:	10f700a3          	sb	a5,257(a4)
     6e8:	10170783          	lb	a5,257(a4)
     6ec:	0ff7f793          	andi	a5,a5,255
     6f0:	0027e793          	ori	a5,a5,2
     6f4:	10f700a3          	sb	a5,257(a4)
     6f8:	10070023          	sb	zero,256(a4)
     6fc:	10268783          	lb	a5,258(a3) # 80140102 <_DATA_LMA_START+0x6013b18a>
     700:	fe07fe5b          	bbs	a5,0,6fc <flash_mspi_read_ram.constprop.7+0xb4>
     704:	10168783          	lb	a5,257(a3)
     708:	80140737          	lui	a4,0x80140
     70c:	0ff7f793          	andi	a5,a5,255
     710:	0017e793          	ori	a5,a5,1
     714:	10f680a3          	sb	a5,257(a3)
     718:	10270783          	lb	a5,258(a4) # 80140102 <_DATA_LMA_START+0x6013b18a>
     71c:	fe07fe5b          	bbs	a5,0,718 <flash_mspi_read_ram.constprop.7+0xd0>
     720:	02090263          	beqz	s2,744 <flash_mspi_read_ram.constprop.7+0xfc>
     724:	01240633          	add	a2,s0,s2
     728:	80140737          	lui	a4,0x80140
     72c:	10070783          	lb	a5,256(a4) # 80140100 <_DATA_LMA_START+0x6013b188>
     730:	00140413          	addi	s0,s0,1
     734:	fef40fa3          	sb	a5,-1(s0)
     738:	10270783          	lb	a5,258(a4)
     73c:	fe07fe5b          	bbs	a5,0,738 <flash_mspi_read_ram.constprop.7+0xf0>
     740:	fec416e3          	bne	s0,a2,72c <flash_mspi_read_ram.constprop.7+0xe4>
     744:	801407b7          	lui	a5,0x80140
     748:	10178703          	lb	a4,257(a5) # 80140101 <_DATA_LMA_START+0x6013b189>
     74c:	0fe77713          	andi	a4,a4,254
     750:	10e780a3          	sb	a4,257(a5)
     754:	10178703          	lb	a4,257(a5)
     758:	0f377713          	andi	a4,a4,243
     75c:	10e780a3          	sb	a4,257(a5)
     760:	10178703          	lb	a4,257(a5)
     764:	0ff77713          	andi	a4,a4,255
     768:	01076713          	ori	a4,a4,16
     76c:	10e780a3          	sb	a4,257(a5)
     770:	0001                	c.nop
     772:	0001                	c.nop
     774:	0001                	c.nop
     776:	0001                	c.nop
     778:	0001                	c.nop
     77a:	4462                	c.lwsp	s0,24(sp)
     77c:	0409c503          	lbu	a0,64(s3)
     780:	40f2                	c.lwsp	ra,28(sp)
     782:	44d2                	c.lwsp	s1,20(sp)
     784:	4942                	c.lwsp	s2,16(sp)
     786:	49b2                	c.lwsp	s3,12(sp)
     788:	4a92                	c.lwsp	s5,4(sp)
     78a:	85d2                	c.mv	a1,s4
     78c:	4a22                	c.lwsp	s4,8(sp)
     78e:	6105                	c.addi16sp	sp,32
     790:	c81ff06f          	j	410 <plic_exit_critical_sec>

00000794 <analog_write_reg8>:
     794:	30002673          	csrr	a2,mstatus
     798:	8a21                	c.andi	a2,8
     79a:	c609                	c.beqz	a2,7a4 <analog_write_reg8+0x10>
     79c:	300477f3          	csrrci	a5,mstatus,8
     7a0:	0ff0000f          	fence
     7a4:	80140737          	lui	a4,0x80140
     7a8:	18a70023          	sb	a0,384(a4) # 80140180 <_DATA_LMA_START+0x6013b208>
     7ac:	18b70223          	sb	a1,388(a4)
     7b0:	06000693          	li	a3,96
     7b4:	801407b7          	lui	a5,0x80140
     7b8:	18d70123          	sb	a3,386(a4)
     7bc:	18278703          	lb	a4,386(a5) # 80140182 <_DATA_LMA_START+0x6013b20a>
     7c0:	fe777e5b          	bbs	a4,7,7bc <analog_write_reg8+0x28>
     7c4:	18078123          	sb	zero,386(a5)
     7c8:	00060663          	beqz	a2,7d4 <analog_write_reg8+0x40>
     7cc:	30062673          	csrrs	a2,mstatus,a2
     7d0:	0ff0000f          	fence
     7d4:	00008067          	ret

000007d8 <analog_read_reg8>:
     7d8:	300026f3          	csrr	a3,mstatus
     7dc:	8aa1                	c.andi	a3,8
     7de:	c689                	c.beqz	a3,7e8 <analog_read_reg8+0x10>
     7e0:	300477f3          	csrrci	a5,mstatus,8
     7e4:	0ff0000f          	fence
     7e8:	801407b7          	lui	a5,0x80140
     7ec:	18a78023          	sb	a0,384(a5) # 80140180 <_DATA_LMA_START+0x6013b208>
     7f0:	00100713          	li	a4,1
     7f4:	18e781a3          	sb	a4,387(a5)
     7f8:	04000613          	li	a2,64
     7fc:	80140737          	lui	a4,0x80140
     800:	18c78123          	sb	a2,386(a5)
     804:	18270783          	lb	a5,386(a4) # 80140182 <_DATA_LMA_START+0x6013b20a>
     808:	fe77fe5b          	bbs	a5,7,804 <analog_read_reg8+0x2c>
     80c:	18470503          	lb	a0,388(a4)
     810:	0ff57513          	andi	a0,a0,255
     814:	00068663          	beqz	a3,820 <analog_read_reg8+0x48>
     818:	3006a6f3          	csrrs	a3,mstatus,a3
     81c:	0ff0000f          	fence
     820:	00008067          	ret

00000824 <clock_init_ram.constprop.11>:
     824:	1141                	c.addi	sp,-16
     826:	80140737          	lui	a4,0x80140
     82a:	c606                	c.swsp	ra,12(sp)
     82c:	c422                	c.swsp	s0,8(sp)
     82e:	c226                	c.swsp	s1,4(sp)
     830:	10270783          	lb	a5,258(a4) # 80140102 <_DATA_LMA_START+0x6013b18a>
     834:	fe07fe5b          	bbs	a5,0,830 <clock_init_ram.constprop.11+0xc>
     838:	10170783          	lb	a5,257(a4)
     83c:	801404b7          	lui	s1,0x80140
     840:	0ff7f793          	andi	a5,a5,255
     844:	0107e793          	ori	a5,a5,16
     848:	10f700a3          	sb	a5,257(a4)
     84c:	32848783          	lb	a5,808(s1) # 80140328 <_DATA_LMA_START+0x6013b3b0>
     850:	be37fe5b          	bbc	a5,3,84c <clock_init_ram.constprop.11+0x28>
     854:	1e848783          	lb	a5,488(s1)
     858:	08000513          	li	a0,128
     85c:	8bbd                	c.andi	a5,15
     85e:	1ef48423          	sb	a5,488(s1)
     862:	3f9d                	c.jal	7d8 <analog_read_reg8>
     864:	0e057593          	andi	a1,a0,224
     868:	0105e593          	ori	a1,a1,16
     86c:	08000513          	li	a0,128
     870:	f25ff0ef          	jal	ra,794 <analog_write_reg8>
     874:	00900513          	li	a0,9
     878:	f61ff0ef          	jal	ra,7d8 <analog_read_reg8>
     87c:	0f357593          	andi	a1,a0,243
     880:	0085e593          	ori	a1,a1,8
     884:	4525                	c.li	a0,9
     886:	3739                	c.jal	794 <analog_write_reg8>
     888:	0c000793          	li	a5,192
     88c:	53c0140b          	addigp	s0,1340 # 80d3c <sys_clk>
     890:	00f41023          	sh	a5,0(s0)
     894:	08100513          	li	a0,129
     898:	4791                	c.li	a5,4
     89a:	1ef48da3          	sb	a5,507(s1)
     89e:	3f2d                	c.jal	7d8 <analog_read_reg8>
     8a0:	04056593          	ori	a1,a0,64
     8a4:	0ff5f593          	andi	a1,a1,255
     8a8:	08100513          	li	a0,129
     8ac:	ee9ff0ef          	jal	ra,794 <analog_write_reg8>
     8b0:	08800513          	li	a0,136
     8b4:	f25ff0ef          	jal	ra,7d8 <analog_read_reg8>
     8b8:	be557c5b          	bbc	a0,5,8b0 <clock_init_ram.constprop.11+0x8c>
     8bc:	08100513          	li	a0,129
     8c0:	f19ff0ef          	jal	ra,7d8 <analog_read_reg8>
     8c4:	0bf57593          	andi	a1,a0,191
     8c8:	08100513          	li	a0,129
     8cc:	ec9ff0ef          	jal	ra,794 <analog_write_reg8>
     8d0:	801407b7          	lui	a5,0x80140
     8d4:	1e978703          	lb	a4,489(a5) # 801401e9 <_DATA_LMA_START+0x6013b271>
     8d8:	8b3d                	c.andi	a4,15
     8da:	04076713          	ori	a4,a4,64
     8de:	1ee784a3          	sb	a4,489(a5)
     8e2:	1e878703          	lb	a4,488(a5)
     8e6:	f8076713          	ori	a4,a4,-128
     8ea:	0ff77713          	andi	a4,a4,255
     8ee:	1ee78423          	sb	a4,488(a5)
     8f2:	1e878703          	lb	a4,488(a5)
     8f6:	f8076713          	ori	a4,a4,-128
     8fa:	0ff77713          	andi	a4,a4,255
     8fe:	1ee78423          	sb	a4,488(a5)
     902:	1d878703          	lb	a4,472(a5)
     906:	00045683          	lhu	a3,0(s0)
     90a:	0fb77713          	andi	a4,a4,251
     90e:	1ce78c23          	sb	a4,472(a5)
     912:	1d878703          	lb	a4,472(a5)
     916:	8689                	c.srai	a3,0x2
     918:	00d402a3          	sb	a3,5(s0)
     91c:	0fc77713          	andi	a4,a4,252
     920:	1ce78c23          	sb	a4,472(a5)
     924:	1e878703          	lb	a4,488(a5)
     928:	0f077713          	andi	a4,a4,240
     92c:	00876713          	ori	a4,a4,8
     930:	1ee78423          	sb	a4,488(a5)
     934:	1e878703          	lb	a4,488(a5)
     938:	00045683          	lhu	a3,0(s0)
     93c:	08f77713          	andi	a4,a4,143
     940:	868d                	c.srai	a3,0x3
     942:	00d40123          	sb	a3,2(s0)
     946:	02076713          	ori	a4,a4,32
     94a:	1ee78423          	sb	a4,488(a5)
     94e:	0ff6f693          	andi	a3,a3,255
     952:	00d401a3          	sb	a3,3(s0)
     956:	00d40223          	sb	a3,4(s0)
     95a:	40b2                	c.lwsp	ra,12(sp)
     95c:	4422                	c.lwsp	s0,8(sp)
     95e:	4492                	c.lwsp	s1,4(sp)
     960:	0141                	c.addi	sp,16
     962:	8082                	c.jr	ra

00000964 <pm_wait_bbpll_done>:
     964:	1101                	c.addi	sp,-32
     966:	08100513          	li	a0,129
     96a:	cc22                	c.swsp	s0,24(sp)
     96c:	ca26                	c.swsp	s1,20(sp)
     96e:	c84a                	c.swsp	s2,16(sp)
     970:	ce06                	c.swsp	ra,28(sp)
     972:	359d                	c.jal	7d8 <analog_read_reg8>
     974:	04056593          	ori	a1,a0,64
     978:	892a                	c.mv	s2,a0
     97a:	0ff5f593          	andi	a1,a1,255
     97e:	08100513          	li	a0,129
     982:	0bf97913          	andi	s2,s2,191
     986:	4481                	c.li	s1,0
     988:	4475                	c.li	s0,29
     98a:	3529                	c.jal	794 <analog_write_reg8>
     98c:	000107a3          	sb	zero,15(sp)
     990:	00f10783          	lb	a5,15(sp)
     994:	0ff7f793          	andi	a5,a5,255
     998:	02f46063          	bltu	s0,a5,9b8 <pm_wait_bbpll_done+0x54>
     99c:	0001                	c.nop
     99e:	00f10783          	lb	a5,15(sp)
     9a2:	0785                	c.addi	a5,1
     9a4:	0ff7f793          	andi	a5,a5,255
     9a8:	00f107a3          	sb	a5,15(sp)
     9ac:	00f10783          	lb	a5,15(sp)
     9b0:	0ff7f793          	andi	a5,a5,255
     9b4:	fef474e3          	bgeu	s0,a5,99c <pm_wait_bbpll_done+0x38>
     9b8:	08800513          	li	a0,136
     9bc:	e1dff0ef          	jal	ra,7d8 <analog_read_reg8>
     9c0:	4255765b          	bbs	a0,5,9ec <pm_wait_bbpll_done+0x88>
     9c4:	cc95                	c.beqz	s1,a00 <pm_wait_bbpll_done+0x9c>
     9c6:	0414d35b          	beqc	s1,1,a0c <pm_wait_bbpll_done+0xa8>
     9ca:	85ca                	c.mv	a1,s2
     9cc:	08100513          	li	a0,129
     9d0:	dc5ff0ef          	jal	ra,794 <analog_write_reg8>
     9d4:	0024d65b          	beqc	s1,2,9e0 <pm_wait_bbpll_done+0x7c>
     9d8:	0485                	c.addi	s1,1
     9da:	0ff4f493          	andi	s1,s1,255
     9de:	b77d                	c.j	98c <pm_wait_bbpll_done+0x28>
     9e0:	40f2                	c.lwsp	ra,28(sp)
     9e2:	4462                	c.lwsp	s0,24(sp)
     9e4:	44d2                	c.lwsp	s1,20(sp)
     9e6:	4942                	c.lwsp	s2,16(sp)
     9e8:	6105                	c.addi16sp	sp,32
     9ea:	8082                	c.jr	ra
     9ec:	4462                	c.lwsp	s0,24(sp)
     9ee:	40f2                	c.lwsp	ra,28(sp)
     9f0:	44d2                	c.lwsp	s1,20(sp)
     9f2:	85ca                	c.mv	a1,s2
     9f4:	4942                	c.lwsp	s2,16(sp)
     9f6:	08100513          	li	a0,129
     9fa:	6105                	c.addi16sp	sp,32
     9fc:	d99ff06f          	j	794 <analog_write_reg8>
     a00:	04600593          	li	a1,70
     a04:	4505                	c.li	a0,1
     a06:	3379                	c.jal	794 <analog_write_reg8>
     a08:	fd1ff06f          	j	9d8 <pm_wait_bbpll_done+0x74>
     a0c:	04300593          	li	a1,67
     a10:	4505                	c.li	a0,1
     a12:	3349                	c.jal	794 <analog_write_reg8>
     a14:	fc5ff06f          	j	9d8 <pm_wait_bbpll_done+0x74>

00000a18 <pm_sleep_start>:
     a18:	1101                	c.addi	sp,-32
     a1a:	55c0272b          	lwgp	a4,1372 # 80d5c <g_chip_version>
     a1e:	000006b7          	lui	a3,0x0
     a22:	ce06                	c.swsp	ra,28(sp)
     a24:	cc22                	c.swsp	s0,24(sp)
     a26:	ca26                	c.swsp	s1,20(sp)
     a28:	0ff00793          	li	a5,255
     a2c:	19a6c583          	lbu	a1,410(a3) # 19a <g_pm_suspend_power_cfg>
     a30:	00f71a63          	bne	a4,a5,a44 <pm_sleep_start+0x2c>
     a34:	0fe5f593          	andi	a1,a1,254
     a38:	07d00513          	li	a0,125
     a3c:	d59ff0ef          	jal	ra,794 <analog_write_reg8>
     a40:	00c0006f          	j	a4c <pm_sleep_start+0x34>
     a44:	07d00513          	li	a0,125
     a48:	d4dff0ef          	jal	ra,794 <analog_write_reg8>
     a4c:	801406b7          	lui	a3,0x80140
     a50:	10268783          	lb	a5,258(a3) # 80140102 <_DATA_LMA_START+0x6013b18a>
     a54:	fe07fe5b          	bbs	a5,0,a50 <pm_sleep_start+0x38>
     a58:	10168703          	lb	a4,257(a3)
     a5c:	801407b7          	lui	a5,0x80140
     a60:	0ff77713          	andi	a4,a4,255
     a64:	01076713          	ori	a4,a4,16
     a68:	10e680a3          	sb	a4,257(a3)
     a6c:	32878703          	lb	a4,808(a5) # 80140328 <_DATA_LMA_START+0x6013b3b0>
     a70:	be377e5b          	bbc	a4,3,a6c <pm_sleep_start+0x54>
     a74:	10178703          	lb	a4,257(a5)
     a78:	80140437          	lui	s0,0x80140
     a7c:	0fd77713          	andi	a4,a4,253
     a80:	10e780a3          	sb	a4,257(a5)
     a84:	10178703          	lb	a4,257(a5)
     a88:	0ef77713          	andi	a4,a4,239
     a8c:	10e780a3          	sb	a4,257(a5)
     a90:	fb900713          	li	a4,-71
     a94:	10e78023          	sb	a4,256(a5)
     a98:	10240783          	lb	a5,258(s0) # 80140102 <_DATA_LMA_START+0x6013b18a>
     a9c:	fe07fe5b          	bbs	a5,0,a98 <pm_sleep_start+0x80>
     aa0:	10140783          	lb	a5,257(s0)
     aa4:	452d                	c.li	a0,11
     aa6:	0ff7f793          	andi	a5,a5,255
     aaa:	0107e793          	ori	a5,a5,16
     aae:	10f400a3          	sb	a5,257(s0)
     ab2:	320404a3          	sb	zero,809(s0)
     ab6:	330d                	c.jal	7d8 <analog_read_reg8>
     ab8:	0fc57593          	andi	a1,a0,252
     abc:	452d                	c.li	a0,11
     abe:	39d9                	c.jal	794 <analog_write_reg8>
     ac0:	08100513          	li	a0,129
     ac4:	d15ff0ef          	jal	ra,7d8 <analog_read_reg8>
     ac8:	f8056593          	ori	a1,a0,-128
     acc:	0ff5f593          	andi	a1,a1,255
     ad0:	08100513          	li	a0,129
     ad4:	cc1ff0ef          	jal	ra,794 <analog_write_reg8>
     ad8:	f8000793          	li	a5,-128
     adc:	1ef407a3          	sb	a5,495(s0)
     ae0:	03f00493          	li	s1,63
     ae4:	00012423          	sw	zero,8(sp)
     ae8:	47a2                	c.lwsp	a5,8(sp)
     aea:	00f4e763          	bltu	s1,a5,af8 <pm_sleep_start+0xe0>
     aee:	0001                	c.nop
     af0:	47a2                	c.lwsp	a5,8(sp)
     af2:	0785                	c.addi	a5,1
     af4:	c43e                	c.swsp	a5,8(sp)
     af6:	bfcd                	c.j	ae8 <pm_sleep_start+0xd0>
     af8:	08100513          	li	a0,129
     afc:	cddff0ef          	jal	ra,7d8 <analog_read_reg8>
     b00:	07f57593          	andi	a1,a0,127
     b04:	08100513          	li	a0,129
     b08:	c8dff0ef          	jal	ra,794 <analog_write_reg8>
     b0c:	00b00513          	li	a0,11
     b10:	cc9ff0ef          	jal	ra,7d8 <analog_read_reg8>
     b14:	00356593          	ori	a1,a0,3
     b18:	0ff5f593          	andi	a1,a1,255
     b1c:	452d                	c.li	a0,11
     b1e:	399d                	c.jal	794 <analog_write_reg8>
     b20:	08000593          	li	a1,128
     b24:	07d00513          	li	a0,125
     b28:	c6dff0ef          	jal	ra,794 <analog_write_reg8>
     b2c:	801407b7          	lui	a5,0x80140
     b30:	329784a3          	sb	s1,809(a5) # 80140329 <_DATA_LMA_START+0x6013b3b1>
     b34:	10178683          	lb	a3,257(a5)
     b38:	80140737          	lui	a4,0x80140
     b3c:	0ef6f693          	andi	a3,a3,239
     b40:	10d780a3          	sb	a3,257(a5)
     b44:	fab00693          	li	a3,-85
     b48:	10d78023          	sb	a3,256(a5)
     b4c:	10270783          	lb	a5,258(a4) # 80140102 <_DATA_LMA_START+0x6013b18a>
     b50:	fe07fe5b          	bbs	a5,0,b4c <pm_sleep_start+0x134>
     b54:	10170783          	lb	a5,257(a4)
     b58:	12b00693          	li	a3,299
     b5c:	0ff7f793          	andi	a5,a5,255
     b60:	0107e793          	ori	a5,a5,16
     b64:	10f700a3          	sb	a5,257(a4)
     b68:	00012623          	sw	zero,12(sp)
     b6c:	47b2                	c.lwsp	a5,12(sp)
     b6e:	00f6e763          	bltu	a3,a5,b7c <pm_sleep_start+0x164>
     b72:	0001                	c.nop
     b74:	47b2                	c.lwsp	a5,12(sp)
     b76:	0785                	c.addi	a5,1
     b78:	c63e                	c.swsp	a5,12(sp)
     b7a:	bfcd                	c.j	b6c <pm_sleep_start+0x154>
     b7c:	08800513          	li	a0,136
     b80:	c59ff0ef          	jal	ra,7d8 <analog_read_reg8>
     b84:	be757c5b          	bbc	a0,7,b7c <pm_sleep_start+0x164>
     b88:	08800513          	li	a0,136
     b8c:	c4dff0ef          	jal	ra,7d8 <analog_read_reg8>
     b90:	be757c5b          	bbc	a0,7,b88 <pm_sleep_start+0x170>
     b94:	08800513          	li	a0,136
     b98:	c41ff0ef          	jal	ra,7d8 <analog_read_reg8>
     b9c:	be757c5b          	bbc	a0,7,b94 <pm_sleep_start+0x17c>
     ba0:	4462                	c.lwsp	s0,24(sp)
     ba2:	40f2                	c.lwsp	ra,28(sp)
     ba4:	44d2                	c.lwsp	s1,20(sp)
     ba6:	6105                	c.addi16sp	sp,32
     ba8:	dbdff06f          	j	964 <pm_wait_bbpll_done>

00000bac <dr_putchar>:
     bac:	1101                	c.addi	sp,-32
     bae:	ca26                	c.swsp	s1,20(sp)
     bb0:	cc22                	c.swsp	s0,24(sp)
     bb2:	ce06                	c.swsp	ra,28(sp)
     bb4:	c84a                	c.swsp	s2,16(sp)
     bb6:	5380148b          	addigp	s1,1336 # 80d38 <init_flag.4915>
     bba:	842a                	c.mv	s0,a0
     bbc:	0004c783          	lbu	a5,0(s1)
     bc0:	0c17d25b          	beqc	a5,1,c84 <dr_putchar+0xd8>
     bc4:	801407b7          	lui	a5,0x80140
     bc8:	30378703          	lb	a4,771(a5) # 80140303 <_DATA_LMA_START+0x6013b38b>
     bcc:	30378783          	lb	a5,771(a5)
     bd0:	0fe77713          	andi	a4,a4,254
     bd4:	0ff7f793          	andi	a5,a5,255
     bd8:	0017e793          	ori	a5,a5,1
     bdc:	00e10223          	sb	a4,4(sp)
     be0:	86be                	c.mv	a3,a5
     be2:	4004735b          	bbs	s0,0,be8 <dr_putchar+0x3c>
     be6:	86ba                	c.mv	a3,a4
     be8:	00d102a3          	sb	a3,5(sp)
     bec:	86be                	c.mv	a3,a5
     bee:	4014735b          	bbs	s0,1,bf4 <dr_putchar+0x48>
     bf2:	86ba                	c.mv	a3,a4
     bf4:	00d10323          	sb	a3,6(sp)
     bf8:	86be                	c.mv	a3,a5
     bfa:	4024735b          	bbs	s0,2,c00 <dr_putchar+0x54>
     bfe:	86ba                	c.mv	a3,a4
     c00:	00d103a3          	sb	a3,7(sp)
     c04:	86be                	c.mv	a3,a5
     c06:	4034735b          	bbs	s0,3,c0c <dr_putchar+0x60>
     c0a:	86ba                	c.mv	a3,a4
     c0c:	00d10423          	sb	a3,8(sp)
     c10:	86be                	c.mv	a3,a5
     c12:	4044735b          	bbs	s0,4,c18 <dr_putchar+0x6c>
     c16:	86ba                	c.mv	a3,a4
     c18:	00d104a3          	sb	a3,9(sp)
     c1c:	86be                	c.mv	a3,a5
     c1e:	4054735b          	bbs	s0,5,c24 <dr_putchar+0x78>
     c22:	86ba                	c.mv	a3,a4
     c24:	00d10523          	sb	a3,10(sp)
     c28:	86be                	c.mv	a3,a5
     c2a:	4064735b          	bbs	s0,6,c30 <dr_putchar+0x84>
     c2e:	86ba                	c.mv	a3,a4
     c30:	00d105a3          	sb	a3,11(sp)
     c34:	801d                	c.srli	s0,0x7
     c36:	c019                	c.beqz	s0,c3c <dr_putchar+0x90>
     c38:	00f00733          	add	a4,zero,a5
     c3c:	00f106a3          	sb	a5,13(sp)
     c40:	801407b7          	lui	a5,0x80140
     c44:	00e10623          	sb	a4,12(sp)
     c48:	2007a603          	lw	a2,512(a5) # 80140200 <_DATA_LMA_START+0x6013b288>
     c4c:	00410513          	addi	a0,sp,4
     c50:	00e10813          	addi	a6,sp,14
     c54:	801406b7          	lui	a3,0x80140
     c58:	08900593          	li	a1,137
     c5c:	2006a783          	lw	a5,512(a3) # 80140200 <_DATA_LMA_START+0x6013b288>
     c60:	40c78733          	sub	a4,a5,a2
     c64:	fee5fce3          	bgeu	a1,a4,c5c <dr_putchar+0xb0>
     c68:	00054703          	lbu	a4,0(a0)
     c6c:	0505                	c.addi	a0,1
     c6e:	30e681a3          	sb	a4,771(a3)
     c72:	863e                	c.mv	a2,a5
     c74:	ff0514e3          	bne	a0,a6,c5c <dr_putchar+0xb0>
     c78:	40f2                	c.lwsp	ra,28(sp)
     c7a:	4462                	c.lwsp	s0,24(sp)
     c7c:	44d2                	c.lwsp	s1,20(sp)
     c7e:	4942                	c.lwsp	s2,16(sp)
     c80:	6105                	c.addi16sp	sp,32
     c82:	8082                	c.jr	ra
     c84:	80140937          	lui	s2,0x80140
     c88:	30690783          	lb	a5,774(s2) # 80140306 <_DATA_LMA_START+0x6013b38e>
     c8c:	4539                	c.li	a0,14
     c8e:	0ff7f793          	andi	a5,a5,255
     c92:	0017e793          	ori	a5,a5,1
     c96:	30f90323          	sb	a5,774(s2)
     c9a:	3e3d                	c.jal	7d8 <analog_read_reg8>
     c9c:	0fc57593          	andi	a1,a0,252
     ca0:	0015e593          	ori	a1,a1,1
     ca4:	4539                	c.li	a0,14
     ca6:	34fd                	c.jal	794 <analog_write_reg8>
     ca8:	30290783          	lb	a5,770(s2)
     cac:	0fe7f793          	andi	a5,a5,254
     cb0:	30f90123          	sb	a5,770(s2)
     cb4:	30390783          	lb	a5,771(s2)
     cb8:	0ff7f793          	andi	a5,a5,255
     cbc:	0017e793          	ori	a5,a5,1
     cc0:	30f901a3          	sb	a5,771(s2)
     cc4:	00048023          	sb	zero,0(s1)
     cc8:	efdff06f          	j	bc4 <dr_putchar+0x18>

00000ccc <pm_sleep_wakeup_ram.constprop.3>:
     ccc:	1101                	c.addi	sp,-32
     cce:	c452                	c.swsp	s4,8(sp)
     cd0:	8a2a                	c.mv	s4,a0
     cd2:	ce06                	c.swsp	ra,28(sp)
     cd4:	cc22                	c.swsp	s0,24(sp)
     cd6:	ca26                	c.swsp	s1,20(sp)
     cd8:	c84a                	c.swsp	s2,16(sp)
     cda:	c64e                	c.swsp	s3,12(sp)
     cdc:	c256                	c.swsp	s5,4(sp)
     cde:	c05a                	c.swsp	s6,0(sp)
     ce0:	300029f3          	csrr	s3,mstatus
     ce4:	0089f993          	andi	s3,s3,8
     ce8:	00098663          	beqz	s3,cf4 <pm_sleep_wakeup_ram.constprop.3+0x28>
     cec:	300477f3          	csrrci	a5,mstatus,8
     cf0:	0ff0000f          	fence
     cf4:	801407b7          	lui	a5,0x80140
     cf8:	2147a683          	lw	a3,532(a5) # 80140214 <_DATA_LMA_START+0x6013b29c>
     cfc:	def5                	c.beqz	a3,cf8 <pm_sleep_wakeup_ram.constprop.3+0x2c>
     cfe:	00000437          	lui	s0,0x0
     d02:	15840693          	addi	a3,s0,344 # 158 <_AES_VMA_END>
     d06:	2147a783          	lw	a5,532(a5)
     d0a:	5298                	c.lw	a4,32(a3)
     d0c:	da9c                	c.sw	a5,48(a3)
     d0e:	15840413          	addi	s0,s0,344
     d12:	0792                	c.slli	a5,0x4
     d14:	cb11                	c.beqz	a4,d28 <pm_sleep_wakeup_ram.constprop.3+0x5c>
     d16:	03444603          	lbu	a2,52(s0)
     d1a:	4691                	c.li	a3,4
     d1c:	8f99                	c.sub	a5,a4
     d1e:	8e91                	c.sub	a3,a2
     d20:	40d7d7b3          	sra	a5,a5,a3
     d24:	00e787b3          	add	a5,a5,a4
     d28:	d01c                	c.sw	a5,32(s0)
     d2a:	5004                	c.lw	s1,32(s0)
     d2c:	485c                	c.lw	a5,20(s0)
     d2e:	8491                	c.srai	s1,0x4
     d30:	02f487b3          	mul	a5,s1,a5
     d34:	80140937          	lui	s2,0x80140
     d38:	20092a83          	lw	s5,512(s2) # 80140200 <_DATA_LMA_START+0x6013b288>
     d3c:	e0000737          	lui	a4,0xe0000
     d40:	415a0ab3          	sub	s5,s4,s5
     d44:	87c9                	c.srai	a5,0x12
     d46:	94be                	c.add	s1,a5
     d48:	0486                	c.slli	s1,0x1
     d4a:	dc04                	c.sw	s1,56(s0)
     d4c:	03577063          	bgeu	a4,s5,d6c <pm_sleep_wakeup_ram.constprop.3+0xa0>
     d50:	00098663          	beqz	s3,d5c <pm_sleep_wakeup_ram.constprop.3+0x90>
     d54:	3009a9f3          	csrrs	s3,mstatus,s3
     d58:	0ff0000f          	fence
     d5c:	06400513          	li	a0,100
     d60:	a79ff0ef          	jal	ra,7d8 <analog_read_reg8>
     d64:	01f57513          	andi	a0,a0,31
     d68:	25c0006f          	j	fc4 <pm_sleep_wakeup_ram.constprop.3+0x2f8>
     d6c:	04a41783          	lh	a5,74(s0)
     d70:	1137a7db          	bfoz	a5,a5,4,19
     d74:	02fafe63          	bgeu	s5,a5,db0 <pm_sleep_wakeup_ram.constprop.3+0xe4>
     d78:	45fd                	c.li	a1,31
     d7a:	06400513          	li	a0,100
     d7e:	801404b7          	lui	s1,0x80140
     d82:	20092403          	lw	s0,512(s2)
     d86:	3439                	c.jal	794 <analog_write_reg8>
     d88:	06400513          	li	a0,100
     d8c:	a4dff0ef          	jal	ra,7d8 <analog_read_reg8>
     d90:	2004a783          	lw	a5,512(s1) # 80140200 <_DATA_LMA_START+0x6013b288>
     d94:	897d                	c.andi	a0,31
     d96:	8f81                	c.sub	a5,s0
     d98:	0157f463          	bgeu	a5,s5,da0 <pm_sleep_wakeup_ram.constprop.3+0xd4>
     d9c:	fe0506e3          	beqz	a0,d88 <pm_sleep_wakeup_ram.constprop.3+0xbc>
     da0:	22098263          	beqz	s3,fc4 <pm_sleep_wakeup_ram.constprop.3+0x2f8>
     da4:	3009a9f3          	csrrs	s3,mstatus,s3
     da8:	0ff0000f          	fence
     dac:	2180006f          	j	fc4 <pm_sleep_wakeup_ram.constprop.3+0x2f8>
     db0:	1e890a83          	lb	s5,488(s2)
     db4:	00faf793          	andi	a5,s5,15
     db8:	1ef90423          	sb	a5,488(s2)
     dbc:	1d890b03          	lb	s6,472(s2)
     dc0:	0f8b7793          	andi	a5,s6,248
     dc4:	1cf90c23          	sb	a5,472(s2)
     dc8:	00100793          	li	a5,1
     dcc:	20f90c23          	sb	a5,536(s2)
     dd0:	20a90783          	lb	a5,522(s2)
     dd4:	0f77f793          	andi	a5,a5,247
     dd8:	20f90523          	sb	a5,522(s2)
     ddc:	d7cff0ef          	jal	ra,358 <clock_get_32k_tick>
     de0:	20092703          	lw	a4,512(s2)
     de4:	20b90783          	lb	a5,523(s2)
     de8:	5414                	c.lw	a3,40(s0)
     dea:	0ff7f793          	andi	a5,a5,255
     dee:	0027e793          	ori	a5,a5,2
     df2:	c468                	c.sw	a0,76(s0)
     df4:	c418                	c.sw	a4,8(s0)
     df6:	03444603          	lbu	a2,52(s0)
     dfa:	40d506b3          	sub	a3,a0,a3
     dfe:	20f905a3          	sb	a5,523(s2)
     e02:	d454                	c.sw	a3,44(s0)
     e04:	e215                	c.bnez	a2,e28 <pm_sleep_wakeup_ram.constprop.3+0x15c>
     e06:	445c                	c.lw	a5,12(s0)
     e08:	c385                	c.beqz	a5,e28 <pm_sleep_wakeup_ram.constprop.3+0x15c>
     e0a:	05044783          	lbu	a5,80(s0)
     e0e:	ef89                	c.bnez	a5,e28 <pm_sleep_wakeup_ram.constprop.3+0x15c>
     e10:	01042783          	lw	a5,16(s0)
     e14:	000276b7          	lui	a3,0x27
     e18:	40f507b3          	sub	a5,a0,a5
     e1c:	6c07a7db          	bfoz	a5,a5,27,0
     e20:	10068693          	addi	a3,a3,256 # 27100 <BIN_SIZE+0x2141e>
     e24:	00f6f863          	bgeu	a3,a5,e34 <pm_sleep_wakeup_ram.constprop.3+0x168>
     e28:	00176713          	ori	a4,a4,1
     e2c:	02040a23          	sb	zero,52(s0)
     e30:	c808                	c.sw	a0,16(s0)
     e32:	c458                	c.sw	a4,12(s0)
     e34:	02000593          	li	a1,32
     e38:	04b00513          	li	a0,75
     e3c:	959ff0ef          	jal	ra,794 <analog_write_reg8>
     e40:	45fd                	c.li	a1,31
     e42:	06400513          	li	a0,100
     e46:	32b9                	c.jal	794 <analog_write_reg8>
     e48:	03000593          	li	a1,48
     e4c:	07e00513          	li	a0,126
     e50:	945ff0ef          	jal	ra,794 <analog_write_reg8>
     e54:	0f900593          	li	a1,249
     e58:	04d00513          	li	a0,77
     e5c:	939ff0ef          	jal	ra,794 <analog_write_reg8>
     e60:	4585                	c.li	a1,1
     e62:	07f00513          	li	a0,127
     e66:	323d                	c.jal	794 <analog_write_reg8>
     e68:	04841783          	lh	a5,72(s0)
     e6c:	0ee00593          	li	a1,238
     e70:	1137a7db          	bfoz	a5,a5,4,19
     e74:	04c00513          	li	a0,76
     e78:	40fa0933          	sub	s2,s4,a5
     e7c:	919ff0ef          	jal	ra,794 <analog_write_reg8>
     e80:	05441583          	lh	a1,84(s0)
     e84:	04000513          	li	a0,64
     e88:	0ff5f593          	andi	a1,a1,255
     e8c:	909ff0ef          	jal	ra,794 <analog_write_reg8>
     e90:	445c                	c.lw	a5,12(s0)
     e92:	07ff0737          	lui	a4,0x7ff0
     e96:	40f907b3          	sub	a5,s2,a5
     e9a:	00f77763          	bgeu	a4,a5,ea8 <pm_sleep_wakeup_ram.constprop.3+0x1dc>
     e9e:	4705                	c.li	a4,1
     ea0:	00e40223          	sb	a4,4(s0)
     ea4:	0080006f          	j	eac <pm_sleep_wakeup_ram.constprop.3+0x1e0>
     ea8:	00040223          	sb	zero,4(s0)
     eac:	00444683          	lbu	a3,4(s0)
     eb0:	4808                	c.lw	a0,16(s0)
     eb2:	5c18                	c.lw	a4,56(s0)
     eb4:	c691                	c.beqz	a3,ec0 <pm_sleep_wakeup_ram.constprop.3+0x1f4>
     eb6:	02e7d7b3          	divu	a5,a5,a4
     eba:	0796                	c.slli	a5,0x5
     ebc:	953e                	c.add	a0,a5
     ebe:	a039                	c.j	ecc <pm_sleep_wakeup_ram.constprop.3+0x200>
     ec0:	8085                	c.srli	s1,0x1
     ec2:	0796                	c.slli	a5,0x5
     ec4:	97a6                	c.add	a5,s1
     ec6:	02e7d7b3          	divu	a5,a5,a4
     eca:	953e                	c.add	a0,a5
     ecc:	be0ff0ef          	jal	ra,2ac <clock_set_32k_tick>
     ed0:	06400513          	li	a0,100
     ed4:	905ff0ef          	jal	ra,7d8 <analog_read_reg8>
     ed8:	01f57513          	andi	a0,a0,31
     edc:	e901                	c.bnez	a0,eec <pm_sleep_wakeup_ram.constprop.3+0x220>
     ede:	3e2d                	c.jal	a18 <pm_sleep_start>
     ee0:	00100593          	li	a1,1
     ee4:	07f00513          	li	a0,127
     ee8:	8adff0ef          	jal	ra,794 <analog_write_reg8>
     eec:	80140737          	lui	a4,0x80140
     ef0:	02000793          	li	a5,32
     ef4:	1ef707a3          	sb	a5,495(a4) # 801401ef <_DATA_LMA_START+0x6013b277>
     ef8:	00200793          	li	a5,2
     efc:	20f70c23          	sb	a5,536(a4)
     f00:	20a70783          	lb	a5,522(a4)
     f04:	0ff7f793          	andi	a5,a5,255
     f08:	00c7e793          	ori	a5,a5,12
     f0c:	20f70523          	sb	a5,522(a4)
     f10:	c48ff0ef          	jal	ra,358 <clock_get_32k_tick>
     f14:	00444783          	lbu	a5,4(s0)
     f18:	cf81                	c.beqz	a5,f30 <pm_sleep_wakeup_ram.constprop.3+0x264>
     f1a:	481c                	c.lw	a5,16(s0)
     f1c:	5c14                	c.lw	a3,56(s0)
     f1e:	40f507b3          	sub	a5,a0,a5
     f22:	4458                	c.lw	a4,12(s0)
     f24:	0785                	c.addi	a5,1
     f26:	8395                	c.srli	a5,0x5
     f28:	c4d7977f          	maddr32	a4,a5,a3
     f2c:	c418                	c.sw	a4,8(s0)
     f2e:	a829                	c.j	f48 <pm_sleep_wakeup_ram.constprop.3+0x27c>
     f30:	481c                	c.lw	a5,16(s0)
     f32:	5c18                	c.lw	a4,56(s0)
     f34:	40f507b3          	sub	a5,a0,a5
     f38:	0785                	c.addi	a5,1
     f3a:	02e787b3          	mul	a5,a5,a4
     f3e:	4458                	c.lw	a4,12(s0)
     f40:	8395                	c.srli	a5,0x5
     f42:	97ba                	c.add	a5,a4
     f44:	00f42423          	sw	a5,8(s0)
     f48:	481c                	c.lw	a5,16(s0)
     f4a:	4414                	c.lw	a3,8(s0)
     f4c:	40f507b3          	sub	a5,a0,a5
     f50:	0785                	c.addi	a5,1
     f52:	0505                	c.addi	a0,1
     f54:	d05c                	c.sw	a5,36(s0)
     f56:	0685                	c.addi	a3,1
     f58:	02a42423          	sw	a0,40(s0)
     f5c:	801407b7          	lui	a5,0x80140
     f60:	80140737          	lui	a4,0x80140
     f64:	20d7a023          	sw	a3,512(a5) # 80140200 <_DATA_LMA_START+0x6013b288>
     f68:	20b70783          	lb	a5,523(a4) # 8014020b <_DATA_LMA_START+0x6013b293>
     f6c:	be77fe5b          	bbc	a5,7,f68 <pm_sleep_wakeup_ram.constprop.3+0x29c>
     f70:	20070c23          	sb	zero,536(a4)
     f74:	1d670c23          	sb	s6,472(a4)
     f78:	06400513          	li	a0,100
     f7c:	1f570423          	sb	s5,488(a4)
     f80:	859ff0ef          	jal	ra,7d8 <analog_read_reg8>
     f84:	5600170b          	addigp	a4,1376 # 80d60 <g_pm_status_info>
     f88:	00a700a3          	sb	a0,1(a4)
     f8c:	5600178b          	addigp	a5,1376 # 80d60 <g_pm_status_info>
     f90:	00157c5b          	bbc	a0,1,fa8 <pm_sleep_wakeup_ram.constprop.3+0x2dc>
     f94:	80140637          	lui	a2,0x80140
     f98:	400006b7          	lui	a3,0x40000
     f9c:	20062703          	lw	a4,512(a2) # 80140200 <_DATA_LMA_START+0x6013b288>
     fa0:	41470733          	sub	a4,a4,s4
     fa4:	fee6ece3          	bltu	a3,a4,f9c <pm_sleep_wakeup_ram.constprop.3+0x2d0>
     fa8:	00098663          	beqz	s3,fb4 <pm_sleep_wakeup_ram.constprop.3+0x2e8>
     fac:	3009a9f3          	csrrs	s3,mstatus,s3
     fb0:	0ff0000f          	fence
     fb4:	0017c783          	lbu	a5,1(a5)
     fb8:	10000513          	li	a0,256
     fbc:	c781                	c.beqz	a5,fc4 <pm_sleep_wakeup_ram.constprop.3+0x2f8>
     fbe:	40000537          	lui	a0,0x40000
     fc2:	8d5d                	c.or	a0,a5
     fc4:	40f2                	c.lwsp	ra,28(sp)
     fc6:	4462                	c.lwsp	s0,24(sp)
     fc8:	44d2                	c.lwsp	s1,20(sp)
     fca:	4942                	c.lwsp	s2,16(sp)
     fcc:	49b2                	c.lwsp	s3,12(sp)
     fce:	4a22                	c.lwsp	s4,8(sp)
     fd0:	4a92                	c.lwsp	s5,4(sp)
     fd2:	4b02                	c.lwsp	s6,0(sp)
     fd4:	6105                	c.addi16sp	sp,32
     fd6:	8082                	c.jr	ra

00000fd8 <trap_entry>:
     fd8:	1101                	c.addi	sp,-32
     fda:	ce2a                	c.swsp	a0,28(sp)
     fdc:	cc2e                	c.swsp	a1,24(sp)
     fde:	ca32                	c.swsp	a2,20(sp)
     fe0:	c836                	c.swsp	a3,16(sp)
     fe2:	c63a                	c.swsp	a4,12(sp)
     fe4:	c43e                	c.swsp	a5,8(sp)
     fe6:	34202773          	csrr	a4,mcause
     fea:	000007b7          	lui	a5,0x0
     fee:	15878793          	addi	a5,a5,344 # 158 <_AES_VMA_END>
     ff2:	03c78683          	lb	a3,60(a5)
     ff6:	0ff6f693          	andi	a3,a3,255
     ffa:	c2dd                	c.beqz	a3,10a0 <trap_entry+0xc8>
     ffc:	34102673          	csrr	a2,mepc
    1000:	300025f3          	csrr	a1,mstatus
    1004:	7c4026f3          	csrr	a3,mxstatus
    1008:	02074a63          	bltz	a4,103c <trap_entry+0x64>
    100c:	34302773          	csrr	a4,mtval
    1010:	54e04c2b          	swgp	a4,1368 # 80d58 <exception_mtval>
    1014:	34102773          	csrr	a4,mepc
    1018:	54e0482b          	swgp	a4,1360 # 80d50 <exception_mepc>
    101c:	30002773          	csrr	a4,mstatus
    1020:	54e04a2b          	swgp	a4,1364 # 80d54 <exception_mstatus>
    1024:	34202773          	csrr	a4,mcause
    1028:	54e0442b          	swgp	a4,1352 # 80d48 <_DATA_VMA_END>
    102c:	7c902773          	csrr	a4,mdcause
    1030:	54e0462b          	swgp	a4,1356 # 80d4c <exception_mdcause>
    1034:	0001                	c.nop
    1036:	0001                	c.nop
    1038:	ffdff06f          	j	1034 <trap_entry+0x5c>
    103c:	7807275b          	bfoz	a4,a4,30,0
    1040:	0677545b          	beqc	a4,7,10a8 <trap_entry+0xd0>
    1044:	bc37645b          	bnec	a4,3,100c <trap_entry+0x34>
    1048:	e6600737          	lui	a4,0xe6600
    104c:	4358                	c.lw	a4,4(a4)
    104e:	03c78703          	lb	a4,60(a5)
    1052:	0ff77713          	andi	a4,a4,255
    1056:	c319                	c.beqz	a4,105c <trap_entry+0x84>
    1058:	30046773          	csrrsi	a4,mstatus,8
    105c:	03c78703          	lb	a4,60(a5)
    1060:	0ff77713          	andi	a4,a4,255
    1064:	00070463          	beqz	a4,106c <trap_entry+0x94>
    1068:	30047773          	csrrci	a4,mstatus,8
    106c:	e6600737          	lui	a4,0xe6600
    1070:	4505                	c.li	a0,1
    1072:	c348                	c.sw	a0,4(a4)
    1074:	03c78783          	lb	a5,60(a5)
    1078:	0ff7f793          	andi	a5,a5,255
    107c:	00078863          	beqz	a5,108c <trap_entry+0xb4>
    1080:	30059073          	csrw	mstatus,a1
    1084:	34161073          	csrw	mepc,a2
    1088:	7c469073          	csrw	mxstatus,a3
    108c:	4572                	c.lwsp	a0,28(sp)
    108e:	45e2                	c.lwsp	a1,24(sp)
    1090:	4652                	c.lwsp	a2,20(sp)
    1092:	46c2                	c.lwsp	a3,16(sp)
    1094:	4732                	c.lwsp	a4,12(sp)
    1096:	47a2                	c.lwsp	a5,8(sp)
    1098:	02010113          	addi	sp,sp,32
    109c:	30200073          	mret
    10a0:	4681                	c.li	a3,0
    10a2:	4581                	c.li	a1,0
    10a4:	4601                	c.li	a2,0
    10a6:	b78d                	c.j	1008 <trap_entry+0x30>
    10a8:	03c78703          	lb	a4,60(a5)
    10ac:	0ff77713          	andi	a4,a4,255
    10b0:	00070863          	beqz	a4,10c0 <trap_entry+0xe8>
    10b4:	08000713          	li	a4,128
    10b8:	30473773          	csrrc	a4,mie,a4
    10bc:	30046773          	csrrsi	a4,mstatus,8
    10c0:	03c78703          	lb	a4,60(a5)
    10c4:	0ff77713          	andi	a4,a4,255
    10c8:	d755                	c.beqz	a4,1074 <trap_entry+0x9c>
    10ca:	30047773          	csrrci	a4,mstatus,8
    10ce:	08000713          	li	a4,128
    10d2:	30472773          	csrrs	a4,mie,a4
    10d6:	bf79                	c.j	1074 <trap_entry+0x9c>
    10d8:	0001                	c.nop
	...

00001100 <__vectors>:
    1100:	0fd8                	c.addi4spn	a4,sp,980
    1102:	0000                	unimp
    1104:	206c                	c.fld	fa1,192(s0)
    1106:	0000                	unimp
    1108:	206c                	c.fld	fa1,192(s0)
    110a:	0000                	unimp
    110c:	206c                	c.fld	fa1,192(s0)
    110e:	0000                	unimp
    1110:	206c                	c.fld	fa1,192(s0)
    1112:	0000                	unimp
    1114:	206c                	c.fld	fa1,192(s0)
    1116:	0000                	unimp
    1118:	206c                	c.fld	fa1,192(s0)
    111a:	0000                	unimp
    111c:	206c                	c.fld	fa1,192(s0)
    111e:	0000                	unimp
    1120:	206c                	c.fld	fa1,192(s0)
    1122:	0000                	unimp
    1124:	206c                	c.fld	fa1,192(s0)
    1126:	0000                	unimp
    1128:	206c                	c.fld	fa1,192(s0)
    112a:	0000                	unimp
    112c:	206c                	c.fld	fa1,192(s0)
    112e:	0000                	unimp
    1130:	206c                	c.fld	fa1,192(s0)
    1132:	0000                	unimp
    1134:	206c                	c.fld	fa1,192(s0)
    1136:	0000                	unimp
    1138:	206c                	c.fld	fa1,192(s0)
    113a:	0000                	unimp
    113c:	206c                	c.fld	fa1,192(s0)
    113e:	0000                	unimp
    1140:	206c                	c.fld	fa1,192(s0)
    1142:	0000                	unimp
    1144:	206c                	c.fld	fa1,192(s0)
    1146:	0000                	unimp
    1148:	206c                	c.fld	fa1,192(s0)
    114a:	0000                	unimp
    114c:	206c                	c.fld	fa1,192(s0)
    114e:	0000                	unimp
    1150:	206c                	c.fld	fa1,192(s0)
    1152:	0000                	unimp
    1154:	206c                	c.fld	fa1,192(s0)
    1156:	0000                	unimp
    1158:	206c                	c.fld	fa1,192(s0)
    115a:	0000                	unimp
    115c:	206c                	c.fld	fa1,192(s0)
    115e:	0000                	unimp
    1160:	206c                	c.fld	fa1,192(s0)
    1162:	0000                	unimp
    1164:	206c                	c.fld	fa1,192(s0)
    1166:	0000                	unimp
    1168:	206c                	c.fld	fa1,192(s0)
    116a:	0000                	unimp
    116c:	206c                	c.fld	fa1,192(s0)
    116e:	0000                	unimp
    1170:	206c                	c.fld	fa1,192(s0)
    1172:	0000                	unimp
    1174:	206c                	c.fld	fa1,192(s0)
    1176:	0000                	unimp
    1178:	206c                	c.fld	fa1,192(s0)
    117a:	0000                	unimp
    117c:	206c                	c.fld	fa1,192(s0)
    117e:	0000                	unimp
    1180:	206c                	c.fld	fa1,192(s0)
    1182:	0000                	unimp
    1184:	206c                	c.fld	fa1,192(s0)
    1186:	0000                	unimp
    1188:	206c                	c.fld	fa1,192(s0)
    118a:	0000                	unimp
    118c:	206c                	c.fld	fa1,192(s0)
    118e:	0000                	unimp
    1190:	206c                	c.fld	fa1,192(s0)
    1192:	0000                	unimp
    1194:	206c                	c.fld	fa1,192(s0)
    1196:	0000                	unimp
    1198:	206c                	c.fld	fa1,192(s0)
    119a:	0000                	unimp
    119c:	206c                	c.fld	fa1,192(s0)
    119e:	0000                	unimp
    11a0:	206c                	c.fld	fa1,192(s0)
    11a2:	0000                	unimp
    11a4:	206c                	c.fld	fa1,192(s0)
    11a6:	0000                	unimp
    11a8:	206c                	c.fld	fa1,192(s0)
    11aa:	0000                	unimp
    11ac:	206c                	c.fld	fa1,192(s0)
    11ae:	0000                	unimp
    11b0:	206c                	c.fld	fa1,192(s0)
    11b2:	0000                	unimp
    11b4:	206c                	c.fld	fa1,192(s0)
    11b6:	0000                	unimp
    11b8:	206c                	c.fld	fa1,192(s0)
    11ba:	0000                	unimp
    11bc:	206c                	c.fld	fa1,192(s0)
    11be:	0000                	unimp
    11c0:	206c                	c.fld	fa1,192(s0)
    11c2:	0000                	unimp
    11c4:	206c                	c.fld	fa1,192(s0)
    11c6:	0000                	unimp
    11c8:	206c                	c.fld	fa1,192(s0)
    11ca:	0000                	unimp
    11cc:	206c                	c.fld	fa1,192(s0)
    11ce:	0000                	unimp
    11d0:	206c                	c.fld	fa1,192(s0)
    11d2:	0000                	unimp
    11d4:	206c                	c.fld	fa1,192(s0)
    11d6:	0000                	unimp
    11d8:	206c                	c.fld	fa1,192(s0)
    11da:	0000                	unimp
    11dc:	206c                	c.fld	fa1,192(s0)
    11de:	0000                	unimp
    11e0:	206c                	c.fld	fa1,192(s0)
    11e2:	0000                	unimp
    11e4:	206c                	c.fld	fa1,192(s0)
    11e6:	0000                	unimp
    11e8:	206c                	c.fld	fa1,192(s0)
    11ea:	0000                	unimp
    11ec:	206c                	c.fld	fa1,192(s0)
    11ee:	0000                	unimp
    11f0:	206c                	c.fld	fa1,192(s0)
    11f2:	0000                	unimp
    11f4:	206c                	c.fld	fa1,192(s0)
    11f6:	0000                	unimp
    11f8:	206c                	c.fld	fa1,192(s0)
    11fa:	0000                	unimp
    11fc:	206c                	c.fld	fa1,192(s0)
    11fe:	0000                	unimp
    1200:	0001                	c.nop
	...

00001204 <flash_read_uid.constprop.6>:
    1204:	1141                	c.addi	sp,-16
    1206:	c606                	c.swsp	ra,12(sp)
    1208:	872a                	c.mv	a4,a0
    120a:	7d047073          	csrci	mmisc_ctl,8
    120e:	47c1                	c.li	a5,16
    1210:	4691                	c.li	a3,4
    1212:	4601                	c.li	a2,0
    1214:	00000593          	li	a1,0
    1218:	04b00513          	li	a0,75
    121c:	aacff0ef          	jal	ra,4c8 <flash_mspi_read_ram>
    1220:	7d046073          	csrsi	mmisc_ctl,8
    1224:	40b2                	c.lwsp	ra,12(sp)
    1226:	0141                	c.addi	sp,16
    1228:	00008067          	ret

0000122c <flash_read_mid>:
    122c:	1101                	c.addi	sp,-32
    122e:	ce06                	c.swsp	ra,28(sp)
    1230:	c602                	c.swsp	zero,12(sp)
    1232:	7d047073          	csrci	mmisc_ctl,8
    1236:	478d                	c.li	a5,3
    1238:	0078                	c.addi4spn	a4,sp,12
    123a:	4681                	c.li	a3,0
    123c:	4601                	c.li	a2,0
    123e:	4581                	c.li	a1,0
    1240:	09f00513          	li	a0,159
    1244:	a84ff0ef          	jal	ra,4c8 <flash_mspi_read_ram>
    1248:	7d046073          	csrsi	mmisc_ctl,8
    124c:	40f2                	c.lwsp	ra,28(sp)
    124e:	4532                	c.lwsp	a0,12(sp)
    1250:	6105                	c.addi16sp	sp,32
    1252:	8082                	c.jr	ra

00001254 <flash_read_mid_uid_with_check>:
    1254:	801f978b          	addigp	a5,-2048 # 80000 <_DATA_VMA_START>
    1258:	4798                	c.lw	a4,8(a5)
    125a:	4390                	c.lw	a2,0(a5)
    125c:	43d4                	c.lw	a3,4(a5)
    125e:	47dc                	c.lw	a5,12(a5)
    1260:	1101                	c.addi	sp,-32
    1262:	cc22                	c.swsp	s0,24(sp)
    1264:	ca26                	c.swsp	s1,20(sp)
    1266:	842a                	c.mv	s0,a0
    1268:	c43a                	c.swsp	a4,8(sp)
    126a:	c63e                	c.swsp	a5,12(sp)
    126c:	ce06                	c.swsp	ra,28(sp)
    126e:	84ae                	c.mv	s1,a1
    1270:	c032                	c.swsp	a2,0(sp)
    1272:	c236                	c.swsp	a3,4(sp)
    1274:	fb9ff0ef          	jal	ra,122c <flash_read_mid>
    1278:	77c1                	c.lui	a5,0xffff0
    127a:	17fd                	c.addi	a5,-1
    127c:	00146737          	lui	a4,0x146
    1280:	c008                	c.sw	a0,0(s0)
    1282:	8fe9                	c.and	a5,a0
    1284:	08570713          	addi	a4,a4,133 # 146085 <FLASH_SIZE+0x46085>
    1288:	02e78063          	beq	a5,a4,12a8 <flash_read_mid_uid_with_check+0x54>
    128c:	00166737          	lui	a4,0x166
    1290:	08570713          	addi	a4,a4,133 # 166085 <FLASH_SIZE+0x66085>
    1294:	4781                	c.li	a5,0
    1296:	00e50963          	beq	a0,a4,12a8 <flash_read_mid_uid_with_check+0x54>
    129a:	40f2                	c.lwsp	ra,28(sp)
    129c:	4462                	c.lwsp	s0,24(sp)
    129e:	44d2                	c.lwsp	s1,20(sp)
    12a0:	853e                	c.mv	a0,a5
    12a2:	6105                	c.addi16sp	sp,32
    12a4:	00008067          	ret
    12a8:	8526                	c.mv	a0,s1
    12aa:	3fa9                	c.jal	1204 <flash_read_uid.constprop.6>
    12ac:	0004c783          	lbu	a5,0(s1)
    12b0:	00014603          	lbu	a2,0(sp)
    12b4:	0014c683          	lbu	a3,1(s1)
    12b8:	00114703          	lbu	a4,1(sp)
    12bc:	8f91                	c.sub	a5,a2
    12be:	0017b793          	seqz	a5,a5
    12c2:	00e69363          	bne	a3,a4,12c8 <flash_read_mid_uid_with_check+0x74>
    12c6:	0785                	c.addi	a5,1
    12c8:	0024c683          	lbu	a3,2(s1)
    12cc:	00214703          	lbu	a4,2(sp)
    12d0:	00e69463          	bne	a3,a4,12d8 <flash_read_mid_uid_with_check+0x84>
    12d4:	00178793          	addi	a5,a5,1 # ffff0001 <_DATA_LMA_START+0xdffeb089>
    12d8:	0034c683          	lbu	a3,3(s1)
    12dc:	00314703          	lbu	a4,3(sp)
    12e0:	00e69463          	bne	a3,a4,12e8 <flash_read_mid_uid_with_check+0x94>
    12e4:	00178793          	addi	a5,a5,1
    12e8:	0044c683          	lbu	a3,4(s1)
    12ec:	00414703          	lbu	a4,4(sp)
    12f0:	00e69463          	bne	a3,a4,12f8 <flash_read_mid_uid_with_check+0xa4>
    12f4:	00178793          	addi	a5,a5,1
    12f8:	0054c683          	lbu	a3,5(s1)
    12fc:	00514703          	lbu	a4,5(sp)
    1300:	00e69463          	bne	a3,a4,1308 <flash_read_mid_uid_with_check+0xb4>
    1304:	00178793          	addi	a5,a5,1
    1308:	0064c683          	lbu	a3,6(s1)
    130c:	00614703          	lbu	a4,6(sp)
    1310:	00e69463          	bne	a3,a4,1318 <flash_read_mid_uid_with_check+0xc4>
    1314:	00178793          	addi	a5,a5,1
    1318:	0074c683          	lbu	a3,7(s1)
    131c:	00714703          	lbu	a4,7(sp)
    1320:	00e69463          	bne	a3,a4,1328 <flash_read_mid_uid_with_check+0xd4>
    1324:	00178793          	addi	a5,a5,1
    1328:	0084c683          	lbu	a3,8(s1)
    132c:	00814703          	lbu	a4,8(sp)
    1330:	00e69463          	bne	a3,a4,1338 <flash_read_mid_uid_with_check+0xe4>
    1334:	00178793          	addi	a5,a5,1
    1338:	0094c683          	lbu	a3,9(s1)
    133c:	00914703          	lbu	a4,9(sp)
    1340:	00e69463          	bne	a3,a4,1348 <flash_read_mid_uid_with_check+0xf4>
    1344:	00178793          	addi	a5,a5,1
    1348:	00a4c683          	lbu	a3,10(s1)
    134c:	00a14703          	lbu	a4,10(sp)
    1350:	00e69463          	bne	a3,a4,1358 <flash_read_mid_uid_with_check+0x104>
    1354:	00178793          	addi	a5,a5,1
    1358:	00b4c683          	lbu	a3,11(s1)
    135c:	00b14703          	lbu	a4,11(sp)
    1360:	00e69463          	bne	a3,a4,1368 <flash_read_mid_uid_with_check+0x114>
    1364:	00178793          	addi	a5,a5,1
    1368:	00c4c683          	lbu	a3,12(s1)
    136c:	00c14703          	lbu	a4,12(sp)
    1370:	00e69463          	bne	a3,a4,1378 <flash_read_mid_uid_with_check+0x124>
    1374:	00178793          	addi	a5,a5,1
    1378:	00d4c683          	lbu	a3,13(s1)
    137c:	00d14703          	lbu	a4,13(sp)
    1380:	00e69463          	bne	a3,a4,1388 <flash_read_mid_uid_with_check+0x134>
    1384:	00178793          	addi	a5,a5,1
    1388:	00e4c683          	lbu	a3,14(s1)
    138c:	00e14703          	lbu	a4,14(sp)
    1390:	00e69463          	bne	a3,a4,1398 <flash_read_mid_uid_with_check+0x144>
    1394:	00178793          	addi	a5,a5,1
    1398:	00f14683          	lbu	a3,15(sp)
    139c:	00f4c703          	lbu	a4,15(s1)
    13a0:	00e69463          	bne	a3,a4,13a8 <flash_read_mid_uid_with_check+0x154>
    13a4:	00178793          	addi	a5,a5,1
    13a8:	40f2                	c.lwsp	ra,28(sp)
    13aa:	4462                	c.lwsp	s0,24(sp)
    13ac:	17c1                	c.addi	a5,-16
    13ae:	00f037b3          	snez	a5,a5
    13b2:	44d2                	c.lwsp	s1,20(sp)
    13b4:	853e                	c.mv	a0,a5
    13b6:	6105                	c.addi16sp	sp,32
    13b8:	00008067          	ret

000013bc <flash_dread>:
    13bc:	1141                	c.addi	sp,-16
    13be:	c606                	c.swsp	ra,12(sp)
    13c0:	87b2                	c.mv	a5,a2
    13c2:	7d047073          	csrci	mmisc_ctl,8
    13c6:	862e                	c.mv	a2,a1
    13c8:	00f005b3          	add	a1,zero,a5
    13cc:	a7cff0ef          	jal	ra,648 <flash_mspi_read_ram.constprop.7>
    13d0:	7d046073          	csrsi	mmisc_ctl,8
    13d4:	40b2                	c.lwsp	ra,12(sp)
    13d6:	0141                	c.addi	sp,16
    13d8:	00008067          	ret

000013dc <clock_init.constprop.10>:
    13dc:	1141                	c.addi	sp,-16
    13de:	c606                	c.swsp	ra,12(sp)
    13e0:	7d047073          	csrci	mmisc_ctl,8
    13e4:	c40ff0ef          	jal	ra,824 <clock_init_ram.constprop.11>
    13e8:	7d046073          	csrsi	mmisc_ctl,8
    13ec:	40b2                	c.lwsp	ra,12(sp)
    13ee:	0141                	c.addi	sp,16
    13f0:	00008067          	ret

000013f4 <pm_sleep_wakeup.constprop.2>:
    13f4:	1141                	c.addi	sp,-16
    13f6:	c606                	c.swsp	ra,12(sp)
    13f8:	7d047073          	csrci	mmisc_ctl,8
    13fc:	8d1ff0ef          	jal	ra,ccc <pm_sleep_wakeup_ram.constprop.3>
    1400:	7d046073          	csrsi	mmisc_ctl,8
    1404:	40b2                	c.lwsp	ra,12(sp)
    1406:	0141                	c.addi	sp,16
    1408:	8082                	c.jr	ra
    140a:	0001                	c.nop

0000140c <user_calib_adc_vref.constprop.9>:
    140c:	1101                	c.addi	sp,-32
    140e:	ce06                	c.swsp	ra,28(sp)
    1410:	c402                	c.swsp	zero,8(sp)
    1412:	00011623          	sh	zero,12(sp)
    1416:	00010723          	sb	zero,14(sp)
    141a:	c54d                	c.beqz	a0,14c4 <user_calib_adc_vref.constprop.9+0xb8>
    141c:	000007b7          	lui	a5,0x0
    1420:	1587a783          	lw	a5,344(a5) # 158 <_AES_VMA_END>
    1424:	0030                	c.addi4spn	a2,sp,8
    1426:	459d                	c.li	a1,7
    1428:	9782                	c.jalr	a5
    142a:	00c14783          	lbu	a5,12(sp)
    142e:	1c07b75b          	bfos	a4,a5,7,0
    1432:	04074163          	bltz	a4,1474 <user_calib_adc_vref.constprop.9+0x68>
    1436:	00e14703          	lbu	a4,14(sp)
    143a:	00d14603          	lbu	a2,13(sp)
    143e:	0722                	c.slli	a4,0x8
    1440:	66c1                	c.lui	a3,0x10
    1442:	00c705b3          	add	a1,a4,a2
    1446:	16fd                	c.addi	a3,-1
    1448:	02d58663          	beq	a1,a3,1474 <user_calib_adc_vref.constprop.9+0x68>
    144c:	fd060613          	addi	a2,a2,-48
    1450:	9732                	c.add	a4,a2
    1452:	3c07275b          	bfoz	a4,a4,15,0
    1456:	0fb00693          	li	a3,251
    145a:	08e6e563          	bltu	a3,a4,14e4 <user_calib_adc_vref.constprop.9+0xd8>
    145e:	17b1                	c.addi	a5,-20
    1460:	1c07b7db          	bfos	a5,a5,7,0
    1464:	5731                	c.li	a4,-20
    1466:	06e78f63          	beq	a5,a4,14e4 <user_calib_adc_vref.constprop.9+0xd8>
    146a:	f9578513          	addi	a0,a5,-107
    146e:	00a03533          	snez	a0,a0
    1472:	a89d                	c.j	14e8 <user_calib_adc_vref.constprop.9+0xdc>
    1474:	801407b7          	lui	a5,0x80140
    1478:	06500713          	li	a4,101
    147c:	1ee78a23          	sb	a4,500(a5) # 801401f4 <_DATA_LMA_START+0x6013b27c>
    1480:	1c87a703          	lw	a4,456(a5)
    1484:	1e078a23          	sb	zero,500(a5)
    1488:	4c47275b          	bfoz	a4,a4,19,4
    148c:	380727db          	bfoz	a5,a4,14,0
    1490:	06078063          	beqz	a5,14f0 <user_calib_adc_vref.constprop.9+0xe4>
    1494:	1ff77713          	andi	a4,a4,511
    1498:	f9b70713          	addi	a4,a4,-101
    149c:	3c07275b          	bfoz	a4,a4,15,0
    14a0:	0c600693          	li	a3,198
    14a4:	04e6e063          	bltu	a3,a4,14e4 <user_calib_adc_vref.constprop.9+0xd8>
    14a8:	0097d513          	srli	a0,a5,0x9
    14ac:	1531                	c.addi	a0,-20
    14ae:	1c05355b          	bfos	a0,a0,7,0
    14b2:	57b1                	c.li	a5,-20
    14b4:	02f50863          	beq	a0,a5,14e4 <user_calib_adc_vref.constprop.9+0xd8>
    14b8:	fd550513          	addi	a0,a0,-43 # 3fffffd5 <_DATA_LMA_START+0x1fffb05d>
    14bc:	00a03533          	snez	a0,a0
    14c0:	0280006f          	j	14e8 <user_calib_adc_vref.constprop.9+0xdc>
    14c4:	801407b7          	lui	a5,0x80140
    14c8:	06500713          	li	a4,101
    14cc:	1ee78a23          	sb	a4,500(a5) # 801401f4 <_DATA_LMA_START+0x6013b27c>
    14d0:	1c87a703          	lw	a4,456(a5)
    14d4:	1e078a23          	sb	zero,500(a5)
    14d8:	4c47275b          	bfoz	a4,a4,19,4
    14dc:	380727db          	bfoz	a5,a4,14,0
    14e0:	fa079ae3          	bnez	a5,1494 <user_calib_adc_vref.constprop.9+0x88>
    14e4:	00000513          	li	a0,0
    14e8:	40f2                	c.lwsp	ra,28(sp)
    14ea:	6105                	c.addi16sp	sp,32
    14ec:	00008067          	ret
    14f0:	00814503          	lbu	a0,8(sp)
    14f4:	00914783          	lbu	a5,9(sp)
    14f8:	953e                	c.add	a0,a5
    14fa:	f8050513          	addi	a0,a0,-128
    14fe:	3c05255b          	bfoz	a0,a0,15,0
    1502:	0fc53513          	sltiu	a0,a0,252
    1506:	b7cd                	c.j	14e8 <user_calib_adc_vref.constprop.9+0xdc>

00001508 <validate.constprop.12>:
    1508:	1101                	c.addi	sp,-32
    150a:	cc22                	c.swsp	s0,24(sp)
    150c:	ca26                	c.swsp	s1,20(sp)
    150e:	ce06                	c.swsp	ra,28(sp)
    1510:	c84a                	c.swsp	s2,16(sp)
    1512:	c64e                	c.swsp	s3,12(sp)
    1514:	00050603          	lb	a2,0(a0)
    1518:	00058683          	lb	a3,0(a1)
    151c:	84aa                	c.mv	s1,a0
    151e:	842e                	c.mv	s0,a1
    1520:	14c69e63          	bne	a3,a2,167c <validate.constprop.12+0x174>
    1524:	4901                	c.li	s2,0
    1526:	4505                	c.li	a0,1
    1528:	00148603          	lb	a2,1(s1)
    152c:	00140683          	lb	a3,1(s0)
    1530:	00d60c63          	beq	a2,a3,1548 <validate.constprop.12+0x40>
    1534:	000819b7          	lui	s3,0x81
    1538:	00100593          	li	a1,1
    153c:	cdc98513          	addi	a0,s3,-804 # 80cdc <softmax_s8_s16_output_ref+0x30>
    1540:	3cd020ef          	jal	ra,410c <printf>
    1544:	0905                	c.addi	s2,1
    1546:	4501                	c.li	a0,0
    1548:	00248603          	lb	a2,2(s1)
    154c:	00240683          	lb	a3,2(s0)
    1550:	00d60c63          	beq	a2,a3,1568 <validate.constprop.12+0x60>
    1554:	000819b7          	lui	s3,0x81
    1558:	00200593          	li	a1,2
    155c:	cdc98513          	addi	a0,s3,-804 # 80cdc <softmax_s8_s16_output_ref+0x30>
    1560:	3ad020ef          	jal	ra,410c <printf>
    1564:	0905                	c.addi	s2,1
    1566:	4501                	c.li	a0,0
    1568:	00348603          	lb	a2,3(s1)
    156c:	00340683          	lb	a3,3(s0)
    1570:	00d60c63          	beq	a2,a3,1588 <validate.constprop.12+0x80>
    1574:	000819b7          	lui	s3,0x81
    1578:	00300593          	li	a1,3
    157c:	cdc98513          	addi	a0,s3,-804 # 80cdc <softmax_s8_s16_output_ref+0x30>
    1580:	38d020ef          	jal	ra,410c <printf>
    1584:	0905                	c.addi	s2,1
    1586:	4501                	c.li	a0,0
    1588:	00448603          	lb	a2,4(s1)
    158c:	00440683          	lb	a3,4(s0)
    1590:	00d60c63          	beq	a2,a3,15a8 <validate.constprop.12+0xa0>
    1594:	000819b7          	lui	s3,0x81
    1598:	00400593          	li	a1,4
    159c:	cdc98513          	addi	a0,s3,-804 # 80cdc <softmax_s8_s16_output_ref+0x30>
    15a0:	36d020ef          	jal	ra,410c <printf>
    15a4:	0905                	c.addi	s2,1
    15a6:	4501                	c.li	a0,0
    15a8:	00548603          	lb	a2,5(s1)
    15ac:	00540683          	lb	a3,5(s0)
    15b0:	00d60c63          	beq	a2,a3,15c8 <validate.constprop.12+0xc0>
    15b4:	000819b7          	lui	s3,0x81
    15b8:	00500593          	li	a1,5
    15bc:	cdc98513          	addi	a0,s3,-804 # 80cdc <softmax_s8_s16_output_ref+0x30>
    15c0:	34d020ef          	jal	ra,410c <printf>
    15c4:	0905                	c.addi	s2,1
    15c6:	4501                	c.li	a0,0
    15c8:	00648603          	lb	a2,6(s1)
    15cc:	00640683          	lb	a3,6(s0)
    15d0:	00d60c63          	beq	a2,a3,15e8 <validate.constprop.12+0xe0>
    15d4:	000819b7          	lui	s3,0x81
    15d8:	00600593          	li	a1,6
    15dc:	cdc98513          	addi	a0,s3,-804 # 80cdc <softmax_s8_s16_output_ref+0x30>
    15e0:	32d020ef          	jal	ra,410c <printf>
    15e4:	0905                	c.addi	s2,1
    15e6:	4501                	c.li	a0,0
    15e8:	00748603          	lb	a2,7(s1)
    15ec:	00740683          	lb	a3,7(s0)
    15f0:	00d60c63          	beq	a2,a3,1608 <validate.constprop.12+0x100>
    15f4:	000819b7          	lui	s3,0x81
    15f8:	00700593          	li	a1,7
    15fc:	cdc98513          	addi	a0,s3,-804 # 80cdc <softmax_s8_s16_output_ref+0x30>
    1600:	30d020ef          	jal	ra,410c <printf>
    1604:	0905                	c.addi	s2,1
    1606:	4501                	c.li	a0,0
    1608:	00848603          	lb	a2,8(s1)
    160c:	00840683          	lb	a3,8(s0)
    1610:	04d61663          	bne	a2,a3,165c <validate.constprop.12+0x154>
    1614:	00948603          	lb	a2,9(s1)
    1618:	00940683          	lb	a3,9(s0)
    161c:	00d61c63          	bne	a2,a3,1634 <validate.constprop.12+0x12c>
    1620:	02050263          	beqz	a0,1644 <validate.constprop.12+0x13c>
    1624:	40f2                	c.lwsp	ra,28(sp)
    1626:	4462                	c.lwsp	s0,24(sp)
    1628:	44d2                	c.lwsp	s1,20(sp)
    162a:	4942                	c.lwsp	s2,16(sp)
    162c:	49b2                	c.lwsp	s3,12(sp)
    162e:	6105                	c.addi16sp	sp,32
    1630:	00008067          	ret
    1634:	000819b7          	lui	s3,0x81
    1638:	45a5                	c.li	a1,9
    163a:	cdc98513          	addi	a0,s3,-804 # 80cdc <softmax_s8_s16_output_ref+0x30>
    163e:	0905                	c.addi	s2,1
    1640:	2cd020ef          	jal	ra,410c <printf>
    1644:	00081537          	lui	a0,0x81
    1648:	4629                	c.li	a2,10
    164a:	85ca                	c.mv	a1,s2
    164c:	d0050513          	addi	a0,a0,-768 # 80d00 <softmax_s8_s16_output_ref+0x54>
    1650:	2bd020ef          	jal	ra,410c <printf>
    1654:	00000513          	li	a0,0
    1658:	fcdff06f          	j	1624 <validate.constprop.12+0x11c>
    165c:	000819b7          	lui	s3,0x81
    1660:	00800593          	li	a1,8
    1664:	cdc98513          	addi	a0,s3,-804 # 80cdc <softmax_s8_s16_output_ref+0x30>
    1668:	2a5020ef          	jal	ra,410c <printf>
    166c:	00948603          	lb	a2,9(s1)
    1670:	00940683          	lb	a3,9(s0)
    1674:	0905                	c.addi	s2,1
    1676:	fcc687e3          	beq	a3,a2,1644 <validate.constprop.12+0x13c>
    167a:	bf7d                	c.j	1638 <validate.constprop.12+0x130>
    167c:	000819b7          	lui	s3,0x81
    1680:	00000593          	li	a1,0
    1684:	cdc98513          	addi	a0,s3,-804 # 80cdc <softmax_s8_s16_output_ref+0x30>
    1688:	285020ef          	jal	ra,410c <printf>
    168c:	4905                	c.li	s2,1
    168e:	4501                	c.li	a0,0
    1690:	bd61                	c.j	1528 <validate.constprop.12+0x20>
    1692:	0001                	c.nop

00001694 <validate_s16.lto_priv.14>:
    1694:	1101                	c.addi	sp,-32
    1696:	cc22                	c.swsp	s0,24(sp)
    1698:	ca26                	c.swsp	s1,20(sp)
    169a:	c84a                	c.swsp	s2,16(sp)
    169c:	c64e                	c.swsp	s3,12(sp)
    169e:	c452                	c.swsp	s4,8(sp)
    16a0:	c256                	c.swsp	s5,4(sp)
    16a2:	c05a                	c.swsp	s6,0(sp)
    16a4:	89b2                	c.mv	s3,a2
    16a6:	892a                	c.mv	s2,a0
    16a8:	84ae                	c.mv	s1,a1
    16aa:	4401                	c.li	s0,0
    16ac:	4a01                	c.li	s4,0
    16ae:	4b05                	c.li	s6,1
    16b0:	00081ab7          	lui	s5,0x81
    16b4:	00112e23          	sw	ra,28(sp)
    16b8:	00091703          	lh	a4,0(s2)
    16bc:	00049783          	lh	a5,0(s1)
    16c0:	85a2                	c.mv	a1,s0
    16c2:	86be                	c.mv	a3,a5
    16c4:	0405                	c.addi	s0,1
    16c6:	863a                	c.mv	a2,a4
    16c8:	cdca8513          	addi	a0,s5,-804 # 80cdc <softmax_s8_s16_output_ref+0x30>
    16cc:	00f70663          	beq	a4,a5,16d8 <validate_s16.lto_priv.14+0x44>
    16d0:	0a05                	c.addi	s4,1
    16d2:	4b01                	c.li	s6,0
    16d4:	239020ef          	jal	ra,410c <printf>
    16d8:	0909                	c.addi	s2,2
    16da:	0489                	c.addi	s1,2
    16dc:	fc899ee3          	bne	s3,s0,16b8 <validate_s16.lto_priv.14+0x24>
    16e0:	000b1a63          	bnez	s6,16f4 <validate_s16.lto_priv.14+0x60>
    16e4:	00081537          	lui	a0,0x81
    16e8:	864e                	c.mv	a2,s3
    16ea:	85d2                	c.mv	a1,s4
    16ec:	d0050513          	addi	a0,a0,-768 # 80d00 <softmax_s8_s16_output_ref+0x54>
    16f0:	21d020ef          	jal	ra,410c <printf>
    16f4:	40f2                	c.lwsp	ra,28(sp)
    16f6:	4462                	c.lwsp	s0,24(sp)
    16f8:	855a                	c.mv	a0,s6
    16fa:	44d2                	c.lwsp	s1,20(sp)
    16fc:	4942                	c.lwsp	s2,16(sp)
    16fe:	49b2                	c.lwsp	s3,12(sp)
    1700:	4a22                	c.lwsp	s4,8(sp)
    1702:	4a92                	c.lwsp	s5,4(sp)
    1704:	4b02                	c.lwsp	s6,0(sp)
    1706:	6105                	c.addi16sp	sp,32
    1708:	8082                	c.jr	ra
	...

0000170c <user_calib_freq_offset.constprop.8>:
    170c:	000007b7          	lui	a5,0x0
    1710:	1101                	c.addi	sp,-32
    1712:	1587a783          	lw	a5,344(a5) # 158 <_AES_VMA_END>
    1716:	577d                	c.li	a4,-1
    1718:	00f10613          	addi	a2,sp,15
    171c:	4585                	c.li	a1,1
    171e:	cc22                	c.swsp	s0,24(sp)
    1720:	ce06                	c.swsp	ra,28(sp)
    1722:	00e107a3          	sb	a4,15(sp)
    1726:	9782                	c.jalr	a5
    1728:	00f14403          	lbu	s0,15(sp)
    172c:	0ff00793          	li	a5,255
    1730:	00000513          	li	a0,0
    1734:	02f40263          	beq	s0,a5,1758 <user_calib_freq_offset.constprop.8+0x4c>
    1738:	08a00513          	li	a0,138
    173c:	89cff0ef          	jal	ra,7d8 <analog_read_reg8>
    1740:	03f47413          	andi	s0,s0,63
    1744:	04057593          	andi	a1,a0,64
    1748:	0085e5b3          	or	a1,a1,s0
    174c:	08a00513          	li	a0,138
    1750:	844ff0ef          	jal	ra,794 <analog_write_reg8>
    1754:	00100513          	li	a0,1
    1758:	40f2                	c.lwsp	ra,28(sp)
    175a:	4462                	c.lwsp	s0,24(sp)
    175c:	6105                	c.addi16sp	sp,32
    175e:	8082                	c.jr	ra
    1760:	0001                	c.nop
	...

00001764 <gpio_input_dis>:
    1764:	801407b7          	lui	a5,0x80140
    1768:	30978703          	lb	a4,777(a5) # 80140309 <_DATA_LMA_START+0x6013b391>
    176c:	fff54513          	not	a0,a0
    1770:	8d79                	c.and	a0,a4
    1772:	0ff57513          	andi	a0,a0,255
    1776:	30a784a3          	sb	a0,777(a5)
    177a:	8082                	c.jr	ra
    177c:	0001                	c.nop
	...

00001780 <_write>:
    1780:	1141                	c.addi	sp,-16
    1782:	c606                	c.swsp	ra,12(sp)
    1784:	c422                	c.swsp	s0,8(sp)
    1786:	c226                	c.swsp	s1,4(sp)
    1788:	c04a                	c.swsp	s2,0(sp)
    178a:	02c05763          	blez	a2,17b8 <_write+0x38>
    178e:	8932                	c.mv	s2,a2
    1790:	00b00433          	add	s0,zero,a1
    1794:	00c584b3          	add	s1,a1,a2
    1798:	00044503          	lbu	a0,0(s0)
    179c:	00140413          	addi	s0,s0,1
    17a0:	c0cff0ef          	jal	ra,bac <dr_putchar>
    17a4:	fe941ae3          	bne	s0,s1,1798 <_write+0x18>
    17a8:	40b2                	c.lwsp	ra,12(sp)
    17aa:	4422                	c.lwsp	s0,8(sp)
    17ac:	854a                	c.mv	a0,s2
    17ae:	4492                	c.lwsp	s1,4(sp)
    17b0:	4902                	c.lwsp	s2,0(sp)
    17b2:	0141                	c.addi	sp,16
    17b4:	00008067          	ret
    17b8:	40b2                	c.lwsp	ra,12(sp)
    17ba:	4422                	c.lwsp	s0,8(sp)
    17bc:	4901                	c.li	s2,0
    17be:	854a                	c.mv	a0,s2
    17c0:	4492                	c.lwsp	s1,4(sp)
    17c2:	4902                	c.lwsp	s2,0(sp)
    17c4:	0141                	c.addi	sp,16
    17c6:	8082                	c.jr	ra

000017c8 <main>:
    17c8:	7119                	c.addi16sp	sp,-128
    17ca:	ffbc07b7          	lui	a5,0xffbc0
    17ce:	de86                	c.swsp	ra,124(sp)
    17d0:	17fd                	c.addi	a5,-1
    17d2:	80140737          	lui	a4,0x80140
    17d6:	dca2                	c.swsp	s0,120(sp)
    17d8:	daa6                	c.swsp	s1,116(sp)
    17da:	d8ca                	c.swsp	s2,112(sp)
    17dc:	d6ce                	c.swsp	s3,108(sp)
    17de:	d4d2                	c.swsp	s4,104(sp)
    17e0:	d2d6                	c.swsp	s5,100(sp)
    17e2:	d0da                	c.swsp	s6,96(sp)
    17e4:	cede                	c.swsp	s7,92(sp)
    17e6:	1ef72023          	sw	a5,480(a4) # 801401e0 <_DATA_LMA_START+0x6013b268>
    17ea:	4589                	c.li	a1,2
    17ec:	08c00513          	li	a0,140
    17f0:	1ef72223          	sw	a5,484(a4)
    17f4:	fa1fe0ef          	jal	ra,794 <analog_write_reg8>
    17f8:	4581                	c.li	a1,0
    17fa:	4529                	c.li	a0,10
    17fc:	f99fe0ef          	jal	ra,794 <analog_write_reg8>
    1800:	03b00593          	li	a1,59
    1804:	00b00513          	li	a0,11
    1808:	f8dfe0ef          	jal	ra,794 <analog_write_reg8>
    180c:	00500513          	li	a0,5
    1810:	fc9fe0ef          	jal	ra,7d8 <analog_read_reg8>
    1814:	0f757593          	andi	a1,a0,247
    1818:	00500513          	li	a0,5
    181c:	f79fe0ef          	jal	ra,794 <analog_write_reg8>
    1820:	00600513          	li	a0,6
    1824:	fb5fe0ef          	jal	ra,7d8 <analog_read_reg8>
    1828:	03e57593          	andi	a1,a0,62
    182c:	00600513          	li	a0,6
    1830:	f65fe0ef          	jal	ra,794 <analog_write_reg8>
    1834:	04500593          	li	a1,69
    1838:	00100513          	li	a0,1
    183c:	f59fe0ef          	jal	ra,794 <analog_write_reg8>
    1840:	04c00593          	li	a1,76
    1844:	01c00513          	li	a0,28
    1848:	f4dfe0ef          	jal	ra,794 <analog_write_reg8>
    184c:	801007b7          	lui	a5,0x80100
    1850:	44478703          	lb	a4,1092(a5) # 80100444 <_DATA_LMA_START+0x600fb4cc>
    1854:	801016b7          	lui	a3,0x80101
    1858:	0ff77713          	andi	a4,a4,255
    185c:	00e76713          	ori	a4,a4,14
    1860:	44e78223          	sb	a4,1092(a5)
    1864:	45878703          	lb	a4,1112(a5)
    1868:	03800513          	li	a0,56
    186c:	0ff77713          	andi	a4,a4,255
    1870:	00e76713          	ori	a4,a4,14
    1874:	44e78c23          	sb	a4,1112(a5)
    1878:	46c78703          	lb	a4,1132(a5)
    187c:	0ff77713          	andi	a4,a4,255
    1880:	00e76713          	ori	a4,a4,14
    1884:	46e78623          	sb	a4,1132(a5)
    1888:	48078703          	lb	a4,1152(a5)
    188c:	0ff77713          	andi	a4,a4,255
    1890:	00e76713          	ori	a4,a4,14
    1894:	48e78023          	sb	a4,1152(a5)
    1898:	49478703          	lb	a4,1172(a5)
    189c:	0ff77713          	andi	a4,a4,255
    18a0:	00e76713          	ori	a4,a4,14
    18a4:	48e78a23          	sb	a4,1172(a5)
    18a8:	4a878703          	lb	a4,1192(a5)
    18ac:	0ff77713          	andi	a4,a4,255
    18b0:	00e76713          	ori	a4,a4,14
    18b4:	4ae78423          	sb	a4,1192(a5)
    18b8:	4bc78703          	lb	a4,1212(a5)
    18bc:	0ff77713          	andi	a4,a4,255
    18c0:	00e76713          	ori	a4,a4,14
    18c4:	4ae78e23          	sb	a4,1212(a5)
    18c8:	4d078703          	lb	a4,1232(a5)
    18cc:	0ff77713          	andi	a4,a4,255
    18d0:	00e76713          	ori	a4,a4,14
    18d4:	4ce78823          	sb	a4,1232(a5)
    18d8:	83a68783          	lb	a5,-1990(a3) # 8010083a <_DATA_LMA_START+0x600fb8c2>
    18dc:	82068d23          	sb	zero,-1990(a3)
    18e0:	ef9fe0ef          	jal	ra,7d8 <analog_read_reg8>
    18e4:	00a00433          	add	s0,zero,a0
    18e8:	03900513          	li	a0,57
    18ec:	eedfe0ef          	jal	ra,7d8 <analog_read_reg8>
    18f0:	84aa                	c.mv	s1,a0
    18f2:	4004745b          	bbs	s0,0,18fa <main+0x132>
    18f6:	7320006f          	j	2028 <main+0x860>
    18fa:	0fe47593          	andi	a1,s0,254
    18fe:	5600140b          	addigp	s0,1376 # 80d60 <g_pm_status_info>
    1902:	03800513          	li	a0,56
    1906:	4004f45b          	bbs	s1,0,190e <main+0x146>
    190a:	6fe0006f          	j	2008 <main+0x840>
    190e:	4791                	c.li	a5,4
    1910:	00f40123          	sb	a5,2(s0)
    1914:	e81fe0ef          	jal	ra,794 <analog_write_reg8>
    1918:	00100593          	li	a1,1
    191c:	07f00513          	li	a0,127
    1920:	e75fe0ef          	jal	ra,794 <analog_write_reg8>
    1924:	06400513          	li	a0,100
    1928:	eb1fe0ef          	jal	ra,7d8 <analog_read_reg8>
    192c:	0c3527db          	bfoz	a5,a0,3,3
    1930:	00a400a3          	sb	a0,1(s0)
    1934:	00f40023          	sb	a5,0(s0)
    1938:	08800513          	li	a0,136
    193c:	e9dfe0ef          	jal	ra,7d8 <analog_read_reg8>
    1940:	be757c5b          	bbc	a0,7,1938 <main+0x170>
    1944:	820ff0ef          	jal	ra,964 <pm_wait_bbpll_done>
    1948:	00244783          	lbu	a5,2(s0)
    194c:	0a87de5b          	beqc	a5,8,1a08 <main+0x240>
    1950:	80140737          	lui	a4,0x80140
    1954:	20a70783          	lb	a5,522(a4) # 8014020a <_DATA_LMA_START+0x6013b292>
    1958:	0ff7f793          	andi	a5,a5,255
    195c:	00c7e793          	ori	a5,a5,12
    1960:	20f70523          	sb	a5,522(a4)
    1964:	00100793          	li	a5,1
    1968:	20f72023          	sw	a5,512(a4)
    196c:	801404b7          	lui	s1,0x80140
    1970:	1fd48783          	lb	a5,509(s1) # 801401fd <_DATA_LMA_START+0x6013b285>
    1974:	0ff7f793          	andi	a5,a5,255
    1978:	54f04e2b          	swgp	a5,1372 # 80d5c <g_chip_version>
    197c:	00244703          	lbu	a4,2(s0)
    1980:	04475c5b          	beqc	a4,4,19d8 <main+0x210>
    1984:	0ff00693          	li	a3,255
    1988:	04d78063          	beq	a5,a3,19c8 <main+0x200>
    198c:	08000593          	li	a1,128
    1990:	07d00513          	li	a0,125
    1994:	e01fe0ef          	jal	ra,794 <analog_write_reg8>
    1998:	80140737          	lui	a4,0x80140
    199c:	06500793          	li	a5,101
    19a0:	1ef70a23          	sb	a5,500(a4) # 801401f4 <_DATA_LMA_START+0x6013b27c>
    19a4:	1c872783          	lw	a5,456(a4)
    19a8:	1e070a23          	sb	zero,500(a4)
    19ac:	8bbd                	c.andi	a5,15
    19ae:	0037d55b          	beqc	a5,3,19b8 <main+0x1f0>
    19b2:	4725                	c.li	a4,9
    19b4:	04f77e63          	bgeu	a4,a5,1a10 <main+0x248>
    19b8:	801407b7          	lui	a5,0x80140
    19bc:	02000713          	li	a4,32
    19c0:	1ee787a3          	sb	a4,495(a5) # 801401ef <_DATA_LMA_START+0x6013b277>
    19c4:	0000006f          	j	19c4 <main+0x1fc>
    19c8:	bc17625b          	bnec	a4,1,198c <main+0x1c4>
    19cc:	07d00513          	li	a0,125
    19d0:	08000593          	li	a1,128
    19d4:	0180006f          	j	19ec <main+0x224>
    19d8:	03900513          	li	a0,57
    19dc:	dfdfe0ef          	jal	ra,7d8 <analog_read_reg8>
    19e0:	00256593          	ori	a1,a0,2
    19e4:	0ff5f593          	andi	a1,a1,255
    19e8:	03900513          	li	a0,57
    19ec:	da9fe0ef          	jal	ra,794 <analog_write_reg8>
    19f0:	2004a503          	lw	a0,512(s1)
    19f4:	001877b7          	lui	a5,0x187
    19f8:	a0078793          	addi	a5,a5,-1536 # 186a00 <FLASH_SIZE+0x86a00>
    19fc:	00f50533          	add	a0,a0,a5
    1a00:	9f5ff0ef          	jal	ra,13f4 <pm_sleep_wakeup.constprop.2>
    1a04:	f89ff06f          	j	198c <main+0x1c4>
    1a08:	975fe0ef          	jal	ra,37c <pm_stimer_recover>
    1a0c:	f61ff06f          	j	196c <main+0x1a4>
    1a10:	00f00513          	li	a0,15
    1a14:	dc5fe0ef          	jal	ra,7d8 <analog_read_reg8>
    1a18:	03f57593          	andi	a1,a0,63
    1a1c:	0405e593          	ori	a1,a1,64
    1a20:	00f00513          	li	a0,15
    1a24:	d71fe0ef          	jal	ra,794 <analog_write_reg8>
    1a28:	084c                	c.addi4spn	a1,sp,20
    1a2a:	0068                	c.addi4spn	a0,sp,12
    1a2c:	829ff0ef          	jal	ra,1254 <flash_read_mid_uid_with_check>
    1a30:	0ff57513          	andi	a0,a0,255
    1a34:	0015545b          	beqc	a0,1,1a3c <main+0x274>
    1a38:	5c40006f          	j	1ffc <main+0x834>
    1a3c:	00e14783          	lbu	a5,14(sp)
    1a40:	474d                	c.li	a4,19
    1a42:	0137e45b          	bnec	a5,19,1a4a <main+0x282>
    1a46:	59e0006f          	j	1fe4 <main+0x81c>
    1a4a:	52f77763          	bgeu	a4,a5,1f78 <main+0x7b0>
    1a4e:	4755                	c.li	a4,21
    1a50:	0157e45b          	bnec	a5,21,1a58 <main+0x290>
    1a54:	50c0006f          	j	1f60 <main+0x798>
    1a58:	44e7ee63          	bltu	a5,a4,1eb4 <main+0x6ec>
    1a5c:	0167d45b          	beqc	a5,22,1a64 <main+0x29c>
    1a60:	59c0006f          	j	1ffc <main+0x834>
    1a64:	003fe537          	lui	a0,0x3fe
    1a68:	0c050513          	addi	a0,a0,192 # 3fe0c0 <FLASH_SIZE+0x2fe0c0>
    1a6c:	9a1ff0ef          	jal	ra,140c <user_calib_adc_vref.constprop.9>
    1a70:	003fe537          	lui	a0,0x3fe
    1a74:	c99ff0ef          	jal	ra,170c <user_calib_freq_offset.constprop.8>
    1a78:	80140437          	lui	s0,0x80140
    1a7c:	961ff0ef          	jal	ra,13dc <clock_init.constprop.10>
    1a80:	30e40783          	lb	a5,782(s0) # 8014030e <_DATA_LMA_START+0x6013b396>
    1a84:	11000513          	li	a0,272
    1a88:	0ff7f793          	andi	a5,a5,255
    1a8c:	0107e793          	ori	a5,a5,16
    1a90:	30f40723          	sb	a5,782(s0)
    1a94:	30a40783          	lb	a5,778(s0)
    1a98:	000809b7          	lui	s3,0x80
    1a9c:	0ef7f793          	andi	a5,a5,239
    1aa0:	30f40523          	sb	a5,778(s0)
    1aa4:	cc1ff0ef          	jal	ra,1764 <gpio_input_dis>
    1aa8:	30e40783          	lb	a5,782(s0)
    1aac:	12000513          	li	a0,288
    1ab0:	0ff7f793          	andi	a5,a5,255
    1ab4:	0207e793          	ori	a5,a5,32
    1ab8:	30f40723          	sb	a5,782(s0)
    1abc:	30a40783          	lb	a5,778(s0)
    1ac0:	0df7f793          	andi	a5,a5,223
    1ac4:	30f40523          	sb	a5,778(s0)
    1ac8:	c9dff0ef          	jal	ra,1764 <gpio_input_dis>
    1acc:	30e40783          	lb	a5,782(s0)
    1ad0:	14000513          	li	a0,320
    1ad4:	0ff7f793          	andi	a5,a5,255
    1ad8:	0407e793          	ori	a5,a5,64
    1adc:	30f40723          	sb	a5,782(s0)
    1ae0:	30a40783          	lb	a5,778(s0)
    1ae4:	5640148b          	addigp	s1,1380 # 80d64 <stack_limit>
    1ae8:	0bf7f793          	andi	a5,a5,191
    1aec:	30f40523          	sb	a5,778(s0)
    1af0:	c75ff0ef          	jal	ra,1764 <gpio_input_dis>
    1af4:	30e40783          	lb	a5,782(s0)
    1af8:	18000513          	li	a0,384
    1afc:	f807e793          	ori	a5,a5,-128
    1b00:	0ff7f793          	andi	a5,a5,255
    1b04:	30f40723          	sb	a5,782(s0)
    1b08:	30a40783          	lb	a5,778(s0)
    1b0c:	07f7f793          	andi	a5,a5,127
    1b10:	30f40523          	sb	a5,778(s0)
    1b14:	c51ff0ef          	jal	ra,1764 <gpio_input_dis>
    1b18:	00080537          	lui	a0,0x80
    1b1c:	01050513          	addi	a0,a0,16 # 80010 <_DATA_VMA_START+0x10>
    1b20:	60a020ef          	jal	ra,412a <puts>
    1b24:	65a9                	c.lui	a1,0xa
    1b26:	00080537          	lui	a0,0x80
    1b2a:	0585                	c.addi	a1,1
    1b2c:	01450513          	addi	a0,a0,20 # 80014 <_DATA_VMA_START+0x14>
    1b30:	5dc020ef          	jal	ra,410c <printf>
    1b34:	00080537          	lui	a0,0x80
    1b38:	7e400593          	li	a1,2020
    1b3c:	02c50513          	addi	a0,a0,44 # 8002c <_DATA_VMA_START+0x2c>
    1b40:	5cc020ef          	jal	ra,410c <printf>
    1b44:	000805b7          	lui	a1,0x80
    1b48:	00080537          	lui	a0,0x80
    1b4c:	04458593          	addi	a1,a1,68 # 80044 <_DATA_VMA_START+0x44>
    1b50:	05050513          	addi	a0,a0,80 # 80050 <_DATA_VMA_START+0x50>
    1b54:	5b8020ef          	jal	ra,410c <printf>
    1b58:	ea8fe0ef          	jal	ra,200 <delay_ms.constprop.13>
    1b5c:	2f898513          	addi	a0,s3,760 # 802f8 <_DATA_VMA_START+0x2f8>
    1b60:	5ac020ef          	jal	ra,410c <printf>
    1b64:	00080537          	lui	a0,0x80
    1b68:	07850513          	addi	a0,a0,120 # 80078 <_DATA_VMA_START+0x78>
    1b6c:	5a0020ef          	jal	ra,410c <printf>
    1b70:	00080537          	lui	a0,0x80
    1b74:	0b050513          	addi	a0,a0,176 # 800b0 <_DATA_VMA_START+0xb0>
    1b78:	594020ef          	jal	ra,410c <printf>
    1b7c:	001f990b          	addigp	s2,129024 # a0000 <_STACK_TOP>
    1b80:	747d                	c.lui	s0,0xfffff
    1b82:	944a                	c.add	s0,s2
    1b84:	c080                	c.sw	s0,0(s1)
    1b86:	b0005073          	csrwi	mcycle,0
    1b8a:	878a                	c.mv	a5,sp
    1b8c:	02f47263          	bgeu	s0,a5,1bb0 <main+0x3e8>
    1b90:	00140713          	addi	a4,s0,1 # fffff001 <_DATA_LMA_START+0xdfffa089>
    1b94:	4611                	c.li	a2,4
    1b96:	00e7e763          	bltu	a5,a4,1ba4 <main+0x3dc>
    1b9a:	fff44613          	not	a2,s0
    1b9e:	963e                	c.add	a2,a5
    1ba0:	9a71                	c.andi	a2,-4
    1ba2:	0611                	c.addi	a2,4
    1ba4:	0aa00593          	li	a1,170
    1ba8:	00800533          	add	a0,zero,s0
    1bac:	378020ef          	jal	ra,3f24 <memset>
    1bb0:	b0002bf3          	csrr	s7,mcycle
    1bb4:	77fd                	c.lui	a5,0xfffff
    1bb6:	404046b7          	lui	a3,0x40404
    1bba:	01410813          	addi	a6,sp,20
    1bbe:	08078793          	addi	a5,a5,128 # fffff080 <_DATA_LMA_START+0xdfffa108>
    1bc2:	474d                	c.li	a4,19
    1bc4:	08068693          	addi	a3,a3,128 # 40404080 <_DATA_LMA_START+0x203ff108>
    1bc8:	4615                	c.li	a2,5
    1bca:	4589                	c.li	a1,2
    1bcc:	bfdf950b          	addigp	a0,-1028 # 803fc <softmax_input>
    1bd0:	69c000ef          	jal	ra,226c <riscv_softmax_s8>
    1bd4:	b0002b73          	csrr	s6,mcycle
    1bd8:	870a                	c.mv	a4,sp
    1bda:	409c                	c.lw	a5,0(s1)
    1bdc:	02e7f263          	bgeu	a5,a4,1c00 <main+0x438>
    1be0:	aaaab637          	lui	a2,0xaaaab
    1be4:	4394                	c.lw	a3,0(a5)
    1be6:	aaa60613          	addi	a2,a2,-1366 # aaaaaaaa <_DATA_LMA_START+0x8aaa5b32>
    1bea:	00c68763          	beq	a3,a2,1bf8 <main+0x430>
    1bee:	a809                	c.j	1c00 <main+0x438>
    1bf0:	0007a603          	lw	a2,0(a5)
    1bf4:	00d61663          	bne	a2,a3,1c00 <main+0x438>
    1bf8:	00478793          	addi	a5,a5,4
    1bfc:	fee7eae3          	bltu	a5,a4,1bf0 <main+0x428>
    1c00:	2f898513          	addi	a0,s3,760
    1c04:	40f70a33          	sub	s4,a4,a5
    1c08:	504020ef          	jal	ra,410c <printf>
    1c0c:	c09f958b          	addigp	a1,-1016 # 80408 <softmax_output_ref>
    1c10:	01410513          	addi	a0,sp,20
    1c14:	417b0b33          	sub	s6,s6,s7
    1c18:	8f1ff0ef          	jal	ra,1508 <validate.constprop.12>
    1c1c:	2a051863          	bnez	a0,1ecc <main+0x704>
    1c20:	00080537          	lui	a0,0x80
    1c24:	13050513          	addi	a0,a0,304 # 80130 <_DATA_VMA_START+0x130>
    1c28:	4e4020ef          	jal	ra,410c <printf>
    1c2c:	00a00513          	li	a0,10
    1c30:	2d4020ef          	jal	ra,3f04 <malloc>
    1c34:	808087b7          	lui	a5,0x80808
    1c38:	08078793          	addi	a5,a5,128 # 80808080 <_DATA_LMA_START+0x60803108>
    1c3c:	c11c                	c.sw	a5,0(a0)
    1c3e:	c15c                	c.sw	a5,4(a0)
    1c40:	77e1                	c.lui	a5,0xffff8
    1c42:	08078793          	addi	a5,a5,128 # ffff8080 <_DATA_LMA_START+0xdfff3108>
    1c46:	8a2a                	c.mv	s4,a0
    1c48:	00f51423          	sh	a5,8(a0)
    1c4c:	c080                	c.sw	s0,0(s1)
    1c4e:	b0005073          	csrwi	mcycle,0
    1c52:	878a                	c.mv	a5,sp
    1c54:	02f47263          	bgeu	s0,a5,1c78 <main+0x4b0>
    1c58:	00140713          	addi	a4,s0,1
    1c5c:	4611                	c.li	a2,4
    1c5e:	00e7e763          	bltu	a5,a4,1c6c <main+0x4a4>
    1c62:	fff44613          	not	a2,s0
    1c66:	963e                	c.add	a2,a5
    1c68:	9a71                	c.andi	a2,-4
    1c6a:	0611                	c.addi	a2,4
    1c6c:	0aa00593          	li	a1,170
    1c70:	00800533          	add	a0,zero,s0
    1c74:	2b0020ef          	jal	ra,3f24 <memset>
    1c78:	b0002bf3          	csrr	s7,mcycle
    1c7c:	800007b7          	lui	a5,0x80000
    1c80:	404046b7          	lui	a3,0x40404
    1c84:	01410813          	addi	a6,sp,20
    1c88:	fff7c793          	not	a5,a5
    1c8c:	474d                	c.li	a4,19
    1c8e:	08068693          	addi	a3,a3,128 # 40404080 <_DATA_LMA_START+0x203ff108>
    1c92:	4615                	c.li	a2,5
    1c94:	00200593          	li	a1,2
    1c98:	bfdf950b          	addigp	a0,-1028 # 803fc <softmax_input>
    1c9c:	5d0000ef          	jal	ra,226c <riscv_softmax_s8>
    1ca0:	b0002b73          	csrr	s6,mcycle
    1ca4:	870a                	c.mv	a4,sp
    1ca6:	409c                	c.lw	a5,0(s1)
    1ca8:	02e7f263          	bgeu	a5,a4,1ccc <main+0x504>
    1cac:	aaaab637          	lui	a2,0xaaaab
    1cb0:	4394                	c.lw	a3,0(a5)
    1cb2:	aaa60613          	addi	a2,a2,-1366 # aaaaaaaa <_DATA_LMA_START+0x8aaa5b32>
    1cb6:	00c68763          	beq	a3,a2,1cc4 <main+0x4fc>
    1cba:	a809                	c.j	1ccc <main+0x504>
    1cbc:	0007a603          	lw	a2,0(a5) # 80000000 <_DATA_LMA_START+0x5fffb088>
    1cc0:	00d61663          	bne	a2,a3,1ccc <main+0x504>
    1cc4:	00478793          	addi	a5,a5,4
    1cc8:	fee7eae3          	bltu	a5,a4,1cbc <main+0x4f4>
    1ccc:	2f898513          	addi	a0,s3,760
    1cd0:	40f70ab3          	sub	s5,a4,a5
    1cd4:	438020ef          	jal	ra,410c <printf>
    1cd8:	85d2                	c.mv	a1,s4
    1cda:	0848                	c.addi4spn	a0,sp,20
    1cdc:	417b0b33          	sub	s6,s6,s7
    1ce0:	829ff0ef          	jal	ra,1508 <validate.constprop.12>
    1ce4:	20051c63          	bnez	a0,1efc <main+0x734>
    1ce8:	00080537          	lui	a0,0x80
    1cec:	1b050513          	addi	a0,a0,432 # 801b0 <_DATA_VMA_START+0x1b0>
    1cf0:	41c020ef          	jal	ra,410c <printf>
    1cf4:	01400533          	add	a0,zero,s4
    1cf8:	21c020ef          	jal	ra,3f14 <free>
    1cfc:	2f898513          	addi	a0,s3,760
    1d00:	40c020ef          	jal	ra,410c <printf>
    1d04:	00080537          	lui	a0,0x80
    1d08:	1f450513          	addi	a0,a0,500 # 801f4 <_DATA_VMA_START+0x1f4>
    1d0c:	400020ef          	jal	ra,410c <printf>
    1d10:	c15f978b          	addigp	a5,-1004 # 80414 <softmax_s16_exp_lut>
    1d14:	c63e                	c.swsp	a5,12(sp)
    1d16:	0540178b          	addigp	a5,84 # 80854 <softmax_s16_one_by_one_lut>
    1d1a:	c83e                	c.swsp	a5,16(sp)
    1d1c:	c080                	c.sw	s0,0(s1)
    1d1e:	870a                	c.mv	a4,sp
    1d20:	02e47663          	bgeu	s0,a4,1d4c <main+0x584>
    1d24:	77fd                	c.lui	a5,0xfffff
    1d26:	0785                	c.addi	a5,1
    1d28:	97ca                	c.add	a5,s2
    1d2a:	4611                	c.li	a2,4
    1d2c:	00f76a63          	bltu	a4,a5,1d40 <main+0x578>
    1d30:	6605                	c.lui	a2,0x1
    1d32:	167d                	c.addi	a2,-1
    1d34:	41260633          	sub	a2,a2,s2
    1d38:	963a                	c.add	a2,a4
    1d3a:	9a71                	c.andi	a2,-4
    1d3c:	00460613          	addi	a2,a2,4 # 1004 <trap_entry+0x2c>
    1d40:	0aa00593          	li	a1,170
    1d44:	00800533          	add	a0,zero,s0
    1d48:	1dc020ef          	jal	ra,3f24 <memset>
    1d4c:	b0005073          	csrwi	mcycle,0
    1d50:	b0002b73          	csrr	s6,mcycle
    1d54:	6666d6b7          	lui	a3,0x6666d
    1d58:	01410813          	addi	a6,sp,20
    1d5c:	007c                	c.addi4spn	a5,sp,12
    1d5e:	5779                	c.li	a4,-2
    1d60:	ccc68693          	addi	a3,a3,-820 # 6666cccc <_DATA_LMA_START+0x46667d54>
    1d64:	4629                	c.li	a2,10
    1d66:	458d                	c.li	a1,3
    1d68:	0180150b          	addigp	a0,24 # 80818 <softmax_s16_input>
    1d6c:	310000ef          	jal	ra,207c <riscv_softmax_s16>
    1d70:	b0002af3          	csrr	s5,mcycle
    1d74:	870a                	c.mv	a4,sp
    1d76:	409c                	c.lw	a5,0(s1)
    1d78:	02e7f263          	bgeu	a5,a4,1d9c <main+0x5d4>
    1d7c:	aaaab637          	lui	a2,0xaaaab
    1d80:	4394                	c.lw	a3,0(a5)
    1d82:	aaa60613          	addi	a2,a2,-1366 # aaaaaaaa <_DATA_LMA_START+0x8aaa5b32>
    1d86:	00c68763          	beq	a3,a2,1d94 <main+0x5cc>
    1d8a:	a809                	c.j	1d9c <main+0x5d4>
    1d8c:	0007a603          	lw	a2,0(a5) # fffff000 <_DATA_LMA_START+0xdfffa088>
    1d90:	00d61663          	bne	a2,a3,1d9c <main+0x5d4>
    1d94:	00478793          	addi	a5,a5,4
    1d98:	fee7eae3          	bltu	a5,a4,1d8c <main+0x5c4>
    1d9c:	4679                	c.li	a2,30
    1d9e:	4580158b          	addigp	a1,1112 # 80c58 <softmax_s16_output_ref>
    1da2:	0848                	c.addi4spn	a0,sp,20
    1da4:	40f70a33          	sub	s4,a4,a5
    1da8:	416a8ab3          	sub	s5,s5,s6
    1dac:	8e9ff0ef          	jal	ra,1694 <validate_s16.lto_priv.14>
    1db0:	16051e63          	bnez	a0,1f2c <main+0x764>
    1db4:	00080537          	lui	a0,0x80
    1db8:	2a050513          	addi	a0,a0,672 # 802a0 <_DATA_VMA_START+0x2a0>
    1dbc:	350020ef          	jal	ra,410c <printf>
    1dc0:	2f898513          	addi	a0,s3,760
    1dc4:	348020ef          	jal	ra,410c <printf>
    1dc8:	00080537          	lui	a0,0x80
    1dcc:	2d050513          	addi	a0,a0,720 # 802d0 <_DATA_VMA_START+0x2d0>
    1dd0:	33c020ef          	jal	ra,410c <printf>
    1dd4:	c080                	c.sw	s0,0(s1)
    1dd6:	870a                	c.mv	a4,sp
    1dd8:	02e47663          	bgeu	s0,a4,1e04 <main+0x63c>
    1ddc:	77fd                	c.lui	a5,0xfffff
    1dde:	0785                	c.addi	a5,1
    1de0:	97ca                	c.add	a5,s2
    1de2:	4611                	c.li	a2,4
    1de4:	00f76a63          	bltu	a4,a5,1df8 <main+0x630>
    1de8:	6605                	c.lui	a2,0x1
    1dea:	167d                	c.addi	a2,-1
    1dec:	41260633          	sub	a2,a2,s2
    1df0:	963a                	c.add	a2,a4
    1df2:	9a71                	c.andi	a2,-4
    1df4:	00460613          	addi	a2,a2,4 # 1004 <trap_entry+0x2c>
    1df8:	0aa00593          	li	a1,170
    1dfc:	00800533          	add	a0,zero,s0
    1e00:	124020ef          	jal	ra,3f24 <memset>
    1e04:	b0005073          	csrwi	mcycle,0
    1e08:	b0002973          	csrr	s2,mcycle
    1e0c:	77fd                	c.lui	a5,0xfffff
    1e0e:	404216b7          	lui	a3,0x40421
    1e12:	01410813          	addi	a6,sp,20
    1e16:	08078793          	addi	a5,a5,128 # fffff080 <_DATA_LMA_START+0xdfffa108>
    1e1a:	474d                	c.li	a4,19
    1e1c:	f6f68693          	addi	a3,a3,-145 # 40420f6f <_DATA_LMA_START+0x2041bff7>
    1e20:	4631                	c.li	a2,12
    1e22:	4589                	c.li	a1,2
    1e24:	4940150b          	addigp	a0,1172 # 80c94 <softmax_s8_s16_input>
    1e28:	24c000ef          	jal	ra,2074 <riscv_softmax_s8_s16>
    1e2c:	b0002873          	csrr	a6,mcycle
    1e30:	870a                	c.mv	a4,sp
    1e32:	409c                	c.lw	a5,0(s1)
    1e34:	02e7f263          	bgeu	a5,a4,1e58 <main+0x690>
    1e38:	aaaab637          	lui	a2,0xaaaab
    1e3c:	4394                	c.lw	a3,0(a5)
    1e3e:	aaa60613          	addi	a2,a2,-1366 # aaaaaaaa <_DATA_LMA_START+0x8aaa5b32>
    1e42:	00c68763          	beq	a3,a2,1e50 <main+0x688>
    1e46:	a809                	c.j	1e58 <main+0x690>
    1e48:	0007a603          	lw	a2,0(a5)
    1e4c:	00d61663          	bne	a2,a3,1e58 <main+0x690>
    1e50:	00478793          	addi	a5,a5,4
    1e54:	fee7eae3          	bltu	a5,a4,1e48 <main+0x680>
    1e58:	4661                	c.li	a2,24
    1e5a:	4ac0158b          	addigp	a1,1196 # 80cac <softmax_s8_s16_output_ref>
    1e5e:	0848                	c.addi4spn	a0,sp,20
    1e60:	40f70433          	sub	s0,a4,a5
    1e64:	41280933          	sub	s2,a6,s2
    1e68:	82dff0ef          	jal	ra,1694 <validate_s16.lto_priv.14>
    1e6c:	12051663          	bnez	a0,1f98 <main+0x7d0>
    1e70:	00080537          	lui	a0,0x80
    1e74:	38c50513          	addi	a0,a0,908 # 8038c <_DATA_VMA_START+0x38c>
    1e78:	294020ef          	jal	ra,410c <printf>
    1e7c:	00080537          	lui	a0,0x80
    1e80:	3bc50513          	addi	a0,a0,956 # 803bc <_DATA_VMA_START+0x3bc>
    1e84:	288020ef          	jal	ra,410c <printf>
    1e88:	b78fe0ef          	jal	ra,200 <delay_ms.constprop.13>
    1e8c:	00080537          	lui	a0,0x80
    1e90:	3d450513          	addi	a0,a0,980 # 803d4 <_DATA_VMA_START+0x3d4>
    1e94:	278020ef          	jal	ra,410c <printf>
    1e98:	b68fe0ef          	jal	ra,200 <delay_ms.constprop.13>
    1e9c:	50f6                	c.lwsp	ra,124(sp)
    1e9e:	5466                	c.lwsp	s0,120(sp)
    1ea0:	54d6                	c.lwsp	s1,116(sp)
    1ea2:	5946                	c.lwsp	s2,112(sp)
    1ea4:	59b6                	c.lwsp	s3,108(sp)
    1ea6:	5a26                	c.lwsp	s4,104(sp)
    1ea8:	5a96                	c.lwsp	s5,100(sp)
    1eaa:	5b06                	c.lwsp	s6,96(sp)
    1eac:	4bf6                	c.lwsp	s7,92(sp)
    1eae:	4501                	c.li	a0,0
    1eb0:	6109                	c.addi16sp	sp,128
    1eb2:	8082                	c.jr	ra
    1eb4:	000fe537          	lui	a0,0xfe
    1eb8:	0c050513          	addi	a0,a0,192 # fe0c0 <_STACK_TOP+0x5e0c0>
    1ebc:	d50ff0ef          	jal	ra,140c <user_calib_adc_vref.constprop.9>
    1ec0:	000fe537          	lui	a0,0xfe
    1ec4:	849ff0ef          	jal	ra,170c <user_calib_freq_offset.constprop.8>
    1ec8:	bb1ff06f          	j	1a78 <main+0x2b0>
    1ecc:	00080537          	lui	a0,0x80
    1ed0:	0d850513          	addi	a0,a0,216 # 800d8 <_DATA_VMA_START+0xd8>
    1ed4:	238020ef          	jal	ra,410c <printf>
    1ed8:	00080537          	lui	a0,0x80
    1edc:	014005b3          	add	a1,zero,s4
    1ee0:	10450513          	addi	a0,a0,260 # 80104 <_DATA_VMA_START+0x104>
    1ee4:	228020ef          	jal	ra,410c <printf>
    1ee8:	00080537          	lui	a0,0x80
    1eec:	016005b3          	add	a1,zero,s6
    1ef0:	11c50513          	addi	a0,a0,284 # 8011c <_DATA_VMA_START+0x11c>
    1ef4:	218020ef          	jal	ra,410c <printf>
    1ef8:	d35ff06f          	j	1c2c <main+0x464>
    1efc:	00080537          	lui	a0,0x80
    1f00:	16c50513          	addi	a0,a0,364 # 8016c <_DATA_VMA_START+0x16c>
    1f04:	208020ef          	jal	ra,410c <printf>
    1f08:	00080537          	lui	a0,0x80
    1f0c:	015005b3          	add	a1,zero,s5
    1f10:	10450513          	addi	a0,a0,260 # 80104 <_DATA_VMA_START+0x104>
    1f14:	1f8020ef          	jal	ra,410c <printf>
    1f18:	00080537          	lui	a0,0x80
    1f1c:	016005b3          	add	a1,zero,s6
    1f20:	11c50513          	addi	a0,a0,284 # 8011c <_DATA_VMA_START+0x11c>
    1f24:	1e8020ef          	jal	ra,410c <printf>
    1f28:	dcdff06f          	j	1cf4 <main+0x52c>
    1f2c:	00080537          	lui	a0,0x80
    1f30:	21c50513          	addi	a0,a0,540 # 8021c <_DATA_VMA_START+0x21c>
    1f34:	1d8020ef          	jal	ra,410c <printf>
    1f38:	00080537          	lui	a0,0x80
    1f3c:	014005b3          	add	a1,zero,s4
    1f40:	24c50513          	addi	a0,a0,588 # 8024c <_DATA_VMA_START+0x24c>
    1f44:	1c8020ef          	jal	ra,410c <printf>
    1f48:	ab8fe0ef          	jal	ra,200 <delay_ms.constprop.13>
    1f4c:	00080537          	lui	a0,0x80
    1f50:	015005b3          	add	a1,zero,s5
    1f54:	27c50513          	addi	a0,a0,636 # 8027c <_DATA_VMA_START+0x27c>
    1f58:	1b4020ef          	jal	ra,410c <printf>
    1f5c:	e65ff06f          	j	1dc0 <main+0x5f8>
    1f60:	001fe537          	lui	a0,0x1fe
    1f64:	0c050513          	addi	a0,a0,192 # 1fe0c0 <FLASH_SIZE+0xfe0c0>
    1f68:	ca4ff0ef          	jal	ra,140c <user_calib_adc_vref.constprop.9>
    1f6c:	001fe537          	lui	a0,0x1fe
    1f70:	f9cff0ef          	jal	ra,170c <user_calib_freq_offset.constprop.8>
    1f74:	b05ff06f          	j	1a78 <main+0x2b0>
    1f78:	0507da5b          	beqc	a5,16,1fcc <main+0x804>
    1f7c:	0917e05b          	bnec	a5,17,1ffc <main+0x834>
    1f80:	0001e537          	lui	a0,0x1e
    1f84:	0c050513          	addi	a0,a0,192 # 1e0c0 <BIN_SIZE+0x183de>
    1f88:	c84ff0ef          	jal	ra,140c <user_calib_adc_vref.constprop.9>
    1f8c:	0001e537          	lui	a0,0x1e
    1f90:	f7cff0ef          	jal	ra,170c <user_calib_freq_offset.constprop.8>
    1f94:	ae5ff06f          	j	1a78 <main+0x2b0>
    1f98:	00080537          	lui	a0,0x80
    1f9c:	2fc50513          	addi	a0,a0,764 # 802fc <_DATA_VMA_START+0x2fc>
    1fa0:	16c020ef          	jal	ra,410c <printf>
    1fa4:	00080537          	lui	a0,0x80
    1fa8:	008005b3          	add	a1,zero,s0
    1fac:	32c50513          	addi	a0,a0,812 # 8032c <_DATA_VMA_START+0x32c>
    1fb0:	15c020ef          	jal	ra,410c <printf>
    1fb4:	a4cfe0ef          	jal	ra,200 <delay_ms.constprop.13>
    1fb8:	00080537          	lui	a0,0x80
    1fbc:	012005b3          	add	a1,zero,s2
    1fc0:	36050513          	addi	a0,a0,864 # 80360 <_DATA_VMA_START+0x360>
    1fc4:	148020ef          	jal	ra,410c <printf>
    1fc8:	eb5ff06f          	j	1e7c <main+0x6b4>
    1fcc:	0000e537          	lui	a0,0xe
    1fd0:	0c050513          	addi	a0,a0,192 # e0c0 <BIN_SIZE+0x83de>
    1fd4:	c38ff0ef          	jal	ra,140c <user_calib_adc_vref.constprop.9>
    1fd8:	0000e537          	lui	a0,0xe
    1fdc:	f30ff0ef          	jal	ra,170c <user_calib_freq_offset.constprop.8>
    1fe0:	a99ff06f          	j	1a78 <main+0x2b0>
    1fe4:	0007e537          	lui	a0,0x7e
    1fe8:	0c050513          	addi	a0,a0,192 # 7e0c0 <BIN_SIZE+0x783de>
    1fec:	c20ff0ef          	jal	ra,140c <user_calib_adc_vref.constprop.9>
    1ff0:	0007e537          	lui	a0,0x7e
    1ff4:	f18ff0ef          	jal	ra,170c <user_calib_freq_offset.constprop.8>
    1ff8:	a81ff06f          	j	1a78 <main+0x2b0>
    1ffc:	00000513          	li	a0,0
    2000:	c0cff0ef          	jal	ra,140c <user_calib_adc_vref.constprop.9>
    2004:	a75ff06f          	j	1a78 <main+0x2b0>
    2008:	00100793          	li	a5,1
    200c:	00f40123          	sb	a5,2(s0)
    2010:	f84fe0ef          	jal	ra,794 <analog_write_reg8>
    2014:	0014e593          	ori	a1,s1,1
    2018:	0ff5f593          	andi	a1,a1,255
    201c:	03900513          	li	a0,57
    2020:	f74fe0ef          	jal	ra,794 <analog_write_reg8>
    2024:	8f5ff06f          	j	1918 <main+0x150>
    2028:	07f00513          	li	a0,127
    202c:	facfe0ef          	jal	ra,7d8 <analog_read_reg8>
    2030:	5600140b          	addigp	s0,1376 # 80d60 <g_pm_status_info>
    2034:	00057a5b          	bbc	a0,0,2048 <main+0x880>
    2038:	4014fe5b          	bbs	s1,1,2054 <main+0x88c>
    203c:	01000793          	li	a5,16
    2040:	00f40123          	sb	a5,2(s0)
    2044:	8d5ff06f          	j	1918 <main+0x150>
    2048:	00800793          	li	a5,8
    204c:	00f40123          	sb	a5,2(s0)
    2050:	8c9ff06f          	j	1918 <main+0x150>
    2054:	02000793          	li	a5,32
    2058:	0fd4f593          	andi	a1,s1,253
    205c:	03900513          	li	a0,57
    2060:	00f40123          	sb	a5,2(s0)
    2064:	f30fe0ef          	jal	ra,794 <analog_write_reg8>
    2068:	8b1ff06f          	j	1918 <main+0x150>

0000206c <default_irq_entry>:
    206c:	a001                	c.j	206c <default_irq_entry>

0000206e <trap_handler>:
    206e:	a001                	c.j	206e <trap_handler>
    2070:	0001                	c.nop
	...

00002074 <riscv_softmax_s8_s16>:
    2074:	88c2                	c.mv	a7,a6
    2076:	4805                	c.li	a6,1
    2078:	aaf5                	c.j	2274 <riscv_nn_softmax_common_s8>
	...

0000207c <riscv_softmax_s16>:
    207c:	7139                	c.addi16sp	sp,-64
    207e:	da4a                	c.swsp	s2,52(sp)
    2080:	0007a903          	lw	s2,0(a5)
    2084:	de22                	c.swsp	s0,60(sp)
    2086:	dc26                	c.swsp	s1,56(sp)
    2088:	d84e                	c.swsp	s3,48(sp)
    208a:	d652                	c.swsp	s4,44(sp)
    208c:	d456                	c.swsp	s5,40(sp)
    208e:	d25a                	c.swsp	s6,36(sp)
    2090:	d05e                	c.swsp	s7,32(sp)
    2092:	ce62                	c.swsp	s8,28(sp)
    2094:	cc66                	c.swsp	s9,24(sp)
    2096:	ca6a                	c.swsp	s10,20(sp)
    2098:	c86e                	c.swsp	s11,16(sp)
    209a:	1c090763          	beqz	s2,2268 <riscv_softmax_s16+0x1ec>
    209e:	0047ad83          	lw	s11,4(a5)
    20a2:	1c0d8363          	beqz	s11,2268 <riscv_softmax_s16+0x1ec>
    20a6:	1ab05163          	blez	a1,2248 <riscv_softmax_s16+0x1cc>
    20aa:	40e003b3          	neg	t2,a4
    20ae:	4781                	c.li	a5,0
    20b0:	f2f383ff          	maxw	t2,t2,a5
    20b4:	4f85                	c.li	t6,1
    20b6:	007f9fb3          	sll	t6,t6,t2
    20ba:	00161b93          	slli	s7,a2,0x1
    20be:	1ffd                	c.addi	t6,-1
    20c0:	4c01                	c.li	s8,0
    20c2:	401fda93          	srai	s5,t6,0x1
    20c6:	01780cb3          	add	s9,a6,s7
    20ca:	f38702ff          	maxw	t0,a4,s8
    20ce:	6f21                	c.lui	t5,0x8
    20d0:	4705                	c.li	a4,1
    20d2:	00250b13          	addi	s6,a0,2 # 7e002 <BIN_SIZE+0x78320>
    20d6:	001a8a13          	addi	s4,s5,1
    20da:	8e66                	c.mv	t3,s9
    20dc:	01750eb3          	add	t4,a0,s7
    20e0:	40000437          	lui	s0,0x40000
    20e4:	4481                	c.li	s1,0
    20e6:	1f7d                	c.addi	t5,-1
    20e8:	79e1                	c.lui	s3,0xffff8
    20ea:	8d2e                	c.mv	s10,a1
    20ec:	ffeb1783          	lh	a5,-2(s6)
    20f0:	14c75463          	bge	a4,a2,2238 <riscv_softmax_s16+0x1bc>
    20f4:	875a                	c.mv	a4,s6
    20f6:	88be                	c.mv	a7,a5
    20f8:	00071583          	lh	a1,0(a4)
    20fc:	00270713          	addi	a4,a4,2
    2100:	f31588ff          	maxw	a7,a1,a7
    2104:	feee9ae3          	bne	t4,a4,20f8 <riscv_softmax_s16+0x7c>
    2108:	c46e                	c.swsp	s11,8(sp)
    210a:	8342                	c.mv	t1,a6
    210c:	85da                	c.mv	a1,s6
    210e:	4501                	c.li	a0,0
    2110:	8dbe                	c.mv	s11,a5
    2112:	c632                	c.swsp	a2,12(sp)
    2114:	00c0006f          	j	2120 <riscv_softmax_s16+0xa4>
    2118:	00059d83          	lh	s11,0(a1)
    211c:	00258593          	addi	a1,a1,2
    2120:	411d8db3          	sub	s11,s11,a7
    2124:	005d9db3          	sll	s11,s11,t0
    2128:	8722                	c.mv	a4,s0
    212a:	87a6                	c.mv	a5,s1
    212c:	84dd977f          	smar64	a4,s11,a3
    2130:	8dd2                	c.mv	s11,s4
    2132:	dff7077f          	wexti	a4,a4,31
    2136:	00eff633          	and	a2,t6,a4
    213a:	407757b3          	sra	a5,a4,t2
    213e:	00074363          	bltz	a4,2144 <riscv_softmax_s16+0xc8>
    2142:	8dd6                	c.mv	s11,s5
    2144:	00cda733          	slt	a4,s11,a2
    2148:	97ba                	c.add	a5,a4
    214a:	97fa                	c.add	a5,t5
    214c:	f33787ff          	maxw	a5,a5,s3
    2150:	f1e787ff          	minw	a5,a5,t5
    2154:	07c2                	c.slli	a5,0x10
    2156:	87c1                	c.srai	a5,0x10
    2158:	4077d713          	srai	a4,a5,0x7
    215c:	10070713          	addi	a4,a4,256
    2160:	0742                	c.slli	a4,0x10
    2162:	8341                	c.srli	a4,0x10
    2164:	0706                	c.slli	a4,0x1
    2166:	974a                	c.add	a4,s2
    2168:	00075d83          	lhu	s11,0(a4)
    216c:	00275703          	lhu	a4,2(a4)
    2170:	07f7f793          	andi	a5,a5,127
    2174:	0309                	c.addi	t1,2
    2176:	41b70733          	sub	a4,a4,s11
    217a:	0742                	c.slli	a4,0x10
    217c:	8741                	c.srai	a4,0x10
    217e:	02f707b3          	mul	a5,a4,a5
    2182:	04078793          	addi	a5,a5,64
    2186:	879d                	c.srai	a5,0x7
    2188:	9dbe                	c.add	s11,a5
    218a:	0dc2                	c.slli	s11,0x10
    218c:	410ddd93          	srai	s11,s11,0x10
    2190:	ffb31f23          	sh	s11,-2(t1)
    2194:	956e                	c.add	a0,s11
    2196:	f8be91e3          	bne	t4,a1,2118 <riscv_softmax_s16+0x9c>
    219a:	4da2                	c.lwsp	s11,8(sp)
    219c:	4632                	c.lwsp	a2,12(sp)
    219e:	872a                	c.mv	a4,a0
    21a0:	af97077f          	clz32	a4,a4
    21a4:	fff70793          	addi	a5,a4,-1
    21a8:	00f517b3          	sll	a5,a0,a5
    21ac:	6589                	c.lui	a1,0x2
    21ae:	97ae                	c.add	a5,a1
    21b0:	87b9                	c.srai	a5,0xe
    21b2:	07c2                	c.slli	a5,0x10
    21b4:	83c1                	c.srli	a5,0x10
    21b6:	75e1                	c.lui	a1,0xffff8
    21b8:	00b78533          	add	a0,a5,a1
    21bc:	0542                	c.slli	a0,0x10
    21be:	8541                	c.srai	a0,0x10
    21c0:	851d                	c.srai	a0,0x7
    21c2:	10050513          	addi	a0,a0,256
    21c6:	0542                	c.slli	a0,0x10
    21c8:	8141                	c.srli	a0,0x10
    21ca:	0506                	c.slli	a0,0x1
    21cc:	956e                	c.add	a0,s11
    21ce:	00055583          	lhu	a1,0(a0)
    21d2:	00255503          	lhu	a0,2(a0)
    21d6:	07f7f893          	andi	a7,a5,127
    21da:	40b507b3          	sub	a5,a0,a1
    21de:	07c2                	c.slli	a5,0x10
    21e0:	87c1                	c.srai	a5,0x10
    21e2:	031787b3          	mul	a5,a5,a7
    21e6:	04078793          	addi	a5,a5,64
    21ea:	879d                	c.srai	a5,0x7
    21ec:	95be                	c.add	a1,a5
    21ee:	05c2                	c.slli	a1,0x10
    21f0:	85c1                	c.srai	a1,0x10
    21f2:	02c05563          	blez	a2,221c <riscv_softmax_s16+0x1a0>
    21f6:	47f9                	c.li	a5,30
    21f8:	40e78733          	sub	a4,a5,a4
    21fc:	0742                	c.slli	a4,0x10
    21fe:	8741                	c.srai	a4,0x10
    2200:	00081783          	lh	a5,0(a6)
    2204:	0809                	c.addi	a6,2
    2206:	02b787b3          	mul	a5,a5,a1
    220a:	40e7d7b3          	sra	a5,a5,a4
    220e:	0785                	c.addi	a5,1
    2210:	4017d793          	srai	a5,a5,0x1
    2214:	fef81f23          	sh	a5,-2(a6)
    2218:	ff0e14e3          	bne	t3,a6,2200 <riscv_softmax_s16+0x184>
    221c:	0c05                	c.addi	s8,1
    221e:	8866                	c.mv	a6,s9
    2220:	9e5e                	c.add	t3,s7
    2222:	9b5e                	c.add	s6,s7
    2224:	9ede                	c.add	t4,s7
    2226:	038d0163          	beq	s10,s8,2248 <riscv_softmax_s16+0x1cc>
    222a:	4705                	c.li	a4,1
    222c:	ffeb1783          	lh	a5,-2(s6)
    2230:	017c8cb3          	add	s9,s9,s7
    2234:	ecc740e3          	blt	a4,a2,20f4 <riscv_softmax_s16+0x78>
    2238:	4585                	c.li	a1,1
    223a:	4701                	c.li	a4,0
    223c:	4501                	c.li	a0,0
    223e:	f6b611e3          	bne	a2,a1,21a0 <riscv_softmax_s16+0x124>
    2242:	88be                	c.mv	a7,a5
    2244:	ec5ff06f          	j	2108 <riscv_softmax_s16+0x8c>
    2248:	00000513          	li	a0,0
    224c:	5472                	c.lwsp	s0,60(sp)
    224e:	54e2                	c.lwsp	s1,56(sp)
    2250:	5952                	c.lwsp	s2,52(sp)
    2252:	59c2                	c.lwsp	s3,48(sp)
    2254:	5a32                	c.lwsp	s4,44(sp)
    2256:	5aa2                	c.lwsp	s5,40(sp)
    2258:	5b12                	c.lwsp	s6,36(sp)
    225a:	5b82                	c.lwsp	s7,32(sp)
    225c:	4c72                	c.lwsp	s8,28(sp)
    225e:	4ce2                	c.lwsp	s9,24(sp)
    2260:	4d52                	c.lwsp	s10,20(sp)
    2262:	4dc2                	c.lwsp	s11,16(sp)
    2264:	6121                	c.addi16sp	sp,64
    2266:	8082                	c.jr	ra
    2268:	557d                	c.li	a0,-1
    226a:	b7cd                	c.j	224c <riscv_softmax_s16+0x1d0>

0000226c <riscv_softmax_s8>:
    226c:	88c2                	c.mv	a7,a6
    226e:	4801                	c.li	a6,0
    2270:	a011                	c.j	2274 <riscv_nn_softmax_common_s8>
	...

00002274 <riscv_nn_softmax_common_s8>:
    2274:	da010113          	addi	sp,sp,-608
    2278:	24812e23          	sw	s0,604(sp)
    227c:	24912c23          	sw	s1,600(sp)
    2280:	25212a23          	sw	s2,596(sp)
    2284:	25312823          	sw	s3,592(sp)
    2288:	25412623          	sw	s4,588(sp)
    228c:	25512423          	sw	s5,584(sp)
    2290:	25612223          	sw	s6,580(sp)
    2294:	25712023          	sw	s7,576(sp)
    2298:	23812e23          	sw	s8,572(sp)
    229c:	23912c23          	sw	s9,568(sp)
    22a0:	23a12a23          	sw	s10,564(sp)
    22a4:	23b12823          	sw	s11,560(sp)
    22a8:	1eb12623          	sw	a1,492(sp)
    22ac:	c236                	c.swsp	a3,4(sp)
    22ae:	dc3a                	c.swsp	a4,56(sp)
    22b0:	1f012823          	sw	a6,496(sp)
    22b4:	843e                	c.mv	s0,a5
    22b6:	1cb057e3          	blez	a1,2c84 <riscv_nn_softmax_common_s8+0xa10>
    22ba:	00161793          	slli	a5,a2,0x1
    22be:	1ef12a23          	sw	a5,500(sp)
    22c2:	97c6                	c.add	a5,a7
    22c4:	de3e                	c.swsp	a5,60(sp)
    22c6:	800007b7          	lui	a5,0x80000
    22ca:	00150913          	addi	s2,a0,1
    22ce:	fff78d93          	addi	s11,a5,-1 # 7fffffff <_DATA_LMA_START+0x5fffb087>
    22d2:	67a1                	c.lui	a5,0x8
    22d4:	00c50733          	add	a4,a0,a2
    22d8:	4c81                	c.li	s9,0
    22da:	17fd                	c.addi	a5,-1
    22dc:	8ac6                	c.mv	s5,a7
    22de:	8fca                	c.mv	t6,s2
    22e0:	82b2                	c.mv	t0,a2
    22e2:	ddc6                	c.swsp	a7,248(sp)
    22e4:	00e12023          	sw	a4,0(sp)
    22e8:	20f12223          	sw	a5,516(sp)
    22ec:	13912c23          	sw	s9,312(sp)
    22f0:	4785                	c.li	a5,1
    22f2:	ffff8a03          	lb	s4,-1(t6)
    22f6:	6657dbe3          	bge	a5,t0,316c <riscv_nn_softmax_common_s8+0xef8>
    22fa:	4682                	c.lwsp	a3,0(sp)
    22fc:	87fe                	c.mv	a5,t6
    22fe:	8d52                	c.mv	s10,s4
    2300:	00078703          	lb	a4,0(a5) # 8000 <BIN_SIZE+0x231e>
    2304:	00178793          	addi	a5,a5,1
    2308:	f3a70d7f          	maxw	s10,a4,s10
    230c:	fef69ae3          	bne	a3,a5,2300 <riscv_nn_softmax_common_s8+0x8c>
    2310:	4792                	c.lwsp	a5,4(sp)
    2312:	80000737          	lui	a4,0x80000
    2316:	66e78de3          	beq	a5,a4,3190 <riscv_nn_softmax_common_s8+0xf1c>
    231a:	86d2                	c.mv	a3,s4
    231c:	63afccb7          	lui	s9,0x63afc
    2320:	4da2d3b7          	lui	t2,0x4da2d
    2324:	2f16b4b7          	lui	s1,0x2f16b
    2328:	1152b937          	lui	s2,0x1152b
    232c:	025839b7          	lui	s3,0x2583
    2330:	000b0b37          	lui	s6,0xb0
    2334:	d852                	c.swsp	s4,48(sp)
    2336:	dd56                	c.swsp	s5,184(sp)
    2338:	14812a03          	lw	s4,328(sp)
    233c:	14c12a83          	lw	s5,332(sp)
    2340:	837e                	c.mv	t1,t6
    2342:	4b81                	c.li	s7,0
    2344:	10000eb7          	lui	t4,0x10000
    2348:	e7bc8c93          	addi	s9,s9,-389 # 63afbe7b <_DATA_LMA_START+0x43af6f03>
    234c:	bf238393          	addi	t2,t2,-1038 # 4da2cbf2 <_DATA_LMA_START+0x2da27c7a>
    2350:	c6c48493          	addi	s1,s1,-916 # 2f16ac6c <_DATA_LMA_START+0xf165cf4>
    2354:	aa490913          	addi	s2,s2,-1372 # 1152aaa4 <FLASH_SIZE+0x1142aaa4>
    2358:	ab798993          	addi	s3,s3,-1353 # 2582ab7 <FLASH_SIZE+0x2482ab7>
    235c:	e11b0b13          	addi	s6,s6,-495 # afe11 <_STACK_TOP+0xfe11>
    2360:	0f200c13          	li	s8,242
    2364:	c1fe                	c.swsp	t6,192(sp)
    2366:	c396                	c.swsp	t0,196(sp)
    2368:	41a686b3          	sub	a3,a3,s10
    236c:	2a86c263          	blt	a3,s0,2610 <riscv_nn_softmax_common_s8+0x39c>
    2370:	57e2                	c.lwsp	a5,56(sp)
    2372:	c0000737          	lui	a4,0xc0000
    2376:	00f696b3          	sll	a3,a3,a5
    237a:	4792                	c.lwsp	a5,4(sp)
    237c:	0705                	c.addi	a4,1
    237e:	00d7c633          	xor	a2,a5,a3
    2382:	57fd                	c.li	a5,-1
    2384:	00064663          	bltz	a2,2390 <riscv_nn_softmax_common_s8+0x11c>
    2388:	40000737          	lui	a4,0x40000
    238c:	00000793          	li	a5,0
    2390:	4612                	c.lwsp	a2,4(sp)
    2392:	4a81                	c.li	s5,0
    2394:	ca02                	c.swsp	zero,20(sp)
    2396:	84d6177f          	smar64	a4,a2,a3
    239a:	56fd                	c.li	a3,-1
    239c:	c636                	c.swsp	a3,12(sp)
    239e:	41f7d693          	srai	a3,a5,0x1f
    23a2:	01b6fa33          	and	s4,a3,s11
    23a6:	c0ea177f          	add64	a4,s4,a4
    23aa:	dff706ff          	wexti	a3,a4,31
    23ae:	010007b7          	lui	a5,0x1000
    23b2:	fff78713          	addi	a4,a5,-1 # ffffff <FLASH_SIZE+0xefffff>
    23b6:	00d77533          	and	a0,a4,a3
    23ba:	c0000637          	lui	a2,0xc0000
    23be:	0605                	c.addi	a2,1
    23c0:	8d1d                	c.sub	a0,a5
    23c2:	c432                	c.swsp	a2,8(sp)
    23c4:	00551613          	slli	a2,a0,0x5
    23c8:	9676                	c.add	a2,t4
    23ca:	40000737          	lui	a4,0x40000
    23ce:	4781                	c.li	a5,0
    23d0:	84c6177f          	smar64	a4,a2,a2
    23d4:	4fd2                	c.lwsp	t6,20(sp)
    23d6:	41f7d593          	srai	a1,a5,0x1f
    23da:	01b5f5b3          	and	a1,a1,s11
    23de:	c82e                	c.swsp	a1,16(sp)
    23e0:	4f42                	c.lwsp	t5,16(sp)
    23e2:	ce02                	c.swsp	zero,28(sp)
    23e4:	41f65813          	srai	a6,a2,0x1f
    23e8:	c0ef177f          	add64	a4,t5,a4
    23ec:	dff705ff          	wexti	a1,a4,31
    23f0:	41f7de13          	srai	t3,a5,0x1f
    23f4:	02be08b3          	mul	a7,t3,a1
    23f8:	f0b5977f          	mulr64	a4,a1,a1
    23fc:	40000f37          	lui	t5,0x40000
    2400:	0886                	c.slli	a7,0x1
    2402:	97c6                	c.add	a5,a7
    2404:	4f81                	c.li	t6,0
    2406:	c1e7177f          	add64	a4,a4,t5
    240a:	41f7d893          	srai	a7,a5,0x1f
    240e:	01b8f8b3          	and	a7,a7,s11
    2412:	4ff2                	c.lwsp	t6,28(sp)
    2414:	cc46                	c.swsp	a7,24(sp)
    2416:	4f62                	c.lwsp	t5,24(sp)
    2418:	03c60e33          	mul	t3,a2,t3
    241c:	00b642b3          	xor	t0,a2,a1
    2420:	c0ef177f          	add64	a4,t5,a4
    2424:	dff7077f          	wexti	a4,a4,31
    2428:	00072f93          	slti	t6,a4,0
    242c:	c4b81e7f          	maddr32	t3,a6,a1
    2430:	0f85                	c.addi	t6,1
    2432:	00377813          	andi	a6,a4,3
    2436:	40275893          	srai	a7,a4,0x2
    243a:	010fafb3          	slt	t6,t6,a6
    243e:	f0b6177f          	mulr64	a4,a2,a1
    2442:	8836                	c.mv	a6,a3
    2444:	97f2                	c.add	a5,t3
    2446:	98fe                	c.add	a7,t6
    2448:	0002c863          	bltz	t0,2458 <riscv_nn_softmax_common_s8+0x1e4>
    244c:	40000f37          	lui	t5,0x40000
    2450:	4f81                	c.li	t6,0
    2452:	c47a                	c.swsp	t5,8(sp)
    2454:	01f12623          	sw	t6,12(sp)
    2458:	4f22                	c.lwsp	t5,8(sp)
    245a:	4fb2                	c.lwsp	t6,12(sp)
    245c:	d202                	c.swsp	zero,36(sp)
    245e:	c0ef177f          	add64	a4,t5,a4
    2462:	41f7de13          	srai	t3,a5,0x1f
    2466:	01be7e33          	and	t3,t3,s11
    246a:	5f92                	c.lwsp	t6,36(sp)
    246c:	d072                	c.swsp	t3,32(sp)
    246e:	5f02                	c.lwsp	t5,32(sp)
    2470:	c0ef177f          	add64	a4,t5,a4
    2474:	dff7077f          	wexti	a4,a4,31
    2478:	98ba                	c.add	a7,a4
    247a:	c0000737          	lui	a4,0xc0000
    247e:	0705                	c.addi	a4,1
    2480:	57fd                	c.li	a5,-1
    2482:	0008c563          	bltz	a7,248c <riscv_nn_softmax_common_s8+0x218>
    2486:	40000737          	lui	a4,0x40000
    248a:	4781                	c.li	a5,0
    248c:	2aaabe37          	lui	t3,0x2aaab
    2490:	aabe0e13          	addi	t3,t3,-1365 # 2aaaaaab <_DATA_LMA_START+0xaaa5b33>
    2494:	85c8977f          	smar64	a4,a7,t3
    2498:	d602                	c.swsp	zero,44(sp)
    249a:	41f7d893          	srai	a7,a5,0x1f
    249e:	01b8f8b3          	and	a7,a7,s11
    24a2:	5fb2                	c.lwsp	t6,44(sp)
    24a4:	d446                	c.swsp	a7,40(sp)
    24a6:	5f22                	c.lwsp	t5,40(sp)
    24a8:	c0ef177f          	add64	a4,t5,a4
    24ac:	dff7077f          	wexti	a4,a4,31
    24b0:	972e                	c.add	a4,a1
    24b2:	40175793          	srai	a5,a4,0x1
    24b6:	00074563          	bltz	a4,24c0 <riscv_nn_softmax_common_s8+0x24c>
    24ba:	8b05                	c.andi	a4,1
    24bc:	00e787b3          	add	a5,a5,a4
    24c0:	963e                	c.add	a2,a5
    24c2:	c0000737          	lui	a4,0xc0000
    24c6:	0705                	c.addi	a4,1
    24c8:	57fd                	c.li	a5,-1
    24ca:	00064563          	bltz	a2,24d4 <riscv_nn_softmax_common_s8+0x260>
    24ce:	40000737          	lui	a4,0x40000
    24d2:	4781                	c.li	a5,0
    24d4:	000805b7          	lui	a1,0x80
    24d8:	12080a63          	beqz	a6,260c <riscv_nn_softmax_common_s8+0x398>
    24dc:	70f5b837          	lui	a6,0x70f5b
    24e0:	89480593          	addi	a1,a6,-1900 # 70f5a894 <_DATA_LMA_START+0x50f5591c>
    24e4:	84b6177f          	smar64	a4,a2,a1
    24e8:	40d506b3          	sub	a3,a0,a3
    24ec:	41f7d613          	srai	a2,a5,0x1f
    24f0:	01b67633          	and	a2,a2,s11
    24f4:	c0b2                	c.swsp	a2,64(sp)
    24f6:	c282                	c.swsp	zero,68(sp)
    24f8:	4506                	c.lwsp	a0,64(sp)
    24fa:	4596                	c.lwsp	a1,68(sp)
    24fc:	c0e5177f          	add64	a4,a0,a4
    2500:	dff7077f          	wexti	a4,a4,31
    2504:	89480793          	addi	a5,a6,-1900
    2508:	973e                	c.add	a4,a5
    250a:	40000537          	lui	a0,0x40000
    250e:	4581                	c.li	a1,0
    2510:	8597157f          	smar64	a0,a4,s9
    2514:	0186d793          	srli	a5,a3,0x18
    2518:	8b85                	c.andi	a5,1
    251a:	dff5057f          	wexti	a0,a0,31
    251e:	fff78613          	addi	a2,a5,-1
    2522:	40f007b3          	neg	a5,a5
    2526:	8e79                	c.and	a2,a4
    2528:	8fe9                	c.and	a5,a0
    252a:	00c7c5b3          	xor	a1,a5,a2
    252e:	40000737          	lui	a4,0x40000
    2532:	4781                	c.li	a5,0
    2534:	8475977f          	smar64	a4,a1,t2
    2538:	0196d613          	srli	a2,a3,0x19
    253c:	8a05                	c.andi	a2,1
    253e:	dff7077f          	wexti	a4,a4,31
    2542:	fff60513          	addi	a0,a2,-1 # bfffffff <_DATA_LMA_START+0x9fffb087>
    2546:	40c00633          	neg	a2,a2
    254a:	8d6d                	c.and	a0,a1
    254c:	8e79                	c.and	a2,a4
    254e:	8e29                	c.xor	a2,a0
    2550:	40000737          	lui	a4,0x40000
    2554:	4781                	c.li	a5,0
    2556:	8496177f          	smar64	a4,a2,s1
    255a:	01a6d593          	srli	a1,a3,0x1a
    255e:	8985                	c.andi	a1,1
    2560:	dff7077f          	wexti	a4,a4,31
    2564:	fff58513          	addi	a0,a1,-1 # 7ffff <BIN_SIZE+0x7a31d>
    2568:	40b005b3          	neg	a1,a1
    256c:	8d71                	c.and	a0,a2
    256e:	8df9                	c.and	a1,a4
    2570:	8da9                	c.xor	a1,a0
    2572:	40000737          	lui	a4,0x40000
    2576:	4781                	c.li	a5,0
    2578:	8525977f          	smar64	a4,a1,s2
    257c:	01b6d613          	srli	a2,a3,0x1b
    2580:	8a05                	c.andi	a2,1
    2582:	dff7077f          	wexti	a4,a4,31
    2586:	fff60513          	addi	a0,a2,-1
    258a:	40c00633          	neg	a2,a2
    258e:	8d6d                	c.and	a0,a1
    2590:	8e79                	c.and	a2,a4
    2592:	8e29                	c.xor	a2,a0
    2594:	40000737          	lui	a4,0x40000
    2598:	4781                	c.li	a5,0
    259a:	8536177f          	smar64	a4,a2,s3
    259e:	01c6d593          	srli	a1,a3,0x1c
    25a2:	8985                	c.andi	a1,1
    25a4:	dff7077f          	wexti	a4,a4,31
    25a8:	fff58513          	addi	a0,a1,-1
    25ac:	40b005b3          	neg	a1,a1
    25b0:	8d71                	c.and	a0,a2
    25b2:	8df9                	c.and	a1,a4
    25b4:	8da9                	c.xor	a1,a0
    25b6:	40000737          	lui	a4,0x40000
    25ba:	4781                	c.li	a5,0
    25bc:	8565977f          	smar64	a4,a1,s6
    25c0:	01d6d613          	srli	a2,a3,0x1d
    25c4:	8a05                	c.andi	a2,1
    25c6:	dff7077f          	wexti	a4,a4,31
    25ca:	fff60513          	addi	a0,a2,-1
    25ce:	40c00633          	neg	a2,a2
    25d2:	8d6d                	c.and	a0,a1
    25d4:	8e79                	c.and	a2,a4
    25d6:	8e29                	c.xor	a2,a0
    25d8:	40000737          	lui	a4,0x40000
    25dc:	4781                	c.li	a5,0
    25de:	8586177f          	smar64	a4,a2,s8
    25e2:	82f9                	c.srli	a3,0x1e
    25e4:	8a85                	c.andi	a3,1
    25e6:	fff68513          	addi	a0,a3,-1
    25ea:	dff7077f          	wexti	a4,a4,31
    25ee:	40d006b3          	neg	a3,a3
    25f2:	8d71                	c.and	a0,a2
    25f4:	8ef9                	c.and	a3,a4
    25f6:	6785                	c.lui	a5,0x1
    25f8:	00a6c5b3          	xor	a1,a3,a0
    25fc:	80078793          	addi	a5,a5,-2048 # 800 <analog_read_reg8+0x28>
    2600:	8fed                	c.and	a5,a1
    2602:	00f037b3          	snez	a5,a5
    2606:	85b1                	c.srai	a1,0xc
    2608:	00f585b3          	add	a1,a1,a5
    260c:	00bb8bb3          	add	s7,s7,a1
    2610:	4782                	c.lwsp	a5,0(sp)
    2612:	00678763          	beq	a5,t1,2620 <riscv_nn_softmax_common_s8+0x3ac>
    2616:	00030683          	lb	a3,0(t1)
    261a:	0305                	c.addi	t1,1
    261c:	d4dff06f          	j	2368 <riscv_nn_softmax_common_s8+0xf4>
    2620:	15412423          	sw	s4,328(sp)
    2624:	15512623          	sw	s5,332(sp)
    2628:	4f8e                	c.lwsp	t6,192(sp)
    262a:	429e                	c.lwsp	t0,196(sp)
    262c:	5a42                	c.lwsp	s4,48(sp)
    262e:	5aea                	c.lwsp	s5,184(sp)
    2630:	af9b837f          	clz32	t1,s7
    2634:	340b82e3          	beqz	s7,3178 <riscv_nn_softmax_common_s8+0xf04>
    2638:	800007b7          	lui	a5,0x80000
    263c:	006b9bb3          	sll	s7,s7,t1
    2640:	9bbe                	c.add	s7,a5
    2642:	41fbd793          	srai	a5,s7,0x1f
    2646:	13712423          	sw	s7,296(sp)
    264a:	12f12623          	sw	a5,300(sp)
    264e:	12812703          	lw	a4,296(sp)
    2652:	12c12783          	lw	a5,300(sp)
    2656:	80000637          	lui	a2,0x80000
    265a:	4681                	c.li	a3,0
    265c:	c0c7177f          	add64	a4,a4,a2
    2660:	de1708ff          	wexti	a7,a4,1
    2664:	c3c3c737          	lui	a4,0xc3c3c
    2668:	4017d813          	srai	a6,a5,0x1
    266c:	3c470713          	addi	a4,a4,964 # c3c3c3c4 <_DATA_LMA_START+0xa3c3744c>
    2670:	411006b3          	neg	a3,a7
    2674:	c50716ff          	maddr32	a3,a4,a6
    2678:	c0000637          	lui	a2,0xc0000
    267c:	f0e8977f          	mulr64	a4,a7,a4
    2680:	97b6                	c.add	a5,a3
    2682:	0605                	c.addi	a2,1
    2684:	56fd                	c.li	a3,-1
    2686:	c0c7177f          	add64	a4,a4,a2
    268a:	41f7d693          	srai	a3,a5,0x1f
    268e:	01b6f6b3          	and	a3,a3,s11
    2692:	12d12823          	sw	a3,304(sp)
    2696:	12012a23          	sw	zero,308(sp)
    269a:	13012603          	lw	a2,304(sp)
    269e:	13412683          	lw	a3,308(sp)
    26a2:	40000537          	lui	a0,0x40000
    26a6:	8f46                	c.mv	t5,a7
    26a8:	c0e6177f          	add64	a4,a2,a4
    26ac:	dff7077f          	wexti	a4,a4,31
    26b0:	5a5a67b7          	lui	a5,0x5a5a6
    26b4:	a5a78793          	addi	a5,a5,-1446 # 5a5a5a5a <_DATA_LMA_START+0x3a5a0ae2>
    26b8:	00f706b3          	add	a3,a4,a5
    26bc:	02d80633          	mul	a2,a6,a3
    26c0:	41f6d593          	srai	a1,a3,0x1f
    26c4:	f116977f          	mulr64	a4,a3,a7
    26c8:	c515967f          	maddr32	a2,a1,a7
    26cc:	4581                	c.li	a1,0
    26ce:	97b2                	c.add	a5,a2
    26d0:	c0a7177f          	add64	a4,a4,a0
    26d4:	dff7077f          	wexti	a4,a4,31
    26d8:	200007b7          	lui	a5,0x20000
    26dc:	40e78733          	sub	a4,a5,a4
    26e0:	00d74633          	xor	a2,a4,a3
    26e4:	e0e6977f          	mulsr64	a4,a3,a4
    26e8:	660656e3          	bgez	a2,3554 <riscv_nn_softmax_common_s8+0x12e0>
    26ec:	c0000537          	lui	a0,0xc0000
    26f0:	0505                	c.addi	a0,1
    26f2:	55fd                	c.li	a1,-1
    26f4:	c0a7177f          	add64	a4,a4,a0
    26f8:	41f7d613          	srai	a2,a5,0x1f
    26fc:	01b67633          	and	a2,a2,s11
    2700:	14c12023          	sw	a2,320(sp)
    2704:	14012223          	sw	zero,324(sp)
    2708:	14012503          	lw	a0,320(sp)
    270c:	14412583          	lw	a1,324(sp)
    2710:	c0e5177f          	add64	a4,a0,a4
    2714:	dff7077f          	wexti	a4,a4,31
    2718:	00271713          	slli	a4,a4,0x2
    271c:	9736                	c.add	a4,a3
    271e:	c0000e37          	lui	t3,0xc0000
    2722:	01e747b3          	xor	a5,a4,t5
    2726:	0e05                	c.addi	t3,1
    2728:	fff00e93          	li	t4,-1
    272c:	0007c463          	bltz	a5,2734 <riscv_nn_softmax_common_s8+0x4c0>
    2730:	79c0106f          	j	3ecc <riscv_nn_softmax_common_s8+0x1c58>
    2734:	02e807b3          	mul	a5,a6,a4
    2738:	41f75693          	srai	a3,a4,0x1f
    273c:	f117157f          	mulr64	a0,a4,a7
    2740:	c51697ff          	maddr32	a5,a3,a7
    2744:	12012223          	sw	zero,292(sp)
    2748:	95be                	c.add	a1,a5
    274a:	c1c5157f          	add64	a0,a0,t3
    274e:	41f5d793          	srai	a5,a1,0x1f
    2752:	01b7f7b3          	and	a5,a5,s11
    2756:	12f12023          	sw	a5,288(sp)
    275a:	12412e83          	lw	t4,292(sp)
    275e:	12012e03          	lw	t3,288(sp)
    2762:	200007b7          	lui	a5,0x20000
    2766:	c0000637          	lui	a2,0xc0000
    276a:	c0ae157f          	add64	a0,t3,a0
    276e:	dff5057f          	wexti	a0,a0,31
    2772:	40a78533          	sub	a0,a5,a0
    2776:	00e547b3          	xor	a5,a0,a4
    277a:	0605                	c.addi	a2,1
    277c:	56fd                	c.li	a3,-1
    277e:	0007c563          	bltz	a5,2788 <riscv_nn_softmax_common_s8+0x514>
    2782:	40000637          	lui	a2,0x40000
    2786:	4681                	c.li	a3,0
    2788:	84a7167f          	smar64	a2,a4,a0
    278c:	c782                	c.swsp	zero,204(sp)
    278e:	41f6d793          	srai	a5,a3,0x1f
    2792:	01b7f7b3          	and	a5,a5,s11
    2796:	45be                	c.lwsp	a1,204(sp)
    2798:	c5be                	c.swsp	a5,200(sp)
    279a:	452e                	c.lwsp	a0,200(sp)
    279c:	c0c5167f          	add64	a2,a0,a2
    27a0:	dff6067f          	wexti	a2,a2,31
    27a4:	200006b7          	lui	a3,0x20000
    27a8:	50d65a63          	bge	a2,a3,2cbc <riscv_nn_softmax_common_s8+0xa48>
    27ac:	e00006b7          	lui	a3,0xe0000
    27b0:	00261e13          	slli	t3,a2,0x2
    27b4:	50c6c663          	blt	a3,a2,2cc0 <riscv_nn_softmax_common_s8+0xa4c>
    27b8:	800007b7          	lui	a5,0x80000
    27bc:	00f70e33          	add	t3,a4,a5
    27c0:	01ee4f33          	xor	t5,t3,t5
    27c4:	500f5863          	bgez	t5,2cd4 <riscv_nn_softmax_common_s8+0xa60>
    27c8:	03c80833          	mul	a6,a6,t3
    27cc:	41fe5693          	srai	a3,t3,0x1f
    27d0:	f11e177f          	mulr64	a4,t3,a7
    27d4:	c516987f          	maddr32	a6,a3,a7
    27d8:	c0000637          	lui	a2,0xc0000
    27dc:	0605                	c.addi	a2,1
    27de:	56fd                	c.li	a3,-1
    27e0:	97c2                	c.add	a5,a6
    27e2:	c0c7177f          	add64	a4,a4,a2
    27e6:	41f7d693          	srai	a3,a5,0x1f
    27ea:	01b6f6b3          	and	a3,a3,s11
    27ee:	20d12423          	sw	a3,520(sp)
    27f2:	20012623          	sw	zero,524(sp)
    27f6:	20812603          	lw	a2,520(sp)
    27fa:	20c12683          	lw	a3,524(sp)
    27fe:	20012a23          	sw	zero,532(sp)
    2802:	c0e6177f          	add64	a4,a2,a4
    2806:	dff7077f          	wexti	a4,a4,31
    280a:	200007b7          	lui	a5,0x20000
    280e:	40e786b3          	sub	a3,a5,a4
    2812:	c0000737          	lui	a4,0xc0000
    2816:	0705                	c.addi	a4,1
    2818:	fff00793          	li	a5,-1
    281c:	85c6977f          	smar64	a4,a3,t3
    2820:	41f7d693          	srai	a3,a5,0x1f
    2824:	01b6f6b3          	and	a3,a3,s11
    2828:	20d12823          	sw	a3,528(sp)
    282c:	21412683          	lw	a3,532(sp)
    2830:	21012603          	lw	a2,528(sp)
    2834:	c0e6177f          	add64	a4,a2,a4
    2838:	dff7057f          	wexti	a0,a4,31
    283c:	e00007b7          	lui	a5,0xe0000
    2840:	00a7d463          	bge	a5,a0,2848 <riscv_nn_softmax_common_s8+0x5d4>
    2844:	69c0106f          	j	3ee0 <riscv_nn_softmax_common_s8+0x1c6c>
    2848:	800007b7          	lui	a5,0x80000
    284c:	001e1713          	slli	a4,t3,0x1
    2850:	97f2                	c.add	a5,t3
    2852:	c43a                	c.swsp	a4,8(sp)
    2854:	c0000737          	lui	a4,0xc0000
    2858:	00f74663          	blt	a4,a5,2864 <riscv_nn_softmax_common_s8+0x5f0>
    285c:	800007b7          	lui	a5,0x80000
    2860:	00f12423          	sw	a5,8(sp)
    2864:	1f012783          	lw	a5,496(sp)
    2868:	50078863          	beqz	a5,2d78 <riscv_nn_softmax_common_s8+0xb04>
    286c:	47ed                	c.li	a5,27
    286e:	406787b3          	sub	a5,a5,t1
    2872:	dfbe                	c.swsp	a5,252(sp)
    2874:	873e                	c.mv	a4,a5
    2876:	3e505163          	blez	t0,2c58 <riscv_nn_softmax_common_s8+0x9e4>
    287a:	4785                	c.li	a5,1
    287c:	00e797b3          	sll	a5,a5,a4
    2880:	17fd                	c.addi	a5,-1
    2882:	12f12e23          	sw	a5,316(sp)
    2886:	8785                	c.srai	a5,0x1
    2888:	1ef12423          	sw	a5,488(sp)
    288c:	4792                	c.lwsp	a5,4(sp)
    288e:	80000737          	lui	a4,0x80000
    2892:	4ee787e3          	beq	a5,a4,3580 <riscv_nn_softmax_common_s8+0x130c>
    2896:	8c56                	c.mv	s8,s5
    2898:	89fe                	c.mv	s3,t6
    289a:	87d2                	c.mv	a5,s4
    289c:	8eea                	c.mv	t4,s10
    289e:	8ba2                	c.mv	s7,s0
    28a0:	1f512c23          	sw	s5,504(sp)
    28a4:	1ff12e23          	sw	t6,508(sp)
    28a8:	20512023          	sw	t0,512(sp)
    28ac:	0400006f          	j	28ec <riscv_nn_softmax_common_s8+0x678>
    28b0:	13c12683          	lw	a3,316(sp)
    28b4:	8f75                	c.and	a4,a3
    28b6:	1e812683          	lw	a3,488(sp)
    28ba:	0ae6d3e3          	bge	a3,a4,3160 <riscv_nn_softmax_common_s8+0xeec>
    28be:	7761                	c.lui	a4,0xffff8
    28c0:	0705                	c.addi	a4,1
    28c2:	97ba                	c.add	a5,a4
    28c4:	66a1                	c.lui	a3,0x8
    28c6:	16f9                	c.addi	a3,-2
    28c8:	20412703          	lw	a4,516(sp)
    28cc:	00f6c663          	blt	a3,a5,28d8 <riscv_nn_softmax_common_s8+0x664>
    28d0:	01079713          	slli	a4,a5,0x10
    28d4:	41075713          	srai	a4,a4,0x10
    28d8:	57f2                	c.lwsp	a5,60(sp)
    28da:	00ec1023          	sh	a4,0(s8)
    28de:	0c09                	c.addi	s8,2
    28e0:	37878463          	beq	a5,s8,2c48 <riscv_nn_softmax_common_s8+0x9d4>
    28e4:	00098783          	lb	a5,0(s3)
    28e8:	00198993          	addi	s3,s3,1
    28ec:	41d787b3          	sub	a5,a5,t4
    28f0:	7761                	c.lui	a4,0xffff8
    28f2:	ff77c3e3          	blt	a5,s7,28d8 <riscv_nn_softmax_common_s8+0x664>
    28f6:	5762                	c.lwsp	a4,56(sp)
    28f8:	c0000337          	lui	t1,0xc0000
    28fc:	00e797b3          	sll	a5,a5,a4
    2900:	4712                	c.lwsp	a4,4(sp)
    2902:	0305                	c.addi	t1,1
    2904:	8f3d                	c.xor	a4,a5
    2906:	53fd                	c.li	t2,-1
    2908:	00074663          	bltz	a4,2914 <riscv_nn_softmax_common_s8+0x6a0>
    290c:	40000337          	lui	t1,0x40000
    2910:	00000393          	li	t2,0
    2914:	4712                	c.lwsp	a4,4(sp)
    2916:	c682                	c.swsp	zero,76(sp)
    2918:	ca82                	c.swsp	zero,84(sp)
    291a:	84e7937f          	smar64	t1,a5,a4
    291e:	57fd                	c.li	a5,-1
    2920:	c0000737          	lui	a4,0xc0000
    2924:	da3e                	c.swsp	a5,52(sp)
    2926:	41f3d793          	srai	a5,t2,0x1f
    292a:	0705                	c.addi	a4,1
    292c:	01b7f7b3          	and	a5,a5,s11
    2930:	c4be                	c.swsp	a5,72(sp)
    2932:	d83a                	c.swsp	a4,48(sp)
    2934:	47b6                	c.lwsp	a5,76(sp)
    2936:	4726                	c.lwsp	a4,72(sp)
    2938:	45d6                	c.lwsp	a1,84(sp)
    293a:	ce82                	c.swsp	zero,92(sp)
    293c:	c067137f          	add64	t1,a4,t1
    2940:	010007b7          	lui	a5,0x1000
    2944:	dff3037f          	wexti	t1,t1,31
    2948:	fff78713          	addi	a4,a5,-1 # ffffff <FLASH_SIZE+0xefffff>
    294c:	006776b3          	and	a3,a4,t1
    2950:	8e9d                	c.sub	a3,a5
    2952:	00569f13          	slli	t5,a3,0x5
    2956:	100007b7          	lui	a5,0x10000
    295a:	9f3e                	c.add	t5,a5
    295c:	40000737          	lui	a4,0x40000
    2960:	4781                	c.li	a5,0
    2962:	85ef177f          	smar64	a4,t5,t5
    2966:	406686b3          	sub	a3,a3,t1
    296a:	41f7d613          	srai	a2,a5,0x1f
    296e:	01b67633          	and	a2,a2,s11
    2972:	c8b2                	c.swsp	a2,80(sp)
    2974:	4546                	c.lwsp	a0,80(sp)
    2976:	00133313          	seqz	t1,t1
    297a:	01b6d813          	srli	a6,a3,0x1b
    297e:	c0e5177f          	add64	a4,a0,a4
    2982:	dff70fff          	wexti	t6,a4,31
    2986:	41f7d393          	srai	t2,a5,0x1f
    298a:	03f38633          	mul	a2,t2,t6
    298e:	f1ff977f          	mulr64	a4,t6,t6
    2992:	40000537          	lui	a0,0x40000
    2996:	0606                	c.slli	a2,0x1
    2998:	97b2                	c.add	a5,a2
    299a:	4581                	c.li	a1,0
    299c:	c0a7177f          	add64	a4,a4,a0
    29a0:	41f7d613          	srai	a2,a5,0x1f
    29a4:	01b67633          	and	a2,a2,s11
    29a8:	45f6                	c.lwsp	a1,92(sp)
    29aa:	ccb2                	c.swsp	a2,88(sp)
    29ac:	4566                	c.lwsp	a0,88(sp)
    29ae:	027f03b3          	mul	t2,t5,t2
    29b2:	00187813          	andi	a6,a6,1
    29b6:	c0e5177f          	add64	a4,a0,a4
    29ba:	dff70aff          	wexti	s5,a4,31
    29be:	000aac93          	slti	s9,s5,0
    29c2:	003afe13          	andi	t3,s5,3
    29c6:	0c85                	c.addi	s9,1
    29c8:	41ff5793          	srai	a5,t5,0x1f
    29cc:	40600433          	neg	s0,t1
    29d0:	01ccacb3          	slt	s9,s9,t3
    29d4:	402ada13          	srai	s4,s5,0x2
    29d8:	c5f793ff          	maddr32	t2,a5,t6
    29dc:	fff80e13          	addi	t3,a6,-1
    29e0:	01e6d293          	srli	t0,a3,0x1e
    29e4:	01d6d893          	srli	a7,a3,0x1d
    29e8:	0186d593          	srli	a1,a3,0x18
    29ec:	0196d713          	srli	a4,a3,0x19
    29f0:	01c6d513          	srli	a0,a3,0x1c
    29f4:	01a6d793          	srli	a5,a3,0x1a
    29f8:	01b47433          	and	s0,s0,s11
    29fc:	9a66                	c.add	s4,s9
    29fe:	0018f893          	andi	a7,a7,1
    2a02:	0012f293          	andi	t0,t0,1
    2a06:	8985                	c.andi	a1,1
    2a08:	8b05                	c.andi	a4,1
    2a0a:	8905                	c.andi	a0,1
    2a0c:	8b85                	c.andi	a5,1
    2a0e:	f1ff167f          	mulr64	a2,t5,t6
    2a12:	c3f2                	c.swsp	t3,196(sp)
    2a14:	c1a2                	c.swsp	s0,192(sp)
    2a16:	01ff4d33          	xor	s10,t5,t6
    2a1a:	dd52                	c.swsp	s4,184(sp)
    2a1c:	fff28493          	addi	s1,t0,-1
    2a20:	fff88913          	addi	s2,a7,-1
    2a24:	fff58e13          	addi	t3,a1,-1
    2a28:	969e                	c.add	a3,t2
    2a2a:	fff30b13          	addi	s6,t1,-1 # 3fffffff <_DATA_LMA_START+0x1fffb087>
    2a2e:	40a003b3          	neg	t2,a0
    2a32:	fff70313          	addi	t1,a4,-1 # 3fffffff <_DATA_LMA_START+0x1fffb087>
    2a36:	41100433          	neg	s0,a7
    2a3a:	41000833          	neg	a6,a6
    2a3e:	fff78893          	addi	a7,a5,-1 # fffffff <FLASH_SIZE+0xfefffff>
    2a42:	405002b3          	neg	t0,t0
    2a46:	157d                	c.addi	a0,-1
    2a48:	40b005b3          	neg	a1,a1
    2a4c:	40e00733          	neg	a4,a4
    2a50:	40f007b3          	neg	a5,a5
    2a54:	000d4863          	bltz	s10,2a64 <riscv_nn_softmax_common_s8+0x7f0>
    2a58:	40000a37          	lui	s4,0x40000
    2a5c:	4a81                	c.li	s5,0
    2a5e:	d852                	c.swsp	s4,48(sp)
    2a60:	03512a23          	sw	s5,52(sp)
    2a64:	5a42                	c.lwsp	s4,48(sp)
    2a66:	5ad2                	c.lwsp	s5,52(sp)
    2a68:	d282                	c.swsp	zero,100(sp)
    2a6a:	c0ca167f          	add64	a2,s4,a2
    2a6e:	41f6dc93          	srai	s9,a3,0x1f
    2a72:	01bcfa33          	and	s4,s9,s11
    2a76:	5a96                	c.lwsp	s5,100(sp)
    2a78:	d0d2                	c.swsp	s4,96(sp)
    2a7a:	5a06                	c.lwsp	s4,96(sp)
    2a7c:	c0ca167f          	add64	a2,s4,a2
    2a80:	dff6067f          	wexti	a2,a2,31
    2a84:	56ea                	c.lwsp	a3,184(sp)
    2a86:	00c68ab3          	add	s5,a3,a2
    2a8a:	c0000637          	lui	a2,0xc0000
    2a8e:	0605                	c.addi	a2,1
    2a90:	56fd                	c.li	a3,-1
    2a92:	000ac563          	bltz	s5,2a9c <riscv_nn_softmax_common_s8+0x828>
    2a96:	40000637          	lui	a2,0x40000
    2a9a:	4681                	c.li	a3,0
    2a9c:	2aaaba37          	lui	s4,0x2aaab
    2aa0:	aaba0a13          	addi	s4,s4,-1365 # 2aaaaaab <_DATA_LMA_START+0xaaa5b33>
    2aa4:	854a967f          	smar64	a2,s5,s4
    2aa8:	d682                	c.swsp	zero,108(sp)
    2aaa:	41f6da93          	srai	s5,a3,0x1f
    2aae:	01bafa33          	and	s4,s5,s11
    2ab2:	d4d2                	c.swsp	s4,104(sp)
    2ab4:	5ab6                	c.lwsp	s5,108(sp)
    2ab6:	5a26                	c.lwsp	s4,104(sp)
    2ab8:	c0ca167f          	add64	a2,s4,a2
    2abc:	dff6067f          	wexti	a2,a2,31
    2ac0:	967e                	c.add	a2,t6
    2ac2:	40165693          	srai	a3,a2,0x1
    2ac6:	00064563          	bltz	a2,2ad0 <riscv_nn_softmax_common_s8+0x85c>
    2aca:	8a05                	c.andi	a2,1
    2acc:	00c686b3          	add	a3,a3,a2
    2ad0:	9f36                	c.add	t5,a3
    2ad2:	c0000637          	lui	a2,0xc0000
    2ad6:	0605                	c.addi	a2,1
    2ad8:	56fd                	c.li	a3,-1
    2ada:	000f4563          	bltz	t5,2ae4 <riscv_nn_softmax_common_s8+0x870>
    2ade:	40000637          	lui	a2,0x40000
    2ae2:	4681                	c.li	a3,0
    2ae4:	70f5bcb7          	lui	s9,0x70f5b
    2ae8:	894c8f93          	addi	t6,s9,-1900 # 70f5a894 <_DATA_LMA_START+0x50f5591c>
    2aec:	85ff167f          	smar64	a2,t5,t6
    2af0:	da82                	c.swsp	zero,116(sp)
    2af2:	41f6df13          	srai	t5,a3,0x1f
    2af6:	01bf7f33          	and	t5,t5,s11
    2afa:	5fd6                	c.lwsp	t6,116(sp)
    2afc:	d8fa                	c.swsp	t5,112(sp)
    2afe:	5f46                	c.lwsp	t5,112(sp)
    2b00:	c0000a37          	lui	s4,0xc0000
    2b04:	0a05                	c.addi	s4,1
    2b06:	c0cf167f          	add64	a2,t5,a2
    2b0a:	dff6067f          	wexti	a2,a2,31
    2b0e:	894c8693          	addi	a3,s9,-1900
    2b12:	9636                	c.add	a2,a3
    2b14:	63afc6b7          	lui	a3,0x63afc
    2b18:	e7b68693          	addi	a3,a3,-389 # 63afbe7b <_DATA_LMA_START+0x43af6f03>
    2b1c:	40000f37          	lui	t5,0x40000
    2b20:	4f81                	c.li	t6,0
    2b22:	84d61f7f          	smar64	t5,a2,a3
    2b26:	01c67633          	and	a2,a2,t3
    2b2a:	4681                	c.li	a3,0
    2b2c:	dfff0f7f          	wexti	t5,t5,31
    2b30:	01e5ff33          	and	t5,a1,t5
    2b34:	4da2d5b7          	lui	a1,0x4da2d
    2b38:	01e64f33          	xor	t5,a2,t5
    2b3c:	bf258593          	addi	a1,a1,-1038 # 4da2cbf2 <_DATA_LMA_START+0x2da27c7a>
    2b40:	40000637          	lui	a2,0x40000
    2b44:	84bf167f          	smar64	a2,t5,a1
    2b48:	006f7f33          	and	t5,t5,t1
    2b4c:	4f81                	c.li	t6,0
    2b4e:	dff6067f          	wexti	a2,a2,31
    2b52:	8e79                	c.and	a2,a4
    2b54:	2f16b737          	lui	a4,0x2f16b
    2b58:	00cf4633          	xor	a2,t5,a2
    2b5c:	c6c70713          	addi	a4,a4,-916 # 2f16ac6c <_DATA_LMA_START+0xf165cf4>
    2b60:	40000f37          	lui	t5,0x40000
    2b64:	84e61f7f          	smar64	t5,a2,a4
    2b68:	1152b6b7          	lui	a3,0x1152b
    2b6c:	01167633          	and	a2,a2,a7
    2b70:	dfff0f7f          	wexti	t5,t5,31
    2b74:	01e7ff33          	and	t5,a5,t5
    2b78:	01e64f33          	xor	t5,a2,t5
    2b7c:	aa468693          	addi	a3,a3,-1372 # 1152aaa4 <FLASH_SIZE+0x1142aaa4>
    2b80:	40000737          	lui	a4,0x40000
    2b84:	4781                	c.li	a5,0
    2b86:	84df177f          	smar64	a4,t5,a3
    2b8a:	469e                	c.lwsp	a3,196(sp)
    2b8c:	40000637          	lui	a2,0x40000
    2b90:	dff7077f          	wexti	a4,a4,31
    2b94:	00df7f33          	and	t5,t5,a3
    2b98:	00e87733          	and	a4,a6,a4
    2b9c:	025837b7          	lui	a5,0x2583
    2ba0:	00ef4733          	xor	a4,t5,a4
    2ba4:	ab778793          	addi	a5,a5,-1353 # 2582ab7 <FLASH_SIZE+0x2482ab7>
    2ba8:	4681                	c.li	a3,0
    2baa:	84f7167f          	smar64	a2,a4,a5
    2bae:	8f69                	c.and	a4,a0
    2bb0:	4781                	c.li	a5,0
    2bb2:	dff6067f          	wexti	a2,a2,31
    2bb6:	00c3f633          	and	a2,t2,a2
    2bba:	000b06b7          	lui	a3,0xb0
    2bbe:	8e39                	c.xor	a2,a4
    2bc0:	e1168693          	addi	a3,a3,-495 # afe11 <_STACK_TOP+0xfe11>
    2bc4:	40000737          	lui	a4,0x40000
    2bc8:	84d6177f          	smar64	a4,a2,a3
    2bcc:	01267633          	and	a2,a2,s2
    2bd0:	4681                	c.li	a3,0
    2bd2:	dff7077f          	wexti	a4,a4,31
    2bd6:	8f61                	c.and	a4,s0
    2bd8:	8f31                	c.xor	a4,a2
    2bda:	0f200793          	li	a5,242
    2bde:	40000637          	lui	a2,0x40000
    2be2:	84f7167f          	smar64	a2,a4,a5
    2be6:	8f65                	c.and	a4,s1
    2be8:	478e                	c.lwsp	a5,192(sp)
    2bea:	dff6067f          	wexti	a2,a2,31
    2bee:	00c2f633          	and	a2,t0,a2
    2bf2:	8e39                	c.xor	a2,a4
    2bf4:	01667633          	and	a2,a2,s6
    2bf8:	00f646b3          	xor	a3,a2,a5
    2bfc:	47a2                	c.lwsp	a5,8(sp)
    2bfe:	5afd                	c.li	s5,-1
    2c00:	8fb5                	c.xor	a5,a3
    2c02:	0007c563          	bltz	a5,2c0c <riscv_nn_softmax_common_s8+0x998>
    2c06:	40000a37          	lui	s4,0x40000
    2c0a:	4a81                	c.li	s5,0
    2c0c:	4622                	c.lwsp	a2,8(sp)
    2c0e:	8752                	c.mv	a4,s4
    2c10:	87d6                	c.mv	a5,s5
    2c12:	84c6977f          	smar64	a4,a3,a2
    2c16:	de82                	c.swsp	zero,124(sp)
    2c18:	41f7d693          	srai	a3,a5,0x1f
    2c1c:	01b6f6b3          	and	a3,a3,s11
    2c20:	dcb6                	c.swsp	a3,120(sp)
    2c22:	56f6                	c.lwsp	a3,124(sp)
    2c24:	5666                	c.lwsp	a2,120(sp)
    2c26:	c0e6177f          	add64	a4,a2,a4
    2c2a:	dff7077f          	wexti	a4,a4,31
    2c2e:	57fe                	c.lwsp	a5,252(sp)
    2c30:	40f757b3          	sra	a5,a4,a5
    2c34:	c6075ee3          	bgez	a4,28b0 <riscv_nn_softmax_common_s8+0x63c>
    2c38:	7761                	c.lui	a4,0xffff8
    2c3a:	57f2                	c.lwsp	a5,60(sp)
    2c3c:	00ec1023          	sh	a4,0(s8)
    2c40:	002c0c13          	addi	s8,s8,2
    2c44:	cb8790e3          	bne	a5,s8,28e4 <riscv_nn_softmax_common_s8+0x670>
    2c48:	1f812a83          	lw	s5,504(sp)
    2c4c:	1fc12f83          	lw	t6,508(sp)
    2c50:	20012283          	lw	t0,512(sp)
    2c54:	01700433          	add	s0,zero,s7
    2c58:	4702                	c.lwsp	a4,0(sp)
    2c5a:	13812783          	lw	a5,312(sp)
    2c5e:	9716                	c.add	a4,t0
    2c60:	c03a                	c.swsp	a4,0(sp)
    2c62:	576e                	c.lwsp	a4,248(sp)
    2c64:	56f2                	c.lwsp	a3,60(sp)
    2c66:	9716                	c.add	a4,t0
    2c68:	ddba                	c.swsp	a4,248(sp)
    2c6a:	1f412703          	lw	a4,500(sp)
    2c6e:	0785                	c.addi	a5,1
    2c70:	96ba                	c.add	a3,a4
    2c72:	9aba                	c.add	s5,a4
    2c74:	1ec12703          	lw	a4,492(sp)
    2c78:	12f12c23          	sw	a5,312(sp)
    2c7c:	de36                	c.swsp	a3,60(sp)
    2c7e:	9f96                	c.add	t6,t0
    2c80:	e6f71863          	bne	a4,a5,22f0 <riscv_nn_softmax_common_s8+0x7c>
    2c84:	25c12403          	lw	s0,604(sp)
    2c88:	25812483          	lw	s1,600(sp)
    2c8c:	25412903          	lw	s2,596(sp)
    2c90:	25012983          	lw	s3,592(sp)
    2c94:	24c12a03          	lw	s4,588(sp)
    2c98:	24812a83          	lw	s5,584(sp)
    2c9c:	24412b03          	lw	s6,580(sp)
    2ca0:	24012b83          	lw	s7,576(sp)
    2ca4:	23c12c03          	lw	s8,572(sp)
    2ca8:	23812c83          	lw	s9,568(sp)
    2cac:	23412d03          	lw	s10,564(sp)
    2cb0:	23012d83          	lw	s11,560(sp)
    2cb4:	26010113          	addi	sp,sp,608
    2cb8:	00008067          	ret
    2cbc:	01b00e33          	add	t3,zero,s11
    2cc0:	9e3a                	c.add	t3,a4
    2cc2:	c0000637          	lui	a2,0xc0000
    2cc6:	01ee4f33          	xor	t5,t3,t5
    2cca:	0605                	c.addi	a2,1
    2ccc:	fff00693          	li	a3,-1
    2cd0:	000f4663          	bltz	t5,2cdc <riscv_nn_softmax_common_s8+0xa68>
    2cd4:	40000637          	lui	a2,0x40000
    2cd8:	00000693          	li	a3,0
    2cdc:	03c80833          	mul	a6,a6,t3
    2ce0:	41fe5593          	srai	a1,t3,0x1f
    2ce4:	f11e177f          	mulr64	a4,t3,a7
    2ce8:	c515987f          	maddr32	a6,a1,a7
    2cec:	10012a23          	sw	zero,276(sp)
    2cf0:	97c2                	c.add	a5,a6
    2cf2:	c0c7177f          	add64	a4,a4,a2
    2cf6:	41f7d693          	srai	a3,a5,0x1f
    2cfa:	01b6f6b3          	and	a3,a3,s11
    2cfe:	10d12823          	sw	a3,272(sp)
    2d02:	11412683          	lw	a3,276(sp)
    2d06:	11012603          	lw	a2,272(sp)
    2d0a:	c0000537          	lui	a0,0xc0000
    2d0e:	0505                	c.addi	a0,1
    2d10:	c0e6177f          	add64	a4,a2,a4
    2d14:	dff7077f          	wexti	a4,a4,31
    2d18:	200007b7          	lui	a5,0x20000
    2d1c:	40e78733          	sub	a4,a5,a4
    2d20:	01c747b3          	xor	a5,a4,t3
    2d24:	55fd                	c.li	a1,-1
    2d26:	0007c563          	bltz	a5,2d30 <riscv_nn_softmax_common_s8+0xabc>
    2d2a:	40000537          	lui	a0,0x40000
    2d2e:	4581                	c.li	a1,0
    2d30:	84ee157f          	smar64	a0,t3,a4
    2d34:	10012e23          	sw	zero,284(sp)
    2d38:	41f5d793          	srai	a5,a1,0x1f
    2d3c:	01b7f7b3          	and	a5,a5,s11
    2d40:	10f12c23          	sw	a5,280(sp)
    2d44:	11c12783          	lw	a5,284(sp)
    2d48:	11812703          	lw	a4,280(sp)
    2d4c:	c0a7157f          	add64	a0,a4,a0
    2d50:	dff5057f          	wexti	a0,a0,31
    2d54:	200007b7          	lui	a5,0x20000
    2d58:	aef542e3          	blt	a0,a5,283c <riscv_nn_softmax_common_s8+0x5c8>
    2d5c:	9e6e                	c.add	t3,s11
    2d5e:	400007b7          	lui	a5,0x40000
    2d62:	c46e                	c.swsp	s11,8(sp)
    2d64:	b0fe50e3          	bge	t3,a5,2864 <riscv_nn_softmax_common_s8+0x5f0>
    2d68:	001e1793          	slli	a5,t3,0x1
    2d6c:	00f12423          	sw	a5,8(sp)
    2d70:	1f012783          	lw	a5,496(sp)
    2d74:	ae079ce3          	bnez	a5,286c <riscv_nn_softmax_common_s8+0x5f8>
    2d78:	02300793          	li	a5,35
    2d7c:	406787b3          	sub	a5,a5,t1
    2d80:	dfbe                	c.swsp	a5,252(sp)
    2d82:	873e                	c.mv	a4,a5
    2d84:	ec505ae3          	blez	t0,2c58 <riscv_nn_softmax_common_s8+0x9e4>
    2d88:	4785                	c.li	a5,1
    2d8a:	00e797b3          	sll	a5,a5,a4
    2d8e:	17fd                	c.addi	a5,-1
    2d90:	12f12e23          	sw	a5,316(sp)
    2d94:	8785                	c.srai	a5,0x1
    2d96:	1ef12423          	sw	a5,488(sp)
    2d9a:	4792                	c.lwsp	a5,4(sp)
    2d9c:	80000737          	lui	a4,0x80000
    2da0:	48e786e3          	beq	a5,a4,3a2c <riscv_nn_softmax_common_s8+0x17b8>
    2da4:	5f6e                	c.lwsp	t5,248(sp)
    2da6:	8c7e                	c.mv	s8,t6
    2da8:	8eea                	c.mv	t4,s10
    2daa:	87d2                	c.mv	a5,s4
    2dac:	8ca2                	c.mv	s9,s0
    2dae:	1f512c23          	sw	s5,504(sp)
    2db2:	1ff12e23          	sw	t6,508(sp)
    2db6:	20512023          	sw	t0,512(sp)
    2dba:	a83d                	c.j	2df8 <riscv_nn_softmax_common_s8+0xb84>
    2dbc:	13c12683          	lw	a3,316(sp)
    2dc0:	00d77733          	and	a4,a4,a3
    2dc4:	1e812683          	lw	a3,488(sp)
    2dc8:	38e6d463          	bge	a3,a4,3150 <riscv_nn_softmax_common_s8+0xedc>
    2dcc:	f8178793          	addi	a5,a5,-127 # 3fffff81 <_DATA_LMA_START+0x1fffb009>
    2dd0:	07e00693          	li	a3,126
    2dd4:	07f00713          	li	a4,127
    2dd8:	00f6c663          	blt	a3,a5,2de4 <riscv_nn_softmax_common_s8+0xb70>
    2ddc:	01879713          	slli	a4,a5,0x18
    2de0:	41875713          	srai	a4,a4,0x18
    2de4:	4782                	c.lwsp	a5,0(sp)
    2de6:	00ef0023          	sb	a4,0(t5) # 40000000 <_DATA_LMA_START+0x1fffb088>
    2dea:	0f05                	c.addi	t5,1
    2dec:	35878a63          	beq	a5,s8,3140 <riscv_nn_softmax_common_s8+0xecc>
    2df0:	000c0783          	lb	a5,0(s8)
    2df4:	001c0c13          	addi	s8,s8,1
    2df8:	41d787b3          	sub	a5,a5,t4
    2dfc:	f8000713          	li	a4,-128
    2e00:	ff97c2e3          	blt	a5,s9,2de4 <riscv_nn_softmax_common_s8+0xb70>
    2e04:	5762                	c.lwsp	a4,56(sp)
    2e06:	c0000337          	lui	t1,0xc0000
    2e0a:	00e797b3          	sll	a5,a5,a4
    2e0e:	4712                	c.lwsp	a4,4(sp)
    2e10:	0305                	c.addi	t1,1
    2e12:	8f3d                	c.xor	a4,a5
    2e14:	53fd                	c.li	t2,-1
    2e16:	00074563          	bltz	a4,2e20 <riscv_nn_softmax_common_s8+0xbac>
    2e1a:	40000337          	lui	t1,0x40000
    2e1e:	4381                	c.li	t2,0
    2e20:	4712                	c.lwsp	a4,4(sp)
    2e22:	c302                	c.swsp	zero,132(sp)
    2e24:	c702                	c.swsp	zero,140(sp)
    2e26:	84f7137f          	smar64	t1,a4,a5
    2e2a:	57fd                	c.li	a5,-1
    2e2c:	c0000737          	lui	a4,0xc0000
    2e30:	df3e                	c.swsp	a5,188(sp)
    2e32:	41f3d793          	srai	a5,t2,0x1f
    2e36:	0705                	c.addi	a4,1
    2e38:	01b7f7b3          	and	a5,a5,s11
    2e3c:	c13e                	c.swsp	a5,128(sp)
    2e3e:	dd3a                	c.swsp	a4,184(sp)
    2e40:	479a                	c.lwsp	a5,132(sp)
    2e42:	470a                	c.lwsp	a4,128(sp)
    2e44:	45ba                	c.lwsp	a1,140(sp)
    2e46:	cb02                	c.swsp	zero,148(sp)
    2e48:	c067137f          	add64	t1,a4,t1
    2e4c:	010007b7          	lui	a5,0x1000
    2e50:	dff3037f          	wexti	t1,t1,31
    2e54:	fff78713          	addi	a4,a5,-1 # ffffff <FLASH_SIZE+0xefffff>
    2e58:	006776b3          	and	a3,a4,t1
    2e5c:	8e9d                	c.sub	a3,a5
    2e5e:	00569293          	slli	t0,a3,0x5
    2e62:	100007b7          	lui	a5,0x10000
    2e66:	92be                	c.add	t0,a5
    2e68:	40000737          	lui	a4,0x40000
    2e6c:	4781                	c.li	a5,0
    2e6e:	8452977f          	smar64	a4,t0,t0
    2e72:	406686b3          	sub	a3,a3,t1
    2e76:	41f7d613          	srai	a2,a5,0x1f
    2e7a:	01b67633          	and	a2,a2,s11
    2e7e:	c532                	c.swsp	a2,136(sp)
    2e80:	452a                	c.lwsp	a0,136(sp)
    2e82:	00133313          	seqz	t1,t1
    2e86:	01a6d813          	srli	a6,a3,0x1a
    2e8a:	c0e5177f          	add64	a4,a0,a4
    2e8e:	dff703ff          	wexti	t2,a4,31
    2e92:	41f7d893          	srai	a7,a5,0x1f
    2e96:	02788633          	mul	a2,a7,t2
    2e9a:	f073977f          	mulr64	a4,t2,t2
    2e9e:	40000537          	lui	a0,0x40000
    2ea2:	0606                	c.slli	a2,0x1
    2ea4:	97b2                	c.add	a5,a2
    2ea6:	4581                	c.li	a1,0
    2ea8:	c0a7177f          	add64	a4,a4,a0
    2eac:	41f7d613          	srai	a2,a5,0x1f
    2eb0:	01b67633          	and	a2,a2,s11
    2eb4:	45da                	c.lwsp	a1,148(sp)
    2eb6:	c932                	c.swsp	a2,144(sp)
    2eb8:	454a                	c.lwsp	a0,144(sp)
    2eba:	031288b3          	mul	a7,t0,a7
    2ebe:	01e6da13          	srli	s4,a3,0x1e
    2ec2:	c0e5177f          	add64	a4,a0,a4
    2ec6:	dff7047f          	wexti	s0,a4,31
    2eca:	0196d513          	srli	a0,a3,0x19
    2ece:	00347e13          	andi	t3,s0,3
    2ed2:	00042493          	slti	s1,s0,0
    2ed6:	0186d593          	srli	a1,a3,0x18
    2eda:	8905                	c.andi	a0,1
    2edc:	8409                	c.srai	s0,0x2
    2ede:	d822                	c.swsp	s0,48(sp)
    2ee0:	8985                	c.andi	a1,1
    2ee2:	fff50413          	addi	s0,a0,-1 # 3fffffff <_DATA_LMA_START+0x1fffb087>
    2ee6:	c3a2                	c.swsp	s0,196(sp)
    2ee8:	fff58413          	addi	s0,a1,-1
    2eec:	0485                	c.addi	s1,1
    2eee:	c1a2                	c.swsp	s0,192(sp)
    2ef0:	5442                	c.lwsp	s0,48(sp)
    2ef2:	41f2d793          	srai	a5,t0,0x1f
    2ef6:	01c4a4b3          	slt	s1,s1,t3
    2efa:	c47798ff          	maddr32	a7,a5,t2
    2efe:	01d6d993          	srli	s3,a3,0x1d
    2f02:	01c6d713          	srli	a4,a3,0x1c
    2f06:	01b6d793          	srli	a5,a3,0x1b
    2f0a:	9426                	c.add	s0,s1
    2f0c:	00187813          	andi	a6,a6,1
    2f10:	001a7a13          	andi	s4,s4,1
    2f14:	0019f993          	andi	s3,s3,1
    2f18:	8b05                	c.andi	a4,1
    2f1a:	8b85                	c.andi	a5,1
    2f1c:	f072967f          	mulr64	a2,t0,t2
    2f20:	40600bb3          	neg	s7,t1
    2f24:	0072cd33          	xor	s10,t0,t2
    2f28:	d822                	c.swsp	s0,48(sp)
    2f2a:	41000e33          	neg	t3,a6
    2f2e:	41400b33          	neg	s6,s4
    2f32:	41300fb3          	neg	t6,s3
    2f36:	40e00933          	neg	s2,a4
    2f3a:	96c6                	c.add	a3,a7
    2f3c:	fff30a93          	addi	s5,t1,-1 # 3fffffff <_DATA_LMA_START+0x1fffb087>
    2f40:	40f008b3          	neg	a7,a5
    2f44:	187d                	c.addi	a6,-1
    2f46:	40a00533          	neg	a0,a0
    2f4a:	01bbfbb3          	and	s7,s7,s11
    2f4e:	40b005b3          	neg	a1,a1
    2f52:	19fd                	c.addi	s3,-1
    2f54:	1a7d                	c.addi	s4,-1
    2f56:	177d                	c.addi	a4,-1
    2f58:	17fd                	c.addi	a5,-1
    2f5a:	000d4763          	bltz	s10,2f68 <riscv_nn_softmax_common_s8+0xcf4>
    2f5e:	40000437          	lui	s0,0x40000
    2f62:	4481                	c.li	s1,0
    2f64:	dd22                	c.swsp	s0,184(sp)
    2f66:	df26                	c.swsp	s1,188(sp)
    2f68:	546a                	c.lwsp	s0,184(sp)
    2f6a:	54fa                	c.lwsp	s1,188(sp)
    2f6c:	cf02                	c.swsp	zero,156(sp)
    2f6e:	c0c4167f          	add64	a2,s0,a2
    2f72:	41f6d493          	srai	s1,a3,0x1f
    2f76:	01b4f433          	and	s0,s1,s11
    2f7a:	cd22                	c.swsp	s0,152(sp)
    2f7c:	44fa                	c.lwsp	s1,156(sp)
    2f7e:	446a                	c.lwsp	s0,152(sp)
    2f80:	c0c4167f          	add64	a2,s0,a2
    2f84:	dff6067f          	wexti	a2,a2,31
    2f88:	56c2                	c.lwsp	a3,48(sp)
    2f8a:	00c68433          	add	s0,a3,a2
    2f8e:	c0000637          	lui	a2,0xc0000
    2f92:	0605                	c.addi	a2,1
    2f94:	56fd                	c.li	a3,-1
    2f96:	00044563          	bltz	s0,2fa0 <riscv_nn_softmax_common_s8+0xd2c>
    2f9a:	40000637          	lui	a2,0x40000
    2f9e:	4681                	c.li	a3,0
    2fa0:	2aaab4b7          	lui	s1,0x2aaab
    2fa4:	aab48493          	addi	s1,s1,-1365 # 2aaaaaab <_DATA_LMA_START+0xaaa5b33>
    2fa8:	8494167f          	smar64	a2,s0,s1
    2fac:	d302                	c.swsp	zero,164(sp)
    2fae:	41f6d413          	srai	s0,a3,0x1f
    2fb2:	01b47433          	and	s0,s0,s11
    2fb6:	549a                	c.lwsp	s1,164(sp)
    2fb8:	d122                	c.swsp	s0,160(sp)
    2fba:	540a                	c.lwsp	s0,160(sp)
    2fbc:	c0c4167f          	add64	a2,s0,a2
    2fc0:	dff6067f          	wexti	a2,a2,31
    2fc4:	961e                	c.add	a2,t2
    2fc6:	40165693          	srai	a3,a2,0x1
    2fca:	00064563          	bltz	a2,2fd4 <riscv_nn_softmax_common_s8+0xd60>
    2fce:	8a05                	c.andi	a2,1
    2fd0:	00c686b3          	add	a3,a3,a2
    2fd4:	92b6                	c.add	t0,a3
    2fd6:	c0000637          	lui	a2,0xc0000
    2fda:	0605                	c.addi	a2,1
    2fdc:	56fd                	c.li	a3,-1
    2fde:	0002c563          	bltz	t0,2fe8 <riscv_nn_softmax_common_s8+0xd74>
    2fe2:	40000637          	lui	a2,0x40000
    2fe6:	4681                	c.li	a3,0
    2fe8:	70f5bd37          	lui	s10,0x70f5b
    2fec:	894d0413          	addi	s0,s10,-1900 # 70f5a894 <_DATA_LMA_START+0x50f5591c>
    2ff0:	8482967f          	smar64	a2,t0,s0
    2ff4:	d702                	c.swsp	zero,172(sp)
    2ff6:	41f6d293          	srai	t0,a3,0x1f
    2ffa:	01b2f433          	and	s0,t0,s11
    2ffe:	54ba                	c.lwsp	s1,172(sp)
    3000:	d522                	c.swsp	s0,168(sp)
    3002:	542a                	c.lwsp	s0,168(sp)
    3004:	c0000337          	lui	t1,0xc0000
    3008:	0305                	c.addi	t1,1
    300a:	c0c4167f          	add64	a2,s0,a2
    300e:	dff6067f          	wexti	a2,a2,31
    3012:	894d0693          	addi	a3,s10,-1900
    3016:	9636                	c.add	a2,a3
    3018:	63afc6b7          	lui	a3,0x63afc
    301c:	e7b68693          	addi	a3,a3,-389 # 63afbe7b <_DATA_LMA_START+0x43af6f03>
    3020:	40000437          	lui	s0,0x40000
    3024:	4481                	c.li	s1,0
    3026:	84d6147f          	smar64	s0,a2,a3
    302a:	468e                	c.lwsp	a3,192(sp)
    302c:	53fd                	c.li	t2,-1
    302e:	dff4047f          	wexti	s0,s0,31
    3032:	8e75                	c.and	a2,a3
    3034:	8c6d                	c.and	s0,a1
    3036:	4da2d5b7          	lui	a1,0x4da2d
    303a:	8c31                	c.xor	s0,a2
    303c:	bf258593          	addi	a1,a1,-1038 # 4da2cbf2 <_DATA_LMA_START+0x2da27c7a>
    3040:	40000637          	lui	a2,0x40000
    3044:	4681                	c.li	a3,0
    3046:	84b4167f          	smar64	a2,s0,a1
    304a:	459e                	c.lwsp	a1,196(sp)
    304c:	dff6067f          	wexti	a2,a2,31
    3050:	8c6d                	c.and	s0,a1
    3052:	8e69                	c.and	a2,a0
    3054:	2f16b6b7          	lui	a3,0x2f16b
    3058:	8e21                	c.xor	a2,s0
    305a:	c6c68693          	addi	a3,a3,-916 # 2f16ac6c <_DATA_LMA_START+0xf165cf4>
    305e:	40000537          	lui	a0,0x40000
    3062:	4581                	c.li	a1,0
    3064:	84d6157f          	smar64	a0,a2,a3
    3068:	01067633          	and	a2,a2,a6
    306c:	4681                	c.li	a3,0
    306e:	dff5057f          	wexti	a0,a0,31
    3072:	00ae7533          	and	a0,t3,a0
    3076:	1152b5b7          	lui	a1,0x1152b
    307a:	8d31                	c.xor	a0,a2
    307c:	aa458593          	addi	a1,a1,-1372 # 1152aaa4 <FLASH_SIZE+0x1142aaa4>
    3080:	40000637          	lui	a2,0x40000
    3084:	84b5167f          	smar64	a2,a0,a1
    3088:	8d7d                	c.and	a0,a5
    308a:	025837b7          	lui	a5,0x2583
    308e:	dff6067f          	wexti	a2,a2,31
    3092:	00c8f633          	and	a2,a7,a2
    3096:	8e29                	c.xor	a2,a0
    3098:	ab778793          	addi	a5,a5,-1353 # 2582ab7 <FLASH_SIZE+0x2482ab7>
    309c:	40000537          	lui	a0,0x40000
    30a0:	4581                	c.li	a1,0
    30a2:	84f6157f          	smar64	a0,a2,a5
    30a6:	000b06b7          	lui	a3,0xb0
    30aa:	8e79                	c.and	a2,a4
    30ac:	dff5057f          	wexti	a0,a0,31
    30b0:	00a97533          	and	a0,s2,a0
    30b4:	8d31                	c.xor	a0,a2
    30b6:	e1168693          	addi	a3,a3,-495 # afe11 <_STACK_TOP+0xfe11>
    30ba:	40000737          	lui	a4,0x40000
    30be:	4781                	c.li	a5,0
    30c0:	84d5177f          	smar64	a4,a0,a3
    30c4:	01357533          	and	a0,a0,s3
    30c8:	40000637          	lui	a2,0x40000
    30cc:	dff7077f          	wexti	a4,a4,31
    30d0:	00eff733          	and	a4,t6,a4
    30d4:	8f29                	c.xor	a4,a0
    30d6:	0f200793          	li	a5,242
    30da:	4681                	c.li	a3,0
    30dc:	84f7167f          	smar64	a2,a4,a5
    30e0:	01477733          	and	a4,a4,s4
    30e4:	47a2                	c.lwsp	a5,8(sp)
    30e6:	dff6067f          	wexti	a2,a2,31
    30ea:	00cb7633          	and	a2,s6,a2
    30ee:	8e39                	c.xor	a2,a4
    30f0:	01567633          	and	a2,a2,s5
    30f4:	017646b3          	xor	a3,a2,s7
    30f8:	8fb5                	c.xor	a5,a3
    30fa:	0007c563          	bltz	a5,3104 <riscv_nn_softmax_common_s8+0xe90>
    30fe:	40000337          	lui	t1,0x40000
    3102:	4381                	c.li	t2,0
    3104:	4622                	c.lwsp	a2,8(sp)
    3106:	871a                	c.mv	a4,t1
    3108:	879e                	c.mv	a5,t2
    310a:	84c6977f          	smar64	a4,a3,a2
    310e:	db02                	c.swsp	zero,180(sp)
    3110:	41f7d693          	srai	a3,a5,0x1f
    3114:	01b6f6b3          	and	a3,a3,s11
    3118:	d936                	c.swsp	a3,176(sp)
    311a:	56da                	c.lwsp	a3,180(sp)
    311c:	564a                	c.lwsp	a2,176(sp)
    311e:	c0e6177f          	add64	a4,a2,a4
    3122:	dff7077f          	wexti	a4,a4,31
    3126:	57fe                	c.lwsp	a5,252(sp)
    3128:	40f757b3          	sra	a5,a4,a5
    312c:	c80758e3          	bgez	a4,2dbc <riscv_nn_softmax_common_s8+0xb48>
    3130:	f8000713          	li	a4,-128
    3134:	4782                	c.lwsp	a5,0(sp)
    3136:	00ef0023          	sb	a4,0(t5)
    313a:	0f05                	c.addi	t5,1
    313c:	cb879ae3          	bne	a5,s8,2df0 <riscv_nn_softmax_common_s8+0xb7c>
    3140:	1f812a83          	lw	s5,504(sp)
    3144:	1fc12f83          	lw	t6,508(sp)
    3148:	20012283          	lw	t0,512(sp)
    314c:	8466                	c.mv	s0,s9
    314e:	b629                	c.j	2c58 <riscv_nn_softmax_common_s8+0x9e4>
    3150:	f8078793          	addi	a5,a5,-128
    3154:	f8000713          	li	a4,-128
    3158:	c6e79ce3          	bne	a5,a4,2dd0 <riscv_nn_softmax_common_s8+0xb5c>
    315c:	c89ff06f          	j	2de4 <riscv_nn_softmax_common_s8+0xb70>
    3160:	7761                	c.lui	a4,0xffff8
    3162:	97ba                	c.add	a5,a4
    3164:	f6e79063          	bne	a5,a4,28c4 <riscv_nn_softmax_common_s8+0x650>
    3168:	f70ff06f          	j	28d8 <riscv_nn_softmax_common_s8+0x664>
    316c:	56f286e3          	beq	t0,a5,3ed8 <riscv_nn_softmax_common_s8+0x1c64>
    3170:	4301                	c.li	t1,0
    3172:	af93037f          	clz32	t1,t1
    3176:	8d52                	c.mv	s10,s4
    3178:	b4b4b737          	lui	a4,0xb4b4b
    317c:	5f7d                	c.li	t5,-1
    317e:	58fd                	c.li	a7,-1
    3180:	587d                	c.li	a6,-1
    3182:	4b670713          	addi	a4,a4,1206 # b4b4b4b6 <_DATA_LMA_START+0x94b4653e>
    3186:	40000e37          	lui	t3,0x40000
    318a:	4e81                	c.li	t4,0
    318c:	da8ff06f          	j	2734 <riscv_nn_softmax_common_s8+0x4c0>
    3190:	8c7e                	c.mv	s8,t6
    3192:	85d2                	c.mv	a1,s4
    3194:	4b81                	c.li	s7,0
    3196:	d852                	c.swsp	s4,48(sp)
    3198:	dd56                	c.swsp	s5,184(sp)
    319a:	c1fe                	c.swsp	t6,192(sp)
    319c:	0c512223          	sw	t0,196(sp)
    31a0:	41a585b3          	sub	a1,a1,s10
    31a4:	3485c463          	blt	a1,s0,34ec <riscv_nn_softmax_common_s8+0x1278>
    31a8:	57e2                	c.lwsp	a5,56(sp)
    31aa:	c0000737          	lui	a4,0xc0000
    31ae:	00f595b3          	sll	a1,a1,a5
    31b2:	01f5d693          	srli	a3,a1,0x1f
    31b6:	4605                	c.li	a2,1
    31b8:	0705                	c.addi	a4,1
    31ba:	57fd                	c.li	a5,-1
    31bc:	00c69663          	bne	a3,a2,31c8 <riscv_nn_softmax_common_s8+0xf54>
    31c0:	40000737          	lui	a4,0x40000
    31c4:	00000793          	li	a5,0
    31c8:	41f5d693          	srai	a3,a1,0x1f
    31cc:	cbb6                	c.swsp	a3,212(sp)
    31ce:	c9ae                	c.swsp	a1,208(sp)
    31d0:	48de                	c.lwsp	a7,212(sp)
    31d2:	484e                	c.lwsp	a6,208(sp)
    31d4:	4601                	c.li	a2,0
    31d6:	4681                	c.li	a3,0
    31d8:	c306167f          	sub64	a2,a2,a6
    31dc:	de16057f          	wexti	a0,a2,1
    31e0:	01f61693          	slli	a3,a2,0x1f
    31e4:	cfaa                	c.swsp	a0,220(sp)
    31e6:	cdb6                	c.swsp	a3,216(sp)
    31e8:	46fe                	c.lwsp	a3,220(sp)
    31ea:	466e                	c.lwsp	a2,216(sp)
    31ec:	d382                	c.swsp	zero,228(sp)
    31ee:	c0e6177f          	add64	a4,a2,a4
    31f2:	41f7d693          	srai	a3,a5,0x1f
    31f6:	01b6f6b3          	and	a3,a3,s11
    31fa:	d1b6                	c.swsp	a3,224(sp)
    31fc:	569e                	c.lwsp	a3,228(sp)
    31fe:	560e                	c.lwsp	a2,224(sp)
    3200:	c0e6177f          	add64	a4,a2,a4
    3204:	dff7057f          	wexti	a0,a4,31
    3208:	800007b7          	lui	a5,0x80000
    320c:	8f2a                	c.mv	t5,a0
    320e:	2ef58763          	beq	a1,a5,34fc <riscv_nn_softmax_common_s8+0x1288>
    3212:	01000737          	lui	a4,0x1000
    3216:	fff70793          	addi	a5,a4,-1 # ffffff <FLASH_SIZE+0xefffff>
    321a:	8fe9                	c.and	a5,a0
    321c:	8f99                	c.sub	a5,a4
    321e:	00579713          	slli	a4,a5,0x5
    3222:	100006b7          	lui	a3,0x10000
    3226:	9736                	c.add	a4,a3
    3228:	40000637          	lui	a2,0x40000
    322c:	4681                	c.li	a3,0
    322e:	84e7167f          	smar64	a2,a4,a4
    3232:	8f89                	c.sub	a5,a0
    3234:	41f6d593          	srai	a1,a3,0x1f
    3238:	01b5f5b3          	and	a1,a1,s11
    323c:	10b12023          	sw	a1,256(sp)
    3240:	10012223          	sw	zero,260(sp)
    3244:	10012503          	lw	a0,256(sp)
    3248:	10412583          	lw	a1,260(sp)
    324c:	40000337          	lui	t1,0x40000
    3250:	4381                	c.li	t2,0
    3252:	c0c5167f          	add64	a2,a0,a2
    3256:	dff605ff          	wexti	a1,a2,31
    325a:	41f6d893          	srai	a7,a3,0x1f
    325e:	02b88533          	mul	a0,a7,a1
    3262:	f0b5967f          	mulr64	a2,a1,a1
    3266:	10012623          	sw	zero,268(sp)
    326a:	0506                	c.slli	a0,0x1
    326c:	96aa                	c.add	a3,a0
    326e:	c066167f          	add64	a2,a2,t1
    3272:	41f6d513          	srai	a0,a3,0x1f
    3276:	01b57533          	and	a0,a0,s11
    327a:	10c12383          	lw	t2,268(sp)
    327e:	10a12423          	sw	a0,264(sp)
    3282:	10812303          	lw	t1,264(sp)
    3286:	031708b3          	mul	a7,a4,a7
    328a:	41f75513          	srai	a0,a4,0x1f
    328e:	c0c3167f          	add64	a2,t1,a2
    3292:	01e7dc93          	srli	s9,a5,0x1e
    3296:	c4b518ff          	maddr32	a7,a0,a1
    329a:	dff609ff          	wexti	s3,a2,31
    329e:	0187d813          	srli	a6,a5,0x18
    32a2:	0197d513          	srli	a0,a5,0x19
    32a6:	01b7d393          	srli	t2,a5,0x1b
    32aa:	01c7d913          	srli	s2,a5,0x1c
    32ae:	01d7da93          	srli	s5,a5,0x1d
    32b2:	001cfc93          	andi	s9,s9,1
    32b6:	83e9                	c.srli	a5,0x1a
    32b8:	fffc8f93          	addi	t6,s9,-1
    32bc:	00187813          	andi	a6,a6,1
    32c0:	8905                	c.andi	a0,1
    32c2:	0013f393          	andi	t2,t2,1
    32c6:	00197913          	andi	s2,s2,1
    32ca:	001afa93          	andi	s5,s5,1
    32ce:	8b85                	c.andi	a5,1
    32d0:	0009a693          	slti	a3,s3,0
    32d4:	00b74b33          	xor	s6,a4,a1
    32d8:	f0b71e7f          	mulr64	t3,a4,a1
    32dc:	0039f613          	andi	a2,s3,3
    32e0:	9ec6                	c.add	t4,a7
    32e2:	41000333          	neg	t1,a6
    32e6:	40a008b3          	neg	a7,a0
    32ea:	fff38293          	addi	t0,t2,-1
    32ee:	fff90493          	addi	s1,s2,-1
    32f2:	fffa8a13          	addi	s4,s5,-1
    32f6:	c47e                	c.swsp	t6,8(sp)
    32f8:	4029d993          	srai	s3,s3,0x2
    32fc:	fff78f93          	addi	t6,a5,-1 # 7fffffff <_DATA_LMA_START+0x5fffb087>
    3300:	01fb5b13          	srli	s6,s6,0x1f
    3304:	187d                	c.addi	a6,-1
    3306:	157d                	c.addi	a0,-1
    3308:	41200933          	neg	s2,s2
    330c:	41500ab3          	neg	s5,s5
    3310:	41900cb3          	neg	s9,s9
    3314:	40f007b3          	neg	a5,a5
    3318:	407003b3          	neg	t2,t2
    331c:	00168693          	addi	a3,a3,1 # 10000001 <FLASH_SIZE+0xff00001>
    3320:	00c6a6b3          	slt	a3,a3,a2
    3324:	c0000637          	lui	a2,0xc0000
    3328:	99b6                	c.add	s3,a3
    332a:	0605                	c.addi	a2,1
    332c:	56fd                	c.li	a3,-1
    332e:	000b1563          	bnez	s6,3338 <riscv_nn_softmax_common_s8+0x10c4>
    3332:	40000637          	lui	a2,0x40000
    3336:	4681                	c.li	a3,0
    3338:	c1c6167f          	add64	a2,a2,t3
    333c:	41f6de13          	srai	t3,a3,0x1f
    3340:	01be7e33          	and	t3,t3,s11
    3344:	d5f2                	c.swsp	t3,232(sp)
    3346:	d782                	c.swsp	zero,236(sp)
    3348:	5e2e                	c.lwsp	t3,232(sp)
    334a:	5ebe                	c.lwsp	t4,236(sp)
    334c:	c0ce167f          	add64	a2,t3,a2
    3350:	dff6067f          	wexti	a2,a2,31
    3354:	00c98e33          	add	t3,s3,a2
    3358:	c0000637          	lui	a2,0xc0000
    335c:	0605                	c.addi	a2,1
    335e:	56fd                	c.li	a3,-1
    3360:	000e4663          	bltz	t3,336c <riscv_nn_softmax_common_s8+0x10f8>
    3364:	40000637          	lui	a2,0x40000
    3368:	00000693          	li	a3,0
    336c:	2aaabeb7          	lui	t4,0x2aaab
    3370:	aabe8e93          	addi	t4,t4,-1365 # 2aaaaaab <_DATA_LMA_START+0xaaa5b33>
    3374:	85de167f          	smar64	a2,t3,t4
    3378:	db82                	c.swsp	zero,244(sp)
    337a:	41f6de13          	srai	t3,a3,0x1f
    337e:	01be7e33          	and	t3,t3,s11
    3382:	5ede                	c.lwsp	t4,244(sp)
    3384:	d9f2                	c.swsp	t3,240(sp)
    3386:	5e4e                	c.lwsp	t3,240(sp)
    3388:	c0ce167f          	add64	a2,t3,a2
    338c:	dff6067f          	wexti	a2,a2,31
    3390:	962e                	c.add	a2,a1
    3392:	40165693          	srai	a3,a2,0x1
    3396:	00064563          	bltz	a2,33a0 <riscv_nn_softmax_common_s8+0x112c>
    339a:	8a05                	c.andi	a2,1
    339c:	00c686b3          	add	a3,a3,a2
    33a0:	9736                	c.add	a4,a3
    33a2:	c0000637          	lui	a2,0xc0000
    33a6:	0605                	c.addi	a2,1
    33a8:	56fd                	c.li	a3,-1
    33aa:	00074563          	bltz	a4,33b4 <riscv_nn_softmax_common_s8+0x1140>
    33ae:	40000637          	lui	a2,0x40000
    33b2:	4681                	c.li	a3,0
    33b4:	000805b7          	lui	a1,0x80
    33b8:	120f0863          	beqz	t5,34e8 <riscv_nn_softmax_common_s8+0x1274>
    33bc:	70f5b5b7          	lui	a1,0x70f5b
    33c0:	89458e13          	addi	t3,a1,-1900 # 70f5a894 <_DATA_LMA_START+0x50f5591c>
    33c4:	85c7167f          	smar64	a2,a4,t3
    33c8:	14012a23          	sw	zero,340(sp)
    33cc:	41f6d713          	srai	a4,a3,0x1f
    33d0:	01b77733          	and	a4,a4,s11
    33d4:	15412e83          	lw	t4,340(sp)
    33d8:	14e12823          	sw	a4,336(sp)
    33dc:	15012e03          	lw	t3,336(sp)
    33e0:	89458713          	addi	a4,a1,-1900
    33e4:	c0ce167f          	add64	a2,t3,a2
    33e8:	dff6067f          	wexti	a2,a2,31
    33ec:	963a                	c.add	a2,a4
    33ee:	63afc737          	lui	a4,0x63afc
    33f2:	e7b70713          	addi	a4,a4,-389 # 63afbe7b <_DATA_LMA_START+0x43af6f03>
    33f6:	40000e37          	lui	t3,0x40000
    33fa:	4e81                	c.li	t4,0
    33fc:	84e61e7f          	smar64	t3,a2,a4
    3400:	01067633          	and	a2,a2,a6
    3404:	4da2d737          	lui	a4,0x4da2d
    3408:	dffe0e7f          	wexti	t3,t3,31
    340c:	01c37333          	and	t1,t1,t3
    3410:	00c34333          	xor	t1,t1,a2
    3414:	bf270713          	addi	a4,a4,-1038 # 4da2cbf2 <_DATA_LMA_START+0x2da27c7a>
    3418:	40000637          	lui	a2,0x40000
    341c:	4681                	c.li	a3,0
    341e:	84e3167f          	smar64	a2,t1,a4
    3422:	00a37333          	and	t1,t1,a0
    3426:	2f16b737          	lui	a4,0x2f16b
    342a:	dff6067f          	wexti	a2,a2,31
    342e:	00c8f8b3          	and	a7,a7,a2
    3432:	0068c8b3          	xor	a7,a7,t1
    3436:	c6c70713          	addi	a4,a4,-916 # 2f16ac6c <_DATA_LMA_START+0xf165cf4>
    343a:	40000637          	lui	a2,0x40000
    343e:	4681                	c.li	a3,0
    3440:	84e8967f          	smar64	a2,a7,a4
    3444:	01f8f8b3          	and	a7,a7,t6
    3448:	40000737          	lui	a4,0x40000
    344c:	dff6067f          	wexti	a2,a2,31
    3450:	8ff1                	c.and	a5,a2
    3452:	1152b637          	lui	a2,0x1152b
    3456:	0117c6b3          	xor	a3,a5,a7
    345a:	aa460613          	addi	a2,a2,-1372 # 1152aaa4 <FLASH_SIZE+0x1142aaa4>
    345e:	4781                	c.li	a5,0
    3460:	84c6977f          	smar64	a4,a3,a2
    3464:	0056f6b3          	and	a3,a3,t0
    3468:	dff7077f          	wexti	a4,a4,31
    346c:	00e3f3b3          	and	t2,t2,a4
    3470:	00d3c3b3          	xor	t2,t2,a3
    3474:	025836b7          	lui	a3,0x2583
    3478:	ab768693          	addi	a3,a3,-1353 # 2582ab7 <FLASH_SIZE+0x2482ab7>
    347c:	40000737          	lui	a4,0x40000
    3480:	4781                	c.li	a5,0
    3482:	84d3977f          	smar64	a4,t2,a3
    3486:	0093f3b3          	and	t2,t2,s1
    348a:	000b06b7          	lui	a3,0xb0
    348e:	dff7077f          	wexti	a4,a4,31
    3492:	00e97933          	and	s2,s2,a4
    3496:	00794933          	xor	s2,s2,t2
    349a:	e1168693          	addi	a3,a3,-495 # afe11 <_STACK_TOP+0xfe11>
    349e:	40000737          	lui	a4,0x40000
    34a2:	4781                	c.li	a5,0
    34a4:	84d9177f          	smar64	a4,s2,a3
    34a8:	01497933          	and	s2,s2,s4
    34ac:	0f200693          	li	a3,242
    34b0:	dff7077f          	wexti	a4,a4,31
    34b4:	00eafab3          	and	s5,s5,a4
    34b8:	012acab3          	xor	s5,s5,s2
    34bc:	40000737          	lui	a4,0x40000
    34c0:	4781                	c.li	a5,0
    34c2:	84da977f          	smar64	a4,s5,a3
    34c6:	46a2                	c.lwsp	a3,8(sp)
    34c8:	dff705ff          	wexti	a1,a4,31
    34cc:	00dafab3          	and	s5,s5,a3
    34d0:	00bcf5b3          	and	a1,s9,a1
    34d4:	6785                	c.lui	a5,0x1
    34d6:	0155c5b3          	xor	a1,a1,s5
    34da:	80078793          	addi	a5,a5,-2048 # 800 <analog_read_reg8+0x28>
    34de:	8fed                	c.and	a5,a1
    34e0:	00f037b3          	snez	a5,a5
    34e4:	85b1                	c.srai	a1,0xc
    34e6:	95be                	c.add	a1,a5
    34e8:	00bb8bb3          	add	s7,s7,a1
    34ec:	4782                	c.lwsp	a5,0(sp)
    34ee:	05878d63          	beq	a5,s8,3548 <riscv_nn_softmax_common_s8+0x12d4>
    34f2:	000c0583          	lb	a1,0(s8)
    34f6:	0c05                	c.addi	s8,1
    34f8:	ca9ff06f          	j	31a0 <riscv_nn_softmax_common_s8+0xf2c>
    34fc:	577d                	c.li	a4,-1
    34fe:	c43a                	c.swsp	a4,8(sp)
    3500:	02000737          	lui	a4,0x2000
    3504:	0007e797          	auipc	a5,0x7e
    3508:	81478793          	addi	a5,a5,-2028 # 80d18 <softmax_s8_s16_output_ref+0x6c>
    350c:	ff870593          	addi	a1,a4,-8 # 1fffff8 <FLASH_SIZE+0x1effff8>
    3510:	10000737          	lui	a4,0x10000
    3514:	0007ae03          	lw	t3,0(a5)
    3518:	0047ae83          	lw	t4,4(a5)
    351c:	4381                	c.li	t2,0
    351e:	4781                	c.li	a5,0
    3520:	4c81                	c.li	s9,0
    3522:	4a81                	c.li	s5,0
    3524:	4901                	c.li	s2,0
    3526:	557d                	c.li	a0,-1
    3528:	587d                	c.li	a6,-1
    352a:	5ffd                	c.li	t6,-1
    352c:	5a7d                	c.li	s4,-1
    352e:	54fd                	c.li	s1,-1
    3530:	52fd                	c.li	t0,-1
    3532:	4881                	c.li	a7,0
    3534:	4301                	c.li	t1,0
    3536:	4b01                	c.li	s6,0
    3538:	000209b7          	lui	s3,0x20
    353c:	4601                	c.li	a2,0
    353e:	1701                	c.addi	a4,-32
    3540:	8f6e                	c.mv	t5,s11
    3542:	4685                	c.li	a3,1
    3544:	dddff06f          	j	3320 <riscv_nn_softmax_common_s8+0x10ac>
    3548:	5a42                	c.lwsp	s4,48(sp)
    354a:	5aea                	c.lwsp	s5,184(sp)
    354c:	4f8e                	c.lwsp	t6,192(sp)
    354e:	429e                	c.lwsp	t0,196(sp)
    3550:	8e0ff06f          	j	2630 <riscv_nn_softmax_common_s8+0x3bc>
    3554:	c0a7177f          	add64	a4,a4,a0
    3558:	41f7d613          	srai	a2,a5,0x1f
    355c:	01b67633          	and	a2,a2,s11
    3560:	20c12c23          	sw	a2,536(sp)
    3564:	20012e23          	sw	zero,540(sp)
    3568:	21812503          	lw	a0,536(sp)
    356c:	21c12583          	lw	a1,540(sp)
    3570:	c0e5177f          	add64	a4,a0,a4
    3574:	dff7077f          	wexti	a4,a4,31
    3578:	00271713          	slli	a4,a4,0x2
    357c:	9a0ff06f          	j	271c <riscv_nn_softmax_common_s8+0x4a8>
    3580:	800007b7          	lui	a5,0x80000
    3584:	fff78f13          	addi	t5,a5,-1 # 7fffffff <_DATA_LMA_START+0x5fffb087>
    3588:	67a1                	c.lui	a5,0x8
    358a:	17fd                	c.addi	a5,-1
    358c:	89d6                	c.mv	s3,s5
    358e:	84fe                	c.mv	s1,t6
    3590:	23512023          	sw	s5,544(sp)
    3594:	23f12223          	sw	t6,548(sp)
    3598:	85d2                	c.mv	a1,s4
    359a:	40000b37          	lui	s6,0x40000
    359e:	4b81                	c.li	s7,0
    35a0:	8fea                	c.mv	t6,s10
    35a2:	8aa2                	c.mv	s5,s0
    35a4:	20f12023          	sw	a5,512(sp)
    35a8:	22512423          	sw	t0,552(sp)
    35ac:	23b12623          	sw	s11,556(sp)
    35b0:	3780006f          	j	3928 <riscv_nn_softmax_common_s8+0x16b4>
    35b4:	010007b7          	lui	a5,0x1000
    35b8:	fff78713          	addi	a4,a5,-1 # ffffff <FLASH_SIZE+0xefffff>
    35bc:	01c77333          	and	t1,a4,t3
    35c0:	40f30333          	sub	t1,t1,a5
    35c4:	00531513          	slli	a0,t1,0x5
    35c8:	100007b7          	lui	a5,0x10000
    35cc:	953e                	c.add	a0,a5
    35ce:	875a                	c.mv	a4,s6
    35d0:	87de                	c.mv	a5,s7
    35d2:	84a5177f          	smar64	a4,a0,a0
    35d6:	1c012623          	sw	zero,460(sp)
    35da:	41f7d693          	srai	a3,a5,0x1f
    35de:	01e6f6b3          	and	a3,a3,t5
    35e2:	1cd12423          	sw	a3,456(sp)
    35e6:	1cc12683          	lw	a3,460(sp)
    35ea:	1c812603          	lw	a2,456(sp)
    35ee:	1c012a23          	sw	zero,468(sp)
    35f2:	41c30333          	sub	t1,t1,t3
    35f6:	c0e6177f          	add64	a4,a2,a4
    35fa:	dff7087f          	wexti	a6,a4,31
    35fe:	41f7da13          	srai	s4,a5,0x1f
    3602:	030a06b3          	mul	a3,s4,a6
    3606:	f108177f          	mulr64	a4,a6,a6
    360a:	03450a33          	mul	s4,a0,s4
    360e:	0686                	c.slli	a3,0x1
    3610:	97b6                	c.add	a5,a3
    3612:	c167177f          	add64	a4,a4,s6
    3616:	41f7d693          	srai	a3,a5,0x1f
    361a:	01e6f6b3          	and	a3,a3,t5
    361e:	1cd12823          	sw	a3,464(sp)
    3622:	1d412683          	lw	a3,468(sp)
    3626:	1d012603          	lw	a2,464(sp)
    362a:	001e3e13          	seqz	t3,t3
    362e:	01d35893          	srli	a7,t1,0x1d
    3632:	c0e6177f          	add64	a4,a2,a4
    3636:	41f55693          	srai	a3,a0,0x1f
    363a:	c5069a7f          	maddr32	s4,a3,a6
    363e:	dff7097f          	wexti	s2,a4,31
    3642:	0018f893          	andi	a7,a7,1
    3646:	41c00c33          	neg	s8,t3
    364a:	01e35413          	srli	s0,t1,0x1e
    364e:	01b35693          	srli	a3,t1,0x1b
    3652:	01835593          	srli	a1,t1,0x18
    3656:	01935713          	srli	a4,t1,0x19
    365a:	01c35613          	srli	a2,t1,0x1c
    365e:	01a35793          	srli	a5,t1,0x1a
    3662:	f105137f          	mulr64	t1,a0,a6
    3666:	8a85                	c.andi	a3,1
    3668:	fff88e93          	addi	t4,a7,-1
    366c:	8b05                	c.andi	a4,1
    366e:	93d2                	c.add	t2,s4
    3670:	01ec7a33          	and	s4,s8,t5
    3674:	8805                	c.andi	s0,1
    3676:	8985                	c.andi	a1,1
    3678:	8a05                	c.andi	a2,1
    367a:	8b85                	c.andi	a5,1
    367c:	00092d13          	slti	s10,s2,0
    3680:	01054db3          	xor	s11,a0,a6
    3684:	1fd12e23          	sw	t4,508(sp)
    3688:	c1d2                	c.swsp	s4,192(sp)
    368a:	fff68e93          	addi	t4,a3,-1
    368e:	fff70a13          	addi	s4,a4,-1 # fffffff <FLASH_SIZE+0xfefffff>
    3692:	fff40c93          	addi	s9,s0,-1 # 3fffffff <_DATA_LMA_START+0x1fffb087>
    3696:	40d002b3          	neg	t0,a3
    369a:	01fddd93          	srli	s11,s11,0x1f
    369e:	00397693          	andi	a3,s2,3
    36a2:	41100c33          	neg	s8,a7
    36a6:	1fd12c23          	sw	t4,504(sp)
    36aa:	fff78893          	addi	a7,a5,-1 # fffffff <FLASH_SIZE+0xfefffff>
    36ae:	fff58e93          	addi	t4,a1,-1
    36b2:	dd52                	c.swsp	s4,184(sp)
    36b4:	40295913          	srai	s2,s2,0x2
    36b8:	40c00a33          	neg	s4,a2
    36bc:	1e7d                	c.addi	t3,-1
    36be:	167d                	c.addi	a2,-1
    36c0:	40800433          	neg	s0,s0
    36c4:	40b005b3          	neg	a1,a1
    36c8:	40e00733          	neg	a4,a4
    36cc:	40f007b3          	neg	a5,a5
    36d0:	0d05                	c.addi	s10,1
    36d2:	c3ee                	c.swsp	s11,196(sp)
    36d4:	02c12823          	sw	a2,48(sp)
    36d8:	00dd2d33          	slt	s10,s10,a3
    36dc:	c0000db7          	lui	s11,0xc0000
    36e0:	996a                	c.add	s2,s10
    36e2:	4d1e                	c.lwsp	s10,196(sp)
    36e4:	0d85                	c.addi	s11,1
    36e6:	866e                	c.mv	a2,s11
    36e8:	56fd                	c.li	a3,-1
    36ea:	000d1563          	bnez	s10,36f4 <riscv_nn_softmax_common_s8+0x1480>
    36ee:	40000637          	lui	a2,0x40000
    36f2:	4681                	c.li	a3,0
    36f4:	c066167f          	add64	a2,a2,t1
    36f8:	41f6d313          	srai	t1,a3,0x1f
    36fc:	01e37333          	and	t1,t1,t5
    3700:	16612823          	sw	t1,368(sp)
    3704:	16012a23          	sw	zero,372(sp)
    3708:	17012303          	lw	t1,368(sp)
    370c:	17412383          	lw	t2,372(sp)
    3710:	c0c3167f          	add64	a2,t1,a2
    3714:	dff6037f          	wexti	t1,a2,31
    3718:	c00003b7          	lui	t2,0xc0000
    371c:	0385                	c.addi	t2,1
    371e:	934a                	c.add	t1,s2
    3720:	861e                	c.mv	a2,t2
    3722:	56fd                	c.li	a3,-1
    3724:	00034663          	bltz	t1,3730 <riscv_nn_softmax_common_s8+0x14bc>
    3728:	40000637          	lui	a2,0x40000
    372c:	00000693          	li	a3,0
    3730:	2aaab3b7          	lui	t2,0x2aaab
    3734:	aab38393          	addi	t2,t2,-1365 # 2aaaaaab <_DATA_LMA_START+0xaaa5b33>
    3738:	8473167f          	smar64	a2,t1,t2
    373c:	16012e23          	sw	zero,380(sp)
    3740:	41f6d313          	srai	t1,a3,0x1f
    3744:	01e37333          	and	t1,t1,t5
    3748:	17c12383          	lw	t2,380(sp)
    374c:	16612c23          	sw	t1,376(sp)
    3750:	17812303          	lw	t1,376(sp)
    3754:	c0c3167f          	add64	a2,t1,a2
    3758:	dff6067f          	wexti	a2,a2,31
    375c:	9642                	c.add	a2,a6
    375e:	40165813          	srai	a6,a2,0x1
    3762:	00064563          	bltz	a2,376c <riscv_nn_softmax_common_s8+0x14f8>
    3766:	8a05                	c.andi	a2,1
    3768:	00c80833          	add	a6,a6,a2
    376c:	9542                	c.add	a0,a6
    376e:	c0000837          	lui	a6,0xc0000
    3772:	0805                	c.addi	a6,1
    3774:	8642                	c.mv	a2,a6
    3776:	56fd                	c.li	a3,-1
    3778:	00054663          	bltz	a0,3784 <riscv_nn_softmax_common_s8+0x1510>
    377c:	40000637          	lui	a2,0x40000
    3780:	00000693          	li	a3,0
    3784:	70f5b837          	lui	a6,0x70f5b
    3788:	89480313          	addi	t1,a6,-1900 # 70f5a894 <_DATA_LMA_START+0x50f5591c>
    378c:	8465167f          	smar64	a2,a0,t1
    3790:	18012223          	sw	zero,388(sp)
    3794:	41f6d513          	srai	a0,a3,0x1f
    3798:	01e57533          	and	a0,a0,t5
    379c:	18412383          	lw	t2,388(sp)
    37a0:	18a12023          	sw	a0,384(sp)
    37a4:	18012303          	lw	t1,384(sp)
    37a8:	4da2d537          	lui	a0,0x4da2d
    37ac:	bf250513          	addi	a0,a0,-1038 # 4da2cbf2 <_DATA_LMA_START+0x2da27c7a>
    37b0:	c0c3167f          	add64	a2,t1,a2
    37b4:	dff6067f          	wexti	a2,a2,31
    37b8:	89480693          	addi	a3,a6,-1900
    37bc:	9636                	c.add	a2,a3
    37be:	63afc6b7          	lui	a3,0x63afc
    37c2:	e7b68693          	addi	a3,a3,-389 # 63afbe7b <_DATA_LMA_START+0x43af6f03>
    37c6:	835a                	c.mv	t1,s6
    37c8:	83de                	c.mv	t2,s7
    37ca:	84d6137f          	smar64	t1,a2,a3
    37ce:	c00006b7          	lui	a3,0xc0000
    37d2:	01d67633          	and	a2,a2,t4
    37d6:	dff3037f          	wexti	t1,t1,31
    37da:	0685                	c.addi	a3,1
    37dc:	0065f5b3          	and	a1,a1,t1
    37e0:	8db1                	c.xor	a1,a2
    37e2:	8d36                	c.mv	s10,a3
    37e4:	865a                	c.mv	a2,s6
    37e6:	86de                	c.mv	a3,s7
    37e8:	84a5967f          	smar64	a2,a1,a0
    37ec:	556a                	c.lwsp	a0,184(sp)
    37ee:	5dfd                	c.li	s11,-1
    37f0:	dff6067f          	wexti	a2,a2,31
    37f4:	8de9                	c.and	a1,a0
    37f6:	8f71                	c.and	a4,a2
    37f8:	8f2d                	c.xor	a4,a1
    37fa:	2f16b5b7          	lui	a1,0x2f16b
    37fe:	865a                	c.mv	a2,s6
    3800:	86de                	c.mv	a3,s7
    3802:	c6c58593          	addi	a1,a1,-916 # 2f16ac6c <_DATA_LMA_START+0xf165cf4>
    3806:	84b7167f          	smar64	a2,a4,a1
    380a:	01177733          	and	a4,a4,a7
    380e:	dff6067f          	wexti	a2,a2,31
    3812:	8ff1                	c.and	a5,a2
    3814:	1152b637          	lui	a2,0x1152b
    3818:	00e7c6b3          	xor	a3,a5,a4
    381c:	aa460613          	addi	a2,a2,-1372 # 1152aaa4 <FLASH_SIZE+0x1142aaa4>
    3820:	875a                	c.mv	a4,s6
    3822:	87de                	c.mv	a5,s7
    3824:	84c6977f          	smar64	a4,a3,a2
    3828:	1f812603          	lw	a2,504(sp)
    382c:	dff7077f          	wexti	a4,a4,31
    3830:	8ef1                	c.and	a3,a2
    3832:	00e2f2b3          	and	t0,t0,a4
    3836:	00d2c2b3          	xor	t0,t0,a3
    383a:	025836b7          	lui	a3,0x2583
    383e:	ab768693          	addi	a3,a3,-1353 # 2582ab7 <FLASH_SIZE+0x2482ab7>
    3842:	875a                	c.mv	a4,s6
    3844:	87de                	c.mv	a5,s7
    3846:	84d2977f          	smar64	a4,t0,a3
    384a:	56c2                	c.lwsp	a3,48(sp)
    384c:	dff7077f          	wexti	a4,a4,31
    3850:	00d2f2b3          	and	t0,t0,a3
    3854:	00ea7a33          	and	s4,s4,a4
    3858:	000b06b7          	lui	a3,0xb0
    385c:	005a4a33          	xor	s4,s4,t0
    3860:	e1168693          	addi	a3,a3,-495 # afe11 <_STACK_TOP+0xfe11>
    3864:	875a                	c.mv	a4,s6
    3866:	87de                	c.mv	a5,s7
    3868:	84da177f          	smar64	a4,s4,a3
    386c:	1fc12683          	lw	a3,508(sp)
    3870:	dff7077f          	wexti	a4,a4,31
    3874:	00da7a33          	and	s4,s4,a3
    3878:	00ec7c33          	and	s8,s8,a4
    387c:	014c4c33          	xor	s8,s8,s4
    3880:	0f200693          	li	a3,242
    3884:	875a                	c.mv	a4,s6
    3886:	87de                	c.mv	a5,s7
    3888:	84dc177f          	smar64	a4,s8,a3
    388c:	019c7c33          	and	s8,s8,s9
    3890:	dff7077f          	wexti	a4,a4,31
    3894:	00e476b3          	and	a3,s0,a4
    3898:	478e                	c.lwsp	a5,192(sp)
    389a:	0186c6b3          	xor	a3,a3,s8
    389e:	01c6f6b3          	and	a3,a3,t3
    38a2:	8ebd                	c.xor	a3,a5
    38a4:	47a2                	c.lwsp	a5,8(sp)
    38a6:	8fb5                	c.xor	a5,a3
    38a8:	0007c663          	bltz	a5,38b4 <riscv_nn_softmax_common_s8+0x1640>
    38ac:	40000d37          	lui	s10,0x40000
    38b0:	00000d93          	li	s11,0
    38b4:	4622                	c.lwsp	a2,8(sp)
    38b6:	876a                	c.mv	a4,s10
    38b8:	87ee                	c.mv	a5,s11
    38ba:	84d6177f          	smar64	a4,a2,a3
    38be:	18012623          	sw	zero,396(sp)
    38c2:	41f7d613          	srai	a2,a5,0x1f
    38c6:	01e67633          	and	a2,a2,t5
    38ca:	18c12583          	lw	a1,396(sp)
    38ce:	18c12423          	sw	a2,392(sp)
    38d2:	18812503          	lw	a0,392(sp)
    38d6:	76e1                	c.lui	a3,0xffff8
    38d8:	c0e5177f          	add64	a4,a0,a4
    38dc:	dff7077f          	wexti	a4,a4,31
    38e0:	57fe                	c.lwsp	a5,252(sp)
    38e2:	40f757b3          	sra	a5,a4,a5
    38e6:	02074763          	bltz	a4,3914 <riscv_nn_softmax_common_s8+0x16a0>
    38ea:	13c12603          	lw	a2,316(sp)
    38ee:	8f71                	c.and	a4,a2
    38f0:	1e812603          	lw	a2,488(sp)
    38f4:	10e65663          	bge	a2,a4,3a00 <riscv_nn_softmax_common_s8+0x178c>
    38f8:	7761                	c.lui	a4,0xffff8
    38fa:	0705                	c.addi	a4,1
    38fc:	00e787b3          	add	a5,a5,a4
    3900:	6721                	c.lui	a4,0x8
    3902:	1779                	c.addi	a4,-2
    3904:	20012683          	lw	a3,512(sp)
    3908:	00f74663          	blt	a4,a5,3914 <riscv_nn_softmax_common_s8+0x16a0>
    390c:	01079693          	slli	a3,a5,0x10
    3910:	4106d693          	srai	a3,a3,0x10
    3914:	57f2                	c.lwsp	a5,60(sp)
    3916:	00d99023          	sh	a3,0(s3) # 20000 <BIN_SIZE+0x1a31e>
    391a:	0989                	c.addi	s3,2
    391c:	0f378c63          	beq	a5,s3,3a14 <riscv_nn_softmax_common_s8+0x17a0>
    3920:	00048583          	lb	a1,0(s1)
    3924:	00148493          	addi	s1,s1,1
    3928:	41f585b3          	sub	a1,a1,t6
    392c:	76e1                	c.lui	a3,0xffff8
    392e:	ff55c3e3          	blt	a1,s5,3914 <riscv_nn_softmax_common_s8+0x16a0>
    3932:	56e2                	c.lwsp	a3,56(sp)
    3934:	57fd                	c.li	a5,-1
    3936:	00d595b3          	sll	a1,a1,a3
    393a:	c00006b7          	lui	a3,0xc0000
    393e:	0685                	c.addi	a3,1
    3940:	8736                	c.mv	a4,a3
    3942:	0005d563          	bgez	a1,394c <riscv_nn_softmax_common_s8+0x16d8>
    3946:	40000737          	lui	a4,0x40000
    394a:	4781                	c.li	a5,0
    394c:	41f5d693          	srai	a3,a1,0x1f
    3950:	14d12e23          	sw	a3,348(sp)
    3954:	14b12c23          	sw	a1,344(sp)
    3958:	15c12883          	lw	a7,348(sp)
    395c:	15812803          	lw	a6,344(sp)
    3960:	4601                	c.li	a2,0
    3962:	4681                	c.li	a3,0
    3964:	c306167f          	sub64	a2,a2,a6
    3968:	de16057f          	wexti	a0,a2,1
    396c:	01f61693          	slli	a3,a2,0x1f
    3970:	16d12023          	sw	a3,352(sp)
    3974:	16a12223          	sw	a0,356(sp)
    3978:	16012603          	lw	a2,352(sp)
    397c:	16412683          	lw	a3,356(sp)
    3980:	16012623          	sw	zero,364(sp)
    3984:	c0e6177f          	add64	a4,a2,a4
    3988:	41f7d693          	srai	a3,a5,0x1f
    398c:	01e6f6b3          	and	a3,a3,t5
    3990:	16d12423          	sw	a3,360(sp)
    3994:	16c12683          	lw	a3,364(sp)
    3998:	16812603          	lw	a2,360(sp)
    399c:	c0e61e7f          	add64	t3,a2,a4
    39a0:	800007b7          	lui	a5,0x80000
    39a4:	dffe0e7f          	wexti	t3,t3,31
    39a8:	c0f596e3          	bne	a1,a5,35b4 <riscv_nn_softmax_common_s8+0x1340>
    39ac:	02000637          	lui	a2,0x2000
    39b0:	ff860813          	addi	a6,a2,-8 # 1fffff8 <FLASH_SIZE+0x1effff8>
    39b4:	10000637          	lui	a2,0x10000
    39b8:	0007d797          	auipc	a5,0x7d
    39bc:	36078793          	addi	a5,a5,864 # 80d18 <softmax_s8_s16_output_ref+0x6c>
    39c0:	56fd                	c.li	a3,-1
    39c2:	fe060513          	addi	a0,a2,-32 # fffffe0 <FLASH_SIZE+0xfefffe0>
    39c6:	567d                	c.li	a2,-1
    39c8:	0007a303          	lw	t1,0(a5)
    39cc:	0047a383          	lw	t2,4(a5)
    39d0:	d836                	c.swsp	a3,48(sp)
    39d2:	dd36                	c.swsp	a3,184(sp)
    39d4:	4781                	c.li	a5,0
    39d6:	4701                	c.li	a4,0
    39d8:	4581                	c.li	a1,0
    39da:	58fd                	c.li	a7,-1
    39dc:	4c01                	c.li	s8,0
    39de:	4a01                	c.li	s4,0
    39e0:	4401                	c.li	s0,0
    39e2:	5e7d                	c.li	t3,-1
    39e4:	00020937          	lui	s2,0x20
    39e8:	4681                	c.li	a3,0
    39ea:	4281                	c.li	t0,0
    39ec:	5efd                	c.li	t4,-1
    39ee:	5cfd                	c.li	s9,-1
    39f0:	4d05                	c.li	s10,1
    39f2:	c182                	c.swsp	zero,192(sp)
    39f4:	c382                	c.swsp	zero,196(sp)
    39f6:	1ec12c23          	sw	a2,504(sp)
    39fa:	1ec12e23          	sw	a2,508(sp)
    39fe:	b9e9                	c.j	36d8 <riscv_nn_softmax_common_s8+0x1464>
    3a00:	7761                	c.lui	a4,0xffff8
    3a02:	97ba                	c.add	a5,a4
    3a04:	eee79ee3          	bne	a5,a4,3900 <riscv_nn_softmax_common_s8+0x168c>
    3a08:	57f2                	c.lwsp	a5,60(sp)
    3a0a:	00d99023          	sh	a3,0(s3)
    3a0e:	0989                	c.addi	s3,2
    3a10:	f13798e3          	bne	a5,s3,3920 <riscv_nn_softmax_common_s8+0x16ac>
    3a14:	01500433          	add	s0,zero,s5
    3a18:	22412f83          	lw	t6,548(sp)
    3a1c:	22812283          	lw	t0,552(sp)
    3a20:	22012a83          	lw	s5,544(sp)
    3a24:	22c12d83          	lw	s11,556(sp)
    3a28:	a30ff06f          	j	2c58 <riscv_nn_softmax_common_s8+0x9e4>
    3a2c:	800007b7          	lui	a5,0x80000
    3a30:	8c7e                	c.mv	s8,t6
    3a32:	85d2                	c.mv	a1,s4
    3a34:	23f12223          	sw	t6,548(sp)
    3a38:	536e                	c.lwsp	t1,248(sp)
    3a3a:	fff78a13          	addi	s4,a5,-1 # 7fffffff <_DATA_LMA_START+0x5fffb087>
    3a3e:	40000b37          	lui	s6,0x40000
    3a42:	4b81                	c.li	s7,0
    3a44:	8f6a                	c.mv	t5,s10
    3a46:	8fa2                	c.mv	t6,s0
    3a48:	23512023          	sw	s5,544(sp)
    3a4c:	22512423          	sw	t0,552(sp)
    3a50:	36c0006f          	j	3dbc <riscv_nn_softmax_common_s8+0x1b48>
    3a54:	010006b7          	lui	a3,0x1000
    3a58:	fff68713          	addi	a4,a3,-1 # ffffff <FLASH_SIZE+0xefffff>
    3a5c:	8f7d                	c.and	a4,a5
    3a5e:	8f15                	c.sub	a4,a3
    3a60:	00571593          	slli	a1,a4,0x5
    3a64:	100006b7          	lui	a3,0x10000
    3a68:	95b6                	c.add	a1,a3
    3a6a:	865a                	c.mv	a2,s6
    3a6c:	86de                	c.mv	a3,s7
    3a6e:	84b5967f          	smar64	a2,a1,a1
    3a72:	1c012e23          	sw	zero,476(sp)
    3a76:	41f6d513          	srai	a0,a3,0x1f
    3a7a:	01457533          	and	a0,a0,s4
    3a7e:	1dc12483          	lw	s1,476(sp)
    3a82:	1ca12c23          	sw	a0,472(sp)
    3a86:	1d812403          	lw	s0,472(sp)
    3a8a:	1e012223          	sw	zero,484(sp)
    3a8e:	8f1d                	c.sub	a4,a5
    3a90:	c0c4167f          	add64	a2,s0,a2
    3a94:	dff6057f          	wexti	a0,a2,31
    3a98:	41f6d813          	srai	a6,a3,0x1f
    3a9c:	02a808b3          	mul	a7,a6,a0
    3aa0:	f0a5167f          	mulr64	a2,a0,a0
    3aa4:	1e412483          	lw	s1,484(sp)
    3aa8:	0886                	c.slli	a7,0x1
    3aaa:	96c6                	c.add	a3,a7
    3aac:	c166167f          	add64	a2,a2,s6
    3ab0:	41f6d893          	srai	a7,a3,0x1f
    3ab4:	0148f433          	and	s0,a7,s4
    3ab8:	1e812023          	sw	s0,480(sp)
    3abc:	1e012403          	lw	s0,480(sp)
    3ac0:	03058833          	mul	a6,a1,a6
    3ac4:	41f5d893          	srai	a7,a1,0x1f
    3ac8:	c0c4167f          	add64	a2,s0,a2
    3acc:	dff604ff          	wexti	s1,a2,31
    3ad0:	0017b793          	seqz	a5,a5
    3ad4:	01975693          	srli	a3,a4,0x19
    3ad8:	01e75413          	srli	s0,a4,0x1e
    3adc:	c4a8987f          	maddr32	a6,a7,a0
    3ae0:	40f003b3          	neg	t2,a5
    3ae4:	01a75893          	srli	a7,a4,0x1a
    3ae8:	01875613          	srli	a2,a4,0x18
    3aec:	8a85                	c.andi	a3,1
    3aee:	8805                	c.andi	s0,1
    3af0:	17fd                	c.addi	a5,-1
    3af2:	fff68913          	addi	s2,a3,-1 # fffffff <FLASH_SIZE+0xfefffff>
    3af6:	01d75993          	srli	s3,a4,0x1d
    3afa:	01c75293          	srli	t0,a4,0x1c
    3afe:	0018f893          	andi	a7,a7,1
    3b02:	8a05                	c.andi	a2,1
    3b04:	836d                	c.srli	a4,0x1b
    3b06:	1ef12c23          	sw	a5,504(sp)
    3b0a:	408007b3          	neg	a5,s0
    3b0e:	0012f293          	andi	t0,t0,1
    3b12:	0019f993          	andi	s3,s3,1
    3b16:	8b05                	c.andi	a4,1
    3b18:	0004ad13          	slti	s10,s1,0
    3b1c:	147d                	c.addi	s0,-1
    3b1e:	00a5ccb3          	xor	s9,a1,a0
    3b22:	f0a59e7f          	mulr64	t3,a1,a0
    3b26:	21212023          	sw	s2,512(sp)
    3b2a:	c3be                	c.swsp	a5,196(sp)
    3b2c:	41100933          	neg	s2,a7
    3b30:	fff60793          	addi	a5,a2,-1
    3b34:	41300ab3          	neg	s5,s3
    3b38:	9ec2                	c.add	t4,a6
    3b3a:	1f212e23          	sw	s2,508(sp)
    3b3e:	0143f833          	and	a6,t2,s4
    3b42:	40500933          	neg	s2,t0
    3b46:	c1be                	c.swsp	a5,192(sp)
    3b48:	d822                	c.swsp	s0,48(sp)
    3b4a:	0034f793          	andi	a5,s1,3
    3b4e:	fff28413          	addi	s0,t0,-1
    3b52:	18fd                	c.addi	a7,-1
    3b54:	40d006b3          	neg	a3,a3
    3b58:	8489                	c.srai	s1,0x2
    3b5a:	01fcdc93          	srli	s9,s9,0x1f
    3b5e:	40e003b3          	neg	t2,a4
    3b62:	40c00633          	neg	a2,a2
    3b66:	19fd                	c.addi	s3,-1
    3b68:	fff70293          	addi	t0,a4,-1 # ffff7fff <_DATA_LMA_START+0xdfff3087>
    3b6c:	0d05                	c.addi	s10,1
    3b6e:	dd42                	c.swsp	a6,184(sp)
    3b70:	c0000837          	lui	a6,0xc0000
    3b74:	00fd2d33          	slt	s10,s10,a5
    3b78:	0805                	c.addi	a6,1
    3b7a:	8742                	c.mv	a4,a6
    3b7c:	94ea                	c.add	s1,s10
    3b7e:	57fd                	c.li	a5,-1
    3b80:	000c9663          	bnez	s9,3b8c <riscv_nn_softmax_common_s8+0x1918>
    3b84:	40000737          	lui	a4,0x40000
    3b88:	00000793          	li	a5,0
    3b8c:	c1c7177f          	add64	a4,a4,t3
    3b90:	41f7de13          	srai	t3,a5,0x1f
    3b94:	014e7833          	and	a6,t3,s4
    3b98:	1b012423          	sw	a6,424(sp)
    3b9c:	1a012623          	sw	zero,428(sp)
    3ba0:	1a812e03          	lw	t3,424(sp)
    3ba4:	1ac12e83          	lw	t4,428(sp)
    3ba8:	c0ee177f          	add64	a4,t3,a4
    3bac:	dff70e7f          	wexti	t3,a4,31
    3bb0:	9e26                	c.add	t3,s1
    3bb2:	c00004b7          	lui	s1,0xc0000
    3bb6:	0485                	c.addi	s1,1
    3bb8:	8726                	c.mv	a4,s1
    3bba:	57fd                	c.li	a5,-1
    3bbc:	000e4663          	bltz	t3,3bc8 <riscv_nn_softmax_common_s8+0x1954>
    3bc0:	40000737          	lui	a4,0x40000
    3bc4:	00000793          	li	a5,0
    3bc8:	2aaab4b7          	lui	s1,0x2aaab
    3bcc:	aab48493          	addi	s1,s1,-1365 # 2aaaaaab <_DATA_LMA_START+0xaaa5b33>
    3bd0:	849e177f          	smar64	a4,t3,s1
    3bd4:	1a012a23          	sw	zero,436(sp)
    3bd8:	41f7de13          	srai	t3,a5,0x1f
    3bdc:	014e74b3          	and	s1,t3,s4
    3be0:	1b412e83          	lw	t4,436(sp)
    3be4:	1a912823          	sw	s1,432(sp)
    3be8:	1b012e03          	lw	t3,432(sp)
    3bec:	c0ee177f          	add64	a4,t3,a4
    3bf0:	dff7077f          	wexti	a4,a4,31
    3bf4:	972a                	c.add	a4,a0
    3bf6:	40175513          	srai	a0,a4,0x1
    3bfa:	00074563          	bltz	a4,3c04 <riscv_nn_softmax_common_s8+0x1990>
    3bfe:	8b05                	c.andi	a4,1
    3c00:	00e50533          	add	a0,a0,a4
    3c04:	95aa                	c.add	a1,a0
    3c06:	c0000537          	lui	a0,0xc0000
    3c0a:	0505                	c.addi	a0,1
    3c0c:	872a                	c.mv	a4,a0
    3c0e:	57fd                	c.li	a5,-1
    3c10:	0005c663          	bltz	a1,3c1c <riscv_nn_softmax_common_s8+0x19a8>
    3c14:	40000737          	lui	a4,0x40000
    3c18:	00000793          	li	a5,0
    3c1c:	70f5b4b7          	lui	s1,0x70f5b
    3c20:	89448513          	addi	a0,s1,-1900 # 70f5a894 <_DATA_LMA_START+0x50f5591c>
    3c24:	84a5977f          	smar64	a4,a1,a0
    3c28:	c00005b7          	lui	a1,0xc0000
    3c2c:	0585                	c.addi	a1,1
    3c2e:	8e2e                	c.mv	t3,a1
    3c30:	41f7d593          	srai	a1,a5,0x1f
    3c34:	0145f5b3          	and	a1,a1,s4
    3c38:	1ab12c23          	sw	a1,440(sp)
    3c3c:	1a012e23          	sw	zero,444(sp)
    3c40:	1b812503          	lw	a0,440(sp)
    3c44:	1bc12583          	lw	a1,444(sp)
    3c48:	5efd                	c.li	t4,-1
    3c4a:	c0e5177f          	add64	a4,a0,a4
    3c4e:	dff7077f          	wexti	a4,a4,31
    3c52:	89448793          	addi	a5,s1,-1900
    3c56:	973e                	c.add	a4,a5
    3c58:	63afc7b7          	lui	a5,0x63afc
    3c5c:	e7b78793          	addi	a5,a5,-389 # 63afbe7b <_DATA_LMA_START+0x43af6f03>
    3c60:	855a                	c.mv	a0,s6
    3c62:	85de                	c.mv	a1,s7
    3c64:	84f7157f          	smar64	a0,a4,a5
    3c68:	478e                	c.lwsp	a5,192(sp)
    3c6a:	dff5057f          	wexti	a0,a0,31
    3c6e:	8f7d                	c.and	a4,a5
    3c70:	8e69                	c.and	a2,a0
    3c72:	4da2d5b7          	lui	a1,0x4da2d
    3c76:	8e39                	c.xor	a2,a4
    3c78:	bf258593          	addi	a1,a1,-1038 # 4da2cbf2 <_DATA_LMA_START+0x2da27c7a>
    3c7c:	875a                	c.mv	a4,s6
    3c7e:	87de                	c.mv	a5,s7
    3c80:	84b6177f          	smar64	a4,a2,a1
    3c84:	20012583          	lw	a1,512(sp)
    3c88:	dff7077f          	wexti	a4,a4,31
    3c8c:	8e6d                	c.and	a2,a1
    3c8e:	8ef9                	c.and	a3,a4
    3c90:	8eb1                	c.xor	a3,a2
    3c92:	2f16b637          	lui	a2,0x2f16b
    3c96:	875a                	c.mv	a4,s6
    3c98:	87de                	c.mv	a5,s7
    3c9a:	c6c60613          	addi	a2,a2,-916 # 2f16ac6c <_DATA_LMA_START+0xf165cf4>
    3c9e:	84c6977f          	smar64	a4,a3,a2
    3ca2:	0116f6b3          	and	a3,a3,a7
    3ca6:	dff7077f          	wexti	a4,a4,31
    3caa:	1fc12783          	lw	a5,508(sp)
    3cae:	00e7f833          	and	a6,a5,a4
