
RV_NN_LSTM_Benchmark.adx:     file format elf32-littleriscv
RV_NN_LSTM_Benchmark.adx
architecture: riscv:rv32, flags 0x00000112:
EXEC_P, HAS_SYMS, D_PAGED
start address 0x20000000

Program Header:
    LOAD off    0x00001000 vaddr 0x20000000 paddr 0x20000000 align 2**12
         filesz 0x0000018a memsz 0x0000018a flags r-x
    LOAD off    0x00002000 vaddr 0x00000000 paddr 0x20000190 align 2**12
         filesz 0x000001bc memsz 0x000001bc flags rwx
    LOAD off    0x00002200 vaddr 0x00000200 paddr 0x20000350 align 2**12
         filesz 0x00001102 memsz 0x00001102 flags r-x
    LOAD off    0x00003458 vaddr 0x20001458 paddr 0x20001458 align 2**12
         filesz 0x00006780 memsz 0x00006780 flags r-x
    LOAD off    0x0000a000 vaddr 0x00080000 paddr 0x20007bd8 align 2**12
         filesz 0x0000000a memsz 0x0000000a flags rw-
    LOAD off    0x0000a428 vaddr 0x00080428 paddr 0x20007be2 align 2**12
         filesz 0x00000022 memsz 0x00000022 flags rw-
    LOAD off    0x0000b010 vaddr 0x00080010 paddr 0x20007be8 align 2**12
         filesz 0x00000000 memsz 0x00000418 flags rw-
0x70000000 off    0x0001a015 vaddr 0x00000000 paddr 0x00000000 align 2**0
         filesz 0x00000040 memsz 0x00000000 flags r--

Sections:
Idx Name          Size      VMA       LMA       File off  Algn
  0 .vectors      0000018a  20000000  20000000  00001000  2**2
                  CONTENTS, ALLOC, LOAD, READONLY, CODE
  1 .retention_reset 00000154  00000000  20000190  00002000  2**2
                  CONTENTS, ALLOC, LOAD, READONLY, CODE
  2 .retention_data 00000064  00000158  200002e8  00002158  2**2
                  CONTENTS, ALLOC, LOAD, DATA
  3 .ram_code     00001102  00000200  20000350  00002200  2**8
                  CONTENTS, ALLOC, LOAD, READONLY, CODE
  4 .text         00004570  20001458  20001458  00003458  2**2
                  CONTENTS, ALLOC, LOAD, READONLY, CODE
  5 .rodata       00002118  200059c8  200059c8  000079c8  2**3
                  CONTENTS, ALLOC, LOAD, READONLY, DATA
  6 .eh_frame     000000f8  20007ae0  20007ae0  00009ae0  2**2
                  CONTENTS, ALLOC, LOAD, READONLY, DATA
  7 .data         0000000a  00080000  20007bd8  0000a000  2**2
                  CONTENTS, ALLOC, LOAD, DATA
  8 .sbss         00000030  00080010  20007be8  0000b010  2**2
                  ALLOC
  9 .bss          000003e8  00080040  20007c18  0000b010  2**2
                  ALLOC
 10 .sdk_version  00000022  00080428  20007be2  0000a428  2**2
                  CONTENTS, ALLOC, LOAD, DATA
 11 .debug_info   00006732  00000000  00000000  0000a44a  2**0
                  CONTENTS, READONLY, DEBUGGING
 12 .debug_abbrev 00000a27  00000000  00000000  00010b7c  2**0
                  CONTENTS, READONLY, DEBUGGING
 13 .debug_loc    00001634  00000000  00000000  000115a3  2**0
                  CONTENTS, READONLY, DEBUGGING
 14 .debug_aranges 00000270  00000000  00000000  00012bd8  2**3
                  CONTENTS, READONLY, DEBUGGING
 15 .debug_ranges 00000330  00000000  00000000  00012e48  2**3
                  CONTENTS, READONLY, DEBUGGING
 16 .debug_line   000037f6  00000000  00000000  00013178  2**0
                  CONTENTS, READONLY, DEBUGGING
 17 .debug_str    0000365e  00000000  00000000  0001696e  2**0
                  CONTENTS, READONLY, DEBUGGING
 18 .comment      00000049  00000000  00000000  00019fcc  2**0
                  CONTENTS, READONLY
 19 .riscv.attributes 00000040  00000000  00000000  0001a015  2**0
                  CONTENTS, READONLY
 20 .debug_frame  00000898  00000000  00000000  0001a058  2**2
                  CONTENTS, READONLY, DEBUGGING
SYMBOL TABLE:
20000000 l    d  .vectors	00000000 .vectors
00000000 l    d  .retention_reset	00000000 .retention_reset
00000158 l    d  .retention_data	00000000 .retention_data
00000200 l    d  .ram_code	00000000 .ram_code
20001458 l    d  .text	00000000 .text
200059c8 l    d  .rodata	00000000 .rodata
20007ae0 l    d  .eh_frame	00000000 .eh_frame
00080000 l    d  .data	00000000 .data
00080010 l    d  .sbss	00000000 .sbss
00080040 l    d  .bss	00000000 .bss
00080428 l    d  .sdk_version	00000000 .sdk_version
00000000 l    d  .debug_info	00000000 .debug_info
00000000 l    d  .debug_abbrev	00000000 .debug_abbrev
00000000 l    d  .debug_loc	00000000 .debug_loc
00000000 l    d  .debug_aranges	00000000 .debug_aranges
00000000 l    d  .debug_ranges	00000000 .debug_ranges
00000000 l    d  .debug_line	00000000 .debug_line
00000000 l    d  .debug_str	00000000 .debug_str
00000000 l    d  .comment	00000000 .comment
00000000 l    d  .riscv.attributes	00000000 .riscv.attributes
00000000 l    d  .debug_frame	00000000 .debug_frame
00000000 l    df *ABS*	00000000 ./boot/cstartup_flash.o
20000028 l       .vectors	00000000 _START
2000008e l       .vectors	00000000 _RETENTION_RESET_INIT
200000a6 l       .vectors	00000000 _RETENTION_RESET_BEGIN
200000b8 l       .vectors	00000000 _RETENTION_DATA_INIT
200000cc l       .vectors	00000000 _RETENTION_DATA_INIT_BEGIN
200000de l       .vectors	00000000 _RAMCODE_INIT
200000f6 l       .vectors	00000000 _RAMCODE_INIT_BEGIN
20000108 l       .vectors	00000000 _DATA_INIT
20000120 l       .vectors	00000000 _DATA_INIT_BEGIN
20000132 l       .vectors	00000000 _ZERO_BSS
20000146 l       .vectors	00000000 _ZERO_BSS_BEGIN
20000152 l       .vectors	00000000 _ZERO_AES
20000166 l       .vectors	00000000 _ZERO_AES_BEGIN
20000172 l       .vectors	00000000 _FILL_STK
20000172 l       .vectors	00000000 _MAIN_FUNC
20000188 l       .vectors	00000000 _END
00000022 l       .retention_reset	00000000 _ISTART
0000002a l       .retention_reset	00000000 _ISWS_USB_DIS
00000088 l       .retention_reset	00000000 _WAKEUP_FLASH
000000a2 l       .retention_reset	00000000 _MSPI_WAIT
000000bc l       .retention_reset	00000000 _WAIT_EFUSE_LOAD_AND_FLASH_WAKEUP_FINISH
000000c2 l       .retention_reset	00000000 _MULTI_ADDRESS_BEGIN
000000d2 l       .retention_reset	00000000 _IZERO_BSS
000000e6 l       .retention_reset	00000000 _IZERO_BSS_BEGIN
000000f2 l       .retention_reset	00000000 _IZERO_AES
00000106 l       .retention_reset	00000000 _IZERO_AES_BEGIN
00000112 l       .retention_reset	00000000 _IFILL_STK
00000112 l       .retention_reset	00000000 _IDATA_INIT
0000012a l       .retention_reset	00000000 _IDATA_INIT_BEGIN
0000013c l       .retention_reset	00000000 _IMAIN_FUNC
00000152 l       .retention_reset	00000000 _IEND
00000040 l       *ABS*	00000000 irqno
00000000 l    df *ABS*	00000000 
200015b8 l     F .text	0000003c efuse_get_adc_calib_value
00000200 l     F .ram_code	00000024 delay_ms
00000224 l     F .ram_code	0000004c flash_send_addr
00000270 l     F .ram_code	00000048 flash_send_cmd
000002b8 l     F .ram_code	00000060 clock_set_32k_tick
200015f8 l     F .text	00000138 user_calib_adc_vref
20001730 l     F .text	00000024 measure_stack_usage.lto_priv.9
20001758 l     F .text	0000001a fill_stack_pattern_to_sp.lto_priv.11
20001774 l     F .text	00000024 measure_stack_usage.lto_priv.8
2000179c l     F .text	0000001a fill_stack_pattern_to_sp.lto_priv.10
200017b8 l     F .text	0000002c except_handler
200017e4 l     F .text	00000006 read_cycle_counter.lto_priv.13
200017ec l     F .text	00000006 read_cycle_counter.lto_priv.12
00000318 l     F .ram_code	00000058 plic_exit_critical_sec
00000370 l     F .ram_code	00000060 plic_enter_critical_sec
000003d0 l     F .ram_code	000001c0 flash_mspi_read_ram
20001458 l     F .text	00000034 flash_read_uid
2000148c l     F .text	0000002c flash_read_mid
200014b8 l     F .text	0000009c flash_read_mid_uid_with_check
20001554 l     F .text	0000002c flash_dread
00000590 l     F .ram_code	0000004c analog_read_reg32
000005dc l     F .ram_code	00000034 clock_get_32k_tick
00000610 l     F .ram_code	00000094 pm_stimer_recover
000006a4 l     F .ram_code	00000048 analog_write_reg8
000006ec l     F .ram_code	00000050 analog_read_reg8
200017f4 l     F .text	00000030 rf_update_internal_cap
20001828 l     F .text	00000044 user_calib_freq_offset
20001870 l     F .text	000000e2 user_read_flash_value_calib
0000073c l     F .ram_code	000000b4 pm_wait_bbpll_done
000007f0 l     F .ram_code	00000194 pm_sleep_start
20001954 l     F .text	00000094 gpio_set_up_down_res
00000984 l     F .ram_code	00000148 dr_putchar
200019e8 l     F .text	000000b6 gpio_input_dis
00000acc l     F .ram_code	00000234 clock_init_ram
20001580 l     F .text	0000001c clock_init
00000d00 l     F .ram_code	00000314 pm_sleep_wakeup_ram.constprop.1
2000159c l     F .text	0000001a pm_sleep_wakeup.constprop.0
20001aa0 l     F .text	000002e4 sys_init
20001d84 l     F .text	0000001a platform_init
20001da0 l     F .text	00000006 reset_cycle_count.lto_priv.15
20001da8 l     F .text	00000006 reset_cycle_count.lto_priv.14
20001db0 l     F .text	0000008a validate
20001e3c l     F .text	0000008a validate_s16
20001ec8 l     F .text	000003ba lstm_one_time_step
20002284 l     F .text	000003ba lstm_2
20002640 l     F .text	00000356 lstm_1
20002998 l     F .text	000003b2 lstm_one_time_step_s16
20002d4c l     F .text	000003a6 lstm_2_s16
200030f4 l     F .text	0000039a lstm_1_s16
20003490 l     F .text	000000e4 user_init
00080040 l     O .bss	000000dc buffer1.lto_priv.2
0008011c l     O .bss	0000006e buffer1.lto_priv.3
0008018c l     O .bss	000000dc buffer2.lto_priv.4
00080268 l     O .bss	0000006e buffer2.lto_priv.5
000802d8 l     O .bss	000000dc buffer3.lto_priv.6
000803b4 l     O .bss	0000006e buffer3.lto_priv.7
00000158 l     O .retention_data	00000004 flash_read_page
0000015c l     O .retention_data	00000001 g_plic_preempt_en
00000160 l     O .retention_data	00000002 s_flash_preempt_config
00000162 l     O .retention_data	00000001 g_pm_long_suspend
00000164 l     O .retention_data	00000004 g_pm_tick_cur
00000168 l     O .retention_data	00000029 pmcd
00000194 l     O .retention_data	00000004 g_pm_tick_32k_calib
00000198 l     O .retention_data	00000001 g_pm_suspend_power_cfg
0000019c l     O .retention_data	00000008 g_pm_early_wakeup_time_us
000001a4 l     O .retention_data	00000004 g_pm_tick_32k_cur
000001a8 l     O .retention_data	00000001 g_pm_tick_update_en
000001ac l     O .retention_data	00000004 g_pm_r_delay_cycle
000001b0 l     O .retention_data	00000008 g_pm_longsleep_early_wakeup_time_us
200059d8 l     O .rodata	0000000c flash_support_mid
200059e4 l     O .rodata	0000002c lstm_1_cell_gate_bias
20005a10 l     O .rodata	00000079 lstm_1_cell_gate_hidden_weights
20005a8c l     O .rodata	000000f2 lstm_1_cell_gate_input_weights
20005b80 l     O .rodata	0000002c lstm_1_forget_gate_bias
20005bac l     O .rodata	00000079 lstm_1_forget_gate_hidden_weights
20005c28 l     O .rodata	000000f2 lstm_1_forget_gate_input_weights
20005d1c l     O .rodata	0000002c lstm_1_input_gate_bias
20005d48 l     O .rodata	00000079 lstm_1_input_gate_hidden_weights
20005dc4 l     O .rodata	000000f2 lstm_1_input_gate_input_weights
20005eb8 l     O .rodata	000000dc lstm_1_input_tensor
20005f94 l     O .rodata	0000002c lstm_1_output_gate_bias
20005fc0 l     O .rodata	00000079 lstm_1_output_gate_hidden_weights
2000603c l     O .rodata	000000f2 lstm_1_output_gate_input_weights
20006180 l     O .rodata	00000058 lstm_1_s16_cell_gate_bias
200061d8 l     O .rodata	00000079 lstm_1_s16_cell_gate_hidden_weights
20006254 l     O .rodata	000000f2 lstm_1_s16_cell_gate_input_weights
20006348 l     O .rodata	00000058 lstm_1_s16_forget_gate_bias
200063a0 l     O .rodata	00000079 lstm_1_s16_forget_gate_hidden_weights
2000641c l     O .rodata	000000f2 lstm_1_s16_forget_gate_input_weights
20006510 l     O .rodata	00000058 lstm_1_s16_input_gate_bias
20006568 l     O .rodata	00000079 lstm_1_s16_input_gate_hidden_weights
200065e4 l     O .rodata	000000f2 lstm_1_s16_input_gate_input_weights
200066d8 l     O .rodata	000001b8 lstm_1_s16_input_tensor
20006890 l     O .rodata	000000dc lstm_1_s16_output
20006970 l     O .rodata	00000058 lstm_1_s16_output_gate_bias
200069c8 l     O .rodata	00000079 lstm_1_s16_output_gate_hidden_weights
20006a44 l     O .rodata	000000f2 lstm_1_s16_output_gate_input_weights
20006b88 l     O .rodata	0000001c lstm_2_cell_gate_bias
20006ba4 l     O .rodata	00000031 lstm_2_cell_gate_hidden_weights
20006bd8 l     O .rodata	0000002a lstm_2_cell_gate_input_weights
20006c04 l     O .rodata	0000001c lstm_2_forget_gate_bias
20006c20 l     O .rodata	00000031 lstm_2_forget_gate_hidden_weights
20006c54 l     O .rodata	0000002a lstm_2_forget_gate_input_weights
20006c80 l     O .rodata	0000001c lstm_2_input_gate_bias
20006c9c l     O .rodata	00000031 lstm_2_input_gate_hidden_weights
20006cd0 l     O .rodata	0000002a lstm_2_input_gate_input_weights
20006cfc l     O .rodata	00000036 lstm_2_input_tensor
20006d34 l     O .rodata	0000003f lstm_2_output
20006d74 l     O .rodata	0000001c lstm_2_output_gate_bias
20006d90 l     O .rodata	00000031 lstm_2_output_gate_hidden_weights
20006dc4 l     O .rodata	0000002a lstm_2_output_gate_input_weights
20006eb0 l     O .rodata	00000038 lstm_2_s16_cell_gate_bias
20006ee8 l     O .rodata	00000031 lstm_2_s16_cell_gate_hidden_weights
20006f1c l     O .rodata	0000002a lstm_2_s16_cell_gate_input_weights
20006f48 l     O .rodata	00000038 lstm_2_s16_forget_gate_bias
20006f80 l     O .rodata	00000031 lstm_2_s16_forget_gate_hidden_weights
20006fb4 l     O .rodata	0000002a lstm_2_s16_forget_gate_input_weights
20006fe0 l     O .rodata	00000038 lstm_2_s16_input_gate_bias
20007018 l     O .rodata	00000031 lstm_2_s16_input_gate_hidden_weights
2000704c l     O .rodata	0000002a lstm_2_s16_input_gate_input_weights
20007078 l     O .rodata	0000006c lstm_2_s16_input_tensor
200070e4 l     O .rodata	0000007e lstm_2_s16_output
20007168 l     O .rodata	00000038 lstm_2_s16_output_gate_bias
200071a0 l     O .rodata	00000031 lstm_2_s16_output_gate_hidden_weights
200071d4 l     O .rodata	0000002a lstm_2_s16_output_gate_input_weights
20007294 l     O .rodata	0000000c lstm_one_time_step_cell_gate_bias
200072a0 l     O .rodata	00000009 lstm_one_time_step_cell_gate_hidden_weights
200072ac l     O .rodata	00000042 lstm_one_time_step_cell_gate_input_weights
200072f0 l     O .rodata	0000000c lstm_one_time_step_forget_gate_bias
200072fc l     O .rodata	00000009 lstm_one_time_step_forget_gate_hidden_weights
20007308 l     O .rodata	00000042 lstm_one_time_step_forget_gate_input_weights
2000734c l     O .rodata	0000000c lstm_one_time_step_input_gate_bias
20007358 l     O .rodata	00000009 lstm_one_time_step_input_gate_hidden_weights
20007364 l     O .rodata	00000042 lstm_one_time_step_input_gate_input_weights
200073a8 l     O .rodata	00000042 lstm_one_time_step_input_tensor
200073ec l     O .rodata	00000009 lstm_one_time_step_output
200073f8 l     O .rodata	0000000c lstm_one_time_step_output_gate_bias
20007404 l     O .rodata	00000009 lstm_one_time_step_output_gate_hidden_weights
20007410 l     O .rodata	00000042 lstm_one_time_step_output_gate_input_weights
20007548 l     O .rodata	00000018 lstm_one_time_step_s16_cell_gate_bias
20007560 l     O .rodata	00000009 lstm_one_time_step_s16_cell_gate_hidden_weights
2000756c l     O .rodata	00000042 lstm_one_time_step_s16_cell_gate_input_weights
200075b0 l     O .rodata	00000018 lstm_one_time_step_s16_forget_gate_bias
200075c8 l     O .rodata	00000009 lstm_one_time_step_s16_forget_gate_hidden_weights
200075d4 l     O .rodata	00000042 lstm_one_time_step_s16_forget_gate_input_weights
20007618 l     O .rodata	00000018 lstm_one_time_step_s16_input_gate_bias
20007630 l     O .rodata	00000009 lstm_one_time_step_s16_input_gate_hidden_weights
2000763c l     O .rodata	00000042 lstm_one_time_step_s16_input_gate_input_weights
20007680 l     O .rodata	00000084 lstm_one_time_step_s16_input_tensor
20007704 l     O .rodata	00000012 lstm_one_time_step_s16_output
20007718 l     O .rodata	00000018 lstm_one_time_step_s16_output_gate_bias
20007730 l     O .rodata	00000009 lstm_one_time_step_s16_output_gate_hidden_weights
2000773c l     O .rodata	00000042 lstm_one_time_step_s16_output_gate_input_weights
00080010 l     O .sbss	00000004 exception_mcause
00080014 l     O .sbss	00000004 exception_mdcause
00080018 l     O .sbss	00000004 exception_mepc
0008001c l     O .sbss	00000004 exception_mstatus
00080020 l     O .sbss	00000004 exception_mtval
00080024 l     O .sbss	00000004 g_chip_version
00080028 l     O .sbss	00000004 g_pm_status_info
0008002c l     O .sbss	00000004 stack_limit
00080000 l     O .data	00000001 init_flag.4915
00080004 l     O .data	00000006 sys_clk
00080428 l     O .sdk_version	00000022 sdk_version
00000000 l    df *ABS*	00000000 riscv_vector_sum_s8_s64.c.o
20003680 l       .text	00000000 $x
00000000 l    df *ABS*	00000000 riscv_vector_sum_s8.c.o
2000372c l       .text	00000000 $x
00000000 l    df *ABS*	00000000 riscv_lstm_unidirectional_s8.c.o
200037d4 l       .text	00000000 $x
00000000 l    df *ABS*	00000000 riscv_lstm_unidirectional_s16.c.o
20003888 l       .text	00000000 $x
00000000 l    df *ABS*	00000000 riscv_nn_lstm_step_s16.c.o
20003950 l       .text	00000000 $x
00000000 l    df *ABS*	00000000 riscv_nn_lstm_step_s8.c.o
20003a58 l       .text	00000000 $x
00000000 l    df *ABS*	00000000 riscv_nn_lstm_calculate_gate_s16.c.o
20003b68 l       .text	00000000 $x
00000000 l    df *ABS*	00000000 riscv_elementwise_mul_s16_s8.c.o
20003c08 l       .text	00000000 $x
00000000 l    df *ABS*	00000000 riscv_elementwise_mul_s16.c.o
20003db0 l       .text	00000000 $x
00000000 l    df *ABS*	00000000 riscv_elementwise_mul_s16_batch_offset.c.o
20003f28 l       .text	00000000 $x
00000000 l    df *ABS*	00000000 riscv_elementwise_mul_acc_s16.c.o
200040dc l       .text	00000000 $x
00000000 l    df *ABS*	00000000 riscv_nn_activation_s16.c.o
20004270 l       .text	00000000 $x
00000000 l    df *ABS*	00000000 riscv_nn_lstm_calculate_gate_s8_s16.c.o
200043d8 l       .text	00000000 $x
00000000 l    df *ABS*	00000000 riscv_nn_vec_mat_mul_result_acc_s16.c.o
20004474 l       .text	00000000 $x
00000000 l    df *ABS*	00000000 riscv_nn_vec_mat_mul_result_acc_s8_s16.c.o
200048c8 l       .text	00000000 $x
00000000 l    df *ABS*	00000000 memcpy.c
00000000 l    df *ABS*	00000000 printf.c
00000000 l    df *ABS*	00000000 putchar.c
00000000 l    df *ABS*	00000000 puts.c
00000000 l    df *ABS*	00000000 strlen.c
00000000 l    df *ABS*	00000000 vprintf.c
20004e7c l     F .text	0000003a __vprintf_help
00080030 l     O .sbss	00000004 __vprintf_buf
00080034 l     O .sbss	00000004 __vprintf_buf_len
00000000 l    df *ABS*	00000000 printf_impl.c
00000000 l    df *ABS*	00000000 printf_impl_float.c
00000000 l    df *ABS*	00000000 strcpy.c
00000000 l    df *ABS*	00000000 strnlen.c
00000000 l    df *ABS*	00000000 libgcc2.c
00000000 l    df *ABS*	00000000 libgcc2.c
00000000 l    df *ABS*	00000000 printf_data.c
20004dbe g     F .text	00000028 putchar
20003678  w      .text	00000000 entry_irq55
20003678  w      .text	00000000 entry_irq13
20005870 g     F .text	0000007c strcpy
20003678  w      .text	00000000 entry_irq15
20005938 g     F .text	0000002e .hidden __ashldi3
20003678  w      .text	00000000 entry_irq27
20003678  w      .text	00000000 entry_irq60
20003678  w      .text	00000000 entry_irq1
20003678  w      .text	00000000 entry_irq52
20003678  w      .text	00000000 entry_irq50
20003678  w      .text	00000000 entry_irq62
20003680 g     F .text	000000aa riscv_vector_sum_s8_s64
20004da0 g     F .text	0000001e printf
00080800 g       .data	00000000 __global_pointer$
20005970 g       .text	00000000 .hidden __riscv_save_8
200048c8 g     F .text	00000332 riscv_nn_vec_mat_mul_result_acc_s8_s16
20003678  w      .text	00000000 entry_irq58
200059bc g       .text	00000000 .hidden __riscv_restore_3
20003a58 g     F .text	00000110 riscv_nn_lstm_step_s8
000001bc g       .retention_data	00000000 _RETENTION_DATA_VMA_END
200059a8 g       .text	00000000 .hidden __riscv_restore_10
20005970 g       .text	00000000 .hidden __riscv_save_11
20004270 g     F .text	00000168 riscv_nn_activation_s16
20004f02 g     F .text	0000004c __print_integral
00000000 g       .retention_reset	00000000 _RETENTION_RESET_VMA_START
20003678  w      .text	00000000 entry_irq10
20003678  w      .text	00000000 entry_irq21
00000158 g       .retention_data	00000000 _AES_VMA_START
20003678  w      .text	00000000 entry_irq48
20003f28 g     F .text	000001b4 riscv_elementwise_mul_s16_batch_offset
200059bc g       .text	00000000 .hidden __riscv_restore_2
20003678  w      .text	00000000 entry_irq8
20003678  w      .text	00000000 entry_irq33
00080428 g       .bss	00000000 _BSS_VMA_END
20004bfc g     F .text	000000fa memcpy
20000190 g       *ABS*	00000000 _RETENTION_RESET_LMA_START
20004f4e g     F .text	00000472 __printf_impl
20003678  w      .text	00000000 entry_irq12
20004de6 g     F .text	00000034 puts
20003678  w      .text	00000000 entry_irq14
20003c08 g     F .text	000001a8 riscv_elementwise_mul_s16_s8
20005968 g       .text	00000000 .hidden __riscv_save_12
20003678  w      .text	00000000 entry_irq2
20003678  w      .text	00000000 entry_irq51
200059a8 g       .text	00000000 .hidden __riscv_restore_11
20003678  w      .text	00000000 entry_irq28
20003678  w      .text	00000000 entry_irq43
20005998 g       .text	00000000 .hidden __riscv_save_1
200059bc g       .text	00000000 .hidden __riscv_restore_0
20003678  w      .text	00000000 entry_irq20
2000597e g       .text	00000000 .hidden __riscv_save_7
00080010 g       .sbss	00000000 _BSS_VMA_START
20003678  w      .text	00000000 entry_irq63
0008000a g       .data	00000000 _DATA_VMA_END
20003678  w      .text	00000000 entry_irq46
20003678  w      .text	00000000 entry_irq31
20003678  w      .text	00000000 entry_irq16
00100000 g       *ABS*	00000000 FLASH_SIZE
200059b2 g       .text	00000000 .hidden __riscv_restore_5
00080000 g       .data	00000000 _DATA_VMA_START
20003678  w      .text	00000000 entry_irq53
20003678  w      .text	00000000 entry_irq11
00000154 g       .retention_reset	00000000 _RETENTION_RESET_VMA_END
200058ee g     F .text	00000018 strnlen
200059b2 g       .text	00000000 .hidden __riscv_restore_6
20003678  w      .text	00000000 entry_irq5
20003678  w      .text	00000000 entry_irq23
2000367a  w      .text	00000000 trap_handler
20003678  w      .text	00000000 entry_irq34
20005908 g     F .text	0000002e .hidden __lshrdi3
20003678  w      .text	00000000 entry_irq36
20005970 g       .text	00000000 .hidden __riscv_save_9
20003678  w      .text	00000000 entry_irq44
20004eb6 g     F .text	0000004c vprintf
20003678  w      .text	00000000 entry_irq45
20003678  w      .text	00000000 entry_irq26
2000597e g       .text	00000000 .hidden __riscv_save_4
200040dc g     F .text	00000192 riscv_elementwise_mul_acc_s16
20003678  w      .text	00000000 entry_irq41
20003678  w      .text	00000000 entry_irq61
20000000 g       .vectors	00000000 BIN_BEGIN
20005998 g       .text	00000000 .hidden __riscv_save_3
20003678  w      .text	00000000 entry_irq38
200043d8 g     F .text	0000009c riscv_nn_lstm_calculate_gate_s8_s16
00001200 g       .ram_code	00000000 __vectors
00007c04 g       *ABS*	00000000 BIN_SIZE
20007ac8 g     O .rodata	00000010 __digits
20000350 g       *ABS*	00000000 _RAMCODE_LMA_START
2000372c g     F .text	000000a6 riscv_vector_sum_s8
0008003c g     O .sbss	00000004 __printf_count
20003678  w      .text	00000000 entry_irq59
20003888 g     F .text	000000c8 riscv_lstm_unidirectional_s16
20003678  w      .text	00000000 entry_irq6
20005970 g       .text	00000000 .hidden __riscv_save_10
00080038 g     O .sbss	00000004 __mculib_REENT_errno
20007bd8 g       *ABS*	00000000 _DATA_LMA_START
200053de g     F .text	00000090 __print_integral_poly
20000000 g       *ABS*	00000000 NDS_SAG_LMA_FLASH
200059b2 g       .text	00000000 .hidden __riscv_restore_4
200059a8 g       .text	00000000 .hidden __riscv_restore_8
2000597e g       .text	00000000 .hidden __riscv_save_6
200037d4 g     F .text	000000b4 riscv_lstm_unidirectional_s8
20003950 g     F .text	00000108 riscv_nn_lstm_step_s16
20000000  w      .vectors	00000000 _RELAX_END_
200078c8 g     O .rodata	00000200 sigmoid_table_uint16
2000546e g     F .text	00000402 __printf_float_impl
20004cf6 g     F .text	000000aa memset
200059a8 g       .text	00000000 .hidden __riscv_restore_9
200059b2 g       .text	00000000 .hidden __riscv_restore_7
200035b0 g     F .text	000000c6 main
20003678 g       .text	00000000 default_irq_entry
20003678  w      .text	00000000 entry_irq3
00001014 g     F .ram_code	00000182 trap_entry
00000158 g       .retention_data	00000000 _AES_VMA_END
20003678  w      .text	00000000 entry_irq39
20003678  w      .text	00000000 entry_irq49
20003678  w      .text	00000000 entry_irq57
20003678  w      .text	00000000 entry_irq47
200002e8 g       *ABS*	00000000 _RETENTION_DATA_LMA_START
20000000 g     F .vectors	00000000 _RESET_ENTRY
00000158 g       .retention_data	00000000 _RETENTION_DATA_VMA_START
20003678  w      .text	00000000 entry_irq4
000a0000 g       *ABS*	00000000 _STACK_TOP
20003678  w      .text	00000000 entry_irq22
20003678  w      .text	00000000 entry_irq30
20003678  w      .text	00000000 entry_irq42
20003678  w      .text	00000000 entry_irq24
20005998 g       .text	00000000 .hidden __riscv_save_2
00001302 g       .ram_code	00000000 _RAMCODE_VMA_END
00000000  w      *ABS*	00000000 _ITB_BASE_
2000597e g       .text	00000000 .hidden __riscv_save_5
20003678  w      .text	00000000 entry_irq19
20003574 g     F .text	0000003a _write
00080450 g       .sdk_version	00000000 _end
20003678  w      .text	00000000 entry_irq17
20003678  w      .text	00000000 entry_irq9
20003678  w      .text	00000000 entry_irq56
20003678  w      .text	00000000 entry_irq35
20003678  w      .text	00000000 entry_irq37
000001b8 g     O .retention_data	00000004 g_pm_mspi_cfg
20003678  w      .text	00000000 entry_irq54
20003678  w      .text	00000000 entry_irq40
200059a4 g       .text	00000000 .hidden __riscv_restore_12
00000200 g       .ram_code	00000000 _RAMCODE_VMA_START
20005998 g       .text	00000000 .hidden __riscv_save_0
20004e1c g     F .text	0000005e strlen
20004474 g     F .text	00000452 riscv_nn_vec_mat_mul_result_acc_s16
20003678  w      .text	00000000 entry_irq29
20003b68 g     F .text	000000a0 riscv_nn_lstm_calculate_gate_s16
200059bc g       .text	00000000 .hidden __riscv_restore_1
20003678  w      .text	00000000 entry_irq7
20003678  w      .text	00000000 entry_irq32
00000000 g     F .retention_reset	00000000 _IRESET_ENTRY
20003678  w      .text	00000000 entry_irq18
20003db0 g     F .text	00000176 riscv_elementwise_mul_s16
200053c0 g     F .text	0000001e __int_to_poly
20003678  w      .text	00000000 entry_irq25



Disassembly of section .vectors:

20000000 <_RESET_ENTRY>:
20000000:	a025                	c.j	20000028 <_START>
	...
20000016:	0000                	unimp
20000018:	7c04                	c.flw	fs1,56(s0)
2000001a:	0000                	unimp
2000001c:	0000                	unimp
2000001e:	0000                	unimp
20000020:	544c4e4b          	fnmsub.h	ft8,fs8,ft4,fa0,rmm
20000024:	0000                	unimp
20000026:	          	sllw	a4,zero,zero

20000028 <_START>:
20000028:	e0080197          	auipc	gp,0xe0080
2000002c:	7d818193          	addi	gp,gp,2008 # 80800 <__global_pointer$>
20000030:	801002b7          	lui	t0,0x80100
20000034:	70028293          	addi	t0,t0,1792 # 80100700 <_DATA_LMA_START+0x600f8b28>
20000038:	04000313          	li	t1,64
2000003c:	506280a3          	sb	t1,1281(t0)
20000040:	e00a0297          	auipc	t0,0xe00a0
20000044:	fc028293          	addi	t0,t0,-64 # a0000 <_STACK_TOP>
20000048:	8116                	c.mv	sp,t0
2000004a:	e0000297          	auipc	t0,0xe0000
2000004e:	fb628293          	addi	t0,t0,-74 # 0 <_ITB_BASE_>
20000052:	80029073          	csrw	uitb,t0
20000056:	6299                	c.lui	t0,0x6
20000058:	3002a2f3          	csrrs	t0,mstatus,t0
2000005c:	00301073          	fssr	zero
20000060:	e0001297          	auipc	t0,0xe0001
20000064:	1a028293          	addi	t0,t0,416 # 1200 <__vectors>
20000068:	30529073          	csrw	mtvec,t0
2000006c:	7d016073          	csrsi	mmisc_ctl,2
20000070:	e40002b7          	lui	t0,0xe4000
20000074:	4309                	c.li	t1,2
20000076:	0062a023          	sw	t1,0(t0) # e4000000 <_DATA_LMA_START+0xc3ff8428>
2000007a:	7ca022f3          	csrr	t0,mcache_ctl
2000007e:	0012e293          	ori	t0,t0,1
20000082:	0022e293          	ori	t0,t0,2
20000086:	7ca29073          	csrw	mcache_ctl,t0
2000008a:	0000100f          	fence.i

2000008e <_RETENTION_RESET_INIT>:
2000008e:	00000317          	auipc	t1,0x0
20000092:	10230313          	addi	t1,t1,258 # 20000190 <_RETENTION_RESET_LMA_START>
20000096:	e0000397          	auipc	t2,0xe0000
2000009a:	f6a38393          	addi	t2,t2,-150 # 0 <_ITB_BASE_>
2000009e:	e0000e17          	auipc	t3,0xe0000
200000a2:	0b6e0e13          	addi	t3,t3,182 # 154 <_RETENTION_RESET_VMA_END>

200000a6 <_RETENTION_RESET_BEGIN>:
200000a6:	01c3f963          	bgeu	t2,t3,200000b8 <_RETENTION_DATA_INIT>
200000aa:	00032283          	lw	t0,0(t1)
200000ae:	0053a023          	sw	t0,0(t2)
200000b2:	0311                	c.addi	t1,4
200000b4:	0391                	c.addi	t2,4
200000b6:	bfc5                	c.j	200000a6 <_RETENTION_RESET_BEGIN>

200000b8 <_RETENTION_DATA_INIT>:
200000b8:	00000317          	auipc	t1,0x0
200000bc:	23030313          	addi	t1,t1,560 # 200002e8 <_RETENTION_DATA_LMA_START>
200000c0:	15800393          	li	t2,344
200000c4:	e0000e17          	auipc	t3,0xe0000
200000c8:	0f8e0e13          	addi	t3,t3,248 # 1bc <_RETENTION_DATA_VMA_END>

200000cc <_RETENTION_DATA_INIT_BEGIN>:
200000cc:	01c3f963          	bgeu	t2,t3,200000de <_RAMCODE_INIT>
200000d0:	00032283          	lw	t0,0(t1)
200000d4:	0053a023          	sw	t0,0(t2)
200000d8:	0311                	c.addi	t1,4
200000da:	0391                	c.addi	t2,4
200000dc:	bfc5                	c.j	200000cc <_RETENTION_DATA_INIT_BEGIN>

200000de <_RAMCODE_INIT>:
200000de:	00000317          	auipc	t1,0x0
200000e2:	27230313          	addi	t1,t1,626 # 20000350 <_RAMCODE_LMA_START>
200000e6:	e0000397          	auipc	t2,0xe0000
200000ea:	11a38393          	addi	t2,t2,282 # 200 <delay_ms>
200000ee:	e0001e17          	auipc	t3,0xe0001
200000f2:	214e0e13          	addi	t3,t3,532 # 1302 <_RAMCODE_VMA_END>

200000f6 <_RAMCODE_INIT_BEGIN>:
200000f6:	01c3f963          	bgeu	t2,t3,20000108 <_DATA_INIT>
200000fa:	00032283          	lw	t0,0(t1)
200000fe:	0053a023          	sw	t0,0(t2)
20000102:	0311                	c.addi	t1,4
20000104:	0391                	c.addi	t2,4
20000106:	bfc5                	c.j	200000f6 <_RAMCODE_INIT_BEGIN>

20000108 <_DATA_INIT>:
20000108:	00008317          	auipc	t1,0x8
2000010c:	ad030313          	addi	t1,t1,-1328 # 20007bd8 <_DATA_LMA_START>
20000110:	e0080397          	auipc	t2,0xe0080
20000114:	ef038393          	addi	t2,t2,-272 # 80000 <_DATA_VMA_START>
20000118:	e0080e17          	auipc	t3,0xe0080
2000011c:	ef2e0e13          	addi	t3,t3,-270 # 8000a <_DATA_VMA_END>

20000120 <_DATA_INIT_BEGIN>:
20000120:	01c3f963          	bgeu	t2,t3,20000132 <_ZERO_BSS>
20000124:	00032283          	lw	t0,0(t1)
20000128:	0053a023          	sw	t0,0(t2)
2000012c:	0311                	c.addi	t1,4
2000012e:	0391                	c.addi	t2,4
20000130:	bfc5                	c.j	20000120 <_DATA_INIT_BEGIN>

20000132 <_ZERO_BSS>:
20000132:	000002b7          	lui	t0,0x0
20000136:	e0080397          	auipc	t2,0xe0080
2000013a:	eda38393          	addi	t2,t2,-294 # 80010 <_BSS_VMA_START>
2000013e:	e0080e17          	auipc	t3,0xe0080
20000142:	2eae0e13          	addi	t3,t3,746 # 80428 <_BSS_VMA_END>

20000146 <_ZERO_BSS_BEGIN>:
20000146:	01c3f663          	bgeu	t2,t3,20000152 <_ZERO_AES>
2000014a:	0053a023          	sw	t0,0(t2)
2000014e:	0391                	c.addi	t2,4
20000150:	bfdd                	c.j	20000146 <_ZERO_BSS_BEGIN>

20000152 <_ZERO_AES>:
20000152:	000002b7          	lui	t0,0x0
20000156:	e0000397          	auipc	t2,0xe0000
2000015a:	00238393          	addi	t2,t2,2 # 158 <_AES_VMA_END>
2000015e:	e0000e17          	auipc	t3,0xe0000
20000162:	ffae0e13          	addi	t3,t3,-6 # 158 <_AES_VMA_END>

20000166 <_ZERO_AES_BEGIN>:
20000166:	01c3f663          	bgeu	t2,t3,20000172 <_FILL_STK>
2000016a:	0053a023          	sw	t0,0(t2)
2000016e:	0391                	c.addi	t2,4
20000170:	bfdd                	c.j	20000166 <_ZERO_AES_BEGIN>

20000172 <_FILL_STK>:
20000172:	0001                	c.nop
20000174:	00003297          	auipc	t0,0x3
20000178:	43c28293          	addi	t0,t0,1084 # 200035b0 <main>
2000017c:	9282                	c.jalr	t0
2000017e:	0001                	c.nop
20000180:	0001                	c.nop
20000182:	0001                	c.nop
20000184:	0001                	c.nop
20000186:	0001                	c.nop

20000188 <_END>:
20000188:	a001                	c.j	20000188 <_END>

Disassembly of section .retention_reset:

00000000 <_IRESET_ENTRY>:
   0:	a00d                	c.j	22 <_ISTART>
	...

00000022 <_ISTART>:
  22:	00080197          	auipc	gp,0x80
  26:	7de18193          	addi	gp,gp,2014 # 80800 <__global_pointer$>

0000002a <_ISWS_USB_DIS>:
  2a:	801002b7          	lui	t0,0x80100
  2e:	70028293          	addi	t0,t0,1792 # 80100700 <_DATA_LMA_START+0x600f8b28>
  32:	04000313          	li	t1,64
  36:	506280a3          	sb	t1,1281(t0)
  3a:	000a0297          	auipc	t0,0xa0
  3e:	fc628293          	addi	t0,t0,-58 # a0000 <_STACK_TOP>
  42:	8116                	c.mv	sp,t0
  44:	00000297          	auipc	t0,0x0
  48:	fbc28293          	addi	t0,t0,-68 # 0 <_IRESET_ENTRY>
  4c:	80029073          	csrw	uitb,t0
  50:	6299                	c.lui	t0,0x6
  52:	3002a2f3          	csrrs	t0,mstatus,t0
  56:	00301073          	fssr	zero
  5a:	00001297          	auipc	t0,0x1
  5e:	1a628293          	addi	t0,t0,422 # 1200 <__vectors>
  62:	30529073          	csrw	mtvec,t0
  66:	7d016073          	csrsi	mmisc_ctl,2
  6a:	e40002b7          	lui	t0,0xe4000
  6e:	4309                	c.li	t1,2
  70:	0062a023          	sw	t1,0(t0) # e4000000 <_DATA_LMA_START+0xc3ff8428>
  74:	7ca022f3          	csrr	t0,mcache_ctl
  78:	0012e293          	ori	t0,t0,1
  7c:	0022e293          	ori	t0,t0,2
  80:	7ca29073          	csrw	mcache_ctl,t0
  84:	0000100f          	fence.i

00000088 <_WAKEUP_FLASH>:
  88:	801402b7          	lui	t0,0x80140
  8c:	0ff00313          	li	t1,255
  90:	4381                	c.li	t2,0
  92:	0ab00e13          	li	t3,171
  96:	326284a3          	sb	t1,809(t0) # 80140329 <_DATA_LMA_START+0x60138751>
  9a:	107280a3          	sb	t2,257(t0)
  9e:	11c28023          	sb	t3,256(t0)

000000a2 <_MSPI_WAIT>:
  a2:	801402b7          	lui	t0,0x80140
  a6:	10228383          	lb	t2,258(t0) # 80140102 <_DATA_LMA_START+0x6013852a>
  aa:	4e05                	c.li	t3,1
  ac:	4ec1                	c.li	t4,16
  ae:	fe7e0ae3          	beq	t3,t2,a2 <_MSPI_WAIT>
  b2:	11d280a3          	sb	t4,257(t0)
  b6:	4281                	c.li	t0,0
  b8:	14000313          	li	t1,320

000000bc <_WAIT_EFUSE_LOAD_AND_FLASH_WAKEUP_FINISH>:
  bc:	0285                	c.addi	t0,1
  be:	fe537fe3          	bgeu	t1,t0,bc <_WAIT_EFUSE_LOAD_AND_FLASH_WAKEUP_FINISH>

000000c2 <_MULTI_ADDRESS_BEGIN>:
  c2:	801402b7          	lui	t0,0x80140
  c6:	1b800313          	li	t1,440
  ca:	00032383          	lw	t2,0(t1)
  ce:	1072a223          	sw	t2,260(t0) # 80140104 <_DATA_LMA_START+0x6013852c>

000000d2 <_IZERO_BSS>:
  d2:	000002b7          	lui	t0,0x0
  d6:	00080397          	auipc	t2,0x80
  da:	f3a38393          	addi	t2,t2,-198 # 80010 <_BSS_VMA_START>
  de:	00080e17          	auipc	t3,0x80
  e2:	34ae0e13          	addi	t3,t3,842 # 80428 <_BSS_VMA_END>

000000e6 <_IZERO_BSS_BEGIN>:
  e6:	01c3f663          	bgeu	t2,t3,f2 <_IZERO_AES>
  ea:	0053a023          	sw	t0,0(t2)
  ee:	0391                	c.addi	t2,4
  f0:	bfdd                	c.j	e6 <_IZERO_BSS_BEGIN>

000000f2 <_IZERO_AES>:
  f2:	000002b7          	lui	t0,0x0
  f6:	00000397          	auipc	t2,0x0
  fa:	06238393          	addi	t2,t2,98 # 158 <_AES_VMA_END>
  fe:	00000e17          	auipc	t3,0x0
 102:	05ae0e13          	addi	t3,t3,90 # 158 <_AES_VMA_END>

00000106 <_IZERO_AES_BEGIN>:
 106:	01c3f663          	bgeu	t2,t3,112 <_IDATA_INIT>
 10a:	0053a023          	sw	t0,0(t2)
 10e:	0391                	c.addi	t2,4
 110:	bfdd                	c.j	106 <_IZERO_AES_BEGIN>

00000112 <_IDATA_INIT>:
 112:	20008317          	auipc	t1,0x20008
 116:	ac630313          	addi	t1,t1,-1338 # 20007bd8 <_DATA_LMA_START>
 11a:	00080397          	auipc	t2,0x80
 11e:	ee638393          	addi	t2,t2,-282 # 80000 <_DATA_VMA_START>
 122:	00080e17          	auipc	t3,0x80
 126:	ee8e0e13          	addi	t3,t3,-280 # 8000a <_DATA_VMA_END>

0000012a <_IDATA_INIT_BEGIN>:
 12a:	01c3f963          	bgeu	t2,t3,13c <_IMAIN_FUNC>
 12e:	00032283          	lw	t0,0(t1)
 132:	0053a023          	sw	t0,0(t2)
 136:	0311                	c.addi	t1,4
 138:	0391                	c.addi	t2,4
 13a:	bfc5                	c.j	12a <_IDATA_INIT_BEGIN>

0000013c <_IMAIN_FUNC>:
 13c:	0001                	c.nop
 13e:	20003297          	auipc	t0,0x20003
 142:	47228293          	addi	t0,t0,1138 # 200035b0 <main>
 146:	9282                	c.jalr	t0
 148:	0001                	c.nop
 14a:	0001                	c.nop
 14c:	0001                	c.nop
 14e:	0001                	c.nop
 150:	0001                	c.nop

00000152 <_IEND>:
 152:	a001                	c.j	152 <_IEND>

Disassembly of section .ram_code:

00000200 <delay_ms>:
     200:	801407b7          	lui	a5,0x80140
     204:	2007a683          	lw	a3,512(a5) # 80140200 <_DATA_LMA_START+0x60138628>
     208:	3e800793          	li	a5,1000
     20c:	02f507b3          	mul	a5,a0,a5
     210:	80140737          	lui	a4,0x80140
     214:	20072703          	lw	a4,512(a4) # 80140200 <_DATA_LMA_START+0x60138628>
     218:	8f15                	c.sub	a4,a3
     21a:	0792                	c.slli	a5,0x4
     21c:	fee7f6e3          	bgeu	a5,a4,208 <delay_ms+0x8>
     220:	00008067          	ret

00000224 <flash_send_addr>:
     224:	5d05275b          	bfoz	a4,a0,23,16
     228:	801407b7          	lui	a5,0x80140
     22c:	10e78023          	sb	a4,256(a5) # 80140100 <_DATA_LMA_START+0x60138528>
     230:	801407b7          	lui	a5,0x80140
     234:	10278783          	lb	a5,258(a5) # 80140102 <_DATA_LMA_START+0x6013852a>
     238:	fe07fc5b          	bbs	a5,0,230 <flash_send_addr+0xc>
     23c:	3c8527db          	bfoz	a5,a0,15,8
     240:	80140737          	lui	a4,0x80140
     244:	10f70023          	sb	a5,256(a4) # 80140100 <_DATA_LMA_START+0x60138528>
     248:	801407b7          	lui	a5,0x80140
     24c:	10278783          	lb	a5,258(a5) # 80140102 <_DATA_LMA_START+0x6013852a>
     250:	fe07fc5b          	bbs	a5,0,248 <flash_send_addr+0x24>
     254:	0ff57513          	andi	a0,a0,255
     258:	801407b7          	lui	a5,0x80140
     25c:	10a78023          	sb	a0,256(a5) # 80140100 <_DATA_LMA_START+0x60138528>
     260:	801407b7          	lui	a5,0x80140
     264:	10278783          	lb	a5,258(a5) # 80140102 <_DATA_LMA_START+0x6013852a>
     268:	fe07fc5b          	bbs	a5,0,260 <flash_send_addr+0x3c>
     26c:	00008067          	ret

00000270 <flash_send_cmd>:
     270:	801407b7          	lui	a5,0x80140
     274:	10178703          	lb	a4,257(a5) # 80140101 <_DATA_LMA_START+0x60138529>
     278:	0ff77713          	andi	a4,a4,255
     27c:	01076713          	ori	a4,a4,16
     280:	10e780a3          	sb	a4,257(a5)
     284:	0001                	c.nop
     286:	0001                	c.nop
     288:	0001                	c.nop
     28a:	0001                	c.nop
     28c:	0001                	c.nop
     28e:	0001                	c.nop
     290:	0001                	c.nop
     292:	0001                	c.nop
     294:	0001                	c.nop
     296:	0001                	c.nop
     298:	10178703          	lb	a4,257(a5)
     29c:	0ef77713          	andi	a4,a4,239
     2a0:	10e780a3          	sb	a4,257(a5)
     2a4:	10a78023          	sb	a0,256(a5)
     2a8:	801407b7          	lui	a5,0x80140
     2ac:	10278783          	lb	a5,258(a5) # 80140102 <_DATA_LMA_START+0x6013852a>
     2b0:	fe07fc5b          	bbs	a5,0,2a8 <flash_send_cmd+0x38>
     2b4:	00008067          	ret

000002b8 <clock_set_32k_tick>:
     2b8:	80140737          	lui	a4,0x80140
     2bc:	20a70783          	lb	a5,522(a4) # 8014020a <_DATA_LMA_START+0x60138632>
     2c0:	0ff7f793          	andi	a5,a5,255
     2c4:	0017e793          	ori	a5,a5,1
     2c8:	20f70523          	sb	a5,522(a4)
     2cc:	801407b7          	lui	a5,0x80140
     2d0:	20b78783          	lb	a5,523(a5) # 8014020b <_DATA_LMA_START+0x60138633>
     2d4:	fe67fc5b          	bbs	a5,6,2cc <clock_set_32k_tick+0x14>
     2d8:	801407b7          	lui	a5,0x80140
     2dc:	20a7a623          	sw	a0,524(a5) # 8014020c <_DATA_LMA_START+0x60138634>
     2e0:	4721                	c.li	a4,8
     2e2:	20e785a3          	sb	a4,523(a5)
     2e6:	0001                	c.nop
     2e8:	0001                	c.nop
     2ea:	0001                	c.nop
     2ec:	0001                	c.nop
     2ee:	0001                	c.nop
     2f0:	0001                	c.nop
     2f2:	0001                	c.nop
     2f4:	0001                	c.nop
     2f6:	0001                	c.nop
     2f8:	0001                	c.nop
     2fa:	0001                	c.nop
     2fc:	0001                	c.nop
     2fe:	0001                	c.nop
     300:	0001                	c.nop
     302:	0001                	c.nop
     304:	00000013          	nop
     308:	801407b7          	lui	a5,0x80140
     30c:	20b78783          	lb	a5,523(a5) # 8014020b <_DATA_LMA_START+0x60138633>
     310:	fe37fc5b          	bbs	a5,3,308 <clock_set_32k_tick+0x50>
     314:	00008067          	ret

00000318 <plic_exit_critical_sec>:
     318:	000007b7          	lui	a5,0x0
     31c:	15878793          	addi	a5,a5,344 # 158 <_AES_VMA_END>
     320:	00478783          	lb	a5,4(a5)
     324:	0ff7f793          	andi	a5,a5,255
     328:	c795                	c.beqz	a5,354 <plic_exit_critical_sec+0x3c>
     32a:	c50d                	c.beqz	a0,354 <plic_exit_critical_sec+0x3c>
     32c:	300027f3          	csrr	a5,mstatus
     330:	8ba1                	c.andi	a5,8
     332:	0ff5f593          	andi	a1,a1,255
     336:	c78d                	c.beqz	a5,360 <plic_exit_critical_sec+0x48>
     338:	30047773          	csrrci	a4,mstatus,8
     33c:	0ff0000f          	fence
     340:	e4200737          	lui	a4,0xe4200
     344:	c30c                	c.sw	a1,0(a4)
     346:	0ff0000f          	fence
     34a:	3007a7f3          	csrrs	a5,mstatus,a5
     34e:	0ff0000f          	fence
     352:	8082                	c.jr	ra
     354:	cd81                	c.beqz	a1,36c <plic_exit_critical_sec+0x54>
     356:	3005a5f3          	csrrs	a1,mstatus,a1
     35a:	0ff0000f          	fence
     35e:	8082                	c.jr	ra
     360:	e42007b7          	lui	a5,0xe4200
     364:	00b7a023          	sw	a1,0(a5) # e4200000 <_DATA_LMA_START+0xc41f8428>
     368:	0ff0000f          	fence
     36c:	00008067          	ret

00000370 <plic_enter_critical_sec>:
     370:	000007b7          	lui	a5,0x0
     374:	15878793          	addi	a5,a5,344 # 158 <_AES_VMA_END>
     378:	00478783          	lb	a5,4(a5)
     37c:	0ff7f793          	andi	a5,a5,255
     380:	cb85                	c.beqz	a5,3b0 <plic_enter_critical_sec+0x40>
     382:	c51d                	c.beqz	a0,3b0 <plic_enter_critical_sec+0x40>
     384:	e4200737          	lui	a4,0xe4200
     388:	4308                	c.lw	a0,0(a4)
     38a:	04b57163          	bgeu	a0,a1,3cc <plic_enter_critical_sec+0x5c>
     38e:	300027f3          	csrr	a5,mstatus
     392:	8ba1                	c.andi	a5,8
     394:	cb85                	c.beqz	a5,3c4 <plic_enter_critical_sec+0x54>
     396:	300476f3          	csrrci	a3,mstatus,8
     39a:	0ff0000f          	fence
     39e:	c30c                	c.sw	a1,0(a4)
     3a0:	0ff0000f          	fence
     3a4:	3007a7f3          	csrrs	a5,mstatus,a5
     3a8:	0ff0000f          	fence
     3ac:	00008067          	ret
     3b0:	30002573          	csrr	a0,mstatus
     3b4:	8921                	c.andi	a0,8
     3b6:	c919                	c.beqz	a0,3cc <plic_enter_critical_sec+0x5c>
     3b8:	300477f3          	csrrci	a5,mstatus,8
     3bc:	0ff0000f          	fence
     3c0:	00008067          	ret
     3c4:	00b72023          	sw	a1,0(a4) # e4200000 <_DATA_LMA_START+0xc41f8428>
     3c8:	0ff0000f          	fence
     3cc:	00008067          	ret

000003d0 <flash_mspi_read_ram>:
     3d0:	1101                	c.addi	sp,-32
     3d2:	ce06                	c.swsp	ra,28(sp)
     3d4:	cc22                	c.swsp	s0,24(sp)
     3d6:	ca26                	c.swsp	s1,20(sp)
     3d8:	c84a                	c.swsp	s2,16(sp)
     3da:	c64e                	c.swsp	s3,12(sp)
     3dc:	c452                	c.swsp	s4,8(sp)
     3de:	c256                	c.swsp	s5,4(sp)
     3e0:	c05a                	c.swsp	s6,0(sp)
     3e2:	892a                	c.mv	s2,a0
     3e4:	8b2e                	c.mv	s6,a1
     3e6:	8ab2                	c.mv	s5,a2
     3e8:	8a36                	c.mv	s4,a3
     3ea:	843a                	c.mv	s0,a4
     3ec:	84be                	c.mv	s1,a5
     3ee:	000007b7          	lui	a5,0x0
     3f2:	15878793          	addi	a5,a5,344 # 158 <_AES_VMA_END>
     3f6:	0097c583          	lbu	a1,9(a5)
     3fa:	0087c503          	lbu	a0,8(a5)
     3fe:	3f8d                	c.jal	370 <plic_enter_critical_sec>
     400:	00a009b3          	add	s3,zero,a0
     404:	801407b7          	lui	a5,0x80140
     408:	10278783          	lb	a5,258(a5) # 80140102 <_DATA_LMA_START+0x6013852a>
     40c:	fe07fc5b          	bbs	a5,0,404 <flash_mspi_read_ram+0x34>
     410:	80140737          	lui	a4,0x80140
     414:	10170783          	lb	a5,257(a4) # 80140101 <_DATA_LMA_START+0x60138529>
     418:	0ff7f793          	andi	a5,a5,255
     41c:	0107e793          	ori	a5,a5,16
     420:	10f700a3          	sb	a5,257(a4)
     424:	801407b7          	lui	a5,0x80140
     428:	32878783          	lb	a5,808(a5) # 80140328 <_DATA_LMA_START+0x60138750>
     42c:	be37fc5b          	bbc	a5,3,424 <flash_mspi_read_ram+0x54>
     430:	801407b7          	lui	a5,0x80140
     434:	10178703          	lb	a4,257(a5) # 80140101 <_DATA_LMA_START+0x60138529>
     438:	0fd77713          	andi	a4,a4,253
     43c:	10e780a3          	sb	a4,257(a5)
     440:	10178703          	lb	a4,257(a5)
     444:	0f377713          	andi	a4,a4,243
     448:	10e780a3          	sb	a4,257(a5)
     44c:	854a                	c.mv	a0,s2
     44e:	350d                	c.jal	270 <flash_send_cmd>
     450:	0eb00793          	li	a5,235
     454:	00f90663          	beq	s2,a5,460 <flash_mspi_read_ram+0x90>
     458:	020a9063          	bnez	s5,478 <flash_mspi_read_ram+0xa8>
     45c:	4701                	c.li	a4,0
     45e:	a82d                	c.j	498 <flash_mspi_read_ram+0xc8>
     460:	80140737          	lui	a4,0x80140
     464:	10170783          	lb	a5,257(a4) # 80140101 <_DATA_LMA_START+0x60138529>
     468:	0f37f793          	andi	a5,a5,243
     46c:	00c7e793          	ori	a5,a5,12
     470:	10f700a3          	sb	a5,257(a4)
     474:	fe5ff06f          	j	458 <flash_mspi_read_ram+0x88>
     478:	855a                	c.mv	a0,s6
     47a:	336d                	c.jal	224 <flash_send_addr>
     47c:	fe1ff06f          	j	45c <flash_mspi_read_ram+0x8c>
     480:	801407b7          	lui	a5,0x80140
     484:	10078023          	sb	zero,256(a5) # 80140100 <_DATA_LMA_START+0x60138528>
     488:	801407b7          	lui	a5,0x80140
     48c:	10278783          	lb	a5,258(a5) # 80140102 <_DATA_LMA_START+0x6013852a>
     490:	fe07fc5b          	bbs	a5,0,488 <flash_mspi_read_ram+0xb8>
     494:	00170713          	addi	a4,a4,1
     498:	ff4764e3          	bltu	a4,s4,480 <flash_mspi_read_ram+0xb0>
     49c:	05b956db          	beqc	s2,59,4e8 <flash_mspi_read_ram+0x118>
     4a0:	80140737          	lui	a4,0x80140
     4a4:	10170783          	lb	a5,257(a4) # 80140101 <_DATA_LMA_START+0x60138529>
     4a8:	0ff7f793          	andi	a5,a5,255
     4ac:	0027e793          	ori	a5,a5,2
     4b0:	10f700a3          	sb	a5,257(a4)
     4b4:	10070023          	sb	zero,256(a4)
     4b8:	801407b7          	lui	a5,0x80140
     4bc:	10278783          	lb	a5,258(a5) # 80140102 <_DATA_LMA_START+0x6013852a>
     4c0:	fe07fc5b          	bbs	a5,0,4b8 <flash_mspi_read_ram+0xe8>
     4c4:	80140737          	lui	a4,0x80140
     4c8:	10170783          	lb	a5,257(a4) # 80140101 <_DATA_LMA_START+0x60138529>
     4cc:	0ff7f793          	andi	a5,a5,255
     4d0:	0017e793          	ori	a5,a5,1
     4d4:	10f700a3          	sb	a5,257(a4)
     4d8:	801407b7          	lui	a5,0x80140
     4dc:	10278783          	lb	a5,258(a5) # 80140102 <_DATA_LMA_START+0x6013852a>
     4e0:	fe07fc5b          	bbs	a5,0,4d8 <flash_mspi_read_ram+0x108>
     4e4:	4701                	c.li	a4,0
     4e6:	a82d                	c.j	520 <flash_mspi_read_ram+0x150>
     4e8:	80140737          	lui	a4,0x80140
     4ec:	10170783          	lb	a5,257(a4) # 80140101 <_DATA_LMA_START+0x60138529>
     4f0:	0f37f793          	andi	a5,a5,243
     4f4:	0047e793          	ori	a5,a5,4
     4f8:	10f700a3          	sb	a5,257(a4)
     4fc:	fa5ff06f          	j	4a0 <flash_mspi_read_ram+0xd0>
     500:	00140693          	addi	a3,s0,1
     504:	801407b7          	lui	a5,0x80140
     508:	10078783          	lb	a5,256(a5) # 80140100 <_DATA_LMA_START+0x60138528>
     50c:	00f40023          	sb	a5,0(s0)
     510:	801407b7          	lui	a5,0x80140
     514:	10278783          	lb	a5,258(a5) # 80140102 <_DATA_LMA_START+0x6013852a>
     518:	fe07fc5b          	bbs	a5,0,510 <flash_mspi_read_ram+0x140>
     51c:	0705                	c.addi	a4,1
     51e:	8436                	c.mv	s0,a3
     520:	fe9760e3          	bltu	a4,s1,500 <flash_mspi_read_ram+0x130>
     524:	80140737          	lui	a4,0x80140
     528:	10170783          	lb	a5,257(a4) # 80140101 <_DATA_LMA_START+0x60138529>
     52c:	0fe7f793          	andi	a5,a5,254
     530:	10f700a3          	sb	a5,257(a4)
     534:	0eb00793          	li	a5,235
     538:	00f90463          	beq	s2,a5,540 <flash_mspi_read_ram+0x170>
     53c:	01b96adb          	bnec	s2,59,550 <flash_mspi_read_ram+0x180>
     540:	80140737          	lui	a4,0x80140
     544:	10170783          	lb	a5,257(a4) # 80140101 <_DATA_LMA_START+0x60138529>
     548:	0f37f793          	andi	a5,a5,243
     54c:	10f700a3          	sb	a5,257(a4)
     550:	80140737          	lui	a4,0x80140
     554:	10170783          	lb	a5,257(a4) # 80140101 <_DATA_LMA_START+0x60138529>
     558:	0ff7f793          	andi	a5,a5,255
     55c:	0107e793          	ori	a5,a5,16
     560:	10f700a3          	sb	a5,257(a4)
     564:	0001                	c.nop
     566:	0001                	c.nop
     568:	0001                	c.nop
     56a:	0001                	c.nop
     56c:	0001                	c.nop
     56e:	85ce                	c.mv	a1,s3
     570:	000007b7          	lui	a5,0x0
     574:	1607c503          	lbu	a0,352(a5) # 160 <s_flash_preempt_config>
     578:	da1ff0ef          	jal	ra,318 <plic_exit_critical_sec>
     57c:	40f2                	c.lwsp	ra,28(sp)
     57e:	4462                	c.lwsp	s0,24(sp)
     580:	44d2                	c.lwsp	s1,20(sp)
     582:	4942                	c.lwsp	s2,16(sp)
     584:	49b2                	c.lwsp	s3,12(sp)
     586:	4a22                	c.lwsp	s4,8(sp)
     588:	4a92                	c.lwsp	s5,4(sp)
     58a:	4b02                	c.lwsp	s6,0(sp)
     58c:	6105                	c.addi16sp	sp,32
     58e:	8082                	c.jr	ra

00000590 <analog_read_reg32>:
     590:	300027f3          	csrr	a5,mstatus
     594:	8ba1                	c.andi	a5,8
     596:	c789                	c.beqz	a5,5a0 <analog_read_reg32+0x10>
     598:	30047773          	csrrci	a4,mstatus,8
     59c:	0ff0000f          	fence
     5a0:	80140737          	lui	a4,0x80140
     5a4:	00400693          	li	a3,4
     5a8:	18d701a3          	sb	a3,387(a4) # 80140183 <_DATA_LMA_START+0x601385ab>
     5ac:	18a70023          	sb	a0,384(a4)
     5b0:	04000693          	li	a3,64
     5b4:	18d70123          	sb	a3,386(a4)
     5b8:	80140737          	lui	a4,0x80140
     5bc:	18270703          	lb	a4,386(a4) # 80140182 <_DATA_LMA_START+0x601385aa>
     5c0:	fe777c5b          	bbs	a4,7,5b8 <analog_read_reg32+0x28>
     5c4:	80140737          	lui	a4,0x80140
     5c8:	18472503          	lw	a0,388(a4) # 80140184 <_DATA_LMA_START+0x601385ac>
     5cc:	00078663          	beqz	a5,5d8 <analog_read_reg32+0x48>
     5d0:	3007a7f3          	csrrs	a5,mstatus,a5
     5d4:	0ff0000f          	fence
     5d8:	00008067          	ret

000005dc <clock_get_32k_tick>:
     5dc:	1141                	c.addi	sp,-16
     5de:	c606                	c.swsp	ra,12(sp)
     5e0:	c422                	c.swsp	s0,8(sp)
     5e2:	06000513          	li	a0,96
     5e6:	376d                	c.jal	590 <analog_read_reg32>
     5e8:	00a00433          	add	s0,zero,a0
     5ec:	06000513          	li	a0,96
     5f0:	fa1ff0ef          	jal	ra,590 <analog_read_reg32>
     5f4:	408507b3          	sub	a5,a0,s0
     5f8:	0017d85b          	beqc	a5,1,608 <clock_get_32k_tick+0x2c>
     5fc:	00a41463          	bne	s0,a0,604 <clock_get_32k_tick+0x28>
     600:	00800533          	add	a0,zero,s0
     604:	842a                	c.mv	s0,a0
     606:	b7dd                	c.j	5ec <clock_get_32k_tick+0x10>
     608:	40b2                	c.lwsp	ra,12(sp)
     60a:	4422                	c.lwsp	s0,8(sp)
     60c:	0141                	c.addi	sp,16
     60e:	8082                	c.jr	ra

00000610 <pm_stimer_recover>:
     610:	1141                	c.addi	sp,-16
     612:	80140737          	lui	a4,0x80140
     616:	c606                	c.swsp	ra,12(sp)
     618:	4789                	c.li	a5,2
     61a:	20f70c23          	sb	a5,536(a4) # 80140218 <_DATA_LMA_START+0x60138640>
     61e:	20a70783          	lb	a5,522(a4)
     622:	0ff7f793          	andi	a5,a5,255
     626:	00c7e793          	ori	a5,a5,12
     62a:	20f70523          	sb	a5,522(a4)
     62e:	377d                	c.jal	5dc <clock_get_32k_tick>
     630:	000007b7          	lui	a5,0x0
     634:	15878713          	addi	a4,a5,344 # 158 <_AES_VMA_END>
     638:	00a74703          	lbu	a4,10(a4)
     63c:	15878793          	addi	a5,a5,344
     640:	cf01                	c.beqz	a4,658 <pm_stimer_recover+0x48>
     642:	4bd8                	c.lw	a4,20(a5)
     644:	5fd0                	c.lw	a2,60(a5)
     646:	40e50733          	sub	a4,a0,a4
     64a:	4b94                	c.lw	a3,16(a5)
     64c:	0705                	c.addi	a4,1
     64e:	8315                	c.srli	a4,0x5
     650:	c4c716ff          	maddr32	a3,a4,a2
     654:	c7d4                	c.sw	a3,12(a5)
     656:	a829                	c.j	670 <pm_stimer_recover+0x60>
     658:	4bd8                	c.lw	a4,20(a5)
     65a:	5fd4                	c.lw	a3,60(a5)
     65c:	40e50733          	sub	a4,a0,a4
     660:	0705                	c.addi	a4,1
     662:	02d70733          	mul	a4,a4,a3
     666:	4b94                	c.lw	a3,16(a5)
     668:	8315                	c.srli	a4,0x5
     66a:	9736                	c.add	a4,a3
     66c:	00e7a623          	sw	a4,12(a5)
     670:	4bd8                	c.lw	a4,20(a5)
     672:	47d4                	c.lw	a3,12(a5)
     674:	40e50733          	sub	a4,a0,a4
     678:	0705                	c.addi	a4,1
     67a:	0505                	c.addi	a0,1
     67c:	0685                	c.addi	a3,1
     67e:	d7c8                	c.sw	a0,44(a5)
     680:	02e7a423          	sw	a4,40(a5)
     684:	80140637          	lui	a2,0x80140
     688:	801407b7          	lui	a5,0x80140
     68c:	20d7a023          	sw	a3,512(a5) # 80140200 <_DATA_LMA_START+0x60138628>
     690:	20b60783          	lb	a5,523(a2) # 8014020b <_DATA_LMA_START+0x60138633>
     694:	be77fe5b          	bbc	a5,7,690 <pm_stimer_recover+0x80>
     698:	20060c23          	sb	zero,536(a2)
     69c:	40b2                	c.lwsp	ra,12(sp)
     69e:	0141                	c.addi	sp,16
     6a0:	00008067          	ret

000006a4 <analog_write_reg8>:
     6a4:	30002773          	csrr	a4,mstatus
     6a8:	8b21                	c.andi	a4,8
     6aa:	c709                	c.beqz	a4,6b4 <analog_write_reg8+0x10>
     6ac:	300477f3          	csrrci	a5,mstatus,8
     6b0:	0ff0000f          	fence
     6b4:	801407b7          	lui	a5,0x80140
     6b8:	18a78023          	sb	a0,384(a5) # 80140180 <_DATA_LMA_START+0x601385a8>
     6bc:	18b78223          	sb	a1,388(a5)
     6c0:	06000693          	li	a3,96
     6c4:	18d78123          	sb	a3,386(a5)
     6c8:	801407b7          	lui	a5,0x80140
     6cc:	18278783          	lb	a5,386(a5) # 80140182 <_DATA_LMA_START+0x601385aa>
     6d0:	fe77fc5b          	bbs	a5,7,6c8 <analog_write_reg8+0x24>
     6d4:	801407b7          	lui	a5,0x80140
     6d8:	18078123          	sb	zero,386(a5) # 80140182 <_DATA_LMA_START+0x601385aa>
     6dc:	00070663          	beqz	a4,6e8 <analog_write_reg8+0x44>
     6e0:	30072773          	csrrs	a4,mstatus,a4
     6e4:	0ff0000f          	fence
     6e8:	00008067          	ret

000006ec <analog_read_reg8>:
     6ec:	30002773          	csrr	a4,mstatus
     6f0:	8b21                	c.andi	a4,8
     6f2:	c709                	c.beqz	a4,6fc <analog_read_reg8+0x10>
     6f4:	300477f3          	csrrci	a5,mstatus,8
     6f8:	0ff0000f          	fence
     6fc:	801407b7          	lui	a5,0x80140
     700:	18a78023          	sb	a0,384(a5) # 80140180 <_DATA_LMA_START+0x601385a8>
     704:	00100693          	li	a3,1
     708:	18d781a3          	sb	a3,387(a5)
     70c:	04000693          	li	a3,64
     710:	18d78123          	sb	a3,386(a5)
     714:	801407b7          	lui	a5,0x80140
     718:	18278783          	lb	a5,386(a5) # 80140182 <_DATA_LMA_START+0x601385aa>
     71c:	fe77fc5b          	bbs	a5,7,714 <analog_read_reg8+0x28>
     720:	801407b7          	lui	a5,0x80140
     724:	18478503          	lb	a0,388(a5) # 80140184 <_DATA_LMA_START+0x601385ac>
     728:	0ff57513          	andi	a0,a0,255
     72c:	00070663          	beqz	a4,738 <analog_read_reg8+0x4c>
     730:	30072773          	csrrs	a4,mstatus,a4
     734:	0ff0000f          	fence
     738:	00008067          	ret

0000073c <pm_wait_bbpll_done>:
     73c:	1101                	c.addi	sp,-32
     73e:	08100513          	li	a0,129
     742:	cc22                	c.swsp	s0,24(sp)
     744:	ca26                	c.swsp	s1,20(sp)
     746:	c84a                	c.swsp	s2,16(sp)
     748:	ce06                	c.swsp	ra,28(sp)
     74a:	374d                	c.jal	6ec <analog_read_reg8>
     74c:	04056593          	ori	a1,a0,64
     750:	892a                	c.mv	s2,a0
     752:	0ff5f593          	andi	a1,a1,255
     756:	08100513          	li	a0,129
     75a:	0bf97913          	andi	s2,s2,191
     75e:	4481                	c.li	s1,0
     760:	4475                	c.li	s0,29
     762:	3789                	c.jal	6a4 <analog_write_reg8>
     764:	000107a3          	sb	zero,15(sp)
     768:	00f10783          	lb	a5,15(sp)
     76c:	0ff7f793          	andi	a5,a5,255
     770:	02f46063          	bltu	s0,a5,790 <pm_wait_bbpll_done+0x54>
     774:	0001                	c.nop
     776:	00f10783          	lb	a5,15(sp)
     77a:	0785                	c.addi	a5,1
     77c:	0ff7f793          	andi	a5,a5,255
     780:	00f107a3          	sb	a5,15(sp)
     784:	00f10783          	lb	a5,15(sp)
     788:	0ff7f793          	andi	a5,a5,255
     78c:	fef474e3          	bgeu	s0,a5,774 <pm_wait_bbpll_done+0x38>
     790:	08800513          	li	a0,136
     794:	f59ff0ef          	jal	ra,6ec <analog_read_reg8>
     798:	4255765b          	bbs	a0,5,7c4 <pm_wait_bbpll_done+0x88>
     79c:	cc95                	c.beqz	s1,7d8 <pm_wait_bbpll_done+0x9c>
     79e:	0414d35b          	beqc	s1,1,7e4 <pm_wait_bbpll_done+0xa8>
     7a2:	85ca                	c.mv	a1,s2
     7a4:	08100513          	li	a0,129
     7a8:	efdff0ef          	jal	ra,6a4 <analog_write_reg8>
     7ac:	0024d65b          	beqc	s1,2,7b8 <pm_wait_bbpll_done+0x7c>
     7b0:	0485                	c.addi	s1,1
     7b2:	0ff4f493          	andi	s1,s1,255
     7b6:	b77d                	c.j	764 <pm_wait_bbpll_done+0x28>
     7b8:	40f2                	c.lwsp	ra,28(sp)
     7ba:	4462                	c.lwsp	s0,24(sp)
     7bc:	44d2                	c.lwsp	s1,20(sp)
     7be:	4942                	c.lwsp	s2,16(sp)
     7c0:	6105                	c.addi16sp	sp,32
     7c2:	8082                	c.jr	ra
     7c4:	4462                	c.lwsp	s0,24(sp)
     7c6:	40f2                	c.lwsp	ra,28(sp)
     7c8:	44d2                	c.lwsp	s1,20(sp)
     7ca:	85ca                	c.mv	a1,s2
     7cc:	4942                	c.lwsp	s2,16(sp)
     7ce:	08100513          	li	a0,129
     7d2:	6105                	c.addi16sp	sp,32
     7d4:	ed1ff06f          	j	6a4 <analog_write_reg8>
     7d8:	04600593          	li	a1,70
     7dc:	4505                	c.li	a0,1
     7de:	35d9                	c.jal	6a4 <analog_write_reg8>
     7e0:	fd1ff06f          	j	7b0 <pm_wait_bbpll_done+0x74>
     7e4:	04300593          	li	a1,67
     7e8:	4505                	c.li	a0,1
     7ea:	3d6d                	c.jal	6a4 <analog_write_reg8>
     7ec:	fc5ff06f          	j	7b0 <pm_wait_bbpll_done+0x74>

000007f0 <pm_sleep_start>:
     7f0:	1101                	c.addi	sp,-32
     7f2:	827fa72b          	lwgp	a4,-2012 # 80024 <g_chip_version>
     7f6:	000006b7          	lui	a3,0x0
     7fa:	ce06                	c.swsp	ra,28(sp)
     7fc:	cc22                	c.swsp	s0,24(sp)
     7fe:	ca26                	c.swsp	s1,20(sp)
     800:	0ff00793          	li	a5,255
     804:	1986c583          	lbu	a1,408(a3) # 198 <g_pm_suspend_power_cfg>
     808:	00f71a63          	bne	a4,a5,81c <pm_sleep_start+0x2c>
     80c:	0fe5f593          	andi	a1,a1,254
     810:	07d00513          	li	a0,125
     814:	e91ff0ef          	jal	ra,6a4 <analog_write_reg8>
     818:	00c0006f          	j	824 <pm_sleep_start+0x34>
     81c:	07d00513          	li	a0,125
     820:	e85ff0ef          	jal	ra,6a4 <analog_write_reg8>
     824:	801406b7          	lui	a3,0x80140
     828:	10268783          	lb	a5,258(a3) # 80140102 <_DATA_LMA_START+0x6013852a>
     82c:	fe07fe5b          	bbs	a5,0,828 <pm_sleep_start+0x38>
     830:	10168703          	lb	a4,257(a3)
     834:	801407b7          	lui	a5,0x80140
     838:	0ff77713          	andi	a4,a4,255
     83c:	01076713          	ori	a4,a4,16
     840:	10e680a3          	sb	a4,257(a3)
     844:	32878703          	lb	a4,808(a5) # 80140328 <_DATA_LMA_START+0x60138750>
     848:	be377e5b          	bbc	a4,3,844 <pm_sleep_start+0x54>
     84c:	10178703          	lb	a4,257(a5)
     850:	80140437          	lui	s0,0x80140
     854:	0fd77713          	andi	a4,a4,253
     858:	10e780a3          	sb	a4,257(a5)
     85c:	10178703          	lb	a4,257(a5)
     860:	0ef77713          	andi	a4,a4,239
     864:	10e780a3          	sb	a4,257(a5)
     868:	fb900713          	li	a4,-71
     86c:	10e78023          	sb	a4,256(a5)
     870:	10240783          	lb	a5,258(s0) # 80140102 <_DATA_LMA_START+0x6013852a>
     874:	fe07fe5b          	bbs	a5,0,870 <pm_sleep_start+0x80>
     878:	10140783          	lb	a5,257(s0)
     87c:	452d                	c.li	a0,11
     87e:	0ff7f793          	andi	a5,a5,255
     882:	0107e793          	ori	a5,a5,16
     886:	10f400a3          	sb	a5,257(s0)
     88a:	320404a3          	sb	zero,809(s0)
     88e:	3db9                	c.jal	6ec <analog_read_reg8>
     890:	0fc57593          	andi	a1,a0,252
     894:	452d                	c.li	a0,11
     896:	3539                	c.jal	6a4 <analog_write_reg8>
     898:	08100513          	li	a0,129
     89c:	e51ff0ef          	jal	ra,6ec <analog_read_reg8>
     8a0:	f8056593          	ori	a1,a0,-128
     8a4:	0ff5f593          	andi	a1,a1,255
     8a8:	08100513          	li	a0,129
     8ac:	df9ff0ef          	jal	ra,6a4 <analog_write_reg8>
     8b0:	f8000793          	li	a5,-128
     8b4:	1ef407a3          	sb	a5,495(s0)
     8b8:	03f00493          	li	s1,63
     8bc:	00012423          	sw	zero,8(sp)
     8c0:	47a2                	c.lwsp	a5,8(sp)
     8c2:	00f4e763          	bltu	s1,a5,8d0 <pm_sleep_start+0xe0>
     8c6:	0001                	c.nop
     8c8:	47a2                	c.lwsp	a5,8(sp)
     8ca:	0785                	c.addi	a5,1
     8cc:	c43e                	c.swsp	a5,8(sp)
     8ce:	bfcd                	c.j	8c0 <pm_sleep_start+0xd0>
     8d0:	08100513          	li	a0,129
     8d4:	e19ff0ef          	jal	ra,6ec <analog_read_reg8>
     8d8:	07f57593          	andi	a1,a0,127
     8dc:	08100513          	li	a0,129
     8e0:	dc5ff0ef          	jal	ra,6a4 <analog_write_reg8>
     8e4:	00b00513          	li	a0,11
     8e8:	e05ff0ef          	jal	ra,6ec <analog_read_reg8>
     8ec:	00356593          	ori	a1,a0,3
     8f0:	0ff5f593          	andi	a1,a1,255
     8f4:	452d                	c.li	a0,11
     8f6:	337d                	c.jal	6a4 <analog_write_reg8>
     8f8:	08000593          	li	a1,128
     8fc:	07d00513          	li	a0,125
     900:	da5ff0ef          	jal	ra,6a4 <analog_write_reg8>
     904:	801407b7          	lui	a5,0x80140
     908:	329784a3          	sb	s1,809(a5) # 80140329 <_DATA_LMA_START+0x60138751>
     90c:	10178683          	lb	a3,257(a5)
     910:	80140737          	lui	a4,0x80140
     914:	0ef6f693          	andi	a3,a3,239
     918:	10d780a3          	sb	a3,257(a5)
     91c:	fab00693          	li	a3,-85
     920:	10d78023          	sb	a3,256(a5)
     924:	10270783          	lb	a5,258(a4) # 80140102 <_DATA_LMA_START+0x6013852a>
     928:	fe07fe5b          	bbs	a5,0,924 <pm_sleep_start+0x134>
     92c:	10170783          	lb	a5,257(a4)
     930:	12b00693          	li	a3,299
     934:	0ff7f793          	andi	a5,a5,255
     938:	0107e793          	ori	a5,a5,16
     93c:	10f700a3          	sb	a5,257(a4)
     940:	00012623          	sw	zero,12(sp)
     944:	47b2                	c.lwsp	a5,12(sp)
     946:	00f6e763          	bltu	a3,a5,954 <pm_sleep_start+0x164>
     94a:	0001                	c.nop
     94c:	47b2                	c.lwsp	a5,12(sp)
     94e:	0785                	c.addi	a5,1
     950:	c63e                	c.swsp	a5,12(sp)
     952:	bfcd                	c.j	944 <pm_sleep_start+0x154>
     954:	08800513          	li	a0,136
     958:	d95ff0ef          	jal	ra,6ec <analog_read_reg8>
     95c:	be757c5b          	bbc	a0,7,954 <pm_sleep_start+0x164>
     960:	08800513          	li	a0,136
     964:	d89ff0ef          	jal	ra,6ec <analog_read_reg8>
     968:	be757c5b          	bbc	a0,7,960 <pm_sleep_start+0x170>
     96c:	08800513          	li	a0,136
     970:	d7dff0ef          	jal	ra,6ec <analog_read_reg8>
     974:	be757c5b          	bbc	a0,7,96c <pm_sleep_start+0x17c>
     978:	4462                	c.lwsp	s0,24(sp)
     97a:	40f2                	c.lwsp	ra,28(sp)
     97c:	44d2                	c.lwsp	s1,20(sp)
     97e:	6105                	c.addi16sp	sp,32
     980:	dbdff06f          	j	73c <pm_wait_bbpll_done>

00000984 <dr_putchar>:
     984:	1101                	c.addi	sp,-32
     986:	ce06                	c.swsp	ra,28(sp)
     988:	cc22                	c.swsp	s0,24(sp)
     98a:	ca26                	c.swsp	s1,20(sp)
     98c:	00a00433          	add	s0,zero,a0
     990:	801fa78b          	lbugp	a5,-2048 # 80000 <_DATA_VMA_START>
     994:	0817d85b          	beqc	a5,1,a24 <dr_putchar+0xa0>
     998:	801407b7          	lui	a5,0x80140
     99c:	30378703          	lb	a4,771(a5) # 80140303 <_DATA_LMA_START+0x6013872b>
     9a0:	0fe77713          	andi	a4,a4,254
     9a4:	30378783          	lb	a5,771(a5)
     9a8:	0ff7f793          	andi	a5,a5,255
     9ac:	0017e793          	ori	a5,a5,1
     9b0:	00e10223          	sb	a4,4(sp)
     9b4:	0a047a5b          	bbc	s0,0,a68 <dr_putchar+0xe4>
     9b8:	00f006b3          	add	a3,zero,a5
     9bc:	00d102a3          	sb	a3,5(sp)
     9c0:	0a14765b          	bbc	s0,1,a6c <dr_putchar+0xe8>
     9c4:	00f006b3          	add	a3,zero,a5
     9c8:	00d10323          	sb	a3,6(sp)
     9cc:	0a24725b          	bbc	s0,2,a70 <dr_putchar+0xec>
     9d0:	00f006b3          	add	a3,zero,a5
     9d4:	00d103a3          	sb	a3,7(sp)
     9d8:	08347e5b          	bbc	s0,3,a74 <dr_putchar+0xf0>
     9dc:	00f006b3          	add	a3,zero,a5
     9e0:	00d10423          	sb	a3,8(sp)
     9e4:	08447a5b          	bbc	s0,4,a78 <dr_putchar+0xf4>
     9e8:	00f006b3          	add	a3,zero,a5
     9ec:	00d104a3          	sb	a3,9(sp)
     9f0:	0854765b          	bbc	s0,5,a7c <dr_putchar+0xf8>
     9f4:	00f006b3          	add	a3,zero,a5
     9f8:	00d10523          	sb	a3,10(sp)
     9fc:	0864725b          	bbc	s0,6,a80 <dr_putchar+0xfc>
     a00:	00f006b3          	add	a3,zero,a5
     a04:	00d105a3          	sb	a3,11(sp)
     a08:	801d                	c.srli	s0,0x7
     a0a:	c019                	c.beqz	s0,a10 <dr_putchar+0x8c>
     a0c:	00f00733          	add	a4,zero,a5
     a10:	00e10623          	sb	a4,12(sp)
     a14:	00f106a3          	sb	a5,13(sp)
     a18:	801407b7          	lui	a5,0x80140
     a1c:	2007a603          	lw	a2,512(a5) # 80140200 <_DATA_LMA_START+0x60138628>
     a20:	4581                	c.li	a1,0
     a22:	a849                	c.j	ab4 <dr_putchar+0x130>
     a24:	801404b7          	lui	s1,0x80140
     a28:	30648783          	lb	a5,774(s1) # 80140306 <_DATA_LMA_START+0x6013872e>
     a2c:	0ff7f793          	andi	a5,a5,255
     a30:	0017e793          	ori	a5,a5,1
     a34:	30f48323          	sb	a5,774(s1)
     a38:	4585                	c.li	a1,1
     a3a:	4505                	c.li	a0,1
     a3c:	20001097          	auipc	ra,0x20001
     a40:	f18080e7          	jalr	-232(ra) # 20001954 <gpio_set_up_down_res>
     a44:	30248783          	lb	a5,770(s1)
     a48:	0fe7f793          	andi	a5,a5,254
     a4c:	30f48123          	sb	a5,770(s1)
     a50:	30348783          	lb	a5,771(s1)
     a54:	0ff7f793          	andi	a5,a5,255
     a58:	0017e793          	ori	a5,a5,1
     a5c:	30f481a3          	sb	a5,771(s1)
     a60:	800fb08b          	sbgp	zero,-2048 # 80000 <_DATA_VMA_START>
     a64:	f35ff06f          	j	998 <dr_putchar+0x14>
     a68:	86ba                	c.mv	a3,a4
     a6a:	bf89                	c.j	9bc <dr_putchar+0x38>
     a6c:	86ba                	c.mv	a3,a4
     a6e:	bfa9                	c.j	9c8 <dr_putchar+0x44>
     a70:	86ba                	c.mv	a3,a4
     a72:	b78d                	c.j	9d4 <dr_putchar+0x50>
     a74:	86ba                	c.mv	a3,a4
     a76:	b7ad                	c.j	9e0 <dr_putchar+0x5c>
     a78:	86ba                	c.mv	a3,a4
     a7a:	bf8d                	c.j	9ec <dr_putchar+0x68>
     a7c:	86ba                	c.mv	a3,a4
     a7e:	bfad                	c.j	9f8 <dr_putchar+0x74>
     a80:	86ba                	c.mv	a3,a4
     a82:	b749                	c.j	a04 <dr_putchar+0x80>
     a84:	801407b7          	lui	a5,0x80140
     a88:	2007a703          	lw	a4,512(a5) # 80140200 <_DATA_LMA_START+0x60138628>
     a8c:	40c707b3          	sub	a5,a4,a2
     a90:	08900693          	li	a3,137
     a94:	fef6f8e3          	bgeu	a3,a5,a84 <dr_putchar+0x100>
     a98:	0808                	c.addi4spn	a0,sp,16
     a9a:	00b507b3          	add	a5,a0,a1
     a9e:	ff47c683          	lbu	a3,-12(a5)
     aa2:	801407b7          	lui	a5,0x80140
     aa6:	30d781a3          	sb	a3,771(a5) # 80140303 <_DATA_LMA_START+0x6013872b>
     aaa:	0585                	c.addi	a1,1
     aac:	0ff5f593          	andi	a1,a1,255
     ab0:	00e00633          	add	a2,zero,a4
     ab4:	47a5                	c.li	a5,9
     ab6:	00b7e563          	bltu	a5,a1,ac0 <dr_putchar+0x13c>
     aba:	8732                	c.mv	a4,a2
     abc:	fd1ff06f          	j	a8c <dr_putchar+0x108>
     ac0:	40f2                	c.lwsp	ra,28(sp)
     ac2:	4462                	c.lwsp	s0,24(sp)
     ac4:	44d2                	c.lwsp	s1,20(sp)
     ac6:	6105                	c.addi16sp	sp,32
     ac8:	00008067          	ret

00000acc <clock_init_ram>:
     acc:	1101                	c.addi	sp,-32
     ace:	ce06                	c.swsp	ra,28(sp)
     ad0:	cc22                	c.swsp	s0,24(sp)
     ad2:	ca26                	c.swsp	s1,20(sp)
     ad4:	c84a                	c.swsp	s2,16(sp)
     ad6:	c64e                	c.swsp	s3,12(sp)
     ad8:	c452                	c.swsp	s4,8(sp)
     ada:	c256                	c.swsp	s5,4(sp)
     adc:	c05a                	c.swsp	s6,0(sp)
     ade:	842a                	c.mv	s0,a0
     ae0:	892e                	c.mv	s2,a1
     ae2:	8ab2                	c.mv	s5,a2
     ae4:	84b6                	c.mv	s1,a3
     ae6:	8a3a                	c.mv	s4,a4
     ae8:	00f009b3          	add	s3,zero,a5
     aec:	801407b7          	lui	a5,0x80140
     af0:	10278783          	lb	a5,258(a5) # 80140102 <_DATA_LMA_START+0x6013852a>
     af4:	fe07fc5b          	bbs	a5,0,aec <clock_init_ram+0x20>
     af8:	80140737          	lui	a4,0x80140
     afc:	10170783          	lb	a5,257(a4) # 80140101 <_DATA_LMA_START+0x60138529>
     b00:	0ff7f793          	andi	a5,a5,255
     b04:	0107e793          	ori	a5,a5,16
     b08:	10f700a3          	sb	a5,257(a4)
     b0c:	801407b7          	lui	a5,0x80140
     b10:	32878783          	lb	a5,808(a5) # 80140328 <_DATA_LMA_START+0x60138750>
     b14:	be37fc5b          	bbc	a5,3,b0c <clock_init_ram+0x40>
     b18:	80140b37          	lui	s6,0x80140
     b1c:	1e8b0783          	lb	a5,488(s6) # 801401e8 <_DATA_LMA_START+0x60138610>
     b20:	8bbd                	c.andi	a5,15
     b22:	1efb0423          	sb	a5,488(s6)
     b26:	08000513          	li	a0,128
     b2a:	36c9                	c.jal	6ec <analog_read_reg8>
     b2c:	0e057593          	andi	a1,a0,224
     b30:	182427db          	bfoz	a5,s0,6,2
     b34:	8ddd                	c.or	a1,a5
     b36:	08000513          	li	a0,128
     b3a:	36ad                	c.jal	6a4 <analog_write_reg8>
     b3c:	00900513          	li	a0,9
     b40:	badff0ef          	jal	ra,6ec <analog_read_reg8>
     b44:	0f357593          	andi	a1,a0,243
     b48:	083427db          	bfoz	a5,s0,2,3
     b4c:	8ddd                	c.or	a1,a5
     b4e:	4525                	c.li	a0,9
     b50:	b55ff0ef          	jal	ra,6a4 <analog_write_reg8>
     b54:	5c84245b          	bfoz	s0,s0,23,8
     b58:	808f82ab          	shgp	s0,-2044 # 80004 <sys_clk>
     b5c:	aaaab7b7          	lui	a5,0xaaaab
     b60:	aab78793          	addi	a5,a5,-1365 # aaaaaaab <_DATA_LMA_START+0x8aaa2ed3>
     b64:	02f43433          	mulhu	s0,s0,a5
     b68:	3054245b          	bfoz	s0,s0,12,5
     b6c:	1e8b0da3          	sb	s0,507(s6)
     b70:	08100513          	li	a0,129
     b74:	b79ff0ef          	jal	ra,6ec <analog_read_reg8>
     b78:	04056593          	ori	a1,a0,64
     b7c:	0ff5f593          	andi	a1,a1,255
     b80:	08100513          	li	a0,129
     b84:	b21ff0ef          	jal	ra,6a4 <analog_write_reg8>
     b88:	08800513          	li	a0,136
     b8c:	b61ff0ef          	jal	ra,6ec <analog_read_reg8>
     b90:	be557c5b          	bbc	a0,5,b88 <clock_init_ram+0xbc>
     b94:	08100513          	li	a0,129
     b98:	b55ff0ef          	jal	ra,6ec <analog_read_reg8>
     b9c:	0bf57593          	andi	a1,a0,191
     ba0:	08100513          	li	a0,129
     ba4:	b01ff0ef          	jal	ra,6a4 <analog_write_reg8>
     ba8:	0c19de5b          	beqc	s3,1,c84 <clock_init_ram+0x1b8>
     bac:	801407b7          	lui	a5,0x80140
     bb0:	1e978703          	lb	a4,489(a5) # 801401e9 <_DATA_LMA_START+0x60138611>
     bb4:	00f77693          	andi	a3,a4,15
     bb8:	1079a75b          	bfoz	a4,s3,4,7
     bbc:	00d76733          	or	a4,a4,a3
     bc0:	1ee784a3          	sb	a4,489(a5)
     bc4:	1e878703          	lb	a4,488(a5)
     bc8:	f8076713          	ori	a4,a4,-128
     bcc:	0ff77713          	andi	a4,a4,255
     bd0:	1ee78423          	sb	a4,488(a5)
     bd4:	1e878703          	lb	a4,488(a5)
     bd8:	f8076713          	ori	a4,a4,-128
     bdc:	0ff77713          	andi	a4,a4,255
     be0:	1ee78423          	sb	a4,488(a5)
     be4:	805f978b          	addigp	a5,-2044 # 80004 <sys_clk>
     be8:	0007d703          	lhu	a4,0(a5)
     bec:	03374733          	div	a4,a4,s3
     bf0:	00e782a3          	sb	a4,5(a5)
     bf4:	0a14d25b          	beqc	s1,1,c98 <clock_init_ram+0x1cc>
     bf8:	80140737          	lui	a4,0x80140
     bfc:	1d870783          	lb	a5,472(a4) # 801401d8 <_DATA_LMA_START+0x60138600>
     c00:	0ff7f793          	andi	a5,a5,255
     c04:	0047e793          	ori	a5,a5,4
     c08:	1cf70c23          	sb	a5,472(a4)
     c0c:	0a1a505b          	beqc	s4,1,cac <clock_init_ram+0x1e0>
     c10:	801406b7          	lui	a3,0x80140
     c14:	1d868703          	lb	a4,472(a3) # 801401d8 <_DATA_LMA_START+0x60138600>
     c18:	001a5793          	srli	a5,s4,0x1
     c1c:	0fc77713          	andi	a4,a4,252
     c20:	00e7e7b3          	or	a5,a5,a4
     c24:	1cf68c23          	sb	a5,472(a3)
     c28:	08295c5b          	beqc	s2,2,cc0 <clock_init_ram+0x1f4>
     c2c:	0a395e5b          	beqc	s2,3,ce8 <clock_init_ram+0x21c>
     c30:	01800713          	li	a4,24
     c34:	80efb38b          	sbgp	a4,-2042 # 80006 <sys_clk+0x2>
     c38:	80140737          	lui	a4,0x80140
     c3c:	1e870783          	lb	a5,488(a4) # 801401e8 <_DATA_LMA_START+0x60138610>
     c40:	f8f7f793          	andi	a5,a5,-113
     c44:	00491913          	slli	s2,s2,0x4
     c48:	0127e933          	or	s2,a5,s2
     c4c:	0ff97913          	andi	s2,s2,255
     c50:	1f270423          	sb	s2,488(a4)
     c54:	805f978b          	addigp	a5,-2044 # 80004 <sys_clk>
     c58:	0027c703          	lbu	a4,2(a5)
     c5c:	029754b3          	divu	s1,a4,s1
     c60:	009781a3          	sb	s1,3(a5)
     c64:	0344d4b3          	divu	s1,s1,s4
     c68:	00978223          	sb	s1,4(a5)
     c6c:	0819d65b          	beqc	s3,1,cf8 <clock_init_ram+0x22c>
     c70:	40f2                	c.lwsp	ra,28(sp)
     c72:	4462                	c.lwsp	s0,24(sp)
     c74:	44d2                	c.lwsp	s1,20(sp)
     c76:	4942                	c.lwsp	s2,16(sp)
     c78:	49b2                	c.lwsp	s3,12(sp)
     c7a:	4a22                	c.lwsp	s4,8(sp)
     c7c:	4a92                	c.lwsp	s5,4(sp)
     c7e:	4b02                	c.lwsp	s6,0(sp)
     c80:	6105                	c.addi16sp	sp,32
     c82:	8082                	c.jr	ra
     c84:	80140737          	lui	a4,0x80140
     c88:	1e870783          	lb	a5,488(a4) # 801401e8 <_DATA_LMA_START+0x60138610>
     c8c:	07f7f793          	andi	a5,a5,127
     c90:	1ef70423          	sb	a5,488(a4)
     c94:	f61ff06f          	j	bf4 <clock_init_ram+0x128>
     c98:	80140737          	lui	a4,0x80140
     c9c:	1d870783          	lb	a5,472(a4) # 801401d8 <_DATA_LMA_START+0x60138600>
     ca0:	0fb7f793          	andi	a5,a5,251
     ca4:	1cf70c23          	sb	a5,472(a4)
     ca8:	f65ff06f          	j	c0c <clock_init_ram+0x140>
     cac:	80140737          	lui	a4,0x80140
     cb0:	1d870783          	lb	a5,472(a4) # 801401d8 <_DATA_LMA_START+0x60138600>
     cb4:	0fc7f793          	andi	a5,a5,252
     cb8:	1cf70c23          	sb	a5,472(a4)
     cbc:	f6dff06f          	j	c28 <clock_init_ram+0x15c>
     cc0:	80140737          	lui	a4,0x80140
     cc4:	1e870783          	lb	a5,488(a4) # 801401e8 <_DATA_LMA_START+0x60138610>
     cc8:	0f07f793          	andi	a5,a5,240
     ccc:	0157e7b3          	or	a5,a5,s5
     cd0:	1ef70423          	sb	a5,488(a4)
     cd4:	805f978b          	addigp	a5,-2044 # 80004 <sys_clk>
     cd8:	0007d703          	lhu	a4,0(a5)
     cdc:	03574ab3          	div	s5,a4,s5
     ce0:	01578123          	sb	s5,2(a5)
     ce4:	f55ff06f          	j	c38 <clock_init_ram+0x16c>
     ce8:	805f978b          	addigp	a5,-2044 # 80004 <sys_clk>
     cec:	0007d703          	lhu	a4,0(a5)
     cf0:	00e78123          	sb	a4,2(a5)
     cf4:	f45ff06f          	j	c38 <clock_init_ram+0x16c>
     cf8:	80eff48b          	sbgp	a4,-2039 # 80009 <sys_clk+0x5>
     cfc:	f75ff06f          	j	c70 <clock_init_ram+0x1a4>

00000d00 <pm_sleep_wakeup_ram.constprop.1>:
     d00:	1101                	c.addi	sp,-32
     d02:	c452                	c.swsp	s4,8(sp)
     d04:	8a2a                	c.mv	s4,a0
     d06:	ce06                	c.swsp	ra,28(sp)
     d08:	cc22                	c.swsp	s0,24(sp)
     d0a:	ca26                	c.swsp	s1,20(sp)
     d0c:	c84a                	c.swsp	s2,16(sp)
     d0e:	c64e                	c.swsp	s3,12(sp)
     d10:	c256                	c.swsp	s5,4(sp)
     d12:	c05a                	c.swsp	s6,0(sp)
     d14:	300029f3          	csrr	s3,mstatus
     d18:	0089f993          	andi	s3,s3,8
     d1c:	00098663          	beqz	s3,d28 <pm_sleep_wakeup_ram.constprop.1+0x28>
     d20:	300477f3          	csrrci	a5,mstatus,8
     d24:	0ff0000f          	fence
     d28:	801407b7          	lui	a5,0x80140
     d2c:	2147a683          	lw	a3,532(a5) # 80140214 <_DATA_LMA_START+0x6013863c>
     d30:	def5                	c.beqz	a3,d2c <pm_sleep_wakeup_ram.constprop.1+0x2c>
     d32:	00000437          	lui	s0,0x0
     d36:	15840693          	addi	a3,s0,344 # 158 <_AES_VMA_END>
     d3a:	2147a783          	lw	a5,532(a5)
     d3e:	52d8                	c.lw	a4,36(a3)
     d40:	dadc                	c.sw	a5,52(a3)
     d42:	15840413          	addi	s0,s0,344
     d46:	0792                	c.slli	a5,0x4
     d48:	cb11                	c.beqz	a4,d5c <pm_sleep_wakeup_ram.constprop.1+0x5c>
     d4a:	03844603          	lbu	a2,56(s0)
     d4e:	4691                	c.li	a3,4
     d50:	8f99                	c.sub	a5,a4
     d52:	8e91                	c.sub	a3,a2
     d54:	40d7d7b3          	sra	a5,a5,a3
     d58:	00e787b3          	add	a5,a5,a4
     d5c:	d05c                	c.sw	a5,36(s0)
     d5e:	5044                	c.lw	s1,36(s0)
     d60:	4c1c                	c.lw	a5,24(s0)
     d62:	8491                	c.srai	s1,0x4
     d64:	02f487b3          	mul	a5,s1,a5
     d68:	80140937          	lui	s2,0x80140
     d6c:	20092a83          	lw	s5,512(s2) # 80140200 <_DATA_LMA_START+0x60138628>
     d70:	e0000737          	lui	a4,0xe0000
     d74:	415a0ab3          	sub	s5,s4,s5
     d78:	87c9                	c.srai	a5,0x12
     d7a:	94be                	c.add	s1,a5
     d7c:	0486                	c.slli	s1,0x1
     d7e:	dc44                	c.sw	s1,60(s0)
     d80:	03577063          	bgeu	a4,s5,da0 <pm_sleep_wakeup_ram.constprop.1+0xa0>
     d84:	00098663          	beqz	s3,d90 <pm_sleep_wakeup_ram.constprop.1+0x90>
     d88:	3009a9f3          	csrrs	s3,mstatus,s3
     d8c:	0ff0000f          	fence
     d90:	06400513          	li	a0,100
     d94:	959ff0ef          	jal	ra,6ec <analog_read_reg8>
     d98:	01f57513          	andi	a0,a0,31
     d9c:	2640006f          	j	1000 <pm_sleep_wakeup_ram.constprop.1+0x300>
     da0:	04a41783          	lh	a5,74(s0)
     da4:	1137a7db          	bfoz	a5,a5,4,19
     da8:	02fafe63          	bgeu	s5,a5,de4 <pm_sleep_wakeup_ram.constprop.1+0xe4>
     dac:	45fd                	c.li	a1,31
     dae:	06400513          	li	a0,100
     db2:	801404b7          	lui	s1,0x80140
     db6:	20092403          	lw	s0,512(s2)
     dba:	30ed                	c.jal	6a4 <analog_write_reg8>
     dbc:	06400513          	li	a0,100
     dc0:	92dff0ef          	jal	ra,6ec <analog_read_reg8>
     dc4:	2004a783          	lw	a5,512(s1) # 80140200 <_DATA_LMA_START+0x60138628>
     dc8:	897d                	c.andi	a0,31
     dca:	8f81                	c.sub	a5,s0
     dcc:	0157f463          	bgeu	a5,s5,dd4 <pm_sleep_wakeup_ram.constprop.1+0xd4>
     dd0:	fe0506e3          	beqz	a0,dbc <pm_sleep_wakeup_ram.constprop.1+0xbc>
     dd4:	22098663          	beqz	s3,1000 <pm_sleep_wakeup_ram.constprop.1+0x300>
     dd8:	3009a9f3          	csrrs	s3,mstatus,s3
     ddc:	0ff0000f          	fence
     de0:	2200006f          	j	1000 <pm_sleep_wakeup_ram.constprop.1+0x300>
     de4:	1e890a83          	lb	s5,488(s2)
     de8:	00faf793          	andi	a5,s5,15
     dec:	1ef90423          	sb	a5,488(s2)
     df0:	1d890b03          	lb	s6,472(s2)
     df4:	0f8b7793          	andi	a5,s6,248
     df8:	1cf90c23          	sb	a5,472(s2)
     dfc:	00100793          	li	a5,1
     e00:	20f90c23          	sb	a5,536(s2)
     e04:	20a90783          	lb	a5,522(s2)
     e08:	0f77f793          	andi	a5,a5,247
     e0c:	20f90523          	sb	a5,522(s2)
     e10:	fccff0ef          	jal	ra,5dc <clock_get_32k_tick>
     e14:	20092703          	lw	a4,512(s2)
     e18:	20b90783          	lb	a5,523(s2)
     e1c:	5454                	c.lw	a3,44(s0)
     e1e:	0ff7f793          	andi	a5,a5,255
     e22:	0027e793          	ori	a5,a5,2
     e26:	c468                	c.sw	a0,76(s0)
     e28:	c458                	c.sw	a4,12(s0)
     e2a:	03844603          	lbu	a2,56(s0)
     e2e:	40d506b3          	sub	a3,a0,a3
     e32:	20f905a3          	sb	a5,523(s2)
     e36:	d814                	c.sw	a3,48(s0)
     e38:	e215                	c.bnez	a2,e5c <pm_sleep_wakeup_ram.constprop.1+0x15c>
     e3a:	481c                	c.lw	a5,16(s0)
     e3c:	c385                	c.beqz	a5,e5c <pm_sleep_wakeup_ram.constprop.1+0x15c>
     e3e:	05044783          	lbu	a5,80(s0)
     e42:	ef89                	c.bnez	a5,e5c <pm_sleep_wakeup_ram.constprop.1+0x15c>
     e44:	01442783          	lw	a5,20(s0)
     e48:	000276b7          	lui	a3,0x27
     e4c:	40f507b3          	sub	a5,a0,a5
     e50:	6c07a7db          	bfoz	a5,a5,27,0
     e54:	10068693          	addi	a3,a3,256 # 27100 <BIN_SIZE+0x1f4fc>
     e58:	00f6f863          	bgeu	a3,a5,e68 <pm_sleep_wakeup_ram.constprop.1+0x168>
     e5c:	00176713          	ori	a4,a4,1
     e60:	02040c23          	sb	zero,56(s0)
     e64:	c848                	c.sw	a0,20(s0)
     e66:	c818                	c.sw	a4,16(s0)
     e68:	02000593          	li	a1,32
     e6c:	04b00513          	li	a0,75
     e70:	835ff0ef          	jal	ra,6a4 <analog_write_reg8>
     e74:	01f00593          	li	a1,31
     e78:	06400513          	li	a0,100
     e7c:	829ff0ef          	jal	ra,6a4 <analog_write_reg8>
     e80:	03000593          	li	a1,48
     e84:	07e00513          	li	a0,126
     e88:	81dff0ef          	jal	ra,6a4 <analog_write_reg8>
     e8c:	0f900593          	li	a1,249
     e90:	04d00513          	li	a0,77
     e94:	811ff0ef          	jal	ra,6a4 <analog_write_reg8>
     e98:	00100593          	li	a1,1
     e9c:	07f00513          	li	a0,127
     ea0:	805ff0ef          	jal	ra,6a4 <analog_write_reg8>
     ea4:	04841783          	lh	a5,72(s0)
     ea8:	0ee00593          	li	a1,238
     eac:	1137a7db          	bfoz	a5,a5,4,19
     eb0:	04c00513          	li	a0,76
     eb4:	40fa0933          	sub	s2,s4,a5
     eb8:	fecff0ef          	jal	ra,6a4 <analog_write_reg8>
     ebc:	05441583          	lh	a1,84(s0)
     ec0:	04000513          	li	a0,64
     ec4:	0ff5f593          	andi	a1,a1,255
     ec8:	fdcff0ef          	jal	ra,6a4 <analog_write_reg8>
     ecc:	481c                	c.lw	a5,16(s0)
     ece:	07ff0737          	lui	a4,0x7ff0
     ed2:	40f907b3          	sub	a5,s2,a5
     ed6:	00f77763          	bgeu	a4,a5,ee4 <pm_sleep_wakeup_ram.constprop.1+0x1e4>
     eda:	4705                	c.li	a4,1
     edc:	00e40523          	sb	a4,10(s0)
     ee0:	0080006f          	j	ee8 <pm_sleep_wakeup_ram.constprop.1+0x1e8>
     ee4:	00040523          	sb	zero,10(s0)
     ee8:	00a44683          	lbu	a3,10(s0)
     eec:	4848                	c.lw	a0,20(s0)
     eee:	5c58                	c.lw	a4,60(s0)
     ef0:	c691                	c.beqz	a3,efc <pm_sleep_wakeup_ram.constprop.1+0x1fc>
     ef2:	02e7d7b3          	divu	a5,a5,a4
     ef6:	0796                	c.slli	a5,0x5
     ef8:	953e                	c.add	a0,a5
     efa:	a039                	c.j	f08 <pm_sleep_wakeup_ram.constprop.1+0x208>
     efc:	8085                	c.srli	s1,0x1
     efe:	0796                	c.slli	a5,0x5
     f00:	97a6                	c.add	a5,s1
     f02:	02e7d7b3          	divu	a5,a5,a4
     f06:	953e                	c.add	a0,a5
     f08:	bb0ff0ef          	jal	ra,2b8 <clock_set_32k_tick>
     f0c:	06400513          	li	a0,100
     f10:	fdcff0ef          	jal	ra,6ec <analog_read_reg8>
     f14:	01f57513          	andi	a0,a0,31
     f18:	e901                	c.bnez	a0,f28 <pm_sleep_wakeup_ram.constprop.1+0x228>
     f1a:	38d9                	c.jal	7f0 <pm_sleep_start>
     f1c:	00100593          	li	a1,1
     f20:	07f00513          	li	a0,127
     f24:	f80ff0ef          	jal	ra,6a4 <analog_write_reg8>
     f28:	80140737          	lui	a4,0x80140
     f2c:	02000793          	li	a5,32
     f30:	1ef707a3          	sb	a5,495(a4) # 801401ef <_DATA_LMA_START+0x60138617>
     f34:	00200793          	li	a5,2
     f38:	20f70c23          	sb	a5,536(a4)
     f3c:	20a70783          	lb	a5,522(a4)
     f40:	0ff7f793          	andi	a5,a5,255
     f44:	00c7e793          	ori	a5,a5,12
     f48:	20f70523          	sb	a5,522(a4)
     f4c:	e90ff0ef          	jal	ra,5dc <clock_get_32k_tick>
     f50:	00a44783          	lbu	a5,10(s0)
     f54:	cf81                	c.beqz	a5,f6c <pm_sleep_wakeup_ram.constprop.1+0x26c>
     f56:	485c                	c.lw	a5,20(s0)
     f58:	5c54                	c.lw	a3,60(s0)
     f5a:	40f507b3          	sub	a5,a0,a5
     f5e:	4818                	c.lw	a4,16(s0)
     f60:	0785                	c.addi	a5,1
     f62:	8395                	c.srli	a5,0x5
     f64:	c4d7977f          	maddr32	a4,a5,a3
     f68:	c458                	c.sw	a4,12(s0)
     f6a:	a829                	c.j	f84 <pm_sleep_wakeup_ram.constprop.1+0x284>
     f6c:	485c                	c.lw	a5,20(s0)
     f6e:	5c58                	c.lw	a4,60(s0)
     f70:	40f507b3          	sub	a5,a0,a5
     f74:	0785                	c.addi	a5,1
     f76:	02e787b3          	mul	a5,a5,a4
     f7a:	4818                	c.lw	a4,16(s0)
     f7c:	8395                	c.srli	a5,0x5
     f7e:	97ba                	c.add	a5,a4
     f80:	00f42623          	sw	a5,12(s0)
     f84:	485c                	c.lw	a5,20(s0)
     f86:	4454                	c.lw	a3,12(s0)
     f88:	40f507b3          	sub	a5,a0,a5
     f8c:	0785                	c.addi	a5,1
     f8e:	0505                	c.addi	a0,1
     f90:	d41c                	c.sw	a5,40(s0)
     f92:	0685                	c.addi	a3,1
     f94:	02a42623          	sw	a0,44(s0)
     f98:	801407b7          	lui	a5,0x80140
     f9c:	80140737          	lui	a4,0x80140
     fa0:	20d7a023          	sw	a3,512(a5) # 80140200 <_DATA_LMA_START+0x60138628>
     fa4:	20b70783          	lb	a5,523(a4) # 8014020b <_DATA_LMA_START+0x60138633>
     fa8:	be77fe5b          	bbc	a5,7,fa4 <pm_sleep_wakeup_ram.constprop.1+0x2a4>
     fac:	20070c23          	sb	zero,536(a4)
     fb0:	1d670c23          	sb	s6,472(a4)
     fb4:	06400513          	li	a0,100
     fb8:	1f570423          	sb	s5,488(a4)
     fbc:	f30ff0ef          	jal	ra,6ec <analog_read_reg8>
     fc0:	829f970b          	addigp	a4,-2008 # 80028 <g_pm_status_info>
     fc4:	00a700a3          	sb	a0,1(a4)
     fc8:	829f978b          	addigp	a5,-2008 # 80028 <g_pm_status_info>
     fcc:	00157c5b          	bbc	a0,1,fe4 <pm_sleep_wakeup_ram.constprop.1+0x2e4>
     fd0:	80140637          	lui	a2,0x80140
     fd4:	400006b7          	lui	a3,0x40000
     fd8:	20062703          	lw	a4,512(a2) # 80140200 <_DATA_LMA_START+0x60138628>
     fdc:	41470733          	sub	a4,a4,s4
     fe0:	fee6ece3          	bltu	a3,a4,fd8 <pm_sleep_wakeup_ram.constprop.1+0x2d8>
     fe4:	00098663          	beqz	s3,ff0 <pm_sleep_wakeup_ram.constprop.1+0x2f0>
     fe8:	3009a9f3          	csrrs	s3,mstatus,s3
     fec:	0ff0000f          	fence
     ff0:	0017c783          	lbu	a5,1(a5)
     ff4:	10000513          	li	a0,256
     ff8:	c781                	c.beqz	a5,1000 <pm_sleep_wakeup_ram.constprop.1+0x300>
     ffa:	40000537          	lui	a0,0x40000
     ffe:	8d5d                	c.or	a0,a5
    1000:	40f2                	c.lwsp	ra,28(sp)
    1002:	4462                	c.lwsp	s0,24(sp)
    1004:	44d2                	c.lwsp	s1,20(sp)
    1006:	4942                	c.lwsp	s2,16(sp)
    1008:	49b2                	c.lwsp	s3,12(sp)
    100a:	4a22                	c.lwsp	s4,8(sp)
    100c:	4a92                	c.lwsp	s5,4(sp)
    100e:	4b02                	c.lwsp	s6,0(sp)
    1010:	6105                	c.addi16sp	sp,32
    1012:	8082                	c.jr	ra

00001014 <trap_entry>:
    1014:	7175                	c.addi16sp	sp,-144
    1016:	c706                	c.swsp	ra,140(sp)
    1018:	c516                	c.swsp	t0,136(sp)
    101a:	c31a                	c.swsp	t1,132(sp)
    101c:	c11e                	c.swsp	t2,128(sp)
    101e:	deaa                	c.swsp	a0,124(sp)
    1020:	dcae                	c.swsp	a1,120(sp)
    1022:	dab2                	c.swsp	a2,116(sp)
    1024:	d8b6                	c.swsp	a3,112(sp)
    1026:	d6ba                	c.swsp	a4,108(sp)
    1028:	d4be                	c.swsp	a5,104(sp)
    102a:	d2c2                	c.swsp	a6,100(sp)
    102c:	d0c6                	c.swsp	a7,96(sp)
    102e:	cef2                	c.swsp	t3,92(sp)
    1030:	ccf6                	c.swsp	t4,88(sp)
    1032:	cafa                	c.swsp	t5,84(sp)
    1034:	c8fe                	c.swsp	t6,80(sp)
    1036:	e682                	c.fswsp	ft0,76(sp)
    1038:	e486                	c.fswsp	ft1,72(sp)
    103a:	e28a                	c.fswsp	ft2,68(sp)
    103c:	e08e                	c.fswsp	ft3,64(sp)
    103e:	fe12                	c.fswsp	ft4,60(sp)
    1040:	fc16                	c.fswsp	ft5,56(sp)
    1042:	fa1a                	c.fswsp	ft6,52(sp)
    1044:	f81e                	c.fswsp	ft7,48(sp)
    1046:	f62a                	c.fswsp	fa0,44(sp)
    1048:	f42e                	c.fswsp	fa1,40(sp)
    104a:	f232                	c.fswsp	fa2,36(sp)
    104c:	f036                	c.fswsp	fa3,32(sp)
    104e:	ee3a                	c.fswsp	fa4,28(sp)
    1050:	ec3e                	c.fswsp	fa5,24(sp)
    1052:	ea42                	c.fswsp	fa6,20(sp)
    1054:	e846                	c.fswsp	fa7,16(sp)
    1056:	e672                	c.fswsp	ft8,12(sp)
    1058:	e476                	c.fswsp	ft9,8(sp)
    105a:	e27a                	c.fswsp	ft10,4(sp)
    105c:	e07e                	c.fswsp	ft11,0(sp)
    105e:	34202773          	csrr	a4,mcause
    1062:	86ba                	c.mv	a3,a4
    1064:	000007b7          	lui	a5,0x0
    1068:	15878793          	addi	a5,a5,344 # 158 <_AES_VMA_END>
    106c:	00478783          	lb	a5,4(a5)
    1070:	0ff7f793          	andi	a5,a5,255
    1074:	02078463          	beqz	a5,109c <trap_entry+0x88>
    1078:	341025f3          	csrr	a1,mepc
    107c:	30002573          	csrr	a0,mstatus
    1080:	7c402673          	csrr	a2,mxstatus
    1084:	0206c063          	bltz	a3,10a4 <trap_entry+0x90>
    1088:	0006d663          	bgez	a3,1094 <trap_entry+0x80>
    108c:	7807275b          	bfoz	a4,a4,30,0
    1090:	04375e5b          	beqc	a4,3,10ec <trap_entry+0xd8>
    1094:	20000097          	auipc	ra,0x20000
    1098:	724080e7          	jalr	1828(ra) # 200017b8 <except_handler>
    109c:	4601                	c.li	a2,0
    109e:	4501                	c.li	a0,0
    10a0:	4581                	c.li	a1,0
    10a2:	b7cd                	c.j	1084 <trap_entry+0x70>
    10a4:	780727db          	bfoz	a5,a4,30,0
    10a8:	be77e05b          	bnec	a5,7,1088 <trap_entry+0x74>
    10ac:	000007b7          	lui	a5,0x0
    10b0:	15878793          	addi	a5,a5,344 # 158 <_AES_VMA_END>
    10b4:	00478783          	lb	a5,4(a5)
    10b8:	0ff7f793          	andi	a5,a5,255
    10bc:	00078863          	beqz	a5,10cc <trap_entry+0xb8>
    10c0:	08000793          	li	a5,128
    10c4:	3047b7f3          	csrrc	a5,mie,a5
    10c8:	300467f3          	csrrsi	a5,mstatus,8
    10cc:	000007b7          	lui	a5,0x0
    10d0:	15878793          	addi	a5,a5,344 # 158 <_AES_VMA_END>
    10d4:	00478783          	lb	a5,4(a5)
    10d8:	0ff7f793          	andi	a5,a5,255
    10dc:	c7b1                	c.beqz	a5,1128 <trap_entry+0x114>
    10de:	300477f3          	csrrci	a5,mstatus,8
    10e2:	08000793          	li	a5,128
    10e6:	3047a7f3          	csrrs	a5,mie,a5
    10ea:	a83d                	c.j	1128 <trap_entry+0x114>
    10ec:	e66007b7          	lui	a5,0xe6600
    10f0:	43dc                	c.lw	a5,4(a5)
    10f2:	000007b7          	lui	a5,0x0
    10f6:	15878793          	addi	a5,a5,344 # 158 <_AES_VMA_END>
    10fa:	00478783          	lb	a5,4(a5)
    10fe:	0ff7f793          	andi	a5,a5,255
    1102:	c399                	c.beqz	a5,1108 <trap_entry+0xf4>
    1104:	300467f3          	csrrsi	a5,mstatus,8
    1108:	000007b7          	lui	a5,0x0
    110c:	15878793          	addi	a5,a5,344 # 158 <_AES_VMA_END>
    1110:	00478783          	lb	a5,4(a5)
    1114:	0ff7f793          	andi	a5,a5,255
    1118:	00078463          	beqz	a5,1120 <trap_entry+0x10c>
    111c:	300477f3          	csrrci	a5,mstatus,8
    1120:	e66007b7          	lui	a5,0xe6600
    1124:	4705                	c.li	a4,1
    1126:	c3d8                	c.sw	a4,4(a5)
    1128:	000007b7          	lui	a5,0x0
    112c:	15878793          	addi	a5,a5,344 # 158 <_AES_VMA_END>
    1130:	00478783          	lb	a5,4(a5)
    1134:	0ff7f793          	andi	a5,a5,255
    1138:	00078863          	beqz	a5,1148 <trap_entry+0x134>
    113c:	30051073          	csrw	mstatus,a0
    1140:	34159073          	csrw	mepc,a1
    1144:	7c461073          	csrw	mxstatus,a2
    1148:	40ba                	c.lwsp	ra,140(sp)
    114a:	42aa                	c.lwsp	t0,136(sp)
    114c:	431a                	c.lwsp	t1,132(sp)
    114e:	438a                	c.lwsp	t2,128(sp)
    1150:	5576                	c.lwsp	a0,124(sp)
    1152:	55e6                	c.lwsp	a1,120(sp)
    1154:	5656                	c.lwsp	a2,116(sp)
    1156:	56c6                	c.lwsp	a3,112(sp)
    1158:	5736                	c.lwsp	a4,108(sp)
    115a:	57a6                	c.lwsp	a5,104(sp)
    115c:	5816                	c.lwsp	a6,100(sp)
    115e:	5886                	c.lwsp	a7,96(sp)
    1160:	4e76                	c.lwsp	t3,92(sp)
    1162:	4ee6                	c.lwsp	t4,88(sp)
    1164:	4f56                	c.lwsp	t5,84(sp)
    1166:	4fc6                	c.lwsp	t6,80(sp)
    1168:	6036                	c.flwsp	ft0,76(sp)
    116a:	60a6                	c.flwsp	ft1,72(sp)
    116c:	6116                	c.flwsp	ft2,68(sp)
    116e:	6186                	c.flwsp	ft3,64(sp)
    1170:	7272                	c.flwsp	ft4,60(sp)
    1172:	72e2                	c.flwsp	ft5,56(sp)
    1174:	7352                	c.flwsp	ft6,52(sp)
    1176:	73c2                	c.flwsp	ft7,48(sp)
    1178:	7532                	c.flwsp	fa0,44(sp)
    117a:	75a2                	c.flwsp	fa1,40(sp)
    117c:	7612                	c.flwsp	fa2,36(sp)
    117e:	7682                	c.flwsp	fa3,32(sp)
    1180:	6772                	c.flwsp	fa4,28(sp)
    1182:	67e2                	c.flwsp	fa5,24(sp)
    1184:	6852                	c.flwsp	fa6,20(sp)
    1186:	68c2                	c.flwsp	fa7,16(sp)
    1188:	6e32                	c.flwsp	ft8,12(sp)
    118a:	6ea2                	c.flwsp	ft9,8(sp)
    118c:	6f12                	c.flwsp	ft10,4(sp)
    118e:	6f82                	c.flwsp	ft11,0(sp)
    1190:	6149                	c.addi16sp	sp,144
    1192:	30200073          	mret
	...

00001200 <__vectors>:
    1200:	1014                	c.addi4spn	a3,sp,32
    1202:	0000                	unimp
    1204:	3678                	c.fld	fa4,232(a2)
    1206:	2000                	c.fld	fs0,0(s0)
    1208:	3678                	c.fld	fa4,232(a2)
    120a:	2000                	c.fld	fs0,0(s0)
    120c:	3678                	c.fld	fa4,232(a2)
    120e:	2000                	c.fld	fs0,0(s0)
    1210:	3678                	c.fld	fa4,232(a2)
    1212:	2000                	c.fld	fs0,0(s0)
    1214:	3678                	c.fld	fa4,232(a2)
    1216:	2000                	c.fld	fs0,0(s0)
    1218:	3678                	c.fld	fa4,232(a2)
    121a:	2000                	c.fld	fs0,0(s0)
    121c:	3678                	c.fld	fa4,232(a2)
    121e:	2000                	c.fld	fs0,0(s0)
    1220:	3678                	c.fld	fa4,232(a2)
    1222:	2000                	c.fld	fs0,0(s0)
    1224:	3678                	c.fld	fa4,232(a2)
    1226:	2000                	c.fld	fs0,0(s0)
    1228:	3678                	c.fld	fa4,232(a2)
    122a:	2000                	c.fld	fs0,0(s0)
    122c:	3678                	c.fld	fa4,232(a2)
    122e:	2000                	c.fld	fs0,0(s0)
    1230:	3678                	c.fld	fa4,232(a2)
    1232:	2000                	c.fld	fs0,0(s0)
    1234:	3678                	c.fld	fa4,232(a2)
    1236:	2000                	c.fld	fs0,0(s0)
    1238:	3678                	c.fld	fa4,232(a2)
    123a:	2000                	c.fld	fs0,0(s0)
    123c:	3678                	c.fld	fa4,232(a2)
    123e:	2000                	c.fld	fs0,0(s0)
    1240:	3678                	c.fld	fa4,232(a2)
    1242:	2000                	c.fld	fs0,0(s0)
    1244:	3678                	c.fld	fa4,232(a2)
    1246:	2000                	c.fld	fs0,0(s0)
    1248:	3678                	c.fld	fa4,232(a2)
    124a:	2000                	c.fld	fs0,0(s0)
    124c:	3678                	c.fld	fa4,232(a2)
    124e:	2000                	c.fld	fs0,0(s0)
    1250:	3678                	c.fld	fa4,232(a2)
    1252:	2000                	c.fld	fs0,0(s0)
    1254:	3678                	c.fld	fa4,232(a2)
    1256:	2000                	c.fld	fs0,0(s0)
    1258:	3678                	c.fld	fa4,232(a2)
    125a:	2000                	c.fld	fs0,0(s0)
    125c:	3678                	c.fld	fa4,232(a2)
    125e:	2000                	c.fld	fs0,0(s0)
    1260:	3678                	c.fld	fa4,232(a2)
    1262:	2000                	c.fld	fs0,0(s0)
    1264:	3678                	c.fld	fa4,232(a2)
    1266:	2000                	c.fld	fs0,0(s0)
    1268:	3678                	c.fld	fa4,232(a2)
    126a:	2000                	c.fld	fs0,0(s0)
    126c:	3678                	c.fld	fa4,232(a2)
    126e:	2000                	c.fld	fs0,0(s0)
    1270:	3678                	c.fld	fa4,232(a2)
    1272:	2000                	c.fld	fs0,0(s0)
    1274:	3678                	c.fld	fa4,232(a2)
    1276:	2000                	c.fld	fs0,0(s0)
    1278:	3678                	c.fld	fa4,232(a2)
    127a:	2000                	c.fld	fs0,0(s0)
    127c:	3678                	c.fld	fa4,232(a2)
    127e:	2000                	c.fld	fs0,0(s0)
    1280:	3678                	c.fld	fa4,232(a2)
    1282:	2000                	c.fld	fs0,0(s0)
    1284:	3678                	c.fld	fa4,232(a2)
    1286:	2000                	c.fld	fs0,0(s0)
    1288:	3678                	c.fld	fa4,232(a2)
    128a:	2000                	c.fld	fs0,0(s0)
    128c:	3678                	c.fld	fa4,232(a2)
    128e:	2000                	c.fld	fs0,0(s0)
    1290:	3678                	c.fld	fa4,232(a2)
    1292:	2000                	c.fld	fs0,0(s0)
    1294:	3678                	c.fld	fa4,232(a2)
    1296:	2000                	c.fld	fs0,0(s0)
    1298:	3678                	c.fld	fa4,232(a2)
    129a:	2000                	c.fld	fs0,0(s0)
    129c:	3678                	c.fld	fa4,232(a2)
    129e:	2000                	c.fld	fs0,0(s0)
    12a0:	3678                	c.fld	fa4,232(a2)
    12a2:	2000                	c.fld	fs0,0(s0)
    12a4:	3678                	c.fld	fa4,232(a2)
    12a6:	2000                	c.fld	fs0,0(s0)
    12a8:	3678                	c.fld	fa4,232(a2)
    12aa:	2000                	c.fld	fs0,0(s0)
    12ac:	3678                	c.fld	fa4,232(a2)
    12ae:	2000                	c.fld	fs0,0(s0)
    12b0:	3678                	c.fld	fa4,232(a2)
    12b2:	2000                	c.fld	fs0,0(s0)
    12b4:	3678                	c.fld	fa4,232(a2)
    12b6:	2000                	c.fld	fs0,0(s0)
    12b8:	3678                	c.fld	fa4,232(a2)
    12ba:	2000                	c.fld	fs0,0(s0)
    12bc:	3678                	c.fld	fa4,232(a2)
    12be:	2000                	c.fld	fs0,0(s0)
    12c0:	3678                	c.fld	fa4,232(a2)
    12c2:	2000                	c.fld	fs0,0(s0)
    12c4:	3678                	c.fld	fa4,232(a2)
    12c6:	2000                	c.fld	fs0,0(s0)
    12c8:	3678                	c.fld	fa4,232(a2)
    12ca:	2000                	c.fld	fs0,0(s0)
    12cc:	3678                	c.fld	fa4,232(a2)
    12ce:	2000                	c.fld	fs0,0(s0)
    12d0:	3678                	c.fld	fa4,232(a2)
    12d2:	2000                	c.fld	fs0,0(s0)
    12d4:	3678                	c.fld	fa4,232(a2)
    12d6:	2000                	c.fld	fs0,0(s0)
    12d8:	3678                	c.fld	fa4,232(a2)
    12da:	2000                	c.fld	fs0,0(s0)
    12dc:	3678                	c.fld	fa4,232(a2)
    12de:	2000                	c.fld	fs0,0(s0)
    12e0:	3678                	c.fld	fa4,232(a2)
    12e2:	2000                	c.fld	fs0,0(s0)
    12e4:	3678                	c.fld	fa4,232(a2)
    12e6:	2000                	c.fld	fs0,0(s0)
    12e8:	3678                	c.fld	fa4,232(a2)
    12ea:	2000                	c.fld	fs0,0(s0)
    12ec:	3678                	c.fld	fa4,232(a2)
    12ee:	2000                	c.fld	fs0,0(s0)
    12f0:	3678                	c.fld	fa4,232(a2)
    12f2:	2000                	c.fld	fs0,0(s0)
    12f4:	3678                	c.fld	fa4,232(a2)
    12f6:	2000                	c.fld	fs0,0(s0)
    12f8:	3678                	c.fld	fa4,232(a2)
    12fa:	2000                	c.fld	fs0,0(s0)
    12fc:	3678                	c.fld	fa4,232(a2)
    12fe:	2000                	c.fld	fs0,0(s0)
    1300:	0001                	c.nop

Disassembly of section .text:

20001458 <flash_read_uid>:
20001458:	7d047073          	csrci	mmisc_ctl,8
2000145c:	40b5565b          	beqc	a0,75,20001468 <flash_read_uid+0x10>
20001460:	7d046073          	csrsi	mmisc_ctl,8
20001464:	00008067          	ret
20001468:	1141                	c.addi	sp,-16
2000146a:	c606                	c.swsp	ra,12(sp)
2000146c:	872e                	c.mv	a4,a1
2000146e:	47c1                	c.li	a5,16
20001470:	4691                	c.li	a3,4
20001472:	4601                	c.li	a2,0
20001474:	00000593          	li	a1,0
20001478:	dffff097          	auipc	ra,0xdffff
2000147c:	f58080e7          	jalr	-168(ra) # 3d0 <flash_mspi_read_ram>
20001480:	7d046073          	csrsi	mmisc_ctl,8
20001484:	40b2                	c.lwsp	ra,12(sp)
20001486:	0141                	c.addi	sp,16
20001488:	00008067          	ret

2000148c <flash_read_mid>:
2000148c:	1101                	c.addi	sp,-32
2000148e:	ce06                	c.swsp	ra,28(sp)
20001490:	c602                	c.swsp	zero,12(sp)
20001492:	7d047073          	csrci	mmisc_ctl,8
20001496:	478d                	c.li	a5,3
20001498:	0078                	c.addi4spn	a4,sp,12
2000149a:	4681                	c.li	a3,0
2000149c:	4601                	c.li	a2,0
2000149e:	4581                	c.li	a1,0
200014a0:	09f00513          	li	a0,159
200014a4:	dffff097          	auipc	ra,0xdffff
200014a8:	f2c080e7          	jalr	-212(ra) # 3d0 <flash_mspi_read_ram>
200014ac:	7d046073          	csrsi	mmisc_ctl,8
200014b0:	4532                	c.lwsp	a0,12(sp)
200014b2:	40f2                	c.lwsp	ra,28(sp)
200014b4:	6105                	c.addi16sp	sp,32
200014b6:	8082                	c.jr	ra

200014b8 <flash_read_mid_uid_with_check>:
200014b8:	1101                	c.addi	sp,-32
200014ba:	ce06                	c.swsp	ra,28(sp)
200014bc:	cc22                	c.swsp	s0,24(sp)
200014be:	ca26                	c.swsp	s1,20(sp)
200014c0:	84aa                	c.mv	s1,a0
200014c2:	842e                	c.mv	s0,a1
200014c4:	200067b7          	lui	a5,0x20006
200014c8:	9c878793          	addi	a5,a5,-1592 # 200059c8 <__riscv_restore_0+0xc>
200014cc:	4390                	c.lw	a2,0(a5)
200014ce:	43d4                	c.lw	a3,4(a5)
200014d0:	4798                	c.lw	a4,8(a5)
200014d2:	c032                	c.swsp	a2,0(sp)
200014d4:	c236                	c.swsp	a3,4(sp)
200014d6:	c43a                	c.swsp	a4,8(sp)
200014d8:	47dc                	c.lw	a5,12(a5)
200014da:	c63e                	c.swsp	a5,12(sp)
200014dc:	fb1ff0ef          	jal	ra,2000148c <flash_read_mid>
200014e0:	c088                	c.sw	a0,0(s1)
200014e2:	4481                	c.li	s1,0
200014e4:	4789                	c.li	a5,2
200014e6:	0297e163          	bltu	a5,s1,20001508 <flash_read_mid_uid_with_check+0x50>
200014ea:	200067b7          	lui	a5,0x20006
200014ee:	9d878793          	addi	a5,a5,-1576 # 200059d8 <flash_support_mid>
200014f2:	0c9787db          	lea.w	a5,a5,s1
200014f6:	439c                	c.lw	a5,0(a5)
200014f8:	00f50463          	beq	a0,a5,20001500 <flash_read_mid_uid_with_check+0x48>
200014fc:	0485                	c.addi	s1,1
200014fe:	b7dd                	c.j	200014e4 <flash_read_mid_uid_with_check+0x2c>
20001500:	85a2                	c.mv	a1,s0
20001502:	04b00513          	li	a0,75
20001506:	3f89                	c.jal	20001458 <flash_read_uid>
20001508:	0434d45b          	beqc	s1,3,20001550 <flash_read_mid_uid_with_check+0x98>
2000150c:	4601                	c.li	a2,0
2000150e:	4781                	c.li	a5,0
20001510:	0080006f          	j	20001518 <flash_read_mid_uid_with_check+0x60>
20001514:	00178793          	addi	a5,a5,1
20001518:	473d                	c.li	a4,15
2000151a:	00f76f63          	bltu	a4,a5,20001538 <flash_read_mid_uid_with_check+0x80>
2000151e:	00f40733          	add	a4,s0,a5
20001522:	00074683          	lbu	a3,0(a4)
20001526:	080c                	c.addi4spn	a1,sp,16
20001528:	00f58733          	add	a4,a1,a5
2000152c:	ff074703          	lbu	a4,-16(a4)
20001530:	fee692e3          	bne	a3,a4,20001514 <flash_read_mid_uid_with_check+0x5c>
20001534:	0605                	c.addi	a2,1
20001536:	bff9                	c.j	20001514 <flash_read_mid_uid_with_check+0x5c>
20001538:	01065a5b          	beqc	a2,16,2000154c <flash_read_mid_uid_with_check+0x94>
2000153c:	00100513          	li	a0,1
20001540:	40f2                	c.lwsp	ra,28(sp)
20001542:	4462                	c.lwsp	s0,24(sp)
20001544:	44d2                	c.lwsp	s1,20(sp)
20001546:	6105                	c.addi16sp	sp,32
20001548:	00008067          	ret
2000154c:	4501                	c.li	a0,0
2000154e:	bfcd                	c.j	20001540 <flash_read_mid_uid_with_check+0x88>
20001550:	4501                	c.li	a0,0
20001552:	b7fd                	c.j	20001540 <flash_read_mid_uid_with_check+0x88>

20001554 <flash_dread>:
20001554:	1141                	c.addi	sp,-16
20001556:	c606                	c.swsp	ra,12(sp)
20001558:	87ae                	c.mv	a5,a1
2000155a:	8732                	c.mv	a4,a2
2000155c:	7d047073          	csrci	mmisc_ctl,8
20001560:	4685                	c.li	a3,1
20001562:	4605                	c.li	a2,1
20001564:	00a005b3          	add	a1,zero,a0
20001568:	03b00513          	li	a0,59
2000156c:	dffff097          	auipc	ra,0xdffff
20001570:	e64080e7          	jalr	-412(ra) # 3d0 <flash_mspi_read_ram>
20001574:	7d046073          	csrsi	mmisc_ctl,8
20001578:	40b2                	c.lwsp	ra,12(sp)
2000157a:	0141                	c.addi	sp,16
2000157c:	00008067          	ret

20001580 <clock_init>:
20001580:	1141                	c.addi	sp,-16
20001582:	c606                	c.swsp	ra,12(sp)
20001584:	7d047073          	csrci	mmisc_ctl,8
20001588:	dffff097          	auipc	ra,0xdffff
2000158c:	544080e7          	jalr	1348(ra) # acc <clock_init_ram>
20001590:	7d046073          	csrsi	mmisc_ctl,8
20001594:	40b2                	c.lwsp	ra,12(sp)
20001596:	0141                	c.addi	sp,16
20001598:	00008067          	ret

2000159c <pm_sleep_wakeup.constprop.0>:
2000159c:	1141                	c.addi	sp,-16
2000159e:	c606                	c.swsp	ra,12(sp)
200015a0:	7d047073          	csrci	mmisc_ctl,8
200015a4:	dffff097          	auipc	ra,0xdffff
200015a8:	75c080e7          	jalr	1884(ra) # d00 <pm_sleep_wakeup_ram.constprop.1>
200015ac:	7d046073          	csrsi	mmisc_ctl,8
200015b0:	40b2                	c.lwsp	ra,12(sp)
200015b2:	0141                	c.addi	sp,16
200015b4:	8082                	c.jr	ra
	...

200015b8 <efuse_get_adc_calib_value>:
200015b8:	80140737          	lui	a4,0x80140
200015bc:	06500793          	li	a5,101
200015c0:	1ef70a23          	sb	a5,500(a4) # 801401f4 <_DATA_LMA_START+0x6013861c>
200015c4:	1c872783          	lw	a5,456(a4)
200015c8:	1e070a23          	sb	zero,500(a4)
200015cc:	4c47a7db          	bfoz	a5,a5,19,4
200015d0:	3807a75b          	bfoz	a4,a5,14,0
200015d4:	cf11                	c.beqz	a4,200015f0 <efuse_get_adc_calib_value+0x38>
200015d6:	1ff7f793          	andi	a5,a5,511
200015da:	3e878793          	addi	a5,a5,1000
200015de:	8325                	c.srli	a4,0x9
200015e0:	00f51023          	sh	a5,0(a0) # 40000000 <_DATA_LMA_START+0x1fff8428>
200015e4:	1731                	c.addi	a4,-20
200015e6:	00e58023          	sb	a4,0(a1)
200015ea:	4505                	c.li	a0,1
200015ec:	00008067          	ret
200015f0:	4501                	c.li	a0,0
200015f2:	8082                	c.jr	ra
200015f4:	0001                	c.nop
	...

200015f8 <user_calib_adc_vref>:
200015f8:	1101                	c.addi	sp,-32
200015fa:	ce06                	c.swsp	ra,28(sp)
200015fc:	c402                	c.swsp	zero,8(sp)
200015fe:	00011623          	sh	zero,12(sp)
20001602:	00010723          	sb	zero,14(sp)
20001606:	00011323          	sh	zero,6(sp)
2000160a:	000102a3          	sb	zero,5(sp)
2000160e:	c1bd                	c.beqz	a1,20001674 <user_calib_adc_vref+0x7c>
20001610:	87ae                	c.mv	a5,a1
20001612:	00156b5b          	bnec	a0,1,20001628 <user_calib_adc_vref+0x30>
20001616:	00000737          	lui	a4,0x0
2000161a:	15872703          	lw	a4,344(a4) # 158 <_AES_VMA_END>
2000161e:	0030                	c.addi4spn	a2,sp,8
20001620:	459d                	c.li	a1,7
20001622:	853e                	c.mv	a0,a5
20001624:	000700e7          	jalr	a4
20001628:	00c14703          	lbu	a4,12(sp)
2000162c:	1c0737db          	bfos	a5,a4,7,0
20001630:	0607ce63          	bltz	a5,200016ac <user_calib_adc_vref+0xb4>
20001634:	00e14583          	lbu	a1,14(sp)
20001638:	00859613          	slli	a2,a1,0x8
2000163c:	00d14783          	lbu	a5,13(sp)
20001640:	963e                	c.add	a2,a5
20001642:	66c1                	c.lui	a3,0x10
20001644:	16fd                	c.addi	a3,-1
20001646:	06d60363          	beq	a2,a3,200016ac <user_calib_adc_vref+0xb4>
2000164a:	1731                	c.addi	a4,-20
2000164c:	1c07375b          	bfos	a4,a4,7,0
20001650:	fd060793          	addi	a5,a2,-48
20001654:	3c07a7db          	bfoz	a5,a5,15,0
20001658:	0fb00693          	li	a3,251
2000165c:	0af6ea63          	bltu	a3,a5,20001710 <user_calib_adc_vref+0x118>
20001660:	57b5                	c.li	a5,-19
20001662:	0af74d63          	blt	a4,a5,2000171c <user_calib_adc_vref+0x124>
20001666:	06a00793          	li	a5,106
2000166a:	0ae7db63          	bge	a5,a4,20001720 <user_calib_adc_vref+0x128>
2000166e:	4501                	c.li	a0,0
20001670:	0a40006f          	j	20001714 <user_calib_adc_vref+0x11c>
20001674:	00510593          	addi	a1,sp,5
20001678:	00610513          	addi	a0,sp,6
2000167c:	f3dff0ef          	jal	ra,200015b8 <efuse_get_adc_calib_value>
20001680:	c951                	c.beqz	a0,20001714 <user_calib_adc_vref+0x11c>
20001682:	00611783          	lh	a5,6(sp)
20001686:	bb378793          	addi	a5,a5,-1101
2000168a:	3c07a7db          	bfoz	a5,a5,15,0
2000168e:	0c600713          	li	a4,198
20001692:	06f76963          	bltu	a4,a5,20001704 <user_calib_adc_vref+0x10c>
20001696:	00510783          	lb	a5,5(sp)
2000169a:	5735                	c.li	a4,-19
2000169c:	06e7c663          	blt	a5,a4,20001708 <user_calib_adc_vref+0x110>
200016a0:	02a00713          	li	a4,42
200016a4:	06f75463          	bge	a4,a5,2000170c <user_calib_adc_vref+0x114>
200016a8:	4501                	c.li	a0,0
200016aa:	a0ad                	c.j	20001714 <user_calib_adc_vref+0x11c>
200016ac:	00510593          	addi	a1,sp,5
200016b0:	00610513          	addi	a0,sp,6
200016b4:	f05ff0ef          	jal	ra,200015b8 <efuse_get_adc_calib_value>
200016b8:	c515                	c.beqz	a0,200016e4 <user_calib_adc_vref+0xec>
200016ba:	00611783          	lh	a5,6(sp)
200016be:	bb378793          	addi	a5,a5,-1101
200016c2:	3c07a7db          	bfoz	a5,a5,15,0
200016c6:	0c600713          	li	a4,198
200016ca:	04f76d63          	bltu	a4,a5,20001724 <user_calib_adc_vref+0x12c>
200016ce:	00510783          	lb	a5,5(sp)
200016d2:	5735                	c.li	a4,-19
200016d4:	04e7ca63          	blt	a5,a4,20001728 <user_calib_adc_vref+0x130>
200016d8:	02a00713          	li	a4,42
200016dc:	04f75863          	bge	a4,a5,2000172c <user_calib_adc_vref+0x134>
200016e0:	4501                	c.li	a0,0
200016e2:	a80d                	c.j	20001714 <user_calib_adc_vref+0x11c>
200016e4:	00814783          	lbu	a5,8(sp)
200016e8:	00914703          	lbu	a4,9(sp)
200016ec:	97ba                	c.add	a5,a4
200016ee:	f8078793          	addi	a5,a5,-128
200016f2:	3c07a7db          	bfoz	a5,a5,15,0
200016f6:	0fb00713          	li	a4,251
200016fa:	00f76d63          	bltu	a4,a5,20001714 <user_calib_adc_vref+0x11c>
200016fe:	4505                	c.li	a0,1
20001700:	0140006f          	j	20001714 <user_calib_adc_vref+0x11c>
20001704:	4501                	c.li	a0,0
20001706:	a039                	c.j	20001714 <user_calib_adc_vref+0x11c>
20001708:	4501                	c.li	a0,0
2000170a:	a029                	c.j	20001714 <user_calib_adc_vref+0x11c>
2000170c:	4505                	c.li	a0,1
2000170e:	a019                	c.j	20001714 <user_calib_adc_vref+0x11c>
20001710:	00000513          	li	a0,0
20001714:	40f2                	c.lwsp	ra,28(sp)
20001716:	6105                	c.addi16sp	sp,32
20001718:	00008067          	ret
2000171c:	4501                	c.li	a0,0
2000171e:	bfdd                	c.j	20001714 <user_calib_adc_vref+0x11c>
20001720:	4505                	c.li	a0,1
20001722:	bfcd                	c.j	20001714 <user_calib_adc_vref+0x11c>
20001724:	4501                	c.li	a0,0
20001726:	b7fd                	c.j	20001714 <user_calib_adc_vref+0x11c>
20001728:	4501                	c.li	a0,0
2000172a:	b7ed                	c.j	20001714 <user_calib_adc_vref+0x11c>
2000172c:	4505                	c.li	a0,1
2000172e:	b7dd                	c.j	20001714 <user_calib_adc_vref+0x11c>

20001730 <measure_stack_usage.lto_priv.9>:
20001730:	00200533          	add	a0,zero,sp
20001734:	82ffa7ab          	lwgp	a5,-2004 # 8002c <stack_limit>
20001738:	00a7fc63          	bgeu	a5,a0,20001750 <measure_stack_usage.lto_priv.9+0x20>
2000173c:	4394                	c.lw	a3,0(a5)
2000173e:	aaaab737          	lui	a4,0xaaaab
20001742:	aaa70713          	addi	a4,a4,-1366 # aaaaaaaa <_DATA_LMA_START+0x8aaa2ed2>
20001746:	00e69563          	bne	a3,a4,20001750 <measure_stack_usage.lto_priv.9+0x20>
2000174a:	0791                	c.addi	a5,4
2000174c:	fedff06f          	j	20001738 <measure_stack_usage.lto_priv.9+0x8>
20001750:	8d1d                	c.sub	a0,a5
20001752:	8082                	c.jr	ra
20001754:	0001                	c.nop
	...

20001758 <fill_stack_pattern_to_sp.lto_priv.11>:
20001758:	868a                	c.mv	a3,sp
2000175a:	82ffa7ab          	lwgp	a5,-2004 # 8002c <stack_limit>
2000175e:	a039                	c.j	2000176c <fill_stack_pattern_to_sp.lto_priv.11+0x14>
20001760:	aaaab737          	lui	a4,0xaaaab
20001764:	aaa70713          	addi	a4,a4,-1366 # aaaaaaaa <_DATA_LMA_START+0x8aaa2ed2>
20001768:	c398                	c.sw	a4,0(a5)
2000176a:	0791                	c.addi	a5,4
2000176c:	fed7eae3          	bltu	a5,a3,20001760 <fill_stack_pattern_to_sp.lto_priv.11+0x8>
20001770:	8082                	c.jr	ra
	...

20001774 <measure_stack_usage.lto_priv.8>:
20001774:	00200533          	add	a0,zero,sp
20001778:	82ffa7ab          	lwgp	a5,-2004 # 8002c <stack_limit>
2000177c:	00a7fc63          	bgeu	a5,a0,20001794 <measure_stack_usage.lto_priv.8+0x20>
20001780:	4394                	c.lw	a3,0(a5)
20001782:	aaaab737          	lui	a4,0xaaaab
20001786:	aaa70713          	addi	a4,a4,-1366 # aaaaaaaa <_DATA_LMA_START+0x8aaa2ed2>
2000178a:	00e69563          	bne	a3,a4,20001794 <measure_stack_usage.lto_priv.8+0x20>
2000178e:	0791                	c.addi	a5,4
20001790:	fedff06f          	j	2000177c <measure_stack_usage.lto_priv.8+0x8>
20001794:	8d1d                	c.sub	a0,a5
20001796:	8082                	c.jr	ra
20001798:	0001                	c.nop
	...

2000179c <fill_stack_pattern_to_sp.lto_priv.10>:
2000179c:	868a                	c.mv	a3,sp
2000179e:	82ffa7ab          	lwgp	a5,-2004 # 8002c <stack_limit>
200017a2:	a039                	c.j	200017b0 <fill_stack_pattern_to_sp.lto_priv.10+0x14>
200017a4:	aaaab737          	lui	a4,0xaaaab
200017a8:	aaa70713          	addi	a4,a4,-1366 # aaaaaaaa <_DATA_LMA_START+0x8aaa2ed2>
200017ac:	c398                	c.sw	a4,0(a5)
200017ae:	0791                	c.addi	a5,4
200017b0:	fed7eae3          	bltu	a5,a3,200017a4 <fill_stack_pattern_to_sp.lto_priv.10+0x8>
200017b4:	8082                	c.jr	ra
	...

200017b8 <except_handler>:
200017b8:	34302773          	csrr	a4,mtval
200017bc:	82efc1ab          	swgp	a4,-2016 # 80020 <exception_mtval>
200017c0:	34102773          	csrr	a4,mepc
200017c4:	80efcdab          	swgp	a4,-2024 # 80018 <exception_mepc>
200017c8:	30002773          	csrr	a4,mstatus
200017cc:	80efcfab          	swgp	a4,-2020 # 8001c <exception_mstatus>
200017d0:	34202773          	csrr	a4,mcause
200017d4:	80efc9ab          	swgp	a4,-2032 # 80010 <_BSS_VMA_START>
200017d8:	7c902773          	csrr	a4,mdcause
200017dc:	80efcbab          	swgp	a4,-2028 # 80014 <exception_mdcause>
200017e0:	0001                	c.nop
200017e2:	bffd                	c.j	200017e0 <except_handler+0x28>

200017e4 <read_cycle_counter.lto_priv.13>:
200017e4:	b0002573          	csrr	a0,mcycle
200017e8:	8082                	c.jr	ra
	...

200017ec <read_cycle_counter.lto_priv.12>:
200017ec:	b0002573          	csrr	a0,mcycle
200017f0:	8082                	c.jr	ra
	...

200017f4 <rf_update_internal_cap>:
200017f4:	1141                	c.addi	sp,-16
200017f6:	c422                	c.swsp	s0,8(sp)
200017f8:	842a                	c.mv	s0,a0
200017fa:	08a00513          	li	a0,138
200017fe:	c606                	c.swsp	ra,12(sp)
20001800:	03f47413          	andi	s0,s0,63
20001804:	dffff097          	auipc	ra,0xdffff
20001808:	ee8080e7          	jalr	-280(ra) # 6ec <analog_read_reg8>
2000180c:	04057593          	andi	a1,a0,64
20001810:	8dc1                	c.or	a1,s0
20001812:	4422                	c.lwsp	s0,8(sp)
20001814:	40b2                	c.lwsp	ra,12(sp)
20001816:	08a00513          	li	a0,138
2000181a:	0141                	c.addi	sp,16
2000181c:	dffff317          	auipc	t1,0xdffff
20001820:	e8830067          	jr	-376(t1) # 6a4 <analog_write_reg8>
20001824:	0001                	c.nop
	...

20001828 <user_calib_freq_offset>:
20001828:	1101                	c.addi	sp,-32
2000182a:	ce06                	c.swsp	ra,28(sp)
2000182c:	57fd                	c.li	a5,-1
2000182e:	00f107a3          	sb	a5,15(sp)
20001832:	00156d5b          	bnec	a0,1,2000184c <user_calib_freq_offset+0x24>
20001836:	872e                	c.mv	a4,a1
20001838:	000007b7          	lui	a5,0x0
2000183c:	1587a783          	lw	a5,344(a5) # 158 <_AES_VMA_END>
20001840:	00f10613          	addi	a2,sp,15
20001844:	4585                	c.li	a1,1
20001846:	853a                	c.mv	a0,a4
20001848:	000780e7          	jalr	a5
2000184c:	00f14503          	lbu	a0,15(sp)
20001850:	0ff00793          	li	a5,255
20001854:	00f50a63          	beq	a0,a5,20001868 <user_calib_freq_offset+0x40>
20001858:	f9dff0ef          	jal	ra,200017f4 <rf_update_internal_cap>
2000185c:	00100513          	li	a0,1
20001860:	40f2                	c.lwsp	ra,28(sp)
20001862:	6105                	c.addi16sp	sp,32
20001864:	00008067          	ret
20001868:	4501                	c.li	a0,0
2000186a:	bfdd                	c.j	20001860 <user_calib_freq_offset+0x38>
2000186c:	0001                	c.nop
	...

20001870 <user_read_flash_value_calib>:
20001870:	7179                	c.addi16sp	sp,-48
20001872:	d606                	c.swsp	ra,44(sp)
20001874:	006c                	c.addi4spn	a1,sp,12
20001876:	0868                	c.addi4spn	a0,sp,28
20001878:	c41ff0ef          	jal	ra,200014b8 <flash_read_mid_uid_with_check>
2000187c:	0ff57513          	andi	a0,a0,255
20001880:	0c15625b          	bnec	a0,1,20001944 <user_read_flash_value_calib+0xd4>
20001884:	01e14783          	lbu	a5,30(sp)
20001888:	0737d45b          	beqc	a5,19,200018f0 <user_read_flash_value_calib+0x80>
2000188c:	474d                	c.li	a4,19
2000188e:	02f77563          	bgeu	a4,a5,200018b8 <user_read_flash_value_calib+0x48>
20001892:	0957d75b          	beqc	a5,21,20001920 <user_read_flash_value_calib+0xb0>
20001896:	4755                	c.li	a4,21
20001898:	06e7e863          	bltu	a5,a4,20001908 <user_read_flash_value_calib+0x98>
2000189c:	0967ee5b          	bnec	a5,22,20001938 <user_read_flash_value_calib+0xc8>
200018a0:	003fe5b7          	lui	a1,0x3fe
200018a4:	0c058593          	addi	a1,a1,192 # 3fe0c0 <FLASH_SIZE+0x2fe0c0>
200018a8:	4505                	c.li	a0,1
200018aa:	33b9                	c.jal	200015f8 <user_calib_adc_vref>
200018ac:	003fe5b7          	lui	a1,0x3fe
200018b0:	4505                	c.li	a0,1
200018b2:	3f9d                	c.jal	20001828 <user_calib_freq_offset>
200018b4:	0980006f          	j	2000194c <user_read_flash_value_calib+0xdc>
200018b8:	0307d05b          	beqc	a5,16,200018d8 <user_read_flash_value_calib+0x68>
200018bc:	0717ee5b          	bnec	a5,17,20001938 <user_read_flash_value_calib+0xc8>
200018c0:	65f9                	c.lui	a1,0x1e
200018c2:	0c058593          	addi	a1,a1,192 # 1e0c0 <BIN_SIZE+0x164bc>
200018c6:	4505                	c.li	a0,1
200018c8:	d31ff0ef          	jal	ra,200015f8 <user_calib_adc_vref>
200018cc:	65f9                	c.lui	a1,0x1e
200018ce:	4505                	c.li	a0,1
200018d0:	f59ff0ef          	jal	ra,20001828 <user_calib_freq_offset>
200018d4:	0780006f          	j	2000194c <user_read_flash_value_calib+0xdc>
200018d8:	65b9                	c.lui	a1,0xe
200018da:	0c058593          	addi	a1,a1,192 # e0c0 <BIN_SIZE+0x64bc>
200018de:	4505                	c.li	a0,1
200018e0:	d19ff0ef          	jal	ra,200015f8 <user_calib_adc_vref>
200018e4:	65b9                	c.lui	a1,0xe
200018e6:	4505                	c.li	a0,1
200018e8:	f41ff0ef          	jal	ra,20001828 <user_calib_freq_offset>
200018ec:	0600006f          	j	2000194c <user_read_flash_value_calib+0xdc>
200018f0:	0007e5b7          	lui	a1,0x7e
200018f4:	0c058593          	addi	a1,a1,192 # 7e0c0 <BIN_SIZE+0x764bc>
200018f8:	4505                	c.li	a0,1
200018fa:	39fd                	c.jal	200015f8 <user_calib_adc_vref>
200018fc:	0007e5b7          	lui	a1,0x7e
20001900:	4505                	c.li	a0,1
20001902:	371d                	c.jal	20001828 <user_calib_freq_offset>
20001904:	0480006f          	j	2000194c <user_read_flash_value_calib+0xdc>
20001908:	000fe5b7          	lui	a1,0xfe
2000190c:	0c058593          	addi	a1,a1,192 # fe0c0 <_STACK_TOP+0x5e0c0>
20001910:	4505                	c.li	a0,1
20001912:	31dd                	c.jal	200015f8 <user_calib_adc_vref>
20001914:	000fe5b7          	lui	a1,0xfe
20001918:	4505                	c.li	a0,1
2000191a:	3739                	c.jal	20001828 <user_calib_freq_offset>
2000191c:	0300006f          	j	2000194c <user_read_flash_value_calib+0xdc>
20001920:	001fe5b7          	lui	a1,0x1fe
20001924:	0c058593          	addi	a1,a1,192 # 1fe0c0 <FLASH_SIZE+0xfe0c0>
20001928:	4505                	c.li	a0,1
2000192a:	31f9                	c.jal	200015f8 <user_calib_adc_vref>
2000192c:	001fe5b7          	lui	a1,0x1fe
20001930:	4505                	c.li	a0,1
20001932:	3ddd                	c.jal	20001828 <user_calib_freq_offset>
20001934:	0180006f          	j	2000194c <user_read_flash_value_calib+0xdc>
20001938:	4581                	c.li	a1,0
2000193a:	4505                	c.li	a0,1
2000193c:	cbdff0ef          	jal	ra,200015f8 <user_calib_adc_vref>
20001940:	00c0006f          	j	2000194c <user_read_flash_value_calib+0xdc>
20001944:	4581                	c.li	a1,0
20001946:	4505                	c.li	a0,1
20001948:	cb1ff0ef          	jal	ra,200015f8 <user_calib_adc_vref>
2000194c:	50b2                	c.lwsp	ra,44(sp)
2000194e:	6145                	c.addi16sp	sp,48
20001950:	8082                	c.jr	ra
20001952:	0001                	c.nop

20001954 <gpio_set_up_down_res>:
20001954:	1101                	c.addi	sp,-32
20001956:	ce06                	c.swsp	ra,28(sp)
20001958:	cc22                	c.swsp	s0,24(sp)
2000195a:	ca26                	c.swsp	s1,20(sp)
2000195c:	c84a                	c.swsp	s2,16(sp)
2000195e:	c64e                	c.swsp	s3,12(sp)
20001960:	0035f913          	andi	s2,a1,3
20001964:	00855413          	srli	s0,a0,0x8
20001968:	0474245b          	bfoz	s0,s0,1,7
2000196c:	0f057793          	andi	a5,a0,240
20001970:	00f037b3          	snez	a5,a5
20001974:	943e                	c.add	s0,a5
20001976:	0439                	c.addi	s0,14
20001978:	0ff47413          	andi	s0,s0,255
2000197c:	01157793          	andi	a5,a0,17
20001980:	ef91                	c.bnez	a5,2000199c <gpio_set_up_down_res+0x48>
20001982:	02257793          	andi	a5,a0,34
20001986:	ef99                	c.bnez	a5,200019a4 <gpio_set_up_down_res+0x50>
20001988:	04457793          	andi	a5,a0,68
2000198c:	ebb1                	c.bnez	a5,200019e0 <gpio_set_up_down_res+0x8c>
2000198e:	08857513          	andi	a0,a0,136
20001992:	cd1d                	c.beqz	a0,200019d0 <gpio_set_up_down_res+0x7c>
20001994:	03f00493          	li	s1,63
20001998:	4999                	c.li	s3,6
2000199a:	a809                	c.j	200019ac <gpio_set_up_down_res+0x58>
2000199c:	0fc00493          	li	s1,252
200019a0:	4981                	c.li	s3,0
200019a2:	a029                	c.j	200019ac <gpio_set_up_down_res+0x58>
200019a4:	0f300493          	li	s1,243
200019a8:	00200993          	li	s3,2
200019ac:	00800533          	add	a0,zero,s0
200019b0:	dffff097          	auipc	ra,0xdffff
200019b4:	d3c080e7          	jalr	-708(ra) # 6ec <analog_read_reg8>
200019b8:	013915b3          	sll	a1,s2,s3
200019bc:	8d65                	c.and	a0,s1
200019be:	8dc9                	c.or	a1,a0
200019c0:	0ff5f593          	andi	a1,a1,255
200019c4:	00800533          	add	a0,zero,s0
200019c8:	dffff097          	auipc	ra,0xdffff
200019cc:	cdc080e7          	jalr	-804(ra) # 6a4 <analog_write_reg8>
200019d0:	40f2                	c.lwsp	ra,28(sp)
200019d2:	4462                	c.lwsp	s0,24(sp)
200019d4:	44d2                	c.lwsp	s1,20(sp)
200019d6:	4942                	c.lwsp	s2,16(sp)
200019d8:	49b2                	c.lwsp	s3,12(sp)
200019da:	6105                	c.addi16sp	sp,32
200019dc:	00008067          	ret
200019e0:	0cf00493          	li	s1,207
200019e4:	4991                	c.li	s3,4
200019e6:	b7d9                	c.j	200019ac <gpio_set_up_down_res+0x58>

200019e8 <gpio_input_dis>:
200019e8:	6785                	c.lui	a5,0x1
200019ea:	f0078793          	addi	a5,a5,-256 # f00 <pm_sleep_wakeup_ram.constprop.1+0x200>
200019ee:	8fe9                	c.and	a5,a0
200019f0:	cb95                	c.beqz	a5,20001a24 <gpio_input_dis+0x3c>
200019f2:	10000713          	li	a4,256
200019f6:	02e78763          	beq	a5,a4,20001a24 <gpio_input_dis+0x3c>
200019fa:	40000713          	li	a4,1024
200019fe:	02e78363          	beq	a5,a4,20001a24 <gpio_input_dis+0x3c>
20001a02:	1141                	c.addi	sp,-16
20001a04:	c606                	c.swsp	ra,12(sp)
20001a06:	c422                	c.swsp	s0,8(sp)
20001a08:	00a00433          	add	s0,zero,a0
20001a0c:	20000713          	li	a4,512
20001a10:	04e78063          	beq	a5,a4,20001a50 <gpio_input_dis+0x68>
20001a14:	30000713          	li	a4,768
20001a18:	06e78063          	beq	a5,a4,20001a78 <gpio_input_dis+0x90>
20001a1c:	40b2                	c.lwsp	ra,12(sp)
20001a1e:	4422                	c.lwsp	s0,8(sp)
20001a20:	0141                	c.addi	sp,16
20001a22:	8082                	c.jr	ra
20001a24:	00855793          	srli	a5,a0,0x8
20001a28:	00140737          	lui	a4,0x140
20001a2c:	30170713          	addi	a4,a4,769 # 140301 <FLASH_SIZE+0x40301>
20001a30:	0ef707db          	lea.d	a5,a4,a5
20001a34:	80000737          	lui	a4,0x80000
20001a38:	8fd9                	c.or	a5,a4
20001a3a:	00078703          	lb	a4,0(a5)
20001a3e:	fff54513          	not	a0,a0
20001a42:	8d79                	c.and	a0,a4
20001a44:	0ff57513          	andi	a0,a0,255
20001a48:	00a78023          	sb	a0,0(a5)
20001a4c:	00008067          	ret
20001a50:	0bd00513          	li	a0,189
20001a54:	dffff097          	auipc	ra,0xdffff
20001a58:	c98080e7          	jalr	-872(ra) # 6ec <analog_read_reg8>
20001a5c:	fff44413          	not	s0,s0
20001a60:	00a47433          	and	s0,s0,a0
20001a64:	0ff47593          	andi	a1,s0,255
20001a68:	0bd00513          	li	a0,189
20001a6c:	dffff097          	auipc	ra,0xdffff
20001a70:	c38080e7          	jalr	-968(ra) # 6a4 <analog_write_reg8>
20001a74:	fa9ff06f          	j	20001a1c <gpio_input_dis+0x34>
20001a78:	0c000513          	li	a0,192
20001a7c:	dffff097          	auipc	ra,0xdffff
20001a80:	c70080e7          	jalr	-912(ra) # 6ec <analog_read_reg8>
20001a84:	fff44413          	not	s0,s0
20001a88:	00a47433          	and	s0,s0,a0
20001a8c:	0ff47593          	andi	a1,s0,255
20001a90:	0c000513          	li	a0,192
20001a94:	dffff097          	auipc	ra,0xdffff
20001a98:	c10080e7          	jalr	-1008(ra) # 6a4 <analog_write_reg8>
20001a9c:	b741                	c.j	20001a1c <gpio_input_dis+0x34>
20001a9e:	0001                	c.nop

20001aa0 <sys_init>:
20001aa0:	1141                	c.addi	sp,-16
20001aa2:	ffbc07b7          	lui	a5,0xffbc0
20001aa6:	c422                	c.swsp	s0,8(sp)
20001aa8:	c04a                	c.swsp	s2,0(sp)
20001aaa:	c606                	c.swsp	ra,12(sp)
20001aac:	c226                	c.swsp	s1,4(sp)
20001aae:	80140737          	lui	a4,0x80140
20001ab2:	17fd                	c.addi	a5,-1
20001ab4:	892a                	c.mv	s2,a0
20001ab6:	842e                	c.mv	s0,a1
20001ab8:	1ef72023          	sw	a5,480(a4) # 801401e0 <_DATA_LMA_START+0x60138608>
20001abc:	00200593          	li	a1,2
20001ac0:	08c00513          	li	a0,140
20001ac4:	1ef72223          	sw	a5,484(a4)
20001ac8:	dffff097          	auipc	ra,0xdffff
20001acc:	bdc080e7          	jalr	-1060(ra) # 6a4 <analog_write_reg8>
20001ad0:	2439545b          	beqc	s2,3,20001d18 <sys_init+0x278>
20001ad4:	85ca                	c.mv	a1,s2
20001ad6:	4529                	c.li	a0,10
20001ad8:	dffff097          	auipc	ra,0xdffff
20001adc:	bcc080e7          	jalr	-1076(ra) # 6a4 <analog_write_reg8>
20001ae0:	03b00593          	li	a1,59
20001ae4:	00b00513          	li	a0,11
20001ae8:	dffff097          	auipc	ra,0xdffff
20001aec:	bbc080e7          	jalr	-1092(ra) # 6a4 <analog_write_reg8>
20001af0:	00500513          	li	a0,5
20001af4:	dffff097          	auipc	ra,0xdffff
20001af8:	bf8080e7          	jalr	-1032(ra) # 6ec <analog_read_reg8>
20001afc:	0f757593          	andi	a1,a0,247
20001b00:	00500513          	li	a0,5
20001b04:	dffff097          	auipc	ra,0xdffff
20001b08:	ba0080e7          	jalr	-1120(ra) # 6a4 <analog_write_reg8>
20001b0c:	00600513          	li	a0,6
20001b10:	dffff097          	auipc	ra,0xdffff
20001b14:	bdc080e7          	jalr	-1060(ra) # 6ec <analog_read_reg8>
20001b18:	fc146793          	ori	a5,s0,-63
20001b1c:	fff7c793          	not	a5,a5
20001b20:	8fe9                	c.and	a5,a0
20001b22:	0ff7f593          	andi	a1,a5,255
20001b26:	4519                	c.li	a0,6
20001b28:	dffff097          	auipc	ra,0xdffff
20001b2c:	b7c080e7          	jalr	-1156(ra) # 6a4 <analog_write_reg8>
20001b30:	04500593          	li	a1,69
20001b34:	00100513          	li	a0,1
20001b38:	dffff097          	auipc	ra,0xdffff
20001b3c:	b6c080e7          	jalr	-1172(ra) # 6a4 <analog_write_reg8>
20001b40:	04c00593          	li	a1,76
20001b44:	01c00513          	li	a0,28
20001b48:	dffff097          	auipc	ra,0xdffff
20001b4c:	b5c080e7          	jalr	-1188(ra) # 6a4 <analog_write_reg8>
20001b50:	001007b7          	lui	a5,0x100
20001b54:	44478693          	addi	a3,a5,1092 # 100444 <FLASH_SIZE+0x444>
20001b58:	800005b7          	lui	a1,0x80000
20001b5c:	4e478713          	addi	a4,a5,1252
20001b60:	00b6e633          	or	a2,a3,a1
20001b64:	00060783          	lb	a5,0(a2)
20001b68:	01468693          	addi	a3,a3,20 # 10014 <BIN_SIZE+0x8410>
20001b6c:	0ff7f793          	andi	a5,a5,255
20001b70:	00e7e793          	ori	a5,a5,14
20001b74:	00f60023          	sb	a5,0(a2)
20001b78:	fee694e3          	bne	a3,a4,20001b60 <sys_init+0xc0>
20001b7c:	801017b7          	lui	a5,0x80101
20001b80:	83a78703          	lb	a4,-1990(a5) # 8010083a <_DATA_LMA_START+0x600f8c62>
20001b84:	03800513          	li	a0,56
20001b88:	82078d23          	sb	zero,-1990(a5)
20001b8c:	dffff097          	auipc	ra,0xdffff
20001b90:	b60080e7          	jalr	-1184(ra) # 6ec <analog_read_reg8>
20001b94:	00a00433          	add	s0,zero,a0
20001b98:	03900513          	li	a0,57
20001b9c:	dffff097          	auipc	ra,0xdffff
20001ba0:	b50080e7          	jalr	-1200(ra) # 6ec <analog_read_reg8>
20001ba4:	84aa                	c.mv	s1,a0
20001ba6:	1404795b          	bbc	s0,0,20001cf8 <sys_init+0x258>
20001baa:	0fe47593          	andi	a1,s0,254
20001bae:	829f940b          	addigp	s0,-2008 # 80028 <g_pm_status_info>
20001bb2:	03800513          	li	a0,56
20001bb6:	1804fd5b          	bbc	s1,0,20001d50 <sys_init+0x2b0>
20001bba:	4791                	c.li	a5,4
20001bbc:	00f40123          	sb	a5,2(s0)
20001bc0:	dffff097          	auipc	ra,0xdffff
20001bc4:	ae4080e7          	jalr	-1308(ra) # 6a4 <analog_write_reg8>
20001bc8:	00100593          	li	a1,1
20001bcc:	07f00513          	li	a0,127
20001bd0:	dffff097          	auipc	ra,0xdffff
20001bd4:	ad4080e7          	jalr	-1324(ra) # 6a4 <analog_write_reg8>
20001bd8:	06400513          	li	a0,100
20001bdc:	dffff097          	auipc	ra,0xdffff
20001be0:	b10080e7          	jalr	-1264(ra) # 6ec <analog_read_reg8>
20001be4:	0c3527db          	bfoz	a5,a0,3,3
20001be8:	00a400a3          	sb	a0,1(s0)
20001bec:	00f40023          	sb	a5,0(s0)
20001bf0:	08800513          	li	a0,136
20001bf4:	dffff097          	auipc	ra,0xdffff
20001bf8:	af8080e7          	jalr	-1288(ra) # 6ec <analog_read_reg8>
20001bfc:	be757a5b          	bbc	a0,7,20001bf0 <sys_init+0x150>
20001c00:	dffff097          	auipc	ra,0xdffff
20001c04:	b3c080e7          	jalr	-1220(ra) # 73c <pm_wait_bbpll_done>
20001c08:	00244783          	lbu	a5,2(s0)
20001c0c:	0e87d05b          	beqc	a5,8,20001cec <sys_init+0x24c>
20001c10:	80140737          	lui	a4,0x80140
20001c14:	20a70783          	lb	a5,522(a4) # 8014020a <_DATA_LMA_START+0x60138632>
20001c18:	0ff7f793          	andi	a5,a5,255
20001c1c:	00c7e793          	ori	a5,a5,12
20001c20:	20f70523          	sb	a5,522(a4)
20001c24:	00100793          	li	a5,1
20001c28:	20f72023          	sw	a5,512(a4)
20001c2c:	801404b7          	lui	s1,0x80140
20001c30:	1fd48783          	lb	a5,509(s1) # 801401fd <_DATA_LMA_START+0x60138625>
20001c34:	0ff7f793          	andi	a5,a5,255
20001c38:	82ffc3ab          	swgp	a5,-2012 # 80024 <g_chip_version>
20001c3c:	00244703          	lbu	a4,2(s0)
20001c40:	06475a5b          	beqc	a4,4,20001cb4 <sys_init+0x214>
20001c44:	0ff00693          	li	a3,255
20001c48:	04d78e63          	beq	a5,a3,20001ca4 <sys_init+0x204>
20001c4c:	08000593          	li	a1,128
20001c50:	07d00513          	li	a0,125
20001c54:	dffff097          	auipc	ra,0xdffff
20001c58:	a50080e7          	jalr	-1456(ra) # 6a4 <analog_write_reg8>
20001c5c:	02395a5b          	beqc	s2,3,20001c90 <sys_init+0x1f0>
20001c60:	80140737          	lui	a4,0x80140
20001c64:	06500793          	li	a5,101
20001c68:	1ef70a23          	sb	a5,500(a4) # 801401f4 <_DATA_LMA_START+0x6013861c>
20001c6c:	1c872783          	lw	a5,456(a4)
20001c70:	1e070a23          	sb	zero,500(a4)
20001c74:	8bbd                	c.andi	a5,15
20001c76:	0037d55b          	beqc	a5,3,20001c80 <sys_init+0x1e0>
20001c7a:	4725                	c.li	a4,9
20001c7c:	0ef77e63          	bgeu	a4,a5,20001d78 <sys_init+0x2d8>
20001c80:	801407b7          	lui	a5,0x80140
20001c84:	02000713          	li	a4,32
20001c88:	1ee787a3          	sb	a4,495(a5) # 801401ef <_DATA_LMA_START+0x60138617>
20001c8c:	0000006f          	j	20001c8c <sys_init+0x1ec>
20001c90:	04400593          	li	a1,68
20001c94:	00c00513          	li	a0,12
20001c98:	dffff097          	auipc	ra,0xdffff
20001c9c:	a0c080e7          	jalr	-1524(ra) # 6a4 <analog_write_reg8>
20001ca0:	fc1ff06f          	j	20001c60 <sys_init+0x1c0>
20001ca4:	ba17645b          	bnec	a4,1,20001c4c <sys_init+0x1ac>
20001ca8:	07d00513          	li	a0,125
20001cac:	08000593          	li	a1,128
20001cb0:	01c0006f          	j	20001ccc <sys_init+0x22c>
20001cb4:	03900513          	li	a0,57
20001cb8:	dffff097          	auipc	ra,0xdffff
20001cbc:	a34080e7          	jalr	-1484(ra) # 6ec <analog_read_reg8>
20001cc0:	00256593          	ori	a1,a0,2
20001cc4:	0ff5f593          	andi	a1,a1,255
20001cc8:	03900513          	li	a0,57
20001ccc:	dffff097          	auipc	ra,0xdffff
20001cd0:	9d8080e7          	jalr	-1576(ra) # 6a4 <analog_write_reg8>
20001cd4:	2004a503          	lw	a0,512(s1)
20001cd8:	001877b7          	lui	a5,0x187
20001cdc:	a0078793          	addi	a5,a5,-1536 # 186a00 <FLASH_SIZE+0x86a00>
20001ce0:	00f50533          	add	a0,a0,a5
20001ce4:	8b9ff0ef          	jal	ra,2000159c <pm_sleep_wakeup.constprop.0>
20001ce8:	f65ff06f          	j	20001c4c <sys_init+0x1ac>
20001cec:	dffff097          	auipc	ra,0xdffff
20001cf0:	924080e7          	jalr	-1756(ra) # 610 <pm_stimer_recover>
20001cf4:	f39ff06f          	j	20001c2c <sys_init+0x18c>
20001cf8:	07f00513          	li	a0,127
20001cfc:	dffff097          	auipc	ra,0xdffff
20001d00:	9f0080e7          	jalr	-1552(ra) # 6ec <analog_read_reg8>
20001d04:	829f940b          	addigp	s0,-2008 # 80028 <g_pm_status_info>
20001d08:	0405705b          	bbc	a0,0,20001d48 <sys_init+0x2a8>
20001d0c:	4214f05b          	bbs	s1,1,20001d2c <sys_init+0x28c>
20001d10:	47c1                	c.li	a5,16
20001d12:	00f40123          	sb	a5,2(s0)
20001d16:	bd4d                	c.j	20001bc8 <sys_init+0x128>
20001d18:	04000593          	li	a1,64
20001d1c:	00c00513          	li	a0,12
20001d20:	dffff097          	auipc	ra,0xdffff
20001d24:	984080e7          	jalr	-1660(ra) # 6a4 <analog_write_reg8>
20001d28:	dadff06f          	j	20001ad4 <sys_init+0x34>
20001d2c:	02000793          	li	a5,32
20001d30:	0fd4f593          	andi	a1,s1,253
20001d34:	03900513          	li	a0,57
20001d38:	00f40123          	sb	a5,2(s0)
20001d3c:	dffff097          	auipc	ra,0xdffff
20001d40:	968080e7          	jalr	-1688(ra) # 6a4 <analog_write_reg8>
20001d44:	e85ff06f          	j	20001bc8 <sys_init+0x128>
20001d48:	47a1                	c.li	a5,8
20001d4a:	00f40123          	sb	a5,2(s0)
20001d4e:	bdad                	c.j	20001bc8 <sys_init+0x128>
20001d50:	00100793          	li	a5,1
20001d54:	00f40123          	sb	a5,2(s0)
20001d58:	dffff097          	auipc	ra,0xdffff
20001d5c:	94c080e7          	jalr	-1716(ra) # 6a4 <analog_write_reg8>
20001d60:	0014e593          	ori	a1,s1,1
20001d64:	0ff5f593          	andi	a1,a1,255
20001d68:	03900513          	li	a0,57
20001d6c:	dffff097          	auipc	ra,0xdffff
20001d70:	938080e7          	jalr	-1736(ra) # 6a4 <analog_write_reg8>
20001d74:	e55ff06f          	j	20001bc8 <sys_init+0x128>
20001d78:	40b2                	c.lwsp	ra,12(sp)
20001d7a:	4422                	c.lwsp	s0,8(sp)
20001d7c:	4492                	c.lwsp	s1,4(sp)
20001d7e:	4902                	c.lwsp	s2,0(sp)
20001d80:	0141                	c.addi	sp,16
20001d82:	8082                	c.jr	ra

20001d84 <platform_init>:
20001d84:	1141                	c.addi	sp,-16
20001d86:	c606                	c.swsp	ra,12(sp)
20001d88:	d19ff0ef          	jal	ra,20001aa0 <sys_init>
20001d8c:	4585                	c.li	a1,1
20001d8e:	08000513          	li	a0,128
20001d92:	36c9                	c.jal	20001954 <gpio_set_up_down_res>
20001d94:	addff0ef          	jal	ra,20001870 <user_read_flash_value_calib>
20001d98:	40b2                	c.lwsp	ra,12(sp)
20001d9a:	0141                	c.addi	sp,16
20001d9c:	8082                	c.jr	ra
20001d9e:	0001                	c.nop

20001da0 <reset_cycle_count.lto_priv.15>:
20001da0:	b0005073          	csrwi	mcycle,0
20001da4:	8082                	c.jr	ra
	...

20001da8 <reset_cycle_count.lto_priv.14>:
20001da8:	b0005073          	csrwi	mcycle,0
20001dac:	8082                	c.jr	ra
	...

20001db0 <validate>:
20001db0:	1101                	c.addi	sp,-32
20001db2:	ce06                	c.swsp	ra,28(sp)
20001db4:	cc22                	c.swsp	s0,24(sp)
20001db6:	ca26                	c.swsp	s1,20(sp)
20001db8:	c84a                	c.swsp	s2,16(sp)
20001dba:	c64e                	c.swsp	s3,12(sp)
20001dbc:	c452                	c.swsp	s4,8(sp)
20001dbe:	c256                	c.swsp	s5,4(sp)
20001dc0:	c05a                	c.swsp	s6,0(sp)
20001dc2:	8aaa                	c.mv	s5,a0
20001dc4:	8a2e                	c.mv	s4,a1
20001dc6:	8932                	c.mv	s2,a2
20001dc8:	4401                	c.li	s0,0
20001dca:	4481                	c.li	s1,0
20001dcc:	4981                	c.li	s3,0
20001dce:	4b05                	c.li	s6,1
20001dd0:	0080006f          	j	20001dd8 <validate+0x28>
20001dd4:	00140413          	addi	s0,s0,1
20001dd8:	03245a63          	bge	s0,s2,20001e0c <validate+0x5c>
20001ddc:	0485                	c.addi	s1,1
20001dde:	008a87b3          	add	a5,s5,s0
20001de2:	00078603          	lb	a2,0(a5)
20001de6:	008a07b3          	add	a5,s4,s0
20001dea:	00078683          	lb	a3,0(a5)
20001dee:	fed603e3          	beq	a2,a3,20001dd4 <validate+0x24>
20001df2:	0985                	c.addi	s3,1
20001df4:	008005b3          	add	a1,zero,s0
20001df8:	20008537          	lui	a0,0x20008
20001dfc:	89050513          	addi	a0,a0,-1904 # 20007890 <lstm_one_time_step_s16_output_gate_input_weights+0x154>
20001e00:	7a1020ef          	jal	ra,20004da0 <printf>
20001e04:	00000b13          	li	s6,0
20001e08:	fcdff06f          	j	20001dd4 <validate+0x24>
20001e0c:	000b0e63          	beqz	s6,20001e28 <validate+0x78>
20001e10:	855a                	c.mv	a0,s6
20001e12:	40f2                	c.lwsp	ra,28(sp)
20001e14:	4462                	c.lwsp	s0,24(sp)
20001e16:	44d2                	c.lwsp	s1,20(sp)
20001e18:	4942                	c.lwsp	s2,16(sp)
20001e1a:	49b2                	c.lwsp	s3,12(sp)
20001e1c:	4a22                	c.lwsp	s4,8(sp)
20001e1e:	4a92                	c.lwsp	s5,4(sp)
20001e20:	4b02                	c.lwsp	s6,0(sp)
20001e22:	6105                	c.addi16sp	sp,32
20001e24:	00008067          	ret
20001e28:	8626                	c.mv	a2,s1
20001e2a:	85ce                	c.mv	a1,s3
20001e2c:	20008537          	lui	a0,0x20008
20001e30:	8b450513          	addi	a0,a0,-1868 # 200078b4 <lstm_one_time_step_s16_output_gate_input_weights+0x178>
20001e34:	76d020ef          	jal	ra,20004da0 <printf>
20001e38:	bfe1                	c.j	20001e10 <validate+0x60>
20001e3a:	0001                	c.nop

20001e3c <validate_s16>:
20001e3c:	1101                	c.addi	sp,-32
20001e3e:	ce06                	c.swsp	ra,28(sp)
20001e40:	cc22                	c.swsp	s0,24(sp)
20001e42:	ca26                	c.swsp	s1,20(sp)
20001e44:	c84a                	c.swsp	s2,16(sp)
20001e46:	c64e                	c.swsp	s3,12(sp)
20001e48:	c452                	c.swsp	s4,8(sp)
20001e4a:	c256                	c.swsp	s5,4(sp)
20001e4c:	c05a                	c.swsp	s6,0(sp)
20001e4e:	8aaa                	c.mv	s5,a0
20001e50:	8a2e                	c.mv	s4,a1
20001e52:	8932                	c.mv	s2,a2
20001e54:	4401                	c.li	s0,0
20001e56:	4481                	c.li	s1,0
20001e58:	4981                	c.li	s3,0
20001e5a:	4b05                	c.li	s6,1
20001e5c:	0080006f          	j	20001e64 <validate_s16+0x28>
20001e60:	00140413          	addi	s0,s0,1
20001e64:	03245a63          	bge	s0,s2,20001e98 <validate_s16+0x5c>
20001e68:	0485                	c.addi	s1,1
20001e6a:	00141793          	slli	a5,s0,0x1
20001e6e:	00fa8733          	add	a4,s5,a5
20001e72:	00071603          	lh	a2,0(a4)
20001e76:	97d2                	c.add	a5,s4
20001e78:	00079683          	lh	a3,0(a5)
20001e7c:	fed602e3          	beq	a2,a3,20001e60 <validate_s16+0x24>
20001e80:	0985                	c.addi	s3,1
20001e82:	85a2                	c.mv	a1,s0
20001e84:	20008537          	lui	a0,0x20008
20001e88:	89050513          	addi	a0,a0,-1904 # 20007890 <lstm_one_time_step_s16_output_gate_input_weights+0x154>
20001e8c:	715020ef          	jal	ra,20004da0 <printf>
20001e90:	00000b13          	li	s6,0
20001e94:	fcdff06f          	j	20001e60 <validate_s16+0x24>
20001e98:	000b0e63          	beqz	s6,20001eb4 <validate_s16+0x78>
20001e9c:	855a                	c.mv	a0,s6
20001e9e:	40f2                	c.lwsp	ra,28(sp)
20001ea0:	4462                	c.lwsp	s0,24(sp)
20001ea2:	44d2                	c.lwsp	s1,20(sp)
20001ea4:	4942                	c.lwsp	s2,16(sp)
20001ea6:	49b2                	c.lwsp	s3,12(sp)
20001ea8:	4a22                	c.lwsp	s4,8(sp)
20001eaa:	4a92                	c.lwsp	s5,4(sp)
20001eac:	4b02                	c.lwsp	s6,0(sp)
20001eae:	6105                	c.addi16sp	sp,32
20001eb0:	00008067          	ret
20001eb4:	8626                	c.mv	a2,s1
20001eb6:	85ce                	c.mv	a1,s3
20001eb8:	20008537          	lui	a0,0x20008
20001ebc:	8b450513          	addi	a0,a0,-1868 # 200078b4 <lstm_one_time_step_s16_output_gate_input_weights+0x178>
20001ec0:	6e1020ef          	jal	ra,20004da0 <printf>
20001ec4:	bfe1                	c.j	20001e9c <validate_s16+0x60>
	...

20001ec8 <lstm_one_time_step>:
20001ec8:	dd010113          	addi	sp,sp,-560
20001ecc:	22112623          	sw	ra,556(sp)
20001ed0:	22812423          	sw	s0,552(sp)
20001ed4:	22912223          	sw	s1,548(sp)
20001ed8:	23212023          	sw	s2,544(sp)
20001edc:	21312e23          	sw	s3,540(sp)
20001ee0:	21412c23          	sw	s4,536(sp)
20001ee4:	21512a23          	sw	s5,532(sp)
20001ee8:	21612823          	sw	s6,528(sp)
20001eec:	21712623          	sw	s7,524(sp)
20001ef0:	21812423          	sw	s8,520(sp)
20001ef4:	21912223          	sw	s9,516(sp)
20001ef8:	21a12023          	sw	s10,512(sp)
20001efc:	1fb12e23          	sw	s11,508(sp)
20001f00:	1e012223          	sw	zero,484(sp)
20001f04:	1e012423          	sw	zero,488(sp)
20001f08:	1e010623          	sb	zero,492(sp)
20001f0c:	20007837          	lui	a6,0x20007
20001f10:	34c80c93          	addi	s9,a6,844 # 2000734c <lstm_one_time_step_input_gate_bias>
20001f14:	200076b7          	lui	a3,0x20007
20001f18:	36468d93          	addi	s11,a3,868 # 20007364 <lstm_one_time_step_input_gate_input_weights>
20001f1c:	1d810b93          	addi	s7,sp,472
20001f20:	34c80813          	addi	a6,a6,844
20001f24:	4781                	c.li	a5,0
20001f26:	08000713          	li	a4,128
20001f2a:	36468693          	addi	a3,a3,868
20001f2e:	460d                	c.li	a2,3
20001f30:	45d9                	c.li	a1,22
20001f32:	855e                	c.mv	a0,s7
20001f34:	7f8010ef          	jal	ra,2000372c <riscv_vector_sum_s8>
20001f38:	20007837          	lui	a6,0x20007
20001f3c:	200076b7          	lui	a3,0x20007
20001f40:	03e4                	c.addi4spn	s1,sp,460
20001f42:	2f080813          	addi	a6,a6,752 # 200072f0 <lstm_one_time_step_forget_gate_bias>
20001f46:	4781                	c.li	a5,0
20001f48:	08000713          	li	a4,128
20001f4c:	30868693          	addi	a3,a3,776 # 20007308 <lstm_one_time_step_forget_gate_input_weights>
20001f50:	460d                	c.li	a2,3
20001f52:	45d9                	c.li	a1,22
20001f54:	00900533          	add	a0,zero,s1
20001f58:	7d4010ef          	jal	ra,2000372c <riscv_vector_sum_s8>
20001f5c:	20007837          	lui	a6,0x20007
20001f60:	200076b7          	lui	a3,0x20007
20001f64:	2ac68c13          	addi	s8,a3,684 # 200072ac <lstm_one_time_step_cell_gate_input_weights>
20001f68:	1c010a93          	addi	s5,sp,448
20001f6c:	29480813          	addi	a6,a6,660 # 20007294 <lstm_one_time_step_cell_gate_bias>
20001f70:	4781                	c.li	a5,0
20001f72:	08000713          	li	a4,128
20001f76:	2ac68693          	addi	a3,a3,684
20001f7a:	460d                	c.li	a2,3
20001f7c:	45d9                	c.li	a1,22
20001f7e:	8556                	c.mv	a0,s5
20001f80:	7ac010ef          	jal	ra,2000372c <riscv_vector_sum_s8>
20001f84:	20007837          	lui	a6,0x20007
20001f88:	200076b7          	lui	a3,0x20007
20001f8c:	1b410993          	addi	s3,sp,436
20001f90:	3f880813          	addi	a6,a6,1016 # 200073f8 <lstm_one_time_step_output_gate_bias>
20001f94:	4781                	c.li	a5,0
20001f96:	08000713          	li	a4,128
20001f9a:	41068693          	addi	a3,a3,1040 # 20007410 <lstm_one_time_step_output_gate_input_weights>
20001f9e:	460d                	c.li	a2,3
20001fa0:	45d9                	c.li	a1,22
20001fa2:	854e                	c.mv	a0,s3
20001fa4:	788010ef          	jal	ra,2000372c <riscv_vector_sum_s8>
20001fa8:	200076b7          	lui	a3,0x20007
20001fac:	35868d13          	addi	s10,a3,856 # 20007358 <lstm_one_time_step_input_gate_hidden_weights>
20001fb0:	1a810b13          	addi	s6,sp,424
20001fb4:	4801                	c.li	a6,0
20001fb6:	4781                	c.li	a5,0
20001fb8:	fb900713          	li	a4,-71
20001fbc:	35868693          	addi	a3,a3,856
20001fc0:	460d                	c.li	a2,3
20001fc2:	458d                	c.li	a1,3
20001fc4:	01600533          	add	a0,zero,s6
20001fc8:	764010ef          	jal	ra,2000372c <riscv_vector_sum_s8>
20001fcc:	200076b7          	lui	a3,0x20007
20001fd0:	0b60                	c.addi4spn	s0,sp,412
20001fd2:	4801                	c.li	a6,0
20001fd4:	4781                	c.li	a5,0
20001fd6:	fb900713          	li	a4,-71
20001fda:	2fc68693          	addi	a3,a3,764 # 200072fc <lstm_one_time_step_forget_gate_hidden_weights>
20001fde:	460d                	c.li	a2,3
20001fe0:	458d                	c.li	a1,3
20001fe2:	8522                	c.mv	a0,s0
20001fe4:	748010ef          	jal	ra,2000372c <riscv_vector_sum_s8>
20001fe8:	200076b7          	lui	a3,0x20007
20001fec:	19010a13          	addi	s4,sp,400
20001ff0:	4801                	c.li	a6,0
20001ff2:	4781                	c.li	a5,0
20001ff4:	fb900713          	li	a4,-71
20001ff8:	2a068693          	addi	a3,a3,672 # 200072a0 <lstm_one_time_step_cell_gate_hidden_weights>
20001ffc:	460d                	c.li	a2,3
20001ffe:	458d                	c.li	a1,3
20002000:	01400533          	add	a0,zero,s4
20002004:	728010ef          	jal	ra,2000372c <riscv_vector_sum_s8>
20002008:	200076b7          	lui	a3,0x20007
2000200c:	18410913          	addi	s2,sp,388
20002010:	4801                	c.li	a6,0
20002012:	4781                	c.li	a5,0
20002014:	fb900713          	li	a4,-71
20002018:	40468693          	addi	a3,a3,1028 # 20007404 <lstm_one_time_step_output_gate_hidden_weights>
2000201c:	460d                	c.li	a2,3
2000201e:	458d                	c.li	a1,3
20002020:	01200533          	add	a0,zero,s2
20002024:	708010ef          	jal	ra,2000372c <riscv_vector_sum_s8>
20002028:	7bbcc7b7          	lui	a5,0x7bbcc
2000202c:	98078793          	addi	a5,a5,-1664 # 7bbcb980 <_DATA_LMA_START+0x5bbc3da8>
20002030:	14f12e23          	sw	a5,348(sp)
20002034:	57f5                	c.li	a5,-3
20002036:	16f12023          	sw	a5,352(sp)
2000203a:	17b12223          	sw	s11,356(sp)
2000203e:	17712423          	sw	s7,360(sp)
20002042:	6afb7737          	lui	a4,0x6afb7
20002046:	58070713          	addi	a4,a4,1408 # 6afb7580 <_DATA_LMA_START+0x4afaf9a8>
2000204a:	16e12623          	sw	a4,364(sp)
2000204e:	16f12823          	sw	a5,368(sp)
20002052:	17a12a23          	sw	s10,372(sp)
20002056:	17612c23          	sw	s6,376(sp)
2000205a:	17912e23          	sw	s9,380(sp)
2000205e:	18010023          	sb	zero,384(sp)
20002062:	40020737          	lui	a4,0x40020
20002066:	f0070713          	addi	a4,a4,-256 # 4001ff00 <_DATA_LMA_START+0x20018328>
2000206a:	10e12623          	sw	a4,268(sp)
2000206e:	5779                	c.li	a4,-2
20002070:	10e12823          	sw	a4,272(sp)
20002074:	11812a23          	sw	s8,276(sp)
20002078:	11512c23          	sw	s5,280(sp)
2000207c:	646ba737          	lui	a4,0x646ba
20002080:	a8070713          	addi	a4,a4,-1408 # 646b9a80 <_DATA_LMA_START+0x446b1ea8>
20002084:	10e12e23          	sw	a4,284(sp)
20002088:	12f12023          	sw	a5,288(sp)
2000208c:	20007637          	lui	a2,0x20007
20002090:	2a060613          	addi	a2,a2,672 # 200072a0 <lstm_one_time_step_cell_gate_hidden_weights>
20002094:	12c12223          	sw	a2,292(sp)
20002098:	13412423          	sw	s4,296(sp)
2000209c:	20007637          	lui	a2,0x20007
200020a0:	29460593          	addi	a1,a2,660 # 20007294 <lstm_one_time_step_cell_gate_bias>
200020a4:	12b12623          	sw	a1,300(sp)
200020a8:	4705                	c.li	a4,1
200020aa:	12e10823          	sb	a4,304(sp)
200020ae:	7c153737          	lui	a4,0x7c153
200020b2:	90070713          	addi	a4,a4,-1792 # 7c152900 <_DATA_LMA_START+0x5c14ad28>
200020b6:	d3ba                	c.swsp	a4,228(sp)
200020b8:	d5be                	c.swsp	a5,232(sp)
200020ba:	20007637          	lui	a2,0x20007
200020be:	41060593          	addi	a1,a2,1040 # 20007410 <lstm_one_time_step_output_gate_input_weights>
200020c2:	d7ae                	c.swsp	a1,236(sp)
200020c4:	d9ce                	c.swsp	s3,240(sp)
200020c6:	6786d737          	lui	a4,0x6786d
200020ca:	b8070713          	addi	a4,a4,-1152 # 6786cb80 <_DATA_LMA_START+0x47864fa8>
200020ce:	dbba                	c.swsp	a4,244(sp)
200020d0:	ddbe                	c.swsp	a5,248(sp)
200020d2:	20007637          	lui	a2,0x20007
200020d6:	40460593          	addi	a1,a2,1028 # 20007404 <lstm_one_time_step_output_gate_hidden_weights>
200020da:	dfae                	c.swsp	a1,252(sp)
200020dc:	11212023          	sw	s2,256(sp)
200020e0:	20007637          	lui	a2,0x20007
200020e4:	3f860593          	addi	a1,a2,1016 # 200073f8 <lstm_one_time_step_output_gate_bias>
200020e8:	10b12223          	sw	a1,260(sp)
200020ec:	10010423          	sb	zero,264(sp)
200020f0:	ca02                	c.swsp	zero,20(sp)
200020f2:	470d                	c.li	a4,3
200020f4:	cc3a                	c.swsp	a4,24(sp)
200020f6:	4685                	c.li	a3,1
200020f8:	ce36                	c.swsp	a3,28(sp)
200020fa:	46d9                	c.li	a3,22
200020fc:	d036                	c.swsp	a3,32(sp)
200020fe:	d23a                	c.swsp	a4,36(sp)
20002100:	08000713          	li	a4,128
20002104:	d43a                	c.swsp	a4,40(sp)
20002106:	400006b7          	lui	a3,0x40000
2000210a:	d636                	c.swsp	a3,44(sp)
2000210c:	5749                	c.li	a4,-14
2000210e:	d83a                	c.swsp	a4,48(sp)
20002110:	da36                	c.swsp	a3,52(sp)
20002112:	dc3a                	c.swsp	a4,56(sp)
20002114:	6721                	c.lui	a4,0x8
20002116:	177d                	c.addi	a4,-1
20002118:	de3a                	c.swsp	a4,60(sp)
2000211a:	5745                	c.li	a4,-15
2000211c:	c0ba                	c.swsp	a4,64(sp)
2000211e:	49801737          	lui	a4,0x49801
20002122:	58870713          	addi	a4,a4,1416 # 49801588 <_DATA_LMA_START+0x297f99b0>
20002126:	c2ba                	c.swsp	a4,68(sp)
20002128:	572d                	c.li	a4,-21
2000212a:	c4ba                	c.swsp	a4,72(sp)
2000212c:	04700713          	li	a4,71
20002130:	c6ba                	c.swsp	a4,76(sp)
20002132:	7fea2737          	lui	a4,0x7fea2
20002136:	c0070713          	addi	a4,a4,-1024 # 7fea1c00 <_DATA_LMA_START+0x5fe9a028>
2000213a:	c8ba                	c.swsp	a4,80(sp)
2000213c:	cabe                	c.swsp	a5,84(sp)
2000213e:	20007637          	lui	a2,0x20007
20002142:	30860593          	addi	a1,a2,776 # 20007308 <lstm_one_time_step_forget_gate_input_weights>
20002146:	ccae                	c.swsp	a1,88(sp)
20002148:	cea6                	c.swsp	s1,92(sp)
2000214a:	6efb6737          	lui	a4,0x6efb6
2000214e:	c0070713          	addi	a4,a4,-1024 # 6efb5c00 <_DATA_LMA_START+0x4efae028>
20002152:	d0ba                	c.swsp	a4,96(sp)
20002154:	d2be                	c.swsp	a5,100(sp)
20002156:	200074b7          	lui	s1,0x20007
2000215a:	2fc48493          	addi	s1,s1,764 # 200072fc <lstm_one_time_step_forget_gate_hidden_weights>
2000215e:	d4a6                	c.swsp	s1,104(sp)
20002160:	d6a2                	c.swsp	s0,108(sp)
20002162:	20007437          	lui	s0,0x20007
20002166:	2f040413          	addi	s0,s0,752 # 200072f0 <lstm_one_time_step_forget_gate_bias>
2000216a:	d8a2                	c.swsp	s0,112(sp)
2000216c:	06010a23          	sb	zero,116(sp)
20002170:	02500613          	li	a2,37
20002174:	15c10593          	addi	a1,sp,348
20002178:	07510513          	addi	a0,sp,117
2000217c:	281020ef          	jal	ra,20004bfc <memcpy>
20002180:	02500613          	li	a2,37
20002184:	10c10593          	addi	a1,sp,268
20002188:	09a10513          	addi	a0,sp,154
2000218c:	271020ef          	jal	ra,20004bfc <memcpy>
20002190:	02500613          	li	a2,37
20002194:	0e410593          	addi	a1,sp,228
20002198:	0bf10513          	addi	a0,sp,191
2000219c:	261020ef          	jal	ra,20004bfc <memcpy>
200021a0:	91df978b          	addigp	a5,-1764 # 8011c <buffer1.lto_priv.3>
200021a4:	c43e                	c.swsp	a5,8(sp)
200021a6:	a69f978b          	addigp	a5,-1432 # 80268 <buffer2.lto_priv.5>
200021aa:	c63e                	c.swsp	a5,12(sp)
200021ac:	bb5f978b          	addigp	a5,-1100 # 803b4 <buffer3.lto_priv.7>
200021b0:	c83e                	c.swsp	a5,16(sp)
200021b2:	001f978b          	addigp	a5,129024 # a0000 <_STACK_TOP>
200021b6:	777d                	c.lui	a4,0xfffff
200021b8:	97ba                	c.add	a5,a4
200021ba:	82ffc7ab          	swgp	a5,-2004 # 8002c <stack_limit>
200021be:	36cd                	c.jal	20001da0 <reset_cycle_count.lto_priv.15>
200021c0:	d98ff0ef          	jal	ra,20001758 <fill_stack_pattern_to_sp.lto_priv.11>
200021c4:	e20ff0ef          	jal	ra,200017e4 <read_cycle_counter.lto_priv.13>
200021c8:	84aa                	c.mv	s1,a0
200021ca:	0034                	c.addi4spn	a3,sp,8
200021cc:	0850                	c.addi4spn	a2,sp,20
200021ce:	13cc                	c.addi4spn	a1,sp,484
200021d0:	20007537          	lui	a0,0x20007
200021d4:	3a850513          	addi	a0,a0,936 # 200073a8 <lstm_one_time_step_input_tensor>
200021d8:	5fc010ef          	jal	ra,200037d4 <riscv_lstm_unidirectional_s8>
200021dc:	e08ff0ef          	jal	ra,200017e4 <read_cycle_counter.lto_priv.13>
200021e0:	00a00433          	add	s0,zero,a0
200021e4:	d4cff0ef          	jal	ra,20001730 <measure_stack_usage.lto_priv.9>
200021e8:	892a                	c.mv	s2,a0
200021ea:	8c05                	c.sub	s0,s1
200021ec:	20007537          	lui	a0,0x20007
200021f0:	7e850513          	addi	a0,a0,2024 # 200077e8 <lstm_one_time_step_s16_output_gate_input_weights+0xac>
200021f4:	3ad020ef          	jal	ra,20004da0 <printf>
200021f8:	4625                	c.li	a2,9
200021fa:	200075b7          	lui	a1,0x20007
200021fe:	3ec58593          	addi	a1,a1,1004 # 200073ec <lstm_one_time_step_output>
20002202:	13c8                	c.addi4spn	a0,sp,484
20002204:	badff0ef          	jal	ra,20001db0 <validate>
20002208:	04051663          	bnez	a0,20002254 <lstm_one_time_step+0x38c>
2000220c:	20007537          	lui	a0,0x20007
20002210:	26050513          	addi	a0,a0,608 # 20007260 <lstm_2_s16_output_gate_input_weights+0x8c>
20002214:	38d020ef          	jal	ra,20004da0 <printf>
20002218:	22c12083          	lw	ra,556(sp)
2000221c:	22812403          	lw	s0,552(sp)
20002220:	22412483          	lw	s1,548(sp)
20002224:	22012903          	lw	s2,544(sp)
20002228:	21c12983          	lw	s3,540(sp)
2000222c:	21812a03          	lw	s4,536(sp)
20002230:	21412a83          	lw	s5,532(sp)
20002234:	21012b03          	lw	s6,528(sp)
20002238:	20c12b83          	lw	s7,524(sp)
2000223c:	20812c03          	lw	s8,520(sp)
20002240:	20412c83          	lw	s9,516(sp)
20002244:	20012d03          	lw	s10,512(sp)
20002248:	1fc12d83          	lw	s11,508(sp)
2000224c:	23010113          	addi	sp,sp,560
20002250:	00008067          	ret
20002254:	20007537          	lui	a0,0x20007
20002258:	20050513          	addi	a0,a0,512 # 20007200 <lstm_2_s16_output_gate_input_weights+0x2c>
2000225c:	345020ef          	jal	ra,20004da0 <printf>
20002260:	012005b3          	add	a1,zero,s2
20002264:	20007537          	lui	a0,0x20007
20002268:	23450513          	addi	a0,a0,564 # 20007234 <lstm_2_s16_output_gate_input_weights+0x60>
2000226c:	335020ef          	jal	ra,20004da0 <printf>
20002270:	008005b3          	add	a1,zero,s0
20002274:	20007537          	lui	a0,0x20007
20002278:	24c50513          	addi	a0,a0,588 # 2000724c <lstm_2_s16_output_gate_input_weights+0x78>
2000227c:	325020ef          	jal	ra,20004da0 <printf>
20002280:	bf61                	c.j	20002218 <lstm_one_time_step+0x350>
20002282:	0001                	c.nop

20002284 <lstm_2>:
20002284:	d2010113          	addi	sp,sp,-736
20002288:	2c112e23          	sw	ra,732(sp)
2000228c:	2c812c23          	sw	s0,728(sp)
20002290:	2c912a23          	sw	s1,724(sp)
20002294:	2d212823          	sw	s2,720(sp)
20002298:	2d312623          	sw	s3,716(sp)
2000229c:	2d412423          	sw	s4,712(sp)
200022a0:	2d512223          	sw	s5,708(sp)
200022a4:	2d612023          	sw	s6,704(sp)
200022a8:	2b712e23          	sw	s7,700(sp)
200022ac:	2b812c23          	sw	s8,696(sp)
200022b0:	2b912a23          	sw	s9,692(sp)
200022b4:	2ba12823          	sw	s10,688(sp)
200022b8:	2bb12623          	sw	s11,684(sp)
200022bc:	03f00613          	li	a2,63
200022c0:	4581                	c.li	a1,0
200022c2:	1488                	c.addi4spn	a0,sp,608
200022c4:	233020ef          	jal	ra,20004cf6 <memset>
200022c8:	20007837          	lui	a6,0x20007
200022cc:	c8080c93          	addi	s9,a6,-896 # 20006c80 <lstm_2_input_gate_bias>
200022d0:	200076b7          	lui	a3,0x20007
200022d4:	cd068d93          	addi	s11,a3,-816 # 20006cd0 <lstm_2_input_gate_input_weights>
200022d8:	24410b93          	addi	s7,sp,580
200022dc:	c8080813          	addi	a6,a6,-896
200022e0:	4781                	c.li	a5,0
200022e2:	08000713          	li	a4,128
200022e6:	cd068693          	addi	a3,a3,-816
200022ea:	461d                	c.li	a2,7
200022ec:	4599                	c.li	a1,6
200022ee:	855e                	c.mv	a0,s7
200022f0:	43c010ef          	jal	ra,2000372c <riscv_vector_sum_s8>
200022f4:	20007837          	lui	a6,0x20007
200022f8:	200076b7          	lui	a3,0x20007
200022fc:	1424                	c.addi4spn	s1,sp,552
200022fe:	c0480813          	addi	a6,a6,-1020 # 20006c04 <lstm_2_forget_gate_bias>
20002302:	4781                	c.li	a5,0
20002304:	08000713          	li	a4,128
20002308:	c5468693          	addi	a3,a3,-940 # 20006c54 <lstm_2_forget_gate_input_weights>
2000230c:	461d                	c.li	a2,7
2000230e:	4599                	c.li	a1,6
20002310:	00900533          	add	a0,zero,s1
20002314:	418010ef          	jal	ra,2000372c <riscv_vector_sum_s8>
20002318:	20007837          	lui	a6,0x20007
2000231c:	200076b7          	lui	a3,0x20007
20002320:	bd868c13          	addi	s8,a3,-1064 # 20006bd8 <lstm_2_cell_gate_input_weights>
20002324:	20c10a93          	addi	s5,sp,524
20002328:	b8880813          	addi	a6,a6,-1144 # 20006b88 <lstm_2_cell_gate_bias>
2000232c:	4781                	c.li	a5,0
2000232e:	08000713          	li	a4,128
20002332:	bd868693          	addi	a3,a3,-1064
20002336:	461d                	c.li	a2,7
20002338:	4599                	c.li	a1,6
2000233a:	8556                	c.mv	a0,s5
2000233c:	3f0010ef          	jal	ra,2000372c <riscv_vector_sum_s8>
20002340:	20007837          	lui	a6,0x20007
20002344:	200076b7          	lui	a3,0x20007
20002348:	1f010993          	addi	s3,sp,496
2000234c:	d7480813          	addi	a6,a6,-652 # 20006d74 <lstm_2_output_gate_bias>
20002350:	4781                	c.li	a5,0
20002352:	08000713          	li	a4,128
20002356:	dc468693          	addi	a3,a3,-572 # 20006dc4 <lstm_2_output_gate_input_weights>
2000235a:	461d                	c.li	a2,7
2000235c:	4599                	c.li	a1,6
2000235e:	854e                	c.mv	a0,s3
20002360:	3cc010ef          	jal	ra,2000372c <riscv_vector_sum_s8>
20002364:	200076b7          	lui	a3,0x20007
20002368:	c9c68d13          	addi	s10,a3,-868 # 20006c9c <lstm_2_input_gate_hidden_weights>
2000236c:	1d410b13          	addi	s6,sp,468
20002370:	4801                	c.li	a6,0
20002372:	4781                	c.li	a5,0
20002374:	fa700713          	li	a4,-89
20002378:	c9c68693          	addi	a3,a3,-868
2000237c:	461d                	c.li	a2,7
2000237e:	459d                	c.li	a1,7
20002380:	01600533          	add	a0,zero,s6
20002384:	3a8010ef          	jal	ra,2000372c <riscv_vector_sum_s8>
20002388:	200076b7          	lui	a3,0x20007
2000238c:	1b20                	c.addi4spn	s0,sp,440
2000238e:	4801                	c.li	a6,0
20002390:	4781                	c.li	a5,0
20002392:	fa700713          	li	a4,-89
20002396:	c2068693          	addi	a3,a3,-992 # 20006c20 <lstm_2_forget_gate_hidden_weights>
2000239a:	461d                	c.li	a2,7
2000239c:	459d                	c.li	a1,7
2000239e:	8522                	c.mv	a0,s0
200023a0:	38c010ef          	jal	ra,2000372c <riscv_vector_sum_s8>
200023a4:	200076b7          	lui	a3,0x20007
200023a8:	19c10a13          	addi	s4,sp,412
200023ac:	4801                	c.li	a6,0
200023ae:	4781                	c.li	a5,0
200023b0:	fa700713          	li	a4,-89
200023b4:	ba468693          	addi	a3,a3,-1116 # 20006ba4 <lstm_2_cell_gate_hidden_weights>
200023b8:	461d                	c.li	a2,7
200023ba:	459d                	c.li	a1,7
200023bc:	01400533          	add	a0,zero,s4
200023c0:	36c010ef          	jal	ra,2000372c <riscv_vector_sum_s8>
200023c4:	200076b7          	lui	a3,0x20007
200023c8:	18010913          	addi	s2,sp,384
200023cc:	4801                	c.li	a6,0
200023ce:	4781                	c.li	a5,0
200023d0:	fa700713          	li	a4,-89
200023d4:	d9068693          	addi	a3,a3,-624 # 20006d90 <lstm_2_output_gate_hidden_weights>
200023d8:	461d                	c.li	a2,7
200023da:	459d                	c.li	a1,7
200023dc:	01200533          	add	a0,zero,s2
200023e0:	34c010ef          	jal	ra,2000372c <riscv_vector_sum_s8>
200023e4:	7d80c7b7          	lui	a5,0x7d80c
200023e8:	e0078793          	addi	a5,a5,-512 # 7d80be00 <_DATA_LMA_START+0x5d804228>
200023ec:	14f12c23          	sw	a5,344(sp)
200023f0:	57f5                	c.li	a5,-3
200023f2:	14f12e23          	sw	a5,348(sp)
200023f6:	17b12023          	sw	s11,352(sp)
200023fa:	17712223          	sw	s7,356(sp)
200023fe:	567bb737          	lui	a4,0x567bb
20002402:	16e12423          	sw	a4,360(sp)
20002406:	16f12623          	sw	a5,364(sp)
2000240a:	17a12823          	sw	s10,368(sp)
2000240e:	17612a23          	sw	s6,372(sp)
20002412:	17912c23          	sw	s9,376(sp)
20002416:	16010e23          	sb	zero,380(sp)
2000241a:	7982a737          	lui	a4,0x7982a
2000241e:	80070713          	addi	a4,a4,-2048 # 79829800 <_DATA_LMA_START+0x59821c28>
20002422:	10e12423          	sw	a4,264(sp)
20002426:	10f12623          	sw	a5,268(sp)
2000242a:	11812823          	sw	s8,272(sp)
2000242e:	11512a23          	sw	s5,276(sp)
20002432:	56cdd737          	lui	a4,0x56cdd
20002436:	20070713          	addi	a4,a4,512 # 56cdd200 <_DATA_LMA_START+0x36cd5628>
2000243a:	10e12c23          	sw	a4,280(sp)
2000243e:	10f12e23          	sw	a5,284(sp)
20002442:	20007637          	lui	a2,0x20007
20002446:	ba460613          	addi	a2,a2,-1116 # 20006ba4 <lstm_2_cell_gate_hidden_weights>
2000244a:	12c12023          	sw	a2,288(sp)
2000244e:	13412223          	sw	s4,292(sp)
20002452:	20007637          	lui	a2,0x20007
20002456:	b8860593          	addi	a1,a2,-1144 # 20006b88 <lstm_2_cell_gate_bias>
2000245a:	12b12423          	sw	a1,296(sp)
2000245e:	4705                	c.li	a4,1
20002460:	12e10623          	sb	a4,300(sp)
20002464:	7e983737          	lui	a4,0x7e983
20002468:	48070713          	addi	a4,a4,1152 # 7e983480 <_DATA_LMA_START+0x5e97b8a8>
2000246c:	d1ba                	c.swsp	a4,224(sp)
2000246e:	d3be                	c.swsp	a5,228(sp)
20002470:	20007637          	lui	a2,0x20007
20002474:	dc460593          	addi	a1,a2,-572 # 20006dc4 <lstm_2_output_gate_input_weights>
20002478:	d5ae                	c.swsp	a1,232(sp)
2000247a:	d7ce                	c.swsp	s3,236(sp)
2000247c:	56e7f737          	lui	a4,0x56e7f
20002480:	48070713          	addi	a4,a4,1152 # 56e7f480 <_DATA_LMA_START+0x36e778a8>
20002484:	d9ba                	c.swsp	a4,240(sp)
20002486:	dbbe                	c.swsp	a5,244(sp)
20002488:	20007637          	lui	a2,0x20007
2000248c:	d9060593          	addi	a1,a2,-624 # 20006d90 <lstm_2_output_gate_hidden_weights>
20002490:	ddae                	c.swsp	a1,248(sp)
20002492:	dfca                	c.swsp	s2,252(sp)
20002494:	20007637          	lui	a2,0x20007
20002498:	d7460593          	addi	a1,a2,-652 # 20006d74 <lstm_2_output_gate_bias>
2000249c:	10b12023          	sw	a1,256(sp)
200024a0:	10010223          	sb	zero,260(sp)
200024a4:	c802                	c.swsp	zero,16(sp)
200024a6:	4705                	c.li	a4,1
200024a8:	ca3a                	c.swsp	a4,20(sp)
200024aa:	4725                	c.li	a4,9
200024ac:	cc3a                	c.swsp	a4,24(sp)
200024ae:	4719                	c.li	a4,6
200024b0:	ce3a                	c.swsp	a4,28(sp)
200024b2:	471d                	c.li	a4,7
200024b4:	d03a                	c.swsp	a4,32(sp)
200024b6:	08000713          	li	a4,128
200024ba:	d23a                	c.swsp	a4,36(sp)
200024bc:	40000737          	lui	a4,0x40000
200024c0:	d43a                	c.swsp	a4,40(sp)
200024c2:	56c9                	c.li	a3,-14
200024c4:	d636                	c.swsp	a3,44(sp)
200024c6:	d83a                	c.swsp	a4,48(sp)
200024c8:	5745                	c.li	a4,-15
200024ca:	da3a                	c.swsp	a4,52(sp)
200024cc:	6721                	c.lui	a4,0x8
200024ce:	177d                	c.addi	a4,-1
200024d0:	dc3a                	c.swsp	a4,56(sp)
200024d2:	de36                	c.swsp	a3,60(sp)
200024d4:	5ef8a737          	lui	a4,0x5ef8a
200024d8:	09270713          	addi	a4,a4,146 # 5ef8a092 <_DATA_LMA_START+0x3ef824ba>
200024dc:	c0ba                	c.swsp	a4,64(sp)
200024de:	572d                	c.li	a4,-21
200024e0:	c2ba                	c.swsp	a4,68(sp)
200024e2:	05900713          	li	a4,89
200024e6:	c4ba                	c.swsp	a4,72(sp)
200024e8:	79e94737          	lui	a4,0x79e94
200024ec:	08070713          	addi	a4,a4,128 # 79e94080 <_DATA_LMA_START+0x59e8c4a8>
200024f0:	c6ba                	c.swsp	a4,76(sp)
200024f2:	c8be                	c.swsp	a5,80(sp)
200024f4:	20007637          	lui	a2,0x20007
200024f8:	c5460593          	addi	a1,a2,-940 # 20006c54 <lstm_2_forget_gate_input_weights>
200024fc:	caae                	c.swsp	a1,84(sp)
200024fe:	cca6                	c.swsp	s1,88(sp)
20002500:	56e17737          	lui	a4,0x56e17
20002504:	90070713          	addi	a4,a4,-1792 # 56e16900 <_DATA_LMA_START+0x36e0ed28>
20002508:	ceba                	c.swsp	a4,92(sp)
2000250a:	d0be                	c.swsp	a5,96(sp)
2000250c:	200074b7          	lui	s1,0x20007
20002510:	c2048493          	addi	s1,s1,-992 # 20006c20 <lstm_2_forget_gate_hidden_weights>
20002514:	d2a6                	c.swsp	s1,100(sp)
20002516:	d4a2                	c.swsp	s0,104(sp)
20002518:	20007437          	lui	s0,0x20007
2000251c:	c0440413          	addi	s0,s0,-1020 # 20006c04 <lstm_2_forget_gate_bias>
20002520:	d6a2                	c.swsp	s0,108(sp)
20002522:	06010823          	sb	zero,112(sp)
20002526:	02500613          	li	a2,37
2000252a:	0aac                	c.addi4spn	a1,sp,344
2000252c:	07110513          	addi	a0,sp,113
20002530:	6cc020ef          	jal	ra,20004bfc <memcpy>
20002534:	02500613          	li	a2,37
20002538:	10810593          	addi	a1,sp,264
2000253c:	09610513          	addi	a0,sp,150
20002540:	6bc020ef          	jal	ra,20004bfc <memcpy>
20002544:	02500613          	li	a2,37
20002548:	0e010593          	addi	a1,sp,224
2000254c:	0bb10513          	addi	a0,sp,187
20002550:	6ac020ef          	jal	ra,20004bfc <memcpy>
20002554:	91df978b          	addigp	a5,-1764 # 8011c <buffer1.lto_priv.3>
20002558:	c23e                	c.swsp	a5,4(sp)
2000255a:	a69f978b          	addigp	a5,-1432 # 80268 <buffer2.lto_priv.5>
2000255e:	c43e                	c.swsp	a5,8(sp)
20002560:	bb5f978b          	addigp	a5,-1100 # 803b4 <buffer3.lto_priv.7>
20002564:	c63e                	c.swsp	a5,12(sp)
20002566:	001f978b          	addigp	a5,129024 # a0000 <_STACK_TOP>
2000256a:	777d                	c.lui	a4,0xfffff
2000256c:	00e787b3          	add	a5,a5,a4
20002570:	82ffc7ab          	swgp	a5,-2004 # 8002c <stack_limit>
20002574:	82dff0ef          	jal	ra,20001da0 <reset_cycle_count.lto_priv.15>
20002578:	9e0ff0ef          	jal	ra,20001758 <fill_stack_pattern_to_sp.lto_priv.11>
2000257c:	a68ff0ef          	jal	ra,200017e4 <read_cycle_counter.lto_priv.13>
20002580:	84aa                	c.mv	s1,a0
20002582:	0054                	c.addi4spn	a3,sp,4
20002584:	0810                	c.addi4spn	a2,sp,16
20002586:	148c                	c.addi4spn	a1,sp,608
20002588:	20007537          	lui	a0,0x20007
2000258c:	cfc50513          	addi	a0,a0,-772 # 20006cfc <lstm_2_input_tensor>
20002590:	244010ef          	jal	ra,200037d4 <riscv_lstm_unidirectional_s8>
20002594:	a50ff0ef          	jal	ra,200017e4 <read_cycle_counter.lto_priv.13>
20002598:	00a00433          	add	s0,zero,a0
2000259c:	994ff0ef          	jal	ra,20001730 <measure_stack_usage.lto_priv.9>
200025a0:	892a                	c.mv	s2,a0
200025a2:	8c05                	c.sub	s0,s1
200025a4:	20007537          	lui	a0,0x20007
200025a8:	7e850513          	addi	a0,a0,2024 # 200077e8 <lstm_one_time_step_s16_output_gate_input_weights+0xac>
200025ac:	7f4020ef          	jal	ra,20004da0 <printf>
200025b0:	03f00613          	li	a2,63
200025b4:	200075b7          	lui	a1,0x20007
200025b8:	d3458593          	addi	a1,a1,-716 # 20006d34 <lstm_2_output>
200025bc:	26010513          	addi	a0,sp,608
200025c0:	ff0ff0ef          	jal	ra,20001db0 <validate>
200025c4:	04051663          	bnez	a0,20002610 <lstm_2+0x38c>
200025c8:	20007537          	lui	a0,0x20007
200025cc:	b6050513          	addi	a0,a0,-1184 # 20006b60 <lstm_1_s16_output_gate_input_weights+0x11c>
200025d0:	7d0020ef          	jal	ra,20004da0 <printf>
200025d4:	2dc12083          	lw	ra,732(sp)
200025d8:	2d812403          	lw	s0,728(sp)
200025dc:	2d412483          	lw	s1,724(sp)
200025e0:	2d012903          	lw	s2,720(sp)
200025e4:	2cc12983          	lw	s3,716(sp)
200025e8:	2c812a03          	lw	s4,712(sp)
200025ec:	2c412a83          	lw	s5,708(sp)
200025f0:	2c012b03          	lw	s6,704(sp)
200025f4:	2bc12b83          	lw	s7,700(sp)
200025f8:	2b812c03          	lw	s8,696(sp)
200025fc:	2b412c83          	lw	s9,692(sp)
20002600:	2b012d03          	lw	s10,688(sp)
20002604:	2ac12d83          	lw	s11,684(sp)
20002608:	2e010113          	addi	sp,sp,736
2000260c:	00008067          	ret
20002610:	20007537          	lui	a0,0x20007
20002614:	b3850513          	addi	a0,a0,-1224 # 20006b38 <lstm_1_s16_output_gate_input_weights+0xf4>
20002618:	788020ef          	jal	ra,20004da0 <printf>
2000261c:	012005b3          	add	a1,zero,s2
20002620:	20007537          	lui	a0,0x20007
20002624:	23450513          	addi	a0,a0,564 # 20007234 <lstm_2_s16_output_gate_input_weights+0x60>
20002628:	778020ef          	jal	ra,20004da0 <printf>
2000262c:	008005b3          	add	a1,zero,s0
20002630:	20007537          	lui	a0,0x20007
20002634:	24c50513          	addi	a0,a0,588 # 2000724c <lstm_2_s16_output_gate_input_weights+0x78>
20002638:	768020ef          	jal	ra,20004da0 <printf>
2000263c:	bf61                	c.j	200025d4 <lstm_2+0x350>
2000263e:	0001                	c.nop

20002640 <lstm_1>:
20002640:	c7010113          	addi	sp,sp,-912
20002644:	38112623          	sw	ra,908(sp)
20002648:	38812423          	sw	s0,904(sp)
2000264c:	38912223          	sw	s1,900(sp)
20002650:	39212023          	sw	s2,896(sp)
20002654:	37312e23          	sw	s3,892(sp)
20002658:	37412c23          	sw	s4,888(sp)
2000265c:	37512a23          	sw	s5,884(sp)
20002660:	37612823          	sw	s6,880(sp)
20002664:	37712623          	sw	s7,876(sp)
20002668:	37812423          	sw	s8,872(sp)
2000266c:	37912223          	sw	s9,868(sp)
20002670:	37a12023          	sw	s10,864(sp)
20002674:	35b12e23          	sw	s11,860(sp)
20002678:	03100513          	li	a0,49
2000267c:	742020ef          	jal	ra,20004dbe <putchar>
20002680:	06e00613          	li	a2,110
20002684:	4581                	c.li	a1,0
20002686:	1588                	c.addi4spn	a0,sp,736
20002688:	66e020ef          	jal	ra,20004cf6 <memset>
2000268c:	03200513          	li	a0,50
20002690:	72e020ef          	jal	ra,20004dbe <putchar>
20002694:	20006837          	lui	a6,0x20006
20002698:	d1c80c93          	addi	s9,a6,-740 # 20005d1c <lstm_1_input_gate_bias>
2000269c:	200066b7          	lui	a3,0x20006
200026a0:	dc468d93          	addi	s11,a3,-572 # 20005dc4 <lstm_1_input_gate_input_weights>
200026a4:	2b410b93          	addi	s7,sp,692
200026a8:	d1c80813          	addi	a6,a6,-740
200026ac:	4781                	c.li	a5,0
200026ae:	08000713          	li	a4,128
200026b2:	dc468693          	addi	a3,a3,-572
200026b6:	462d                	c.li	a2,11
200026b8:	45d9                	c.li	a1,22
200026ba:	855e                	c.mv	a0,s7
200026bc:	070010ef          	jal	ra,2000372c <riscv_vector_sum_s8>
200026c0:	20006837          	lui	a6,0x20006
200026c4:	200066b7          	lui	a3,0x20006
200026c8:	0524                	c.addi4spn	s1,sp,648
200026ca:	b8080813          	addi	a6,a6,-1152 # 20005b80 <lstm_1_forget_gate_bias>
200026ce:	4781                	c.li	a5,0
200026d0:	08000713          	li	a4,128
200026d4:	c2868693          	addi	a3,a3,-984 # 20005c28 <lstm_1_forget_gate_input_weights>
200026d8:	462d                	c.li	a2,11
200026da:	45d9                	c.li	a1,22
200026dc:	00900533          	add	a0,zero,s1
200026e0:	04c010ef          	jal	ra,2000372c <riscv_vector_sum_s8>
200026e4:	20006837          	lui	a6,0x20006
200026e8:	200066b7          	lui	a3,0x20006
200026ec:	a8c68c13          	addi	s8,a3,-1396 # 20005a8c <lstm_1_cell_gate_input_weights>
200026f0:	25c10a93          	addi	s5,sp,604
200026f4:	9e480813          	addi	a6,a6,-1564 # 200059e4 <lstm_1_cell_gate_bias>
200026f8:	4781                	c.li	a5,0
200026fa:	08000713          	li	a4,128
200026fe:	a8c68693          	addi	a3,a3,-1396
20002702:	462d                	c.li	a2,11
20002704:	45d9                	c.li	a1,22
20002706:	8556                	c.mv	a0,s5
20002708:	024010ef          	jal	ra,2000372c <riscv_vector_sum_s8>
2000270c:	20006837          	lui	a6,0x20006
20002710:	200066b7          	lui	a3,0x20006
20002714:	23010993          	addi	s3,sp,560
20002718:	f9480813          	addi	a6,a6,-108 # 20005f94 <lstm_1_output_gate_bias>
2000271c:	4781                	c.li	a5,0
2000271e:	08000713          	li	a4,128
20002722:	03c68693          	addi	a3,a3,60 # 2000603c <lstm_1_output_gate_input_weights>
20002726:	462d                	c.li	a2,11
20002728:	45d9                	c.li	a1,22
2000272a:	854e                	c.mv	a0,s3
2000272c:	000010ef          	jal	ra,2000372c <riscv_vector_sum_s8>
20002730:	200066b7          	lui	a3,0x20006
20002734:	d4868d13          	addi	s10,a3,-696 # 20005d48 <lstm_1_input_gate_hidden_weights>
20002738:	20410b13          	addi	s6,sp,516
2000273c:	4801                	c.li	a6,0
2000273e:	4781                	c.li	a5,0
20002740:	577d                	c.li	a4,-1
20002742:	d4868693          	addi	a3,a3,-696
20002746:	462d                	c.li	a2,11
20002748:	45ad                	c.li	a1,11
2000274a:	855a                	c.mv	a0,s6
2000274c:	7e1000ef          	jal	ra,2000372c <riscv_vector_sum_s8>
20002750:	200066b7          	lui	a3,0x20006
20002754:	0ba0                	c.addi4spn	s0,sp,472
20002756:	4801                	c.li	a6,0
20002758:	4781                	c.li	a5,0
2000275a:	577d                	c.li	a4,-1
2000275c:	bac68693          	addi	a3,a3,-1108 # 20005bac <lstm_1_forget_gate_hidden_weights>
20002760:	462d                	c.li	a2,11
20002762:	45ad                	c.li	a1,11
20002764:	00800533          	add	a0,zero,s0
20002768:	7c5000ef          	jal	ra,2000372c <riscv_vector_sum_s8>
2000276c:	200066b7          	lui	a3,0x20006
20002770:	1ac10a13          	addi	s4,sp,428
20002774:	4801                	c.li	a6,0
20002776:	4781                	c.li	a5,0
20002778:	577d                	c.li	a4,-1
2000277a:	a1068693          	addi	a3,a3,-1520 # 20005a10 <lstm_1_cell_gate_hidden_weights>
2000277e:	462d                	c.li	a2,11
20002780:	45ad                	c.li	a1,11
20002782:	8552                	c.mv	a0,s4
20002784:	7a9000ef          	jal	ra,2000372c <riscv_vector_sum_s8>
20002788:	200066b7          	lui	a3,0x20006
2000278c:	18010913          	addi	s2,sp,384
20002790:	4801                	c.li	a6,0
20002792:	4781                	c.li	a5,0
20002794:	577d                	c.li	a4,-1
20002796:	fc068693          	addi	a3,a3,-64 # 20005fc0 <lstm_1_output_gate_hidden_weights>
2000279a:	462d                	c.li	a2,11
2000279c:	45ad                	c.li	a1,11
2000279e:	854a                	c.mv	a0,s2
200027a0:	78d000ef          	jal	ra,2000372c <riscv_vector_sum_s8>
200027a4:	03300513          	li	a0,51
200027a8:	616020ef          	jal	ra,20004dbe <putchar>
200027ac:	406ea7b7          	lui	a5,0x406ea
200027b0:	b0078793          	addi	a5,a5,-1280 # 406e9b00 <_DATA_LMA_START+0x206e1f28>
200027b4:	14f12c23          	sw	a5,344(sp)
200027b8:	57f9                	c.li	a5,-2
200027ba:	14f12e23          	sw	a5,348(sp)
200027be:	17b12023          	sw	s11,352(sp)
200027c2:	17712223          	sw	s7,356(sp)
200027c6:	5e6e7737          	lui	a4,0x5e6e7
200027ca:	f0070713          	addi	a4,a4,-256 # 5e6e6f00 <_DATA_LMA_START+0x3e6df328>
200027ce:	16e12423          	sw	a4,360(sp)
200027d2:	16f12623          	sw	a5,364(sp)
200027d6:	17a12823          	sw	s10,368(sp)
200027da:	17612a23          	sw	s6,372(sp)
200027de:	17912c23          	sw	s9,376(sp)
200027e2:	16010e23          	sb	zero,380(sp)
200027e6:	408b0737          	lui	a4,0x408b0
200027ea:	d0070713          	addi	a4,a4,-768 # 408afd00 <_DATA_LMA_START+0x208a8128>
200027ee:	10e12423          	sw	a4,264(sp)
200027f2:	10f12623          	sw	a5,268(sp)
200027f6:	11812823          	sw	s8,272(sp)
200027fa:	11512a23          	sw	s5,276(sp)
200027fe:	5f542737          	lui	a4,0x5f542
20002802:	60070713          	addi	a4,a4,1536 # 5f542600 <_DATA_LMA_START+0x3f53aa28>
20002806:	10e12c23          	sw	a4,280(sp)
2000280a:	10f12e23          	sw	a5,284(sp)
2000280e:	200065b7          	lui	a1,0x20006
20002812:	a1058593          	addi	a1,a1,-1520 # 20005a10 <lstm_1_cell_gate_hidden_weights>
20002816:	12b12023          	sw	a1,288(sp)
2000281a:	13412223          	sw	s4,292(sp)
2000281e:	200065b7          	lui	a1,0x20006
20002822:	9e458613          	addi	a2,a1,-1564 # 200059e4 <lstm_1_cell_gate_bias>
20002826:	12c12423          	sw	a2,296(sp)
2000282a:	4705                	c.li	a4,1
2000282c:	12e10623          	sb	a4,300(sp)
20002830:	4066f737          	lui	a4,0x4066f
20002834:	e0070713          	addi	a4,a4,-512 # 4066ee00 <_DATA_LMA_START+0x20667228>
20002838:	d1ba                	c.swsp	a4,224(sp)
2000283a:	d3be                	c.swsp	a5,228(sp)
2000283c:	200065b7          	lui	a1,0x20006
20002840:	03c58613          	addi	a2,a1,60 # 2000603c <lstm_1_output_gate_input_weights>
20002844:	d5b2                	c.swsp	a2,232(sp)
20002846:	d7ce                	c.swsp	s3,236(sp)
20002848:	60108737          	lui	a4,0x60108
2000284c:	f8070713          	addi	a4,a4,-128 # 60107f80 <_DATA_LMA_START+0x401003a8>
20002850:	d9ba                	c.swsp	a4,240(sp)
20002852:	dbbe                	c.swsp	a5,244(sp)
20002854:	200065b7          	lui	a1,0x20006
20002858:	fc058613          	addi	a2,a1,-64 # 20005fc0 <lstm_1_output_gate_hidden_weights>
2000285c:	ddb2                	c.swsp	a2,248(sp)
2000285e:	dfca                	c.swsp	s2,252(sp)
20002860:	200065b7          	lui	a1,0x20006
20002864:	f9458613          	addi	a2,a1,-108 # 20005f94 <lstm_1_output_gate_bias>
20002868:	10c12023          	sw	a2,256(sp)
2000286c:	10010223          	sb	zero,260(sp)
20002870:	4705                	c.li	a4,1
20002872:	c83a                	c.swsp	a4,16(sp)
20002874:	ca3a                	c.swsp	a4,20(sp)
20002876:	46a9                	c.li	a3,10
20002878:	cc36                	c.swsp	a3,24(sp)
2000287a:	46d9                	c.li	a3,22
2000287c:	ce36                	c.swsp	a3,28(sp)
2000287e:	46ad                	c.li	a3,11
20002880:	d036                	c.swsp	a3,32(sp)
20002882:	08000693          	li	a3,128
20002886:	d236                	c.swsp	a3,36(sp)
20002888:	400006b7          	lui	a3,0x40000
2000288c:	d436                	c.swsp	a3,40(sp)
2000288e:	5649                	c.li	a2,-14
20002890:	d632                	c.swsp	a2,44(sp)
20002892:	d836                	c.swsp	a3,48(sp)
20002894:	56c5                	c.li	a3,-15
20002896:	da36                	c.swsp	a3,52(sp)
20002898:	66a1                	c.lui	a3,0x8
2000289a:	16fd                	c.addi	a3,-1
2000289c:	dc36                	c.swsp	a3,56(sp)
2000289e:	de32                	c.swsp	a2,60(sp)
200028a0:	55e8e6b7          	lui	a3,0x55e8e
200028a4:	dce68693          	addi	a3,a3,-562 # 55e8ddce <_DATA_LMA_START+0x35e861f6>
200028a8:	c0b6                	c.swsp	a3,64(sp)
200028aa:	56a9                	c.li	a3,-22
200028ac:	c2b6                	c.swsp	a3,68(sp)
200028ae:	c4ba                	c.swsp	a4,72(sp)
200028b0:	40a3d737          	lui	a4,0x40a3d
200028b4:	a0070713          	addi	a4,a4,-1536 # 40a3ca00 <_DATA_LMA_START+0x20a34e28>
200028b8:	c6ba                	c.swsp	a4,76(sp)
200028ba:	c8be                	c.swsp	a5,80(sp)
200028bc:	200065b7          	lui	a1,0x20006
200028c0:	c2858613          	addi	a2,a1,-984 # 20005c28 <lstm_1_forget_gate_input_weights>
200028c4:	cab2                	c.swsp	a2,84(sp)
200028c6:	cca6                	c.swsp	s1,88(sp)
200028c8:	5edde737          	lui	a4,0x5edde
200028cc:	e8070713          	addi	a4,a4,-384 # 5eddde80 <_DATA_LMA_START+0x3edd62a8>
200028d0:	ceba                	c.swsp	a4,92(sp)
200028d2:	d0be                	c.swsp	a5,96(sp)
200028d4:	200064b7          	lui	s1,0x20006
200028d8:	bac48493          	addi	s1,s1,-1108 # 20005bac <lstm_1_forget_gate_hidden_weights>
200028dc:	d2a6                	c.swsp	s1,100(sp)
200028de:	d4a2                	c.swsp	s0,104(sp)
200028e0:	20006437          	lui	s0,0x20006
200028e4:	b8040413          	addi	s0,s0,-1152 # 20005b80 <lstm_1_forget_gate_bias>
200028e8:	d6a2                	c.swsp	s0,108(sp)
200028ea:	06010823          	sb	zero,112(sp)
200028ee:	02500613          	li	a2,37
200028f2:	0aac                	c.addi4spn	a1,sp,344
200028f4:	07110513          	addi	a0,sp,113
200028f8:	304020ef          	jal	ra,20004bfc <memcpy>
200028fc:	02500613          	li	a2,37
20002900:	10810593          	addi	a1,sp,264
20002904:	09610513          	addi	a0,sp,150
20002908:	2f4020ef          	jal	ra,20004bfc <memcpy>
2000290c:	02500613          	li	a2,37
20002910:	0e010593          	addi	a1,sp,224
20002914:	0bb10513          	addi	a0,sp,187
20002918:	2e4020ef          	jal	ra,20004bfc <memcpy>
2000291c:	91df978b          	addigp	a5,-1764 # 8011c <buffer1.lto_priv.3>
20002920:	c23e                	c.swsp	a5,4(sp)
20002922:	a69f978b          	addigp	a5,-1432 # 80268 <buffer2.lto_priv.5>
20002926:	c43e                	c.swsp	a5,8(sp)
20002928:	bb5f978b          	addigp	a5,-1100 # 803b4 <buffer3.lto_priv.7>
2000292c:	00f12623          	sw	a5,12(sp)
20002930:	03400513          	li	a0,52
20002934:	48a020ef          	jal	ra,20004dbe <putchar>
20002938:	03100513          	li	a0,49
2000293c:	482020ef          	jal	ra,20004dbe <putchar>
20002940:	0054                	c.addi4spn	a3,sp,4
20002942:	0810                	c.addi4spn	a2,sp,16
20002944:	2e010593          	addi	a1,sp,736
20002948:	20006537          	lui	a0,0x20006
2000294c:	eb850513          	addi	a0,a0,-328 # 20005eb8 <lstm_1_input_tensor>
20002950:	685000ef          	jal	ra,200037d4 <riscv_lstm_unidirectional_s8>
20002954:	03200513          	li	a0,50
20002958:	466020ef          	jal	ra,20004dbe <putchar>
2000295c:	38c12083          	lw	ra,908(sp)
20002960:	38812403          	lw	s0,904(sp)
20002964:	38412483          	lw	s1,900(sp)
20002968:	38012903          	lw	s2,896(sp)
2000296c:	37c12983          	lw	s3,892(sp)
20002970:	37812a03          	lw	s4,888(sp)
20002974:	37412a83          	lw	s5,884(sp)
20002978:	37012b03          	lw	s6,880(sp)
2000297c:	36c12b83          	lw	s7,876(sp)
20002980:	36812c03          	lw	s8,872(sp)
20002984:	36412c83          	lw	s9,868(sp)
20002988:	36012d03          	lw	s10,864(sp)
2000298c:	35c12d83          	lw	s11,860(sp)
20002990:	39010113          	addi	sp,sp,912
20002994:	8082                	c.jr	ra
	...

20002998 <lstm_one_time_step_s16>:
20002998:	d6010113          	addi	sp,sp,-672
2000299c:	28112e23          	sw	ra,668(sp)
200029a0:	28812c23          	sw	s0,664(sp)
200029a4:	28912a23          	sw	s1,660(sp)
200029a8:	29212823          	sw	s2,656(sp)
200029ac:	29312623          	sw	s3,652(sp)
200029b0:	29412423          	sw	s4,648(sp)
200029b4:	29512223          	sw	s5,644(sp)
200029b8:	29612023          	sw	s6,640(sp)
200029bc:	27712e23          	sw	s7,636(sp)
200029c0:	27812c23          	sw	s8,632(sp)
200029c4:	27912a23          	sw	s9,628(sp)
200029c8:	27a12823          	sw	s10,624(sp)
200029cc:	27b12623          	sw	s11,620(sp)
200029d0:	24012623          	sw	zero,588(sp)
200029d4:	24012823          	sw	zero,592(sp)
200029d8:	24012a23          	sw	zero,596(sp)
200029dc:	24012c23          	sw	zero,600(sp)
200029e0:	24011e23          	sh	zero,604(sp)
200029e4:	200077b7          	lui	a5,0x20007
200029e8:	61878c93          	addi	s9,a5,1560 # 20007618 <lstm_one_time_step_s16_input_gate_bias>
200029ec:	200076b7          	lui	a3,0x20007
200029f0:	63c68d93          	addi	s11,a3,1596 # 2000763c <lstm_one_time_step_s16_input_gate_input_weights>
200029f4:	23010b93          	addi	s7,sp,560
200029f8:	61878793          	addi	a5,a5,1560
200029fc:	4701                	c.li	a4,0
200029fe:	63c68693          	addi	a3,a3,1596
20002a02:	460d                	c.li	a2,3
20002a04:	45d9                	c.li	a1,22
20002a06:	855e                	c.mv	a0,s7
20002a08:	479000ef          	jal	ra,20003680 <riscv_vector_sum_s8_s64>
20002a0c:	200077b7          	lui	a5,0x20007
20002a10:	200076b7          	lui	a3,0x20007
20002a14:	0c24                	c.addi4spn	s1,sp,536
20002a16:	5b078793          	addi	a5,a5,1456 # 200075b0 <lstm_one_time_step_s16_forget_gate_bias>
20002a1a:	4701                	c.li	a4,0
20002a1c:	5d468693          	addi	a3,a3,1492 # 200075d4 <lstm_one_time_step_s16_forget_gate_input_weights>
20002a20:	460d                	c.li	a2,3
20002a22:	45d9                	c.li	a1,22
20002a24:	00900533          	add	a0,zero,s1
20002a28:	459000ef          	jal	ra,20003680 <riscv_vector_sum_s8_s64>
20002a2c:	200077b7          	lui	a5,0x20007
20002a30:	200076b7          	lui	a3,0x20007
20002a34:	56c68c13          	addi	s8,a3,1388 # 2000756c <lstm_one_time_step_s16_cell_gate_input_weights>
20002a38:	20010a93          	addi	s5,sp,512
20002a3c:	54878793          	addi	a5,a5,1352 # 20007548 <lstm_one_time_step_s16_cell_gate_bias>
20002a40:	4701                	c.li	a4,0
20002a42:	56c68693          	addi	a3,a3,1388
20002a46:	460d                	c.li	a2,3
20002a48:	45d9                	c.li	a1,22
20002a4a:	8556                	c.mv	a0,s5
20002a4c:	435000ef          	jal	ra,20003680 <riscv_vector_sum_s8_s64>
20002a50:	200077b7          	lui	a5,0x20007
20002a54:	200076b7          	lui	a3,0x20007
20002a58:	1e810993          	addi	s3,sp,488
20002a5c:	71878793          	addi	a5,a5,1816 # 20007718 <lstm_one_time_step_s16_output_gate_bias>
20002a60:	4701                	c.li	a4,0
20002a62:	73c68693          	addi	a3,a3,1852 # 2000773c <lstm_one_time_step_s16_output_gate_input_weights>
20002a66:	460d                	c.li	a2,3
20002a68:	45d9                	c.li	a1,22
20002a6a:	854e                	c.mv	a0,s3
20002a6c:	415000ef          	jal	ra,20003680 <riscv_vector_sum_s8_s64>
20002a70:	200076b7          	lui	a3,0x20007
20002a74:	63068d13          	addi	s10,a3,1584 # 20007630 <lstm_one_time_step_s16_input_gate_hidden_weights>
20002a78:	1d010b13          	addi	s6,sp,464
20002a7c:	4781                	c.li	a5,0
20002a7e:	4701                	c.li	a4,0
20002a80:	63068693          	addi	a3,a3,1584
20002a84:	460d                	c.li	a2,3
20002a86:	458d                	c.li	a1,3
20002a88:	01600533          	add	a0,zero,s6
20002a8c:	3f5000ef          	jal	ra,20003680 <riscv_vector_sum_s8_s64>
20002a90:	200076b7          	lui	a3,0x20007
20002a94:	1b20                	c.addi4spn	s0,sp,440
20002a96:	4781                	c.li	a5,0
20002a98:	4701                	c.li	a4,0
20002a9a:	5c868693          	addi	a3,a3,1480 # 200075c8 <lstm_one_time_step_s16_forget_gate_hidden_weights>
20002a9e:	460d                	c.li	a2,3
20002aa0:	458d                	c.li	a1,3
20002aa2:	8522                	c.mv	a0,s0
20002aa4:	3dd000ef          	jal	ra,20003680 <riscv_vector_sum_s8_s64>
20002aa8:	200076b7          	lui	a3,0x20007
20002aac:	1a010a13          	addi	s4,sp,416
20002ab0:	4781                	c.li	a5,0
20002ab2:	4701                	c.li	a4,0
20002ab4:	56068693          	addi	a3,a3,1376 # 20007560 <lstm_one_time_step_s16_cell_gate_hidden_weights>
20002ab8:	460d                	c.li	a2,3
20002aba:	458d                	c.li	a1,3
20002abc:	01400533          	add	a0,zero,s4
20002ac0:	3c1000ef          	jal	ra,20003680 <riscv_vector_sum_s8_s64>
20002ac4:	200076b7          	lui	a3,0x20007
20002ac8:	18810913          	addi	s2,sp,392
20002acc:	4781                	c.li	a5,0
20002ace:	4701                	c.li	a4,0
20002ad0:	73068693          	addi	a3,a3,1840 # 20007730 <lstm_one_time_step_s16_output_gate_hidden_weights>
20002ad4:	460d                	c.li	a2,3
20002ad6:	458d                	c.li	a1,3
20002ad8:	01200533          	add	a0,zero,s2
20002adc:	3a5000ef          	jal	ra,20003680 <riscv_vector_sum_s8_s64>
20002ae0:	655ff7b7          	lui	a5,0x655ff
20002ae4:	90f78793          	addi	a5,a5,-1777 # 655fe90f <_DATA_LMA_START+0x455f6d37>
20002ae8:	16f12023          	sw	a5,352(sp)
20002aec:	57e1                	c.li	a5,-8
20002aee:	16f12223          	sw	a5,356(sp)
20002af2:	17b12423          	sw	s11,360(sp)
20002af6:	17712623          	sw	s7,364(sp)
20002afa:	78993737          	lui	a4,0x78993
20002afe:	fdf70713          	addi	a4,a4,-33 # 78992fdf <_DATA_LMA_START+0x5898b407>
20002b02:	16e12823          	sw	a4,368(sp)
20002b06:	5655                	c.li	a2,-11
20002b08:	16c12a23          	sw	a2,372(sp)
20002b0c:	17a12c23          	sw	s10,376(sp)
20002b10:	17612e23          	sw	s6,380(sp)
20002b14:	19912023          	sw	s9,384(sp)
20002b18:	18010223          	sb	zero,388(sp)
20002b1c:	409c7737          	lui	a4,0x409c7
20002b20:	f3870713          	addi	a4,a4,-200 # 409c6f38 <_DATA_LMA_START+0x209bf360>
20002b24:	10e12823          	sw	a4,272(sp)
20002b28:	10f12a23          	sw	a5,276(sp)
20002b2c:	11812c23          	sw	s8,280(sp)
20002b30:	11512e23          	sw	s5,284(sp)
20002b34:	55b17737          	lui	a4,0x55b17
20002b38:	4bc70713          	addi	a4,a4,1212 # 55b174bc <_DATA_LMA_START+0x35b0f8e4>
20002b3c:	12e12023          	sw	a4,288(sp)
20002b40:	5759                	c.li	a4,-10
20002b42:	12e12223          	sw	a4,292(sp)
20002b46:	200075b7          	lui	a1,0x20007
20002b4a:	56058593          	addi	a1,a1,1376 # 20007560 <lstm_one_time_step_s16_cell_gate_hidden_weights>
20002b4e:	12b12423          	sw	a1,296(sp)
20002b52:	13412623          	sw	s4,300(sp)
20002b56:	200075b7          	lui	a1,0x20007
20002b5a:	54858593          	addi	a1,a1,1352 # 20007548 <lstm_one_time_step_s16_cell_gate_bias>
20002b5e:	12b12823          	sw	a1,304(sp)
20002b62:	4685                	c.li	a3,1
20002b64:	12d10a23          	sb	a3,308(sp)
20002b68:	6deca6b7          	lui	a3,0x6deca
20002b6c:	02f68693          	addi	a3,a3,47 # 6deca02f <_DATA_LMA_START+0x4dec2457>
20002b70:	d5b6                	c.swsp	a3,232(sp)
20002b72:	d7ba                	c.swsp	a4,236(sp)
20002b74:	200075b7          	lui	a1,0x20007
20002b78:	73c58593          	addi	a1,a1,1852 # 2000773c <lstm_one_time_step_s16_output_gate_input_weights>
20002b7c:	d9ae                	c.swsp	a1,240(sp)
20002b7e:	dbce                	c.swsp	s3,244(sp)
20002b80:	73fb36b7          	lui	a3,0x73fb3
20002b84:	64568693          	addi	a3,a3,1605 # 73fb3645 <_DATA_LMA_START+0x53faba6d>
20002b88:	ddb6                	c.swsp	a3,248(sp)
20002b8a:	56cd                	c.li	a3,-13
20002b8c:	dfb6                	c.swsp	a3,252(sp)
20002b8e:	200075b7          	lui	a1,0x20007
20002b92:	73058593          	addi	a1,a1,1840 # 20007730 <lstm_one_time_step_s16_output_gate_hidden_weights>
20002b96:	10b12023          	sw	a1,256(sp)
20002b9a:	11212223          	sw	s2,260(sp)
20002b9e:	200075b7          	lui	a1,0x20007
20002ba2:	71858593          	addi	a1,a1,1816 # 20007718 <lstm_one_time_step_s16_output_gate_bias>
20002ba6:	10b12423          	sw	a1,264(sp)
20002baa:	10010623          	sb	zero,268(sp)
20002bae:	cc02                	c.swsp	zero,24(sp)
20002bb0:	468d                	c.li	a3,3
20002bb2:	ce36                	c.swsp	a3,28(sp)
20002bb4:	4585                	c.li	a1,1
20002bb6:	d02e                	c.swsp	a1,32(sp)
20002bb8:	45d9                	c.li	a1,22
20002bba:	d22e                	c.swsp	a1,36(sp)
20002bbc:	d436                	c.swsp	a3,40(sp)
20002bbe:	d602                	c.swsp	zero,44(sp)
20002bc0:	400006b7          	lui	a3,0x40000
20002bc4:	d836                	c.swsp	a3,48(sp)
20002bc6:	56c9                	c.li	a3,-14
20002bc8:	da36                	c.swsp	a3,52(sp)
20002bca:	5d48a6b7          	lui	a3,0x5d48a
20002bce:	8d668693          	addi	a3,a3,-1834 # 5d4898d6 <_DATA_LMA_START+0x3d481cfe>
20002bd2:	dc36                	c.swsp	a3,56(sp)
20002bd4:	56b1                	c.li	a3,-20
20002bd6:	de36                	c.swsp	a3,60(sp)
20002bd8:	66a1                	c.lui	a3,0x8
20002bda:	16fd                	c.addi	a3,-1
20002bdc:	c0b6                	c.swsp	a3,64(sp)
20002bde:	c2ba                	c.swsp	a4,68(sp)
20002be0:	5ad7d737          	lui	a4,0x5ad7d
20002be4:	05f70713          	addi	a4,a4,95 # 5ad7d05f <_DATA_LMA_START+0x3ad75487>
20002be8:	c4ba                	c.swsp	a4,72(sp)
20002bea:	573d                	c.li	a4,-17
20002bec:	c6ba                	c.swsp	a4,76(sp)
20002bee:	c882                	c.swsp	zero,80(sp)
20002bf0:	62524737          	lui	a4,0x62524
20002bf4:	9f270713          	addi	a4,a4,-1550 # 625239f2 <_DATA_LMA_START+0x4251be1a>
20002bf8:	caba                	c.swsp	a4,84(sp)
20002bfa:	ccbe                	c.swsp	a5,88(sp)
20002bfc:	20007737          	lui	a4,0x20007
20002c00:	5d470593          	addi	a1,a4,1492 # 200075d4 <lstm_one_time_step_s16_forget_gate_input_weights>
20002c04:	ceae                	c.swsp	a1,92(sp)
20002c06:	d0a6                	c.swsp	s1,96(sp)
20002c08:	6e70d7b7          	lui	a5,0x6e70d
20002c0c:	78d78793          	addi	a5,a5,1933 # 6e70d78d <_DATA_LMA_START+0x4e705bb5>
20002c10:	d2be                	c.swsp	a5,100(sp)
20002c12:	d4b2                	c.swsp	a2,104(sp)
20002c14:	200074b7          	lui	s1,0x20007
20002c18:	5c848493          	addi	s1,s1,1480 # 200075c8 <lstm_one_time_step_s16_forget_gate_hidden_weights>
20002c1c:	d6a6                	c.swsp	s1,108(sp)
20002c1e:	d8a2                	c.swsp	s0,112(sp)
20002c20:	20007437          	lui	s0,0x20007
20002c24:	5b040413          	addi	s0,s0,1456 # 200075b0 <lstm_one_time_step_s16_forget_gate_bias>
20002c28:	daa2                	c.swsp	s0,116(sp)
20002c2a:	06010c23          	sb	zero,120(sp)
20002c2e:	02500613          	li	a2,37
20002c32:	128c                	c.addi4spn	a1,sp,352
20002c34:	07910513          	addi	a0,sp,121
20002c38:	7c5010ef          	jal	ra,20004bfc <memcpy>
20002c3c:	02500613          	li	a2,37
20002c40:	11010593          	addi	a1,sp,272
20002c44:	09e10513          	addi	a0,sp,158
20002c48:	7b5010ef          	jal	ra,20004bfc <memcpy>
20002c4c:	02500613          	li	a2,37
20002c50:	0e810593          	addi	a1,sp,232
20002c54:	0c310513          	addi	a0,sp,195
20002c58:	7a5010ef          	jal	ra,20004bfc <memcpy>
20002c5c:	841f978b          	addigp	a5,-1984 # 80040 <buffer1.lto_priv.2>
20002c60:	c63e                	c.swsp	a5,12(sp)
20002c62:	98df978b          	addigp	a5,-1652 # 8018c <buffer2.lto_priv.4>
20002c66:	c83e                	c.swsp	a5,16(sp)
20002c68:	ad9f978b          	addigp	a5,-1320 # 802d8 <buffer3.lto_priv.6>
20002c6c:	ca3e                	c.swsp	a5,20(sp)
20002c6e:	001f978b          	addigp	a5,129024 # a0000 <_STACK_TOP>
20002c72:	777d                	c.lui	a4,0xfffff
20002c74:	00e787b3          	add	a5,a5,a4
20002c78:	82ffc7ab          	swgp	a5,-2004 # 8002c <stack_limit>
20002c7c:	92cff0ef          	jal	ra,20001da8 <reset_cycle_count.lto_priv.14>
20002c80:	b1dfe0ef          	jal	ra,2000179c <fill_stack_pattern_to_sp.lto_priv.10>
20002c84:	b69fe0ef          	jal	ra,200017ec <read_cycle_counter.lto_priv.12>
20002c88:	842a                	c.mv	s0,a0
20002c8a:	0074                	c.addi4spn	a3,sp,12
20002c8c:	0830                	c.addi4spn	a2,sp,24
20002c8e:	04ec                	c.addi4spn	a1,sp,588
20002c90:	20007537          	lui	a0,0x20007
20002c94:	68050513          	addi	a0,a0,1664 # 20007680 <lstm_one_time_step_s16_input_tensor>
20002c98:	3f1000ef          	jal	ra,20003888 <riscv_lstm_unidirectional_s16>
20002c9c:	00a004b3          	add	s1,zero,a0
20002ca0:	b4dfe0ef          	jal	ra,200017ec <read_cycle_counter.lto_priv.12>
20002ca4:	40850433          	sub	s0,a0,s0
20002ca8:	acdfe0ef          	jal	ra,20001774 <measure_stack_usage.lto_priv.8>
20002cac:	00a00933          	add	s2,zero,a0
20002cb0:	20007537          	lui	a0,0x20007
20002cb4:	7e850513          	addi	a0,a0,2024 # 200077e8 <lstm_one_time_step_s16_output_gate_input_weights+0xac>
20002cb8:	0e8020ef          	jal	ra,20004da0 <printf>
20002cbc:	ec81                	c.bnez	s1,20002cd4 <lstm_one_time_step_s16+0x33c>
20002cbe:	4625                	c.li	a2,9
20002cc0:	200075b7          	lui	a1,0x20007
20002cc4:	70458593          	addi	a1,a1,1796 # 20007704 <lstm_one_time_step_s16_output>
20002cc8:	24c10513          	addi	a0,sp,588
20002ccc:	970ff0ef          	jal	ra,20001e3c <validate_s16>
20002cd0:	04051663          	bnez	a0,20002d1c <lstm_one_time_step_s16+0x384>
20002cd4:	20007537          	lui	a0,0x20007
20002cd8:	51450513          	addi	a0,a0,1300 # 20007514 <lstm_one_time_step_output_gate_input_weights+0x104>
20002cdc:	0c4020ef          	jal	ra,20004da0 <printf>
20002ce0:	29c12083          	lw	ra,668(sp)
20002ce4:	29812403          	lw	s0,664(sp)
20002ce8:	29412483          	lw	s1,660(sp)
20002cec:	29012903          	lw	s2,656(sp)
20002cf0:	28c12983          	lw	s3,652(sp)
20002cf4:	28812a03          	lw	s4,648(sp)
20002cf8:	28412a83          	lw	s5,644(sp)
20002cfc:	28012b03          	lw	s6,640(sp)
20002d00:	27c12b83          	lw	s7,636(sp)
20002d04:	27812c03          	lw	s8,632(sp)
20002d08:	27412c83          	lw	s9,628(sp)
20002d0c:	27012d03          	lw	s10,624(sp)
20002d10:	26c12d83          	lw	s11,620(sp)
20002d14:	2a010113          	addi	sp,sp,672
20002d18:	00008067          	ret
20002d1c:	20007537          	lui	a0,0x20007
20002d20:	45450513          	addi	a0,a0,1108 # 20007454 <lstm_one_time_step_output_gate_input_weights+0x44>
20002d24:	07c020ef          	jal	ra,20004da0 <printf>
20002d28:	012005b3          	add	a1,zero,s2
20002d2c:	20007537          	lui	a0,0x20007
20002d30:	48850513          	addi	a0,a0,1160 # 20007488 <lstm_one_time_step_output_gate_input_weights+0x78>
20002d34:	06c020ef          	jal	ra,20004da0 <printf>
20002d38:	008005b3          	add	a1,zero,s0
20002d3c:	20007537          	lui	a0,0x20007
20002d40:	4d450513          	addi	a0,a0,1236 # 200074d4 <lstm_one_time_step_output_gate_input_weights+0xc4>
20002d44:	05c020ef          	jal	ra,20004da0 <printf>
20002d48:	bf61                	c.j	20002ce0 <lstm_one_time_step_s16+0x348>
20002d4a:	0001                	c.nop

20002d4c <lstm_2_s16>:
20002d4c:	c0010113          	addi	sp,sp,-1024
20002d50:	3e112e23          	sw	ra,1020(sp)
20002d54:	3e812c23          	sw	s0,1016(sp)
20002d58:	3e912a23          	sw	s1,1012(sp)
20002d5c:	3f212823          	sw	s2,1008(sp)
20002d60:	3f312623          	sw	s3,1004(sp)
20002d64:	3f412423          	sw	s4,1000(sp)
20002d68:	3f512223          	sw	s5,996(sp)
20002d6c:	3f612023          	sw	s6,992(sp)
20002d70:	3d712e23          	sw	s7,988(sp)
20002d74:	3d812c23          	sw	s8,984(sp)
20002d78:	3d912a23          	sw	s9,980(sp)
20002d7c:	3da12823          	sw	s10,976(sp)
20002d80:	3db12623          	sw	s11,972(sp)
20002d84:	07e00613          	li	a2,126
20002d88:	4581                	c.li	a1,0
20002d8a:	0688                	c.addi4spn	a0,sp,832
20002d8c:	76b010ef          	jal	ra,20004cf6 <memset>
20002d90:	200077b7          	lui	a5,0x20007
20002d94:	fe078c93          	addi	s9,a5,-32 # 20006fe0 <lstm_2_s16_input_gate_bias>
20002d98:	200076b7          	lui	a3,0x20007
20002d9c:	04c68d93          	addi	s11,a3,76 # 2000704c <lstm_2_s16_input_gate_input_weights>
20002da0:	30810b93          	addi	s7,sp,776
20002da4:	fe078793          	addi	a5,a5,-32
20002da8:	4701                	c.li	a4,0
20002daa:	04c68693          	addi	a3,a3,76
20002dae:	461d                	c.li	a2,7
20002db0:	4599                	c.li	a1,6
20002db2:	855e                	c.mv	a0,s7
20002db4:	0cd000ef          	jal	ra,20003680 <riscv_vector_sum_s8_s64>
20002db8:	200077b7          	lui	a5,0x20007
20002dbc:	200076b7          	lui	a3,0x20007
20002dc0:	0d84                	c.addi4spn	s1,sp,720
20002dc2:	f4878793          	addi	a5,a5,-184 # 20006f48 <lstm_2_s16_forget_gate_bias>
20002dc6:	4701                	c.li	a4,0
20002dc8:	fb468693          	addi	a3,a3,-76 # 20006fb4 <lstm_2_s16_forget_gate_input_weights>
20002dcc:	461d                	c.li	a2,7
20002dce:	4599                	c.li	a1,6
20002dd0:	00900533          	add	a0,zero,s1
20002dd4:	0ad000ef          	jal	ra,20003680 <riscv_vector_sum_s8_s64>
20002dd8:	200077b7          	lui	a5,0x20007
20002ddc:	200076b7          	lui	a3,0x20007
20002de0:	f1c68c13          	addi	s8,a3,-228 # 20006f1c <lstm_2_s16_cell_gate_input_weights>
20002de4:	29810a93          	addi	s5,sp,664
20002de8:	eb078793          	addi	a5,a5,-336 # 20006eb0 <lstm_2_s16_cell_gate_bias>
20002dec:	4701                	c.li	a4,0
20002dee:	f1c68693          	addi	a3,a3,-228
20002df2:	461d                	c.li	a2,7
20002df4:	4599                	c.li	a1,6
20002df6:	8556                	c.mv	a0,s5
20002df8:	089000ef          	jal	ra,20003680 <riscv_vector_sum_s8_s64>
20002dfc:	200077b7          	lui	a5,0x20007
20002e00:	200076b7          	lui	a3,0x20007
20002e04:	26010993          	addi	s3,sp,608
20002e08:	16878793          	addi	a5,a5,360 # 20007168 <lstm_2_s16_output_gate_bias>
20002e0c:	4701                	c.li	a4,0
20002e0e:	1d468693          	addi	a3,a3,468 # 200071d4 <lstm_2_s16_output_gate_input_weights>
20002e12:	461d                	c.li	a2,7
20002e14:	4599                	c.li	a1,6
20002e16:	854e                	c.mv	a0,s3
20002e18:	069000ef          	jal	ra,20003680 <riscv_vector_sum_s8_s64>
20002e1c:	200076b7          	lui	a3,0x20007
20002e20:	01868d13          	addi	s10,a3,24 # 20007018 <lstm_2_s16_input_gate_hidden_weights>
20002e24:	22810b13          	addi	s6,sp,552
20002e28:	4781                	c.li	a5,0
20002e2a:	4701                	c.li	a4,0
20002e2c:	01868693          	addi	a3,a3,24
20002e30:	461d                	c.li	a2,7
20002e32:	459d                	c.li	a1,7
20002e34:	01600533          	add	a0,zero,s6
20002e38:	049000ef          	jal	ra,20003680 <riscv_vector_sum_s8_s64>
20002e3c:	200076b7          	lui	a3,0x20007
20002e40:	1b80                	c.addi4spn	s0,sp,496
20002e42:	4781                	c.li	a5,0
20002e44:	4701                	c.li	a4,0
20002e46:	f8068693          	addi	a3,a3,-128 # 20006f80 <lstm_2_s16_forget_gate_hidden_weights>
20002e4a:	461d                	c.li	a2,7
20002e4c:	459d                	c.li	a1,7
20002e4e:	8522                	c.mv	a0,s0
20002e50:	031000ef          	jal	ra,20003680 <riscv_vector_sum_s8_s64>
20002e54:	200076b7          	lui	a3,0x20007
20002e58:	1b810a13          	addi	s4,sp,440
20002e5c:	4781                	c.li	a5,0
20002e5e:	4701                	c.li	a4,0
20002e60:	ee868693          	addi	a3,a3,-280 # 20006ee8 <lstm_2_s16_cell_gate_hidden_weights>
20002e64:	461d                	c.li	a2,7
20002e66:	459d                	c.li	a1,7
20002e68:	01400533          	add	a0,zero,s4
20002e6c:	015000ef          	jal	ra,20003680 <riscv_vector_sum_s8_s64>
20002e70:	200076b7          	lui	a3,0x20007
20002e74:	18010913          	addi	s2,sp,384
20002e78:	4781                	c.li	a5,0
20002e7a:	4701                	c.li	a4,0
20002e7c:	1a068693          	addi	a3,a3,416 # 200071a0 <lstm_2_s16_output_gate_hidden_weights>
20002e80:	461d                	c.li	a2,7
20002e82:	459d                	c.li	a1,7
20002e84:	01200533          	add	a0,zero,s2
20002e88:	7f8000ef          	jal	ra,20003680 <riscv_vector_sum_s8_s64>
20002e8c:	5264c7b7          	lui	a5,0x5264c
20002e90:	19678793          	addi	a5,a5,406 # 5264c196 <_DATA_LMA_START+0x326445be>
20002e94:	14f12c23          	sw	a5,344(sp)
20002e98:	5659                	c.li	a2,-10
20002e9a:	14c12e23          	sw	a2,348(sp)
20002e9e:	17b12023          	sw	s11,352(sp)
20002ea2:	17712223          	sw	s7,356(sp)
20002ea6:	5da9f7b7          	lui	a5,0x5da9f
20002eaa:	18478793          	addi	a5,a5,388 # 5da9f184 <_DATA_LMA_START+0x3da975ac>
20002eae:	16f12423          	sw	a5,360(sp)
20002eb2:	57dd                	c.li	a5,-9
20002eb4:	16f12623          	sw	a5,364(sp)
20002eb8:	17a12823          	sw	s10,368(sp)
20002ebc:	17612a23          	sw	s6,372(sp)
20002ec0:	17912c23          	sw	s9,376(sp)
20002ec4:	16010e23          	sb	zero,380(sp)
20002ec8:	41d5c737          	lui	a4,0x41d5c
20002ecc:	9ff70713          	addi	a4,a4,-1537 # 41d5b9ff <_DATA_LMA_START+0x21d53e27>
20002ed0:	10e12423          	sw	a4,264(sp)
20002ed4:	10f12623          	sw	a5,268(sp)
20002ed8:	11812823          	sw	s8,272(sp)
20002edc:	11512a23          	sw	s5,276(sp)
20002ee0:	5fde2737          	lui	a4,0x5fde2
20002ee4:	15d70713          	addi	a4,a4,349 # 5fde215d <_DATA_LMA_START+0x3fdda585>
20002ee8:	10e12c23          	sw	a4,280(sp)
20002eec:	56e1                	c.li	a3,-8
20002eee:	10d12e23          	sw	a3,284(sp)
20002ef2:	200075b7          	lui	a1,0x20007
20002ef6:	ee858593          	addi	a1,a1,-280 # 20006ee8 <lstm_2_s16_cell_gate_hidden_weights>
20002efa:	12b12023          	sw	a1,288(sp)
20002efe:	13412223          	sw	s4,292(sp)
20002f02:	200075b7          	lui	a1,0x20007
20002f06:	eb058593          	addi	a1,a1,-336 # 20006eb0 <lstm_2_s16_cell_gate_bias>
20002f0a:	12b12423          	sw	a1,296(sp)
20002f0e:	4705                	c.li	a4,1
20002f10:	12e10623          	sb	a4,300(sp)
20002f14:	41466737          	lui	a4,0x41466
20002f18:	0b270713          	addi	a4,a4,178 # 414660b2 <_DATA_LMA_START+0x2145e4da>
20002f1c:	d1ba                	c.swsp	a4,224(sp)
20002f1e:	d3b2                	c.swsp	a2,228(sp)
20002f20:	20007637          	lui	a2,0x20007
20002f24:	1d460613          	addi	a2,a2,468 # 200071d4 <lstm_2_s16_output_gate_input_weights>
20002f28:	d5b2                	c.swsp	a2,232(sp)
20002f2a:	d7ce                	c.swsp	s3,236(sp)
20002f2c:	61147737          	lui	a4,0x61147
20002f30:	ee170713          	addi	a4,a4,-287 # 61146ee1 <_DATA_LMA_START+0x4113f309>
20002f34:	d9ba                	c.swsp	a4,240(sp)
20002f36:	dbb6                	c.swsp	a3,244(sp)
20002f38:	20007637          	lui	a2,0x20007
20002f3c:	1a060613          	addi	a2,a2,416 # 200071a0 <lstm_2_s16_output_gate_hidden_weights>
20002f40:	ddb2                	c.swsp	a2,248(sp)
20002f42:	dfca                	c.swsp	s2,252(sp)
20002f44:	20007637          	lui	a2,0x20007
20002f48:	16860593          	addi	a1,a2,360 # 20007168 <lstm_2_s16_output_gate_bias>
20002f4c:	10b12023          	sw	a1,256(sp)
20002f50:	10010223          	sb	zero,260(sp)
20002f54:	c802                	c.swsp	zero,16(sp)
20002f56:	4705                	c.li	a4,1
20002f58:	ca3a                	c.swsp	a4,20(sp)
20002f5a:	4725                	c.li	a4,9
20002f5c:	cc3a                	c.swsp	a4,24(sp)
20002f5e:	4719                	c.li	a4,6
20002f60:	ce3a                	c.swsp	a4,28(sp)
20002f62:	471d                	c.li	a4,7
20002f64:	d03a                	c.swsp	a4,32(sp)
20002f66:	d202                	c.swsp	zero,36(sp)
20002f68:	40000737          	lui	a4,0x40000
20002f6c:	d43a                	c.swsp	a4,40(sp)
20002f6e:	5749                	c.li	a4,-14
20002f70:	d63a                	c.swsp	a4,44(sp)
20002f72:	59ed9737          	lui	a4,0x59ed9
20002f76:	52e70713          	addi	a4,a4,1326 # 59ed952e <_DATA_LMA_START+0x39ed1956>
20002f7a:	d83a                	c.swsp	a4,48(sp)
20002f7c:	5731                	c.li	a4,-20
20002f7e:	da3a                	c.swsp	a4,52(sp)
20002f80:	6721                	c.lui	a4,0x8
20002f82:	177d                	c.addi	a4,-1
20002f84:	dc3a                	c.swsp	a4,56(sp)
20002f86:	de3e                	c.swsp	a5,60(sp)
20002f88:	4c207737          	lui	a4,0x4c207
20002f8c:	dc270713          	addi	a4,a4,-574 # 4c206dc2 <_DATA_LMA_START+0x2c1ff1ea>
20002f90:	c0ba                	c.swsp	a4,64(sp)
20002f92:	5735                	c.li	a4,-19
20002f94:	c2ba                	c.swsp	a4,68(sp)
20002f96:	c482                	c.swsp	zero,72(sp)
20002f98:	63832737          	lui	a4,0x63832
20002f9c:	27970713          	addi	a4,a4,633 # 63832279 <_DATA_LMA_START+0x4382a6a1>
20002fa0:	c6ba                	c.swsp	a4,76(sp)
20002fa2:	5755                	c.li	a4,-11
20002fa4:	c8ba                	c.swsp	a4,80(sp)
20002fa6:	20007637          	lui	a2,0x20007
20002faa:	fb460593          	addi	a1,a2,-76 # 20006fb4 <lstm_2_s16_forget_gate_input_weights>
20002fae:	caae                	c.swsp	a1,84(sp)
20002fb0:	cca6                	c.swsp	s1,88(sp)
20002fb2:	6a724737          	lui	a4,0x6a724
20002fb6:	a3b70713          	addi	a4,a4,-1477 # 6a723a3b <_DATA_LMA_START+0x4a71be63>
20002fba:	ceba                	c.swsp	a4,92(sp)
20002fbc:	d0be                	c.swsp	a5,96(sp)
20002fbe:	200074b7          	lui	s1,0x20007
20002fc2:	f8048493          	addi	s1,s1,-128 # 20006f80 <lstm_2_s16_forget_gate_hidden_weights>
20002fc6:	d2a6                	c.swsp	s1,100(sp)
20002fc8:	d4a2                	c.swsp	s0,104(sp)
20002fca:	20007437          	lui	s0,0x20007
20002fce:	f4840413          	addi	s0,s0,-184 # 20006f48 <lstm_2_s16_forget_gate_bias>
20002fd2:	d6a2                	c.swsp	s0,108(sp)
20002fd4:	06010823          	sb	zero,112(sp)
20002fd8:	02500613          	li	a2,37
20002fdc:	15810593          	addi	a1,sp,344
20002fe0:	07110513          	addi	a0,sp,113
20002fe4:	419010ef          	jal	ra,20004bfc <memcpy>
20002fe8:	02500613          	li	a2,37
20002fec:	10810593          	addi	a1,sp,264
20002ff0:	09610513          	addi	a0,sp,150
20002ff4:	409010ef          	jal	ra,20004bfc <memcpy>
20002ff8:	02500613          	li	a2,37
20002ffc:	0e010593          	addi	a1,sp,224
20003000:	0bb10513          	addi	a0,sp,187
20003004:	3f9010ef          	jal	ra,20004bfc <memcpy>
20003008:	841f978b          	addigp	a5,-1984 # 80040 <buffer1.lto_priv.2>
2000300c:	c23e                	c.swsp	a5,4(sp)
2000300e:	98df978b          	addigp	a5,-1652 # 8018c <buffer2.lto_priv.4>
20003012:	c43e                	c.swsp	a5,8(sp)
20003014:	ad9f978b          	addigp	a5,-1320 # 802d8 <buffer3.lto_priv.6>
20003018:	c63e                	c.swsp	a5,12(sp)
2000301a:	001f978b          	addigp	a5,129024 # a0000 <_STACK_TOP>
2000301e:	777d                	c.lui	a4,0xfffff
20003020:	00e787b3          	add	a5,a5,a4
20003024:	82ffc7ab          	swgp	a5,-2004 # 8002c <stack_limit>
20003028:	d81fe0ef          	jal	ra,20001da8 <reset_cycle_count.lto_priv.14>
2000302c:	f70fe0ef          	jal	ra,2000179c <fill_stack_pattern_to_sp.lto_priv.10>
20003030:	fbcfe0ef          	jal	ra,200017ec <read_cycle_counter.lto_priv.12>
20003034:	842a                	c.mv	s0,a0
20003036:	0054                	c.addi4spn	a3,sp,4
20003038:	0810                	c.addi4spn	a2,sp,16
2000303a:	068c                	c.addi4spn	a1,sp,832
2000303c:	20007537          	lui	a0,0x20007
20003040:	07850513          	addi	a0,a0,120 # 20007078 <lstm_2_s16_input_tensor>
20003044:	045000ef          	jal	ra,20003888 <riscv_lstm_unidirectional_s16>
20003048:	fa4fe0ef          	jal	ra,200017ec <read_cycle_counter.lto_priv.12>
2000304c:	40850433          	sub	s0,a0,s0
20003050:	f24fe0ef          	jal	ra,20001774 <measure_stack_usage.lto_priv.8>
20003054:	00a004b3          	add	s1,zero,a0
20003058:	20007537          	lui	a0,0x20007
2000305c:	7e850513          	addi	a0,a0,2024 # 200077e8 <lstm_one_time_step_s16_output_gate_input_weights+0xac>
20003060:	541010ef          	jal	ra,20004da0 <printf>
20003064:	03f00613          	li	a2,63
20003068:	200075b7          	lui	a1,0x20007
2000306c:	0e458593          	addi	a1,a1,228 # 200070e4 <lstm_2_s16_output>
20003070:	34010513          	addi	a0,sp,832
20003074:	dc9fe0ef          	jal	ra,20001e3c <validate_s16>
20003078:	04051663          	bnez	a0,200030c4 <lstm_2_s16+0x378>
2000307c:	20007537          	lui	a0,0x20007
20003080:	e8450513          	addi	a0,a0,-380 # 20006e84 <lstm_2_output_gate_input_weights+0xc0>
20003084:	51d010ef          	jal	ra,20004da0 <printf>
20003088:	3fc12083          	lw	ra,1020(sp)
2000308c:	3f812403          	lw	s0,1016(sp)
20003090:	3f412483          	lw	s1,1012(sp)
20003094:	3f012903          	lw	s2,1008(sp)
20003098:	3ec12983          	lw	s3,1004(sp)
2000309c:	3e812a03          	lw	s4,1000(sp)
200030a0:	3e412a83          	lw	s5,996(sp)
200030a4:	3e012b03          	lw	s6,992(sp)
200030a8:	3dc12b83          	lw	s7,988(sp)
200030ac:	3d812c03          	lw	s8,984(sp)
200030b0:	3d412c83          	lw	s9,980(sp)
200030b4:	3d012d03          	lw	s10,976(sp)
200030b8:	3cc12d83          	lw	s11,972(sp)
200030bc:	40010113          	addi	sp,sp,1024
200030c0:	00008067          	ret
200030c4:	20007537          	lui	a0,0x20007
200030c8:	df050513          	addi	a0,a0,-528 # 20006df0 <lstm_2_output_gate_input_weights+0x2c>
200030cc:	4d5010ef          	jal	ra,20004da0 <printf>
200030d0:	009005b3          	add	a1,zero,s1
200030d4:	20007537          	lui	a0,0x20007
200030d8:	e1850513          	addi	a0,a0,-488 # 20006e18 <lstm_2_output_gate_input_weights+0x54>
200030dc:	4c5010ef          	jal	ra,20004da0 <printf>
200030e0:	008005b3          	add	a1,zero,s0
200030e4:	20007537          	lui	a0,0x20007
200030e8:	e5450513          	addi	a0,a0,-428 # 20006e54 <lstm_2_output_gate_input_weights+0x90>
200030ec:	4b5010ef          	jal	ra,20004da0 <printf>
200030f0:	bf61                	c.j	20003088 <lstm_2_s16+0x33c>
	...

200030f4 <lstm_1_s16>:
200030f4:	aa010113          	addi	sp,sp,-1376
200030f8:	54112e23          	sw	ra,1372(sp)
200030fc:	54812c23          	sw	s0,1368(sp)
20003100:	54912a23          	sw	s1,1364(sp)
20003104:	55212823          	sw	s2,1360(sp)
20003108:	55312623          	sw	s3,1356(sp)
2000310c:	55412423          	sw	s4,1352(sp)
20003110:	55512223          	sw	s5,1348(sp)
20003114:	55612023          	sw	s6,1344(sp)
20003118:	53712e23          	sw	s7,1340(sp)
2000311c:	53812c23          	sw	s8,1336(sp)
20003120:	53912a23          	sw	s9,1332(sp)
20003124:	53a12823          	sw	s10,1328(sp)
20003128:	53b12623          	sw	s11,1324(sp)
2000312c:	0dc00613          	li	a2,220
20003130:	00000593          	li	a1,0
20003134:	44410513          	addi	a0,sp,1092
20003138:	3bf010ef          	jal	ra,20004cf6 <memset>
2000313c:	200067b7          	lui	a5,0x20006
20003140:	51078c93          	addi	s9,a5,1296 # 20006510 <lstm_1_s16_input_gate_bias>
20003144:	200066b7          	lui	a3,0x20006
20003148:	5e468d93          	addi	s11,a3,1508 # 200065e4 <lstm_1_s16_input_gate_input_weights>
2000314c:	3e810b93          	addi	s7,sp,1000
20003150:	51078793          	addi	a5,a5,1296
20003154:	4701                	c.li	a4,0
20003156:	5e468693          	addi	a3,a3,1508
2000315a:	462d                	c.li	a2,11
2000315c:	45d9                	c.li	a1,22
2000315e:	855e                	c.mv	a0,s7
20003160:	520000ef          	jal	ra,20003680 <riscv_vector_sum_s8_s64>
20003164:	200067b7          	lui	a5,0x20006
20003168:	200066b7          	lui	a3,0x20006
2000316c:	0f04                	c.addi4spn	s1,sp,912
2000316e:	34878793          	addi	a5,a5,840 # 20006348 <lstm_1_s16_forget_gate_bias>
20003172:	4701                	c.li	a4,0
20003174:	41c68693          	addi	a3,a3,1052 # 2000641c <lstm_1_s16_forget_gate_input_weights>
20003178:	462d                	c.li	a2,11
2000317a:	45d9                	c.li	a1,22
2000317c:	8526                	c.mv	a0,s1
2000317e:	2309                	c.jal	20003680 <riscv_vector_sum_s8_s64>
20003180:	200067b7          	lui	a5,0x20006
20003184:	200066b7          	lui	a3,0x20006
20003188:	25468c13          	addi	s8,a3,596 # 20006254 <lstm_1_s16_cell_gate_input_weights>
2000318c:	33810a93          	addi	s5,sp,824
20003190:	18078793          	addi	a5,a5,384 # 20006180 <lstm_1_s16_cell_gate_bias>
20003194:	4701                	c.li	a4,0
20003196:	25468693          	addi	a3,a3,596
2000319a:	462d                	c.li	a2,11
2000319c:	45d9                	c.li	a1,22
2000319e:	8556                	c.mv	a0,s5
200031a0:	4e0000ef          	jal	ra,20003680 <riscv_vector_sum_s8_s64>
200031a4:	200077b7          	lui	a5,0x20007
200031a8:	200076b7          	lui	a3,0x20007
200031ac:	2e010993          	addi	s3,sp,736
200031b0:	97078793          	addi	a5,a5,-1680 # 20006970 <lstm_1_s16_output_gate_bias>
200031b4:	4701                	c.li	a4,0
200031b6:	a4468693          	addi	a3,a3,-1468 # 20006a44 <lstm_1_s16_output_gate_input_weights>
200031ba:	462d                	c.li	a2,11
200031bc:	45d9                	c.li	a1,22
200031be:	854e                	c.mv	a0,s3
200031c0:	4c0000ef          	jal	ra,20003680 <riscv_vector_sum_s8_s64>
200031c4:	200066b7          	lui	a3,0x20006
200031c8:	56868d13          	addi	s10,a3,1384 # 20006568 <lstm_1_s16_input_gate_hidden_weights>
200031cc:	28810b13          	addi	s6,sp,648
200031d0:	4781                	c.li	a5,0
200031d2:	4701                	c.li	a4,0
200031d4:	56868693          	addi	a3,a3,1384
200031d8:	462d                	c.li	a2,11
200031da:	45ad                	c.li	a1,11
200031dc:	855a                	c.mv	a0,s6
200031de:	214d                	c.jal	20003680 <riscv_vector_sum_s8_s64>
200031e0:	200066b7          	lui	a3,0x20006
200031e4:	1c00                	c.addi4spn	s0,sp,560
200031e6:	4781                	c.li	a5,0
200031e8:	4701                	c.li	a4,0
200031ea:	3a068693          	addi	a3,a3,928 # 200063a0 <lstm_1_s16_forget_gate_hidden_weights>
200031ee:	462d                	c.li	a2,11
200031f0:	45ad                	c.li	a1,11
200031f2:	8522                	c.mv	a0,s0
200031f4:	48c000ef          	jal	ra,20003680 <riscv_vector_sum_s8_s64>
200031f8:	200066b7          	lui	a3,0x20006
200031fc:	1d810a13          	addi	s4,sp,472
20003200:	4781                	c.li	a5,0
20003202:	4701                	c.li	a4,0
20003204:	1d868693          	addi	a3,a3,472 # 200061d8 <lstm_1_s16_cell_gate_hidden_weights>
20003208:	462d                	c.li	a2,11
2000320a:	45ad                	c.li	a1,11
2000320c:	8552                	c.mv	a0,s4
2000320e:	298d                	c.jal	20003680 <riscv_vector_sum_s8_s64>
20003210:	200076b7          	lui	a3,0x20007
20003214:	18010913          	addi	s2,sp,384
20003218:	4781                	c.li	a5,0
2000321a:	4701                	c.li	a4,0
2000321c:	9c868693          	addi	a3,a3,-1592 # 200069c8 <lstm_1_s16_output_gate_hidden_weights>
20003220:	462d                	c.li	a2,11
20003222:	45ad                	c.li	a1,11
20003224:	854a                	c.mv	a0,s2
20003226:	29a9                	c.jal	20003680 <riscv_vector_sum_s8_s64>
20003228:	74a857b7          	lui	a5,0x74a85
2000322c:	0fd78793          	addi	a5,a5,253 # 74a850fd <_DATA_LMA_START+0x54a7d525>
20003230:	14f12c23          	sw	a5,344(sp)
20003234:	57dd                	c.li	a5,-9
20003236:	14f12e23          	sw	a5,348(sp)
2000323a:	17b12023          	sw	s11,352(sp)
2000323e:	17712223          	sw	s7,356(sp)
20003242:	65f74737          	lui	a4,0x65f74
20003246:	b0e70713          	addi	a4,a4,-1266 # 65f73b0e <_DATA_LMA_START+0x45f6bf36>
2000324a:	16e12423          	sw	a4,360(sp)
2000324e:	5761                	c.li	a4,-8
20003250:	16e12623          	sw	a4,364(sp)
20003254:	17a12823          	sw	s10,368(sp)
20003258:	17612a23          	sw	s6,372(sp)
2000325c:	17912c23          	sw	s9,376(sp)
20003260:	16010e23          	sb	zero,380(sp)
20003264:	744d06b7          	lui	a3,0x744d0
20003268:	cf968693          	addi	a3,a3,-775 # 744cfcf9 <_DATA_LMA_START+0x544c8121>
2000326c:	10d12423          	sw	a3,264(sp)
20003270:	56d9                	c.li	a3,-10
20003272:	10d12623          	sw	a3,268(sp)
20003276:	11812823          	sw	s8,272(sp)
2000327a:	11512a23          	sw	s5,276(sp)
2000327e:	427326b7          	lui	a3,0x42732
20003282:	81a68693          	addi	a3,a3,-2022 # 4273181a <_DATA_LMA_START+0x22729c42>
20003286:	10d12c23          	sw	a3,280(sp)
2000328a:	10f12e23          	sw	a5,284(sp)
2000328e:	20006637          	lui	a2,0x20006
20003292:	1d860613          	addi	a2,a2,472 # 200061d8 <lstm_1_s16_cell_gate_hidden_weights>
20003296:	12c12023          	sw	a2,288(sp)
2000329a:	13412223          	sw	s4,292(sp)
2000329e:	20006637          	lui	a2,0x20006
200032a2:	18060593          	addi	a1,a2,384 # 20006180 <lstm_1_s16_cell_gate_bias>
200032a6:	12b12423          	sw	a1,296(sp)
200032aa:	4685                	c.li	a3,1
200032ac:	12d10623          	sb	a3,300(sp)
200032b0:	6c73c6b7          	lui	a3,0x6c73c
200032b4:	4a368693          	addi	a3,a3,1187 # 6c73c4a3 <_DATA_LMA_START+0x4c7348cb>
200032b8:	d1b6                	c.swsp	a3,224(sp)
200032ba:	56d1                	c.li	a3,-12
200032bc:	d3b6                	c.swsp	a3,228(sp)
200032be:	20007637          	lui	a2,0x20007
200032c2:	a4460593          	addi	a1,a2,-1468 # 20006a44 <lstm_1_s16_output_gate_input_weights>
200032c6:	d5ae                	c.swsp	a1,232(sp)
200032c8:	d7ce                	c.swsp	s3,236(sp)
200032ca:	5082a6b7          	lui	a3,0x5082a
200032ce:	ecf68693          	addi	a3,a3,-305 # 50829ecf <_DATA_LMA_START+0x308222f7>
200032d2:	d9b6                	c.swsp	a3,240(sp)
200032d4:	dbba                	c.swsp	a4,244(sp)
200032d6:	20007637          	lui	a2,0x20007
200032da:	9c860593          	addi	a1,a2,-1592 # 200069c8 <lstm_1_s16_output_gate_hidden_weights>
200032de:	ddae                	c.swsp	a1,248(sp)
200032e0:	dfca                	c.swsp	s2,252(sp)
200032e2:	20007637          	lui	a2,0x20007
200032e6:	97060593          	addi	a1,a2,-1680 # 20006970 <lstm_1_s16_output_gate_bias>
200032ea:	10b12023          	sw	a1,256(sp)
200032ee:	10010223          	sb	zero,260(sp)
200032f2:	4685                	c.li	a3,1
200032f4:	c836                	c.swsp	a3,16(sp)
200032f6:	ca36                	c.swsp	a3,20(sp)
200032f8:	46a9                	c.li	a3,10
200032fa:	cc36                	c.swsp	a3,24(sp)
200032fc:	46d9                	c.li	a3,22
200032fe:	ce36                	c.swsp	a3,28(sp)
20003300:	46ad                	c.li	a3,11
20003302:	d036                	c.swsp	a3,32(sp)
20003304:	d202                	c.swsp	zero,36(sp)
20003306:	400006b7          	lui	a3,0x40000
2000330a:	d436                	c.swsp	a3,40(sp)
2000330c:	56c9                	c.li	a3,-14
2000330e:	d636                	c.swsp	a3,44(sp)
20003310:	476346b7          	lui	a3,0x47634
20003314:	57268693          	addi	a3,a3,1394 # 47634572 <_DATA_LMA_START+0x2762c99a>
20003318:	d836                	c.swsp	a3,48(sp)
2000331a:	56b1                	c.li	a3,-20
2000331c:	da36                	c.swsp	a3,52(sp)
2000331e:	66a1                	c.lui	a3,0x8
20003320:	16fd                	c.addi	a3,-1
20003322:	dc36                	c.swsp	a3,56(sp)
20003324:	de3e                	c.swsp	a5,60(sp)
20003326:	508a96b7          	lui	a3,0x508a9
2000332a:	e8468693          	addi	a3,a3,-380 # 508a8e84 <_DATA_LMA_START+0x308a12ac>
2000332e:	c0b6                	c.swsp	a3,64(sp)
20003330:	56b5                	c.li	a3,-19
20003332:	c2b6                	c.swsp	a3,68(sp)
20003334:	c482                	c.swsp	zero,72(sp)
20003336:	5db4e6b7          	lui	a3,0x5db4e
2000333a:	eac68693          	addi	a3,a3,-340 # 5db4deac <_DATA_LMA_START+0x3db462d4>
2000333e:	c6b6                	c.swsp	a3,76(sp)
20003340:	c8be                	c.swsp	a5,80(sp)
20003342:	20006637          	lui	a2,0x20006
20003346:	41c60593          	addi	a1,a2,1052 # 2000641c <lstm_1_s16_forget_gate_input_weights>
2000334a:	caae                	c.swsp	a1,84(sp)
2000334c:	cca6                	c.swsp	s1,88(sp)
2000334e:	40add7b7          	lui	a5,0x40add
20003352:	20b78793          	addi	a5,a5,523 # 40add20b <_DATA_LMA_START+0x20ad5633>
20003356:	cebe                	c.swsp	a5,92(sp)
20003358:	d0ba                	c.swsp	a4,96(sp)
2000335a:	200064b7          	lui	s1,0x20006
2000335e:	3a048493          	addi	s1,s1,928 # 200063a0 <lstm_1_s16_forget_gate_hidden_weights>
20003362:	d2a6                	c.swsp	s1,100(sp)
20003364:	d4a2                	c.swsp	s0,104(sp)
20003366:	20006437          	lui	s0,0x20006
2000336a:	34840413          	addi	s0,s0,840 # 20006348 <lstm_1_s16_forget_gate_bias>
2000336e:	d6a2                	c.swsp	s0,108(sp)
20003370:	06010823          	sb	zero,112(sp)
20003374:	02500613          	li	a2,37
20003378:	15810593          	addi	a1,sp,344
2000337c:	07110513          	addi	a0,sp,113
20003380:	07d010ef          	jal	ra,20004bfc <memcpy>
20003384:	02500613          	li	a2,37
20003388:	10810593          	addi	a1,sp,264
2000338c:	09610513          	addi	a0,sp,150
20003390:	06d010ef          	jal	ra,20004bfc <memcpy>
20003394:	02500613          	li	a2,37
20003398:	0e010593          	addi	a1,sp,224
2000339c:	0bb10513          	addi	a0,sp,187
200033a0:	05d010ef          	jal	ra,20004bfc <memcpy>
200033a4:	841f978b          	addigp	a5,-1984 # 80040 <buffer1.lto_priv.2>
200033a8:	c23e                	c.swsp	a5,4(sp)
200033aa:	98df978b          	addigp	a5,-1652 # 8018c <buffer2.lto_priv.4>
200033ae:	c43e                	c.swsp	a5,8(sp)
200033b0:	ad9f978b          	addigp	a5,-1320 # 802d8 <buffer3.lto_priv.6>
200033b4:	c63e                	c.swsp	a5,12(sp)
200033b6:	001f978b          	addigp	a5,129024 # a0000 <_STACK_TOP>
200033ba:	777d                	c.lui	a4,0xfffff
200033bc:	00e787b3          	add	a5,a5,a4
200033c0:	82ffc7ab          	swgp	a5,-2004 # 8002c <stack_limit>
200033c4:	9e5fe0ef          	jal	ra,20001da8 <reset_cycle_count.lto_priv.14>
200033c8:	bd4fe0ef          	jal	ra,2000179c <fill_stack_pattern_to_sp.lto_priv.10>
200033cc:	c20fe0ef          	jal	ra,200017ec <read_cycle_counter.lto_priv.12>
200033d0:	84aa                	c.mv	s1,a0
200033d2:	0054                	c.addi4spn	a3,sp,4
200033d4:	0810                	c.addi4spn	a2,sp,16
200033d6:	44410593          	addi	a1,sp,1092
200033da:	20006537          	lui	a0,0x20006
200033de:	6d850513          	addi	a0,a0,1752 # 200066d8 <lstm_1_s16_input_tensor>
200033e2:	215d                	c.jal	20003888 <riscv_lstm_unidirectional_s16>
200033e4:	c08fe0ef          	jal	ra,200017ec <read_cycle_counter.lto_priv.12>
200033e8:	00a00433          	add	s0,zero,a0
200033ec:	b88fe0ef          	jal	ra,20001774 <measure_stack_usage.lto_priv.8>
200033f0:	892a                	c.mv	s2,a0
200033f2:	8c05                	c.sub	s0,s1
200033f4:	20007537          	lui	a0,0x20007
200033f8:	7e850513          	addi	a0,a0,2024 # 200077e8 <lstm_one_time_step_s16_output_gate_input_weights+0xac>
200033fc:	1a5010ef          	jal	ra,20004da0 <printf>
20003400:	06e00613          	li	a2,110
20003404:	200075b7          	lui	a1,0x20007
20003408:	89058593          	addi	a1,a1,-1904 # 20006890 <lstm_1_s16_output>
2000340c:	44410513          	addi	a0,sp,1092
20003410:	a2dfe0ef          	jal	ra,20001e3c <validate_s16>
20003414:	04051663          	bnez	a0,20003460 <lstm_1_s16+0x36c>
20003418:	20006537          	lui	a0,0x20006
2000341c:	15850513          	addi	a0,a0,344 # 20006158 <lstm_1_output_gate_input_weights+0x11c>
20003420:	181010ef          	jal	ra,20004da0 <printf>
20003424:	55c12083          	lw	ra,1372(sp)
20003428:	55812403          	lw	s0,1368(sp)
2000342c:	55412483          	lw	s1,1364(sp)
20003430:	55012903          	lw	s2,1360(sp)
20003434:	54c12983          	lw	s3,1356(sp)
20003438:	54812a03          	lw	s4,1352(sp)
2000343c:	54412a83          	lw	s5,1348(sp)
20003440:	54012b03          	lw	s6,1344(sp)
20003444:	53c12b83          	lw	s7,1340(sp)
20003448:	53812c03          	lw	s8,1336(sp)
2000344c:	53412c83          	lw	s9,1332(sp)
20003450:	53012d03          	lw	s10,1328(sp)
20003454:	52c12d83          	lw	s11,1324(sp)
20003458:	56010113          	addi	sp,sp,1376
2000345c:	00008067          	ret
20003460:	20006537          	lui	a0,0x20006
20003464:	13050513          	addi	a0,a0,304 # 20006130 <lstm_1_output_gate_input_weights+0xf4>
20003468:	139010ef          	jal	ra,20004da0 <printf>
2000346c:	012005b3          	add	a1,zero,s2
20003470:	20007537          	lui	a0,0x20007
20003474:	e1850513          	addi	a0,a0,-488 # 20006e18 <lstm_2_output_gate_input_weights+0x54>
20003478:	129010ef          	jal	ra,20004da0 <printf>
2000347c:	008005b3          	add	a1,zero,s0
20003480:	20007537          	lui	a0,0x20007
20003484:	e5450513          	addi	a0,a0,-428 # 20006e54 <lstm_2_output_gate_input_weights+0x90>
20003488:	119010ef          	jal	ra,20004da0 <printf>
2000348c:	bf61                	c.j	20003424 <lstm_1_s16+0x330>
2000348e:	0001                	c.nop

20003490 <user_init>:
20003490:	1141                	c.addi	sp,-16
20003492:	c606                	c.swsp	ra,12(sp)
20003494:	00812423          	sw	s0,8(sp)
20003498:	80140437          	lui	s0,0x80140
2000349c:	30e40783          	lb	a5,782(s0) # 8014030e <_DATA_LMA_START+0x60138736>
200034a0:	0ff7f793          	andi	a5,a5,255
200034a4:	0107e793          	ori	a5,a5,16
200034a8:	30f40723          	sb	a5,782(s0)
200034ac:	30a40783          	lb	a5,778(s0)
200034b0:	0ef7f793          	andi	a5,a5,239
200034b4:	30f40523          	sb	a5,778(s0)
200034b8:	11000513          	li	a0,272
200034bc:	d2cfe0ef          	jal	ra,200019e8 <gpio_input_dis>
200034c0:	30e40783          	lb	a5,782(s0)
200034c4:	0ff7f793          	andi	a5,a5,255
200034c8:	0207e793          	ori	a5,a5,32
200034cc:	30f40723          	sb	a5,782(s0)
200034d0:	30a40783          	lb	a5,778(s0)
200034d4:	0df7f793          	andi	a5,a5,223
200034d8:	30f40523          	sb	a5,778(s0)
200034dc:	12000513          	li	a0,288
200034e0:	d08fe0ef          	jal	ra,200019e8 <gpio_input_dis>
200034e4:	30e40783          	lb	a5,782(s0)
200034e8:	0ff7f793          	andi	a5,a5,255
200034ec:	0407e793          	ori	a5,a5,64
200034f0:	30f40723          	sb	a5,782(s0)
200034f4:	30a40783          	lb	a5,778(s0)
200034f8:	0bf7f793          	andi	a5,a5,191
200034fc:	30f40523          	sb	a5,778(s0)
20003500:	14000513          	li	a0,320
20003504:	ce4fe0ef          	jal	ra,200019e8 <gpio_input_dis>
20003508:	30e40783          	lb	a5,782(s0)
2000350c:	f807e793          	ori	a5,a5,-128
20003510:	0ff7f793          	andi	a5,a5,255
20003514:	30f40723          	sb	a5,782(s0)
20003518:	30a40783          	lb	a5,778(s0)
2000351c:	07f7f793          	andi	a5,a5,127
20003520:	30f40523          	sb	a5,778(s0)
20003524:	18000513          	li	a0,384
20003528:	cc0fe0ef          	jal	ra,200019e8 <gpio_input_dis>
2000352c:	20008537          	lui	a0,0x20008
20003530:	82850513          	addi	a0,a0,-2008 # 20007828 <lstm_one_time_step_s16_output_gate_input_weights+0xec>
20003534:	0b3010ef          	jal	ra,20004de6 <puts>
20003538:	65a9                	c.lui	a1,0xa
2000353a:	0585                	c.addi	a1,1
2000353c:	20008537          	lui	a0,0x20008
20003540:	82c50513          	addi	a0,a0,-2004 # 2000782c <lstm_one_time_step_s16_output_gate_input_weights+0xf0>
20003544:	05d010ef          	jal	ra,20004da0 <printf>
20003548:	7e400593          	li	a1,2020
2000354c:	20008537          	lui	a0,0x20008
20003550:	84450513          	addi	a0,a0,-1980 # 20007844 <lstm_one_time_step_s16_output_gate_input_weights+0x108>
20003554:	04d010ef          	jal	ra,20004da0 <printf>
20003558:	200085b7          	lui	a1,0x20008
2000355c:	85c58593          	addi	a1,a1,-1956 # 2000785c <lstm_one_time_step_s16_output_gate_input_weights+0x120>
20003560:	20008537          	lui	a0,0x20008
20003564:	86850513          	addi	a0,a0,-1944 # 20007868 <lstm_one_time_step_s16_output_gate_input_weights+0x12c>
20003568:	039010ef          	jal	ra,20004da0 <printf>
2000356c:	40b2                	c.lwsp	ra,12(sp)
2000356e:	4422                	c.lwsp	s0,8(sp)
20003570:	0141                	c.addi	sp,16
20003572:	8082                	c.jr	ra

20003574 <_write>:
20003574:	1141                	c.addi	sp,-16
20003576:	c606                	c.swsp	ra,12(sp)
20003578:	c422                	c.swsp	s0,8(sp)
2000357a:	c226                	c.swsp	s1,4(sp)
2000357c:	c04a                	c.swsp	s2,0(sp)
2000357e:	892e                	c.mv	s2,a1
20003580:	84b2                	c.mv	s1,a2
20003582:	4401                	c.li	s0,0
20003584:	0180006f          	j	2000359c <_write+0x28>
20003588:	008907b3          	add	a5,s2,s0
2000358c:	0007c503          	lbu	a0,0(a5)
20003590:	dfffd097          	auipc	ra,0xdfffd
20003594:	3f4080e7          	jalr	1012(ra) # 984 <dr_putchar>
20003598:	00140413          	addi	s0,s0,1
2000359c:	fe9446e3          	blt	s0,s1,20003588 <_write+0x14>
200035a0:	8522                	c.mv	a0,s0
200035a2:	40b2                	c.lwsp	ra,12(sp)
200035a4:	4422                	c.lwsp	s0,8(sp)
200035a6:	4492                	c.lwsp	s1,4(sp)
200035a8:	4902                	c.lwsp	s2,0(sp)
200035aa:	0141                	c.addi	sp,16
200035ac:	8082                	c.jr	ra
	...

200035b0 <main>:
200035b0:	1141                	c.addi	sp,-16
200035b2:	c606                	c.swsp	ra,12(sp)
200035b4:	c422                	c.swsp	s0,8(sp)
200035b6:	4581                	c.li	a1,0
200035b8:	00000513          	li	a0,0
200035bc:	fc8fe0ef          	jal	ra,20001d84 <platform_init>
200035c0:	4791                	c.li	a5,4
200035c2:	4705                	c.li	a4,1
200035c4:	4685                	c.li	a3,1
200035c6:	4621                	c.li	a2,8
200035c8:	4589                	c.li	a1,2
200035ca:	6531                	c.lui	a0,0xc
200035cc:	04250513          	addi	a0,a0,66 # c042 <BIN_SIZE+0x443e>
200035d0:	fb1fd0ef          	jal	ra,20001580 <clock_init>
200035d4:	ebdff0ef          	jal	ra,20003490 <user_init>
200035d8:	01400513          	li	a0,20
200035dc:	dfffd097          	auipc	ra,0xdfffd
200035e0:	c24080e7          	jalr	-988(ra) # 200 <delay_ms>
200035e4:	20007437          	lui	s0,0x20007
200035e8:	7e840513          	addi	a0,s0,2024 # 200077e8 <lstm_one_time_step_s16_output_gate_input_weights+0xac>
200035ec:	7b4010ef          	jal	ra,20004da0 <printf>
200035f0:	20007537          	lui	a0,0x20007
200035f4:	78050513          	addi	a0,a0,1920 # 20007780 <lstm_one_time_step_s16_output_gate_input_weights+0x44>
200035f8:	7a8010ef          	jal	ra,20004da0 <printf>
200035fc:	7e840513          	addi	a0,s0,2024
20003600:	7a0010ef          	jal	ra,20004da0 <printf>
20003604:	20007537          	lui	a0,0x20007
20003608:	7b450513          	addi	a0,a0,1972 # 200077b4 <lstm_one_time_step_s16_output_gate_input_weights+0x78>
2000360c:	794010ef          	jal	ra,20004da0 <printf>
20003610:	830ff0ef          	jal	ra,20002640 <lstm_1>
20003614:	c71fe0ef          	jal	ra,20002284 <lstm_2>
20003618:	8b1fe0ef          	jal	ra,20001ec8 <lstm_one_time_step>
2000361c:	7e840513          	addi	a0,s0,2024
20003620:	780010ef          	jal	ra,20004da0 <printf>
20003624:	20007537          	lui	a0,0x20007
20003628:	7d050513          	addi	a0,a0,2000 # 200077d0 <lstm_one_time_step_s16_output_gate_input_weights+0x94>
2000362c:	774010ef          	jal	ra,20004da0 <printf>
20003630:	ac5ff0ef          	jal	ra,200030f4 <lstm_1_s16>
20003634:	f18ff0ef          	jal	ra,20002d4c <lstm_2_s16>
20003638:	b60ff0ef          	jal	ra,20002998 <lstm_one_time_step_s16>
2000363c:	20007537          	lui	a0,0x20007
20003640:	7ec50513          	addi	a0,a0,2028 # 200077ec <lstm_one_time_step_s16_output_gate_input_weights+0xb0>
20003644:	75c010ef          	jal	ra,20004da0 <printf>
20003648:	01400513          	li	a0,20
2000364c:	dfffd097          	auipc	ra,0xdfffd
20003650:	bb4080e7          	jalr	-1100(ra) # 200 <delay_ms>
20003654:	20008537          	lui	a0,0x20008
20003658:	80450513          	addi	a0,a0,-2044 # 20007804 <lstm_one_time_step_s16_output_gate_input_weights+0xc8>
2000365c:	744010ef          	jal	ra,20004da0 <printf>
20003660:	01400513          	li	a0,20
20003664:	dfffd097          	auipc	ra,0xdfffd
20003668:	b9c080e7          	jalr	-1124(ra) # 200 <delay_ms>
2000366c:	4501                	c.li	a0,0
2000366e:	40b2                	c.lwsp	ra,12(sp)
20003670:	4422                	c.lwsp	s0,8(sp)
20003672:	0141                	c.addi	sp,16
20003674:	8082                	c.jr	ra
	...

20003678 <default_irq_entry>:
20003678:	a001                	c.j	20003678 <default_irq_entry>

2000367a <trap_handler>:
2000367a:	a001                	c.j	2000367a <trap_handler>
2000367c:	0001                	c.nop
	...

20003680 <riscv_vector_sum_s8_s64>:
20003680:	1101                	c.addi	sp,-32
20003682:	cc22                	c.swsp	s0,24(sp)
20003684:	ca26                	c.swsp	s1,20(sp)
20003686:	c452                	c.swsp	s4,8(sp)
20003688:	c256                	c.swsp	s5,4(sp)
2000368a:	c05a                	c.swsp	s6,0(sp)
2000368c:	ce06                	c.swsp	ra,28(sp)
2000368e:	c84a                	c.swsp	s2,16(sp)
20003690:	c64e                	c.swsp	s3,12(sp)
20003692:	8b32                	c.mv	s6,a2
20003694:	84aa                	c.mv	s1,a0
20003696:	8aae                	c.mv	s5,a1
20003698:	8436                	c.mv	s0,a3
2000369a:	8a3a                	c.mv	s4,a4
2000369c:	060e                	c.slli	a2,0x3
2000369e:	c3c9                	c.beqz	a5,20003720 <riscv_vector_sum_s8_s64+0xa0>
200036a0:	00f005b3          	add	a1,zero,a5
200036a4:	558010ef          	jal	ra,20004bfc <memcpy>
200036a8:	040a0c63          	beqz	s4,20003700 <riscv_vector_sum_s8_s64+0x80>
200036ac:	05605a63          	blez	s6,20003700 <riscv_vector_sum_s8_s64+0x80>
200036b0:	41fa5713          	srai	a4,s4,0x1f
200036b4:	00000813          	li	a6,0
200036b8:	015405b3          	add	a1,s0,s5
200036bc:	4601                	c.li	a2,0
200036be:	4681                	c.li	a3,0
200036c0:	05505c63          	blez	s5,20003718 <riscv_vector_sum_s8_s64+0x98>
200036c4:	00040783          	lb	a5,0(s0)
200036c8:	0405                	c.addi	s0,1
200036ca:	893e                	c.mv	s2,a5
200036cc:	41f7d993          	srai	s3,a5,0x1f
200036d0:	c126167f          	add64	a2,a2,s2
200036d4:	feb418e3          	bne	s0,a1,200036c4 <riscv_vector_sum_s8_s64+0x44>
200036d8:	02da07b3          	mul	a5,s4,a3
200036dc:	f0ca157f          	mulr64	a0,s4,a2
200036e0:	c4c717ff          	maddr32	a5,a4,a2
200036e4:	00f585b3          	add	a1,a1,a5
200036e8:	4090                	c.lw	a2,0(s1)
200036ea:	40d4                	c.lw	a3,4(s1)
200036ec:	04a1                	c.addi	s1,8
200036ee:	0805                	c.addi	a6,1
200036f0:	c0a6167f          	add64	a2,a2,a0
200036f4:	fec4ac23          	sw	a2,-8(s1)
200036f8:	fed4ae23          	sw	a3,-4(s1)
200036fc:	fb0b1ee3          	bne	s6,a6,200036b8 <riscv_vector_sum_s8_s64+0x38>
20003700:	40f2                	c.lwsp	ra,28(sp)
20003702:	4462                	c.lwsp	s0,24(sp)
20003704:	44d2                	c.lwsp	s1,20(sp)
20003706:	4942                	c.lwsp	s2,16(sp)
20003708:	49b2                	c.lwsp	s3,12(sp)
2000370a:	4a22                	c.lwsp	s4,8(sp)
2000370c:	4a92                	c.lwsp	s5,4(sp)
2000370e:	4b02                	c.lwsp	s6,0(sp)
20003710:	4501                	c.li	a0,0
20003712:	6105                	c.addi16sp	sp,32
20003714:	00008067          	ret
20003718:	4501                	c.li	a0,0
2000371a:	4581                	c.li	a1,0
2000371c:	fcdff06f          	j	200036e8 <riscv_vector_sum_s8_s64+0x68>
20003720:	00000593          	li	a1,0
20003724:	5d2010ef          	jal	ra,20004cf6 <memset>
20003728:	b741                	c.j	200036a8 <riscv_vector_sum_s8_s64+0x28>
	...

2000372c <riscv_vector_sum_s8>:
2000372c:	1101                	c.addi	sp,-32
2000372e:	cc22                	c.swsp	s0,24(sp)
20003730:	ca26                	c.swsp	s1,20(sp)
20003732:	c84a                	c.swsp	s2,16(sp)
20003734:	c64e                	c.swsp	s3,12(sp)
20003736:	c452                	c.swsp	s4,8(sp)
20003738:	c256                	c.swsp	s5,4(sp)
2000373a:	ce06                	c.swsp	ra,28(sp)
2000373c:	89b2                	c.mv	s3,a2
2000373e:	84aa                	c.mv	s1,a0
20003740:	892e                	c.mv	s2,a1
20003742:	8436                	c.mv	s0,a3
20003744:	8a3a                	c.mv	s4,a4
20003746:	8abe                	c.mv	s5,a5
20003748:	060a                	c.slli	a2,0x2
2000374a:	06080f63          	beqz	a6,200037c8 <riscv_vector_sum_s8+0x9c>
2000374e:	85c2                	c.mv	a1,a6
20003750:	4ac010ef          	jal	ra,20004bfc <memcpy>
20003754:	060a0063          	beqz	s4,200037b4 <riscv_vector_sum_s8+0x88>
20003758:	05305e63          	blez	s3,200037b4 <riscv_vector_sum_s8+0x88>
2000375c:	032a87b3          	mul	a5,s5,s2
20003760:	4501                	c.li	a0,0
20003762:	012405b3          	add	a1,s0,s2
20003766:	4681                	c.li	a3,0
20003768:	03205a63          	blez	s2,2000379c <riscv_vector_sum_s8+0x70>
2000376c:	00040603          	lb	a2,0(s0)
20003770:	0405                	c.addi	s0,1
20003772:	96b2                	c.add	a3,a2
20003774:	feb41ce3          	bne	s0,a1,2000376c <riscv_vector_sum_s8+0x40>
20003778:	0004a603          	lw	a2,0(s1)
2000377c:	020a8463          	beqz	s5,200037a4 <riscv_vector_sum_s8+0x78>
20003780:	96be                	c.add	a3,a5
20003782:	c546967f          	maddr32	a2,a3,s4
20003786:	0505                	c.addi	a0,1
20003788:	c090                	c.sw	a2,0(s1)
2000378a:	0491                	c.addi	s1,4
2000378c:	03350463          	beq	a0,s3,200037b4 <riscv_vector_sum_s8+0x88>
20003790:	842e                	c.mv	s0,a1
20003792:	012405b3          	add	a1,s0,s2
20003796:	4681                	c.li	a3,0
20003798:	fd204ae3          	bgtz	s2,2000376c <riscv_vector_sum_s8+0x40>
2000379c:	4090                	c.lw	a2,0(s1)
2000379e:	85a2                	c.mv	a1,s0
200037a0:	fe0a90e3          	bnez	s5,20003780 <riscv_vector_sum_s8+0x54>
200037a4:	c4da167f          	maddr32	a2,s4,a3
200037a8:	0505                	c.addi	a0,1
200037aa:	c090                	c.sw	a2,0(s1)
200037ac:	00448493          	addi	s1,s1,4
200037b0:	fea990e3          	bne	s3,a0,20003790 <riscv_vector_sum_s8+0x64>
200037b4:	40f2                	c.lwsp	ra,28(sp)
200037b6:	4462                	c.lwsp	s0,24(sp)
200037b8:	44d2                	c.lwsp	s1,20(sp)
200037ba:	4942                	c.lwsp	s2,16(sp)
200037bc:	49b2                	c.lwsp	s3,12(sp)
200037be:	4a22                	c.lwsp	s4,8(sp)
200037c0:	4a92                	c.lwsp	s5,4(sp)
200037c2:	4501                	c.li	a0,0
200037c4:	6105                	c.addi16sp	sp,32
200037c6:	8082                	c.jr	ra
200037c8:	00000593          	li	a1,0
200037cc:	52a010ef          	jal	ra,20004cf6 <memset>
200037d0:	b751                	c.j	20003754 <riscv_vector_sum_s8+0x28>
	...

200037d4 <riscv_lstm_unidirectional_s8>:
200037d4:	1101                	c.addi	sp,-32
200037d6:	cc22                	c.swsp	s0,24(sp)
200037d8:	8432                	c.mv	s0,a2
200037da:	481c                	c.lw	a5,16(s0)
200037dc:	4250                	c.lw	a2,4(a2)
200037de:	c452                	c.swsp	s4,8(sp)
200037e0:	02f60633          	mul	a2,a2,a5
200037e4:	8a2a                	c.mv	s4,a0
200037e6:	4688                	c.lw	a0,8(a3)
200037e8:	c256                	c.swsp	s5,4(sp)
200037ea:	0606                	c.slli	a2,0x1
200037ec:	8aae                	c.mv	s5,a1
200037ee:	4581                	c.li	a1,0
200037f0:	ca26                	c.swsp	s1,20(sp)
200037f2:	c64e                	c.swsp	s3,12(sp)
200037f4:	ce06                	c.swsp	ra,28(sp)
200037f6:	89b6                	c.mv	s3,a3
200037f8:	01212823          	sw	s2,16(sp)
200037fc:	4fa010ef          	jal	ra,20004cf6 <memset>
20003800:	4004                	c.lw	s1,0(s0)
20003802:	441c                	c.lw	a5,8(s0)
20003804:	e4a1                	c.bnez	s1,2000384c <riscv_lstm_unidirectional_s8+0x78>
20003806:	4901                	c.li	s2,0
20003808:	02f04263          	bgtz	a5,2000382c <riscv_lstm_unidirectional_s8+0x58>
2000380c:	00000513          	li	a0,0
20003810:	40f2                	c.lwsp	ra,28(sp)
20003812:	4462                	c.lwsp	s0,24(sp)
20003814:	44d2                	c.lwsp	s1,20(sp)
20003816:	4942                	c.lwsp	s2,16(sp)
20003818:	49b2                	c.lwsp	s3,12(sp)
2000381a:	4a22                	c.lwsp	s4,8(sp)
2000381c:	4a92                	c.lwsp	s5,4(sp)
2000381e:	6105                	c.addi16sp	sp,32
20003820:	00008067          	ret
20003824:	00842783          	lw	a5,8(s0)
20003828:	fef4d2e3          	bge	s1,a5,2000380c <riscv_lstm_unidirectional_s8+0x38>
2000382c:	4814                	c.lw	a3,16(s0)
2000382e:	4458                	c.lw	a4,12(s0)
20003830:	85ca                	c.mv	a1,s2
20003832:	8956                	c.mv	s2,s5
20003834:	c4d4997f          	maddr32	s2,s1,a3
20003838:	8552                	c.mv	a0,s4
2000383a:	c4e4957f          	maddr32	a0,s1,a4
2000383e:	86a2                	c.mv	a3,s0
20003840:	874e                	c.mv	a4,s3
20003842:	864a                	c.mv	a2,s2
20003844:	0485                	c.addi	s1,1
20003846:	2c09                	c.jal	20003a58 <riscv_nn_lstm_step_s8>
20003848:	dd71                	c.beqz	a0,20003824 <riscv_lstm_unidirectional_s8+0x50>
2000384a:	b7d9                	c.j	20003810 <riscv_lstm_unidirectional_s8+0x3c>
2000384c:	fcf050e3          	blez	a5,2000380c <riscv_lstm_unidirectional_s8+0x38>
20003850:	4481                	c.li	s1,0
20003852:	4901                	c.li	s2,0
20003854:	00c0006f          	j	20003860 <riscv_lstm_unidirectional_s8+0x8c>
20003858:	00842783          	lw	a5,8(s0)
2000385c:	faf4d8e3          	bge	s1,a5,2000380c <riscv_lstm_unidirectional_s8+0x38>
20003860:	405c                	c.lw	a5,4(s0)
20003862:	4814                	c.lw	a3,16(s0)
20003864:	02f487b3          	mul	a5,s1,a5
20003868:	4458                	c.lw	a4,12(s0)
2000386a:	85ca                	c.mv	a1,s2
2000386c:	8956                	c.mv	s2,s5
2000386e:	c4d7997f          	maddr32	s2,a5,a3
20003872:	8552                	c.mv	a0,s4
20003874:	c4e7957f          	maddr32	a0,a5,a4
20003878:	86a2                	c.mv	a3,s0
2000387a:	4785                	c.li	a5,1
2000387c:	874e                	c.mv	a4,s3
2000387e:	864a                	c.mv	a2,s2
20003880:	0485                	c.addi	s1,1
20003882:	2ad9                	c.jal	20003a58 <riscv_nn_lstm_step_s8>
20003884:	d971                	c.beqz	a0,20003858 <riscv_lstm_unidirectional_s8+0x84>
20003886:	b769                	c.j	20003810 <riscv_lstm_unidirectional_s8+0x3c>

20003888 <riscv_lstm_unidirectional_s16>:
20003888:	1101                	c.addi	sp,-32
2000388a:	cc22                	c.swsp	s0,24(sp)
2000388c:	8432                	c.mv	s0,a2
2000388e:	481c                	c.lw	a5,16(s0)
20003890:	4250                	c.lw	a2,4(a2)
20003892:	c84a                	c.swsp	s2,16(sp)
20003894:	02f60633          	mul	a2,a2,a5
20003898:	892a                	c.mv	s2,a0
2000389a:	4688                	c.lw	a0,8(a3)
2000389c:	c64e                	c.swsp	s3,12(sp)
2000389e:	0606                	c.slli	a2,0x1
200038a0:	89ae                	c.mv	s3,a1
200038a2:	4581                	c.li	a1,0
200038a4:	ca26                	c.swsp	s1,20(sp)
200038a6:	c452                	c.swsp	s4,8(sp)
200038a8:	84b6                	c.mv	s1,a3
200038aa:	ce06                	c.swsp	ra,28(sp)
200038ac:	01512223          	sw	s5,4(sp)
200038b0:	446010ef          	jal	ra,20004cf6 <memset>
200038b4:	00042a03          	lw	s4,0(s0)
200038b8:	441c                	c.lw	a5,8(s0)
200038ba:	040a1963          	bnez	s4,2000390c <riscv_lstm_unidirectional_s16+0x84>
200038be:	4a81                	c.li	s5,0
200038c0:	02f04263          	bgtz	a5,200038e4 <riscv_lstm_unidirectional_s16+0x5c>
200038c4:	00000513          	li	a0,0
200038c8:	40f2                	c.lwsp	ra,28(sp)
200038ca:	4462                	c.lwsp	s0,24(sp)
200038cc:	44d2                	c.lwsp	s1,20(sp)
200038ce:	4942                	c.lwsp	s2,16(sp)
200038d0:	49b2                	c.lwsp	s3,12(sp)
200038d2:	4a22                	c.lwsp	s4,8(sp)
200038d4:	4a92                	c.lwsp	s5,4(sp)
200038d6:	6105                	c.addi16sp	sp,32
200038d8:	00008067          	ret
200038dc:	00842783          	lw	a5,8(s0)
200038e0:	fefa52e3          	bge	s4,a5,200038c4 <riscv_lstm_unidirectional_s16+0x3c>
200038e4:	4818                	c.lw	a4,16(s0)
200038e6:	4448                	c.lw	a0,12(s0)
200038e8:	02ea0733          	mul	a4,s4,a4
200038ec:	02aa0533          	mul	a0,s4,a0
200038f0:	85d6                	c.mv	a1,s5
200038f2:	0706                	c.slli	a4,0x1
200038f4:	00e98ab3          	add	s5,s3,a4
200038f8:	0506                	c.slli	a0,0x1
200038fa:	8726                	c.mv	a4,s1
200038fc:	86a2                	c.mv	a3,s0
200038fe:	8656                	c.mv	a2,s5
20003900:	954a                	c.add	a0,s2
20003902:	0a05                	c.addi	s4,1
20003904:	04c000ef          	jal	ra,20003950 <riscv_nn_lstm_step_s16>
20003908:	d971                	c.beqz	a0,200038dc <riscv_lstm_unidirectional_s16+0x54>
2000390a:	bf7d                	c.j	200038c8 <riscv_lstm_unidirectional_s16+0x40>
2000390c:	faf05ce3          	blez	a5,200038c4 <riscv_lstm_unidirectional_s16+0x3c>
20003910:	4a01                	c.li	s4,0
20003912:	4a81                	c.li	s5,0
20003914:	00c0006f          	j	20003920 <riscv_lstm_unidirectional_s16+0x98>
20003918:	00842783          	lw	a5,8(s0)
2000391c:	fafa54e3          	bge	s4,a5,200038c4 <riscv_lstm_unidirectional_s16+0x3c>
20003920:	4048                	c.lw	a0,4(s0)
20003922:	481c                	c.lw	a5,16(s0)
20003924:	02aa0533          	mul	a0,s4,a0
20003928:	4458                	c.lw	a4,12(s0)
2000392a:	85d6                	c.mv	a1,s5
2000392c:	02f50633          	mul	a2,a0,a5
20003930:	02e50533          	mul	a0,a0,a4
20003934:	4785                	c.li	a5,1
20003936:	0606                	c.slli	a2,0x1
20003938:	00c98ab3          	add	s5,s3,a2
2000393c:	0506                	c.slli	a0,0x1
2000393e:	8726                	c.mv	a4,s1
20003940:	86a2                	c.mv	a3,s0
20003942:	8656                	c.mv	a2,s5
20003944:	954a                	c.add	a0,s2
20003946:	0a05                	c.addi	s4,1
20003948:	008000ef          	jal	ra,20003950 <riscv_nn_lstm_step_s16>
2000394c:	d571                	c.beqz	a0,20003918 <riscv_lstm_unidirectional_s16+0x90>
2000394e:	bfad                	c.j	200038c8 <riscv_lstm_unidirectional_s16+0x40>

20003950 <riscv_nn_lstm_step_s16>:
20003950:	7139                	c.addi16sp	sp,-64
20003952:	da26                	c.swsp	s1,52(sp)
20003954:	4304                	c.lw	s1,0(a4)
20003956:	ce5e                	c.swsp	s7,28(sp)
20003958:	883a                	c.mv	a6,a4
2000395a:	8bb2                	c.mv	s7,a2
2000395c:	8726                	c.mv	a4,s1
2000395e:	03c68613          	addi	a2,a3,60
20003962:	de06                	c.swsp	ra,60(sp)
20003964:	dc22                	c.swsp	s0,56(sp)
20003966:	d84a                	c.swsp	s2,48(sp)
20003968:	8436                	c.mv	s0,a3
2000396a:	d64e                	c.swsp	s3,44(sp)
2000396c:	d452                	c.swsp	s4,40(sp)
2000396e:	d256                	c.swsp	s5,36(sp)
20003970:	d05a                	c.swsp	s6,32(sp)
20003972:	00482983          	lw	s3,4(a6)
20003976:	00882a03          	lw	s4,8(a6)
2000397a:	893e                	c.mv	s2,a5
2000397c:	8b2e                	c.mv	s6,a1
2000397e:	8aaa                	c.mv	s5,a0
20003980:	1e8000ef          	jal	ra,20003b68 <riscv_nn_lstm_calculate_gate_s16>
20003984:	405c                	c.lw	a5,4(s0)
20003986:	01042303          	lw	t1,16(s0)
2000398a:	01c42883          	lw	a7,28(s0)
2000398e:	02f30333          	mul	t1,t1,a5
20003992:	01842803          	lw	a6,24(s0)
20003996:	85d2                	c.mv	a1,s4
20003998:	c41a                	c.swsp	t1,8(sp)
2000399a:	6321                	c.lui	t1,0x8
2000399c:	137d                	c.addi	t1,-1
2000399e:	c21a                	c.swsp	t1,4(sp)
200039a0:	8752                	c.mv	a4,s4
200039a2:	7361                	c.lui	t1,0xffff8
200039a4:	4601                	c.li	a2,0
200039a6:	4781                	c.li	a5,0
200039a8:	4681                	c.li	a3,0
200039aa:	8526                	c.mv	a0,s1
200039ac:	c01a                	c.swsp	t1,0(sp)
200039ae:	2109                	c.jal	20003db0 <riscv_elementwise_mul_s16>
200039b0:	87ca                	c.mv	a5,s2
200039b2:	8726                	c.mv	a4,s1
200039b4:	86a2                	c.mv	a3,s0
200039b6:	06440613          	addi	a2,s0,100
200039ba:	85da                	c.mv	a1,s6
200039bc:	8556                	c.mv	a0,s5
200039be:	226d                	c.jal	20003b68 <riscv_nn_lstm_calculate_gate_s16>
200039c0:	87ca                	c.mv	a5,s2
200039c2:	874e                	c.mv	a4,s3
200039c4:	86a2                	c.mv	a3,s0
200039c6:	08c40613          	addi	a2,s0,140
200039ca:	85da                	c.mv	a1,s6
200039cc:	8556                	c.mv	a0,s5
200039ce:	2a69                	c.jal	20003b68 <riscv_nn_lstm_calculate_gate_s16>
200039d0:	405c                	c.lw	a5,4(s0)
200039d2:	01042303          	lw	t1,16(s0)
200039d6:	02842e03          	lw	t3,40(s0)
200039da:	02f30333          	mul	t1,t1,a5
200039de:	02442883          	lw	a7,36(s0)
200039e2:	02042803          	lw	a6,32(s0)
200039e6:	41c00eb3          	neg	t4,t3
200039ea:	85ce                	c.mv	a1,s3
200039ec:	8752                	c.mv	a4,s4
200039ee:	4601                	c.li	a2,0
200039f0:	4781                	c.li	a5,0
200039f2:	4681                	c.li	a3,0
200039f4:	8526                	c.mv	a0,s1
200039f6:	c076                	c.swsp	t4,0(sp)
200039f8:	c41a                	c.swsp	t1,8(sp)
200039fa:	c272                	c.swsp	t3,4(sp)
200039fc:	6e0000ef          	jal	ra,200040dc <riscv_elementwise_mul_acc_s16>
20003a00:	87ca                	c.mv	a5,s2
20003a02:	8726                	c.mv	a4,s1
20003a04:	86a2                	c.mv	a3,s0
20003a06:	0b440613          	addi	a2,s0,180
20003a0a:	85da                	c.mv	a1,s6
20003a0c:	8556                	c.mv	a0,s5
20003a0e:	2aa9                	c.jal	20003b68 <riscv_nn_lstm_calculate_gate_s16>
20003a10:	405c                	c.lw	a5,4(s0)
20003a12:	4810                	c.lw	a2,16(s0)
20003a14:	5454                	c.lw	a3,44(s0)
20003a16:	02f60633          	mul	a2,a2,a5
20003a1a:	85ce                	c.mv	a1,s3
20003a1c:	4705                	c.li	a4,1
20003a1e:	06b1                	c.addi	a3,12
20003a20:	01400533          	add	a0,zero,s4
20003a24:	04d000ef          	jal	ra,20004270 <riscv_nn_activation_s16>
20003a28:	00442883          	lw	a7,4(s0)
20003a2c:	01042803          	lw	a6,16(s0)
20003a30:	585c                	c.lw	a5,52(s0)
20003a32:	5818                	c.lw	a4,48(s0)
20003a34:	5c14                	c.lw	a3,56(s0)
20003a36:	865e                	c.mv	a2,s7
20003a38:	85ce                	c.mv	a1,s3
20003a3a:	8526                	c.mv	a0,s1
20003a3c:	c04a                	c.swsp	s2,0(sp)
20003a3e:	21ed                	c.jal	20003f28 <riscv_elementwise_mul_s16_batch_offset>
20003a40:	50f2                	c.lwsp	ra,60(sp)
20003a42:	5462                	c.lwsp	s0,56(sp)
20003a44:	54d2                	c.lwsp	s1,52(sp)
20003a46:	5942                	c.lwsp	s2,48(sp)
20003a48:	59b2                	c.lwsp	s3,44(sp)
20003a4a:	5a22                	c.lwsp	s4,40(sp)
20003a4c:	5a92                	c.lwsp	s5,36(sp)
20003a4e:	5b02                	c.lwsp	s6,32(sp)
20003a50:	4bf2                	c.lwsp	s7,28(sp)
20003a52:	4501                	c.li	a0,0
20003a54:	6121                	c.addi16sp	sp,64
20003a56:	8082                	c.jr	ra

20003a58 <riscv_nn_lstm_step_s8>:
20003a58:	7139                	c.addi16sp	sp,-64
20003a5a:	da26                	c.swsp	s1,52(sp)
20003a5c:	4304                	c.lw	s1,0(a4)
20003a5e:	ce5e                	c.swsp	s7,28(sp)
20003a60:	883a                	c.mv	a6,a4
20003a62:	8bb2                	c.mv	s7,a2
20003a64:	8726                	c.mv	a4,s1
20003a66:	03c68613          	addi	a2,a3,60
20003a6a:	de06                	c.swsp	ra,60(sp)
20003a6c:	dc22                	c.swsp	s0,56(sp)
20003a6e:	d84a                	c.swsp	s2,48(sp)
20003a70:	8436                	c.mv	s0,a3
20003a72:	d64e                	c.swsp	s3,44(sp)
20003a74:	d452                	c.swsp	s4,40(sp)
20003a76:	d256                	c.swsp	s5,36(sp)
20003a78:	d05a                	c.swsp	s6,32(sp)
20003a7a:	00482983          	lw	s3,4(a6)
20003a7e:	00882a03          	lw	s4,8(a6)
20003a82:	893e                	c.mv	s2,a5
20003a84:	8b2e                	c.mv	s6,a1
20003a86:	8aaa                	c.mv	s5,a0
20003a88:	151000ef          	jal	ra,200043d8 <riscv_nn_lstm_calculate_gate_s8_s16>
20003a8c:	405c                	c.lw	a5,4(s0)
20003a8e:	01042303          	lw	t1,16(s0)
20003a92:	01c42883          	lw	a7,28(s0)
20003a96:	02f30333          	mul	t1,t1,a5
20003a9a:	01842803          	lw	a6,24(s0)
20003a9e:	85d2                	c.mv	a1,s4
20003aa0:	c41a                	c.swsp	t1,8(sp)
20003aa2:	6321                	c.lui	t1,0x8
20003aa4:	137d                	c.addi	t1,-1
20003aa6:	c21a                	c.swsp	t1,4(sp)
20003aa8:	8752                	c.mv	a4,s4
20003aaa:	7361                	c.lui	t1,0xffff8
20003aac:	4601                	c.li	a2,0
20003aae:	4781                	c.li	a5,0
20003ab0:	4681                	c.li	a3,0
20003ab2:	8526                	c.mv	a0,s1
20003ab4:	c01a                	c.swsp	t1,0(sp)
20003ab6:	2ced                	c.jal	20003db0 <riscv_elementwise_mul_s16>
20003ab8:	87ca                	c.mv	a5,s2
20003aba:	8726                	c.mv	a4,s1
20003abc:	86a2                	c.mv	a3,s0
20003abe:	06440613          	addi	a2,s0,100
20003ac2:	85da                	c.mv	a1,s6
20003ac4:	01500533          	add	a0,zero,s5
20003ac8:	111000ef          	jal	ra,200043d8 <riscv_nn_lstm_calculate_gate_s8_s16>
20003acc:	87ca                	c.mv	a5,s2
20003ace:	874e                	c.mv	a4,s3
20003ad0:	86a2                	c.mv	a3,s0
20003ad2:	08c40613          	addi	a2,s0,140
20003ad6:	85da                	c.mv	a1,s6
20003ad8:	01500533          	add	a0,zero,s5
20003adc:	0fd000ef          	jal	ra,200043d8 <riscv_nn_lstm_calculate_gate_s8_s16>
20003ae0:	405c                	c.lw	a5,4(s0)
20003ae2:	01042303          	lw	t1,16(s0)
20003ae6:	02842e03          	lw	t3,40(s0)
20003aea:	02f30333          	mul	t1,t1,a5
20003aee:	02442883          	lw	a7,36(s0)
20003af2:	02042803          	lw	a6,32(s0)
20003af6:	41c00eb3          	neg	t4,t3
20003afa:	85ce                	c.mv	a1,s3
20003afc:	8752                	c.mv	a4,s4
20003afe:	4601                	c.li	a2,0
20003b00:	4781                	c.li	a5,0
20003b02:	4681                	c.li	a3,0
20003b04:	8526                	c.mv	a0,s1
20003b06:	c076                	c.swsp	t4,0(sp)
20003b08:	c41a                	c.swsp	t1,8(sp)
20003b0a:	c272                	c.swsp	t3,4(sp)
20003b0c:	5d0000ef          	jal	ra,200040dc <riscv_elementwise_mul_acc_s16>
20003b10:	87ca                	c.mv	a5,s2
20003b12:	8726                	c.mv	a4,s1
20003b14:	86a2                	c.mv	a3,s0
20003b16:	0b440613          	addi	a2,s0,180
20003b1a:	85da                	c.mv	a1,s6
20003b1c:	01500533          	add	a0,zero,s5
20003b20:	0b9000ef          	jal	ra,200043d8 <riscv_nn_lstm_calculate_gate_s8_s16>
20003b24:	405c                	c.lw	a5,4(s0)
20003b26:	4810                	c.lw	a2,16(s0)
20003b28:	5454                	c.lw	a3,44(s0)
20003b2a:	02f60633          	mul	a2,a2,a5
20003b2e:	85ce                	c.mv	a1,s3
20003b30:	4705                	c.li	a4,1
20003b32:	06b1                	c.addi	a3,12
20003b34:	8552                	c.mv	a0,s4
20003b36:	2f2d                	c.jal	20004270 <riscv_nn_activation_s16>
20003b38:	00442883          	lw	a7,4(s0)
20003b3c:	01042803          	lw	a6,16(s0)
20003b40:	585c                	c.lw	a5,52(s0)
20003b42:	5818                	c.lw	a4,48(s0)
20003b44:	5c14                	c.lw	a3,56(s0)
20003b46:	865e                	c.mv	a2,s7
20003b48:	85ce                	c.mv	a1,s3
20003b4a:	8526                	c.mv	a0,s1
20003b4c:	c04a                	c.swsp	s2,0(sp)
20003b4e:	286d                	c.jal	20003c08 <riscv_elementwise_mul_s16_s8>
20003b50:	50f2                	c.lwsp	ra,60(sp)
20003b52:	5462                	c.lwsp	s0,56(sp)
20003b54:	54d2                	c.lwsp	s1,52(sp)
20003b56:	5942                	c.lwsp	s2,48(sp)
20003b58:	59b2                	c.lwsp	s3,44(sp)
20003b5a:	5a22                	c.lwsp	s4,40(sp)
20003b5c:	5a92                	c.lwsp	s5,36(sp)
20003b5e:	5b02                	c.lwsp	s6,32(sp)
20003b60:	4bf2                	c.lwsp	s7,28(sp)
20003b62:	4501                	c.li	a0,0
20003b64:	6121                	c.addi16sp	sp,64
20003b66:	8082                	c.jr	ra

20003b68 <riscv_nn_lstm_calculate_gate_s16>:
20003b68:	7179                	c.addi16sp	sp,-48
20003b6a:	d422                	c.swsp	s0,40(sp)
20003b6c:	8436                	c.mv	s0,a3
20003b6e:	00442803          	lw	a6,4(s0)
20003b72:	4a94                	c.lw	a3,16(a3)
20003b74:	d226                	c.swsp	s1,36(sp)
20003b76:	030686b3          	mul	a3,a3,a6
20003b7a:	84b2                	c.mv	s1,a2
20003b7c:	cc52                	c.swsp	s4,24(sp)
20003b7e:	00169613          	slli	a2,a3,0x1
20003b82:	ca56                	c.swsp	s5,20(sp)
20003b84:	8a2e                	c.mv	s4,a1
20003b86:	8aaa                	c.mv	s5,a0
20003b88:	4581                	c.li	a1,0
20003b8a:	853a                	c.mv	a0,a4
20003b8c:	d04a                	c.swsp	s2,32(sp)
20003b8e:	ce4e                	c.swsp	s3,28(sp)
20003b90:	893a                	c.mv	s2,a4
20003b92:	89be                	c.mv	s3,a5
20003b94:	02112623          	sw	ra,44(sp)
20003b98:	15e010ef          	jal	ra,20004cf6 <memset>
20003b9c:	01042883          	lw	a7,16(s0)
20003ba0:	00442303          	lw	t1,4(s0)
20003ba4:	00c42803          	lw	a6,12(s0)
20003ba8:	40dc                	c.lw	a5,4(s1)
20003baa:	4098                	c.lw	a4,0(s1)
20003bac:	44d0                	c.lw	a2,12(s1)
20003bae:	448c                	c.lw	a1,8(s1)
20003bb0:	86ca                	c.mv	a3,s2
20003bb2:	8556                	c.mv	a0,s5
20003bb4:	c24e                	c.swsp	s3,4(sp)
20003bb6:	c01a                	c.swsp	t1,0(sp)
20003bb8:	0bd000ef          	jal	ra,20004474 <riscv_nn_vec_mat_mul_result_acc_s16>
20003bbc:	020a0263          	beqz	s4,20003be0 <riscv_nn_lstm_calculate_gate_s16+0x78>
20003bc0:	01042883          	lw	a7,16(s0)
20003bc4:	00442303          	lw	t1,4(s0)
20003bc8:	48dc                	c.lw	a5,20(s1)
20003bca:	4898                	c.lw	a4,16(s1)
20003bcc:	4cd0                	c.lw	a2,28(s1)
20003bce:	4c8c                	c.lw	a1,24(s1)
20003bd0:	8846                	c.mv	a6,a7
20003bd2:	86ca                	c.mv	a3,s2
20003bd4:	8552                	c.mv	a0,s4
20003bd6:	c24e                	c.swsp	s3,4(sp)
20003bd8:	00612023          	sw	t1,0(sp)
20003bdc:	099000ef          	jal	ra,20004474 <riscv_nn_vec_mat_mul_result_acc_s16>
20003be0:	4810                	c.lw	a2,16(s0)
20003be2:	405c                	c.lw	a5,4(s0)
20003be4:	50d8                	c.lw	a4,36(s1)
20003be6:	02f60633          	mul	a2,a2,a5
20003bea:	85ca                	c.mv	a1,s2
20003bec:	854a                	c.mv	a0,s2
20003bee:	4681                	c.li	a3,0
20003bf0:	680000ef          	jal	ra,20004270 <riscv_nn_activation_s16>
20003bf4:	50b2                	c.lwsp	ra,44(sp)
20003bf6:	5422                	c.lwsp	s0,40(sp)
20003bf8:	5492                	c.lwsp	s1,36(sp)
20003bfa:	5902                	c.lwsp	s2,32(sp)
20003bfc:	49f2                	c.lwsp	s3,28(sp)
20003bfe:	4a62                	c.lwsp	s4,24(sp)
20003c00:	4ad2                	c.lwsp	s5,20(sp)
20003c02:	4501                	c.li	a0,0
20003c04:	6145                	c.addi16sp	sp,48
20003c06:	8082                	c.jr	ra

20003c08 <riscv_elementwise_mul_s16_s8>:
20003c08:	1b105263          	blez	a7,20003dac <riscv_elementwise_mul_s16_s8+0x1a4>
20003c0c:	7139                	c.addi16sp	sp,-64
20003c0e:	8ebe                	c.mv	t4,a5
20003c10:	40f00f33          	neg	t5,a5
20003c14:	4306                	c.lwsp	t1,64(sp)
20003c16:	4781                	c.li	a5,0
20003c18:	f2ff0f7f          	maxw	t5,t5,a5
20003c1c:	4e05                	c.li	t3,1
20003c1e:	cc66                	c.swsp	s9,24(sp)
20003c20:	8cc6                	c.mv	s9,a7
20003c22:	ffe80893          	addi	a7,a6,-2
20003c26:	83ae                	c.mv	t2,a1
20003c28:	01ee1e33          	sll	t3,t3,t5
20003c2c:	0018d593          	srli	a1,a7,0x1
20003c30:	137d                	c.addi	t1,-1
20003c32:	00158793          	addi	a5,a1,1
20003c36:	1e7d                	c.addi	t3,-1
20003c38:	0586                	c.slli	a1,0x1
20003c3a:	ca6a                	c.swsp	s10,20(sp)
20003c3c:	03030d33          	mul	s10,t1,a6
20003c40:	d652                	c.swsp	s4,44(sp)
20003c42:	d456                	c.swsp	s5,40(sp)
20003c44:	401e5a13          	srai	s4,t3,0x1
20003c48:	4a81                	c.li	s5,0
20003c4a:	d05e                	c.swsp	s7,32(sp)
20003c4c:	c86e                	c.swsp	s11,16(sp)
20003c4e:	00279b93          	slli	s7,a5,0x2
20003c52:	40b88db3          	sub	s11,a7,a1
20003c56:	0786                	c.slli	a5,0x1
20003c58:	de22                	c.swsp	s0,60(sp)
20003c5a:	dc26                	c.swsp	s1,56(sp)
20003c5c:	da4a                	c.swsp	s2,52(sp)
20003c5e:	d25a                	c.swsp	s6,36(sp)
20003c60:	c66e                	c.swsp	s11,12(sp)
20003c62:	001a0913          	addi	s2,s4,1
20003c66:	4b05                	c.li	s6,1
20003c68:	f35e8eff          	maxw	t4,t4,s5
20003c6c:	40000437          	lui	s0,0x40000
20003c70:	4481                	c.li	s1,0
20003c72:	07f00293          	li	t0,127
20003c76:	f8000f93          	li	t6,-128
20003c7a:	8dbe                	c.mv	s11,a5
20003c7c:	d84e                	c.swsp	s3,48(sp)
20003c7e:	ce62                	c.swsp	s8,28(sp)
20003c80:	01a12423          	sw	s10,8(sp)
20003c84:	017508b3          	add	a7,a0,s7
20003c88:	8c32                	c.mv	s8,a2
20003c8a:	899e                	c.mv	s3,t2
20003c8c:	110b5c63          	bge	s6,a6,20003da4 <riscv_elementwise_mul_s16_s8+0x19c>
20003c90:	c056                	c.swsp	s5,0(sp)
20003c92:	8a9e                	c.mv	s5,t2
20003c94:	00c12223          	sw	a2,4(sp)
20003c98:	410c                	c.lw	a1,0(a0)
20003c9a:	0511                	c.addi	a0,4
20003c9c:	0009ad03          	lw	s10,0(s3)
20003ca0:	0991                	c.addi	s3,4
20003ca2:	09a597ff          	smbb16	a5,a1,s10
20003ca6:	01d797b3          	sll	a5,a5,t4
20003caa:	8322                	c.mv	t1,s0
20003cac:	83a6                	c.mv	t2,s1
20003cae:	84e7937f          	smar64	t1,a5,a4
20003cb2:	864a                	c.mv	a2,s2
20003cb4:	dff3037f          	wexti	t1,t1,31
20003cb8:	006e73b3          	and	t2,t3,t1
20003cbc:	41e357b3          	sra	a5,t1,t5
20003cc0:	00034463          	bltz	t1,20003cc8 <riscv_elementwise_mul_s16_s8+0xc0>
20003cc4:	01400633          	add	a2,zero,s4
20003cc8:	007623b3          	slt	t2,a2,t2
20003ccc:	979e                	c.add	a5,t2
20003cce:	97b6                	c.add	a5,a3
20003cd0:	f05787ff          	minw	a5,a5,t0
20003cd4:	f3f787ff          	maxw	a5,a5,t6
20003cd8:	0ff7f793          	andi	a5,a5,255
20003cdc:	29a595ff          	smtt16	a1,a1,s10
20003ce0:	01d595b3          	sll	a1,a1,t4
20003ce4:	8322                	c.mv	t1,s0
20003ce6:	83a6                	c.mv	t2,s1
20003ce8:	84e5937f          	smar64	t1,a1,a4
20003cec:	8d4a                	c.mv	s10,s2
20003cee:	dff3037f          	wexti	t1,t1,31
20003cf2:	006e73b3          	and	t2,t3,t1
20003cf6:	41e355b3          	sra	a1,t1,t5
20003cfa:	00034363          	bltz	t1,20003d00 <riscv_elementwise_mul_s16_s8+0xf8>
20003cfe:	8d52                	c.mv	s10,s4
20003d00:	007d23b3          	slt	t2,s10,t2
20003d04:	959e                	c.add	a1,t2
20003d06:	95b6                	c.add	a1,a3
20003d08:	f05585ff          	minw	a1,a1,t0
20003d0c:	f3f585ff          	maxw	a1,a1,t6
20003d10:	05a2                	c.slli	a1,0x8
20003d12:	8ddd                	c.or	a1,a5
20003d14:	00bc1023          	sh	a1,0(s8)
20003d18:	0c09                	c.addi	s8,2
20003d1a:	f7151fe3          	bne	a0,a7,20003c98 <riscv_elementwise_mul_s16_s8+0x90>
20003d1e:	4612                	c.lwsp	a2,4(sp)
20003d20:	83d6                	c.mv	t2,s5
20003d22:	47b2                	c.lwsp	a5,12(sp)
20003d24:	4a82                	c.lwsp	s5,0(sp)
20003d26:	93de                	c.add	t2,s7
20003d28:	01b60633          	add	a2,a2,s11
20003d2c:	07679a63          	bne	a5,s6,20003da0 <riscv_elementwise_mul_s16_s8+0x198>
20003d30:	00039583          	lh	a1,0(t2)
20003d34:	00089783          	lh	a5,0(a7)
20003d38:	8522                	c.mv	a0,s0
20003d3a:	834a                	c.mv	t1,s2
20003d3c:	02b787b3          	mul	a5,a5,a1
20003d40:	85a6                	c.mv	a1,s1
20003d42:	01d797b3          	sll	a5,a5,t4
20003d46:	84e7957f          	smar64	a0,a5,a4
20003d4a:	dff5057f          	wexti	a0,a0,31
20003d4e:	00ae75b3          	and	a1,t3,a0
20003d52:	41e557b3          	sra	a5,a0,t5
20003d56:	00054363          	bltz	a0,20003d5c <riscv_elementwise_mul_s16_s8+0x154>
20003d5a:	8352                	c.mv	t1,s4
20003d5c:	00b325b3          	slt	a1,t1,a1
20003d60:	97ae                	c.add	a5,a1
20003d62:	97b6                	c.add	a5,a3
20003d64:	f05787ff          	minw	a5,a5,t0
20003d68:	f3f787ff          	maxw	a5,a5,t6
20003d6c:	00f60023          	sb	a5,0(a2)
20003d70:	00288513          	addi	a0,a7,2
20003d74:	0389                	c.addi	t2,2
20003d76:	0605                	c.addi	a2,1
20003d78:	47a2                	c.lwsp	a5,8(sp)
20003d7a:	0a85                	c.addi	s5,1
20003d7c:	963e                	c.add	a2,a5
20003d7e:	f15c93e3          	bne	s9,s5,20003c84 <riscv_elementwise_mul_s16_s8+0x7c>
20003d82:	5472                	c.lwsp	s0,60(sp)
20003d84:	54e2                	c.lwsp	s1,56(sp)
20003d86:	5952                	c.lwsp	s2,52(sp)
20003d88:	59c2                	c.lwsp	s3,48(sp)
20003d8a:	5a32                	c.lwsp	s4,44(sp)
20003d8c:	5aa2                	c.lwsp	s5,40(sp)
20003d8e:	5b12                	c.lwsp	s6,36(sp)
20003d90:	5b82                	c.lwsp	s7,32(sp)
20003d92:	4c72                	c.lwsp	s8,28(sp)
20003d94:	4ce2                	c.lwsp	s9,24(sp)
20003d96:	4d52                	c.lwsp	s10,20(sp)
20003d98:	4dc2                	c.lwsp	s11,16(sp)
20003d9a:	4501                	c.li	a0,0
20003d9c:	6121                	c.addi16sp	sp,64
20003d9e:	8082                	c.jr	ra
20003da0:	8546                	c.mv	a0,a7
20003da2:	bfd9                	c.j	20003d78 <riscv_elementwise_mul_s16_s8+0x170>
20003da4:	88aa                	c.mv	a7,a0
20003da6:	87c2                	c.mv	a5,a6
20003da8:	f85ff06f          	j	20003d2c <riscv_elementwise_mul_s16_s8+0x124>
20003dac:	4501                	c.li	a0,0
20003dae:	8082                	c.jr	ra

20003db0 <riscv_elementwise_mul_s16>:
20003db0:	7179                	c.addi16sp	sp,-48
20003db2:	c85e                	c.swsp	s7,16(sp)
20003db4:	5be2                	c.lwsp	s7,56(sp)
20003db6:	d04e                	c.swsp	s3,32(sp)
20003db8:	c662                	c.swsp	s8,12(sp)
20003dba:	4f85                	c.li	t6,1
20003dbc:	01fbdc13          	srli	s8,s7,0x1f
20003dc0:	d622                	c.swsp	s0,44(sp)
20003dc2:	d426                	c.swsp	s1,40(sp)
20003dc4:	d24a                	c.swsp	s2,36(sp)
20003dc6:	ce52                	c.swsp	s4,28(sp)
20003dc8:	cc56                	c.swsp	s5,24(sp)
20003dca:	ca5a                	c.swsp	s6,20(sp)
20003dcc:	c466                	c.swsp	s9,8(sp)
20003dce:	c26a                	c.swsp	s10,4(sp)
20003dd0:	c06e                	c.swsp	s11,0(sp)
20003dd2:	52c2                	c.lwsp	t0,48(sp)
20003dd4:	59d2                	c.lwsp	s3,52(sp)
20003dd6:	9c5e                	c.add	s8,s7
20003dd8:	0d7fd863          	bge	t6,s7,20003ea8 <riscv_elementwise_mul_s16+0xf8>
20003ddc:	4381                	c.li	t2,0
20003dde:	41100933          	neg	s2,a7
20003de2:	f279097f          	maxw	s2,s2,t2
20003de6:	012f9fb3          	sll	t6,t6,s2
20003dea:	1ffd                	c.addi	t6,-1
20003dec:	401c5c13          	srai	s8,s8,0x1
20003df0:	401fda93          	srai	s5,t6,0x1
20003df4:	6b41                	c.lui	s6,0x10
20003df6:	001a8a13          	addi	s4,s5,1
20003dfa:	f27883ff          	maxw	t2,a7,t2
20003dfe:	8f3a                	c.mv	t5,a4
20003e00:	8eae                	c.mv	t4,a1
20003e02:	8e2a                	c.mv	t3,a0
20003e04:	8362                	c.mv	t1,s8
20003e06:	40000437          	lui	s0,0x40000
20003e0a:	4481                	c.li	s1,0
20003e0c:	fffb0b13          	addi	s6,s6,-1 # ffff <BIN_SIZE+0x83fb>
20003e10:	000e2783          	lw	a5,0(t3)
20003e14:	0e11                	c.addi	t3,4
20003e16:	000ead03          	lw	s10,0(t4)
20003e1a:	0e91                	c.addi	t4,4
20003e1c:	09a79cff          	smbb16	s9,a5,s10
20003e20:	007c9cb3          	sll	s9,s9,t2
20003e24:	8622                	c.mv	a2,s0
20003e26:	86a6                	c.mv	a3,s1
20003e28:	850c967f          	smar64	a2,s9,a6
20003e2c:	8dd2                	c.mv	s11,s4
20003e2e:	dff6067f          	wexti	a2,a2,31
20003e32:	00cff6b3          	and	a3,t6,a2
20003e36:	41265cb3          	sra	s9,a2,s2
20003e3a:	00064363          	bltz	a2,20003e40 <riscv_elementwise_mul_s16+0x90>
20003e3e:	8dd6                	c.mv	s11,s5
20003e40:	00dda6b3          	slt	a3,s11,a3
20003e44:	9cb6                	c.add	s9,a3
20003e46:	f3928cff          	maxw	s9,t0,s9
20003e4a:	f1998cff          	minw	s9,s3,s9
20003e4e:	0cc2                	c.slli	s9,0x10
20003e50:	410cdc93          	srai	s9,s9,0x10
20003e54:	29a797ff          	smtt16	a5,a5,s10
20003e58:	007797b3          	sll	a5,a5,t2
20003e5c:	8622                	c.mv	a2,s0
20003e5e:	86a6                	c.mv	a3,s1
20003e60:	8507967f          	smar64	a2,a5,a6
20003e64:	016cfcb3          	and	s9,s9,s6
20003e68:	137d                	c.addi	t1,-1
20003e6a:	dff6067f          	wexti	a2,a2,31
20003e6e:	8d52                	c.mv	s10,s4
20003e70:	00cff6b3          	and	a3,t6,a2
20003e74:	412657b3          	sra	a5,a2,s2
20003e78:	00064463          	bltz	a2,20003e80 <riscv_elementwise_mul_s16+0xd0>
20003e7c:	01500d33          	add	s10,zero,s5
20003e80:	00dd26b3          	slt	a3,s10,a3
20003e84:	97b6                	c.add	a5,a3
20003e86:	f2f287ff          	maxw	a5,t0,a5
20003e8a:	f0f987ff          	minw	a5,s3,a5
20003e8e:	07c2                	c.slli	a5,0x10
20003e90:	0197e7b3          	or	a5,a5,s9
20003e94:	00ff2023          	sw	a5,0(t5)
20003e98:	0f11                	c.addi	t5,4
20003e9a:	f6031be3          	bnez	t1,20003e10 <riscv_elementwise_mul_s16+0x60>
20003e9e:	0c0a                	c.slli	s8,0x2
20003ea0:	9762                	c.add	a4,s8
20003ea2:	95e2                	c.add	a1,s8
20003ea4:	01850533          	add	a0,a0,s8
20003ea8:	001bfb93          	andi	s7,s7,1
20003eac:	040b8e63          	beqz	s7,20003f08 <riscv_elementwise_mul_s16+0x158>
20003eb0:	00059603          	lh	a2,0(a1)
20003eb4:	00051783          	lh	a5,0(a0)
20003eb8:	4581                	c.li	a1,0
20003eba:	f2b886ff          	maxw	a3,a7,a1
20003ebe:	02c787b3          	mul	a5,a5,a2
20003ec2:	40000637          	lui	a2,0x40000
20003ec6:	411008b3          	neg	a7,a7
20003eca:	00d797b3          	sll	a5,a5,a3
20003ece:	4681                	c.li	a3,0
20003ed0:	8507967f          	smar64	a2,a5,a6
20003ed4:	f2b888ff          	maxw	a7,a7,a1
20003ed8:	4785                	c.li	a5,1
20003eda:	011797b3          	sll	a5,a5,a7
20003ede:	dff6067f          	wexti	a2,a2,31
20003ee2:	17fd                	c.addi	a5,-1
20003ee4:	4017d693          	srai	a3,a5,0x1
20003ee8:	00062593          	slti	a1,a2,0
20003eec:	8ff1                	c.and	a5,a2
20003eee:	96ae                	c.add	a3,a1
20003ef0:	41165633          	sra	a2,a2,a7
20003ef4:	00f6a7b3          	slt	a5,a3,a5
20003ef8:	00f60633          	add	a2,a2,a5
20003efc:	f2c282ff          	maxw	t0,t0,a2
20003f00:	f13282ff          	minw	t0,t0,s3
20003f04:	00571023          	sh	t0,0(a4) # fffff000 <_DATA_LMA_START+0xdfff7428>
20003f08:	5432                	c.lwsp	s0,44(sp)
20003f0a:	54a2                	c.lwsp	s1,40(sp)
20003f0c:	5912                	c.lwsp	s2,36(sp)
20003f0e:	5982                	c.lwsp	s3,32(sp)
20003f10:	4a72                	c.lwsp	s4,28(sp)
20003f12:	4ae2                	c.lwsp	s5,24(sp)
20003f14:	4b52                	c.lwsp	s6,20(sp)
20003f16:	4bc2                	c.lwsp	s7,16(sp)
20003f18:	4c32                	c.lwsp	s8,12(sp)
20003f1a:	4ca2                	c.lwsp	s9,8(sp)
20003f1c:	4d12                	c.lwsp	s10,4(sp)
20003f1e:	4d82                	c.lwsp	s11,0(sp)
20003f20:	4501                	c.li	a0,0
20003f22:	6145                	c.addi16sp	sp,48
20003f24:	8082                	c.jr	ra
	...

20003f28 <riscv_elementwise_mul_s16_batch_offset>:
20003f28:	1b105863          	blez	a7,200040d8 <riscv_elementwise_mul_s16_batch_offset+0x1b0>
20003f2c:	715d                	c.addi16sp	sp,-80
20003f2e:	d466                	c.swsp	s9,40(sp)
20003f30:	8cc2                	c.mv	s9,a6
20003f32:	4846                	c.lwsp	a6,80(sp)
20003f34:	40f00fb3          	neg	t6,a5
20003f38:	8f3e                	c.mv	t5,a5
20003f3a:	4781                	c.li	a5,0
20003f3c:	f2ff8fff          	maxw	t6,t6,a5
20003f40:	187d                	c.addi	a6,-1
20003f42:	4e85                	c.li	t4,1
20003f44:	d26a                	c.swsp	s10,36(sp)
20003f46:	8d46                	c.mv	s10,a7
20003f48:	01fcd893          	srli	a7,s9,0x1f
20003f4c:	03980833          	mul	a6,a6,s9
20003f50:	01fe9eb3          	sll	t4,t4,t6
20003f54:	98e6                	c.add	a7,s9
20003f56:	1efd                	c.addi	t4,-1
20003f58:	c6a2                	c.swsp	s0,76(sp)
20003f5a:	4018d413          	srai	s0,a7,0x1
20003f5e:	c0ce                	c.swsp	s3,64(sp)
20003f60:	de52                	c.swsp	s4,60(sp)
20003f62:	da5a                	c.swsp	s6,52(sp)
20003f64:	401eda13          	srai	s4,t4,0x1
20003f68:	d06e                	c.swsp	s11,32(sp)
20003f6a:	002ca313          	slti	t1,s9,2
20003f6e:	c4a6                	c.swsp	s1,72(sp)
20003f70:	c2ca                	c.swsp	s2,68(sp)
20003f72:	dc56                	c.swsp	s5,56(sp)
20003f74:	d85e                	c.swsp	s7,48(sp)
20003f76:	d662                	c.swsp	s8,44(sp)
20003f78:	ce22                	c.swsp	s0,28(sp)
20003f7a:	001a0993          	addi	s3,s4,1
20003f7e:	001cf793          	andi	a5,s9,1
20003f82:	00181d93          	slli	s11,a6,0x1
20003f86:	4b11                	c.li	s6,4
20003f88:	14030463          	beqz	t1,200040d0 <riscv_elementwise_mul_s16_batch_offset+0x1a8>
20003f8c:	4381                	c.li	t2,0
20003f8e:	62a1                	c.lui	t0,0x8
20003f90:	6ac1                	c.lui	s5,0x10
20003f92:	f27f0f7f          	maxw	t5,t5,t2
20003f96:	40000437          	lui	s0,0x40000
20003f9a:	4481                	c.li	s1,0
20003f9c:	7961                	c.lui	s2,0xffff8
20003f9e:	12fd                	c.addi	t0,-1
20003fa0:	1afd                	c.addi	s5,-1
20003fa2:	ca3e                	c.swsp	a5,20(sp)
20003fa4:	01b12c23          	sw	s11,24(sp)
20003fa8:	4785                	c.li	a5,1
20003faa:	0b97d563          	bge	a5,s9,20004054 <riscv_elementwise_mul_s16_batch_offset+0x12c>
20003fae:	48f2                	c.lwsp	a7,28(sp)
20003fb0:	8c32                	c.mv	s8,a2
20003fb2:	8bae                	c.mv	s7,a1
20003fb4:	8e2a                	c.mv	t3,a0
20003fb6:	c61e                	c.swsp	t2,12(sp)
20003fb8:	00c12823          	sw	a2,16(sp)
20003fbc:	000e2803          	lw	a6,0(t3)
20003fc0:	0e11                	c.addi	t3,4
20003fc2:	000bad83          	lw	s11,0(s7)
20003fc6:	0b91                	c.addi	s7,4
20003fc8:	09b817ff          	smbb16	a5,a6,s11
20003fcc:	01e797b3          	sll	a5,a5,t5
20003fd0:	8322                	c.mv	t1,s0
20003fd2:	83a6                	c.mv	t2,s1
20003fd4:	84e7937f          	smar64	t1,a5,a4
20003fd8:	864e                	c.mv	a2,s3
20003fda:	dff3037f          	wexti	t1,t1,31
20003fde:	006ef3b3          	and	t2,t4,t1
20003fe2:	41f357b3          	sra	a5,t1,t6
20003fe6:	00034363          	bltz	t1,20003fec <riscv_elementwise_mul_s16_batch_offset+0xc4>
20003fea:	8652                	c.mv	a2,s4
20003fec:	007623b3          	slt	t2,a2,t2
20003ff0:	979e                	c.add	a5,t2
20003ff2:	97b6                	c.add	a5,a3
20003ff4:	f32787ff          	maxw	a5,a5,s2
20003ff8:	f05787ff          	minw	a5,a5,t0
20003ffc:	29b8187f          	smtt16	a6,a6,s11
20004000:	01e81833          	sll	a6,a6,t5
20004004:	8322                	c.mv	t1,s0
20004006:	83a6                	c.mv	t2,s1
20004008:	84e8137f          	smar64	t1,a6,a4
2000400c:	0157f7b3          	and	a5,a5,s5
20004010:	18fd                	c.addi	a7,-1
20004012:	dff3037f          	wexti	t1,t1,31
20004016:	8dce                	c.mv	s11,s3
20004018:	006ef3b3          	and	t2,t4,t1
2000401c:	41f35833          	sra	a6,t1,t6
20004020:	00034463          	bltz	t1,20004028 <riscv_elementwise_mul_s16_batch_offset+0x100>
20004024:	01400db3          	add	s11,zero,s4
20004028:	007da3b3          	slt	t2,s11,t2
2000402c:	981e                	c.add	a6,t2
2000402e:	9836                	c.add	a6,a3
20004030:	f328087f          	maxw	a6,a6,s2
20004034:	f058087f          	minw	a6,a6,t0
20004038:	0842                	c.slli	a6,0x10
2000403a:	00f867b3          	or	a5,a6,a5
2000403e:	00fc2023          	sw	a5,0(s8)
20004042:	0c11                	c.addi	s8,4
20004044:	f6089ce3          	bnez	a7,20003fbc <riscv_elementwise_mul_s16_batch_offset+0x94>
20004048:	4642                	c.lwsp	a2,16(sp)
2000404a:	43b2                	c.lwsp	t2,12(sp)
2000404c:	965a                	c.add	a2,s6
2000404e:	95da                	c.add	a1,s6
20004050:	01650533          	add	a0,a0,s6
20004054:	47d2                	c.lwsp	a5,20(sp)
20004056:	cba9                	c.beqz	a5,200040a8 <riscv_elementwise_mul_s16_batch_offset+0x180>
20004058:	00059e03          	lh	t3,0(a1)
2000405c:	00051803          	lh	a6,0(a0)
20004060:	00250893          	addi	a7,a0,2
20004064:	00258313          	addi	t1,a1,2
20004068:	03c80833          	mul	a6,a6,t3
2000406c:	8522                	c.mv	a0,s0
2000406e:	85a6                	c.mv	a1,s1
20004070:	01e81833          	sll	a6,a6,t5
20004074:	84e8157f          	smar64	a0,a6,a4
20004078:	8e4e                	c.mv	t3,s3
2000407a:	dff5057f          	wexti	a0,a0,31
2000407e:	00aef5b3          	and	a1,t4,a0
20004082:	41f55833          	sra	a6,a0,t6
20004086:	00054363          	bltz	a0,2000408c <riscv_elementwise_mul_s16_batch_offset+0x164>
2000408a:	8e52                	c.mv	t3,s4
2000408c:	00be25b3          	slt	a1,t3,a1
20004090:	982e                	c.add	a6,a1
20004092:	9836                	c.add	a6,a3
20004094:	f328087f          	maxw	a6,a6,s2
20004098:	f058087f          	minw	a6,a6,t0
2000409c:	01061023          	sh	a6,0(a2) # 40000000 <_DATA_LMA_START+0x1fff8428>
200040a0:	859a                	c.mv	a1,t1
200040a2:	0609                	c.addi	a2,2
200040a4:	01100533          	add	a0,zero,a7
200040a8:	47e2                	c.lwsp	a5,24(sp)
200040aa:	0385                	c.addi	t2,1
200040ac:	963e                	c.add	a2,a5
200040ae:	ee7d1de3          	bne	s10,t2,20003fa8 <riscv_elementwise_mul_s16_batch_offset+0x80>
200040b2:	4436                	c.lwsp	s0,76(sp)
200040b4:	44a6                	c.lwsp	s1,72(sp)
200040b6:	4916                	c.lwsp	s2,68(sp)
200040b8:	4986                	c.lwsp	s3,64(sp)
200040ba:	5a72                	c.lwsp	s4,60(sp)
200040bc:	5ae2                	c.lwsp	s5,56(sp)
200040be:	5b52                	c.lwsp	s6,52(sp)
200040c0:	5bc2                	c.lwsp	s7,48(sp)
200040c2:	5c32                	c.lwsp	s8,44(sp)
200040c4:	5ca2                	c.lwsp	s9,40(sp)
200040c6:	5d12                	c.lwsp	s10,36(sp)
200040c8:	5d82                	c.lwsp	s11,32(sp)
200040ca:	4501                	c.li	a0,0
200040cc:	6161                	c.addi16sp	sp,80
200040ce:	8082                	c.jr	ra
200040d0:	00241b13          	slli	s6,s0,0x2
200040d4:	eb9ff06f          	j	20003f8c <riscv_elementwise_mul_s16_batch_offset+0x64>
200040d8:	4501                	c.li	a0,0
200040da:	8082                	c.jr	ra

200040dc <riscv_elementwise_mul_acc_s16>:
200040dc:	7179                	c.addi16sp	sp,-48
200040de:	52d2                	c.lwsp	t0,52(sp)
200040e0:	c85e                	c.swsp	s7,16(sp)
200040e2:	d622                	c.swsp	s0,44(sp)
200040e4:	d426                	c.swsp	s1,40(sp)
200040e6:	d24a                	c.swsp	s2,36(sp)
200040e8:	d04e                	c.swsp	s3,32(sp)
200040ea:	ce52                	c.swsp	s4,28(sp)
200040ec:	cc56                	c.swsp	s5,24(sp)
200040ee:	ca5a                	c.swsp	s6,20(sp)
200040f0:	c662                	c.swsp	s8,12(sp)
200040f2:	c466                	c.swsp	s9,8(sp)
200040f4:	c26a                	c.swsp	s10,4(sp)
200040f6:	c06e                	c.swsp	s11,0(sp)
200040f8:	53c2                	c.lwsp	t2,48(sp)
200040fa:	5be2                	c.lwsp	s7,56(sp)
200040fc:	00504663          	bgtz	t0,20004108 <riscv_elementwise_mul_acc_s16+0x2c>
20004100:	62a1                	c.lui	t0,0x8
20004102:	12fd                	c.addi	t0,-1
20004104:	ffff83b7          	lui	t2,0xffff8
20004108:	01fbdc13          	srli	s8,s7,0x1f
2000410c:	9c5e                	c.add	s8,s7
2000410e:	4f85                	c.li	t6,1
20004110:	401c5c13          	srai	s8,s8,0x1
20004114:	0d7fda63          	bge	t6,s7,200041e8 <riscv_elementwise_mul_acc_s16+0x10c>
20004118:	4901                	c.li	s2,0
2000411a:	411009b3          	neg	s3,a7
2000411e:	f32989ff          	maxw	s3,s3,s2
20004122:	013f9fb3          	sll	t6,t6,s3
20004126:	1ffd                	c.addi	t6,-1
20004128:	401fda93          	srai	s5,t6,0x1
2000412c:	6b41                	c.lui	s6,0x10
2000412e:	001a8a13          	addi	s4,s5,1 # 10001 <BIN_SIZE+0x83fd>
20004132:	f328897f          	maxw	s2,a7,s2
20004136:	833a                	c.mv	t1,a4
20004138:	8f2e                	c.mv	t5,a1
2000413a:	8eaa                	c.mv	t4,a0
2000413c:	8e62                	c.mv	t3,s8
2000413e:	40000437          	lui	s0,0x40000
20004142:	4481                	c.li	s1,0
20004144:	fffb0b13          	addi	s6,s6,-1 # ffff <BIN_SIZE+0x83fb>
20004148:	000ea783          	lw	a5,0(t4)
2000414c:	0e91                	c.addi	t4,4
2000414e:	000f2d03          	lw	s10,0(t5)
20004152:	0f11                	c.addi	t5,4
20004154:	09a79cff          	smbb16	s9,a5,s10
20004158:	012c9cb3          	sll	s9,s9,s2
2000415c:	8622                	c.mv	a2,s0
2000415e:	86a6                	c.mv	a3,s1
20004160:	850c967f          	smar64	a2,s9,a6
20004164:	8dd2                	c.mv	s11,s4
20004166:	dff60cff          	wexti	s9,a2,31
2000416a:	019ff633          	and	a2,t6,s9
2000416e:	413cd6b3          	sra	a3,s9,s3
20004172:	000cc363          	bltz	s9,20004178 <riscv_elementwise_mul_acc_s16+0x9c>
20004176:	8dd6                	c.mv	s11,s5
20004178:	00031c83          	lh	s9,0(t1) # ffff8000 <_DATA_LMA_START+0xdfff0428>
2000417c:	00cda633          	slt	a2,s11,a2
20004180:	96b2                	c.add	a3,a2
20004182:	9cb6                	c.add	s9,a3
20004184:	f3938cff          	maxw	s9,t2,s9
20004188:	f1928cff          	minw	s9,t0,s9
2000418c:	0cc2                	c.slli	s9,0x10
2000418e:	410cdc93          	srai	s9,s9,0x10
20004192:	29a797ff          	smtt16	a5,a5,s10
20004196:	012797b3          	sll	a5,a5,s2
2000419a:	8622                	c.mv	a2,s0
2000419c:	86a6                	c.mv	a3,s1
2000419e:	8507967f          	smar64	a2,a5,a6
200041a2:	016cfcb3          	and	s9,s9,s6
200041a6:	1e7d                	c.addi	t3,-1
200041a8:	dff6067f          	wexti	a2,a2,31
200041ac:	8dd2                	c.mv	s11,s4
200041ae:	00cffd33          	and	s10,t6,a2
200041b2:	413656b3          	sra	a3,a2,s3
200041b6:	00064363          	bltz	a2,200041bc <riscv_elementwise_mul_acc_s16+0xe0>
200041ba:	8dd6                	c.mv	s11,s5
200041bc:	00231783          	lh	a5,2(t1)
200041c0:	01ada633          	slt	a2,s11,s10
200041c4:	96b2                	c.add	a3,a2
200041c6:	97b6                	c.add	a5,a3
200041c8:	f2f387ff          	maxw	a5,t2,a5
200041cc:	f0f287ff          	minw	a5,t0,a5
200041d0:	07c2                	c.slli	a5,0x10
200041d2:	0197e7b3          	or	a5,a5,s9
200041d6:	00f32023          	sw	a5,0(t1)
200041da:	0311                	c.addi	t1,4
200041dc:	f60e16e3          	bnez	t3,20004148 <riscv_elementwise_mul_acc_s16+0x6c>
200041e0:	0c0a                	c.slli	s8,0x2
200041e2:	9762                	c.add	a4,s8
200041e4:	95e2                	c.add	a1,s8
200041e6:	9562                	c.add	a0,s8
200041e8:	001bfb93          	andi	s7,s7,1
200041ec:	060b8263          	beqz	s7,20004250 <riscv_elementwise_mul_acc_s16+0x174>
200041f0:	00059603          	lh	a2,0(a1)
200041f4:	00051783          	lh	a5,0(a0)
200041f8:	4581                	c.li	a1,0
200041fa:	f2b886ff          	maxw	a3,a7,a1
200041fe:	02c787b3          	mul	a5,a5,a2
20004202:	40000637          	lui	a2,0x40000
20004206:	411008b3          	neg	a7,a7
2000420a:	00d797b3          	sll	a5,a5,a3
2000420e:	4681                	c.li	a3,0
20004210:	8507967f          	smar64	a2,a5,a6
20004214:	f2b888ff          	maxw	a7,a7,a1
20004218:	4785                	c.li	a5,1
2000421a:	011797b3          	sll	a5,a5,a7
2000421e:	dff6067f          	wexti	a2,a2,31
20004222:	17fd                	c.addi	a5,-1
20004224:	4017d593          	srai	a1,a5,0x1
20004228:	00062513          	slti	a0,a2,0
2000422c:	00071683          	lh	a3,0(a4)
20004230:	8ff1                	c.and	a5,a2
20004232:	95aa                	c.add	a1,a0
20004234:	00f5a7b3          	slt	a5,a1,a5
20004238:	41165633          	sra	a2,a2,a7
2000423c:	00f60633          	add	a2,a2,a5
20004240:	00c687b3          	add	a5,a3,a2
20004244:	f2f383ff          	maxw	t2,t2,a5
20004248:	f07282ff          	minw	t0,t0,t2
2000424c:	00571023          	sh	t0,0(a4)
20004250:	5432                	c.lwsp	s0,44(sp)
20004252:	54a2                	c.lwsp	s1,40(sp)
20004254:	5912                	c.lwsp	s2,36(sp)
20004256:	5982                	c.lwsp	s3,32(sp)
20004258:	4a72                	c.lwsp	s4,28(sp)
2000425a:	4ae2                	c.lwsp	s5,24(sp)
2000425c:	4b52                	c.lwsp	s6,20(sp)
2000425e:	4bc2                	c.lwsp	s7,16(sp)
20004260:	4c32                	c.lwsp	s8,12(sp)
20004262:	4ca2                	c.lwsp	s9,8(sp)
20004264:	4d12                	c.lwsp	s10,4(sp)
20004266:	4d82                	c.lwsp	s11,0(sp)
20004268:	4501                	c.li	a0,0
2000426a:	6145                	c.addi16sp	sp,48
2000426c:	8082                	c.jr	ra
	...

20004270 <riscv_nn_activation_s16>:
20004270:	cf55                	c.beqz	a4,2000432c <riscv_nn_activation_s16+0xbc>
20004272:	01000eb7          	lui	t4,0x1000
20004276:	f00e8e93          	addi	t4,t4,-256 # ffff00 <FLASH_SIZE+0xefff00>
2000427a:	48a1                	c.li	a7,8
2000427c:	0c06c063          	bltz	a3,2000433c <riscv_nn_activation_s16+0xcc>
20004280:	478d                	c.li	a5,3
20004282:	00d796b3          	sll	a3,a5,a3
20004286:	4301                	c.li	t1,0
20004288:	00000e13          	li	t3,0
2000428c:	0cc05263          	blez	a2,20004350 <riscv_nn_activation_s16+0xe0>
20004290:	1141                	c.addi	sp,-16
20004292:	c622                	c.swsp	s0,12(sp)
20004294:	c426                	c.swsp	s1,8(sp)
20004296:	c24a                	c.swsp	s2,4(sp)
20004298:	0606                	c.slli	a2,0x1
2000429a:	cf4d                	c.beqz	a4,20004354 <riscv_nn_activation_s16+0xe4>
2000429c:	ff8004b7          	lui	s1,0xff800
200042a0:	00800937          	lui	s2,0x800
200042a4:	00c582b3          	add	t0,a1,a2
200042a8:	0fe00413          	li	s0,254
200042ac:	00003397          	auipc	t2,0x3
200042b0:	61c38393          	addi	t2,t2,1564 # 200078c8 <sigmoid_table_uint16>
200042b4:	08048493          	addi	s1,s1,128 # ff800080 <_DATA_LMA_START+0xdf7f84a8>
200042b8:	07f90913          	addi	s2,s2,127 # 80007f <FLASH_SIZE+0x70007f>
200042bc:	00051783          	lh	a5,0(a0)
200042c0:	8672                	c.mv	a2,t3
200042c2:	8ff6                	c.mv	t6,t4
200042c4:	c4d7967f          	maddr32	a2,a5,a3
200042c8:	40665633          	sra	a2,a2,t1
200042cc:	40c007b3          	neg	a5,a2
200042d0:	f2f607ff          	maxw	a5,a2,a5
200042d4:	0117d833          	srl	a6,a5,a7
200042d8:	00180713          	addi	a4,a6,1
200042dc:	00181f13          	slli	t5,a6,0x1
200042e0:	0706                	c.slli	a4,0x1
200042e2:	9f1e                	c.add	t5,t2
200042e4:	00770733          	add	a4,a4,t2
200042e8:	0ff7f793          	andi	a5,a5,255
200042ec:	01046c63          	bltu	s0,a6,20004304 <riscv_nn_activation_s16+0x94>
200042f0:	000f5803          	lhu	a6,0(t5)
200042f4:	00075703          	lhu	a4,0(a4)
200042f8:	01181fb3          	sll	t6,a6,a7
200042fc:	41070733          	sub	a4,a4,a6
20004300:	c4f71fff          	maddr32	t6,a4,a5
20004304:	009f87b3          	add	a5,t6,s1
20004308:	00065463          	bgez	a2,20004310 <riscv_nn_activation_s16+0xa0>
2000430c:	41f907b3          	sub	a5,s2,t6
20004310:	83a1                	c.srli	a5,0x8
20004312:	00f59023          	sh	a5,0(a1)
20004316:	0589                	c.addi	a1,2
20004318:	0509                	c.addi	a0,2
2000431a:	fa5591e3          	bne	a1,t0,200042bc <riscv_nn_activation_s16+0x4c>
2000431e:	4432                	c.lwsp	s0,12(sp)
20004320:	44a2                	c.lwsp	s1,8(sp)
20004322:	4912                	c.lwsp	s2,4(sp)
20004324:	4501                	c.li	a0,0
20004326:	0141                	c.addi	sp,16
20004328:	00008067          	ret
2000432c:	02000eb7          	lui	t4,0x2000
20004330:	c00e8e93          	addi	t4,t4,-1024 # 1fffc00 <FLASH_SIZE+0x1effc00>
20004334:	00900893          	li	a7,9
20004338:	f406d4e3          	bgez	a3,20004280 <riscv_nn_activation_s16+0x10>
2000433c:	fff6c793          	not	a5,a3
20004340:	4e05                	c.li	t3,1
20004342:	40d00333          	neg	t1,a3
20004346:	00fe1e33          	sll	t3,t3,a5
2000434a:	468d                	c.li	a3,3
2000434c:	f4c042e3          	bgtz	a2,20004290 <riscv_nn_activation_s16+0x20>
20004350:	4501                	c.li	a0,0
20004352:	8082                	c.jr	ra
20004354:	02000437          	lui	s0,0x2000
20004358:	00c50fb3          	add	t6,a0,a2
2000435c:	0fe00393          	li	t2,254
20004360:	00003297          	auipc	t0,0x3
20004364:	56828293          	addi	t0,t0,1384 # 200078c8 <sigmoid_table_uint16>
20004368:	1ff40413          	addi	s0,s0,511 # 20001ff <FLASH_SIZE+0x1f001ff>
2000436c:	00051783          	lh	a5,0(a0)
20004370:	8772                	c.mv	a4,t3
20004372:	0509                	c.addi	a0,2
20004374:	c4d7977f          	maddr32	a4,a5,a3
20004378:	8f76                	c.mv	t5,t4
2000437a:	40675733          	sra	a4,a4,t1
2000437e:	40e007b3          	neg	a5,a4
20004382:	f2f707ff          	maxw	a5,a4,a5
20004386:	1ff7f493          	andi	s1,a5,511
2000438a:	0117d7b3          	srl	a5,a5,a7
2000438e:	00178613          	addi	a2,a5,1
20004392:	00179813          	slli	a6,a5,0x1
20004396:	0606                	c.slli	a2,0x1
20004398:	9816                	c.add	a6,t0
2000439a:	9616                	c.add	a2,t0
2000439c:	00f3ec63          	bltu	t2,a5,200043b4 <riscv_nn_activation_s16+0x144>
200043a0:	00085803          	lhu	a6,0(a6)
200043a4:	00065783          	lhu	a5,0(a2) # 40000000 <_DATA_LMA_START+0x1fff8428>
200043a8:	01181f33          	sll	t5,a6,a7
200043ac:	410787b3          	sub	a5,a5,a6
200043b0:	c4979f7f          	maddr32	t5,a5,s1
200043b4:	41e407b3          	sub	a5,s0,t5
200043b8:	00074463          	bltz	a4,200043c0 <riscv_nn_activation_s16+0x150>
200043bc:	200f0793          	addi	a5,t5,512
200043c0:	83a9                	c.srli	a5,0xa
200043c2:	00f59023          	sh	a5,0(a1)
200043c6:	0589                	c.addi	a1,2
200043c8:	fbf512e3          	bne	a0,t6,2000436c <riscv_nn_activation_s16+0xfc>
200043cc:	4432                	c.lwsp	s0,12(sp)
200043ce:	44a2                	c.lwsp	s1,8(sp)
200043d0:	4912                	c.lwsp	s2,4(sp)
200043d2:	4501                	c.li	a0,0
200043d4:	0141                	c.addi	sp,16
200043d6:	8082                	c.jr	ra

200043d8 <riscv_nn_lstm_calculate_gate_s8_s16>:
200043d8:	7179                	c.addi16sp	sp,-48
200043da:	d422                	c.swsp	s0,40(sp)
200043dc:	8436                	c.mv	s0,a3
200043de:	00442803          	lw	a6,4(s0)
200043e2:	4a94                	c.lw	a3,16(a3)
200043e4:	d226                	c.swsp	s1,36(sp)
200043e6:	030686b3          	mul	a3,a3,a6
200043ea:	84b2                	c.mv	s1,a2
200043ec:	cc52                	c.swsp	s4,24(sp)
200043ee:	00169613          	slli	a2,a3,0x1
200043f2:	ca56                	c.swsp	s5,20(sp)
200043f4:	8a2e                	c.mv	s4,a1
200043f6:	8aaa                	c.mv	s5,a0
200043f8:	4581                	c.li	a1,0
200043fa:	853a                	c.mv	a0,a4
200043fc:	d04a                	c.swsp	s2,32(sp)
200043fe:	ce4e                	c.swsp	s3,28(sp)
20004400:	893a                	c.mv	s2,a4
20004402:	89be                	c.mv	s3,a5
20004404:	02112623          	sw	ra,44(sp)
20004408:	0ef000ef          	jal	ra,20004cf6 <memset>
2000440c:	01042883          	lw	a7,16(s0)
20004410:	00442303          	lw	t1,4(s0)
20004414:	00c42803          	lw	a6,12(s0)
20004418:	40dc                	c.lw	a5,4(s1)
2000441a:	4098                	c.lw	a4,0(s1)
2000441c:	44d0                	c.lw	a2,12(s1)
2000441e:	448c                	c.lw	a1,8(s1)
20004420:	86ca                	c.mv	a3,s2
20004422:	8556                	c.mv	a0,s5
20004424:	c24e                	c.swsp	s3,4(sp)
20004426:	c01a                	c.swsp	t1,0(sp)
20004428:	4a0000ef          	jal	ra,200048c8 <riscv_nn_vec_mat_mul_result_acc_s8_s16>
2000442c:	020a0063          	beqz	s4,2000444c <riscv_nn_lstm_calculate_gate_s8_s16+0x74>
20004430:	01042883          	lw	a7,16(s0)
20004434:	00442303          	lw	t1,4(s0)
20004438:	48dc                	c.lw	a5,20(s1)
2000443a:	4898                	c.lw	a4,16(s1)
2000443c:	4cd0                	c.lw	a2,28(s1)
2000443e:	4c8c                	c.lw	a1,24(s1)
20004440:	8846                	c.mv	a6,a7
20004442:	86ca                	c.mv	a3,s2
20004444:	8552                	c.mv	a0,s4
20004446:	c24e                	c.swsp	s3,4(sp)
20004448:	c01a                	c.swsp	t1,0(sp)
2000444a:	29bd                	c.jal	200048c8 <riscv_nn_vec_mat_mul_result_acc_s8_s16>
2000444c:	4810                	c.lw	a2,16(s0)
2000444e:	405c                	c.lw	a5,4(s0)
20004450:	50d8                	c.lw	a4,36(s1)
20004452:	02f60633          	mul	a2,a2,a5
20004456:	85ca                	c.mv	a1,s2
20004458:	854a                	c.mv	a0,s2
2000445a:	4681                	c.li	a3,0
2000445c:	e15ff0ef          	jal	ra,20004270 <riscv_nn_activation_s16>
20004460:	50b2                	c.lwsp	ra,44(sp)
20004462:	5422                	c.lwsp	s0,40(sp)
20004464:	5492                	c.lwsp	s1,36(sp)
20004466:	5902                	c.lwsp	s2,32(sp)
20004468:	49f2                	c.lwsp	s3,28(sp)
2000446a:	4a62                	c.lwsp	s4,24(sp)
2000446c:	4ad2                	c.lwsp	s5,20(sp)
2000446e:	4501                	c.li	a0,0
20004470:	6145                	c.addi16sp	sp,48
20004472:	8082                	c.jr	ra

20004474 <riscv_nn_vec_mat_mul_result_acc_s16>:
20004474:	7155                	c.addi16sp	sp,-208
20004476:	82ba                	c.mv	t0,a4
20004478:	d95e                	c.swsp	s7,176(sp)
2000447a:	d762                	c.swsp	s8,172(sp)
2000447c:	d36a                	c.swsp	s10,164(sp)
2000447e:	d8b2                	c.swsp	a2,112(sp)
20004480:	7fff0737          	lui	a4,0x7fff0
20004484:	863e                	c.mv	a2,a5
20004486:	c7a2                	c.swsp	s0,204(sp)
20004488:	67a1                	c.lui	a5,0x8
2000448a:	c5a6                	c.swsp	s1,200(sp)
2000448c:	c3ca                	c.swsp	s2,196(sp)
2000448e:	c1ce                	c.swsp	s3,192(sp)
20004490:	df52                	c.swsp	s4,188(sp)
20004492:	dd56                	c.swsp	s5,184(sp)
20004494:	db5a                	c.swsp	s6,180(sp)
20004496:	d566                	c.swsp	s9,168(sp)
20004498:	d16e                	c.swsp	s11,160(sp)
2000449a:	d6ae                	c.swsp	a1,108(sp)
2000449c:	ca42                	c.swsp	a6,20(sp)
2000449e:	8bb6                	c.mv	s7,a3
200044a0:	8c46                	c.mv	s8,a7
200044a2:	fff78d13          	addi	s10,a5,-1 # 7fff <BIN_SIZE+0x3fb>
200044a6:	00e2d563          	bge	t0,a4,200044b0 <riscv_nn_vec_mat_mul_result_acc_s16+0x3c>
200044aa:	92be                	c.add	t0,a5
200044ac:	4102dd13          	srai	s10,t0,0x10
200044b0:	47ce                	c.lwsp	a5,208(sp)
200044b2:	2af05d63          	blez	a5,2000476c <riscv_nn_vec_mat_mul_result_acc_s16+0x2f8>
200044b6:	4852                	c.lwsp	a6,20(sp)
200044b8:	20000793          	li	a5,512
200044bc:	f0f807ff          	minw	a5,a6,a5
200044c0:	41f7d713          	srai	a4,a5,0x1f
200044c4:	8b0d                	c.andi	a4,3
200044c6:	973e                	c.add	a4,a5
200044c8:	47de                	c.lwsp	a5,212(sp)
200044ca:	40275893          	srai	a7,a4,0x2
200044ce:	02f805b3          	mul	a1,a6,a5
200044d2:	01fc5793          	srli	a5,s8,0x1f
200044d6:	97e2                	c.add	a5,s8
200044d8:	4017db13          	srai	s6,a5,0x1
200044dc:	001c7793          	andi	a5,s8,1
200044e0:	00189693          	slli	a3,a7,0x1
200044e4:	de46                	c.swsp	a7,60(sp)
200044e6:	dabe                	c.swsp	a5,116(sp)
200044e8:	088e                	c.slli	a7,0x3
200044ea:	00159793          	slli	a5,a1,0x1
200044ee:	dcbe                	c.swsp	a5,120(sp)
200044f0:	011507b3          	add	a5,a0,a7
200044f4:	ffc77293          	andi	t0,a4,-4
200044f8:	d83e                	c.swsp	a5,48(sp)
200044fa:	00181793          	slli	a5,a6,0x1
200044fe:	41068733          	sub	a4,a3,a6
20004502:	c2be                	c.swsp	a5,68(sp)
20004504:	410287b3          	sub	a5,t0,a6
20004508:	002c2693          	slti	a3,s8,2
2000450c:	c6be                	c.swsp	a5,76(sp)
2000450e:	00171793          	slli	a5,a4,0x1
20004512:	c8be                	c.swsp	a5,80(sp)
20004514:	dc16                	c.swsp	t0,56(sp)
20004516:	87b6                	c.mv	a5,a3
20004518:	dec6                	c.swsp	a7,124(sp)
2000451a:	c0da                	c.swsp	s6,64(sp)
2000451c:	0016c693          	xori	a3,a3,1
20004520:	4705                	c.li	a4,1
20004522:	38078363          	beqz	a5,200048a8 <riscv_nn_vec_mat_mul_result_acc_s16+0x434>
20004526:	57b6                	c.lwsp	a5,108(sp)
20004528:	4596                	c.lwsp	a1,68(sp)
2000452a:	c4b717ff          	maddr32	a5,a4,a1
2000452e:	c53e                	c.swsp	a5,136(sp)
20004530:	01000793          	li	a5,16
20004534:	36069063          	bnez	a3,20004894 <riscv_nn_vec_mat_mul_result_acc_s16+0x420>
20004538:	5746                	c.lwsp	a4,112(sp)
2000453a:	97ba                	c.add	a5,a4
2000453c:	c73e                	c.swsp	a5,140(sp)
2000453e:	4791                	c.li	a5,4
20004540:	08f12023          	sw	a5,128(sp)
20004544:	34069463          	bnez	a3,2000488c <riscv_nn_vec_mat_mul_result_acc_s16+0x418>
20004548:	47b9                	c.li	a5,14
2000454a:	40c78733          	sub	a4,a5,a2
2000454e:	41fd5793          	srai	a5,s10,0x1f
20004552:	56e2                	c.lwsp	a3,56(sp)
20004554:	cc3e                	c.swsp	a5,24(sp)
20004556:	47d2                	c.lwsp	a5,20(sp)
20004558:	4881                	c.li	a7,0
2000455a:	8f95                	c.sub	a5,a3
2000455c:	c4be                	c.swsp	a5,72(sp)
2000455e:	47fd                	c.li	a5,31
20004560:	8f99                	c.sub	a5,a4
20004562:	ccbe                	c.swsp	a5,88(sp)
20004564:	67a1                	c.lui	a5,0x8
20004566:	17fd                	c.addi	a5,-1
20004568:	8846                	c.mv	a6,a7
2000456a:	fe070d93          	addi	s11,a4,-32 # 7ffeffe0 <_DATA_LMA_START+0x5ffe8408>
2000456e:	88de                	c.mv	a7,s7
20004570:	caba                	c.swsp	a4,84(sp)
20004572:	ce3e                	c.swsp	a5,28(sp)
20004574:	09812223          	sw	s8,132(sp)
20004578:	5776                	c.lwsp	a4,124(sp)
2000457a:	57c2                	c.lwsp	a5,48(sp)
2000457c:	8f99                	c.sub	a5,a4
2000457e:	da3e                	c.swsp	a5,52(sp)
20004580:	479a                	c.lwsp	a5,132(sp)
20004582:	4705                	c.li	a4,1
20004584:	30f75063          	bge	a4,a5,20004884 <riscv_nn_vec_mat_mul_result_acc_s16+0x410>
20004588:	52c6                	c.lwsp	t0,112(sp)
2000458a:	5536                	c.lwsp	a0,108(sp)
2000458c:	85c6                	c.mv	a1,a7
2000458e:	4b01                	c.li	s6,0
20004590:	cec2                	c.swsp	a6,92(sp)
20004592:	d4c6                	c.swsp	a7,104(sp)
20004594:	4796                	c.lwsp	a5,68(sp)
20004596:	5bf2                	c.lwsp	s7,60(sp)
20004598:	00a786b3          	add	a3,a5,a0
2000459c:	47d2                	c.lwsp	a5,20(sp)
2000459e:	00f50633          	add	a2,a0,a5
200045a2:	87aa                	c.mv	a5,a0
200045a4:	8536                	c.mv	a0,a3
200045a6:	1e0b8363          	beqz	s7,2000478c <riscv_nn_vec_mat_mul_result_acc_s16+0x318>
200045aa:	5c52                	c.lwsp	s8,52(sp)
200045ac:	d27e                	c.swsp	t6,36(sp)
200045ae:	d626                	c.swsp	s1,44(sp)
200045b0:	8fb6                	c.mv	t6,a3
200045b2:	84ee                	c.mv	s1,s11
200045b4:	86b2                	c.mv	a3,a2
200045b6:	8dda                	c.mv	s11,s6
200045b8:	4881                	c.li	a7,0
200045ba:	4c81                	c.li	s9,0
200045bc:	863e                	c.mv	a2,a5
200045be:	8b2e                	c.mv	s6,a1
200045c0:	c44a                	c.swsp	s2,8(sp)
200045c2:	c64e                	c.swsp	s3,12(sp)
200045c4:	d07a                	c.swsp	t5,32(sp)
200045c6:	d422                	c.swsp	s0,40(sp)
200045c8:	000c2583          	lw	a1,0(s8)
200045cc:	004c0793          	addi	a5,s8,4
200045d0:	439c                	c.lw	a5,0(a5)
200045d2:	0c21                	c.addi	s8,8
200045d4:	00062803          	lw	a6,0(a2)
200045d8:	8342                	c.mv	t1,a6
200045da:	83c2                	c.mv	t2,a6
200045dc:	0611                	c.addi	a2,4
200045de:	de83077f          	wexti	a4,t1,8
200045e2:	ac97077f          	sunpkd820	a4,a4
200045e6:	ac98087f          	sunpkd820	a6,a6
200045ea:	2f0719ff          	pktt16	s3,a4,a6
200045ee:	0f07177f          	pkbb16	a4,a4,a6
200045f2:	48b71cff          	kmada	s9,a4,a1
200045f6:	48f99cff          	kmada	s9,s3,a5
200045fa:	0006a803          	lw	a6,0(a3)
200045fe:	8e42                	c.mv	t3,a6
20004600:	8ec2                	c.mv	t4,a6
20004602:	0691                	c.addi	a3,4
20004604:	de8e077f          	wexti	a4,t3,8
20004608:	ac97077f          	sunpkd820	a4,a4
2000460c:	ac98087f          	sunpkd820	a6,a6
20004610:	2f0719ff          	pktt16	s3,a4,a6
20004614:	0f07177f          	pkbb16	a4,a4,a6
20004618:	48b718ff          	kmada	a7,a4,a1
2000461c:	48f998ff          	kmada	a7,s3,a5
20004620:	1bfd                	c.addi	s7,-1
20004622:	fa0b93e3          	bnez	s7,200045c8 <riscv_nn_vec_mat_mul_result_acc_s16+0x154>
20004626:	47b6                	c.lwsp	a5,76(sp)
20004628:	86fe                	c.mv	a3,t6
2000462a:	00f68633          	add	a2,a3,a5
2000462e:	47c6                	c.lwsp	a5,80(sp)
20004630:	85da                	c.mv	a1,s6
20004632:	5f02                	c.lwsp	t5,32(sp)
20004634:	8b6e                	c.mv	s6,s11
20004636:	5f92                	c.lwsp	t6,36(sp)
20004638:	8da6                	c.mv	s11,s1
2000463a:	5422                	c.lwsp	s0,40(sp)
2000463c:	54b2                	c.lwsp	s1,44(sp)
2000463e:	5842                	c.lwsp	a6,48(sp)
20004640:	8a66                	c.mv	s4,s9
20004642:	8946                	c.mv	s2,a7
20004644:	00d787b3          	add	a5,a5,a3
20004648:	41fcda93          	srai	s5,s9,0x1f
2000464c:	41f8d993          	srai	s3,a7,0x1f
20004650:	4752                	c.lwsp	a4,20(sp)
20004652:	56e2                	c.lwsp	a3,56(sp)
20004654:	04e6d063          	bge	a3,a4,20004694 <riscv_nn_vec_mat_mul_result_acc_s16+0x220>
20004658:	04812703          	lw	a4,72(sp)
2000465c:	00e78cb3          	add	s9,a5,a4
20004660:	00081883          	lh	a7,0(a6)
20004664:	00078683          	lb	a3,0(a5) # 8000 <BIN_SIZE+0x3fc>
20004668:	00060703          	lb	a4,0(a2)
2000466c:	0785                	c.addi	a5,1
2000466e:	031686b3          	mul	a3,a3,a7
20004672:	03170733          	mul	a4,a4,a7
20004676:	0809                	c.addi	a6,2
20004678:	8f36                	c.mv	t5,a3
2000467a:	843a                	c.mv	s0,a4
2000467c:	41f6df93          	srai	t6,a3,0x1f
20004680:	41f75493          	srai	s1,a4,0x1f
20004684:	c1ea1a7f          	add64	s4,s4,t5
20004688:	c089197f          	add64	s2,s2,s0
2000468c:	00160613          	addi	a2,a2,1
20004690:	fd9798e3          	bne	a5,s9,20004660 <riscv_nn_vec_mat_mul_result_acc_s16+0x1ec>
20004694:	0002a803          	lw	a6,0(t0)
20004698:	0042a883          	lw	a7,4(t0)
2000469c:	46e2                	c.lwsp	a3,24(sp)
2000469e:	0082a703          	lw	a4,8(t0)
200046a2:	c10a187f          	add64	a6,s4,a6
200046a6:	03068cb3          	mul	s9,a3,a6
200046aa:	f1a8167f          	mulr64	a2,a6,s10
200046ae:	00c2a783          	lw	a5,12(t0)
200046b2:	c51d1cff          	maddr32	s9,s10,a7
200046b6:	c636                	c.swsp	a3,12(sp)
200046b8:	96e6                	c.add	a3,s9
200046ba:	c432                	c.swsp	a2,8(sp)
200046bc:	c636                	c.swsp	a3,12(sp)
200046be:	02c1                	c.addi	t0,16
200046c0:	c0e9177f          	add64	a4,s2,a4
200046c4:	41b6d633          	sra	a2,a3,s11
200046c8:	000dde63          	bgez	s11,200046e4 <riscv_nn_vec_mat_mul_result_acc_s16+0x270>
200046cc:	48b2                	c.lwsp	a7,12(sp)
200046ce:	4666                	c.lwsp	a2,88(sp)
200046d0:	00189693          	slli	a3,a7,0x1
200046d4:	00c696b3          	sll	a3,a3,a2
200046d8:	4822                	c.lwsp	a6,8(sp)
200046da:	4656                	c.lwsp	a2,84(sp)
200046dc:	00c85633          	srl	a2,a6,a2
200046e0:	00d66633          	or	a2,a2,a3
200046e4:	00059803          	lh	a6,0(a1)
200046e8:	46e2                	c.lwsp	a3,24(sp)
200046ea:	0605                	c.addi	a2,1
200046ec:	02e686b3          	mul	a3,a3,a4
200046f0:	8605                	c.srai	a2,0x1
200046f2:	9642                	c.add	a2,a6
200046f4:	7861                	c.lui	a6,0xffff8
200046f6:	f306067f          	maxw	a2,a2,a6
200046fa:	4872                	c.lwsp	a6,28(sp)
200046fc:	c4fd16ff          	maddr32	a3,s10,a5
20004700:	f106067f          	minw	a2,a2,a6
20004704:	f1a7187f          	mulr64	a6,a4,s10
20004708:	98b6                	c.add	a7,a3
2000470a:	00c59023          	sh	a2,0(a1)
2000470e:	41b8d733          	sra	a4,a7,s11
20004712:	000ddb63          	bgez	s11,20004728 <riscv_nn_vec_mat_mul_result_acc_s16+0x2b4>
20004716:	4766                	c.lwsp	a4,88(sp)
20004718:	00189793          	slli	a5,a7,0x1
2000471c:	00e797b3          	sll	a5,a5,a4
20004720:	4756                	c.lwsp	a4,84(sp)
20004722:	00e85733          	srl	a4,a6,a4
20004726:	8f5d                	c.or	a4,a5
20004728:	00259783          	lh	a5,2(a1)
2000472c:	0705                	c.addi	a4,1
2000472e:	8705                	c.srai	a4,0x1
20004730:	97ba                	c.add	a5,a4
20004732:	7761                	c.lui	a4,0xffff8
20004734:	f2e787ff          	maxw	a5,a5,a4
20004738:	4772                	c.lwsp	a4,28(sp)
2000473a:	0591                	c.addi	a1,4
2000473c:	f0e787ff          	minw	a5,a5,a4
20004740:	fef59f23          	sh	a5,-2(a1)
20004744:	4786                	c.lwsp	a5,64(sp)
20004746:	0b05                	c.addi	s6,1
20004748:	e4fb46e3          	blt	s6,a5,20004594 <riscv_nn_vec_mat_mul_result_acc_s16+0x120>
2000474c:	58a6                	c.lwsp	a7,104(sp)
2000474e:	478a                	c.lwsp	a5,128(sp)
20004750:	4876                	c.lwsp	a6,92(sp)
20004752:	453a                	c.lwsp	a0,140(sp)
20004754:	472a                	c.lwsp	a4,136(sp)
20004756:	98be                	c.add	a7,a5
20004758:	57d6                	c.lwsp	a5,116(sp)
2000475a:	ef9d                	c.bnez	a5,20004798 <riscv_nn_vec_mat_mul_result_acc_s16+0x324>
2000475c:	57c2                	c.lwsp	a5,48(sp)
2000475e:	5766                	c.lwsp	a4,120(sp)
20004760:	0805                	c.addi	a6,1
20004762:	97ba                	c.add	a5,a4
20004764:	d83e                	c.swsp	a5,48(sp)
20004766:	47ce                	c.lwsp	a5,208(sp)
20004768:	e10798e3          	bne	a5,a6,20004578 <riscv_nn_vec_mat_mul_result_acc_s16+0x104>
2000476c:	443e                	c.lwsp	s0,204(sp)
2000476e:	44ae                	c.lwsp	s1,200(sp)
20004770:	491e                	c.lwsp	s2,196(sp)
20004772:	498e                	c.lwsp	s3,192(sp)
20004774:	5a7a                	c.lwsp	s4,188(sp)
20004776:	5aea                	c.lwsp	s5,184(sp)
20004778:	5b5a                	c.lwsp	s6,180(sp)
2000477a:	5bca                	c.lwsp	s7,176(sp)
2000477c:	5c3a                	c.lwsp	s8,172(sp)
2000477e:	5caa                	c.lwsp	s9,168(sp)
20004780:	5d1a                	c.lwsp	s10,164(sp)
20004782:	5d8a                	c.lwsp	s11,160(sp)
20004784:	4501                	c.li	a0,0
20004786:	6169                	c.addi16sp	sp,208
20004788:	00008067          	ret
2000478c:	5852                	c.lwsp	a6,52(sp)
2000478e:	4901                	c.li	s2,0
20004790:	4981                	c.li	s3,0
20004792:	4a01                	c.li	s4,0
20004794:	4a81                	c.li	s5,0
20004796:	bd6d                	c.j	20004650 <riscv_nn_vec_mat_mul_result_acc_s16+0x1dc>
20004798:	55f2                	c.lwsp	a1,60(sp)
2000479a:	12058163          	beqz	a1,200048bc <riscv_nn_vec_mat_mul_result_acc_s16+0x448>
2000479e:	5c52                	c.lwsp	s8,52(sp)
200047a0:	863a                	c.mv	a2,a4
200047a2:	4681                	c.li	a3,0
200047a4:	00062283          	lw	t0,0(a2)
200047a8:	8b16                	c.mv	s6,t0
200047aa:	8b96                	c.mv	s7,t0
200047ac:	0611                	c.addi	a2,4
200047ae:	de8b07ff          	wexti	a5,s6,8
200047b2:	ac9787ff          	sunpkd820	a5,a5
200047b6:	ac9282ff          	sunpkd820	t0,t0
200047ba:	2e579cff          	pktt16	s9,a5,t0
200047be:	0e5797ff          	pkbb16	a5,a5,t0
200047c2:	000c2283          	lw	t0,0(s8)
200047c6:	485796ff          	kmada	a3,a5,t0
200047ca:	004c0793          	addi	a5,s8,4
200047ce:	439c                	c.lw	a5,0(a5)
200047d0:	0c21                	c.addi	s8,8
200047d2:	48fc96ff          	kmada	a3,s9,a5
200047d6:	15fd                	c.addi	a1,-1
200047d8:	f5f1                	c.bnez	a1,200047a4 <riscv_nn_vec_mat_mul_result_acc_s16+0x330>
200047da:	57c2                	c.lwsp	a5,48(sp)
200047dc:	c95a                	c.swsp	s6,144(sp)
200047de:	da3e                	c.swsp	a5,52(sp)
200047e0:	57e2                	c.lwsp	a5,56(sp)
200047e2:	cb5e                	c.swsp	s7,148(sp)
200047e4:	973e                	c.add	a4,a5
200047e6:	41f6d793          	srai	a5,a3,0x1f
200047ea:	d0b6                	c.swsp	a3,96(sp)
200047ec:	06f12223          	sw	a5,100(sp)
200047f0:	47d2                	c.lwsp	a5,20(sp)
200047f2:	56e2                	c.lwsp	a3,56(sp)
200047f4:	02f6dc63          	bge	a3,a5,2000482c <riscv_nn_vec_mat_mul_result_acc_s16+0x3b8>
200047f8:	47a6                	c.lwsp	a5,72(sp)
200047fa:	5c06                	c.lwsp	s8,96(sp)
200047fc:	5c96                	c.lwsp	s9,100(sp)
200047fe:	5652                	c.lwsp	a2,52(sp)
20004800:	00f706b3          	add	a3,a4,a5
20004804:	00061583          	lh	a1,0(a2)
20004808:	00070783          	lb	a5,0(a4) # ffff8000 <_DATA_LMA_START+0xdfff0428>
2000480c:	0705                	c.addi	a4,1
2000480e:	0609                	c.addi	a2,2
20004810:	02b787b3          	mul	a5,a5,a1
20004814:	8b3e                	c.mv	s6,a5
20004816:	41f7db93          	srai	s7,a5,0x1f
2000481a:	c16c1c7f          	add64	s8,s8,s6
2000481e:	fed713e3          	bne	a4,a3,20004804 <riscv_nn_vec_mat_mul_result_acc_s16+0x390>
20004822:	d0e2                	c.swsp	s8,96(sp)
20004824:	d2e6                	c.swsp	s9,100(sp)
20004826:	cd5a                	c.swsp	s6,152(sp)
20004828:	09712e23          	sw	s7,156(sp)
2000482c:	5706                	c.lwsp	a4,96(sp)
2000482e:	5796                	c.lwsp	a5,100(sp)
20004830:	4110                	c.lw	a2,0(a0)
20004832:	4154                	c.lw	a3,4(a0)
20004834:	c0c7167f          	add64	a2,a4,a2
20004838:	47e2                	c.lwsp	a5,24(sp)
2000483a:	f1a61b7f          	mulr64	s6,a2,s10
2000483e:	02c785b3          	mul	a1,a5,a2
20004842:	c4dd15ff          	maddr32	a1,s10,a3
20004846:	9bae                	c.add	s7,a1
20004848:	41bbd733          	sra	a4,s7,s11
2000484c:	000ddc63          	bgez	s11,20004864 <riscv_nn_vec_mat_mul_result_acc_s16+0x3f0>
20004850:	4766                	c.lwsp	a4,88(sp)
20004852:	001b9793          	slli	a5,s7,0x1
20004856:	00e797b3          	sll	a5,a5,a4
2000485a:	4756                	c.lwsp	a4,84(sp)
2000485c:	00eb5733          	srl	a4,s6,a4
20004860:	00f76733          	or	a4,a4,a5
20004864:	00089683          	lh	a3,0(a7)
20004868:	0705                	c.addi	a4,1
2000486a:	40175793          	srai	a5,a4,0x1
2000486e:	97b6                	c.add	a5,a3
20004870:	7761                	c.lui	a4,0xffff8
20004872:	f2e787ff          	maxw	a5,a5,a4
20004876:	4772                	c.lwsp	a4,28(sp)
20004878:	0889                	c.addi	a7,2
2000487a:	f0e787ff          	minw	a5,a5,a4
2000487e:	fef89f23          	sh	a5,-2(a7)
20004882:	bde9                	c.j	2000475c <riscv_nn_vec_mat_mul_result_acc_s16+0x2e8>
20004884:	5546                	c.lwsp	a0,112(sp)
20004886:	5736                	c.lwsp	a4,108(sp)
20004888:	ed1ff06f          	j	20004758 <riscv_nn_vec_mat_mul_result_acc_s16+0x2e4>
2000488c:	4786                	c.lwsp	a5,64(sp)
2000488e:	078a                	c.slli	a5,0x2
20004890:	c13e                	c.swsp	a5,128(sp)
20004892:	b95d                	c.j	20004548 <riscv_nn_vec_mat_mul_result_acc_s16+0xd4>
20004894:	4786                	c.lwsp	a5,64(sp)
20004896:	5746                	c.lwsp	a4,112(sp)
20004898:	0792                	c.slli	a5,0x4
2000489a:	97ba                	c.add	a5,a4
2000489c:	c73e                	c.swsp	a5,140(sp)
2000489e:	4791                	c.li	a5,4
200048a0:	c13e                	c.swsp	a5,128(sp)
200048a2:	ca0683e3          	beqz	a3,20004548 <riscv_nn_vec_mat_mul_result_acc_s16+0xd4>
200048a6:	b7dd                	c.j	2000488c <riscv_nn_vec_mat_mul_result_acc_s16+0x418>
200048a8:	57b6                	c.lwsp	a5,108(sp)
200048aa:	4596                	c.lwsp	a1,68(sp)
200048ac:	875a                	c.mv	a4,s6
200048ae:	c4b717ff          	maddr32	a5,a4,a1
200048b2:	c53e                	c.swsp	a5,136(sp)
200048b4:	47c1                	c.li	a5,16
200048b6:	c80681e3          	beqz	a3,20004538 <riscv_nn_vec_mat_mul_result_acc_s16+0xc4>
200048ba:	bfe9                	c.j	20004894 <riscv_nn_vec_mat_mul_result_acc_s16+0x420>
200048bc:	4601                	c.li	a2,0
200048be:	4681                	c.li	a3,0
200048c0:	d0b2                	c.swsp	a2,96(sp)
200048c2:	d2b6                	c.swsp	a3,100(sp)
200048c4:	b735                	c.j	200047f0 <riscv_nn_vec_mat_mul_result_acc_s16+0x37c>
	...

200048c8 <riscv_nn_vec_mat_mul_result_acc_s8_s16>:
200048c8:	7135                	c.addi16sp	sp,-160
200048ca:	c752                	c.swsp	s4,140(sp)
200048cc:	8a3a                	c.mv	s4,a4
200048ce:	570a                	c.lwsp	a4,160(sp)
200048d0:	cf22                	c.swsp	s0,156(sp)
200048d2:	cd26                	c.swsp	s1,152(sp)
200048d4:	cb4a                	c.swsp	s2,148(sp)
200048d6:	c94e                	c.swsp	s3,144(sp)
200048d8:	c556                	c.swsp	s5,136(sp)
200048da:	c35a                	c.swsp	s6,132(sp)
200048dc:	c15e                	c.swsp	s7,128(sp)
200048de:	dee2                	c.swsp	s8,124(sp)
200048e0:	dce6                	c.swsp	s9,120(sp)
200048e2:	daea                	c.swsp	s10,116(sp)
200048e4:	d8ee                	c.swsp	s11,112(sp)
200048e6:	c4ae                	c.swsp	a1,72(sp)
200048e8:	22e05263          	blez	a4,20004b0c <riscv_nn_vec_mat_mul_result_acc_s8_s16+0x244>
200048ec:	8db2                	c.mv	s11,a2
200048ee:	40f00b33          	neg	s6,a5
200048f2:	4601                	c.li	a2,0
200048f4:	8cb6                	c.mv	s9,a3
200048f6:	41f85713          	srai	a4,a6,0x1f
200048fa:	f2cb0b7f          	maxw	s6,s6,a2
200048fe:	01f8d693          	srli	a3,a7,0x1f
20004902:	561a                	c.lwsp	a2,164(sp)
20004904:	96c6                	c.add	a3,a7
20004906:	8b0d                	c.andi	a4,3
20004908:	4016dd13          	srai	s10,a3,0x1
2000490c:	02c80633          	mul	a2,a6,a2
20004910:	9742                	c.add	a4,a6
20004912:	00181413          	slli	s0,a6,0x1
20004916:	4a85                	c.li	s5,1
20004918:	40275293          	srai	t0,a4,0x2
2000491c:	c5a415ff          	maddr32	a1,s0,s10
20004920:	016a9ab3          	sll	s5,s5,s6
20004924:	89c2                	c.mv	s3,a6
20004926:	00129693          	slli	a3,t0,0x1
2000492a:	1afd                	c.addi	s5,-1
2000492c:	ffc77813          	andi	a6,a4,-4
20004930:	c2b2                	c.swsp	a2,68(sp)
20004932:	41368733          	sub	a4,a3,s3
20004936:	401ad613          	srai	a2,s5,0x1
2000493a:	ccae                	c.swsp	a1,88(sp)
2000493c:	4581                	c.li	a1,0
2000493e:	003d1693          	slli	a3,s10,0x3
20004942:	0706                	c.slli	a4,0x1
20004944:	00160b93          	addi	s7,a2,1
20004948:	f2b78c7f          	maxw	s8,a5,a1
2000494c:	de32                	c.swsp	a2,60(sp)
2000494e:	410987b3          	sub	a5,s3,a6
20004952:	0018f613          	andi	a2,a7,1
20004956:	c0b2                	c.swsp	a2,64(sp)
20004958:	d63a                	c.swsp	a4,44(sp)
2000495a:	01050633          	add	a2,a0,a6
2000495e:	00dd8733          	add	a4,s11,a3
20004962:	d23e                	c.swsp	a5,36(sp)
20004964:	67a1                	c.lui	a5,0x8
20004966:	17fd                	c.addi	a5,-1
20004968:	c832                	c.swsp	a2,16(sp)
2000496a:	ceba                	c.swsp	a4,92(sp)
2000496c:	41380633          	sub	a2,a6,s3
20004970:	002d1713          	slli	a4,s10,0x2
20004974:	86e6                	c.mv	a3,s9
20004976:	d022                	c.swsp	s0,32(sp)
20004978:	d432                	c.swsp	a2,40(sp)
2000497a:	caba                	c.swsp	a4,84(sp)
2000497c:	ce3e                	c.swsp	a5,28(sp)
2000497e:	c6ea                	c.swsp	s10,76(sp)
20004980:	dc16                	c.swsp	t0,56(sp)
20004982:	c8ee                	c.swsp	s11,80(sp)
20004984:	47c2                	c.lwsp	a5,16(sp)
20004986:	4936                	c.lwsp	s2,76(sp)
20004988:	41078cb3          	sub	s9,a5,a6
2000498c:	26090463          	beqz	s2,20004bf4 <riscv_nn_vec_mat_mul_result_acc_s8_s16+0x32c>
20004990:	44c6                	c.lwsp	s1,80(sp)
20004992:	4426                	c.lwsp	s0,72(sp)
20004994:	5d62                	c.lwsp	s10,56(sp)
20004996:	5df2                	c.lwsp	s11,60(sp)
20004998:	88b6                	c.mv	a7,a3
2000499a:	d82e                	c.swsp	a1,48(sp)
2000499c:	ca42                	c.swsp	a6,20(sp)
2000499e:	cc66                	c.swsp	s9,24(sp)
200049a0:	02d12a23          	sw	a3,52(sp)
200049a4:	5782                	c.lwsp	a5,32(sp)
200049a6:	4094                	c.lw	a3,0(s1)
200049a8:	97a2                	c.add	a5,s0
200049aa:	04a1                	c.addi	s1,8
200049ac:	013405b3          	add	a1,s0,s3
200049b0:	8622                	c.mv	a2,s0
200049b2:	ffc4a703          	lw	a4,-4(s1)
200049b6:	843e                	c.mv	s0,a5
200049b8:	160d0a63          	beqz	s10,20004b2c <riscv_nn_vec_mat_mul_result_acc_s8_s16+0x264>
200049bc:	4862                	c.lwsp	a6,24(sp)
200049be:	c662                	c.swsp	s8,12(sp)
200049c0:	8cea                	c.mv	s9,s10
200049c2:	8c4e                	c.mv	s8,s3
200049c4:	89be                	c.mv	s3,a5
200049c6:	87ae                	c.mv	a5,a1
200049c8:	85b2                	c.mv	a1,a2
200049ca:	c046                	c.swsp	a7,0(sp)
200049cc:	00082503          	lw	a0,0(a6) # ffff8000 <_DATA_LMA_START+0xdfff0428>
200049d0:	832a                	c.mv	t1,a0
200049d2:	83aa                	c.mv	t2,a0
200049d4:	0811                	c.addi	a6,4
200049d6:	de83067f          	wexti	a2,t1,8
200049da:	ac96067f          	sunpkd820	a2,a2
200049de:	ac95057f          	sunpkd820	a0,a0
200049e2:	0005a283          	lw	t0,0(a1)
200049e6:	8e16                	c.mv	t3,t0
200049e8:	8e96                	c.mv	t4,t0
200049ea:	0591                	c.addi	a1,4
200049ec:	de8e08ff          	wexti	a7,t3,8
200049f0:	ac9888ff          	sunpkd820	a7,a7
200049f4:	ac9282ff          	sunpkd820	t0,t0
200049f8:	48c896ff          	kmada	a3,a7,a2
200049fc:	48a296ff          	kmada	a3,t0,a0
20004a00:	0007a283          	lw	t0,0(a5) # 8000 <BIN_SIZE+0x3fc>
20004a04:	8f16                	c.mv	t5,t0
20004a06:	8f96                	c.mv	t6,t0
20004a08:	0791                	c.addi	a5,4
20004a0a:	de8f08ff          	wexti	a7,t5,8
20004a0e:	ac9888ff          	sunpkd820	a7,a7
20004a12:	ac9282ff          	sunpkd820	t0,t0
20004a16:	48c8977f          	kmada	a4,a7,a2
20004a1a:	48a2977f          	kmada	a4,t0,a0
20004a1e:	1cfd                	c.addi	s9,-1
20004a20:	fa0c96e3          	bnez	s9,200049cc <riscv_nn_vec_mat_mul_result_acc_s8_s16+0x104>
20004a24:	5622                	c.lwsp	a2,40(sp)
20004a26:	87ce                	c.mv	a5,s3
20004a28:	00c785b3          	add	a1,a5,a2
20004a2c:	5632                	c.lwsp	a2,44(sp)
20004a2e:	89e2                	c.mv	s3,s8
20004a30:	963e                	c.add	a2,a5
20004a32:	4882                	c.lwsp	a7,0(sp)
20004a34:	4c32                	c.lwsp	s8,12(sp)
20004a36:	47c2                	c.lwsp	a5,16(sp)
20004a38:	4552                	c.lwsp	a0,20(sp)
20004a3a:	03355563          	bge	a0,s3,20004a64 <riscv_nn_vec_mat_mul_result_acc_s8_s16+0x19c>
20004a3e:	5512                	c.lwsp	a0,36(sp)
20004a40:	00a782b3          	add	t0,a5,a0
20004a44:	00078503          	lb	a0,0(a5)
20004a48:	00060c83          	lb	s9,0(a2)
20004a4c:	00058803          	lb	a6,0(a1)
20004a50:	0785                	c.addi	a5,1
20004a52:	c4ac96ff          	maddr32	a3,s9,a0
20004a56:	c4a8177f          	maddr32	a4,a6,a0
20004a5a:	0605                	c.addi	a2,1
20004a5c:	00158593          	addi	a1,a1,1
20004a60:	fe5792e3          	bne	a5,t0,20004a44 <riscv_nn_vec_mat_mul_result_acc_s8_s16+0x17c>
20004a64:	018697b3          	sll	a5,a3,s8
20004a68:	40000637          	lui	a2,0x40000
20004a6c:	4681                	c.li	a3,0
20004a6e:	8547967f          	smar64	a2,a5,s4
20004a72:	87de                	c.mv	a5,s7
20004a74:	dff6067f          	wexti	a2,a2,31
20004a78:	00caf533          	and	a0,s5,a2
20004a7c:	416655b3          	sra	a1,a2,s6
20004a80:	00064463          	bltz	a2,20004a88 <riscv_nn_vec_mat_mul_result_acc_s8_s16+0x1c0>
20004a84:	01b007b3          	add	a5,zero,s11
20004a88:	01871733          	sll	a4,a4,s8
20004a8c:	40000637          	lui	a2,0x40000
20004a90:	4681                	c.li	a3,0
20004a92:	8547167f          	smar64	a2,a4,s4
20004a96:	00a7a533          	slt	a0,a5,a0
20004a9a:	95aa                	c.add	a1,a0
20004a9c:	dff607ff          	wexti	a5,a2,31
20004aa0:	00faf533          	and	a0,s5,a5
20004aa4:	4167d6b3          	sra	a3,a5,s6
20004aa8:	865e                	c.mv	a2,s7
20004aaa:	0007c363          	bltz	a5,20004ab0 <riscv_nn_vec_mat_mul_result_acc_s8_s16+0x1e8>
20004aae:	866e                	c.mv	a2,s11
20004ab0:	00089703          	lh	a4,0(a7)
20004ab4:	00289783          	lh	a5,2(a7)
20004ab8:	00a62533          	slt	a0,a2,a0
20004abc:	96aa                	c.add	a3,a0
20004abe:	7661                	c.lui	a2,0xffff8
20004ac0:	97b6                	c.add	a5,a3
20004ac2:	972e                	c.add	a4,a1
20004ac4:	46f2                	c.lwsp	a3,28(sp)
20004ac6:	f2c7077f          	maxw	a4,a4,a2
20004aca:	f0d7077f          	minw	a4,a4,a3
20004ace:	f2c787ff          	maxw	a5,a5,a2
20004ad2:	00e89023          	sh	a4,0(a7)
20004ad6:	f0d787ff          	minw	a5,a5,a3
20004ada:	197d                	c.addi	s2,-1
20004adc:	0891                	c.addi	a7,4
20004ade:	fef89f23          	sh	a5,-2(a7)
20004ae2:	ec0911e3          	bnez	s2,200049a4 <riscv_nn_vec_mat_mul_result_acc_s8_s16+0xdc>
20004ae6:	47d6                	c.lwsp	a5,84(sp)
20004ae8:	56d2                	c.lwsp	a3,52(sp)
20004aea:	55c2                	c.lwsp	a1,48(sp)
20004aec:	96be                	c.add	a3,a5
20004aee:	4852                	c.lwsp	a6,20(sp)
20004af0:	4ce2                	c.lwsp	s9,24(sp)
20004af2:	47f6                	c.lwsp	a5,92(sp)
20004af4:	05812503          	lw	a0,88(sp)
20004af8:	4706                	c.lwsp	a4,64(sp)
20004afa:	eb1d                	c.bnez	a4,20004b30 <riscv_nn_vec_mat_mul_result_acc_s8_s16+0x268>
20004afc:	47c2                	c.lwsp	a5,16(sp)
20004afe:	4716                	c.lwsp	a4,68(sp)
20004b00:	0585                	c.addi	a1,1
20004b02:	97ba                	c.add	a5,a4
20004b04:	c83e                	c.swsp	a5,16(sp)
20004b06:	578a                	c.lwsp	a5,160(sp)
20004b08:	e6b79ee3          	bne	a5,a1,20004984 <riscv_nn_vec_mat_mul_result_acc_s8_s16+0xbc>
20004b0c:	447a                	c.lwsp	s0,156(sp)
20004b0e:	44ea                	c.lwsp	s1,152(sp)
20004b10:	495a                	c.lwsp	s2,148(sp)
20004b12:	49ca                	c.lwsp	s3,144(sp)
20004b14:	4a3a                	c.lwsp	s4,140(sp)
20004b16:	4aaa                	c.lwsp	s5,136(sp)
20004b18:	4b1a                	c.lwsp	s6,132(sp)
20004b1a:	4b8a                	c.lwsp	s7,128(sp)
20004b1c:	5c76                	c.lwsp	s8,124(sp)
20004b1e:	5ce6                	c.lwsp	s9,120(sp)
20004b20:	5d56                	c.lwsp	s10,116(sp)
20004b22:	5dc6                	c.lwsp	s11,112(sp)
20004b24:	4501                	c.li	a0,0
20004b26:	610d                	c.addi16sp	sp,160
20004b28:	00008067          	ret
20004b2c:	47e2                	c.lwsp	a5,24(sp)
20004b2e:	b729                	c.j	20004a38 <riscv_nn_vec_mat_mul_result_acc_s8_s16+0x170>
20004b30:	58e2                	c.lwsp	a7,56(sp)
20004b32:	439c                	c.lw	a5,0(a5)
20004b34:	04088e63          	beqz	a7,20004b90 <riscv_nn_vec_mat_mul_result_acc_s8_s16+0x2c8>
20004b38:	c276                	c.swsp	t4,4(sp)
20004b3a:	842a                	c.mv	s0,a0
20004b3c:	8ee2                	c.mv	t4,s8
20004b3e:	8c4e                	c.mv	s8,s3
20004b40:	01c12023          	sw	t3,0(sp)
20004b44:	000ca703          	lw	a4,0(s9)
20004b48:	893a                	c.mv	s2,a4
20004b4a:	89ba                	c.mv	s3,a4
20004b4c:	0c91                	c.addi	s9,4
20004b4e:	de8904ff          	wexti	s1,s2,8
20004b52:	ac9484ff          	sunpkd820	s1,s1
20004b56:	ac97067f          	sunpkd820	a2,a4
20004b5a:	4018                	c.lw	a4,0(s0)
20004b5c:	8d3a                	c.mv	s10,a4
20004b5e:	8dba                	c.mv	s11,a4
20004b60:	0411                	c.addi	s0,4
20004b62:	de8d02ff          	wexti	t0,s10,8
20004b66:	ac9282ff          	sunpkd820	t0,t0
20004b6a:	ac97077f          	sunpkd820	a4,a4
20004b6e:	489297ff          	kmada	a5,t0,s1
20004b72:	48c717ff          	kmada	a5,a4,a2
20004b76:	18fd                	c.addi	a7,-1
20004b78:	fc0896e3          	bnez	a7,20004b44 <riscv_nn_vec_mat_mul_result_acc_s8_s16+0x27c>
20004b7c:	d2ce                	c.swsp	s3,100(sp)
20004b7e:	4e02                	c.lwsp	t3,0(sp)
20004b80:	89e2                	c.mv	s3,s8
20004b82:	4cc2                	c.lwsp	s9,16(sp)
20004b84:	8c76                	c.mv	s8,t4
20004b86:	4e92                	c.lwsp	t4,4(sp)
20004b88:	9542                	c.add	a0,a6
20004b8a:	d0ca                	c.swsp	s2,96(sp)
20004b8c:	d4ea                	c.swsp	s10,104(sp)
20004b8e:	d6ee                	c.swsp	s11,108(sp)
20004b90:	03385063          	bge	a6,s3,20004bb0 <riscv_nn_vec_mat_mul_result_acc_s8_s16+0x2e8>
20004b94:	02412703          	lw	a4,36(sp)
20004b98:	00ec8633          	add	a2,s9,a4
20004b9c:	000c8703          	lb	a4,0(s9)
20004ba0:	00050883          	lb	a7,0(a0)
20004ba4:	0c85                	c.addi	s9,1
20004ba6:	0505                	c.addi	a0,1
20004ba8:	c4e897ff          	maddr32	a5,a7,a4
20004bac:	fecc98e3          	bne	s9,a2,20004b9c <riscv_nn_vec_mat_mul_result_acc_s8_s16+0x2d4>
20004bb0:	01879633          	sll	a2,a5,s8
20004bb4:	40000737          	lui	a4,0x40000
20004bb8:	4781                	c.li	a5,0
20004bba:	8546177f          	smar64	a4,a2,s4
20004bbe:	865e                	c.mv	a2,s7
20004bc0:	dff7077f          	wexti	a4,a4,31
20004bc4:	00eaf8b3          	and	a7,s5,a4
20004bc8:	41675533          	sra	a0,a4,s6
20004bcc:	00074463          	bltz	a4,20004bd4 <riscv_nn_vec_mat_mul_result_acc_s8_s16+0x30c>
20004bd0:	03c12603          	lw	a2,60(sp)
20004bd4:	00069783          	lh	a5,0(a3)
20004bd8:	011628b3          	slt	a7,a2,a7
20004bdc:	9546                	c.add	a0,a7
20004bde:	7761                	c.lui	a4,0xffff8
20004be0:	97aa                	c.add	a5,a0
20004be2:	f2e787ff          	maxw	a5,a5,a4
20004be6:	4772                	c.lwsp	a4,28(sp)
20004be8:	0689                	c.addi	a3,2
20004bea:	f0e787ff          	minw	a5,a5,a4
20004bee:	fef69f23          	sh	a5,-2(a3)
20004bf2:	b729                	c.j	20004afc <riscv_nn_vec_mat_mul_result_acc_s8_s16+0x234>
20004bf4:	47c6                	c.lwsp	a5,80(sp)
20004bf6:	4526                	c.lwsp	a0,72(sp)
20004bf8:	b701                	c.j	20004af8 <riscv_nn_vec_mat_mul_result_acc_s8_s16+0x230>
	...

20004bfc <memcpy>:
20004bfc:	00a5c7b3          	xor	a5,a1,a0
20004c00:	8b8d                	c.andi	a5,3
20004c02:	00c508b3          	add	a7,a0,a2
20004c06:	ebb9                	c.bnez	a5,20004c5c <memcpy+0x60>
20004c08:	478d                	c.li	a5,3
20004c0a:	04c7f963          	bgeu	a5,a2,20004c5c <memcpy+0x60>
20004c0e:	00357713          	andi	a4,a0,3
20004c12:	87aa                	c.mv	a5,a0
20004c14:	06071263          	bnez	a4,20004c78 <memcpy+0x7c>
20004c18:	ffc8f813          	andi	a6,a7,-4
20004c1c:	40f806b3          	sub	a3,a6,a5
20004c20:	02000713          	li	a4,32
20004c24:	02000393          	li	t2,32
20004c28:	06d74c63          	blt	a4,a3,20004ca0 <memcpy+0xa4>
20004c2c:	0307f463          	bgeu	a5,a6,20004c54 <memcpy+0x58>
20004c30:	86ae                	c.mv	a3,a1
20004c32:	873e                	c.mv	a4,a5
20004c34:	4290                	c.lw	a2,0(a3)
20004c36:	0711                	c.addi	a4,4
20004c38:	fec72e23          	sw	a2,-4(a4) # ffff7ffc <_DATA_LMA_START+0xdfff0424>
20004c3c:	0691                	c.addi	a3,4
20004c3e:	ff076be3          	bltu	a4,a6,20004c34 <memcpy+0x38>
20004c42:	fff7c713          	not	a4,a5
20004c46:	983a                	c.add	a6,a4
20004c48:	ffc87813          	andi	a6,a6,-4
20004c4c:	0811                	c.addi	a6,4
20004c4e:	97c2                	c.add	a5,a6
20004c50:	010585b3          	add	a1,a1,a6
20004c54:	0117e863          	bltu	a5,a7,20004c64 <memcpy+0x68>
20004c58:	00008067          	ret
20004c5c:	ff157ee3          	bgeu	a0,a7,20004c58 <memcpy+0x5c>
20004c60:	00a007b3          	add	a5,zero,a0
20004c64:	0005c703          	lbu	a4,0(a1)
20004c68:	0785                	c.addi	a5,1
20004c6a:	fee78fa3          	sb	a4,-1(a5)
20004c6e:	0585                	c.addi	a1,1
20004c70:	ff17eae3          	bltu	a5,a7,20004c64 <memcpy+0x68>
20004c74:	00008067          	ret
20004c78:	0005c703          	lbu	a4,0(a1)
20004c7c:	0785                	c.addi	a5,1
20004c7e:	fee78fa3          	sb	a4,-1(a5)
20004c82:	0037f713          	andi	a4,a5,3
20004c86:	0585                	c.addi	a1,1
20004c88:	db41                	c.beqz	a4,20004c18 <memcpy+0x1c>
20004c8a:	0005c703          	lbu	a4,0(a1)
20004c8e:	0785                	c.addi	a5,1
20004c90:	fee78fa3          	sb	a4,-1(a5)
20004c94:	0037f713          	andi	a4,a5,3
20004c98:	0585                	c.addi	a1,1
20004c9a:	ff79                	c.bnez	a4,20004c78 <memcpy+0x7c>
20004c9c:	f7dff06f          	j	20004c18 <memcpy+0x1c>
20004ca0:	4dd8                	c.lw	a4,28(a1)
20004ca2:	0005a283          	lw	t0,0(a1)
20004ca6:	0045af83          	lw	t6,4(a1)
20004caa:	0085af03          	lw	t5,8(a1)
20004cae:	00c5ae83          	lw	t4,12(a1)
20004cb2:	0105ae03          	lw	t3,16(a1)
20004cb6:	0145a303          	lw	t1,20(a1)
20004cba:	4d90                	c.lw	a2,24(a1)
20004cbc:	02458593          	addi	a1,a1,36
20004cc0:	ffc5a683          	lw	a3,-4(a1)
20004cc4:	02478793          	addi	a5,a5,36
20004cc8:	fee7ac23          	sw	a4,-8(a5)
20004ccc:	fc57ae23          	sw	t0,-36(a5)
20004cd0:	fff7a023          	sw	t6,-32(a5)
20004cd4:	ffe7a223          	sw	t5,-28(a5)
20004cd8:	ffd7a423          	sw	t4,-24(a5)
20004cdc:	ffc7a623          	sw	t3,-20(a5)
20004ce0:	fe67a823          	sw	t1,-16(a5)
20004ce4:	fec7aa23          	sw	a2,-12(a5)
20004ce8:	40f80733          	sub	a4,a6,a5
20004cec:	fed7ae23          	sw	a3,-4(a5)
20004cf0:	fae3c8e3          	blt	t2,a4,20004ca0 <memcpy+0xa4>
20004cf4:	bf25                	c.j	20004c2c <memcpy+0x30>

20004cf6 <memset>:
20004cf6:	433d                	c.li	t1,15
20004cf8:	872a                	c.mv	a4,a0
20004cfa:	02c37363          	bgeu	t1,a2,20004d20 <memset+0x2a>
20004cfe:	00f77793          	andi	a5,a4,15
20004d02:	e3c1                	c.bnez	a5,20004d82 <memset+0x8c>
20004d04:	e5b5                	c.bnez	a1,20004d70 <memset+0x7a>
20004d06:	ff067693          	andi	a3,a2,-16
20004d0a:	8a3d                	c.andi	a2,15
20004d0c:	96ba                	c.add	a3,a4
20004d0e:	c30c                	c.sw	a1,0(a4)
20004d10:	c34c                	c.sw	a1,4(a4)
20004d12:	c70c                	c.sw	a1,8(a4)
20004d14:	c74c                	c.sw	a1,12(a4)
20004d16:	0741                	c.addi	a4,16
20004d18:	fed76be3          	bltu	a4,a3,20004d0e <memset+0x18>
20004d1c:	e211                	c.bnez	a2,20004d20 <memset+0x2a>
20004d1e:	8082                	c.jr	ra
20004d20:	40c306b3          	sub	a3,t1,a2
20004d24:	068a                	c.slli	a3,0x2
20004d26:	00000297          	auipc	t0,0x0
20004d2a:	005686b3          	add	a3,a3,t0
20004d2e:	00c68067          	jr	12(a3)
20004d32:	00b70723          	sb	a1,14(a4)
20004d36:	00b706a3          	sb	a1,13(a4)
20004d3a:	00b70623          	sb	a1,12(a4)
20004d3e:	00b705a3          	sb	a1,11(a4)
20004d42:	00b70523          	sb	a1,10(a4)
20004d46:	00b704a3          	sb	a1,9(a4)
20004d4a:	00b70423          	sb	a1,8(a4)
20004d4e:	00b703a3          	sb	a1,7(a4)
20004d52:	00b70323          	sb	a1,6(a4)
20004d56:	00b702a3          	sb	a1,5(a4)
20004d5a:	00b70223          	sb	a1,4(a4)
20004d5e:	00b701a3          	sb	a1,3(a4)
20004d62:	00b70123          	sb	a1,2(a4)
20004d66:	00b700a3          	sb	a1,1(a4)
20004d6a:	00b70023          	sb	a1,0(a4)
20004d6e:	8082                	c.jr	ra
20004d70:	0ff5f593          	andi	a1,a1,255
20004d74:	00859693          	slli	a3,a1,0x8
20004d78:	8dd5                	c.or	a1,a3
20004d7a:	01059693          	slli	a3,a1,0x10
20004d7e:	8dd5                	c.or	a1,a3
20004d80:	b759                	c.j	20004d06 <memset+0x10>
20004d82:	00279693          	slli	a3,a5,0x2
20004d86:	00000297          	auipc	t0,0x0
20004d8a:	9696                	c.add	a3,t0
20004d8c:	8286                	c.mv	t0,ra
20004d8e:	fa8680e7          	jalr	-88(a3)
20004d92:	8096                	c.mv	ra,t0
20004d94:	17c1                	c.addi	a5,-16
20004d96:	8f1d                	c.sub	a4,a5
20004d98:	963e                	c.add	a2,a5
20004d9a:	f8c373e3          	bgeu	t1,a2,20004d20 <memset+0x2a>
20004d9e:	b79d                	c.j	20004d04 <memset+0xe>

20004da0 <printf>:
20004da0:	7139                	c.addi16sp	sp,-64
20004da2:	d22e                	c.swsp	a1,36(sp)
20004da4:	104c                	c.addi4spn	a1,sp,36
20004da6:	ce06                	c.swsp	ra,28(sp)
20004da8:	d432                	c.swsp	a2,40(sp)
20004daa:	d636                	c.swsp	a3,44(sp)
20004dac:	d83a                	c.swsp	a4,48(sp)
20004dae:	da3e                	c.swsp	a5,52(sp)
20004db0:	dc42                	c.swsp	a6,56(sp)
20004db2:	de46                	c.swsp	a7,60(sp)
20004db4:	c62e                	c.swsp	a1,12(sp)
20004db6:	2201                	c.jal	20004eb6 <vprintf>
20004db8:	40f2                	c.lwsp	ra,28(sp)
20004dba:	6121                	c.addi16sp	sp,64
20004dbc:	8082                	c.jr	ra

20004dbe <putchar>:
20004dbe:	3db002ef          	jal	t0,20005998 <__riscv_save_0>
20004dc2:	1141                	c.addi	sp,-16
20004dc4:	842a                	c.mv	s0,a0
20004dc6:	00a107a3          	sb	a0,15(sp)
20004dca:	4605                	c.li	a2,1
20004dcc:	00f10593          	addi	a1,sp,15
20004dd0:	4505                	c.li	a0,1
20004dd2:	fa2fe0ef          	jal	ra,20003574 <_write>
20004dd6:	e501                	c.bnez	a0,20004dde <putchar+0x20>
20004dd8:	4759                	c.li	a4,22
20004dda:	82efcdab          	swgp	a4,-1992 # 80038 <__mculib_REENT_errno>
20004dde:	8522                	c.mv	a0,s0
20004de0:	0141                	c.addi	sp,16
20004de2:	3db0006f          	j	200059bc <__riscv_restore_0>

20004de6 <puts>:
20004de6:	3b3002ef          	jal	t0,20005998 <__riscv_save_0>
20004dea:	1101                	c.addi	sp,-32
20004dec:	c62a                	c.swsp	a0,12(sp)
20004dee:	203d                	c.jal	20004e1c <strlen>
20004df0:	45b2                	c.lwsp	a1,12(sp)
20004df2:	862a                	c.mv	a2,a0
20004df4:	4505                	c.li	a0,1
20004df6:	f7efe0ef          	jal	ra,20003574 <_write>
20004dfa:	00054e63          	bltz	a0,20004e16 <puts+0x30>
20004dfe:	47a9                	c.li	a5,10
20004e00:	4605                	c.li	a2,1
20004e02:	01f10593          	addi	a1,sp,31
20004e06:	4505                	c.li	a0,1
20004e08:	00f10fa3          	sb	a5,31(sp)
20004e0c:	f68fe0ef          	jal	ra,20003574 <_write>
20004e10:	6105                	c.addi16sp	sp,32
20004e12:	3ab0006f          	j	200059bc <__riscv_restore_0>
20004e16:	557d                	c.li	a0,-1
20004e18:	bfe5                	c.j	20004e10 <puts+0x2a>
	...

20004e1c <strlen>:
20004e1c:	00357793          	andi	a5,a0,3
20004e20:	872a                	c.mv	a4,a0
20004e22:	e79d                	c.bnez	a5,20004e50 <strlen+0x34>
20004e24:	0511                	c.addi	a0,4
20004e26:	ffc52783          	lw	a5,-4(a0)
20004e2a:	200787db          	ffb	a5,a5,zero
20004e2e:	dbfd                	c.beqz	a5,20004e24 <strlen+0x8>
20004e30:	ffc54783          	lbu	a5,-4(a0)
20004e34:	40e50733          	sub	a4,a0,a4
20004e38:	ffd54683          	lbu	a3,-3(a0)
20004e3c:	ffe54603          	lbu	a2,-2(a0)
20004e40:	c795                	c.beqz	a5,20004e6c <strlen+0x50>
20004e42:	c28d                	c.beqz	a3,20004e64 <strlen+0x48>
20004e44:	ca05                	c.beqz	a2,20004e74 <strlen+0x58>
20004e46:	fff70513          	addi	a0,a4,-1
20004e4a:	8082                	c.jr	ra
20004e4c:	fc068ce3          	beqz	a3,20004e24 <strlen+0x8>
20004e50:	00054783          	lbu	a5,0(a0)
20004e54:	0505                	c.addi	a0,1
20004e56:	00357693          	andi	a3,a0,3
20004e5a:	fbed                	c.bnez	a5,20004e4c <strlen+0x30>
20004e5c:	8d19                	c.sub	a0,a4
20004e5e:	157d                	c.addi	a0,-1
20004e60:	00008067          	ret
20004e64:	ffd70513          	addi	a0,a4,-3
20004e68:	00008067          	ret
20004e6c:	ffc70513          	addi	a0,a4,-4
20004e70:	00008067          	ret
20004e74:	ffe70513          	addi	a0,a4,-2
20004e78:	8082                	c.jr	ra
20004e7a:	0001                	c.nop

20004e7c <__vprintf_help>:
20004e7c:	31d002ef          	jal	t0,20005998 <__riscv_save_0>
20004e80:	83ffa7ab          	lwgp	a5,-1988 # 8003c <__printf_count>
20004e84:	0785                	c.addi	a5,1
20004e86:	82ffcfab          	swgp	a5,-1988 # 8003c <__printf_count>
20004e8a:	835f940b          	addigp	s0,-1996 # 80034 <__vprintf_buf_len>
20004e8e:	833fa5ab          	lwgp	a1,-2000 # 80030 <__vprintf_buf>
20004e92:	401c                	c.lw	a5,0(s0)
20004e94:	00178713          	addi	a4,a5,1
20004e98:	97ae                	c.add	a5,a1
20004e9a:	c018                	c.sw	a4,0(s0)
20004e9c:	00a78023          	sb	a0,0(a5)
20004ea0:	4007695b          	bnec	a4,64,20004eb2 <__vprintf_help+0x36>
20004ea4:	04000613          	li	a2,64
20004ea8:	4505                	c.li	a0,1
20004eaa:	ecafe0ef          	jal	ra,20003574 <_write>
20004eae:	00042023          	sw	zero,0(s0)
20004eb2:	30b0006f          	j	200059bc <__riscv_restore_0>

20004eb6 <vprintf>:
20004eb6:	1141                	c.addi	sp,-16
20004eb8:	c606                	c.swsp	ra,12(sp)
20004eba:	c422                	c.swsp	s0,8(sp)
20004ebc:	c226                	c.swsp	s1,4(sp)
20004ebe:	c04a                	c.swsp	s2,0(sp)
20004ec0:	0800                	c.addi4spn	s0,sp,16
20004ec2:	715d                	c.addi16sp	sp,-80
20004ec4:	00f10793          	addi	a5,sp,15
20004ec8:	20005637          	lui	a2,0x20005
20004ecc:	9bc1                	c.andi	a5,-16
20004ece:	831f948b          	addigp	s1,-2000 # 80030 <__vprintf_buf>
20004ed2:	835f990b          	addigp	s2,-1996 # 80034 <__vprintf_buf_len>
20004ed6:	e7c60613          	addi	a2,a2,-388 # 20004e7c <__vprintf_help>
20004eda:	c09c                	c.sw	a5,0(s1)
20004edc:	00092023          	sw	zero,0(s2)
20004ee0:	20bd                	c.jal	20004f4e <__printf_impl>
20004ee2:	00092603          	lw	a2,0(s2)
20004ee6:	408c                	c.lw	a1,0(s1)
20004ee8:	4505                	c.li	a0,1
20004eea:	e8afe0ef          	jal	ra,20003574 <_write>
20004eee:	83ffa52b          	lwgp	a0,-1988 # 8003c <__printf_count>
20004ef2:	ff040113          	addi	sp,s0,-16
20004ef6:	40b2                	c.lwsp	ra,12(sp)
20004ef8:	4422                	c.lwsp	s0,8(sp)
20004efa:	4492                	c.lwsp	s1,4(sp)
20004efc:	4902                	c.lwsp	s2,0(sp)
20004efe:	0141                	c.addi	sp,16
20004f00:	8082                	c.jr	ra

20004f02 <__print_integral>:
20004f02:	297002ef          	jal	t0,20005998 <__riscv_save_0>
20004f06:	1101                	c.addi	sp,-32
20004f08:	842a                	c.mv	s0,a0
20004f0a:	84ae                	c.mv	s1,a1
20004f0c:	8932                	c.mv	s2,a2
20004f0e:	c636                	c.swsp	a3,12(sp)
20004f10:	85be                	c.mv	a1,a5
20004f12:	ca32                	c.swsp	a2,20(sp)
20004f14:	853a                	c.mv	a0,a4
20004f16:	0830                	c.addi4spn	a2,sp,24
20004f18:	2165                	c.jal	200053c0 <__int_to_poly>
20004f1a:	46b2                	c.lwsp	a3,12(sp)
20004f1c:	882a                	c.mv	a6,a0
20004f1e:	083c                	c.addi4spn	a5,sp,24
20004f20:	0858                	c.addi4spn	a4,sp,20
20004f22:	864a                	c.mv	a2,s2
20004f24:	85a6                	c.mv	a1,s1
20004f26:	8522                	c.mv	a0,s0
20004f28:	295d                	c.jal	200053de <__print_integral_poly>
20004f2a:	200087b7          	lui	a5,0x20008
20004f2e:	ac878793          	addi	a5,a5,-1336 # 20007ac8 <__digits>
20004f32:	00a46563          	bltu	s0,a0,20004f3c <__print_integral+0x3a>
20004f36:	6105                	c.addi16sp	sp,32
20004f38:	2850006f          	j	200059bc <__riscv_restore_0>
20004f3c:	00044703          	lbu	a4,0(s0)
20004f40:	0405                	c.addi	s0,1
20004f42:	973e                	c.add	a4,a5
20004f44:	00070703          	lb	a4,0(a4)
20004f48:	fee40fa3          	sb	a4,-1(s0)
20004f4c:	b7dd                	c.j	20004f32 <__print_integral+0x30>

20004f4e <__printf_impl>:
20004f4e:	21b002ef          	jal	t0,20005968 <__riscv_save_12>
20004f52:	a6010113          	addi	sp,sp,-1440
20004f56:	6b05                	c.lui	s6,0x1
20004f58:	892a                	c.mv	s2,a0
20004f5a:	842e                	c.mv	s0,a1
20004f5c:	89b2                	c.mv	s3,a2
20004f5e:	01c10a13          	addi	s4,sp,28
20004f62:	800b0b13          	addi	s6,s6,-2048 # 800 <pm_sleep_start+0x10>
20004f66:	820fcfab          	swgp	zero,-1988 # 8003c <__printf_count>
20004f6a:	c456                	c.swsp	s5,8(sp)
20004f6c:	00094503          	lbu	a0,0(s2)
20004f70:	e509                	c.bnez	a0,20004f7a <__printf_impl+0x2c>
20004f72:	5a010113          	addi	sp,sp,1440
20004f76:	22f0006f          	j	200059a4 <__riscv_restore_12>
20004f7a:	00190493          	addi	s1,s2,1
20004f7e:	005555db          	beqc	a0,37,20004f88 <__printf_impl+0x3a>
20004f82:	9982                	c.jalr	s3
20004f84:	8926                	c.mv	s2,s1
20004f86:	b7dd                	c.j	20004f6c <__printf_impl+0x1e>
20004f88:	00194783          	lbu	a5,1(s2)
20004f8c:	0057e8db          	bnec	a5,37,20004f9c <__printf_impl+0x4e>
20004f90:	02500513          	li	a0,37
20004f94:	9982                	c.jalr	s3
20004f96:	00290493          	addi	s1,s2,2
20004f9a:	b7ed                	c.j	20004f84 <__printf_impl+0x36>
20004f9c:	4681                	c.li	a3,0
20004f9e:	4701                	c.li	a4,0
20004fa0:	d002                	c.swsp	zero,32(sp)
20004fa2:	0004c783          	lbu	a5,0(s1)
20004fa6:	0007e7db          	bnec	a5,32,20004fb4 <__printf_impl+0x66>
20004faa:	00276713          	ori	a4,a4,2
20004fae:	0485                	c.addi	s1,1
20004fb0:	4685                	c.li	a3,1
20004fb2:	bfc5                	c.j	20004fa2 <__printf_impl+0x54>
20004fb4:	00d7e5db          	bnec	a5,45,20004fbe <__printf_impl+0x70>
20004fb8:	00476713          	ori	a4,a4,4
20004fbc:	bfcd                	c.j	20004fae <__printf_impl+0x60>
20004fbe:	00b7e5db          	bnec	a5,43,20004fc8 <__printf_impl+0x7a>
20004fc2:	00876713          	ori	a4,a4,8
20004fc6:	b7e5                	c.j	20004fae <__printf_impl+0x60>
20004fc8:	0037e5db          	bnec	a5,35,20004fd2 <__printf_impl+0x84>
20004fcc:	01076713          	ori	a4,a4,16
20004fd0:	bff9                	c.j	20004fae <__printf_impl+0x60>
20004fd2:	0107e5db          	bnec	a5,48,20004fdc <__printf_impl+0x8e>
20004fd6:	02076713          	ori	a4,a4,32
20004fda:	bfd1                	c.j	20004fae <__printf_impl+0x60>
20004fdc:	c291                	c.beqz	a3,20004fe0 <__printf_impl+0x92>
20004fde:	d03a                	c.swsp	a4,32(sp)
20004fe0:	04a7eadb          	bnec	a5,42,20005034 <__printf_impl+0xe6>
20004fe4:	00042c03          	lw	s8,0(s0)
20004fe8:	00440713          	addi	a4,s0,4
20004fec:	000c5863          	bgez	s8,20004ffc <__printf_impl+0xae>
20004ff0:	5782                	c.lwsp	a5,32(sp)
20004ff2:	41800c33          	neg	s8,s8
20004ff6:	0047e793          	ori	a5,a5,4
20004ffa:	d03e                	c.swsp	a5,32(sp)
20004ffc:	0485                	c.addi	s1,1
20004ffe:	843a                	c.mv	s0,a4
20005000:	0004c783          	lbu	a5,0(s1)
20005004:	5cfd                	c.li	s9,-1
20005006:	06e7e4db          	bnec	a5,46,2000506e <__printf_impl+0x120>
2000500a:	0014c783          	lbu	a5,1(s1)
2000500e:	04a7dbdb          	beqc	a5,42,20005064 <__printf_impl+0x116>
20005012:	0485                	c.addi	s1,1
20005014:	4c81                	c.li	s9,0
20005016:	4725                	c.li	a4,9
20005018:	4629                	c.li	a2,10
2000501a:	0004c783          	lbu	a5,0(s1)
2000501e:	fd078793          	addi	a5,a5,-48
20005022:	0ff7f693          	andi	a3,a5,255
20005026:	04d76463          	bltu	a4,a3,2000506e <__printf_impl+0x120>
2000502a:	c4cc97ff          	maddr32	a5,s9,a2
2000502e:	0485                	c.addi	s1,1
20005030:	8cbe                	c.mv	s9,a5
20005032:	b7e5                	c.j	2000501a <__printf_impl+0xcc>
20005034:	fd078793          	addi	a5,a5,-48
20005038:	0ff7f793          	andi	a5,a5,255
2000503c:	4725                	c.li	a4,9
2000503e:	4c01                	c.li	s8,0
20005040:	fcf760e3          	bltu	a4,a5,20005000 <__printf_impl+0xb2>
20005044:	4725                	c.li	a4,9
20005046:	4629                	c.li	a2,10
20005048:	a029                	c.j	20005052 <__printf_impl+0x104>
2000504a:	c4cc17ff          	maddr32	a5,s8,a2
2000504e:	0485                	c.addi	s1,1
20005050:	8c3e                	c.mv	s8,a5
20005052:	0004c783          	lbu	a5,0(s1)
20005056:	fd078793          	addi	a5,a5,-48
2000505a:	0ff7f693          	andi	a3,a5,255
2000505e:	fed776e3          	bgeu	a4,a3,2000504a <__printf_impl+0xfc>
20005062:	bf79                	c.j	20005000 <__printf_impl+0xb2>
20005064:	401c                	c.lw	a5,0(s0)
20005066:	0489                	c.addi	s1,2
20005068:	0411                	c.addi	s0,4
2000506a:	f2fc8cff          	maxw	s9,s9,a5
2000506e:	43200613          	li	a2,1074
20005072:	f0cc867f          	minw	a2,s9,a2
20005076:	0004c783          	lbu	a5,0(s1)
2000507a:	4487efdb          	bnec	a5,104,200050d8 <__printf_impl+0x18a>
2000507e:	5782                	c.lwsp	a5,32(sp)
20005080:	0014c703          	lbu	a4,1(s1)
20005084:	448764db          	bnec	a4,104,200050cc <__printf_impl+0x17e>
20005088:	0407e793          	ori	a5,a5,64
2000508c:	00248913          	addi	s2,s1,2
20005090:	d03e                	c.swsp	a5,32(sp)
20005092:	00094503          	lbu	a0,0(s2)
20005096:	06700793          	li	a5,103
2000509a:	0aa7e263          	bltu	a5,a0,2000513e <__printf_impl+0x1f0>
2000509e:	06500793          	li	a5,101
200050a2:	06f57d63          	bgeu	a0,a5,2000511c <__printf_impl+0x1ce>
200050a6:	05800793          	li	a5,88
200050aa:	5785555b          	beqc	a0,88,20005214 <__printf_impl+0x2c6>
200050ae:	04a7ef63          	bltu	a5,a0,2000510c <__printf_impl+0x1be>
200050b2:	04100793          	li	a5,65
200050b6:	4615535b          	beqc	a0,65,2000511c <__printf_impl+0x1ce>
200050ba:	00f56763          	bltu	a0,a5,200050c8 <__printf_impl+0x17a>
200050be:	fbb50793          	addi	a5,a0,-69
200050c2:	4709                	c.li	a4,2
200050c4:	04f77c63          	bgeu	a4,a5,2000511c <__printf_impl+0x1ce>
200050c8:	84a2                	c.mv	s1,s0
200050ca:	a489                	c.j	2000530c <__printf_impl+0x3be>
200050cc:	0807e793          	ori	a5,a5,128
200050d0:	d03e                	c.swsp	a5,32(sp)
200050d2:	00148913          	addi	s2,s1,1
200050d6:	bf75                	c.j	20005092 <__printf_impl+0x144>
200050d8:	40c7eddb          	bnec	a5,108,200050f2 <__printf_impl+0x1a4>
200050dc:	5782                	c.lwsp	a5,32(sp)
200050de:	0014c703          	lbu	a4,1(s1)
200050e2:	40c765db          	bnec	a4,108,200050ec <__printf_impl+0x19e>
200050e6:	2007e793          	ori	a5,a5,512
200050ea:	b74d                	c.j	2000508c <__printf_impl+0x13e>
200050ec:	1007e793          	ori	a5,a5,256
200050f0:	b7c5                	c.j	200050d0 <__printf_impl+0x182>
200050f2:	00148913          	addi	s2,s1,1
200050f6:	41a7e7db          	bnec	a5,122,20005104 <__printf_impl+0x1b6>
200050fa:	5782                	c.lwsp	a5,32(sp)
200050fc:	1007e793          	ori	a5,a5,256
20005100:	d03e                	c.swsp	a5,32(sp)
20005102:	bf41                	c.j	20005092 <__printf_impl+0x144>
20005104:	ff47dbdb          	beqc	a5,116,200050fa <__printf_impl+0x1ac>
20005108:	8926                	c.mv	s2,s1
2000510a:	b761                	c.j	20005092 <__printf_impl+0x144>
2000510c:	06300793          	li	a5,99
20005110:	50355cdb          	beqc	a0,99,20005228 <__printf_impl+0x2da>
20005114:	04a7e463          	bltu	a5,a0,2000515c <__printf_impl+0x20e>
20005118:	fa1568db          	bnec	a0,97,200050c8 <__printf_impl+0x17a>
2000511c:	041d                	c.addi	s0,7
2000511e:	9861                	c.andi	s0,-8
20005120:	00042803          	lw	a6,0(s0)
20005124:	00442883          	lw	a7,4(s0)
20005128:	02057b93          	andi	s7,a0,32
2000512c:	87aa                	c.mv	a5,a0
2000512e:	86c2                	c.mv	a3,a6
20005130:	8746                	c.mv	a4,a7
20005132:	100c                	c.addi4spn	a1,sp,32
20005134:	1048                	c.addi4spn	a0,sp,36
20005136:	00840493          	addi	s1,s0,8
2000513a:	2e15                	c.jal	2000546e <__printf_float_impl>
2000513c:	aa4d                	c.j	200052ee <__printf_impl+0x3a0>
2000513e:	07000793          	li	a5,112
20005142:	4d0559db          	beqc	a0,112,20005214 <__printf_impl+0x2c6>
20005146:	04a7e163          	bltu	a5,a0,20005188 <__printf_impl+0x23a>
2000514a:	06e00793          	li	a5,110
2000514e:	5ae554db          	beqc	a0,110,200052f6 <__printf_impl+0x3a8>
20005152:	45a1                	c.li	a1,8
20005154:	0ca7e163          	bltu	a5,a0,20005216 <__printf_impl+0x2c8>
20005158:	f69568db          	bnec	a0,105,200050c8 <__printf_impl+0x17a>
2000515c:	5682                	c.lwsp	a3,32(sp)
2000515e:	0e66f05b          	bbc	a3,6,2000523e <__printf_impl+0x2f0>
20005162:	00040703          	lb	a4,0(s0)
20005166:	00440493          	addi	s1,s0,4
2000516a:	41f75793          	srai	a5,a4,0x1f
2000516e:	0e07df63          	bgez	a5,2000526c <__printf_impl+0x31e>
20005172:	40e00733          	neg	a4,a4
20005176:	00e035b3          	snez	a1,a4
2000517a:	40f007b3          	neg	a5,a5
2000517e:	8f8d                	c.sub	a5,a1
20005180:	4006e693          	ori	a3,a3,1024
20005184:	d036                	c.swsp	a3,32(sp)
20005186:	a0dd                	c.j	2000526c <__printf_impl+0x31e>
20005188:	515553db          	beqc	a0,117,2000528e <__printf_impl+0x340>
2000518c:	498554db          	beqc	a0,120,20005214 <__printf_impl+0x2c6>
20005190:	f3356cdb          	bnec	a0,115,200050c8 <__printf_impl+0x17a>
20005194:	00042a83          	lw	s5,0(s0)
20005198:	85b2                	c.mv	a1,a2
2000519a:	8556                	c.mv	a0,s5
2000519c:	c632                	c.swsp	a2,12(sp)
2000519e:	2f81                	c.jal	200058ee <strnlen>
200051a0:	57fd                	c.li	a5,-1
200051a2:	00440493          	addi	s1,s0,4
200051a6:	00fc8563          	beq	s9,a5,200051b0 <__printf_impl+0x262>
200051aa:	4632                	c.lwsp	a2,12(sp)
200051ac:	f0c5057f          	minw	a0,a0,a2
200051b0:	00aa8433          	add	s0,s5,a0
200051b4:	4b81                	c.li	s7,0
200051b6:	5782                	c.lwsp	a5,32(sp)
200051b8:	02d00693          	li	a3,45
200051bc:	40a7fb5b          	bbs	a5,10,200051d2 <__printf_impl+0x284>
200051c0:	02b00693          	li	a3,43
200051c4:	4037f75b          	bbs	a5,3,200051d2 <__printf_impl+0x284>
200051c8:	8cd2                	c.mv	s9,s4
200051ca:	0017f85b          	bbc	a5,1,200051da <__printf_impl+0x28c>
200051ce:	02000693          	li	a3,32
200051d2:	01d10c93          	addi	s9,sp,29
200051d6:	00d10e23          	sb	a3,28(sp)
200051da:	0167f6b3          	and	a3,a5,s6
200051de:	ca91                	c.beqz	a3,200051f2 <__printf_impl+0x2a4>
200051e0:	03000693          	li	a3,48
200051e4:	00dc8023          	sb	a3,0(s9)
200051e8:	05800693          	li	a3,88
200051ec:	00dc80a3          	sb	a3,1(s9)
200051f0:	0c89                	c.addi	s9,2
200051f2:	5627f45b          	bbs	a5,2,2000535a <__printf_impl+0x40c>
200051f6:	41540db3          	sub	s11,s0,s5
200051fa:	4057fa5b          	bbs	a5,5,2000520e <__printf_impl+0x2c0>
200051fe:	41bc0d33          	sub	s10,s8,s11
20005202:	414c87b3          	sub	a5,s9,s4
20005206:	40fd0d33          	sub	s10,s10,a5
2000520a:	17a04763          	bgtz	s10,20005378 <__printf_impl+0x42a>
2000520e:	8d52                	c.mv	s10,s4
20005210:	9c52                	c.add	s8,s4
20005212:	aab5                	c.j	2000538e <__printf_impl+0x440>
20005214:	45c1                	c.li	a1,16
20005216:	5782                	c.lwsp	a5,32(sp)
20005218:	0667fd5b          	bbc	a5,6,20005292 <__printf_impl+0x344>
2000521c:	00044703          	lbu	a4,0(s0)
20005220:	00440493          	addi	s1,s0,4
20005224:	4781                	c.li	a5,0
20005226:	a859                	c.j	200052bc <__printf_impl+0x36e>
20005228:	401c                	c.lw	a5,0(s0)
2000522a:	00440493          	addi	s1,s0,4
2000522e:	4b81                	c.li	s7,0
20005230:	02510413          	addi	s0,sp,37
20005234:	02f10223          	sb	a5,36(sp)
20005238:	02410a93          	addi	s5,sp,36
2000523c:	bfad                	c.j	200051b6 <__printf_impl+0x268>
2000523e:	0076f75b          	bbc	a3,7,2000524c <__printf_impl+0x2fe>
20005242:	00440493          	addi	s1,s0,4
20005246:	00041703          	lh	a4,0(s0)
2000524a:	b705                	c.j	2000516a <__printf_impl+0x21c>
2000524c:	0086f65b          	bbc	a3,8,20005258 <__printf_impl+0x30a>
20005250:	00440493          	addi	s1,s0,4
20005254:	4018                	c.lw	a4,0(s0)
20005256:	bf11                	c.j	2000516a <__printf_impl+0x21c>
20005258:	be96fc5b          	bbc	a3,9,20005250 <__printf_impl+0x302>
2000525c:	041d                	c.addi	s0,7
2000525e:	9861                	c.andi	s0,-8
20005260:	405c                	c.lw	a5,4(s0)
20005262:	00840493          	addi	s1,s0,8
20005266:	4018                	c.lw	a4,0(s0)
20005268:	0007c963          	bltz	a5,2000527a <__printf_impl+0x32c>
2000526c:	56fd                	c.li	a3,-1
2000526e:	45a9                	c.li	a1,10
20005270:	4b81                	c.li	s7,0
20005272:	04dc9a63          	bne	s9,a3,200052c6 <__printf_impl+0x378>
20005276:	4605                	c.li	a2,1
20005278:	a0b5                	c.j	200052e4 <__printf_impl+0x396>
2000527a:	ee071ce3          	bnez	a4,20005172 <__printf_impl+0x224>
2000527e:	800005b7          	lui	a1,0x80000
20005282:	eeb798e3          	bne	a5,a1,20005172 <__printf_impl+0x224>
20005286:	4701                	c.li	a4,0
20005288:	800007b7          	lui	a5,0x80000
2000528c:	bdd5                	c.j	20005180 <__printf_impl+0x232>
2000528e:	45a9                	c.li	a1,10
20005290:	b759                	c.j	20005216 <__printf_impl+0x2c8>
20005292:	0077f75b          	bbc	a5,7,200052a0 <__printf_impl+0x352>
20005296:	00440493          	addi	s1,s0,4
2000529a:	00045703          	lhu	a4,0(s0)
2000529e:	b759                	c.j	20005224 <__printf_impl+0x2d6>
200052a0:	0087f65b          	bbc	a5,8,200052ac <__printf_impl+0x35e>
200052a4:	00440493          	addi	s1,s0,4
200052a8:	4018                	c.lw	a4,0(s0)
200052aa:	bfad                	c.j	20005224 <__printf_impl+0x2d6>
200052ac:	be97fc5b          	bbc	a5,9,200052a4 <__printf_impl+0x356>
200052b0:	041d                	c.addi	s0,7
200052b2:	9861                	c.andi	s0,-8
200052b4:	4018                	c.lw	a4,0(s0)
200052b6:	405c                	c.lw	a5,4(s0)
200052b8:	00840493          	addi	s1,s0,8
200052bc:	56fd                	c.li	a3,-1
200052be:	02057b93          	andi	s7,a0,32
200052c2:	02dc8863          	beq	s9,a3,200052f2 <__printf_impl+0x3a4>
200052c6:	5682                	c.lwsp	a3,32(sp)
200052c8:	fdf6f693          	andi	a3,a3,-33
200052cc:	d036                	c.swsp	a3,32(sp)
200052ce:	0105eb5b          	bnec	a1,16,200052e4 <__printf_impl+0x396>
200052d2:	5682                	c.lwsp	a3,32(sp)
200052d4:	0046f85b          	bbc	a3,4,200052e4 <__printf_impl+0x396>
200052d8:	00f76533          	or	a0,a4,a5
200052dc:	c501                	c.beqz	a0,200052e4 <__printf_impl+0x396>
200052de:	0166e6b3          	or	a3,a3,s6
200052e2:	d036                	c.swsp	a3,32(sp)
200052e4:	86b2                	c.mv	a3,a2
200052e6:	5602                	c.lwsp	a2,32(sp)
200052e8:	1048                	c.addi4spn	a0,sp,36
200052ea:	c19ff0ef          	jal	ra,20004f02 <__print_integral>
200052ee:	842a                	c.mv	s0,a0
200052f0:	b7a1                	c.j	20005238 <__printf_impl+0x2ea>
200052f2:	4605                	c.li	a2,1
200052f4:	bfe9                	c.j	200052ce <__printf_impl+0x380>
200052f6:	45a2                	c.lwsp	a1,8(sp)
200052f8:	5682                	c.lwsp	a3,32(sp)
200052fa:	00440493          	addi	s1,s0,4
200052fe:	83ffa7ab          	lwgp	a5,-1988 # 8003c <__printf_count>
20005302:	4018                	c.lw	a4,0(s0)
20005304:	0066f85b          	bbc	a3,6,20005314 <__printf_impl+0x3c6>
20005308:	00f70023          	sb	a5,0(a4)
2000530c:	1040                	c.addi4spn	s0,sp,36
2000530e:	4b81                	c.li	s7,0
20005310:	8aa2                	c.mv	s5,s0
20005312:	b555                	c.j	200051b6 <__printf_impl+0x268>
20005314:	0076f55b          	bbc	a3,7,2000531e <__printf_impl+0x3d0>
20005318:	00f71023          	sh	a5,0(a4)
2000531c:	bfc5                	c.j	2000530c <__printf_impl+0x3be>
2000531e:	c31c                	c.sw	a5,0(a4)
20005320:	fe86f65b          	bbs	a3,8,2000530c <__printf_impl+0x3be>
20005324:	be96f45b          	bbc	a3,9,2000530c <__printf_impl+0x3be>
20005328:	87fd                	c.srai	a5,0x1f
2000532a:	c35c                	c.sw	a5,4(a4)
2000532c:	b7c5                	c.j	2000530c <__printf_impl+0x3be>
2000532e:	000dc503          	lbu	a0,0(s11)
20005332:	0d85                	c.addi	s11,1
20005334:	01756533          	or	a0,a0,s7
20005338:	9982                	c.jalr	s3
2000533a:	41bc0d33          	sub	s10,s8,s11
2000533e:	ff9de8e3          	bltu	s11,s9,2000532e <__printf_impl+0x3e0>
20005342:	8c56                	c.mv	s8,s5
20005344:	01841e63          	bne	s0,s8,20005360 <__printf_impl+0x412>
20005348:	41540433          	sub	s0,s0,s5
2000534c:	408d0433          	sub	s0,s10,s0
20005350:	00804f63          	bgtz	s0,2000536e <__printf_impl+0x420>
20005354:	0905                	c.addi	s2,1
20005356:	8426                	c.mv	s0,s1
20005358:	b911                	c.j	20004f6c <__printf_impl+0x1e>
2000535a:	8dd2                	c.mv	s11,s4
2000535c:	9c52                	c.add	s8,s4
2000535e:	bff1                	c.j	2000533a <__printf_impl+0x3ec>
20005360:	000c4503          	lbu	a0,0(s8)
20005364:	0c05                	c.addi	s8,1
20005366:	01756533          	or	a0,a0,s7
2000536a:	9982                	c.jalr	s3
2000536c:	bfe1                	c.j	20005344 <__printf_impl+0x3f6>
2000536e:	02000513          	li	a0,32
20005372:	9982                	c.jalr	s3
20005374:	147d                	c.addi	s0,-1
20005376:	bfe9                	c.j	20005350 <__printf_impl+0x402>
20005378:	02000513          	li	a0,32
2000537c:	9982                	c.jalr	s3
2000537e:	1d7d                	c.addi	s10,-1
20005380:	b569                	c.j	2000520a <__printf_impl+0x2bc>
20005382:	000d4503          	lbu	a0,0(s10)
20005386:	0d05                	c.addi	s10,1
20005388:	01756533          	or	a0,a0,s7
2000538c:	9982                	c.jalr	s3
2000538e:	41ac07b3          	sub	a5,s8,s10
20005392:	ff9d68e3          	bltu	s10,s9,20005382 <__printf_impl+0x434>
20005396:	5682                	c.lwsp	a3,32(sp)
20005398:	0056f65b          	bbc	a3,5,200053a4 <__printf_impl+0x456>
2000539c:	41b78db3          	sub	s11,a5,s11
200053a0:	01b04b63          	bgtz	s11,200053b6 <__printf_impl+0x468>
200053a4:	fb5408e3          	beq	s0,s5,20005354 <__printf_impl+0x406>
200053a8:	000ac503          	lbu	a0,0(s5)
200053ac:	0a85                	c.addi	s5,1
200053ae:	01756533          	or	a0,a0,s7
200053b2:	9982                	c.jalr	s3
200053b4:	bfc5                	c.j	200053a4 <__printf_impl+0x456>
200053b6:	03000513          	li	a0,48
200053ba:	9982                	c.jalr	s3
200053bc:	1dfd                	c.addi	s11,-1
200053be:	b7cd                	c.j	200053a0 <__printf_impl+0x452>

200053c0 <__int_to_poly>:
200053c0:	872a                	c.mv	a4,a0
200053c2:	87ae                	c.mv	a5,a1
200053c4:	4501                	c.li	a0,0
200053c6:	00f766b3          	or	a3,a4,a5
200053ca:	e291                	c.bnez	a3,200053ce <__int_to_poly+0xe>
200053cc:	8082                	c.jr	ra
200053ce:	00e61023          	sh	a4,0(a2)
200053d2:	0505                	c.addi	a0,1
200053d4:	df07077f          	wexti	a4,a4,16
200053d8:	0609                	c.addi	a2,2
200053da:	83c1                	c.srli	a5,0x10
200053dc:	b7ed                	c.j	200053c6 <__int_to_poly+0x6>

200053de <__print_integral_poly>:
200053de:	5ba002ef          	jal	t0,20005998 <__riscv_save_0>
200053e2:	88c2                	c.mv	a7,a6
200053e4:	84ba                	c.mv	s1,a4
200053e6:	187d                	c.addi	a6,-1
200053e8:	0b17875b          	lea.h	a4,a5,a7
200053ec:	8342                	c.mv	t1,a6
200053ee:	4401                	c.li	s0,0
200053f0:	8e3a                	c.mv	t3,a4
200053f2:	1779                	c.addi	a4,-2
200053f4:	02035463          	bgez	t1,2000541c <__print_integral_poly+0x3e>
200053f8:	05105063          	blez	a7,20005438 <__print_integral_poly+0x5a>
200053fc:	ffee5703          	lhu	a4,-2(t3)
20005400:	eb15                	c.bnez	a4,20005434 <__print_integral_poly+0x56>
20005402:	03005b63          	blez	a6,20005438 <__print_integral_poly+0x5a>
20005406:	8726                	c.mv	a4,s1
20005408:	16fd                	c.addi	a3,-1
2000540a:	3fd1                	c.jal	200053de <__print_integral_poly>
2000540c:	87aa                	c.mv	a5,a0
2000540e:	0505                	c.addi	a0,1
20005410:	00878023          	sb	s0,0(a5) # 80000000 <_DATA_LMA_START+0x5fff8428>
20005414:	409c                	c.lw	a5,0(s1)
20005416:	0785                	c.addi	a5,1
20005418:	c09c                	c.sw	a5,0(s1)
2000541a:	a34d                	c.j	200059bc <__riscv_restore_0>
2000541c:	00075e83          	lhu	t4,0(a4)
20005420:	0442                	c.slli	s0,0x10
20005422:	9476                	c.add	s0,t4
20005424:	02b45eb3          	divu	t4,s0,a1
20005428:	137d                	c.addi	t1,-1
2000542a:	02b47433          	remu	s0,s0,a1
2000542e:	01d71023          	sh	t4,0(a4)
20005432:	b7c1                	c.j	200053f2 <__print_integral_poly+0x14>
20005434:	8846                	c.mv	a6,a7
20005436:	bfc1                	c.j	20005406 <__print_integral_poly+0x28>
20005438:	c011                	c.beqz	s0,2000543c <__print_integral_poly+0x5e>
2000543a:	16fd                	c.addi	a3,-1
2000543c:	00d04763          	bgtz	a3,2000544a <__print_integral_poly+0x6c>
20005440:	0085ee5b          	bnec	a1,8,2000545c <__print_integral_poly+0x7e>
20005444:	00467c5b          	bbc	a2,4,2000545c <__print_integral_poly+0x7e>
20005448:	4685                	c.li	a3,1
2000544a:	87aa                	c.mv	a5,a0
2000544c:	40a78733          	sub	a4,a5,a0
20005450:	00d74b63          	blt	a4,a3,20005466 <__print_integral_poly+0x88>
20005454:	4781                	c.li	a5,0
20005456:	f2f686ff          	maxw	a3,a3,a5
2000545a:	9536                	c.add	a0,a3
2000545c:	dc45                	c.beqz	s0,20005414 <__print_integral_poly+0x36>
2000545e:	00850023          	sb	s0,0(a0)
20005462:	0505                	c.addi	a0,1
20005464:	bf45                	c.j	20005414 <__print_integral_poly+0x36>
20005466:	0785                	c.addi	a5,1
20005468:	fe078fa3          	sb	zero,-1(a5)
2000546c:	b7c5                	c.j	2000544c <__print_integral_poly+0x6e>

2000546e <__printf_float_impl>:
2000546e:	4fa002ef          	jal	t0,20005968 <__riscv_save_12>
20005472:	0df7fc13          	andi	s8,a5,223
20005476:	8b2a                	c.mv	s6,a0
20005478:	892e                	c.mv	s2,a1
2000547a:	7169                	c.addi16sp	sp,-304
2000547c:	84b2                	c.mv	s1,a2
2000547e:	8536                	c.mv	a0,a3
20005480:	85ba                	c.mv	a1,a4
20005482:	8a3e                	c.mv	s4,a5
20005484:	467c6c5b          	bnec	s8,71,200054fc <__printf_float_impl+0x8e>
20005488:	00092983          	lw	s3,0(s2)
2000548c:	0109c993          	xori	s3,s3,16
20005490:	1049a9db          	bfoz	s3,s3,4,4
20005494:	0604da63          	bgez	s1,20005508 <__printf_float_impl+0x9a>
20005498:	4499                	c.li	s1,6
2000549a:	401c635b          	bnec	s8,65,200054a0 <__printf_float_impl+0x32>
2000549e:	44b5                	c.li	s1,13
200054a0:	dff5047f          	wexti	s0,a0,31
200054a4:	8055                	c.srli	s0,0x15
200054a6:	8aaa                	c.mv	s5,a0
200054a8:	4c05ad5b          	bfoz	s10,a1,19,0
200054ac:	0005d863          	bgez	a1,200054bc <__printf_float_impl+0x4e>
200054b0:	00092783          	lw	a5,0(s2)
200054b4:	4007e793          	ori	a5,a5,1024
200054b8:	00f92023          	sw	a5,0(s2)
200054bc:	401c6a5b          	bnec	s8,65,200054d0 <__printf_float_impl+0x62>
200054c0:	00092783          	lw	a5,0(s2)
200054c4:	6705                	c.lui	a4,0x1
200054c6:	80070713          	addi	a4,a4,-2048 # 800 <pm_sleep_start+0x10>
200054ca:	8fd9                	c.or	a5,a4
200054cc:	00f92023          	sw	a5,0(s2)
200054d0:	7ff00793          	li	a5,2047
200054d4:	04f41563          	bne	s0,a5,2000551e <__printf_float_impl+0xb0>
200054d8:	00092783          	lw	a5,0(s2)
200054dc:	00ad66b3          	or	a3,s10,a0
200054e0:	fdf7f793          	andi	a5,a5,-33
200054e4:	00f92023          	sw	a5,0(s2)
200054e8:	c695                	c.beqz	a3,20005514 <__printf_float_impl+0xa6>
200054ea:	200085b7          	lui	a1,0x20008
200054ee:	ad858593          	addi	a1,a1,-1320 # 20007ad8 <__digits+0x10>
200054f2:	855a                	c.mv	a0,s6
200054f4:	2eb5                	c.jal	20005870 <strcpy>
200054f6:	050d                	c.addi	a0,3
200054f8:	6155                	c.addi16sp	sp,304
200054fa:	a16d                	c.j	200059a4 <__riscv_restore_12>
200054fc:	4981                	c.li	s3,0
200054fe:	f81c6b5b          	bnec	s8,65,20005494 <__printf_float_impl+0x26>
20005502:	01f65993          	srli	s3,a2,0x1f
20005506:	b779                	c.j	20005494 <__printf_float_impl+0x26>
20005508:	fcc1                	c.bnez	s1,200054a0 <__printf_float_impl+0x32>
2000550a:	fb9c0493          	addi	s1,s8,-71
2000550e:	0014b493          	seqz	s1,s1
20005512:	b779                	c.j	200054a0 <__printf_float_impl+0x32>
20005514:	200085b7          	lui	a1,0x20008
20005518:	adc58593          	addi	a1,a1,-1316 # 20007adc <__digits+0x14>
2000551c:	bfd9                	c.j	200054f2 <__printf_float_impl+0x84>
2000551e:	e811                	c.bnez	s0,20005532 <__printf_float_impl+0xc4>
20005520:	00ad66b3          	or	a3,s10,a0
20005524:	c0300413          	li	s0,-1021
20005528:	18069563          	bnez	a3,200056b2 <__printf_float_impl+0x244>
2000552c:	03500413          	li	s0,53
20005530:	a829                	c.j	2000554a <__printf_float_impl+0xdc>
20005532:	00100db7          	lui	s11,0x100
20005536:	01adedb3          	or	s11,s11,s10
2000553a:	c0240413          	addi	s0,s0,-1022
2000553e:	03400793          	li	a5,52
20005542:	8aaa                	c.mv	s5,a0
20005544:	8d6e                	c.mv	s10,s11
20005546:	1687d463          	bge	a5,s0,200056ae <__printf_float_impl+0x240>
2000554a:	fcb40413          	addi	s0,s0,-53
2000554e:	00445b93          	srli	s7,s0,0x4
20005552:	001b9c93          	slli	s9,s7,0x1
20005556:	8666                	c.mv	a2,s9
20005558:	4581                	c.li	a1,0
2000555a:	1008                	c.addi4spn	a0,sp,32
2000555c:	f9aff0ef          	jal	ra,20004cf6 <memset>
20005560:	883d                	c.andi	s0,15
20005562:	1a0c                	c.addi4spn	a1,sp,304
20005564:	9cae                	c.add	s9,a1
20005566:	8622                	c.mv	a2,s0
20005568:	8556                	c.mv	a0,s5
2000556a:	85ea                	c.mv	a1,s10
2000556c:	26f1                	c.jal	20005938 <__ashldi3>
2000556e:	4641                	c.li	a2,16
20005570:	eeac9823          	sh	a0,-272(s9)
20005574:	1014                	c.addi4spn	a3,sp,32
20005576:	0b85                	c.addi	s7,1
20005578:	8e01                	c.sub	a2,s0
2000557a:	8556                	c.mv	a0,s5
2000557c:	85ea                	c.mv	a1,s10
2000557e:	0b768cdb          	lea.h	s9,a3,s7
20005582:	2659                	c.jal	20005908 <__lshrdi3>
20005584:	8666                	c.mv	a2,s9
20005586:	3d2d                	c.jal	200053c0 <__int_to_poly>
20005588:	4c81                	c.li	s9,0
2000558a:	9baa                	c.add	s7,a0
2000558c:	57fd                	c.li	a5,-1
2000558e:	ce3e                	c.swsp	a5,28(sp)
20005590:	4429                	c.li	s0,10
20005592:	401c635b          	bnec	s8,65,20005598 <__printf_float_impl+0x12a>
20005596:	4441                	c.li	s0,16
20005598:	885e                	c.mv	a6,s7
2000559a:	101c                	c.addi4spn	a5,sp,32
2000559c:	4685                	c.li	a3,1
2000559e:	0878                	c.addi4spn	a4,sp,28
200055a0:	4601                	c.li	a2,0
200055a2:	85a2                	c.mv	a1,s0
200055a4:	855a                	c.mv	a0,s6
200055a6:	3d25                	c.jal	200053de <__print_integral_poly>
200055a8:	02e00793          	li	a5,46
200055ac:	00f50023          	sb	a5,0(a0)
200055b0:	001bbb93          	seqz	s7,s7
200055b4:	0dba7a13          	andi	s4,s4,219
200055b8:	00150693          	addi	a3,a0,1
200055bc:	87de                	c.mv	a5,s7
200055be:	401a535b          	beqc	s4,65,200055c4 <__printf_float_impl+0x156>
200055c2:	4781                	c.li	a5,0
200055c4:	00148713          	addi	a4,s1,1
200055c8:	973e                	c.add	a4,a5
200055ca:	fffc8893          	addi	a7,s9,-1
200055ce:	001c9613          	slli	a2,s9,0x1
200055d2:	112c                	c.addi4spn	a1,sp,168
200055d4:	95b2                	c.add	a1,a2
200055d6:	8846                	c.mv	a6,a7
200055d8:	4781                	c.li	a5,0
200055da:	15f9                	c.addi	a1,-2
200055dc:	16085f63          	bgez	a6,2000575a <__printf_float_impl+0x2ec>
200055e0:	01905863          	blez	s9,200055f0 <__printf_float_impl+0x182>
200055e4:	1a0c                	c.addi4spn	a1,sp,304
200055e6:	962e                	c.add	a2,a1
200055e8:	f7665603          	lhu	a2,-138(a2)
200055ec:	e211                	c.bnez	a2,200055f0 <__printf_float_impl+0x182>
200055ee:	8cc6                	c.mv	s9,a7
200055f0:	160b8e63          	beqz	s7,2000576c <__printf_float_impl+0x2fe>
200055f4:	4672                	c.lwsp	a2,28(sp)
200055f6:	0017bb93          	seqz	s7,a5
200055fa:	167d                	c.addi	a2,-1
200055fc:	ce32                	c.swsp	a2,28(sp)
200055fe:	0685                	c.addi	a3,1
20005600:	fef68fa3          	sb	a5,-1(a3)
20005604:	f379                	c.bnez	a4,200055ca <__printf_float_impl+0x15c>
20005606:	567c665b          	bnec	s8,71,20005772 <__printf_float_impl+0x304>
2000560a:	47f2                	c.lwsp	a5,28(sp)
2000560c:	fff48713          	addi	a4,s1,-1
20005610:	1897d363          	bge	a5,s1,20005796 <__printf_float_impl+0x328>
20005614:	5671                	c.li	a2,-4
20005616:	18c7c063          	blt	a5,a2,20005796 <__printf_float_impl+0x328>
2000561a:	40f704b3          	sub	s1,a4,a5
2000561e:	04600c13          	li	s8,70
20005622:	0489                	c.addi	s1,2
20005624:	9526                	c.add	a0,s1
20005626:	fff54683          	lbu	a3,-1(a0)
2000562a:	40145713          	srai	a4,s0,0x1
2000562e:	fff50793          	addi	a5,a0,-1
20005632:	00e6a6b3          	slt	a3,a3,a4
20005636:	0016c693          	xori	a3,a3,1
2000563a:	863e                	c.mv	a2,a5
2000563c:	1acb7863          	bgeu	s6,a2,200057ec <__printf_float_impl+0x37e>
20005640:	18069463          	bnez	a3,200057c8 <__printf_float_impl+0x35a>
20005644:	17fd                	c.addi	a5,-1
20005646:	00178513          	addi	a0,a5,1
2000564a:	00fb7763          	bgeu	s6,a5,20005658 <__printf_float_impl+0x1ea>
2000564e:	00098563          	beqz	s3,20005658 <__printf_float_impl+0x1ea>
20005652:	0007c703          	lbu	a4,0(a5)
20005656:	d77d                	c.beqz	a4,20005644 <__printf_float_impl+0x1d6>
20005658:	fff54783          	lbu	a5,-1(a0)
2000565c:	00e7e7db          	bnec	a5,46,2000566a <__printf_float_impl+0x1fc>
20005660:	00092783          	lw	a5,0(s2)
20005664:	4047f35b          	bbs	a5,4,2000566a <__printf_float_impl+0x1fc>
20005668:	157d                	c.addi	a0,-1
2000566a:	20008737          	lui	a4,0x20008
2000566e:	46bd                	c.li	a3,15
20005670:	ac870713          	addi	a4,a4,-1336 # 20007ac8 <__digits>
20005674:	1aab6a63          	bltu	s6,a0,20005828 <__printf_float_impl+0x3ba>
20005678:	5c5c635b          	bnec	s8,69,2000583e <__printf_float_impl+0x3d0>
2000567c:	01850023          	sb	s8,0(a0)
20005680:	4772                	c.lwsp	a4,28(sp)
20005682:	02d00793          	li	a5,45
20005686:	00074463          	bltz	a4,2000568e <__printf_float_impl+0x220>
2000568a:	02b00793          	li	a5,43
2000568e:	00f500a3          	sb	a5,1(a0)
20005692:	47f2                	c.lwsp	a5,28(sp)
20005694:	4689                	c.li	a3,2
20005696:	40f00733          	neg	a4,a5
2000569a:	f2f7077f          	maxw	a4,a4,a5
2000569e:	41f75793          	srai	a5,a4,0x1f
200056a2:	4601                	c.li	a2,0
200056a4:	45a9                	c.li	a1,10
200056a6:	0509                	c.addi	a0,2
200056a8:	85bff0ef          	jal	ra,20004f02 <__print_integral>
200056ac:	b5b1                	c.j	200054f8 <__printf_float_impl+0x8a>
200056ae:	06804363          	bgtz	s0,20005714 <__printf_float_impl+0x2a6>
200056b2:	40800433          	neg	s0,s0
200056b6:	00445b93          	srli	s7,s0,0x4
200056ba:	001b9d93          	slli	s11,s7,0x1
200056be:	866e                	c.mv	a2,s11
200056c0:	4581                	c.li	a1,0
200056c2:	1128                	c.addi4spn	a0,sp,168
200056c4:	e32ff0ef          	jal	ra,20004cf6 <memset>
200056c8:	112c                	c.addi4spn	a1,sp,168
200056ca:	883d                	c.andi	s0,15
200056cc:	9dae                	c.add	s11,a1
200056ce:	02540413          	addi	s0,s0,37
200056d2:	876e                	c.mv	a4,s11
200056d4:	4c81                	c.li	s9,0
200056d6:	001c8793          	addi	a5,s9,1
200056da:	8622                	c.mv	a2,s0
200056dc:	8556                	c.mv	a0,s5
200056de:	85ea                	c.mv	a1,s10
200056e0:	c63a                	c.swsp	a4,12(sp)
200056e2:	c43e                	c.swsp	a5,8(sp)
200056e4:	2415                	c.jal	20005908 <__lshrdi3>
200056e6:	4732                	c.lwsp	a4,12(sp)
200056e8:	1441                	c.addi	s0,-16
200056ea:	00a71023          	sh	a0,0(a4)
200056ee:	47a2                	c.lwsp	a5,8(sp)
200056f0:	0709                	c.addi	a4,2
200056f2:	00045f63          	bgez	s0,20005710 <__printf_float_impl+0x2a2>
200056f6:	0afd8ddb          	lea.h	s11,s11,a5
200056fa:	40800633          	neg	a2,s0
200056fe:	8556                	c.mv	a0,s5
20005700:	85ea                	c.mv	a1,s10
20005702:	0c89                	c.addi	s9,2
20005704:	2c15                	c.jal	20005938 <__ashldi3>
20005706:	9cde                	c.add	s9,s7
20005708:	00ad9023          	sh	a0,0(s11) # 100000 <FLASH_SIZE>
2000570c:	4b81                	c.li	s7,0
2000570e:	bdbd                	c.j	2000558c <__printf_float_impl+0x11e>
20005710:	8cbe                	c.mv	s9,a5
20005712:	b7d1                	c.j	200056d6 <__printf_float_impl+0x268>
20005714:	03500613          	li	a2,53
20005718:	8e01                	c.sub	a2,s0
2000571a:	85ee                	c.mv	a1,s11
2000571c:	22f5                	c.jal	20005908 <__lshrdi3>
2000571e:	1010                	c.addi4spn	a2,sp,32
20005720:	3145                	c.jal	200053c0 <__int_to_poly>
20005722:	02500793          	li	a5,37
20005726:	8baa                	c.mv	s7,a0
20005728:	40878433          	sub	s0,a5,s0
2000572c:	0a810d13          	addi	s10,sp,168
20005730:	4c81                	c.li	s9,0
20005732:	0c85                	c.addi	s9,1
20005734:	00045a63          	bgez	s0,20005748 <__printf_float_impl+0x2da>
20005738:	40800633          	neg	a2,s0
2000573c:	8556                	c.mv	a0,s5
2000573e:	85ee                	c.mv	a1,s11
20005740:	2ae5                	c.jal	20005938 <__ashldi3>
20005742:	00ad1023          	sh	a0,0(s10)
20005746:	b599                	c.j	2000558c <__printf_float_impl+0x11e>
20005748:	8622                	c.mv	a2,s0
2000574a:	8556                	c.mv	a0,s5
2000574c:	85ee                	c.mv	a1,s11
2000574e:	2a6d                	c.jal	20005908 <__lshrdi3>
20005750:	1441                	c.addi	s0,-16
20005752:	00ad1023          	sh	a0,0(s10)
20005756:	0d09                	c.addi	s10,2
20005758:	bfe9                	c.j	20005732 <__printf_float_impl+0x2c4>
2000575a:	0005d303          	lhu	t1,0(a1)
2000575e:	187d                	c.addi	a6,-1
20005760:	c48317ff          	maddr32	a5,t1,s0
20005764:	00f59023          	sh	a5,0(a1)
20005768:	83c1                	c.srli	a5,0x10
2000576a:	bd85                	c.j	200055da <__printf_float_impl+0x16c>
2000576c:	177d                	c.addi	a4,-1
2000576e:	4b81                	c.li	s7,0
20005770:	b579                	c.j	200055fe <__printf_float_impl+0x190>
20005772:	8726                	c.mv	a4,s1
20005774:	ea6c575b          	beqc	s8,70,20005622 <__printf_float_impl+0x1b4>
20005778:	47f2                	c.lwsp	a5,28(sp)
2000577a:	001b0613          	addi	a2,s6,1
2000577e:	02f04463          	bgtz	a5,200057a6 <__printf_float_impl+0x338>
20005782:	c785                	c.beqz	a5,200057aa <__printf_float_impl+0x33c>
20005784:	40f507b3          	sub	a5,a0,a5
20005788:	02d7e963          	bltu	a5,a3,200057ba <__printf_float_impl+0x34c>
2000578c:	001b0783          	lb	a5,1(s6)
20005790:	00fb0023          	sb	a5,0(s6)
20005794:	a819                	c.j	200057aa <__printf_float_impl+0x33c>
20005796:	04500c13          	li	s8,69
2000579a:	bff9                	c.j	20005778 <__printf_float_impl+0x30a>
2000579c:	fff50783          	lb	a5,-1(a0)
200057a0:	157d                	c.addi	a0,-1
200057a2:	00f500a3          	sb	a5,1(a0)
200057a6:	fec51be3          	bne	a0,a2,2000579c <__printf_float_impl+0x32e>
200057aa:	02e00793          	li	a5,46
200057ae:	001b0513          	addi	a0,s6,1
200057b2:	00fb00a3          	sb	a5,1(s6)
200057b6:	84ba                	c.mv	s1,a4
200057b8:	b5ad                	c.j	20005622 <__printf_float_impl+0x1b4>
200057ba:	0785                	c.addi	a5,1
200057bc:	fff7c603          	lbu	a2,-1(a5)
200057c0:	0505                	c.addi	a0,1
200057c2:	fec50fa3          	sb	a2,-1(a0)
200057c6:	b7c9                	c.j	20005788 <__printf_float_impl+0x31a>
200057c8:	167d                	c.addi	a2,-1
200057ca:	00064703          	lbu	a4,0(a2)
200057ce:	a6e757db          	beqc	a4,46,2000563c <__printf_float_impl+0x1ce>
200057d2:	0705                	c.addi	a4,1
200057d4:	0ff77713          	andi	a4,a4,255
200057d8:	00875663          	bge	a4,s0,200057e4 <__printf_float_impl+0x376>
200057dc:	00e60023          	sb	a4,0(a2)
200057e0:	4681                	c.li	a3,0
200057e2:	bda9                	c.j	2000563c <__printf_float_impl+0x1ce>
200057e4:	8f01                	c.sub	a4,s0
200057e6:	00e60023          	sb	a4,0(a2)
200057ea:	bd89                	c.j	2000563c <__printf_float_impl+0x1ce>
200057ec:	873e                	c.mv	a4,a5
200057ee:	e4068be3          	beqz	a3,20005644 <__printf_float_impl+0x1d6>
200057f2:	02eb6363          	bltu	s6,a4,20005818 <__printf_float_impl+0x3aa>
200057f6:	4705                	c.li	a4,1
200057f8:	00eb0023          	sb	a4,0(s6)
200057fc:	4772                	c.lwsp	a4,28(sp)
200057fe:	0705                	c.addi	a4,1
20005800:	ce3a                	c.swsp	a4,28(sp)
20005802:	426c515b          	beqc	s8,70,20005824 <__printf_float_impl+0x3b6>
20005806:	001b0703          	lb	a4,1(s6)
2000580a:	00eb0123          	sb	a4,2(s6)
2000580e:	02e00713          	li	a4,46
20005812:	00eb00a3          	sb	a4,1(s6)
20005816:	b53d                	c.j	20005644 <__printf_float_impl+0x1d6>
20005818:	fff70683          	lb	a3,-1(a4)
2000581c:	177d                	c.addi	a4,-1
2000581e:	00d700a3          	sb	a3,1(a4)
20005822:	bfc1                	c.j	200057f2 <__printf_float_impl+0x384>
20005824:	87aa                	c.mv	a5,a0
20005826:	bd39                	c.j	20005644 <__printf_float_impl+0x1d6>
20005828:	000b4783          	lbu	a5,0(s6)
2000582c:	00f6e763          	bltu	a3,a5,2000583a <__printf_float_impl+0x3cc>
20005830:	97ba                	c.add	a5,a4
20005832:	00078783          	lb	a5,0(a5)
20005836:	00fb0023          	sb	a5,0(s6)
2000583a:	0b05                	c.addi	s6,1
2000583c:	bd25                	c.j	20005674 <__printf_float_impl+0x206>
2000583e:	ca1c6d5b          	bnec	s8,65,200054f8 <__printf_float_impl+0x8a>
20005842:	05000793          	li	a5,80
20005846:	00f50023          	sb	a5,0(a0)
2000584a:	4772                	c.lwsp	a4,28(sp)
2000584c:	02d00793          	li	a5,45
20005850:	00074463          	bltz	a4,20005858 <__printf_float_impl+0x3ea>
20005854:	02b00793          	li	a5,43
20005858:	00f500a3          	sb	a5,1(a0)
2000585c:	47f2                	c.lwsp	a5,28(sp)
2000585e:	4685                	c.li	a3,1
20005860:	40f00733          	neg	a4,a5
20005864:	f2f7077f          	maxw	a4,a4,a5
20005868:	070a                	c.slli	a4,0x2
2000586a:	41f75793          	srai	a5,a4,0x1f
2000586e:	bd15                	c.j	200056a2 <__printf_float_impl+0x234>

20005870 <strcpy>:
20005870:	00b567b3          	or	a5,a0,a1
20005874:	8b8d                	c.andi	a5,3
20005876:	e3ad                	c.bnez	a5,200058d8 <strcpy+0x68>
20005878:	4198                	c.lw	a4,0(a1)
2000587a:	200707db          	ffb	a5,a4,zero
2000587e:	e3a9                	c.bnez	a5,200058c0 <strcpy+0x50>
20005880:	00a007b3          	add	a5,zero,a0
20005884:	0591                	c.addi	a1,4
20005886:	0791                	c.addi	a5,4
20005888:	fee7ae23          	sw	a4,-4(a5)
2000588c:	4198                	c.lw	a4,0(a1)
2000588e:	200706db          	ffb	a3,a4,zero
20005892:	daed                	c.beqz	a3,20005884 <strcpy+0x14>
20005894:	0005c703          	lbu	a4,0(a1)
20005898:	0015c683          	lbu	a3,1(a1)
2000589c:	0025c603          	lbu	a2,2(a1)
200058a0:	00e78023          	sb	a4,0(a5)
200058a4:	00070863          	beqz	a4,200058b4 <strcpy+0x44>
200058a8:	00d780a3          	sb	a3,1(a5)
200058ac:	c681                	c.beqz	a3,200058b4 <strcpy+0x44>
200058ae:	00c78123          	sb	a2,2(a5)
200058b2:	e219                	c.bnez	a2,200058b8 <strcpy+0x48>
200058b4:	00008067          	ret
200058b8:	000781a3          	sb	zero,3(a5)
200058bc:	00008067          	ret
200058c0:	0005c703          	lbu	a4,0(a1)
200058c4:	87aa                	c.mv	a5,a0
200058c6:	0015c683          	lbu	a3,1(a1)
200058ca:	0025c603          	lbu	a2,2(a1)
200058ce:	00e78023          	sb	a4,0(a5)
200058d2:	fb79                	c.bnez	a4,200058a8 <strcpy+0x38>
200058d4:	fe1ff06f          	j	200058b4 <strcpy+0x44>
200058d8:	00a007b3          	add	a5,zero,a0
200058dc:	0005c703          	lbu	a4,0(a1)
200058e0:	0785                	c.addi	a5,1
200058e2:	fee78fa3          	sb	a4,-1(a5)
200058e6:	0585                	c.addi	a1,1
200058e8:	fb75                	c.bnez	a4,200058dc <strcpy+0x6c>
200058ea:	8082                	c.jr	ra
200058ec:	0001                	c.nop

200058ee <strnlen>:
200058ee:	95aa                	c.add	a1,a0
200058f0:	87aa                	c.mv	a5,a0
200058f2:	00b78563          	beq	a5,a1,200058fc <strnlen+0xe>
200058f6:	0007c703          	lbu	a4,0(a5)
200058fa:	e701                	c.bnez	a4,20005902 <strnlen+0x14>
200058fc:	40a78533          	sub	a0,a5,a0
20005900:	8082                	c.jr	ra
20005902:	0785                	c.addi	a5,1
20005904:	b7fd                	c.j	200058f2 <strnlen+0x4>
	...

20005908 <__lshrdi3>:
20005908:	ce11                	c.beqz	a2,20005924 <__lshrdi3+0x1c>
2000590a:	02000793          	li	a5,32
2000590e:	8f91                	c.sub	a5,a2
20005910:	00f05c63          	blez	a5,20005928 <__lshrdi3+0x20>
20005914:	00c55533          	srl	a0,a0,a2
20005918:	00f597b3          	sll	a5,a1,a5
2000591c:	00c5d633          	srl	a2,a1,a2
20005920:	8d5d                	c.or	a0,a5
20005922:	85b2                	c.mv	a1,a2
20005924:	00008067          	ret
20005928:	40f00533          	neg	a0,a5
2000592c:	4601                	c.li	a2,0
2000592e:	00a5d533          	srl	a0,a1,a0
20005932:	85b2                	c.mv	a1,a2
20005934:	bfc5                	c.j	20005924 <__lshrdi3+0x1c>
20005936:	0001                	c.nop

20005938 <__ashldi3>:
20005938:	ce11                	c.beqz	a2,20005954 <__ashldi3+0x1c>
2000593a:	02000793          	li	a5,32
2000593e:	8f91                	c.sub	a5,a2
20005940:	00f05c63          	blez	a5,20005958 <__ashldi3+0x20>
20005944:	00c595b3          	sll	a1,a1,a2
20005948:	00f557b3          	srl	a5,a0,a5
2000594c:	00c51633          	sll	a2,a0,a2
20005950:	8ddd                	c.or	a1,a5
20005952:	8532                	c.mv	a0,a2
20005954:	00008067          	ret
20005958:	40f005b3          	neg	a1,a5
2000595c:	4601                	c.li	a2,0
2000595e:	00b515b3          	sll	a1,a0,a1
20005962:	8532                	c.mv	a0,a2
20005964:	bfc5                	c.j	20005954 <__ashldi3+0x1c>
20005966:	0001                	c.nop

20005968 <__riscv_save_12>:
20005968:	7139                	c.addi16sp	sp,-64
2000596a:	4301                	c.li	t1,0
2000596c:	c66e                	c.swsp	s11,12(sp)
2000596e:	a019                	c.j	20005974 <__riscv_save_10+0x4>

20005970 <__riscv_save_10>:
20005970:	7139                	c.addi16sp	sp,-64
20005972:	5341                	c.li	t1,-16
20005974:	c86a                	c.swsp	s10,16(sp)
20005976:	ca66                	c.swsp	s9,20(sp)
20005978:	cc62                	c.swsp	s8,24(sp)
2000597a:	ce5e                	c.swsp	s7,28(sp)
2000597c:	a019                	c.j	20005982 <__riscv_save_4+0x4>

2000597e <__riscv_save_4>:
2000597e:	7139                	c.addi16sp	sp,-64
20005980:	5301                	c.li	t1,-32
20005982:	d05a                	c.swsp	s6,32(sp)
20005984:	d256                	c.swsp	s5,36(sp)
20005986:	d452                	c.swsp	s4,40(sp)
20005988:	d64e                	c.swsp	s3,44(sp)
2000598a:	d84a                	c.swsp	s2,48(sp)
2000598c:	da26                	c.swsp	s1,52(sp)
2000598e:	dc22                	c.swsp	s0,56(sp)
20005990:	de06                	c.swsp	ra,60(sp)
20005992:	40610133          	sub	sp,sp,t1
20005996:	8282                	c.jr	t0

20005998 <__riscv_save_0>:
20005998:	1141                	c.addi	sp,-16
2000599a:	c04a                	c.swsp	s2,0(sp)
2000599c:	c226                	c.swsp	s1,4(sp)
2000599e:	c422                	c.swsp	s0,8(sp)
200059a0:	c606                	c.swsp	ra,12(sp)
200059a2:	8282                	c.jr	t0

200059a4 <__riscv_restore_12>:
200059a4:	4db2                	c.lwsp	s11,12(sp)
200059a6:	0141                	c.addi	sp,16

200059a8 <__riscv_restore_10>:
200059a8:	4d02                	c.lwsp	s10,0(sp)
200059aa:	4c92                	c.lwsp	s9,4(sp)
200059ac:	4c22                	c.lwsp	s8,8(sp)
200059ae:	4bb2                	c.lwsp	s7,12(sp)
200059b0:	0141                	c.addi	sp,16

200059b2 <__riscv_restore_4>:
200059b2:	4b02                	c.lwsp	s6,0(sp)
200059b4:	4a92                	c.lwsp	s5,4(sp)
200059b6:	4a22                	c.lwsp	s4,8(sp)
200059b8:	49b2                	c.lwsp	s3,12(sp)
200059ba:	0141                	c.addi	sp,16

200059bc <__riscv_restore_0>:
200059bc:	4902                	c.lwsp	s2,0(sp)
200059be:	4492                	c.lwsp	s1,4(sp)
200059c0:	4422                	c.lwsp	s0,8(sp)
200059c2:	40b2                	c.lwsp	ra,12(sp)
200059c4:	0141                	c.addi	sp,16
200059c6:	8082                	c.jr	ra
