
RV_NN_fully_connected_Benchmark.adx:     file format elf32-littleriscv
RV_NN_fully_connected_Benchmark.adx
architecture: riscv:rv32, flags 0x00000112:
EXEC_P, HAS_SYMS, D_PAGED
start address 0x20000000

Program Header:
    LOAD off    0x00001000 vaddr 0x20000000 paddr 0x20000000 align 2**12
         filesz 0x0000018a memsz 0x0000018a flags r-x
    LOAD off    0x00002000 vaddr 0x00000000 paddr 0x20000190 align 2**12
         filesz 0x000001bc memsz 0x000001bc flags rwx
    LOAD off    0x00002200 vaddr 0x00000200 paddr 0x20000350 align 2**12
         filesz 0x00005ce4 memsz 0x00005ce4 flags r-x
    LOAD off    0x00008000 vaddr 0x00080000 paddr 0x20006038 align 2**12
         filesz 0x00006a30 memsz 0x00006a6c flags rw-
    LOAD off    0x0000ea70 vaddr 0x00086a70 paddr 0x2000ca68 align 2**12
         filesz 0x00000022 memsz 0x00000022 flags rw-
    LOAD off    0x0000fa6c vaddr 0x00086a6c paddr 0x2000caa4 align 2**12
         filesz 0x00000000 memsz 0x00000004 flags rw-
0x70000000 off    0x0000eadb vaddr 0x00000000 paddr 0x00000000 align 2**0
         filesz 0x00000040 memsz 0x00000000 flags r--

Sections:
Idx Name          Size      VMA       LMA       File off  Algn
  0 .vectors      0000018a  20000000  20000000  00001000  2**2
                  CONTENTS, ALLOC, LOAD, READONLY, CODE
  1 .retention_reset 00000154  00000000  20000190  00002000  2**2
                  CONTENTS, ALLOC, LOAD, READONLY, CODE
  2 .retention_data 00000064  00000158  200002e8  00002158  2**2
                  CONTENTS, ALLOC, LOAD, DATA
  3 .ram_code     00005ce4  00000200  20000350  00002200  2**8
                  CONTENTS, ALLOC, LOAD, READONLY, CODE
  4 .data         00006a30  00080000  20006038  00008000  2**3
                  CONTENTS, ALLOC, LOAD, DATA
  5 .sbss         0000003c  00086a30  2000ca68  0000ea30  2**2
                  ALLOC
  6 .bss          00000004  00086a6c  2000caa4  0000fa6c  2**2
                  ALLOC
  7 .sdk_version  00000022  00086a70  2000ca68  0000ea70  2**2
                  CONTENTS, ALLOC, LOAD, DATA
  8 .comment      00000049  00000000  00000000  0000ea92  2**0
                  CONTENTS, READONLY
  9 .riscv.attributes 00000040  00000000  00000000  0000eadb  2**0
                  CONTENTS, READONLY
 10 .debug_info   00002573  00000000  00000000  0000eb1b  2**0
                  CONTENTS, READONLY, DEBUGGING
 11 .debug_abbrev 000009b1  00000000  00000000  0001108e  2**0
                  CONTENTS, READONLY, DEBUGGING
 12 .debug_loc    00001d0b  00000000  00000000  00011a3f  2**0
                  CONTENTS, READONLY, DEBUGGING
 13 .debug_aranges 000000e0  00000000  00000000  00013750  2**3
                  CONTENTS, READONLY, DEBUGGING
 14 .debug_ranges 000002c0  00000000  00000000  00013830  2**0
                  CONTENTS, READONLY, DEBUGGING
 15 .debug_line   000013f0  00000000  00000000  00013af0  2**0
                  CONTENTS, READONLY, DEBUGGING
 16 .debug_str    000010f6  00000000  00000000  00014ee0  2**0
                  CONTENTS, READONLY, DEBUGGING
 17 .debug_frame  000000e8  00000000  00000000  00015fd8  2**2
                  CONTENTS, READONLY, DEBUGGING
SYMBOL TABLE:
20000000 l    d  .vectors	00000000 .vectors
00000000 l    d  .retention_reset	00000000 .retention_reset
00000158 l    d  .retention_data	00000000 .retention_data
00000200 l    d  .ram_code	00000000 .ram_code
00080000 l    d  .data	00000000 .data
00086a30 l    d  .sbss	00000000 .sbss
00086a6c l    d  .bss	00000000 .bss
00086a70 l    d  .sdk_version	00000000 .sdk_version
00000000 l    d  .comment	00000000 .comment
00000000 l    d  .riscv.attributes	00000000 .riscv.attributes
00000000 l    d  .debug_info	00000000 .debug_info
00000000 l    d  .debug_abbrev	00000000 .debug_abbrev
00000000 l    d  .debug_loc	00000000 .debug_loc
00000000 l    d  .debug_aranges	00000000 .debug_aranges
00000000 l    d  .debug_ranges	00000000 .debug_ranges
00000000 l    d  .debug_line	00000000 .debug_line
00000000 l    d  .debug_str	00000000 .debug_str
00000000 l    d  .debug_frame	00000000 .debug_frame
00000000 l    df *ABS*	00000000 ./boot/cstartup_flash.o
20000028 l       .vectors	00000000 _START
2000008e l       .vectors	00000000 _RETENTION_RESET_INIT
200000a6 l       .vectors	00000000 _RETENTION_RESET_BEGIN
200000b8 l       .vectors	00000000 _RETENTION_DATA_INIT
200000cc l       .vectors	00000000 _RETENTION_DATA_INIT_BEGIN
200000de l       .vectors	00000000 _RAMCODE_INIT
200000f6 l       .vectors	00000000 _RAMCODE_INIT_BEGIN
20000108 l       .vectors	00000000 _DATA_INIT
20000120 l       .vectors	00000000 _DATA_INIT_BEGIN
20000132 l       .vectors	00000000 _ZERO_BSS
20000146 l       .vectors	00000000 _ZERO_BSS_BEGIN
20000152 l       .vectors	00000000 _ZERO_AES
20000166 l       .vectors	00000000 _ZERO_AES_BEGIN
20000172 l       .vectors	00000000 _FILL_STK
20000172 l       .vectors	00000000 _MAIN_FUNC
20000188 l       .vectors	00000000 _END
00000022 l       .retention_reset	00000000 _ISTART
0000002a l       .retention_reset	00000000 _ISWS_USB_DIS
00000088 l       .retention_reset	00000000 _WAKEUP_FLASH
000000a2 l       .retention_reset	00000000 _MSPI_WAIT
000000bc l       .retention_reset	00000000 _WAIT_EFUSE_LOAD_AND_FLASH_WAKEUP_FINISH
000000c2 l       .retention_reset	00000000 _MULTI_ADDRESS_BEGIN
000000d2 l       .retention_reset	00000000 _IZERO_BSS
000000e6 l       .retention_reset	00000000 _IZERO_BSS_BEGIN
000000f2 l       .retention_reset	00000000 _IZERO_AES
00000106 l       .retention_reset	00000000 _IZERO_AES_BEGIN
00000112 l       .retention_reset	00000000 _IFILL_STK
00000112 l       .retention_reset	00000000 _IDATA_INIT
0000012a l       .retention_reset	00000000 _IDATA_INIT_BEGIN
0000013c l       .retention_reset	00000000 _IMAIN_FUNC
00000152 l       .retention_reset	00000000 _IEND
00000040 l       *ABS*	00000000 irqno
00000000 l    df *ABS*	00000000 
00000200 l     F .ram_code	00000020 delay_ms.constprop.12
0000140c l     F .ram_code	000000fc user_calib_adc_vref.constprop.9
00000220 l     F .ram_code	00000044 flash_send_addr
00000264 l     F .ram_code	00000048 flash_send_cmd
000002ac l     F .ram_code	00000060 clock_set_32k_tick
00001508 l     F .ram_code	0000003a measure_stack_usage
00001544 l     F .ram_code	00000026 fill_stack_pattern_to_sp
0000030c l     F .ram_code	0000004c analog_read_reg32.constprop.4
00000358 l     F .ram_code	00000024 clock_get_32k_tick
0000037c l     F .ram_code	00000090 pm_stimer_recover
0000040c l     F .ram_code	00000058 plic_exit_critical_sec
00000464 l     F .ram_code	00000060 plic_enter_critical_sec
000004c4 l     F .ram_code	00000180 flash_mspi_read_ram
00001204 l     F .ram_code	00000028 flash_read_uid.constprop.6
0000122c l     F .ram_code	00000028 flash_read_mid
00001254 l     F .ram_code	00000168 flash_read_mid_uid_with_check
00000644 l     F .ram_code	0000014c flash_mspi_read_ram.constprop.7
000013bc l     F .ram_code	00000020 flash_dread
00000790 l     F .ram_code	00000044 analog_write_reg8
000007d4 l     F .ram_code	0000004c analog_read_reg8
00000820 l     F .ram_code	00000140 clock_init_ram.constprop.11
000013dc l     F .ram_code	00000018 clock_init.constprop.10
0000156c l     F .ram_code	00000054 user_calib_freq_offset.constprop.8
00000960 l     F .ram_code	000000b4 pm_wait_bbpll_done
00000a14 l     F .ram_code	00000194 pm_sleep_start
00000ba8 l     F .ram_code	00000120 dr_putchar
000015c4 l     F .ram_code	00000018 gpio_input_dis
00000cc8 l     F .ram_code	0000030c pm_sleep_wakeup_ram.constprop.3
000013f4 l     F .ram_code	00000016 pm_sleep_wakeup.constprop.2
000015e0 l     F .ram_code	0000000a reset_counters
000015ec l     F .ram_code	00000076 validate
00001664 l     F .ram_code	00000076 validate_s16
000840dc l     O .data	00001e14 fully_connected_int16_big_weights
00083030 l     O .data	00001068 fully_connected_int16_big_input
00080df4 l     O .data	00001810 fc_int16_slow_weights
00080090 l     O .data	00000d20 fc_int16_slow_input
00000158 l     O .retention_data	00000004 flash_read_page
0000015c l     O .retention_data	00000001 g_pm_long_suspend
00000160 l     O .retention_data	00000029 pmcd
0000018c l     O .retention_data	00000004 g_pm_tick_32k_calib
00000190 l     O .retention_data	00000004 g_pm_tick_cur
00000194 l     O .retention_data	00000001 g_plic_preempt_en
00000198 l     O .retention_data	00000002 s_flash_preempt_config
0000019a l     O .retention_data	00000001 g_pm_suspend_power_cfg
0000019c l     O .retention_data	00000008 g_pm_early_wakeup_time_us
000001a4 l     O .retention_data	00000004 g_pm_tick_32k_cur
000001a8 l     O .retention_data	00000001 g_pm_tick_update_en
000001ac l     O .retention_data	00000004 g_pm_r_delay_cycle
000001b0 l     O .retention_data	00000008 g_pm_longsleep_early_wakeup_time_us
00080038 l     O .data	00000058 fc_int16_slow_biases
00080db0 l     O .data	00000042 fc_int16_slow_output_ref
00082604 l     O .data	00000058 fc_per_ch_bias
0008265c l     O .data	00000059 fc_per_ch_input
000826b8 l     O .data	00000016 fc_per_ch_output
000826d0 l     O .data	00000058 fc_per_ch_output_multiplier
00082728 l     O .data	00000058 fc_per_ch_output_shift
00082780 l     O .data	000007a6 fc_per_ch_weights
00082f28 l     O .data	00000018 fully_connected_biases
00082f40 l     O .data	0000003c fully_connected_input
00082f80 l     O .data	00000058 fully_connected_int16_biases
00082fd8 l     O .data	00000058 fully_connected_int16_big_biases
00084098 l     O .data	00000042 fully_connected_int16_big_output_ref
00085ef0 l     O .data	000000fc fully_connected_int16_input
00085fec l     O .data	0000002c fully_connected_int16_output_ref
00086018 l     O .data	000002b5 fully_connected_int16_weights
000862d0 l     O .data	00000024 fully_connected_mve_0_biases
000862f4 l     O .data	00000010 fully_connected_mve_0_input
00086304 l     O .data	00000009 fully_connected_mve_0_output_ref
00086310 l     O .data	00000090 fully_connected_mve_0_weights
000863a0 l     O .data	00000012 fully_connected_output_ref
000863b4 l     O .data	00000078 fully_connected_weights
00086a30 l     O .sbss	00000004 clkFastfreq
00086a34 l     O .sbss	00000004 exception_mcause
00086a38 l     O .sbss	00000004 exception_mdcause
00086a3c l     O .sbss	00000004 exception_mepc
00086a40 l     O .sbss	00000004 exception_mstatus
00086a44 l     O .sbss	00000004 exception_mtval
00086a48 l     O .sbss	00000004 g_chip_version
00086a4c l     O .sbss	00000004 g_pm_status_info
00086a20 l     O .data	00000001 init_flag.5287
00086a24 l     O .data	00000006 sys_clk
00086a70 l     O .sdk_version	00000022 sdk_version
00000000 l    df *ABS*	00000000 riscv_fully_connected_s16.c.o
000025a0 l       .ram_code	00000000 $x
00000000 l    df *ABS*	00000000 riscv_fully_connected_s8.c.o
00002648 l       .ram_code	00000000 $x
00000000 l    df *ABS*	00000000 riscv_fully_connected_get_buffer_sizes_s8.c.o
000026e8 l       .ram_code	00000000 $x
00000000 l    df *ABS*	00000000 riscv_fully_connected_wrapper_s8.c.o
000026ec l       .ram_code	00000000 $x
00000000 l    df *ABS*	00000000 riscv_fully_connected_get_buffer_sizes_s16.c.o
0000273c l       .ram_code	00000000 $x
00000000 l    df *ABS*	00000000 riscv_fully_connected_per_channel_s8.c.o
00002740 l       .ram_code	00000000 $x
00000000 l    df *ABS*	00000000 riscv_nn_vec_mat_mult_t_s8.c.o
000027e4 l       .ram_code	00000000 $x
00000000 l    df *ABS*	00000000 riscv_nn_vec_mat_mult_t_per_ch_s8.c.o
00003944 l       .ram_code	00000000 $x
00000000 l    df *ABS*	00000000 riscv_nn_vec_mat_mult_t_s16.c.o
000043e0 l       .ram_code	00000000 $x
00000000 l    df *ABS*	00000000 muldf3.c
00000000 l    df *ABS*	00000000 fixunsdfsi.c
00000000 l    df *ABS*	00000000 floatsidf.c
00000000 l    df *ABS*	00000000 extendsfdf2.c
00000000 l    df *ABS*	00000000 malloc.c
00000000 l    df *ABS*	00000000 nano-mallocr.c
00000000 l    df *ABS*	00000000 nano-mallocr.c
00000000 l    df *ABS*	00000000 printf.c
00000000 l    df *ABS*	00000000 puts.c
00000000 l    df *ABS*	00000000 strlen.c
00000000 l    df *ABS*	00000000 vprintf.c
0000527c l     F .ram_code	0000003a __vprintf_help
00086a58 l     O .sbss	00000004 __vprintf_buf
00086a5c l     O .sbss	00000004 __vprintf_buf_len
00000000 l    df *ABS*	00000000 printf_impl.c
00000000 l    df *ABS*	00000000 printf_impl_float.c
00000000 l    df *ABS*	00000000 strcpy.c
00000000 l    df *ABS*	00000000 strnlen.c
00000000 l    df *ABS*	00000000 _sbrk.c
00086a68 l     O .sbss	00000004 heap_end.2408
00000000 l    df *ABS*	00000000 libgcc2.c
00000000 l    df *ABS*	00000000 libgcc2.c
00000000 l    df *ABS*	00000000 printf_data.c
00000000 l    df *ABS*	00000000 impure.c
00086a6c l     O .bss	00000000 impure_data
00002598  w      .ram_code	00000000 entry_irq55
00002598  w      .ram_code	00000000 entry_irq13
00005c6c g     F .ram_code	0000007c strcpy
00002598  w      .ram_code	00000000 entry_irq15
00005d5c g     F .ram_code	0000002e .hidden __ashldi3
00002598  w      .ram_code	00000000 entry_irq27
00002598  w      .ram_code	00000000 entry_irq60
00002598  w      .ram_code	00000000 entry_irq1
00002598  w      .ram_code	00000000 entry_irq52
00002598  w      .ram_code	00000000 entry_irq50
00002598  w      .ram_code	00000000 entry_irq62
000051ca g     F .ram_code	0000001e printf
00080800 g       .data	00000000 __global_pointer$
00005d94 g       .ram_code	00000000 .hidden __riscv_save_8
00002598  w      .ram_code	00000000 entry_irq58
00005de0 g       .ram_code	00000000 .hidden __riscv_restore_3
000001bc g       .retention_data	00000000 _RETENTION_DATA_VMA_END
00005dcc g       .ram_code	00000000 .hidden __riscv_restore_10
00005d94 g       .ram_code	00000000 .hidden __riscv_save_11
00005302 g     F .ram_code	00000048 __print_integral
00000000 g       .retention_reset	00000000 _RETENTION_RESET_VMA_START
00002598  w      .ram_code	00000000 entry_irq10
00002598  w      .ram_code	00000000 entry_irq21
00000158 g       .retention_data	00000000 _AES_VMA_START
00002598  w      .ram_code	00000000 entry_irq48
00005de0 g       .ram_code	00000000 .hidden __riscv_restore_2
00002598  w      .ram_code	00000000 entry_irq8
00002598  w      .ram_code	00000000 entry_irq33
00086a70 g       .bss	00000000 _BSS_VMA_END
20000190 g       *ABS*	00000000 _RETENTION_RESET_LMA_START
00004e34 g     F .ram_code	0000007a .hidden __floatsidf
000043e0 g     F .ram_code	00000370 riscv_nn_vec_mat_mult_t_s16
0000534a g     F .ram_code	00000472 __printf_impl
0000273c g     F .ram_code	00000004 riscv_fully_connected_s16_get_buffer_size
00002598  w      .ram_code	00000000 entry_irq12
000051e8 g     F .ram_code	00000034 puts
00004fc0 g     F .ram_code	00000010 malloc
00002598  w      .ram_code	00000000 entry_irq14
00005d8c g       .ram_code	00000000 .hidden __riscv_save_12
00004d9c g     F .ram_code	00000096 .hidden __fixunsdfsi
00002598  w      .ram_code	00000000 entry_irq2
00002598  w      .ram_code	00000000 entry_irq51
00005dcc g       .ram_code	00000000 .hidden __riscv_restore_11
00002598  w      .ram_code	00000000 entry_irq28
00002598  w      .ram_code	00000000 entry_irq43
00005dbc g       .ram_code	00000000 .hidden __riscv_save_1
00005de0 g       .ram_code	00000000 .hidden __riscv_restore_0
00002598  w      .ram_code	00000000 entry_irq20
00005da2 g       .ram_code	00000000 .hidden __riscv_save_7
00002740 g     F .ram_code	000000a2 riscv_fully_connected_per_channel_s8
00086a30 g       .sbss	00000000 _BSS_VMA_START
00002598  w      .ram_code	00000000 entry_irq63
00086a30 g       .data	00000000 _DATA_VMA_END
00004eb0 g     F .ram_code	00000110 .hidden __extendsfdf2
00002598  w      .ram_code	00000000 entry_irq46
00002598  w      .ram_code	00000000 entry_irq31
00002598  w      .ram_code	00000000 entry_irq16
00100000 g       *ABS*	00000000 FLASH_SIZE
00005dd6 g       .ram_code	00000000 .hidden __riscv_restore_5
00080000 g       .data	00000000 _DATA_VMA_START
00005d02  w    F .ram_code	00000028 _sbrk
00002598  w      .ram_code	00000000 entry_irq53
00002598  w      .ram_code	00000000 entry_irq11
00000154 g       .retention_reset	00000000 _RETENTION_RESET_VMA_END
00005cea g     F .ram_code	00000018 strnlen
00005dd6 g       .ram_code	00000000 .hidden __riscv_restore_6
00002598  w      .ram_code	00000000 entry_irq5
000025a0 g     F .ram_code	000000a6 riscv_fully_connected_s16
00002598  w      .ram_code	00000000 entry_irq23
0000259a  w      .ram_code	00000000 trap_handler
00002598  w      .ram_code	00000000 entry_irq34
00005d2c g     F .ram_code	0000002e .hidden __lshrdi3
00002598  w      .ram_code	00000000 entry_irq36
00002648 g     F .ram_code	0000009e riscv_fully_connected_s8
00005d94 g       .ram_code	00000000 .hidden __riscv_save_9
00002598  w      .ram_code	00000000 entry_irq44
000052b6 g     F .ram_code	0000004c vprintf
00002598  w      .ram_code	00000000 entry_irq45
00002598  w      .ram_code	00000000 entry_irq26
00005da2 g       .ram_code	00000000 .hidden __riscv_save_4
00002598  w      .ram_code	00000000 entry_irq41
00002598  w      .ram_code	00000000 entry_irq61
20000000 g       .vectors	00000000 BIN_BEGIN
0000508a g     F .ram_code	00000090 _free_r
00005dbc g       .ram_code	00000000 .hidden __riscv_save_3
000026e8 g     F .ram_code	00000004 riscv_fully_connected_s8_get_buffer_size
00002598  w      .ram_code	00000000 entry_irq38
00001100 g       .ram_code	00000000 __vectors
0000ca8a g       *ABS*	00000000 BIN_SIZE
00086a08 g     O .data	00000010 __digits
20000350 g       *ABS*	00000000 _RAMCODE_LMA_START
00086a64 g     O .sbss	00000004 __printf_count
00002598  w      .ram_code	00000000 entry_irq59
00002598  w      .ram_code	00000000 entry_irq6
00003944 g     F .ram_code	00000a9a riscv_nn_vec_mat_mult_t_per_ch_s8
00004750 g     F .ram_code	00000648 .hidden __muldf3
00005d94 g       .ram_code	00000000 .hidden __riscv_save_10
00086a60 g     O .sbss	00000004 __mculib_REENT_errno
20006038 g       *ABS*	00000000 _DATA_LMA_START
000057da g     F .ram_code	00000090 __print_integral_poly
20000000 g       *ABS*	00000000 NDS_SAG_LMA_FLASH
00005dd6 g       .ram_code	00000000 .hidden __riscv_restore_4
00005dcc g       .ram_code	00000000 .hidden __riscv_restore_8
00005da2 g       .ram_code	00000000 .hidden __riscv_save_6
20000000  w      .vectors	00000000 _RELAX_END_
0000586a g     F .ram_code	00000400 __printf_float_impl
00004fe0 g     F .ram_code	000000aa memset
00005dcc g       .ram_code	00000000 .hidden __riscv_restore_9
00005dd6 g       .ram_code	00000000 .hidden __riscv_restore_7
00001724 g     F .ram_code	00000e70 main
00002598 g       .ram_code	00000000 default_irq_entry
00002598  w      .ram_code	00000000 entry_irq3
00000fd4 g     F .ram_code	00000100 trap_entry
00000158 g       .retention_data	00000000 _AES_VMA_END
00002598  w      .ram_code	00000000 entry_irq39
00002598  w      .ram_code	00000000 entry_irq49
0000511a g     F .ram_code	000000b0 _malloc_r
00002598  w      .ram_code	00000000 entry_irq57
00002598  w      .ram_code	00000000 entry_irq47
200002e8 g       *ABS*	00000000 _RETENTION_DATA_LMA_START
20000000 g     F .vectors	00000000 _RESET_ENTRY
00000158 g       .retention_data	00000000 _RETENTION_DATA_VMA_START
000027e4 g     F .ram_code	0000115e riscv_nn_vec_mat_mult_t_s8
00002598  w      .ram_code	00000000 entry_irq4
000a0000 g       *ABS*	00000000 _STACK_TOP
00002598  w      .ram_code	00000000 entry_irq22
00002598  w      .ram_code	00000000 entry_irq30
00086a2c g     O .data	00000004 _impure_ptr
00002598  w      .ram_code	00000000 entry_irq42
00002598  w      .ram_code	00000000 entry_irq24
00005dbc g       .ram_code	00000000 .hidden __riscv_save_2
00005ee4 g       .ram_code	00000000 _RAMCODE_VMA_END
00000000  w      *ABS*	00000000 _ITB_BASE_
00005da2 g       .ram_code	00000000 .hidden __riscv_save_5
00002598  w      .ram_code	00000000 entry_irq19
000016dc g     F .ram_code	00000048 _write
00086a98 g       .sdk_version	00000000 _end
00002598  w      .ram_code	00000000 entry_irq17
00002598  w      .ram_code	00000000 entry_irq9
00002598  w      .ram_code	00000000 entry_irq56
00002598  w      .ram_code	00000000 entry_irq35
00002598  w      .ram_code	00000000 entry_irq37
000001b8 g     O .retention_data	00000004 g_pm_mspi_cfg
00002598  w      .ram_code	00000000 entry_irq54
00002598  w      .ram_code	00000000 entry_irq40
00005dc8 g       .ram_code	00000000 .hidden __riscv_restore_12
00000200 g       .ram_code	00000000 _RAMCODE_VMA_START
00005dbc g       .ram_code	00000000 .hidden __riscv_save_0
0000521c g     F .ram_code	0000005e strlen
00002598  w      .ram_code	00000000 entry_irq29
00086a54 g     O .sbss	00000004 __malloc_sbrk_start
00086a50 g     O .sbss	00000004 __malloc_free_list
00005de0 g       .ram_code	00000000 .hidden __riscv_restore_1
000026ec g     F .ram_code	0000004e riscv_fully_connected_wrapper_s8
00002598  w      .ram_code	00000000 entry_irq7
00002598  w      .ram_code	00000000 entry_irq32
00000000 g     F .retention_reset	00000000 _IRESET_ENTRY
00002598  w      .ram_code	00000000 entry_irq18
000057bc g     F .ram_code	0000001e __int_to_poly
00004fd0 g     F .ram_code	00000010 free
00002598  w      .ram_code	00000000 entry_irq25



Disassembly of section .vectors:

20000000 <_RESET_ENTRY>:
20000000:	a025                	c.j	20000028 <_START>
	...
20000016:	0000                	unimp
20000018:	ca8a                	c.swsp	sp,84(sp)
2000001a:	0000                	unimp
2000001c:	0000                	unimp
2000001e:	0000                	unimp
20000020:	544c4e4b          	fnmsub.h	ft8,fs8,ft4,fa0,rmm
20000024:	0000                	unimp
20000026:	          	sllw	a4,zero,zero

20000028 <_START>:
20000028:	e0080197          	auipc	gp,0xe0080
2000002c:	7d818193          	addi	gp,gp,2008 # 80800 <__global_pointer$>
20000030:	801002b7          	lui	t0,0x80100
20000034:	70028293          	addi	t0,t0,1792 # 80100700 <_DATA_LMA_START+0x600fa6c8>
20000038:	04000313          	li	t1,64
2000003c:	506280a3          	sb	t1,1281(t0)
20000040:	e00a0297          	auipc	t0,0xe00a0
20000044:	fc028293          	addi	t0,t0,-64 # a0000 <_STACK_TOP>
20000048:	8116                	c.mv	sp,t0
2000004a:	e0000297          	auipc	t0,0xe0000
2000004e:	fb628293          	addi	t0,t0,-74 # 0 <_ITB_BASE_>
20000052:	80029073          	csrw	uitb,t0
20000056:	6299                	c.lui	t0,0x6
20000058:	3002a2f3          	csrrs	t0,mstatus,t0
2000005c:	00301073          	fssr	zero
20000060:	e0001297          	auipc	t0,0xe0001
20000064:	0a028293          	addi	t0,t0,160 # 1100 <__vectors>
20000068:	30529073          	csrw	mtvec,t0
2000006c:	7d016073          	csrsi	mmisc_ctl,2
20000070:	e40002b7          	lui	t0,0xe4000
20000074:	4309                	c.li	t1,2
20000076:	0062a023          	sw	t1,0(t0) # e4000000 <_DATA_LMA_START+0xc3ff9fc8>
2000007a:	7ca022f3          	csrr	t0,mcache_ctl
2000007e:	0012e293          	ori	t0,t0,1
20000082:	0022e293          	ori	t0,t0,2
20000086:	7ca29073          	csrw	mcache_ctl,t0
2000008a:	0000100f          	fence.i

2000008e <_RETENTION_RESET_INIT>:
2000008e:	00000317          	auipc	t1,0x0
20000092:	10230313          	addi	t1,t1,258 # 20000190 <_RETENTION_RESET_LMA_START>
20000096:	e0000397          	auipc	t2,0xe0000
2000009a:	f6a38393          	addi	t2,t2,-150 # 0 <_ITB_BASE_>
2000009e:	e0000e17          	auipc	t3,0xe0000
200000a2:	0b6e0e13          	addi	t3,t3,182 # 154 <_RETENTION_RESET_VMA_END>

200000a6 <_RETENTION_RESET_BEGIN>:
200000a6:	01c3f963          	bgeu	t2,t3,200000b8 <_RETENTION_DATA_INIT>
200000aa:	00032283          	lw	t0,0(t1)
200000ae:	0053a023          	sw	t0,0(t2)
200000b2:	0311                	c.addi	t1,4
200000b4:	0391                	c.addi	t2,4
200000b6:	bfc5                	c.j	200000a6 <_RETENTION_RESET_BEGIN>

200000b8 <_RETENTION_DATA_INIT>:
200000b8:	00000317          	auipc	t1,0x0
200000bc:	23030313          	addi	t1,t1,560 # 200002e8 <_RETENTION_DATA_LMA_START>
200000c0:	15800393          	li	t2,344
200000c4:	e0000e17          	auipc	t3,0xe0000
200000c8:	0f8e0e13          	addi	t3,t3,248 # 1bc <_RETENTION_DATA_VMA_END>

200000cc <_RETENTION_DATA_INIT_BEGIN>:
200000cc:	01c3f963          	bgeu	t2,t3,200000de <_RAMCODE_INIT>
200000d0:	00032283          	lw	t0,0(t1)
200000d4:	0053a023          	sw	t0,0(t2)
200000d8:	0311                	c.addi	t1,4
200000da:	0391                	c.addi	t2,4
200000dc:	bfc5                	c.j	200000cc <_RETENTION_DATA_INIT_BEGIN>

200000de <_RAMCODE_INIT>:
200000de:	00000317          	auipc	t1,0x0
200000e2:	27230313          	addi	t1,t1,626 # 20000350 <_RAMCODE_LMA_START>
200000e6:	e0000397          	auipc	t2,0xe0000
200000ea:	11a38393          	addi	t2,t2,282 # 200 <delay_ms.constprop.12>
200000ee:	e0006e17          	auipc	t3,0xe0006
200000f2:	df6e0e13          	addi	t3,t3,-522 # 5ee4 <_RAMCODE_VMA_END>

200000f6 <_RAMCODE_INIT_BEGIN>:
200000f6:	01c3f963          	bgeu	t2,t3,20000108 <_DATA_INIT>
200000fa:	00032283          	lw	t0,0(t1)
200000fe:	0053a023          	sw	t0,0(t2)
20000102:	0311                	c.addi	t1,4
20000104:	0391                	c.addi	t2,4
20000106:	bfc5                	c.j	200000f6 <_RAMCODE_INIT_BEGIN>

20000108 <_DATA_INIT>:
20000108:	00006317          	auipc	t1,0x6
2000010c:	f3030313          	addi	t1,t1,-208 # 20006038 <_DATA_LMA_START>
20000110:	e0080397          	auipc	t2,0xe0080
20000114:	ef038393          	addi	t2,t2,-272 # 80000 <_DATA_VMA_START>
20000118:	e0087e17          	auipc	t3,0xe0087
2000011c:	918e0e13          	addi	t3,t3,-1768 # 86a30 <_DATA_VMA_END>

20000120 <_DATA_INIT_BEGIN>:
20000120:	01c3f963          	bgeu	t2,t3,20000132 <_ZERO_BSS>
20000124:	00032283          	lw	t0,0(t1)
20000128:	0053a023          	sw	t0,0(t2)
2000012c:	0311                	c.addi	t1,4
2000012e:	0391                	c.addi	t2,4
20000130:	bfc5                	c.j	20000120 <_DATA_INIT_BEGIN>

20000132 <_ZERO_BSS>:
20000132:	000002b7          	lui	t0,0x0
20000136:	e0087397          	auipc	t2,0xe0087
2000013a:	8fa38393          	addi	t2,t2,-1798 # 86a30 <_DATA_VMA_END>
2000013e:	e0087e17          	auipc	t3,0xe0087
20000142:	932e0e13          	addi	t3,t3,-1742 # 86a70 <_BSS_VMA_END>

20000146 <_ZERO_BSS_BEGIN>:
20000146:	01c3f663          	bgeu	t2,t3,20000152 <_ZERO_AES>
2000014a:	0053a023          	sw	t0,0(t2)
2000014e:	0391                	c.addi	t2,4
20000150:	bfdd                	c.j	20000146 <_ZERO_BSS_BEGIN>

20000152 <_ZERO_AES>:
20000152:	000002b7          	lui	t0,0x0
20000156:	e0000397          	auipc	t2,0xe0000
2000015a:	00238393          	addi	t2,t2,2 # 158 <_AES_VMA_END>
2000015e:	e0000e17          	auipc	t3,0xe0000
20000162:	ffae0e13          	addi	t3,t3,-6 # 158 <_AES_VMA_END>

20000166 <_ZERO_AES_BEGIN>:
20000166:	01c3f663          	bgeu	t2,t3,20000172 <_FILL_STK>
2000016a:	0053a023          	sw	t0,0(t2)
2000016e:	0391                	c.addi	t2,4
20000170:	bfdd                	c.j	20000166 <_ZERO_AES_BEGIN>

20000172 <_FILL_STK>:
20000172:	0001                	c.nop
20000174:	e0001297          	auipc	t0,0xe0001
20000178:	5b028293          	addi	t0,t0,1456 # 1724 <main>
2000017c:	9282                	c.jalr	t0
2000017e:	0001                	c.nop
20000180:	0001                	c.nop
20000182:	0001                	c.nop
20000184:	0001                	c.nop
20000186:	0001                	c.nop

20000188 <_END>:
20000188:	a001                	c.j	20000188 <_END>

Disassembly of section .retention_reset:

00000000 <_IRESET_ENTRY>:
   0:	a00d                	c.j	22 <_ISTART>
	...

00000022 <_ISTART>:
  22:	00080197          	auipc	gp,0x80
  26:	7de18193          	addi	gp,gp,2014 # 80800 <__global_pointer$>

0000002a <_ISWS_USB_DIS>:
  2a:	801002b7          	lui	t0,0x80100
  2e:	70028293          	addi	t0,t0,1792 # 80100700 <_DATA_LMA_START+0x600fa6c8>
  32:	04000313          	li	t1,64
  36:	506280a3          	sb	t1,1281(t0)
  3a:	000a0297          	auipc	t0,0xa0
  3e:	fc628293          	addi	t0,t0,-58 # a0000 <_STACK_TOP>
  42:	8116                	c.mv	sp,t0
  44:	00000297          	auipc	t0,0x0
  48:	fbc28293          	addi	t0,t0,-68 # 0 <_IRESET_ENTRY>
  4c:	80029073          	csrw	uitb,t0
  50:	6299                	c.lui	t0,0x6
  52:	3002a2f3          	csrrs	t0,mstatus,t0
  56:	00301073          	fssr	zero
  5a:	00001297          	auipc	t0,0x1
  5e:	0a628293          	addi	t0,t0,166 # 1100 <__vectors>
  62:	30529073          	csrw	mtvec,t0
  66:	7d016073          	csrsi	mmisc_ctl,2
  6a:	e40002b7          	lui	t0,0xe4000
  6e:	4309                	c.li	t1,2
  70:	0062a023          	sw	t1,0(t0) # e4000000 <_DATA_LMA_START+0xc3ff9fc8>
  74:	7ca022f3          	csrr	t0,mcache_ctl
  78:	0012e293          	ori	t0,t0,1
  7c:	0022e293          	ori	t0,t0,2
  80:	7ca29073          	csrw	mcache_ctl,t0
  84:	0000100f          	fence.i

00000088 <_WAKEUP_FLASH>:
  88:	801402b7          	lui	t0,0x80140
  8c:	0ff00313          	li	t1,255
  90:	4381                	c.li	t2,0
  92:	0ab00e13          	li	t3,171
  96:	326284a3          	sb	t1,809(t0) # 80140329 <_DATA_LMA_START+0x6013a2f1>
  9a:	107280a3          	sb	t2,257(t0)
  9e:	11c28023          	sb	t3,256(t0)

000000a2 <_MSPI_WAIT>:
  a2:	801402b7          	lui	t0,0x80140
  a6:	10228383          	lb	t2,258(t0) # 80140102 <_DATA_LMA_START+0x6013a0ca>
  aa:	4e05                	c.li	t3,1
  ac:	4ec1                	c.li	t4,16
  ae:	fe7e0ae3          	beq	t3,t2,a2 <_MSPI_WAIT>
  b2:	11d280a3          	sb	t4,257(t0)
  b6:	4281                	c.li	t0,0
  b8:	14000313          	li	t1,320

000000bc <_WAIT_EFUSE_LOAD_AND_FLASH_WAKEUP_FINISH>:
  bc:	0285                	c.addi	t0,1
  be:	fe537fe3          	bgeu	t1,t0,bc <_WAIT_EFUSE_LOAD_AND_FLASH_WAKEUP_FINISH>

000000c2 <_MULTI_ADDRESS_BEGIN>:
  c2:	801402b7          	lui	t0,0x80140
  c6:	1b800313          	li	t1,440
  ca:	00032383          	lw	t2,0(t1)
  ce:	1072a223          	sw	t2,260(t0) # 80140104 <_DATA_LMA_START+0x6013a0cc>

000000d2 <_IZERO_BSS>:
  d2:	000002b7          	lui	t0,0x0
  d6:	00087397          	auipc	t2,0x87
  da:	95a38393          	addi	t2,t2,-1702 # 86a30 <_DATA_VMA_END>
  de:	00087e17          	auipc	t3,0x87
  e2:	992e0e13          	addi	t3,t3,-1646 # 86a70 <_BSS_VMA_END>

000000e6 <_IZERO_BSS_BEGIN>:
  e6:	01c3f663          	bgeu	t2,t3,f2 <_IZERO_AES>
  ea:	0053a023          	sw	t0,0(t2)
  ee:	0391                	c.addi	t2,4
  f0:	bfdd                	c.j	e6 <_IZERO_BSS_BEGIN>

000000f2 <_IZERO_AES>:
  f2:	000002b7          	lui	t0,0x0
  f6:	00000397          	auipc	t2,0x0
  fa:	06238393          	addi	t2,t2,98 # 158 <_AES_VMA_END>
  fe:	00000e17          	auipc	t3,0x0
 102:	05ae0e13          	addi	t3,t3,90 # 158 <_AES_VMA_END>

00000106 <_IZERO_AES_BEGIN>:
 106:	01c3f663          	bgeu	t2,t3,112 <_IDATA_INIT>
 10a:	0053a023          	sw	t0,0(t2)
 10e:	0391                	c.addi	t2,4
 110:	bfdd                	c.j	106 <_IZERO_AES_BEGIN>

00000112 <_IDATA_INIT>:
 112:	20006317          	auipc	t1,0x20006
 116:	f2630313          	addi	t1,t1,-218 # 20006038 <_DATA_LMA_START>
 11a:	00080397          	auipc	t2,0x80
 11e:	ee638393          	addi	t2,t2,-282 # 80000 <_DATA_VMA_START>
 122:	00087e17          	auipc	t3,0x87
 126:	90ee0e13          	addi	t3,t3,-1778 # 86a30 <_DATA_VMA_END>

0000012a <_IDATA_INIT_BEGIN>:
 12a:	01c3f963          	bgeu	t2,t3,13c <_IMAIN_FUNC>
 12e:	00032283          	lw	t0,0(t1)
 132:	0053a023          	sw	t0,0(t2)
 136:	0311                	c.addi	t1,4
 138:	0391                	c.addi	t2,4
 13a:	bfc5                	c.j	12a <_IDATA_INIT_BEGIN>

0000013c <_IMAIN_FUNC>:
 13c:	0001                	c.nop
 13e:	00001297          	auipc	t0,0x1
 142:	5e628293          	addi	t0,t0,1510 # 1724 <main>
 146:	9282                	c.jalr	t0
 148:	0001                	c.nop
 14a:	0001                	c.nop
 14c:	0001                	c.nop
 14e:	0001                	c.nop
 150:	0001                	c.nop

00000152 <_IEND>:
 152:	a001                	c.j	152 <_IEND>

Disassembly of section .ram_code:

00000200 <delay_ms.constprop.12>:
     200:	801407b7          	lui	a5,0x80140
     204:	0004e737          	lui	a4,0x4e
     208:	2007a603          	lw	a2,512(a5) # 80140200 <_DATA_LMA_START+0x6013a1c8>
     20c:	801406b7          	lui	a3,0x80140
     210:	20070713          	addi	a4,a4,512 # 4e200 <BIN_SIZE+0x41776>
     214:	2006a783          	lw	a5,512(a3) # 80140200 <_DATA_LMA_START+0x6013a1c8>
     218:	8f91                	c.sub	a5,a2
     21a:	fef77de3          	bgeu	a4,a5,214 <delay_ms.constprop.12+0x14>
     21e:	8082                	c.jr	ra

00000220 <flash_send_addr>:
     220:	5d05275b          	bfoz	a4,a0,23,16
     224:	801407b7          	lui	a5,0x80140
     228:	801406b7          	lui	a3,0x80140
     22c:	10e78023          	sb	a4,256(a5) # 80140100 <_DATA_LMA_START+0x6013a0c8>
     230:	10268783          	lb	a5,258(a3) # 80140102 <_DATA_LMA_START+0x6013a0ca>
     234:	fe07fe5b          	bbs	a5,0,230 <flash_send_addr+0x10>
     238:	3c8527db          	bfoz	a5,a0,15,8
     23c:	80140737          	lui	a4,0x80140
     240:	10f68023          	sb	a5,256(a3)
     244:	10270783          	lb	a5,258(a4) # 80140102 <_DATA_LMA_START+0x6013a0ca>
     248:	fe07fe5b          	bbs	a5,0,244 <flash_send_addr+0x24>
     24c:	0ff57513          	andi	a0,a0,255
     250:	801406b7          	lui	a3,0x80140
     254:	10a70023          	sb	a0,256(a4)
     258:	10268783          	lb	a5,258(a3) # 80140102 <_DATA_LMA_START+0x6013a0ca>
     25c:	fe07fe5b          	bbs	a5,0,258 <flash_send_addr+0x38>
     260:	00008067          	ret

00000264 <flash_send_cmd>:
     264:	801407b7          	lui	a5,0x80140
     268:	10178703          	lb	a4,257(a5) # 80140101 <_DATA_LMA_START+0x6013a0c9>
     26c:	0ff77713          	andi	a4,a4,255
     270:	01076713          	ori	a4,a4,16
     274:	10e780a3          	sb	a4,257(a5)
     278:	0001                	c.nop
     27a:	0001                	c.nop
     27c:	0001                	c.nop
     27e:	0001                	c.nop
     280:	0001                	c.nop
     282:	0001                	c.nop
     284:	0001                	c.nop
     286:	0001                	c.nop
     288:	0001                	c.nop
     28a:	0001                	c.nop
     28c:	10178683          	lb	a3,257(a5)
     290:	80140737          	lui	a4,0x80140
     294:	0ef6f693          	andi	a3,a3,239
     298:	10d780a3          	sb	a3,257(a5)
     29c:	10a78023          	sb	a0,256(a5)
     2a0:	10270783          	lb	a5,258(a4) # 80140102 <_DATA_LMA_START+0x6013a0ca>
     2a4:	fe07fe5b          	bbs	a5,0,2a0 <flash_send_cmd+0x3c>
     2a8:	00008067          	ret

000002ac <clock_set_32k_tick>:
     2ac:	801406b7          	lui	a3,0x80140
     2b0:	20a68783          	lb	a5,522(a3) # 8014020a <_DATA_LMA_START+0x6013a1d2>
     2b4:	80140737          	lui	a4,0x80140
     2b8:	0ff7f793          	andi	a5,a5,255
     2bc:	0017e793          	ori	a5,a5,1
     2c0:	20f68523          	sb	a5,522(a3)
     2c4:	20b70683          	lb	a3,523(a4) # 8014020b <_DATA_LMA_START+0x6013a1d3>
     2c8:	20b70793          	addi	a5,a4,523
     2cc:	fe66fc5b          	bbs	a3,6,2c4 <clock_set_32k_tick+0x18>
     2d0:	20a72623          	sw	a0,524(a4)
     2d4:	4721                	c.li	a4,8
     2d6:	00e78023          	sb	a4,0(a5)
     2da:	0001                	c.nop
     2dc:	0001                	c.nop
     2de:	0001                	c.nop
     2e0:	0001                	c.nop
     2e2:	0001                	c.nop
     2e4:	0001                	c.nop
     2e6:	0001                	c.nop
     2e8:	0001                	c.nop
     2ea:	0001                	c.nop
     2ec:	0001                	c.nop
     2ee:	0001                	c.nop
     2f0:	0001                	c.nop
     2f2:	0001                	c.nop
     2f4:	0001                	c.nop
     2f6:	0001                	c.nop
     2f8:	00000013          	nop
     2fc:	801407b7          	lui	a5,0x80140
     300:	20b78703          	lb	a4,523(a5) # 8014020b <_DATA_LMA_START+0x6013a1d3>
     304:	fe377e5b          	bbs	a4,3,300 <clock_set_32k_tick+0x54>
     308:	00008067          	ret

0000030c <analog_read_reg32.constprop.4>:
     30c:	300027f3          	csrr	a5,mstatus
     310:	8ba1                	c.andi	a5,8
     312:	c789                	c.beqz	a5,31c <analog_read_reg32.constprop.4+0x10>
     314:	30047773          	csrrci	a4,mstatus,8
     318:	0ff0000f          	fence
     31c:	80140737          	lui	a4,0x80140
     320:	00400693          	li	a3,4
     324:	18d701a3          	sb	a3,387(a4) # 80140183 <_DATA_LMA_START+0x6013a14b>
     328:	06000693          	li	a3,96
     32c:	18d70023          	sb	a3,384(a4)
     330:	04000613          	li	a2,64
     334:	801406b7          	lui	a3,0x80140
     338:	18c70123          	sb	a2,386(a4)
     33c:	18268703          	lb	a4,386(a3) # 80140182 <_DATA_LMA_START+0x6013a14a>
     340:	fe777e5b          	bbs	a4,7,33c <analog_read_reg32.constprop.4+0x30>
     344:	1846a503          	lw	a0,388(a3)
     348:	00078663          	beqz	a5,354 <analog_read_reg32.constprop.4+0x48>
     34c:	3007a7f3          	csrrs	a5,mstatus,a5
     350:	0ff0000f          	fence
     354:	00008067          	ret

00000358 <clock_get_32k_tick>:
     358:	1141                	c.addi	sp,-16
     35a:	c422                	c.swsp	s0,8(sp)
     35c:	c606                	c.swsp	ra,12(sp)
     35e:	377d                	c.jal	30c <analog_read_reg32.constprop.4>
     360:	00a00433          	add	s0,zero,a0
     364:	fa9ff0ef          	jal	ra,30c <analog_read_reg32.constprop.4>
     368:	40850733          	sub	a4,a0,s0
     36c:	842a                	c.mv	s0,a0
     36e:	be176b5b          	bnec	a4,1,364 <clock_get_32k_tick+0xc>
     372:	40b2                	c.lwsp	ra,12(sp)
     374:	4422                	c.lwsp	s0,8(sp)
     376:	0141                	c.addi	sp,16
     378:	00008067          	ret

0000037c <pm_stimer_recover>:
     37c:	1141                	c.addi	sp,-16
     37e:	80140737          	lui	a4,0x80140
     382:	c606                	c.swsp	ra,12(sp)
     384:	4789                	c.li	a5,2
     386:	20f70c23          	sb	a5,536(a4) # 80140218 <_DATA_LMA_START+0x6013a1e0>
     38a:	20a70783          	lb	a5,522(a4)
     38e:	0ff7f793          	andi	a5,a5,255
     392:	00c7e793          	ori	a5,a5,12
     396:	20f70523          	sb	a5,522(a4)
     39a:	3f7d                	c.jal	358 <clock_get_32k_tick>
     39c:	00000737          	lui	a4,0x0
     3a0:	15870793          	addi	a5,a4,344 # 158 <_AES_VMA_END>
     3a4:	0047c783          	lbu	a5,4(a5)
     3a8:	15870713          	addi	a4,a4,344
     3ac:	cf81                	c.beqz	a5,3c4 <pm_stimer_recover+0x48>
     3ae:	4754                	c.lw	a3,12(a4)
     3b0:	5b50                	c.lw	a2,52(a4)
     3b2:	40d506b3          	sub	a3,a0,a3
     3b6:	471c                	c.lw	a5,8(a4)
     3b8:	0685                	c.addi	a3,1
     3ba:	8295                	c.srli	a3,0x5
     3bc:	c4c697ff          	maddr32	a5,a3,a2
     3c0:	0180006f          	j	3d8 <pm_stimer_recover+0x5c>
     3c4:	475c                	c.lw	a5,12(a4)
     3c6:	5b54                	c.lw	a3,52(a4)
     3c8:	40f507b3          	sub	a5,a0,a5
     3cc:	0785                	c.addi	a5,1
     3ce:	02d787b3          	mul	a5,a5,a3
     3d2:	4714                	c.lw	a3,8(a4)
     3d4:	8395                	c.srli	a5,0x5
     3d6:	97b6                	c.add	a5,a3
     3d8:	4754                	c.lw	a3,12(a4)
     3da:	00150593          	addi	a1,a0,1
     3de:	8d15                	c.sub	a0,a3
     3e0:	0505                	c.addi	a0,1
     3e2:	00178613          	addi	a2,a5,1
     3e6:	df1c                	c.sw	a5,56(a4)
     3e8:	d34c                	c.sw	a1,36(a4)
     3ea:	d308                	c.sw	a0,32(a4)
     3ec:	801407b7          	lui	a5,0x80140
     3f0:	801406b7          	lui	a3,0x80140
     3f4:	20c7a023          	sw	a2,512(a5) # 80140200 <_DATA_LMA_START+0x6013a1c8>
     3f8:	20b68783          	lb	a5,523(a3) # 8014020b <_DATA_LMA_START+0x6013a1d3>
     3fc:	be77fe5b          	bbc	a5,7,3f8 <pm_stimer_recover+0x7c>
     400:	20068c23          	sb	zero,536(a3)
     404:	40b2                	c.lwsp	ra,12(sp)
     406:	0141                	c.addi	sp,16
     408:	00008067          	ret

0000040c <plic_exit_critical_sec>:
     40c:	000007b7          	lui	a5,0x0
     410:	15878793          	addi	a5,a5,344 # 158 <_AES_VMA_END>
     414:	03c78783          	lb	a5,60(a5)
     418:	0ff7f793          	andi	a5,a5,255
     41c:	c795                	c.beqz	a5,448 <plic_exit_critical_sec+0x3c>
     41e:	c50d                	c.beqz	a0,448 <plic_exit_critical_sec+0x3c>
     420:	300027f3          	csrr	a5,mstatus
     424:	8ba1                	c.andi	a5,8
     426:	0ff5f593          	andi	a1,a1,255
     42a:	c78d                	c.beqz	a5,454 <plic_exit_critical_sec+0x48>
     42c:	30047773          	csrrci	a4,mstatus,8
     430:	0ff0000f          	fence
     434:	e4200737          	lui	a4,0xe4200
     438:	c30c                	c.sw	a1,0(a4)
     43a:	0ff0000f          	fence
     43e:	3007a7f3          	csrrs	a5,mstatus,a5
     442:	0ff0000f          	fence
     446:	8082                	c.jr	ra
     448:	cd81                	c.beqz	a1,460 <plic_exit_critical_sec+0x54>
     44a:	3005a5f3          	csrrs	a1,mstatus,a1
     44e:	0ff0000f          	fence
     452:	8082                	c.jr	ra
     454:	e42007b7          	lui	a5,0xe4200
     458:	00b7a023          	sw	a1,0(a5) # e4200000 <_DATA_LMA_START+0xc41f9fc8>
     45c:	0ff0000f          	fence
     460:	00008067          	ret

00000464 <plic_enter_critical_sec>:
     464:	000007b7          	lui	a5,0x0
     468:	15878793          	addi	a5,a5,344 # 158 <_AES_VMA_END>
     46c:	03c78783          	lb	a5,60(a5)
     470:	0ff7f793          	andi	a5,a5,255
     474:	cb85                	c.beqz	a5,4a4 <plic_enter_critical_sec+0x40>
     476:	c51d                	c.beqz	a0,4a4 <plic_enter_critical_sec+0x40>
     478:	e4200737          	lui	a4,0xe4200
     47c:	4308                	c.lw	a0,0(a4)
     47e:	04b57163          	bgeu	a0,a1,4c0 <plic_enter_critical_sec+0x5c>
     482:	300027f3          	csrr	a5,mstatus
     486:	8ba1                	c.andi	a5,8
     488:	cb85                	c.beqz	a5,4b8 <plic_enter_critical_sec+0x54>
     48a:	300476f3          	csrrci	a3,mstatus,8
     48e:	0ff0000f          	fence
     492:	c30c                	c.sw	a1,0(a4)
     494:	0ff0000f          	fence
     498:	3007a7f3          	csrrs	a5,mstatus,a5
     49c:	0ff0000f          	fence
     4a0:	00008067          	ret
     4a4:	30002573          	csrr	a0,mstatus
     4a8:	8921                	c.andi	a0,8
     4aa:	c919                	c.beqz	a0,4c0 <plic_enter_critical_sec+0x5c>
     4ac:	300477f3          	csrrci	a5,mstatus,8
     4b0:	0ff0000f          	fence
     4b4:	00008067          	ret
     4b8:	00b72023          	sw	a1,0(a4) # e4200000 <_DATA_LMA_START+0xc41f9fc8>
     4bc:	0ff0000f          	fence
     4c0:	00008067          	ret

000004c4 <flash_mspi_read_ram>:
     4c4:	7179                	c.addi16sp	sp,-48
     4c6:	d226                	c.swsp	s1,36(sp)
     4c8:	000004b7          	lui	s1,0x0
     4cc:	15848493          	addi	s1,s1,344 # 158 <_AES_VMA_END>
     4d0:	d04a                	c.swsp	s2,32(sp)
     4d2:	c65e                	c.swsp	s7,12(sp)
     4d4:	892a                	c.mv	s2,a0
     4d6:	8bae                	c.mv	s7,a1
     4d8:	0404c503          	lbu	a0,64(s1)
     4dc:	0414c583          	lbu	a1,65(s1)
     4e0:	d422                	c.swsp	s0,40(sp)
     4e2:	ce4e                	c.swsp	s3,28(sp)
     4e4:	cc52                	c.swsp	s4,24(sp)
     4e6:	ca56                	c.swsp	s5,20(sp)
     4e8:	c85a                	c.swsp	s6,16(sp)
     4ea:	d606                	c.swsp	ra,44(sp)
     4ec:	8b32                	c.mv	s6,a2
     4ee:	8ab6                	c.mv	s5,a3
     4f0:	843a                	c.mv	s0,a4
     4f2:	8a3e                	c.mv	s4,a5
     4f4:	f71ff0ef          	jal	ra,464 <plic_enter_critical_sec>
     4f8:	80140637          	lui	a2,0x80140
     4fc:	00a009b3          	add	s3,zero,a0
     500:	10260783          	lb	a5,258(a2) # 80140102 <_DATA_LMA_START+0x6013a0ca>
     504:	fe07fe5b          	bbs	a5,0,500 <flash_mspi_read_ram+0x3c>
     508:	10160783          	lb	a5,257(a2)
     50c:	80140737          	lui	a4,0x80140
     510:	0ff7f793          	andi	a5,a5,255
     514:	0107e793          	ori	a5,a5,16
     518:	10f600a3          	sb	a5,257(a2)
     51c:	32870783          	lb	a5,808(a4) # 80140328 <_DATA_LMA_START+0x6013a2f0>
     520:	be37fe5b          	bbc	a5,3,51c <flash_mspi_read_ram+0x58>
     524:	10170783          	lb	a5,257(a4)
     528:	854a                	c.mv	a0,s2
     52a:	0fd7f793          	andi	a5,a5,253
     52e:	10f700a3          	sb	a5,257(a4)
     532:	10170783          	lb	a5,257(a4)
     536:	0f37f793          	andi	a5,a5,243
     53a:	10f700a3          	sb	a5,257(a4)
     53e:	331d                	c.jal	264 <flash_send_cmd>
     540:	0e0b1e63          	bnez	s6,63c <flash_mspi_read_ram+0x178>
     544:	020a8063          	beqz	s5,564 <flash_mspi_read_ram+0xa0>
     548:	00000713          	li	a4,0
     54c:	80140637          	lui	a2,0x80140
     550:	10060023          	sb	zero,256(a2) # 80140100 <_DATA_LMA_START+0x6013a0c8>
     554:	10260783          	lb	a5,258(a2)
     558:	fe07fe5b          	bbs	a5,0,554 <flash_mspi_read_ram+0x90>
     55c:	00170713          	addi	a4,a4,1
     560:	ff5718e3          	bne	a4,s5,550 <flash_mspi_read_ram+0x8c>
     564:	01b96cdb          	bnec	s2,59,57c <flash_mspi_read_ram+0xb8>
     568:	80140737          	lui	a4,0x80140
     56c:	10170783          	lb	a5,257(a4) # 80140101 <_DATA_LMA_START+0x6013a0c9>
     570:	0f37f793          	andi	a5,a5,243
     574:	0047e793          	ori	a5,a5,4
     578:	10f700a3          	sb	a5,257(a4)
     57c:	801406b7          	lui	a3,0x80140
     580:	10168783          	lb	a5,257(a3) # 80140101 <_DATA_LMA_START+0x6013a0c9>
     584:	80140737          	lui	a4,0x80140
     588:	0ff7f793          	andi	a5,a5,255
     58c:	0027e793          	ori	a5,a5,2
     590:	10f680a3          	sb	a5,257(a3)
     594:	10068023          	sb	zero,256(a3)
     598:	10270783          	lb	a5,258(a4) # 80140102 <_DATA_LMA_START+0x6013a0ca>
     59c:	fe07fe5b          	bbs	a5,0,598 <flash_mspi_read_ram+0xd4>
     5a0:	10170783          	lb	a5,257(a4)
     5a4:	801406b7          	lui	a3,0x80140
     5a8:	0ff7f793          	andi	a5,a5,255
     5ac:	0017e793          	ori	a5,a5,1
     5b0:	10f700a3          	sb	a5,257(a4)
     5b4:	10268783          	lb	a5,258(a3) # 80140102 <_DATA_LMA_START+0x6013a0ca>
     5b8:	fe07fe5b          	bbs	a5,0,5b4 <flash_mspi_read_ram+0xf0>
     5bc:	020a0263          	beqz	s4,5e0 <flash_mspi_read_ram+0x11c>
     5c0:	008a0a33          	add	s4,s4,s0
     5c4:	801406b7          	lui	a3,0x80140
     5c8:	10068783          	lb	a5,256(a3) # 80140100 <_DATA_LMA_START+0x6013a0c8>
     5cc:	00140413          	addi	s0,s0,1
     5d0:	fef40fa3          	sb	a5,-1(s0)
     5d4:	10268783          	lb	a5,258(a3)
     5d8:	fe07fe5b          	bbs	a5,0,5d4 <flash_mspi_read_ram+0x110>
     5dc:	ff4416e3          	bne	s0,s4,5c8 <flash_mspi_read_ram+0x104>
     5e0:	801407b7          	lui	a5,0x80140
     5e4:	10178703          	lb	a4,257(a5) # 80140101 <_DATA_LMA_START+0x6013a0c9>
     5e8:	0fe77713          	andi	a4,a4,254
     5ec:	10e780a3          	sb	a4,257(a5)
     5f0:	01b968db          	bnec	s2,59,600 <flash_mspi_read_ram+0x13c>
     5f4:	10178703          	lb	a4,257(a5)
     5f8:	0f377713          	andi	a4,a4,243
     5fc:	10e780a3          	sb	a4,257(a5)
     600:	80140737          	lui	a4,0x80140
     604:	10170783          	lb	a5,257(a4) # 80140101 <_DATA_LMA_START+0x6013a0c9>
     608:	0ff7f793          	andi	a5,a5,255
     60c:	0107e793          	ori	a5,a5,16
     610:	10f700a3          	sb	a5,257(a4)
     614:	0001                	c.nop
     616:	0001                	c.nop
     618:	0001                	c.nop
     61a:	0001                	c.nop
     61c:	0001                	c.nop
     61e:	5422                	c.lwsp	s0,40(sp)
     620:	0404c503          	lbu	a0,64(s1)
     624:	50b2                	c.lwsp	ra,44(sp)
     626:	5492                	c.lwsp	s1,36(sp)
     628:	5902                	c.lwsp	s2,32(sp)
     62a:	4a62                	c.lwsp	s4,24(sp)
     62c:	4ad2                	c.lwsp	s5,20(sp)
     62e:	4b42                	c.lwsp	s6,16(sp)
     630:	4bb2                	c.lwsp	s7,12(sp)
     632:	85ce                	c.mv	a1,s3
     634:	49f2                	c.lwsp	s3,28(sp)
     636:	6145                	c.addi16sp	sp,48
     638:	dd5ff06f          	j	40c <plic_exit_critical_sec>
     63c:	855e                	c.mv	a0,s7
     63e:	36cd                	c.jal	220 <flash_send_addr>
     640:	f05ff06f          	j	544 <flash_mspi_read_ram+0x80>

00000644 <flash_mspi_read_ram.constprop.7>:
     644:	1101                	c.addi	sp,-32
     646:	c64e                	c.swsp	s3,12(sp)
     648:	000009b7          	lui	s3,0x0
     64c:	15898993          	addi	s3,s3,344 # 158 <_AES_VMA_END>
     650:	cc22                	c.swsp	s0,24(sp)
     652:	c256                	c.swsp	s5,4(sp)
     654:	842e                	c.mv	s0,a1
     656:	8aaa                	c.mv	s5,a0
     658:	0419c583          	lbu	a1,65(s3)
     65c:	0409c503          	lbu	a0,64(s3)
     660:	c84a                	c.swsp	s2,16(sp)
     662:	c452                	c.swsp	s4,8(sp)
     664:	ce06                	c.swsp	ra,28(sp)
     666:	ca26                	c.swsp	s1,20(sp)
     668:	8932                	c.mv	s2,a2
     66a:	3bed                	c.jal	464 <plic_enter_critical_sec>
     66c:	80140737          	lui	a4,0x80140
     670:	00a00a33          	add	s4,zero,a0
     674:	10270783          	lb	a5,258(a4) # 80140102 <_DATA_LMA_START+0x6013a0ca>
     678:	fe07fe5b          	bbs	a5,0,674 <flash_mspi_read_ram.constprop.7+0x30>
     67c:	10170783          	lb	a5,257(a4)
     680:	801404b7          	lui	s1,0x80140
     684:	0ff7f793          	andi	a5,a5,255
     688:	0107e793          	ori	a5,a5,16
     68c:	10f700a3          	sb	a5,257(a4)
     690:	32848783          	lb	a5,808(s1) # 80140328 <_DATA_LMA_START+0x6013a2f0>
     694:	be37fe5b          	bbc	a5,3,690 <flash_mspi_read_ram.constprop.7+0x4c>
     698:	10148783          	lb	a5,257(s1)
     69c:	03b00513          	li	a0,59
     6a0:	0fd7f793          	andi	a5,a5,253
     6a4:	10f480a3          	sb	a5,257(s1)
     6a8:	10148783          	lb	a5,257(s1)
     6ac:	0f37f793          	andi	a5,a5,243
     6b0:	10f480a3          	sb	a5,257(s1)
     6b4:	bb1ff0ef          	jal	ra,264 <flash_send_cmd>
     6b8:	01500533          	add	a0,zero,s5
     6bc:	b65ff0ef          	jal	ra,220 <flash_send_addr>
     6c0:	80140737          	lui	a4,0x80140
     6c4:	10048023          	sb	zero,256(s1)
     6c8:	10270783          	lb	a5,258(a4) # 80140102 <_DATA_LMA_START+0x6013a0ca>
     6cc:	fe07fe5b          	bbs	a5,0,6c8 <flash_mspi_read_ram.constprop.7+0x84>
     6d0:	10170783          	lb	a5,257(a4)
     6d4:	801406b7          	lui	a3,0x80140
     6d8:	0f37f793          	andi	a5,a5,243
     6dc:	0047e793          	ori	a5,a5,4
     6e0:	10f700a3          	sb	a5,257(a4)
     6e4:	10170783          	lb	a5,257(a4)
     6e8:	0ff7f793          	andi	a5,a5,255
     6ec:	0027e793          	ori	a5,a5,2
     6f0:	10f700a3          	sb	a5,257(a4)
     6f4:	10070023          	sb	zero,256(a4)
     6f8:	10268783          	lb	a5,258(a3) # 80140102 <_DATA_LMA_START+0x6013a0ca>
     6fc:	fe07fe5b          	bbs	a5,0,6f8 <flash_mspi_read_ram.constprop.7+0xb4>
     700:	10168783          	lb	a5,257(a3)
     704:	80140737          	lui	a4,0x80140
     708:	0ff7f793          	andi	a5,a5,255
     70c:	0017e793          	ori	a5,a5,1
     710:	10f680a3          	sb	a5,257(a3)
     714:	10270783          	lb	a5,258(a4) # 80140102 <_DATA_LMA_START+0x6013a0ca>
     718:	fe07fe5b          	bbs	a5,0,714 <flash_mspi_read_ram.constprop.7+0xd0>
     71c:	02090263          	beqz	s2,740 <flash_mspi_read_ram.constprop.7+0xfc>
     720:	01240633          	add	a2,s0,s2
     724:	80140737          	lui	a4,0x80140
     728:	10070783          	lb	a5,256(a4) # 80140100 <_DATA_LMA_START+0x6013a0c8>
     72c:	00140413          	addi	s0,s0,1
     730:	fef40fa3          	sb	a5,-1(s0)
     734:	10270783          	lb	a5,258(a4)
     738:	fe07fe5b          	bbs	a5,0,734 <flash_mspi_read_ram.constprop.7+0xf0>
     73c:	fec416e3          	bne	s0,a2,728 <flash_mspi_read_ram.constprop.7+0xe4>
     740:	801407b7          	lui	a5,0x80140
     744:	10178703          	lb	a4,257(a5) # 80140101 <_DATA_LMA_START+0x6013a0c9>
     748:	0fe77713          	andi	a4,a4,254
     74c:	10e780a3          	sb	a4,257(a5)
     750:	10178703          	lb	a4,257(a5)
     754:	0f377713          	andi	a4,a4,243
     758:	10e780a3          	sb	a4,257(a5)
     75c:	10178703          	lb	a4,257(a5)
     760:	0ff77713          	andi	a4,a4,255
     764:	01076713          	ori	a4,a4,16
     768:	10e780a3          	sb	a4,257(a5)
     76c:	0001                	c.nop
     76e:	0001                	c.nop
     770:	0001                	c.nop
     772:	0001                	c.nop
     774:	0001                	c.nop
     776:	4462                	c.lwsp	s0,24(sp)
     778:	0409c503          	lbu	a0,64(s3)
     77c:	40f2                	c.lwsp	ra,28(sp)
     77e:	44d2                	c.lwsp	s1,20(sp)
     780:	4942                	c.lwsp	s2,16(sp)
     782:	49b2                	c.lwsp	s3,12(sp)
     784:	4a92                	c.lwsp	s5,4(sp)
     786:	85d2                	c.mv	a1,s4
     788:	4a22                	c.lwsp	s4,8(sp)
     78a:	6105                	c.addi16sp	sp,32
     78c:	c81ff06f          	j	40c <plic_exit_critical_sec>

00000790 <analog_write_reg8>:
     790:	30002673          	csrr	a2,mstatus
     794:	8a21                	c.andi	a2,8
     796:	c609                	c.beqz	a2,7a0 <analog_write_reg8+0x10>
     798:	300477f3          	csrrci	a5,mstatus,8
     79c:	0ff0000f          	fence
     7a0:	80140737          	lui	a4,0x80140
     7a4:	18a70023          	sb	a0,384(a4) # 80140180 <_DATA_LMA_START+0x6013a148>
     7a8:	18b70223          	sb	a1,388(a4)
     7ac:	06000693          	li	a3,96
     7b0:	801407b7          	lui	a5,0x80140
     7b4:	18d70123          	sb	a3,386(a4)
     7b8:	18278703          	lb	a4,386(a5) # 80140182 <_DATA_LMA_START+0x6013a14a>
     7bc:	fe777e5b          	bbs	a4,7,7b8 <analog_write_reg8+0x28>
     7c0:	18078123          	sb	zero,386(a5)
     7c4:	00060663          	beqz	a2,7d0 <analog_write_reg8+0x40>
     7c8:	30062673          	csrrs	a2,mstatus,a2
     7cc:	0ff0000f          	fence
     7d0:	00008067          	ret

000007d4 <analog_read_reg8>:
     7d4:	300026f3          	csrr	a3,mstatus
     7d8:	8aa1                	c.andi	a3,8
     7da:	c689                	c.beqz	a3,7e4 <analog_read_reg8+0x10>
     7dc:	300477f3          	csrrci	a5,mstatus,8
     7e0:	0ff0000f          	fence
     7e4:	801407b7          	lui	a5,0x80140
     7e8:	18a78023          	sb	a0,384(a5) # 80140180 <_DATA_LMA_START+0x6013a148>
     7ec:	00100713          	li	a4,1
     7f0:	18e781a3          	sb	a4,387(a5)
     7f4:	04000613          	li	a2,64
     7f8:	80140737          	lui	a4,0x80140
     7fc:	18c78123          	sb	a2,386(a5)
     800:	18270783          	lb	a5,386(a4) # 80140182 <_DATA_LMA_START+0x6013a14a>
     804:	fe77fe5b          	bbs	a5,7,800 <analog_read_reg8+0x2c>
     808:	18470503          	lb	a0,388(a4)
     80c:	0ff57513          	andi	a0,a0,255
     810:	00068663          	beqz	a3,81c <analog_read_reg8+0x48>
     814:	3006a6f3          	csrrs	a3,mstatus,a3
     818:	0ff0000f          	fence
     81c:	00008067          	ret

00000820 <clock_init_ram.constprop.11>:
     820:	1141                	c.addi	sp,-16
     822:	80140737          	lui	a4,0x80140
     826:	c606                	c.swsp	ra,12(sp)
     828:	c422                	c.swsp	s0,8(sp)
     82a:	c226                	c.swsp	s1,4(sp)
     82c:	10270783          	lb	a5,258(a4) # 80140102 <_DATA_LMA_START+0x6013a0ca>
     830:	fe07fe5b          	bbs	a5,0,82c <clock_init_ram.constprop.11+0xc>
     834:	10170783          	lb	a5,257(a4)
     838:	801404b7          	lui	s1,0x80140
     83c:	0ff7f793          	andi	a5,a5,255
     840:	0107e793          	ori	a5,a5,16
     844:	10f700a3          	sb	a5,257(a4)
     848:	32848783          	lb	a5,808(s1) # 80140328 <_DATA_LMA_START+0x6013a2f0>
     84c:	be37fe5b          	bbc	a5,3,848 <clock_init_ram.constprop.11+0x28>
     850:	1e848783          	lb	a5,488(s1)
     854:	08000513          	li	a0,128
     858:	8bbd                	c.andi	a5,15
     85a:	1ef48423          	sb	a5,488(s1)
     85e:	3f9d                	c.jal	7d4 <analog_read_reg8>
     860:	0e057593          	andi	a1,a0,224
     864:	0105e593          	ori	a1,a1,16
     868:	08000513          	li	a0,128
     86c:	f25ff0ef          	jal	ra,790 <analog_write_reg8>
     870:	00900513          	li	a0,9
     874:	f61ff0ef          	jal	ra,7d4 <analog_read_reg8>
     878:	0f357593          	andi	a1,a0,243
     87c:	0085e593          	ori	a1,a1,8
     880:	4525                	c.li	a0,9
     882:	3739                	c.jal	790 <analog_write_reg8>
     884:	0c000793          	li	a5,192
     888:	224c140b          	addigp	s0,25124 # 86a24 <sys_clk>
     88c:	00f41023          	sh	a5,0(s0)
     890:	08100513          	li	a0,129
     894:	4791                	c.li	a5,4
     896:	1ef48da3          	sb	a5,507(s1)
     89a:	3f2d                	c.jal	7d4 <analog_read_reg8>
     89c:	04056593          	ori	a1,a0,64
     8a0:	0ff5f593          	andi	a1,a1,255
     8a4:	08100513          	li	a0,129
     8a8:	ee9ff0ef          	jal	ra,790 <analog_write_reg8>
     8ac:	08800513          	li	a0,136
     8b0:	f25ff0ef          	jal	ra,7d4 <analog_read_reg8>
     8b4:	be557c5b          	bbc	a0,5,8ac <clock_init_ram.constprop.11+0x8c>
     8b8:	08100513          	li	a0,129
     8bc:	f19ff0ef          	jal	ra,7d4 <analog_read_reg8>
     8c0:	0bf57593          	andi	a1,a0,191
     8c4:	08100513          	li	a0,129
     8c8:	ec9ff0ef          	jal	ra,790 <analog_write_reg8>
     8cc:	801407b7          	lui	a5,0x80140
     8d0:	1e978703          	lb	a4,489(a5) # 801401e9 <_DATA_LMA_START+0x6013a1b1>
     8d4:	8b3d                	c.andi	a4,15
     8d6:	04076713          	ori	a4,a4,64
     8da:	1ee784a3          	sb	a4,489(a5)
     8de:	1e878703          	lb	a4,488(a5)
     8e2:	f8076713          	ori	a4,a4,-128
     8e6:	0ff77713          	andi	a4,a4,255
     8ea:	1ee78423          	sb	a4,488(a5)
     8ee:	1e878703          	lb	a4,488(a5)
     8f2:	f8076713          	ori	a4,a4,-128
     8f6:	0ff77713          	andi	a4,a4,255
     8fa:	1ee78423          	sb	a4,488(a5)
     8fe:	1d878703          	lb	a4,472(a5)
     902:	00045683          	lhu	a3,0(s0)
     906:	0fb77713          	andi	a4,a4,251
     90a:	1ce78c23          	sb	a4,472(a5)
     90e:	1d878703          	lb	a4,472(a5)
     912:	8689                	c.srai	a3,0x2
     914:	00d402a3          	sb	a3,5(s0)
     918:	0fc77713          	andi	a4,a4,252
     91c:	1ce78c23          	sb	a4,472(a5)
     920:	1e878703          	lb	a4,488(a5)
     924:	0f077713          	andi	a4,a4,240
     928:	00876713          	ori	a4,a4,8
     92c:	1ee78423          	sb	a4,488(a5)
     930:	1e878703          	lb	a4,488(a5)
     934:	00045683          	lhu	a3,0(s0)
     938:	08f77713          	andi	a4,a4,143
     93c:	868d                	c.srai	a3,0x3
     93e:	00d40123          	sb	a3,2(s0)
     942:	02076713          	ori	a4,a4,32
     946:	1ee78423          	sb	a4,488(a5)
     94a:	0ff6f693          	andi	a3,a3,255
     94e:	00d401a3          	sb	a3,3(s0)
     952:	00d40223          	sb	a3,4(s0)
     956:	40b2                	c.lwsp	ra,12(sp)
     958:	4422                	c.lwsp	s0,8(sp)
     95a:	4492                	c.lwsp	s1,4(sp)
     95c:	0141                	c.addi	sp,16
     95e:	8082                	c.jr	ra

00000960 <pm_wait_bbpll_done>:
     960:	1101                	c.addi	sp,-32
     962:	08100513          	li	a0,129
     966:	cc22                	c.swsp	s0,24(sp)
     968:	ca26                	c.swsp	s1,20(sp)
     96a:	c84a                	c.swsp	s2,16(sp)
     96c:	ce06                	c.swsp	ra,28(sp)
     96e:	359d                	c.jal	7d4 <analog_read_reg8>
     970:	04056593          	ori	a1,a0,64
     974:	892a                	c.mv	s2,a0
     976:	0ff5f593          	andi	a1,a1,255
     97a:	08100513          	li	a0,129
     97e:	0bf97913          	andi	s2,s2,191
     982:	4481                	c.li	s1,0
     984:	4475                	c.li	s0,29
     986:	3529                	c.jal	790 <analog_write_reg8>
     988:	000107a3          	sb	zero,15(sp)
     98c:	00f10783          	lb	a5,15(sp)
     990:	0ff7f793          	andi	a5,a5,255
     994:	02f46063          	bltu	s0,a5,9b4 <pm_wait_bbpll_done+0x54>
     998:	0001                	c.nop
     99a:	00f10783          	lb	a5,15(sp)
     99e:	0785                	c.addi	a5,1
     9a0:	0ff7f793          	andi	a5,a5,255
     9a4:	00f107a3          	sb	a5,15(sp)
     9a8:	00f10783          	lb	a5,15(sp)
     9ac:	0ff7f793          	andi	a5,a5,255
     9b0:	fef474e3          	bgeu	s0,a5,998 <pm_wait_bbpll_done+0x38>
     9b4:	08800513          	li	a0,136
     9b8:	e1dff0ef          	jal	ra,7d4 <analog_read_reg8>
     9bc:	4255765b          	bbs	a0,5,9e8 <pm_wait_bbpll_done+0x88>
     9c0:	cc95                	c.beqz	s1,9fc <pm_wait_bbpll_done+0x9c>
     9c2:	0414d35b          	beqc	s1,1,a08 <pm_wait_bbpll_done+0xa8>
     9c6:	85ca                	c.mv	a1,s2
     9c8:	08100513          	li	a0,129
     9cc:	dc5ff0ef          	jal	ra,790 <analog_write_reg8>
     9d0:	0024d65b          	beqc	s1,2,9dc <pm_wait_bbpll_done+0x7c>
     9d4:	0485                	c.addi	s1,1
     9d6:	0ff4f493          	andi	s1,s1,255
     9da:	b77d                	c.j	988 <pm_wait_bbpll_done+0x28>
     9dc:	40f2                	c.lwsp	ra,28(sp)
     9de:	4462                	c.lwsp	s0,24(sp)
     9e0:	44d2                	c.lwsp	s1,20(sp)
     9e2:	4942                	c.lwsp	s2,16(sp)
     9e4:	6105                	c.addi16sp	sp,32
     9e6:	8082                	c.jr	ra
     9e8:	4462                	c.lwsp	s0,24(sp)
     9ea:	40f2                	c.lwsp	ra,28(sp)
     9ec:	44d2                	c.lwsp	s1,20(sp)
     9ee:	85ca                	c.mv	a1,s2
     9f0:	4942                	c.lwsp	s2,16(sp)
     9f2:	08100513          	li	a0,129
     9f6:	6105                	c.addi16sp	sp,32
     9f8:	d99ff06f          	j	790 <analog_write_reg8>
     9fc:	04600593          	li	a1,70
     a00:	4505                	c.li	a0,1
     a02:	3379                	c.jal	790 <analog_write_reg8>
     a04:	fd1ff06f          	j	9d4 <pm_wait_bbpll_done+0x74>
     a08:	04300593          	li	a1,67
     a0c:	4505                	c.li	a0,1
     a0e:	3349                	c.jal	790 <analog_write_reg8>
     a10:	fc5ff06f          	j	9d4 <pm_wait_bbpll_done+0x74>

00000a14 <pm_sleep_start>:
     a14:	1101                	c.addi	sp,-32
     a16:	248c272b          	lwgp	a4,25160 # 86a48 <g_chip_version>
     a1a:	000006b7          	lui	a3,0x0
     a1e:	ce06                	c.swsp	ra,28(sp)
     a20:	cc22                	c.swsp	s0,24(sp)
     a22:	ca26                	c.swsp	s1,20(sp)
     a24:	0ff00793          	li	a5,255
     a28:	19a6c583          	lbu	a1,410(a3) # 19a <g_pm_suspend_power_cfg>
     a2c:	00f71a63          	bne	a4,a5,a40 <pm_sleep_start+0x2c>
     a30:	0fe5f593          	andi	a1,a1,254
     a34:	07d00513          	li	a0,125
     a38:	d59ff0ef          	jal	ra,790 <analog_write_reg8>
     a3c:	00c0006f          	j	a48 <pm_sleep_start+0x34>
     a40:	07d00513          	li	a0,125
     a44:	d4dff0ef          	jal	ra,790 <analog_write_reg8>
     a48:	801406b7          	lui	a3,0x80140
     a4c:	10268783          	lb	a5,258(a3) # 80140102 <_DATA_LMA_START+0x6013a0ca>
     a50:	fe07fe5b          	bbs	a5,0,a4c <pm_sleep_start+0x38>
     a54:	10168703          	lb	a4,257(a3)
     a58:	801407b7          	lui	a5,0x80140
     a5c:	0ff77713          	andi	a4,a4,255
     a60:	01076713          	ori	a4,a4,16
     a64:	10e680a3          	sb	a4,257(a3)
     a68:	32878703          	lb	a4,808(a5) # 80140328 <_DATA_LMA_START+0x6013a2f0>
     a6c:	be377e5b          	bbc	a4,3,a68 <pm_sleep_start+0x54>
     a70:	10178703          	lb	a4,257(a5)
     a74:	80140437          	lui	s0,0x80140
     a78:	0fd77713          	andi	a4,a4,253
     a7c:	10e780a3          	sb	a4,257(a5)
     a80:	10178703          	lb	a4,257(a5)
     a84:	0ef77713          	andi	a4,a4,239
     a88:	10e780a3          	sb	a4,257(a5)
     a8c:	fb900713          	li	a4,-71
     a90:	10e78023          	sb	a4,256(a5)
     a94:	10240783          	lb	a5,258(s0) # 80140102 <_DATA_LMA_START+0x6013a0ca>
     a98:	fe07fe5b          	bbs	a5,0,a94 <pm_sleep_start+0x80>
     a9c:	10140783          	lb	a5,257(s0)
     aa0:	452d                	c.li	a0,11
     aa2:	0ff7f793          	andi	a5,a5,255
     aa6:	0107e793          	ori	a5,a5,16
     aaa:	10f400a3          	sb	a5,257(s0)
     aae:	320404a3          	sb	zero,809(s0)
     ab2:	330d                	c.jal	7d4 <analog_read_reg8>
     ab4:	0fc57593          	andi	a1,a0,252
     ab8:	452d                	c.li	a0,11
     aba:	39d9                	c.jal	790 <analog_write_reg8>
     abc:	08100513          	li	a0,129
     ac0:	d15ff0ef          	jal	ra,7d4 <analog_read_reg8>
     ac4:	f8056593          	ori	a1,a0,-128
     ac8:	0ff5f593          	andi	a1,a1,255
     acc:	08100513          	li	a0,129
     ad0:	cc1ff0ef          	jal	ra,790 <analog_write_reg8>
     ad4:	f8000793          	li	a5,-128
     ad8:	1ef407a3          	sb	a5,495(s0)
     adc:	03f00493          	li	s1,63
     ae0:	00012423          	sw	zero,8(sp)
     ae4:	47a2                	c.lwsp	a5,8(sp)
     ae6:	00f4e763          	bltu	s1,a5,af4 <pm_sleep_start+0xe0>
     aea:	0001                	c.nop
     aec:	47a2                	c.lwsp	a5,8(sp)
     aee:	0785                	c.addi	a5,1
     af0:	c43e                	c.swsp	a5,8(sp)
     af2:	bfcd                	c.j	ae4 <pm_sleep_start+0xd0>
     af4:	08100513          	li	a0,129
     af8:	cddff0ef          	jal	ra,7d4 <analog_read_reg8>
     afc:	07f57593          	andi	a1,a0,127
     b00:	08100513          	li	a0,129
     b04:	c8dff0ef          	jal	ra,790 <analog_write_reg8>
     b08:	00b00513          	li	a0,11
     b0c:	cc9ff0ef          	jal	ra,7d4 <analog_read_reg8>
     b10:	00356593          	ori	a1,a0,3
     b14:	0ff5f593          	andi	a1,a1,255
     b18:	452d                	c.li	a0,11
     b1a:	399d                	c.jal	790 <analog_write_reg8>
     b1c:	08000593          	li	a1,128
     b20:	07d00513          	li	a0,125
     b24:	c6dff0ef          	jal	ra,790 <analog_write_reg8>
     b28:	801407b7          	lui	a5,0x80140
     b2c:	329784a3          	sb	s1,809(a5) # 80140329 <_DATA_LMA_START+0x6013a2f1>
     b30:	10178683          	lb	a3,257(a5)
     b34:	80140737          	lui	a4,0x80140
     b38:	0ef6f693          	andi	a3,a3,239
     b3c:	10d780a3          	sb	a3,257(a5)
     b40:	fab00693          	li	a3,-85
     b44:	10d78023          	sb	a3,256(a5)
     b48:	10270783          	lb	a5,258(a4) # 80140102 <_DATA_LMA_START+0x6013a0ca>
     b4c:	fe07fe5b          	bbs	a5,0,b48 <pm_sleep_start+0x134>
     b50:	10170783          	lb	a5,257(a4)
     b54:	12b00693          	li	a3,299
     b58:	0ff7f793          	andi	a5,a5,255
     b5c:	0107e793          	ori	a5,a5,16
     b60:	10f700a3          	sb	a5,257(a4)
     b64:	00012623          	sw	zero,12(sp)
     b68:	47b2                	c.lwsp	a5,12(sp)
     b6a:	00f6e763          	bltu	a3,a5,b78 <pm_sleep_start+0x164>
     b6e:	0001                	c.nop
     b70:	47b2                	c.lwsp	a5,12(sp)
     b72:	0785                	c.addi	a5,1
     b74:	c63e                	c.swsp	a5,12(sp)
     b76:	bfcd                	c.j	b68 <pm_sleep_start+0x154>
     b78:	08800513          	li	a0,136
     b7c:	c59ff0ef          	jal	ra,7d4 <analog_read_reg8>
     b80:	be757c5b          	bbc	a0,7,b78 <pm_sleep_start+0x164>
     b84:	08800513          	li	a0,136
     b88:	c4dff0ef          	jal	ra,7d4 <analog_read_reg8>
     b8c:	be757c5b          	bbc	a0,7,b84 <pm_sleep_start+0x170>
     b90:	08800513          	li	a0,136
     b94:	c41ff0ef          	jal	ra,7d4 <analog_read_reg8>
     b98:	be757c5b          	bbc	a0,7,b90 <pm_sleep_start+0x17c>
     b9c:	4462                	c.lwsp	s0,24(sp)
     b9e:	40f2                	c.lwsp	ra,28(sp)
     ba0:	44d2                	c.lwsp	s1,20(sp)
     ba2:	6105                	c.addi16sp	sp,32
     ba4:	dbdff06f          	j	960 <pm_wait_bbpll_done>

00000ba8 <dr_putchar>:
     ba8:	1101                	c.addi	sp,-32
     baa:	ca26                	c.swsp	s1,20(sp)
     bac:	cc22                	c.swsp	s0,24(sp)
     bae:	ce06                	c.swsp	ra,28(sp)
     bb0:	c84a                	c.swsp	s2,16(sp)
     bb2:	220c148b          	addigp	s1,25120 # 86a20 <init_flag.5287>
     bb6:	842a                	c.mv	s0,a0
     bb8:	0004c783          	lbu	a5,0(s1)
     bbc:	0c17d25b          	beqc	a5,1,c80 <dr_putchar+0xd8>
     bc0:	801407b7          	lui	a5,0x80140
     bc4:	30378703          	lb	a4,771(a5) # 80140303 <_DATA_LMA_START+0x6013a2cb>
     bc8:	30378783          	lb	a5,771(a5)
     bcc:	0fe77713          	andi	a4,a4,254
     bd0:	0ff7f793          	andi	a5,a5,255
     bd4:	0017e793          	ori	a5,a5,1
     bd8:	00e10223          	sb	a4,4(sp)
     bdc:	86be                	c.mv	a3,a5
     bde:	4004735b          	bbs	s0,0,be4 <dr_putchar+0x3c>
     be2:	86ba                	c.mv	a3,a4
     be4:	00d102a3          	sb	a3,5(sp)
     be8:	86be                	c.mv	a3,a5
     bea:	4014735b          	bbs	s0,1,bf0 <dr_putchar+0x48>
     bee:	86ba                	c.mv	a3,a4
     bf0:	00d10323          	sb	a3,6(sp)
     bf4:	86be                	c.mv	a3,a5
     bf6:	4024735b          	bbs	s0,2,bfc <dr_putchar+0x54>
     bfa:	86ba                	c.mv	a3,a4
     bfc:	00d103a3          	sb	a3,7(sp)
     c00:	86be                	c.mv	a3,a5
     c02:	4034735b          	bbs	s0,3,c08 <dr_putchar+0x60>
     c06:	86ba                	c.mv	a3,a4
     c08:	00d10423          	sb	a3,8(sp)
     c0c:	86be                	c.mv	a3,a5
     c0e:	4044735b          	bbs	s0,4,c14 <dr_putchar+0x6c>
     c12:	86ba                	c.mv	a3,a4
     c14:	00d104a3          	sb	a3,9(sp)
     c18:	86be                	c.mv	a3,a5
     c1a:	4054735b          	bbs	s0,5,c20 <dr_putchar+0x78>
     c1e:	86ba                	c.mv	a3,a4
     c20:	00d10523          	sb	a3,10(sp)
     c24:	86be                	c.mv	a3,a5
     c26:	4064735b          	bbs	s0,6,c2c <dr_putchar+0x84>
     c2a:	86ba                	c.mv	a3,a4
     c2c:	00d105a3          	sb	a3,11(sp)
     c30:	801d                	c.srli	s0,0x7
     c32:	c019                	c.beqz	s0,c38 <dr_putchar+0x90>
     c34:	00f00733          	add	a4,zero,a5
     c38:	00f106a3          	sb	a5,13(sp)
     c3c:	801407b7          	lui	a5,0x80140
     c40:	00e10623          	sb	a4,12(sp)
     c44:	2007a603          	lw	a2,512(a5) # 80140200 <_DATA_LMA_START+0x6013a1c8>
     c48:	00410513          	addi	a0,sp,4
     c4c:	00e10813          	addi	a6,sp,14
     c50:	801406b7          	lui	a3,0x80140
     c54:	08900593          	li	a1,137
     c58:	2006a783          	lw	a5,512(a3) # 80140200 <_DATA_LMA_START+0x6013a1c8>
     c5c:	40c78733          	sub	a4,a5,a2
     c60:	fee5fce3          	bgeu	a1,a4,c58 <dr_putchar+0xb0>
     c64:	00054703          	lbu	a4,0(a0)
     c68:	0505                	c.addi	a0,1
     c6a:	30e681a3          	sb	a4,771(a3)
     c6e:	863e                	c.mv	a2,a5
     c70:	ff0514e3          	bne	a0,a6,c58 <dr_putchar+0xb0>
     c74:	40f2                	c.lwsp	ra,28(sp)
     c76:	4462                	c.lwsp	s0,24(sp)
     c78:	44d2                	c.lwsp	s1,20(sp)
     c7a:	4942                	c.lwsp	s2,16(sp)
     c7c:	6105                	c.addi16sp	sp,32
     c7e:	8082                	c.jr	ra
     c80:	80140937          	lui	s2,0x80140
     c84:	30690783          	lb	a5,774(s2) # 80140306 <_DATA_LMA_START+0x6013a2ce>
     c88:	4539                	c.li	a0,14
     c8a:	0ff7f793          	andi	a5,a5,255
     c8e:	0017e793          	ori	a5,a5,1
     c92:	30f90323          	sb	a5,774(s2)
     c96:	3e3d                	c.jal	7d4 <analog_read_reg8>
     c98:	0fc57593          	andi	a1,a0,252
     c9c:	0015e593          	ori	a1,a1,1
     ca0:	4539                	c.li	a0,14
     ca2:	34fd                	c.jal	790 <analog_write_reg8>
     ca4:	30290783          	lb	a5,770(s2)
     ca8:	0fe7f793          	andi	a5,a5,254
     cac:	30f90123          	sb	a5,770(s2)
     cb0:	30390783          	lb	a5,771(s2)
     cb4:	0ff7f793          	andi	a5,a5,255
     cb8:	0017e793          	ori	a5,a5,1
     cbc:	30f901a3          	sb	a5,771(s2)
     cc0:	00048023          	sb	zero,0(s1)
     cc4:	efdff06f          	j	bc0 <dr_putchar+0x18>

00000cc8 <pm_sleep_wakeup_ram.constprop.3>:
     cc8:	1101                	c.addi	sp,-32
     cca:	c452                	c.swsp	s4,8(sp)
     ccc:	8a2a                	c.mv	s4,a0
     cce:	ce06                	c.swsp	ra,28(sp)
     cd0:	cc22                	c.swsp	s0,24(sp)
     cd2:	ca26                	c.swsp	s1,20(sp)
     cd4:	c84a                	c.swsp	s2,16(sp)
     cd6:	c64e                	c.swsp	s3,12(sp)
     cd8:	c256                	c.swsp	s5,4(sp)
     cda:	c05a                	c.swsp	s6,0(sp)
     cdc:	300029f3          	csrr	s3,mstatus
     ce0:	0089f993          	andi	s3,s3,8
     ce4:	00098663          	beqz	s3,cf0 <pm_sleep_wakeup_ram.constprop.3+0x28>
     ce8:	300477f3          	csrrci	a5,mstatus,8
     cec:	0ff0000f          	fence
     cf0:	801407b7          	lui	a5,0x80140
     cf4:	2147a683          	lw	a3,532(a5) # 80140214 <_DATA_LMA_START+0x6013a1dc>
     cf8:	def5                	c.beqz	a3,cf4 <pm_sleep_wakeup_ram.constprop.3+0x2c>
     cfa:	00000437          	lui	s0,0x0
     cfe:	15840693          	addi	a3,s0,344 # 158 <_AES_VMA_END>
     d02:	2147a783          	lw	a5,532(a5)
     d06:	4ed8                	c.lw	a4,28(a3)
     d08:	d6dc                	c.sw	a5,44(a3)
     d0a:	15840413          	addi	s0,s0,344
     d0e:	0792                	c.slli	a5,0x4
     d10:	cb11                	c.beqz	a4,d24 <pm_sleep_wakeup_ram.constprop.3+0x5c>
     d12:	03044603          	lbu	a2,48(s0)
     d16:	4691                	c.li	a3,4
     d18:	8f99                	c.sub	a5,a4
     d1a:	8e91                	c.sub	a3,a2
     d1c:	40d7d7b3          	sra	a5,a5,a3
     d20:	00e787b3          	add	a5,a5,a4
     d24:	4818                	c.lw	a4,16(s0)
     d26:	4047d493          	srai	s1,a5,0x4
     d2a:	02e48733          	mul	a4,s1,a4
     d2e:	80140937          	lui	s2,0x80140
     d32:	20092a83          	lw	s5,512(s2) # 80140200 <_DATA_LMA_START+0x6013a1c8>
     d36:	cc5c                	c.sw	a5,28(s0)
     d38:	415a0ab3          	sub	s5,s4,s5
     d3c:	e00006b7          	lui	a3,0xe0000
     d40:	41275793          	srai	a5,a4,0x12
     d44:	94be                	c.add	s1,a5
     d46:	0486                	c.slli	s1,0x1
     d48:	02942a23          	sw	s1,52(s0)
     d4c:	0356f063          	bgeu	a3,s5,d6c <pm_sleep_wakeup_ram.constprop.3+0xa4>
     d50:	00098663          	beqz	s3,d5c <pm_sleep_wakeup_ram.constprop.3+0x94>
     d54:	3009a9f3          	csrrs	s3,mstatus,s3
     d58:	0ff0000f          	fence
     d5c:	06400513          	li	a0,100
     d60:	a75ff0ef          	jal	ra,7d4 <analog_read_reg8>
     d64:	01f57513          	andi	a0,a0,31
     d68:	2580006f          	j	fc0 <pm_sleep_wakeup_ram.constprop.3+0x2f8>
     d6c:	04a41783          	lh	a5,74(s0)
     d70:	1137a7db          	bfoz	a5,a5,4,19
     d74:	02fafe63          	bgeu	s5,a5,db0 <pm_sleep_wakeup_ram.constprop.3+0xe8>
     d78:	45fd                	c.li	a1,31
     d7a:	06400513          	li	a0,100
     d7e:	801404b7          	lui	s1,0x80140
     d82:	20092403          	lw	s0,512(s2)
     d86:	3429                	c.jal	790 <analog_write_reg8>
     d88:	06400513          	li	a0,100
     d8c:	a49ff0ef          	jal	ra,7d4 <analog_read_reg8>
     d90:	2004a783          	lw	a5,512(s1) # 80140200 <_DATA_LMA_START+0x6013a1c8>
     d94:	897d                	c.andi	a0,31
     d96:	8f81                	c.sub	a5,s0
     d98:	0157f463          	bgeu	a5,s5,da0 <pm_sleep_wakeup_ram.constprop.3+0xd8>
     d9c:	fe0506e3          	beqz	a0,d88 <pm_sleep_wakeup_ram.constprop.3+0xc0>
     da0:	22098063          	beqz	s3,fc0 <pm_sleep_wakeup_ram.constprop.3+0x2f8>
     da4:	3009a9f3          	csrrs	s3,mstatus,s3
     da8:	0ff0000f          	fence
     dac:	2140006f          	j	fc0 <pm_sleep_wakeup_ram.constprop.3+0x2f8>
     db0:	1e890a83          	lb	s5,488(s2)
     db4:	00faf793          	andi	a5,s5,15
     db8:	1ef90423          	sb	a5,488(s2)
     dbc:	1d890b03          	lb	s6,472(s2)
     dc0:	0f8b7793          	andi	a5,s6,248
     dc4:	1cf90c23          	sb	a5,472(s2)
     dc8:	00100793          	li	a5,1
     dcc:	20f90c23          	sb	a5,536(s2)
     dd0:	20a90783          	lb	a5,522(s2)
     dd4:	0f77f793          	andi	a5,a5,247
     dd8:	20f90523          	sb	a5,522(s2)
     ddc:	d7cff0ef          	jal	ra,358 <clock_get_32k_tick>
     de0:	20092703          	lw	a4,512(s2)
     de4:	20b90783          	lb	a5,523(s2)
     de8:	5054                	c.lw	a3,36(s0)
     dea:	0ff7f793          	andi	a5,a5,255
     dee:	0027e793          	ori	a5,a5,2
     df2:	c468                	c.sw	a0,76(s0)
     df4:	dc18                	c.sw	a4,56(s0)
     df6:	03044603          	lbu	a2,48(s0)
     dfa:	40d506b3          	sub	a3,a0,a3
     dfe:	20f905a3          	sb	a5,523(s2)
     e02:	d414                	c.sw	a3,40(s0)
     e04:	e215                	c.bnez	a2,e28 <pm_sleep_wakeup_ram.constprop.3+0x160>
     e06:	441c                	c.lw	a5,8(s0)
     e08:	c385                	c.beqz	a5,e28 <pm_sleep_wakeup_ram.constprop.3+0x160>
     e0a:	05044783          	lbu	a5,80(s0)
     e0e:	ef89                	c.bnez	a5,e28 <pm_sleep_wakeup_ram.constprop.3+0x160>
     e10:	00c42783          	lw	a5,12(s0)
     e14:	000276b7          	lui	a3,0x27
     e18:	40f507b3          	sub	a5,a0,a5
     e1c:	6c07a7db          	bfoz	a5,a5,27,0
     e20:	10068693          	addi	a3,a3,256 # 27100 <BIN_SIZE+0x1a676>
     e24:	00f6f863          	bgeu	a3,a5,e34 <pm_sleep_wakeup_ram.constprop.3+0x16c>
     e28:	00176713          	ori	a4,a4,1
     e2c:	02040823          	sb	zero,48(s0)
     e30:	c448                	c.sw	a0,12(s0)
     e32:	c418                	c.sw	a4,8(s0)
     e34:	02000593          	li	a1,32
     e38:	04b00513          	li	a0,75
     e3c:	955ff0ef          	jal	ra,790 <analog_write_reg8>
     e40:	45fd                	c.li	a1,31
     e42:	06400513          	li	a0,100
     e46:	32a9                	c.jal	790 <analog_write_reg8>
     e48:	03000593          	li	a1,48
     e4c:	07e00513          	li	a0,126
     e50:	941ff0ef          	jal	ra,790 <analog_write_reg8>
     e54:	0f900593          	li	a1,249
     e58:	04d00513          	li	a0,77
     e5c:	935ff0ef          	jal	ra,790 <analog_write_reg8>
     e60:	4585                	c.li	a1,1
     e62:	07f00513          	li	a0,127
     e66:	322d                	c.jal	790 <analog_write_reg8>
     e68:	04841783          	lh	a5,72(s0)
     e6c:	0ee00593          	li	a1,238
     e70:	1137a7db          	bfoz	a5,a5,4,19
     e74:	04c00513          	li	a0,76
     e78:	40fa0933          	sub	s2,s4,a5
     e7c:	915ff0ef          	jal	ra,790 <analog_write_reg8>
     e80:	05441583          	lh	a1,84(s0)
     e84:	04000513          	li	a0,64
     e88:	0ff5f593          	andi	a1,a1,255
     e8c:	905ff0ef          	jal	ra,790 <analog_write_reg8>
     e90:	441c                	c.lw	a5,8(s0)
     e92:	07ff06b7          	lui	a3,0x7ff0
     e96:	40f907b3          	sub	a5,s2,a5
     e9a:	00168713          	addi	a4,a3,1 # 7ff0001 <FLASH_SIZE+0x7ef0001>
     e9e:	00e7b733          	sltu	a4,a5,a4
     ea2:	00174713          	xori	a4,a4,1
     ea6:	00e40223          	sb	a4,4(s0)
     eaa:	00f6f963          	bgeu	a3,a5,ebc <pm_sleep_wakeup_ram.constprop.3+0x1f4>
     eae:	5858                	c.lw	a4,52(s0)
     eb0:	4448                	c.lw	a0,12(s0)
     eb2:	02e7d7b3          	divu	a5,a5,a4
     eb6:	0796                	c.slli	a5,0x5
     eb8:	953e                	c.add	a0,a5
     eba:	a809                	c.j	ecc <pm_sleep_wakeup_ram.constprop.3+0x204>
     ebc:	5848                	c.lw	a0,52(s0)
     ebe:	8085                	c.srli	s1,0x1
     ec0:	0796                	c.slli	a5,0x5
     ec2:	97a6                	c.add	a5,s1
     ec4:	02a7d7b3          	divu	a5,a5,a0
     ec8:	4448                	c.lw	a0,12(s0)
     eca:	953e                	c.add	a0,a5
     ecc:	be0ff0ef          	jal	ra,2ac <clock_set_32k_tick>
     ed0:	06400513          	li	a0,100
     ed4:	901ff0ef          	jal	ra,7d4 <analog_read_reg8>
     ed8:	01f57513          	andi	a0,a0,31
     edc:	e901                	c.bnez	a0,eec <pm_sleep_wakeup_ram.constprop.3+0x224>
     ede:	3e1d                	c.jal	a14 <pm_sleep_start>
     ee0:	00100593          	li	a1,1
     ee4:	07f00513          	li	a0,127
     ee8:	8a9ff0ef          	jal	ra,790 <analog_write_reg8>
     eec:	80140737          	lui	a4,0x80140
     ef0:	02000793          	li	a5,32
     ef4:	1ef707a3          	sb	a5,495(a4) # 801401ef <_DATA_LMA_START+0x6013a1b7>
     ef8:	00200793          	li	a5,2
     efc:	20f70c23          	sb	a5,536(a4)
     f00:	20a70783          	lb	a5,522(a4)
     f04:	0ff7f793          	andi	a5,a5,255
     f08:	00c7e793          	ori	a5,a5,12
     f0c:	20f70523          	sb	a5,522(a4)
     f10:	c48ff0ef          	jal	ra,358 <clock_get_32k_tick>
     f14:	00444783          	lbu	a5,4(s0)
     f18:	cf81                	c.beqz	a5,f30 <pm_sleep_wakeup_ram.constprop.3+0x268>
     f1a:	4458                	c.lw	a4,12(s0)
     f1c:	5854                	c.lw	a3,52(s0)
     f1e:	40e50733          	sub	a4,a0,a4
     f22:	441c                	c.lw	a5,8(s0)
     f24:	0705                	c.addi	a4,1
     f26:	8315                	c.srli	a4,0x5
     f28:	c4d717ff          	maddr32	a5,a4,a3
     f2c:	0180006f          	j	f44 <pm_sleep_wakeup_ram.constprop.3+0x27c>
     f30:	445c                	c.lw	a5,12(s0)
     f32:	5858                	c.lw	a4,52(s0)
     f34:	40f507b3          	sub	a5,a0,a5
     f38:	0785                	c.addi	a5,1
     f3a:	02e787b3          	mul	a5,a5,a4
     f3e:	4418                	c.lw	a4,8(s0)
     f40:	8395                	c.srli	a5,0x5
     f42:	97ba                	c.add	a5,a4
     f44:	4458                	c.lw	a4,12(s0)
     f46:	00150613          	addi	a2,a0,1
     f4a:	8d19                	c.sub	a0,a4
     f4c:	0505                	c.addi	a0,1
     f4e:	00178693          	addi	a3,a5,1
     f52:	dc1c                	c.sw	a5,56(s0)
     f54:	d050                	c.sw	a2,36(s0)
     f56:	d008                	c.sw	a0,32(s0)
     f58:	801407b7          	lui	a5,0x80140
     f5c:	80140737          	lui	a4,0x80140
     f60:	20d7a023          	sw	a3,512(a5) # 80140200 <_DATA_LMA_START+0x6013a1c8>
     f64:	20b70783          	lb	a5,523(a4) # 8014020b <_DATA_LMA_START+0x6013a1d3>
     f68:	be77fe5b          	bbc	a5,7,f64 <pm_sleep_wakeup_ram.constprop.3+0x29c>
     f6c:	20070c23          	sb	zero,536(a4)
     f70:	1d670c23          	sb	s6,472(a4)
     f74:	06400513          	li	a0,100
     f78:	1f570423          	sb	s5,488(a4)
     f7c:	859ff0ef          	jal	ra,7d4 <analog_read_reg8>
     f80:	24cc170b          	addigp	a4,25164 # 86a4c <g_pm_status_info>
     f84:	00a700a3          	sb	a0,1(a4)
     f88:	24cc178b          	addigp	a5,25164 # 86a4c <g_pm_status_info>
     f8c:	00157c5b          	bbc	a0,1,fa4 <pm_sleep_wakeup_ram.constprop.3+0x2dc>
     f90:	80140637          	lui	a2,0x80140
     f94:	400006b7          	lui	a3,0x40000
     f98:	20062703          	lw	a4,512(a2) # 80140200 <_DATA_LMA_START+0x6013a1c8>
     f9c:	41470733          	sub	a4,a4,s4
     fa0:	fee6ece3          	bltu	a3,a4,f98 <pm_sleep_wakeup_ram.constprop.3+0x2d0>
     fa4:	00098663          	beqz	s3,fb0 <pm_sleep_wakeup_ram.constprop.3+0x2e8>
     fa8:	3009a9f3          	csrrs	s3,mstatus,s3
     fac:	0ff0000f          	fence
     fb0:	0017c783          	lbu	a5,1(a5)
     fb4:	10000513          	li	a0,256
     fb8:	c781                	c.beqz	a5,fc0 <pm_sleep_wakeup_ram.constprop.3+0x2f8>
     fba:	40000537          	lui	a0,0x40000
     fbe:	8d5d                	c.or	a0,a5
     fc0:	40f2                	c.lwsp	ra,28(sp)
     fc2:	4462                	c.lwsp	s0,24(sp)
     fc4:	44d2                	c.lwsp	s1,20(sp)
     fc6:	4942                	c.lwsp	s2,16(sp)
     fc8:	49b2                	c.lwsp	s3,12(sp)
     fca:	4a22                	c.lwsp	s4,8(sp)
     fcc:	4a92                	c.lwsp	s5,4(sp)
     fce:	4b02                	c.lwsp	s6,0(sp)
     fd0:	6105                	c.addi16sp	sp,32
     fd2:	8082                	c.jr	ra

00000fd4 <trap_entry>:
     fd4:	1101                	c.addi	sp,-32
     fd6:	ce2a                	c.swsp	a0,28(sp)
     fd8:	cc2e                	c.swsp	a1,24(sp)
     fda:	ca32                	c.swsp	a2,20(sp)
     fdc:	c836                	c.swsp	a3,16(sp)
     fde:	c63a                	c.swsp	a4,12(sp)
     fe0:	c43e                	c.swsp	a5,8(sp)
     fe2:	34202773          	csrr	a4,mcause
     fe6:	000007b7          	lui	a5,0x0
     fea:	15878793          	addi	a5,a5,344 # 158 <_AES_VMA_END>
     fee:	03c78683          	lb	a3,60(a5)
     ff2:	0ff6f693          	andi	a3,a3,255
     ff6:	c2dd                	c.beqz	a3,109c <trap_entry+0xc8>
     ff8:	34102673          	csrr	a2,mepc
     ffc:	300025f3          	csrr	a1,mstatus
    1000:	7c4026f3          	csrr	a3,mxstatus
    1004:	02074a63          	bltz	a4,1038 <trap_entry+0x64>
    1008:	34302773          	csrr	a4,mtval
    100c:	24ec422b          	swgp	a4,25156 # 86a44 <exception_mtval>
    1010:	34102773          	csrr	a4,mepc
    1014:	22ec4e2b          	swgp	a4,25148 # 86a3c <exception_mepc>
    1018:	30002773          	csrr	a4,mstatus
    101c:	24ec402b          	swgp	a4,25152 # 86a40 <exception_mstatus>
    1020:	34202773          	csrr	a4,mcause
    1024:	22ec4a2b          	swgp	a4,25140 # 86a34 <exception_mcause>
    1028:	7c902773          	csrr	a4,mdcause
    102c:	22ec4c2b          	swgp	a4,25144 # 86a38 <exception_mdcause>
    1030:	0001                	c.nop
    1032:	0001                	c.nop
    1034:	ffdff06f          	j	1030 <trap_entry+0x5c>
    1038:	7807275b          	bfoz	a4,a4,30,0
    103c:	0677545b          	beqc	a4,7,10a4 <trap_entry+0xd0>
    1040:	bc37645b          	bnec	a4,3,1008 <trap_entry+0x34>
    1044:	e6600737          	lui	a4,0xe6600
    1048:	4358                	c.lw	a4,4(a4)
    104a:	03c78703          	lb	a4,60(a5)
    104e:	0ff77713          	andi	a4,a4,255
    1052:	c319                	c.beqz	a4,1058 <trap_entry+0x84>
    1054:	30046773          	csrrsi	a4,mstatus,8
    1058:	03c78703          	lb	a4,60(a5)
    105c:	0ff77713          	andi	a4,a4,255
    1060:	00070463          	beqz	a4,1068 <trap_entry+0x94>
    1064:	30047773          	csrrci	a4,mstatus,8
    1068:	e6600737          	lui	a4,0xe6600
    106c:	4505                	c.li	a0,1
    106e:	c348                	c.sw	a0,4(a4)
    1070:	03c78783          	lb	a5,60(a5)
    1074:	0ff7f793          	andi	a5,a5,255
    1078:	00078863          	beqz	a5,1088 <trap_entry+0xb4>
    107c:	30059073          	csrw	mstatus,a1
    1080:	34161073          	csrw	mepc,a2
    1084:	7c469073          	csrw	mxstatus,a3
    1088:	4572                	c.lwsp	a0,28(sp)
    108a:	45e2                	c.lwsp	a1,24(sp)
    108c:	4652                	c.lwsp	a2,20(sp)
    108e:	46c2                	c.lwsp	a3,16(sp)
    1090:	4732                	c.lwsp	a4,12(sp)
    1092:	47a2                	c.lwsp	a5,8(sp)
    1094:	02010113          	addi	sp,sp,32
    1098:	30200073          	mret
    109c:	4681                	c.li	a3,0
    109e:	4581                	c.li	a1,0
    10a0:	4601                	c.li	a2,0
    10a2:	b78d                	c.j	1004 <trap_entry+0x30>
    10a4:	03c78703          	lb	a4,60(a5)
    10a8:	0ff77713          	andi	a4,a4,255
    10ac:	00070863          	beqz	a4,10bc <trap_entry+0xe8>
    10b0:	08000713          	li	a4,128
    10b4:	30473773          	csrrc	a4,mie,a4
    10b8:	30046773          	csrrsi	a4,mstatus,8
    10bc:	03c78703          	lb	a4,60(a5)
    10c0:	0ff77713          	andi	a4,a4,255
    10c4:	d755                	c.beqz	a4,1070 <trap_entry+0x9c>
    10c6:	30047773          	csrrci	a4,mstatus,8
    10ca:	08000713          	li	a4,128
    10ce:	30472773          	csrrs	a4,mie,a4
    10d2:	bf79                	c.j	1070 <trap_entry+0x9c>
    10d4:	0001                	c.nop
	...

00001100 <__vectors>:
    1100:	0fd4                	c.addi4spn	a3,sp,980
    1102:	0000                	unimp
    1104:	2598                	c.fld	fa4,8(a1)
    1106:	0000                	unimp
    1108:	2598                	c.fld	fa4,8(a1)
    110a:	0000                	unimp
    110c:	2598                	c.fld	fa4,8(a1)
    110e:	0000                	unimp
    1110:	2598                	c.fld	fa4,8(a1)
    1112:	0000                	unimp
    1114:	2598                	c.fld	fa4,8(a1)
    1116:	0000                	unimp
    1118:	2598                	c.fld	fa4,8(a1)
    111a:	0000                	unimp
    111c:	2598                	c.fld	fa4,8(a1)
    111e:	0000                	unimp
    1120:	2598                	c.fld	fa4,8(a1)
    1122:	0000                	unimp
    1124:	2598                	c.fld	fa4,8(a1)
    1126:	0000                	unimp
    1128:	2598                	c.fld	fa4,8(a1)
    112a:	0000                	unimp
    112c:	2598                	c.fld	fa4,8(a1)
    112e:	0000                	unimp
    1130:	2598                	c.fld	fa4,8(a1)
    1132:	0000                	unimp
    1134:	2598                	c.fld	fa4,8(a1)
    1136:	0000                	unimp
    1138:	2598                	c.fld	fa4,8(a1)
    113a:	0000                	unimp
    113c:	2598                	c.fld	fa4,8(a1)
    113e:	0000                	unimp
    1140:	2598                	c.fld	fa4,8(a1)
    1142:	0000                	unimp
    1144:	2598                	c.fld	fa4,8(a1)
    1146:	0000                	unimp
    1148:	2598                	c.fld	fa4,8(a1)
    114a:	0000                	unimp
    114c:	2598                	c.fld	fa4,8(a1)
    114e:	0000                	unimp
    1150:	2598                	c.fld	fa4,8(a1)
    1152:	0000                	unimp
    1154:	2598                	c.fld	fa4,8(a1)
    1156:	0000                	unimp
    1158:	2598                	c.fld	fa4,8(a1)
    115a:	0000                	unimp
    115c:	2598                	c.fld	fa4,8(a1)
    115e:	0000                	unimp
    1160:	2598                	c.fld	fa4,8(a1)
    1162:	0000                	unimp
    1164:	2598                	c.fld	fa4,8(a1)
    1166:	0000                	unimp
    1168:	2598                	c.fld	fa4,8(a1)
    116a:	0000                	unimp
    116c:	2598                	c.fld	fa4,8(a1)
    116e:	0000                	unimp
    1170:	2598                	c.fld	fa4,8(a1)
    1172:	0000                	unimp
    1174:	2598                	c.fld	fa4,8(a1)
    1176:	0000                	unimp
    1178:	2598                	c.fld	fa4,8(a1)
    117a:	0000                	unimp
    117c:	2598                	c.fld	fa4,8(a1)
    117e:	0000                	unimp
    1180:	2598                	c.fld	fa4,8(a1)
    1182:	0000                	unimp
    1184:	2598                	c.fld	fa4,8(a1)
    1186:	0000                	unimp
    1188:	2598                	c.fld	fa4,8(a1)
    118a:	0000                	unimp
    118c:	2598                	c.fld	fa4,8(a1)
    118e:	0000                	unimp
    1190:	2598                	c.fld	fa4,8(a1)
    1192:	0000                	unimp
    1194:	2598                	c.fld	fa4,8(a1)
    1196:	0000                	unimp
    1198:	2598                	c.fld	fa4,8(a1)
    119a:	0000                	unimp
    119c:	2598                	c.fld	fa4,8(a1)
    119e:	0000                	unimp
    11a0:	2598                	c.fld	fa4,8(a1)
    11a2:	0000                	unimp
    11a4:	2598                	c.fld	fa4,8(a1)
    11a6:	0000                	unimp
    11a8:	2598                	c.fld	fa4,8(a1)
    11aa:	0000                	unimp
    11ac:	2598                	c.fld	fa4,8(a1)
    11ae:	0000                	unimp
    11b0:	2598                	c.fld	fa4,8(a1)
    11b2:	0000                	unimp
    11b4:	2598                	c.fld	fa4,8(a1)
    11b6:	0000                	unimp
    11b8:	2598                	c.fld	fa4,8(a1)
    11ba:	0000                	unimp
    11bc:	2598                	c.fld	fa4,8(a1)
    11be:	0000                	unimp
    11c0:	2598                	c.fld	fa4,8(a1)
    11c2:	0000                	unimp
    11c4:	2598                	c.fld	fa4,8(a1)
    11c6:	0000                	unimp
    11c8:	2598                	c.fld	fa4,8(a1)
    11ca:	0000                	unimp
    11cc:	2598                	c.fld	fa4,8(a1)
    11ce:	0000                	unimp
    11d0:	2598                	c.fld	fa4,8(a1)
    11d2:	0000                	unimp
    11d4:	2598                	c.fld	fa4,8(a1)
    11d6:	0000                	unimp
    11d8:	2598                	c.fld	fa4,8(a1)
    11da:	0000                	unimp
    11dc:	2598                	c.fld	fa4,8(a1)
    11de:	0000                	unimp
    11e0:	2598                	c.fld	fa4,8(a1)
    11e2:	0000                	unimp
    11e4:	2598                	c.fld	fa4,8(a1)
    11e6:	0000                	unimp
    11e8:	2598                	c.fld	fa4,8(a1)
    11ea:	0000                	unimp
    11ec:	2598                	c.fld	fa4,8(a1)
    11ee:	0000                	unimp
    11f0:	2598                	c.fld	fa4,8(a1)
    11f2:	0000                	unimp
    11f4:	2598                	c.fld	fa4,8(a1)
    11f6:	0000                	unimp
    11f8:	2598                	c.fld	fa4,8(a1)
    11fa:	0000                	unimp
    11fc:	2598                	c.fld	fa4,8(a1)
    11fe:	0000                	unimp
    1200:	0001                	c.nop
	...

00001204 <flash_read_uid.constprop.6>:
    1204:	1141                	c.addi	sp,-16
    1206:	c606                	c.swsp	ra,12(sp)
    1208:	872a                	c.mv	a4,a0
    120a:	7d047073          	csrci	mmisc_ctl,8
    120e:	47c1                	c.li	a5,16
    1210:	4691                	c.li	a3,4
    1212:	4601                	c.li	a2,0
    1214:	00000593          	li	a1,0
    1218:	04b00513          	li	a0,75
    121c:	aa8ff0ef          	jal	ra,4c4 <flash_mspi_read_ram>
    1220:	7d046073          	csrsi	mmisc_ctl,8
    1224:	40b2                	c.lwsp	ra,12(sp)
    1226:	0141                	c.addi	sp,16
    1228:	00008067          	ret

0000122c <flash_read_mid>:
    122c:	1101                	c.addi	sp,-32
    122e:	ce06                	c.swsp	ra,28(sp)
    1230:	c602                	c.swsp	zero,12(sp)
    1232:	7d047073          	csrci	mmisc_ctl,8
    1236:	478d                	c.li	a5,3
    1238:	0078                	c.addi4spn	a4,sp,12
    123a:	4681                	c.li	a3,0
    123c:	4601                	c.li	a2,0
    123e:	4581                	c.li	a1,0
    1240:	09f00513          	li	a0,159
    1244:	a80ff0ef          	jal	ra,4c4 <flash_mspi_read_ram>
    1248:	7d046073          	csrsi	mmisc_ctl,8
    124c:	40f2                	c.lwsp	ra,28(sp)
    124e:	4532                	c.lwsp	a0,12(sp)
    1250:	6105                	c.addi16sp	sp,32
    1252:	8082                	c.jr	ra

00001254 <flash_read_mid_uid_with_check>:
    1254:	829f978b          	addigp	a5,-2008 # 80028 <_DATA_VMA_START+0x28>
    1258:	4798                	c.lw	a4,8(a5)
    125a:	4390                	c.lw	a2,0(a5)
    125c:	43d4                	c.lw	a3,4(a5)
    125e:	47dc                	c.lw	a5,12(a5)
    1260:	1101                	c.addi	sp,-32
    1262:	cc22                	c.swsp	s0,24(sp)
    1264:	ca26                	c.swsp	s1,20(sp)
    1266:	842a                	c.mv	s0,a0
    1268:	c43a                	c.swsp	a4,8(sp)
    126a:	c63e                	c.swsp	a5,12(sp)
    126c:	ce06                	c.swsp	ra,28(sp)
    126e:	84ae                	c.mv	s1,a1
    1270:	c032                	c.swsp	a2,0(sp)
    1272:	c236                	c.swsp	a3,4(sp)
    1274:	fb9ff0ef          	jal	ra,122c <flash_read_mid>
    1278:	77c1                	c.lui	a5,0xffff0
    127a:	17fd                	c.addi	a5,-1
    127c:	00146737          	lui	a4,0x146
    1280:	c008                	c.sw	a0,0(s0)
    1282:	8fe9                	c.and	a5,a0
    1284:	08570713          	addi	a4,a4,133 # 146085 <FLASH_SIZE+0x46085>
    1288:	02e78063          	beq	a5,a4,12a8 <flash_read_mid_uid_with_check+0x54>
    128c:	00166737          	lui	a4,0x166
    1290:	08570713          	addi	a4,a4,133 # 166085 <FLASH_SIZE+0x66085>
    1294:	4781                	c.li	a5,0
    1296:	00e50963          	beq	a0,a4,12a8 <flash_read_mid_uid_with_check+0x54>
    129a:	40f2                	c.lwsp	ra,28(sp)
    129c:	4462                	c.lwsp	s0,24(sp)
    129e:	44d2                	c.lwsp	s1,20(sp)
    12a0:	853e                	c.mv	a0,a5
    12a2:	6105                	c.addi16sp	sp,32
    12a4:	00008067          	ret
    12a8:	8526                	c.mv	a0,s1
    12aa:	3fa9                	c.jal	1204 <flash_read_uid.constprop.6>
    12ac:	0004c783          	lbu	a5,0(s1)
    12b0:	00014603          	lbu	a2,0(sp)
    12b4:	0014c683          	lbu	a3,1(s1)
    12b8:	00114703          	lbu	a4,1(sp)
    12bc:	8f91                	c.sub	a5,a2
    12be:	0017b793          	seqz	a5,a5
    12c2:	00e69363          	bne	a3,a4,12c8 <flash_read_mid_uid_with_check+0x74>
    12c6:	0785                	c.addi	a5,1
    12c8:	0024c683          	lbu	a3,2(s1)
    12cc:	00214703          	lbu	a4,2(sp)
    12d0:	00e69463          	bne	a3,a4,12d8 <flash_read_mid_uid_with_check+0x84>
    12d4:	00178793          	addi	a5,a5,1 # ffff0001 <_DATA_LMA_START+0xdffe9fc9>
    12d8:	0034c683          	lbu	a3,3(s1)
    12dc:	00314703          	lbu	a4,3(sp)
    12e0:	00e69463          	bne	a3,a4,12e8 <flash_read_mid_uid_with_check+0x94>
    12e4:	00178793          	addi	a5,a5,1
    12e8:	0044c683          	lbu	a3,4(s1)
    12ec:	00414703          	lbu	a4,4(sp)
    12f0:	00e69463          	bne	a3,a4,12f8 <flash_read_mid_uid_with_check+0xa4>
    12f4:	00178793          	addi	a5,a5,1
    12f8:	0054c683          	lbu	a3,5(s1)
    12fc:	00514703          	lbu	a4,5(sp)
    1300:	00e69463          	bne	a3,a4,1308 <flash_read_mid_uid_with_check+0xb4>
    1304:	00178793          	addi	a5,a5,1
    1308:	0064c683          	lbu	a3,6(s1)
    130c:	00614703          	lbu	a4,6(sp)
    1310:	00e69463          	bne	a3,a4,1318 <flash_read_mid_uid_with_check+0xc4>
    1314:	00178793          	addi	a5,a5,1
    1318:	0074c683          	lbu	a3,7(s1)
    131c:	00714703          	lbu	a4,7(sp)
    1320:	00e69463          	bne	a3,a4,1328 <flash_read_mid_uid_with_check+0xd4>
    1324:	00178793          	addi	a5,a5,1
    1328:	0084c683          	lbu	a3,8(s1)
    132c:	00814703          	lbu	a4,8(sp)
    1330:	00e69463          	bne	a3,a4,1338 <flash_read_mid_uid_with_check+0xe4>
    1334:	00178793          	addi	a5,a5,1
    1338:	0094c683          	lbu	a3,9(s1)
    133c:	00914703          	lbu	a4,9(sp)
    1340:	00e69463          	bne	a3,a4,1348 <flash_read_mid_uid_with_check+0xf4>
    1344:	00178793          	addi	a5,a5,1
    1348:	00a4c683          	lbu	a3,10(s1)
    134c:	00a14703          	lbu	a4,10(sp)
    1350:	00e69463          	bne	a3,a4,1358 <flash_read_mid_uid_with_check+0x104>
    1354:	00178793          	addi	a5,a5,1
    1358:	00b4c683          	lbu	a3,11(s1)
    135c:	00b14703          	lbu	a4,11(sp)
    1360:	00e69463          	bne	a3,a4,1368 <flash_read_mid_uid_with_check+0x114>
    1364:	00178793          	addi	a5,a5,1
    1368:	00c4c683          	lbu	a3,12(s1)
    136c:	00c14703          	lbu	a4,12(sp)
    1370:	00e69463          	bne	a3,a4,1378 <flash_read_mid_uid_with_check+0x124>
    1374:	00178793          	addi	a5,a5,1
    1378:	00d4c683          	lbu	a3,13(s1)
    137c:	00d14703          	lbu	a4,13(sp)
    1380:	00e69463          	bne	a3,a4,1388 <flash_read_mid_uid_with_check+0x134>
    1384:	00178793          	addi	a5,a5,1
    1388:	00e4c683          	lbu	a3,14(s1)
    138c:	00e14703          	lbu	a4,14(sp)
    1390:	00e69463          	bne	a3,a4,1398 <flash_read_mid_uid_with_check+0x144>
    1394:	00178793          	addi	a5,a5,1
    1398:	00f14683          	lbu	a3,15(sp)
    139c:	00f4c703          	lbu	a4,15(s1)
    13a0:	00e69463          	bne	a3,a4,13a8 <flash_read_mid_uid_with_check+0x154>
    13a4:	00178793          	addi	a5,a5,1
    13a8:	40f2                	c.lwsp	ra,28(sp)
    13aa:	4462                	c.lwsp	s0,24(sp)
    13ac:	17c1                	c.addi	a5,-16
    13ae:	00f037b3          	snez	a5,a5
    13b2:	44d2                	c.lwsp	s1,20(sp)
    13b4:	853e                	c.mv	a0,a5
    13b6:	6105                	c.addi16sp	sp,32
    13b8:	00008067          	ret

000013bc <flash_dread>:
    13bc:	1141                	c.addi	sp,-16
    13be:	c606                	c.swsp	ra,12(sp)
    13c0:	87b2                	c.mv	a5,a2
    13c2:	7d047073          	csrci	mmisc_ctl,8
    13c6:	862e                	c.mv	a2,a1
    13c8:	00f005b3          	add	a1,zero,a5
    13cc:	a78ff0ef          	jal	ra,644 <flash_mspi_read_ram.constprop.7>
    13d0:	7d046073          	csrsi	mmisc_ctl,8
    13d4:	40b2                	c.lwsp	ra,12(sp)
    13d6:	0141                	c.addi	sp,16
    13d8:	00008067          	ret

000013dc <clock_init.constprop.10>:
    13dc:	1141                	c.addi	sp,-16
    13de:	c606                	c.swsp	ra,12(sp)
    13e0:	7d047073          	csrci	mmisc_ctl,8
    13e4:	c3cff0ef          	jal	ra,820 <clock_init_ram.constprop.11>
    13e8:	7d046073          	csrsi	mmisc_ctl,8
    13ec:	40b2                	c.lwsp	ra,12(sp)
    13ee:	0141                	c.addi	sp,16
    13f0:	00008067          	ret

000013f4 <pm_sleep_wakeup.constprop.2>:
    13f4:	1141                	c.addi	sp,-16
    13f6:	c606                	c.swsp	ra,12(sp)
    13f8:	7d047073          	csrci	mmisc_ctl,8
    13fc:	8cdff0ef          	jal	ra,cc8 <pm_sleep_wakeup_ram.constprop.3>
    1400:	7d046073          	csrsi	mmisc_ctl,8
    1404:	40b2                	c.lwsp	ra,12(sp)
    1406:	0141                	c.addi	sp,16
    1408:	8082                	c.jr	ra
    140a:	0001                	c.nop

0000140c <user_calib_adc_vref.constprop.9>:
    140c:	1101                	c.addi	sp,-32
    140e:	ce06                	c.swsp	ra,28(sp)
    1410:	c402                	c.swsp	zero,8(sp)
    1412:	00011623          	sh	zero,12(sp)
    1416:	00010723          	sb	zero,14(sp)
    141a:	c54d                	c.beqz	a0,14c4 <user_calib_adc_vref.constprop.9+0xb8>
    141c:	000007b7          	lui	a5,0x0
    1420:	1587a783          	lw	a5,344(a5) # 158 <_AES_VMA_END>
    1424:	0030                	c.addi4spn	a2,sp,8
    1426:	459d                	c.li	a1,7
    1428:	9782                	c.jalr	a5
    142a:	00c14783          	lbu	a5,12(sp)
    142e:	1c07b75b          	bfos	a4,a5,7,0
    1432:	04074163          	bltz	a4,1474 <user_calib_adc_vref.constprop.9+0x68>
    1436:	00e14703          	lbu	a4,14(sp)
    143a:	00d14603          	lbu	a2,13(sp)
    143e:	0722                	c.slli	a4,0x8
    1440:	66c1                	c.lui	a3,0x10
    1442:	00c705b3          	add	a1,a4,a2
    1446:	16fd                	c.addi	a3,-1
    1448:	02d58663          	beq	a1,a3,1474 <user_calib_adc_vref.constprop.9+0x68>
    144c:	fd060613          	addi	a2,a2,-48
    1450:	9732                	c.add	a4,a2
    1452:	3c07275b          	bfoz	a4,a4,15,0
    1456:	0fb00693          	li	a3,251
    145a:	08e6e563          	bltu	a3,a4,14e4 <user_calib_adc_vref.constprop.9+0xd8>
    145e:	17b1                	c.addi	a5,-20
    1460:	1c07b7db          	bfos	a5,a5,7,0
    1464:	5731                	c.li	a4,-20
    1466:	06e78f63          	beq	a5,a4,14e4 <user_calib_adc_vref.constprop.9+0xd8>
    146a:	f9578513          	addi	a0,a5,-107
    146e:	00a03533          	snez	a0,a0
    1472:	a89d                	c.j	14e8 <user_calib_adc_vref.constprop.9+0xdc>
    1474:	801407b7          	lui	a5,0x80140
    1478:	06500713          	li	a4,101
    147c:	1ee78a23          	sb	a4,500(a5) # 801401f4 <_DATA_LMA_START+0x6013a1bc>
    1480:	1c87a703          	lw	a4,456(a5)
    1484:	1e078a23          	sb	zero,500(a5)
    1488:	4c47275b          	bfoz	a4,a4,19,4
    148c:	380727db          	bfoz	a5,a4,14,0
    1490:	06078063          	beqz	a5,14f0 <user_calib_adc_vref.constprop.9+0xe4>
    1494:	1ff77713          	andi	a4,a4,511
    1498:	f9b70713          	addi	a4,a4,-101
    149c:	3c07275b          	bfoz	a4,a4,15,0
    14a0:	0c600693          	li	a3,198
    14a4:	04e6e063          	bltu	a3,a4,14e4 <user_calib_adc_vref.constprop.9+0xd8>
    14a8:	0097d513          	srli	a0,a5,0x9
    14ac:	1531                	c.addi	a0,-20
    14ae:	1c05355b          	bfos	a0,a0,7,0
    14b2:	57b1                	c.li	a5,-20
    14b4:	02f50863          	beq	a0,a5,14e4 <user_calib_adc_vref.constprop.9+0xd8>
    14b8:	fd550513          	addi	a0,a0,-43 # 3fffffd5 <_DATA_LMA_START+0x1fff9f9d>
    14bc:	00a03533          	snez	a0,a0
    14c0:	0280006f          	j	14e8 <user_calib_adc_vref.constprop.9+0xdc>
    14c4:	801407b7          	lui	a5,0x80140
    14c8:	06500713          	li	a4,101
    14cc:	1ee78a23          	sb	a4,500(a5) # 801401f4 <_DATA_LMA_START+0x6013a1bc>
    14d0:	1c87a703          	lw	a4,456(a5)
    14d4:	1e078a23          	sb	zero,500(a5)
    14d8:	4c47275b          	bfoz	a4,a4,19,4
    14dc:	380727db          	bfoz	a5,a4,14,0
    14e0:	fa079ae3          	bnez	a5,1494 <user_calib_adc_vref.constprop.9+0x88>
    14e4:	00000513          	li	a0,0
    14e8:	40f2                	c.lwsp	ra,28(sp)
    14ea:	6105                	c.addi16sp	sp,32
    14ec:	00008067          	ret
    14f0:	00814503          	lbu	a0,8(sp)
    14f4:	00914783          	lbu	a5,9(sp)
    14f8:	953e                	c.add	a0,a5
    14fa:	f8050513          	addi	a0,a0,-128
    14fe:	3c05255b          	bfoz	a0,a0,15,0
    1502:	0fc53513          	sltiu	a0,a0,252
    1506:	b7cd                	c.j	14e8 <user_calib_adc_vref.constprop.9+0xdc>

00001508 <measure_stack_usage>:
    1508:	850a                	c.mv	a0,sp
    150a:	0009f7b7          	lui	a5,0x9f
    150e:	02a7f763          	bgeu	a5,a0,153c <measure_stack_usage+0x34>
    1512:	4394                	c.lw	a3,0(a5)
    1514:	aaaab7b7          	lui	a5,0xaaaab
    1518:	aaa78793          	addi	a5,a5,-1366 # aaaaaaaa <_DATA_LMA_START+0x8aaa4a72>
    151c:	02f69063          	bne	a3,a5,153c <measure_stack_usage+0x34>
    1520:	0009f7b7          	lui	a5,0x9f
    1524:	00c0006f          	j	1530 <measure_stack_usage+0x28>
    1528:	0007a703          	lw	a4,0(a5) # 9f000 <_end+0x18568>
    152c:	00d71663          	bne	a4,a3,1538 <measure_stack_usage+0x30>
    1530:	00478793          	addi	a5,a5,4
    1534:	fea7eae3          	bltu	a5,a0,1528 <measure_stack_usage+0x20>
    1538:	8d1d                	c.sub	a0,a5
    153a:	8082                	c.jr	ra
    153c:	0009f7b7          	lui	a5,0x9f
    1540:	bfe5                	c.j	1538 <measure_stack_usage+0x30>
    1542:	0001                	c.nop

00001544 <fill_stack_pattern_to_sp>:
    1544:	860a                	c.mv	a2,sp
    1546:	0009f7b7          	lui	a5,0x9f
    154a:	00c7ff63          	bgeu	a5,a2,1568 <fill_stack_pattern_to_sp+0x24>
    154e:	fff617b7          	lui	a5,0xfff61
    1552:	17fd                	c.addi	a5,-1
    1554:	963e                	c.add	a2,a5
    1556:	9a71                	c.andi	a2,-4
    1558:	00460613          	addi	a2,a2,4
    155c:	0aa00593          	li	a1,170
    1560:	0009f537          	lui	a0,0x9f
    1564:	27d0306f          	j	4fe0 <memset>
    1568:	8082                	c.jr	ra
	...

0000156c <user_calib_freq_offset.constprop.8>:
    156c:	000007b7          	lui	a5,0x0
    1570:	1101                	c.addi	sp,-32
    1572:	1587a783          	lw	a5,344(a5) # 158 <_AES_VMA_END>
    1576:	577d                	c.li	a4,-1
    1578:	00f10613          	addi	a2,sp,15
    157c:	4585                	c.li	a1,1
    157e:	cc22                	c.swsp	s0,24(sp)
    1580:	ce06                	c.swsp	ra,28(sp)
    1582:	00e107a3          	sb	a4,15(sp)
    1586:	9782                	c.jalr	a5
    1588:	00f14403          	lbu	s0,15(sp)
    158c:	0ff00793          	li	a5,255
    1590:	00000513          	li	a0,0
    1594:	02f40263          	beq	s0,a5,15b8 <user_calib_freq_offset.constprop.8+0x4c>
    1598:	08a00513          	li	a0,138
    159c:	a38ff0ef          	jal	ra,7d4 <analog_read_reg8>
    15a0:	03f47413          	andi	s0,s0,63
    15a4:	04057593          	andi	a1,a0,64
    15a8:	0085e5b3          	or	a1,a1,s0
    15ac:	08a00513          	li	a0,138
    15b0:	9e0ff0ef          	jal	ra,790 <analog_write_reg8>
    15b4:	00100513          	li	a0,1
    15b8:	40f2                	c.lwsp	ra,28(sp)
    15ba:	4462                	c.lwsp	s0,24(sp)
    15bc:	6105                	c.addi16sp	sp,32
    15be:	8082                	c.jr	ra
    15c0:	0001                	c.nop
	...

000015c4 <gpio_input_dis>:
    15c4:	801407b7          	lui	a5,0x80140
    15c8:	30978703          	lb	a4,777(a5) # 80140309 <_DATA_LMA_START+0x6013a2d1>
    15cc:	fff54513          	not	a0,a0
    15d0:	8d79                	c.and	a0,a4
    15d2:	0ff57513          	andi	a0,a0,255
    15d6:	30a784a3          	sb	a0,777(a5)
    15da:	8082                	c.jr	ra
    15dc:	0001                	c.nop
	...

000015e0 <reset_counters>:
    15e0:	b0005073          	csrwi	mcycle,0
    15e4:	b0205073          	csrwi	minstret,0
    15e8:	8082                	c.jr	ra
	...

000015ec <validate>:
    15ec:	1101                	c.addi	sp,-32
    15ee:	cc22                	c.swsp	s0,24(sp)
    15f0:	ca26                	c.swsp	s1,20(sp)
    15f2:	c84a                	c.swsp	s2,16(sp)
    15f4:	c64e                	c.swsp	s3,12(sp)
    15f6:	c452                	c.swsp	s4,8(sp)
    15f8:	c256                	c.swsp	s5,4(sp)
    15fa:	c05a                	c.swsp	s6,0(sp)
    15fc:	89b2                	c.mv	s3,a2
    15fe:	892a                	c.mv	s2,a0
    1600:	84ae                	c.mv	s1,a1
    1602:	4401                	c.li	s0,0
    1604:	4a01                	c.li	s4,0
    1606:	4b05                	c.li	s6,1
    1608:	00087ab7          	lui	s5,0x87
    160c:	00112e23          	sw	ra,28(sp)
    1610:	00090703          	lb	a4,0(s2)
    1614:	00048783          	lb	a5,0(s1)
    1618:	85a2                	c.mv	a1,s0
    161a:	86be                	c.mv	a3,a5
    161c:	0405                	c.addi	s0,1
    161e:	863a                	c.mv	a2,a4
    1620:	990a8513          	addi	a0,s5,-1648 # 86990 <fully_connected_weights+0x5dc>
    1624:	00f70663          	beq	a4,a5,1630 <validate+0x44>
    1628:	0a05                	c.addi	s4,1
    162a:	4b01                	c.li	s6,0
    162c:	39f030ef          	jal	ra,51ca <printf>
    1630:	0905                	c.addi	s2,1
    1632:	0485                	c.addi	s1,1
    1634:	fc899ee3          	bne	s3,s0,1610 <validate+0x24>
    1638:	000b1a63          	bnez	s6,164c <validate+0x60>
    163c:	00087537          	lui	a0,0x87
    1640:	864e                	c.mv	a2,s3
    1642:	85d2                	c.mv	a1,s4
    1644:	9b450513          	addi	a0,a0,-1612 # 869b4 <fully_connected_weights+0x600>
    1648:	383030ef          	jal	ra,51ca <printf>
    164c:	40f2                	c.lwsp	ra,28(sp)
    164e:	4462                	c.lwsp	s0,24(sp)
    1650:	855a                	c.mv	a0,s6
    1652:	44d2                	c.lwsp	s1,20(sp)
    1654:	4942                	c.lwsp	s2,16(sp)
    1656:	49b2                	c.lwsp	s3,12(sp)
    1658:	4a22                	c.lwsp	s4,8(sp)
    165a:	4a92                	c.lwsp	s5,4(sp)
    165c:	4b02                	c.lwsp	s6,0(sp)
    165e:	6105                	c.addi16sp	sp,32
    1660:	8082                	c.jr	ra
	...

00001664 <validate_s16>:
    1664:	1101                	c.addi	sp,-32
    1666:	cc22                	c.swsp	s0,24(sp)
    1668:	ca26                	c.swsp	s1,20(sp)
    166a:	c84a                	c.swsp	s2,16(sp)
    166c:	c64e                	c.swsp	s3,12(sp)
    166e:	c452                	c.swsp	s4,8(sp)
    1670:	c256                	c.swsp	s5,4(sp)
    1672:	c05a                	c.swsp	s6,0(sp)
    1674:	89b2                	c.mv	s3,a2
    1676:	892a                	c.mv	s2,a0
    1678:	84ae                	c.mv	s1,a1
    167a:	4401                	c.li	s0,0
    167c:	4a01                	c.li	s4,0
    167e:	4b05                	c.li	s6,1
    1680:	00087ab7          	lui	s5,0x87
    1684:	00112e23          	sw	ra,28(sp)
    1688:	00091703          	lh	a4,0(s2)
    168c:	00049783          	lh	a5,0(s1)
    1690:	85a2                	c.mv	a1,s0
    1692:	86be                	c.mv	a3,a5
    1694:	0405                	c.addi	s0,1
    1696:	863a                	c.mv	a2,a4
    1698:	990a8513          	addi	a0,s5,-1648 # 86990 <fully_connected_weights+0x5dc>
    169c:	00f70663          	beq	a4,a5,16a8 <validate_s16+0x44>
    16a0:	0a05                	c.addi	s4,1
    16a2:	4b01                	c.li	s6,0
    16a4:	327030ef          	jal	ra,51ca <printf>
    16a8:	0909                	c.addi	s2,2
    16aa:	0489                	c.addi	s1,2
    16ac:	fc899ee3          	bne	s3,s0,1688 <validate_s16+0x24>
    16b0:	000b1a63          	bnez	s6,16c4 <validate_s16+0x60>
    16b4:	00087537          	lui	a0,0x87
    16b8:	864e                	c.mv	a2,s3
    16ba:	85d2                	c.mv	a1,s4
    16bc:	9b450513          	addi	a0,a0,-1612 # 869b4 <fully_connected_weights+0x600>
    16c0:	30b030ef          	jal	ra,51ca <printf>
    16c4:	40f2                	c.lwsp	ra,28(sp)
    16c6:	4462                	c.lwsp	s0,24(sp)
    16c8:	855a                	c.mv	a0,s6
    16ca:	44d2                	c.lwsp	s1,20(sp)
    16cc:	4942                	c.lwsp	s2,16(sp)
    16ce:	49b2                	c.lwsp	s3,12(sp)
    16d0:	4a22                	c.lwsp	s4,8(sp)
    16d2:	4a92                	c.lwsp	s5,4(sp)
    16d4:	4b02                	c.lwsp	s6,0(sp)
    16d6:	6105                	c.addi16sp	sp,32
    16d8:	8082                	c.jr	ra
	...

000016dc <_write>:
    16dc:	1141                	c.addi	sp,-16
    16de:	c606                	c.swsp	ra,12(sp)
    16e0:	c422                	c.swsp	s0,8(sp)
    16e2:	c226                	c.swsp	s1,4(sp)
    16e4:	c04a                	c.swsp	s2,0(sp)
    16e6:	02c05763          	blez	a2,1714 <_write+0x38>
    16ea:	8932                	c.mv	s2,a2
    16ec:	00b00433          	add	s0,zero,a1
    16f0:	00c584b3          	add	s1,a1,a2
    16f4:	00044503          	lbu	a0,0(s0)
    16f8:	00140413          	addi	s0,s0,1
    16fc:	cacff0ef          	jal	ra,ba8 <dr_putchar>
    1700:	fe941ae3          	bne	s0,s1,16f4 <_write+0x18>
    1704:	40b2                	c.lwsp	ra,12(sp)
    1706:	4422                	c.lwsp	s0,8(sp)
    1708:	854a                	c.mv	a0,s2
    170a:	4492                	c.lwsp	s1,4(sp)
    170c:	4902                	c.lwsp	s2,0(sp)
    170e:	0141                	c.addi	sp,16
    1710:	00008067          	ret
    1714:	40b2                	c.lwsp	ra,12(sp)
    1716:	4422                	c.lwsp	s0,8(sp)
    1718:	4901                	c.li	s2,0
    171a:	854a                	c.mv	a0,s2
    171c:	4492                	c.lwsp	s1,4(sp)
    171e:	4902                	c.lwsp	s2,0(sp)
    1720:	0141                	c.addi	sp,16
    1722:	8082                	c.jr	ra

00001724 <main>:
    1724:	7169                	c.addi16sp	sp,-304
    1726:	ffbc07b7          	lui	a5,0xffbc0
    172a:	12112623          	sw	ra,300(sp)
    172e:	17fd                	c.addi	a5,-1
    1730:	80140737          	lui	a4,0x80140
    1734:	12812423          	sw	s0,296(sp)
    1738:	12912223          	sw	s1,292(sp)
    173c:	13212023          	sw	s2,288(sp)
    1740:	11312e23          	sw	s3,284(sp)
    1744:	11412c23          	sw	s4,280(sp)
    1748:	11512a23          	sw	s5,276(sp)
    174c:	11612823          	sw	s6,272(sp)
    1750:	11712623          	sw	s7,268(sp)
    1754:	11812423          	sw	s8,264(sp)
    1758:	11912223          	sw	s9,260(sp)
    175c:	11a12023          	sw	s10,256(sp)
    1760:	dfee                	c.swsp	s11,252(sp)
    1762:	f7a2                	c.fswsp	fs0,236(sp)
    1764:	1ef72023          	sw	a5,480(a4) # 801401e0 <_DATA_LMA_START+0x6013a1a8>
    1768:	00200593          	li	a1,2
    176c:	08c00513          	li	a0,140
    1770:	1ef72223          	sw	a5,484(a4)
    1774:	81cff0ef          	jal	ra,790 <analog_write_reg8>
    1778:	4581                	c.li	a1,0
    177a:	4529                	c.li	a0,10
    177c:	814ff0ef          	jal	ra,790 <analog_write_reg8>
    1780:	03b00593          	li	a1,59
    1784:	00b00513          	li	a0,11
    1788:	808ff0ef          	jal	ra,790 <analog_write_reg8>
    178c:	00500513          	li	a0,5
    1790:	844ff0ef          	jal	ra,7d4 <analog_read_reg8>
    1794:	0f757593          	andi	a1,a0,247
    1798:	00500513          	li	a0,5
    179c:	ff5fe0ef          	jal	ra,790 <analog_write_reg8>
    17a0:	00600513          	li	a0,6
    17a4:	830ff0ef          	jal	ra,7d4 <analog_read_reg8>
    17a8:	03e57593          	andi	a1,a0,62
    17ac:	00600513          	li	a0,6
    17b0:	fe1fe0ef          	jal	ra,790 <analog_write_reg8>
    17b4:	04500593          	li	a1,69
    17b8:	00100513          	li	a0,1
    17bc:	fd5fe0ef          	jal	ra,790 <analog_write_reg8>
    17c0:	04c00593          	li	a1,76
    17c4:	01c00513          	li	a0,28
    17c8:	fc9fe0ef          	jal	ra,790 <analog_write_reg8>
    17cc:	801007b7          	lui	a5,0x80100
    17d0:	44478703          	lb	a4,1092(a5) # 80100444 <_DATA_LMA_START+0x600fa40c>
    17d4:	801016b7          	lui	a3,0x80101
    17d8:	0ff77713          	andi	a4,a4,255
    17dc:	00e76713          	ori	a4,a4,14
    17e0:	44e78223          	sb	a4,1092(a5)
    17e4:	45878703          	lb	a4,1112(a5)
    17e8:	03800513          	li	a0,56
    17ec:	0ff77713          	andi	a4,a4,255
    17f0:	00e76713          	ori	a4,a4,14
    17f4:	44e78c23          	sb	a4,1112(a5)
    17f8:	46c78703          	lb	a4,1132(a5)
    17fc:	0ff77713          	andi	a4,a4,255
    1800:	00e76713          	ori	a4,a4,14
    1804:	46e78623          	sb	a4,1132(a5)
    1808:	48078703          	lb	a4,1152(a5)
    180c:	0ff77713          	andi	a4,a4,255
    1810:	00e76713          	ori	a4,a4,14
    1814:	48e78023          	sb	a4,1152(a5)
    1818:	49478703          	lb	a4,1172(a5)
    181c:	0ff77713          	andi	a4,a4,255
    1820:	00e76713          	ori	a4,a4,14
    1824:	48e78a23          	sb	a4,1172(a5)
    1828:	4a878703          	lb	a4,1192(a5)
    182c:	0ff77713          	andi	a4,a4,255
    1830:	00e76713          	ori	a4,a4,14
    1834:	4ae78423          	sb	a4,1192(a5)
    1838:	4bc78703          	lb	a4,1212(a5)
    183c:	0ff77713          	andi	a4,a4,255
    1840:	00e76713          	ori	a4,a4,14
    1844:	4ae78e23          	sb	a4,1212(a5)
    1848:	4d078703          	lb	a4,1232(a5)
    184c:	0ff77713          	andi	a4,a4,255
    1850:	00e76713          	ori	a4,a4,14
    1854:	4ce78823          	sb	a4,1232(a5)
    1858:	83a68783          	lb	a5,-1990(a3) # 8010083a <_DATA_LMA_START+0x600fa802>
    185c:	82068d23          	sb	zero,-1990(a3)
    1860:	f75fe0ef          	jal	ra,7d4 <analog_read_reg8>
    1864:	00a00433          	add	s0,zero,a0
    1868:	03900513          	li	a0,57
    186c:	f69fe0ef          	jal	ra,7d4 <analog_read_reg8>
    1870:	84aa                	c.mv	s1,a0
    1872:	1804715b          	bbc	s0,0,19f4 <main+0x2d0>
    1876:	0fe47593          	andi	a1,s0,254
    187a:	24cc140b          	addigp	s0,25164 # 86a4c <g_pm_status_info>
    187e:	03800513          	li	a0,56
    1882:	1404f95b          	bbc	s1,0,19d4 <main+0x2b0>
    1886:	4791                	c.li	a5,4
    1888:	00f40123          	sb	a5,2(s0)
    188c:	f05fe0ef          	jal	ra,790 <analog_write_reg8>
    1890:	00100593          	li	a1,1
    1894:	07f00513          	li	a0,127
    1898:	ef9fe0ef          	jal	ra,790 <analog_write_reg8>
    189c:	06400513          	li	a0,100
    18a0:	f35fe0ef          	jal	ra,7d4 <analog_read_reg8>
    18a4:	0c3527db          	bfoz	a5,a0,3,3
    18a8:	00a400a3          	sb	a0,1(s0)
    18ac:	00f40023          	sb	a5,0(s0)
    18b0:	08800513          	li	a0,136
    18b4:	f21fe0ef          	jal	ra,7d4 <analog_read_reg8>
    18b8:	be757c5b          	bbc	a0,7,18b0 <main+0x18c>
    18bc:	8a4ff0ef          	jal	ra,960 <pm_wait_bbpll_done>
    18c0:	00244783          	lbu	a5,2(s0)
    18c4:	0a87dc5b          	beqc	a5,8,197c <main+0x258>
    18c8:	80140737          	lui	a4,0x80140
    18cc:	20a70783          	lb	a5,522(a4) # 8014020a <_DATA_LMA_START+0x6013a1d2>
    18d0:	0ff7f793          	andi	a5,a5,255
    18d4:	00c7e793          	ori	a5,a5,12
    18d8:	20f70523          	sb	a5,522(a4)
    18dc:	00100793          	li	a5,1
    18e0:	20f72023          	sw	a5,512(a4)
    18e4:	801404b7          	lui	s1,0x80140
    18e8:	1fd48783          	lb	a5,509(s1) # 801401fd <_DATA_LMA_START+0x6013a1c5>
    18ec:	0ff7f793          	andi	a5,a5,255
    18f0:	24fc442b          	swgp	a5,25160 # 86a48 <g_chip_version>
    18f4:	00244703          	lbu	a4,2(s0)
    18f8:	04475c5b          	beqc	a4,4,1950 <main+0x22c>
    18fc:	0ff00693          	li	a3,255
    1900:	04d78063          	beq	a5,a3,1940 <main+0x21c>
    1904:	08000593          	li	a1,128
    1908:	07d00513          	li	a0,125
    190c:	e85fe0ef          	jal	ra,790 <analog_write_reg8>
    1910:	80140737          	lui	a4,0x80140
    1914:	06500793          	li	a5,101
    1918:	1ef70a23          	sb	a5,500(a4) # 801401f4 <_DATA_LMA_START+0x6013a1bc>
    191c:	1c872783          	lw	a5,456(a4)
    1920:	1e070a23          	sb	zero,500(a4)
    1924:	8bbd                	c.andi	a5,15
    1926:	0037d55b          	beqc	a5,3,1930 <main+0x20c>
    192a:	4725                	c.li	a4,9
    192c:	04f77c63          	bgeu	a4,a5,1984 <main+0x260>
    1930:	801407b7          	lui	a5,0x80140
    1934:	02000713          	li	a4,32
    1938:	1ee787a3          	sb	a4,495(a5) # 801401ef <_DATA_LMA_START+0x6013a1b7>
    193c:	0000006f          	j	193c <main+0x218>
    1940:	bc17625b          	bnec	a4,1,1904 <main+0x1e0>
    1944:	07d00513          	li	a0,125
    1948:	08000593          	li	a1,128
    194c:	0180006f          	j	1964 <main+0x240>
    1950:	03900513          	li	a0,57
    1954:	e81fe0ef          	jal	ra,7d4 <analog_read_reg8>
    1958:	00256593          	ori	a1,a0,2
    195c:	0ff5f593          	andi	a1,a1,255
    1960:	03900513          	li	a0,57
    1964:	e2dfe0ef          	jal	ra,790 <analog_write_reg8>
    1968:	2004a503          	lw	a0,512(s1)
    196c:	001877b7          	lui	a5,0x187
    1970:	a0078793          	addi	a5,a5,-1536 # 186a00 <FLASH_SIZE+0x86a00>
    1974:	953e                	c.add	a0,a5
    1976:	3cbd                	c.jal	13f4 <pm_sleep_wakeup.constprop.2>
    1978:	f8dff06f          	j	1904 <main+0x1e0>
    197c:	a01fe0ef          	jal	ra,37c <pm_stimer_recover>
    1980:	f65ff06f          	j	18e4 <main+0x1c0>
    1984:	00f00513          	li	a0,15
    1988:	e4dfe0ef          	jal	ra,7d4 <analog_read_reg8>
    198c:	03f57593          	andi	a1,a0,63
    1990:	0405e593          	ori	a1,a1,64
    1994:	00f00513          	li	a0,15
    1998:	df9fe0ef          	jal	ra,790 <analog_write_reg8>
    199c:	0960                	c.addi4spn	s0,sp,156
    199e:	85a2                	c.mv	a1,s0
    19a0:	08810513          	addi	a0,sp,136
    19a4:	8b1ff0ef          	jal	ra,1254 <flash_read_mid_uid_with_check>
    19a8:	0ff57513          	andi	a0,a0,255
    19ac:	0015545b          	beqc	a0,1,19b4 <main+0x290>
    19b0:	3d90006f          	j	2588 <main+0xe64>
    19b4:	08a10783          	lb	a5,138(sp)
    19b8:	4719                	c.li	a4,6
    19ba:	17c1                	c.addi	a5,-16
    19bc:	0ff7f793          	andi	a5,a5,255
    19c0:	00f77463          	bgeu	a4,a5,19c8 <main+0x2a4>
    19c4:	3c50006f          	j	2588 <main+0xe64>
    19c8:	80df970b          	addigp	a4,-2036 # 8000c <_DATA_VMA_START+0xc>
    19cc:	0cf707db          	lea.w	a5,a4,a5
    19d0:	439c                	c.lw	a5,0(a5)
    19d2:	8782                	c.jr	a5
    19d4:	00100793          	li	a5,1
    19d8:	00f40123          	sb	a5,2(s0)
    19dc:	db5fe0ef          	jal	ra,790 <analog_write_reg8>
    19e0:	0014e593          	ori	a1,s1,1
    19e4:	0ff5f593          	andi	a1,a1,255
    19e8:	03900513          	li	a0,57
    19ec:	da5fe0ef          	jal	ra,790 <analog_write_reg8>
    19f0:	ea1ff06f          	j	1890 <main+0x16c>
    19f4:	07f00513          	li	a0,127
    19f8:	dddfe0ef          	jal	ra,7d4 <analog_read_reg8>
    19fc:	24cc140b          	addigp	s0,25164 # 86a4c <g_pm_status_info>
    1a00:	4005745b          	bbs	a0,0,1a08 <main+0x2e4>
    1a04:	3010006f          	j	2504 <main+0xde0>
    1a08:	0014f45b          	bbc	s1,1,1a10 <main+0x2ec>
    1a0c:	2e10006f          	j	24ec <main+0xdc8>
    1a10:	47c1                	c.li	a5,16
    1a12:	00f40123          	sb	a5,2(s0)
    1a16:	bdad                	c.j	1890 <main+0x16c>
    1a18:	003fe537          	lui	a0,0x3fe
    1a1c:	0c050513          	addi	a0,a0,192 # 3fe0c0 <FLASH_SIZE+0x2fe0c0>
    1a20:	9edff0ef          	jal	ra,140c <user_calib_adc_vref.constprop.9>
    1a24:	003fe537          	lui	a0,0x3fe
    1a28:	b45ff0ef          	jal	ra,156c <user_calib_freq_offset.constprop.8>
    1a2c:	801404b7          	lui	s1,0x80140
    1a30:	9adff0ef          	jal	ra,13dc <clock_init.constprop.10>
    1a34:	30e48783          	lb	a5,782(s1) # 8014030e <_DATA_LMA_START+0x6013a2d6>
    1a38:	11000513          	li	a0,272
    1a3c:	0ff7f793          	andi	a5,a5,255
    1a40:	0107e793          	ori	a5,a5,16
    1a44:	30f48723          	sb	a5,782(s1)
    1a48:	30a48783          	lb	a5,778(s1)
    1a4c:	0ef7f793          	andi	a5,a5,239
    1a50:	30f48523          	sb	a5,778(s1)
    1a54:	b71ff0ef          	jal	ra,15c4 <gpio_input_dis>
    1a58:	30e48783          	lb	a5,782(s1)
    1a5c:	12000513          	li	a0,288
    1a60:	0ff7f793          	andi	a5,a5,255
    1a64:	0207e793          	ori	a5,a5,32
    1a68:	30f48723          	sb	a5,782(s1)
    1a6c:	30a48783          	lb	a5,778(s1)
    1a70:	0df7f793          	andi	a5,a5,223
    1a74:	30f48523          	sb	a5,778(s1)
    1a78:	b4dff0ef          	jal	ra,15c4 <gpio_input_dis>
    1a7c:	30e48783          	lb	a5,782(s1)
    1a80:	14000513          	li	a0,320
    1a84:	0ff7f793          	andi	a5,a5,255
    1a88:	0407e793          	ori	a5,a5,64
    1a8c:	30f48723          	sb	a5,782(s1)
    1a90:	30a48783          	lb	a5,778(s1)
    1a94:	0bf7f793          	andi	a5,a5,191
    1a98:	30f48523          	sb	a5,778(s1)
    1a9c:	b29ff0ef          	jal	ra,15c4 <gpio_input_dis>
    1aa0:	30e48783          	lb	a5,782(s1)
    1aa4:	18000513          	li	a0,384
    1aa8:	f807e793          	ori	a5,a5,-128
    1aac:	0ff7f793          	andi	a5,a5,255
    1ab0:	30f48723          	sb	a5,782(s1)
    1ab4:	30a48783          	lb	a5,778(s1)
    1ab8:	07f7f793          	andi	a5,a5,127
    1abc:	30f48523          	sb	a5,778(s1)
    1ac0:	b05ff0ef          	jal	ra,15c4 <gpio_input_dis>
    1ac4:	00086537          	lui	a0,0x86
    1ac8:	42c50513          	addi	a0,a0,1068 # 8642c <fully_connected_weights+0x78>
    1acc:	71c030ef          	jal	ra,51e8 <puts>
    1ad0:	65a9                	c.lui	a1,0xa
    1ad2:	00086537          	lui	a0,0x86
    1ad6:	0585                	c.addi	a1,1
    1ad8:	43050513          	addi	a0,a0,1072 # 86430 <fully_connected_weights+0x7c>
    1adc:	6ee030ef          	jal	ra,51ca <printf>
    1ae0:	00086537          	lui	a0,0x86
    1ae4:	7e400593          	li	a1,2020
    1ae8:	44850513          	addi	a0,a0,1096 # 86448 <fully_connected_weights+0x94>
    1aec:	6de030ef          	jal	ra,51ca <printf>
    1af0:	000865b7          	lui	a1,0x86
    1af4:	00086537          	lui	a0,0x86
    1af8:	46058593          	addi	a1,a1,1120 # 86460 <fully_connected_weights+0xac>
    1afc:	46c50513          	addi	a0,a0,1132 # 8646c <fully_connected_weights+0xb8>
    1b00:	6ca030ef          	jal	ra,51ca <printf>
    1b04:	efcfe0ef          	jal	ra,200 <delay_ms.constprop.12>
    1b08:	300027f3          	csrr	a5,mstatus
    1b0c:	0037f65b          	bbc	a5,3,1b18 <main+0x3f4>
    1b10:	300477f3          	csrrci	a5,mstatus,8
    1b14:	0ff0000f          	fence
    1b18:	226c250b          	lbugp	a0,25126 # 86a26 <sys_clk+0x2>
    1b1c:	318030ef          	jal	ra,4e34 <__floatsidf>
    1b20:	000807b7          	lui	a5,0x80
    1b24:	00078793          	mv	a5,a5
    1b28:	4390                	c.lw	a2,0(a5)
    1b2a:	43d4                	c.lw	a3,4(a5)
    1b2c:	000864b7          	lui	s1,0x86
    1b30:	421020ef          	jal	ra,4750 <__muldf3>
    1b34:	230c190b          	addigp	s2,25136 # 86a30 <_DATA_VMA_END>
    1b38:	264030ef          	jal	ra,4d9c <__fixunsdfsi>
    1b3c:	00a92023          	sw	a0,0(s2)
    1b40:	7e448513          	addi	a0,s1,2020 # 867e4 <fully_connected_weights+0x430>
    1b44:	686030ef          	jal	ra,51ca <printf>
    1b48:	00086537          	lui	a0,0x86
    1b4c:	49450513          	addi	a0,a0,1172 # 86494 <fully_connected_weights+0xe0>
    1b50:	67a030ef          	jal	ra,51ca <printf>
    1b54:	7e448513          	addi	a0,s1,2020
    1b58:	672030ef          	jal	ra,51ca <printf>
    1b5c:	00092583          	lw	a1,0(s2)
    1b60:	00086537          	lui	a0,0x86
    1b64:	4d050513          	addi	a0,a0,1232 # 864d0 <fully_connected_weights+0x11c>
    1b68:	662030ef          	jal	ra,51ca <printf>
    1b6c:	7e448513          	addi	a0,s1,2020
    1b70:	65a030ef          	jal	ra,51ca <printf>
    1b74:	00086537          	lui	a0,0x86
    1b78:	4f050513          	addi	a0,a0,1264 # 864f0 <fully_connected_weights+0x13c>
    1b7c:	64e030ef          	jal	ra,51ca <printf>
    1b80:	4799                	c.li	a5,6
    1b82:	d2be                	c.swsp	a5,100(sp)
    1b84:	c33e                	c.swsp	a5,132(sp)
    1b86:	08000793          	li	a5,128
    1b8a:	cf3e                	c.swsp	a5,156(sp)
    1b8c:	f9a00793          	li	a5,-102
    1b90:	d33e                	c.swsp	a5,164(sp)
    1b92:	f8000793          	li	a5,-128
    1b96:	d53e                	c.swsp	a5,168(sp)
    1b98:	4689                	c.li	a3,2
    1b9a:	07f00793          	li	a5,127
    1b9e:	c8b6                	c.swsp	a3,80(sp)
    1ba0:	d73e                	c.swsp	a5,172(sp)
    1ba2:	4685                	c.li	a3,1
    1ba4:	500627b7          	lui	a5,0x50062
    1ba8:	c6b6                	c.swsp	a3,76(sp)
    1baa:	69278793          	addi	a5,a5,1682 # 50062692 <_DATA_LMA_START+0x3005c65a>
    1bae:	46a9                	c.li	a3,10
    1bb0:	470d                	c.li	a4,3
    1bb2:	cab6                	c.swsp	a3,84(sp)
    1bb4:	de3e                	c.swsp	a5,60(sp)
    1bb6:	46d1                	c.li	a3,20
    1bb8:	57dd                	c.li	a5,-9
    1bba:	08a8                	c.addi4spn	a0,sp,88
    1bbc:	c4ba                	c.swsp	a4,72(sp)
    1bbe:	ccb6                	c.swsp	a3,88(sp)
    1bc0:	dcba                	c.swsp	a4,120(sp)
    1bc2:	c0be                	c.swsp	a5,64(sp)
    1bc4:	c502                	c.swsp	zero,136(sp)
    1bc6:	c702                	c.swsp	zero,140(sp)
    1bc8:	c902                	c.swsp	zero,144(sp)
    1bca:	cb02                	c.swsp	zero,148(sp)
    1bcc:	08011c23          	sh	zero,152(sp)
    1bd0:	0a012023          	sw	zero,160(sp)
    1bd4:	315000ef          	jal	ra,26e8 <riscv_fully_connected_s8_get_buffer_size>
    1bd8:	00a00c33          	add	s8,zero,a0
    1bdc:	3e4030ef          	jal	ra,4fc0 <malloc>
    1be0:	dc62                	c.swsp	s8,56(sp)
    1be2:	da2a                	c.swsp	a0,52(sp)
    1be4:	9fdff0ef          	jal	ra,15e0 <reset_counters>
    1be8:	95dff0ef          	jal	ra,1544 <fill_stack_pattern_to_sp>
    1bec:	b0002b73          	csrr	s6,mcycle
    1bf0:	b0202a73          	csrr	s4,minstret
    1bf4:	04810993          	addi	s3,sp,72
    1bf8:	08810e93          	addi	t4,sp,136
    1bfc:	7284130b          	addigp	t1,10024 # 82f28 <fully_connected_biases>
    1c00:	07810a93          	addi	s5,sp,120
    1c04:	06810893          	addi	a7,sp,104
    1c08:	3b5a180b          	addigp	a6,23476 # 863b4 <fully_connected_weights>
    1c0c:	08bc                	c.addi4spn	a5,sp,88
    1c0e:	7404170b          	addigp	a4,10048 # 82f40 <fully_connected_input>
    1c12:	86ce                	c.mv	a3,s3
    1c14:	1870                	c.addi4spn	a2,sp,60
    1c16:	85a2                	c.mv	a1,s0
    1c18:	1848                	c.addi4spn	a0,sp,52
    1c1a:	c476                	c.swsp	t4,8(sp)
    1c1c:	c256                	c.swsp	s5,4(sp)
    1c1e:	c01a                	c.swsp	t1,0(sp)
    1c20:	229000ef          	jal	ra,2648 <riscv_fully_connected_s8>
    1c24:	b00027f3          	csrr	a5,mcycle
    1c28:	b0202bf3          	csrr	s7,minstret
    1c2c:	41678b33          	sub	s6,a5,s6
    1c30:	8d9ff0ef          	jal	ra,1508 <measure_stack_usage>
    1c34:	00092783          	lw	a5,0(s2)
    1c38:	d01b7453          	fcvt.s.wu	fs0,s6
    1c3c:	414b8bb3          	sub	s7,s7,s4
    1c40:	00080a37          	lui	s4,0x80
    1c44:	d017f753          	fcvt.s.wu	fa4,a5
    1c48:	008a2787          	flw	fa5,8(s4) # 80008 <_DATA_VMA_START+0x8>
    1c4c:	8caa                	c.mv	s9,a0
    1c4e:	5552                	c.lwsp	a0,52(sp)
    1c50:	18e47453          	fdiv.s	fs0,fs0,fa4
    1c54:	10f47453          	fmul.s	fs0,fs0,fa5
    1c58:	c911                	c.beqz	a0,1c6c <main+0x548>
    1c5a:	8662                	c.mv	a2,s8
    1c5c:	00000593          	li	a1,0
    1c60:	380030ef          	jal	ra,4fe0 <memset>
    1c64:	03412503          	lw	a0,52(sp)
    1c68:	368030ef          	jal	ra,4fd0 <free>
    1c6c:	7e448513          	addi	a0,s1,2020
    1c70:	55a030ef          	jal	ra,51ca <printf>
    1c74:	4649                	c.li	a2,18
    1c76:	3a1a158b          	addigp	a1,23456 # 863a0 <fully_connected_output_ref>
    1c7a:	0128                	c.addi4spn	a0,sp,136
    1c7c:	971ff0ef          	jal	ra,15ec <validate>
    1c80:	00051ae3          	bnez	a0,2494 <main+0xd70>
    1c84:	00086537          	lui	a0,0x86
    1c88:	5bc50513          	addi	a0,a0,1468 # 865bc <fully_connected_weights+0x208>
    1c8c:	53e030ef          	jal	ra,51ca <printf>
    1c90:	4659                	c.li	a2,22
    1c92:	4581                	c.li	a1,0
    1c94:	00800533          	add	a0,zero,s0
    1c98:	348030ef          	jal	ra,4fe0 <memset>
    1c9c:	4785                	c.li	a5,1
    1c9e:	c4be                	c.swsp	a5,72(sp)
    1ca0:	c8be                	c.swsp	a5,80(sp)
    1ca2:	c6be                	c.swsp	a5,76(sp)
    1ca4:	dcbe                	c.swsp	a5,120(sp)
    1ca6:	08000793          	li	a5,128
    1caa:	c53e                	c.swsp	a5,136(sp)
    1cac:	47ad                	c.li	a5,11
    1cae:	c93e                	c.swsp	a5,144(sp)
    1cb0:	f8000793          	li	a5,-128
    1cb4:	cb3e                	c.swsp	a5,148(sp)
    1cb6:	07f00793          	li	a5,127
    1cba:	cd3e                	c.swsp	a5,152(sp)
    1cbc:	6d12178b          	addigp	a5,7888 # 826d0 <fc_per_ch_output_multiplier>
    1cc0:	da3e                	c.swsp	a5,52(sp)
    1cc2:	4759                	c.li	a4,22
    1cc4:	05900693          	li	a3,89
    1cc8:	7292178b          	addigp	a5,7976 # 82728 <fc_per_ch_output_shift>
    1ccc:	08a8                	c.addi4spn	a0,sp,88
    1cce:	cab6                	c.swsp	a3,84(sp)
    1cd0:	ccb6                	c.swsp	a3,88(sp)
    1cd2:	d2ba                	c.swsp	a4,100(sp)
    1cd4:	c33a                	c.swsp	a4,132(sp)
    1cd6:	dc3e                	c.swsp	a5,56(sp)
    1cd8:	08012623          	sw	zero,140(sp)
    1cdc:	20d000ef          	jal	ra,26e8 <riscv_fully_connected_s8_get_buffer_size>
    1ce0:	00a00cb3          	add	s9,zero,a0
    1ce4:	2dc030ef          	jal	ra,4fc0 <malloc>
    1ce8:	d866                	c.swsp	s9,48(sp)
    1cea:	d62a                	c.swsp	a0,44(sp)
    1cec:	8f5ff0ef          	jal	ra,15e0 <reset_counters>
    1cf0:	855ff0ef          	jal	ra,1544 <fill_stack_pattern_to_sp>
    1cf4:	b0002b73          	csrr	s6,mcycle
    1cf8:	b0202bf3          	csrr	s7,minstret
    1cfc:	60521e0b          	addigp	t3,7684 # 82604 <fc_per_ch_bias>
    1d00:	06810893          	addi	a7,sp,104
    1d04:	7812180b          	addigp	a6,8064 # 82780 <fc_per_ch_weights>
    1d08:	08bc                	c.addi4spn	a5,sp,88
    1d0a:	65d2170b          	addigp	a4,7772 # 8265c <fc_per_ch_input>
    1d0e:	86ce                	c.mv	a3,s3
    1d10:	1850                	c.addi4spn	a2,sp,52
    1d12:	012c                	c.addi4spn	a1,sp,136
    1d14:	1068                	c.addi4spn	a0,sp,44
    1d16:	ce72                	c.swsp	t3,28(sp)
    1d18:	c422                	c.swsp	s0,8(sp)
    1d1a:	c256                	c.swsp	s5,4(sp)
    1d1c:	01c12023          	sw	t3,0(sp)
    1d20:	221000ef          	jal	ra,2740 <riscv_fully_connected_per_channel_s8>
    1d24:	b0002773          	csrr	a4,mcycle
    1d28:	b02027f3          	csrr	a5,minstret
    1d2c:	41670b33          	sub	s6,a4,s6
    1d30:	41778bb3          	sub	s7,a5,s7
    1d34:	fd4ff0ef          	jal	ra,1508 <measure_stack_usage>
    1d38:	00092783          	lw	a5,0(s2)
    1d3c:	d01b7453          	fcvt.s.wu	fs0,s6
    1d40:	008a2787          	flw	fa5,8(s4)
    1d44:	00a12c23          	sw	a0,24(sp)
    1d48:	d017f753          	fcvt.s.wu	fa4,a5
    1d4c:	7e448513          	addi	a0,s1,2020
    1d50:	18e47453          	fdiv.s	fs0,fs0,fa4
    1d54:	10f47453          	fmul.s	fs0,fs0,fa5
    1d58:	472030ef          	jal	ra,51ca <printf>
    1d5c:	4659                	c.li	a2,22
    1d5e:	6b92158b          	addigp	a1,7864 # 826b8 <fc_per_ch_output>
    1d62:	8522                	c.mv	a0,s0
    1d64:	889ff0ef          	jal	ra,15ec <validate>
    1d68:	70050e63          	beqz	a0,2484 <main+0xd60>
    1d6c:	00086537          	lui	a0,0x86
    1d70:	5f050513          	addi	a0,a0,1520 # 865f0 <fully_connected_weights+0x23c>
    1d74:	456030ef          	jal	ra,51ca <printf>
    1d78:	00086537          	lui	a0,0x86
    1d7c:	016005b3          	add	a1,zero,s6
    1d80:	54c50513          	addi	a0,a0,1356 # 8654c <fully_connected_weights+0x198>
    1d84:	446030ef          	jal	ra,51ca <printf>
    1d88:	00086537          	lui	a0,0x86
    1d8c:	017005b3          	add	a1,zero,s7
    1d90:	56050513          	addi	a0,a0,1376 # 86560 <fully_connected_weights+0x1ac>
    1d94:	436030ef          	jal	ra,51ca <printf>
    1d98:	20840553          	fmv.s	fa0,fs0
    1d9c:	114030ef          	jal	ra,4eb0 <__extendsfdf2>
    1da0:	862a                	c.mv	a2,a0
    1da2:	00086537          	lui	a0,0x86
    1da6:	86ae                	c.mv	a3,a1
    1da8:	57c50513          	addi	a0,a0,1404 # 8657c <fully_connected_weights+0x1c8>
    1dac:	41e030ef          	jal	ra,51ca <printf>
    1db0:	00086537          	lui	a0,0x86
    1db4:	01812583          	lw	a1,24(sp)
    1db8:	5a050513          	addi	a0,a0,1440 # 865a0 <fully_connected_weights+0x1ec>
    1dbc:	40e030ef          	jal	ra,51ca <printf>
    1dc0:	57d2                	c.lwsp	a5,52(sp)
    1dc2:	de3e                	c.swsp	a5,60(sp)
    1dc4:	57e2                	c.lwsp	a5,56(sp)
    1dc6:	c0be                	c.swsp	a5,64(sp)
    1dc8:	4785                	c.li	a5,1
    1dca:	c2be                	c.swsp	a5,68(sp)
    1dcc:	815ff0ef          	jal	ra,15e0 <reset_counters>
    1dd0:	f74ff0ef          	jal	ra,1544 <fill_stack_pattern_to_sp>
    1dd4:	b0002bf3          	csrr	s7,mcycle
    1dd8:	b0202b73          	csrr	s6,minstret
    1ddc:	4f72                	c.lwsp	t5,28(sp)
    1dde:	06810893          	addi	a7,sp,104
    1de2:	7812180b          	addigp	a6,8064 # 82780 <fc_per_ch_weights>
    1de6:	08bc                	c.addi4spn	a5,sp,88
    1de8:	65d2170b          	addigp	a4,7772 # 8265c <fc_per_ch_input>
    1dec:	86ce                	c.mv	a3,s3
    1dee:	1870                	c.addi4spn	a2,sp,60
    1df0:	012c                	c.addi4spn	a1,sp,136
    1df2:	1068                	c.addi4spn	a0,sp,44
    1df4:	c422                	c.swsp	s0,8(sp)
    1df6:	c256                	c.swsp	s5,4(sp)
    1df8:	01e12023          	sw	t5,0(sp)
    1dfc:	0f1000ef          	jal	ra,26ec <riscv_fully_connected_wrapper_s8>
    1e00:	b00027f3          	csrr	a5,mcycle
    1e04:	b0202d73          	csrr	s10,minstret
    1e08:	41778bb3          	sub	s7,a5,s7
    1e0c:	efcff0ef          	jal	ra,1508 <measure_stack_usage>
    1e10:	00092783          	lw	a5,0(s2)
    1e14:	d01bf7d3          	fcvt.s.wu	fa5,s7
    1e18:	008a2407          	flw	fs0,8(s4)
    1e1c:	8daa                	c.mv	s11,a0
    1e1e:	d017f753          	fcvt.s.wu	fa4,a5
    1e22:	5532                	c.lwsp	a0,44(sp)
    1e24:	416d0d33          	sub	s10,s10,s6
    1e28:	18e7f7d3          	fdiv.s	fa5,fa5,fa4
    1e2c:	1087f453          	fmul.s	fs0,fa5,fs0
    1e30:	c911                	c.beqz	a0,1e44 <main+0x720>
    1e32:	8666                	c.mv	a2,s9
    1e34:	00000593          	li	a1,0
    1e38:	1a8030ef          	jal	ra,4fe0 <memset>
    1e3c:	02c12503          	lw	a0,44(sp)
    1e40:	190030ef          	jal	ra,4fd0 <free>
    1e44:	7e448513          	addi	a0,s1,2020
    1e48:	382030ef          	jal	ra,51ca <printf>
    1e4c:	4659                	c.li	a2,22
    1e4e:	6b92158b          	addigp	a1,7864 # 826b8 <fc_per_ch_output>
    1e52:	8522                	c.mv	a0,s0
    1e54:	f98ff0ef          	jal	ra,15ec <validate>
    1e58:	5c051a63          	bnez	a0,242c <main+0xd08>
    1e5c:	00086537          	lui	a0,0x86
    1e60:	6d850513          	addi	a0,a0,1752 # 866d8 <fully_connected_weights+0x324>
    1e64:	366030ef          	jal	ra,51ca <printf>
    1e68:	4785                	c.li	a5,1
    1e6a:	ccbe                	c.swsp	a5,88(sp)
    1e6c:	d0be                	c.swsp	a5,96(sp)
    1e6e:	cebe                	c.swsp	a5,92(sp)
    1e70:	c53e                	c.swsp	a5,136(sp)
    1e72:	08000793          	li	a5,128
    1e76:	cf3e                	c.swsp	a5,156(sp)
    1e78:	fd600793          	li	a5,-42
    1e7c:	d33e                	c.swsp	a5,164(sp)
    1e7e:	f8000793          	li	a5,-128
    1e82:	d53e                	c.swsp	a5,168(sp)
    1e84:	07f00793          	li	a5,127
    1e88:	d73e                	c.swsp	a5,172(sp)
    1e8a:	7a78b7b7          	lui	a5,0x7a78b
    1e8e:	5de78793          	addi	a5,a5,1502 # 7a78b5de <_DATA_LMA_START+0x5a7855a6>
    1e92:	46c1                	c.li	a3,16
    1e94:	4725                	c.li	a4,9
    1e96:	de3e                	c.swsp	a5,60(sp)
    1e98:	10a8                	c.addi4spn	a0,sp,104
    1e9a:	57d9                	c.li	a5,-10
    1e9c:	d2b6                	c.swsp	a3,100(sp)
    1e9e:	d4b6                	c.swsp	a3,104(sp)
    1ea0:	daba                	c.swsp	a4,116(sp)
    1ea2:	cb3a                	c.swsp	a4,148(sp)
    1ea4:	c0be                	c.swsp	a5,64(sp)
    1ea6:	c482                	c.swsp	zero,72(sp)
    1ea8:	c682                	c.swsp	zero,76(sp)
    1eaa:	04010823          	sb	zero,80(sp)
    1eae:	d102                	c.swsp	zero,160(sp)
    1eb0:	039000ef          	jal	ra,26e8 <riscv_fully_connected_s8_get_buffer_size>
    1eb4:	00a00cb3          	add	s9,zero,a0
    1eb8:	108030ef          	jal	ra,4fc0 <malloc>
    1ebc:	dc66                	c.swsp	s9,56(sp)
    1ebe:	da2a                	c.swsp	a0,52(sp)
    1ec0:	f20ff0ef          	jal	ra,15e0 <reset_counters>
    1ec4:	e80ff0ef          	jal	ra,1544 <fill_stack_pattern_to_sp>
    1ec8:	b0002bf3          	csrr	s7,mcycle
    1ecc:	b0202b73          	csrr	s6,minstret
    1ed0:	08810f93          	addi	t6,sp,136
    1ed4:	2d1a130b          	addigp	t1,23248 # 862d0 <fully_connected_mve_0_biases>
    1ed8:	88d6                	c.mv	a7,s5
    1eda:	311a180b          	addigp	a6,23312 # 86310 <fully_connected_mve_0_weights>
    1ede:	10bc                	c.addi4spn	a5,sp,104
    1ee0:	2f5a170b          	addigp	a4,23284 # 862f4 <fully_connected_mve_0_input>
    1ee4:	08b4                	c.addi4spn	a3,sp,88
    1ee6:	1870                	c.addi4spn	a2,sp,60
    1ee8:	85a2                	c.mv	a1,s0
    1eea:	1848                	c.addi4spn	a0,sp,52
    1eec:	c44e                	c.swsp	s3,8(sp)
    1eee:	c27e                	c.swsp	t6,4(sp)
    1ef0:	00612023          	sw	t1,0(sp)
    1ef4:	754000ef          	jal	ra,2648 <riscv_fully_connected_s8>
    1ef8:	b00027f3          	csrr	a5,mcycle
    1efc:	b0202c73          	csrr	s8,minstret
    1f00:	41778bb3          	sub	s7,a5,s7
    1f04:	e04ff0ef          	jal	ra,1508 <measure_stack_usage>
    1f08:	00092783          	lw	a5,0(s2)
    1f0c:	d01bf7d3          	fcvt.s.wu	fa5,s7
    1f10:	008a2407          	flw	fs0,8(s4)
    1f14:	8d2a                	c.mv	s10,a0
    1f16:	d017f753          	fcvt.s.wu	fa4,a5
    1f1a:	5552                	c.lwsp	a0,52(sp)
    1f1c:	416c0c33          	sub	s8,s8,s6
    1f20:	18e7f7d3          	fdiv.s	fa5,fa5,fa4
    1f24:	1087f453          	fmul.s	fs0,fa5,fs0
    1f28:	c911                	c.beqz	a0,1f3c <main+0x818>
    1f2a:	8666                	c.mv	a2,s9
    1f2c:	00000593          	li	a1,0
    1f30:	0b0030ef          	jal	ra,4fe0 <memset>
    1f34:	03412503          	lw	a0,52(sp)
    1f38:	098030ef          	jal	ra,4fd0 <free>
    1f3c:	7e448513          	addi	a0,s1,2020
    1f40:	28a030ef          	jal	ra,51ca <printf>
    1f44:	4625                	c.li	a2,9
    1f46:	305a158b          	addigp	a1,23300 # 86304 <fully_connected_mve_0_output_ref>
    1f4a:	854e                	c.mv	a0,s3
    1f4c:	ea0ff0ef          	jal	ra,15ec <validate>
    1f50:	48051263          	bnez	a0,23d4 <main+0xcb0>
    1f54:	00086537          	lui	a0,0x86
    1f58:	77450513          	addi	a0,a0,1908 # 86774 <fully_connected_weights+0x3c0>
    1f5c:	26e030ef          	jal	ra,51ca <printf>
    1f60:	7e448513          	addi	a0,s1,2020
    1f64:	266030ef          	jal	ra,51ca <printf>
    1f68:	00086537          	lui	a0,0x86
    1f6c:	7c050513          	addi	a0,a0,1984 # 867c0 <fully_connected_weights+0x40c>
    1f70:	25a030ef          	jal	ra,51ca <printf>
    1f74:	4581                	c.li	a1,0
    1f76:	02c00613          	li	a2,44
    1f7a:	8522                	c.mv	a0,s0
    1f7c:	064030ef          	jal	ra,4fe0 <memset>
    1f80:	478d                	c.li	a5,3
    1f82:	c8be                	c.swsp	a5,80(sp)
    1f84:	c6be                	c.swsp	a5,76(sp)
    1f86:	cebe                	c.swsp	a5,92(sp)
    1f88:	d0be                	c.swsp	a5,96(sp)
    1f8a:	77f9                	c.lui	a5,0xffffe
    1f8c:	8f178793          	addi	a5,a5,-1807 # ffffd8f1 <_DATA_LMA_START+0xdfff78b9>
    1f90:	cb3e                	c.swsp	a5,148(sp)
    1f92:	67a1                	c.lui	a5,0x8
    1f94:	17fd                	c.addi	a5,-1
    1f96:	cd3e                	c.swsp	a5,152(sp)
    1f98:	7fbca7b7          	lui	a5,0x7fbca
    1f9c:	461d                	c.li	a2,7
    1f9e:	f7e78793          	addi	a5,a5,-130 # 7fbc9f7e <_DATA_LMA_START+0x5fbc3f46>
    1fa2:	4689                	c.li	a3,2
    1fa4:	472d                	c.li	a4,11
    1fa6:	cab2                	c.swsp	a2,84(sp)
    1fa8:	de3e                	c.swsp	a5,60(sp)
    1faa:	03f00613          	li	a2,63
    1fae:	57d9                	c.li	a5,-10
    1fb0:	08a8                	c.addi4spn	a0,sp,88
    1fb2:	c4b6                	c.swsp	a3,72(sp)
    1fb4:	ccb2                	c.swsp	a2,88(sp)
    1fb6:	d2ba                	c.swsp	a4,100(sp)
    1fb8:	dcb6                	c.swsp	a3,120(sp)
    1fba:	c33a                	c.swsp	a4,132(sp)
    1fbc:	c0be                	c.swsp	a5,64(sp)
    1fbe:	c502                	c.swsp	zero,136(sp)
    1fc0:	c702                	c.swsp	zero,140(sp)
    1fc2:	c902                	c.swsp	zero,144(sp)
    1fc4:	778000ef          	jal	ra,273c <riscv_fully_connected_s16_get_buffer_size>
    1fc8:	00a00cb3          	add	s9,zero,a0
    1fcc:	7f5020ef          	jal	ra,4fc0 <malloc>
    1fd0:	dc66                	c.swsp	s9,56(sp)
    1fd2:	da2a                	c.swsp	a0,52(sp)
    1fd4:	e0cff0ef          	jal	ra,15e0 <reset_counters>
    1fd8:	d6cff0ef          	jal	ra,1544 <fill_stack_pattern_to_sp>
    1fdc:	b0002bf3          	csrr	s7,mcycle
    1fe0:	b0202b73          	csrr	s6,minstret
    1fe4:	7804130b          	addigp	t1,10112 # 82f80 <fully_connected_int16_biases>
    1fe8:	06810893          	addi	a7,sp,104
    1fec:	019a180b          	addigp	a6,22552 # 86018 <fully_connected_int16_weights>
    1ff0:	08bc                	c.addi4spn	a5,sp,88
    1ff2:	6f0a170b          	addigp	a4,22256 # 85ef0 <fully_connected_int16_input>
    1ff6:	86ce                	c.mv	a3,s3
    1ff8:	1870                	c.addi4spn	a2,sp,60
    1ffa:	012c                	c.addi4spn	a1,sp,136
    1ffc:	1848                	c.addi4spn	a0,sp,52
    1ffe:	c422                	c.swsp	s0,8(sp)
    2000:	c256                	c.swsp	s5,4(sp)
    2002:	c01a                	c.swsp	t1,0(sp)
    2004:	59c000ef          	jal	ra,25a0 <riscv_fully_connected_s16>
    2008:	b00027f3          	csrr	a5,mcycle
    200c:	b0202c73          	csrr	s8,minstret
    2010:	41778bb3          	sub	s7,a5,s7
    2014:	cf4ff0ef          	jal	ra,1508 <measure_stack_usage>
    2018:	00092783          	lw	a5,0(s2)
    201c:	d01bf7d3          	fcvt.s.wu	fa5,s7
    2020:	008a2407          	flw	fs0,8(s4)
    2024:	8d2a                	c.mv	s10,a0
    2026:	d017f753          	fcvt.s.wu	fa4,a5
    202a:	5552                	c.lwsp	a0,52(sp)
    202c:	416c0c33          	sub	s8,s8,s6
    2030:	18e7f7d3          	fdiv.s	fa5,fa5,fa4
    2034:	1087f453          	fmul.s	fs0,fa5,fs0
    2038:	c911                	c.beqz	a0,204c <main+0x928>
    203a:	8666                	c.mv	a2,s9
    203c:	00000593          	li	a1,0
    2040:	7a1020ef          	jal	ra,4fe0 <memset>
    2044:	03412503          	lw	a0,52(sp)
    2048:	789020ef          	jal	ra,4fd0 <free>
    204c:	7e448513          	addi	a0,s1,2020
    2050:	17a030ef          	jal	ra,51ca <printf>
    2054:	4659                	c.li	a2,22
    2056:	7eca158b          	addigp	a1,22508 # 85fec <fully_connected_int16_output_ref>
    205a:	8522                	c.mv	a0,s0
    205c:	e08ff0ef          	jal	ra,1664 <validate_s16>
    2060:	2c051263          	bnez	a0,2324 <main+0xc00>
    2064:	00087537          	lui	a0,0x87
    2068:	82050513          	addi	a0,a0,-2016 # 86820 <fully_connected_weights+0x46c>
    206c:	15e030ef          	jal	ra,51ca <printf>
    2070:	4581                	c.li	a1,0
    2072:	04200613          	li	a2,66
    2076:	8522                	c.mv	a0,s0
    2078:	769020ef          	jal	ra,4fe0 <memset>
    207c:	47a9                	c.li	a5,10
    207e:	c8be                	c.swsp	a5,80(sp)
    2080:	c6be                	c.swsp	a5,76(sp)
    2082:	cebe                	c.swsp	a5,92(sp)
    2084:	d0be                	c.swsp	a5,96(sp)
    2086:	a5c00793          	li	a5,-1444
    208a:	cb3e                	c.swsp	a5,148(sp)
    208c:	67a1                	c.lui	a5,0x8
    208e:	17fd                	c.addi	a5,-1
    2090:	cd3e                	c.swsp	a5,152(sp)
    2092:	6acf67b7          	lui	a5,0x6acf6
    2096:	461d                	c.li	a2,7
    2098:	f5478793          	addi	a5,a5,-172 # 6acf5f54 <_DATA_LMA_START+0x4aceff1c>
    209c:	468d                	c.li	a3,3
    209e:	472d                	c.li	a4,11
    20a0:	cab2                	c.swsp	a2,84(sp)
    20a2:	de3e                	c.swsp	a5,60(sp)
    20a4:	2bc00613          	li	a2,700
    20a8:	57d5                	c.li	a5,-11
    20aa:	08a8                	c.addi4spn	a0,sp,88
    20ac:	c4b6                	c.swsp	a3,72(sp)
    20ae:	ccb2                	c.swsp	a2,88(sp)
    20b0:	d2ba                	c.swsp	a4,100(sp)
    20b2:	dcb6                	c.swsp	a3,120(sp)
    20b4:	c33a                	c.swsp	a4,132(sp)
    20b6:	c0be                	c.swsp	a5,64(sp)
    20b8:	c502                	c.swsp	zero,136(sp)
    20ba:	c702                	c.swsp	zero,140(sp)
    20bc:	08012823          	sw	zero,144(sp)
    20c0:	67c000ef          	jal	ra,273c <riscv_fully_connected_s16_get_buffer_size>
    20c4:	00a00cb3          	add	s9,zero,a0
    20c8:	6f9020ef          	jal	ra,4fc0 <malloc>
    20cc:	dc66                	c.swsp	s9,56(sp)
    20ce:	da2a                	c.swsp	a0,52(sp)
    20d0:	d10ff0ef          	jal	ra,15e0 <reset_counters>
    20d4:	c70ff0ef          	jal	ra,1544 <fill_stack_pattern_to_sp>
    20d8:	b0002bf3          	csrr	s7,mcycle
    20dc:	b0202b73          	csrr	s6,minstret
    20e0:	7d84130b          	addigp	t1,10200 # 82fd8 <fully_connected_int16_big_biases>
    20e4:	06810893          	addi	a7,sp,104
    20e8:	0dd6180b          	addigp	a6,14556 # 840dc <fully_connected_int16_big_weights>
    20ec:	08bc                	c.addi4spn	a5,sp,88
    20ee:	0314170b          	addigp	a4,10288 # 83030 <fully_connected_int16_big_input>
    20f2:	86ce                	c.mv	a3,s3
    20f4:	1870                	c.addi4spn	a2,sp,60
    20f6:	012c                	c.addi4spn	a1,sp,136
    20f8:	1848                	c.addi4spn	a0,sp,52
    20fa:	c422                	c.swsp	s0,8(sp)
    20fc:	c256                	c.swsp	s5,4(sp)
    20fe:	c01a                	c.swsp	t1,0(sp)
    2100:	4a0000ef          	jal	ra,25a0 <riscv_fully_connected_s16>
    2104:	b00027f3          	csrr	a5,mcycle
    2108:	b0202c73          	csrr	s8,minstret
    210c:	41778bb3          	sub	s7,a5,s7
    2110:	bf8ff0ef          	jal	ra,1508 <measure_stack_usage>
    2114:	00092783          	lw	a5,0(s2)
    2118:	d01bf7d3          	fcvt.s.wu	fa5,s7
    211c:	008a2407          	flw	fs0,8(s4)
    2120:	8d2a                	c.mv	s10,a0
    2122:	d017f753          	fcvt.s.wu	fa4,a5
    2126:	5552                	c.lwsp	a0,52(sp)
    2128:	416c0c33          	sub	s8,s8,s6
    212c:	18e7f7d3          	fdiv.s	fa5,fa5,fa4
    2130:	1087f453          	fmul.s	fs0,fa5,fs0
    2134:	c911                	c.beqz	a0,2148 <main+0xa24>
    2136:	8666                	c.mv	a2,s9
    2138:	00000593          	li	a1,0
    213c:	6a5020ef          	jal	ra,4fe0 <memset>
    2140:	03412503          	lw	a0,52(sp)
    2144:	68d020ef          	jal	ra,4fd0 <free>
    2148:	7e448513          	addi	a0,s1,2020
    214c:	07e030ef          	jal	ra,51ca <printf>
    2150:	02100613          	li	a2,33
    2154:	0996158b          	addigp	a1,14488 # 84098 <fully_connected_int16_big_output_ref>
    2158:	00800533          	add	a0,zero,s0
    215c:	d08ff0ef          	jal	ra,1664 <validate_s16>
    2160:	16051663          	bnez	a0,22cc <main+0xba8>
    2164:	00087537          	lui	a0,0x87
    2168:	89450513          	addi	a0,a0,-1900 # 86894 <fully_connected_weights+0x4e0>
    216c:	05e030ef          	jal	ra,51ca <printf>
    2170:	04200613          	li	a2,66
    2174:	4581                	c.li	a1,0
    2176:	8522                	c.mv	a0,s0
    2178:	669020ef          	jal	ra,4fe0 <memset>
    217c:	47ad                	c.li	a5,11
    217e:	d2be                	c.swsp	a5,100(sp)
    2180:	c33e                	c.swsp	a5,132(sp)
    2182:	77e1                	c.lui	a5,0xffff8
    2184:	cb3e                	c.swsp	a5,148(sp)
    2186:	67a1                	c.lui	a5,0x8
    2188:	17fd                	c.addi	a5,-1
    218a:	cd3e                	c.swsp	a5,152(sp)
    218c:	6bf457b7          	lui	a5,0x6bf45
    2190:	459d                	c.li	a1,7
    2192:	b4378793          	addi	a5,a5,-1213 # 6bf44b43 <_DATA_LMA_START+0x4bf3eb0b>
    2196:	470d                	c.li	a4,3
    2198:	46a9                	c.li	a3,10
    219a:	4621                	c.li	a2,8
    219c:	caae                	c.swsp	a1,84(sp)
    219e:	de3e                	c.swsp	a5,60(sp)
    21a0:	23000593          	li	a1,560
    21a4:	57d5                	c.li	a5,-11
    21a6:	08a8                	c.addi4spn	a0,sp,88
    21a8:	c4ba                	c.swsp	a4,72(sp)
    21aa:	c8b6                	c.swsp	a3,80(sp)
    21ac:	c6b2                	c.swsp	a2,76(sp)
    21ae:	ccae                	c.swsp	a1,88(sp)
    21b0:	ceb2                	c.swsp	a2,92(sp)
    21b2:	d0b6                	c.swsp	a3,96(sp)
    21b4:	dcba                	c.swsp	a4,120(sp)
    21b6:	c0be                	c.swsp	a5,64(sp)
    21b8:	c502                	c.swsp	zero,136(sp)
    21ba:	c702                	c.swsp	zero,140(sp)
    21bc:	08012823          	sw	zero,144(sp)
    21c0:	57c000ef          	jal	ra,273c <riscv_fully_connected_s16_get_buffer_size>
    21c4:	00a00b33          	add	s6,zero,a0
    21c8:	5f9020ef          	jal	ra,4fc0 <malloc>
    21cc:	dc5a                	c.swsp	s6,56(sp)
    21ce:	da2a                	c.swsp	a0,52(sp)
    21d0:	c10ff0ef          	jal	ra,15e0 <reset_counters>
    21d4:	b70ff0ef          	jal	ra,1544 <fill_stack_pattern_to_sp>
    21d8:	b0002c73          	csrr	s8,mcycle
    21dc:	b0202bf3          	csrr	s7,minstret
    21e0:	839f930b          	addigp	t1,-1992 # 80038 <fc_int16_slow_biases>
    21e4:	06810893          	addi	a7,sp,104
    21e8:	5f40180b          	addigp	a6,1524 # 80df4 <fc_int16_slow_weights>
    21ec:	08bc                	c.addi4spn	a5,sp,88
    21ee:	891f970b          	addigp	a4,-1904 # 80090 <fc_int16_slow_input>
    21f2:	86ce                	c.mv	a3,s3
    21f4:	1870                	c.addi4spn	a2,sp,60
    21f6:	012c                	c.addi4spn	a1,sp,136
    21f8:	1848                	c.addi4spn	a0,sp,52
    21fa:	c422                	c.swsp	s0,8(sp)
    21fc:	c256                	c.swsp	s5,4(sp)
    21fe:	c01a                	c.swsp	t1,0(sp)
    2200:	3a0000ef          	jal	ra,25a0 <riscv_fully_connected_s16>
    2204:	b00029f3          	csrr	s3,mcycle
    2208:	b0202af3          	csrr	s5,minstret
    220c:	afcff0ef          	jal	ra,1508 <measure_stack_usage>
    2210:	00092783          	lw	a5,0(s2)
    2214:	418989b3          	sub	s3,s3,s8
    2218:	d019f7d3          	fcvt.s.wu	fa5,s3
    221c:	008a2407          	flw	fs0,8(s4)
    2220:	417a8ab3          	sub	s5,s5,s7
    2224:	d017f753          	fcvt.s.wu	fa4,a5
    2228:	8baa                	c.mv	s7,a0
    222a:	5552                	c.lwsp	a0,52(sp)
    222c:	18e7f7d3          	fdiv.s	fa5,fa5,fa4
    2230:	1087f453          	fmul.s	fs0,fa5,fs0
    2234:	c911                	c.beqz	a0,2248 <main+0xb24>
    2236:	865a                	c.mv	a2,s6
    2238:	00000593          	li	a1,0
    223c:	5a5020ef          	jal	ra,4fe0 <memset>
    2240:	03412503          	lw	a0,52(sp)
    2244:	58d020ef          	jal	ra,4fd0 <free>
    2248:	7e448513          	addi	a0,s1,2020
    224c:	77f020ef          	jal	ra,51ca <printf>
    2250:	02100613          	li	a2,33
    2254:	5b00158b          	addigp	a1,1456 # 80db0 <fc_int16_slow_output_ref>
    2258:	00800533          	add	a0,zero,s0
    225c:	c08ff0ef          	jal	ra,1664 <validate_s16>
    2260:	10051e63          	bnez	a0,237c <main+0xc58>
    2264:	00087537          	lui	a0,0x87
    2268:	90c50513          	addi	a0,a0,-1780 # 8690c <fully_connected_weights+0x558>
    226c:	75f020ef          	jal	ra,51ca <printf>
    2270:	00087537          	lui	a0,0x87
    2274:	94850513          	addi	a0,a0,-1720 # 86948 <fully_connected_weights+0x594>
    2278:	753020ef          	jal	ra,51ca <printf>
    227c:	f85fd0ef          	jal	ra,200 <delay_ms.constprop.12>
    2280:	00087537          	lui	a0,0x87
    2284:	96050513          	addi	a0,a0,-1696 # 86960 <fully_connected_weights+0x5ac>
    2288:	743020ef          	jal	ra,51ca <printf>
    228c:	f75fd0ef          	jal	ra,200 <delay_ms.constprop.12>
    2290:	12c12083          	lw	ra,300(sp)
    2294:	12812403          	lw	s0,296(sp)
    2298:	12412483          	lw	s1,292(sp)
    229c:	12012903          	lw	s2,288(sp)
    22a0:	11c12983          	lw	s3,284(sp)
    22a4:	11812a03          	lw	s4,280(sp)
    22a8:	11412a83          	lw	s5,276(sp)
    22ac:	11012b03          	lw	s6,272(sp)
    22b0:	10c12b83          	lw	s7,268(sp)
    22b4:	10812c03          	lw	s8,264(sp)
    22b8:	10412c83          	lw	s9,260(sp)
    22bc:	10012d03          	lw	s10,256(sp)
    22c0:	5dfe                	c.lwsp	s11,252(sp)
    22c2:	743e                	c.flwsp	fs0,236(sp)
    22c4:	4501                	c.li	a0,0
    22c6:	6155                	c.addi16sp	sp,304
    22c8:	00008067          	ret
    22cc:	00087537          	lui	a0,0x87
    22d0:	85850513          	addi	a0,a0,-1960 # 86858 <fully_connected_weights+0x4a4>
    22d4:	6f7020ef          	jal	ra,51ca <printf>
    22d8:	00086537          	lui	a0,0x86
    22dc:	017005b3          	add	a1,zero,s7
    22e0:	54c50513          	addi	a0,a0,1356 # 8654c <fully_connected_weights+0x198>
    22e4:	6e7020ef          	jal	ra,51ca <printf>
    22e8:	00086537          	lui	a0,0x86
    22ec:	018005b3          	add	a1,zero,s8
    22f0:	56050513          	addi	a0,a0,1376 # 86560 <fully_connected_weights+0x1ac>
    22f4:	6d7020ef          	jal	ra,51ca <printf>
    22f8:	20840553          	fmv.s	fa0,fs0
    22fc:	3b5020ef          	jal	ra,4eb0 <__extendsfdf2>
    2300:	862a                	c.mv	a2,a0
    2302:	00086537          	lui	a0,0x86
    2306:	86ae                	c.mv	a3,a1
    2308:	57c50513          	addi	a0,a0,1404 # 8657c <fully_connected_weights+0x1c8>
    230c:	6bf020ef          	jal	ra,51ca <printf>
    2310:	00086537          	lui	a0,0x86
    2314:	01a005b3          	add	a1,zero,s10
    2318:	5a050513          	addi	a0,a0,1440 # 865a0 <fully_connected_weights+0x1ec>
    231c:	6af020ef          	jal	ra,51ca <printf>
    2320:	e51ff06f          	j	2170 <main+0xa4c>
    2324:	00086537          	lui	a0,0x86
    2328:	7e850513          	addi	a0,a0,2024 # 867e8 <fully_connected_weights+0x434>
    232c:	69f020ef          	jal	ra,51ca <printf>
    2330:	00086537          	lui	a0,0x86
    2334:	017005b3          	add	a1,zero,s7
    2338:	54c50513          	addi	a0,a0,1356 # 8654c <fully_connected_weights+0x198>
    233c:	68f020ef          	jal	ra,51ca <printf>
    2340:	00086537          	lui	a0,0x86
    2344:	018005b3          	add	a1,zero,s8
    2348:	56050513          	addi	a0,a0,1376 # 86560 <fully_connected_weights+0x1ac>
    234c:	67f020ef          	jal	ra,51ca <printf>
    2350:	20840553          	fmv.s	fa0,fs0
    2354:	35d020ef          	jal	ra,4eb0 <__extendsfdf2>
    2358:	862a                	c.mv	a2,a0
    235a:	00086537          	lui	a0,0x86
    235e:	86ae                	c.mv	a3,a1
    2360:	57c50513          	addi	a0,a0,1404 # 8657c <fully_connected_weights+0x1c8>
    2364:	667020ef          	jal	ra,51ca <printf>
    2368:	00086537          	lui	a0,0x86
    236c:	01a005b3          	add	a1,zero,s10
    2370:	5a050513          	addi	a0,a0,1440 # 865a0 <fully_connected_weights+0x1ec>
    2374:	657020ef          	jal	ra,51ca <printf>
    2378:	cf9ff06f          	j	2070 <main+0x94c>
    237c:	00087537          	lui	a0,0x87
    2380:	8d050513          	addi	a0,a0,-1840 # 868d0 <fully_connected_weights+0x51c>
    2384:	647020ef          	jal	ra,51ca <printf>
    2388:	00086537          	lui	a0,0x86
    238c:	013005b3          	add	a1,zero,s3
    2390:	54c50513          	addi	a0,a0,1356 # 8654c <fully_connected_weights+0x198>
    2394:	637020ef          	jal	ra,51ca <printf>
    2398:	00086537          	lui	a0,0x86
    239c:	015005b3          	add	a1,zero,s5
    23a0:	56050513          	addi	a0,a0,1376 # 86560 <fully_connected_weights+0x1ac>
    23a4:	627020ef          	jal	ra,51ca <printf>
    23a8:	20840553          	fmv.s	fa0,fs0
    23ac:	305020ef          	jal	ra,4eb0 <__extendsfdf2>
    23b0:	862a                	c.mv	a2,a0
    23b2:	00086537          	lui	a0,0x86
    23b6:	86ae                	c.mv	a3,a1
    23b8:	57c50513          	addi	a0,a0,1404 # 8657c <fully_connected_weights+0x1c8>
    23bc:	60f020ef          	jal	ra,51ca <printf>
    23c0:	00086537          	lui	a0,0x86
    23c4:	017005b3          	add	a1,zero,s7
    23c8:	5a050513          	addi	a0,a0,1440 # 865a0 <fully_connected_weights+0x1ec>
    23cc:	5ff020ef          	jal	ra,51ca <printf>
    23d0:	ea1ff06f          	j	2270 <main+0xb4c>
    23d4:	00086537          	lui	a0,0x86
    23d8:	72850513          	addi	a0,a0,1832 # 86728 <fully_connected_weights+0x374>
    23dc:	5ef020ef          	jal	ra,51ca <printf>
    23e0:	00086537          	lui	a0,0x86
    23e4:	017005b3          	add	a1,zero,s7
    23e8:	54c50513          	addi	a0,a0,1356 # 8654c <fully_connected_weights+0x198>
    23ec:	5df020ef          	jal	ra,51ca <printf>
    23f0:	00086537          	lui	a0,0x86
    23f4:	018005b3          	add	a1,zero,s8
    23f8:	56050513          	addi	a0,a0,1376 # 86560 <fully_connected_weights+0x1ac>
    23fc:	5cf020ef          	jal	ra,51ca <printf>
    2400:	20840553          	fmv.s	fa0,fs0
    2404:	2ad020ef          	jal	ra,4eb0 <__extendsfdf2>
    2408:	862a                	c.mv	a2,a0
    240a:	00086537          	lui	a0,0x86
    240e:	86ae                	c.mv	a3,a1
    2410:	57c50513          	addi	a0,a0,1404 # 8657c <fully_connected_weights+0x1c8>
    2414:	5b7020ef          	jal	ra,51ca <printf>
    2418:	00086537          	lui	a0,0x86
    241c:	01a005b3          	add	a1,zero,s10
    2420:	5a050513          	addi	a0,a0,1440 # 865a0 <fully_connected_weights+0x1ec>
    2424:	5a7020ef          	jal	ra,51ca <printf>
    2428:	b39ff06f          	j	1f60 <main+0x83c>
    242c:	00086537          	lui	a0,0x86
    2430:	68850513          	addi	a0,a0,1672 # 86688 <fully_connected_weights+0x2d4>
    2434:	597020ef          	jal	ra,51ca <printf>
    2438:	00086537          	lui	a0,0x86
    243c:	017005b3          	add	a1,zero,s7
    2440:	54c50513          	addi	a0,a0,1356 # 8654c <fully_connected_weights+0x198>
    2444:	587020ef          	jal	ra,51ca <printf>
    2448:	00086537          	lui	a0,0x86
    244c:	01a005b3          	add	a1,zero,s10
    2450:	56050513          	addi	a0,a0,1376 # 86560 <fully_connected_weights+0x1ac>
    2454:	577020ef          	jal	ra,51ca <printf>
    2458:	20840553          	fmv.s	fa0,fs0
    245c:	255020ef          	jal	ra,4eb0 <__extendsfdf2>
    2460:	862a                	c.mv	a2,a0
    2462:	00086537          	lui	a0,0x86
    2466:	86ae                	c.mv	a3,a1
    2468:	57c50513          	addi	a0,a0,1404 # 8657c <fully_connected_weights+0x1c8>
    246c:	55f020ef          	jal	ra,51ca <printf>
    2470:	00086537          	lui	a0,0x86
    2474:	01b005b3          	add	a1,zero,s11
    2478:	5a050513          	addi	a0,a0,1440 # 865a0 <fully_connected_weights+0x1ec>
    247c:	54f020ef          	jal	ra,51ca <printf>
    2480:	9e9ff06f          	j	1e68 <main+0x744>
    2484:	00086537          	lui	a0,0x86
    2488:	63c50513          	addi	a0,a0,1596 # 8663c <fully_connected_weights+0x288>
    248c:	53f020ef          	jal	ra,51ca <printf>
    2490:	931ff06f          	j	1dc0 <main+0x69c>
    2494:	00086537          	lui	a0,0x86
    2498:	51850513          	addi	a0,a0,1304 # 86518 <fully_connected_weights+0x164>
    249c:	52f020ef          	jal	ra,51ca <printf>
    24a0:	00086537          	lui	a0,0x86
    24a4:	016005b3          	add	a1,zero,s6
    24a8:	54c50513          	addi	a0,a0,1356 # 8654c <fully_connected_weights+0x198>
    24ac:	51f020ef          	jal	ra,51ca <printf>
    24b0:	00086537          	lui	a0,0x86
    24b4:	017005b3          	add	a1,zero,s7
    24b8:	56050513          	addi	a0,a0,1376 # 86560 <fully_connected_weights+0x1ac>
    24bc:	50f020ef          	jal	ra,51ca <printf>
    24c0:	20840553          	fmv.s	fa0,fs0
    24c4:	1ed020ef          	jal	ra,4eb0 <__extendsfdf2>
    24c8:	862a                	c.mv	a2,a0
    24ca:	00086537          	lui	a0,0x86
    24ce:	86ae                	c.mv	a3,a1
    24d0:	57c50513          	addi	a0,a0,1404 # 8657c <fully_connected_weights+0x1c8>
    24d4:	4f7020ef          	jal	ra,51ca <printf>
    24d8:	00086537          	lui	a0,0x86
    24dc:	019005b3          	add	a1,zero,s9
    24e0:	5a050513          	addi	a0,a0,1440 # 865a0 <fully_connected_weights+0x1ec>
    24e4:	4e7020ef          	jal	ra,51ca <printf>
    24e8:	fa8ff06f          	j	1c90 <main+0x56c>
    24ec:	02000793          	li	a5,32
    24f0:	0fd4f593          	andi	a1,s1,253
    24f4:	03900513          	li	a0,57
    24f8:	00f40123          	sb	a5,2(s0)
    24fc:	a94fe0ef          	jal	ra,790 <analog_write_reg8>
    2500:	b90ff06f          	j	1890 <main+0x16c>
    2504:	00800793          	li	a5,8
    2508:	00f40123          	sb	a5,2(s0)
    250c:	b84ff06f          	j	1890 <main+0x16c>
    2510:	001fe537          	lui	a0,0x1fe
    2514:	0c050513          	addi	a0,a0,192 # 1fe0c0 <FLASH_SIZE+0xfe0c0>
    2518:	ef5fe0ef          	jal	ra,140c <user_calib_adc_vref.constprop.9>
    251c:	001fe537          	lui	a0,0x1fe
    2520:	84cff0ef          	jal	ra,156c <user_calib_freq_offset.constprop.8>
    2524:	d08ff06f          	j	1a2c <main+0x308>
    2528:	000fe537          	lui	a0,0xfe
    252c:	0c050513          	addi	a0,a0,192 # fe0c0 <_STACK_TOP+0x5e0c0>
    2530:	eddfe0ef          	jal	ra,140c <user_calib_adc_vref.constprop.9>
    2534:	000fe537          	lui	a0,0xfe
    2538:	834ff0ef          	jal	ra,156c <user_calib_freq_offset.constprop.8>
    253c:	cf0ff06f          	j	1a2c <main+0x308>
    2540:	0007e537          	lui	a0,0x7e
    2544:	0c050513          	addi	a0,a0,192 # 7e0c0 <BIN_SIZE+0x71636>
    2548:	ec5fe0ef          	jal	ra,140c <user_calib_adc_vref.constprop.9>
    254c:	0007e537          	lui	a0,0x7e
    2550:	81cff0ef          	jal	ra,156c <user_calib_freq_offset.constprop.8>
    2554:	cd8ff06f          	j	1a2c <main+0x308>
    2558:	0001e537          	lui	a0,0x1e
    255c:	0c050513          	addi	a0,a0,192 # 1e0c0 <BIN_SIZE+0x11636>
    2560:	eadfe0ef          	jal	ra,140c <user_calib_adc_vref.constprop.9>
    2564:	0001e537          	lui	a0,0x1e
    2568:	804ff0ef          	jal	ra,156c <user_calib_freq_offset.constprop.8>
    256c:	cc0ff06f          	j	1a2c <main+0x308>
    2570:	0000e537          	lui	a0,0xe
    2574:	0c050513          	addi	a0,a0,192 # e0c0 <BIN_SIZE+0x1636>
    2578:	e95fe0ef          	jal	ra,140c <user_calib_adc_vref.constprop.9>
    257c:	0000e537          	lui	a0,0xe
    2580:	fedfe0ef          	jal	ra,156c <user_calib_freq_offset.constprop.8>
    2584:	ca8ff06f          	j	1a2c <main+0x308>
    2588:	00000513          	li	a0,0
    258c:	e81fe0ef          	jal	ra,140c <user_calib_adc_vref.constprop.9>
    2590:	c9cff06f          	j	1a2c <main+0x308>
    2594:	0001                	c.nop
	...

00002598 <default_irq_entry>:
    2598:	a001                	c.j	2598 <default_irq_entry>

0000259a <trap_handler>:
    259a:	a001                	c.j	259a <trap_handler>
    259c:	0001                	c.nop
	...

000025a0 <riscv_fully_connected_s16>:
    25a0:	7139                	c.addi16sp	sp,-64
    25a2:	d452                	c.swsp	s4,40(sp)
    25a4:	00062a03          	lw	s4,0(a2)
    25a8:	dc22                	c.swsp	s0,56(sp)
    25aa:	da26                	c.swsp	s1,52(sp)
    25ac:	d84a                	c.swsp	s2,48(sp)
    25ae:	d64e                	c.swsp	s3,44(sp)
    25b0:	d256                	c.swsp	s5,36(sp)
    25b2:	d05a                	c.swsp	s6,32(sp)
    25b4:	8ab2                	c.mv	s5,a2
    25b6:	ce5e                	c.swsp	s7,28(sp)
    25b8:	cc62                	c.swsp	s8,24(sp)
    25ba:	ca66                	c.swsp	s9,20(sp)
    25bc:	7fff0637          	lui	a2,0x7fff0
    25c0:	de06                	c.swsp	ra,60(sp)
    25c2:	4c86                	c.lwsp	s9,64(sp)
    25c4:	4b16                	c.lwsp	s6,68(sp)
    25c6:	4926                	c.lwsp	s2,72(sp)
    25c8:	4280                	c.lw	s0,0(a3)
    25ca:	89ae                	c.mv	s3,a1
    25cc:	84ba                	c.mv	s1,a4
    25ce:	8bbe                	c.mv	s7,a5
    25d0:	8c42                	c.mv	s8,a6
    25d2:	06ca5763          	bge	s4,a2,2640 <riscv_fully_connected_s16+0xa0>
    25d6:	67a1                	c.lui	a5,0x8
    25d8:	00fa0a33          	add	s4,s4,a5
    25dc:	410a5a13          	srai	s4,s4,0x10
    25e0:	04040263          	beqz	s0,2624 <riscv_fully_connected_s16+0x84>
    25e4:	000ba803          	lw	a6,0(s7)
    25e8:	00cb2883          	lw	a7,12(s6)
    25ec:	004aa783          	lw	a5,4(s5)
    25f0:	0109ae03          	lw	t3,16(s3)
    25f4:	00c9a303          	lw	t1,12(s3)
    25f8:	86ca                	c.mv	a3,s2
    25fa:	8526                	c.mv	a0,s1
    25fc:	8752                	c.mv	a4,s4
    25fe:	8666                	c.mv	a2,s9
    2600:	85e2                	c.mv	a1,s8
    2602:	c272                	c.swsp	t3,4(sp)
    2604:	00612023          	sw	t1,0(sp)
    2608:	5d9010ef          	jal	ra,43e0 <riscv_nn_vec_mat_mult_t_s16>
    260c:	000ba803          	lw	a6,0(s7)
    2610:	00cb2883          	lw	a7,12(s6)
    2614:	00181713          	slli	a4,a6,0x1
    2618:	00189793          	slli	a5,a7,0x1
    261c:	147d                	c.addi	s0,-1
    261e:	94ba                	c.add	s1,a4
    2620:	993e                	c.add	s2,a5
    2622:	f469                	c.bnez	s0,25ec <riscv_fully_connected_s16+0x4c>
    2624:	50f2                	c.lwsp	ra,60(sp)
    2626:	5462                	c.lwsp	s0,56(sp)
    2628:	54d2                	c.lwsp	s1,52(sp)
    262a:	5942                	c.lwsp	s2,48(sp)
    262c:	59b2                	c.lwsp	s3,44(sp)
    262e:	5a22                	c.lwsp	s4,40(sp)
    2630:	5a92                	c.lwsp	s5,36(sp)
    2632:	5b02                	c.lwsp	s6,32(sp)
    2634:	4bf2                	c.lwsp	s7,28(sp)
    2636:	4c62                	c.lwsp	s8,24(sp)
    2638:	4cd2                	c.lwsp	s9,20(sp)
    263a:	4501                	c.li	a0,0
    263c:	6121                	c.addi16sp	sp,64
    263e:	8082                	c.jr	ra
    2640:	6a21                	c.lui	s4,0x8
    2642:	1a7d                	c.addi	s4,-1
    2644:	bf71                	c.j	25e0 <riscv_fully_connected_s16+0x40>
	...

00002648 <riscv_fully_connected_s8>:
    2648:	715d                	c.addi16sp	sp,-80
    264a:	c2a6                	c.swsp	s1,68(sp)
    264c:	4284                	c.lw	s1,0(a3)
    264e:	de4e                	c.swsp	s3,60(sp)
    2650:	dc52                	c.swsp	s4,56(sp)
    2652:	d85a                	c.swsp	s6,48(sp)
    2654:	d462                	c.swsp	s8,40(sp)
    2656:	c686                	c.swsp	ra,76(sp)
    2658:	c4a2                	c.swsp	s0,72(sp)
    265a:	c0ca                	c.swsp	s2,64(sp)
    265c:	da56                	c.swsp	s5,52(sp)
    265e:	d65e                	c.swsp	s7,44(sp)
    2660:	d266                	c.swsp	s9,36(sp)
    2662:	d06a                	c.swsp	s10,32(sp)
    2664:	4c46                	c.lwsp	s8,80(sp)
    2666:	4a56                	c.lwsp	s4,84(sp)
    2668:	49e6                	c.lwsp	s3,88(sp)
    266a:	00052b03          	lw	s6,0(a0) # e000 <BIN_SIZE+0x1576>
    266e:	cca9                	c.beqz	s1,26c8 <riscv_fully_connected_s8+0x80>
    2670:	0007ae03          	lw	t3,0(a5) # 8000 <_RAMCODE_VMA_END+0x211c>
    2674:	00ca2303          	lw	t1,12(s4) # 800c <_RAMCODE_VMA_END+0x2128>
    2678:	842e                	c.mv	s0,a1
    267a:	8d32                	c.mv	s10,a2
    267c:	893a                	c.mv	s2,a4
    267e:	8abe                	c.mv	s5,a5
    2680:	8bc2                	c.mv	s7,a6
    2682:	4c85                	c.li	s9,1
    2684:	00442283          	lw	t0,4(s0)
    2688:	01042f83          	lw	t6,16(s0)
    268c:	00c42f03          	lw	t5,12(s0)
    2690:	004d2e83          	lw	t4,4(s10)
    2694:	000d2883          	lw	a7,0(s10)
    2698:	00842803          	lw	a6,8(s0)
    269c:	401c                	c.lw	a5,0(s0)
    269e:	874e                	c.mv	a4,s3
    26a0:	854a                	c.mv	a0,s2
    26a2:	86e2                	c.mv	a3,s8
    26a4:	865a                	c.mv	a2,s6
    26a6:	85de                	c.mv	a1,s7
    26a8:	c41a                	c.swsp	t1,8(sp)
    26aa:	c272                	c.swsp	t3,4(sp)
    26ac:	cc16                	c.swsp	t0,24(sp)
    26ae:	ca66                	c.swsp	s9,20(sp)
    26b0:	c87e                	c.swsp	t6,16(sp)
    26b2:	c67a                	c.swsp	t5,12(sp)
    26b4:	c076                	c.swsp	t4,0(sp)
    26b6:	223d                	c.jal	27e4 <riscv_nn_vec_mat_mult_t_s8>
    26b8:	000aae03          	lw	t3,0(s5)
    26bc:	00ca2303          	lw	t1,12(s4)
    26c0:	14fd                	c.addi	s1,-1
    26c2:	9972                	c.add	s2,t3
    26c4:	999a                	c.add	s3,t1
    26c6:	fcdd                	c.bnez	s1,2684 <riscv_fully_connected_s8+0x3c>
    26c8:	40b6                	c.lwsp	ra,76(sp)
    26ca:	4426                	c.lwsp	s0,72(sp)
    26cc:	4496                	c.lwsp	s1,68(sp)
    26ce:	4906                	c.lwsp	s2,64(sp)
    26d0:	59f2                	c.lwsp	s3,60(sp)
    26d2:	5a62                	c.lwsp	s4,56(sp)
    26d4:	5ad2                	c.lwsp	s5,52(sp)
    26d6:	5b42                	c.lwsp	s6,48(sp)
    26d8:	5bb2                	c.lwsp	s7,44(sp)
    26da:	5c22                	c.lwsp	s8,40(sp)
    26dc:	5c92                	c.lwsp	s9,36(sp)
    26de:	5d02                	c.lwsp	s10,32(sp)
    26e0:	4501                	c.li	a0,0
    26e2:	6161                	c.addi16sp	sp,80
    26e4:	8082                	c.jr	ra
	...

000026e8 <riscv_fully_connected_s8_get_buffer_size>:
    26e8:	4501                	c.li	a0,0
    26ea:	8082                	c.jr	ra

000026ec <riscv_fully_connected_wrapper_s8>:
    26ec:	7179                	c.addi16sp	sp,-48
    26ee:	00862283          	lw	t0,8(a2) # 7fff0008 <_DATA_LMA_START+0x5ffe9fd0>
    26f2:	d606                	c.swsp	ra,44(sp)
    26f4:	5342                	c.lwsp	t1,48(sp)
    26f6:	5e52                	c.lwsp	t3,52(sp)
    26f8:	5ee2                	c.lwsp	t4,56(sp)
    26fa:	00062f83          	lw	t6,0(a2)
    26fe:	00462f03          	lw	t5,4(a2)
    2702:	00028d63          	beqz	t0,271c <riscv_fully_connected_wrapper_s8+0x30>
    2706:	0830                	c.addi4spn	a2,sp,24
    2708:	cc7e                	c.swsp	t6,24(sp)
    270a:	ce7a                	c.swsp	t5,28(sp)
    270c:	c476                	c.swsp	t4,8(sp)
    270e:	c272                	c.swsp	t3,4(sp)
    2710:	c01a                	c.swsp	t1,0(sp)
    2712:	203d                	c.jal	2740 <riscv_fully_connected_per_channel_s8>
    2714:	50b2                	c.lwsp	ra,44(sp)
    2716:	6145                	c.addi16sp	sp,48
    2718:	00008067          	ret
    271c:	000faf83          	lw	t6,0(t6)
    2720:	0830                	c.addi4spn	a2,sp,24
    2722:	cc7e                	c.swsp	t6,24(sp)
    2724:	000f2f03          	lw	t5,0(t5)
    2728:	c476                	c.swsp	t4,8(sp)
    272a:	ce7a                	c.swsp	t5,28(sp)
    272c:	c272                	c.swsp	t3,4(sp)
    272e:	c01a                	c.swsp	t1,0(sp)
    2730:	f19ff0ef          	jal	ra,2648 <riscv_fully_connected_s8>
    2734:	50b2                	c.lwsp	ra,44(sp)
    2736:	6145                	c.addi16sp	sp,48
    2738:	8082                	c.jr	ra
	...

0000273c <riscv_fully_connected_s16_get_buffer_size>:
    273c:	4501                	c.li	a0,0
    273e:	8082                	c.jr	ra

00002740 <riscv_fully_connected_per_channel_s8>:
    2740:	715d                	c.addi16sp	sp,-80
    2742:	c2a6                	c.swsp	s1,68(sp)
    2744:	4284                	c.lw	s1,0(a3)
    2746:	de4e                	c.swsp	s3,60(sp)
    2748:	dc52                	c.swsp	s4,56(sp)
    274a:	d85a                	c.swsp	s6,48(sp)
    274c:	d462                	c.swsp	s8,40(sp)
    274e:	c686                	c.swsp	ra,76(sp)
    2750:	c4a2                	c.swsp	s0,72(sp)
    2752:	c0ca                	c.swsp	s2,64(sp)
    2754:	da56                	c.swsp	s5,52(sp)
    2756:	d65e                	c.swsp	s7,44(sp)
    2758:	d266                	c.swsp	s9,36(sp)
    275a:	d06a                	c.swsp	s10,32(sp)
    275c:	4c46                	c.lwsp	s8,80(sp)
    275e:	4a56                	c.lwsp	s4,84(sp)
    2760:	49e6                	c.lwsp	s3,88(sp)
    2762:	00052b03          	lw	s6,0(a0)
    2766:	ccb9                	c.beqz	s1,27c4 <riscv_fully_connected_per_channel_s8+0x84>
    2768:	0007ae03          	lw	t3,0(a5)
    276c:	00ca2303          	lw	t1,12(s4)
    2770:	842e                	c.mv	s0,a1
    2772:	8d32                	c.mv	s10,a2
    2774:	893a                	c.mv	s2,a4
    2776:	8abe                	c.mv	s5,a5
    2778:	8bc2                	c.mv	s7,a6
    277a:	4c85                	c.li	s9,1
    277c:	00442283          	lw	t0,4(s0)
    2780:	01042f83          	lw	t6,16(s0)
    2784:	00c42f03          	lw	t5,12(s0)
    2788:	004d2e83          	lw	t4,4(s10)
    278c:	000d2883          	lw	a7,0(s10)
    2790:	00842803          	lw	a6,8(s0)
    2794:	401c                	c.lw	a5,0(s0)
    2796:	874e                	c.mv	a4,s3
    2798:	854a                	c.mv	a0,s2
    279a:	86e2                	c.mv	a3,s8
    279c:	865a                	c.mv	a2,s6
    279e:	85de                	c.mv	a1,s7
    27a0:	c41a                	c.swsp	t1,8(sp)
    27a2:	c272                	c.swsp	t3,4(sp)
    27a4:	cc16                	c.swsp	t0,24(sp)
    27a6:	ca66                	c.swsp	s9,20(sp)
    27a8:	c87e                	c.swsp	t6,16(sp)
    27aa:	c67a                	c.swsp	t5,12(sp)
    27ac:	01d12023          	sw	t4,0(sp)
    27b0:	194010ef          	jal	ra,3944 <riscv_nn_vec_mat_mult_t_per_ch_s8>
    27b4:	000aae03          	lw	t3,0(s5)
    27b8:	00ca2303          	lw	t1,12(s4)
    27bc:	14fd                	c.addi	s1,-1
    27be:	9972                	c.add	s2,t3
    27c0:	999a                	c.add	s3,t1
    27c2:	fccd                	c.bnez	s1,277c <riscv_fully_connected_per_channel_s8+0x3c>
    27c4:	40b6                	c.lwsp	ra,76(sp)
    27c6:	4426                	c.lwsp	s0,72(sp)
    27c8:	4496                	c.lwsp	s1,68(sp)
    27ca:	4906                	c.lwsp	s2,64(sp)
    27cc:	59f2                	c.lwsp	s3,60(sp)
    27ce:	5a62                	c.lwsp	s4,56(sp)
    27d0:	5ad2                	c.lwsp	s5,52(sp)
    27d2:	5b42                	c.lwsp	s6,48(sp)
    27d4:	5bb2                	c.lwsp	s7,44(sp)
    27d6:	5c22                	c.lwsp	s8,40(sp)
    27d8:	5c92                	c.lwsp	s9,36(sp)
    27da:	5d02                	c.lwsp	s10,32(sp)
    27dc:	4501                	c.li	a0,0
    27de:	6161                	c.addi16sp	sp,80
    27e0:	8082                	c.jr	ra
	...

000027e4 <riscv_nn_vec_mat_mult_t_s8>:
    27e4:	7161                	c.addi16sp	sp,-432
    27e6:	1b812603          	lw	a2,440(sp)
    27ea:	1b812283          	lw	t0,440(sp)
    27ee:	01f65313          	srli	t1,a2,0x1f
    27f2:	005303b3          	add	t2,t1,t0
    27f6:	1b212223          	sw	s2,420(sp)
    27fa:	19a12223          	sw	s10,388(sp)
    27fe:	cb3a                	c.swsp	a4,148(sp)
    2800:	8d3a                	c.mv	s10,a4
    2802:	1c812903          	lw	s2,456(sp)
    2806:	4013d713          	srai	a4,t2,0x1
    280a:	1a812623          	sw	s0,428(sp)
    280e:	1a912423          	sw	s1,424(sp)
    2812:	01079413          	slli	s0,a5,0x10
    2816:	19812623          	sw	s8,396(sp)
    281a:	19b12023          	sw	s11,384(sp)
    281e:	1b312023          	sw	s3,416(sp)
    2822:	19412e23          	sw	s4,412(sp)
    2826:	19512c23          	sw	s5,408(sp)
    282a:	19612a23          	sw	s6,404(sp)
    282e:	19712823          	sw	s7,400(sp)
    2832:	19912423          	sw	s9,392(sp)
    2836:	cc42                	c.swsp	a6,24(sp)
    2838:	c246                	c.swsp	a7,4(sp)
    283a:	c63a                	c.swsp	a4,12(sp)
    283c:	8daa                	c.mv	s11,a0
    283e:	8c2e                	c.mv	s8,a1
    2840:	41045493          	srai	s1,s0,0x10
    2844:	12090ae3          	beqz	s2,3178 <riscv_nn_vec_mat_mult_t_s8+0x994>
    2848:	0e9492ff          	pkbb16	t0,s1,s1
    284c:	01091f93          	slli	t6,s2,0x10
    2850:	410fde93          	srai	t4,t6,0x10
    2854:	0fde94ff          	pkbb16	s1,t4,t4
    2858:	1b812803          	lw	a6,440(sp)
    285c:	4c85                	c.li	s9,1
    285e:	470cd563          	bge	s9,a6,2cc8 <riscv_nn_vec_mat_mult_t_s8+0x4e4>
    2862:	1b012503          	lw	a0,432(sp)
    2866:	4401                	c.li	s0,0
    2868:	40a00bb3          	neg	s7,a0
    286c:	f28b8aff          	maxw	s5,s7,s0
    2870:	1b012883          	lw	a7,432(sp)
    2874:	015c9333          	sll	t1,s9,s5
    2878:	1b412a03          	lw	s4,436(sp)
    287c:	1b412383          	lw	t2,436(sp)
    2880:	f2888eff          	maxw	t4,a7,s0
    2884:	fff30613          	addi	a2,t1,-1
    2888:	1c412f03          	lw	t5,452(sp)
    288c:	1b412403          	lw	s0,436(sp)
    2890:	ffca7b13          	andi	s6,s4,-4
    2894:	40165713          	srai	a4,a2,0x1
    2898:	00170993          	addi	s3,a4,1
    289c:	016d8cb3          	add	s9,s11,s6
    28a0:	4023d593          	srai	a1,t2,0x2
    28a4:	00139e13          	slli	t3,t2,0x1
    28a8:	001f1f93          	slli	t6,t5,0x1
    28ac:	41640533          	sub	a0,s0,s6
    28b0:	ce4e                	c.swsp	s3,28(sp)
    28b2:	c766                	c.swsp	s9,140(sp)
    28b4:	d562                	c.swsp	s8,168(sp)
    28b6:	8cb6                	c.mv	s9,a3
    28b8:	d256                	c.swsp	s5,36(sp)
    28ba:	c832                	c.swsp	a2,16(sp)
    28bc:	c35a                	c.swsp	s6,132(sp)
    28be:	ccba                	c.swsp	a4,88(sp)
    28c0:	c472                	c.swsp	t3,8(sp)
    28c2:	d076                	c.swsp	t4,32(sp)
    28c4:	c92a                	c.swsp	a0,144(sp)
    28c6:	d17e                	c.swsp	t6,160(sp)
    28c8:	c52e                	c.swsp	a1,136(sp)
    28ca:	dcea                	c.swsp	s10,120(sp)
    28cc:	d86e                	c.swsp	s11,48(sp)
    28ce:	c89a                	c.swsp	t1,80(sp)
    28d0:	ca9e                	c.swsp	t2,84(sp)
    28d2:	016c09b3          	add	s3,s8,s6
    28d6:	88e2                	c.mv	a7,s8
    28d8:	4801                	c.li	a6,0
    28da:	8c26                	c.mv	s8,s1
    28dc:	3a0c8a63          	beqz	s9,2c90 <riscv_nn_vec_mat_mult_t_s8+0x4ac>
    28e0:	46a2                	c.lwsp	a3,8(sp)
    28e2:	1b412483          	lw	s1,436(sp)
    28e6:	00d88db3          	add	s11,a7,a3
    28ea:	4d2a                	c.lwsp	s10,136(sp)
    28ec:	d46e                	c.swsp	s11,40(sp)
    28ee:	000ca603          	lw	a2,0(s9)
    28f2:	004ca703          	lw	a4,4(s9)
    28f6:	00988ab3          	add	s5,a7,s1
    28fa:	0ca1                	c.addi	s9,8
    28fc:	3a0d0863          	beqz	s10,2cac <riscv_nn_vec_mat_mult_t_s8+0x4c8>
    2900:	001d7b93          	andi	s7,s10,1
    2904:	5442                	c.lwsp	s0,48(sp)
    2906:	8a6a                	c.mv	s4,s10
    2908:	fffd0b13          	addi	s6,s10,-1
    290c:	080b8063          	beqz	s7,298c <riscv_nn_vec_mat_mult_t_s8+0x1a8>
    2910:	00042a03          	lw	s4,0(s0)
    2914:	dc52                	c.swsp	s4,56(sp)
    2916:	de52                	c.swsp	s4,60(sp)
    2918:	5362                	c.lwsp	t1,56(sp)
    291a:	53f2                	c.lwsp	t2,60(sp)
    291c:	0411                	c.addi	s0,4
    291e:	de8303ff          	wexti	t2,t1,8
    2922:	ac9385ff          	sunpkd820	a1,t2
    2926:	40b2857f          	add16	a0,t0,a1
    292a:	ac9a04ff          	sunpkd820	s1,s4
    292e:	409286ff          	add16	a3,t0,s1
    2932:	0008ad03          	lw	s10,0(a7)
    2936:	c0ea                	c.swsp	s10,64(sp)
    2938:	c2ea                	c.swsp	s10,68(sp)
    293a:	4306                	c.lwsp	t1,64(sp)
    293c:	4396                	c.lwsp	t2,68(sp)
    293e:	0891                	c.addi	a7,4
    2940:	de830bff          	wexti	s7,t1,8
    2944:	ac9b8dff          	sunpkd820	s11,s7
    2948:	41bc0a7f          	add16	s4,s8,s11
    294c:	ac9d03ff          	sunpkd820	t2,s10
    2950:	407c05ff          	add16	a1,s8,t2
    2954:	48aa167f          	kmada	a2,s4,a0
    2958:	48d5967f          	kmada	a2,a1,a3
    295c:	000aa483          	lw	s1,0(s5)
    2960:	c4a6                	c.swsp	s1,72(sp)
    2962:	c6a6                	c.swsp	s1,76(sp)
    2964:	4d26                	c.lwsp	s10,72(sp)
    2966:	4db6                	c.lwsp	s11,76(sp)
    2968:	0a91                	c.addi	s5,4
    296a:	de8d037f          	wexti	t1,s10,8
    296e:	ac930bff          	sunpkd820	s7,t1
    2972:	417c0dff          	add16	s11,s8,s7
    2976:	ac948a7f          	sunpkd820	s4,s1
    297a:	414c03ff          	add16	t2,s8,s4
    297e:	48ad977f          	kmada	a4,s11,a0
    2982:	48d3977f          	kmada	a4,t2,a3
    2986:	8a5a                	c.mv	s4,s6
    2988:	100b0263          	beqz	s6,2a8c <riscv_nn_vec_mat_mult_t_s8+0x2a8>
    298c:	8522                	c.mv	a0,s0
    298e:	d0c2                	c.swsp	a6,96(sp)
    2990:	d8ce                	c.swsp	s3,112(sp)
    2992:	dee6                	c.swsp	s9,124(sp)
    2994:	08f12023          	sw	a5,128(sp)
    2998:	1d212423          	sw	s2,456(sp)
    299c:	411c                	c.lw	a5,0(a0)
    299e:	8d3e                	c.mv	s10,a5
    29a0:	8dbe                	c.mv	s11,a5
    29a2:	00450e13          	addi	t3,a0,4
    29a6:	de8d097f          	wexti	s2,s10,8
    29aa:	ac9909ff          	sunpkd820	s3,s2
    29ae:	41328f7f          	add16	t5,t0,s3
    29b2:	ac978fff          	sunpkd820	t6,a5
    29b6:	41f28eff          	add16	t4,t0,t6
    29ba:	0008ac83          	lw	s9,0(a7)
    29be:	8466                	c.mv	s0,s9
    29c0:	84e6                	c.mv	s1,s9
    29c2:	00488793          	addi	a5,a7,4
    29c6:	de84087f          	wexti	a6,s0,8
    29ca:	ac980b7f          	sunpkd820	s6,a6
    29ce:	416c047f          	add16	s0,s8,s6
    29d2:	ac9c86ff          	sunpkd820	a3,s9
    29d6:	40dc05ff          	add16	a1,s8,a3
    29da:	49e4167f          	kmada	a2,s0,t5
    29de:	49d5967f          	kmada	a2,a1,t4
    29e2:	000aa483          	lw	s1,0(s5)
    29e6:	8b26                	c.mv	s6,s1
    29e8:	8ba6                	c.mv	s7,s1
    29ea:	004a8f93          	addi	t6,s5,4
    29ee:	de8b037f          	wexti	t1,s6,8
    29f2:	ac930bff          	sunpkd820	s7,t1
    29f6:	417c03ff          	add16	t2,s8,s7
    29fa:	ac94897f          	sunpkd820	s2,s1
    29fe:	412c09ff          	add16	s3,s8,s2
    2a02:	49e3977f          	kmada	a4,t2,t5
    2a06:	49d9977f          	kmada	a4,s3,t4
    2a0a:	000e2e03          	lw	t3,0(t3)
    2a0e:	8372                	c.mv	t1,t3
    2a10:	83f2                	c.mv	t2,t3
    2a12:	0521                	c.addi	a0,8
    2a14:	de830f7f          	wexti	t5,t1,8
    2a18:	ac9f0eff          	sunpkd820	t4,t5
    2a1c:	41d28cff          	add16	s9,t0,t4
    2a20:	ac9e087f          	sunpkd820	a6,t3
    2a24:	41028b7f          	add16	s6,t0,a6
    2a28:	439c                	c.lw	a5,0(a5)
    2a2a:	8e3e                	c.mv	t3,a5
    2a2c:	8ebe                	c.mv	t4,a5
    2a2e:	08a1                	c.addi	a7,8
    2a30:	de8e047f          	wexti	s0,t3,8
    2a34:	ac9406ff          	sunpkd820	a3,s0
    2a38:	40dc05ff          	add16	a1,s8,a3
    2a3c:	ac9784ff          	sunpkd820	s1,a5
    2a40:	409c0bff          	add16	s7,s8,s1
    2a44:	4995967f          	kmada	a2,a1,s9
    2a48:	496b967f          	kmada	a2,s7,s6
    2a4c:	000fa903          	lw	s2,0(t6)
    2a50:	8f4a                	c.mv	t5,s2
    2a52:	8fca                	c.mv	t6,s2
    2a54:	0aa1                	c.addi	s5,8
    2a56:	de8f09ff          	wexti	s3,t5,8
    2a5a:	ac99887f          	sunpkd820	a6,s3
    2a5e:	410c07ff          	add16	a5,s8,a6
    2a62:	ac99047f          	sunpkd820	s0,s2
    2a66:	408c06ff          	add16	a3,s8,s0
    2a6a:	4997977f          	kmada	a4,a5,s9
    2a6e:	4966977f          	kmada	a4,a3,s6
    2a72:	1a79                	c.addi	s4,-2
    2a74:	f20a14e3          	bnez	s4,299c <riscv_nn_vec_mat_mult_t_s8+0x1b8>
    2a78:	5806                	c.lwsp	a6,96(sp)
    2a7a:	59c6                	c.lwsp	s3,112(sp)
    2a7c:	5cf6                	c.lwsp	s9,124(sp)
    2a7e:	478a                	c.lwsp	a5,128(sp)
    2a80:	1c812903          	lw	s2,456(sp)
    2a84:	d4ea                	c.swsp	s10,104(sp)
    2a86:	d6ee                	c.swsp	s11,108(sp)
    2a88:	c89a                	c.swsp	t1,80(sp)
    2a8a:	ca9e                	c.swsp	t2,84(sp)
    2a8c:	1b412883          	lw	a7,436(sp)
    2a90:	46ba                	c.lwsp	a3,140(sp)
    2a92:	01198ab3          	add	s5,s3,a7
    2a96:	88ce                	c.mv	a7,s3
    2a98:	1b412d03          	lw	s10,436(sp)
    2a9c:	4d9a                	c.lwsp	s11,132(sp)
    2a9e:	13addb63          	bge	s11,s10,2bd4 <riscv_nn_vec_mat_mult_t_s8+0x3f0>
    2aa2:	4a4a                	c.lwsp	s4,144(sp)
    2aa4:	003a7313          	andi	t1,s4,3
    2aa8:	01468b33          	add	s6,a3,s4
    2aac:	08030663          	beqz	t1,2b38 <riscv_nn_vec_mat_mult_t_s8+0x354>
    2ab0:	4385                	c.li	t2,1
    2ab2:	04730d63          	beq	t1,t2,2b0c <riscv_nn_vec_mat_mult_t_s8+0x328>
    2ab6:	4509                	c.li	a0,2
    2ab8:	02a30663          	beq	t1,a0,2ae4 <riscv_nn_vec_mat_mult_t_s8+0x300>
    2abc:	00068583          	lb	a1,0(a3)
    2ac0:	00088483          	lb	s1,0(a7)
    2ac4:	000a8b83          	lb	s7,0(s5)
    2ac8:	00f58433          	add	s0,a1,a5
    2acc:	01248d33          	add	s10,s1,s2
    2ad0:	012b8db3          	add	s11,s7,s2
    2ad4:	c48d167f          	maddr32	a2,s10,s0
    2ad8:	c48d977f          	maddr32	a4,s11,s0
    2adc:	0685                	c.addi	a3,1
    2ade:	0885                	c.addi	a7,1
    2ae0:	001a8a93          	addi	s5,s5,1
    2ae4:	00068a03          	lb	s4,0(a3)
    2ae8:	00088303          	lb	t1,0(a7)
    2aec:	000a8383          	lb	t2,0(s5)
    2af0:	00fa05b3          	add	a1,s4,a5
    2af4:	012304b3          	add	s1,t1,s2
    2af8:	01238533          	add	a0,t2,s2
    2afc:	c4b4967f          	maddr32	a2,s1,a1
    2b00:	c4b5177f          	maddr32	a4,a0,a1
    2b04:	0685                	c.addi	a3,1
    2b06:	0885                	c.addi	a7,1
    2b08:	001a8a93          	addi	s5,s5,1
    2b0c:	00068b83          	lb	s7,0(a3)
    2b10:	00088403          	lb	s0,0(a7)
    2b14:	000a8d03          	lb	s10,0(s5)
    2b18:	00fb8a33          	add	s4,s7,a5
    2b1c:	01240db3          	add	s11,s0,s2
    2b20:	012d0333          	add	t1,s10,s2
    2b24:	0685                	c.addi	a3,1
    2b26:	c54d967f          	maddr32	a2,s11,s4
    2b2a:	c543177f          	maddr32	a4,t1,s4
    2b2e:	0885                	c.addi	a7,1
    2b30:	001a8a93          	addi	s5,s5,1
    2b34:	0b668063          	beq	a3,s6,2bd4 <riscv_nn_vec_mat_mult_t_s8+0x3f0>
    2b38:	d0f2                	c.swsp	t3,96(sp)
    2b3a:	d2f6                	c.swsp	t4,100(sp)
    2b3c:	d8fa                	c.swsp	t5,112(sp)
    2b3e:	dafe                	c.swsp	t6,116(sp)
    2b40:	00068f83          	lb	t6,0(a3)
    2b44:	00088e03          	lb	t3,0(a7)
    2b48:	000a8f03          	lb	t5,0(s5)
    2b4c:	00ff85b3          	add	a1,t6,a5
    2b50:	00168383          	lb	t2,1(a3)
    2b54:	00188483          	lb	s1,1(a7)
    2b58:	001a8b83          	lb	s7,1(s5)
    2b5c:	012e0eb3          	add	t4,t3,s2
    2b60:	012f0533          	add	a0,t5,s2
    2b64:	c4be967f          	maddr32	a2,t4,a1
    2b68:	c4b5177f          	maddr32	a4,a0,a1
    2b6c:	00268403          	lb	s0,2(a3)
    2b70:	00f38fb3          	add	t6,t2,a5
    2b74:	00288d03          	lb	s10,2(a7)
    2b78:	002a8303          	lb	t1,2(s5)
    2b7c:	01248a33          	add	s4,s1,s2
    2b80:	012b8db3          	add	s11,s7,s2
    2b84:	c5fa167f          	maddr32	a2,s4,t6
    2b88:	c5fd977f          	maddr32	a4,s11,t6
    2b8c:	00f404b3          	add	s1,s0,a5
    2b90:	00368e03          	lb	t3,3(a3)
    2b94:	00388f03          	lb	t5,3(a7)
    2b98:	003a8383          	lb	t2,3(s5)
    2b9c:	012d0bb3          	add	s7,s10,s2
    2ba0:	012305b3          	add	a1,t1,s2
    2ba4:	c49b967f          	maddr32	a2,s7,s1
    2ba8:	c495977f          	maddr32	a4,a1,s1
    2bac:	00fe0eb3          	add	t4,t3,a5
    2bb0:	012f0433          	add	s0,t5,s2
    2bb4:	01238533          	add	a0,t2,s2
    2bb8:	0691                	c.addi	a3,4
    2bba:	c5d4167f          	maddr32	a2,s0,t4
    2bbe:	c5d5177f          	maddr32	a4,a0,t4
    2bc2:	0891                	c.addi	a7,4
    2bc4:	0a91                	c.addi	s5,4
    2bc6:	f7669de3          	bne	a3,s6,2b40 <riscv_nn_vec_mat_mult_t_s8+0x35c>
    2bca:	5e06                	c.lwsp	t3,96(sp)
    2bcc:	5e96                	c.lwsp	t4,100(sp)
    2bce:	5f46                	c.lwsp	t5,112(sp)
    2bd0:	07412f83          	lw	t6,116(sp)
    2bd4:	5a82                	c.lwsp	s5,32(sp)
    2bd6:	4892                	c.lwsp	a7,4(sp)
    2bd8:	01561633          	sll	a2,a2,s5
    2bdc:	40000537          	lui	a0,0x40000
    2be0:	4581                	c.li	a1,0
    2be2:	8516157f          	smar64	a0,a2,a7
    2be6:	46c2                	c.lwsp	a3,16(sp)
    2be8:	5312                	c.lwsp	t1,36(sp)
    2bea:	dff50b7f          	wexti	s6,a0,31
    2bee:	4df2                	c.lwsp	s11,28(sp)
    2bf0:	0166fd33          	and	s10,a3,s6
    2bf4:	406b5a33          	sra	s4,s6,t1
    2bf8:	000b4463          	bltz	s6,2c00 <riscv_nn_vec_mat_mult_t_s8+0x41c>
    2bfc:	05812d83          	lw	s11,88(sp)
    2c00:	5382                	c.lwsp	t2,32(sp)
    2c02:	4492                	c.lwsp	s1,4(sp)
    2c04:	00771733          	sll	a4,a4,t2
    2c08:	40000637          	lui	a2,0x40000
    2c0c:	4681                	c.li	a3,0
    2c0e:	8497167f          	smar64	a2,a4,s1
    2c12:	4542                	c.lwsp	a0,16(sp)
    2c14:	01adabb3          	slt	s7,s11,s10
    2c18:	dff6047f          	wexti	s0,a2,31
    2c1c:	5612                	c.lwsp	a2,36(sp)
    2c1e:	4b72                	c.lwsp	s6,28(sp)
    2c20:	017a05b3          	add	a1,s4,s7
    2c24:	00857ab3          	and	s5,a0,s0
    2c28:	40c458b3          	sra	a7,s0,a2
    2c2c:	00044463          	bltz	s0,2c34 <riscv_nn_vec_mat_mult_t_s8+0x450>
    2c30:	05812b03          	lw	s6,88(sp)
    2c34:	4362                	c.lwsp	t1,24(sp)
    2c36:	015b26b3          	slt	a3,s6,s5
    2c3a:	1bc12383          	lw	t2,444(sp)
    2c3e:	00d88d33          	add	s10,a7,a3
    2c42:	5466                	c.lwsp	s0,120(sp)
    2c44:	00b30a33          	add	s4,t1,a1
    2c48:	1c012b83          	lw	s7,448(sp)
    2c4c:	1c412503          	lw	a0,452(sp)
    2c50:	01a30db3          	add	s11,t1,s10
    2c54:	1c012603          	lw	a2,448(sp)
    2c58:	1c412b03          	lw	s6,452(sp)
    2c5c:	f34384ff          	maxw	s1,t2,s4
    2c60:	00a40ab3          	add	s5,s0,a0
    2c64:	f3b3877f          	maxw	a4,t2,s11
    2c68:	f09b85ff          	minw	a1,s7,s1
    2c6c:	4d22                	c.lwsp	s10,8(sp)
    2c6e:	f0e608ff          	minw	a7,a2,a4
    2c72:	016a86b3          	add	a3,s5,s6
    2c76:	00b40023          	sb	a1,0(s0)
    2c7a:	4332                	c.lwsp	t1,12(sp)
    2c7c:	0805                	c.addi	a6,1
    2c7e:	011a8023          	sb	a7,0(s5)
    2c82:	dcb6                	c.swsp	a3,120(sp)
    2c84:	99ea                	c.add	s3,s10
    2c86:	02685563          	bge	a6,t1,2cb0 <riscv_nn_vec_mat_mult_t_s8+0x4cc>
    2c8a:	58a2                	c.lwsp	a7,40(sp)
    2c8c:	c40c9ae3          	bnez	s9,28e0 <riscv_nn_vec_mat_mult_t_s8+0xfc>
    2c90:	46a2                	c.lwsp	a3,8(sp)
    2c92:	1b412483          	lw	s1,436(sp)
    2c96:	00d88db3          	add	s11,a7,a3
    2c9a:	4d2a                	c.lwsp	s10,136(sp)
    2c9c:	d46e                	c.swsp	s11,40(sp)
    2c9e:	4701                	c.li	a4,0
    2ca0:	00000613          	li	a2,0
    2ca4:	00988ab3          	add	s5,a7,s1
    2ca8:	c40d1ce3          	bnez	s10,2900 <riscv_nn_vec_mat_mult_t_s8+0x11c>
    2cac:	56c2                	c.lwsp	a3,48(sp)
    2cae:	b3ed                	c.j	2a98 <riscv_nn_vec_mat_mult_t_s8+0x2b4>
    2cb0:	4e5a                	c.lwsp	t3,148(sp)
    2cb2:	5f8a                	c.lwsp	t6,160(sp)
    2cb4:	84e2                	c.mv	s1,s8
    2cb6:	86e6                	c.mv	a3,s9
    2cb8:	5c2a                	c.lwsp	s8,168(sp)
    2cba:	4ca2                	c.lwsp	s9,8(sp)
    2cbc:	c46f9e7f          	maddr32	t3,t6,t1
    2cc0:	5dc2                	c.lwsp	s11,48(sp)
    2cc2:	c46c9c7f          	maddr32	s8,s9,t1
    2cc6:	cb72                	c.swsp	t3,148(sp)
    2cc8:	1b812f03          	lw	t5,440(sp)
    2ccc:	001f7e93          	andi	t4,t5,1
    2cd0:	460e8863          	beqz	t4,3140 <riscv_nn_vec_mat_mult_t_s8+0x95c>
    2cd4:	4701                	c.li	a4,0
    2cd6:	c299                	c.beqz	a3,2cdc <riscv_nn_vec_mat_mult_t_s8+0x4f8>
    2cd8:	0006a703          	lw	a4,0(a3)
    2cdc:	1b412a03          	lw	s4,436(sp)
    2ce0:	4881                	c.li	a7,0
    2ce2:	402a5b93          	srai	s7,s4,0x2
    2ce6:	260b8963          	beqz	s7,2f58 <riscv_nn_vec_mat_mult_t_s8+0x774>
    2cea:	003bf393          	andi	t2,s7,3
    2cee:	8862                	c.mv	a6,s8
    2cf0:	88ee                	c.mv	a7,s11
    2cf2:	8e5e                	c.mv	t3,s7
    2cf4:	fffb8593          	addi	a1,s7,-1
    2cf8:	10038c63          	beqz	t2,2e10 <riscv_nn_vec_mat_mult_t_s8+0x62c>
    2cfc:	4405                	c.li	s0,1
    2cfe:	0a838f63          	beq	t2,s0,2dbc <riscv_nn_vec_mat_mult_t_s8+0x5d8>
    2d02:	4509                	c.li	a0,2
    2d04:	06a38463          	beq	t2,a0,2d6c <riscv_nn_vec_mat_mult_t_s8+0x588>
    2d08:	000daa83          	lw	s5,0(s11)
    2d0c:	17512023          	sw	s5,352(sp)
    2d10:	17512223          	sw	s5,356(sp)
    2d14:	16012603          	lw	a2,352(sp)
    2d18:	16412683          	lw	a3,356(sp)
    2d1c:	004d8893          	addi	a7,s11,4
    2d20:	de86087f          	wexti	a6,a2,8
    2d24:	ac980b7f          	sunpkd820	s6,a6
    2d28:	41628d7f          	add16	s10,t0,s6
    2d2c:	ac9a86ff          	sunpkd820	a3,s5
    2d30:	40d289ff          	add16	s3,t0,a3
    2d34:	000c2303          	lw	t1,0(s8)
    2d38:	16612423          	sw	t1,360(sp)
    2d3c:	16612623          	sw	t1,364(sp)
    2d40:	16812e03          	lw	t3,360(sp)
    2d44:	16c12e83          	lw	t4,364(sp)
    2d48:	004c0813          	addi	a6,s8,4
    2d4c:	de8e0fff          	wexti	t6,t3,8
    2d50:	ac9f8cff          	sunpkd820	s9,t6
    2d54:	41948f7f          	add16	t5,s1,s9
    2d58:	ac930eff          	sunpkd820	t4,t1
    2d5c:	41d48a7f          	add16	s4,s1,t4
    2d60:	49af177f          	kmada	a4,t5,s10
    2d64:	493a177f          	kmada	a4,s4,s3
    2d68:	00b00e33          	add	t3,zero,a1
    2d6c:	0008a583          	lw	a1,0(a7)
    2d70:	c5ae                	c.swsp	a1,200(sp)
    2d72:	c7ae                	c.swsp	a1,204(sp)
    2d74:	462e                	c.lwsp	a2,200(sp)
    2d76:	46be                	c.lwsp	a3,204(sp)
    2d78:	0891                	c.addi	a7,4
    2d7a:	de8603ff          	wexti	t2,a2,8
    2d7e:	ac93847f          	sunpkd820	s0,t2
    2d82:	4082857f          	add16	a0,t0,s0
    2d86:	ac958aff          	sunpkd820	s5,a1
    2d8a:	41528b7f          	add16	s6,t0,s5
    2d8e:	00082d03          	lw	s10,0(a6)
    2d92:	c9ea                	c.swsp	s10,208(sp)
    2d94:	cbea                	c.swsp	s10,212(sp)
    2d96:	434e                	c.lwsp	t1,208(sp)
    2d98:	43de                	c.lwsp	t2,212(sp)
    2d9a:	0811                	c.addi	a6,4
    2d9c:	de8306ff          	wexti	a3,t1,8
    2da0:	ac9689ff          	sunpkd820	s3,a3
    2da4:	41348fff          	add16	t6,s1,s3
    2da8:	ac9d0cff          	sunpkd820	s9,s10
    2dac:	41948f7f          	add16	t5,s1,s9
    2db0:	48af977f          	kmada	a4,t6,a0
    2db4:	496f177f          	kmada	a4,t5,s6
    2db8:	fffe0e13          	addi	t3,t3,-1
    2dbc:	0008ae83          	lw	t4,0(a7)
    2dc0:	d976                	c.swsp	t4,176(sp)
    2dc2:	db76                	c.swsp	t4,180(sp)
    2dc4:	5a4a                	c.lwsp	s4,176(sp)
    2dc6:	5ada                	c.lwsp	s5,180(sp)
    2dc8:	0891                	c.addi	a7,4
    2dca:	de8a05ff          	wexti	a1,s4,8
    2dce:	ac95867f          	sunpkd820	a2,a1
    2dd2:	40c283ff          	add16	t2,t0,a2
    2dd6:	ac9e847f          	sunpkd820	s0,t4
    2dda:	4082857f          	add16	a0,t0,s0
    2dde:	00082a83          	lw	s5,0(a6)
    2de2:	dd56                	c.swsp	s5,184(sp)
    2de4:	df56                	c.swsp	s5,188(sp)
    2de6:	5f6a                	c.lwsp	t5,184(sp)
    2de8:	5ffa                	c.lwsp	t6,188(sp)
    2dea:	0811                	c.addi	a6,4
    2dec:	de8f0b7f          	wexti	s6,t5,8
    2df0:	ac9b0d7f          	sunpkd820	s10,s6
    2df4:	41a4837f          	add16	t1,s1,s10
    2df8:	ac9a86ff          	sunpkd820	a3,s5
    2dfc:	40d489ff          	add16	s3,s1,a3
    2e00:	4873177f          	kmada	a4,t1,t2
    2e04:	48a9977f          	kmada	a4,s3,a0
    2e08:	fffe0e13          	addi	t3,t3,-1
    2e0c:	140e0263          	beqz	t3,2f50 <riscv_nn_vec_mat_mult_t_s8+0x76c>
    2e10:	8ca6                	c.mv	s9,s1
    2e12:	86f2                	c.mv	a3,t3
    2e14:	866e                	c.mv	a2,s11
    2e16:	c45e                	c.swsp	s7,8(sp)
    2e18:	c662                	c.swsp	s8,12(sp)
    2e1a:	c83e                	c.swsp	a5,16(sp)
    2e1c:	1d212423          	sw	s2,456(sp)
    2e20:	0008ac03          	lw	s8,0(a7)
    2e24:	cd62                	c.swsp	s8,152(sp)
    2e26:	cf62                	c.swsp	s8,156(sp)
    2e28:	4d6a                	c.lwsp	s10,152(sp)
    2e2a:	4dfa                	c.lwsp	s11,156(sp)
    2e2c:	00488913          	addi	s2,a7,4
    2e30:	de8d07ff          	wexti	a5,s10,8
    2e34:	ac978dff          	sunpkd820	s11,a5
    2e38:	41b284ff          	add16	s1,t0,s11
    2e3c:	ac9c0bff          	sunpkd820	s7,s8
    2e40:	41728fff          	add16	t6,t0,s7
    2e44:	00082e83          	lw	t4,0(a6)
    2e48:	8576                	c.mv	a0,t4
    2e4a:	85f6                	c.mv	a1,t4
    2e4c:	00480a13          	addi	s4,a6,4
    2e50:	de8505ff          	wexti	a1,a0,8
    2e54:	ac9583ff          	sunpkd820	t2,a1
    2e58:	407c847f          	add16	s0,s9,t2
    2e5c:	ac9e857f          	sunpkd820	a0,t4
    2e60:	40ac8aff          	add16	s5,s9,a0
    2e64:	4894177f          	kmada	a4,s0,s1
    2e68:	49fa977f          	kmada	a4,s5,t6
    2e6c:	00092f03          	lw	t5,0(s2)
    2e70:	837a                	c.mv	t1,t5
    2e72:	83fa                	c.mv	t2,t5
    2e74:	00888993          	addi	s3,a7,8
    2e78:	de830b7f          	wexti	s6,t1,8
    2e7c:	ac9b0d7f          	sunpkd820	s10,s6
    2e80:	41a2837f          	add16	t1,t0,s10
    2e84:	ac9f0e7f          	sunpkd820	t3,t5
    2e88:	41c28c7f          	add16	s8,t0,t3
    2e8c:	000a2903          	lw	s2,0(s4)
    2e90:	8e4a                	c.mv	t3,s2
    2e92:	8eca                	c.mv	t4,s2
    2e94:	00880493          	addi	s1,a6,8
    2e98:	de8e07ff          	wexti	a5,t3,8
    2e9c:	ac978dff          	sunpkd820	s11,a5
    2ea0:	41bc8bff          	add16	s7,s9,s11
    2ea4:	ac990fff          	sunpkd820	t6,s2
    2ea8:	41fc8eff          	add16	t4,s9,t6
    2eac:	486b977f          	kmada	a4,s7,t1
    2eb0:	498e977f          	kmada	a4,t4,s8
    2eb4:	0009aa03          	lw	s4,0(s3)
    2eb8:	8f52                	c.mv	t5,s4
    2eba:	8fd2                	c.mv	t6,s4
    2ebc:	00c88593          	addi	a1,a7,12
    2ec0:	de8f03ff          	wexti	t2,t5,8
    2ec4:	ac93847f          	sunpkd820	s0,t2
    2ec8:	4082857f          	add16	a0,t0,s0
    2ecc:	ac9a0aff          	sunpkd820	s5,s4
    2ed0:	41528f7f          	add16	t5,t0,s5
    2ed4:	0004a983          	lw	s3,0(s1)
    2ed8:	844e                	c.mv	s0,s3
    2eda:	84ce                	c.mv	s1,s3
    2edc:	00c80313          	addi	t1,a6,12
    2ee0:	de840b7f          	wexti	s6,s0,8
    2ee4:	ac9b0d7f          	sunpkd820	s10,s6
    2ee8:	41ac8e7f          	add16	t3,s9,s10
    2eec:	ac998c7f          	sunpkd820	s8,s3
    2ef0:	418c897f          	add16	s2,s9,s8
    2ef4:	48ae177f          	kmada	a4,t3,a0
    2ef8:	49e9177f          	kmada	a4,s2,t5
    2efc:	4184                	c.lw	s1,0(a1)
    2efe:	8926                	c.mv	s2,s1
    2f00:	89a6                	c.mv	s3,s1
    2f02:	08c1                	c.addi	a7,16
    2f04:	de8907ff          	wexti	a5,s2,8
    2f08:	ac978dff          	sunpkd820	s11,a5
    2f0c:	41b28bff          	add16	s7,t0,s11
    2f10:	ac948fff          	sunpkd820	t6,s1
    2f14:	41f28eff          	add16	t4,t0,t6
    2f18:	00032583          	lw	a1,0(t1)
    2f1c:	8a2e                	c.mv	s4,a1
    2f1e:	8aae                	c.mv	s5,a1
    2f20:	0841                	c.addi	a6,16
    2f22:	de8a0a7f          	wexti	s4,s4,8
    2f26:	ac9a03ff          	sunpkd820	t2,s4
    2f2a:	407c847f          	add16	s0,s9,t2
    2f2e:	ac95857f          	sunpkd820	a0,a1
    2f32:	40ac8aff          	add16	s5,s9,a0
    2f36:	4974177f          	kmada	a4,s0,s7
    2f3a:	49da977f          	kmada	a4,s5,t4
    2f3e:	16f1                	c.addi	a3,-4
    2f40:	ee0690e3          	bnez	a3,2e20 <riscv_nn_vec_mat_mult_t_s8+0x63c>
    2f44:	4ba2                	c.lwsp	s7,8(sp)
    2f46:	4c32                	c.lwsp	s8,12(sp)
    2f48:	47c2                	c.lwsp	a5,16(sp)
    2f4a:	1c812903          	lw	s2,456(sp)
    2f4e:	8db2                	c.mv	s11,a2
    2f50:	002b9893          	slli	a7,s7,0x2
    2f54:	9c46                	c.add	s8,a7
    2f56:	9dc6                	c.add	s11,a7
    2f58:	1b412283          	lw	t0,436(sp)
    2f5c:	1658da63          	bge	a7,t0,30d0 <riscv_nn_vec_mat_mult_t_s8+0x8ec>
    2f60:	41128833          	sub	a6,t0,a7
    2f64:	00787c93          	andi	s9,a6,7
    2f68:	010d8f33          	add	t5,s11,a6
    2f6c:	0a0c8e63          	beqz	s9,3028 <riscv_nn_vec_mat_mult_t_s8+0x844>
    2f70:	4605                	c.li	a2,1
    2f72:	08cc8d63          	beq	s9,a2,300c <riscv_nn_vec_mat_mult_t_s8+0x828>
    2f76:	4989                	c.li	s3,2
    2f78:	073c8e63          	beq	s9,s3,2ff4 <riscv_nn_vec_mat_mult_t_s8+0x810>
    2f7c:	430d                	c.li	t1,3
    2f7e:	046c8f63          	beq	s9,t1,2fdc <riscv_nn_vec_mat_mult_t_s8+0x7f8>
    2f82:	4b11                	c.li	s6,4
    2f84:	056c8063          	beq	s9,s6,2fc4 <riscv_nn_vec_mat_mult_t_s8+0x7e0>
    2f88:	4d15                	c.li	s10,5
    2f8a:	03ac8163          	beq	s9,s10,2fac <riscv_nn_vec_mat_mult_t_s8+0x7c8>
    2f8e:	4e19                	c.li	t3,6
    2f90:	19cc90e3          	bne	s9,t3,3910 <riscv_nn_vec_mat_mult_t_s8+0x112c>
    2f94:	000d8a03          	lb	s4,0(s11)
    2f98:	000c0583          	lb	a1,0(s8)
    2f9c:	0d85                	c.addi	s11,1
    2f9e:	00fa03b3          	add	t2,s4,a5
    2fa2:	01258433          	add	s0,a1,s2
    2fa6:	c474177f          	maddr32	a4,s0,t2
    2faa:	0c05                	c.addi	s8,1
    2fac:	000d8503          	lb	a0,0(s11)
    2fb0:	000c0a83          	lb	s5,0(s8)
    2fb4:	0d85                	c.addi	s11,1
    2fb6:	00f506b3          	add	a3,a0,a5
    2fba:	012a88b3          	add	a7,s5,s2
    2fbe:	c4d8977f          	maddr32	a4,a7,a3
    2fc2:	0c05                	c.addi	s8,1
    2fc4:	000d8283          	lb	t0,0(s11)
    2fc8:	000c0803          	lb	a6,0(s8)
    2fcc:	0d85                	c.addi	s11,1
    2fce:	00f28cb3          	add	s9,t0,a5
    2fd2:	01280633          	add	a2,a6,s2
    2fd6:	c596177f          	maddr32	a4,a2,s9
    2fda:	0c05                	c.addi	s8,1
    2fdc:	000d8983          	lb	s3,0(s11)
    2fe0:	000c0303          	lb	t1,0(s8)
    2fe4:	0d85                	c.addi	s11,1
    2fe6:	00f98b33          	add	s6,s3,a5
    2fea:	01230d33          	add	s10,t1,s2
    2fee:	c56d177f          	maddr32	a4,s10,s6
    2ff2:	0c05                	c.addi	s8,1
    2ff4:	000d8e03          	lb	t3,0(s11)
    2ff8:	000c0483          	lb	s1,0(s8)
    2ffc:	0d85                	c.addi	s11,1
    2ffe:	00fe0bb3          	add	s7,t3,a5
    3002:	01248fb3          	add	t6,s1,s2
    3006:	c57f977f          	maddr32	a4,t6,s7
    300a:	0c05                	c.addi	s8,1
    300c:	000d8e83          	lb	t4,0(s11)
    3010:	000c0a03          	lb	s4,0(s8)
    3014:	0d85                	c.addi	s11,1
    3016:	00fe83b3          	add	t2,t4,a5
    301a:	012a05b3          	add	a1,s4,s2
    301e:	c475977f          	maddr32	a4,a1,t2
    3022:	0c05                	c.addi	s8,1
    3024:	0bed8663          	beq	s11,t5,30d0 <riscv_nn_vec_mat_mult_t_s8+0x8ec>
    3028:	000d8403          	lb	s0,0(s11)
    302c:	000c0a83          	lb	s5,0(s8)
    3030:	001d8683          	lb	a3,1(s11)
    3034:	001c0883          	lb	a7,1(s8)
    3038:	00f40533          	add	a0,s0,a5
    303c:	012a82b3          	add	t0,s5,s2
    3040:	c4a2977f          	maddr32	a4,t0,a0
    3044:	002d8c83          	lb	s9,2(s11)
    3048:	002c0803          	lb	a6,2(s8)
    304c:	00f68633          	add	a2,a3,a5
    3050:	012889b3          	add	s3,a7,s2
    3054:	c4c9977f          	maddr32	a4,s3,a2
    3058:	003d8303          	lb	t1,3(s11)
    305c:	003c0b03          	lb	s6,3(s8)
    3060:	00fc8d33          	add	s10,s9,a5
    3064:	01280e33          	add	t3,a6,s2
    3068:	c5ae177f          	maddr32	a4,t3,s10
    306c:	004d8483          	lb	s1,4(s11)
    3070:	004c0b83          	lb	s7,4(s8)
    3074:	00f30fb3          	add	t6,t1,a5
    3078:	012b0eb3          	add	t4,s6,s2
    307c:	c5fe977f          	maddr32	a4,t4,t6
    3080:	005d8a03          	lb	s4,5(s11)
    3084:	005c0383          	lb	t2,5(s8)
    3088:	00f485b3          	add	a1,s1,a5
    308c:	012b8433          	add	s0,s7,s2
    3090:	c4b4177f          	maddr32	a4,s0,a1
    3094:	006d8a83          	lb	s5,6(s11)
    3098:	006c0683          	lb	a3,6(s8)
    309c:	00fa08b3          	add	a7,s4,a5
    30a0:	01238533          	add	a0,t2,s2
    30a4:	c515177f          	maddr32	a4,a0,a7
    30a8:	007d8283          	lb	t0,7(s11)
    30ac:	007c0c83          	lb	s9,7(s8)
    30b0:	00fa8633          	add	a2,s5,a5
    30b4:	01268833          	add	a6,a3,s2
    30b8:	c4c8177f          	maddr32	a4,a6,a2
    30bc:	00f289b3          	add	s3,t0,a5
    30c0:	012c8333          	add	t1,s9,s2
    30c4:	0da1                	c.addi	s11,8
    30c6:	c533177f          	maddr32	a4,t1,s3
    30ca:	0c21                	c.addi	s8,8
    30cc:	f5ed9ee3          	bne	s11,t5,3028 <riscv_nn_vec_mat_mult_t_s8+0x844>
    30d0:	1b012c03          	lw	s8,432(sp)
    30d4:	00000f13          	li	t5,0
    30d8:	f3ec097f          	maxw	s2,s8,t5
    30dc:	01271933          	sll	s2,a4,s2
    30e0:	4d92                	c.lwsp	s11,4(sp)
    30e2:	1b012b03          	lw	s6,432(sp)
    30e6:	40000737          	lui	a4,0x40000
    30ea:	4781                	c.li	a5,0
    30ec:	85b9177f          	smar64	a4,s2,s11
    30f0:	41600d33          	neg	s10,s6
    30f4:	f3ed0f7f          	maxw	t5,s10,t5
    30f8:	4e05                	c.li	t3,1
    30fa:	01ee14b3          	sll	s1,t3,t5
    30fe:	dff7077f          	wexti	a4,a4,31
    3102:	fff48793          	addi	a5,s1,-1
    3106:	4017db93          	srai	s7,a5,0x1
    310a:	00072f93          	slti	t6,a4,0
    310e:	00e7feb3          	and	t4,a5,a4
    3112:	01fb8a33          	add	s4,s7,t6
    3116:	4ae2                	c.lwsp	s5,24(sp)
    3118:	41e753b3          	sra	t2,a4,t5
    311c:	01da25b3          	slt	a1,s4,t4
    3120:	1bc12883          	lw	a7,444(sp)
    3124:	00b38433          	add	s0,t2,a1
    3128:	1c012283          	lw	t0,448(sp)
    312c:	008a86b3          	add	a3,s5,s0
    3130:	09412603          	lw	a2,148(sp)
    3134:	f316857f          	maxw	a0,a3,a7
    3138:	f0550cff          	minw	s9,a0,t0
    313c:	01960023          	sb	s9,0(a2) # 40000000 <_DATA_LMA_START+0x1fff9fc8>
    3140:	1ac12403          	lw	s0,428(sp)
    3144:	1a812483          	lw	s1,424(sp)
    3148:	1a412903          	lw	s2,420(sp)
    314c:	1a012983          	lw	s3,416(sp)
    3150:	19c12a03          	lw	s4,412(sp)
    3154:	19812a83          	lw	s5,408(sp)
    3158:	19412b03          	lw	s6,404(sp)
    315c:	19012b83          	lw	s7,400(sp)
    3160:	18c12c03          	lw	s8,396(sp)
    3164:	18812c83          	lw	s9,392(sp)
    3168:	18412d03          	lw	s10,388(sp)
    316c:	18012d83          	lw	s11,384(sp)
    3170:	4501                	c.li	a0,0
    3172:	615d                	c.addi16sp	sp,432
    3174:	00008067          	ret
    3178:	0e9492ff          	pkbb16	t0,s1,s1
    317c:	1b812583          	lw	a1,440(sp)
    3180:	4505                	c.li	a0,1
    3182:	3eb55b63          	bge	a0,a1,3578 <riscv_nn_vec_mat_mult_t_s8+0xd94>
    3186:	1b012803          	lw	a6,432(sp)
    318a:	1b412a03          	lw	s4,436(sp)
    318e:	410008b3          	neg	a7,a6
    3192:	f3288f7f          	maxw	t5,a7,s2
    3196:	01e519b3          	sll	s3,a0,t5
    319a:	1b412b83          	lw	s7,436(sp)
    319e:	fff98c93          	addi	s9,s3,-1
    31a2:	1c412603          	lw	a2,452(sp)
    31a6:	1b012383          	lw	t2,432(sp)
    31aa:	1b412883          	lw	a7,436(sp)
    31ae:	ffca7a93          	andi	s5,s4,-4
    31b2:	401cdb13          	srai	s6,s9,0x1
    31b6:	f3238d7f          	maxw	s10,t2,s2
    31ba:	402bde13          	srai	t3,s7,0x2
    31be:	001b9e93          	slli	t4,s7,0x1
    31c2:	015c0433          	add	s0,s8,s5
    31c6:	45da                	c.lwsp	a1,148(sp)
    31c8:	001b0f93          	addi	t6,s6,1
    31cc:	00161313          	slli	t1,a2,0x1
    31d0:	015d84b3          	add	s1,s11,s5
    31d4:	41588833          	sub	a6,a7,s5
    31d8:	4701                	c.li	a4,0
    31da:	ce76                	c.swsp	t4,28(sp)
    31dc:	d26a                	c.swsp	s10,36(sp)
    31de:	c172                	c.swsp	t3,128(sp)
    31e0:	c962                	c.swsp	s8,144(sp)
    31e2:	1d212423          	sw	s2,456(sp)
    31e6:	8d36                	c.mv	s10,a3
    31e8:	ded6                	c.swsp	s5,124(sp)
    31ea:	c4da                	c.swsp	s6,72(sp)
    31ec:	d07e                	c.swsp	t6,32(sp)
    31ee:	c326                	c.swsp	s1,132(sp)
    31f0:	c542                	c.swsp	a6,136(sp)
    31f2:	c71a                	c.swsp	t1,140(sp)
    31f4:	dce6                	c.swsp	s9,120(sp)
    31f6:	c422                	c.swsp	s0,8(sp)
    31f8:	dc6e                	c.swsp	s11,56(sp)
    31fa:	d47a                	c.swsp	t5,40(sp)
    31fc:	8562                	c.mv	a0,s8
    31fe:	5e42                	c.lwsp	t3,48(sp)
    3200:	5ed2                	c.lwsp	t4,52(sp)
    3202:	8c3a                	c.mv	s8,a4
    3204:	00b00933          	add	s2,zero,a1
    3208:	320d0e63          	beqz	s10,3544 <riscv_nn_vec_mat_mult_t_s8+0xd60>
    320c:	46f2                	c.lwsp	a3,28(sp)
    320e:	4f0a                	c.lwsp	t5,128(sp)
    3210:	00d50db3          	add	s11,a0,a3
    3214:	d86e                	c.swsp	s11,48(sp)
    3216:	000d2603          	lw	a2,0(s10)
    321a:	004d2703          	lw	a4,4(s10)
    321e:	01150833          	add	a6,a0,a7
    3222:	0d21                	c.addi	s10,8
    3224:	320f0c63          	beqz	t5,355c <riscv_nn_vec_mat_mult_t_s8+0xd78>
    3228:	ffff0a13          	addi	s4,t5,-1
    322c:	001f7c93          	andi	s9,t5,1
    3230:	c0d2                	c.swsp	s4,64(sp)
    3232:	5de2                	c.lwsp	s11,56(sp)
    3234:	89fa                	c.mv	s3,t5
    3236:	060c8763          	beqz	s9,32a4 <riscv_nn_vec_mat_mult_t_s8+0xac0>
    323a:	000da983          	lw	s3,0(s11)
    323e:	c8ce                	c.swsp	s3,80(sp)
    3240:	cace                	c.swsp	s3,84(sp)
    3242:	4b46                	c.lwsp	s6,80(sp)
    3244:	4bd6                	c.lwsp	s7,84(sp)
    3246:	0d91                	c.addi	s11,4
    3248:	de8b0aff          	wexti	s5,s6,8
    324c:	ac9a8bff          	sunpkd820	s7,s5
    3250:	41728fff          	add16	t6,t0,s7
    3254:	ac99837f          	sunpkd820	t1,s3
    3258:	4062847f          	add16	s0,t0,t1
    325c:	4104                	c.lw	s1,0(a0)
    325e:	cca6                	c.swsp	s1,88(sp)
    3260:	cea6                	c.swsp	s1,92(sp)
    3262:	4a66                	c.lwsp	s4,88(sp)
    3264:	4af6                	c.lwsp	s5,92(sp)
    3266:	0511                	c.addi	a0,4
    3268:	de8a03ff          	wexti	t2,s4,8
    326c:	ac9385ff          	sunpkd820	a1,t2
    3270:	ac9486ff          	sunpkd820	a3,s1
    3274:	49f5967f          	kmada	a2,a1,t6
    3278:	4886967f          	kmada	a2,a3,s0
    327c:	00082f03          	lw	t5,0(a6)
    3280:	d0fa                	c.swsp	t5,96(sp)
    3282:	d2fa                	c.swsp	t5,100(sp)
    3284:	5b06                	c.lwsp	s6,96(sp)
    3286:	5b96                	c.lwsp	s7,100(sp)
    3288:	0811                	c.addi	a6,4
    328a:	de8b0cff          	wexti	s9,s6,8
    328e:	ac9c89ff          	sunpkd820	s3,s9
    3292:	ac9f0aff          	sunpkd820	s5,t5
    3296:	49f9977f          	kmada	a4,s3,t6
    329a:	488a977f          	kmada	a4,s5,s0
    329e:	4986                	c.lwsp	s3,64(sp)
    32a0:	0c098e63          	beqz	s3,337c <riscv_nn_vec_mat_mult_t_s8+0xb98>
    32a4:	c0ca                	c.swsp	s2,64(sp)
    32a6:	d4e2                	c.swsp	s8,104(sp)
    32a8:	06f12823          	sw	a5,112(sp)
    32ac:	1b112a23          	sw	a7,436(sp)
    32b0:	000da783          	lw	a5,0(s11)
    32b4:	8b3e                	c.mv	s6,a5
    32b6:	8bbe                	c.mv	s7,a5
    32b8:	004d8f93          	addi	t6,s11,4
    32bc:	de8b097f          	wexti	s2,s6,8
    32c0:	ac990c7f          	sunpkd820	s8,s2
    32c4:	41828bff          	add16	s7,t0,s8
    32c8:	ac978e7f          	sunpkd820	t3,a5
    32cc:	41c2847f          	add16	s0,t0,t3
    32d0:	00052e83          	lw	t4,0(a0) # 40000000 <_DATA_LMA_START+0x1fff9fc8>
    32d4:	8376                	c.mv	t1,t4
    32d6:	83f6                	c.mv	t2,t4
    32d8:	00450493          	addi	s1,a0,4
    32dc:	de8308ff          	wexti	a7,t1,8
    32e0:	ac988a7f          	sunpkd820	s4,a7
    32e4:	ac9e85ff          	sunpkd820	a1,t4
    32e8:	497a167f          	kmada	a2,s4,s7
    32ec:	4885967f          	kmada	a2,a1,s0
    32f0:	00082683          	lw	a3,0(a6)
    32f4:	8e36                	c.mv	t3,a3
    32f6:	8eb6                	c.mv	t4,a3
    32f8:	00480b13          	addi	s6,a6,4
    32fc:	de8e0f7f          	wexti	t5,t3,8
    3300:	ac9f0cff          	sunpkd820	s9,t5
    3304:	ac968aff          	sunpkd820	s5,a3
    3308:	497c977f          	kmada	a4,s9,s7
    330c:	488a977f          	kmada	a4,s5,s0
    3310:	000fa903          	lw	s2,0(t6)
    3314:	8f4a                	c.mv	t5,s2
    3316:	8fca                	c.mv	t6,s2
    3318:	0da1                	c.addi	s11,8
    331a:	de8f07ff          	wexti	a5,t5,8
    331e:	ac978fff          	sunpkd820	t6,a5
    3322:	41f28c7f          	add16	s8,t0,t6
    3326:	ac990bff          	sunpkd820	s7,s2
    332a:	417288ff          	add16	a7,t0,s7
    332e:	4080                	c.lw	s0,0(s1)
    3330:	8a22                	c.mv	s4,s0
    3332:	8aa2                	c.mv	s5,s0
    3334:	0521                	c.addi	a0,8
    3336:	de8a04ff          	wexti	s1,s4,8
    333a:	ac948a7f          	sunpkd820	s4,s1
    333e:	ac9405ff          	sunpkd820	a1,s0
    3342:	498a167f          	kmada	a2,s4,s8
    3346:	4915967f          	kmada	a2,a1,a7
    334a:	000b2683          	lw	a3,0(s6)
    334e:	8436                	c.mv	s0,a3
    3350:	84b6                	c.mv	s1,a3
    3352:	0821                	c.addi	a6,8
    3354:	de840b7f          	wexti	s6,s0,8
    3358:	ac9b0f7f          	sunpkd820	t5,s6
    335c:	ac968cff          	sunpkd820	s9,a3
    3360:	498f177f          	kmada	a4,t5,s8
    3364:	491c977f          	kmada	a4,s9,a7
    3368:	19f9                	c.addi	s3,-2
    336a:	f40993e3          	bnez	s3,32b0 <riscv_nn_vec_mat_mult_t_s8+0xacc>
    336e:	4906                	c.lwsp	s2,64(sp)
    3370:	5c26                	c.lwsp	s8,104(sp)
    3372:	57c6                	c.lwsp	a5,112(sp)
    3374:	1b412883          	lw	a7,436(sp)
    3378:	c81a                	c.swsp	t1,16(sp)
    337a:	ca1e                	c.swsp	t2,20(sp)
    337c:	4522                	c.lwsp	a0,8(sp)
    337e:	469a                	c.lwsp	a3,132(sp)
    3380:	00a88833          	add	a6,a7,a0
    3384:	5df6                	c.lwsp	s11,124(sp)
    3386:	0f1ddf63          	bge	s11,a7,3484 <riscv_nn_vec_mat_mult_t_s8+0xca0>
    338a:	432a                	c.lwsp	t1,136(sp)
    338c:	00337393          	andi	t2,t1,3
    3390:	00668ab3          	add	s5,a3,t1
    3394:	06038a63          	beqz	t2,3408 <riscv_nn_vec_mat_mult_t_s8+0xc24>
    3398:	4985                	c.li	s3,1
    339a:	05338563          	beq	t2,s3,33e4 <riscv_nn_vec_mat_mult_t_s8+0xc00>
    339e:	4f89                	c.li	t6,2
    33a0:	03f38263          	beq	t2,t6,33c4 <riscv_nn_vec_mat_mult_t_s8+0xbe0>
    33a4:	00068b83          	lb	s7,0(a3)
    33a8:	00050403          	lb	s0,0(a0)
    33ac:	00080483          	lb	s1,0(a6)
    33b0:	00fb8a33          	add	s4,s7,a5
    33b4:	c544167f          	maddr32	a2,s0,s4
    33b8:	c544977f          	maddr32	a4,s1,s4
    33bc:	0685                	c.addi	a3,1
    33be:	0505                	c.addi	a0,1
    33c0:	00180813          	addi	a6,a6,1
    33c4:	00068583          	lb	a1,0(a3)
    33c8:	00050b03          	lb	s6,0(a0)
    33cc:	00080f03          	lb	t5,0(a6)
    33d0:	00f58cb3          	add	s9,a1,a5
    33d4:	c59b167f          	maddr32	a2,s6,s9
    33d8:	c59f177f          	maddr32	a4,t5,s9
    33dc:	0685                	c.addi	a3,1
    33de:	0505                	c.addi	a0,1
    33e0:	00180813          	addi	a6,a6,1
    33e4:	00068303          	lb	t1,0(a3)
    33e8:	00050d83          	lb	s11,0(a0)
    33ec:	00080383          	lb	t2,0(a6)
    33f0:	00f309b3          	add	s3,t1,a5
    33f4:	0685                	c.addi	a3,1
    33f6:	c53d967f          	maddr32	a2,s11,s3
    33fa:	c533977f          	maddr32	a4,t2,s3
    33fe:	0505                	c.addi	a0,1
    3400:	00180813          	addi	a6,a6,1
    3404:	09568063          	beq	a3,s5,3484 <riscv_nn_vec_mat_mult_t_s8+0xca0>
    3408:	4442                	c.lwsp	s0,16(sp)
    340a:	44d2                	c.lwsp	s1,20(sp)
    340c:	c0f2                	c.swsp	t3,64(sp)
    340e:	c2f6                	c.swsp	t4,68(sp)
    3410:	00068e03          	lb	t3,0(a3)
    3414:	00050e83          	lb	t4,0(a0)
    3418:	00080f83          	lb	t6,0(a6)
    341c:	00fe0a33          	add	s4,t3,a5
    3420:	00168b83          	lb	s7,1(a3)
    3424:	00150b03          	lb	s6,1(a0)
    3428:	00180f03          	lb	t5,1(a6)
    342c:	c54e967f          	maddr32	a2,t4,s4
    3430:	c54f977f          	maddr32	a4,t6,s4
    3434:	00268c83          	lb	s9,2(a3)
    3438:	00fb85b3          	add	a1,s7,a5
    343c:	00250303          	lb	t1,2(a0)
    3440:	00280d83          	lb	s11,2(a6)
    3444:	c4bb167f          	maddr32	a2,s6,a1
    3448:	c4bf177f          	maddr32	a4,t5,a1
    344c:	00368383          	lb	t2,3(a3)
    3450:	00fc89b3          	add	s3,s9,a5
    3454:	00350e03          	lb	t3,3(a0)
    3458:	00380e83          	lb	t4,3(a6)
    345c:	c533167f          	maddr32	a2,t1,s3
    3460:	c53d977f          	maddr32	a4,s11,s3
    3464:	00f38fb3          	add	t6,t2,a5
    3468:	0691                	c.addi	a3,4
    346a:	c5fe167f          	maddr32	a2,t3,t6
    346e:	c5fe977f          	maddr32	a4,t4,t6
    3472:	0511                	c.addi	a0,4
    3474:	0811                	c.addi	a6,4
    3476:	f9569de3          	bne	a3,s5,3410 <riscv_nn_vec_mat_mult_t_s8+0xc2c>
    347a:	4e06                	c.lwsp	t3,64(sp)
    347c:	4e96                	c.lwsp	t4,68(sp)
    347e:	c822                	c.swsp	s0,16(sp)
    3480:	00912a23          	sw	s1,20(sp)
    3484:	5512                	c.lwsp	a0,36(sp)
    3486:	4812                	c.lwsp	a6,4(sp)
    3488:	00a61633          	sll	a2,a2,a0
    348c:	4581                	c.li	a1,0
    348e:	40000537          	lui	a0,0x40000
    3492:	8506157f          	smar64	a0,a2,a6
    3496:	54e6                	c.lwsp	s1,120(sp)
    3498:	56a2                	c.lwsp	a3,40(sp)
    349a:	dff50aff          	wexti	s5,a0,31
    349e:	5a02                	c.lwsp	s4,32(sp)
    34a0:	0154f433          	and	s0,s1,s5
    34a4:	40dadbb3          	sra	s7,s5,a3
    34a8:	000ac463          	bltz	s5,34b0 <riscv_nn_vec_mat_mult_t_s8+0xccc>
    34ac:	04812a03          	lw	s4,72(sp)
    34b0:	5b12                	c.lwsp	s6,36(sp)
    34b2:	4f12                	c.lwsp	t5,4(sp)
    34b4:	01671733          	sll	a4,a4,s6
    34b8:	40000637          	lui	a2,0x40000
    34bc:	4681                	c.li	a3,0
    34be:	85e7167f          	smar64	a2,a4,t5
    34c2:	5de6                	c.lwsp	s11,120(sp)
    34c4:	59a2                	c.lwsp	s3,40(sp)
    34c6:	dff6037f          	wexti	t1,a2,31
    34ca:	008a2cb3          	slt	s9,s4,s0
    34ce:	5502                	c.lwsp	a0,32(sp)
    34d0:	019b85b3          	add	a1,s7,s9
    34d4:	006df3b3          	and	t2,s11,t1
    34d8:	41335fb3          	sra	t6,t1,s3
    34dc:	00034463          	bltz	t1,34e4 <riscv_nn_vec_mat_mult_t_s8+0xd00>
    34e0:	04812503          	lw	a0,72(sp)
    34e4:	4ae2                	c.lwsp	s5,24(sp)
    34e6:	1bc12683          	lw	a3,444(sp)
    34ea:	00ba84b3          	add	s1,s5,a1
    34ee:	1c012b03          	lw	s6,448(sp)
    34f2:	00752633          	slt	a2,a0,t2
    34f6:	1c412f03          	lw	t5,452(sp)
    34fa:	f2968bff          	maxw	s7,a3,s1
    34fe:	00cf8833          	add	a6,t6,a2
    3502:	f17b077f          	minw	a4,s6,s7
    3506:	01e90cb3          	add	s9,s2,t5
    350a:	4da2                	c.lwsp	s11,8(sp)
    350c:	00e90023          	sb	a4,0(s2)
    3510:	43f2                	c.lwsp	t2,28(sp)
    3512:	1c012903          	lw	s2,448(sp)
    3516:	010a8433          	add	s0,s5,a6
    351a:	f2868a7f          	maxw	s4,a3,s0
    351e:	f14905ff          	minw	a1,s2,s4
    3522:	1c412303          	lw	t1,452(sp)
    3526:	007d89b3          	add	s3,s11,t2
    352a:	4fb2                	c.lwsp	t6,12(sp)
    352c:	0c05                	c.addi	s8,1
    352e:	00bc8023          	sb	a1,0(s9)
    3532:	c44e                	c.swsp	s3,8(sp)
    3534:	006c8933          	add	s2,s9,t1
    3538:	03fc5463          	bge	s8,t6,3560 <riscv_nn_vec_mat_mult_t_s8+0xd7c>
    353c:	03012503          	lw	a0,48(sp)
    3540:	cc0d16e3          	bnez	s10,320c <riscv_nn_vec_mat_mult_t_s8+0xa28>
    3544:	46f2                	c.lwsp	a3,28(sp)
    3546:	4f0a                	c.lwsp	t5,128(sp)
    3548:	00d50db3          	add	s11,a0,a3
    354c:	d86e                	c.swsp	s11,48(sp)
    354e:	4701                	c.li	a4,0
    3550:	00000613          	li	a2,0
    3554:	01150833          	add	a6,a0,a7
    3558:	cc0f18e3          	bnez	t5,3228 <riscv_nn_vec_mat_mult_t_s8+0xa44>
    355c:	56e2                	c.lwsp	a3,56(sp)
    355e:	b51d                	c.j	3384 <riscv_nn_vec_mat_mult_t_s8+0xba0>
    3560:	4eba                	c.lwsp	t4,140(sp)
    3562:	4c4a                	c.lwsp	s8,144(sp)
    3564:	86ea                	c.mv	a3,s10
    3566:	4d5a                	c.lwsp	s10,148(sp)
    3568:	5de2                	c.lwsp	s11,56(sp)
    356a:	1c812903          	lw	s2,456(sp)
    356e:	c5fe9d7f          	maddr32	s10,t4,t6
    3572:	c5f39c7f          	maddr32	s8,t2,t6
    3576:	cb6a                	c.swsp	s10,148(sp)
    3578:	1b812503          	lw	a0,440(sp)
    357c:	00157613          	andi	a2,a0,1
    3580:	bc0600e3          	beqz	a2,3140 <riscv_nn_vec_mat_mult_t_s8+0x95c>
    3584:	00068463          	beqz	a3,358c <riscv_nn_vec_mat_mult_t_s8+0xda8>
    3588:	0006a903          	lw	s2,0(a3)
    358c:	1b412803          	lw	a6,436(sp)
    3590:	4601                	c.li	a2,0
    3592:	40285a93          	srai	s5,a6,0x2
    3596:	220a8363          	beqz	s5,37bc <riscv_nn_vec_mat_mult_t_s8+0xfd8>
    359a:	003af493          	andi	s1,s5,3
    359e:	8662                	c.mv	a2,s8
    35a0:	85ee                	c.mv	a1,s11
    35a2:	8356                	c.mv	t1,s5
    35a4:	fffa8b93          	addi	s7,s5,-1
    35a8:	cce5                	c.beqz	s1,36a0 <riscv_nn_vec_mat_mult_t_s8+0xebc>
    35aa:	4405                	c.li	s0,1
    35ac:	0a848463          	beq	s1,s0,3654 <riscv_nn_vec_mat_mult_t_s8+0xe70>
    35b0:	4689                	c.li	a3,2
    35b2:	04d48f63          	beq	s1,a3,3610 <riscv_nn_vec_mat_mult_t_s8+0xe2c>
    35b6:	000daa03          	lw	s4,0(s11)
    35ba:	17412823          	sw	s4,368(sp)
    35be:	17412a23          	sw	s4,372(sp)
    35c2:	17012f03          	lw	t5,368(sp)
    35c6:	17412f83          	lw	t6,372(sp)
    35ca:	004d8593          	addi	a1,s11,4
    35ce:	de8f0b7f          	wexti	s6,t5,8
    35d2:	ac9b077f          	sunpkd820	a4,s6
    35d6:	40e28cff          	add16	s9,t0,a4
    35da:	ac9a037f          	sunpkd820	t1,s4
    35de:	406283ff          	add16	t2,t0,t1
    35e2:	000c2983          	lw	s3,0(s8)
    35e6:	17312c23          	sw	s3,376(sp)
    35ea:	17312e23          	sw	s3,380(sp)
    35ee:	17812e03          	lw	t3,376(sp)
    35f2:	17c12e83          	lw	t4,380(sp)
    35f6:	004c0613          	addi	a2,s8,4
    35fa:	de8e0fff          	wexti	t6,t3,8
    35fe:	ac9f88ff          	sunpkd820	a7,t6
    3602:	ac998eff          	sunpkd820	t4,s3
    3606:	4998997f          	kmada	s2,a7,s9
    360a:	487e997f          	kmada	s2,t4,t2
    360e:	835e                	c.mv	t1,s7
    3610:	0005ad03          	lw	s10,0(a1)
    3614:	cdea                	c.swsp	s10,216(sp)
    3616:	cfea                	c.swsp	s10,220(sp)
    3618:	486e                	c.lwsp	a6,216(sp)
    361a:	48fe                	c.lwsp	a7,220(sp)
    361c:	0591                	c.addi	a1,4
    361e:	de88057f          	wexti	a0,a6,8
    3622:	ac9504ff          	sunpkd820	s1,a0
    3626:	40928bff          	add16	s7,t0,s1
    362a:	ac9d047f          	sunpkd820	s0,s10
    362e:	40828a7f          	add16	s4,t0,s0
    3632:	4214                	c.lw	a3,0(a2)
    3634:	d1b6                	c.swsp	a3,224(sp)
    3636:	d3b6                	c.swsp	a3,228(sp)
    3638:	5f0e                	c.lwsp	t5,224(sp)
    363a:	5f9e                	c.lwsp	t6,228(sp)
    363c:	0611                	c.addi	a2,4
    363e:	de8f0b7f          	wexti	s6,t5,8
    3642:	ac9b077f          	sunpkd820	a4,s6
    3646:	ac968cff          	sunpkd820	s9,a3
    364a:	4977197f          	kmada	s2,a4,s7
    364e:	494c997f          	kmada	s2,s9,s4
    3652:	137d                	c.addi	t1,-1
    3654:	0005a383          	lw	t2,0(a1)
    3658:	d51e                	c.swsp	t2,168(sp)
    365a:	d71e                	c.swsp	t2,172(sp)
    365c:	5e2a                	c.lwsp	t3,168(sp)
    365e:	5eba                	c.lwsp	t4,172(sp)
    3660:	0591                	c.addi	a1,4
    3662:	de8e09ff          	wexti	s3,t3,8
    3666:	ac998fff          	sunpkd820	t6,s3
    366a:	41f28eff          	add16	t4,t0,t6
    366e:	ac9388ff          	sunpkd820	a7,t2
    3672:	41128d7f          	add16	s10,t0,a7
    3676:	00062803          	lw	a6,0(a2) # 40000000 <_DATA_LMA_START+0x1fff9fc8>
    367a:	c1c2                	c.swsp	a6,192(sp)
    367c:	c3c2                	c.swsp	a6,196(sp)
    367e:	440e                	c.lwsp	s0,192(sp)
    3680:	449e                	c.lwsp	s1,196(sp)
    3682:	0611                	c.addi	a2,4
    3684:	de84057f          	wexti	a0,s0,8
    3688:	ac9504ff          	sunpkd820	s1,a0
    368c:	ac980bff          	sunpkd820	s7,a6
    3690:	49d4997f          	kmada	s2,s1,t4
    3694:	49ab997f          	kmada	s2,s7,s10
    3698:	fff30313          	addi	t1,t1,-1
    369c:	10030c63          	beqz	t1,37b4 <riscv_nn_vec_mat_mult_t_s8+0xfd0>
    36a0:	8cae                	c.mv	s9,a1
    36a2:	c456                	c.swsp	s5,8(sp)
    36a4:	c66e                	c.swsp	s11,12(sp)
    36a6:	c862                	c.swsp	s8,16(sp)
    36a8:	00f12e23          	sw	a5,28(sp)
    36ac:	000cac03          	lw	s8,0(s9)
    36b0:	8762                	c.mv	a4,s8
    36b2:	87e2                	c.mv	a5,s8
    36b4:	004c8a93          	addi	s5,s9,4
    36b8:	de8707ff          	wexti	a5,a4,8
    36bc:	ac978dff          	sunpkd820	s11,a5
    36c0:	41b28a7f          	add16	s4,t0,s11
    36c4:	ac9c06ff          	sunpkd820	a3,s8
    36c8:	40d28f7f          	add16	t5,t0,a3
    36cc:	00062b03          	lw	s6,0(a2)
    36d0:	855a                	c.mv	a0,s6
    36d2:	85da                	c.mv	a1,s6
    36d4:	00460713          	addi	a4,a2,4
    36d8:	de8503ff          	wexti	t2,a0,8
    36dc:	ac9385ff          	sunpkd820	a1,t2
    36e0:	ac9b0e7f          	sunpkd820	t3,s6
    36e4:	4945997f          	kmada	s2,a1,s4
    36e8:	49ee197f          	kmada	s2,t3,t5
    36ec:	000aa983          	lw	s3,0(s5)
    36f0:	884e                	c.mv	a6,s3
    36f2:	88ce                	c.mv	a7,s3
    36f4:	008c8f93          	addi	t6,s9,8
    36f8:	de880eff          	wexti	t4,a6,8
    36fc:	ac9e88ff          	sunpkd820	a7,t4
    3700:	41128d7f          	add16	s10,t0,a7
    3704:	ac99887f          	sunpkd820	a6,s3
    3708:	4102847f          	add16	s0,t0,a6
    370c:	4308                	c.lw	a0,0(a4)
    370e:	8e2a                	c.mv	t3,a0
    3710:	8eaa                	c.mv	t4,a0
    3712:	00860493          	addi	s1,a2,8
    3716:	de8e0bff          	wexti	s7,t3,8
    371a:	ac9b8aff          	sunpkd820	s5,s7
    371e:	ac950c7f          	sunpkd820	s8,a0
    3722:	49aa997f          	kmada	s2,s5,s10
    3726:	488c197f          	kmada	s2,s8,s0
    372a:	000fa783          	lw	a5,0(t6)
    372e:	8f3e                	c.mv	t5,a5
    3730:	8fbe                	c.mv	t6,a5
    3732:	00cc8a13          	addi	s4,s9,12
    3736:	de8f0dff          	wexti	s11,t5,8
    373a:	ac9d86ff          	sunpkd820	a3,s11
    373e:	40d28f7f          	add16	t5,t0,a3
    3742:	ac978b7f          	sunpkd820	s6,a5
    3746:	4162877f          	add16	a4,t0,s6
    374a:	0004a383          	lw	t2,0(s1)
    374e:	841e                	c.mv	s0,t2
    3750:	849e                	c.mv	s1,t2
    3752:	00c60593          	addi	a1,a2,12
    3756:	de840e7f          	wexti	t3,s0,8
    375a:	ac9e09ff          	sunpkd820	s3,t3
    375e:	ac938fff          	sunpkd820	t6,t2
    3762:	49e9997f          	kmada	s2,s3,t5
    3766:	48ef997f          	kmada	s2,t6,a4
    376a:	000a2e83          	lw	t4,0(s4)
    376e:	8a76                	c.mv	s4,t4
    3770:	8af6                	c.mv	s5,t4
    3772:	0cc1                	c.addi	s9,16
    3774:	de8a08ff          	wexti	a7,s4,8
    3778:	ac988d7f          	sunpkd820	s10,a7
    377c:	41a2887f          	add16	a6,t0,s10
    3780:	ac9e847f          	sunpkd820	s0,t4
    3784:	4082857f          	add16	a0,t0,s0
    3788:	4184                	c.lw	s1,0(a1)
    378a:	8b26                	c.mv	s6,s1
    378c:	8ba6                	c.mv	s7,s1
    378e:	0641                	c.addi	a2,16
    3790:	de8b0bff          	wexti	s7,s6,8
    3794:	ac9b8aff          	sunpkd820	s5,s7
    3798:	ac948c7f          	sunpkd820	s8,s1
    379c:	490a997f          	kmada	s2,s5,a6
    37a0:	48ac197f          	kmada	s2,s8,a0
    37a4:	1371                	c.addi	t1,-4
    37a6:	f00313e3          	bnez	t1,36ac <riscv_nn_vec_mat_mult_t_s8+0xec8>
    37aa:	4aa2                	c.lwsp	s5,8(sp)
    37ac:	4db2                	c.lwsp	s11,12(sp)
    37ae:	4c42                	c.lwsp	s8,16(sp)
    37b0:	01c12783          	lw	a5,28(sp)
    37b4:	002a9613          	slli	a2,s5,0x2
    37b8:	9c32                	c.add	s8,a2
    37ba:	9db2                	c.add	s11,a2
    37bc:	1b412283          	lw	t0,436(sp)
    37c0:	12565e63          	bge	a2,t0,38fc <riscv_nn_vec_mat_mult_t_s8+0x1118>
    37c4:	40c28333          	sub	t1,t0,a2
    37c8:	00737a13          	andi	s4,t1,7
    37cc:	006d8f33          	add	t5,s11,t1
    37d0:	0a0a0263          	beqz	s4,3874 <riscv_nn_vec_mat_mult_t_s8+0x1090>
    37d4:	4685                	c.li	a3,1
    37d6:	08da0363          	beq	s4,a3,385c <riscv_nn_vec_mat_mult_t_s8+0x1078>
    37da:	4b09                	c.li	s6,2
    37dc:	076a0663          	beq	s4,s6,3848 <riscv_nn_vec_mat_mult_t_s8+0x1064>
    37e0:	470d                	c.li	a4,3
    37e2:	04ea0963          	beq	s4,a4,3834 <riscv_nn_vec_mat_mult_t_s8+0x1050>
    37e6:	4391                	c.li	t2,4
    37e8:	027a0c63          	beq	s4,t2,3820 <riscv_nn_vec_mat_mult_t_s8+0x103c>
    37ec:	4595                	c.li	a1,5
    37ee:	00ba0f63          	beq	s4,a1,380c <riscv_nn_vec_mat_mult_t_s8+0x1028>
    37f2:	4e19                	c.li	t3,6
    37f4:	13ca1c63          	bne	s4,t3,392c <riscv_nn_vec_mat_mult_t_s8+0x1148>
    37f8:	000d8c83          	lb	s9,0(s11)
    37fc:	000c0883          	lb	a7,0(s8)
    3800:	0d85                	c.addi	s11,1
    3802:	00fc8d33          	add	s10,s9,a5
    3806:	c5a8997f          	maddr32	s2,a7,s10
    380a:	0c05                	c.addi	s8,1
    380c:	000d8803          	lb	a6,0(s11)
    3810:	000c0403          	lb	s0,0(s8)
    3814:	0d85                	c.addi	s11,1
    3816:	00f80533          	add	a0,a6,a5
    381a:	c4a4197f          	maddr32	s2,s0,a0
    381e:	0c05                	c.addi	s8,1
    3820:	000d8483          	lb	s1,0(s11)
    3824:	000c0b83          	lb	s7,0(s8)
    3828:	0d85                	c.addi	s11,1
    382a:	00f48ab3          	add	s5,s1,a5
    382e:	c55b997f          	maddr32	s2,s7,s5
    3832:	0c05                	c.addi	s8,1
    3834:	000d8283          	lb	t0,0(s11)
    3838:	000c0603          	lb	a2,0(s8)
    383c:	0d85                	c.addi	s11,1
    383e:	00f28333          	add	t1,t0,a5
    3842:	c466197f          	maddr32	s2,a2,t1
    3846:	0c05                	c.addi	s8,1
    3848:	000d8a03          	lb	s4,0(s11)
    384c:	000c0b03          	lb	s6,0(s8)
    3850:	0d85                	c.addi	s11,1
    3852:	00fa06b3          	add	a3,s4,a5
    3856:	c4db197f          	maddr32	s2,s6,a3
    385a:	0c05                	c.addi	s8,1
    385c:	000d8703          	lb	a4,0(s11)
    3860:	000c0383          	lb	t2,0(s8)
    3864:	0d85                	c.addi	s11,1
    3866:	00f705b3          	add	a1,a4,a5
    386a:	c4b3997f          	maddr32	s2,t2,a1
    386e:	0c05                	c.addi	s8,1
    3870:	09ed8663          	beq	s11,t5,38fc <riscv_nn_vec_mat_mult_t_s8+0x1118>
    3874:	000d8e03          	lb	t3,0(s11)
    3878:	000c0983          	lb	s3,0(s8)
    387c:	001d8f83          	lb	t6,1(s11)
    3880:	00fe0eb3          	add	t4,t3,a5
    3884:	001c0c83          	lb	s9,1(s8)
    3888:	c5d9997f          	maddr32	s2,s3,t4
    388c:	002d8883          	lb	a7,2(s11)
    3890:	00ff8d33          	add	s10,t6,a5
    3894:	002c0803          	lb	a6,2(s8)
    3898:	c5ac997f          	maddr32	s2,s9,s10
    389c:	003d8403          	lb	s0,3(s11)
    38a0:	00f88533          	add	a0,a7,a5
    38a4:	003c0483          	lb	s1,3(s8)
    38a8:	c4a8197f          	maddr32	s2,a6,a0
    38ac:	004d8b83          	lb	s7,4(s11)
    38b0:	00f40ab3          	add	s5,s0,a5
    38b4:	004c0283          	lb	t0,4(s8)
    38b8:	c554997f          	maddr32	s2,s1,s5
    38bc:	005d8303          	lb	t1,5(s11)
    38c0:	00fb8633          	add	a2,s7,a5
    38c4:	005c0a03          	lb	s4,5(s8)
    38c8:	c4c2997f          	maddr32	s2,t0,a2
    38cc:	006d8b03          	lb	s6,6(s11)
    38d0:	00f306b3          	add	a3,t1,a5
    38d4:	006c0703          	lb	a4,6(s8)
    38d8:	c4da197f          	maddr32	s2,s4,a3
    38dc:	007d8383          	lb	t2,7(s11)
    38e0:	00fb05b3          	add	a1,s6,a5
    38e4:	007c0e03          	lb	t3,7(s8)
    38e8:	c4b7197f          	maddr32	s2,a4,a1
    38ec:	00f389b3          	add	s3,t2,a5
    38f0:	0da1                	c.addi	s11,8
    38f2:	c53e197f          	maddr32	s2,t3,s3
    38f6:	0c21                	c.addi	s8,8
    38f8:	f7ed9ee3          	bne	s11,t5,3874 <riscv_nn_vec_mat_mult_t_s8+0x1090>
    38fc:	1b012783          	lw	a5,432(sp)
    3900:	00000f13          	li	t5,0
    3904:	f3e78dff          	maxw	s11,a5,t5
    3908:	01b91933          	sll	s2,s2,s11
    390c:	fd4ff06f          	j	30e0 <riscv_nn_vec_mat_mult_t_s8+0x8fc>
    3910:	000d8483          	lb	s1,0(s11)
    3914:	000c0b83          	lb	s7,0(s8)
    3918:	0d85                	c.addi	s11,1
    391a:	00f48fb3          	add	t6,s1,a5
    391e:	012b8eb3          	add	t4,s7,s2
    3922:	c5fe977f          	maddr32	a4,t4,t6
    3926:	0c05                	c.addi	s8,1
    3928:	e6cff06f          	j	2f94 <riscv_nn_vec_mat_mult_t_s8+0x7b0>
    392c:	000d8983          	lb	s3,0(s11)
    3930:	000c0f83          	lb	t6,0(s8)
    3934:	0d85                	c.addi	s11,1
    3936:	00f98eb3          	add	t4,s3,a5
    393a:	c5df997f          	maddr32	s2,t6,t4
    393e:	0c05                	c.addi	s8,1
    3940:	bd65                	c.j	37f8 <riscv_nn_vec_mat_mult_t_s8+0x1014>
	...

00003944 <riscv_nn_vec_mat_mult_t_per_ch_s8>:
    3944:	711d                	c.addi16sp	sp,-96
    3946:	5326                	c.lwsp	t1,104(sp)
    3948:	55555e37          	lui	t3,0x55555
    394c:	556e0293          	addi	t0,t3,1366 # 55555556 <_DATA_LMA_START+0x3554f51e>
    3950:	c8ce                	c.swsp	s3,80(sp)
    3952:	025319b3          	mulh	s3,t1,t0
    3956:	41f35e93          	srai	t4,t1,0x1f
    395a:	de62                	c.swsp	s8,60(sp)
    395c:	5666                	c.lwsp	a2,120(sp)
    395e:	8c46                	c.mv	s8,a7
    3960:	41d988b3          	sub	a7,s3,t4
    3964:	cea2                	c.swsp	s0,92(sp)
    3966:	cca6                	c.swsp	s1,88(sp)
    3968:	caca                	c.swsp	s2,84(sp)
    396a:	da6a                	c.swsp	s10,52(sp)
    396c:	c6d2                	c.swsp	s4,76(sp)
    396e:	c4d6                	c.swsp	s5,72(sp)
    3970:	c2da                	c.swsp	s6,68(sp)
    3972:	c0de                	c.swsp	s7,64(sp)
    3974:	dc66                	c.swsp	s9,56(sp)
    3976:	d86e                	c.swsp	s11,48(sp)
    3978:	c046                	c.swsp	a7,0(sp)
    397a:	5386                	c.lwsp	t2,96(sp)
    397c:	5d16                	c.lwsp	s10,100(sp)
    397e:	54b6                	c.lwsp	s1,108(sp)
    3980:	5946                	c.lwsp	s2,112(sp)
    3982:	5456                	c.lwsp	s0,116(sp)
    3984:	54060863          	beqz	a2,3ed4 <riscv_nn_vec_mat_mult_t_per_ch_s8+0x590>
    3988:	4f89                	c.li	t6,2
    398a:	306fdf63          	bge	t6,t1,3ca8 <riscv_nn_vec_mat_mult_t_per_ch_s8+0x364>
    398e:	001d1c93          	slli	s9,s10,0x1
    3992:	01ac8f33          	add	t5,s9,s10
    3996:	00141d93          	slli	s11,s0,0x1
    399a:	008d8333          	add	t1,s11,s0
    399e:	4881                	c.li	a7,0
    39a0:	c666                	c.swsp	s9,12(sp)
    39a2:	c47a                	c.swsp	t5,8(sp)
    39a4:	8b1e                	c.mv	s6,t2
    39a6:	8ae2                	c.mv	s5,s8
    39a8:	8cba                	c.mv	s9,a4
    39aa:	8a2e                	c.mv	s4,a1
    39ac:	01a50db3          	add	s11,a0,s10
    39b0:	4981                	c.li	s3,0
    39b2:	8f2a                	c.mv	t5,a0
    39b4:	ce1a                	c.swsp	t1,28(sp)
    39b6:	c246                	c.swsp	a7,4(sp)
    39b8:	d02e                	c.swsp	a1,32(sp)
    39ba:	d23a                	c.swsp	a4,36(sp)
    39bc:	d462                	c.swsp	s8,40(sp)
    39be:	d676                	c.swsp	t4,44(sp)
    39c0:	4532                	c.lwsp	a0,12(sp)
    39c2:	01aa0e33          	add	t3,s4,s10
    39c6:	01450333          	add	t1,a0,s4
    39ca:	1c0683e3          	beqz	a3,4390 <riscv_nn_vec_mat_mult_t_per_ch_s8+0xa4c>
    39ce:	4298                	c.lw	a4,0(a3)
    39d0:	42cc                	c.lw	a1,4(a3)
    39d2:	4688                	c.lw	a0,8(a3)
    39d4:	00c68693          	addi	a3,a3,12
    39d8:	17a05c63          	blez	s10,3b50 <riscv_nn_vec_mat_mult_t_per_ch_s8+0x20c>
    39dc:	41ed8eb3          	sub	t4,s11,t5
    39e0:	003efb93          	andi	s7,t4,3
    39e4:	88fa                	c.mv	a7,t5
    39e6:	8ed2                	c.mv	t4,s4
    39e8:	0a0b8a63          	beqz	s7,3a9c <riscv_nn_vec_mat_mult_t_per_ch_s8+0x158>
    39ec:	4285                	c.li	t0,1
    39ee:	065b8b63          	beq	s7,t0,3a64 <riscv_nn_vec_mat_mult_t_per_ch_s8+0x120>
    39f2:	4389                	c.li	t2,2
    39f4:	027b8e63          	beq	s7,t2,3a30 <riscv_nn_vec_mat_mult_t_per_ch_s8+0xec>
    39f8:	000e0c03          	lb	s8,0(t3)
    39fc:	00030e83          	lb	t4,0(t1)
    3a00:	000f0883          	lb	a7,0(t5)
    3a04:	000a0b83          	lb	s7,0(s4)
    3a08:	00cc0fb3          	add	t6,s8,a2
    3a0c:	00f883b3          	add	t2,a7,a5
    3a10:	00ce8c33          	add	s8,t4,a2
    3a14:	00cb82b3          	add	t0,s7,a2
    3a18:	c472977f          	maddr32	a4,t0,t2
    3a1c:	c47f95ff          	maddr32	a1,t6,t2
    3a20:	c47c157f          	maddr32	a0,s8,t2
    3a24:	001a0e93          	addi	t4,s4,1
    3a28:	0e05                	c.addi	t3,1
    3a2a:	0305                	c.addi	t1,1
    3a2c:	001f0893          	addi	a7,t5,1
    3a30:	00088f83          	lb	t6,0(a7)
    3a34:	000e8b83          	lb	s7,0(t4)
    3a38:	000e0383          	lb	t2,0(t3)
    3a3c:	00030283          	lb	t0,0(t1)
    3a40:	00ff8c33          	add	s8,t6,a5
    3a44:	00cb8fb3          	add	t6,s7,a2
    3a48:	00c38bb3          	add	s7,t2,a2
    3a4c:	00c283b3          	add	t2,t0,a2
    3a50:	c58f977f          	maddr32	a4,t6,s8
    3a54:	c58b95ff          	maddr32	a1,s7,s8
    3a58:	c583957f          	maddr32	a0,t2,s8
    3a5c:	0e85                	c.addi	t4,1
    3a5e:	0e05                	c.addi	t3,1
    3a60:	0305                	c.addi	t1,1
    3a62:	0885                	c.addi	a7,1
    3a64:	00088c03          	lb	s8,0(a7)
    3a68:	000e8b83          	lb	s7,0(t4)
    3a6c:	000e0383          	lb	t2,0(t3)
    3a70:	00030283          	lb	t0,0(t1)
    3a74:	00fc0fb3          	add	t6,s8,a5
    3a78:	0885                	c.addi	a7,1
    3a7a:	00cb8c33          	add	s8,s7,a2
    3a7e:	00c38bb3          	add	s7,t2,a2
    3a82:	00c283b3          	add	t2,t0,a2
    3a86:	c5fc177f          	maddr32	a4,s8,t6
    3a8a:	c5fb95ff          	maddr32	a1,s7,t6
    3a8e:	c5f3957f          	maddr32	a0,t2,t6
    3a92:	0e85                	c.addi	t4,1
    3a94:	0e05                	c.addi	t3,1
    3a96:	0305                	c.addi	t1,1
    3a98:	0bb88c63          	beq	a7,s11,3b50 <riscv_nn_vec_mat_mult_t_per_ch_s8+0x20c>
    3a9c:	c856                	c.swsp	s5,16(sp)
    3a9e:	ca5a                	c.swsp	s6,20(sp)
    3aa0:	01912c23          	sw	s9,24(sp)
    3aa4:	00088c83          	lb	s9,0(a7)
    3aa8:	000e8b03          	lb	s6,0(t4)
    3aac:	000e0a83          	lb	s5,0(t3)
    3ab0:	00030383          	lb	t2,0(t1)
    3ab4:	00fc8fb3          	add	t6,s9,a5
    3ab8:	00188283          	lb	t0,1(a7)
    3abc:	001e8c83          	lb	s9,1(t4)
    3ac0:	001e0c03          	lb	s8,1(t3)
    3ac4:	00130b83          	lb	s7,1(t1)
    3ac8:	9b32                	c.add	s6,a2
    3aca:	9ab2                	c.add	s5,a2
    3acc:	93b2                	c.add	t2,a2
    3ace:	c5fb177f          	maddr32	a4,s6,t6
    3ad2:	c5fa95ff          	maddr32	a1,s5,t6
    3ad6:	c5f3957f          	maddr32	a0,t2,t6
    3ada:	92be                	c.add	t0,a5
    3adc:	00288f83          	lb	t6,2(a7)
    3ae0:	002e8b03          	lb	s6,2(t4)
    3ae4:	002e0a83          	lb	s5,2(t3)
    3ae8:	00230383          	lb	t2,2(t1)
    3aec:	9cb2                	c.add	s9,a2
    3aee:	9c32                	c.add	s8,a2
    3af0:	9bb2                	c.add	s7,a2
    3af2:	c45c977f          	maddr32	a4,s9,t0
    3af6:	c45c15ff          	maddr32	a1,s8,t0
    3afa:	c45b957f          	maddr32	a0,s7,t0
    3afe:	9fbe                	c.add	t6,a5
    3b00:	00388283          	lb	t0,3(a7)
    3b04:	003e8c83          	lb	s9,3(t4)
    3b08:	003e0c03          	lb	s8,3(t3)
    3b0c:	00330b83          	lb	s7,3(t1)
    3b10:	9b32                	c.add	s6,a2
    3b12:	9ab2                	c.add	s5,a2
    3b14:	93b2                	c.add	t2,a2
    3b16:	c5fb177f          	maddr32	a4,s6,t6
    3b1a:	c5fa95ff          	maddr32	a1,s5,t6
    3b1e:	c5f3957f          	maddr32	a0,t2,t6
    3b22:	0891                	c.addi	a7,4
    3b24:	00f28fb3          	add	t6,t0,a5
    3b28:	00cc82b3          	add	t0,s9,a2
    3b2c:	00cc0cb3          	add	s9,s8,a2
    3b30:	00cb8c33          	add	s8,s7,a2
    3b34:	c5f2977f          	maddr32	a4,t0,t6
    3b38:	c5fc95ff          	maddr32	a1,s9,t6
    3b3c:	c5fc157f          	maddr32	a0,s8,t6
    3b40:	0e91                	c.addi	t4,4
    3b42:	0e11                	c.addi	t3,4
    3b44:	0311                	c.addi	t1,4
    3b46:	f5b89fe3          	bne	a7,s11,3aa4 <riscv_nn_vec_mat_mult_t_per_ch_s8+0x160>
    3b4a:	4ac2                	c.lwsp	s5,16(sp)
    3b4c:	4b52                	c.lwsp	s6,20(sp)
    3b4e:	4ce2                	c.lwsp	s9,24(sp)
    3b50:	000b2283          	lw	t0,0(s6)
    3b54:	004b2f83          	lw	t6,4(s6)
    3b58:	000aae83          	lw	t4,0(s5)
    3b5c:	008b2883          	lw	a7,8(s6)
    3b60:	004aab83          	lw	s7,4(s5)
    3b64:	f3328e7f          	maxw	t3,t0,s3
    3b68:	008aac03          	lw	s8,8(s5)
    3b6c:	01c71e33          	sll	t3,a4,t3
    3b70:	40000337          	lui	t1,0x40000
    3b74:	f33f877f          	maxw	a4,t6,s3
    3b78:	4381                	c.li	t2,0
    3b7a:	85de137f          	smar64	t1,t3,t4
    3b7e:	00e595b3          	sll	a1,a1,a4
    3b82:	40000e37          	lui	t3,0x40000
    3b86:	f338877f          	maxw	a4,a7,s3
    3b8a:	4e81                	c.li	t4,0
    3b8c:	85759e7f          	smar64	t3,a1,s7
    3b90:	405002b3          	neg	t0,t0
    3b94:	00e51bb3          	sll	s7,a0,a4
    3b98:	4581                	c.li	a1,0
    3b9a:	40000537          	lui	a0,0x40000
    3b9e:	858b957f          	smar64	a0,s7,s8
    3ba2:	f33282ff          	maxw	t0,t0,s3
    3ba6:	4c05                	c.li	s8,1
    3ba8:	41f00fb3          	neg	t6,t6
    3bac:	005c1bb3          	sll	s7,s8,t0
    3bb0:	41100733          	neg	a4,a7
    3bb4:	f33f8fff          	maxw	t6,t6,s3
    3bb8:	dff308ff          	wexti	a7,t1,31
    3bbc:	01fc1c33          	sll	s8,s8,t6
    3bc0:	f337037f          	maxw	t1,a4,s3
    3bc4:	fffb8393          	addi	t2,s7,-1
    3bc8:	dffe077f          	wexti	a4,t3,31
    3bcc:	4e05                	c.li	t3,1
    3bce:	fffc0e93          	addi	t4,s8,-1
    3bd2:	4013db93          	srai	s7,t2,0x1
    3bd6:	0008ac13          	slti	s8,a7,0
    3bda:	006e1e33          	sll	t3,t3,t1
    3bde:	dff5057f          	wexti	a0,a0,31
    3be2:	0113f3b3          	and	t2,t2,a7
    3be6:	1e7d                	c.addi	t3,-1
    3be8:	9be2                	c.add	s7,s8
    3bea:	401ed593          	srai	a1,t4,0x1
    3bee:	00072c13          	slti	s8,a4,0
    3bf2:	4058d8b3          	sra	a7,a7,t0
    3bf6:	007babb3          	slt	s7,s7,t2
    3bfa:	95e2                	c.add	a1,s8
    3bfc:	401e5293          	srai	t0,t3,0x1
    3c00:	00052393          	slti	t2,a0,0
    3c04:	00eefeb3          	and	t4,t4,a4
    3c08:	01788c33          	add	s8,a7,s7
    3c0c:	41f75fb3          	sra	t6,a4,t6
    3c10:	007288b3          	add	a7,t0,t2
    3c14:	01d5a733          	slt	a4,a1,t4
    3c18:	00ae7e33          	and	t3,t3,a0
    3c1c:	00ef8bb3          	add	s7,t6,a4
    3c20:	40655333          	sra	t1,a0,t1
    3c24:	01880eb3          	add	t4,a6,s8
    3c28:	01c8a533          	slt	a0,a7,t3
    3c2c:	00a305b3          	add	a1,t1,a0
    3c30:	017803b3          	add	t2,a6,s7
    3c34:	f3d48c7f          	maxw	s8,s1,t4
    3c38:	4512                	c.lwsp	a0,4(sp)
    3c3a:	00b802b3          	add	t0,a6,a1
    3c3e:	f2748fff          	maxw	t6,s1,t2
    3c42:	f189077f          	minw	a4,s2,s8
    3c46:	008c8e33          	add	t3,s9,s0
    3c4a:	00ec8023          	sb	a4,0(s9)
    3c4e:	f1f908ff          	minw	a7,s2,t6
    3c52:	f2548cff          	maxw	s9,s1,t0
    3c56:	008e0bb3          	add	s7,t3,s0
    3c5a:	f199037f          	minw	t1,s2,s9
    3c5e:	45a2                	c.lwsp	a1,8(sp)
    3c60:	00150e93          	addi	t4,a0,1 # 40000001 <_DATA_LMA_START+0x1fff9fc9>
    3c64:	011e0023          	sb	a7,0(t3) # 40000000 <_DATA_LMA_START+0x1fff9fc8>
    3c68:	4382                	c.lwsp	t2,0(sp)
    3c6a:	c276                	c.swsp	t4,4(sp)
    3c6c:	006b8023          	sb	t1,0(s7)
    3c70:	0ab1                	c.addi	s5,12
    3c72:	0b31                	c.addi	s6,12
    3c74:	008b8cb3          	add	s9,s7,s0
    3c78:	9a2e                	c.add	s4,a1
    3c7a:	d47ec3e3          	blt	t4,t2,39c0 <riscv_nn_vec_mat_mult_t_per_ch_s8+0x7c>
    3c7e:	857a                	c.mv	a0,t5
    3c80:	4f02                	c.lwsp	t5,0(sp)
    3c82:	4c31                	c.li	s8,12
    3c84:	49f2                	c.lwsp	s3,28(sp)
    3c86:	5582                	c.lwsp	a1,32(sp)
    3c88:	5712                	c.lwsp	a4,36(sp)
    3c8a:	4e22                	c.lwsp	t3,8(sp)
    3c8c:	038f0fb3          	mul	t6,t5,s8
    3c90:	5da2                	c.lwsp	s11,40(sp)
    3c92:	5286                	c.lwsp	t0,96(sp)
    3c94:	5326                	c.lwsp	t1,104(sp)
    3c96:	5eb2                	c.lwsp	t4,44(sp)
    3c98:	c5e9977f          	maddr32	a4,s3,t5
    3c9c:	c5ee15ff          	maddr32	a1,t3,t5
    3ca0:	01fd8c33          	add	s8,s11,t6
    3ca4:	01f283b3          	add	t2,t0,t6
    3ca8:	555558b7          	lui	a7,0x55555
    3cac:	55688b93          	addi	s7,a7,1366 # 55555556 <_DATA_LMA_START+0x3554f51e>
    3cb0:	03731ab3          	mulh	s5,t1,s7
    3cb4:	41da8eb3          	sub	t4,s5,t4
    3cb8:	001e9b13          	slli	s6,t4,0x1
    3cbc:	01db0cb3          	add	s9,s6,t4
    3cc0:	41930333          	sub	t1,t1,s9
    3cc4:	00231a13          	slli	s4,t1,0x2
    3cc8:	01438db3          	add	s11,t2,s4
    3ccc:	1e605463          	blez	t1,3eb4 <riscv_nn_vec_mat_mult_t_per_ch_s8+0x570>
    3cd0:	01a502b3          	add	t0,a0,s10
    3cd4:	4981                	c.li	s3,0
    3cd6:	40000f37          	lui	t5,0x40000
    3cda:	4f81                	c.li	t6,0
    3cdc:	00100313          	li	t1,1
    3ce0:	4881                	c.li	a7,0
    3ce2:	c689                	c.beqz	a3,3cec <riscv_nn_vec_mat_mult_t_per_ch_s8+0x3a8>
    3ce4:	0006a883          	lw	a7,0(a3)
    3ce8:	00468693          	addi	a3,a3,4
    3cec:	17a05263          	blez	s10,3e50 <riscv_nn_vec_mat_mult_t_per_ch_s8+0x50c>
    3cf0:	40a28e33          	sub	t3,t0,a0
    3cf4:	007e7b93          	andi	s7,t3,7
    3cf8:	8aae                	c.mv	s5,a1
    3cfa:	8eaa                	c.mv	t4,a0
    3cfc:	0a0b8e63          	beqz	s7,3db8 <riscv_nn_vec_mat_mult_t_per_ch_s8+0x474>
    3d00:	4b05                	c.li	s6,1
    3d02:	096b8d63          	beq	s7,s6,3d9c <riscv_nn_vec_mat_mult_t_per_ch_s8+0x458>
    3d06:	4c89                	c.li	s9,2
    3d08:	079b8e63          	beq	s7,s9,3d84 <riscv_nn_vec_mat_mult_t_per_ch_s8+0x440>
    3d0c:	4a0d                	c.li	s4,3
    3d0e:	054b8f63          	beq	s7,s4,3d6c <riscv_nn_vec_mat_mult_t_per_ch_s8+0x428>
    3d12:	4e11                	c.li	t3,4
    3d14:	05cb8063          	beq	s7,t3,3d54 <riscv_nn_vec_mat_mult_t_per_ch_s8+0x410>
    3d18:	4b15                	c.li	s6,5
    3d1a:	036b8163          	beq	s7,s6,3d3c <riscv_nn_vec_mat_mult_t_per_ch_s8+0x3f8>
    3d1e:	4c99                	c.li	s9,6
    3d20:	699b9263          	bne	s7,s9,43a4 <riscv_nn_vec_mat_mult_t_per_ch_s8+0xa60>
    3d24:	000a8b03          	lb	s6,0(s5)
    3d28:	000e8c83          	lb	s9,0(t4)
    3d2c:	0a85                	c.addi	s5,1
    3d2e:	00cb0bb3          	add	s7,s6,a2
    3d32:	00fc8a33          	add	s4,s9,a5
    3d36:	c54b98ff          	maddr32	a7,s7,s4
    3d3a:	0e85                	c.addi	t4,1
    3d3c:	000a8b03          	lb	s6,0(s5)
    3d40:	000e8e03          	lb	t3,0(t4)
    3d44:	0a85                	c.addi	s5,1
    3d46:	00cb0cb3          	add	s9,s6,a2
    3d4a:	00fe0bb3          	add	s7,t3,a5
    3d4e:	c57c98ff          	maddr32	a7,s9,s7
    3d52:	0e85                	c.addi	t4,1
    3d54:	000a8a03          	lb	s4,0(s5)
    3d58:	000e8e03          	lb	t3,0(t4)
    3d5c:	0a85                	c.addi	s5,1
    3d5e:	00ca0b33          	add	s6,s4,a2
    3d62:	00fe0cb3          	add	s9,t3,a5
    3d66:	c59b18ff          	maddr32	a7,s6,s9
    3d6a:	0e85                	c.addi	t4,1
    3d6c:	000a8b83          	lb	s7,0(s5)
    3d70:	000e8a03          	lb	s4,0(t4)
    3d74:	0a85                	c.addi	s5,1
    3d76:	00cb8b33          	add	s6,s7,a2
    3d7a:	00fa0e33          	add	t3,s4,a5
    3d7e:	c5cb18ff          	maddr32	a7,s6,t3
    3d82:	0e85                	c.addi	t4,1
    3d84:	000a8c83          	lb	s9,0(s5)
    3d88:	000e8b83          	lb	s7,0(t4)
    3d8c:	0a85                	c.addi	s5,1
    3d8e:	00cc8a33          	add	s4,s9,a2
    3d92:	00fb8b33          	add	s6,s7,a5
    3d96:	c56a18ff          	maddr32	a7,s4,s6
    3d9a:	0e85                	c.addi	t4,1
    3d9c:	000a8c83          	lb	s9,0(s5)
    3da0:	000e8e03          	lb	t3,0(t4)
    3da4:	0e85                	c.addi	t4,1
    3da6:	00cc8bb3          	add	s7,s9,a2
    3daa:	00fe0a33          	add	s4,t3,a5
    3dae:	c54b98ff          	maddr32	a7,s7,s4
    3db2:	0a85                	c.addi	s5,1
    3db4:	085e8e63          	beq	t4,t0,3e50 <riscv_nn_vec_mat_mult_t_per_ch_s8+0x50c>
    3db8:	000a8c83          	lb	s9,0(s5)
    3dbc:	000e8b83          	lb	s7,0(t4)
    3dc0:	001a8b03          	lb	s6,1(s5)
    3dc4:	00cc8a33          	add	s4,s9,a2
    3dc8:	001e8e03          	lb	t3,1(t4)
    3dcc:	00fb8cb3          	add	s9,s7,a5
    3dd0:	c59a18ff          	maddr32	a7,s4,s9
    3dd4:	002e8b83          	lb	s7,2(t4)
    3dd8:	002a8a03          	lb	s4,2(s5)
    3ddc:	9b32                	c.add	s6,a2
    3dde:	9e3e                	c.add	t3,a5
    3de0:	c5cb18ff          	maddr32	a7,s6,t3
    3de4:	00ca0cb3          	add	s9,s4,a2
    3de8:	003a8b03          	lb	s6,3(s5)
    3dec:	00fb8a33          	add	s4,s7,a5
    3df0:	003e8e03          	lb	t3,3(t4)
    3df4:	c54c98ff          	maddr32	a7,s9,s4
    3df8:	004e8b83          	lb	s7,4(t4)
    3dfc:	004a8c83          	lb	s9,4(s5)
    3e00:	9b32                	c.add	s6,a2
    3e02:	9e3e                	c.add	t3,a5
    3e04:	c5cb18ff          	maddr32	a7,s6,t3
    3e08:	005a8a03          	lb	s4,5(s5)
    3e0c:	005e8e03          	lb	t3,5(t4)
    3e10:	9cb2                	c.add	s9,a2
    3e12:	9bbe                	c.add	s7,a5
    3e14:	c57c98ff          	maddr32	a7,s9,s7
    3e18:	00ca0b33          	add	s6,s4,a2
    3e1c:	006a8c83          	lb	s9,6(s5)
    3e20:	00fe0a33          	add	s4,t3,a5
    3e24:	006e8b83          	lb	s7,6(t4)
    3e28:	c54b18ff          	maddr32	a7,s6,s4
    3e2c:	007e8e03          	lb	t3,7(t4)
    3e30:	007a8b03          	lb	s6,7(s5)
    3e34:	9cb2                	c.add	s9,a2
    3e36:	9bbe                	c.add	s7,a5
    3e38:	c57c98ff          	maddr32	a7,s9,s7
    3e3c:	00cb0a33          	add	s4,s6,a2
    3e40:	0ea1                	c.addi	t4,8
    3e42:	00fe0b33          	add	s6,t3,a5
    3e46:	c56a18ff          	maddr32	a7,s4,s6
    3e4a:	0aa1                	c.addi	s5,8
    3e4c:	f65e96e3          	bne	t4,t0,3db8 <riscv_nn_vec_mat_mult_t_per_ch_s8+0x474>
    3e50:	0003aa83          	lw	s5,0(t2)
    3e54:	000c2c83          	lw	s9,0(s8)
    3e58:	f33a8eff          	maxw	t4,s5,s3
    3e5c:	01d898b3          	sll	a7,a7,t4
    3e60:	8e7a                	c.mv	t3,t5
    3e62:	8efe                	c.mv	t4,t6
    3e64:	85989e7f          	smar64	t3,a7,s9
    3e68:	41500bb3          	neg	s7,s5
    3e6c:	f33b8a7f          	maxw	s4,s7,s3
    3e70:	01431b33          	sll	s6,t1,s4
    3e74:	dffe0e7f          	wexti	t3,t3,31
    3e78:	fffb0a93          	addi	s5,s6,-1
    3e7c:	401adc93          	srai	s9,s5,0x1
    3e80:	000e2893          	slti	a7,t3,0
    3e84:	01cafeb3          	and	t4,s5,t3
    3e88:	011c8bb3          	add	s7,s9,a7
    3e8c:	414e5a33          	sra	s4,t3,s4
    3e90:	01dbab33          	slt	s6,s7,t4
    3e94:	016a0e33          	add	t3,s4,s6
    3e98:	01c80ab3          	add	s5,a6,t3
    3e9c:	f3548cff          	maxw	s9,s1,s5
    3ea0:	f19908ff          	minw	a7,s2,s9
    3ea4:	01170023          	sb	a7,0(a4) # 40000000 <_DATA_LMA_START+0x1fff9fc8>
    3ea8:	0391                	c.addi	t2,4
    3eaa:	0c11                	c.addi	s8,4
    3eac:	9722                	c.add	a4,s0
    3eae:	95ea                	c.add	a1,s10
    3eb0:	e3b398e3          	bne	t2,s11,3ce0 <riscv_nn_vec_mat_mult_t_per_ch_s8+0x39c>
    3eb4:	4476                	c.lwsp	s0,92(sp)
    3eb6:	44e6                	c.lwsp	s1,88(sp)
    3eb8:	4956                	c.lwsp	s2,84(sp)
    3eba:	49c6                	c.lwsp	s3,80(sp)
    3ebc:	4a36                	c.lwsp	s4,76(sp)
    3ebe:	4aa6                	c.lwsp	s5,72(sp)
    3ec0:	4b16                	c.lwsp	s6,68(sp)
    3ec2:	4b86                	c.lwsp	s7,64(sp)
    3ec4:	5c72                	c.lwsp	s8,60(sp)
    3ec6:	5ce2                	c.lwsp	s9,56(sp)
    3ec8:	5d52                	c.lwsp	s10,52(sp)
    3eca:	5dc2                	c.lwsp	s11,48(sp)
    3ecc:	4501                	c.li	a0,0
    3ece:	6125                	c.addi16sp	sp,96
    3ed0:	00008067          	ret
    3ed4:	4a09                	c.li	s4,2
    3ed6:	2c6a5963          	bge	s4,t1,41a8 <riscv_nn_vec_mat_mult_t_per_ch_s8+0x864>
    3eda:	001d1a93          	slli	s5,s10,0x1
    3ede:	01aa8bb3          	add	s7,s5,s10
    3ee2:	00141b13          	slli	s6,s0,0x1
    3ee6:	008b0cb3          	add	s9,s6,s0
    3eea:	c456                	c.swsp	s5,8(sp)
    3eec:	c25e                	c.swsp	s7,4(sp)
    3eee:	4b01                	c.li	s6,0
    3ef0:	8a1e                	c.mv	s4,t2
    3ef2:	89e2                	c.mv	s3,s8
    3ef4:	8bba                	c.mv	s7,a4
    3ef6:	82ae                	c.mv	t0,a1
    3ef8:	01a50ab3          	add	s5,a0,s10
    3efc:	4881                	c.li	a7,0
    3efe:	8fb6                	c.mv	t6,a3
    3f00:	c666                	c.swsp	s9,12(sp)
    3f02:	c82e                	c.swsp	a1,16(sp)
    3f04:	ca3a                	c.swsp	a4,20(sp)
    3f06:	cc62                	c.swsp	s8,24(sp)
    3f08:	d09e                	c.swsp	t2,96(sp)
    3f0a:	d49a                	c.swsp	t1,104(sp)
    3f0c:	01d12e23          	sw	t4,28(sp)
    3f10:	4722                	c.lwsp	a4,8(sp)
    3f12:	01a28f33          	add	t5,t0,s10
    3f16:	00570eb3          	add	t4,a4,t0
    3f1a:	480f8163          	beqz	t6,439c <riscv_nn_vec_mat_mult_t_per_ch_s8+0xa58>
    3f1e:	000fa583          	lw	a1,0(t6)
    3f22:	004fa303          	lw	t1,4(t6)
    3f26:	008fa703          	lw	a4,8(t6)
    3f2a:	0fb1                	c.addi	t6,12
    3f2c:	13a05863          	blez	s10,405c <riscv_nn_vec_mat_mult_t_per_ch_s8+0x718>
    3f30:	40aa83b3          	sub	t2,s5,a0
    3f34:	0033fc13          	andi	s8,t2,3
    3f38:	8696                	c.mv	a3,t0
    3f3a:	8e2a                	c.mv	t3,a0
    3f3c:	080c0863          	beqz	s8,3fcc <riscv_nn_vec_mat_mult_t_per_ch_s8+0x688>
    3f40:	4d85                	c.li	s11,1
    3f42:	05bc0f63          	beq	s8,s11,3fa0 <riscv_nn_vec_mat_mult_t_per_ch_s8+0x65c>
    3f46:	4609                	c.li	a2,2
    3f48:	02cc0863          	beq	s8,a2,3f78 <riscv_nn_vec_mat_mult_t_per_ch_s8+0x634>
    3f4c:	00050683          	lb	a3,0(a0)
    3f50:	000f0c83          	lb	s9,0(t5) # 40000000 <_DATA_LMA_START+0x1fff9fc8>
    3f54:	000e8383          	lb	t2,0(t4)
    3f58:	00028e03          	lb	t3,0(t0)
    3f5c:	00f68c33          	add	s8,a3,a5
    3f60:	c58c937f          	maddr32	t1,s9,s8
    3f64:	c583977f          	maddr32	a4,t2,s8
    3f68:	c58e15ff          	maddr32	a1,t3,s8
    3f6c:	00128693          	addi	a3,t0,1
    3f70:	0f05                	c.addi	t5,1
    3f72:	0e85                	c.addi	t4,1
    3f74:	00150e13          	addi	t3,a0,1
    3f78:	000e0d83          	lb	s11,0(t3)
    3f7c:	00068c83          	lb	s9,0(a3)
    3f80:	000f0c03          	lb	s8,0(t5)
    3f84:	000e8383          	lb	t2,0(t4)
    3f88:	00fd8633          	add	a2,s11,a5
    3f8c:	c4cc95ff          	maddr32	a1,s9,a2
    3f90:	c4cc137f          	maddr32	t1,s8,a2
    3f94:	c4c3977f          	maddr32	a4,t2,a2
    3f98:	0685                	c.addi	a3,1
    3f9a:	0f05                	c.addi	t5,1
    3f9c:	0e85                	c.addi	t4,1
    3f9e:	0e05                	c.addi	t3,1
    3fa0:	000e0d83          	lb	s11,0(t3)
    3fa4:	00068c83          	lb	s9,0(a3)
    3fa8:	000f0c03          	lb	s8,0(t5)
    3fac:	000e8383          	lb	t2,0(t4)
    3fb0:	00fd8633          	add	a2,s11,a5
    3fb4:	0e05                	c.addi	t3,1
    3fb6:	c4cc95ff          	maddr32	a1,s9,a2
    3fba:	c4cc137f          	maddr32	t1,s8,a2
    3fbe:	c4c3977f          	maddr32	a4,t2,a2
    3fc2:	0685                	c.addi	a3,1
    3fc4:	0f05                	c.addi	t5,1
    3fc6:	0e85                	c.addi	t4,1
    3fc8:	095e0a63          	beq	t3,s5,405c <riscv_nn_vec_mat_mult_t_per_ch_s8+0x718>
    3fcc:	01300db3          	add	s11,zero,s3
    3fd0:	000e0383          	lb	t2,0(t3)
    3fd4:	00068c83          	lb	s9,0(a3)
    3fd8:	000f0c03          	lb	s8,0(t5)
    3fdc:	000e8983          	lb	s3,0(t4)
    3fe0:	00f38633          	add	a2,t2,a5
    3fe4:	001e0383          	lb	t2,1(t3)
    3fe8:	c4cc95ff          	maddr32	a1,s9,a2
    3fec:	c4cc137f          	maddr32	t1,s8,a2
    3ff0:	00168c83          	lb	s9,1(a3)
    3ff4:	001f0c03          	lb	s8,1(t5)
    3ff8:	c4c9977f          	maddr32	a4,s3,a2
    3ffc:	001e8983          	lb	s3,1(t4)
    4000:	93be                	c.add	t2,a5
    4002:	002e0603          	lb	a2,2(t3)
    4006:	c47c95ff          	maddr32	a1,s9,t2
    400a:	c47c137f          	maddr32	t1,s8,t2
    400e:	c479977f          	maddr32	a4,s3,t2
    4012:	00268c03          	lb	s8,2(a3)
    4016:	002f0983          	lb	s3,2(t5)
    401a:	002e8383          	lb	t2,2(t4)
    401e:	00f60cb3          	add	s9,a2,a5
    4022:	003e0603          	lb	a2,3(t3)
    4026:	c59c15ff          	maddr32	a1,s8,s9
    402a:	c599937f          	maddr32	t1,s3,s9
    402e:	c593977f          	maddr32	a4,t2,s9
    4032:	00368c03          	lb	s8,3(a3)
    4036:	003f0983          	lb	s3,3(t5)
    403a:	003e8383          	lb	t2,3(t4)
    403e:	00f60cb3          	add	s9,a2,a5
    4042:	0e11                	c.addi	t3,4
    4044:	c59c15ff          	maddr32	a1,s8,s9
    4048:	c599937f          	maddr32	t1,s3,s9
    404c:	c593977f          	maddr32	a4,t2,s9
    4050:	0691                	c.addi	a3,4
    4052:	0f11                	c.addi	t5,4
    4054:	0e91                	c.addi	t4,4
    4056:	f75e1de3          	bne	t3,s5,3fd0 <riscv_nn_vec_mat_mult_t_per_ch_s8+0x68c>
    405a:	89ee                	c.mv	s3,s11
    405c:	000a2c03          	lw	s8,0(s4)
    4060:	004a2f03          	lw	t5,4(s4)
    4064:	0009a383          	lw	t2,0(s3)
    4068:	0049ac83          	lw	s9,4(s3)
    406c:	f31c0e7f          	maxw	t3,s8,a7
    4070:	01c595b3          	sll	a1,a1,t3
    4074:	f31f06ff          	maxw	a3,t5,a7
    4078:	40000e37          	lui	t3,0x40000
    407c:	4e81                	c.li	t4,0
    407e:	008a2d83          	lw	s11,8(s4)
    4082:	84759e7f          	smar64	t3,a1,t2
    4086:	00d31633          	sll	a2,t1,a3
    408a:	4381                	c.li	t2,0
    408c:	40000337          	lui	t1,0x40000
    4090:	8596137f          	smar64	t1,a2,s9
    4094:	0089ac83          	lw	s9,8(s3)
    4098:	f31d85ff          	maxw	a1,s11,a7
    409c:	00b71733          	sll	a4,a4,a1
    40a0:	41800c33          	neg	s8,s8
    40a4:	40000637          	lui	a2,0x40000
    40a8:	4681                	c.li	a3,0
    40aa:	8597167f          	smar64	a2,a4,s9
    40ae:	f31c0c7f          	maxw	s8,s8,a7
    40b2:	4705                	c.li	a4,1
    40b4:	41e00f33          	neg	t5,t5
    40b8:	01871cb3          	sll	s9,a4,s8
    40bc:	f31f0f7f          	maxw	t5,t5,a7
    40c0:	41b00db3          	neg	s11,s11
    40c4:	dffe05ff          	wexti	a1,t3,31
    40c8:	1cfd                	c.addi	s9,-1
    40ca:	f31d8e7f          	maxw	t3,s11,a7
    40ce:	01e71eb3          	sll	t4,a4,t5
    40d2:	dff3077f          	wexti	a4,t1,31
    40d6:	4305                	c.li	t1,1
    40d8:	0005ad93          	slti	s11,a1,0
    40dc:	1efd                	c.addi	t4,-1
    40de:	401cd393          	srai	t2,s9,0x1
    40e2:	01c31333          	sll	t1,t1,t3
    40e6:	dff6067f          	wexti	a2,a2,31
    40ea:	00bcfcb3          	and	s9,s9,a1
    40ee:	137d                	c.addi	t1,-1
    40f0:	93ee                	c.add	t2,s11
    40f2:	401ed693          	srai	a3,t4,0x1
    40f6:	00072d93          	slti	s11,a4,0
    40fa:	4185d5b3          	sra	a1,a1,s8
    40fe:	0193a3b3          	slt	t2,t2,s9
    4102:	96ee                	c.add	a3,s11
    4104:	40135c13          	srai	s8,t1,0x1
    4108:	00062c93          	slti	s9,a2,0
    410c:	00eefeb3          	and	t4,t4,a4
    4110:	00758db3          	add	s11,a1,t2
    4114:	41e75f33          	sra	t5,a4,t5
    4118:	019c05b3          	add	a1,s8,s9
    411c:	01d6a733          	slt	a4,a3,t4
    4120:	00c37333          	and	t1,t1,a2
    4124:	00ef03b3          	add	t2,t5,a4
    4128:	41c65e33          	sra	t3,a2,t3
    412c:	01b80eb3          	add	t4,a6,s11
    4130:	0065a633          	slt	a2,a1,t1
    4134:	00ce06b3          	add	a3,t3,a2
    4138:	00780cb3          	add	s9,a6,t2
    413c:	f3d48dff          	maxw	s11,s1,t4
    4140:	00d80c33          	add	s8,a6,a3
    4144:	f3948f7f          	maxw	t5,s1,s9
    4148:	f1b9077f          	minw	a4,s2,s11
    414c:	00eb8023          	sb	a4,0(s7)
    4150:	008b8333          	add	t1,s7,s0
    4154:	f38485ff          	maxw	a1,s1,s8
    4158:	f1e903ff          	minw	t2,s2,t5
    415c:	00830bb3          	add	s7,t1,s0
    4160:	4612                	c.lwsp	a2,4(sp)
    4162:	f0b90e7f          	minw	t3,s2,a1
    4166:	00730023          	sb	t2,0(t1) # 40000000 <_DATA_LMA_START+0x1fff9fc8>
    416a:	4e82                	c.lwsp	t4,0(sp)
    416c:	01cb8023          	sb	t3,0(s7)
    4170:	0b05                	c.addi	s6,1
    4172:	09b1                	c.addi	s3,12
    4174:	0a31                	c.addi	s4,12
    4176:	9ba2                	c.add	s7,s0
    4178:	92b2                	c.add	t0,a2
    417a:	d9db4be3          	blt	s6,t4,3f10 <riscv_nn_vec_mat_mult_t_per_ch_s8+0x5cc>
    417e:	8af6                	c.mv	s5,t4
    4180:	4cb2                	c.lwsp	s9,12(sp)
    4182:	4752                	c.lwsp	a4,20(sp)
    4184:	48b1                	c.li	a7,12
    4186:	031a8f33          	mul	t5,s5,a7
    418a:	4c12                	c.lwsp	s8,4(sp)
    418c:	45c2                	c.lwsp	a1,16(sp)
    418e:	5d86                	c.lwsp	s11,96(sp)
    4190:	86fe                	c.mv	a3,t6
    4192:	4fe2                	c.lwsp	t6,24(sp)
    4194:	5326                	c.lwsp	t1,104(sp)
    4196:	4ef2                	c.lwsp	t4,28(sp)
    4198:	c55c977f          	maddr32	a4,s9,s5
    419c:	c55c15ff          	maddr32	a1,s8,s5
    41a0:	01ed83b3          	add	t2,s11,t5
    41a4:	01ef8c33          	add	s8,t6,t5
    41a8:	55555e37          	lui	t3,0x55555
    41ac:	556e0b13          	addi	s6,t3,1366 # 55555556 <_DATA_LMA_START+0x3554f51e>
    41b0:	036319b3          	mulh	s3,t1,s6
    41b4:	41d98a33          	sub	s4,s3,t4
    41b8:	001a1b93          	slli	s7,s4,0x1
    41bc:	014b8633          	add	a2,s7,s4
    41c0:	40c302b3          	sub	t0,t1,a2
    41c4:	ce5058e3          	blez	t0,3eb4 <riscv_nn_vec_mat_mult_t_per_ch_s8+0x570>
    41c8:	00229a93          	slli	s5,t0,0x2
    41cc:	01538cb3          	add	s9,t2,s5
    41d0:	01a50db3          	add	s11,a0,s10
    41d4:	4301                	c.li	t1,0
    41d6:	40000f37          	lui	t5,0x40000
    41da:	4f81                	c.li	t6,0
    41dc:	4885                	c.li	a7,1
    41de:	8e36                	c.mv	t3,a3
    41e0:	4981                	c.li	s3,0
    41e2:	000e0563          	beqz	t3,41ec <riscv_nn_vec_mat_mult_t_per_ch_s8+0x8a8>
    41e6:	000e2983          	lw	s3,0(t3)
    41ea:	0e11                	c.addi	t3,4
    41ec:	13a05e63          	blez	s10,4328 <riscv_nn_vec_mat_mult_t_per_ch_s8+0x9e4>
    41f0:	40ad86b3          	sub	a3,s11,a0
    41f4:	0076fb13          	andi	s6,a3,7
    41f8:	8eae                	c.mv	t4,a1
    41fa:	86aa                	c.mv	a3,a0
    41fc:	0a0b0263          	beqz	s6,42a0 <riscv_nn_vec_mat_mult_t_per_ch_s8+0x95c>
    4200:	4a05                	c.li	s4,1
    4202:	094b0363          	beq	s6,s4,4288 <riscv_nn_vec_mat_mult_t_per_ch_s8+0x944>
    4206:	4b89                	c.li	s7,2
    4208:	077b0663          	beq	s6,s7,4274 <riscv_nn_vec_mat_mult_t_per_ch_s8+0x930>
    420c:	460d                	c.li	a2,3
    420e:	04cb0963          	beq	s6,a2,4260 <riscv_nn_vec_mat_mult_t_per_ch_s8+0x91c>
    4212:	4291                	c.li	t0,4
    4214:	025b0c63          	beq	s6,t0,424c <riscv_nn_vec_mat_mult_t_per_ch_s8+0x908>
    4218:	4a95                	c.li	s5,5
    421a:	015b0f63          	beq	s6,s5,4238 <riscv_nn_vec_mat_mult_t_per_ch_s8+0x8f4>
    421e:	4a19                	c.li	s4,6
    4220:	1b4b1263          	bne	s6,s4,43c4 <riscv_nn_vec_mat_mult_t_per_ch_s8+0xa80>
    4224:	00068603          	lb	a2,0(a3)
    4228:	000e8283          	lb	t0,0(t4)
    422c:	0685                	c.addi	a3,1
    422e:	00f60ab3          	add	s5,a2,a5
    4232:	c45a99ff          	maddr32	s3,s5,t0
    4236:	0e85                	c.addi	t4,1
    4238:	00068a03          	lb	s4,0(a3)
    423c:	000e8b03          	lb	s6,0(t4)
    4240:	0685                	c.addi	a3,1
    4242:	00fa0bb3          	add	s7,s4,a5
    4246:	c56b99ff          	maddr32	s3,s7,s6
    424a:	0e85                	c.addi	t4,1
    424c:	00068603          	lb	a2,0(a3)
    4250:	000e8283          	lb	t0,0(t4)
    4254:	0685                	c.addi	a3,1
    4256:	00f60ab3          	add	s5,a2,a5
    425a:	c45a99ff          	maddr32	s3,s5,t0
    425e:	0e85                	c.addi	t4,1
    4260:	00068a03          	lb	s4,0(a3)
    4264:	000e8b03          	lb	s6,0(t4)
    4268:	0685                	c.addi	a3,1
    426a:	00fa0bb3          	add	s7,s4,a5
    426e:	c56b99ff          	maddr32	s3,s7,s6
    4272:	0e85                	c.addi	t4,1
    4274:	00068603          	lb	a2,0(a3)
    4278:	000e8283          	lb	t0,0(t4)
    427c:	0685                	c.addi	a3,1
    427e:	00f60ab3          	add	s5,a2,a5
    4282:	c45a99ff          	maddr32	s3,s5,t0
    4286:	0e85                	c.addi	t4,1
    4288:	00068a03          	lb	s4,0(a3)
    428c:	000e8b03          	lb	s6,0(t4)
    4290:	0685                	c.addi	a3,1
    4292:	00fa0bb3          	add	s7,s4,a5
    4296:	c56b99ff          	maddr32	s3,s7,s6
    429a:	0e85                	c.addi	t4,1
    429c:	09b68663          	beq	a3,s11,4328 <riscv_nn_vec_mat_mult_t_per_ch_s8+0x9e4>
    42a0:	00068603          	lb	a2,0(a3)
    42a4:	000e8283          	lb	t0,0(t4)
    42a8:	00168a03          	lb	s4,1(a3)
    42ac:	00f60ab3          	add	s5,a2,a5
    42b0:	001e8b03          	lb	s6,1(t4)
    42b4:	c45a99ff          	maddr32	s3,s5,t0
    42b8:	00268b83          	lb	s7,2(a3)
    42bc:	00fa0633          	add	a2,s4,a5
    42c0:	002e8283          	lb	t0,2(t4)
    42c4:	c56619ff          	maddr32	s3,a2,s6
    42c8:	00368a03          	lb	s4,3(a3)
    42cc:	00fb8ab3          	add	s5,s7,a5
    42d0:	003e8b03          	lb	s6,3(t4)
    42d4:	c45a99ff          	maddr32	s3,s5,t0
    42d8:	00468b83          	lb	s7,4(a3)
    42dc:	00fa0633          	add	a2,s4,a5
    42e0:	004e8283          	lb	t0,4(t4)
    42e4:	c56619ff          	maddr32	s3,a2,s6
    42e8:	00568a03          	lb	s4,5(a3)
    42ec:	00fb8ab3          	add	s5,s7,a5
    42f0:	005e8b03          	lb	s6,5(t4)
    42f4:	c45a99ff          	maddr32	s3,s5,t0
    42f8:	00668b83          	lb	s7,6(a3)
    42fc:	00fa0633          	add	a2,s4,a5
    4300:	006e8283          	lb	t0,6(t4)
    4304:	c56619ff          	maddr32	s3,a2,s6
    4308:	00768a03          	lb	s4,7(a3)
    430c:	00fb8ab3          	add	s5,s7,a5
    4310:	007e8b03          	lb	s6,7(t4)
    4314:	c45a99ff          	maddr32	s3,s5,t0
    4318:	00fa0bb3          	add	s7,s4,a5
    431c:	06a1                	c.addi	a3,8
    431e:	c56b99ff          	maddr32	s3,s7,s6
    4322:	0ea1                	c.addi	t4,8
    4324:	f7b69ee3          	bne	a3,s11,42a0 <riscv_nn_vec_mat_mult_t_per_ch_s8+0x95c>
    4328:	0003a283          	lw	t0,0(t2)
    432c:	000c2a03          	lw	s4,0(s8)
    4330:	f26286ff          	maxw	a3,t0,t1
    4334:	00d999b3          	sll	s3,s3,a3
    4338:	867a                	c.mv	a2,t5
    433a:	86fe                	c.mv	a3,t6
    433c:	8549967f          	smar64	a2,s3,s4
    4340:	40500eb3          	neg	t4,t0
    4344:	f26e8b7f          	maxw	s6,t4,t1
    4348:	01689ab3          	sll	s5,a7,s6
    434c:	dff6067f          	wexti	a2,a2,31
    4350:	fffa8b93          	addi	s7,s5,-1
    4354:	401bd293          	srai	t0,s7,0x1
    4358:	00062a13          	slti	s4,a2,0
    435c:	00cbf6b3          	and	a3,s7,a2
    4360:	014289b3          	add	s3,t0,s4
    4364:	41665eb3          	sra	t4,a2,s6
    4368:	00d9ab33          	slt	s6,s3,a3
    436c:	016e8ab3          	add	s5,t4,s6
    4370:	01580633          	add	a2,a6,s5
    4374:	f2960bff          	maxw	s7,a2,s1
    4378:	f12b82ff          	minw	t0,s7,s2
    437c:	00570023          	sb	t0,0(a4)
    4380:	0391                	c.addi	t2,4
    4382:	0c11                	c.addi	s8,4
    4384:	9722                	c.add	a4,s0
    4386:	95ea                	c.add	a1,s10
    4388:	e5939ce3          	bne	t2,s9,41e0 <riscv_nn_vec_mat_mult_t_per_ch_s8+0x89c>
    438c:	b29ff06f          	j	3eb4 <riscv_nn_vec_mat_mult_t_per_ch_s8+0x570>
    4390:	4501                	c.li	a0,0
    4392:	4581                	c.li	a1,0
    4394:	00000713          	li	a4,0
    4398:	e40ff06f          	j	39d8 <riscv_nn_vec_mat_mult_t_per_ch_s8+0x94>
    439c:	4701                	c.li	a4,0
    439e:	4301                	c.li	t1,0
    43a0:	4581                	c.li	a1,0
    43a2:	b669                	c.j	3f2c <riscv_nn_vec_mat_mult_t_per_ch_s8+0x5e8>
    43a4:	00058e83          	lb	t4,0(a1)
    43a8:	00050b83          	lb	s7,0(a0)
    43ac:	00158a93          	addi	s5,a1,1
    43b0:	00ce8a33          	add	s4,t4,a2
    43b4:	00fb8e33          	add	t3,s7,a5
    43b8:	c5ca18ff          	maddr32	a7,s4,t3
    43bc:	00150e93          	addi	t4,a0,1
    43c0:	965ff06f          	j	3d24 <riscv_nn_vec_mat_mult_t_per_ch_s8+0x3e0>
    43c4:	00050683          	lb	a3,0(a0)
    43c8:	00058b03          	lb	s6,0(a1)
    43cc:	00158e93          	addi	t4,a1,1
    43d0:	00f68bb3          	add	s7,a3,a5
    43d4:	c56b99ff          	maddr32	s3,s7,s6
    43d8:	00150693          	addi	a3,a0,1
    43dc:	b5a1                	c.j	4224 <riscv_nn_vec_mat_mult_t_per_ch_s8+0x8e0>
	...

000043e0 <riscv_nn_vec_mat_mult_t_s16>:
    43e0:	7135                	c.addi16sp	sp,-160
    43e2:	dee2                	c.swsp	s8,124(sp)
    43e4:	8c46                	c.mv	s8,a7
    43e6:	01f8d893          	srli	a7,a7,0x1f
    43ea:	82c2                	c.mv	t0,a6
    43ec:	98e2                	c.add	a7,s8
    43ee:	dce6                	c.swsp	s9,120(sp)
    43f0:	8cbe                	c.mv	s9,a5
    43f2:	20000793          	li	a5,512
    43f6:	c35a                	c.swsp	s6,132(sp)
    43f8:	d22a                	c.swsp	a0,36(sp)
    43fa:	8b2a                	c.mv	s6,a0
    43fc:	f0f2857f          	minw	a0,t0,a5
    4400:	4018d793          	srai	a5,a7,0x1
    4404:	d042                	c.swsp	a6,32(sp)
    4406:	cf22                	c.swsp	s0,156(sp)
    4408:	4805                	c.li	a6,1
    440a:	cd26                	c.swsp	s1,152(sp)
    440c:	cb4a                	c.swsp	s2,148(sp)
    440e:	c94e                	c.swsp	s3,144(sp)
    4410:	c752                	c.swsp	s4,140(sp)
    4412:	c556                	c.swsp	s5,136(sp)
    4414:	c15e                	c.swsp	s7,128(sp)
    4416:	daea                	c.swsp	s10,116(sp)
    4418:	d8ee                	c.swsp	s11,112(sp)
    441a:	d43e                	c.swsp	a5,40(sp)
    441c:	1f885663          	bge	a6,s8,4608 <riscv_nn_vec_mat_mult_t_s16+0x228>
    4420:	40255d13          	srai	s10,a0,0x2
    4424:	47b9                	c.li	a5,14
    4426:	41978bb3          	sub	s7,a5,s9
    442a:	003d1793          	slli	a5,s10,0x3
    442e:	ffc57893          	andi	a7,a0,-4
    4432:	8816                	c.mv	a6,t0
    4434:	00129d93          	slli	s11,t0,0x1
    4438:	97da                	c.add	a5,s6
    443a:	41f75293          	srai	t0,a4,0x1f
    443e:	c816                	c.swsp	t0,16(sp)
    4440:	de3e                	c.swsp	a5,60(sp)
    4442:	410882b3          	sub	t0,a7,a6
    4446:	411807b3          	sub	a5,a6,a7
    444a:	c46a                	c.swsp	s10,8(sp)
    444c:	d66e                	c.swsp	s11,44(sp)
    444e:	da16                	c.swsp	t0,52(sp)
    4450:	41b88db3          	sub	s11,a7,s11
    4454:	c0be                	c.swsp	a5,64(sp)
    4456:	cce6                	c.swsp	s9,88(sp)
    4458:	47fd                	c.li	a5,31
    445a:	42a2                	c.lwsp	t0,8(sp)
    445c:	4cc2                	c.lwsp	s9,16(sp)
    445e:	417787b3          	sub	a5,a5,s7
    4462:	dc6e                	c.swsp	s11,56(sp)
    4464:	8b36                	c.mv	s6,a3
    4466:	4d81                	c.li	s11,0
    4468:	fe0b8d13          	addi	s10,s7,-32
    446c:	d846                	c.swsp	a7,48(sp)
    446e:	c2de                	c.swsp	s7,68(sp)
    4470:	c4be                	c.swsp	a5,72(sp)
    4472:	c6aa                	c.swsp	a0,76(sp)
    4474:	c22e                	c.swsp	a1,4(sp)
    4476:	c8ae                	c.swsp	a1,80(sp)
    4478:	cab6                	c.swsp	a3,84(sp)
    447a:	cee2                	c.swsp	s8,92(sp)
    447c:	4792                	c.lwsp	a5,4(sp)
    447e:	5682                	c.lwsp	a3,32(sp)
    4480:	55b2                	c.lwsp	a1,44(sp)
    4482:	00d78533          	add	a0,a5,a3
    4486:	00b786b3          	add	a3,a5,a1
    448a:	c236                	c.swsp	a3,4(sp)
    448c:	2a028863          	beqz	t0,473c <riscv_nn_vec_mat_mult_t_s16+0x35c>
    4490:	5c12                	c.lwsp	s8,36(sp)
    4492:	ca7e                	c.swsp	t6,20(sp)
    4494:	ce26                	c.swsp	s1,28(sp)
    4496:	8fe6                	c.mv	t6,s9
    4498:	84ea                	c.mv	s1,s10
    449a:	8b96                	c.mv	s7,t0
    449c:	8d3a                	c.mv	s10,a4
    449e:	4881                	c.li	a7,0
    44a0:	872a                	c.mv	a4,a0
    44a2:	4681                	c.li	a3,0
    44a4:	8cb2                	c.mv	s9,a2
    44a6:	853e                	c.mv	a0,a5
    44a8:	c44a                	c.swsp	s2,8(sp)
    44aa:	c64e                	c.swsp	s3,12(sp)
    44ac:	c87a                	c.swsp	t5,16(sp)
    44ae:	cc22                	c.swsp	s0,24(sp)
    44b0:	000c2603          	lw	a2,0(s8)
    44b4:	004c0793          	addi	a5,s8,4
    44b8:	439c                	c.lw	a5,0(a5)
    44ba:	0c21                	c.addi	s8,8
    44bc:	00052803          	lw	a6,0(a0)
    44c0:	8342                	c.mv	t1,a6
    44c2:	83c2                	c.mv	t2,a6
    44c4:	0511                	c.addi	a0,4
    44c6:	de8305ff          	wexti	a1,t1,8
    44ca:	ac9585ff          	sunpkd820	a1,a1
    44ce:	ac98087f          	sunpkd820	a6,a6
    44d2:	2f0599ff          	pktt16	s3,a1,a6
    44d6:	0f0595ff          	pkbb16	a1,a1,a6
    44da:	48c596ff          	kmada	a3,a1,a2
    44de:	48f996ff          	kmada	a3,s3,a5
    44e2:	00072803          	lw	a6,0(a4)
    44e6:	8e42                	c.mv	t3,a6
    44e8:	8ec2                	c.mv	t4,a6
    44ea:	0711                	c.addi	a4,4
    44ec:	de8e05ff          	wexti	a1,t3,8
    44f0:	ac9585ff          	sunpkd820	a1,a1
    44f4:	ac98087f          	sunpkd820	a6,a6
    44f8:	2f0599ff          	pktt16	s3,a1,a6
    44fc:	0f0595ff          	pkbb16	a1,a1,a6
    4500:	48c598ff          	kmada	a7,a1,a2
    4504:	48f998ff          	kmada	a7,s3,a5
    4508:	1bfd                	c.addi	s7,-1
    450a:	fa0b93e3          	bnez	s7,44b0 <riscv_nn_vec_mat_mult_t_s16+0xd0>
    450e:	4792                	c.lwsp	a5,4(sp)
    4510:	55d2                	c.lwsp	a1,52(sp)
    4512:	8666                	c.mv	a2,s9
    4514:	00b78533          	add	a0,a5,a1
    4518:	55e2                	c.lwsp	a1,56(sp)
    451a:	876a                	c.mv	a4,s10
    451c:	8cfe                	c.mv	s9,t6
    451e:	8d26                	c.mv	s10,s1
    4520:	8a46                	c.mv	s4,a7
    4522:	41f8da93          	srai	s5,a7,0x1f
    4526:	4f42                	c.lwsp	t5,16(sp)
    4528:	4fd2                	c.lwsp	t6,20(sp)
    452a:	4462                	c.lwsp	s0,24(sp)
    452c:	44f2                	c.lwsp	s1,28(sp)
    452e:	58f2                	c.lwsp	a7,60(sp)
    4530:	8936                	c.mv	s2,a3
    4532:	97ae                	c.add	a5,a1
    4534:	41f6d993          	srai	s3,a3,0x1f
    4538:	5682                	c.lwsp	a3,32(sp)
    453a:	55c2                	c.lwsp	a1,48(sp)
    453c:	02d5de63          	bge	a1,a3,4578 <riscv_nn_vec_mat_mult_t_s16+0x198>
    4540:	4686                	c.lwsp	a3,64(sp)
    4542:	96be                	c.add	a3,a5
    4544:	00089b83          	lh	s7,0(a7)
    4548:	00078803          	lb	a6,0(a5)
    454c:	00050583          	lb	a1,0(a0)
    4550:	0785                	c.addi	a5,1
    4552:	03780833          	mul	a6,a6,s7
    4556:	037585b3          	mul	a1,a1,s7
    455a:	0889                	c.addi	a7,2
    455c:	8f42                	c.mv	t5,a6
    455e:	842e                	c.mv	s0,a1
    4560:	41f85f93          	srai	t6,a6,0x1f
    4564:	41f5d493          	srai	s1,a1,0x1f
    4568:	c1e9197f          	add64	s2,s2,t5
    456c:	c08a1a7f          	add64	s4,s4,s0
    4570:	00150513          	addi	a0,a0,1
    4574:	fcd798e3          	bne	a5,a3,4544 <riscv_nn_vec_mat_mult_t_s16+0x164>
    4578:	ce01                	c.beqz	a2,4590 <riscv_nn_vec_mat_mult_t_s16+0x1b0>
    457a:	00062803          	lw	a6,0(a2) # 40000000 <_DATA_LMA_START+0x1fff9fc8>
    457e:	00462883          	lw	a7,4(a2)
    4582:	4608                	c.lw	a0,8(a2)
    4584:	464c                	c.lw	a1,12(a2)
    4586:	c109197f          	add64	s2,s2,a6
    458a:	0641                	c.addi	a2,16
    458c:	c0aa1a7f          	add64	s4,s4,a0
    4590:	032c87b3          	mul	a5,s9,s2
    4594:	f0e9157f          	mulr64	a0,s2,a4
    4598:	c53717ff          	maddr32	a5,a4,s3
    459c:	00f585b3          	add	a1,a1,a5
    45a0:	180d4463          	bltz	s10,4728 <riscv_nn_vec_mat_mult_t_s16+0x348>
    45a4:	41a5d533          	sra	a0,a1,s10
    45a8:	578a                	c.lwsp	a5,160(sp)
    45aa:	0505                	c.addi	a0,1
    45ac:	034c8833          	mul	a6,s9,s4
    45b0:	8505                	c.srai	a0,0x1
    45b2:	f2f5057f          	maxw	a0,a0,a5
    45b6:	579a                	c.lwsp	a5,164(sp)
    45b8:	c557187f          	maddr32	a6,a4,s5
    45bc:	f0a787ff          	minw	a5,a5,a0
    45c0:	00fb1023          	sh	a5,0(s6)
    45c4:	f0ea157f          	mulr64	a0,s4,a4
    45c8:	010585b3          	add	a1,a1,a6
    45cc:	140d4463          	bltz	s10,4714 <riscv_nn_vec_mat_mult_t_s16+0x334>
    45d0:	41a5d533          	sra	a0,a1,s10
    45d4:	568a                	c.lwsp	a3,160(sp)
    45d6:	00150793          	addi	a5,a0,1
    45da:	8785                	c.srai	a5,0x1
    45dc:	f2d787ff          	maxw	a5,a5,a3
    45e0:	569a                	c.lwsp	a3,164(sp)
    45e2:	0b11                	c.addi	s6,4
    45e4:	f0f687ff          	minw	a5,a3,a5
    45e8:	fefb1f23          	sh	a5,-2(s6)
    45ec:	57a2                	c.lwsp	a5,40(sp)
    45ee:	0d85                	c.addi	s11,1
    45f0:	e8fdc6e3          	blt	s11,a5,447c <riscv_nn_vec_mat_mult_t_s16+0x9c>
    45f4:	45c6                	c.lwsp	a1,80(sp)
    45f6:	5432                	c.lwsp	s0,44(sp)
    45f8:	46d6                	c.lwsp	a3,84(sp)
    45fa:	4536                	c.lwsp	a0,76(sp)
    45fc:	c4f415ff          	maddr32	a1,s0,a5
    4600:	4ce6                	c.lwsp	s9,88(sp)
    4602:	078a                	c.slli	a5,0x2
    4604:	4c76                	c.lwsp	s8,92(sp)
    4606:	96be                	c.add	a3,a5
    4608:	001c7c13          	andi	s8,s8,1
    460c:	0e0c0463          	beqz	s8,46f4 <riscv_nn_vec_mat_mult_t_s16+0x314>
    4610:	8509                	c.srai	a0,0x2
    4612:	12050b63          	beqz	a0,4748 <riscv_nn_vec_mat_mult_t_s16+0x368>
    4616:	5812                	c.lwsp	a6,36(sp)
    4618:	8e2a                	c.mv	t3,a0
    461a:	88ae                	c.mv	a7,a1
    461c:	00000313          	li	t1,0
    4620:	0008ae83          	lw	t4,0(a7)
    4624:	8f76                	c.mv	t5,t4
    4626:	8ff6                	c.mv	t6,t4
    4628:	0891                	c.addi	a7,4
    462a:	de8f07ff          	wexti	a5,t5,8
    462e:	ac9787ff          	sunpkd820	a5,a5
    4632:	ac9e8eff          	sunpkd820	t4,t4
    4636:	2fd792ff          	pktt16	t0,a5,t4
    463a:	0fd797ff          	pkbb16	a5,a5,t4
    463e:	00082e83          	lw	t4,0(a6)
    4642:	49d7937f          	kmada	t1,a5,t4
    4646:	00480793          	addi	a5,a6,4
    464a:	439c                	c.lw	a5,0(a5)
    464c:	0821                	c.addi	a6,8
    464e:	48f2937f          	kmada	t1,t0,a5
    4652:	1e7d                	c.addi	t3,-1
    4654:	fc0e16e3          	bnez	t3,4620 <riscv_nn_vec_mat_mult_t_s16+0x240>
    4658:	5412                	c.lwsp	s0,36(sp)
    465a:	00351793          	slli	a5,a0,0x3
    465e:	050a                	c.slli	a0,0x2
    4660:	97a2                	c.add	a5,s0
    4662:	881a                	c.mv	a6,t1
    4664:	95aa                	c.add	a1,a0
    4666:	41f35893          	srai	a7,t1,0x1f
    466a:	d23e                	c.swsp	a5,36(sp)
    466c:	5782                	c.lwsp	a5,32(sp)
    466e:	02f55563          	bge	a0,a5,4698 <riscv_nn_vec_mat_mult_t_s16+0x2b8>
    4672:	8f89                	c.sub	a5,a0
    4674:	5312                	c.lwsp	t1,36(sp)
    4676:	97ae                	c.add	a5,a1
    4678:	00031f03          	lh	t5,0(t1)
    467c:	00058503          	lb	a0,0(a1)
    4680:	0585                	c.addi	a1,1
    4682:	0309                	c.addi	t1,2
    4684:	03e50533          	mul	a0,a0,t5
    4688:	00a00e33          	add	t3,zero,a0
    468c:	41f55e93          	srai	t4,a0,0x1f
    4690:	c1c8187f          	add64	a6,a6,t3
    4694:	fef592e3          	bne	a1,a5,4678 <riscv_nn_vec_mat_mult_t_s16+0x298>
    4698:	c611                	c.beqz	a2,46a4 <riscv_nn_vec_mat_mult_t_s16+0x2c4>
    469a:	4208                	c.lw	a0,0(a2)
    469c:	00462583          	lw	a1,4(a2)
    46a0:	c0a8187f          	add64	a6,a6,a0
    46a4:	02e885b3          	mul	a1,a7,a4
    46a8:	41f75793          	srai	a5,a4,0x1f
    46ac:	4639                	c.li	a2,14
    46ae:	c50795ff          	maddr32	a1,a5,a6
    46b2:	f107147f          	mulr64	s0,a4,a6
    46b6:	41960633          	sub	a2,a2,s9
    46ba:	fe060513          	addi	a0,a2,-32
    46be:	94ae                	c.add	s1,a1
    46c0:	40a4d733          	sra	a4,s1,a0
    46c4:	00055c63          	bgez	a0,46dc <riscv_nn_vec_mat_mult_t_s16+0x2fc>
    46c8:	45fd                	c.li	a1,31
    46ca:	00149793          	slli	a5,s1,0x1
    46ce:	8d91                	c.sub	a1,a2
    46d0:	00b797b3          	sll	a5,a5,a1
    46d4:	00c45733          	srl	a4,s0,a2
    46d8:	00f76733          	or	a4,a4,a5
    46dc:	00170793          	addi	a5,a4,1
    46e0:	570a                	c.lwsp	a4,160(sp)
    46e2:	8785                	c.srai	a5,0x1
    46e4:	f2e787ff          	maxw	a5,a5,a4
    46e8:	0a412703          	lw	a4,164(sp)
    46ec:	f0e787ff          	minw	a5,a5,a4
    46f0:	00f69023          	sh	a5,0(a3)
    46f4:	447a                	c.lwsp	s0,156(sp)
    46f6:	44ea                	c.lwsp	s1,152(sp)
    46f8:	495a                	c.lwsp	s2,148(sp)
    46fa:	49ca                	c.lwsp	s3,144(sp)
    46fc:	4a3a                	c.lwsp	s4,140(sp)
    46fe:	4aaa                	c.lwsp	s5,136(sp)
    4700:	4b1a                	c.lwsp	s6,132(sp)
    4702:	4b8a                	c.lwsp	s7,128(sp)
    4704:	5c76                	c.lwsp	s8,124(sp)
    4706:	5ce6                	c.lwsp	s9,120(sp)
    4708:	5d56                	c.lwsp	s10,116(sp)
    470a:	5dc6                	c.lwsp	s11,112(sp)
    470c:	4501                	c.li	a0,0
    470e:	610d                	c.addi16sp	sp,160
    4710:	00008067          	ret
    4714:	46a6                	c.lwsp	a3,72(sp)
    4716:	00159793          	slli	a5,a1,0x1
    471a:	00d797b3          	sll	a5,a5,a3
    471e:	4696                	c.lwsp	a3,68(sp)
    4720:	00d55533          	srl	a0,a0,a3
    4724:	8d5d                	c.or	a0,a5
    4726:	b57d                	c.j	45d4 <riscv_nn_vec_mat_mult_t_s16+0x1f4>
    4728:	46a6                	c.lwsp	a3,72(sp)
    472a:	00159793          	slli	a5,a1,0x1
    472e:	00d797b3          	sll	a5,a5,a3
    4732:	4696                	c.lwsp	a3,68(sp)
    4734:	00d55533          	srl	a0,a0,a3
    4738:	8d5d                	c.or	a0,a5
    473a:	b5bd                	c.j	45a8 <riscv_nn_vec_mat_mult_t_s16+0x1c8>
    473c:	5892                	c.lwsp	a7,36(sp)
    473e:	4a01                	c.li	s4,0
    4740:	4a81                	c.li	s5,0
    4742:	4901                	c.li	s2,0
    4744:	4981                	c.li	s3,0
    4746:	bbcd                	c.j	4538 <riscv_nn_vec_mat_mult_t_s16+0x158>
    4748:	4801                	c.li	a6,0
    474a:	4881                	c.li	a7,0
    474c:	4501                	c.li	a0,0
    474e:	bf39                	c.j	466c <riscv_nn_vec_mat_mult_t_s16+0x28c>

00004750 <__muldf3>:
    4750:	1101                	c.addi	sp,-32
    4752:	ce22                	c.swsp	s0,28(sp)
    4754:	cc26                	c.swsp	s1,24(sp)
    4756:	ca4a                	c.swsp	s2,20(sp)
    4758:	c84e                	c.swsp	s3,16(sp)
    475a:	c652                	c.swsp	s4,12(sp)
    475c:	c456                	c.swsp	s5,8(sp)
    475e:	c25a                	c.swsp	s6,4(sp)
    4760:	00202373          	frrm	t1
    4764:	7945a75b          	bfoz	a4,a1,30,20
    4768:	4c05a7db          	bfoz	a5,a1,19,0
    476c:	81fd                	c.srli	a1,0x1f
    476e:	10070963          	beqz	a4,4880 <__muldf3+0x130>
    4772:	7ff00813          	li	a6,2047
    4776:	07070963          	beq	a4,a6,47e8 <__muldf3+0x98>
    477a:	00800837          	lui	a6,0x800
    477e:	078e                	c.slli	a5,0x3
    4780:	01d55293          	srli	t0,a0,0x1d
    4784:	0107e7b3          	or	a5,a5,a6
    4788:	c0170e13          	addi	t3,a4,-1023
    478c:	00f2e2b3          	or	t0,t0,a5
    4790:	050e                	c.slli	a0,0x3
    4792:	4701                	c.li	a4,0
    4794:	4381                	c.li	t2,0
    4796:	4801                	c.li	a6,0
    4798:	7946a8db          	bfoz	a7,a3,30,20
    479c:	4c06a7db          	bfoz	a5,a3,19,0
    47a0:	01f6d693          	srli	a3,a3,0x1f
    47a4:	12088a63          	beqz	a7,48d8 <__muldf3+0x188>
    47a8:	7ff00e93          	li	t4,2047
    47ac:	17d88a63          	beq	a7,t4,4920 <__muldf3+0x1d0>
    47b0:	00800f37          	lui	t5,0x800
    47b4:	078e                	c.slli	a5,0x3
    47b6:	01d65e93          	srli	t4,a2,0x1d
    47ba:	01e7e7b3          	or	a5,a5,t5
    47be:	c0188893          	addi	a7,a7,-1023
    47c2:	00fee7b3          	or	a5,t4,a5
    47c6:	060e                	c.slli	a2,0x3
    47c8:	9e46                	c.add	t3,a7
    47ca:	4f01                	c.li	t5,0
    47cc:	48bd                	c.li	a7,15
    47ce:	00d5ceb3          	xor	t4,a1,a3
    47d2:	001e0f93          	addi	t6,t3,1
    47d6:	16e8e363          	bltu	a7,a4,493c <__muldf3+0x1ec>
    47da:	1c8c188b          	addigp	a7,25032 # 869c8 <fully_connected_weights+0x614>
    47de:	0ce8875b          	lea.w	a4,a7,a4
    47e2:	4318                	c.lw	a4,0(a4)
    47e4:	00070067          	jr	a4
    47e8:	00a7e2b3          	or	t0,a5,a0
    47ec:	32028263          	beqz	t0,4b10 <__muldf3+0x3c0>
    47f0:	0137d713          	srli	a4,a5,0x13
    47f4:	82be                	c.mv	t0,a5
    47f6:	46070563          	beqz	a4,4c60 <__muldf3+0x510>
    47fa:	4731                	c.li	a4,12
    47fc:	7ff00e13          	li	t3,2047
    4800:	438d                	c.li	t2,3
    4802:	4801                	c.li	a6,0
    4804:	f95ff06f          	j	4798 <__muldf3+0x48>
    4808:	00d00eb3          	add	t4,zero,a3
    480c:	062f605b          	bnec	t5,2,486c <__muldf3+0x11c>
    4810:	88f6                	c.mv	a7,t4
    4812:	7ff00713          	li	a4,2047
    4816:	4781                	c.li	a5,0
    4818:	00000613          	li	a2,0
    481c:	4581                	c.li	a1,0
    481e:	fff006b7          	lui	a3,0xfff00
    4822:	8eed                	c.and	a3,a1
    4824:	4c07a7db          	bfoz	a5,a5,19,0
    4828:	8fd5                	c.or	a5,a3
    482a:	01471693          	slli	a3,a4,0x14
    482e:	80100737          	lui	a4,0x80100
    4832:	177d                	c.addi	a4,-1
    4834:	8f7d                	c.and	a4,a5
    4836:	8f55                	c.or	a4,a3
    4838:	08fe                	c.slli	a7,0x1f
    483a:	7807275b          	bfoz	a4,a4,30,0
    483e:	8532                	c.mv	a0,a2
    4840:	011765b3          	or	a1,a4,a7
    4844:	3e081e63          	bnez	a6,4c40 <__muldf3+0x4f0>
    4848:	4472                	c.lwsp	s0,28(sp)
    484a:	44e2                	c.lwsp	s1,24(sp)
    484c:	4952                	c.lwsp	s2,20(sp)
    484e:	49c2                	c.lwsp	s3,16(sp)
    4850:	4a32                	c.lwsp	s4,12(sp)
    4852:	4aa2                	c.lwsp	s5,8(sp)
    4854:	4b12                	c.lwsp	s6,4(sp)
    4856:	6105                	c.addi16sp	sp,32
    4858:	00008067          	ret
    485c:	00b00eb3          	add	t4,zero,a1
    4860:	8f1e                	c.mv	t5,t2
    4862:	8796                	c.mv	a5,t0
    4864:	00a00633          	add	a2,zero,a0
    4868:	ba2f545b          	beqc	t5,2,4810 <__muldf3+0xc0>
    486c:	363f525b          	beqc	t5,3,4bd0 <__muldf3+0x480>
    4870:	221f685b          	bnec	t5,1,4aa0 <__muldf3+0x350>
    4874:	88f6                	c.mv	a7,t4
    4876:	4701                	c.li	a4,0
    4878:	4781                	c.li	a5,0
    487a:	4601                	c.li	a2,0
    487c:	fa1ff06f          	j	481c <__muldf3+0xcc>
    4880:	00a7e2b3          	or	t0,a5,a0
    4884:	28028063          	beqz	t0,4b04 <__muldf3+0x3b4>
    4888:	af97877f          	clz32	a4,a5
    488c:	00079663          	bnez	a5,4898 <__muldf3+0x148>
    4890:	af95077f          	clz32	a4,a0
    4894:	02070713          	addi	a4,a4,32 # 80100020 <_DATA_LMA_START+0x600f9fe8>
    4898:	ff570893          	addi	a7,a4,-11
    489c:	4871                	c.li	a6,28
    489e:	3b184b63          	blt	a6,a7,4c54 <__muldf3+0x504>
    48a2:	42f5                	c.li	t0,29
    48a4:	ff870813          	addi	a6,a4,-8
    48a8:	411282b3          	sub	t0,t0,a7
    48ac:	005552b3          	srl	t0,a0,t0
    48b0:	010797b3          	sll	a5,a5,a6
    48b4:	00f2e2b3          	or	t0,t0,a5
    48b8:	01051533          	sll	a0,a0,a6
    48bc:	c0d00e13          	li	t3,-1011
    48c0:	7946a8db          	bfoz	a7,a3,30,20
    48c4:	40ee0e33          	sub	t3,t3,a4
    48c8:	4c06a7db          	bfoz	a5,a3,19,0
    48cc:	4701                	c.li	a4,0
    48ce:	4381                	c.li	t2,0
    48d0:	4801                	c.li	a6,0
    48d2:	82fd                	c.srli	a3,0x1f
    48d4:	ec089ae3          	bnez	a7,47a8 <__muldf3+0x58>
    48d8:	00c7e8b3          	or	a7,a5,a2
    48dc:	24088263          	beqz	a7,4b20 <__muldf3+0x3d0>
    48e0:	af9788ff          	clz32	a7,a5
    48e4:	00079663          	bnez	a5,48f0 <__muldf3+0x1a0>
    48e8:	af9608ff          	clz32	a7,a2
    48ec:	02088893          	addi	a7,a7,32
    48f0:	ff588f93          	addi	t6,a7,-11
    48f4:	4ef1                	c.li	t4,28
    48f6:	35fec963          	blt	t4,t6,4c48 <__muldf3+0x4f8>
    48fa:	4ef5                	c.li	t4,29
    48fc:	ff888f13          	addi	t5,a7,-8
    4900:	41fe8eb3          	sub	t4,t4,t6
    4904:	01d65eb3          	srl	t4,a2,t4
    4908:	01e797b3          	sll	a5,a5,t5
    490c:	00fee7b3          	or	a5,t4,a5
    4910:	01e61633          	sll	a2,a2,t5
    4914:	411e0e33          	sub	t3,t3,a7
    4918:	c0de0e13          	addi	t3,t3,-1011
    491c:	4f01                	c.li	t5,0
    491e:	b57d                	c.j	47cc <__muldf3+0x7c>
    4920:	00c7e8b3          	or	a7,a5,a2
    4924:	7ffe0e13          	addi	t3,t3,2047
    4928:	20088263          	beqz	a7,4b2c <__muldf3+0x3dc>
    492c:	00376713          	ori	a4,a4,3
    4930:	4f0d                	c.li	t5,3
    4932:	e937fd5b          	bbs	a5,19,47cc <__muldf3+0x7c>
    4936:	4841                	c.li	a6,16
    4938:	e95ff06f          	j	47cc <__muldf3+0x7c>
    493c:	6f41                	c.lui	t5,0x10
    493e:	ffff0713          	addi	a4,t5,-1 # ffff <BIN_SIZE+0x3575>
    4942:	00e678b3          	and	a7,a2,a4
    4946:	01055393          	srli	t2,a0,0x10
    494a:	031385b3          	mul	a1,t2,a7
    494e:	8d79                	c.and	a0,a4
    4950:	01065913          	srli	s2,a2,0x10
    4954:	02a886b3          	mul	a3,a7,a0
    4958:	862e                	c.mv	a2,a1
    495a:	c4a9167f          	maddr32	a2,s2,a0
    495e:	03238733          	mul	a4,t2,s2
    4962:	0106d413          	srli	s0,a3,0x10
    4966:	9432                	c.add	s0,a2
    4968:	00b47463          	bgeu	s0,a1,4970 <__muldf3+0x220>
    496c:	01e70733          	add	a4,a4,t5
    4970:	6b41                	c.lui	s6,0x10
    4972:	fffb0f13          	addi	t5,s6,-1 # ffff <BIN_SIZE+0x3575>
    4976:	01e7f5b3          	and	a1,a5,t5
    497a:	02b38a33          	mul	s4,t2,a1
    497e:	0107d993          	srli	s3,a5,0x10
    4982:	01e47633          	and	a2,s0,t5
    4986:	01e6f6b3          	and	a3,a3,t5
    498a:	0642                	c.slli	a2,0x10
    498c:	00d60f33          	add	t5,a2,a3
    4990:	02b50ab3          	mul	s5,a0,a1
    4994:	01045493          	srli	s1,s0,0x10
    4998:	87d2                	c.mv	a5,s4
    499a:	c4a997ff          	maddr32	a5,s3,a0
    499e:	033383b3          	mul	t2,t2,s3
    49a2:	010ad693          	srli	a3,s5,0x10
    49a6:	96be                	c.add	a3,a5
    49a8:	0146f463          	bgeu	a3,s4,49b0 <__muldf3+0x260>
    49ac:	016383b3          	add	t2,t2,s6
    49b0:	6b41                	c.lui	s6,0x10
    49b2:	fffb0413          	addi	s0,s6,-1 # ffff <BIN_SIZE+0x3575>
    49b6:	0102da13          	srli	s4,t0,0x10
    49ba:	0082f7b3          	and	a5,t0,s0
    49be:	031a02b3          	mul	t0,s4,a7
    49c2:	0086f633          	and	a2,a3,s0
    49c6:	82c1                	c.srli	a3,0x10
    49c8:	93b6                	c.add	t2,a3
    49ca:	0642                	c.slli	a2,0x10
    49cc:	008afab3          	and	s5,s5,s0
    49d0:	02f888b3          	mul	a7,a7,a5
    49d4:	01560433          	add	s0,a2,s5
    49d8:	94a2                	c.add	s1,s0
    49da:	8696                	c.mv	a3,t0
    49dc:	c4f916ff          	maddr32	a3,s2,a5
    49e0:	03490633          	mul	a2,s2,s4
    49e4:	0108d513          	srli	a0,a7,0x10
    49e8:	9536                	c.add	a0,a3
    49ea:	00557363          	bgeu	a0,t0,49f0 <__muldf3+0x2a0>
    49ee:	965a                	c.add	a2,s6
    49f0:	02ba0ab3          	mul	s5,s4,a1
    49f4:	6b41                	c.lui	s6,0x10
    49f6:	fffb0293          	addi	t0,s6,-1 # ffff <BIN_SIZE+0x3575>
    49fa:	005576b3          	and	a3,a0,t0
    49fe:	06c2                	c.slli	a3,0x10
    4a00:	0058f8b3          	and	a7,a7,t0
    4a04:	02b78933          	mul	s2,a5,a1
    4a08:	98b6                	c.add	a7,a3
    4a0a:	8141                	c.srli	a0,0x10
    4a0c:	9532                	c.add	a0,a2
    4a0e:	85d6                	c.mv	a1,s5
    4a10:	c4f995ff          	maddr32	a1,s3,a5
    4a14:	034982b3          	mul	t0,s3,s4
    4a18:	01095693          	srli	a3,s2,0x10
    4a1c:	00b687b3          	add	a5,a3,a1
    4a20:	0157f463          	bgeu	a5,s5,4a28 <__muldf3+0x2d8>
    4a24:	016282b3          	add	t0,t0,s6
    4a28:	65c1                	c.lui	a1,0x10
    4a2a:	15fd                	c.addi	a1,-1
    4a2c:	00b7f6b3          	and	a3,a5,a1
    4a30:	06c2                	c.slli	a3,0x10
    4a32:	00b975b3          	and	a1,s2,a1
    4a36:	9726                	c.add	a4,s1
    4a38:	96ae                	c.add	a3,a1
    4a3a:	00873633          	sltu	a2,a4,s0
    4a3e:	969e                	c.add	a3,t2
    4a40:	9746                	c.add	a4,a7
    4a42:	00c684b3          	add	s1,a3,a2
    4a46:	011735b3          	sltu	a1,a4,a7
    4a4a:	00a488b3          	add	a7,s1,a0
    4a4e:	00b88433          	add	s0,a7,a1
    4a52:	00c4b633          	sltu	a2,s1,a2
    4a56:	0076b6b3          	sltu	a3,a3,t2
    4a5a:	8ed1                	c.or	a3,a2
    4a5c:	00b435b3          	sltu	a1,s0,a1
    4a60:	83c1                	c.srli	a5,0x10
    4a62:	00a8b533          	sltu	a0,a7,a0
    4a66:	97b6                	c.add	a5,a3
    4a68:	8dc9                	c.or	a1,a0
    4a6a:	00971613          	slli	a2,a4,0x9
    4a6e:	97ae                	c.add	a5,a1
    4a70:	9796                	c.add	a5,t0
    4a72:	01e66633          	or	a2,a2,t5
    4a76:	01745693          	srli	a3,s0,0x17
    4a7a:	07a6                	c.slli	a5,0x9
    4a7c:	00c03633          	snez	a2,a2
    4a80:	835d                	c.srli	a4,0x17
    4a82:	8e59                	c.or	a2,a4
    4a84:	0426                	c.slli	s0,0x9
    4a86:	8fd5                	c.or	a5,a3
    4a88:	8e41                	c.or	a2,s0
    4a8a:	1f87f15b          	bbc	a5,24,4c6c <__muldf3+0x51c>
    4a8e:	00165713          	srli	a4,a2,0x1
    4a92:	8a05                	c.andi	a2,1
    4a94:	01f79693          	slli	a3,a5,0x1f
    4a98:	8e59                	c.or	a2,a4
    4a9a:	8e55                	c.or	a2,a3
    4a9c:	0017d793          	srli	a5,a5,0x1
    4aa0:	3fff8713          	addi	a4,t6,1023
    4aa4:	0ae05263          	blez	a4,4b48 <__muldf3+0x3f8>
    4aa8:	00767693          	andi	a3,a2,7
    4aac:	c685                	c.beqz	a3,4ad4 <__muldf3+0x384>
    4aae:	00186813          	ori	a6,a6,1
    4ab2:	1c235f5b          	beqc	t1,2,4c90 <__muldf3+0x540>
    4ab6:	2633535b          	beqc	t1,3,4d1c <__muldf3+0x5cc>
    4aba:	00031d63          	bnez	t1,4ad4 <__muldf3+0x384>
    4abe:	00f67693          	andi	a3,a2,15
    4ac2:	0046d95b          	beqc	a3,4,4ad4 <__muldf3+0x384>
    4ac6:	00460693          	addi	a3,a2,4
    4aca:	00c6b633          	sltu	a2,a3,a2
    4ace:	97b2                	c.add	a5,a2
    4ad0:	00d00633          	add	a2,zero,a3
    4ad4:	0187f85b          	bbc	a5,24,4ae4 <__muldf3+0x394>
    4ad8:	ff000737          	lui	a4,0xff000
    4adc:	177d                	c.addi	a4,-1
    4ade:	8ff9                	c.and	a5,a4
    4ae0:	400f8713          	addi	a4,t6,1024
    4ae4:	7fe00693          	li	a3,2046
    4ae8:	88f6                	c.mv	a7,t4
    4aea:	18e6c363          	blt	a3,a4,4c70 <__muldf3+0x520>
    4aee:	00365693          	srli	a3,a2,0x3
    4af2:	01d79613          	slli	a2,a5,0x1d
    4af6:	8e55                	c.or	a2,a3
    4af8:	5837a7db          	bfoz	a5,a5,22,3
    4afc:	7ff77713          	andi	a4,a4,2047
    4b00:	d1dff06f          	j	481c <__muldf3+0xcc>
    4b04:	4711                	c.li	a4,4
    4b06:	4501                	c.li	a0,0
    4b08:	4e01                	c.li	t3,0
    4b0a:	4385                	c.li	t2,1
    4b0c:	4801                	c.li	a6,0
    4b0e:	b169                	c.j	4798 <__muldf3+0x48>
    4b10:	4721                	c.li	a4,8
    4b12:	4501                	c.li	a0,0
    4b14:	7ff00e13          	li	t3,2047
    4b18:	4389                	c.li	t2,2
    4b1a:	4801                	c.li	a6,0
    4b1c:	c7dff06f          	j	4798 <__muldf3+0x48>
    4b20:	00176713          	ori	a4,a4,1
    4b24:	4781                	c.li	a5,0
    4b26:	4601                	c.li	a2,0
    4b28:	4f05                	c.li	t5,1
    4b2a:	b14d                	c.j	47cc <__muldf3+0x7c>
    4b2c:	00276713          	ori	a4,a4,2
    4b30:	4781                	c.li	a5,0
    4b32:	4601                	c.li	a2,0
    4b34:	4f09                	c.li	t5,2
    4b36:	b959                	c.j	47cc <__muldf3+0x7c>
    4b38:	4881                	c.li	a7,0
    4b3a:	7ff00713          	li	a4,2047
    4b3e:	000807b7          	lui	a5,0x80
    4b42:	4601                	c.li	a2,0
    4b44:	4841                	c.li	a6,16
    4b46:	b9d9                	c.j	481c <__muldf3+0xcc>
    4b48:	4685                	c.li	a3,1
    4b4a:	8e99                	c.sub	a3,a4
    4b4c:	eb51                	c.bnez	a4,4be0 <__muldf3+0x490>
    4b4e:	00767593          	andi	a1,a2,7
    4b52:	873e                	c.mv	a4,a5
    4b54:	00058a63          	beqz	a1,4b68 <__muldf3+0x418>
    4b58:	00186813          	ori	a6,a6,1
    4b5c:	1e23565b          	beqc	t1,2,4d48 <__muldf3+0x5f8>
    4b60:	1c335c5b          	beqc	t1,3,4d38 <__muldf3+0x5e8>
    4b64:	1e030663          	beqz	t1,4d50 <__muldf3+0x600>
    4b68:	01875593          	srli	a1,a4,0x18
    4b6c:	0015c593          	xori	a1,a1,1
    4b70:	0015f593          	andi	a1,a1,1
    4b74:	41ef8f93          	addi	t6,t6,1054
    4b78:	01f61733          	sll	a4,a2,t6
    4b7c:	00d65533          	srl	a0,a2,a3
    4b80:	01f79fb3          	sll	t6,a5,t6
    4b84:	00e03633          	snez	a2,a4
    4b88:	00afefb3          	or	t6,t6,a0
    4b8c:	01f66633          	or	a2,a2,t6
    4b90:	00767713          	andi	a4,a2,7
    4b94:	00d7d7b3          	srl	a5,a5,a3
    4b98:	00070a63          	beqz	a4,4bac <__muldf3+0x45c>
    4b9c:	00186813          	ori	a6,a6,1
    4ba0:	1c23545b          	beqc	t1,2,4d68 <__muldf3+0x618>
    4ba4:	1c335e5b          	beqc	t1,3,4d80 <__muldf3+0x630>
    4ba8:	14030a63          	beqz	t1,4cfc <__muldf3+0x5ac>
    4bac:	1777fc5b          	bbc	a5,23,4d24 <__muldf3+0x5d4>
    4bb0:	00186813          	ori	a6,a6,1
    4bb4:	4705                	c.li	a4,1
    4bb6:	4781                	c.li	a5,0
    4bb8:	00000613          	li	a2,0
    4bbc:	01d008b3          	add	a7,zero,t4
    4bc0:	c4058ee3          	beqz	a1,481c <__muldf3+0xcc>
    4bc4:	84087c5b          	bbc	a6,0,481c <__muldf3+0xcc>
    4bc8:	00286813          	ori	a6,a6,2
    4bcc:	04c0006f          	j	4c18 <__muldf3+0x4c8>
    4bd0:	4881                	c.li	a7,0
    4bd2:	7ff00713          	li	a4,2047
    4bd6:	000807b7          	lui	a5,0x80
    4bda:	4601                	c.li	a2,0
    4bdc:	c41ff06f          	j	481c <__muldf3+0xcc>
    4be0:	03800593          	li	a1,56
    4be4:	0cd5da63          	bge	a1,a3,4cb8 <__muldf3+0x568>
    4be8:	8e5d                	c.or	a2,a5
    4bea:	c20d                	c.beqz	a2,4c0c <__muldf3+0x4bc>
    4bec:	00186813          	ori	a6,a6,1
    4bf0:	01d03633          	snez	a2,t4
    4bf4:	00235c5b          	beqc	t1,2,4c0c <__muldf3+0x4bc>
    4bf8:	ffd30793          	addi	a5,t1,-3
    4bfc:	0017b793          	seqz	a5,a5
    4c00:	001eb613          	seqz	a2,t4
    4c04:	40f007b3          	neg	a5,a5
    4c08:	00f67633          	and	a2,a2,a5
    4c0c:	00286813          	ori	a6,a6,2
    4c10:	88f6                	c.mv	a7,t4
    4c12:	4701                	c.li	a4,0
    4c14:	00000793          	li	a5,0
    4c18:	4581                	c.li	a1,0
    4c1a:	fff006b7          	lui	a3,0xfff00
    4c1e:	8eed                	c.and	a3,a1
    4c20:	4c07a7db          	bfoz	a5,a5,19,0
    4c24:	8fd5                	c.or	a5,a3
    4c26:	801006b7          	lui	a3,0x80100
    4c2a:	16fd                	c.addi	a3,-1
    4c2c:	0752                	c.slli	a4,0x14
    4c2e:	8efd                	c.and	a3,a5
    4c30:	8f55                	c.or	a4,a3
    4c32:	08fe                	c.slli	a7,0x1f
    4c34:	7807275b          	bfoz	a4,a4,30,0
    4c38:	00c00533          	add	a0,zero,a2
    4c3c:	011765b3          	or	a1,a4,a7
    4c40:	00182073          	csrs	fflags,a6
    4c44:	c05ff06f          	j	4848 <__muldf3+0xf8>
    4c48:	fd888793          	addi	a5,a7,-40
    4c4c:	00f617b3          	sll	a5,a2,a5
    4c50:	4601                	c.li	a2,0
    4c52:	b1c9                	c.j	4914 <__muldf3+0x1c4>
    4c54:	fd870793          	addi	a5,a4,-40 # feffffd8 <_DATA_LMA_START+0xdeff9fa0>
    4c58:	00f512b3          	sll	t0,a0,a5
    4c5c:	4501                	c.li	a0,0
    4c5e:	b9b9                	c.j	48bc <__muldf3+0x16c>
    4c60:	4731                	c.li	a4,12
    4c62:	7ff00e13          	li	t3,2047
    4c66:	438d                	c.li	t2,3
    4c68:	4841                	c.li	a6,16
    4c6a:	b63d                	c.j	4798 <__muldf3+0x48>
    4c6c:	8ff2                	c.mv	t6,t3
    4c6e:	bd0d                	c.j	4aa0 <__muldf3+0x350>
    4c70:	02235a5b          	beqc	t1,2,4ca4 <__muldf3+0x554>
    4c74:	0a33505b          	beqc	t1,3,4d14 <__muldf3+0x5c4>
    4c78:	02030863          	beqz	t1,4ca8 <__muldf3+0x558>
    4c7c:	001007b7          	lui	a5,0x100
    4c80:	7fe00713          	li	a4,2046
    4c84:	17fd                	c.addi	a5,-1
    4c86:	567d                	c.li	a2,-1
    4c88:	00586813          	ori	a6,a6,5
    4c8c:	f8dff06f          	j	4c18 <__muldf3+0x4c8>
    4c90:	e40e82e3          	beqz	t4,4ad4 <__muldf3+0x384>
    4c94:	00860693          	addi	a3,a2,8
    4c98:	00c6b633          	sltu	a2,a3,a2
    4c9c:	97b2                	c.add	a5,a2
    4c9e:	8636                	c.mv	a2,a3
    4ca0:	e35ff06f          	j	4ad4 <__muldf3+0x384>
    4ca4:	fc0e8ce3          	beqz	t4,4c7c <__muldf3+0x52c>
    4ca8:	7ff00713          	li	a4,2047
    4cac:	4781                	c.li	a5,0
    4cae:	4601                	c.li	a2,0
    4cb0:	00586813          	ori	a6,a6,5
    4cb4:	f65ff06f          	j	4c18 <__muldf3+0x4c8>
    4cb8:	45fd                	c.li	a1,31
    4cba:	0cd5dd63          	bge	a1,a3,4d94 <__muldf3+0x644>
    4cbe:	5585                	c.li	a1,-31
    4cc0:	40e58733          	sub	a4,a1,a4
    4cc4:	00e7d733          	srl	a4,a5,a4
    4cc8:	0006d8db          	beqc	a3,32,4cd8 <__muldf3+0x588>
    4ccc:	43ef8f93          	addi	t6,t6,1086
    4cd0:	01f797b3          	sll	a5,a5,t6
    4cd4:	00f66633          	or	a2,a2,a5
    4cd8:	00c03633          	snez	a2,a2
    4cdc:	8e59                	c.or	a2,a4
    4cde:	00767793          	andi	a5,a2,7
    4ce2:	c3dd                	c.beqz	a5,4d88 <__muldf3+0x638>
    4ce4:	00186813          	ori	a6,a6,1
    4ce8:	06235e5b          	beqc	t1,2,4d64 <__muldf3+0x614>
    4cec:	0833585b          	beqc	t1,3,4d7c <__muldf3+0x62c>
    4cf0:	4585                	c.li	a1,1
    4cf2:	4781                	c.li	a5,0
    4cf4:	02031863          	bnez	t1,4d24 <__muldf3+0x5d4>
    4cf8:	4781                	c.li	a5,0
    4cfa:	4585                	c.li	a1,1
    4cfc:	00f67713          	andi	a4,a2,15
    4d00:	aa47565b          	beqc	a4,4,4bac <__muldf3+0x45c>
    4d04:	00460713          	addi	a4,a2,4
    4d08:	00c73633          	sltu	a2,a4,a2
    4d0c:	97b2                	c.add	a5,a2
    4d0e:	863a                	c.mv	a2,a4
    4d10:	e9dff06f          	j	4bac <__muldf3+0x45c>
    4d14:	f80e8ae3          	beqz	t4,4ca8 <__muldf3+0x558>
    4d18:	f65ff06f          	j	4c7c <__muldf3+0x52c>
    4d1c:	da0e9ce3          	bnez	t4,4ad4 <__muldf3+0x384>
    4d20:	f75ff06f          	j	4c94 <__muldf3+0x544>
    4d24:	00365713          	srli	a4,a2,0x3
    4d28:	01d79613          	slli	a2,a5,0x1d
    4d2c:	8e59                	c.or	a2,a4
    4d2e:	5837a7db          	bfoz	a5,a5,22,3
    4d32:	4701                	c.li	a4,0
    4d34:	e89ff06f          	j	4bbc <__muldf3+0x46c>
    4d38:	e20e98e3          	bnez	t4,4b68 <__muldf3+0x418>
    4d3c:	ff863713          	sltiu	a4,a2,-8
    4d40:	00174713          	xori	a4,a4,1
    4d44:	973e                	c.add	a4,a5
    4d46:	b50d                	c.j	4b68 <__muldf3+0x418>
    4d48:	e20e80e3          	beqz	t4,4b68 <__muldf3+0x418>
    4d4c:	ff1ff06f          	j	4d3c <__muldf3+0x5ec>
    4d50:	00f67593          	andi	a1,a2,15
    4d54:	a045da5b          	beqc	a1,4,4b68 <__muldf3+0x418>
    4d58:	ffc63713          	sltiu	a4,a2,-4
    4d5c:	00174713          	xori	a4,a4,1
    4d60:	973e                	c.add	a4,a5
    4d62:	b519                	c.j	4b68 <__muldf3+0x418>
    4d64:	4781                	c.li	a5,0
    4d66:	4585                	c.li	a1,1
    4d68:	e40e82e3          	beqz	t4,4bac <__muldf3+0x45c>
    4d6c:	00860713          	addi	a4,a2,8
    4d70:	00c73633          	sltu	a2,a4,a2
    4d74:	97b2                	c.add	a5,a2
    4d76:	863a                	c.mv	a2,a4
    4d78:	e35ff06f          	j	4bac <__muldf3+0x45c>
    4d7c:	4781                	c.li	a5,0
    4d7e:	4585                	c.li	a1,1
    4d80:	e20e96e3          	bnez	t4,4bac <__muldf3+0x45c>
    4d84:	fe9ff06f          	j	4d6c <__muldf3+0x61c>
    4d88:	820d                	c.srli	a2,0x3
    4d8a:	88f6                	c.mv	a7,t4
    4d8c:	4701                	c.li	a4,0
    4d8e:	4781                	c.li	a5,0
    4d90:	e35ff06f          	j	4bc4 <__muldf3+0x474>
    4d94:	4585                	c.li	a1,1
    4d96:	bbf9                	c.j	4b74 <__muldf3+0x424>
    4d98:	0001                	c.nop
	...

00004d9c <__fixunsdfsi>:
    4d9c:	002027f3          	frrm	a5
    4da0:	3fe00713          	li	a4,1022
    4da4:	7945a6db          	bfoz	a3,a1,30,20
    4da8:	4c05a7db          	bfoz	a5,a1,19,0
    4dac:	81fd                	c.srli	a1,0x1f
    4dae:	00d74963          	blt	a4,a3,4dc0 <__fixunsdfsi+0x24>
    4db2:	ce89                	c.beqz	a3,4dcc <__fixunsdfsi+0x30>
    4db4:	4501                	c.li	a0,0
    4db6:	4785                	c.li	a5,1
    4db8:	0017a073          	csrs	fflags,a5
    4dbc:	00008067          	ret
    4dc0:	c991                	c.beqz	a1,4dd4 <__fixunsdfsi+0x38>
    4dc2:	4501                	c.li	a0,0
    4dc4:	47c1                	c.li	a5,16
    4dc6:	0017a073          	csrs	fflags,a5
    4dca:	8082                	c.jr	ra
    4dcc:	8d5d                	c.or	a0,a5
    4dce:	f17d                	c.bnez	a0,4db4 <__fixunsdfsi+0x18>
    4dd0:	00008067          	ret
    4dd4:	41e00713          	li	a4,1054
    4dd8:	02d74863          	blt	a4,a3,4e08 <__fixunsdfsi+0x6c>
    4ddc:	43300613          	li	a2,1075
    4de0:	00100737          	lui	a4,0x100
    4de4:	8e15                	c.sub	a2,a3
    4de6:	45fd                	c.li	a1,31
    4de8:	8f5d                	c.or	a4,a5
    4dea:	02c5c363          	blt	a1,a2,4e10 <__fixunsdfsi+0x74>
    4dee:	bed68693          	addi	a3,a3,-1043 # 800ffbed <_DATA_LMA_START+0x600f9bb5>
    4df2:	00d517b3          	sll	a5,a0,a3
    4df6:	00d71733          	sll	a4,a4,a3
    4dfa:	00c55533          	srl	a0,a0,a2
    4dfe:	00f037b3          	snez	a5,a5
    4e02:	8d59                	c.or	a0,a4
    4e04:	fbd5                	c.bnez	a5,4db8 <__fixunsdfsi+0x1c>
    4e06:	8082                	c.jr	ra
    4e08:	557d                	c.li	a0,-1
    4e0a:	47c1                	c.li	a5,16
    4e0c:	fadff06f          	j	4db8 <__fixunsdfsi+0x1c>
    4e10:	000658db          	beqc	a2,32,4e20 <__fixunsdfsi+0x84>
    4e14:	c0d68793          	addi	a5,a3,-1011
    4e18:	00f717b3          	sll	a5,a4,a5
    4e1c:	00f56533          	or	a0,a0,a5
    4e20:	41300793          	li	a5,1043
    4e24:	40d786b3          	sub	a3,a5,a3
    4e28:	00a037b3          	snez	a5,a0
    4e2c:	00d75533          	srl	a0,a4,a3
    4e30:	bfd1                	c.j	4e04 <__fixunsdfsi+0x68>
    4e32:	0001                	c.nop

00004e34 <__floatsidf>:
    4e34:	c925                	c.beqz	a0,4ea4 <__floatsidf+0x70>
    4e36:	40a007b3          	neg	a5,a0
    4e3a:	01f55613          	srli	a2,a0,0x1f
    4e3e:	f2f5057f          	maxw	a0,a0,a5
    4e42:	af95077f          	clz32	a4,a0
    4e46:	41e00793          	li	a5,1054
    4e4a:	8f99                	c.sub	a5,a4
    4e4c:	46a9                	c.li	a3,10
    4e4e:	7ff7f793          	andi	a5,a5,2047
    4e52:	02e6df63          	bge	a3,a4,4e90 <__floatsidf+0x5c>
    4e56:	1755                	c.addi	a4,-11
    4e58:	00e516b3          	sll	a3,a0,a4
    4e5c:	4c06a6db          	bfoz	a3,a3,19,0
    4e60:	00000713          	li	a4,0
    4e64:	4581                	c.li	a1,0
    4e66:	853a                	c.mv	a0,a4
    4e68:	fff00737          	lui	a4,0xfff00
    4e6c:	8f6d                	c.and	a4,a1
    4e6e:	4c06a6db          	bfoz	a3,a3,19,0
    4e72:	8ed9                	c.or	a3,a4
    4e74:	01479713          	slli	a4,a5,0x14
    4e78:	801007b7          	lui	a5,0x80100
    4e7c:	17fd                	c.addi	a5,-1
    4e7e:	8ff5                	c.and	a5,a3
    4e80:	8fd9                	c.or	a5,a4
    4e82:	7807a7db          	bfoz	a5,a5,30,0
    4e86:	01f61713          	slli	a4,a2,0x1f
    4e8a:	00e7e5b3          	or	a1,a5,a4
    4e8e:	8082                	c.jr	ra
    4e90:	46ad                	c.li	a3,11
    4e92:	8e99                	c.sub	a3,a4
    4e94:	00d556b3          	srl	a3,a0,a3
    4e98:	0755                	c.addi	a4,21
    4e9a:	00e51733          	sll	a4,a0,a4
    4e9e:	4c06a6db          	bfoz	a3,a3,19,0
    4ea2:	b7c9                	c.j	4e64 <__floatsidf+0x30>
    4ea4:	4601                	c.li	a2,0
    4ea6:	4781                	c.li	a5,0
    4ea8:	4681                	c.li	a3,0
    4eaa:	4701                	c.li	a4,0
    4eac:	bf65                	c.j	4e64 <__floatsidf+0x30>
	...

00004eb0 <__extendsfdf2>:
    4eb0:	e0050753          	fmv.x.w	a4,fa0
    4eb4:	002027f3          	frrm	a5
    4eb8:	797727db          	bfoz	a5,a4,30,23
    4ebc:	00178593          	addi	a1,a5,1 # 80100001 <_DATA_LMA_START+0x600f9fc9>
    4ec0:	0ff5f593          	andi	a1,a1,255
    4ec4:	4505                	c.li	a0,1
    4ec6:	580726db          	bfoz	a3,a4,22,0
    4eca:	01f75613          	srli	a2,a4,0x1f
    4ece:	02b55d63          	bge	a0,a1,4f08 <__extendsfdf2+0x58>
    4ed2:	0036d713          	srli	a4,a3,0x3
    4ed6:	38078793          	addi	a5,a5,896
    4eda:	06f6                	c.slli	a3,0x1d
    4edc:	4581                	c.li	a1,0
    4ede:	8536                	c.mv	a0,a3
    4ee0:	fff006b7          	lui	a3,0xfff00
    4ee4:	8eed                	c.and	a3,a1
    4ee6:	4c07275b          	bfoz	a4,a4,19,0
    4eea:	8ed9                	c.or	a3,a4
    4eec:	51e7a75b          	bfoz	a4,a5,20,30
    4ef0:	801007b7          	lui	a5,0x80100
    4ef4:	17fd                	c.addi	a5,-1
    4ef6:	8ff5                	c.and	a5,a3
    4ef8:	8fd9                	c.or	a5,a4
    4efa:	7807a7db          	bfoz	a5,a5,30,0
    4efe:	01f61713          	slli	a4,a2,0x1f
    4f02:	00e7e5b3          	or	a1,a5,a4
    4f06:	8082                	c.jr	ra
    4f08:	e785                	c.bnez	a5,4f30 <__extendsfdf2+0x80>
    4f0a:	cabd                	c.beqz	a3,4f80 <__extendsfdf2+0xd0>
    4f0c:	af9685ff          	clz32	a1,a3
    4f10:	47a9                	c.li	a5,10
    4f12:	06b7db63          	bge	a5,a1,4f88 <__extendsfdf2+0xd8>
    4f16:	ff558713          	addi	a4,a1,-11 # fff5 <BIN_SIZE+0x356b>
    4f1a:	00e69733          	sll	a4,a3,a4
    4f1e:	4681                	c.li	a3,0
    4f20:	38900793          	li	a5,905
    4f24:	8f8d                	c.sub	a5,a1
    4f26:	4c07275b          	bfoz	a4,a4,19,0
    4f2a:	7ff7f793          	andi	a5,a5,2047
    4f2e:	b77d                	c.j	4edc <__extendsfdf2+0x2c>
    4f30:	c6a1                	c.beqz	a3,4f78 <__extendsfdf2+0xc8>
    4f32:	00080737          	lui	a4,0x80
    4f36:	0036d793          	srli	a5,a3,0x3
    4f3a:	00100837          	lui	a6,0x100
    4f3e:	8fd9                	c.or	a5,a4
    4f40:	187d                	c.addi	a6,-1
    4f42:	01d69713          	slli	a4,a3,0x1d
    4f46:	0107f7b3          	and	a5,a5,a6
    4f4a:	4566f95b          	bbs	a3,22,4f9c <__extendsfdf2+0xec>
    4f4e:	4581                	c.li	a1,0
    4f50:	853a                	c.mv	a0,a4
    4f52:	fff00737          	lui	a4,0xfff00
    4f56:	8f6d                	c.and	a4,a1
    4f58:	0107f7b3          	and	a5,a5,a6
    4f5c:	8fd9                	c.or	a5,a4
    4f5e:	7ff006b7          	lui	a3,0x7ff00
    4f62:	8edd                	c.or	a3,a5
    4f64:	01f61713          	slli	a4,a2,0x1f
    4f68:	7806a6db          	bfoz	a3,a3,30,0
    4f6c:	00e6e5b3          	or	a1,a3,a4
    4f70:	00186073          	csrsi	fflags,16
    4f74:	00008067          	ret
    4f78:	7ff00793          	li	a5,2047
    4f7c:	4701                	c.li	a4,0
    4f7e:	bfb9                	c.j	4edc <__extendsfdf2+0x2c>
    4f80:	4781                	c.li	a5,0
    4f82:	4701                	c.li	a4,0
    4f84:	f59ff06f          	j	4edc <__extendsfdf2+0x2c>
    4f88:	472d                	c.li	a4,11
    4f8a:	8f0d                	c.sub	a4,a1
    4f8c:	01558793          	addi	a5,a1,21
    4f90:	00e6d733          	srl	a4,a3,a4
    4f94:	00f696b3          	sll	a3,a3,a5
    4f98:	f89ff06f          	j	4f20 <__extendsfdf2+0x70>
    4f9c:	4581                	c.li	a1,0
    4f9e:	853a                	c.mv	a0,a4
    4fa0:	fff00737          	lui	a4,0xfff00
    4fa4:	8f6d                	c.and	a4,a1
    4fa6:	0107f7b3          	and	a5,a5,a6
    4faa:	8fd9                	c.or	a5,a4
    4fac:	7ff006b7          	lui	a3,0x7ff00
    4fb0:	8edd                	c.or	a3,a5
    4fb2:	01f61713          	slli	a4,a2,0x1f
    4fb6:	7806a6db          	bfoz	a3,a3,30,0
    4fba:	00e6e5b3          	or	a1,a3,a4
    4fbe:	8082                	c.jr	ra

00004fc0 <malloc>:
    4fc0:	5fd002ef          	jal	t0,5dbc <__riscv_save_0>
    4fc4:	85aa                	c.mv	a1,a0
    4fc6:	22cc252b          	lwgp	a0,25132 # 86a2c <_impure_ptr>
    4fca:	2a81                	c.jal	511a <_malloc_r>
    4fcc:	6150006f          	j	5de0 <__riscv_restore_0>

00004fd0 <free>:
    4fd0:	5ed002ef          	jal	t0,5dbc <__riscv_save_0>
    4fd4:	85aa                	c.mv	a1,a0
    4fd6:	22cc252b          	lwgp	a0,25132 # 86a2c <_impure_ptr>
    4fda:	2845                	c.jal	508a <_free_r>
    4fdc:	6050006f          	j	5de0 <__riscv_restore_0>

00004fe0 <memset>:
    4fe0:	433d                	c.li	t1,15
    4fe2:	872a                	c.mv	a4,a0
    4fe4:	02c37363          	bgeu	t1,a2,500a <memset+0x2a>
    4fe8:	00f77793          	andi	a5,a4,15
    4fec:	e3c1                	c.bnez	a5,506c <memset+0x8c>
    4fee:	e5b5                	c.bnez	a1,505a <memset+0x7a>
    4ff0:	ff067693          	andi	a3,a2,-16
    4ff4:	8a3d                	c.andi	a2,15
    4ff6:	96ba                	c.add	a3,a4
    4ff8:	c30c                	c.sw	a1,0(a4)
    4ffa:	c34c                	c.sw	a1,4(a4)
    4ffc:	c70c                	c.sw	a1,8(a4)
    4ffe:	c74c                	c.sw	a1,12(a4)
    5000:	0741                	c.addi	a4,16
    5002:	fed76be3          	bltu	a4,a3,4ff8 <memset+0x18>
    5006:	e211                	c.bnez	a2,500a <memset+0x2a>
    5008:	8082                	c.jr	ra
    500a:	40c306b3          	sub	a3,t1,a2
    500e:	068a                	c.slli	a3,0x2
    5010:	00000297          	auipc	t0,0x0
    5014:	005686b3          	add	a3,a3,t0
    5018:	00c68067          	jr	12(a3) # 7ff0000c <_DATA_LMA_START+0x5fef9fd4>
    501c:	00b70723          	sb	a1,14(a4) # fff0000e <_DATA_LMA_START+0xdfef9fd6>
    5020:	00b706a3          	sb	a1,13(a4)
    5024:	00b70623          	sb	a1,12(a4)
    5028:	00b705a3          	sb	a1,11(a4)
    502c:	00b70523          	sb	a1,10(a4)
    5030:	00b704a3          	sb	a1,9(a4)
    5034:	00b70423          	sb	a1,8(a4)
    5038:	00b703a3          	sb	a1,7(a4)
    503c:	00b70323          	sb	a1,6(a4)
    5040:	00b702a3          	sb	a1,5(a4)
    5044:	00b70223          	sb	a1,4(a4)
    5048:	00b701a3          	sb	a1,3(a4)
    504c:	00b70123          	sb	a1,2(a4)
    5050:	00b700a3          	sb	a1,1(a4)
    5054:	00b70023          	sb	a1,0(a4)
    5058:	8082                	c.jr	ra
    505a:	0ff5f593          	andi	a1,a1,255
    505e:	00859693          	slli	a3,a1,0x8
    5062:	8dd5                	c.or	a1,a3
    5064:	01059693          	slli	a3,a1,0x10
    5068:	8dd5                	c.or	a1,a3
    506a:	b759                	c.j	4ff0 <memset+0x10>
    506c:	00279693          	slli	a3,a5,0x2
    5070:	00000297          	auipc	t0,0x0
    5074:	9696                	c.add	a3,t0
    5076:	8286                	c.mv	t0,ra
    5078:	fa8680e7          	jalr	-88(a3)
    507c:	8096                	c.mv	ra,t0
    507e:	17c1                	c.addi	a5,-16
    5080:	8f1d                	c.sub	a4,a5
    5082:	963e                	c.add	a2,a5
    5084:	f8c373e3          	bgeu	t1,a2,500a <memset+0x2a>
    5088:	b79d                	c.j	4fee <memset+0xe>

0000508a <_free_r>:
    508a:	c5b5                	c.beqz	a1,50f6 <_free_r+0x6c>
    508c:	ffc5a703          	lw	a4,-4(a1)
    5090:	ffc58793          	addi	a5,a1,-4
    5094:	00075363          	bgez	a4,509a <_free_r+0x10>
    5098:	97ba                	c.add	a5,a4
    509a:	250c272b          	lwgp	a4,25168 # 86a50 <__malloc_free_list>
    509e:	85b6                	c.mv	a1,a3
    50a0:	e711                	c.bnez	a4,50ac <_free_r+0x22>
    50a2:	0007a223          	sw	zero,4(a5) # 80100004 <_DATA_LMA_START+0x600f9fcc>
    50a6:	24fc482b          	swgp	a5,25168 # 86a50 <__malloc_free_list>
    50aa:	8082                	c.jr	ra
    50ac:	02e7f063          	bgeu	a5,a4,50cc <_free_r+0x42>
    50b0:	4390                	c.lw	a2,0(a5)
    50b2:	00c786b3          	add	a3,a5,a2
    50b6:	00d71663          	bne	a4,a3,50c2 <_free_r+0x38>
    50ba:	4314                	c.lw	a3,0(a4)
    50bc:	4358                	c.lw	a4,4(a4)
    50be:	96b2                	c.add	a3,a2
    50c0:	c394                	c.sw	a3,0(a5)
    50c2:	c3d8                	c.sw	a4,4(a5)
    50c4:	24fc482b          	swgp	a5,25168 # 86a50 <__malloc_free_list>
    50c8:	8082                	c.jr	ra
    50ca:	8736                	c.mv	a4,a3
    50cc:	4354                	c.lw	a3,4(a4)
    50ce:	c299                	c.beqz	a3,50d4 <_free_r+0x4a>
    50d0:	fed7fde3          	bgeu	a5,a3,50ca <_free_r+0x40>
    50d4:	4310                	c.lw	a2,0(a4)
    50d6:	00c705b3          	add	a1,a4,a2
    50da:	00f59f63          	bne	a1,a5,50f8 <_free_r+0x6e>
    50de:	439c                	c.lw	a5,0(a5)
    50e0:	97b2                	c.add	a5,a2
    50e2:	c31c                	c.sw	a5,0(a4)
    50e4:	00f70633          	add	a2,a4,a5
    50e8:	00c69763          	bne	a3,a2,50f6 <_free_r+0x6c>
    50ec:	4290                	c.lw	a2,0(a3)
    50ee:	97b2                	c.add	a5,a2
    50f0:	c31c                	c.sw	a5,0(a4)
    50f2:	42dc                	c.lw	a5,4(a3)
    50f4:	c35c                	c.sw	a5,4(a4)
    50f6:	8082                	c.jr	ra
    50f8:	00b7f663          	bgeu	a5,a1,5104 <_free_r+0x7a>
    50fc:	4731                	c.li	a4,12
    50fe:	26ec402b          	swgp	a4,25184 # 86a60 <__mculib_REENT_errno>
    5102:	8082                	c.jr	ra
    5104:	438c                	c.lw	a1,0(a5)
    5106:	00b78633          	add	a2,a5,a1
    510a:	00c69663          	bne	a3,a2,5116 <_free_r+0x8c>
    510e:	4290                	c.lw	a2,0(a3)
    5110:	42d4                	c.lw	a3,4(a3)
    5112:	962e                	c.add	a2,a1
    5114:	c390                	c.sw	a2,0(a5)
    5116:	c3d4                	c.sw	a3,4(a5)
    5118:	bff1                	c.j	50f4 <_free_r+0x6a>

0000511a <_malloc_r>:
    511a:	4a3002ef          	jal	t0,5dbc <__riscv_save_0>
    511e:	00358493          	addi	s1,a1,3
    5122:	98f1                	c.andi	s1,-4
    5124:	04a1                	c.addi	s1,8
    5126:	47b1                	c.li	a5,12
    5128:	06f4f263          	bgeu	s1,a5,518c <_malloc_r+0x72>
    512c:	44b1                	c.li	s1,12
    512e:	06b4e163          	bltu	s1,a1,5190 <_malloc_r+0x76>
    5132:	250c242b          	lwgp	s0,25168 # 86a50 <__malloc_free_list>
    5136:	250c168b          	addigp	a3,25168 # 86a50 <__malloc_free_list>
    513a:	87a2                	c.mv	a5,s0
    513c:	cf89                	c.beqz	a5,5156 <_malloc_r+0x3c>
    513e:	4398                	c.lw	a4,0(a5)
    5140:	8f05                	c.sub	a4,s1
    5142:	08074163          	bltz	a4,51c4 <_malloc_r+0xaa>
    5146:	462d                	c.li	a2,11
    5148:	04e67a63          	bgeu	a2,a4,519c <_malloc_r+0x82>
    514c:	c398                	c.sw	a4,0(a5)
    514e:	00e78433          	add	s0,a5,a4
    5152:	c004                	c.sw	s1,0(s0)
    5154:	e821                	c.bnez	s0,51a4 <_malloc_r+0x8a>
    5156:	254c140b          	addigp	s0,25172 # 86a54 <__malloc_sbrk_start>
    515a:	401c                	c.lw	a5,0(s0)
    515c:	e789                	c.bnez	a5,5166 <_malloc_r+0x4c>
    515e:	4501                	c.li	a0,0
    5160:	3a3000ef          	jal	ra,5d02 <_sbrk>
    5164:	c008                	c.sw	a0,0(s0)
    5166:	8526                	c.mv	a0,s1
    5168:	597d                	c.li	s2,-1
    516a:	399000ef          	jal	ra,5d02 <_sbrk>
    516e:	03250163          	beq	a0,s2,5190 <_malloc_r+0x76>
    5172:	00350413          	addi	s0,a0,3
    5176:	9871                	c.andi	s0,-4
    5178:	00a40863          	beq	s0,a0,5188 <_malloc_r+0x6e>
    517c:	40a40533          	sub	a0,s0,a0
    5180:	383000ef          	jal	ra,5d02 <_sbrk>
    5184:	01250663          	beq	a0,s2,5190 <_malloc_r+0x76>
    5188:	c004                	c.sw	s1,0(s0)
    518a:	a829                	c.j	51a4 <_malloc_r+0x8a>
    518c:	fa04d1e3          	bgez	s1,512e <_malloc_r+0x14>
    5190:	4731                	c.li	a4,12
    5192:	4501                	c.li	a0,0
    5194:	26ec402b          	swgp	a4,25184 # 86a60 <__mculib_REENT_errno>
    5198:	4490006f          	j	5de0 <__riscv_restore_0>
    519c:	43d8                	c.lw	a4,4(a5)
    519e:	02f41063          	bne	s0,a5,51be <_malloc_r+0xa4>
    51a2:	c298                	c.sw	a4,0(a3)
    51a4:	00b40513          	addi	a0,s0,11
    51a8:	00440793          	addi	a5,s0,4
    51ac:	9961                	c.andi	a0,-8
    51ae:	40f507b3          	sub	a5,a0,a5
    51b2:	d3fd                	c.beqz	a5,5198 <_malloc_r+0x7e>
    51b4:	943e                	c.add	s0,a5
    51b6:	40f007b3          	neg	a5,a5
    51ba:	c01c                	c.sw	a5,0(s0)
    51bc:	bff1                	c.j	5198 <_malloc_r+0x7e>
    51be:	c058                	c.sw	a4,4(s0)
    51c0:	843e                	c.mv	s0,a5
    51c2:	b7cd                	c.j	51a4 <_malloc_r+0x8a>
    51c4:	843e                	c.mv	s0,a5
    51c6:	43dc                	c.lw	a5,4(a5)
    51c8:	bf95                	c.j	513c <_malloc_r+0x22>

000051ca <printf>:
    51ca:	7139                	c.addi16sp	sp,-64
    51cc:	d22e                	c.swsp	a1,36(sp)
    51ce:	104c                	c.addi4spn	a1,sp,36
    51d0:	ce06                	c.swsp	ra,28(sp)
    51d2:	d432                	c.swsp	a2,40(sp)
    51d4:	d636                	c.swsp	a3,44(sp)
    51d6:	d83a                	c.swsp	a4,48(sp)
    51d8:	da3e                	c.swsp	a5,52(sp)
    51da:	dc42                	c.swsp	a6,56(sp)
    51dc:	de46                	c.swsp	a7,60(sp)
    51de:	c62e                	c.swsp	a1,12(sp)
    51e0:	28d9                	c.jal	52b6 <vprintf>
    51e2:	40f2                	c.lwsp	ra,28(sp)
    51e4:	6121                	c.addi16sp	sp,64
    51e6:	8082                	c.jr	ra

000051e8 <puts>:
    51e8:	3d5002ef          	jal	t0,5dbc <__riscv_save_0>
    51ec:	1101                	c.addi	sp,-32
    51ee:	c62a                	c.swsp	a0,12(sp)
    51f0:	2035                	c.jal	521c <strlen>
    51f2:	45b2                	c.lwsp	a1,12(sp)
    51f4:	862a                	c.mv	a2,a0
    51f6:	4505                	c.li	a0,1
    51f8:	ce4fc0ef          	jal	ra,16dc <_write>
    51fc:	00054e63          	bltz	a0,5218 <puts+0x30>
    5200:	47a9                	c.li	a5,10
    5202:	4605                	c.li	a2,1
    5204:	01f10593          	addi	a1,sp,31
    5208:	4505                	c.li	a0,1
    520a:	00f10fa3          	sb	a5,31(sp)
    520e:	ccefc0ef          	jal	ra,16dc <_write>
    5212:	6105                	c.addi16sp	sp,32
    5214:	3cd0006f          	j	5de0 <__riscv_restore_0>
    5218:	557d                	c.li	a0,-1
    521a:	bfe5                	c.j	5212 <puts+0x2a>

0000521c <strlen>:
    521c:	00357793          	andi	a5,a0,3
    5220:	872a                	c.mv	a4,a0
    5222:	e79d                	c.bnez	a5,5250 <strlen+0x34>
    5224:	0511                	c.addi	a0,4
    5226:	ffc52783          	lw	a5,-4(a0)
    522a:	200787db          	ffb	a5,a5,zero
    522e:	dbfd                	c.beqz	a5,5224 <strlen+0x8>
    5230:	ffc54783          	lbu	a5,-4(a0)
    5234:	40e50733          	sub	a4,a0,a4
    5238:	ffd54683          	lbu	a3,-3(a0)
    523c:	ffe54603          	lbu	a2,-2(a0)
    5240:	c795                	c.beqz	a5,526c <strlen+0x50>
    5242:	c28d                	c.beqz	a3,5264 <strlen+0x48>
    5244:	ca05                	c.beqz	a2,5274 <strlen+0x58>
    5246:	fff70513          	addi	a0,a4,-1
    524a:	8082                	c.jr	ra
    524c:	fc068ce3          	beqz	a3,5224 <strlen+0x8>
    5250:	00054783          	lbu	a5,0(a0)
    5254:	0505                	c.addi	a0,1
    5256:	00357693          	andi	a3,a0,3
    525a:	fbed                	c.bnez	a5,524c <strlen+0x30>
    525c:	8d19                	c.sub	a0,a4
    525e:	157d                	c.addi	a0,-1
    5260:	00008067          	ret
    5264:	ffd70513          	addi	a0,a4,-3
    5268:	00008067          	ret
    526c:	ffc70513          	addi	a0,a4,-4
    5270:	00008067          	ret
    5274:	ffe70513          	addi	a0,a4,-2
    5278:	8082                	c.jr	ra
    527a:	0001                	c.nop

0000527c <__vprintf_help>:
    527c:	341002ef          	jal	t0,5dbc <__riscv_save_0>
    5280:	264c27ab          	lwgp	a5,25188 # 86a64 <__printf_count>
    5284:	0785                	c.addi	a5,1
    5286:	26fc422b          	swgp	a5,25188 # 86a64 <__printf_count>
    528a:	25cc140b          	addigp	s0,25180 # 86a5c <__vprintf_buf_len>
    528e:	258c25ab          	lwgp	a1,25176 # 86a58 <__vprintf_buf>
    5292:	401c                	c.lw	a5,0(s0)
    5294:	00178713          	addi	a4,a5,1
    5298:	97ae                	c.add	a5,a1
    529a:	c018                	c.sw	a4,0(s0)
    529c:	00a78023          	sb	a0,0(a5)
    52a0:	4007695b          	bnec	a4,64,52b2 <__vprintf_help+0x36>
    52a4:	04000613          	li	a2,64
    52a8:	4505                	c.li	a0,1
    52aa:	c32fc0ef          	jal	ra,16dc <_write>
    52ae:	00042023          	sw	zero,0(s0)
    52b2:	32f0006f          	j	5de0 <__riscv_restore_0>

000052b6 <vprintf>:
    52b6:	1141                	c.addi	sp,-16
    52b8:	c606                	c.swsp	ra,12(sp)
    52ba:	c422                	c.swsp	s0,8(sp)
    52bc:	c226                	c.swsp	s1,4(sp)
    52be:	c04a                	c.swsp	s2,0(sp)
    52c0:	0800                	c.addi4spn	s0,sp,16
    52c2:	715d                	c.addi16sp	sp,-80
    52c4:	00f10793          	addi	a5,sp,15
    52c8:	00005637          	lui	a2,0x5
    52cc:	9bc1                	c.andi	a5,-16
    52ce:	258c148b          	addigp	s1,25176 # 86a58 <__vprintf_buf>
    52d2:	25cc190b          	addigp	s2,25180 # 86a5c <__vprintf_buf_len>
    52d6:	27c60613          	addi	a2,a2,636 # 527c <__vprintf_help>
    52da:	c09c                	c.sw	a5,0(s1)
    52dc:	00092023          	sw	zero,0(s2)
    52e0:	20ad                	c.jal	534a <__printf_impl>
    52e2:	00092603          	lw	a2,0(s2)
    52e6:	408c                	c.lw	a1,0(s1)
    52e8:	4505                	c.li	a0,1
    52ea:	bf2fc0ef          	jal	ra,16dc <_write>
    52ee:	264c252b          	lwgp	a0,25188 # 86a64 <__printf_count>
    52f2:	ff040113          	addi	sp,s0,-16
    52f6:	40b2                	c.lwsp	ra,12(sp)
    52f8:	4422                	c.lwsp	s0,8(sp)
    52fa:	4492                	c.lwsp	s1,4(sp)
    52fc:	4902                	c.lwsp	s2,0(sp)
    52fe:	0141                	c.addi	sp,16
    5300:	8082                	c.jr	ra

00005302 <__print_integral>:
    5302:	2bb002ef          	jal	t0,5dbc <__riscv_save_0>
    5306:	1101                	c.addi	sp,-32
    5308:	842a                	c.mv	s0,a0
    530a:	84ae                	c.mv	s1,a1
    530c:	8932                	c.mv	s2,a2
    530e:	c636                	c.swsp	a3,12(sp)
    5310:	85be                	c.mv	a1,a5
    5312:	ca32                	c.swsp	a2,20(sp)
    5314:	853a                	c.mv	a0,a4
    5316:	0830                	c.addi4spn	a2,sp,24
    5318:	2155                	c.jal	57bc <__int_to_poly>
    531a:	46b2                	c.lwsp	a3,12(sp)
    531c:	882a                	c.mv	a6,a0
    531e:	083c                	c.addi4spn	a5,sp,24
    5320:	0858                	c.addi4spn	a4,sp,20
    5322:	864a                	c.mv	a2,s2
    5324:	85a6                	c.mv	a1,s1
    5326:	8522                	c.mv	a0,s0
    5328:	294d                	c.jal	57da <__print_integral_poly>
    532a:	208c178b          	addigp	a5,25096 # 86a08 <__digits>
    532e:	00a46563          	bltu	s0,a0,5338 <__print_integral+0x36>
    5332:	6105                	c.addi16sp	sp,32
    5334:	2ad0006f          	j	5de0 <__riscv_restore_0>
    5338:	00044703          	lbu	a4,0(s0)
    533c:	0405                	c.addi	s0,1
    533e:	973e                	c.add	a4,a5
    5340:	00070703          	lb	a4,0(a4)
    5344:	fee40fa3          	sb	a4,-1(s0)
    5348:	b7dd                	c.j	532e <__print_integral+0x2c>

0000534a <__printf_impl>:
    534a:	243002ef          	jal	t0,5d8c <__riscv_save_12>
    534e:	a6010113          	addi	sp,sp,-1440
    5352:	6b05                	c.lui	s6,0x1
    5354:	892a                	c.mv	s2,a0
    5356:	842e                	c.mv	s0,a1
    5358:	89b2                	c.mv	s3,a2
    535a:	01c10a13          	addi	s4,sp,28
    535e:	800b0b13          	addi	s6,s6,-2048 # 800 <analog_read_reg8+0x2c>
    5362:	260c422b          	swgp	zero,25188 # 86a64 <__printf_count>
    5366:	c456                	c.swsp	s5,8(sp)
    5368:	00094503          	lbu	a0,0(s2)
    536c:	e509                	c.bnez	a0,5376 <__printf_impl+0x2c>
    536e:	5a010113          	addi	sp,sp,1440
    5372:	2570006f          	j	5dc8 <__riscv_restore_12>
    5376:	00190493          	addi	s1,s2,1
    537a:	005555db          	beqc	a0,37,5384 <__printf_impl+0x3a>
    537e:	9982                	c.jalr	s3
    5380:	8926                	c.mv	s2,s1
    5382:	b7dd                	c.j	5368 <__printf_impl+0x1e>
    5384:	00194783          	lbu	a5,1(s2)
    5388:	0057e8db          	bnec	a5,37,5398 <__printf_impl+0x4e>
    538c:	02500513          	li	a0,37
    5390:	9982                	c.jalr	s3
    5392:	00290493          	addi	s1,s2,2
    5396:	b7ed                	c.j	5380 <__printf_impl+0x36>
    5398:	4681                	c.li	a3,0
    539a:	4701                	c.li	a4,0
    539c:	d002                	c.swsp	zero,32(sp)
    539e:	0004c783          	lbu	a5,0(s1)
    53a2:	0007e7db          	bnec	a5,32,53b0 <__printf_impl+0x66>
    53a6:	00276713          	ori	a4,a4,2
    53aa:	0485                	c.addi	s1,1
    53ac:	4685                	c.li	a3,1
    53ae:	bfc5                	c.j	539e <__printf_impl+0x54>
    53b0:	00d7e5db          	bnec	a5,45,53ba <__printf_impl+0x70>
    53b4:	00476713          	ori	a4,a4,4
    53b8:	bfcd                	c.j	53aa <__printf_impl+0x60>
    53ba:	00b7e5db          	bnec	a5,43,53c4 <__printf_impl+0x7a>
    53be:	00876713          	ori	a4,a4,8
    53c2:	b7e5                	c.j	53aa <__printf_impl+0x60>
    53c4:	0037e5db          	bnec	a5,35,53ce <__printf_impl+0x84>
    53c8:	01076713          	ori	a4,a4,16
    53cc:	bff9                	c.j	53aa <__printf_impl+0x60>
    53ce:	0107e5db          	bnec	a5,48,53d8 <__printf_impl+0x8e>
    53d2:	02076713          	ori	a4,a4,32
    53d6:	bfd1                	c.j	53aa <__printf_impl+0x60>
    53d8:	c291                	c.beqz	a3,53dc <__printf_impl+0x92>
    53da:	d03a                	c.swsp	a4,32(sp)
    53dc:	04a7eadb          	bnec	a5,42,5430 <__printf_impl+0xe6>
    53e0:	00042c03          	lw	s8,0(s0)
    53e4:	00440713          	addi	a4,s0,4
    53e8:	000c5863          	bgez	s8,53f8 <__printf_impl+0xae>
    53ec:	5782                	c.lwsp	a5,32(sp)
    53ee:	41800c33          	neg	s8,s8
    53f2:	0047e793          	ori	a5,a5,4
    53f6:	d03e                	c.swsp	a5,32(sp)
    53f8:	0485                	c.addi	s1,1
    53fa:	843a                	c.mv	s0,a4
    53fc:	0004c783          	lbu	a5,0(s1)
    5400:	5cfd                	c.li	s9,-1
    5402:	06e7e4db          	bnec	a5,46,546a <__printf_impl+0x120>
    5406:	0014c783          	lbu	a5,1(s1)
    540a:	04a7dbdb          	beqc	a5,42,5460 <__printf_impl+0x116>
    540e:	0485                	c.addi	s1,1
    5410:	4c81                	c.li	s9,0
    5412:	4725                	c.li	a4,9
    5414:	4629                	c.li	a2,10
    5416:	0004c783          	lbu	a5,0(s1)
    541a:	fd078793          	addi	a5,a5,-48
    541e:	0ff7f693          	andi	a3,a5,255
    5422:	04d76463          	bltu	a4,a3,546a <__printf_impl+0x120>
    5426:	c4cc97ff          	maddr32	a5,s9,a2
    542a:	0485                	c.addi	s1,1
    542c:	8cbe                	c.mv	s9,a5
    542e:	b7e5                	c.j	5416 <__printf_impl+0xcc>
    5430:	fd078793          	addi	a5,a5,-48
    5434:	0ff7f793          	andi	a5,a5,255
    5438:	4725                	c.li	a4,9
    543a:	4c01                	c.li	s8,0
    543c:	fcf760e3          	bltu	a4,a5,53fc <__printf_impl+0xb2>
    5440:	4725                	c.li	a4,9
    5442:	4629                	c.li	a2,10
    5444:	a029                	c.j	544e <__printf_impl+0x104>
    5446:	c4cc17ff          	maddr32	a5,s8,a2
    544a:	0485                	c.addi	s1,1
    544c:	8c3e                	c.mv	s8,a5
    544e:	0004c783          	lbu	a5,0(s1)
    5452:	fd078793          	addi	a5,a5,-48
    5456:	0ff7f693          	andi	a3,a5,255
    545a:	fed776e3          	bgeu	a4,a3,5446 <__printf_impl+0xfc>
    545e:	bf79                	c.j	53fc <__printf_impl+0xb2>
    5460:	401c                	c.lw	a5,0(s0)
    5462:	0489                	c.addi	s1,2
    5464:	0411                	c.addi	s0,4
    5466:	f2fc8cff          	maxw	s9,s9,a5
    546a:	43200613          	li	a2,1074
    546e:	f0cc867f          	minw	a2,s9,a2
    5472:	0004c783          	lbu	a5,0(s1)
    5476:	4487efdb          	bnec	a5,104,54d4 <__printf_impl+0x18a>
    547a:	5782                	c.lwsp	a5,32(sp)
    547c:	0014c703          	lbu	a4,1(s1)
    5480:	448764db          	bnec	a4,104,54c8 <__printf_impl+0x17e>
    5484:	0407e793          	ori	a5,a5,64
    5488:	00248913          	addi	s2,s1,2
    548c:	d03e                	c.swsp	a5,32(sp)
    548e:	00094503          	lbu	a0,0(s2)
    5492:	06700793          	li	a5,103
    5496:	0aa7e263          	bltu	a5,a0,553a <__printf_impl+0x1f0>
    549a:	06500793          	li	a5,101
    549e:	06f57d63          	bgeu	a0,a5,5518 <__printf_impl+0x1ce>
    54a2:	05800793          	li	a5,88
    54a6:	5785555b          	beqc	a0,88,5610 <__printf_impl+0x2c6>
    54aa:	04a7ef63          	bltu	a5,a0,5508 <__printf_impl+0x1be>
    54ae:	04100793          	li	a5,65
    54b2:	4615535b          	beqc	a0,65,5518 <__printf_impl+0x1ce>
    54b6:	00f56763          	bltu	a0,a5,54c4 <__printf_impl+0x17a>
    54ba:	fbb50793          	addi	a5,a0,-69
    54be:	4709                	c.li	a4,2
    54c0:	04f77c63          	bgeu	a4,a5,5518 <__printf_impl+0x1ce>
    54c4:	84a2                	c.mv	s1,s0
    54c6:	a489                	c.j	5708 <__printf_impl+0x3be>
    54c8:	0807e793          	ori	a5,a5,128
    54cc:	d03e                	c.swsp	a5,32(sp)
    54ce:	00148913          	addi	s2,s1,1
    54d2:	bf75                	c.j	548e <__printf_impl+0x144>
    54d4:	40c7eddb          	bnec	a5,108,54ee <__printf_impl+0x1a4>
    54d8:	5782                	c.lwsp	a5,32(sp)
    54da:	0014c703          	lbu	a4,1(s1)
    54de:	40c765db          	bnec	a4,108,54e8 <__printf_impl+0x19e>
    54e2:	2007e793          	ori	a5,a5,512
    54e6:	b74d                	c.j	5488 <__printf_impl+0x13e>
    54e8:	1007e793          	ori	a5,a5,256
    54ec:	b7c5                	c.j	54cc <__printf_impl+0x182>
    54ee:	00148913          	addi	s2,s1,1
    54f2:	41a7e7db          	bnec	a5,122,5500 <__printf_impl+0x1b6>
    54f6:	5782                	c.lwsp	a5,32(sp)
    54f8:	1007e793          	ori	a5,a5,256
    54fc:	d03e                	c.swsp	a5,32(sp)
    54fe:	bf41                	c.j	548e <__printf_impl+0x144>
    5500:	ff47dbdb          	beqc	a5,116,54f6 <__printf_impl+0x1ac>
    5504:	8926                	c.mv	s2,s1
    5506:	b761                	c.j	548e <__printf_impl+0x144>
    5508:	06300793          	li	a5,99
    550c:	50355cdb          	beqc	a0,99,5624 <__printf_impl+0x2da>
    5510:	04a7e463          	bltu	a5,a0,5558 <__printf_impl+0x20e>
    5514:	fa1568db          	bnec	a0,97,54c4 <__printf_impl+0x17a>
    5518:	041d                	c.addi	s0,7
    551a:	9861                	c.andi	s0,-8
    551c:	00042803          	lw	a6,0(s0)
    5520:	00442883          	lw	a7,4(s0)
    5524:	02057b93          	andi	s7,a0,32
    5528:	87aa                	c.mv	a5,a0
    552a:	86c2                	c.mv	a3,a6
    552c:	8746                	c.mv	a4,a7
    552e:	100c                	c.addi4spn	a1,sp,32
    5530:	1048                	c.addi4spn	a0,sp,36
    5532:	00840493          	addi	s1,s0,8
    5536:	2e15                	c.jal	586a <__printf_float_impl>
    5538:	aa4d                	c.j	56ea <__printf_impl+0x3a0>
    553a:	07000793          	li	a5,112
    553e:	4d0559db          	beqc	a0,112,5610 <__printf_impl+0x2c6>
    5542:	04a7e163          	bltu	a5,a0,5584 <__printf_impl+0x23a>
    5546:	06e00793          	li	a5,110
    554a:	5ae554db          	beqc	a0,110,56f2 <__printf_impl+0x3a8>
    554e:	45a1                	c.li	a1,8
    5550:	0ca7e163          	bltu	a5,a0,5612 <__printf_impl+0x2c8>
    5554:	f69568db          	bnec	a0,105,54c4 <__printf_impl+0x17a>
    5558:	5682                	c.lwsp	a3,32(sp)
    555a:	0e66f05b          	bbc	a3,6,563a <__printf_impl+0x2f0>
    555e:	00040703          	lb	a4,0(s0)
    5562:	00440493          	addi	s1,s0,4
    5566:	41f75793          	srai	a5,a4,0x1f
    556a:	0e07df63          	bgez	a5,5668 <__printf_impl+0x31e>
    556e:	40e00733          	neg	a4,a4
    5572:	00e035b3          	snez	a1,a4
    5576:	40f007b3          	neg	a5,a5
    557a:	8f8d                	c.sub	a5,a1
    557c:	4006e693          	ori	a3,a3,1024
    5580:	d036                	c.swsp	a3,32(sp)
    5582:	a0dd                	c.j	5668 <__printf_impl+0x31e>
    5584:	515553db          	beqc	a0,117,568a <__printf_impl+0x340>
    5588:	498554db          	beqc	a0,120,5610 <__printf_impl+0x2c6>
    558c:	f3356cdb          	bnec	a0,115,54c4 <__printf_impl+0x17a>
    5590:	00042a83          	lw	s5,0(s0)
    5594:	85b2                	c.mv	a1,a2
    5596:	8556                	c.mv	a0,s5
    5598:	c632                	c.swsp	a2,12(sp)
    559a:	2f81                	c.jal	5cea <strnlen>
    559c:	57fd                	c.li	a5,-1
    559e:	00440493          	addi	s1,s0,4
    55a2:	00fc8563          	beq	s9,a5,55ac <__printf_impl+0x262>
    55a6:	4632                	c.lwsp	a2,12(sp)
    55a8:	f0c5057f          	minw	a0,a0,a2
    55ac:	00aa8433          	add	s0,s5,a0
    55b0:	4b81                	c.li	s7,0
    55b2:	5782                	c.lwsp	a5,32(sp)
    55b4:	02d00693          	li	a3,45
    55b8:	40a7fb5b          	bbs	a5,10,55ce <__printf_impl+0x284>
    55bc:	02b00693          	li	a3,43
    55c0:	4037f75b          	bbs	a5,3,55ce <__printf_impl+0x284>
    55c4:	8cd2                	c.mv	s9,s4
    55c6:	0017f85b          	bbc	a5,1,55d6 <__printf_impl+0x28c>
    55ca:	02000693          	li	a3,32
    55ce:	01d10c93          	addi	s9,sp,29
    55d2:	00d10e23          	sb	a3,28(sp)
    55d6:	0167f6b3          	and	a3,a5,s6
    55da:	ca91                	c.beqz	a3,55ee <__printf_impl+0x2a4>
    55dc:	03000693          	li	a3,48
    55e0:	00dc8023          	sb	a3,0(s9)
    55e4:	05800693          	li	a3,88
    55e8:	00dc80a3          	sb	a3,1(s9)
    55ec:	0c89                	c.addi	s9,2
    55ee:	5627f45b          	bbs	a5,2,5756 <__printf_impl+0x40c>
    55f2:	41540db3          	sub	s11,s0,s5
    55f6:	4057fa5b          	bbs	a5,5,560a <__printf_impl+0x2c0>
    55fa:	41bc0d33          	sub	s10,s8,s11
    55fe:	414c87b3          	sub	a5,s9,s4
    5602:	40fd0d33          	sub	s10,s10,a5
    5606:	17a04763          	bgtz	s10,5774 <__printf_impl+0x42a>
    560a:	8d52                	c.mv	s10,s4
    560c:	9c52                	c.add	s8,s4
    560e:	aab5                	c.j	578a <__printf_impl+0x440>
    5610:	45c1                	c.li	a1,16
    5612:	5782                	c.lwsp	a5,32(sp)
    5614:	0667fd5b          	bbc	a5,6,568e <__printf_impl+0x344>
    5618:	00044703          	lbu	a4,0(s0)
    561c:	00440493          	addi	s1,s0,4
    5620:	4781                	c.li	a5,0
    5622:	a859                	c.j	56b8 <__printf_impl+0x36e>
    5624:	401c                	c.lw	a5,0(s0)
    5626:	00440493          	addi	s1,s0,4
    562a:	4b81                	c.li	s7,0
    562c:	02510413          	addi	s0,sp,37
    5630:	02f10223          	sb	a5,36(sp)
    5634:	02410a93          	addi	s5,sp,36
    5638:	bfad                	c.j	55b2 <__printf_impl+0x268>
    563a:	0076f75b          	bbc	a3,7,5648 <__printf_impl+0x2fe>
    563e:	00440493          	addi	s1,s0,4
    5642:	00041703          	lh	a4,0(s0)
    5646:	b705                	c.j	5566 <__printf_impl+0x21c>
    5648:	0086f65b          	bbc	a3,8,5654 <__printf_impl+0x30a>
    564c:	00440493          	addi	s1,s0,4
    5650:	4018                	c.lw	a4,0(s0)
    5652:	bf11                	c.j	5566 <__printf_impl+0x21c>
    5654:	be96fc5b          	bbc	a3,9,564c <__printf_impl+0x302>
    5658:	041d                	c.addi	s0,7
    565a:	9861                	c.andi	s0,-8
    565c:	405c                	c.lw	a5,4(s0)
    565e:	00840493          	addi	s1,s0,8
    5662:	4018                	c.lw	a4,0(s0)
    5664:	0007c963          	bltz	a5,5676 <__printf_impl+0x32c>
    5668:	56fd                	c.li	a3,-1
    566a:	45a9                	c.li	a1,10
    566c:	4b81                	c.li	s7,0
    566e:	04dc9a63          	bne	s9,a3,56c2 <__printf_impl+0x378>
    5672:	4605                	c.li	a2,1
    5674:	a0b5                	c.j	56e0 <__printf_impl+0x396>
    5676:	ee071ce3          	bnez	a4,556e <__printf_impl+0x224>
    567a:	800005b7          	lui	a1,0x80000
    567e:	eeb798e3          	bne	a5,a1,556e <__printf_impl+0x224>
    5682:	4701                	c.li	a4,0
    5684:	800007b7          	lui	a5,0x80000
    5688:	bdd5                	c.j	557c <__printf_impl+0x232>
    568a:	45a9                	c.li	a1,10
    568c:	b759                	c.j	5612 <__printf_impl+0x2c8>
    568e:	0077f75b          	bbc	a5,7,569c <__printf_impl+0x352>
    5692:	00440493          	addi	s1,s0,4
    5696:	00045703          	lhu	a4,0(s0)
    569a:	b759                	c.j	5620 <__printf_impl+0x2d6>
    569c:	0087f65b          	bbc	a5,8,56a8 <__printf_impl+0x35e>
    56a0:	00440493          	addi	s1,s0,4
    56a4:	4018                	c.lw	a4,0(s0)
    56a6:	bfad                	c.j	5620 <__printf_impl+0x2d6>
    56a8:	be97fc5b          	bbc	a5,9,56a0 <__printf_impl+0x356>
    56ac:	041d                	c.addi	s0,7
    56ae:	9861                	c.andi	s0,-8
    56b0:	4018                	c.lw	a4,0(s0)
    56b2:	405c                	c.lw	a5,4(s0)
    56b4:	00840493          	addi	s1,s0,8
    56b8:	56fd                	c.li	a3,-1
    56ba:	02057b93          	andi	s7,a0,32
    56be:	02dc8863          	beq	s9,a3,56ee <__printf_impl+0x3a4>
    56c2:	5682                	c.lwsp	a3,32(sp)
    56c4:	fdf6f693          	andi	a3,a3,-33
    56c8:	d036                	c.swsp	a3,32(sp)
    56ca:	0105eb5b          	bnec	a1,16,56e0 <__printf_impl+0x396>
    56ce:	5682                	c.lwsp	a3,32(sp)
    56d0:	0046f85b          	bbc	a3,4,56e0 <__printf_impl+0x396>
    56d4:	00f76533          	or	a0,a4,a5
    56d8:	c501                	c.beqz	a0,56e0 <__printf_impl+0x396>
    56da:	0166e6b3          	or	a3,a3,s6
    56de:	d036                	c.swsp	a3,32(sp)
    56e0:	86b2                	c.mv	a3,a2
    56e2:	5602                	c.lwsp	a2,32(sp)
    56e4:	1048                	c.addi4spn	a0,sp,36
    56e6:	c1dff0ef          	jal	ra,5302 <__print_integral>
    56ea:	842a                	c.mv	s0,a0
    56ec:	b7a1                	c.j	5634 <__printf_impl+0x2ea>
    56ee:	4605                	c.li	a2,1
    56f0:	bfe9                	c.j	56ca <__printf_impl+0x380>
    56f2:	45a2                	c.lwsp	a1,8(sp)
    56f4:	5682                	c.lwsp	a3,32(sp)
    56f6:	00440493          	addi	s1,s0,4
    56fa:	264c27ab          	lwgp	a5,25188 # 86a64 <__printf_count>
    56fe:	4018                	c.lw	a4,0(s0)
    5700:	0066f85b          	bbc	a3,6,5710 <__printf_impl+0x3c6>
    5704:	00f70023          	sb	a5,0(a4)
    5708:	1040                	c.addi4spn	s0,sp,36
    570a:	4b81                	c.li	s7,0
    570c:	8aa2                	c.mv	s5,s0
    570e:	b555                	c.j	55b2 <__printf_impl+0x268>
    5710:	0076f55b          	bbc	a3,7,571a <__printf_impl+0x3d0>
    5714:	00f71023          	sh	a5,0(a4)
    5718:	bfc5                	c.j	5708 <__printf_impl+0x3be>
    571a:	c31c                	c.sw	a5,0(a4)
    571c:	fe86f65b          	bbs	a3,8,5708 <__printf_impl+0x3be>
    5720:	be96f45b          	bbc	a3,9,5708 <__printf_impl+0x3be>
    5724:	87fd                	c.srai	a5,0x1f
    5726:	c35c                	c.sw	a5,4(a4)
    5728:	b7c5                	c.j	5708 <__printf_impl+0x3be>
    572a:	000dc503          	lbu	a0,0(s11)
    572e:	0d85                	c.addi	s11,1
    5730:	01756533          	or	a0,a0,s7
    5734:	9982                	c.jalr	s3
    5736:	41bc0d33          	sub	s10,s8,s11
    573a:	ff9de8e3          	bltu	s11,s9,572a <__printf_impl+0x3e0>
    573e:	8c56                	c.mv	s8,s5
    5740:	01841e63          	bne	s0,s8,575c <__printf_impl+0x412>
    5744:	41540433          	sub	s0,s0,s5
    5748:	408d0433          	sub	s0,s10,s0
    574c:	00804f63          	bgtz	s0,576a <__printf_impl+0x420>
    5750:	0905                	c.addi	s2,1
    5752:	8426                	c.mv	s0,s1
    5754:	b911                	c.j	5368 <__printf_impl+0x1e>
    5756:	8dd2                	c.mv	s11,s4
    5758:	9c52                	c.add	s8,s4
    575a:	bff1                	c.j	5736 <__printf_impl+0x3ec>
    575c:	000c4503          	lbu	a0,0(s8)
    5760:	0c05                	c.addi	s8,1
    5762:	01756533          	or	a0,a0,s7
    5766:	9982                	c.jalr	s3
    5768:	bfe1                	c.j	5740 <__printf_impl+0x3f6>
    576a:	02000513          	li	a0,32
    576e:	9982                	c.jalr	s3
    5770:	147d                	c.addi	s0,-1
    5772:	bfe9                	c.j	574c <__printf_impl+0x402>
    5774:	02000513          	li	a0,32
    5778:	9982                	c.jalr	s3
    577a:	1d7d                	c.addi	s10,-1
    577c:	b569                	c.j	5606 <__printf_impl+0x2bc>
    577e:	000d4503          	lbu	a0,0(s10)
    5782:	0d05                	c.addi	s10,1
    5784:	01756533          	or	a0,a0,s7
    5788:	9982                	c.jalr	s3
    578a:	41ac07b3          	sub	a5,s8,s10
    578e:	ff9d68e3          	bltu	s10,s9,577e <__printf_impl+0x434>
    5792:	5682                	c.lwsp	a3,32(sp)
    5794:	0056f65b          	bbc	a3,5,57a0 <__printf_impl+0x456>
    5798:	41b78db3          	sub	s11,a5,s11
    579c:	01b04b63          	bgtz	s11,57b2 <__printf_impl+0x468>
    57a0:	fb5408e3          	beq	s0,s5,5750 <__printf_impl+0x406>
    57a4:	000ac503          	lbu	a0,0(s5)
    57a8:	0a85                	c.addi	s5,1
    57aa:	01756533          	or	a0,a0,s7
    57ae:	9982                	c.jalr	s3
    57b0:	bfc5                	c.j	57a0 <__printf_impl+0x456>
    57b2:	03000513          	li	a0,48
    57b6:	9982                	c.jalr	s3
    57b8:	1dfd                	c.addi	s11,-1
    57ba:	b7cd                	c.j	579c <__printf_impl+0x452>

000057bc <__int_to_poly>:
    57bc:	872a                	c.mv	a4,a0
    57be:	87ae                	c.mv	a5,a1
    57c0:	4501                	c.li	a0,0
    57c2:	00f766b3          	or	a3,a4,a5
    57c6:	e291                	c.bnez	a3,57ca <__int_to_poly+0xe>
    57c8:	8082                	c.jr	ra
    57ca:	00e61023          	sh	a4,0(a2)
    57ce:	0505                	c.addi	a0,1
    57d0:	df07077f          	wexti	a4,a4,16
    57d4:	0609                	c.addi	a2,2
    57d6:	83c1                	c.srli	a5,0x10
    57d8:	b7ed                	c.j	57c2 <__int_to_poly+0x6>

000057da <__print_integral_poly>:
    57da:	5e2002ef          	jal	t0,5dbc <__riscv_save_0>
    57de:	88c2                	c.mv	a7,a6
    57e0:	84ba                	c.mv	s1,a4
    57e2:	187d                	c.addi	a6,-1
    57e4:	0b17875b          	lea.h	a4,a5,a7
    57e8:	8342                	c.mv	t1,a6
    57ea:	4401                	c.li	s0,0
    57ec:	8e3a                	c.mv	t3,a4
    57ee:	1779                	c.addi	a4,-2
    57f0:	02035463          	bgez	t1,5818 <__print_integral_poly+0x3e>
    57f4:	05105063          	blez	a7,5834 <__print_integral_poly+0x5a>
    57f8:	ffee5703          	lhu	a4,-2(t3)
    57fc:	eb15                	c.bnez	a4,5830 <__print_integral_poly+0x56>
    57fe:	03005b63          	blez	a6,5834 <__print_integral_poly+0x5a>
    5802:	8726                	c.mv	a4,s1
    5804:	16fd                	c.addi	a3,-1
    5806:	3fd1                	c.jal	57da <__print_integral_poly>
    5808:	87aa                	c.mv	a5,a0
    580a:	0505                	c.addi	a0,1
    580c:	00878023          	sb	s0,0(a5) # 80000000 <_DATA_LMA_START+0x5fff9fc8>
    5810:	409c                	c.lw	a5,0(s1)
    5812:	0785                	c.addi	a5,1
    5814:	c09c                	c.sw	a5,0(s1)
    5816:	a3e9                	c.j	5de0 <__riscv_restore_0>
    5818:	00075e83          	lhu	t4,0(a4)
    581c:	0442                	c.slli	s0,0x10
    581e:	9476                	c.add	s0,t4
    5820:	02b45eb3          	divu	t4,s0,a1
    5824:	137d                	c.addi	t1,-1
    5826:	02b47433          	remu	s0,s0,a1
    582a:	01d71023          	sh	t4,0(a4)
    582e:	b7c1                	c.j	57ee <__print_integral_poly+0x14>
    5830:	8846                	c.mv	a6,a7
    5832:	bfc1                	c.j	5802 <__print_integral_poly+0x28>
    5834:	c011                	c.beqz	s0,5838 <__print_integral_poly+0x5e>
    5836:	16fd                	c.addi	a3,-1
    5838:	00d04763          	bgtz	a3,5846 <__print_integral_poly+0x6c>
    583c:	0085ee5b          	bnec	a1,8,5858 <__print_integral_poly+0x7e>
    5840:	00467c5b          	bbc	a2,4,5858 <__print_integral_poly+0x7e>
    5844:	4685                	c.li	a3,1
    5846:	87aa                	c.mv	a5,a0
    5848:	40a78733          	sub	a4,a5,a0
    584c:	00d74b63          	blt	a4,a3,5862 <__print_integral_poly+0x88>
    5850:	4781                	c.li	a5,0
    5852:	f2f686ff          	maxw	a3,a3,a5
    5856:	9536                	c.add	a0,a3
    5858:	dc45                	c.beqz	s0,5810 <__print_integral_poly+0x36>
    585a:	00850023          	sb	s0,0(a0)
    585e:	0505                	c.addi	a0,1
    5860:	bf45                	c.j	5810 <__print_integral_poly+0x36>
    5862:	0785                	c.addi	a5,1
    5864:	fe078fa3          	sb	zero,-1(a5)
    5868:	b7c5                	c.j	5848 <__print_integral_poly+0x6e>

0000586a <__printf_float_impl>:
    586a:	522002ef          	jal	t0,5d8c <__riscv_save_12>
    586e:	0df7fc13          	andi	s8,a5,223
    5872:	8b2a                	c.mv	s6,a0
    5874:	892e                	c.mv	s2,a1
    5876:	7169                	c.addi16sp	sp,-304
    5878:	84b2                	c.mv	s1,a2
    587a:	8536                	c.mv	a0,a3
    587c:	85ba                	c.mv	a1,a4
    587e:	8a3e                	c.mv	s4,a5
    5880:	467c6c5b          	bnec	s8,71,58f8 <__printf_float_impl+0x8e>
    5884:	00092983          	lw	s3,0(s2)
    5888:	0109c993          	xori	s3,s3,16
    588c:	1049a9db          	bfoz	s3,s3,4,4
    5890:	0604da63          	bgez	s1,5904 <__printf_float_impl+0x9a>
    5894:	4499                	c.li	s1,6
    5896:	401c635b          	bnec	s8,65,589c <__printf_float_impl+0x32>
    589a:	44b5                	c.li	s1,13
    589c:	dff5047f          	wexti	s0,a0,31
    58a0:	8055                	c.srli	s0,0x15
    58a2:	8aaa                	c.mv	s5,a0
    58a4:	4c05ad5b          	bfoz	s10,a1,19,0
    58a8:	0005d863          	bgez	a1,58b8 <__printf_float_impl+0x4e>
    58ac:	00092783          	lw	a5,0(s2)
    58b0:	4007e793          	ori	a5,a5,1024
    58b4:	00f92023          	sw	a5,0(s2)
    58b8:	401c6a5b          	bnec	s8,65,58cc <__printf_float_impl+0x62>
    58bc:	00092783          	lw	a5,0(s2)
    58c0:	6705                	c.lui	a4,0x1
    58c2:	80070713          	addi	a4,a4,-2048 # 800 <analog_read_reg8+0x2c>
    58c6:	8fd9                	c.or	a5,a4
    58c8:	00f92023          	sw	a5,0(s2)
    58cc:	7ff00793          	li	a5,2047
    58d0:	04f41563          	bne	s0,a5,591a <__printf_float_impl+0xb0>
    58d4:	00092783          	lw	a5,0(s2)
    58d8:	00ad66b3          	or	a3,s10,a0
    58dc:	fdf7f793          	andi	a5,a5,-33
    58e0:	00f92023          	sw	a5,0(s2)
    58e4:	c695                	c.beqz	a3,5910 <__printf_float_impl+0xa6>
    58e6:	000875b7          	lui	a1,0x87
    58ea:	a1858593          	addi	a1,a1,-1512 # 86a18 <__digits+0x10>
    58ee:	855a                	c.mv	a0,s6
    58f0:	2eb5                	c.jal	5c6c <strcpy>
    58f2:	050d                	c.addi	a0,3
    58f4:	6155                	c.addi16sp	sp,304
    58f6:	a9c9                	c.j	5dc8 <__riscv_restore_12>
    58f8:	4981                	c.li	s3,0
    58fa:	f81c6b5b          	bnec	s8,65,5890 <__printf_float_impl+0x26>
    58fe:	01f65993          	srli	s3,a2,0x1f
    5902:	b779                	c.j	5890 <__printf_float_impl+0x26>
    5904:	fcc1                	c.bnez	s1,589c <__printf_float_impl+0x32>
    5906:	fb9c0493          	addi	s1,s8,-71
    590a:	0014b493          	seqz	s1,s1
    590e:	b779                	c.j	589c <__printf_float_impl+0x32>
    5910:	000875b7          	lui	a1,0x87
    5914:	a1c58593          	addi	a1,a1,-1508 # 86a1c <__digits+0x14>
    5918:	bfd9                	c.j	58ee <__printf_float_impl+0x84>
    591a:	e811                	c.bnez	s0,592e <__printf_float_impl+0xc4>
    591c:	00ad66b3          	or	a3,s10,a0
    5920:	c0300413          	li	s0,-1021
    5924:	18069363          	bnez	a3,5aaa <__printf_float_impl+0x240>
    5928:	03500413          	li	s0,53
    592c:	a829                	c.j	5946 <__printf_float_impl+0xdc>
    592e:	00100db7          	lui	s11,0x100
    5932:	01adedb3          	or	s11,s11,s10
    5936:	c0240413          	addi	s0,s0,-1022
    593a:	03400793          	li	a5,52
    593e:	8aaa                	c.mv	s5,a0
    5940:	8d6e                	c.mv	s10,s11
    5942:	1687d263          	bge	a5,s0,5aa6 <__printf_float_impl+0x23c>
    5946:	fcb40413          	addi	s0,s0,-53
    594a:	00445b93          	srli	s7,s0,0x4
    594e:	001b9c93          	slli	s9,s7,0x1
    5952:	8666                	c.mv	a2,s9
    5954:	4581                	c.li	a1,0
    5956:	1008                	c.addi4spn	a0,sp,32
    5958:	e88ff0ef          	jal	ra,4fe0 <memset>
    595c:	883d                	c.andi	s0,15
    595e:	1a0c                	c.addi4spn	a1,sp,304
    5960:	9cae                	c.add	s9,a1
    5962:	8622                	c.mv	a2,s0
    5964:	8556                	c.mv	a0,s5
    5966:	85ea                	c.mv	a1,s10
    5968:	2ed5                	c.jal	5d5c <__ashldi3>
    596a:	4641                	c.li	a2,16
    596c:	eeac9823          	sh	a0,-272(s9)
    5970:	1014                	c.addi4spn	a3,sp,32
    5972:	0b85                	c.addi	s7,1
    5974:	8e01                	c.sub	a2,s0
    5976:	8556                	c.mv	a0,s5
    5978:	85ea                	c.mv	a1,s10
    597a:	0b768cdb          	lea.h	s9,a3,s7
    597e:	267d                	c.jal	5d2c <__lshrdi3>
    5980:	8666                	c.mv	a2,s9
    5982:	3d2d                	c.jal	57bc <__int_to_poly>
    5984:	4c81                	c.li	s9,0
    5986:	9baa                	c.add	s7,a0
    5988:	57fd                	c.li	a5,-1
    598a:	ce3e                	c.swsp	a5,28(sp)
    598c:	4429                	c.li	s0,10
    598e:	401c635b          	bnec	s8,65,5994 <__printf_float_impl+0x12a>
    5992:	4441                	c.li	s0,16
    5994:	885e                	c.mv	a6,s7
    5996:	101c                	c.addi4spn	a5,sp,32
    5998:	4685                	c.li	a3,1
    599a:	0878                	c.addi4spn	a4,sp,28
    599c:	4601                	c.li	a2,0
    599e:	85a2                	c.mv	a1,s0
    59a0:	855a                	c.mv	a0,s6
    59a2:	3d25                	c.jal	57da <__print_integral_poly>
    59a4:	02e00793          	li	a5,46
    59a8:	00f50023          	sb	a5,0(a0)
    59ac:	001bbb93          	seqz	s7,s7
    59b0:	0dba7a13          	andi	s4,s4,219
    59b4:	00150693          	addi	a3,a0,1
    59b8:	87de                	c.mv	a5,s7
    59ba:	401a535b          	beqc	s4,65,59c0 <__printf_float_impl+0x156>
    59be:	4781                	c.li	a5,0
    59c0:	00148713          	addi	a4,s1,1
    59c4:	973e                	c.add	a4,a5
    59c6:	fffc8893          	addi	a7,s9,-1
    59ca:	001c9613          	slli	a2,s9,0x1
    59ce:	112c                	c.addi4spn	a1,sp,168
    59d0:	95b2                	c.add	a1,a2
    59d2:	8846                	c.mv	a6,a7
    59d4:	4781                	c.li	a5,0
    59d6:	15f9                	c.addi	a1,-2
    59d8:	16085e63          	bgez	a6,5b54 <__printf_float_impl+0x2ea>
    59dc:	01905863          	blez	s9,59ec <__printf_float_impl+0x182>
    59e0:	1a0c                	c.addi4spn	a1,sp,304
    59e2:	962e                	c.add	a2,a1
    59e4:	f7665603          	lhu	a2,-138(a2)
    59e8:	e211                	c.bnez	a2,59ec <__printf_float_impl+0x182>
    59ea:	8cc6                	c.mv	s9,a7
    59ec:	160b8d63          	beqz	s7,5b66 <__printf_float_impl+0x2fc>
    59f0:	4672                	c.lwsp	a2,28(sp)
    59f2:	0017bb93          	seqz	s7,a5
    59f6:	167d                	c.addi	a2,-1
    59f8:	ce32                	c.swsp	a2,28(sp)
    59fa:	0685                	c.addi	a3,1
    59fc:	fef68fa3          	sb	a5,-1(a3)
    5a00:	f379                	c.bnez	a4,59c6 <__printf_float_impl+0x15c>
    5a02:	567c655b          	bnec	s8,71,5b6c <__printf_float_impl+0x302>
    5a06:	47f2                	c.lwsp	a5,28(sp)
    5a08:	fff48713          	addi	a4,s1,-1
    5a0c:	1897d263          	bge	a5,s1,5b90 <__printf_float_impl+0x326>
    5a10:	5671                	c.li	a2,-4
    5a12:	16c7cf63          	blt	a5,a2,5b90 <__printf_float_impl+0x326>
    5a16:	40f704b3          	sub	s1,a4,a5
    5a1a:	04600c13          	li	s8,70
    5a1e:	0489                	c.addi	s1,2
    5a20:	9526                	c.add	a0,s1
    5a22:	fff54683          	lbu	a3,-1(a0)
    5a26:	40145713          	srai	a4,s0,0x1
    5a2a:	fff50793          	addi	a5,a0,-1
    5a2e:	00e6a6b3          	slt	a3,a3,a4
    5a32:	0016c693          	xori	a3,a3,1
    5a36:	863e                	c.mv	a2,a5
    5a38:	1acb7763          	bgeu	s6,a2,5be6 <__printf_float_impl+0x37c>
    5a3c:	18069363          	bnez	a3,5bc2 <__printf_float_impl+0x358>
    5a40:	17fd                	c.addi	a5,-1
    5a42:	00178513          	addi	a0,a5,1
    5a46:	00fb7763          	bgeu	s6,a5,5a54 <__printf_float_impl+0x1ea>
    5a4a:	00098563          	beqz	s3,5a54 <__printf_float_impl+0x1ea>
    5a4e:	0007c703          	lbu	a4,0(a5)
    5a52:	d77d                	c.beqz	a4,5a40 <__printf_float_impl+0x1d6>
    5a54:	fff54783          	lbu	a5,-1(a0)
    5a58:	00e7e7db          	bnec	a5,46,5a66 <__printf_float_impl+0x1fc>
    5a5c:	00092783          	lw	a5,0(s2)
    5a60:	4047f35b          	bbs	a5,4,5a66 <__printf_float_impl+0x1fc>
    5a64:	157d                	c.addi	a0,-1
    5a66:	46bd                	c.li	a3,15
    5a68:	208c170b          	addigp	a4,25096 # 86a08 <__digits>
    5a6c:	1aab6b63          	bltu	s6,a0,5c22 <__printf_float_impl+0x3b8>
    5a70:	5c5c645b          	bnec	s8,69,5c38 <__printf_float_impl+0x3ce>
    5a74:	01850023          	sb	s8,0(a0)
    5a78:	4772                	c.lwsp	a4,28(sp)
    5a7a:	02d00793          	li	a5,45
    5a7e:	00074463          	bltz	a4,5a86 <__printf_float_impl+0x21c>
    5a82:	02b00793          	li	a5,43
    5a86:	00f500a3          	sb	a5,1(a0)
    5a8a:	47f2                	c.lwsp	a5,28(sp)
    5a8c:	4689                	c.li	a3,2
    5a8e:	40f00733          	neg	a4,a5
    5a92:	f2f7077f          	maxw	a4,a4,a5
    5a96:	41f75793          	srai	a5,a4,0x1f
    5a9a:	4601                	c.li	a2,0
    5a9c:	45a9                	c.li	a1,10
    5a9e:	0509                	c.addi	a0,2
    5aa0:	863ff0ef          	jal	ra,5302 <__print_integral>
    5aa4:	bd81                	c.j	58f4 <__printf_float_impl+0x8a>
    5aa6:	06804363          	bgtz	s0,5b0c <__printf_float_impl+0x2a2>
    5aaa:	40800433          	neg	s0,s0
    5aae:	00445b93          	srli	s7,s0,0x4
    5ab2:	001b9d93          	slli	s11,s7,0x1
    5ab6:	866e                	c.mv	a2,s11
    5ab8:	4581                	c.li	a1,0
    5aba:	1128                	c.addi4spn	a0,sp,168
    5abc:	d24ff0ef          	jal	ra,4fe0 <memset>
    5ac0:	112c                	c.addi4spn	a1,sp,168
    5ac2:	883d                	c.andi	s0,15
    5ac4:	9dae                	c.add	s11,a1
    5ac6:	02540413          	addi	s0,s0,37
    5aca:	876e                	c.mv	a4,s11
    5acc:	4c81                	c.li	s9,0
    5ace:	001c8793          	addi	a5,s9,1
    5ad2:	8622                	c.mv	a2,s0
    5ad4:	8556                	c.mv	a0,s5
    5ad6:	85ea                	c.mv	a1,s10
    5ad8:	c63a                	c.swsp	a4,12(sp)
    5ada:	c43e                	c.swsp	a5,8(sp)
    5adc:	2c81                	c.jal	5d2c <__lshrdi3>
    5ade:	4732                	c.lwsp	a4,12(sp)
    5ae0:	1441                	c.addi	s0,-16
    5ae2:	00a71023          	sh	a0,0(a4)
    5ae6:	47a2                	c.lwsp	a5,8(sp)
    5ae8:	0709                	c.addi	a4,2
    5aea:	00045f63          	bgez	s0,5b08 <__printf_float_impl+0x29e>
    5aee:	0afd8ddb          	lea.h	s11,s11,a5
    5af2:	40800633          	neg	a2,s0
    5af6:	8556                	c.mv	a0,s5
    5af8:	85ea                	c.mv	a1,s10
    5afa:	0c89                	c.addi	s9,2
    5afc:	2485                	c.jal	5d5c <__ashldi3>
    5afe:	9cde                	c.add	s9,s7
    5b00:	00ad9023          	sh	a0,0(s11) # 100000 <FLASH_SIZE>
    5b04:	4b81                	c.li	s7,0
    5b06:	b549                	c.j	5988 <__printf_float_impl+0x11e>
    5b08:	8cbe                	c.mv	s9,a5
    5b0a:	b7d1                	c.j	5ace <__printf_float_impl+0x264>
    5b0c:	03500613          	li	a2,53
    5b10:	8e01                	c.sub	a2,s0
    5b12:	85ee                	c.mv	a1,s11
    5b14:	2c21                	c.jal	5d2c <__lshrdi3>
    5b16:	1010                	c.addi4spn	a2,sp,32
    5b18:	ca5ff0ef          	jal	ra,57bc <__int_to_poly>
    5b1c:	02500793          	li	a5,37
    5b20:	8baa                	c.mv	s7,a0
    5b22:	40878433          	sub	s0,a5,s0
    5b26:	0a810d13          	addi	s10,sp,168
    5b2a:	4c81                	c.li	s9,0
    5b2c:	0c85                	c.addi	s9,1
    5b2e:	00045a63          	bgez	s0,5b42 <__printf_float_impl+0x2d8>
    5b32:	40800633          	neg	a2,s0
    5b36:	8556                	c.mv	a0,s5
    5b38:	85ee                	c.mv	a1,s11
    5b3a:	240d                	c.jal	5d5c <__ashldi3>
    5b3c:	00ad1023          	sh	a0,0(s10)
    5b40:	b5a1                	c.j	5988 <__printf_float_impl+0x11e>
    5b42:	8622                	c.mv	a2,s0
    5b44:	8556                	c.mv	a0,s5
    5b46:	85ee                	c.mv	a1,s11
    5b48:	22d5                	c.jal	5d2c <__lshrdi3>
    5b4a:	1441                	c.addi	s0,-16
    5b4c:	00ad1023          	sh	a0,0(s10)
    5b50:	0d09                	c.addi	s10,2
    5b52:	bfe9                	c.j	5b2c <__printf_float_impl+0x2c2>
    5b54:	0005d303          	lhu	t1,0(a1)
    5b58:	187d                	c.addi	a6,-1
    5b5a:	c48317ff          	maddr32	a5,t1,s0
    5b5e:	00f59023          	sh	a5,0(a1)
    5b62:	83c1                	c.srli	a5,0x10
    5b64:	bd8d                	c.j	59d6 <__printf_float_impl+0x16c>
    5b66:	177d                	c.addi	a4,-1
    5b68:	4b81                	c.li	s7,0
    5b6a:	bd41                	c.j	59fa <__printf_float_impl+0x190>
    5b6c:	8726                	c.mv	a4,s1
    5b6e:	ea6c585b          	beqc	s8,70,5a1e <__printf_float_impl+0x1b4>
    5b72:	47f2                	c.lwsp	a5,28(sp)
    5b74:	001b0613          	addi	a2,s6,1
    5b78:	02f04463          	bgtz	a5,5ba0 <__printf_float_impl+0x336>
    5b7c:	c785                	c.beqz	a5,5ba4 <__printf_float_impl+0x33a>
    5b7e:	40f507b3          	sub	a5,a0,a5
    5b82:	02d7e963          	bltu	a5,a3,5bb4 <__printf_float_impl+0x34a>
    5b86:	001b0783          	lb	a5,1(s6)
    5b8a:	00fb0023          	sb	a5,0(s6)
    5b8e:	a819                	c.j	5ba4 <__printf_float_impl+0x33a>
    5b90:	04500c13          	li	s8,69
    5b94:	bff9                	c.j	5b72 <__printf_float_impl+0x308>
    5b96:	fff50783          	lb	a5,-1(a0)
    5b9a:	157d                	c.addi	a0,-1
    5b9c:	00f500a3          	sb	a5,1(a0)
    5ba0:	fec51be3          	bne	a0,a2,5b96 <__printf_float_impl+0x32c>
    5ba4:	02e00793          	li	a5,46
    5ba8:	001b0513          	addi	a0,s6,1
    5bac:	00fb00a3          	sb	a5,1(s6)
    5bb0:	84ba                	c.mv	s1,a4
    5bb2:	b5b5                	c.j	5a1e <__printf_float_impl+0x1b4>
    5bb4:	0785                	c.addi	a5,1
    5bb6:	fff7c603          	lbu	a2,-1(a5)
    5bba:	0505                	c.addi	a0,1
    5bbc:	fec50fa3          	sb	a2,-1(a0)
    5bc0:	b7c9                	c.j	5b82 <__printf_float_impl+0x318>
    5bc2:	167d                	c.addi	a2,-1
    5bc4:	00064703          	lbu	a4,0(a2)
    5bc8:	a6e758db          	beqc	a4,46,5a38 <__printf_float_impl+0x1ce>
    5bcc:	0705                	c.addi	a4,1
    5bce:	0ff77713          	andi	a4,a4,255
    5bd2:	00875663          	bge	a4,s0,5bde <__printf_float_impl+0x374>
    5bd6:	00e60023          	sb	a4,0(a2)
    5bda:	4681                	c.li	a3,0
    5bdc:	bdb1                	c.j	5a38 <__printf_float_impl+0x1ce>
    5bde:	8f01                	c.sub	a4,s0
    5be0:	00e60023          	sb	a4,0(a2)
    5be4:	bd91                	c.j	5a38 <__printf_float_impl+0x1ce>
    5be6:	873e                	c.mv	a4,a5
    5be8:	e4068ce3          	beqz	a3,5a40 <__printf_float_impl+0x1d6>
    5bec:	02eb6363          	bltu	s6,a4,5c12 <__printf_float_impl+0x3a8>
    5bf0:	4705                	c.li	a4,1
    5bf2:	00eb0023          	sb	a4,0(s6)
    5bf6:	4772                	c.lwsp	a4,28(sp)
    5bf8:	0705                	c.addi	a4,1
    5bfa:	ce3a                	c.swsp	a4,28(sp)
    5bfc:	426c515b          	beqc	s8,70,5c1e <__printf_float_impl+0x3b4>
    5c00:	001b0703          	lb	a4,1(s6)
    5c04:	00eb0123          	sb	a4,2(s6)
    5c08:	02e00713          	li	a4,46
    5c0c:	00eb00a3          	sb	a4,1(s6)
    5c10:	bd05                	c.j	5a40 <__printf_float_impl+0x1d6>
    5c12:	fff70683          	lb	a3,-1(a4)
    5c16:	177d                	c.addi	a4,-1
    5c18:	00d700a3          	sb	a3,1(a4)
    5c1c:	bfc1                	c.j	5bec <__printf_float_impl+0x382>
    5c1e:	87aa                	c.mv	a5,a0
    5c20:	b505                	c.j	5a40 <__printf_float_impl+0x1d6>
    5c22:	000b4783          	lbu	a5,0(s6)
    5c26:	00f6e763          	bltu	a3,a5,5c34 <__printf_float_impl+0x3ca>
    5c2a:	97ba                	c.add	a5,a4
    5c2c:	00078783          	lb	a5,0(a5)
    5c30:	00fb0023          	sb	a5,0(s6)
    5c34:	0b05                	c.addi	s6,1
    5c36:	bd1d                	c.j	5a6c <__printf_float_impl+0x202>
    5c38:	ca1c6e5b          	bnec	s8,65,58f4 <__printf_float_impl+0x8a>
    5c3c:	05000793          	li	a5,80
    5c40:	00f50023          	sb	a5,0(a0)
    5c44:	4772                	c.lwsp	a4,28(sp)
    5c46:	02d00793          	li	a5,45
    5c4a:	00074463          	bltz	a4,5c52 <__printf_float_impl+0x3e8>
    5c4e:	02b00793          	li	a5,43
    5c52:	00f500a3          	sb	a5,1(a0)
    5c56:	47f2                	c.lwsp	a5,28(sp)
    5c58:	4685                	c.li	a3,1
    5c5a:	40f00733          	neg	a4,a5
    5c5e:	f2f7077f          	maxw	a4,a4,a5
    5c62:	070a                	c.slli	a4,0x2
    5c64:	41f75793          	srai	a5,a4,0x1f
    5c68:	bd0d                	c.j	5a9a <__printf_float_impl+0x230>
	...

00005c6c <strcpy>:
    5c6c:	00b567b3          	or	a5,a0,a1
    5c70:	8b8d                	c.andi	a5,3
    5c72:	e3ad                	c.bnez	a5,5cd4 <strcpy+0x68>
    5c74:	4198                	c.lw	a4,0(a1)
    5c76:	200707db          	ffb	a5,a4,zero
    5c7a:	e3a9                	c.bnez	a5,5cbc <strcpy+0x50>
    5c7c:	00a007b3          	add	a5,zero,a0
    5c80:	0591                	c.addi	a1,4
    5c82:	0791                	c.addi	a5,4
    5c84:	fee7ae23          	sw	a4,-4(a5)
    5c88:	4198                	c.lw	a4,0(a1)
    5c8a:	200706db          	ffb	a3,a4,zero
    5c8e:	daed                	c.beqz	a3,5c80 <strcpy+0x14>
    5c90:	0005c703          	lbu	a4,0(a1)
    5c94:	0015c683          	lbu	a3,1(a1)
    5c98:	0025c603          	lbu	a2,2(a1)
    5c9c:	00e78023          	sb	a4,0(a5)
    5ca0:	00070863          	beqz	a4,5cb0 <strcpy+0x44>
    5ca4:	00d780a3          	sb	a3,1(a5)
    5ca8:	c681                	c.beqz	a3,5cb0 <strcpy+0x44>
    5caa:	00c78123          	sb	a2,2(a5)
    5cae:	e219                	c.bnez	a2,5cb4 <strcpy+0x48>
    5cb0:	00008067          	ret
    5cb4:	000781a3          	sb	zero,3(a5)
    5cb8:	00008067          	ret
    5cbc:	0005c703          	lbu	a4,0(a1)
    5cc0:	87aa                	c.mv	a5,a0
    5cc2:	0015c683          	lbu	a3,1(a1)
    5cc6:	0025c603          	lbu	a2,2(a1)
    5cca:	00e78023          	sb	a4,0(a5)
    5cce:	fb79                	c.bnez	a4,5ca4 <strcpy+0x38>
    5cd0:	fe1ff06f          	j	5cb0 <strcpy+0x44>
    5cd4:	00a007b3          	add	a5,zero,a0
    5cd8:	0005c703          	lbu	a4,0(a1)
    5cdc:	0785                	c.addi	a5,1
    5cde:	fee78fa3          	sb	a4,-1(a5)
    5ce2:	0585                	c.addi	a1,1
    5ce4:	fb75                	c.bnez	a4,5cd8 <strcpy+0x6c>
    5ce6:	8082                	c.jr	ra
    5ce8:	0001                	c.nop

00005cea <strnlen>:
    5cea:	95aa                	c.add	a1,a0
    5cec:	87aa                	c.mv	a5,a0
    5cee:	00b78563          	beq	a5,a1,5cf8 <strnlen+0xe>
    5cf2:	0007c703          	lbu	a4,0(a5)
    5cf6:	e701                	c.bnez	a4,5cfe <strnlen+0x14>
    5cf8:	40a78533          	sub	a0,a5,a0
    5cfc:	8082                	c.jr	ra
    5cfe:	0785                	c.addi	a5,1
    5d00:	b7fd                	c.j	5cee <strnlen+0x4>

00005d02 <_sbrk>:
    5d02:	268c272b          	lwgp	a4,25192 # 86a68 <heap_end.2408>
    5d06:	268c178b          	addigp	a5,25192 # 86a68 <heap_end.2408>
    5d0a:	e701                	c.bnez	a4,5d12 <_sbrk+0x10>
    5d0c:	298c170b          	addigp	a4,25240 # 86a98 <_end>
    5d10:	c398                	c.sw	a4,0(a5)
    5d12:	4398                	c.lw	a4,0(a5)
    5d14:	953a                	c.add	a0,a4
    5d16:	00a17763          	bgeu	sp,a0,5d24 <_sbrk+0x22>
    5d1a:	4731                	c.li	a4,12
    5d1c:	26ec402b          	swgp	a4,25184 # 86a60 <__mculib_REENT_errno>
    5d20:	557d                	c.li	a0,-1
    5d22:	8082                	c.jr	ra
    5d24:	c388                	c.sw	a0,0(a5)
    5d26:	853a                	c.mv	a0,a4
    5d28:	8082                	c.jr	ra
	...

00005d2c <__lshrdi3>:
    5d2c:	ce11                	c.beqz	a2,5d48 <__lshrdi3+0x1c>
    5d2e:	02000793          	li	a5,32
    5d32:	8f91                	c.sub	a5,a2
    5d34:	00f05c63          	blez	a5,5d4c <__lshrdi3+0x20>
    5d38:	00c55533          	srl	a0,a0,a2
    5d3c:	00f597b3          	sll	a5,a1,a5
    5d40:	00c5d633          	srl	a2,a1,a2
    5d44:	8d5d                	c.or	a0,a5
    5d46:	85b2                	c.mv	a1,a2
    5d48:	00008067          	ret
    5d4c:	40f00533          	neg	a0,a5
    5d50:	4601                	c.li	a2,0
    5d52:	00a5d533          	srl	a0,a1,a0
    5d56:	85b2                	c.mv	a1,a2
    5d58:	bfc5                	c.j	5d48 <__lshrdi3+0x1c>
    5d5a:	0001                	c.nop

00005d5c <__ashldi3>:
    5d5c:	ce11                	c.beqz	a2,5d78 <__ashldi3+0x1c>
    5d5e:	02000793          	li	a5,32
    5d62:	8f91                	c.sub	a5,a2
    5d64:	00f05c63          	blez	a5,5d7c <__ashldi3+0x20>
    5d68:	00c595b3          	sll	a1,a1,a2
    5d6c:	00f557b3          	srl	a5,a0,a5
    5d70:	00c51633          	sll	a2,a0,a2
    5d74:	8ddd                	c.or	a1,a5
    5d76:	8532                	c.mv	a0,a2
    5d78:	00008067          	ret
    5d7c:	40f005b3          	neg	a1,a5
    5d80:	4601                	c.li	a2,0
    5d82:	00b515b3          	sll	a1,a0,a1
    5d86:	8532                	c.mv	a0,a2
    5d88:	bfc5                	c.j	5d78 <__ashldi3+0x1c>
    5d8a:	0001                	c.nop

00005d8c <__riscv_save_12>:
    5d8c:	7139                	c.addi16sp	sp,-64
    5d8e:	4301                	c.li	t1,0
    5d90:	c66e                	c.swsp	s11,12(sp)
    5d92:	a019                	c.j	5d98 <__riscv_save_10+0x4>

00005d94 <__riscv_save_10>:
    5d94:	7139                	c.addi16sp	sp,-64
    5d96:	5341                	c.li	t1,-16
    5d98:	c86a                	c.swsp	s10,16(sp)
    5d9a:	ca66                	c.swsp	s9,20(sp)
    5d9c:	cc62                	c.swsp	s8,24(sp)
    5d9e:	ce5e                	c.swsp	s7,28(sp)
    5da0:	a019                	c.j	5da6 <__riscv_save_4+0x4>

00005da2 <__riscv_save_4>:
    5da2:	7139                	c.addi16sp	sp,-64
    5da4:	5301                	c.li	t1,-32
    5da6:	d05a                	c.swsp	s6,32(sp)
    5da8:	d256                	c.swsp	s5,36(sp)
    5daa:	d452                	c.swsp	s4,40(sp)
    5dac:	d64e                	c.swsp	s3,44(sp)
    5dae:	d84a                	c.swsp	s2,48(sp)
    5db0:	da26                	c.swsp	s1,52(sp)
    5db2:	dc22                	c.swsp	s0,56(sp)
    5db4:	de06                	c.swsp	ra,60(sp)
    5db6:	40610133          	sub	sp,sp,t1
    5dba:	8282                	c.jr	t0

00005dbc <__riscv_save_0>:
    5dbc:	1141                	c.addi	sp,-16
    5dbe:	c04a                	c.swsp	s2,0(sp)
    5dc0:	c226                	c.swsp	s1,4(sp)
    5dc2:	c422                	c.swsp	s0,8(sp)
    5dc4:	c606                	c.swsp	ra,12(sp)
    5dc6:	8282                	c.jr	t0

00005dc8 <__riscv_restore_12>:
    5dc8:	4db2                	c.lwsp	s11,12(sp)
    5dca:	0141                	c.addi	sp,16

00005dcc <__riscv_restore_10>:
    5dcc:	4d02                	c.lwsp	s10,0(sp)
    5dce:	4c92                	c.lwsp	s9,4(sp)
    5dd0:	4c22                	c.lwsp	s8,8(sp)
    5dd2:	4bb2                	c.lwsp	s7,12(sp)
    5dd4:	0141                	c.addi	sp,16

00005dd6 <__riscv_restore_4>:
    5dd6:	4b02                	c.lwsp	s6,0(sp)
    5dd8:	4a92                	c.lwsp	s5,4(sp)
    5dda:	4a22                	c.lwsp	s4,8(sp)
    5ddc:	49b2                	c.lwsp	s3,12(sp)
    5dde:	0141                	c.addi	sp,16

00005de0 <__riscv_restore_0>:
    5de0:	4902                	c.lwsp	s2,0(sp)
    5de2:	4492                	c.lwsp	s1,4(sp)
    5de4:	4422                	c.lwsp	s0,8(sp)
    5de6:	40b2                	c.lwsp	ra,12(sp)
    5de8:	0141                	c.addi	sp,16
    5dea:	8082                	c.jr	ra
    5dec:	0010                	0x10
    5dee:	0000                	unimp
    5df0:	0000                	unimp
    5df2:	0000                	unimp
    5df4:	7a01                	c.lui	s4,0xfffe0
    5df6:	0052                	c.slli	zero,0x14
    5df8:	7c01                	c.lui	s8,0xfffe0
    5dfa:	0105                	c.addi	sp,1
    5dfc:	00020d1b          	sext.w	s10,tp
    5e00:	0048                	c.addi4spn	a0,sp,4
    5e02:	0000                	unimp
    5e04:	0018                	0x18
    5e06:	0000                	unimp
    5e08:	ff84                	c.fsw	fs1,56(a5)
    5e0a:	0030ffff          	0x30ffff
    5e0e:	0000                	unimp
    5e10:	4200                	c.lw	s0,0(a2)
    5e12:	400e                	0x400e
    5e14:	9b44                	exec.it	#876     !
    5e16:	420d                	c.li	tp,3
    5e18:	400e42db          	0x400e42db
    5e1c:	9a44                	exec.it	#364     !
    5e1e:	420c                	c.lw	a1,0(a2)
    5e20:	0b99                	c.addi	s7,6
    5e22:	9842                	c.add	a6,a6
    5e24:	420a                	c.lwsp	tp,128(sp)
    5e26:	d7420997          	auipc	s3,0xd7420
    5e2a:	d9d8                	c.sw	a4,52(a1)
    5e2c:	dbda                	c.swsp	s6,244(sp)
    5e2e:	0e42                	c.slli	t3,0x10
    5e30:	4440                	c.lw	s0,12(s0)
    5e32:	0896                	c.slli	a7,0x5
    5e34:	9542                	c.add	a0,a6
    5e36:	06944207          	flq	ft4,105(s0)
    5e3a:	9342                	c.add	t1,a6
    5e3c:	4205                	c.li	tp,1
    5e3e:	0492                	c.slli	s1,0x4
    5e40:	8942                	c.mv	s2,a6
    5e42:	02884203          	lbu	tp,40(a6) # 100028 <FLASH_SIZE+0x28>
    5e46:	8142                	c.mv	sp,a6
    5e48:	0001                	c.nop
    5e4a:	0000                	unimp
    5e4c:	001c                	0x1c
    5e4e:	0000                	unimp
    5e50:	0064                	c.addi4spn	s1,sp,12
    5e52:	0000                	unimp
    5e54:	ff68                	c.fsw	fa0,124(a4)
    5e56:	000cffff          	0xcffff
    5e5a:	0000                	unimp
    5e5c:	4200                	c.lw	s0,0(a2)
    5e5e:	100e                	c.slli	zero,0x23
    5e60:	8944                	exec.it	#556     !
    5e62:	4204                	c.lw	s1,0(a2)
    5e64:	0288                	c.addi4spn	a0,sp,320
    5e66:	8142                	c.mv	sp,a6
    5e68:	0001                	c.nop
    5e6a:	0000                	unimp
    5e6c:	002c                	c.addi4spn	a1,sp,8
    5e6e:	0000                	unimp
    5e70:	0000                	unimp
    5e72:	0000                	unimp
    5e74:	7a01                	c.lui	s4,0xfffe0
    5e76:	0052                	c.slli	zero,0x14
    5e78:	7c01                	c.lui	s8,0xfffe0
    5e7a:	0101                	c.addi	sp,0
    5e7c:	0e020d1b          	addiw	s10,tp,224
    5e80:	9b40                	exec.it	#868     !
    5e82:	9a0d                	c.andi	a2,-29
    5e84:	990c                	exec.it	#908     !
    5e86:	970a980b          	addigp	a6,-77456 # 6d970 <BIN_SIZE+0x60ee6>
    5e8a:	9609                	c.srai	a2,0x22
    5e8c:	9508                	exec.it	#898     !
    5e8e:	93069407          	flh	fs0,-1744(a3)
    5e92:	9205                	c.srli	a2,0x21
    5e94:	8904                	exec.it	#524     !
    5e96:	81028803          	lb	a6,-2032(t0) # 4880 <__muldf3+0x130>
    5e9a:	0001                	c.nop
    5e9c:	0044                	c.addi4spn	s1,sp,4
    5e9e:	0000                	unimp
    5ea0:	0034                	c.addi4spn	a3,sp,8
    5ea2:	0000                	unimp
    5ea4:	ff24                	c.fsw	fs1,120(a4)
    5ea6:	0024ffff          	0x24ffff
    5eaa:	0000                	unimp
    5eac:	4200                	c.lw	s0,0(a2)
    5eae:	0edb42db          	0xedb42db
    5eb2:	4230                	c.lw	a2,64(a2)
    5eb4:	42da                	c.lwsp	t0,148(sp)
    5eb6:	42d9                	c.li	t0,22
    5eb8:	42d8                	c.lw	a4,4(a3)
    5eba:	d8d742d7          	0xd8d742d7
    5ebe:	dad9                	c.beqz	a3,5e54 <__riscv_restore_0+0x74>
    5ec0:	42200edb          	0x42200edb
    5ec4:	42d6                	c.lwsp	t0,84(sp)
    5ec6:	42d5                	c.li	t0,21
    5ec8:	42d4                	c.lw	a3,4(a3)
    5eca:	d4d342d3          	0xd4d342d3
    5ece:	d6d5                	c.beqz	a3,5e7a <__riscv_restore_0+0x9a>
    5ed0:	d9d8                	c.sw	a4,52(a1)
    5ed2:	dbda                	c.swsp	s6,244(sp)
    5ed4:	100e                	c.slli	zero,0x23
    5ed6:	d242                	c.swsp	a6,36(sp)
    5ed8:	c942                	c.swsp	a6,144(sp)
    5eda:	c842                	c.swsp	a6,16(sp)
    5edc:	c142                	c.swsp	a6,128(sp)
    5ede:	0e42                	c.slli	t3,0x10
    5ee0:	0000                	unimp
	...
