
Debug.elf:     file format elf32-littleriscv
Debug.elf
architecture: riscv:rv32, flags 0x00000112:
EXEC_P, HAS_SYMS, D_PAGED
start address 0x20000000

Program Header:
    LOAD off    0x00001000 vaddr 0x20000000 paddr 0x20000000 align 2**12
         filesz 0x0000018a memsz 0x0000018a flags r-x
    LOAD off    0x00002000 vaddr 0x00000000 paddr 0x20000190 align 2**12
         filesz 0x000001bc memsz 0x000001bc flags rwx
    LOAD off    0x00002200 vaddr 0x00000200 paddr 0x20000350 align 2**12
         filesz 0x00006884 memsz 0x00006884 flags r-x
    LOAD off    0x00009000 vaddr 0x00080000 paddr 0x20006bd8 align 2**12
         filesz 0x00001688 memsz 0x000016c0 flags rw-
    LOAD off    0x0000a6c0 vaddr 0x000816c0 paddr 0x20008260 align 2**12
         filesz 0x00000022 memsz 0x00000022 flags rw-
    LOAD off    0x0000b6c0 vaddr 0x000816c0 paddr 0x20008298 align 2**12
         filesz 0x00000000 memsz 0x00000000 flags rw-
0x70000000 off    0x000264a3 vaddr 0x00000000 paddr 0x00000000 align 2**0
         filesz 0x0000004a memsz 0x00000000 flags r--

Sections:
Idx Name              Size      VMA       LMA       File off  Algn  Flags
  0 .vectors          0000018a  20000000  20000000  00001000  2**2  CONTENTS, ALLOC, LOAD, READONLY, CODE
  1 .retention_reset  00000154  00000000  20000190  00002000  2**2  CONTENTS, ALLOC, LOAD, READONLY, CODE
  2 .retention_data   00000064  00000158  200002e8  00002158  2**2  CONTENTS, ALLOC, LOAD, DATA
  3 .ram_code         00006884  00000200  20000350  00002200  2**8  CONTENTS, ALLOC, LOAD, READONLY, CODE
  4 .data             00001688  00080000  20006bd8  00009000  2**3  CONTENTS, ALLOC, LOAD, DATA
  5 .sbss             00000038  00081688  20008260  0000a688  2**2  ALLOC
  6 .bss              00000000  000816c0  20008298  0000b6c0  2**2  ALLOC
  7 .sdk_version      00000022  000816c0  20008260  0000a6c0  2**2  CONTENTS, ALLOC, LOAD, DATA
  8 .debug_info       00006b8d  00000000  00000000  0000a6e2  2**0  CONTENTS, READONLY, DEBUGGING
  9 .debug_abbrev     00001699  00000000  00000000  0001126f  2**0  CONTENTS, READONLY, DEBUGGING
 10 .debug_loc        00009fb7  00000000  00000000  00012908  2**0  CONTENTS, READONLY, DEBUGGING
 11 .debug_aranges    00000360  00000000  00000000  0001c8c0  2**3  CONTENTS, READONLY, DEBUGGING
 12 .debug_ranges     00000ff0  00000000  00000000  0001cc20  2**3  CONTENTS, READONLY, DEBUGGING
 13 .debug_line       000056d6  00000000  00000000  0001dc10  2**0  CONTENTS, READONLY, DEBUGGING
 14 .debug_str        0000314a  00000000  00000000  000232e6  2**0  CONTENTS, READONLY, DEBUGGING
 15 .comment          00000073  00000000  00000000  00026430  2**0  CONTENTS, READONLY
 16 .riscv.attributes 0000004a  00000000  00000000  000264a3  2**0  CONTENTS, READONLY
 17 .debug_frame      00000848  00000000  00000000  000264f0  2**2  CONTENTS, READONLY, DEBUGGING
SYMBOL TABLE:
20000000 l    d  .vectors	00000000 .vectors
00000000 l    d  .retention_reset	00000000 .retention_reset
00000158 l    d  .retention_data	00000000 .retention_data
00000200 l    d  .ram_code	00000000 .ram_code
00080000 l    d  .data	00000000 .data
00081688 l    d  .sbss	00000000 .sbss
000816c0 l    d  .bss	00000000 .bss
000816c0 l    d  .sdk_version	00000000 .sdk_version
00000000 l    d  .debug_info	00000000 .debug_info
00000000 l    d  .debug_abbrev	00000000 .debug_abbrev
00000000 l    d  .debug_loc	00000000 .debug_loc
00000000 l    d  .debug_aranges	00000000 .debug_aranges
00000000 l    d  .debug_ranges	00000000 .debug_ranges
00000000 l    d  .debug_line	00000000 .debug_line
00000000 l    d  .debug_str	00000000 .debug_str
00000000 l    d  .comment	00000000 .comment
00000000 l    d  .riscv.attributes	00000000 .riscv.attributes
00000000 l    d  .debug_frame	00000000 .debug_frame
00000000 l    df *ABS*	00000000 ./boot/cstartup_flash.o
20000028 l       .vectors	00000000 _START
2000008e l       .vectors	00000000 _RETENTION_RESET_INIT
200000a6 l       .vectors	00000000 _RETENTION_RESET_BEGIN
200000b8 l       .vectors	00000000 _RETENTION_DATA_INIT
200000cc l       .vectors	00000000 _RETENTION_DATA_INIT_BEGIN
200000de l       .vectors	00000000 _RAMCODE_INIT
200000f6 l       .vectors	00000000 _RAMCODE_INIT_BEGIN
20000108 l       .vectors	00000000 _DATA_INIT
20000120 l       .vectors	00000000 _DATA_INIT_BEGIN
20000132 l       .vectors	00000000 _ZERO_BSS
20000146 l       .vectors	00000000 _ZERO_BSS_BEGIN
20000152 l       .vectors	00000000 _ZERO_AES
20000166 l       .vectors	00000000 _ZERO_AES_BEGIN
20000172 l       .vectors	00000000 _FILL_STK
20000172 l       .vectors	00000000 _MAIN_FUNC
20000188 l       .vectors	00000000 _END
00000022 l       .retention_reset	00000000 _ISTART
0000002a l       .retention_reset	00000000 _ISWS_USB_DIS
00000088 l       .retention_reset	00000000 _WAKEUP_FLASH
000000a2 l       .retention_reset	00000000 _MSPI_WAIT
000000bc l       .retention_reset	00000000 _WAIT_EFUSE_LOAD_AND_FLASH_WAKEUP_FINISH
000000c2 l       .retention_reset	00000000 _MULTI_ADDRESS_BEGIN
000000d2 l       .retention_reset	00000000 _IZERO_BSS
000000e6 l       .retention_reset	00000000 _IZERO_BSS_BEGIN
000000f2 l       .retention_reset	00000000 _IZERO_AES
00000106 l       .retention_reset	00000000 _IZERO_AES_BEGIN
00000112 l       .retention_reset	00000000 _IFILL_STK
00000112 l       .retention_reset	00000000 _IDATA_INIT
0000012a l       .retention_reset	00000000 _IDATA_INIT_BEGIN
0000013c l       .retention_reset	00000000 _IMAIN_FUNC
00000152 l       .retention_reset	00000000 _IEND
00000040 l       *ABS*	00000000 irqno
00000000 l    df *ABS*	00000000 
0000133c l     F .ram_code	0000016c user_calib_adc_vref
00001fe8 l     F .ram_code	0000003c efuse_get_adc_calib_value
00001630 l     F .ram_code	00000002 adc_set_gpio_calib_vref
00001634 l     F .ram_code	00000002 adc_set_gpio_two_point_calib_offset
000014ac l     F .ram_code	00000044 user_calib_freq_offset
00001dfc l     F .ram_code	00000028 rf_update_internal_cap
000014f4 l     F .ram_code	000000d2 user_read_flash_value_calib
00001294 l     F .ram_code	00000094 flash_read_mid_uid_with_check
000015c8 l     F .ram_code	00000018 platform_init
00001e28 l     F .ram_code	000001a6 sys_init
00001774 l     F .ram_code	00000088 gpio_set_up_down_res
00081688 l     O .sbss	00000004 exception_mtval
0008168c l     O .sbss	00000004 exception_mepc
00081690 l     O .sbss	00000004 exception_mstatus
00081694 l     O .sbss	00000004 exception_mcause
00081698 l     O .sbss	00000004 exception_mdcause
000015e4 l     F .ram_code	0000002c except_handler
00000158 l     O .retention_data	00000002 g_adc_gpio_calib_vref
0000015a l     O .retention_data	00000001 g_adc_gpio_calib_vref_offset
00000380 l     F .ram_code	00000050 analog_read_reg8
000003d0 l     F .ram_code	00000048 analog_write_reg8
00000418 l     F .ram_code	0000004c analog_read_reg32
00001204 l     F .ram_code	00000018 clock_init
000004f4 l     F .ram_code	00000224 clock_init_ram
00000464 l     F .ram_code	00000030 clock_get_32k_tick
00000494 l     F .ram_code	00000060 clock_set_32k_tick
0008167c l     O .data	00000006 sys_clk
0000121c l     F .ram_code	00000024 flash_dread
000007ac l     F .ram_code	000001c0 flash_mspi_read_ram
00001240 l     F .ram_code	00000028 flash_read_mid
00001268 l     F .ram_code	0000002c flash_read_uid
00000718 l     F .ram_code	00000048 flash_send_cmd
0000015c l     O .retention_data	00000002 s_flash_preempt_config
00000760 l     F .ram_code	0000004c flash_send_addr
00000c98 l     F .ram_code	00000060 plic_enter_critical_sec
00000cf8 l     F .ram_code	00000058 plic_exit_critical_sec
00001638 l     F .ram_code	00000096 gpio_input_en
000016d0 l     F .ram_code	000000a0 gpio_input_dis
0000096c l     F .ram_code	00000024 delay_ms
000816c0 l     O .sdk_version	00000022 sdk_version
000017fc l     F .ram_code	0000002e usb_dp_pullup_en
0000182c l     F .ram_code	0000005c usb_set_pin_en
0000188c l     F .ram_code	000000da user_init
00001968 l     F .ram_code	00000006 reset_cycle_count
00001970 l     F .ram_code	00000006 read_cycle_count
00001978 l     F .ram_code	000000a8 generate_sine_wave_q15
0000015e l     O .retention_data	00000001 g_pm_vbat_v
00000990 l     F .ram_code	000000b0 pm_wait_bbpll_done
00000a40 l     F .ram_code	00000094 pm_stimer_recover
0008169c l     O .sbss	00000004 g_pm_status_info
00000160 l     O .retention_data	00000004 g_pm_tick_32k_cur
00000164 l     O .retention_data	00000001 g_pm_tick_update_en
00000165 l     O .retention_data	00000001 g_pm_suspend_power_cfg
0000016c l     O .retention_data	00000008 g_pm_early_wakeup_time_us
00000174 l     O .retention_data	00000008 g_pm_longsleep_early_wakeup_time_us
0000017c l     O .retention_data	00000004 g_pm_r_delay_cycle
00001ca4 l     F .ram_code	000000be pm_update_status_info
00000ad4 l     F .ram_code	00000194 pm_sleep_start
00000c68 l     F .ram_code	00000030 pm_switch_ext32kpad_to_int32krc
00001d64 l     F .ram_code	0000004e pm_update_32k_rc_sleep_tick
00001db4 l     F .ram_code	00000046 pm_get_32k_rc_calib
00001fd0 l     F .ram_code	00000016 efuse_get_low_word
00001328 l     F .ram_code	00000014 pm_sleep_wakeup.constprop.0
00000d50 l     F .ram_code	000002c4 pm_sleep_wakeup_ram.constprop.1
00000180 l     O .retention_data	00000004 flash_read_page
00000184 l     O .retention_data	00000001 g_plic_preempt_en
00000185 l     O .retention_data	00000001 g_pm_long_suspend
00000188 l     O .retention_data	00000004 g_pm_tick_cur
0000018c l     O .retention_data	00000029 pmcd
000001b8 l     O .retention_data	00000004 g_pm_tick_32k_calib
00080068 l     O .data	0000000c flash_support_mid
000816a0 l     O .sbss	00000004 g_chip_version
00000000 l    df *ABS*	00000000 riscv_dsp_cfft_q15.c
00000000 l    df *ABS*	00000000 riscv_dsp_cfft_rd2_q15.c
00000000 l    df *ABS*	00000000 riscv_dsp_cfft_rd4_q15.c
00000000 l    df *ABS*	00000000 riscv_dsp_cmag_q15.c
00000000 l    df *ABS*	00000000 riscv_dsp_sqrt_q15.c
00000000 l    df *ABS*	00000000 log.c
00000000 l    df *ABS*	00000000 math_err.c
0000306c l     F .ram_code	00000006 with_errno
00000000 l    df *ABS*	00000000 sinf.c
00000000 l    df *ABS*	00000000 ref_rredf.c
00081540 l     O .data	00000020 twooverpi.0
00000000 l    df *ABS*	00000000 adddf3.c
00000000 l    df *ABS*	00000000 divdf3.c
00000000 l    df *ABS*	00000000 muldf3.c
00000000 l    df *ABS*	00000000 subdf3.c
00000000 l    df *ABS*	00000000 unorddf2.c
00000000 l    df *ABS*	00000000 fixdfsi.c
00000000 l    df *ABS*	00000000 floatsidf.c
00000000 l    df *ABS*	00000000 extendsfdf2.c
00000000 l    df *ABS*	00000000 truncdfsf2.c
00000000 l    df *ABS*	00000000 malloc.c
00000000 l    df *ABS*	00000000 nano-mallocr.c
00000000 l    df *ABS*	00000000 nano-mallocr.c
00000000 l    df *ABS*	00000000 printf.c
00000000 l    df *ABS*	00000000 putchar.c
00000000 l    df *ABS*	00000000 puts.c
00000000 l    df *ABS*	00000000 vprintf.c
00005e5e l     F .ram_code	00000038 __vprintf_help
000816b0 l     O .sbss	00000004 __vprintf_buf_len
000816b4 l     O .sbss	00000004 __vprintf_buf
00000000 l    df *ABS*	00000000 printf_impl.c
00000000 l    df *ABS*	00000000 printf_impl_float.c
00000000 l    df *ABS*	00000000 strnlen.c
00000000 l    df *ABS*	00000000 _sbrk.c
000816bc l     O .sbss	00000004 heap_end.0
00000000 l    df *ABS*	00000000 libgcc2.c
00000000 l    df *ABS*	00000000 libgcc2.c
00000000 l    df *ABS*	00000000 riscv_dsp_cos_table_q15_1024.c
00000000 l    df *ABS*	00000000 log_data.c
00000000 l    df *ABS*	00000000 printf_data.c
00000000 l    df *ABS*	00000000 impure.c
000816c0 l     O .bss	00000000 impure_data
00005ddc g     F .ram_code	00000026 putchar
00002028  w      .ram_code	00000000 entry_irq55
00002028  w      .ram_code	00000000 entry_irq13
00006828 g     F .ram_code	00000036 strcpy
00002028  w      .ram_code	00000000 entry_irq15
0000695c g     F .ram_code	0000002e .hidden __ashldi3
00002028  w      .ram_code	00000000 entry_irq27
00002c0c g     F .ram_code	0000045e log
00002028  w      .ram_code	00000000 entry_irq60
00002028  w      .ram_code	00000000 entry_irq1
00002028  w      .ram_code	00000000 entry_irq52
00002028  w      .ram_code	00000000 entry_irq50
00002028  w      .ram_code	00000000 entry_irq62
00005dbe g     F .ram_code	0000001e printf
00080800 g       .data	00000000 __global_pointer$
00005bac g       .ram_code	00000000 .hidden __riscv_save_8
00002028  w      .ram_code	00000000 entry_irq58
00005bf8 g       .ram_code	00000000 .hidden __riscv_restore_3
00003072 g     F .ram_code	0000003e .hidden __math_divzero
000001bc g       .retention_data	00000000 _RETENTION_DATA_VMA_END
00005be4 g       .ram_code	00000000 .hidden __riscv_restore_10
00002050 g     F .ram_code	00000382 riscv_dsp_cfft_rd2_q15
00005bac g       .ram_code	00000000 .hidden __riscv_save_11
00002ac0 g     F .ram_code	0000009e riscv_dsp_cmag_q15
00005ede g     F .ram_code	00000048 __print_integral
00005f26 g     F .ram_code	0000045a __printf_impl_lite
00000000 g       .retention_reset	00000000 _RETENTION_RESET_VMA_START
00002028  w      .ram_code	00000000 entry_irq10
000023d4 g     F .ram_code	000006ea riscv_dsp_cfft_rd4_q15
00002028  w      .ram_code	00000000 entry_irq21
00000158 g       .retention_data	00000000 _AES_VMA_START
00003278 g     F .ram_code	00000146 ref__mathlib_rredf2
00002028  w      .ram_code	00000000 entry_irq48
00005bf8 g       .ram_code	00000000 .hidden __riscv_restore_2
00002028  w      .ram_code	00000000 entry_irq8
00002028  w      .ram_code	00000000 entry_irq33
000816c0 g       .bss	00000000 _BSS_VMA_END
00005c14 g     F .ram_code	00000070 memcpy
20000190 g       *ABS*	00000000 _RETENTION_RESET_LMA_START
000030b0 g     F .ram_code	00000040 .hidden __math_invalid
00005718 g     F .ram_code	0000007a .hidden __floatsidf
00080000 g     O .data	0000001c cst_libm_sincosf
00005f26 g     F .ram_code	0000045a __printf_impl
00002028  w      .ram_code	00000000 entry_irq12
00005e02 g     F .ram_code	00000032 puts
00005c04 g     F .ram_code	00000008 malloc
00002028  w      .ram_code	00000000 entry_irq14
00080250 g     O .data	0000020a riscv_dsp_cos_table_q15_1024
00005ba4 g       .ram_code	00000000 .hidden __riscv_save_12
00002028  w      .ram_code	00000000 entry_irq2
00002028  w      .ram_code	00000000 entry_irq51
00005be4 g       .ram_code	00000000 .hidden __riscv_restore_11
00002028  w      .ram_code	00000000 entry_irq28
00002028  w      .ram_code	00000000 entry_irq43
00005bd4 g       .ram_code	00000000 .hidden __riscv_save_1
00005bf8 g       .ram_code	00000000 .hidden __riscv_restore_0
00002028  w      .ram_code	00000000 entry_irq20
00005bba g       .ram_code	00000000 .hidden __riscv_save_7
00081688 g       .sbss	00000000 _BSS_VMA_START
00002028  w      .ram_code	00000000 entry_irq63
00081688 g       .data	00000000 _DATA_VMA_END
00005794 g     F .ram_code	00000110 .hidden __extendsfdf2
00002028  w      .ram_code	00000000 entry_irq46
000033c0 g     F .ram_code	000009e4 .hidden __adddf3
00002028  w      .ram_code	00000000 entry_irq31
00002028  w      .ram_code	00000000 entry_irq16
00100000 g       *ABS*	00000000 FLASH_SIZE
00005bee g       .ram_code	00000000 .hidden __riscv_restore_5
00080000 g       .data	00000000 _DATA_VMA_START
000068fe  w    F .ram_code	0000002c _sbrk
00002028  w      .ram_code	00000000 entry_irq53
00002028  w      .ram_code	00000000 entry_irq11
00081528 g     O .data	00000018 cst_libm_rredf
00000154 g       .retention_reset	00000000 _RETENTION_RESET_VMA_END
0000685e g     F .ram_code	00000018 strnlen
00005bee g       .ram_code	00000000 .hidden __riscv_restore_6
00080478 g     O .data	00001090 .hidden __log_data
00002028  w      .ram_code	00000000 entry_irq5
00005650 g     F .ram_code	000000c8 .hidden __fixdfsi
00002028  w      .ram_code	00000000 entry_irq23
0000202a  w      .ram_code	00000000 trap_handler
00002028  w      .ram_code	00000000 entry_irq34
0000692c g     F .ram_code	0000002e .hidden __lshrdi3
00002028  w      .ram_code	00000000 entry_irq36
00005bac g       .ram_code	00000000 .hidden __riscv_save_9
00002028  w      .ram_code	00000000 entry_irq44
00005e96 g     F .ram_code	00000048 vprintf
00002028  w      .ram_code	00000000 entry_irq45
00002028  w      .ram_code	00000000 entry_irq26
00005bba g       .ram_code	00000000 .hidden __riscv_save_4
00002028  w      .ram_code	00000000 entry_irq41
00002028  w      .ram_code	00000000 entry_irq61
20000000 g       .vectors	00000000 BIN_BEGIN
00005c86 g     F .ram_code	00000090 _free_r
00005bd4 g       .ram_code	00000000 .hidden __riscv_save_3
00002028  w      .ram_code	00000000 entry_irq38
00001100 g       .ram_code	00000000 __vectors
00008282 g       *ABS*	00000000 BIN_SIZE
000815e0 g     O .data	00000010 __digits
20000350 g       *ABS*	00000000 _RAMCODE_LMA_START
000816b8 g     O .sbss	00000004 __printf_count
00002028  w      .ram_code	00000000 entry_irq59
00003da4 g     F .ram_code	000007ea .hidden __divdf3
00002028  w      .ram_code	00000000 entry_irq6
00004590 g     F .ram_code	00000648 .hidden __muldf3
00005bac g       .ram_code	00000000 .hidden __riscv_save_10
000816a4 g     O .sbss	00000004 __mculib_REENT_errno
20006bd8 g       *ABS*	00000000 _DATA_LMA_START
000063a0 g     F .ram_code	00000088 __print_integral_poly
20000000 g       *ABS*	00000000 NDS_SAG_LMA_FLASH
00005bee g       .ram_code	00000000 .hidden __riscv_restore_4
00005be4 g       .ram_code	00000000 .hidden __riscv_restore_8
00005bba g       .ram_code	00000000 .hidden __riscv_save_6
20000000  w      .vectors	00000000 _RELAX_END_
00006878 g     F .ram_code	00000086 memset
00006428 g     F .ram_code	000003fe __printf_float_impl
00005be4 g       .ram_code	00000000 .hidden __riscv_restore_9
00005bee g       .ram_code	00000000 .hidden __riscv_restore_7
00001a20 g     F .ram_code	00000282 main
00002028 g       .ram_code	00000000 default_irq_entry
00002028  w      .ram_code	00000000 entry_irq3
00000200 g     F .ram_code	00000180 trap_entry
00000158 g       .retention_data	00000000 _AES_VMA_END
000058a4 g     F .ram_code	00000300 .hidden __truncdfsf2
00002028  w      .ram_code	00000000 entry_irq39
00002028  w      .ram_code	00000000 entry_irq49
00005d16 g     F .ram_code	000000a8 _malloc_r
00002028  w      .ram_code	00000000 entry_irq57
00002028  w      .ram_code	00000000 entry_irq47
200002e8 g       *ABS*	00000000 _RETENTION_DATA_LMA_START
20000000 g     F .vectors	00000000 _RESET_ENTRY
00005dbe g     F .ram_code	0000001e iprintf
00000158 g       .retention_data	00000000 _RETENTION_DATA_VMA_START
00002028  w      .ram_code	00000000 entry_irq4
000a0000 g       *ABS*	00000000 _STACK_TOP
00002028  w      .ram_code	00000000 entry_irq22
00002028  w      .ram_code	00000000 entry_irq30
00081684 g     O .data	00000004 _impure_ptr
00002028  w      .ram_code	00000000 entry_irq42
00002028  w      .ram_code	00000000 entry_irq24
000030f0 g     F .ram_code	00000188 sinf
00005bd4 g       .ram_code	00000000 .hidden __riscv_save_2
00006a84 g       .ram_code	00000000 _RAMCODE_VMA_END
00000000  w      *ABS*	00000000 _ITB_BASE_
00005bba g       .ram_code	00000000 .hidden __riscv_save_5
00002028  w      .ram_code	00000000 entry_irq19
00002b60 g     F .ram_code	000000aa riscv_dsp_sqrt_q15
00001610 g     F .ram_code	0000001e _write
000816e8 g       .sdk_version	00000000 _end
00002028  w      .ram_code	00000000 entry_irq17
00002028  w      .ram_code	00000000 entry_irq9
00002028  w      .ram_code	00000000 entry_irq56
00002028  w      .ram_code	00000000 entry_irq35
00002028  w      .ram_code	00000000 entry_irq37
00000168 g     O .retention_data	00000004 g_pm_mspi_cfg
00002028  w      .ram_code	00000000 entry_irq54
00002028  w      .ram_code	00000000 entry_irq40
00002030 g     F .ram_code	0000001e riscv_dsp_cfft_q15
00005be0 g       .ram_code	00000000 .hidden __riscv_restore_12
00000200 g       .ram_code	00000000 _RAMCODE_VMA_START
000055e4 g     F .ram_code	0000006a .hidden __unorddf2
00005bd4 g       .ram_code	00000000 .hidden __riscv_save_0
00005e34 g     F .ram_code	00000028 strlen
00002028  w      .ram_code	00000000 entry_irq29
000816a8 g     O .sbss	00000004 __malloc_sbrk_start
000816ac g     O .sbss	00000004 __malloc_free_list
00005bf8 g       .ram_code	00000000 .hidden __riscv_restore_1
00004bdc g     F .ram_code	00000a08 .hidden __subdf3
00002028  w      .ram_code	00000000 entry_irq7
00002028  w      .ram_code	00000000 entry_irq32
00000000 g     F .retention_reset	00000000 _IRESET_ENTRY
00002028  w      .ram_code	00000000 entry_irq18
00005e96 g     F .ram_code	00000048 viprintf
00006380 g     F .ram_code	00000020 __int_to_poly
00005c0c g     F .ram_code	00000008 free
00002028  w      .ram_code	00000000 entry_irq25



Disassembly of section .vectors:

20000000 <_RESET_ENTRY>:
BIN_BEGIN():
/cygdrive/c/Users/SwaminathanK/AndeSight3/workspace/DSP_cfft_q15_benchmark_N/Debug/../boot/cstartup_flash.S:59
    .global _RESET_ENTRY
 	.type _RESET_ENTRY,@function

    .align 2
_RESET_ENTRY:
	j 		 _START
20000000:	a025                	c.j	20000028 <_START>
	...
20000016:	0000                	unimp
20000018:	8282                	c.jr	t0
2000001a:	0000                	unimp
2000001c:	0000                	unimp
2000001e:	0000                	unimp
20000020:	544c4e4b          	fnmsub.h	ft8,fs8,ft4,fa0,rmm
20000024:	0000                	unimp
20000026:	          	sllw	a4,zero,zero

20000028 <_START>:
_START():
/cygdrive/c/Users/SwaminathanK/AndeSight3/workspace/DSP_cfft_q15_benchmark_N/Debug/../boot/cstartup_flash.S:90
	sb		t2 , 0x30b(t0)		 //0x8014030b  PB output  =  0x10
#endif
	/* Initialize global pointer */
    .option push
    .option norelax
    la     gp, __global_pointer$
20000028:	e0080197          	auipc	gp,0xe0080
2000002c:	7d818193          	addi	gp,gp,2008 # 80800 <__global_pointer$>
/cygdrive/c/Users/SwaminathanK/AndeSight3/workspace/DSP_cfft_q15_benchmark_N/Debug/../boot/cstartup_flash.S:94
    .option pop

#if DP_THROUGH_SWIRE_DIS
	lui		t0, 0x80100
20000030:	801002b7          	lui	t0,0x80100
/cygdrive/c/Users/SwaminathanK/AndeSight3/workspace/DSP_cfft_q15_benchmark_N/Debug/../boot/cstartup_flash.S:95
	addi	t0 , t0 , 0x700
20000034:	70028293          	addi	t0,t0,1792 # 80100700 <_DATA_LMA_START+0x600f9b28>
/cygdrive/c/Users/SwaminathanK/AndeSight3/workspace/DSP_cfft_q15_benchmark_N/Debug/../boot/cstartup_flash.S:96
	li		t1, 0x040
20000038:	04000313          	li	t1,64
/cygdrive/c/Users/SwaminathanK/AndeSight3/workspace/DSP_cfft_q15_benchmark_N/Debug/../boot/cstartup_flash.S:97
	sb		t1, 0x501(t0)  //0x80100c01 -> 0x40  <7>: 0 swire_usb_dis <6>:read-only bit
2000003c:	506280a3          	sb	t1,1281(t0)
/cygdrive/c/Users/SwaminathanK/AndeSight3/workspace/DSP_cfft_q15_benchmark_N/Debug/../boot/cstartup_flash.S:100
#endif
	/* Initialize stack pointer */
    la     t0, _STACK_TOP
20000040:	e00a0297          	auipc	t0,0xe00a0
20000044:	fc028293          	addi	t0,t0,-64 # a0000 <_STACK_TOP>
/cygdrive/c/Users/SwaminathanK/AndeSight3/workspace/DSP_cfft_q15_benchmark_N/Debug/../boot/cstartup_flash.S:101
    mv     sp, t0
20000048:	8116                	c.mv	sp,t0
/cygdrive/c/Users/SwaminathanK/AndeSight3/workspace/DSP_cfft_q15_benchmark_N/Debug/../boot/cstartup_flash.S:105

#ifdef __nds_execit
	/* Initialize EXEC.IT table */
	la t0, _ITB_BASE_
2000004a:	e0000297          	auipc	t0,0xe0000
2000004e:	fb628293          	addi	t0,t0,-74 # 0 <_ITB_BASE_>
/cygdrive/c/Users/SwaminathanK/AndeSight3/workspace/DSP_cfft_q15_benchmark_N/Debug/../boot/cstartup_flash.S:106
	csrw uitb, t0
20000052:	80029073          	csrw	uitb,t0
/cygdrive/c/Users/SwaminathanK/AndeSight3/workspace/DSP_cfft_q15_benchmark_N/Debug/../boot/cstartup_flash.S:111
#endif

#ifdef __riscv_flen
	/* Enable FPU */
	li t0, 0x00006000
20000056:	6299                	c.lui	t0,0x6
/cygdrive/c/Users/SwaminathanK/AndeSight3/workspace/DSP_cfft_q15_benchmark_N/Debug/../boot/cstartup_flash.S:112
	csrrs t0, mstatus, t0
20000058:	3002a2f3          	csrrs	t0,mstatus,t0
/cygdrive/c/Users/SwaminathanK/AndeSight3/workspace/DSP_cfft_q15_benchmark_N/Debug/../boot/cstartup_flash.S:114
	/* Initialize FCSR */
	fscsr zero
2000005c:	00301073          	fssr	zero
/cygdrive/c/Users/SwaminathanK/AndeSight3/workspace/DSP_cfft_q15_benchmark_N/Debug/../boot/cstartup_flash.S:118
#endif

    /* Initial machine trap-vector Base */
    la     t0, __vectors
20000060:	e0001297          	auipc	t0,0xe0001
20000064:	0a028293          	addi	t0,t0,160 # 1100 <__vectors>
/cygdrive/c/Users/SwaminathanK/AndeSight3/workspace/DSP_cfft_q15_benchmark_N/Debug/../boot/cstartup_flash.S:119
    csrw   mtvec, t0
20000068:	30529073          	csrw	mtvec,t0
/cygdrive/c/Users/SwaminathanK/AndeSight3/workspace/DSP_cfft_q15_benchmark_N/Debug/../boot/cstartup_flash.S:122

    /* Enable vectored external plic interrupt */
    csrsi  mmisc_ctl, 2
2000006c:	7d016073          	csrsi	mmisc_ctl,2
/cygdrive/c/Users/SwaminathanK/AndeSight3/workspace/DSP_cfft_q15_benchmark_N/Debug/../boot/cstartup_flash.S:125

	/*vector mode enable bit (VECTORED) of the Feature Enable Register */
    lui		t0, 0xe4000
20000070:	e40002b7          	lui	t0,0xe4000
/cygdrive/c/Users/SwaminathanK/AndeSight3/workspace/DSP_cfft_q15_benchmark_N/Debug/../boot/cstartup_flash.S:126
	li		t1, 0x02
20000074:	4309                	c.li	t1,2
/cygdrive/c/Users/SwaminathanK/AndeSight3/workspace/DSP_cfft_q15_benchmark_N/Debug/../boot/cstartup_flash.S:127
	sw		t1, 0x0(t0)		 //(*(volatile unsigned long*)(0xe4000000))= 0x02
20000076:	0062a023          	sw	t1,0(t0) # e4000000 <_DATA_LMA_START+0xc3ff9428>
/cygdrive/c/Users/SwaminathanK/AndeSight3/workspace/DSP_cfft_q15_benchmark_N/Debug/../boot/cstartup_flash.S:130

    /* Enable I/D-Cache */
    csrr   t0,  mcache_ctl
2000007a:	7ca022f3          	csrr	t0,mcache_ctl
/cygdrive/c/Users/SwaminathanK/AndeSight3/workspace/DSP_cfft_q15_benchmark_N/Debug/../boot/cstartup_flash.S:131
    ori    t0,  t0,  1  #/I-Cache
2000007e:	0012e293          	ori	t0,t0,1
/cygdrive/c/Users/SwaminathanK/AndeSight3/workspace/DSP_cfft_q15_benchmark_N/Debug/../boot/cstartup_flash.S:132
    ori    t0,  t0,  2  #/D-Cache
20000082:	0022e293          	ori	t0,t0,2
/cygdrive/c/Users/SwaminathanK/AndeSight3/workspace/DSP_cfft_q15_benchmark_N/Debug/../boot/cstartup_flash.S:133
    csrw   mcache_ctl,  t0
20000086:	7ca29073          	csrw	mcache_ctl,t0
/cygdrive/c/Users/SwaminathanK/AndeSight3/workspace/DSP_cfft_q15_benchmark_N/Debug/../boot/cstartup_flash.S:134
    fence.i
2000008a:	0000100f          	fence.i

2000008e <_RETENTION_RESET_INIT>:
_RETENTION_RESET_INIT():
/cygdrive/c/Users/SwaminathanK/AndeSight3/workspace/DSP_cfft_q15_benchmark_N/Debug/../boot/cstartup_flash.S:138
	/* Move retention reset from flash to sram */
_RETENTION_RESET_INIT:

    la     t1, _RETENTION_RESET_LMA_START
2000008e:	00000317          	auipc	t1,0x0
20000092:	10230313          	addi	t1,t1,258 # 20000190 <_RETENTION_RESET_LMA_START>
/cygdrive/c/Users/SwaminathanK/AndeSight3/workspace/DSP_cfft_q15_benchmark_N/Debug/../boot/cstartup_flash.S:139
    la     t2, _RETENTION_RESET_VMA_START
20000096:	e0000397          	auipc	t2,0xe0000
2000009a:	f6a38393          	addi	t2,t2,-150 # 0 <_ITB_BASE_>
/cygdrive/c/Users/SwaminathanK/AndeSight3/workspace/DSP_cfft_q15_benchmark_N/Debug/../boot/cstartup_flash.S:140
    la     t3, _RETENTION_RESET_VMA_END
2000009e:	e0000e17          	auipc	t3,0xe0000
200000a2:	0b6e0e13          	addi	t3,t3,182 # 154 <_RETENTION_RESET_VMA_END>

200000a6 <_RETENTION_RESET_BEGIN>:
_RETENTION_RESET_BEGIN():
/cygdrive/c/Users/SwaminathanK/AndeSight3/workspace/DSP_cfft_q15_benchmark_N/Debug/../boot/cstartup_flash.S:142
_RETENTION_RESET_BEGIN:
    bleu    t3, t2, _RETENTION_DATA_INIT
200000a6:	01c3f963          	bgeu	t2,t3,200000b8 <_RETENTION_DATA_INIT>
/cygdrive/c/Users/SwaminathanK/AndeSight3/workspace/DSP_cfft_q15_benchmark_N/Debug/../boot/cstartup_flash.S:143
    lw     t0, 0(t1)
200000aa:	00032283          	lw	t0,0(t1)
/cygdrive/c/Users/SwaminathanK/AndeSight3/workspace/DSP_cfft_q15_benchmark_N/Debug/../boot/cstartup_flash.S:144
    sw     t0, 0(t2)
200000ae:	0053a023          	sw	t0,0(t2)
/cygdrive/c/Users/SwaminathanK/AndeSight3/workspace/DSP_cfft_q15_benchmark_N/Debug/../boot/cstartup_flash.S:145
    addi   t1, t1, 4
200000b2:	0311                	c.addi	t1,4
/cygdrive/c/Users/SwaminathanK/AndeSight3/workspace/DSP_cfft_q15_benchmark_N/Debug/../boot/cstartup_flash.S:146
    addi   t2, t2, 4
200000b4:	0391                	c.addi	t2,4
/cygdrive/c/Users/SwaminathanK/AndeSight3/workspace/DSP_cfft_q15_benchmark_N/Debug/../boot/cstartup_flash.S:147
    j      _RETENTION_RESET_BEGIN
200000b6:	bfc5                	c.j	200000a6 <_RETENTION_RESET_BEGIN>

200000b8 <_RETENTION_DATA_INIT>:
_RETENTION_DATA_INIT():
/cygdrive/c/Users/SwaminathanK/AndeSight3/workspace/DSP_cfft_q15_benchmark_N/Debug/../boot/cstartup_flash.S:152

	/* Move retention from flash to sram */
_RETENTION_DATA_INIT:

    la     t1, _RETENTION_DATA_LMA_START
200000b8:	00000317          	auipc	t1,0x0
200000bc:	23030313          	addi	t1,t1,560 # 200002e8 <_RETENTION_DATA_LMA_START>
/cygdrive/c/Users/SwaminathanK/AndeSight3/workspace/DSP_cfft_q15_benchmark_N/Debug/../boot/cstartup_flash.S:153
    la     t2, _RETENTION_DATA_VMA_START
200000c0:	15800393          	li	t2,344
/cygdrive/c/Users/SwaminathanK/AndeSight3/workspace/DSP_cfft_q15_benchmark_N/Debug/../boot/cstartup_flash.S:154
    la     t3, _RETENTION_DATA_VMA_END
200000c4:	e0000e17          	auipc	t3,0xe0000
200000c8:	0f8e0e13          	addi	t3,t3,248 # 1bc <_RETENTION_DATA_VMA_END>

200000cc <_RETENTION_DATA_INIT_BEGIN>:
_RETENTION_DATA_INIT_BEGIN():
/cygdrive/c/Users/SwaminathanK/AndeSight3/workspace/DSP_cfft_q15_benchmark_N/Debug/../boot/cstartup_flash.S:156
_RETENTION_DATA_INIT_BEGIN:
    bleu   t3, t2, _RAMCODE_INIT
200000cc:	01c3f963          	bgeu	t2,t3,200000de <_RAMCODE_INIT>
/cygdrive/c/Users/SwaminathanK/AndeSight3/workspace/DSP_cfft_q15_benchmark_N/Debug/../boot/cstartup_flash.S:157
    lw     t0, 0(t1)
200000d0:	00032283          	lw	t0,0(t1)
/cygdrive/c/Users/SwaminathanK/AndeSight3/workspace/DSP_cfft_q15_benchmark_N/Debug/../boot/cstartup_flash.S:158
    sw     t0, 0(t2)
200000d4:	0053a023          	sw	t0,0(t2)
/cygdrive/c/Users/SwaminathanK/AndeSight3/workspace/DSP_cfft_q15_benchmark_N/Debug/../boot/cstartup_flash.S:159
    addi   t1, t1, 4
200000d8:	0311                	c.addi	t1,4
/cygdrive/c/Users/SwaminathanK/AndeSight3/workspace/DSP_cfft_q15_benchmark_N/Debug/../boot/cstartup_flash.S:160
    addi   t2, t2, 4
200000da:	0391                	c.addi	t2,4
/cygdrive/c/Users/SwaminathanK/AndeSight3/workspace/DSP_cfft_q15_benchmark_N/Debug/../boot/cstartup_flash.S:161
    j      _RETENTION_DATA_INIT_BEGIN
200000dc:	bfc5                	c.j	200000cc <_RETENTION_DATA_INIT_BEGIN>

200000de <_RAMCODE_INIT>:
_RAMCODE_INIT():
/cygdrive/c/Users/SwaminathanK/AndeSight3/workspace/DSP_cfft_q15_benchmark_N/Debug/../boot/cstartup_flash.S:166

	/* Move ramcode from flash to sram */
_RAMCODE_INIT:

    la     t1, _RAMCODE_LMA_START
200000de:	00000317          	auipc	t1,0x0
200000e2:	27230313          	addi	t1,t1,626 # 20000350 <_RAMCODE_LMA_START>
/cygdrive/c/Users/SwaminathanK/AndeSight3/workspace/DSP_cfft_q15_benchmark_N/Debug/../boot/cstartup_flash.S:167
    la     t2, _RAMCODE_VMA_START
200000e6:	e0000397          	auipc	t2,0xe0000
200000ea:	11a38393          	addi	t2,t2,282 # 200 <trap_entry>
/cygdrive/c/Users/SwaminathanK/AndeSight3/workspace/DSP_cfft_q15_benchmark_N/Debug/../boot/cstartup_flash.S:168
    la     t3, _RAMCODE_VMA_END
200000ee:	e0007e17          	auipc	t3,0xe0007
200000f2:	996e0e13          	addi	t3,t3,-1642 # 6a84 <_RAMCODE_VMA_END>

200000f6 <_RAMCODE_INIT_BEGIN>:
_RAMCODE_INIT_BEGIN():
/cygdrive/c/Users/SwaminathanK/AndeSight3/workspace/DSP_cfft_q15_benchmark_N/Debug/../boot/cstartup_flash.S:170
_RAMCODE_INIT_BEGIN:
    bleu    t3, t2, _DATA_INIT
200000f6:	01c3f963          	bgeu	t2,t3,20000108 <_DATA_INIT>
/cygdrive/c/Users/SwaminathanK/AndeSight3/workspace/DSP_cfft_q15_benchmark_N/Debug/../boot/cstartup_flash.S:171
    lw     t0, 0(t1)
200000fa:	00032283          	lw	t0,0(t1)
/cygdrive/c/Users/SwaminathanK/AndeSight3/workspace/DSP_cfft_q15_benchmark_N/Debug/../boot/cstartup_flash.S:172
    sw     t0, 0(t2)
200000fe:	0053a023          	sw	t0,0(t2)
/cygdrive/c/Users/SwaminathanK/AndeSight3/workspace/DSP_cfft_q15_benchmark_N/Debug/../boot/cstartup_flash.S:173
    addi   t1, t1, 4
20000102:	0311                	c.addi	t1,4
/cygdrive/c/Users/SwaminathanK/AndeSight3/workspace/DSP_cfft_q15_benchmark_N/Debug/../boot/cstartup_flash.S:174
    addi   t2, t2, 4
20000104:	0391                	c.addi	t2,4
/cygdrive/c/Users/SwaminathanK/AndeSight3/workspace/DSP_cfft_q15_benchmark_N/Debug/../boot/cstartup_flash.S:175
    j      _RAMCODE_INIT_BEGIN
20000106:	bfc5                	c.j	200000f6 <_RAMCODE_INIT_BEGIN>

20000108 <_DATA_INIT>:
_DATA_INIT():
/cygdrive/c/Users/SwaminathanK/AndeSight3/workspace/DSP_cfft_q15_benchmark_N/Debug/../boot/cstartup_flash.S:180


	/* Move Data from flash to sram */
_DATA_INIT:
    la     t1, _DATA_LMA_START
20000108:	00007317          	auipc	t1,0x7
2000010c:	ad030313          	addi	t1,t1,-1328 # 20006bd8 <_DATA_LMA_START>
/cygdrive/c/Users/SwaminathanK/AndeSight3/workspace/DSP_cfft_q15_benchmark_N/Debug/../boot/cstartup_flash.S:181
    la     t2, _DATA_VMA_START
20000110:	e0080397          	auipc	t2,0xe0080
20000114:	ef038393          	addi	t2,t2,-272 # 80000 <cst_libm_sincosf>
/cygdrive/c/Users/SwaminathanK/AndeSight3/workspace/DSP_cfft_q15_benchmark_N/Debug/../boot/cstartup_flash.S:182
    la     t3, _DATA_VMA_END
20000118:	e0081e17          	auipc	t3,0xe0081
2000011c:	570e0e13          	addi	t3,t3,1392 # 81688 <_DATA_VMA_END>

20000120 <_DATA_INIT_BEGIN>:
_DATA_INIT_BEGIN():
/cygdrive/c/Users/SwaminathanK/AndeSight3/workspace/DSP_cfft_q15_benchmark_N/Debug/../boot/cstartup_flash.S:184
_DATA_INIT_BEGIN:
    bleu   t3, t2, _ZERO_BSS
20000120:	01c3f963          	bgeu	t2,t3,20000132 <_ZERO_BSS>
/cygdrive/c/Users/SwaminathanK/AndeSight3/workspace/DSP_cfft_q15_benchmark_N/Debug/../boot/cstartup_flash.S:185
    lw     t0, 0(t1)
20000124:	00032283          	lw	t0,0(t1)
/cygdrive/c/Users/SwaminathanK/AndeSight3/workspace/DSP_cfft_q15_benchmark_N/Debug/../boot/cstartup_flash.S:186
    sw     t0, 0(t2)
20000128:	0053a023          	sw	t0,0(t2)
/cygdrive/c/Users/SwaminathanK/AndeSight3/workspace/DSP_cfft_q15_benchmark_N/Debug/../boot/cstartup_flash.S:187
    addi   t1, t1, 4
2000012c:	0311                	c.addi	t1,4
/cygdrive/c/Users/SwaminathanK/AndeSight3/workspace/DSP_cfft_q15_benchmark_N/Debug/../boot/cstartup_flash.S:188
    addi   t2, t2, 4
2000012e:	0391                	c.addi	t2,4
/cygdrive/c/Users/SwaminathanK/AndeSight3/workspace/DSP_cfft_q15_benchmark_N/Debug/../boot/cstartup_flash.S:189
    j      _DATA_INIT_BEGIN
20000130:	bfc5                	c.j	20000120 <_DATA_INIT_BEGIN>

20000132 <_ZERO_BSS>:
_ZERO_BSS():
/cygdrive/c/Users/SwaminathanK/AndeSight3/workspace/DSP_cfft_q15_benchmark_N/Debug/../boot/cstartup_flash.S:195



	/* Zero .bss section in sram */
_ZERO_BSS:
    lui    t0, 0
20000132:	000002b7          	lui	t0,0x0
/cygdrive/c/Users/SwaminathanK/AndeSight3/workspace/DSP_cfft_q15_benchmark_N/Debug/../boot/cstartup_flash.S:196
    la     t2, _BSS_VMA_START
20000136:	e0081397          	auipc	t2,0xe0081
2000013a:	55238393          	addi	t2,t2,1362 # 81688 <_DATA_VMA_END>
/cygdrive/c/Users/SwaminathanK/AndeSight3/workspace/DSP_cfft_q15_benchmark_N/Debug/../boot/cstartup_flash.S:197
    la     t3, _BSS_VMA_END
2000013e:	e0081e17          	auipc	t3,0xe0081
20000142:	582e0e13          	addi	t3,t3,1410 # 816c0 <_BSS_VMA_END>

20000146 <_ZERO_BSS_BEGIN>:
_ZERO_BSS_BEGIN():
/cygdrive/c/Users/SwaminathanK/AndeSight3/workspace/DSP_cfft_q15_benchmark_N/Debug/../boot/cstartup_flash.S:199
_ZERO_BSS_BEGIN:
    bleu   t3, t2, _ZERO_AES
20000146:	01c3f663          	bgeu	t2,t3,20000152 <_ZERO_AES>
/cygdrive/c/Users/SwaminathanK/AndeSight3/workspace/DSP_cfft_q15_benchmark_N/Debug/../boot/cstartup_flash.S:200
    sw     t0, 0(t2)
2000014a:	0053a023          	sw	t0,0(t2)
/cygdrive/c/Users/SwaminathanK/AndeSight3/workspace/DSP_cfft_q15_benchmark_N/Debug/../boot/cstartup_flash.S:201
    addi   t2, t2, 4
2000014e:	0391                	c.addi	t2,4
/cygdrive/c/Users/SwaminathanK/AndeSight3/workspace/DSP_cfft_q15_benchmark_N/Debug/../boot/cstartup_flash.S:202
    j      _ZERO_BSS_BEGIN
20000150:	bfdd                	c.j	20000146 <_ZERO_BSS_BEGIN>

20000152 <_ZERO_AES>:
_ZERO_AES():
/cygdrive/c/Users/SwaminathanK/AndeSight3/workspace/DSP_cfft_q15_benchmark_N/Debug/../boot/cstartup_flash.S:206

	/* Zero .aes section in sram */
_ZERO_AES:
    lui    t0, 0
20000152:	000002b7          	lui	t0,0x0
/cygdrive/c/Users/SwaminathanK/AndeSight3/workspace/DSP_cfft_q15_benchmark_N/Debug/../boot/cstartup_flash.S:207
    la     t2, _AES_VMA_START
20000156:	e0000397          	auipc	t2,0xe0000
2000015a:	00238393          	addi	t2,t2,2 # 158 <_AES_VMA_END>
/cygdrive/c/Users/SwaminathanK/AndeSight3/workspace/DSP_cfft_q15_benchmark_N/Debug/../boot/cstartup_flash.S:208
    la     t3, _AES_VMA_END
2000015e:	e0000e17          	auipc	t3,0xe0000
20000162:	ffae0e13          	addi	t3,t3,-6 # 158 <_AES_VMA_END>

20000166 <_ZERO_AES_BEGIN>:
_ZERO_AES_BEGIN():
/cygdrive/c/Users/SwaminathanK/AndeSight3/workspace/DSP_cfft_q15_benchmark_N/Debug/../boot/cstartup_flash.S:210
_ZERO_AES_BEGIN:
    bleu   t3, t2, _FILL_STK
20000166:	01c3f663          	bgeu	t2,t3,20000172 <_FILL_STK>
/cygdrive/c/Users/SwaminathanK/AndeSight3/workspace/DSP_cfft_q15_benchmark_N/Debug/../boot/cstartup_flash.S:211
    sw     t0, 0(t2)
2000016a:	0053a023          	sw	t0,0(t2)
/cygdrive/c/Users/SwaminathanK/AndeSight3/workspace/DSP_cfft_q15_benchmark_N/Debug/../boot/cstartup_flash.S:212
    addi   t2, t2, 4
2000016e:	0391                	c.addi	t2,4
/cygdrive/c/Users/SwaminathanK/AndeSight3/workspace/DSP_cfft_q15_benchmark_N/Debug/../boot/cstartup_flash.S:213
    j      _ZERO_AES_BEGIN
20000170:	bfdd                	c.j	20000166 <_ZERO_AES_BEGIN>

20000172 <_FILL_STK>:
_FILL_STK():
/cygdrive/c/Users/SwaminathanK/AndeSight3/workspace/DSP_cfft_q15_benchmark_N/Debug/../boot/cstartup_flash.S:230
    addi   t2, t2, 4
    j      _FILL_STK_BEGIN
#endif
	/* Jump to the main function */
_MAIN_FUNC:
    nop
20000172:	0001                	c.nop
/cygdrive/c/Users/SwaminathanK/AndeSight3/workspace/DSP_cfft_q15_benchmark_N/Debug/../boot/cstartup_flash.S:232

    la     t0, main
20000174:	e0002297          	auipc	t0,0xe0002
20000178:	8ac28293          	addi	t0,t0,-1876 # 1a20 <main>
/cygdrive/c/Users/SwaminathanK/AndeSight3/workspace/DSP_cfft_q15_benchmark_N/Debug/../boot/cstartup_flash.S:233
    jalr   t0
2000017c:	9282                	c.jalr	t0
/cygdrive/c/Users/SwaminathanK/AndeSight3/workspace/DSP_cfft_q15_benchmark_N/Debug/../boot/cstartup_flash.S:235

    nop
2000017e:	0001                	c.nop
/cygdrive/c/Users/SwaminathanK/AndeSight3/workspace/DSP_cfft_q15_benchmark_N/Debug/../boot/cstartup_flash.S:236
    nop
20000180:	0001                	c.nop
/cygdrive/c/Users/SwaminathanK/AndeSight3/workspace/DSP_cfft_q15_benchmark_N/Debug/../boot/cstartup_flash.S:237
    nop
20000182:	0001                	c.nop
/cygdrive/c/Users/SwaminathanK/AndeSight3/workspace/DSP_cfft_q15_benchmark_N/Debug/../boot/cstartup_flash.S:238
    nop
20000184:	0001                	c.nop
/cygdrive/c/Users/SwaminathanK/AndeSight3/workspace/DSP_cfft_q15_benchmark_N/Debug/../boot/cstartup_flash.S:239
    nop
20000186:	0001                	c.nop

20000188 <_END>:
_END():
/cygdrive/c/Users/SwaminathanK/AndeSight3/workspace/DSP_cfft_q15_benchmark_N/Debug/../boot/cstartup_flash.S:241
_END:
    j    _END
20000188:	a001                	c.j	20000188 <_END>

Disassembly of section .retention_reset:

00000000 <_IRESET_ENTRY>:
_RETENTION_RESET_VMA_START():
/cygdrive/c/Users/SwaminathanK/AndeSight3/workspace/DSP_cfft_q15_benchmark_N/Debug/../boot/cstartup_flash.S:253
 	.type _IRESET_ENTRY,@function

    .align 2
_IRESET_ENTRY:
	/* Decide whether this is an NMI or cold reset */
	j 		_ISTART
   0:	a00d                	c.j	22 <_ISTART>
	...

00000022 <_ISTART>:
_ISTART():
/cygdrive/c/Users/SwaminathanK/AndeSight3/workspace/DSP_cfft_q15_benchmark_N/Debug/../boot/cstartup_flash.S:267
	sb		t1 , 0x30a(t0)		 //0x8014030a  PB oen     =  0xef
	sb		t2 , 0x30b(t0)		 //0x8014030b  PB output  =  0x10
#endif
	/* Initialize global pointer */

    la     gp, __global_pointer$
  22:	00080197          	auipc	gp,0x80
  26:	7de18193          	addi	gp,gp,2014 # 80800 <__global_pointer$>

0000002a <_ISWS_USB_DIS>:
_ISWS_USB_DIS():
/cygdrive/c/Users/SwaminathanK/AndeSight3/workspace/DSP_cfft_q15_benchmark_N/Debug/../boot/cstartup_flash.S:275
/*
* swire usb enable default.when dp and dm use as GPIO, it has a risk to trigger the swire through usb function
* to do something unexcept when toggle dp pin
*/
_ISWS_USB_DIS:
	lui		t0, 0x80100
  2a:	801002b7          	lui	t0,0x80100
/cygdrive/c/Users/SwaminathanK/AndeSight3/workspace/DSP_cfft_q15_benchmark_N/Debug/../boot/cstartup_flash.S:276
	addi	t0 , t0 , 0x700
  2e:	70028293          	addi	t0,t0,1792 # 80100700 <_DATA_LMA_START+0x600f9b28>
/cygdrive/c/Users/SwaminathanK/AndeSight3/workspace/DSP_cfft_q15_benchmark_N/Debug/../boot/cstartup_flash.S:277
	li		t1, 0x40
  32:	04000313          	li	t1,64
/cygdrive/c/Users/SwaminathanK/AndeSight3/workspace/DSP_cfft_q15_benchmark_N/Debug/../boot/cstartup_flash.S:278
	sb		t1, 0x501(t0)  //0x80100c01 -> 0x40  <7>: 0 swire_usb_dis
  36:	506280a3          	sb	t1,1281(t0)
/cygdrive/c/Users/SwaminathanK/AndeSight3/workspace/DSP_cfft_q15_benchmark_N/Debug/../boot/cstartup_flash.S:281

	/* Initialize stack pointer */
    la     t0, _STACK_TOP
  3a:	000a0297          	auipc	t0,0xa0
  3e:	fc628293          	addi	t0,t0,-58 # a0000 <_STACK_TOP>
/cygdrive/c/Users/SwaminathanK/AndeSight3/workspace/DSP_cfft_q15_benchmark_N/Debug/../boot/cstartup_flash.S:282
    mv     sp, t0
  42:	8116                	c.mv	sp,t0
/cygdrive/c/Users/SwaminathanK/AndeSight3/workspace/DSP_cfft_q15_benchmark_N/Debug/../boot/cstartup_flash.S:286

#ifdef __nds_execit
	/* Initialize EXEC.IT table */
	la t0, _ITB_BASE_
  44:	00000297          	auipc	t0,0x0
  48:	fbc28293          	addi	t0,t0,-68 # 0 <_IRESET_ENTRY>
/cygdrive/c/Users/SwaminathanK/AndeSight3/workspace/DSP_cfft_q15_benchmark_N/Debug/../boot/cstartup_flash.S:287
	csrw uitb, t0
  4c:	80029073          	csrw	uitb,t0
/cygdrive/c/Users/SwaminathanK/AndeSight3/workspace/DSP_cfft_q15_benchmark_N/Debug/../boot/cstartup_flash.S:292
#endif

#ifdef __riscv_flen
	/* Enable FPU */
	li t0, 0x00006000
  50:	6299                	c.lui	t0,0x6
/cygdrive/c/Users/SwaminathanK/AndeSight3/workspace/DSP_cfft_q15_benchmark_N/Debug/../boot/cstartup_flash.S:293
	csrrs t0, mstatus, t0
  52:	3002a2f3          	csrrs	t0,mstatus,t0
/cygdrive/c/Users/SwaminathanK/AndeSight3/workspace/DSP_cfft_q15_benchmark_N/Debug/../boot/cstartup_flash.S:295
	/* Initialize FCSR */
	fscsr zero
  56:	00301073          	fssr	zero
/cygdrive/c/Users/SwaminathanK/AndeSight3/workspace/DSP_cfft_q15_benchmark_N/Debug/../boot/cstartup_flash.S:299
#endif

    /* Initial machine trap-vector Base */
    la     t0, __vectors
  5a:	00001297          	auipc	t0,0x1
  5e:	0a628293          	addi	t0,t0,166 # 1100 <__vectors>
/cygdrive/c/Users/SwaminathanK/AndeSight3/workspace/DSP_cfft_q15_benchmark_N/Debug/../boot/cstartup_flash.S:300
    csrw   mtvec, t0
  62:	30529073          	csrw	mtvec,t0
/cygdrive/c/Users/SwaminathanK/AndeSight3/workspace/DSP_cfft_q15_benchmark_N/Debug/../boot/cstartup_flash.S:303

    /* Enable vectored external plic interrupt */
    csrsi  mmisc_ctl, 2
  66:	7d016073          	csrsi	mmisc_ctl,2
/cygdrive/c/Users/SwaminathanK/AndeSight3/workspace/DSP_cfft_q15_benchmark_N/Debug/../boot/cstartup_flash.S:306

	/*vector mode enable bit (VECTORED) of the Feature Enable Register */
    lui		t0, 0xe4000
  6a:	e40002b7          	lui	t0,0xe4000
/cygdrive/c/Users/SwaminathanK/AndeSight3/workspace/DSP_cfft_q15_benchmark_N/Debug/../boot/cstartup_flash.S:307
	li		t1, 0x02
  6e:	4309                	c.li	t1,2
/cygdrive/c/Users/SwaminathanK/AndeSight3/workspace/DSP_cfft_q15_benchmark_N/Debug/../boot/cstartup_flash.S:308
	sw		t1, 0x0(t0)		 //(*(volatile unsigned long*)(0xe4000000))= 0x02
  70:	0062a023          	sw	t1,0(t0) # e4000000 <_DATA_LMA_START+0xc3ff9428>
/cygdrive/c/Users/SwaminathanK/AndeSight3/workspace/DSP_cfft_q15_benchmark_N/Debug/../boot/cstartup_flash.S:311

    /* Enable I/D-Cache */
    csrr   t0,  mcache_ctl
  74:	7ca022f3          	csrr	t0,mcache_ctl
/cygdrive/c/Users/SwaminathanK/AndeSight3/workspace/DSP_cfft_q15_benchmark_N/Debug/../boot/cstartup_flash.S:312
    ori    t0,  t0,  1  #/I-Cache
  78:	0012e293          	ori	t0,t0,1
/cygdrive/c/Users/SwaminathanK/AndeSight3/workspace/DSP_cfft_q15_benchmark_N/Debug/../boot/cstartup_flash.S:313
    ori    t0,  t0,  2  #/D-Cache
  7c:	0022e293          	ori	t0,t0,2
/cygdrive/c/Users/SwaminathanK/AndeSight3/workspace/DSP_cfft_q15_benchmark_N/Debug/../boot/cstartup_flash.S:314
    csrw   mcache_ctl,  t0
  80:	7ca29073          	csrw	mcache_ctl,t0
/cygdrive/c/Users/SwaminathanK/AndeSight3/workspace/DSP_cfft_q15_benchmark_N/Debug/../boot/cstartup_flash.S:315
    fence.i
  84:	0000100f          	fence.i

00000088 <_WAKEUP_FLASH>:
_WAKEUP_FLASH():
/cygdrive/c/Users/SwaminathanK/AndeSight3/workspace/DSP_cfft_q15_benchmark_N/Debug/../boot/cstartup_flash.S:320


/* flash wakeup */
_WAKEUP_FLASH:
	lui		t0 , 0x80140
  88:	801402b7          	lui	t0,0x80140
/cygdrive/c/Users/SwaminathanK/AndeSight3/workspace/DSP_cfft_q15_benchmark_N/Debug/../boot/cstartup_flash.S:321
	li		t1 , 0xff
  8c:	0ff00313          	li	t1,255
/cygdrive/c/Users/SwaminathanK/AndeSight3/workspace/DSP_cfft_q15_benchmark_N/Debug/../boot/cstartup_flash.S:322
	li		t2 , 0x0
  90:	4381                	c.li	t2,0
/cygdrive/c/Users/SwaminathanK/AndeSight3/workspace/DSP_cfft_q15_benchmark_N/Debug/../boot/cstartup_flash.S:323
	li		t3 , 0xab
  92:	0ab00e13          	li	t3,171
/cygdrive/c/Users/SwaminathanK/AndeSight3/workspace/DSP_cfft_q15_benchmark_N/Debug/../boot/cstartup_flash.S:324
	sb		t1 , 0x329(t0)			 //mspi ie enable	:0x140329:0x1f
  96:	326284a3          	sb	t1,809(t0) # 80140329 <_DATA_LMA_START+0x60139751>
/cygdrive/c/Users/SwaminathanK/AndeSight3/workspace/DSP_cfft_q15_benchmark_N/Debug/../boot/cstartup_flash.S:325
	sb		t2 , 0x101(t0)			 //cs_low			:0x140101:0x00
  9a:	107280a3          	sb	t2,257(t0)
/cygdrive/c/Users/SwaminathanK/AndeSight3/workspace/DSP_cfft_q15_benchmark_N/Debug/../boot/cstartup_flash.S:326
	sb		t3 , 0x100(t0)			 //wakeup_cmd		:0x140100:0xab
  9e:	11c28023          	sb	t3,256(t0)

000000a2 <_MSPI_WAIT>:
_MSPI_WAIT():
/cygdrive/c/Users/SwaminathanK/AndeSight3/workspace/DSP_cfft_q15_benchmark_N/Debug/../boot/cstartup_flash.S:328
_MSPI_WAIT:
	lui		t0 , 0x80140
  a2:	801402b7          	lui	t0,0x80140
/cygdrive/c/Users/SwaminathanK/AndeSight3/workspace/DSP_cfft_q15_benchmark_N/Debug/../boot/cstartup_flash.S:329
	lb		t2 , 0x102(t0)			//read reg_mspi_status FLD_MSPI_BUSY(bit0)
  a6:	10228383          	lb	t2,258(t0) # 80140102 <_DATA_LMA_START+0x6013952a>
/cygdrive/c/Users/SwaminathanK/AndeSight3/workspace/DSP_cfft_q15_benchmark_N/Debug/../boot/cstartup_flash.S:330
	li		t3 , 0x1
  aa:	4e05                	c.li	t3,1
/cygdrive/c/Users/SwaminathanK/AndeSight3/workspace/DSP_cfft_q15_benchmark_N/Debug/../boot/cstartup_flash.S:331
	li		t4 , 0x10
  ac:	4ec1                	c.li	t4,16
/cygdrive/c/Users/SwaminathanK/AndeSight3/workspace/DSP_cfft_q15_benchmark_N/Debug/../boot/cstartup_flash.S:332
	beq 	t3 , t2 ,_MSPI_WAIT
  ae:	fe7e0ae3          	beq	t3,t2,a2 <_MSPI_WAIT>
/cygdrive/c/Users/SwaminathanK/AndeSight3/workspace/DSP_cfft_q15_benchmark_N/Debug/../boot/cstartup_flash.S:333
	sb		t4 , 0x101(t0)			//cs_high			:0x140101:0x10
  b2:	11d280a3          	sb	t4,257(t0)
/cygdrive/c/Users/SwaminathanK/AndeSight3/workspace/DSP_cfft_q15_benchmark_N/Debug/../boot/cstartup_flash.S:344
	sb		t1, 0x30b(t0)		 	//0x8014030b  PB output  =  0x00
#endif

	/*flash wakeup need delay about 20us */
	/*efuse load need delay about 18us */
	li		t0, 0
  b6:	4281                	c.li	t0,0
/cygdrive/c/Users/SwaminathanK/AndeSight3/workspace/DSP_cfft_q15_benchmark_N/Debug/../boot/cstartup_flash.S:345
	li		t1, EFUSE_LOAD_AND_FLASH_WAKEUP_LOOP_NUM
  b8:	14000313          	li	t1,320

000000bc <_WAIT_EFUSE_LOAD_AND_FLASH_WAKEUP_FINISH>:
_WAIT_EFUSE_LOAD_AND_FLASH_WAKEUP_FINISH():
/cygdrive/c/Users/SwaminathanK/AndeSight3/workspace/DSP_cfft_q15_benchmark_N/Debug/../boot/cstartup_flash.S:347
_WAIT_EFUSE_LOAD_AND_FLASH_WAKEUP_FINISH:
	addi 	t0, t0 , 1
  bc:	0285                	c.addi	t0,1
/cygdrive/c/Users/SwaminathanK/AndeSight3/workspace/DSP_cfft_q15_benchmark_N/Debug/../boot/cstartup_flash.S:348
	bgeu 	t1, t0 , _WAIT_EFUSE_LOAD_AND_FLASH_WAKEUP_FINISH
  be:	fe537fe3          	bgeu	t1,t0,bc <_WAIT_EFUSE_LOAD_AND_FLASH_WAKEUP_FINISH>

000000c2 <_MULTI_ADDRESS_BEGIN>:
_MULTI_ADDRESS_BEGIN():
/cygdrive/c/Users/SwaminathanK/AndeSight3/workspace/DSP_cfft_q15_benchmark_N/Debug/../boot/cstartup_flash.S:358
	li		t1, 0x10
	sb		t1, 0x30b(t0)		 //0x8014030b  PB output  =  0x00
#endif

_MULTI_ADDRESS_BEGIN:
	lui		t0, 0x80140
  c2:	801402b7          	lui	t0,0x80140
/cygdrive/c/Users/SwaminathanK/AndeSight3/workspace/DSP_cfft_q15_benchmark_N/Debug/../boot/cstartup_flash.S:359
	la		t1, g_pm_mspi_cfg
  c6:	16800313          	li	t1,360
/cygdrive/c/Users/SwaminathanK/AndeSight3/workspace/DSP_cfft_q15_benchmark_N/Debug/../boot/cstartup_flash.S:360
	lw		t2, 0(t1)
  ca:	00032383          	lw	t2,0(t1)
/cygdrive/c/Users/SwaminathanK/AndeSight3/workspace/DSP_cfft_q15_benchmark_N/Debug/../boot/cstartup_flash.S:361
	sw		t2, 0x104(t0)			 //g_pm_mspi_cfg->0x80140104
  ce:	1072a223          	sw	t2,260(t0) # 80140104 <_DATA_LMA_START+0x6013952c>

000000d2 <_IZERO_BSS>:
_IZERO_BSS():
/cygdrive/c/Users/SwaminathanK/AndeSight3/workspace/DSP_cfft_q15_benchmark_N/Debug/../boot/cstartup_flash.S:365

	/* Zero .bss section in sram */
_IZERO_BSS:
    lui    t0, 0
  d2:	000002b7          	lui	t0,0x0
/cygdrive/c/Users/SwaminathanK/AndeSight3/workspace/DSP_cfft_q15_benchmark_N/Debug/../boot/cstartup_flash.S:366
    la     t2, _BSS_VMA_START
  d6:	00081397          	auipc	t2,0x81
  da:	5b238393          	addi	t2,t2,1458 # 81688 <_DATA_VMA_END>
/cygdrive/c/Users/SwaminathanK/AndeSight3/workspace/DSP_cfft_q15_benchmark_N/Debug/../boot/cstartup_flash.S:367
    la     t3, _BSS_VMA_END
  de:	00081e17          	auipc	t3,0x81
  e2:	5e2e0e13          	addi	t3,t3,1506 # 816c0 <_BSS_VMA_END>

000000e6 <_IZERO_BSS_BEGIN>:
_IZERO_BSS_BEGIN():
/cygdrive/c/Users/SwaminathanK/AndeSight3/workspace/DSP_cfft_q15_benchmark_N/Debug/../boot/cstartup_flash.S:369
_IZERO_BSS_BEGIN:
    bleu   t3, t2, _IZERO_AES
  e6:	01c3f663          	bgeu	t2,t3,f2 <_IZERO_AES>
/cygdrive/c/Users/SwaminathanK/AndeSight3/workspace/DSP_cfft_q15_benchmark_N/Debug/../boot/cstartup_flash.S:370
    sw     t0, 0(t2)
  ea:	0053a023          	sw	t0,0(t2)
/cygdrive/c/Users/SwaminathanK/AndeSight3/workspace/DSP_cfft_q15_benchmark_N/Debug/../boot/cstartup_flash.S:371
    addi   t2, t2, 4
  ee:	0391                	c.addi	t2,4
/cygdrive/c/Users/SwaminathanK/AndeSight3/workspace/DSP_cfft_q15_benchmark_N/Debug/../boot/cstartup_flash.S:372
    j      _IZERO_BSS_BEGIN
  f0:	bfdd                	c.j	e6 <_IZERO_BSS_BEGIN>

000000f2 <_IZERO_AES>:
_IZERO_AES():
/cygdrive/c/Users/SwaminathanK/AndeSight3/workspace/DSP_cfft_q15_benchmark_N/Debug/../boot/cstartup_flash.S:376

	/* Zero .aes section in sram */
_IZERO_AES:
    lui    t0, 0
  f2:	000002b7          	lui	t0,0x0
/cygdrive/c/Users/SwaminathanK/AndeSight3/workspace/DSP_cfft_q15_benchmark_N/Debug/../boot/cstartup_flash.S:377
    la     t2, _AES_VMA_START
  f6:	00000397          	auipc	t2,0x0
  fa:	06238393          	addi	t2,t2,98 # 158 <_AES_VMA_END>
/cygdrive/c/Users/SwaminathanK/AndeSight3/workspace/DSP_cfft_q15_benchmark_N/Debug/../boot/cstartup_flash.S:378
    la     t3, _AES_VMA_END
  fe:	00000e17          	auipc	t3,0x0
 102:	05ae0e13          	addi	t3,t3,90 # 158 <_AES_VMA_END>

00000106 <_IZERO_AES_BEGIN>:
_IZERO_AES_BEGIN():
/cygdrive/c/Users/SwaminathanK/AndeSight3/workspace/DSP_cfft_q15_benchmark_N/Debug/../boot/cstartup_flash.S:380
_IZERO_AES_BEGIN:
    bleu   t3, t2, _IFILL_STK
 106:	01c3f663          	bgeu	t2,t3,112 <_IDATA_INIT>
/cygdrive/c/Users/SwaminathanK/AndeSight3/workspace/DSP_cfft_q15_benchmark_N/Debug/../boot/cstartup_flash.S:381
    sw     t0, 0(t2)
 10a:	0053a023          	sw	t0,0(t2)
/cygdrive/c/Users/SwaminathanK/AndeSight3/workspace/DSP_cfft_q15_benchmark_N/Debug/../boot/cstartup_flash.S:382
    addi   t2, t2, 4
 10e:	0391                	c.addi	t2,4
/cygdrive/c/Users/SwaminathanK/AndeSight3/workspace/DSP_cfft_q15_benchmark_N/Debug/../boot/cstartup_flash.S:383
    j      _IZERO_AES_BEGIN
 110:	bfdd                	c.j	106 <_IZERO_AES_BEGIN>

00000112 <_IDATA_INIT>:
_IFILL_STK():
/cygdrive/c/Users/SwaminathanK/AndeSight3/workspace/DSP_cfft_q15_benchmark_N/Debug/../boot/cstartup_flash.S:402
#endif

	/* Move Data from flash to sram */
//Read the flash as late as possible to lengthen the time from the wake up to the operation of the flash.
_IDATA_INIT:
    la     t1, _DATA_LMA_START
 112:	20007317          	auipc	t1,0x20007
 116:	ac630313          	addi	t1,t1,-1338 # 20006bd8 <_DATA_LMA_START>
/cygdrive/c/Users/SwaminathanK/AndeSight3/workspace/DSP_cfft_q15_benchmark_N/Debug/../boot/cstartup_flash.S:403
    la     t2, _DATA_VMA_START
 11a:	00080397          	auipc	t2,0x80
 11e:	ee638393          	addi	t2,t2,-282 # 80000 <cst_libm_sincosf>
/cygdrive/c/Users/SwaminathanK/AndeSight3/workspace/DSP_cfft_q15_benchmark_N/Debug/../boot/cstartup_flash.S:404
    la     t3, _DATA_VMA_END
 122:	00081e17          	auipc	t3,0x81
 126:	566e0e13          	addi	t3,t3,1382 # 81688 <_DATA_VMA_END>

0000012a <_IDATA_INIT_BEGIN>:
_IDATA_INIT_BEGIN():
/cygdrive/c/Users/SwaminathanK/AndeSight3/workspace/DSP_cfft_q15_benchmark_N/Debug/../boot/cstartup_flash.S:406
_IDATA_INIT_BEGIN:
    bleu   t3, t2, _IMAIN_FUNC
 12a:	01c3f963          	bgeu	t2,t3,13c <_IMAIN_FUNC>
/cygdrive/c/Users/SwaminathanK/AndeSight3/workspace/DSP_cfft_q15_benchmark_N/Debug/../boot/cstartup_flash.S:407
    lw     t0, 0(t1)
 12e:	00032283          	lw	t0,0(t1)
/cygdrive/c/Users/SwaminathanK/AndeSight3/workspace/DSP_cfft_q15_benchmark_N/Debug/../boot/cstartup_flash.S:408
    sw     t0, 0(t2)
 132:	0053a023          	sw	t0,0(t2)
/cygdrive/c/Users/SwaminathanK/AndeSight3/workspace/DSP_cfft_q15_benchmark_N/Debug/../boot/cstartup_flash.S:409
    addi   t1, t1, 4
 136:	0311                	c.addi	t1,4
/cygdrive/c/Users/SwaminathanK/AndeSight3/workspace/DSP_cfft_q15_benchmark_N/Debug/../boot/cstartup_flash.S:410
    addi   t2, t2, 4
 138:	0391                	c.addi	t2,4
/cygdrive/c/Users/SwaminathanK/AndeSight3/workspace/DSP_cfft_q15_benchmark_N/Debug/../boot/cstartup_flash.S:411
    j      _IDATA_INIT_BEGIN
 13a:	bfc5                	c.j	12a <_IDATA_INIT_BEGIN>

0000013c <_IMAIN_FUNC>:
_IMAIN_FUNC():
/cygdrive/c/Users/SwaminathanK/AndeSight3/workspace/DSP_cfft_q15_benchmark_N/Debug/../boot/cstartup_flash.S:415

	/* Jump to the main function */
_IMAIN_FUNC:
    nop
 13c:	0001                	c.nop
/cygdrive/c/Users/SwaminathanK/AndeSight3/workspace/DSP_cfft_q15_benchmark_N/Debug/../boot/cstartup_flash.S:417

    la     t0, main
 13e:	00002297          	auipc	t0,0x2
 142:	8e228293          	addi	t0,t0,-1822 # 1a20 <main>
/cygdrive/c/Users/SwaminathanK/AndeSight3/workspace/DSP_cfft_q15_benchmark_N/Debug/../boot/cstartup_flash.S:418
    jalr   t0
 146:	9282                	c.jalr	t0
/cygdrive/c/Users/SwaminathanK/AndeSight3/workspace/DSP_cfft_q15_benchmark_N/Debug/../boot/cstartup_flash.S:420

    nop
 148:	0001                	c.nop
/cygdrive/c/Users/SwaminathanK/AndeSight3/workspace/DSP_cfft_q15_benchmark_N/Debug/../boot/cstartup_flash.S:421
    nop
 14a:	0001                	c.nop
/cygdrive/c/Users/SwaminathanK/AndeSight3/workspace/DSP_cfft_q15_benchmark_N/Debug/../boot/cstartup_flash.S:422
    nop
 14c:	0001                	c.nop
/cygdrive/c/Users/SwaminathanK/AndeSight3/workspace/DSP_cfft_q15_benchmark_N/Debug/../boot/cstartup_flash.S:423
    nop
 14e:	0001                	c.nop
/cygdrive/c/Users/SwaminathanK/AndeSight3/workspace/DSP_cfft_q15_benchmark_N/Debug/../boot/cstartup_flash.S:424
    nop
 150:	0001                	c.nop

00000152 <_IEND>:
_IEND():
/cygdrive/c/Users/SwaminathanK/AndeSight3/workspace/DSP_cfft_q15_benchmark_N/Debug/../boot/cstartup_flash.S:426
_IEND:
    j    _IEND
 152:	a001                	c.j	152 <_IEND>

Disassembly of section .ram_code:

00000200 <trap_entry>:
trap_entry():
/cygdrive/c/Users/SwaminathanK/AndeSight3/workspace/DSP_cfft_q15_benchmark_N/Debug/../vendor/common/exception.c:92
 * @brief       This function service to handle all the platform pre-defined interrupt or exception.
 * @return      none
 */
_attribute_ram_code_sec_noinline_ void trap_entry(void) __attribute__((interrupt("machine"), aligned(4)));
void trap_entry(void)
{
     200:	7175                	c.addi16sp	sp,-144
     202:	c706                	c.swsp	ra,140(sp)
     204:	c516                	c.swsp	t0,136(sp)
     206:	c31a                	c.swsp	t1,132(sp)
     208:	c11e                	c.swsp	t2,128(sp)
     20a:	deaa                	c.swsp	a0,124(sp)
     20c:	dcae                	c.swsp	a1,120(sp)
     20e:	dab2                	c.swsp	a2,116(sp)
     210:	d8b6                	c.swsp	a3,112(sp)
     212:	d6ba                	c.swsp	a4,108(sp)
     214:	d4be                	c.swsp	a5,104(sp)
     216:	d2c2                	c.swsp	a6,100(sp)
     218:	d0c6                	c.swsp	a7,96(sp)
     21a:	cef2                	c.swsp	t3,92(sp)
     21c:	ccf6                	c.swsp	t4,88(sp)
     21e:	cafa                	c.swsp	t5,84(sp)
     220:	c8fe                	c.swsp	t6,80(sp)
     222:	e682                	c.fswsp	ft0,76(sp)
     224:	e486                	c.fswsp	ft1,72(sp)
     226:	e28a                	c.fswsp	ft2,68(sp)
     228:	e08e                	c.fswsp	ft3,64(sp)
     22a:	fe12                	c.fswsp	ft4,60(sp)
     22c:	fc16                	c.fswsp	ft5,56(sp)
     22e:	fa1a                	c.fswsp	ft6,52(sp)
     230:	f81e                	c.fswsp	ft7,48(sp)
     232:	f62a                	c.fswsp	fa0,44(sp)
     234:	f42e                	c.fswsp	fa1,40(sp)
     236:	f232                	c.fswsp	fa2,36(sp)
     238:	f036                	c.fswsp	fa3,32(sp)
     23a:	ee3a                	c.fswsp	fa4,28(sp)
     23c:	ec3e                	c.fswsp	fa5,24(sp)
     23e:	ea42                	c.fswsp	fa6,20(sp)
     240:	e846                	c.fswsp	fa7,16(sp)
     242:	e672                	c.fswsp	ft8,12(sp)
     244:	e476                	c.fswsp	ft9,8(sp)
     246:	e27a                	c.fswsp	ft10,4(sp)
     248:	e07e                	c.fswsp	ft11,0(sp)
/cygdrive/c/Users/SwaminathanK/AndeSight3/workspace/DSP_cfft_q15_benchmark_N/Debug/../vendor/common/exception.c:93
    long mcause = read_csr(NDS_MCAUSE);
     24a:	34202773          	csrr	a4,mcause
     24e:	86ba                	c.mv	a3,a4
/cygdrive/c/Users/SwaminathanK/AndeSight3/workspace/DSP_cfft_q15_benchmark_N/Debug/../vendor/common/exception.c:98
    long mepc = 0;
    long mstatus = 0;
    long mxstatus = 0;

    if (g_plic_preempt_en)
     250:	000007b7          	lui	a5,0x0
     254:	18078793          	addi	a5,a5,384 # 180 <flash_read_page>
     258:	00478783          	lb	a5,4(a5)
     25c:	0ff7f793          	andi	a5,a5,255
     260:	02078263          	beqz	a5,284 <trap_entry+0x84>
/cygdrive/c/Users/SwaminathanK/AndeSight3/workspace/DSP_cfft_q15_benchmark_N/Debug/../vendor/common/exception.c:100
    {
        mepc = read_csr(NDS_MEPC);
     264:	341025f3          	csrr	a1,mepc
/cygdrive/c/Users/SwaminathanK/AndeSight3/workspace/DSP_cfft_q15_benchmark_N/Debug/../vendor/common/exception.c:101
        mstatus = read_csr(NDS_MSTATUS);
     268:	30002573          	csrr	a0,mstatus
/cygdrive/c/Users/SwaminathanK/AndeSight3/workspace/DSP_cfft_q15_benchmark_N/Debug/../vendor/common/exception.c:102
        mxstatus = read_csr(NDS_MXSTATUS);
     26c:	7c402673          	csrr	a2,mxstatus
/cygdrive/c/Users/SwaminathanK/AndeSight3/workspace/DSP_cfft_q15_benchmark_N/Debug/../vendor/common/exception.c:105
    }

    if ((mcause & 0x80000000UL) && ((mcause & 0x7FFFFFFFUL) == 7)) /* machine timer interrupt */
     270:	0006ce63          	bltz	a3,28c <trap_entry+0x8c>
/cygdrive/c/Users/SwaminathanK/AndeSight3/workspace/DSP_cfft_q15_benchmark_N/Debug/../vendor/common/exception.c:123
            clear_csr(NDS_MSTATUS, FLD_MSTATUS_MIE);
            /* re-enable the timer interrupt. */
            core_mie_enable(FLD_MIE_MTIE);
        }
    }
    else if ((mcause & 0x80000000UL) && ((mcause & 0x7FFFFFFFUL) == 3)) /* machine software interrupt */
     274:	0006d663          	bgez	a3,280 <trap_entry+0x80>
     278:	7807275b          	bfoz	a4,a4,30,0
     27c:	04375c5b          	beqc	a4,3,2d4 <trap_entry+0xd4>
/cygdrive/c/Users/SwaminathanK/AndeSight3/workspace/DSP_cfft_q15_benchmark_N/Debug/../vendor/common/exception.c:143

        plic_sw_interrupt_complete();
    }
    else /* unhandled Trap */
    {
        except_handler();
     280:	364010ef          	jal	ra,15e4 <except_handler>
/cygdrive/c/Users/SwaminathanK/AndeSight3/workspace/DSP_cfft_q15_benchmark_N/Debug/../vendor/common/exception.c:96
    long mxstatus = 0;
     284:	4601                	c.li	a2,0
/cygdrive/c/Users/SwaminathanK/AndeSight3/workspace/DSP_cfft_q15_benchmark_N/Debug/../vendor/common/exception.c:95
    long mstatus = 0;
     286:	4501                	c.li	a0,0
/cygdrive/c/Users/SwaminathanK/AndeSight3/workspace/DSP_cfft_q15_benchmark_N/Debug/../vendor/common/exception.c:94
    long mepc = 0;
     288:	4581                	c.li	a1,0
     28a:	b7dd                	c.j	270 <trap_entry+0x70>
/cygdrive/c/Users/SwaminathanK/AndeSight3/workspace/DSP_cfft_q15_benchmark_N/Debug/../vendor/common/exception.c:105
    if ((mcause & 0x80000000UL) && ((mcause & 0x7FFFFFFFUL) == 7)) /* machine timer interrupt */
     28c:	780727db          	bfoz	a5,a4,30,0
     290:	be77e25b          	bnec	a5,7,274 <trap_entry+0x74>
/cygdrive/c/Users/SwaminathanK/AndeSight3/workspace/DSP_cfft_q15_benchmark_N/Debug/../vendor/common/exception.c:107
        if (g_plic_preempt_en)
     294:	000007b7          	lui	a5,0x0
     298:	18078793          	addi	a5,a5,384 # 180 <flash_read_page>
     29c:	00478783          	lb	a5,4(a5)
     2a0:	0ff7f793          	andi	a5,a5,255
     2a4:	00078863          	beqz	a5,2b4 <trap_entry+0xb4>
core_mie_disable():
C:\Users\SwaminathanK\AndeSight3\workspace\DSP_cfft_q15_benchmark_N\drivers/core.h:156
 * @param[in] mie_mask - MIE(Machine Interrupt Enable) register mask.
 * @return  none
 */
static inline void core_mie_disable(mie_e mie_mask)
{
    clear_csr(NDS_MIE, mie_mask);
     2a8:	08000793          	li	a5,128
     2ac:	3047b7f3          	csrrc	a5,mie,a5
trap_entry():
/cygdrive/c/Users/SwaminathanK/AndeSight3/workspace/DSP_cfft_q15_benchmark_N/Debug/../vendor/common/exception.c:111
            set_csr(NDS_MSTATUS, FLD_MSTATUS_MIE);
     2b0:	300467f3          	csrrsi	a5,mstatus,8
/cygdrive/c/Users/SwaminathanK/AndeSight3/workspace/DSP_cfft_q15_benchmark_N/Debug/../vendor/common/exception.c:116
        if (g_plic_preempt_en)
     2b4:	000007b7          	lui	a5,0x0
     2b8:	18078793          	addi	a5,a5,384 # 180 <flash_read_page>
     2bc:	00478783          	lb	a5,4(a5)
     2c0:	0ff7f793          	andi	a5,a5,255
     2c4:	c7b1                	c.beqz	a5,310 <trap_entry+0x110>
/cygdrive/c/Users/SwaminathanK/AndeSight3/workspace/DSP_cfft_q15_benchmark_N/Debug/../vendor/common/exception.c:118
            clear_csr(NDS_MSTATUS, FLD_MSTATUS_MIE);
     2c6:	300477f3          	csrrci	a5,mstatus,8
core_mie_enable():
C:\Users\SwaminathanK\AndeSight3\workspace\DSP_cfft_q15_benchmark_N\drivers/core.h:146
    set_csr(NDS_MIE, mie_mask);
     2ca:	08000793          	li	a5,128
     2ce:	3047a7f3          	csrrs	a5,mie,a5
     2d2:	a83d                	c.j	310 <trap_entry+0x110>
plic_sw_interrupt_claim():
C:\Users\SwaminathanK\AndeSight3\workspace\DSP_cfft_q15_benchmark_N\drivers/plic_sw.h:87
 * @return   It returns the software interrupt source id.
 * @note     The claim signal needs to be generated manually in the interrupt service routine.
 */
static inline unsigned int plic_sw_interrupt_claim(void)
{
    return reg_irq_sw_done;
     2d4:	e66007b7          	lui	a5,0xe6600
     2d8:	43dc                	c.lw	a5,4(a5)
trap_entry():
/cygdrive/c/Users/SwaminathanK/AndeSight3/workspace/DSP_cfft_q15_benchmark_N/Debug/../vendor/common/exception.c:127
        if (g_plic_preempt_en)
     2da:	000007b7          	lui	a5,0x0
     2de:	18078793          	addi	a5,a5,384 # 180 <flash_read_page>
     2e2:	00478783          	lb	a5,4(a5)
     2e6:	0ff7f793          	andi	a5,a5,255
     2ea:	c399                	c.beqz	a5,2f0 <trap_entry+0xf0>
/cygdrive/c/Users/SwaminathanK/AndeSight3/workspace/DSP_cfft_q15_benchmark_N/Debug/../vendor/common/exception.c:129
            set_csr(NDS_MSTATUS, FLD_MSTATUS_MIE);
     2ec:	300467f3          	csrrsi	a5,mstatus,8
/cygdrive/c/Users/SwaminathanK/AndeSight3/workspace/DSP_cfft_q15_benchmark_N/Debug/../vendor/common/exception.c:134
        if (g_plic_preempt_en)
     2f0:	000007b7          	lui	a5,0x0
     2f4:	18078793          	addi	a5,a5,384 # 180 <flash_read_page>
     2f8:	00478783          	lb	a5,4(a5)
     2fc:	0ff7f793          	andi	a5,a5,255
     300:	00078463          	beqz	a5,308 <trap_entry+0x108>
/cygdrive/c/Users/SwaminathanK/AndeSight3/workspace/DSP_cfft_q15_benchmark_N/Debug/../vendor/common/exception.c:136
            clear_csr(NDS_MSTATUS, FLD_MSTATUS_MIE);
     304:	300477f3          	csrrci	a5,mstatus,8
plic_sw_interrupt_complete():
C:\Users\SwaminathanK\AndeSight3\workspace\DSP_cfft_q15_benchmark_N\drivers/plic_sw.h:97
 * @return   none
 * @note     Software interrupts need to be completed before exiting the interrupt service routine to ensure that software interrupts are fully released..
 */
static inline void plic_sw_interrupt_complete()
{
    reg_irq_sw_done = FLD_PLIC_SW_ID;
     308:	e66007b7          	lui	a5,0xe6600
     30c:	4705                	c.li	a4,1
     30e:	c3d8                	c.sw	a4,4(a5)
trap_entry():
/cygdrive/c/Users/SwaminathanK/AndeSight3/workspace/DSP_cfft_q15_benchmark_N/Debug/../vendor/common/exception.c:146
    }

    if (g_plic_preempt_en)
     310:	000007b7          	lui	a5,0x0
     314:	18078793          	addi	a5,a5,384 # 180 <flash_read_page>
     318:	00478783          	lb	a5,4(a5)
     31c:	0ff7f793          	andi	a5,a5,255
     320:	00078863          	beqz	a5,330 <trap_entry+0x130>
/cygdrive/c/Users/SwaminathanK/AndeSight3/workspace/DSP_cfft_q15_benchmark_N/Debug/../vendor/common/exception.c:148
    {
        write_csr(NDS_MSTATUS, mstatus);
     324:	30051073          	csrw	mstatus,a0
/cygdrive/c/Users/SwaminathanK/AndeSight3/workspace/DSP_cfft_q15_benchmark_N/Debug/../vendor/common/exception.c:149
        write_csr(NDS_MEPC, mepc);
     328:	34159073          	csrw	mepc,a1
/cygdrive/c/Users/SwaminathanK/AndeSight3/workspace/DSP_cfft_q15_benchmark_N/Debug/../vendor/common/exception.c:150
        write_csr(NDS_MXSTATUS, mxstatus);
     32c:	7c461073          	csrw	mxstatus,a2
/cygdrive/c/Users/SwaminathanK/AndeSight3/workspace/DSP_cfft_q15_benchmark_N/Debug/../vendor/common/exception.c:152
    }
}
     330:	40ba                	c.lwsp	ra,140(sp)
     332:	42aa                	c.lwsp	t0,136(sp)
     334:	431a                	c.lwsp	t1,132(sp)
     336:	438a                	c.lwsp	t2,128(sp)
     338:	5576                	c.lwsp	a0,124(sp)
     33a:	55e6                	c.lwsp	a1,120(sp)
     33c:	5656                	c.lwsp	a2,116(sp)
     33e:	56c6                	c.lwsp	a3,112(sp)
     340:	5736                	c.lwsp	a4,108(sp)
     342:	57a6                	c.lwsp	a5,104(sp)
     344:	5816                	c.lwsp	a6,100(sp)
     346:	5886                	c.lwsp	a7,96(sp)
     348:	4e76                	c.lwsp	t3,92(sp)
     34a:	4ee6                	c.lwsp	t4,88(sp)
     34c:	4f56                	c.lwsp	t5,84(sp)
     34e:	4fc6                	c.lwsp	t6,80(sp)
     350:	6036                	c.flwsp	ft0,76(sp)
     352:	60a6                	c.flwsp	ft1,72(sp)
     354:	6116                	c.flwsp	ft2,68(sp)
     356:	6186                	c.flwsp	ft3,64(sp)
     358:	7272                	c.flwsp	ft4,60(sp)
     35a:	72e2                	c.flwsp	ft5,56(sp)
     35c:	7352                	c.flwsp	ft6,52(sp)
     35e:	73c2                	c.flwsp	ft7,48(sp)
     360:	7532                	c.flwsp	fa0,44(sp)
     362:	75a2                	c.flwsp	fa1,40(sp)
     364:	7612                	c.flwsp	fa2,36(sp)
     366:	7682                	c.flwsp	fa3,32(sp)
     368:	6772                	c.flwsp	fa4,28(sp)
     36a:	67e2                	c.flwsp	fa5,24(sp)
     36c:	6852                	c.flwsp	fa6,20(sp)
     36e:	68c2                	c.flwsp	fa7,16(sp)
     370:	6e32                	c.flwsp	ft8,12(sp)
     372:	6ea2                	c.flwsp	ft9,8(sp)
     374:	6f12                	c.flwsp	ft10,4(sp)
     376:	6f82                	c.flwsp	ft11,0(sp)
     378:	09010113          	addi	sp,sp,144
     37c:	30200073          	mret

00000380 <analog_read_reg8>:
core_interrupt_disable():
C:\Users\SwaminathanK\AndeSight3\workspace\DSP_cfft_q15_benchmark_N\drivers/core.h:114
	unsigned int r = read_csr (NDS_MSTATUS)&FLD_MSTATUS_MIE;
     380:	30002773          	csrr	a4,mstatus
     384:	8b21                	c.andi	a4,8
C:\Users\SwaminathanK\AndeSight3\workspace\DSP_cfft_q15_benchmark_N\drivers/core.h:115
	if(r)
     386:	c709                	c.beqz	a4,390 <analog_read_reg8+0x10>
C:\Users\SwaminathanK\AndeSight3\workspace\DSP_cfft_q15_benchmark_N\drivers/core.h:117
		clear_csr(NDS_MSTATUS,FLD_MSTATUS_MIE);//global interrupts disable
     388:	300477f3          	csrrci	a5,mstatus,8
C:\Users\SwaminathanK\AndeSight3\workspace\DSP_cfft_q15_benchmark_N\drivers/core.h:118
        fence_iorw; /* Hardware may change this value, fence IO ensures that software changes are valid. */
     38c:	0ff0000f          	fence
analog_read_reg8():
/cygdrive/c/Users/SwaminathanK/AndeSight3/workspace/DSP_cfft_q15_benchmark_N/Debug/../drivers/analog.c:107
 * @param[in]  addr - address need to be read.
 * @return     the result of read.
 */
_attribute_ram_code_sec_noinline_ unsigned char analog_read_reg8(unsigned char addr){
	unsigned int r=core_interrupt_disable();
	reg_ana_addr = addr;
     390:	801407b7          	lui	a5,0x80140
     394:	18a78023          	sb	a0,384(a5) # 80140180 <_DATA_LMA_START+0x601395a8>
/cygdrive/c/Users/SwaminathanK/AndeSight3/workspace/DSP_cfft_q15_benchmark_N/Debug/../drivers/analog.c:108
	reg_ana_len=0x1;
     398:	00100693          	li	a3,1
     39c:	18d781a3          	sb	a3,387(a5)
/cygdrive/c/Users/SwaminathanK/AndeSight3/workspace/DSP_cfft_q15_benchmark_N/Debug/../drivers/analog.c:109
    reg_ana_ctrl = FLD_ANA_CYC;
     3a0:	04000693          	li	a3,64
     3a4:	18d78123          	sb	a3,386(a5)
analog_wait():
/cygdrive/c/Users/SwaminathanK/AndeSight3/workspace/DSP_cfft_q15_benchmark_N/Debug/../drivers/analog.c:432
/**
 * @brief      This function serves to judge whether analog write/read is busy .
 * @return     none.
 */
static inline void analog_wait(){
	while(reg_ana_ctrl & FLD_ANA_BUSY){}
     3a8:	801407b7          	lui	a5,0x80140
     3ac:	18278783          	lb	a5,386(a5) # 80140182 <_DATA_LMA_START+0x601395aa>
     3b0:	fe77fc5b          	bbs	a5,7,3a8 <analog_read_reg8+0x28>
analog_read_reg8():
/cygdrive/c/Users/SwaminathanK/AndeSight3/workspace/DSP_cfft_q15_benchmark_N/Debug/../drivers/analog.c:111
	unsigned char data= reg_ana_data(0);
     3b4:	801407b7          	lui	a5,0x80140
     3b8:	18478503          	lb	a0,388(a5) # 80140184 <_DATA_LMA_START+0x601395ac>
     3bc:	0ff57513          	andi	a0,a0,255
core_restore_interrupt():
C:\Users\SwaminathanK\AndeSight3\workspace\DSP_cfft_q15_benchmark_N\drivers/core.h:131
	if(en)
     3c0:	00070663          	beqz	a4,3cc <analog_read_reg8+0x4c>
C:\Users\SwaminathanK\AndeSight3\workspace\DSP_cfft_q15_benchmark_N\drivers/core.h:133
		set_csr(NDS_MSTATUS,en);//global interrupts enable
     3c4:	30072773          	csrrs	a4,mstatus,a4
C:\Users\SwaminathanK\AndeSight3\workspace\DSP_cfft_q15_benchmark_N\drivers/core.h:134
        fence_iorw; /* Hardware may change this value, fence IO ensures that software changes are valid. */
     3c8:	0ff0000f          	fence
analog_read_reg8():
/cygdrive/c/Users/SwaminathanK/AndeSight3/workspace/DSP_cfft_q15_benchmark_N/Debug/../drivers/analog.c:115
}
     3cc:	00008067          	ret

000003d0 <analog_write_reg8>:
core_interrupt_disable():
C:\Users\SwaminathanK\AndeSight3\workspace\DSP_cfft_q15_benchmark_N\drivers/core.h:114
	unsigned int r = read_csr (NDS_MSTATUS)&FLD_MSTATUS_MIE;
     3d0:	30002773          	csrr	a4,mstatus
     3d4:	8b21                	c.andi	a4,8
C:\Users\SwaminathanK\AndeSight3\workspace\DSP_cfft_q15_benchmark_N\drivers/core.h:115
	if(r)
     3d6:	c709                	c.beqz	a4,3e0 <analog_write_reg8+0x10>
C:\Users\SwaminathanK\AndeSight3\workspace\DSP_cfft_q15_benchmark_N\drivers/core.h:117
		clear_csr(NDS_MSTATUS,FLD_MSTATUS_MIE);//global interrupts disable
     3d8:	300477f3          	csrrci	a5,mstatus,8
C:\Users\SwaminathanK\AndeSight3\workspace\DSP_cfft_q15_benchmark_N\drivers/core.h:118
        fence_iorw; /* Hardware may change this value, fence IO ensures that software changes are valid. */
     3dc:	0ff0000f          	fence
analog_write_reg8():
/cygdrive/c/Users/SwaminathanK/AndeSight3/workspace/DSP_cfft_q15_benchmark_N/Debug/../drivers/analog.c:125
	reg_ana_addr = addr;
     3e0:	801407b7          	lui	a5,0x80140
     3e4:	18a78023          	sb	a0,384(a5) # 80140180 <_DATA_LMA_START+0x601395a8>
/cygdrive/c/Users/SwaminathanK/AndeSight3/workspace/DSP_cfft_q15_benchmark_N/Debug/../drivers/analog.c:126
    reg_ana_data(0) = data;
     3e8:	18b78223          	sb	a1,388(a5)
/cygdrive/c/Users/SwaminathanK/AndeSight3/workspace/DSP_cfft_q15_benchmark_N/Debug/../drivers/analog.c:127
    reg_ana_ctrl = (FLD_ANA_CYC | FLD_ANA_RW);
     3ec:	06000693          	li	a3,96
     3f0:	18d78123          	sb	a3,386(a5)
analog_wait():
/cygdrive/c/Users/SwaminathanK/AndeSight3/workspace/DSP_cfft_q15_benchmark_N/Debug/../drivers/analog.c:432
	while(reg_ana_ctrl & FLD_ANA_BUSY){}
     3f4:	801407b7          	lui	a5,0x80140
     3f8:	18278783          	lb	a5,386(a5) # 80140182 <_DATA_LMA_START+0x601395aa>
     3fc:	fe77fc5b          	bbs	a5,7,3f4 <analog_write_reg8+0x24>
analog_write_reg8():
/cygdrive/c/Users/SwaminathanK/AndeSight3/workspace/DSP_cfft_q15_benchmark_N/Debug/../drivers/analog.c:129
	reg_ana_ctrl =0x00;
     400:	801407b7          	lui	a5,0x80140
     404:	18078123          	sb	zero,386(a5) # 80140182 <_DATA_LMA_START+0x601395aa>
core_restore_interrupt():
C:\Users\SwaminathanK\AndeSight3\workspace\DSP_cfft_q15_benchmark_N\drivers/core.h:131
	if(en)
     408:	00070663          	beqz	a4,414 <analog_write_reg8+0x44>
C:\Users\SwaminathanK\AndeSight3\workspace\DSP_cfft_q15_benchmark_N\drivers/core.h:133
		set_csr(NDS_MSTATUS,en);//global interrupts enable
     40c:	30072773          	csrrs	a4,mstatus,a4
C:\Users\SwaminathanK\AndeSight3\workspace\DSP_cfft_q15_benchmark_N\drivers/core.h:134
        fence_iorw; /* Hardware may change this value, fence IO ensures that software changes are valid. */
     410:	0ff0000f          	fence
analog_write_reg8():
/cygdrive/c/Users/SwaminathanK/AndeSight3/workspace/DSP_cfft_q15_benchmark_N/Debug/../drivers/analog.c:131
}
     414:	00008067          	ret

00000418 <analog_read_reg32>:
core_interrupt_disable():
C:\Users\SwaminathanK\AndeSight3\workspace\DSP_cfft_q15_benchmark_N\drivers/core.h:114
	unsigned int r = read_csr (NDS_MSTATUS)&FLD_MSTATUS_MIE;
     418:	300027f3          	csrr	a5,mstatus
     41c:	8ba1                	c.andi	a5,8
C:\Users\SwaminathanK\AndeSight3\workspace\DSP_cfft_q15_benchmark_N\drivers/core.h:115
	if(r)
     41e:	c789                	c.beqz	a5,428 <analog_read_reg32+0x10>
C:\Users\SwaminathanK\AndeSight3\workspace\DSP_cfft_q15_benchmark_N\drivers/core.h:117
		clear_csr(NDS_MSTATUS,FLD_MSTATUS_MIE);//global interrupts disable
     420:	30047773          	csrrci	a4,mstatus,8
C:\Users\SwaminathanK\AndeSight3\workspace\DSP_cfft_q15_benchmark_N\drivers/core.h:118
        fence_iorw; /* Hardware may change this value, fence IO ensures that software changes are valid. */
     424:	0ff0000f          	fence
analog_read_reg32():
/cygdrive/c/Users/SwaminathanK/AndeSight3/workspace/DSP_cfft_q15_benchmark_N/Debug/../drivers/analog.c:176
	reg_ana_len = 4;
     428:	80140737          	lui	a4,0x80140
     42c:	00400693          	li	a3,4
     430:	18d701a3          	sb	a3,387(a4) # 80140183 <_DATA_LMA_START+0x601395ab>
/cygdrive/c/Users/SwaminathanK/AndeSight3/workspace/DSP_cfft_q15_benchmark_N/Debug/../drivers/analog.c:177
	reg_ana_addr = addr;
     434:	18a70023          	sb	a0,384(a4)
/cygdrive/c/Users/SwaminathanK/AndeSight3/workspace/DSP_cfft_q15_benchmark_N/Debug/../drivers/analog.c:178
	reg_ana_ctrl = FLD_ANA_CYC;
     438:	04000693          	li	a3,64
     43c:	18d70123          	sb	a3,386(a4)
analog_wait():
/cygdrive/c/Users/SwaminathanK/AndeSight3/workspace/DSP_cfft_q15_benchmark_N/Debug/../drivers/analog.c:432
	while(reg_ana_ctrl & FLD_ANA_BUSY){}
     440:	80140737          	lui	a4,0x80140
     444:	18270703          	lb	a4,386(a4) # 80140182 <_DATA_LMA_START+0x601395aa>
     448:	fe777c5b          	bbs	a4,7,440 <analog_read_reg32+0x28>
analog_read_reg32():
/cygdrive/c/Users/SwaminathanK/AndeSight3/workspace/DSP_cfft_q15_benchmark_N/Debug/../drivers/analog.c:180
	unsigned int data=reg_ana_addr_data32;
     44c:	80140737          	lui	a4,0x80140
     450:	18472503          	lw	a0,388(a4) # 80140184 <_DATA_LMA_START+0x601395ac>
core_restore_interrupt():
C:\Users\SwaminathanK\AndeSight3\workspace\DSP_cfft_q15_benchmark_N\drivers/core.h:131
	if(en)
     454:	00078663          	beqz	a5,460 <analog_read_reg32+0x48>
C:\Users\SwaminathanK\AndeSight3\workspace\DSP_cfft_q15_benchmark_N\drivers/core.h:133
		set_csr(NDS_MSTATUS,en);//global interrupts enable
     458:	3007a7f3          	csrrs	a5,mstatus,a5
C:\Users\SwaminathanK\AndeSight3\workspace\DSP_cfft_q15_benchmark_N\drivers/core.h:134
        fence_iorw; /* Hardware may change this value, fence IO ensures that software changes are valid. */
     45c:	0ff0000f          	fence
analog_read_reg32():
/cygdrive/c/Users/SwaminathanK/AndeSight3/workspace/DSP_cfft_q15_benchmark_N/Debug/../drivers/analog.c:183
}
     460:	00008067          	ret

00000464 <clock_get_32k_tick>:
clock_get_32k_tick():
/cygdrive/c/Users/SwaminathanK/AndeSight3/workspace/DSP_cfft_q15_benchmark_N/Debug/../drivers/clock.c:242
 * modify by yi.bao,confirmed by guangjun at 20210105
 * Use digital register way to get 32k tick may read error tick,cause the wakeup time is
 * incorrect with the setting time,the sleep time will very little or very big,will not wakeup on time.
 */
_attribute_ram_code_sec_noinline_ unsigned int clock_get_32k_tick(void)
{
     464:	1141                	c.addi	sp,-16
     466:	c606                	c.swsp	ra,12(sp)
     468:	c422                	c.swsp	s0,8(sp)
/cygdrive/c/Users/SwaminathanK/AndeSight3/workspace/DSP_cfft_q15_benchmark_N/Debug/../drivers/clock.c:250

    //In the system timer auto mode, when writing a tick value to the system tick, if the writing operation overlaps
    //with the 32k rising edge, the writing operation will be unsuccessful. When reading the 32k tick value,
    //first wait for the rising edge to pass to avoid overlap with the subsequent write tick value operation.
    //modify by weihua.zhang, confirmed by jianzhi at 20210126
	t0 = analog_read_reg32(0x60);
     46a:	06000513          	li	a0,96
     46e:	376d                	c.jal	418 <analog_read_reg32>
     470:	00a00433          	add	s0,zero,a0
/cygdrive/c/Users/SwaminathanK/AndeSight3/workspace/DSP_cfft_q15_benchmark_N/Debug/../drivers/clock.c:253
	while(1)
	{
		t1 = analog_read_reg32(0x60);
     474:	06000513          	li	a0,96
     478:	3745                	c.jal	418 <analog_read_reg32>
/cygdrive/c/Users/SwaminathanK/AndeSight3/workspace/DSP_cfft_q15_benchmark_N/Debug/../drivers/clock.c:254
		if((t1-t0) == 1)
     47a:	408507b3          	sub	a5,a0,s0
     47e:	0017d75b          	beqc	a5,1,48c <clock_get_32k_tick+0x28>
/cygdrive/c/Users/SwaminathanK/AndeSight3/workspace/DSP_cfft_q15_benchmark_N/Debug/../drivers/clock.c:258
		{
			return t1;
		}
		else if(t1-t0)
     482:	00a41363          	bne	s0,a0,488 <clock_get_32k_tick+0x24>
     486:	8522                	c.mv	a0,s0
     488:	842a                	c.mv	s0,a0
     48a:	b7ed                	c.j	474 <clock_get_32k_tick+0x10>
/cygdrive/c/Users/SwaminathanK/AndeSight3/workspace/DSP_cfft_q15_benchmark_N/Debug/../drivers/clock.c:263
		{
			t0 = t1;
		}
	}
}
     48c:	40b2                	c.lwsp	ra,12(sp)
     48e:	4422                	c.lwsp	s0,8(sp)
     490:	0141                	c.addi	sp,16
     492:	8082                	c.jr	ra

00000494 <clock_set_32k_tick>:
clock_set_32k_tick():
/cygdrive/c/Users/SwaminathanK/AndeSight3/workspace/DSP_cfft_q15_benchmark_N/Debug/../drivers/clock.c:205
	reg_system_ctrl |= FLD_SYSTEM_32K_WR_EN;//r_32k_wr = 1;
     494:	80140737          	lui	a4,0x80140
     498:	20a70783          	lb	a5,522(a4) # 8014020a <_DATA_LMA_START+0x60139632>
     49c:	0ff7f793          	andi	a5,a5,255
     4a0:	0017e793          	ori	a5,a5,1
     4a4:	20f70523          	sb	a5,522(a4)
/cygdrive/c/Users/SwaminathanK/AndeSight3/workspace/DSP_cfft_q15_benchmark_N/Debug/../drivers/clock.c:206
	while(reg_system_st & FLD_SYSTEM_RD_BUSY);
     4a8:	801407b7          	lui	a5,0x80140
     4ac:	20b78783          	lb	a5,523(a5) # 8014020b <_DATA_LMA_START+0x60139633>
     4b0:	fe67fc5b          	bbs	a5,6,4a8 <clock_set_32k_tick+0x14>
/cygdrive/c/Users/SwaminathanK/AndeSight3/workspace/DSP_cfft_q15_benchmark_N/Debug/../drivers/clock.c:207
	reg_system_timer_set_32k = tick;
     4b4:	801407b7          	lui	a5,0x80140
     4b8:	20a7a623          	sw	a0,524(a5) # 8014020c <_DATA_LMA_START+0x60139634>
/cygdrive/c/Users/SwaminathanK/AndeSight3/workspace/DSP_cfft_q15_benchmark_N/Debug/../drivers/clock.c:209
	reg_system_st = FLD_SYSTEM_CMD_SYNC;//cmd_sync = 1,trig write
     4bc:	4721                	c.li	a4,8
     4be:	20e785a3          	sb	a4,523(a5)
/cygdrive/c/Users/SwaminathanK/AndeSight3/workspace/DSP_cfft_q15_benchmark_N/Debug/../drivers/clock.c:211
	__asm__("nop");__asm__("nop");__asm__("nop");__asm__("nop");
     4c2:	0001                	c.nop
     4c4:	0001                	c.nop
     4c6:	0001                	c.nop
     4c8:	0001                	c.nop
/cygdrive/c/Users/SwaminathanK/AndeSight3/workspace/DSP_cfft_q15_benchmark_N/Debug/../drivers/clock.c:212
	__asm__("nop");__asm__("nop");__asm__("nop");__asm__("nop");
     4ca:	0001                	c.nop
     4cc:	0001                	c.nop
     4ce:	0001                	c.nop
     4d0:	0001                	c.nop
/cygdrive/c/Users/SwaminathanK/AndeSight3/workspace/DSP_cfft_q15_benchmark_N/Debug/../drivers/clock.c:213
	__asm__("nop");__asm__("nop");__asm__("nop");__asm__("nop");
     4d2:	0001                	c.nop
     4d4:	0001                	c.nop
     4d6:	0001                	c.nop
     4d8:	0001                	c.nop
/cygdrive/c/Users/SwaminathanK/AndeSight3/workspace/DSP_cfft_q15_benchmark_N/Debug/../drivers/clock.c:214
	__asm__("nop");__asm__("nop");__asm__("nop");__asm__("nop");
     4da:	0001                	c.nop
     4dc:	0001                	c.nop
     4de:	0001                	c.nop
     4e0:	00000013          	nop
/cygdrive/c/Users/SwaminathanK/AndeSight3/workspace/DSP_cfft_q15_benchmark_N/Debug/../drivers/clock.c:215
	while(reg_system_st & FLD_SYSTEM_CMD_SYNC);//wait wr_busy = 0
     4e4:	801407b7          	lui	a5,0x80140
     4e8:	20b78783          	lb	a5,523(a5) # 8014020b <_DATA_LMA_START+0x60139633>
     4ec:	fe37fc5b          	bbs	a5,3,4e4 <clock_set_32k_tick+0x50>
/cygdrive/c/Users/SwaminathanK/AndeSight3/workspace/DSP_cfft_q15_benchmark_N/Debug/../drivers/clock.c:217
}
     4f0:	00008067          	ret

000004f4 <clock_init_ram>:
clock_init_ram():
/cygdrive/c/Users/SwaminathanK/AndeSight3/workspace/DSP_cfft_q15_benchmark_N/Debug/../drivers/clock.c:291
		sys_clock_src_e src,
		sys_pll_div_to_cclk_e cclk_div,
		sys_cclk_div_to_hclk_e hclk_div,
		sys_hclk_div_to_pclk_e pclk_div,
		sys_pll_div_to_mspi_clk_e mspi_clk_div)
{
     4f4:	1101                	c.addi	sp,-32
     4f6:	ce06                	c.swsp	ra,28(sp)
     4f8:	cc22                	c.swsp	s0,24(sp)
     4fa:	ca26                	c.swsp	s1,20(sp)
     4fc:	c84a                	c.swsp	s2,16(sp)
     4fe:	c64e                	c.swsp	s3,12(sp)
     500:	c452                	c.swsp	s4,8(sp)
     502:	c256                	c.swsp	s5,4(sp)
     504:	c05a                	c.swsp	s6,0(sp)
     506:	842a                	c.mv	s0,a0
     508:	892e                	c.mv	s2,a1
     50a:	8ab2                	c.mv	s5,a2
     50c:	84b6                	c.mv	s1,a3
     50e:	8a3a                	c.mv	s4,a4
     510:	00f009b3          	add	s3,zero,a5
mspi_wait():
/cygdrive/c/Users/SwaminathanK/AndeSight3/workspace/DSP_cfft_q15_benchmark_N/Debug/../drivers/mspi.h:46
/**
  * @brief     This function servers to set the spi wait.
  * @return    none.
  */
_attribute_ram_code_sec_ static inline void mspi_wait(void){
	while(reg_mspi_status & FLD_MSPI_BUSY);
     514:	801407b7          	lui	a5,0x80140
     518:	10278783          	lb	a5,258(a5) # 80140102 <_DATA_LMA_START+0x6013952a>
     51c:	fe07fc5b          	bbs	a5,0,514 <clock_init_ram+0x20>
mspi_high():
/cygdrive/c/Users/SwaminathanK/AndeSight3/workspace/DSP_cfft_q15_benchmark_N/Debug/../drivers/mspi.h:95
/**
 * @brief     This function servers to set spi interface csn signal.
 * @return    none.
 */
_attribute_ram_code_sec_ static inline void mspi_high(void){
	reg_mspi_fm |= FLD_MSPI_CSN;
     520:	80140737          	lui	a4,0x80140
     524:	10170783          	lb	a5,257(a4) # 80140101 <_DATA_LMA_START+0x60139529>
     528:	0ff7f793          	andi	a5,a5,255
     52c:	0107e793          	ori	a5,a5,16
     530:	10f700a3          	sb	a5,257(a4)
gpio_get_level():
/cygdrive/c/Users/SwaminathanK/AndeSight3/workspace/DSP_cfft_q15_benchmark_N/Debug/../drivers/gpio.h:263
 * @return    1: the pin's level is high.
 * 			  0: the pin's level is low.
 */
static inline _Bool gpio_get_level(gpio_pin_e pin)
{
	return BM_IS_SET(reg_gpio_in(pin), pin & 0xff);
     534:	801407b7          	lui	a5,0x80140
     538:	32878783          	lb	a5,808(a5) # 80140328 <_DATA_LMA_START+0x60139750>
mspi_stop_xip():
/cygdrive/c/Users/SwaminathanK/AndeSight3/workspace/DSP_cfft_q15_benchmark_N/Debug/../drivers/mspi.h:150
 */
_attribute_ram_code_sec_ static inline void mspi_stop_xip(void)
{
	mspi_wait();	//wait xip busy=0
	mspi_high();	//mspi_cn=1, stop xip read
	while(gpio_get_level(GPIO_PF3) == 0);	//wait cn=1
     53c:	be37fc5b          	bbc	a5,3,534 <clock_init_ram+0x40>
clock_init_ram():
/cygdrive/c/Users/SwaminathanK/AndeSight3/workspace/DSP_cfft_q15_benchmark_N/Debug/../drivers/clock.c:297
	//ensure mspi is not in busy status before change mspi clock
	mspi_stop_xip();

	//first cclk/mspi_clk switch to 24rc to avoid the risk of hclk/pclk/mspi_clk exceeding its maximum configurable frequency for a short period of time
	//when switching different clock frequencies using this interface.
	write_reg8(0x1401e8, read_reg8(0x1401e8) & 0x0f);				//cclk/mspi_clk to 24M rc clock
     540:	80140b37          	lui	s6,0x80140
     544:	1e8b0783          	lb	a5,488(s6) # 801401e8 <_DATA_LMA_START+0x60139610>
     548:	8bbd                	c.andi	a5,15
     54a:	1efb0423          	sb	a5,488(s6)
/cygdrive/c/Users/SwaminathanK/AndeSight3/workspace/DSP_cfft_q15_benchmark_N/Debug/../drivers/clock.c:300

	//pll clk
	analog_write_reg8(0x80, (analog_read_reg8(0x80) & 0xe0) | ((pll >> 2) & 0x1f));
     54e:	08000513          	li	a0,128
     552:	353d                	c.jal	380 <analog_read_reg8>
     554:	0e057593          	andi	a1,a0,224
     558:	182427db          	bfoz	a5,s0,6,2
     55c:	8ddd                	c.or	a1,a5
     55e:	08000513          	li	a0,128
     562:	35bd                	c.jal	3d0 <analog_write_reg8>
/cygdrive/c/Users/SwaminathanK/AndeSight3/workspace/DSP_cfft_q15_benchmark_N/Debug/../drivers/clock.c:301
	analog_write_reg8(0x09, (analog_read_reg8(0x09) & 0xf3) | ((pll&0x03) << 2));
     564:	4525                	c.li	a0,9
     566:	3d29                	c.jal	380 <analog_read_reg8>
     568:	0f357593          	andi	a1,a0,243
     56c:	083427db          	bfoz	a5,s0,2,3
     570:	8ddd                	c.or	a1,a5
     572:	4525                	c.li	a0,9
     574:	3db1                	c.jal	3d0 <analog_write_reg8>
/cygdrive/c/Users/SwaminathanK/AndeSight3/workspace/DSP_cfft_q15_benchmark_N/Debug/../drivers/clock.c:302
	sys_clk.pll_clk = (pll >> 8);
     576:	5c84245b          	bfoz	s0,s0,23,8
     57a:	66800eab          	shgp	s0,3708 # 8167c <sys_clk>
/cygdrive/c/Users/SwaminathanK/AndeSight3/workspace/DSP_cfft_q15_benchmark_N/Debug/../drivers/clock.c:305

	//usb clock (192M/4 =48M) pll clock should be the multiple of 48, because USB clock is 48M.
	write_reg8(0x1401fb, sys_clk.pll_clk/48);
     57e:	aaaab7b7          	lui	a5,0xaaaab
     582:	aab78793          	addi	a5,a5,-1365 # aaaaaaab <_DATA_LMA_START+0x8aaa3ed3>
     586:	02f43433          	mulhu	s0,s0,a5
     58a:	3054245b          	bfoz	s0,s0,12,5
     58e:	1e8b0da3          	sb	s0,507(s6)
/cygdrive/c/Users/SwaminathanK/AndeSight3/workspace/DSP_cfft_q15_benchmark_N/Debug/../drivers/clock.c:308

	//wait for PLL stable
	analog_write_reg8(0x81, (analog_read_reg8(0x81) | BIT(6)));
     592:	08100513          	li	a0,129
     596:	33ed                	c.jal	380 <analog_read_reg8>
     598:	04056593          	ori	a1,a0,64
     59c:	0ff5f593          	andi	a1,a1,255
     5a0:	08100513          	li	a0,129
     5a4:	e2dff0ef          	jal	ra,3d0 <analog_write_reg8>
/cygdrive/c/Users/SwaminathanK/AndeSight3/workspace/DSP_cfft_q15_benchmark_N/Debug/../drivers/clock.c:309
	while(BIT(5) != (analog_read_reg8(0x88) & BIT(5)));
     5a8:	08800513          	li	a0,136
     5ac:	3bd1                	c.jal	380 <analog_read_reg8>
     5ae:	be557d5b          	bbc	a0,5,5a8 <clock_init_ram+0xb4>
/cygdrive/c/Users/SwaminathanK/AndeSight3/workspace/DSP_cfft_q15_benchmark_N/Debug/../drivers/clock.c:310
	analog_write_reg8(0x81, (analog_read_reg8(0x81) & ~BIT(6)));
     5b2:	08100513          	li	a0,129
     5b6:	33e9                	c.jal	380 <analog_read_reg8>
     5b8:	0bf57593          	andi	a1,a0,191
     5bc:	08100513          	li	a0,129
     5c0:	3d01                	c.jal	3d0 <analog_write_reg8>
/cygdrive/c/Users/SwaminathanK/AndeSight3/workspace/DSP_cfft_q15_benchmark_N/Debug/../drivers/clock.c:313

	//change mspi clock should be ram code.
	if(CCLK_TO_MSPI_CLK == mspi_clk_div)
     5c2:	0c19dd5b          	beqc	s3,1,69c <clock_init_ram+0x1a8>
/cygdrive/c/Users/SwaminathanK/AndeSight3/workspace/DSP_cfft_q15_benchmark_N/Debug/../drivers/clock.c:319
	{
		write_reg8(0x1401e8, read_reg8(0x1401e8) & 0x7f);  //bit7 0
	}
	else
	{
		write_reg8(0x1401e9, (read_reg8(0x1401e9) & 0x0f) | (mspi_clk_div<<4) );
     5c6:	801407b7          	lui	a5,0x80140
     5ca:	1e978703          	lb	a4,489(a5) # 801401e9 <_DATA_LMA_START+0x60139611>
     5ce:	00f77693          	andi	a3,a4,15
     5d2:	1079a75b          	bfoz	a4,s3,4,7
     5d6:	8f55                	c.or	a4,a3
     5d8:	1ee784a3          	sb	a4,489(a5)
/cygdrive/c/Users/SwaminathanK/AndeSight3/workspace/DSP_cfft_q15_benchmark_N/Debug/../drivers/clock.c:320
		write_reg8(0x1401e8, read_reg8(0x1401e8) | BIT(7));  //if the div is odd, should set two times to ensure the correct sequence.
     5dc:	1e878703          	lb	a4,488(a5)
     5e0:	f8076713          	ori	a4,a4,-128
     5e4:	0ff77713          	andi	a4,a4,255
     5e8:	1ee78423          	sb	a4,488(a5)
/cygdrive/c/Users/SwaminathanK/AndeSight3/workspace/DSP_cfft_q15_benchmark_N/Debug/../drivers/clock.c:321
		write_reg8(0x1401e8, read_reg8(0x1401e8) | BIT(7));
     5ec:	1e878703          	lb	a4,488(a5)
     5f0:	f8076713          	ori	a4,a4,-128
     5f4:	0ff77713          	andi	a4,a4,255
     5f8:	1ee78423          	sb	a4,488(a5)
/cygdrive/c/Users/SwaminathanK/AndeSight3/workspace/DSP_cfft_q15_benchmark_N/Debug/../drivers/clock.c:322
		sys_clk.mspi_clk = sys_clk.pll_clk / mspi_clk_div;
     5fc:	67d0572b          	lhugp	a4,3708 # 8167c <sys_clk>
     600:	03374733          	div	a4,a4,s3
     604:	67d0178b          	addigp	a5,3708 # 8167c <sys_clk>
     608:	00e782a3          	sb	a4,5(a5)
/cygdrive/c/Users/SwaminathanK/AndeSight3/workspace/DSP_cfft_q15_benchmark_N/Debug/../drivers/clock.c:326
	}

	//hclk and pclk should be set ahead of cclk, ensure the hclk and pclk not exceed the max clk(cclk max 96M, hclk max 48M, pclk max 24M)
	if(CCLK_DIV1_TO_HCLK == hclk_div)
     60c:	0a14d25b          	beqc	s1,1,6b0 <clock_init_ram+0x1bc>
/cygdrive/c/Users/SwaminathanK/AndeSight3/workspace/DSP_cfft_q15_benchmark_N/Debug/../drivers/clock.c:332
	{
		write_reg8(0x1401d8, read_reg8(0x1401d8) & ~BIT(2));
	}
	else
	{
		write_reg8(0x1401d8, read_reg8(0x1401d8) | BIT(2));
     610:	80140737          	lui	a4,0x80140
     614:	1d870783          	lb	a5,472(a4) # 801401d8 <_DATA_LMA_START+0x60139600>
     618:	0ff7f793          	andi	a5,a5,255
     61c:	0047e793          	ori	a5,a5,4
     620:	1cf70c23          	sb	a5,472(a4)
/cygdrive/c/Users/SwaminathanK/AndeSight3/workspace/DSP_cfft_q15_benchmark_N/Debug/../drivers/clock.c:336
	}

	//pclk can div1/div2/div4 from hclk.
	if(HCLK_DIV1_TO_PCLK == pclk_div)
     624:	0a1a505b          	beqc	s4,1,6c4 <clock_init_ram+0x1d0>
/cygdrive/c/Users/SwaminathanK/AndeSight3/workspace/DSP_cfft_q15_benchmark_N/Debug/../drivers/clock.c:342
	{
		write_reg8(0x1401d8, read_reg8(0x1401d8) & 0xfc);
	}
	else
	{
		write_reg8(0x1401d8, (read_reg8(0x1401d8) & 0xfc) | (pclk_div/2));
     628:	801406b7          	lui	a3,0x80140
     62c:	1d868703          	lb	a4,472(a3) # 801401d8 <_DATA_LMA_START+0x60139600>
     630:	001a5793          	srli	a5,s4,0x1
     634:	0fc77713          	andi	a4,a4,252
     638:	00e7e7b3          	or	a5,a5,a4
     63c:	1cf68c23          	sb	a5,472(a3)
/cygdrive/c/Users/SwaminathanK/AndeSight3/workspace/DSP_cfft_q15_benchmark_N/Debug/../drivers/clock.c:346
	}

	//select cclk source(RC24M/PAD24M/PAD_PLL_DIV/PAD_PLL)
	if(PAD_PLL_DIV == src)
     640:	08295c5b          	beqc	s2,2,6d8 <clock_init_ram+0x1e4>
/cygdrive/c/Users/SwaminathanK/AndeSight3/workspace/DSP_cfft_q15_benchmark_N/Debug/../drivers/clock.c:351
	{
		write_reg8(0x1401e8, (read_reg8(0x1401e8) & 0xf0) | cclk_div);
		sys_clk.cclk = sys_clk.pll_clk / cclk_div;
	}
	else if(PAD_PLL == src)
     644:	0a395e5b          	beqc	s2,3,700 <clock_init_ram+0x20c>
/cygdrive/c/Users/SwaminathanK/AndeSight3/workspace/DSP_cfft_q15_benchmark_N/Debug/../drivers/clock.c:357
	{
		sys_clk.cclk = sys_clk.pll_clk;
	}
	else
	{
		sys_clk.cclk = 24;
     648:	01800713          	li	a4,24
     64c:	66e03f8b          	sbgp	a4,3710 # 8167e <sys_clk+0x2>
/cygdrive/c/Users/SwaminathanK/AndeSight3/workspace/DSP_cfft_q15_benchmark_N/Debug/../drivers/clock.c:359
	}
	write_reg8(0x1401e8, (read_reg8(0x1401e8) & 0x8f) | (src << 4));
     650:	80140737          	lui	a4,0x80140
     654:	1e870783          	lb	a5,488(a4) # 801401e8 <_DATA_LMA_START+0x60139610>
     658:	f8f7f793          	andi	a5,a5,-113
     65c:	00491913          	slli	s2,s2,0x4
     660:	0127e933          	or	s2,a5,s2
     664:	0ff97913          	andi	s2,s2,255
     668:	1f270423          	sb	s2,488(a4)
/cygdrive/c/Users/SwaminathanK/AndeSight3/workspace/DSP_cfft_q15_benchmark_N/Debug/../drivers/clock.c:362

	//clk record.
	sys_clk.hclk = sys_clk.cclk/hclk_div;
     66c:	67d0178b          	addigp	a5,3708 # 8167c <sys_clk>
     670:	0027c703          	lbu	a4,2(a5)
     674:	029754b3          	divu	s1,a4,s1
     678:	009781a3          	sb	s1,3(a5)
/cygdrive/c/Users/SwaminathanK/AndeSight3/workspace/DSP_cfft_q15_benchmark_N/Debug/../drivers/clock.c:363
	sys_clk.pclk = sys_clk.hclk / pclk_div;
     67c:	0344d4b3          	divu	s1,s1,s4
     680:	00978223          	sb	s1,4(a5)
/cygdrive/c/Users/SwaminathanK/AndeSight3/workspace/DSP_cfft_q15_benchmark_N/Debug/../drivers/clock.c:364
	if(CCLK_TO_MSPI_CLK == mspi_clk_div){
     684:	0819d65b          	beqc	s3,1,710 <clock_init_ram+0x21c>
/cygdrive/c/Users/SwaminathanK/AndeSight3/workspace/DSP_cfft_q15_benchmark_N/Debug/../drivers/clock.c:367
		sys_clk.mspi_clk = sys_clk.cclk;
	}
}
     688:	40f2                	c.lwsp	ra,28(sp)
     68a:	4462                	c.lwsp	s0,24(sp)
     68c:	44d2                	c.lwsp	s1,20(sp)
     68e:	4942                	c.lwsp	s2,16(sp)
     690:	49b2                	c.lwsp	s3,12(sp)
     692:	4a22                	c.lwsp	s4,8(sp)
     694:	4a92                	c.lwsp	s5,4(sp)
     696:	4b02                	c.lwsp	s6,0(sp)
     698:	6105                	c.addi16sp	sp,32
     69a:	8082                	c.jr	ra
/cygdrive/c/Users/SwaminathanK/AndeSight3/workspace/DSP_cfft_q15_benchmark_N/Debug/../drivers/clock.c:315
		write_reg8(0x1401e8, read_reg8(0x1401e8) & 0x7f);  //bit7 0
     69c:	80140737          	lui	a4,0x80140
     6a0:	1e870783          	lb	a5,488(a4) # 801401e8 <_DATA_LMA_START+0x60139610>
     6a4:	07f7f793          	andi	a5,a5,127
     6a8:	1ef70423          	sb	a5,488(a4)
     6ac:	f61ff06f          	j	60c <clock_init_ram+0x118>
/cygdrive/c/Users/SwaminathanK/AndeSight3/workspace/DSP_cfft_q15_benchmark_N/Debug/../drivers/clock.c:328
		write_reg8(0x1401d8, read_reg8(0x1401d8) & ~BIT(2));
     6b0:	80140737          	lui	a4,0x80140
     6b4:	1d870783          	lb	a5,472(a4) # 801401d8 <_DATA_LMA_START+0x60139600>
     6b8:	0fb7f793          	andi	a5,a5,251
     6bc:	1cf70c23          	sb	a5,472(a4)
     6c0:	f65ff06f          	j	624 <clock_init_ram+0x130>
/cygdrive/c/Users/SwaminathanK/AndeSight3/workspace/DSP_cfft_q15_benchmark_N/Debug/../drivers/clock.c:338
		write_reg8(0x1401d8, read_reg8(0x1401d8) & 0xfc);
     6c4:	80140737          	lui	a4,0x80140
     6c8:	1d870783          	lb	a5,472(a4) # 801401d8 <_DATA_LMA_START+0x60139600>
     6cc:	0fc7f793          	andi	a5,a5,252
     6d0:	1cf70c23          	sb	a5,472(a4)
     6d4:	f6dff06f          	j	640 <clock_init_ram+0x14c>
/cygdrive/c/Users/SwaminathanK/AndeSight3/workspace/DSP_cfft_q15_benchmark_N/Debug/../drivers/clock.c:348
		write_reg8(0x1401e8, (read_reg8(0x1401e8) & 0xf0) | cclk_div);
     6d8:	80140737          	lui	a4,0x80140
     6dc:	1e870783          	lb	a5,488(a4) # 801401e8 <_DATA_LMA_START+0x60139610>
     6e0:	0f07f793          	andi	a5,a5,240
     6e4:	0157e7b3          	or	a5,a5,s5
     6e8:	1ef70423          	sb	a5,488(a4)
/cygdrive/c/Users/SwaminathanK/AndeSight3/workspace/DSP_cfft_q15_benchmark_N/Debug/../drivers/clock.c:349
		sys_clk.cclk = sys_clk.pll_clk / cclk_div;
     6ec:	67d0572b          	lhugp	a4,3708 # 8167c <sys_clk>
     6f0:	03574ab3          	div	s5,a4,s5
     6f4:	67d0178b          	addigp	a5,3708 # 8167c <sys_clk>
     6f8:	01578123          	sb	s5,2(a5)
     6fc:	f55ff06f          	j	650 <clock_init_ram+0x15c>
/cygdrive/c/Users/SwaminathanK/AndeSight3/workspace/DSP_cfft_q15_benchmark_N/Debug/../drivers/clock.c:353
		sys_clk.cclk = sys_clk.pll_clk;
     700:	67d0572b          	lhugp	a4,3708 # 8167c <sys_clk>
     704:	67d0178b          	addigp	a5,3708 # 8167c <sys_clk>
     708:	00e78123          	sb	a4,2(a5)
     70c:	f45ff06f          	j	650 <clock_init_ram+0x15c>
/cygdrive/c/Users/SwaminathanK/AndeSight3/workspace/DSP_cfft_q15_benchmark_N/Debug/../drivers/clock.c:365
		sys_clk.mspi_clk = sys_clk.cclk;
     710:	68e0708b          	sbgp	a4,3713 # 81681 <sys_clk+0x5>
     714:	f75ff06f          	j	688 <clock_init_ram+0x194>

00000718 <flash_send_cmd>:
mspi_high():
/cygdrive/c/Users/SwaminathanK/AndeSight3/workspace/DSP_cfft_q15_benchmark_N/Debug/../drivers/mspi.h:95
	reg_mspi_fm |= FLD_MSPI_CSN;
     718:	801407b7          	lui	a5,0x80140
     71c:	10178703          	lb	a4,257(a5) # 80140101 <_DATA_LMA_START+0x60139529>
     720:	0ff77713          	andi	a4,a4,255
     724:	01076713          	ori	a4,a4,16
     728:	10e780a3          	sb	a4,257(a5)
flash_send_cmd():
/cygdrive/c/Users/SwaminathanK/AndeSight3/workspace/DSP_cfft_q15_benchmark_N/Debug/../drivers/flash.c:101
 * @return		none.
 */
_attribute_ram_code_sec_noinline_ void flash_send_cmd(flash_command_e cmd)
{
	mspi_high();
	CLOCK_DLY_10_CYC;
     72c:	0001                	c.nop
     72e:	0001                	c.nop
     730:	0001                	c.nop
     732:	0001                	c.nop
     734:	0001                	c.nop
     736:	0001                	c.nop
     738:	0001                	c.nop
     73a:	0001                	c.nop
     73c:	0001                	c.nop
     73e:	0001                	c.nop
mspi_low():
/cygdrive/c/Users/SwaminathanK/AndeSight3/workspace/DSP_cfft_q15_benchmark_N/Debug/../drivers/mspi.h:103
	reg_mspi_fm &= ~FLD_MSPI_CSN;
     740:	10178703          	lb	a4,257(a5)
     744:	0ef77713          	andi	a4,a4,239
     748:	10e780a3          	sb	a4,257(a5)
mspi_write():
/cygdrive/c/Users/SwaminathanK/AndeSight3/workspace/DSP_cfft_q15_benchmark_N/Debug/../drivers/mspi.h:120
	reg_mspi_data = c;
     74c:	10a78023          	sb	a0,256(a5)
mspi_wait():
/cygdrive/c/Users/SwaminathanK/AndeSight3/workspace/DSP_cfft_q15_benchmark_N/Debug/../drivers/mspi.h:46
	while(reg_mspi_status & FLD_MSPI_BUSY);
     750:	801407b7          	lui	a5,0x80140
     754:	10278783          	lb	a5,258(a5) # 80140102 <_DATA_LMA_START+0x6013952a>
     758:	fe07fc5b          	bbs	a5,0,750 <flash_send_cmd+0x38>
flash_send_cmd():
/cygdrive/c/Users/SwaminathanK/AndeSight3/workspace/DSP_cfft_q15_benchmark_N/Debug/../drivers/flash.c:105
	mspi_low();
	mspi_write(cmd);
	mspi_wait();
}
     75c:	00008067          	ret

00000760 <flash_send_addr>:
flash_send_addr():
/cygdrive/c/Users/SwaminathanK/AndeSight3/workspace/DSP_cfft_q15_benchmark_N/Debug/../drivers/flash.c:113
 * @brief		This function serves to send flash address.
 * @param[in]	addr	- the flash address.
 * @return		none.
 */
_attribute_ram_code_sec_noinline_ static void flash_send_addr(unsigned int addr){
	mspi_write((unsigned char)(addr>>16));
     760:	5d05275b          	bfoz	a4,a0,23,16
mspi_write():
/cygdrive/c/Users/SwaminathanK/AndeSight3/workspace/DSP_cfft_q15_benchmark_N/Debug/../drivers/mspi.h:120
	reg_mspi_data = c;
     764:	801407b7          	lui	a5,0x80140
     768:	10e78023          	sb	a4,256(a5) # 80140100 <_DATA_LMA_START+0x60139528>
mspi_wait():
/cygdrive/c/Users/SwaminathanK/AndeSight3/workspace/DSP_cfft_q15_benchmark_N/Debug/../drivers/mspi.h:46
	while(reg_mspi_status & FLD_MSPI_BUSY);
     76c:	801407b7          	lui	a5,0x80140
     770:	10278783          	lb	a5,258(a5) # 80140102 <_DATA_LMA_START+0x6013952a>
     774:	fe07fc5b          	bbs	a5,0,76c <flash_send_addr+0xc>
flash_send_addr():
/cygdrive/c/Users/SwaminathanK/AndeSight3/workspace/DSP_cfft_q15_benchmark_N/Debug/../drivers/flash.c:115
	mspi_wait();
	mspi_write((unsigned char)(addr>>8));
     778:	3c8527db          	bfoz	a5,a0,15,8
mspi_write():
/cygdrive/c/Users/SwaminathanK/AndeSight3/workspace/DSP_cfft_q15_benchmark_N/Debug/../drivers/mspi.h:120
	reg_mspi_data = c;
     77c:	80140737          	lui	a4,0x80140
     780:	10f70023          	sb	a5,256(a4) # 80140100 <_DATA_LMA_START+0x60139528>
mspi_wait():
/cygdrive/c/Users/SwaminathanK/AndeSight3/workspace/DSP_cfft_q15_benchmark_N/Debug/../drivers/mspi.h:46
	while(reg_mspi_status & FLD_MSPI_BUSY);
     784:	801407b7          	lui	a5,0x80140
     788:	10278783          	lb	a5,258(a5) # 80140102 <_DATA_LMA_START+0x6013952a>
     78c:	fe07fc5b          	bbs	a5,0,784 <flash_send_addr+0x24>
flash_send_addr():
/cygdrive/c/Users/SwaminathanK/AndeSight3/workspace/DSP_cfft_q15_benchmark_N/Debug/../drivers/flash.c:117
	mspi_wait();
	mspi_write((unsigned char)(addr));
     790:	0ff57513          	andi	a0,a0,255
mspi_write():
/cygdrive/c/Users/SwaminathanK/AndeSight3/workspace/DSP_cfft_q15_benchmark_N/Debug/../drivers/mspi.h:120
	reg_mspi_data = c;
     794:	801407b7          	lui	a5,0x80140
     798:	10a78023          	sb	a0,256(a5) # 80140100 <_DATA_LMA_START+0x60139528>
mspi_wait():
/cygdrive/c/Users/SwaminathanK/AndeSight3/workspace/DSP_cfft_q15_benchmark_N/Debug/../drivers/mspi.h:46
	while(reg_mspi_status & FLD_MSPI_BUSY);
     79c:	801407b7          	lui	a5,0x80140
     7a0:	10278783          	lb	a5,258(a5) # 80140102 <_DATA_LMA_START+0x6013952a>
     7a4:	fe07fc5b          	bbs	a5,0,79c <flash_send_addr+0x3c>
flash_send_addr():
/cygdrive/c/Users/SwaminathanK/AndeSight3/workspace/DSP_cfft_q15_benchmark_N/Debug/../drivers/flash.c:119
	mspi_wait();
}
     7a8:	00008067          	ret

000007ac <flash_mspi_read_ram>:
flash_mspi_read_ram():
/cygdrive/c/Users/SwaminathanK/AndeSight3/workspace/DSP_cfft_q15_benchmark_N/Debug/../drivers/flash.c:153
 * @param[out]  data		- the start address of the data buffer(ram address).
 * @param[in]   data_len	- the length(in byte, must be above 0) of content needs to read out.
 * @return 		none.
 */
_attribute_ram_code_sec_noinline_ void flash_mspi_read_ram(flash_command_e cmd, unsigned long addr, unsigned char addr_en, unsigned char dummy_cnt, unsigned char *data, unsigned long data_len)
{
     7ac:	1101                	c.addi	sp,-32
     7ae:	ce06                	c.swsp	ra,28(sp)
     7b0:	cc22                	c.swsp	s0,24(sp)
     7b2:	ca26                	c.swsp	s1,20(sp)
     7b4:	c84a                	c.swsp	s2,16(sp)
     7b6:	c64e                	c.swsp	s3,12(sp)
     7b8:	c452                	c.swsp	s4,8(sp)
     7ba:	c256                	c.swsp	s5,4(sp)
     7bc:	c05a                	c.swsp	s6,0(sp)
     7be:	892a                	c.mv	s2,a0
     7c0:	8b2e                	c.mv	s6,a1
     7c2:	8ab2                	c.mv	s5,a2
     7c4:	8a36                	c.mv	s4,a3
     7c6:	843a                	c.mv	s0,a4
     7c8:	84be                	c.mv	s1,a5
/cygdrive/c/Users/SwaminathanK/AndeSight3/workspace/DSP_cfft_q15_benchmark_N/Debug/../drivers/flash.c:154
	unsigned int r=plic_enter_critical_sec(s_flash_preempt_config.preempt_en,s_flash_preempt_config.threshold);
     7ca:	000007b7          	lui	a5,0x0
     7ce:	15c78713          	addi	a4,a5,348 # 15c <s_flash_preempt_config>
     7d2:	00174583          	lbu	a1,1(a4)
     7d6:	15c7c503          	lbu	a0,348(a5)
     7da:	297d                	c.jal	c98 <plic_enter_critical_sec>
     7dc:	00a009b3          	add	s3,zero,a0
mspi_wait():
/cygdrive/c/Users/SwaminathanK/AndeSight3/workspace/DSP_cfft_q15_benchmark_N/Debug/../drivers/mspi.h:46
     7e0:	801407b7          	lui	a5,0x80140
     7e4:	10278783          	lb	a5,258(a5) # 80140102 <_DATA_LMA_START+0x6013952a>
     7e8:	fe07fc5b          	bbs	a5,0,7e0 <flash_mspi_read_ram+0x34>
mspi_high():
/cygdrive/c/Users/SwaminathanK/AndeSight3/workspace/DSP_cfft_q15_benchmark_N/Debug/../drivers/mspi.h:95
	reg_mspi_fm |= FLD_MSPI_CSN;
     7ec:	80140737          	lui	a4,0x80140
     7f0:	10170783          	lb	a5,257(a4) # 80140101 <_DATA_LMA_START+0x60139529>
     7f4:	0ff7f793          	andi	a5,a5,255
     7f8:	0107e793          	ori	a5,a5,16
     7fc:	10f700a3          	sb	a5,257(a4)
gpio_get_level():
/cygdrive/c/Users/SwaminathanK/AndeSight3/workspace/DSP_cfft_q15_benchmark_N/Debug/../drivers/gpio.h:263
     800:	801407b7          	lui	a5,0x80140
     804:	32878783          	lb	a5,808(a5) # 80140328 <_DATA_LMA_START+0x60139750>
mspi_stop_xip():
/cygdrive/c/Users/SwaminathanK/AndeSight3/workspace/DSP_cfft_q15_benchmark_N/Debug/../drivers/mspi.h:150
	while(gpio_get_level(GPIO_PF3) == 0);	//wait cn=1
     808:	be37fc5b          	bbc	a5,3,800 <flash_mspi_read_ram+0x54>
mspi_fm_write_en():
/cygdrive/c/Users/SwaminathanK/AndeSight3/workspace/DSP_cfft_q15_benchmark_N/Debug/../drivers/mspi.h:78
	reg_mspi_fm &= ~FLD_MSPI_RD_MODE;
     80c:	801407b7          	lui	a5,0x80140
     810:	10178703          	lb	a4,257(a5) # 80140101 <_DATA_LMA_START+0x60139529>
     814:	0fd77713          	andi	a4,a4,253
     818:	10e780a3          	sb	a4,257(a5)
mspi_fm_data_line():
/cygdrive/c/Users/SwaminathanK/AndeSight3/workspace/DSP_cfft_q15_benchmark_N/Debug/../drivers/mspi.h:87
	reg_mspi_fm = (reg_mspi_fm & (~FLD_MSPI_DATA_LINE)) | line;
     81c:	10178703          	lb	a4,257(a5)
     820:	0f377713          	andi	a4,a4,243
     824:	10e780a3          	sb	a4,257(a5)
flash_mspi_read_ram():
/cygdrive/c/Users/SwaminathanK/AndeSight3/workspace/DSP_cfft_q15_benchmark_N/Debug/../drivers/flash.c:159
	mspi_stop_xip();
	/*Flash single line mode does not distinguish between mspi read and mspi write.This is just to be compatible with single line, dual line and quad line.*/
	mspi_fm_write_en();			/* write mode */
	mspi_fm_data_line(MSPI_SINGLE_LINE);
	flash_send_cmd(cmd);
     828:	854a                	c.mv	a0,s2
     82a:	35fd                	c.jal	718 <flash_send_cmd>
/cygdrive/c/Users/SwaminathanK/AndeSight3/workspace/DSP_cfft_q15_benchmark_N/Debug/../drivers/flash.c:160
	if(cmd == FLASH_X4READ_CMD)
     82c:	0eb00793          	li	a5,235
     830:	00f90663          	beq	s2,a5,83c <flash_mspi_read_ram+0x90>
/cygdrive/c/Users/SwaminathanK/AndeSight3/workspace/DSP_cfft_q15_benchmark_N/Debug/../drivers/flash.c:164
	{
		mspi_fm_data_line(MSPI_QUAD_LINE);
	}
	if(addr_en)
     834:	020a9063          	bnez	s5,854 <flash_mspi_read_ram+0xa8>
/cygdrive/c/Users/SwaminathanK/AndeSight3/workspace/DSP_cfft_q15_benchmark_N/Debug/../drivers/flash.c:153
{
     838:	4701                	c.li	a4,0
     83a:	a82d                	c.j	874 <flash_mspi_read_ram+0xc8>
mspi_fm_data_line():
/cygdrive/c/Users/SwaminathanK/AndeSight3/workspace/DSP_cfft_q15_benchmark_N/Debug/../drivers/mspi.h:87
     83c:	80140737          	lui	a4,0x80140
     840:	10170783          	lb	a5,257(a4) # 80140101 <_DATA_LMA_START+0x60139529>
     844:	0f37f793          	andi	a5,a5,243
     848:	00c7e793          	ori	a5,a5,12
     84c:	10f700a3          	sb	a5,257(a4)
     850:	fe5ff06f          	j	834 <flash_mspi_read_ram+0x88>
flash_mspi_read_ram():
/cygdrive/c/Users/SwaminathanK/AndeSight3/workspace/DSP_cfft_q15_benchmark_N/Debug/../drivers/flash.c:166
	{
		flash_send_addr(addr);
     854:	855a                	c.mv	a0,s6
     856:	3729                	c.jal	760 <flash_send_addr>
     858:	fe1ff06f          	j	838 <flash_mspi_read_ram+0x8c>
mspi_write():
/cygdrive/c/Users/SwaminathanK/AndeSight3/workspace/DSP_cfft_q15_benchmark_N/Debug/../drivers/mspi.h:120
	reg_mspi_data = c;
     85c:	801407b7          	lui	a5,0x80140
     860:	10078023          	sb	zero,256(a5) # 80140100 <_DATA_LMA_START+0x60139528>
mspi_wait():
/cygdrive/c/Users/SwaminathanK/AndeSight3/workspace/DSP_cfft_q15_benchmark_N/Debug/../drivers/mspi.h:46
	while(reg_mspi_status & FLD_MSPI_BUSY);
     864:	801407b7          	lui	a5,0x80140
     868:	10278783          	lb	a5,258(a5) # 80140102 <_DATA_LMA_START+0x6013952a>
     86c:	fe07fc5b          	bbs	a5,0,864 <flash_mspi_read_ram+0xb8>
flash_mspi_read_ram():
/cygdrive/c/Users/SwaminathanK/AndeSight3/workspace/DSP_cfft_q15_benchmark_N/Debug/../drivers/flash.c:168
	}
	for(unsigned int i = 0; i < dummy_cnt; ++i)
     870:	00170713          	addi	a4,a4,1
     874:	ff4764e3          	bltu	a4,s4,85c <flash_mspi_read_ram+0xb0>
/cygdrive/c/Users/SwaminathanK/AndeSight3/workspace/DSP_cfft_q15_benchmark_N/Debug/../drivers/flash.c:173
	{
		mspi_write(0x00);		/* dummy */
		mspi_wait();
	}
	if(cmd == FLASH_DREAD_CMD)
     878:	05b956db          	beqc	s2,59,8c4 <flash_mspi_read_ram+0x118>
mspi_fm_read_en():
/cygdrive/c/Users/SwaminathanK/AndeSight3/workspace/DSP_cfft_q15_benchmark_N/Debug/../drivers/mspi.h:70
	reg_mspi_fm |= FLD_MSPI_RD_MODE;
     87c:	80140737          	lui	a4,0x80140
     880:	10170783          	lb	a5,257(a4) # 80140101 <_DATA_LMA_START+0x60139529>
     884:	0ff7f793          	andi	a5,a5,255
     888:	0027e793          	ori	a5,a5,2
     88c:	10f700a3          	sb	a5,257(a4)
mspi_write():
/cygdrive/c/Users/SwaminathanK/AndeSight3/workspace/DSP_cfft_q15_benchmark_N/Debug/../drivers/mspi.h:120
	reg_mspi_data = c;
     890:	10070023          	sb	zero,256(a4)
mspi_wait():
/cygdrive/c/Users/SwaminathanK/AndeSight3/workspace/DSP_cfft_q15_benchmark_N/Debug/../drivers/mspi.h:46
	while(reg_mspi_status & FLD_MSPI_BUSY);
     894:	801407b7          	lui	a5,0x80140
     898:	10278783          	lb	a5,258(a5) # 80140102 <_DATA_LMA_START+0x6013952a>
     89c:	fe07fc5b          	bbs	a5,0,894 <flash_mspi_read_ram+0xe8>
mspi_fm_rd_trig_en():
/cygdrive/c/Users/SwaminathanK/AndeSight3/workspace/DSP_cfft_q15_benchmark_N/Debug/../drivers/mspi.h:54
	reg_mspi_fm |= FLD_MSPI_RD_TRIG_EN;
     8a0:	80140737          	lui	a4,0x80140
     8a4:	10170783          	lb	a5,257(a4) # 80140101 <_DATA_LMA_START+0x60139529>
     8a8:	0ff7f793          	andi	a5,a5,255
     8ac:	0017e793          	ori	a5,a5,1
     8b0:	10f700a3          	sb	a5,257(a4)
mspi_wait():
/cygdrive/c/Users/SwaminathanK/AndeSight3/workspace/DSP_cfft_q15_benchmark_N/Debug/../drivers/mspi.h:46
	while(reg_mspi_status & FLD_MSPI_BUSY);
     8b4:	801407b7          	lui	a5,0x80140
     8b8:	10278783          	lb	a5,258(a5) # 80140102 <_DATA_LMA_START+0x6013952a>
     8bc:	fe07fc5b          	bbs	a5,0,8b4 <flash_mspi_read_ram+0x108>
flash_mspi_read_ram():
/cygdrive/c/Users/SwaminathanK/AndeSight3/workspace/DSP_cfft_q15_benchmark_N/Debug/../drivers/flash.c:182
	mspi_fm_read_en();			/* read mode */
	mspi_write(0x00);			/* to issue clock */
	mspi_wait();
	mspi_fm_rd_trig_en();		/* auto mode, mspi_get() automatically triggers mspi_write(0x00) once. */
	mspi_wait();
	for(unsigned int i = 0; i < data_len; ++i)
     8c0:	4701                	c.li	a4,0
     8c2:	a82d                	c.j	8fc <flash_mspi_read_ram+0x150>
mspi_fm_data_line():
/cygdrive/c/Users/SwaminathanK/AndeSight3/workspace/DSP_cfft_q15_benchmark_N/Debug/../drivers/mspi.h:87
	reg_mspi_fm = (reg_mspi_fm & (~FLD_MSPI_DATA_LINE)) | line;
     8c4:	80140737          	lui	a4,0x80140
     8c8:	10170783          	lb	a5,257(a4) # 80140101 <_DATA_LMA_START+0x60139529>
     8cc:	0f37f793          	andi	a5,a5,243
     8d0:	0047e793          	ori	a5,a5,4
     8d4:	10f700a3          	sb	a5,257(a4)
     8d8:	fa5ff06f          	j	87c <flash_mspi_read_ram+0xd0>
flash_mspi_read_ram():
/cygdrive/c/Users/SwaminathanK/AndeSight3/workspace/DSP_cfft_q15_benchmark_N/Debug/../drivers/flash.c:184
	{
		*data++ = mspi_get();
     8dc:	00140693          	addi	a3,s0,1
mspi_get():
/cygdrive/c/Users/SwaminathanK/AndeSight3/workspace/DSP_cfft_q15_benchmark_N/Debug/../drivers/mspi.h:111
	return reg_mspi_data;
     8e0:	801407b7          	lui	a5,0x80140
     8e4:	10078783          	lb	a5,256(a5) # 80140100 <_DATA_LMA_START+0x60139528>
flash_mspi_read_ram():
/cygdrive/c/Users/SwaminathanK/AndeSight3/workspace/DSP_cfft_q15_benchmark_N/Debug/../drivers/flash.c:184
     8e8:	00f40023          	sb	a5,0(s0)
mspi_wait():
/cygdrive/c/Users/SwaminathanK/AndeSight3/workspace/DSP_cfft_q15_benchmark_N/Debug/../drivers/mspi.h:46
	while(reg_mspi_status & FLD_MSPI_BUSY);
     8ec:	801407b7          	lui	a5,0x80140
     8f0:	10278783          	lb	a5,258(a5) # 80140102 <_DATA_LMA_START+0x6013952a>
     8f4:	fe07fc5b          	bbs	a5,0,8ec <flash_mspi_read_ram+0x140>
flash_mspi_read_ram():
/cygdrive/c/Users/SwaminathanK/AndeSight3/workspace/DSP_cfft_q15_benchmark_N/Debug/../drivers/flash.c:182
	for(unsigned int i = 0; i < data_len; ++i)
     8f8:	0705                	c.addi	a4,1
/cygdrive/c/Users/SwaminathanK/AndeSight3/workspace/DSP_cfft_q15_benchmark_N/Debug/../drivers/flash.c:184
		*data++ = mspi_get();
     8fa:	8436                	c.mv	s0,a3
/cygdrive/c/Users/SwaminathanK/AndeSight3/workspace/DSP_cfft_q15_benchmark_N/Debug/../drivers/flash.c:182
	for(unsigned int i = 0; i < data_len; ++i)
     8fc:	fe9760e3          	bltu	a4,s1,8dc <flash_mspi_read_ram+0x130>
mspi_fm_rd_trig_dis():
/cygdrive/c/Users/SwaminathanK/AndeSight3/workspace/DSP_cfft_q15_benchmark_N/Debug/../drivers/mspi.h:62
	reg_mspi_fm &= ~FLD_MSPI_RD_TRIG_EN;
     900:	80140737          	lui	a4,0x80140
     904:	10170783          	lb	a5,257(a4) # 80140101 <_DATA_LMA_START+0x60139529>
     908:	0fe7f793          	andi	a5,a5,254
     90c:	10f700a3          	sb	a5,257(a4)
flash_mspi_read_ram():
/cygdrive/c/Users/SwaminathanK/AndeSight3/workspace/DSP_cfft_q15_benchmark_N/Debug/../drivers/flash.c:188
		mspi_wait();
	}
	mspi_fm_rd_trig_dis();		/* off read auto mode */
	if((cmd == FLASH_X4READ_CMD)||(cmd == FLASH_DREAD_CMD))
     910:	0eb00793          	li	a5,235
     914:	00f90463          	beq	s2,a5,91c <flash_mspi_read_ram+0x170>
     918:	01b96adb          	bnec	s2,59,92c <flash_mspi_read_ram+0x180>
mspi_fm_data_line():
/cygdrive/c/Users/SwaminathanK/AndeSight3/workspace/DSP_cfft_q15_benchmark_N/Debug/../drivers/mspi.h:87
	reg_mspi_fm = (reg_mspi_fm & (~FLD_MSPI_DATA_LINE)) | line;
     91c:	80140737          	lui	a4,0x80140
     920:	10170783          	lb	a5,257(a4) # 80140101 <_DATA_LMA_START+0x60139529>
     924:	0f37f793          	andi	a5,a5,243
     928:	10f700a3          	sb	a5,257(a4)
mspi_high():
/cygdrive/c/Users/SwaminathanK/AndeSight3/workspace/DSP_cfft_q15_benchmark_N/Debug/../drivers/mspi.h:95
	reg_mspi_fm |= FLD_MSPI_CSN;
     92c:	80140737          	lui	a4,0x80140
     930:	10170783          	lb	a5,257(a4) # 80140101 <_DATA_LMA_START+0x60139529>
     934:	0ff7f793          	andi	a5,a5,255
     938:	0107e793          	ori	a5,a5,16
     93c:	10f700a3          	sb	a5,257(a4)
flash_mspi_read_ram():
/cygdrive/c/Users/SwaminathanK/AndeSight3/workspace/DSP_cfft_q15_benchmark_N/Debug/../drivers/flash.c:194
	{
		mspi_fm_data_line(MSPI_SINGLE_LINE);
	}
	mspi_high();

	CLOCK_DLY_5_CYC;
     940:	0001                	c.nop
     942:	0001                	c.nop
     944:	0001                	c.nop
     946:	0001                	c.nop
     948:	0001                	c.nop
/cygdrive/c/Users/SwaminathanK/AndeSight3/workspace/DSP_cfft_q15_benchmark_N/Debug/../drivers/flash.c:195
	plic_exit_critical_sec(s_flash_preempt_config.preempt_en,r);
     94a:	85ce                	c.mv	a1,s3
     94c:	000007b7          	lui	a5,0x0
     950:	15c7c503          	lbu	a0,348(a5) # 15c <s_flash_preempt_config>
     954:	2655                	c.jal	cf8 <plic_exit_critical_sec>
/cygdrive/c/Users/SwaminathanK/AndeSight3/workspace/DSP_cfft_q15_benchmark_N/Debug/../drivers/flash.c:196
}
     956:	40f2                	c.lwsp	ra,28(sp)
     958:	4462                	c.lwsp	s0,24(sp)
     95a:	44d2                	c.lwsp	s1,20(sp)
     95c:	4942                	c.lwsp	s2,16(sp)
     95e:	49b2                	c.lwsp	s3,12(sp)
     960:	4a22                	c.lwsp	s4,8(sp)
     962:	4a92                	c.lwsp	s5,4(sp)
     964:	4b02                	c.lwsp	s6,0(sp)
     966:	6105                	c.addi16sp	sp,32
     968:	00008067          	ret

0000096c <delay_ms>:
stimer_get_tick():
/cygdrive/c/Users/SwaminathanK/AndeSight3/workspace/DSP_cfft_q15_benchmark_N/Debug/../drivers/stimer.h:169
 * @return    system timer tick value.
**/
static inline unsigned int stimer_get_tick(void)
{

	return reg_system_tick;
     96c:	801407b7          	lui	a5,0x80140
     970:	2007a683          	lw	a3,512(a5) # 80140200 <_DATA_LMA_START+0x60139628>
delay_ms():
/cygdrive/c/Users/SwaminathanK/AndeSight3/workspace/DSP_cfft_q15_benchmark_N/Debug/../drivers/stimer.c:45
 * @return    none
*/
 void delay_ms(unsigned int millisec)
{
	unsigned long t = stimer_get_tick();
	while(!clock_time_exceed(t, millisec*1000)){
     974:	3e800793          	li	a5,1000
     978:	02f507b3          	mul	a5,a0,a5
stimer_get_tick():
/cygdrive/c/Users/SwaminathanK/AndeSight3/workspace/DSP_cfft_q15_benchmark_N/Debug/../drivers/stimer.h:169
     97c:	80140737          	lui	a4,0x80140
     980:	20072703          	lw	a4,512(a4) # 80140200 <_DATA_LMA_START+0x60139628>
clock_time_exceed():
/cygdrive/c/Users/SwaminathanK/AndeSight3/workspace/DSP_cfft_q15_benchmark_N/Debug/../drivers/stimer.h:180
 * @param[in] us   - count by us.
 * @return    true - timeout, false - not timeout
 */
static inline _Bool clock_time_exceed(unsigned int ref, unsigned int us)
{
	return ((unsigned int)(stimer_get_tick() - ref) > us * SYSTEM_TIMER_TICK_1US);
     984:	8f15                	c.sub	a4,a3
     986:	0792                	c.slli	a5,0x4
delay_ms():
/cygdrive/c/Users/SwaminathanK/AndeSight3/workspace/DSP_cfft_q15_benchmark_N/Debug/../drivers/stimer.c:45
     988:	fee7f6e3          	bgeu	a5,a4,974 <delay_ms+0x8>
/cygdrive/c/Users/SwaminathanK/AndeSight3/workspace/DSP_cfft_q15_benchmark_N/Debug/../drivers/stimer.c:47
	}
}
     98c:	00008067          	ret

00000990 <pm_wait_bbpll_done>:
pm_wait_bbpll_done():
D:/release_sdk/v2_3_0_2/telink_b91m_driver_src/chip/B91/drivers/lib/src/pm.c:189
     990:	1101                	c.addi	sp,-32
D:/release_sdk/v2_3_0_2/telink_b91m_driver_src/chip/B91/drivers/lib/src/pm.c:190
     992:	08100513          	li	a0,129
D:/release_sdk/v2_3_0_2/telink_b91m_driver_src/chip/B91/drivers/lib/src/pm.c:189
     996:	cc22                	c.swsp	s0,24(sp)
     998:	ca26                	c.swsp	s1,20(sp)
     99a:	c84a                	c.swsp	s2,16(sp)
     99c:	ce06                	c.swsp	ra,28(sp)
D:/release_sdk/v2_3_0_2/telink_b91m_driver_src/chip/B91/drivers/lib/src/pm.c:190
     99e:	32cd                	c.jal	380 <analog_read_reg8>
D:/release_sdk/v2_3_0_2/telink_b91m_driver_src/chip/B91/drivers/lib/src/pm.c:191
     9a0:	04056593          	ori	a1,a0,64
D:/release_sdk/v2_3_0_2/telink_b91m_driver_src/chip/B91/drivers/lib/src/pm.c:190
     9a4:	892a                	c.mv	s2,a0
D:/release_sdk/v2_3_0_2/telink_b91m_driver_src/chip/B91/drivers/lib/src/pm.c:191
     9a6:	0ff5f593          	andi	a1,a1,255
     9aa:	08100513          	li	a0,129
     9ae:	0bf97913          	andi	s2,s2,191
     9b2:	4481                	c.li	s1,0
D:/release_sdk/v2_3_0_2/telink_b91m_driver_src/chip/B91/drivers/lib/src/pm.c:194
     9b4:	4475                	c.li	s0,29
D:/release_sdk/v2_3_0_2/telink_b91m_driver_src/chip/B91/drivers/lib/src/pm.c:191
     9b6:	3c29                	c.jal	3d0 <analog_write_reg8>
D:/release_sdk/v2_3_0_2/telink_b91m_driver_src/chip/B91/drivers/lib/src/pm.c:194
     9b8:	000107a3          	sb	zero,15(sp)
     9bc:	00f10783          	lb	a5,15(sp)
     9c0:	0ff7f793          	andi	a5,a5,255
     9c4:	02f46063          	bltu	s0,a5,9e4 <pm_wait_bbpll_done+0x54>
D:/release_sdk/v2_3_0_2/telink_b91m_driver_src/chip/B91/drivers/lib/src/pm.c:195
     9c8:	0001                	c.nop
D:/release_sdk/v2_3_0_2/telink_b91m_driver_src/chip/B91/drivers/lib/src/pm.c:194
     9ca:	00f10783          	lb	a5,15(sp)
     9ce:	0785                	c.addi	a5,1
     9d0:	0ff7f793          	andi	a5,a5,255
     9d4:	00f107a3          	sb	a5,15(sp)
     9d8:	00f10783          	lb	a5,15(sp)
     9dc:	0ff7f793          	andi	a5,a5,255
     9e0:	fef474e3          	bgeu	s0,a5,9c8 <pm_wait_bbpll_done+0x38>
D:/release_sdk/v2_3_0_2/telink_b91m_driver_src/chip/B91/drivers/lib/src/pm.c:197
     9e4:	08800513          	li	a0,136
     9e8:	3a61                	c.jal	380 <analog_read_reg8>
     9ea:	4255755b          	bbs	a0,5,a14 <pm_wait_bbpll_done+0x84>
D:/release_sdk/v2_3_0_2/telink_b91m_driver_src/chip/B91/drivers/lib/src/pm.c:204
     9ee:	cc8d                	c.beqz	s1,a28 <pm_wait_bbpll_done+0x98>
D:/release_sdk/v2_3_0_2/telink_b91m_driver_src/chip/B91/drivers/lib/src/pm.c:207
     9f0:	0414d25b          	beqc	s1,1,a34 <pm_wait_bbpll_done+0xa4>
D:/release_sdk/v2_3_0_2/telink_b91m_driver_src/chip/B91/drivers/lib/src/pm.c:211
     9f4:	85ca                	c.mv	a1,s2
     9f6:	08100513          	li	a0,129
     9fa:	3ad9                	c.jal	3d0 <analog_write_reg8>
D:/release_sdk/v2_3_0_2/telink_b91m_driver_src/chip/B91/drivers/lib/src/pm.c:192
     9fc:	0024d65b          	beqc	s1,2,a08 <pm_wait_bbpll_done+0x78>
     a00:	0485                	c.addi	s1,1
     a02:	0ff4f493          	andi	s1,s1,255
     a06:	bf4d                	c.j	9b8 <pm_wait_bbpll_done+0x28>
D:/release_sdk/v2_3_0_2/telink_b91m_driver_src/chip/B91/drivers/lib/src/pm.c:215
     a08:	40f2                	c.lwsp	ra,28(sp)
     a0a:	4462                	c.lwsp	s0,24(sp)
     a0c:	44d2                	c.lwsp	s1,20(sp)
     a0e:	4942                	c.lwsp	s2,16(sp)
     a10:	6105                	c.addi16sp	sp,32
     a12:	8082                	c.jr	ra
     a14:	4462                	c.lwsp	s0,24(sp)
     a16:	40f2                	c.lwsp	ra,28(sp)
     a18:	44d2                	c.lwsp	s1,20(sp)
D:/release_sdk/v2_3_0_2/telink_b91m_driver_src/chip/B91/drivers/lib/src/pm.c:199
     a1a:	85ca                	c.mv	a1,s2
D:/release_sdk/v2_3_0_2/telink_b91m_driver_src/chip/B91/drivers/lib/src/pm.c:215
     a1c:	4942                	c.lwsp	s2,16(sp)
D:/release_sdk/v2_3_0_2/telink_b91m_driver_src/chip/B91/drivers/lib/src/pm.c:199
     a1e:	08100513          	li	a0,129
D:/release_sdk/v2_3_0_2/telink_b91m_driver_src/chip/B91/drivers/lib/src/pm.c:215
     a22:	6105                	c.addi16sp	sp,32
D:/release_sdk/v2_3_0_2/telink_b91m_driver_src/chip/B91/drivers/lib/src/pm.c:199
     a24:	9adff06f          	j	3d0 <analog_write_reg8>
D:/release_sdk/v2_3_0_2/telink_b91m_driver_src/chip/B91/drivers/lib/src/pm.c:205
     a28:	04600593          	li	a1,70
     a2c:	4505                	c.li	a0,1
     a2e:	324d                	c.jal	3d0 <analog_write_reg8>
     a30:	fd1ff06f          	j	a00 <pm_wait_bbpll_done+0x70>
D:/release_sdk/v2_3_0_2/telink_b91m_driver_src/chip/B91/drivers/lib/src/pm.c:208
     a34:	04300593          	li	a1,67
     a38:	4505                	c.li	a0,1
     a3a:	3a59                	c.jal	3d0 <analog_write_reg8>
     a3c:	fc5ff06f          	j	a00 <pm_wait_bbpll_done+0x70>

00000a40 <pm_stimer_recover>:
pm_stimer_recover():
D:/release_sdk/v2_3_0_2/telink_b91m_driver_src/chip/B91/drivers/lib/src/pm.c:113
     a40:	1141                	c.addi	sp,-16
D:/release_sdk/v2_3_0_2/telink_b91m_driver_src/chip/B91/drivers/lib/src/pm.c:115
     a42:	80140737          	lui	a4,0x80140
D:/release_sdk/v2_3_0_2/telink_b91m_driver_src/chip/B91/drivers/lib/src/pm.c:113
     a46:	c606                	c.swsp	ra,12(sp)
D:/release_sdk/v2_3_0_2/telink_b91m_driver_src/chip/B91/drivers/lib/src/pm.c:115
     a48:	4789                	c.li	a5,2
     a4a:	20f70c23          	sb	a5,536(a4) # 80140218 <_DATA_LMA_START+0x60139640>
D:/release_sdk/v2_3_0_2/telink_b91m_driver_src/chip/B91/drivers/lib/src/pm.c:116
     a4e:	20a70783          	lb	a5,522(a4)
     a52:	0ff7f793          	andi	a5,a5,255
     a56:	00c7e793          	ori	a5,a5,12
     a5a:	20f70523          	sb	a5,522(a4)
D:/release_sdk/v2_3_0_2/telink_b91m_driver_src/chip/B91/drivers/lib/src/pm.c:117
     a5e:	3419                	c.jal	464 <clock_get_32k_tick>
D:/release_sdk/v2_3_0_2/telink_b91m_driver_src/chip/B91/drivers/lib/src/pm.c:118
     a60:	000007b7          	lui	a5,0x0
     a64:	18078713          	addi	a4,a5,384 # 180 <flash_read_page>
     a68:	00574703          	lbu	a4,5(a4)
     a6c:	18078793          	addi	a5,a5,384
     a70:	cf01                	c.beqz	a4,a88 <pm_stimer_recover+0x48>
D:/release_sdk/v2_3_0_2/telink_b91m_driver_src/chip/B91/drivers/lib/src/pm.c:119
     a72:	4b98                	c.lw	a4,16(a5)
     a74:	5f90                	c.lw	a2,56(a5)
     a76:	40e50733          	sub	a4,a0,a4
     a7a:	47d4                	c.lw	a3,12(a5)
     a7c:	0705                	c.addi	a4,1
     a7e:	8315                	c.srli	a4,0x5
     a80:	c4c716ff          	maddr32	a3,a4,a2
     a84:	c794                	c.sw	a3,8(a5)
     a86:	a829                	c.j	aa0 <pm_stimer_recover+0x60>
D:/release_sdk/v2_3_0_2/telink_b91m_driver_src/chip/B91/drivers/lib/src/pm.c:121
     a88:	4b98                	c.lw	a4,16(a5)
     a8a:	5f94                	c.lw	a3,56(a5)
     a8c:	40e50733          	sub	a4,a0,a4
     a90:	0705                	c.addi	a4,1
     a92:	02d70733          	mul	a4,a4,a3
     a96:	47d4                	c.lw	a3,12(a5)
     a98:	8315                	c.srli	a4,0x5
     a9a:	9736                	c.add	a4,a3
     a9c:	00e7a423          	sw	a4,8(a5)
D:/release_sdk/v2_3_0_2/telink_b91m_driver_src/chip/B91/drivers/lib/src/pm.c:124
     aa0:	4b98                	c.lw	a4,16(a5)
D:/release_sdk/v2_3_0_2/telink_b91m_driver_src/chip/B91/drivers/lib/src/pm.c:125
     aa2:	4794                	c.lw	a3,8(a5)
D:/release_sdk/v2_3_0_2/telink_b91m_driver_src/chip/B91/drivers/lib/src/pm.c:124
     aa4:	40e50733          	sub	a4,a0,a4
     aa8:	0705                	c.addi	a4,1
D:/release_sdk/v2_3_0_2/telink_b91m_driver_src/chip/B91/drivers/lib/src/pm.c:123
     aaa:	0505                	c.addi	a0,1
D:/release_sdk/v2_3_0_2/telink_b91m_driver_src/chip/B91/drivers/lib/src/pm.c:125
     aac:	0685                	c.addi	a3,1
D:/release_sdk/v2_3_0_2/telink_b91m_driver_src/chip/B91/drivers/lib/src/pm.c:123
     aae:	d788                	c.sw	a0,40(a5)
D:/release_sdk/v2_3_0_2/telink_b91m_driver_src/chip/B91/drivers/lib/src/pm.c:124
     ab0:	02e7a223          	sw	a4,36(a5)
D:/release_sdk/v2_3_0_2/telink_b91m_driver_src/chip/B91/drivers/lib/src/pm.c:128
     ab4:	80140637          	lui	a2,0x80140
D:/release_sdk/v2_3_0_2/telink_b91m_driver_src/chip/B91/drivers/lib/src/pm.c:125
     ab8:	801407b7          	lui	a5,0x80140
     abc:	20d7a023          	sw	a3,512(a5) # 80140200 <_DATA_LMA_START+0x60139628>
D:/release_sdk/v2_3_0_2/telink_b91m_driver_src/chip/B91/drivers/lib/src/pm.c:128
     ac0:	20b60783          	lb	a5,523(a2) # 8014020b <_DATA_LMA_START+0x60139633>
     ac4:	be77fe5b          	bbc	a5,7,ac0 <pm_stimer_recover+0x80>
D:/release_sdk/v2_3_0_2/telink_b91m_driver_src/chip/B91/drivers/lib/src/pm.c:129
     ac8:	20060c23          	sb	zero,536(a2)
D:/release_sdk/v2_3_0_2/telink_b91m_driver_src/chip/B91/drivers/lib/src/pm.c:142
     acc:	40b2                	c.lwsp	ra,12(sp)
     ace:	0141                	c.addi	sp,16
     ad0:	00008067          	ret

00000ad4 <pm_sleep_start>:
pm_sleep_start():
D:/release_sdk/v2_3_0_2/telink_b91m_driver_src/chip/B91/drivers/lib/src/pm.c:254
     ad4:	1101                	c.addi	sp,-32
D:/release_sdk/v2_3_0_2/telink_b91m_driver_src/chip/B91/drivers/lib/src/pm.c:257
     ad6:	6a10272b          	lwgp	a4,3744 # 816a0 <g_chip_version>
     ada:	000006b7          	lui	a3,0x0
D:/release_sdk/v2_3_0_2/telink_b91m_driver_src/chip/B91/drivers/lib/src/pm.c:254
     ade:	ce06                	c.swsp	ra,28(sp)
     ae0:	cc22                	c.swsp	s0,24(sp)
     ae2:	ca26                	c.swsp	s1,20(sp)
D:/release_sdk/v2_3_0_2/telink_b91m_driver_src/chip/B91/drivers/lib/src/pm.c:257
     ae4:	0ff00793          	li	a5,255
     ae8:	1656c583          	lbu	a1,357(a3) # 165 <g_pm_suspend_power_cfg>
     aec:	00f71863          	bne	a4,a5,afc <pm_sleep_start+0x28>
D:/release_sdk/v2_3_0_2/telink_b91m_driver_src/chip/B91/drivers/lib/src/pm.c:258
     af0:	0fe5f593          	andi	a1,a1,254
     af4:	07d00513          	li	a0,125
     af8:	38e1                	c.jal	3d0 <analog_write_reg8>
     afa:	a029                	c.j	b04 <pm_sleep_start+0x30>
D:/release_sdk/v2_3_0_2/telink_b91m_driver_src/chip/B91/drivers/lib/src/pm.c:260
     afc:	07d00513          	li	a0,125
     b00:	8d1ff0ef          	jal	ra,3d0 <analog_write_reg8>
D:\release_sdk\v2_3_0_2\telink_b91m_driver_src\chip\B91\drivers/mspi.h:46
     b04:	801406b7          	lui	a3,0x80140
     b08:	10268783          	lb	a5,258(a3) # 80140102 <_DATA_LMA_START+0x6013952a>
     b0c:	fe07fe5b          	bbs	a5,0,b08 <pm_sleep_start+0x34>
D:\release_sdk\v2_3_0_2\telink_b91m_driver_src\chip\B91\drivers/mspi.h:95
     b10:	10168703          	lb	a4,257(a3)
D:\release_sdk\v2_3_0_2\telink_b91m_driver_src\chip\B91\drivers/gpio.h:263
     b14:	801407b7          	lui	a5,0x80140
D:\release_sdk\v2_3_0_2\telink_b91m_driver_src\chip\B91\drivers/mspi.h:95
     b18:	0ff77713          	andi	a4,a4,255
     b1c:	01076713          	ori	a4,a4,16
     b20:	10e680a3          	sb	a4,257(a3)
D:\release_sdk\v2_3_0_2\telink_b91m_driver_src\chip\B91\drivers/gpio.h:263
     b24:	32878703          	lb	a4,808(a5) # 80140328 <_DATA_LMA_START+0x60139750>
D:\release_sdk\v2_3_0_2\telink_b91m_driver_src\chip\B91\drivers/mspi.h:150
     b28:	be377e5b          	bbc	a4,3,b24 <pm_sleep_start+0x50>
D:\release_sdk\v2_3_0_2\telink_b91m_driver_src\chip\B91\drivers/mspi.h:78
     b2c:	10178703          	lb	a4,257(a5)
D:\release_sdk\v2_3_0_2\telink_b91m_driver_src\chip\B91\drivers/mspi.h:46
     b30:	80140437          	lui	s0,0x80140
D:\release_sdk\v2_3_0_2\telink_b91m_driver_src\chip\B91\drivers/mspi.h:78
     b34:	0fd77713          	andi	a4,a4,253
     b38:	10e780a3          	sb	a4,257(a5)
D:\release_sdk\v2_3_0_2\telink_b91m_driver_src\chip\B91\drivers/mspi.h:103
     b3c:	10178703          	lb	a4,257(a5)
     b40:	0ef77713          	andi	a4,a4,239
     b44:	10e780a3          	sb	a4,257(a5)
D:\release_sdk\v2_3_0_2\telink_b91m_driver_src\chip\B91\drivers/mspi.h:120
     b48:	fb900713          	li	a4,-71
     b4c:	10e78023          	sb	a4,256(a5)
D:\release_sdk\v2_3_0_2\telink_b91m_driver_src\chip\B91\drivers/mspi.h:46
     b50:	10240783          	lb	a5,258(s0) # 80140102 <_DATA_LMA_START+0x6013952a>
     b54:	fe07fe5b          	bbs	a5,0,b50 <pm_sleep_start+0x7c>
D:\release_sdk\v2_3_0_2\telink_b91m_driver_src\chip\B91\drivers/mspi.h:95
     b58:	10140783          	lb	a5,257(s0)
D:/release_sdk/v2_3_0_2/telink_b91m_driver_src/chip/B91/drivers/lib/src/pm.c:272
     b5c:	452d                	c.li	a0,11
D:\release_sdk\v2_3_0_2\telink_b91m_driver_src\chip\B91\drivers/mspi.h:95
     b5e:	0ff7f793          	andi	a5,a5,255
     b62:	0107e793          	ori	a5,a5,16
     b66:	10f400a3          	sb	a5,257(s0)
D:/release_sdk/v2_3_0_2/telink_b91m_driver_src/chip/B91/drivers/lib/src/pm.c:268
     b6a:	320404a3          	sb	zero,809(s0)
D:/release_sdk/v2_3_0_2/telink_b91m_driver_src/chip/B91/drivers/lib/src/pm.c:272
     b6e:	813ff0ef          	jal	ra,380 <analog_read_reg8>
     b72:	0fc57593          	andi	a1,a0,252
     b76:	452d                	c.li	a0,11
     b78:	859ff0ef          	jal	ra,3d0 <analog_write_reg8>
D:/release_sdk/v2_3_0_2/telink_b91m_driver_src/chip/B91/drivers/lib/src/pm.c:274
     b7c:	08100513          	li	a0,129
     b80:	801ff0ef          	jal	ra,380 <analog_read_reg8>
     b84:	f8056593          	ori	a1,a0,-128
     b88:	0ff5f593          	andi	a1,a1,255
     b8c:	08100513          	li	a0,129
     b90:	841ff0ef          	jal	ra,3d0 <analog_write_reg8>
D:/release_sdk/v2_3_0_2/telink_b91m_driver_src/chip/B91/drivers/lib/src/pm.c:281
     b94:	f8000793          	li	a5,-128
     b98:	1ef407a3          	sb	a5,495(s0)
D:/release_sdk/v2_3_0_2/telink_b91m_driver_src/chip/B91/drivers/lib/src/pm.c:287
     b9c:	03f00493          	li	s1,63
     ba0:	00012423          	sw	zero,8(sp)
     ba4:	47a2                	c.lwsp	a5,8(sp)
     ba6:	00f4e763          	bltu	s1,a5,bb4 <pm_sleep_start+0xe0>
D:/release_sdk/v2_3_0_2/telink_b91m_driver_src/chip/B91/drivers/lib/src/pm.c:288
     baa:	0001                	c.nop
D:/release_sdk/v2_3_0_2/telink_b91m_driver_src/chip/B91/drivers/lib/src/pm.c:287
     bac:	47a2                	c.lwsp	a5,8(sp)
     bae:	0785                	c.addi	a5,1
     bb0:	c43e                	c.swsp	a5,8(sp)
     bb2:	bfcd                	c.j	ba4 <pm_sleep_start+0xd0>
D:/release_sdk/v2_3_0_2/telink_b91m_driver_src/chip/B91/drivers/lib/src/pm.c:291
     bb4:	08100513          	li	a0,129
     bb8:	fc8ff0ef          	jal	ra,380 <analog_read_reg8>
     bbc:	07f57593          	andi	a1,a0,127
     bc0:	08100513          	li	a0,129
     bc4:	80dff0ef          	jal	ra,3d0 <analog_write_reg8>
D:/release_sdk/v2_3_0_2/telink_b91m_driver_src/chip/B91/drivers/lib/src/pm.c:293
     bc8:	452d                	c.li	a0,11
     bca:	fb6ff0ef          	jal	ra,380 <analog_read_reg8>
     bce:	00356593          	ori	a1,a0,3
     bd2:	0ff5f593          	andi	a1,a1,255
     bd6:	452d                	c.li	a0,11
     bd8:	ff8ff0ef          	jal	ra,3d0 <analog_write_reg8>
D:/release_sdk/v2_3_0_2/telink_b91m_driver_src/chip/B91/drivers/lib/src/pm.c:295
     bdc:	08000593          	li	a1,128
     be0:	07d00513          	li	a0,125
     be4:	fecff0ef          	jal	ra,3d0 <analog_write_reg8>
D:/release_sdk/v2_3_0_2/telink_b91m_driver_src/chip/B91/drivers/lib/src/pm.c:304
     be8:	801407b7          	lui	a5,0x80140
     bec:	329784a3          	sb	s1,809(a5) # 80140329 <_DATA_LMA_START+0x60139751>
D:\release_sdk\v2_3_0_2\telink_b91m_driver_src\chip\B91\drivers/mspi.h:103
     bf0:	10178683          	lb	a3,257(a5)
D:\release_sdk\v2_3_0_2\telink_b91m_driver_src\chip\B91\drivers/mspi.h:46
     bf4:	80140737          	lui	a4,0x80140
D:\release_sdk\v2_3_0_2\telink_b91m_driver_src\chip\B91\drivers/mspi.h:103
     bf8:	0ef6f693          	andi	a3,a3,239
     bfc:	10d780a3          	sb	a3,257(a5)
D:\release_sdk\v2_3_0_2\telink_b91m_driver_src\chip\B91\drivers/mspi.h:120
     c00:	fab00693          	li	a3,-85
     c04:	10d78023          	sb	a3,256(a5)
D:\release_sdk\v2_3_0_2\telink_b91m_driver_src\chip\B91\drivers/mspi.h:46
     c08:	10270783          	lb	a5,258(a4) # 80140102 <_DATA_LMA_START+0x6013952a>
     c0c:	fe07fe5b          	bbs	a5,0,c08 <pm_sleep_start+0x134>
D:\release_sdk\v2_3_0_2\telink_b91m_driver_src\chip\B91\drivers/mspi.h:95
     c10:	10170783          	lb	a5,257(a4)
D:/release_sdk/v2_3_0_2/telink_b91m_driver_src/chip/B91/drivers/lib/src/pm.c:311
     c14:	12b00693          	li	a3,299
D:\release_sdk\v2_3_0_2\telink_b91m_driver_src\chip\B91\drivers/mspi.h:95
     c18:	0ff7f793          	andi	a5,a5,255
     c1c:	0107e793          	ori	a5,a5,16
     c20:	10f700a3          	sb	a5,257(a4)
D:/release_sdk/v2_3_0_2/telink_b91m_driver_src/chip/B91/drivers/lib/src/pm.c:311
     c24:	00012623          	sw	zero,12(sp)
     c28:	47b2                	c.lwsp	a5,12(sp)
     c2a:	00f6e763          	bltu	a3,a5,c38 <pm_sleep_start+0x164>
D:/release_sdk/v2_3_0_2/telink_b91m_driver_src/chip/B91/drivers/lib/src/pm.c:312
     c2e:	0001                	c.nop
D:/release_sdk/v2_3_0_2/telink_b91m_driver_src/chip/B91/drivers/lib/src/pm.c:311
     c30:	47b2                	c.lwsp	a5,12(sp)
     c32:	0785                	c.addi	a5,1
     c34:	c63e                	c.swsp	a5,12(sp)
     c36:	bfcd                	c.j	c28 <pm_sleep_start+0x154>
D:/release_sdk/v2_3_0_2/telink_b91m_driver_src/chip/B91/drivers/lib/src/pm.c:315
     c38:	08800513          	li	a0,136
     c3c:	f44ff0ef          	jal	ra,380 <analog_read_reg8>
     c40:	be757c5b          	bbc	a0,7,c38 <pm_sleep_start+0x164>
D:/release_sdk/v2_3_0_2/telink_b91m_driver_src/chip/B91/drivers/lib/src/pm.c:316
     c44:	08800513          	li	a0,136
     c48:	f38ff0ef          	jal	ra,380 <analog_read_reg8>
     c4c:	be757c5b          	bbc	a0,7,c44 <pm_sleep_start+0x170>
D:/release_sdk/v2_3_0_2/telink_b91m_driver_src/chip/B91/drivers/lib/src/pm.c:317
     c50:	08800513          	li	a0,136
     c54:	f2cff0ef          	jal	ra,380 <analog_read_reg8>
     c58:	be757c5b          	bbc	a0,7,c50 <pm_sleep_start+0x17c>
D:/release_sdk/v2_3_0_2/telink_b91m_driver_src/chip/B91/drivers/lib/src/pm.c:320
     c5c:	4462                	c.lwsp	s0,24(sp)
     c5e:	40f2                	c.lwsp	ra,28(sp)
     c60:	44d2                	c.lwsp	s1,20(sp)
     c62:	6105                	c.addi16sp	sp,32
D:/release_sdk/v2_3_0_2/telink_b91m_driver_src/chip/B91/drivers/lib/src/pm.c:319
     c64:	d2dff06f          	j	990 <pm_wait_bbpll_done>

00000c68 <pm_switch_ext32kpad_to_int32krc>:
pm_switch_ext32kpad_to_int32krc():
D:/release_sdk/v2_3_0_2/telink_b91m_driver_src/chip/B91/drivers/lib/src/pm.c:327
     c68:	1141                	c.addi	sp,-16
D:/release_sdk/v2_3_0_2/telink_b91m_driver_src/chip/B91/drivers/lib/src/pm.c:331
     c6a:	04e00513          	li	a0,78
D:/release_sdk/v2_3_0_2/telink_b91m_driver_src/chip/B91/drivers/lib/src/pm.c:327
     c6e:	c606                	c.swsp	ra,12(sp)
D:/release_sdk/v2_3_0_2/telink_b91m_driver_src/chip/B91/drivers/lib/src/pm.c:331
     c70:	f10ff0ef          	jal	ra,380 <analog_read_reg8>
     c74:	07f57593          	andi	a1,a0,127
     c78:	04e00513          	li	a0,78
     c7c:	f54ff0ef          	jal	ra,3d0 <analog_write_reg8>
D:/release_sdk/v2_3_0_2/telink_b91m_driver_src/chip/B91/drivers/lib/src/pm.c:332
     c80:	4589                	c.li	a1,2
     c82:	4515                	c.li	a0,5
     c84:	f4cff0ef          	jal	ra,3d0 <analog_write_reg8>
D:/release_sdk/v2_3_0_2/telink_b91m_driver_src/chip/B91/drivers/lib/src/pm.c:336
     c88:	40b2                	c.lwsp	ra,12(sp)
D:/release_sdk/v2_3_0_2/telink_b91m_driver_src/chip/B91/drivers/lib/src/pm.c:335
     c8a:	0ef00593          	li	a1,239
     c8e:	04c00513          	li	a0,76
D:/release_sdk/v2_3_0_2/telink_b91m_driver_src/chip/B91/drivers/lib/src/pm.c:336
     c92:	0141                	c.addi	sp,16
D:/release_sdk/v2_3_0_2/telink_b91m_driver_src/chip/B91/drivers/lib/src/pm.c:335
     c94:	f3cff06f          	j	3d0 <analog_write_reg8>

00000c98 <plic_enter_critical_sec>:
plic_enter_critical_sec():
D:/release_sdk/v2_3_0_2/telink_b91m_driver_src/chip/B91/drivers/lib/src/plic.c:50
     c98:	000007b7          	lui	a5,0x0
     c9c:	18078793          	addi	a5,a5,384 # 180 <flash_read_page>
     ca0:	00478783          	lb	a5,4(a5)
     ca4:	0ff7f793          	andi	a5,a5,255
     ca8:	cb85                	c.beqz	a5,cd8 <plic_enter_critical_sec+0x40>
     caa:	c51d                	c.beqz	a0,cd8 <plic_enter_critical_sec+0x40>
D:/release_sdk/v2_3_0_2/telink_b91m_driver_src/chip/B91/drivers/lib/src/plic.c:56
     cac:	e4200737          	lui	a4,0xe4200
     cb0:	4308                	c.lw	a0,0(a4)
D:/release_sdk/v2_3_0_2/telink_b91m_driver_src/chip/B91/drivers/lib/src/plic.c:57
     cb2:	04b57163          	bgeu	a0,a1,cf4 <plic_enter_critical_sec+0x5c>
core_interrupt_disable():
D:\release_sdk\v2_3_0_2\telink_b91m_driver_src\chip\B91\drivers/core.h:114
     cb6:	300027f3          	csrr	a5,mstatus
     cba:	8ba1                	c.andi	a5,8
D:\release_sdk\v2_3_0_2\telink_b91m_driver_src\chip\B91\drivers/core.h:115
     cbc:	cb85                	c.beqz	a5,cec <plic_enter_critical_sec+0x54>
D:\release_sdk\v2_3_0_2\telink_b91m_driver_src\chip\B91\drivers/core.h:117
     cbe:	300476f3          	csrrci	a3,mstatus,8
D:\release_sdk\v2_3_0_2\telink_b91m_driver_src\chip\B91\drivers/core.h:118
     cc2:	0ff0000f          	fence
plic_set_threshold():
D:\release_sdk\v2_3_0_2\telink_b91m_driver_src\chip\B91\drivers/lib/include/plic.h:341
     cc6:	c30c                	c.sw	a1,0(a4)
D:\release_sdk\v2_3_0_2\telink_b91m_driver_src\chip\B91\drivers/lib/include/plic.h:342
     cc8:	0ff0000f          	fence
core_restore_interrupt():
D:\release_sdk\v2_3_0_2\telink_b91m_driver_src\chip\B91\drivers/core.h:133
     ccc:	3007a7f3          	csrrs	a5,mstatus,a5
D:\release_sdk\v2_3_0_2\telink_b91m_driver_src\chip\B91\drivers/core.h:134
     cd0:	0ff0000f          	fence
     cd4:	00008067          	ret
core_interrupt_disable():
D:\release_sdk\v2_3_0_2\telink_b91m_driver_src\chip\B91\drivers/core.h:114
     cd8:	30002573          	csrr	a0,mstatus
     cdc:	8921                	c.andi	a0,8
D:\release_sdk\v2_3_0_2\telink_b91m_driver_src\chip\B91\drivers/core.h:115
     cde:	c919                	c.beqz	a0,cf4 <plic_enter_critical_sec+0x5c>
D:\release_sdk\v2_3_0_2\telink_b91m_driver_src\chip\B91\drivers/core.h:117
     ce0:	300477f3          	csrrci	a5,mstatus,8
D:\release_sdk\v2_3_0_2\telink_b91m_driver_src\chip\B91\drivers/core.h:118
     ce4:	0ff0000f          	fence
     ce8:	00008067          	ret
plic_set_threshold():
D:\release_sdk\v2_3_0_2\telink_b91m_driver_src\chip\B91\drivers/lib/include/plic.h:341
     cec:	00b72023          	sw	a1,0(a4) # e4200000 <_DATA_LMA_START+0xc41f9428>
D:\release_sdk\v2_3_0_2\telink_b91m_driver_src\chip\B91\drivers/lib/include/plic.h:342
     cf0:	0ff0000f          	fence
plic_enter_critical_sec():
D:/release_sdk/v2_3_0_2/telink_b91m_driver_src/chip/B91/drivers/lib/src/plic.c:67
     cf4:	00008067          	ret

00000cf8 <plic_exit_critical_sec>:
plic_exit_critical_sec():
D:/release_sdk/v2_3_0_2/telink_b91m_driver_src/chip/B91/drivers/lib/src/plic.c:80
     cf8:	000007b7          	lui	a5,0x0
     cfc:	18078793          	addi	a5,a5,384 # 180 <flash_read_page>
     d00:	00478783          	lb	a5,4(a5)
     d04:	0ff7f793          	andi	a5,a5,255
     d08:	c795                	c.beqz	a5,d34 <plic_exit_critical_sec+0x3c>
     d0a:	c50d                	c.beqz	a0,d34 <plic_exit_critical_sec+0x3c>
core_interrupt_disable():
D:\release_sdk\v2_3_0_2\telink_b91m_driver_src\chip\B91\drivers/core.h:114
     d0c:	300027f3          	csrr	a5,mstatus
     d10:	8ba1                	c.andi	a5,8
     d12:	0ff5f593          	andi	a1,a1,255
D:\release_sdk\v2_3_0_2\telink_b91m_driver_src\chip\B91\drivers/core.h:115
     d16:	c78d                	c.beqz	a5,d40 <plic_exit_critical_sec+0x48>
D:\release_sdk\v2_3_0_2\telink_b91m_driver_src\chip\B91\drivers/core.h:117
     d18:	30047773          	csrrci	a4,mstatus,8
D:\release_sdk\v2_3_0_2\telink_b91m_driver_src\chip\B91\drivers/core.h:118
     d1c:	0ff0000f          	fence
plic_set_threshold():
D:\release_sdk\v2_3_0_2\telink_b91m_driver_src\chip\B91\drivers/lib/include/plic.h:341
     d20:	e4200737          	lui	a4,0xe4200
     d24:	c30c                	c.sw	a1,0(a4)
D:\release_sdk\v2_3_0_2\telink_b91m_driver_src\chip\B91\drivers/lib/include/plic.h:342
     d26:	0ff0000f          	fence
core_restore_interrupt():
D:\release_sdk\v2_3_0_2\telink_b91m_driver_src\chip\B91\drivers/core.h:133
     d2a:	3007a7f3          	csrrs	a5,mstatus,a5
D:\release_sdk\v2_3_0_2\telink_b91m_driver_src\chip\B91\drivers/core.h:134
     d2e:	0ff0000f          	fence
     d32:	8082                	c.jr	ra
D:\release_sdk\v2_3_0_2\telink_b91m_driver_src\chip\B91\drivers/core.h:131
     d34:	cd81                	c.beqz	a1,d4c <plic_exit_critical_sec+0x54>
D:\release_sdk\v2_3_0_2\telink_b91m_driver_src\chip\B91\drivers/core.h:133
     d36:	3005a5f3          	csrrs	a1,mstatus,a1
D:\release_sdk\v2_3_0_2\telink_b91m_driver_src\chip\B91\drivers/core.h:134
     d3a:	0ff0000f          	fence
     d3e:	8082                	c.jr	ra
plic_set_threshold():
D:\release_sdk\v2_3_0_2\telink_b91m_driver_src\chip\B91\drivers/lib/include/plic.h:341
     d40:	e42007b7          	lui	a5,0xe4200
     d44:	00b7a023          	sw	a1,0(a5) # e4200000 <_DATA_LMA_START+0xc41f9428>
D:\release_sdk\v2_3_0_2\telink_b91m_driver_src\chip\B91\drivers/lib/include/plic.h:342
     d48:	0ff0000f          	fence
plic_exit_critical_sec():
D:/release_sdk/v2_3_0_2/telink_b91m_driver_src/chip/B91/drivers/lib/src/plic.c:88
     d4c:	00008067          	ret

00000d50 <pm_sleep_wakeup_ram.constprop.1>:
pm_sleep_wakeup_ram():
D:/release_sdk/v2_3_0_2/telink_b91m_driver_src/chip/B91/drivers/lib/src/pm.c:431
     d50:	7179                	c.addi16sp	sp,-48
     d52:	ce4e                	c.swsp	s3,28(sp)
     d54:	89aa                	c.mv	s3,a0
     d56:	d606                	c.swsp	ra,44(sp)
     d58:	d422                	c.swsp	s0,40(sp)
     d5a:	d226                	c.swsp	s1,36(sp)
     d5c:	d04a                	c.swsp	s2,32(sp)
     d5e:	cc52                	c.swsp	s4,24(sp)
     d60:	ca56                	c.swsp	s5,20(sp)
     d62:	c85a                	c.swsp	s6,16(sp)
     d64:	c65e                	c.swsp	s7,12(sp)
     d66:	c462                	c.swsp	s8,8(sp)
core_interrupt_disable():
D:\release_sdk\v2_3_0_2\telink_b91m_driver_src\chip\B91\drivers/core.h:114
     d68:	30002973          	csrr	s2,mstatus
     d6c:	00897913          	andi	s2,s2,8
D:\release_sdk\v2_3_0_2\telink_b91m_driver_src\chip\B91\drivers/core.h:115
     d70:	00090663          	beqz	s2,d7c <pm_sleep_wakeup_ram.constprop.1+0x2c>
D:\release_sdk\v2_3_0_2\telink_b91m_driver_src\chip\B91\drivers/core.h:117
     d74:	300477f3          	csrrci	a5,mstatus,8
D:\release_sdk\v2_3_0_2\telink_b91m_driver_src\chip\B91\drivers/core.h:118
     d78:	0ff0000f          	fence
pm_sleep_wakeup_ram():
D:\release_sdk\v2_3_0_2\telink_b91m_driver_src\chip\B91\drivers/stimer.h:169
     d7c:	801404b7          	lui	s1,0x80140
D:/release_sdk/v2_3_0_2/telink_b91m_driver_src/chip/B91/drivers/lib/src/pm.c:441
     d80:	034010ef          	jal	ra,1db4 <pm_get_32k_rc_calib>
     d84:	00000437          	lui	s0,0x0
D:\release_sdk\v2_3_0_2\telink_b91m_driver_src\chip\B91\drivers/stimer.h:169
     d88:	2004aa03          	lw	s4,512(s1) # 80140200 <_DATA_LMA_START+0x60139628>
D:/release_sdk/v2_3_0_2/telink_b91m_driver_src/chip/B91/drivers/lib/src/pm.c:441
     d8c:	18040793          	addi	a5,s0,384 # 180 <flash_read_page>
     d90:	00151b13          	slli	s6,a0,0x1
     d94:	0367ac23          	sw	s6,56(a5)
D:/release_sdk/v2_3_0_2/telink_b91m_driver_src/chip/B91/drivers/lib/src/pm.c:454
     d98:	41498a33          	sub	s4,s3,s4
D:/release_sdk/v2_3_0_2/telink_b91m_driver_src/chip/B91/drivers/lib/src/pm.c:456
     d9c:	e00007b7          	lui	a5,0xe0000
     da0:	18040413          	addi	s0,s0,384
     da4:	0147fe63          	bgeu	a5,s4,dc0 <pm_sleep_wakeup_ram.constprop.1+0x70>
core_restore_interrupt():
D:\release_sdk\v2_3_0_2\telink_b91m_driver_src\chip\B91\drivers/core.h:131
     da8:	00090663          	beqz	s2,db4 <pm_sleep_wakeup_ram.constprop.1+0x64>
D:\release_sdk\v2_3_0_2\telink_b91m_driver_src\chip\B91\drivers/core.h:133
     dac:	30092973          	csrrs	s2,mstatus,s2
D:\release_sdk\v2_3_0_2\telink_b91m_driver_src\chip\B91\drivers/core.h:134
     db0:	0ff0000f          	fence
pm_sleep_wakeup_ram():
D:/release_sdk/v2_3_0_2/telink_b91m_driver_src/chip/B91/drivers/lib/src/pm.c:458
     db4:	06400513          	li	a0,100
     db8:	dc8ff0ef          	jal	ra,380 <analog_read_reg8>
     dbc:	897d                	c.andi	a0,31
     dbe:	ac3d                	c.j	ffc <pm_sleep_wakeup_ram.constprop.1+0x2ac>
D:/release_sdk/v2_3_0_2/telink_b91m_driver_src/chip/B91/drivers/lib/src/pm.c:460
     dc0:	00000bb7          	lui	s7,0x0
     dc4:	16cb8b93          	addi	s7,s7,364 # 16c <g_pm_early_wakeup_time_us>
     dc8:	006b9783          	lh	a5,6(s7)
     dcc:	1137a7db          	bfoz	a5,a5,4,19
     dd0:	04fa7063          	bgeu	s4,a5,e10 <pm_sleep_wakeup_ram.constprop.1+0xc0>
D:/release_sdk/v2_3_0_2/telink_b91m_driver_src/chip/B91/drivers/lib/src/pm.c:462
     dd4:	01f00593          	li	a1,31
     dd8:	06400513          	li	a0,100
D:\release_sdk\v2_3_0_2\telink_b91m_driver_src\chip\B91\drivers/stimer.h:169
     ddc:	801409b7          	lui	s3,0x80140
     de0:	2004a403          	lw	s0,512(s1)
D:/release_sdk/v2_3_0_2/telink_b91m_driver_src/chip/B91/drivers/lib/src/pm.c:462
     de4:	decff0ef          	jal	ra,3d0 <analog_write_reg8>
D:/release_sdk/v2_3_0_2/telink_b91m_driver_src/chip/B91/drivers/lib/src/pm.c:465
     de8:	06400513          	li	a0,100
     dec:	d94ff0ef          	jal	ra,380 <analog_read_reg8>
D:\release_sdk\v2_3_0_2\telink_b91m_driver_src\chip\B91\drivers/stimer.h:169
     df0:	2009a783          	lw	a5,512(s3) # 80140200 <_DATA_LMA_START+0x60139628>
D:/release_sdk/v2_3_0_2/telink_b91m_driver_src/chip/B91/drivers/lib/src/pm.c:465
     df4:	897d                	c.andi	a0,31
D:/release_sdk/v2_3_0_2/telink_b91m_driver_src/chip/B91/drivers/lib/src/pm.c:466
     df6:	8f81                	c.sub	a5,s0
     df8:	0147f463          	bgeu	a5,s4,e00 <pm_sleep_wakeup_ram.constprop.1+0xb0>
     dfc:	fe0506e3          	beqz	a0,de8 <pm_sleep_wakeup_ram.constprop.1+0x98>
core_restore_interrupt():
D:\release_sdk\v2_3_0_2\telink_b91m_driver_src\chip\B91\drivers/core.h:131
     e00:	1e090e63          	beqz	s2,ffc <pm_sleep_wakeup_ram.constprop.1+0x2ac>
D:\release_sdk\v2_3_0_2\telink_b91m_driver_src\chip\B91\drivers/core.h:133
     e04:	30092973          	csrrs	s2,mstatus,s2
D:\release_sdk\v2_3_0_2\telink_b91m_driver_src\chip\B91\drivers/core.h:134
     e08:	0ff0000f          	fence
     e0c:	1f00006f          	j	ffc <pm_sleep_wakeup_ram.constprop.1+0x2ac>
pm_sleep_wakeup_ram():
D:/release_sdk/v2_3_0_2/telink_b91m_driver_src/chip/B91/drivers/lib/src/pm.c:481
     e10:	1e848a03          	lb	s4,488(s1)
D:/release_sdk/v2_3_0_2/telink_b91m_driver_src/chip/B91/drivers/lib/src/pm.c:492
     e14:	4c05                	c.li	s8,1
D:/release_sdk/v2_3_0_2/telink_b91m_driver_src/chip/B91/drivers/lib/src/pm.c:482
     e16:	00fa7793          	andi	a5,s4,15
     e1a:	1ef48423          	sb	a5,488(s1)
D:/release_sdk/v2_3_0_2/telink_b91m_driver_src/chip/B91/drivers/lib/src/pm.c:483
     e1e:	1d848a83          	lb	s5,472(s1)
D:/release_sdk/v2_3_0_2/telink_b91m_driver_src/chip/B91/drivers/lib/src/pm.c:484
     e22:	0f8af793          	andi	a5,s5,248
     e26:	1cf48c23          	sb	a5,472(s1)
D:/release_sdk/v2_3_0_2/telink_b91m_driver_src/chip/B91/drivers/lib/src/pm.c:492
     e2a:	21848c23          	sb	s8,536(s1)
D:/release_sdk/v2_3_0_2/telink_b91m_driver_src/chip/B91/drivers/lib/src/pm.c:493
     e2e:	20a48783          	lb	a5,522(s1)
     e32:	0f77f793          	andi	a5,a5,247
     e36:	20f48523          	sb	a5,522(s1)
D:/release_sdk/v2_3_0_2/telink_b91m_driver_src/chip/B91/drivers/lib/src/pm.c:494
     e3a:	e2aff0ef          	jal	ra,464 <clock_get_32k_tick>
     e3e:	00000737          	lui	a4,0x0
     e42:	16a72023          	sw	a0,352(a4) # 160 <g_pm_tick_32k_cur>
D:\release_sdk\v2_3_0_2\telink_b91m_driver_src\chip\B91\drivers/stimer.h:169
     e46:	2004a683          	lw	a3,512(s1)
D:/release_sdk/v2_3_0_2/telink_b91m_driver_src/chip/B91/drivers/lib/src/pm.c:496
     e4a:	20b48783          	lb	a5,523(s1)
D:/release_sdk/v2_3_0_2/telink_b91m_driver_src/chip/B91/drivers/lib/src/pm.c:495
     e4e:	c414                	c.sw	a3,8(s0)
D:/release_sdk/v2_3_0_2/telink_b91m_driver_src/chip/B91/drivers/lib/src/pm.c:496
     e50:	0ff7f793          	andi	a5,a5,255
     e54:	0027e793          	ori	a5,a5,2
     e58:	20f485a3          	sb	a5,523(s1)
D:/release_sdk/v2_3_0_2/telink_b91m_driver_src/chip/B91/drivers/lib/src/pm.c:503
     e5c:	16072503          	lw	a0,352(a4)
     e60:	85b6                	c.mv	a1,a3
     e62:	703000ef          	jal	ra,1d64 <pm_update_32k_rc_sleep_tick>
D:/release_sdk/v2_3_0_2/telink_b91m_driver_src/chip/B91/drivers/lib/src/pm.c:511
     e66:	02000593          	li	a1,32
     e6a:	04b00513          	li	a0,75
     e6e:	d62ff0ef          	jal	ra,3d0 <analog_write_reg8>
D:/release_sdk/v2_3_0_2/telink_b91m_driver_src/chip/B91/drivers/lib/src/pm.c:512
     e72:	45fd                	c.li	a1,31
     e74:	06400513          	li	a0,100
     e78:	d58ff0ef          	jal	ra,3d0 <analog_write_reg8>
D:/release_sdk/v2_3_0_2/telink_b91m_driver_src/chip/B91/drivers/lib/src/pm.c:514
     e7c:	03000593          	li	a1,48
     e80:	07e00513          	li	a0,126
     e84:	d4cff0ef          	jal	ra,3d0 <analog_write_reg8>
D:/release_sdk/v2_3_0_2/telink_b91m_driver_src/chip/B91/drivers/lib/src/pm.c:559
     e88:	0f900593          	li	a1,249
     e8c:	04d00513          	li	a0,77
     e90:	d40ff0ef          	jal	ra,3d0 <analog_write_reg8>
D:/release_sdk/v2_3_0_2/telink_b91m_driver_src/chip/B91/drivers/lib/src/pm.c:561
     e94:	4585                	c.li	a1,1
     e96:	07f00513          	li	a0,127
     e9a:	d36ff0ef          	jal	ra,3d0 <analog_write_reg8>
D:/release_sdk/v2_3_0_2/telink_b91m_driver_src/chip/B91/drivers/lib/src/pm.c:563
     e9e:	004b9783          	lh	a5,4(s7)
D:/release_sdk/v2_3_0_2/telink_b91m_driver_src/chip/B91/drivers/lib/src/pm.c:596
     ea2:	0ee00593          	li	a1,238
D:/release_sdk/v2_3_0_2/telink_b91m_driver_src/chip/B91/drivers/lib/src/pm.c:592
     ea6:	1137a7db          	bfoz	a5,a5,4,19
D:/release_sdk/v2_3_0_2/telink_b91m_driver_src/chip/B91/drivers/lib/src/pm.c:596
     eaa:	04c00513          	li	a0,76
D:/release_sdk/v2_3_0_2/telink_b91m_driver_src/chip/B91/drivers/lib/src/pm.c:592
     eae:	40f984b3          	sub	s1,s3,a5
D:/release_sdk/v2_3_0_2/telink_b91m_driver_src/chip/B91/drivers/lib/src/pm.c:596
     eb2:	d1eff0ef          	jal	ra,3d0 <analog_write_reg8>
D:/release_sdk/v2_3_0_2/telink_b91m_driver_src/chip/B91/drivers/lib/src/pm.c:618
     eb6:	000007b7          	lui	a5,0x0
     eba:	17c79583          	lh	a1,380(a5) # 17c <g_pm_r_delay_cycle>
     ebe:	04000513          	li	a0,64
     ec2:	0ff5f593          	andi	a1,a1,255
     ec6:	d0aff0ef          	jal	ra,3d0 <analog_write_reg8>
D:/release_sdk/v2_3_0_2/telink_b91m_driver_src/chip/B91/drivers/lib/src/pm.c:637
     eca:	445c                	c.lw	a5,12(s0)
     ecc:	07ff0737          	lui	a4,0x7ff0
     ed0:	40f487b3          	sub	a5,s1,a5
     ed4:	00f77663          	bgeu	a4,a5,ee0 <pm_sleep_wakeup_ram.constprop.1+0x190>
D:/release_sdk/v2_3_0_2/telink_b91m_driver_src/chip/B91/drivers/lib/src/pm.c:638
     ed8:	018402a3          	sb	s8,5(s0)
     edc:	0080006f          	j	ee4 <pm_sleep_wakeup_ram.constprop.1+0x194>
D:/release_sdk/v2_3_0_2/telink_b91m_driver_src/chip/B91/drivers/lib/src/pm.c:641
     ee0:	000402a3          	sb	zero,5(s0)
D:/release_sdk/v2_3_0_2/telink_b91m_driver_src/chip/B91/drivers/lib/src/pm.c:645
     ee4:	00544683          	lbu	a3,5(s0)
     ee8:	4808                	c.lw	a0,16(s0)
     eea:	5c18                	c.lw	a4,56(s0)
     eec:	c691                	c.beqz	a3,ef8 <pm_sleep_wakeup_ram.constprop.1+0x1a8>
D:/release_sdk/v2_3_0_2/telink_b91m_driver_src/chip/B91/drivers/lib/src/pm.c:646
     eee:	02e7d7b3          	divu	a5,a5,a4
     ef2:	0796                	c.slli	a5,0x5
     ef4:	953e                	c.add	a0,a5
     ef6:	a809                	c.j	f08 <pm_sleep_wakeup_ram.constprop.1+0x1b8>
D:/release_sdk/v2_3_0_2/telink_b91m_driver_src/chip/B91/drivers/lib/src/pm.c:453
     ef8:	001b5b13          	srli	s6,s6,0x1
D:/release_sdk/v2_3_0_2/telink_b91m_driver_src/chip/B91/drivers/lib/src/pm.c:649
     efc:	0796                	c.slli	a5,0x5
     efe:	97da                	c.add	a5,s6
     f00:	02e7d7b3          	divu	a5,a5,a4
     f04:	00f50533          	add	a0,a0,a5
D:/release_sdk/v2_3_0_2/telink_b91m_driver_src/chip/B91/drivers/lib/src/pm.c:654
     f08:	d8cff0ef          	jal	ra,494 <clock_set_32k_tick>
pm_get_wakeup_src():
D:\release_sdk\v2_3_0_2\telink_b91m_driver_src\chip\B91\drivers/lib/include/pm.h:239
     f0c:	06400513          	li	a0,100
     f10:	c70ff0ef          	jal	ra,380 <analog_read_reg8>
pm_sleep_wakeup_ram():
D:/release_sdk/v2_3_0_2/telink_b91m_driver_src/chip/B91/drivers/lib/src/pm.c:671
     f14:	897d                	c.andi	a0,31
     f16:	e519                	c.bnez	a0,f24 <pm_sleep_wakeup_ram.constprop.1+0x1d4>
D:/release_sdk/v2_3_0_2/telink_b91m_driver_src/chip/B91/drivers/lib/src/pm.c:679
     f18:	3e75                	c.jal	ad4 <pm_sleep_start>
D:/release_sdk/v2_3_0_2/telink_b91m_driver_src/chip/B91/drivers/lib/src/pm.c:682
     f1a:	4585                	c.li	a1,1
     f1c:	07f00513          	li	a0,127
     f20:	cb0ff0ef          	jal	ra,3d0 <analog_write_reg8>
D:/release_sdk/v2_3_0_2/telink_b91m_driver_src/chip/B91/drivers/lib/src/pm.c:691
     f24:	80140737          	lui	a4,0x80140
     f28:	02000793          	li	a5,32
     f2c:	1ef707a3          	sb	a5,495(a4) # 801401ef <_DATA_LMA_START+0x60139617>
D:/release_sdk/v2_3_0_2/telink_b91m_driver_src/chip/B91/drivers/lib/src/pm.c:694
     f30:	4789                	c.li	a5,2
     f32:	20f70c23          	sb	a5,536(a4)
D:/release_sdk/v2_3_0_2/telink_b91m_driver_src/chip/B91/drivers/lib/src/pm.c:695
     f36:	20a70783          	lb	a5,522(a4)
     f3a:	0ff7f793          	andi	a5,a5,255
     f3e:	00c7e793          	ori	a5,a5,12
     f42:	20f70523          	sb	a5,522(a4)
D:/release_sdk/v2_3_0_2/telink_b91m_driver_src/chip/B91/drivers/lib/src/pm.c:696
     f46:	d1eff0ef          	jal	ra,464 <clock_get_32k_tick>
D:/release_sdk/v2_3_0_2/telink_b91m_driver_src/chip/B91/drivers/lib/src/pm.c:697
     f4a:	00544783          	lbu	a5,5(s0)
     f4e:	cf89                	c.beqz	a5,f68 <pm_sleep_wakeup_ram.constprop.1+0x218>
D:/release_sdk/v2_3_0_2/telink_b91m_driver_src/chip/B91/drivers/lib/src/pm.c:698
     f50:	481c                	c.lw	a5,16(s0)
     f52:	5c14                	c.lw	a3,56(s0)
     f54:	40f507b3          	sub	a5,a0,a5
     f58:	4458                	c.lw	a4,12(s0)
     f5a:	0785                	c.addi	a5,1
     f5c:	8395                	c.srli	a5,0x5
     f5e:	c4d7977f          	maddr32	a4,a5,a3
     f62:	c418                	c.sw	a4,8(s0)
     f64:	01c0006f          	j	f80 <pm_sleep_wakeup_ram.constprop.1+0x230>
D:/release_sdk/v2_3_0_2/telink_b91m_driver_src/chip/B91/drivers/lib/src/pm.c:700
     f68:	481c                	c.lw	a5,16(s0)
     f6a:	5c18                	c.lw	a4,56(s0)
     f6c:	40f507b3          	sub	a5,a0,a5
     f70:	0785                	c.addi	a5,1
     f72:	02e787b3          	mul	a5,a5,a4
     f76:	4458                	c.lw	a4,12(s0)
     f78:	8395                	c.srli	a5,0x5
     f7a:	97ba                	c.add	a5,a4
     f7c:	00f42423          	sw	a5,8(s0)
D:/release_sdk/v2_3_0_2/telink_b91m_driver_src/chip/B91/drivers/lib/src/pm.c:703
     f80:	481c                	c.lw	a5,16(s0)
D:/release_sdk/v2_3_0_2/telink_b91m_driver_src/chip/B91/drivers/lib/src/pm.c:704
     f82:	4414                	c.lw	a3,8(s0)
D:/release_sdk/v2_3_0_2/telink_b91m_driver_src/chip/B91/drivers/lib/src/pm.c:703
     f84:	40f507b3          	sub	a5,a0,a5
     f88:	0785                	c.addi	a5,1
D:/release_sdk/v2_3_0_2/telink_b91m_driver_src/chip/B91/drivers/lib/src/pm.c:702
     f8a:	0505                	c.addi	a0,1
D:/release_sdk/v2_3_0_2/telink_b91m_driver_src/chip/B91/drivers/lib/src/pm.c:703
     f8c:	d05c                	c.sw	a5,36(s0)
D:/release_sdk/v2_3_0_2/telink_b91m_driver_src/chip/B91/drivers/lib/src/pm.c:704
     f8e:	0685                	c.addi	a3,1
D:/release_sdk/v2_3_0_2/telink_b91m_driver_src/chip/B91/drivers/lib/src/pm.c:702
     f90:	02a42423          	sw	a0,40(s0)
D:/release_sdk/v2_3_0_2/telink_b91m_driver_src/chip/B91/drivers/lib/src/pm.c:704
     f94:	801407b7          	lui	a5,0x80140
D:/release_sdk/v2_3_0_2/telink_b91m_driver_src/chip/B91/drivers/lib/src/pm.c:716
     f98:	80140737          	lui	a4,0x80140
D:/release_sdk/v2_3_0_2/telink_b91m_driver_src/chip/B91/drivers/lib/src/pm.c:704
     f9c:	20d7a023          	sw	a3,512(a5) # 80140200 <_DATA_LMA_START+0x60139628>
D:/release_sdk/v2_3_0_2/telink_b91m_driver_src/chip/B91/drivers/lib/src/pm.c:716
     fa0:	20b70783          	lb	a5,523(a4) # 8014020b <_DATA_LMA_START+0x60139633>
     fa4:	be77fe5b          	bbc	a5,7,fa0 <pm_sleep_wakeup_ram.constprop.1+0x250>
D:/release_sdk/v2_3_0_2/telink_b91m_driver_src/chip/B91/drivers/lib/src/pm.c:717
     fa8:	20070c23          	sb	zero,536(a4)
D:/release_sdk/v2_3_0_2/telink_b91m_driver_src/chip/B91/drivers/lib/src/pm.c:743
     fac:	1d570c23          	sb	s5,472(a4)
pm_get_wakeup_src():
D:\release_sdk\v2_3_0_2\telink_b91m_driver_src\chip\B91\drivers/lib/include/pm.h:239
     fb0:	06400513          	li	a0,100
pm_sleep_wakeup_ram():
D:/release_sdk/v2_3_0_2/telink_b91m_driver_src/chip/B91/drivers/lib/src/pm.c:744
     fb4:	1f470423          	sb	s4,488(a4)
pm_get_wakeup_src():
D:\release_sdk\v2_3_0_2\telink_b91m_driver_src\chip\B91\drivers/lib/include/pm.h:239
     fb8:	bc8ff0ef          	jal	ra,380 <analog_read_reg8>
pm_sleep_wakeup_ram():
D:/release_sdk/v2_3_0_2/telink_b91m_driver_src/chip/B91/drivers/lib/src/pm.c:751
     fbc:	69d0170b          	addigp	a4,3740 # 8169c <g_pm_status_info>
     fc0:	00a700a3          	sb	a0,1(a4)
     fc4:	69d0178b          	addigp	a5,3740 # 8169c <g_pm_status_info>
D:/release_sdk/v2_3_0_2/telink_b91m_driver_src/chip/B91/drivers/lib/src/pm.c:753
     fc8:	00157c5b          	bbc	a0,1,fe0 <pm_sleep_wakeup_ram.constprop.1+0x290>
D:\release_sdk\v2_3_0_2\telink_b91m_driver_src\chip\B91\drivers/stimer.h:169
     fcc:	80140637          	lui	a2,0x80140
D:/release_sdk/v2_3_0_2/telink_b91m_driver_src/chip/B91/drivers/lib/src/pm.c:756
     fd0:	400006b7          	lui	a3,0x40000
D:\release_sdk\v2_3_0_2\telink_b91m_driver_src\chip\B91\drivers/stimer.h:169
     fd4:	20062703          	lw	a4,512(a2) # 80140200 <_DATA_LMA_START+0x60139628>
D:/release_sdk/v2_3_0_2/telink_b91m_driver_src/chip/B91/drivers/lib/src/pm.c:756
     fd8:	41370733          	sub	a4,a4,s3
     fdc:	fee6ece3          	bltu	a3,a4,fd4 <pm_sleep_wakeup_ram.constprop.1+0x284>
core_restore_interrupt():
D:\release_sdk\v2_3_0_2\telink_b91m_driver_src\chip\B91\drivers/core.h:131
     fe0:	00090663          	beqz	s2,fec <pm_sleep_wakeup_ram.constprop.1+0x29c>
D:\release_sdk\v2_3_0_2\telink_b91m_driver_src\chip\B91\drivers/core.h:133
     fe4:	30092973          	csrrs	s2,mstatus,s2
D:\release_sdk\v2_3_0_2\telink_b91m_driver_src\chip\B91\drivers/core.h:134
     fe8:	0ff0000f          	fence
pm_sleep_wakeup_ram():
D:/release_sdk/v2_3_0_2/telink_b91m_driver_src/chip/B91/drivers/lib/src/pm.c:774
     fec:	0017c783          	lbu	a5,1(a5)
     ff0:	10000513          	li	a0,256
     ff4:	c781                	c.beqz	a5,ffc <pm_sleep_wakeup_ram.constprop.1+0x2ac>
     ff6:	40000537          	lui	a0,0x40000
     ffa:	8d5d                	c.or	a0,a5
D:/release_sdk/v2_3_0_2/telink_b91m_driver_src/chip/B91/drivers/lib/src/pm.c:776
     ffc:	50b2                	c.lwsp	ra,44(sp)
     ffe:	5422                	c.lwsp	s0,40(sp)
    1000:	5492                	c.lwsp	s1,36(sp)
    1002:	5902                	c.lwsp	s2,32(sp)
    1004:	49f2                	c.lwsp	s3,28(sp)
    1006:	4a62                	c.lwsp	s4,24(sp)
    1008:	4ad2                	c.lwsp	s5,20(sp)
    100a:	4b42                	c.lwsp	s6,16(sp)
    100c:	4bb2                	c.lwsp	s7,12(sp)
    100e:	4c22                	c.lwsp	s8,8(sp)
    1010:	6145                	c.addi16sp	sp,48
    1012:	8082                	c.jr	ra
	...

00001100 <__vectors>:
__vectors():
    1100:	0200                	c.addi4spn	s0,sp,256
    1102:	0000                	unimp
    1104:	2028                	c.fld	fa0,64(s0)
    1106:	0000                	unimp
    1108:	2028                	c.fld	fa0,64(s0)
    110a:	0000                	unimp
    110c:	2028                	c.fld	fa0,64(s0)
    110e:	0000                	unimp
    1110:	2028                	c.fld	fa0,64(s0)
    1112:	0000                	unimp
    1114:	2028                	c.fld	fa0,64(s0)
    1116:	0000                	unimp
    1118:	2028                	c.fld	fa0,64(s0)
    111a:	0000                	unimp
    111c:	2028                	c.fld	fa0,64(s0)
    111e:	0000                	unimp
    1120:	2028                	c.fld	fa0,64(s0)
    1122:	0000                	unimp
    1124:	2028                	c.fld	fa0,64(s0)
    1126:	0000                	unimp
    1128:	2028                	c.fld	fa0,64(s0)
    112a:	0000                	unimp
    112c:	2028                	c.fld	fa0,64(s0)
    112e:	0000                	unimp
    1130:	2028                	c.fld	fa0,64(s0)
    1132:	0000                	unimp
    1134:	2028                	c.fld	fa0,64(s0)
    1136:	0000                	unimp
    1138:	2028                	c.fld	fa0,64(s0)
    113a:	0000                	unimp
    113c:	2028                	c.fld	fa0,64(s0)
    113e:	0000                	unimp
    1140:	2028                	c.fld	fa0,64(s0)
    1142:	0000                	unimp
    1144:	2028                	c.fld	fa0,64(s0)
    1146:	0000                	unimp
    1148:	2028                	c.fld	fa0,64(s0)
    114a:	0000                	unimp
    114c:	2028                	c.fld	fa0,64(s0)
    114e:	0000                	unimp
    1150:	2028                	c.fld	fa0,64(s0)
    1152:	0000                	unimp
    1154:	2028                	c.fld	fa0,64(s0)
    1156:	0000                	unimp
    1158:	2028                	c.fld	fa0,64(s0)
    115a:	0000                	unimp
    115c:	2028                	c.fld	fa0,64(s0)
    115e:	0000                	unimp
    1160:	2028                	c.fld	fa0,64(s0)
    1162:	0000                	unimp
    1164:	2028                	c.fld	fa0,64(s0)
    1166:	0000                	unimp
    1168:	2028                	c.fld	fa0,64(s0)
    116a:	0000                	unimp
    116c:	2028                	c.fld	fa0,64(s0)
    116e:	0000                	unimp
    1170:	2028                	c.fld	fa0,64(s0)
    1172:	0000                	unimp
    1174:	2028                	c.fld	fa0,64(s0)
    1176:	0000                	unimp
    1178:	2028                	c.fld	fa0,64(s0)
    117a:	0000                	unimp
    117c:	2028                	c.fld	fa0,64(s0)
    117e:	0000                	unimp
    1180:	2028                	c.fld	fa0,64(s0)
    1182:	0000                	unimp
    1184:	2028                	c.fld	fa0,64(s0)
    1186:	0000                	unimp
    1188:	2028                	c.fld	fa0,64(s0)
    118a:	0000                	unimp
    118c:	2028                	c.fld	fa0,64(s0)
    118e:	0000                	unimp
    1190:	2028                	c.fld	fa0,64(s0)
    1192:	0000                	unimp
    1194:	2028                	c.fld	fa0,64(s0)
    1196:	0000                	unimp
    1198:	2028                	c.fld	fa0,64(s0)
    119a:	0000                	unimp
    119c:	2028                	c.fld	fa0,64(s0)
    119e:	0000                	unimp
    11a0:	2028                	c.fld	fa0,64(s0)
    11a2:	0000                	unimp
    11a4:	2028                	c.fld	fa0,64(s0)
    11a6:	0000                	unimp
    11a8:	2028                	c.fld	fa0,64(s0)
    11aa:	0000                	unimp
    11ac:	2028                	c.fld	fa0,64(s0)
    11ae:	0000                	unimp
    11b0:	2028                	c.fld	fa0,64(s0)
    11b2:	0000                	unimp
    11b4:	2028                	c.fld	fa0,64(s0)
    11b6:	0000                	unimp
    11b8:	2028                	c.fld	fa0,64(s0)
    11ba:	0000                	unimp
    11bc:	2028                	c.fld	fa0,64(s0)
    11be:	0000                	unimp
    11c0:	2028                	c.fld	fa0,64(s0)
    11c2:	0000                	unimp
    11c4:	2028                	c.fld	fa0,64(s0)
    11c6:	0000                	unimp
    11c8:	2028                	c.fld	fa0,64(s0)
    11ca:	0000                	unimp
    11cc:	2028                	c.fld	fa0,64(s0)
    11ce:	0000                	unimp
    11d0:	2028                	c.fld	fa0,64(s0)
    11d2:	0000                	unimp
    11d4:	2028                	c.fld	fa0,64(s0)
    11d6:	0000                	unimp
    11d8:	2028                	c.fld	fa0,64(s0)
    11da:	0000                	unimp
    11dc:	2028                	c.fld	fa0,64(s0)
    11de:	0000                	unimp
    11e0:	2028                	c.fld	fa0,64(s0)
    11e2:	0000                	unimp
    11e4:	2028                	c.fld	fa0,64(s0)
    11e6:	0000                	unimp
    11e8:	2028                	c.fld	fa0,64(s0)
    11ea:	0000                	unimp
    11ec:	2028                	c.fld	fa0,64(s0)
    11ee:	0000                	unimp
    11f0:	2028                	c.fld	fa0,64(s0)
    11f2:	0000                	unimp
    11f4:	2028                	c.fld	fa0,64(s0)
    11f6:	0000                	unimp
    11f8:	2028                	c.fld	fa0,64(s0)
    11fa:	0000                	unimp
    11fc:	2028                	c.fld	fa0,64(s0)
    11fe:	0000                	unimp
    1200:	0001                	c.nop
	...

00001204 <clock_init>:
clock_init():
/cygdrive/c/Users/SwaminathanK/AndeSight3/workspace/DSP_cfft_q15_benchmark_N/Debug/../drivers/clock.c:376
				sys_clock_src_e src,
				sys_pll_div_to_cclk_e cclk_div,
				sys_cclk_div_to_hclk_e hclk_div,
				sys_hclk_div_to_pclk_e pclk_div,
				sys_pll_div_to_mspi_clk_e mspi_clk_div)
{
    1204:	1141                	c.addi	sp,-16
    1206:	c606                	c.swsp	ra,12(sp)
/cygdrive/c/Users/SwaminathanK/AndeSight3/workspace/DSP_cfft_q15_benchmark_N/Debug/../drivers/clock.c:377
	__asm__("csrci 	mmisc_ctl,8");	//disable BTB
    1208:	7d047073          	csrci	mmisc_ctl,8
/cygdrive/c/Users/SwaminathanK/AndeSight3/workspace/DSP_cfft_q15_benchmark_N/Debug/../drivers/clock.c:378
	clock_init_ram(pll, src, cclk_div, hclk_div, pclk_div, mspi_clk_div);
    120c:	ae8ff0ef          	jal	ra,4f4 <clock_init_ram>
/cygdrive/c/Users/SwaminathanK/AndeSight3/workspace/DSP_cfft_q15_benchmark_N/Debug/../drivers/clock.c:379
	__asm__("csrsi 	mmisc_ctl,8");	//enable BTB
    1210:	7d046073          	csrsi	mmisc_ctl,8
/cygdrive/c/Users/SwaminathanK/AndeSight3/workspace/DSP_cfft_q15_benchmark_N/Debug/../drivers/clock.c:380
}
    1214:	40b2                	c.lwsp	ra,12(sp)
    1216:	0141                	c.addi	sp,16
    1218:	00008067          	ret

0000121c <flash_dread>:
flash_dread():
/cygdrive/c/Users/SwaminathanK/AndeSight3/workspace/DSP_cfft_q15_benchmark_N/Debug/../drivers/flash.c:307
 *              Risk description: When the chip power supply voltage is relatively low, due to the unstable power supply,
 *              there may be a risk of error in the operation of the flash (especially for the write and erase operations.
 *              If an abnormality occurs, the firmware and user data may be rewritten, resulting in the final Product failure)
 */
_attribute_text_sec_ void flash_dread(unsigned long addr, unsigned long len, unsigned char *buf)
{
    121c:	1141                	c.addi	sp,-16
    121e:	c606                	c.swsp	ra,12(sp)
    1220:	87ae                	c.mv	a5,a1
    1222:	8732                	c.mv	a4,a2
/cygdrive/c/Users/SwaminathanK/AndeSight3/workspace/DSP_cfft_q15_benchmark_N/Debug/../drivers/flash.c:308
	__asm__("csrci 	mmisc_ctl,8");	//disable BTB
    1224:	7d047073          	csrci	mmisc_ctl,8
/cygdrive/c/Users/SwaminathanK/AndeSight3/workspace/DSP_cfft_q15_benchmark_N/Debug/../drivers/flash.c:309
	flash_mspi_read_ram(FLASH_DREAD_CMD, addr, 1, 1, buf, len);
    1228:	4685                	c.li	a3,1
    122a:	4605                	c.li	a2,1
    122c:	85aa                	c.mv	a1,a0
    122e:	03b00513          	li	a0,59
    1232:	d7aff0ef          	jal	ra,7ac <flash_mspi_read_ram>
/cygdrive/c/Users/SwaminathanK/AndeSight3/workspace/DSP_cfft_q15_benchmark_N/Debug/../drivers/flash.c:310
	__asm__("csrsi 	mmisc_ctl,8");	//enable BTB
    1236:	7d046073          	csrsi	mmisc_ctl,8
/cygdrive/c/Users/SwaminathanK/AndeSight3/workspace/DSP_cfft_q15_benchmark_N/Debug/../drivers/flash.c:311
}
    123a:	40b2                	c.lwsp	ra,12(sp)
    123c:	0141                	c.addi	sp,16
    123e:	8082                	c.jr	ra

00001240 <flash_read_mid>:
flash_read_mid():
/cygdrive/c/Users/SwaminathanK/AndeSight3/workspace/DSP_cfft_q15_benchmark_N/Debug/../drivers/flash.c:566
 *              Risk description: When the chip power supply voltage is relatively low, due to the unstable power supply,
 *              there may be a risk of error in the operation of the flash (especially for the write and erase operations.
 *              If an abnormality occurs, the firmware and user data may be rewritten, resulting in the final Product failure)
 */
_attribute_text_sec_ unsigned int flash_read_mid(void)
{
    1240:	1101                	c.addi	sp,-32
    1242:	ce06                	c.swsp	ra,28(sp)
/cygdrive/c/Users/SwaminathanK/AndeSight3/workspace/DSP_cfft_q15_benchmark_N/Debug/../drivers/flash.c:567
	unsigned int flash_mid = 0;
    1244:	c602                	c.swsp	zero,12(sp)
/cygdrive/c/Users/SwaminathanK/AndeSight3/workspace/DSP_cfft_q15_benchmark_N/Debug/../drivers/flash.c:568
	__asm__("csrci 	mmisc_ctl,8");	//disable BTB
    1246:	7d047073          	csrci	mmisc_ctl,8
/cygdrive/c/Users/SwaminathanK/AndeSight3/workspace/DSP_cfft_q15_benchmark_N/Debug/../drivers/flash.c:569
	flash_mspi_read_ram(FLASH_GET_JEDEC_ID, 0, 0, 0, (unsigned char*)(&flash_mid), 3);
    124a:	478d                	c.li	a5,3
    124c:	0078                	c.addi4spn	a4,sp,12
    124e:	4681                	c.li	a3,0
    1250:	4601                	c.li	a2,0
    1252:	4581                	c.li	a1,0
    1254:	09f00513          	li	a0,159
    1258:	d54ff0ef          	jal	ra,7ac <flash_mspi_read_ram>
/cygdrive/c/Users/SwaminathanK/AndeSight3/workspace/DSP_cfft_q15_benchmark_N/Debug/../drivers/flash.c:570
	__asm__("csrsi 	mmisc_ctl,8");	//enable BTB
    125c:	7d046073          	csrsi	mmisc_ctl,8
/cygdrive/c/Users/SwaminathanK/AndeSight3/workspace/DSP_cfft_q15_benchmark_N/Debug/../drivers/flash.c:572
	return flash_mid;
}
    1260:	4532                	c.lwsp	a0,12(sp)
    1262:	40f2                	c.lwsp	ra,28(sp)
    1264:	6105                	c.addi16sp	sp,32
    1266:	8082                	c.jr	ra

00001268 <flash_read_uid>:
flash_read_uid():
/cygdrive/c/Users/SwaminathanK/AndeSight3/workspace/DSP_cfft_q15_benchmark_N/Debug/../drivers/flash.c:592
 *              there may be a risk of error in the operation of the flash (especially for the write and erase operations.
 *              If an abnormality occurs, the firmware and user data may be rewritten, resulting in the final Product failure)
 */
_attribute_text_sec_ void flash_read_uid(unsigned char idcmd, unsigned char *buf)
{
	__asm__("csrci 	mmisc_ctl,8");	//disable BTB
    1268:	7d047073          	csrci	mmisc_ctl,8
/cygdrive/c/Users/SwaminathanK/AndeSight3/workspace/DSP_cfft_q15_benchmark_N/Debug/../drivers/flash.c:593
	if(idcmd == FLASH_READ_UID_CMD_GD_PUYA_ZB_TH)	//< GD/PUYA/ZB/TH
    126c:	40b5565b          	beqc	a0,75,1278 <flash_read_uid+0x10>
/cygdrive/c/Users/SwaminathanK/AndeSight3/workspace/DSP_cfft_q15_benchmark_N/Debug/../drivers/flash.c:597
	{
		flash_mspi_read_ram(idcmd, 0, 0, 4, buf, 16);
	}
	__asm__("csrsi 	mmisc_ctl,8");	//enable BTB
    1270:	7d046073          	csrsi	mmisc_ctl,8
    1274:	00008067          	ret
/cygdrive/c/Users/SwaminathanK/AndeSight3/workspace/DSP_cfft_q15_benchmark_N/Debug/../drivers/flash.c:591
{
    1278:	1141                	c.addi	sp,-16
    127a:	c606                	c.swsp	ra,12(sp)
    127c:	872e                	c.mv	a4,a1
/cygdrive/c/Users/SwaminathanK/AndeSight3/workspace/DSP_cfft_q15_benchmark_N/Debug/../drivers/flash.c:595
		flash_mspi_read_ram(idcmd, 0, 0, 4, buf, 16);
    127e:	47c1                	c.li	a5,16
    1280:	4691                	c.li	a3,4
    1282:	4601                	c.li	a2,0
    1284:	4581                	c.li	a1,0
    1286:	d26ff0ef          	jal	ra,7ac <flash_mspi_read_ram>
/cygdrive/c/Users/SwaminathanK/AndeSight3/workspace/DSP_cfft_q15_benchmark_N/Debug/../drivers/flash.c:597
	__asm__("csrsi 	mmisc_ctl,8");	//enable BTB
    128a:	7d046073          	csrsi	mmisc_ctl,8
/cygdrive/c/Users/SwaminathanK/AndeSight3/workspace/DSP_cfft_q15_benchmark_N/Debug/../drivers/flash.c:598
}
    128e:	40b2                	c.lwsp	ra,12(sp)
    1290:	0141                	c.addi	sp,16
    1292:	8082                	c.jr	ra

00001294 <flash_read_mid_uid_with_check>:
flash_read_mid_uid_with_check():
/cygdrive/c/Users/SwaminathanK/AndeSight3/workspace/DSP_cfft_q15_benchmark_N/Debug/../drivers/flash.c:689
 *              Risk description: When the chip power supply voltage is relatively low, due to the unstable power supply,
 *              there may be a risk of error in the operation of the flash (especially for the write and erase operations.
 *              If an abnormality occurs, the firmware and user data may be rewritten, resulting in the final Product failure)
 */
_attribute_text_sec_ int flash_read_mid_uid_with_check(unsigned int *flash_mid, unsigned char *flash_uid)
{
    1294:	1101                	c.addi	sp,-32
    1296:	ce06                	c.swsp	ra,28(sp)
    1298:	cc22                	c.swsp	s0,24(sp)
    129a:	ca26                	c.swsp	s1,20(sp)
    129c:	84aa                	c.mv	s1,a0
    129e:	842e                	c.mv	s0,a1
/cygdrive/c/Users/SwaminathanK/AndeSight3/workspace/DSP_cfft_q15_benchmark_N/Debug/../drivers/flash.c:690
	unsigned char no_uid[16]={0x51,0x01,0x51,0x01,0x51,0x01,0x51,0x01,0x51,0x01,0x51,0x01,0x51,0x01,0x51,0x01};
    12a0:	841f978b          	addigp	a5,-1984 # 80040 <cst_libm_sincosf+0x40>
    12a4:	4390                	c.lw	a2,0(a5)
    12a6:	43d4                	c.lw	a3,4(a5)
    12a8:	4798                	c.lw	a4,8(a5)
    12aa:	c032                	c.swsp	a2,0(sp)
    12ac:	c236                	c.swsp	a3,4(sp)
    12ae:	c43a                	c.swsp	a4,8(sp)
    12b0:	47dc                	c.lw	a5,12(a5)
    12b2:	c63e                	c.swsp	a5,12(sp)
/cygdrive/c/Users/SwaminathanK/AndeSight3/workspace/DSP_cfft_q15_benchmark_N/Debug/../drivers/flash.c:692
	unsigned int i,f_cnt=0;
	*flash_mid = flash_read_mid();
    12b4:	3771                	c.jal	1240 <flash_read_mid>
    12b6:	c088                	c.sw	a0,0(s1)
/cygdrive/c/Users/SwaminathanK/AndeSight3/workspace/DSP_cfft_q15_benchmark_N/Debug/../drivers/flash.c:694

	for(i=0; i<FLASH_CNT; i++){
    12b8:	00000493          	li	s1,0
    12bc:	4789                	c.li	a5,2
    12be:	0097ef63          	bltu	a5,s1,12dc <flash_read_mid_uid_with_check+0x48>
/cygdrive/c/Users/SwaminathanK/AndeSight3/workspace/DSP_cfft_q15_benchmark_N/Debug/../drivers/flash.c:695
		if(flash_support_mid[i] == *flash_mid){
    12c2:	869f978b          	addigp	a5,-1944 # 80068 <flash_support_mid>
    12c6:	0c9787db          	lea.w	a5,a5,s1
    12ca:	439c                	c.lw	a5,0(a5)
    12cc:	00f50463          	beq	a0,a5,12d4 <flash_read_mid_uid_with_check+0x40>
/cygdrive/c/Users/SwaminathanK/AndeSight3/workspace/DSP_cfft_q15_benchmark_N/Debug/../drivers/flash.c:694
	for(i=0; i<FLASH_CNT; i++){
    12d0:	0485                	c.addi	s1,1
    12d2:	b7ed                	c.j	12bc <flash_read_mid_uid_with_check+0x28>
/cygdrive/c/Users/SwaminathanK/AndeSight3/workspace/DSP_cfft_q15_benchmark_N/Debug/../drivers/flash.c:696
			flash_read_uid(FLASH_READ_UID_CMD_GD_PUYA_ZB_TH, (unsigned char *)flash_uid);
    12d4:	85a2                	c.mv	a1,s0
    12d6:	04b00513          	li	a0,75
    12da:	3779                	c.jal	1268 <flash_read_uid>
/cygdrive/c/Users/SwaminathanK/AndeSight3/workspace/DSP_cfft_q15_benchmark_N/Debug/../drivers/flash.c:700
			break;
		}
	}
	if(i == FLASH_CNT){
    12dc:	0434d45b          	beqc	s1,3,1324 <flash_read_mid_uid_with_check+0x90>
/cygdrive/c/Users/SwaminathanK/AndeSight3/workspace/DSP_cfft_q15_benchmark_N/Debug/../drivers/flash.c:691
	unsigned int i,f_cnt=0;
    12e0:	4601                	c.li	a2,0
/cygdrive/c/Users/SwaminathanK/AndeSight3/workspace/DSP_cfft_q15_benchmark_N/Debug/../drivers/flash.c:704
		return 0;
	}

	for(i=0; i<16; i++){
    12e2:	4781                	c.li	a5,0
    12e4:	0080006f          	j	12ec <flash_read_mid_uid_with_check+0x58>
    12e8:	00178793          	addi	a5,a5,1
    12ec:	473d                	c.li	a4,15
    12ee:	00f76f63          	bltu	a4,a5,130c <flash_read_mid_uid_with_check+0x78>
/cygdrive/c/Users/SwaminathanK/AndeSight3/workspace/DSP_cfft_q15_benchmark_N/Debug/../drivers/flash.c:705
		if(flash_uid[i] == no_uid[i]){
    12f2:	00f40733          	add	a4,s0,a5
    12f6:	00074683          	lbu	a3,0(a4)
    12fa:	080c                	c.addi4spn	a1,sp,16
    12fc:	00f58733          	add	a4,a1,a5
    1300:	ff074703          	lbu	a4,-16(a4)
    1304:	fee692e3          	bne	a3,a4,12e8 <flash_read_mid_uid_with_check+0x54>
/cygdrive/c/Users/SwaminathanK/AndeSight3/workspace/DSP_cfft_q15_benchmark_N/Debug/../drivers/flash.c:706
			f_cnt++;
    1308:	0605                	c.addi	a2,1
    130a:	bff9                	c.j	12e8 <flash_read_mid_uid_with_check+0x54>
/cygdrive/c/Users/SwaminathanK/AndeSight3/workspace/DSP_cfft_q15_benchmark_N/Debug/../drivers/flash.c:710
		}
	}

	if(f_cnt == 16){	//no uid flash
    130c:	01065a5b          	beqc	a2,16,1320 <flash_read_mid_uid_with_check+0x8c>
/cygdrive/c/Users/SwaminathanK/AndeSight3/workspace/DSP_cfft_q15_benchmark_N/Debug/../drivers/flash.c:713
		return 0;
	}else{
		return 1;
    1310:	00100513          	li	a0,1
/cygdrive/c/Users/SwaminathanK/AndeSight3/workspace/DSP_cfft_q15_benchmark_N/Debug/../drivers/flash.c:715
	}
}
    1314:	40f2                	c.lwsp	ra,28(sp)
    1316:	4462                	c.lwsp	s0,24(sp)
    1318:	44d2                	c.lwsp	s1,20(sp)
    131a:	6105                	c.addi16sp	sp,32
    131c:	00008067          	ret
/cygdrive/c/Users/SwaminathanK/AndeSight3/workspace/DSP_cfft_q15_benchmark_N/Debug/../drivers/flash.c:711
		return 0;
    1320:	4501                	c.li	a0,0
    1322:	bfcd                	c.j	1314 <flash_read_mid_uid_with_check+0x80>
/cygdrive/c/Users/SwaminathanK/AndeSight3/workspace/DSP_cfft_q15_benchmark_N/Debug/../drivers/flash.c:701
		return 0;
    1324:	4501                	c.li	a0,0
    1326:	b7fd                	c.j	1314 <flash_read_mid_uid_with_check+0x80>

00001328 <pm_sleep_wakeup.constprop.0>:
pm_sleep_wakeup():
D:/release_sdk/v2_3_0_2/telink_b91m_driver_src/chip/B91/drivers/lib/src/pm.c:790
    1328:	1141                	c.addi	sp,-16
    132a:	c606                	c.swsp	ra,12(sp)
D:/release_sdk/v2_3_0_2/telink_b91m_driver_src/chip/B91/drivers/lib/src/pm.c:793
    132c:	7d047073          	csrci	mmisc_ctl,8
D:/release_sdk/v2_3_0_2/telink_b91m_driver_src/chip/B91/drivers/lib/src/pm.c:794
    1330:	3405                	c.jal	d50 <pm_sleep_wakeup_ram.constprop.1>
D:/release_sdk/v2_3_0_2/telink_b91m_driver_src/chip/B91/drivers/lib/src/pm.c:795
    1332:	7d046073          	csrsi	mmisc_ctl,8
D:/release_sdk/v2_3_0_2/telink_b91m_driver_src/chip/B91/drivers/lib/src/pm.c:797
    1336:	40b2                	c.lwsp	ra,12(sp)
    1338:	0141                	c.addi	sp,16
    133a:	8082                	c.jr	ra

0000133c <user_calib_adc_vref>:
user_calib_adc_vref():
/cygdrive/c/Users/SwaminathanK/AndeSight3/workspace/DSP_cfft_q15_benchmark_N/Debug/../vendor/common/calibration/calibration.c:33
 * @param[in]  velfrom - the calibration value from flash or otp.
 * @param[in]  addr - the calibration value address of flash or otp.
 * @return 	   1 - the calibration value update, 0 - the calibration value is not update.
 */
unsigned char user_calib_adc_vref(user_calib_from_e velfrom, unsigned int addr)
{
    133c:	1101                	c.addi	sp,-32
    133e:	ce06                	c.swsp	ra,28(sp)
/cygdrive/c/Users/SwaminathanK/AndeSight3/workspace/DSP_cfft_q15_benchmark_N/Debug/../vendor/common/calibration/calibration.c:45
	deviation of two-point calibrate  in flash:-11~7mv.
	deviation of two-point calibrate  in efuse:-9~24mv.
	deviation of one-point calibrate  in flash:-20~20mv.
	The above statistical results are obtained by testing only 19 9213A chips.
********************************************************************************************/
	unsigned char adc_vref_calib_value[7] = {0};
    1340:	c402                	c.swsp	zero,8(sp)
    1342:	00011623          	sh	zero,12(sp)
    1346:	00010723          	sb	zero,14(sp)
/cygdrive/c/Users/SwaminathanK/AndeSight3/workspace/DSP_cfft_q15_benchmark_N/Debug/../vendor/common/calibration/calibration.c:46
	unsigned short gpio_calib_value = 0;
    134a:	00011323          	sh	zero,6(sp)
/cygdrive/c/Users/SwaminathanK/AndeSight3/workspace/DSP_cfft_q15_benchmark_N/Debug/../vendor/common/calibration/calibration.c:47
	signed char gpio_calib_value_offset = 0;
    134e:	000102a3          	sb	zero,5(sp)
/cygdrive/c/Users/SwaminathanK/AndeSight3/workspace/DSP_cfft_q15_benchmark_N/Debug/../vendor/common/calibration/calibration.c:48
	if(addr == 0)
    1352:	c9bd                	c.beqz	a1,13c8 <user_calib_adc_vref+0x8c>
    1354:	87ae                	c.mv	a5,a1
/cygdrive/c/Users/SwaminathanK/AndeSight3/workspace/DSP_cfft_q15_benchmark_N/Debug/../vendor/common/calibration/calibration.c:63
			}
		}
	}
	else
	{
		if(velfrom == USER_CALIB_FROM_FLASH)
    1356:	00156b5b          	bnec	a0,1,136c <user_calib_adc_vref+0x30>
/cygdrive/c/Users/SwaminathanK/AndeSight3/workspace/DSP_cfft_q15_benchmark_N/Debug/../vendor/common/calibration/calibration.c:65
		{
			flash_read_page(addr, 7, adc_vref_calib_value);
    135a:	00000737          	lui	a4,0x0
    135e:	18072703          	lw	a4,384(a4) # 180 <flash_read_page>
    1362:	0030                	c.addi4spn	a2,sp,8
    1364:	459d                	c.li	a1,7
    1366:	853e                	c.mv	a0,a5
    1368:	000700e7          	jalr	a4
/cygdrive/c/Users/SwaminathanK/AndeSight3/workspace/DSP_cfft_q15_benchmark_N/Debug/../vendor/common/calibration/calibration.c:68
		}
		/****** Check the two-point gpio calibration value whether is exist ********/
		if((adc_vref_calib_value[4] != 0xff) && (adc_vref_calib_value[4] <= 0x7f) && (((adc_vref_calib_value[6] << 8) + adc_vref_calib_value[5]) != 0xffff)){
    136c:	00c14783          	lbu	a5,12(sp)
    1370:	1c07b75b          	bfos	a4,a5,7,0
    1374:	0a074263          	bltz	a4,1418 <user_calib_adc_vref+0xdc>
    1378:	00e14603          	lbu	a2,14(sp)
    137c:	00861693          	slli	a3,a2,0x8
    1380:	00d14503          	lbu	a0,13(sp)
    1384:	96aa                	c.add	a3,a0
    1386:	6741                	c.lui	a4,0x10
    1388:	177d                	c.addi	a4,-1
    138a:	08e68763          	beq	a3,a4,1418 <user_calib_adc_vref+0xdc>
/cygdrive/c/Users/SwaminathanK/AndeSight3/workspace/DSP_cfft_q15_benchmark_N/Debug/../vendor/common/calibration/calibration.c:72
			/****** Method of calculating two-point gpio calibration Flash_gain and Flash_offset value: ********/
			/****** Vref = [(Seven_Byte << 8) + Six_Byte + 1000]mv ********/
			/****** offset = [Five_Byte - 20] mv ********/
			gpio_calib_value = (adc_vref_calib_value[6] << 8) + adc_vref_calib_value[5] + 1000;
    138e:	3e868513          	addi	a0,a3,1000 # 400003e8 <_DATA_LMA_START+0x1fff9810>
    1392:	3c05255b          	bfoz	a0,a0,15,0
    1396:	00a11323          	sh	a0,6(sp)
/cygdrive/c/Users/SwaminathanK/AndeSight3/workspace/DSP_cfft_q15_benchmark_N/Debug/../vendor/common/calibration/calibration.c:73
			gpio_calib_value_offset = adc_vref_calib_value[4] - 20;
    139a:	17b1                	c.addi	a5,-20
    139c:	1c07b7db          	bfos	a5,a5,7,0
    13a0:	00f102a3          	sb	a5,5(sp)
/cygdrive/c/Users/SwaminathanK/AndeSight3/workspace/DSP_cfft_q15_benchmark_N/Debug/../vendor/common/calibration/calibration.c:74
			if ((gpio_calib_value > 1047) && (gpio_calib_value < 1300) && (gpio_calib_value_offset > -20) && (gpio_calib_value_offset < 107))
    13a4:	be850713          	addi	a4,a0,-1048 # 3ffffbe8 <_DATA_LMA_START+0x1fff9010>
    13a8:	3c07275b          	bfoz	a4,a4,15,0
    13ac:	0fb00693          	li	a3,251
    13b0:	0ee6e063          	bltu	a3,a4,1490 <user_calib_adc_vref+0x154>
    13b4:	5735                	c.li	a4,-19
    13b6:	0ee7c363          	blt	a5,a4,149c <user_calib_adc_vref+0x160>
    13ba:	06a00713          	li	a4,106
    13be:	04f75763          	bge	a4,a5,140c <user_calib_adc_vref+0xd0>
/cygdrive/c/Users/SwaminathanK/AndeSight3/workspace/DSP_cfft_q15_benchmark_N/Debug/../vendor/common/calibration/calibration.c:106
				}
			}
		}
	}

	return 0;
    13c2:	4501                	c.li	a0,0
    13c4:	0d00006f          	j	1494 <user_calib_adc_vref+0x158>
/cygdrive/c/Users/SwaminathanK/AndeSight3/workspace/DSP_cfft_q15_benchmark_N/Debug/../vendor/common/calibration/calibration.c:51
		if(0 != efuse_get_adc_calib_value(&gpio_calib_value, &gpio_calib_value_offset))
    13c8:	00510593          	addi	a1,sp,5
    13cc:	00610513          	addi	a0,sp,6
    13d0:	419000ef          	jal	ra,1fe8 <efuse_get_adc_calib_value>
    13d4:	c161                	c.beqz	a0,1494 <user_calib_adc_vref+0x158>
/cygdrive/c/Users/SwaminathanK/AndeSight3/workspace/DSP_cfft_q15_benchmark_N/Debug/../vendor/common/calibration/calibration.c:53
			if((gpio_calib_value > 1100) && (gpio_calib_value < 1300) && (gpio_calib_value_offset > -20) && (gpio_calib_value_offset < 43))
    13d6:	00615503          	lhu	a0,6(sp)
    13da:	bb350793          	addi	a5,a0,-1101
    13de:	3c07a7db          	bfoz	a5,a5,15,0
    13e2:	0c600713          	li	a4,198
    13e6:	0af76163          	bltu	a4,a5,1488 <user_calib_adc_vref+0x14c>
    13ea:	00510783          	lb	a5,5(sp)
    13ee:	5735                	c.li	a4,-19
    13f0:	08e7ce63          	blt	a5,a4,148c <user_calib_adc_vref+0x150>
    13f4:	02a00713          	li	a4,42
    13f8:	00f75463          	bge	a4,a5,1400 <user_calib_adc_vref+0xc4>
/cygdrive/c/Users/SwaminathanK/AndeSight3/workspace/DSP_cfft_q15_benchmark_N/Debug/../vendor/common/calibration/calibration.c:106
	return 0;
    13fc:	4501                	c.li	a0,0
    13fe:	a859                	c.j	1494 <user_calib_adc_vref+0x158>
/cygdrive/c/Users/SwaminathanK/AndeSight3/workspace/DSP_cfft_q15_benchmark_N/Debug/../vendor/common/calibration/calibration.c:55
				adc_set_gpio_calib_vref(gpio_calib_value);
    1400:	2c05                	c.jal	1630 <adc_set_gpio_calib_vref>
/cygdrive/c/Users/SwaminathanK/AndeSight3/workspace/DSP_cfft_q15_benchmark_N/Debug/../vendor/common/calibration/calibration.c:56
				adc_set_gpio_two_point_calib_offset(gpio_calib_value_offset);
    1402:	00510503          	lb	a0,5(sp)
    1406:	243d                	c.jal	1634 <adc_set_gpio_two_point_calib_offset>
/cygdrive/c/Users/SwaminathanK/AndeSight3/workspace/DSP_cfft_q15_benchmark_N/Debug/../vendor/common/calibration/calibration.c:57
				return 1;
    1408:	4505                	c.li	a0,1
    140a:	a069                	c.j	1494 <user_calib_adc_vref+0x158>
/cygdrive/c/Users/SwaminathanK/AndeSight3/workspace/DSP_cfft_q15_benchmark_N/Debug/../vendor/common/calibration/calibration.c:76
			   adc_set_gpio_calib_vref(gpio_calib_value);
    140c:	2415                	c.jal	1630 <adc_set_gpio_calib_vref>
/cygdrive/c/Users/SwaminathanK/AndeSight3/workspace/DSP_cfft_q15_benchmark_N/Debug/../vendor/common/calibration/calibration.c:77
			   adc_set_gpio_two_point_calib_offset(gpio_calib_value_offset);
    140e:	00510503          	lb	a0,5(sp)
    1412:	240d                	c.jal	1634 <adc_set_gpio_two_point_calib_offset>
/cygdrive/c/Users/SwaminathanK/AndeSight3/workspace/DSP_cfft_q15_benchmark_N/Debug/../vendor/common/calibration/calibration.c:78
			   return 1;
    1414:	4505                	c.li	a0,1
    1416:	a8bd                	c.j	1494 <user_calib_adc_vref+0x158>
/cygdrive/c/Users/SwaminathanK/AndeSight3/workspace/DSP_cfft_q15_benchmark_N/Debug/../vendor/common/calibration/calibration.c:83
			if(0 != efuse_get_adc_calib_value(&gpio_calib_value, &gpio_calib_value_offset))
    1418:	00510593          	addi	a1,sp,5
    141c:	00610513          	addi	a0,sp,6
    1420:	3c9000ef          	jal	ra,1fe8 <efuse_get_adc_calib_value>
    1424:	cd05                	c.beqz	a0,145c <user_calib_adc_vref+0x120>
/cygdrive/c/Users/SwaminathanK/AndeSight3/workspace/DSP_cfft_q15_benchmark_N/Debug/../vendor/common/calibration/calibration.c:85
				if((gpio_calib_value > 1100) && (gpio_calib_value < 1300) && (gpio_calib_value_offset > -20) && (gpio_calib_value_offset < 43))
    1426:	00615503          	lhu	a0,6(sp)
    142a:	bb350793          	addi	a5,a0,-1101
    142e:	3c07a7db          	bfoz	a5,a5,15,0
    1432:	0c600713          	li	a4,198
    1436:	06f76563          	bltu	a4,a5,14a0 <user_calib_adc_vref+0x164>
    143a:	00510783          	lb	a5,5(sp)
    143e:	5735                	c.li	a4,-19
    1440:	06e7c263          	blt	a5,a4,14a4 <user_calib_adc_vref+0x168>
    1444:	02a00713          	li	a4,42
    1448:	00f75463          	bge	a4,a5,1450 <user_calib_adc_vref+0x114>
/cygdrive/c/Users/SwaminathanK/AndeSight3/workspace/DSP_cfft_q15_benchmark_N/Debug/../vendor/common/calibration/calibration.c:106
	return 0;
    144c:	4501                	c.li	a0,0
    144e:	a099                	c.j	1494 <user_calib_adc_vref+0x158>
/cygdrive/c/Users/SwaminathanK/AndeSight3/workspace/DSP_cfft_q15_benchmark_N/Debug/../vendor/common/calibration/calibration.c:87
				adc_set_gpio_calib_vref(gpio_calib_value);
    1450:	22c5                	c.jal	1630 <adc_set_gpio_calib_vref>
/cygdrive/c/Users/SwaminathanK/AndeSight3/workspace/DSP_cfft_q15_benchmark_N/Debug/../vendor/common/calibration/calibration.c:88
				adc_set_gpio_two_point_calib_offset(gpio_calib_value_offset);
    1452:	00510503          	lb	a0,5(sp)
    1456:	2af9                	c.jal	1634 <adc_set_gpio_two_point_calib_offset>
/cygdrive/c/Users/SwaminathanK/AndeSight3/workspace/DSP_cfft_q15_benchmark_N/Debug/../vendor/common/calibration/calibration.c:89
				return 1;
    1458:	4505                	c.li	a0,1
    145a:	a82d                	c.j	1494 <user_calib_adc_vref+0x158>
/cygdrive/c/Users/SwaminathanK/AndeSight3/workspace/DSP_cfft_q15_benchmark_N/Debug/../vendor/common/calibration/calibration.c:95
				gpio_calib_value = 920 + adc_vref_calib_value[0] + adc_vref_calib_value[1];
    145c:	00814783          	lbu	a5,8(sp)
    1460:	00914703          	lbu	a4,9(sp)
    1464:	97ba                	c.add	a5,a4
    1466:	39878793          	addi	a5,a5,920
    146a:	00f11323          	sh	a5,6(sp)
/cygdrive/c/Users/SwaminathanK/AndeSight3/workspace/DSP_cfft_q15_benchmark_N/Debug/../vendor/common/calibration/calibration.c:97
				if ((gpio_calib_value > 1047) && (gpio_calib_value < 1300))
    146e:	be878713          	addi	a4,a5,-1048
    1472:	3c07275b          	bfoz	a4,a4,15,0
    1476:	0fb00693          	li	a3,251
    147a:	00e6ed63          	bltu	a3,a4,1494 <user_calib_adc_vref+0x158>
/cygdrive/c/Users/SwaminathanK/AndeSight3/workspace/DSP_cfft_q15_benchmark_N/Debug/../vendor/common/calibration/calibration.c:99
					adc_set_gpio_calib_vref(gpio_calib_value);
    147e:	853e                	c.mv	a0,a5
    1480:	2a45                	c.jal	1630 <adc_set_gpio_calib_vref>
/cygdrive/c/Users/SwaminathanK/AndeSight3/workspace/DSP_cfft_q15_benchmark_N/Debug/../vendor/common/calibration/calibration.c:100
					return 1;
    1482:	4505                	c.li	a0,1
    1484:	0100006f          	j	1494 <user_calib_adc_vref+0x158>
/cygdrive/c/Users/SwaminathanK/AndeSight3/workspace/DSP_cfft_q15_benchmark_N/Debug/../vendor/common/calibration/calibration.c:106
	return 0;
    1488:	4501                	c.li	a0,0
    148a:	a029                	c.j	1494 <user_calib_adc_vref+0x158>
    148c:	4501                	c.li	a0,0
    148e:	a019                	c.j	1494 <user_calib_adc_vref+0x158>
    1490:	00000513          	li	a0,0
/cygdrive/c/Users/SwaminathanK/AndeSight3/workspace/DSP_cfft_q15_benchmark_N/Debug/../vendor/common/calibration/calibration.c:107
}
    1494:	40f2                	c.lwsp	ra,28(sp)
    1496:	6105                	c.addi16sp	sp,32
    1498:	00008067          	ret
/cygdrive/c/Users/SwaminathanK/AndeSight3/workspace/DSP_cfft_q15_benchmark_N/Debug/../vendor/common/calibration/calibration.c:106
	return 0;
    149c:	4501                	c.li	a0,0
    149e:	bfdd                	c.j	1494 <user_calib_adc_vref+0x158>
    14a0:	4501                	c.li	a0,0
    14a2:	bfcd                	c.j	1494 <user_calib_adc_vref+0x158>
    14a4:	4501                	c.li	a0,0
    14a6:	b7fd                	c.j	1494 <user_calib_adc_vref+0x158>
    14a8:	0001                	c.nop
	...

000014ac <user_calib_freq_offset>:
user_calib_freq_offset():
/cygdrive/c/Users/SwaminathanK/AndeSight3/workspace/DSP_cfft_q15_benchmark_N/Debug/../vendor/common/calibration/calibration.c:116
 * @param[in]  velfrom - the calibration value from flash or otp.
 * @param[in]  addr - the frequency offset value address of flash or otp.
 * @return 	   1 - the frequency offset update, 0 - the frequency offset is not update.
 */
unsigned char user_calib_freq_offset(user_calib_from_e velfrom, unsigned int addr)
{
    14ac:	1101                	c.addi	sp,-32
    14ae:	ce06                	c.swsp	ra,28(sp)
/cygdrive/c/Users/SwaminathanK/AndeSight3/workspace/DSP_cfft_q15_benchmark_N/Debug/../vendor/common/calibration/calibration.c:117
	unsigned char frequency_offset_value = 0xff;
    14b0:	57fd                	c.li	a5,-1
    14b2:	00f107a3          	sb	a5,15(sp)
/cygdrive/c/Users/SwaminathanK/AndeSight3/workspace/DSP_cfft_q15_benchmark_N/Debug/../vendor/common/calibration/calibration.c:118
	if(velfrom == USER_CALIB_FROM_FLASH)
    14b6:	00156d5b          	bnec	a0,1,14d0 <user_calib_freq_offset+0x24>
    14ba:	872e                	c.mv	a4,a1
/cygdrive/c/Users/SwaminathanK/AndeSight3/workspace/DSP_cfft_q15_benchmark_N/Debug/../vendor/common/calibration/calibration.c:120
	{
		flash_read_page(addr, 1, &frequency_offset_value);
    14bc:	000007b7          	lui	a5,0x0
    14c0:	1807a783          	lw	a5,384(a5) # 180 <flash_read_page>
    14c4:	00f10613          	addi	a2,sp,15
    14c8:	4585                	c.li	a1,1
    14ca:	853a                	c.mv	a0,a4
    14cc:	000780e7          	jalr	a5
/cygdrive/c/Users/SwaminathanK/AndeSight3/workspace/DSP_cfft_q15_benchmark_N/Debug/../vendor/common/calibration/calibration.c:122
	}
	if(0xff != frequency_offset_value)
    14d0:	00f14503          	lbu	a0,15(sp)
    14d4:	0ff00793          	li	a5,255
    14d8:	00f50a63          	beq	a0,a5,14ec <user_calib_freq_offset+0x40>
/cygdrive/c/Users/SwaminathanK/AndeSight3/workspace/DSP_cfft_q15_benchmark_N/Debug/../vendor/common/calibration/calibration.c:124
	{
		rf_update_internal_cap(frequency_offset_value);
    14dc:	121000ef          	jal	ra,1dfc <rf_update_internal_cap>
/cygdrive/c/Users/SwaminathanK/AndeSight3/workspace/DSP_cfft_q15_benchmark_N/Debug/../vendor/common/calibration/calibration.c:125
		return 1;
    14e0:	00100513          	li	a0,1
/cygdrive/c/Users/SwaminathanK/AndeSight3/workspace/DSP_cfft_q15_benchmark_N/Debug/../vendor/common/calibration/calibration.c:129
	}

	return 0;
}
    14e4:	40f2                	c.lwsp	ra,28(sp)
    14e6:	6105                	c.addi16sp	sp,32
    14e8:	00008067          	ret
/cygdrive/c/Users/SwaminathanK/AndeSight3/workspace/DSP_cfft_q15_benchmark_N/Debug/../vendor/common/calibration/calibration.c:128
	return 0;
    14ec:	4501                	c.li	a0,0
    14ee:	bfdd                	c.j	14e4 <user_calib_freq_offset+0x38>
    14f0:	0001                	c.nop
	...

000014f4 <user_read_flash_value_calib>:
user_read_flash_value_calib():
/cygdrive/c/Users/SwaminathanK/AndeSight3/workspace/DSP_cfft_q15_benchmark_N/Debug/../vendor/common/calibration/calibration.c:139
 * 				and use the calibration value to configure the chip to improve chip performance.
 * 				(reduce adc measurement error, reduce frequency offset, etc.)
 * @return		none.
 */
void user_read_flash_value_calib(void)
{
    14f4:	7179                	c.addi16sp	sp,-48
    14f6:	d606                	c.swsp	ra,44(sp)
/cygdrive/c/Users/SwaminathanK/AndeSight3/workspace/DSP_cfft_q15_benchmark_N/Debug/../vendor/common/calibration/calibration.c:145
	unsigned char flash_mid[4];
	unsigned char flash_uid[16];
	unsigned char flash_mid_sure = 0;

	/******check for flash mid********/
	flash_mid_sure = flash_read_mid_uid_with_check((unsigned int *)flash_mid, flash_uid);
    14f8:	006c                	c.addi4spn	a1,sp,12
    14fa:	0868                	c.addi4spn	a0,sp,28
    14fc:	3b61                	c.jal	1294 <flash_read_mid_uid_with_check>
    14fe:	0ff57513          	andi	a0,a0,255
/cygdrive/c/Users/SwaminathanK/AndeSight3/workspace/DSP_cfft_q15_benchmark_N/Debug/../vendor/common/calibration/calibration.c:147

	if (1 == flash_mid_sure)
    1502:	0a156b5b          	bnec	a0,1,15b8 <user_read_flash_value_calib+0xc4>
/cygdrive/c/Users/SwaminathanK/AndeSight3/workspace/DSP_cfft_q15_benchmark_N/Debug/../vendor/common/calibration/calibration.c:149
	{
		switch (flash_mid[2])
    1506:	01e14783          	lbu	a5,30(sp)
    150a:	0537df5b          	beqc	a5,19,1568 <user_read_flash_value_calib+0x74>
    150e:	474d                	c.li	a4,19
    1510:	02f77463          	bgeu	a4,a5,1538 <user_read_flash_value_calib+0x44>
    1514:	0957d25b          	beqc	a5,21,1598 <user_read_flash_value_calib+0xa4>
    1518:	4755                	c.li	a4,21
    151a:	06e7e363          	bltu	a5,a4,1580 <user_read_flash_value_calib+0x8c>
    151e:	0967e95b          	bnec	a5,22,15b0 <user_read_flash_value_calib+0xbc>
/cygdrive/c/Users/SwaminathanK/AndeSight3/workspace/DSP_cfft_q15_benchmark_N/Debug/../vendor/common/calibration/calibration.c:172
			case FLASH_SIZE_2M:
				user_calib_adc_vref(USER_CALIB_FROM_FLASH, FLASH_ADC_VREF_CALIB_ADDR_2M);
				user_calib_freq_offset(USER_CALIB_FROM_FLASH, FLASH_CAP_VALUE_ADDR_2M);
				break;
			case FLASH_SIZE_4M:
				user_calib_adc_vref(USER_CALIB_FROM_FLASH, FLASH_ADC_VREF_CALIB_ADDR_4M);
    1522:	003fe5b7          	lui	a1,0x3fe
    1526:	0c058593          	addi	a1,a1,192 # 3fe0c0 <FLASH_SIZE+0x2fe0c0>
    152a:	4505                	c.li	a0,1
    152c:	3d01                	c.jal	133c <user_calib_adc_vref>
/cygdrive/c/Users/SwaminathanK/AndeSight3/workspace/DSP_cfft_q15_benchmark_N/Debug/../vendor/common/calibration/calibration.c:173
				user_calib_freq_offset(USER_CALIB_FROM_FLASH, FLASH_CAP_VALUE_ADDR_4M);
    152e:	003fe5b7          	lui	a1,0x3fe
    1532:	4505                	c.li	a0,1
    1534:	3fa5                	c.jal	14ac <user_calib_freq_offset>
    1536:	a069                	c.j	15c0 <user_read_flash_value_calib+0xcc>
/cygdrive/c/Users/SwaminathanK/AndeSight3/workspace/DSP_cfft_q15_benchmark_N/Debug/../vendor/common/calibration/calibration.c:149
		switch (flash_mid[2])
    1538:	0107de5b          	beqc	a5,16,1554 <user_read_flash_value_calib+0x60>
    153c:	0717ea5b          	bnec	a5,17,15b0 <user_read_flash_value_calib+0xbc>
/cygdrive/c/Users/SwaminathanK/AndeSight3/workspace/DSP_cfft_q15_benchmark_N/Debug/../vendor/common/calibration/calibration.c:156
				user_calib_adc_vref(USER_CALIB_FROM_FLASH, FLASH_ADC_VREF_CALIB_ADDR_128K);
    1540:	65f9                	c.lui	a1,0x1e
    1542:	0c058593          	addi	a1,a1,192 # 1e0c0 <BIN_SIZE+0x15e3e>
    1546:	4505                	c.li	a0,1
    1548:	3bd5                	c.jal	133c <user_calib_adc_vref>
/cygdrive/c/Users/SwaminathanK/AndeSight3/workspace/DSP_cfft_q15_benchmark_N/Debug/../vendor/common/calibration/calibration.c:157
				user_calib_freq_offset(USER_CALIB_FROM_FLASH, FLASH_CAP_VALUE_ADDR_128K);
    154a:	65f9                	c.lui	a1,0x1e
    154c:	4505                	c.li	a0,1
    154e:	3fb9                	c.jal	14ac <user_calib_freq_offset>
    1550:	0700006f          	j	15c0 <user_read_flash_value_calib+0xcc>
/cygdrive/c/Users/SwaminathanK/AndeSight3/workspace/DSP_cfft_q15_benchmark_N/Debug/../vendor/common/calibration/calibration.c:152
				user_calib_adc_vref(USER_CALIB_FROM_FLASH, FLASH_ADC_VREF_CALIB_ADDR_64K);
    1554:	65b9                	c.lui	a1,0xe
    1556:	0c058593          	addi	a1,a1,192 # e0c0 <BIN_SIZE+0x5e3e>
    155a:	4505                	c.li	a0,1
    155c:	33c5                	c.jal	133c <user_calib_adc_vref>
/cygdrive/c/Users/SwaminathanK/AndeSight3/workspace/DSP_cfft_q15_benchmark_N/Debug/../vendor/common/calibration/calibration.c:153
				user_calib_freq_offset(USER_CALIB_FROM_FLASH, FLASH_CAP_VALUE_ADDR_64K);
    155e:	65b9                	c.lui	a1,0xe
    1560:	4505                	c.li	a0,1
    1562:	37a9                	c.jal	14ac <user_calib_freq_offset>
    1564:	05c0006f          	j	15c0 <user_read_flash_value_calib+0xcc>
/cygdrive/c/Users/SwaminathanK/AndeSight3/workspace/DSP_cfft_q15_benchmark_N/Debug/../vendor/common/calibration/calibration.c:160
				user_calib_adc_vref(USER_CALIB_FROM_FLASH, FLASH_ADC_VREF_CALIB_ADDR_512K);
    1568:	0007e5b7          	lui	a1,0x7e
    156c:	0c058593          	addi	a1,a1,192 # 7e0c0 <BIN_SIZE+0x75e3e>
    1570:	4505                	c.li	a0,1
    1572:	33e9                	c.jal	133c <user_calib_adc_vref>
/cygdrive/c/Users/SwaminathanK/AndeSight3/workspace/DSP_cfft_q15_benchmark_N/Debug/../vendor/common/calibration/calibration.c:161
				user_calib_freq_offset(USER_CALIB_FROM_FLASH, FLASH_CAP_VALUE_ADDR_512K);
    1574:	0007e5b7          	lui	a1,0x7e
    1578:	4505                	c.li	a0,1
    157a:	3f0d                	c.jal	14ac <user_calib_freq_offset>
    157c:	0440006f          	j	15c0 <user_read_flash_value_calib+0xcc>
/cygdrive/c/Users/SwaminathanK/AndeSight3/workspace/DSP_cfft_q15_benchmark_N/Debug/../vendor/common/calibration/calibration.c:164
				user_calib_adc_vref(USER_CALIB_FROM_FLASH, FLASH_ADC_VREF_CALIB_ADDR_1M);
    1580:	000fe5b7          	lui	a1,0xfe
    1584:	0c058593          	addi	a1,a1,192 # fe0c0 <_STACK_TOP+0x5e0c0>
    1588:	4505                	c.li	a0,1
    158a:	3b4d                	c.jal	133c <user_calib_adc_vref>
/cygdrive/c/Users/SwaminathanK/AndeSight3/workspace/DSP_cfft_q15_benchmark_N/Debug/../vendor/common/calibration/calibration.c:165
				user_calib_freq_offset(USER_CALIB_FROM_FLASH, FLASH_CAP_VALUE_ADDR_1M);
    158c:	000fe5b7          	lui	a1,0xfe
    1590:	4505                	c.li	a0,1
    1592:	3f29                	c.jal	14ac <user_calib_freq_offset>
    1594:	02c0006f          	j	15c0 <user_read_flash_value_calib+0xcc>
/cygdrive/c/Users/SwaminathanK/AndeSight3/workspace/DSP_cfft_q15_benchmark_N/Debug/../vendor/common/calibration/calibration.c:168
				user_calib_adc_vref(USER_CALIB_FROM_FLASH, FLASH_ADC_VREF_CALIB_ADDR_2M);
    1598:	001fe5b7          	lui	a1,0x1fe
    159c:	0c058593          	addi	a1,a1,192 # 1fe0c0 <FLASH_SIZE+0xfe0c0>
    15a0:	4505                	c.li	a0,1
    15a2:	3b69                	c.jal	133c <user_calib_adc_vref>
/cygdrive/c/Users/SwaminathanK/AndeSight3/workspace/DSP_cfft_q15_benchmark_N/Debug/../vendor/common/calibration/calibration.c:169
				user_calib_freq_offset(USER_CALIB_FROM_FLASH, FLASH_CAP_VALUE_ADDR_2M);
    15a4:	001fe5b7          	lui	a1,0x1fe
    15a8:	4505                	c.li	a0,1
    15aa:	3709                	c.jal	14ac <user_calib_freq_offset>
    15ac:	0140006f          	j	15c0 <user_read_flash_value_calib+0xcc>
/cygdrive/c/Users/SwaminathanK/AndeSight3/workspace/DSP_cfft_q15_benchmark_N/Debug/../vendor/common/calibration/calibration.c:176
				break;
			default:
				user_calib_adc_vref(USER_CALIB_FROM_FLASH, 0);
    15b0:	4581                	c.li	a1,0
    15b2:	4505                	c.li	a0,1
    15b4:	3361                	c.jal	133c <user_calib_adc_vref>
    15b6:	a029                	c.j	15c0 <user_read_flash_value_calib+0xcc>
/cygdrive/c/Users/SwaminathanK/AndeSight3/workspace/DSP_cfft_q15_benchmark_N/Debug/../vendor/common/calibration/calibration.c:182
				break;
		}
	}
	else
	{
		user_calib_adc_vref(USER_CALIB_FROM_FLASH, 0);
    15b8:	4581                	c.li	a1,0
    15ba:	4505                	c.li	a0,1
    15bc:	d81ff0ef          	jal	ra,133c <user_calib_adc_vref>
/cygdrive/c/Users/SwaminathanK/AndeSight3/workspace/DSP_cfft_q15_benchmark_N/Debug/../vendor/common/calibration/calibration.c:184
	}
}
    15c0:	50b2                	c.lwsp	ra,44(sp)
    15c2:	6145                	c.addi16sp	sp,48
    15c4:	8082                	c.jr	ra
    15c6:	0001                	c.nop

000015c8 <platform_init>:
platform_init():
/cygdrive/c/Users/SwaminathanK/AndeSight3/workspace/DSP_cfft_q15_benchmark_N/Debug/../vendor/common/common.c:33
#elif(MCU_CORE_B92)
void platform_init(power_mode_e power_mode, vbat_type_e vbat_v, gpio_voltage_e gpio_v)
#else
void platform_init(void)
#endif
{
    15c8:	1141                	c.addi	sp,-16
    15ca:	c606                	c.swsp	ra,12(sp)
/cygdrive/c/Users/SwaminathanK/AndeSight3/workspace/DSP_cfft_q15_benchmark_N/Debug/../vendor/common/common.c:40
	===============================================================================
						 ##### sys_init #####
	===============================================================================
*/
#if (MCU_CORE_B91)
    sys_init(power_mode, vbat_v);
    15cc:	05d000ef          	jal	ra,1e28 <sys_init>
/cygdrive/c/Users/SwaminathanK/AndeSight3/workspace/DSP_cfft_q15_benchmark_N/Debug/../vendor/common/common.c:55
    If SWS is not set up,SWS will be floating,
    causing abnormal sleep currents of suspend,
    there may be the risk of SWS miswriting the chip registers or sram causing a crash.
    ===============================================================================
*/
    gpio_set_up_down_res(GPIO_SWS, GPIO_PIN_PULLUP_1M);
    15d0:	4585                	c.li	a1,1
    15d2:	08000513          	li	a0,128
    15d6:	2a79                	c.jal	1774 <gpio_set_up_down_res>
/cygdrive/c/Users/SwaminathanK/AndeSight3/workspace/DSP_cfft_q15_benchmark_N/Debug/../vendor/common/common.c:81
	Called immediately after sys_init,set in other positions,
	some calibration values may not take effect.
	===============================================================================
*/
#if (MCU_CORE_B91)
    user_read_flash_value_calib();
    15d8:	3f31                	c.jal	14f4 <user_read_flash_value_calib>
/cygdrive/c/Users/SwaminathanK/AndeSight3/workspace/DSP_cfft_q15_benchmark_N/Debug/../vendor/common/common.c:86
#elif(MCU_CORE_B92)
    calibration_func(gpio_v);
#endif

}
    15da:	40b2                	c.lwsp	ra,12(sp)
    15dc:	0141                	c.addi	sp,16
    15de:	8082                	c.jr	ra
    15e0:	0001                	c.nop
	...

000015e4 <except_handler>:
except_handler():
/cygdrive/c/Users/SwaminathanK/AndeSight3/workspace/DSP_cfft_q15_benchmark_N/Debug/../vendor/common/exception.c:74
    exception_mtval = read_csr(NDS_MTVAL);
    15e4:	34302773          	csrr	a4,mtval
    15e8:	68e044ab          	swgp	a4,3720 # 81688 <_DATA_VMA_END>
/cygdrive/c/Users/SwaminathanK/AndeSight3/workspace/DSP_cfft_q15_benchmark_N/Debug/../vendor/common/exception.c:75
    exception_mepc = read_csr(NDS_MEPC);
    15ec:	34102773          	csrr	a4,mepc
    15f0:	68e046ab          	swgp	a4,3724 # 8168c <exception_mepc>
/cygdrive/c/Users/SwaminathanK/AndeSight3/workspace/DSP_cfft_q15_benchmark_N/Debug/../vendor/common/exception.c:76
    exception_mstatus = read_csr(NDS_MSTATUS);
    15f4:	30002773          	csrr	a4,mstatus
    15f8:	68e048ab          	swgp	a4,3728 # 81690 <exception_mstatus>
/cygdrive/c/Users/SwaminathanK/AndeSight3/workspace/DSP_cfft_q15_benchmark_N/Debug/../vendor/common/exception.c:77
    exception_mcause = read_csr(NDS_MCAUSE);
    15fc:	34202773          	csrr	a4,mcause
    1600:	68e04aab          	swgp	a4,3732 # 81694 <exception_mcause>
/cygdrive/c/Users/SwaminathanK/AndeSight3/workspace/DSP_cfft_q15_benchmark_N/Debug/../vendor/common/exception.c:78
    exception_mdcause = read_csr(NDS_MDCAUSE);
    1604:	7c902773          	csrr	a4,mdcause
    1608:	68e04cab          	swgp	a4,3736 # 81698 <exception_mdcause>
/cygdrive/c/Users/SwaminathanK/AndeSight3/workspace/DSP_cfft_q15_benchmark_N/Debug/../vendor/common/exception.c:82
        __asm__("nop");
    160c:	0001                	c.nop
    160e:	bffd                	c.j	160c <except_handler+0x28>

00001610 <_write>:
_write():
/cygdrive/c/Users/SwaminathanK/AndeSight3/workspace/DSP_cfft_q15_benchmark_N/Debug/../vendor/common/printf.c:34
__attribute__((used)) int _write(int fd, const unsigned char *buf, int size)
{
	(void) fd;

    int    i;
    for (i = 0; i < size; i++)
    1610:	4501                	c.li	a0,0
    1612:	a819                	c.j	1628 <_write+0x18>
/cygdrive/c/Users/SwaminathanK/AndeSight3/workspace/DSP_cfft_q15_benchmark_N/Debug/../vendor/common/printf.c:39
    {
    	#if(BLOCK_MODE)
    		while (USBFIFO& 0x02);
    	#endif
    		EDPS_DAT= buf[i];
    1614:	00a587b3          	add	a5,a1,a0
    1618:	0007c703          	lbu	a4,0(a5)
    161c:	801017b7          	lui	a5,0x80101
    1620:	80e78c23          	sb	a4,-2024(a5) # 80100818 <_DATA_LMA_START+0x600f9c40>
/cygdrive/c/Users/SwaminathanK/AndeSight3/workspace/DSP_cfft_q15_benchmark_N/Debug/../vendor/common/printf.c:34
    for (i = 0; i < size; i++)
    1624:	00150513          	addi	a0,a0,1
    1628:	fec546e3          	blt	a0,a2,1614 <_write+0x4>
/cygdrive/c/Users/SwaminathanK/AndeSight3/workspace/DSP_cfft_q15_benchmark_N/Debug/../vendor/common/printf.c:43
     }

    return i;
}
    162c:	8082                	c.jr	ra
    162e:	0001                	c.nop

00001630 <adc_set_gpio_calib_vref>:
adc_set_gpio_calib_vref():
/cygdrive/c/Users/SwaminathanK/AndeSight3/workspace/DSP_cfft_q15_benchmark_N/Debug/../drivers/adc.c:161
 * @return none
 */
void adc_set_gpio_calib_vref(unsigned short data)
{
	g_adc_gpio_calib_vref = data;
}
    1630:	8082                	c.jr	ra
	...

00001634 <adc_set_gpio_two_point_calib_offset>:
adc_set_gpio_two_point_calib_offset():
/cygdrive/c/Users/SwaminathanK/AndeSight3/workspace/DSP_cfft_q15_benchmark_N/Debug/../drivers/adc.c:171
 * @return none
 */
void adc_set_gpio_two_point_calib_offset(signed char offset)
{
	g_adc_gpio_calib_vref_offset = offset;
}
    1634:	8082                	c.jr	ra
	...

00001638 <gpio_input_en>:
gpio_input_en():
/cygdrive/c/Users/SwaminathanK/AndeSight3/workspace/DSP_cfft_q15_benchmark_N/Debug/../drivers/gpio.c:66
 * @brief      This function enable the input function of a pin.
 * @param[in]  pin - the pin needs to set the input function.
 * @return     none.
 */
void gpio_input_en(gpio_pin_e pin)
{
    1638:	1141                	c.addi	sp,-16
    163a:	c606                	c.swsp	ra,12(sp)
    163c:	c422                	c.swsp	s0,8(sp)
/cygdrive/c/Users/SwaminathanK/AndeSight3/workspace/DSP_cfft_q15_benchmark_N/Debug/../drivers/gpio.c:67
	unsigned char	bit = pin & 0xff;
    163e:	0ff57413          	andi	s0,a0,255
/cygdrive/c/Users/SwaminathanK/AndeSight3/workspace/DSP_cfft_q15_benchmark_N/Debug/../drivers/gpio.c:68
	unsigned short group = pin & 0xf00;
    1642:	6785                	c.lui	a5,0x1
    1644:	f0078793          	addi	a5,a5,-256 # f00 <pm_sleep_wakeup_ram.constprop.1+0x1b0>
    1648:	8fe9                	c.and	a5,a0
/cygdrive/c/Users/SwaminathanK/AndeSight3/workspace/DSP_cfft_q15_benchmark_N/Debug/../drivers/gpio.c:70

	if(group == GPIO_GROUPA || group == GPIO_GROUPB || group == GPIO_GROUPE)
    164a:	cf9d                	c.beqz	a5,1688 <gpio_input_en+0x50>
    164c:	10000713          	li	a4,256
    1650:	02e78c63          	beq	a5,a4,1688 <gpio_input_en+0x50>
    1654:	40000713          	li	a4,1024
    1658:	02e78863          	beq	a5,a4,1688 <gpio_input_en+0x50>
/cygdrive/c/Users/SwaminathanK/AndeSight3/workspace/DSP_cfft_q15_benchmark_N/Debug/../drivers/gpio.c:75
	{
		BM_SET(reg_gpio_ie(pin), bit);
	}

    else if(group == GPIO_GROUPC)
    165c:	20000713          	li	a4,512
    1660:	04e78a63          	beq	a5,a4,16b4 <gpio_input_en+0x7c>
/cygdrive/c/Users/SwaminathanK/AndeSight3/workspace/DSP_cfft_q15_benchmark_N/Debug/../drivers/gpio.c:80
    {
    	analog_write_reg8(areg_gpio_pc_ie, analog_read_reg8(areg_gpio_pc_ie)|bit);
    }

    else if(group == GPIO_GROUPD)
    1664:	30000713          	li	a4,768
    1668:	04e79263          	bne	a5,a4,16ac <gpio_input_en+0x74>
/cygdrive/c/Users/SwaminathanK/AndeSight3/workspace/DSP_cfft_q15_benchmark_N/Debug/../drivers/gpio.c:82
    {
    	analog_write_reg8(areg_gpio_pd_ie, analog_read_reg8(areg_gpio_pd_ie)|bit);
    166c:	0c000513          	li	a0,192
    1670:	d11fe0ef          	jal	ra,380 <analog_read_reg8>
    1674:	008565b3          	or	a1,a0,s0
    1678:	0ff5f593          	andi	a1,a1,255
    167c:	0c000513          	li	a0,192
    1680:	d51fe0ef          	jal	ra,3d0 <analog_write_reg8>
    1684:	0280006f          	j	16ac <gpio_input_en+0x74>
/cygdrive/c/Users/SwaminathanK/AndeSight3/workspace/DSP_cfft_q15_benchmark_N/Debug/../drivers/gpio.c:72
		BM_SET(reg_gpio_ie(pin), bit);
    1688:	8121                	c.srli	a0,0x8
    168a:	001407b7          	lui	a5,0x140
    168e:	30178793          	addi	a5,a5,769 # 140301 <FLASH_SIZE+0x40301>
    1692:	0ea7855b          	lea.d	a0,a5,a0
    1696:	800007b7          	lui	a5,0x80000
    169a:	8d5d                	c.or	a0,a5
    169c:	00050583          	lb	a1,0(a0)
    16a0:	0ff5f593          	andi	a1,a1,255
    16a4:	0085e5b3          	or	a1,a1,s0
    16a8:	00b50023          	sb	a1,0(a0)
/cygdrive/c/Users/SwaminathanK/AndeSight3/workspace/DSP_cfft_q15_benchmark_N/Debug/../drivers/gpio.c:84
    }
}
    16ac:	40b2                	c.lwsp	ra,12(sp)
    16ae:	4422                	c.lwsp	s0,8(sp)
    16b0:	0141                	c.addi	sp,16
    16b2:	8082                	c.jr	ra
/cygdrive/c/Users/SwaminathanK/AndeSight3/workspace/DSP_cfft_q15_benchmark_N/Debug/../drivers/gpio.c:77
    	analog_write_reg8(areg_gpio_pc_ie, analog_read_reg8(areg_gpio_pc_ie)|bit);
    16b4:	0bd00513          	li	a0,189
    16b8:	cc9fe0ef          	jal	ra,380 <analog_read_reg8>
    16bc:	008565b3          	or	a1,a0,s0
    16c0:	0ff5f593          	andi	a1,a1,255
    16c4:	0bd00513          	li	a0,189
    16c8:	d09fe0ef          	jal	ra,3d0 <analog_write_reg8>
    16cc:	b7c5                	c.j	16ac <gpio_input_en+0x74>
    16ce:	0001                	c.nop

000016d0 <gpio_input_dis>:
gpio_input_dis():
/cygdrive/c/Users/SwaminathanK/AndeSight3/workspace/DSP_cfft_q15_benchmark_N/Debug/../drivers/gpio.c:94
 * @return     none.
 */
void gpio_input_dis(gpio_pin_e pin)
{
	unsigned char	bit = pin & 0xff;
	unsigned short group = pin & 0xf00;
    16d0:	6785                	c.lui	a5,0x1
    16d2:	f0078793          	addi	a5,a5,-256 # f00 <pm_sleep_wakeup_ram.constprop.1+0x1b0>
    16d6:	8fe9                	c.and	a5,a0
/cygdrive/c/Users/SwaminathanK/AndeSight3/workspace/DSP_cfft_q15_benchmark_N/Debug/../drivers/gpio.c:96

	if(group == GPIO_GROUPA || group == GPIO_GROUPB || group == GPIO_GROUPE)
    16d8:	cb95                	c.beqz	a5,170c <gpio_input_dis+0x3c>
    16da:	10000713          	li	a4,256
    16de:	02e78763          	beq	a5,a4,170c <gpio_input_dis+0x3c>
    16e2:	40000713          	li	a4,1024
    16e6:	02e78363          	beq	a5,a4,170c <gpio_input_dis+0x3c>
/cygdrive/c/Users/SwaminathanK/AndeSight3/workspace/DSP_cfft_q15_benchmark_N/Debug/../drivers/gpio.c:92
{
    16ea:	1141                	c.addi	sp,-16
    16ec:	c606                	c.swsp	ra,12(sp)
    16ee:	c422                	c.swsp	s0,8(sp)
    16f0:	00a00433          	add	s0,zero,a0
/cygdrive/c/Users/SwaminathanK/AndeSight3/workspace/DSP_cfft_q15_benchmark_N/Debug/../drivers/gpio.c:101
	{
		BM_CLR(reg_gpio_ie(pin), bit);
	}

    else if(group == GPIO_GROUPC)
    16f4:	20000713          	li	a4,512
    16f8:	04e78063          	beq	a5,a4,1738 <gpio_input_dis+0x68>
/cygdrive/c/Users/SwaminathanK/AndeSight3/workspace/DSP_cfft_q15_benchmark_N/Debug/../drivers/gpio.c:106
    {
    	analog_write_reg8(areg_gpio_pc_ie, analog_read_reg8(areg_gpio_pc_ie)&(~bit));
    }

    else if(group == GPIO_GROUPD)
    16fc:	30000713          	li	a4,768
    1700:	04e78a63          	beq	a5,a4,1754 <gpio_input_dis+0x84>
/cygdrive/c/Users/SwaminathanK/AndeSight3/workspace/DSP_cfft_q15_benchmark_N/Debug/../drivers/gpio.c:110
    {
    	analog_write_reg8(areg_gpio_pd_ie, analog_read_reg8(areg_gpio_pd_ie)&(~bit));
    }
}
    1704:	40b2                	c.lwsp	ra,12(sp)
    1706:	4422                	c.lwsp	s0,8(sp)
    1708:	0141                	c.addi	sp,16
    170a:	8082                	c.jr	ra
/cygdrive/c/Users/SwaminathanK/AndeSight3/workspace/DSP_cfft_q15_benchmark_N/Debug/../drivers/gpio.c:98
		BM_CLR(reg_gpio_ie(pin), bit);
    170c:	00855793          	srli	a5,a0,0x8
    1710:	00140737          	lui	a4,0x140
    1714:	30170713          	addi	a4,a4,769 # 140301 <FLASH_SIZE+0x40301>
    1718:	0ef707db          	lea.d	a5,a4,a5
    171c:	80000737          	lui	a4,0x80000
    1720:	8fd9                	c.or	a5,a4
    1722:	00078703          	lb	a4,0(a5)
    1726:	fff54513          	not	a0,a0
    172a:	8d79                	c.and	a0,a4
    172c:	0ff57513          	andi	a0,a0,255
    1730:	00a78023          	sb	a0,0(a5)
    1734:	00008067          	ret
/cygdrive/c/Users/SwaminathanK/AndeSight3/workspace/DSP_cfft_q15_benchmark_N/Debug/../drivers/gpio.c:103
    	analog_write_reg8(areg_gpio_pc_ie, analog_read_reg8(areg_gpio_pc_ie)&(~bit));
    1738:	0bd00513          	li	a0,189
    173c:	c45fe0ef          	jal	ra,380 <analog_read_reg8>
    1740:	fff44413          	not	s0,s0
    1744:	8c69                	c.and	s0,a0
    1746:	0ff47593          	andi	a1,s0,255
    174a:	0bd00513          	li	a0,189
    174e:	c83fe0ef          	jal	ra,3d0 <analog_write_reg8>
    1752:	bf4d                	c.j	1704 <gpio_input_dis+0x34>
/cygdrive/c/Users/SwaminathanK/AndeSight3/workspace/DSP_cfft_q15_benchmark_N/Debug/../drivers/gpio.c:108
    	analog_write_reg8(areg_gpio_pd_ie, analog_read_reg8(areg_gpio_pd_ie)&(~bit));
    1754:	0c000513          	li	a0,192
    1758:	c29fe0ef          	jal	ra,380 <analog_read_reg8>
    175c:	fff44413          	not	s0,s0
    1760:	8c69                	c.and	s0,a0
    1762:	0ff47593          	andi	a1,s0,255
    1766:	0c000513          	li	a0,192
    176a:	c67fe0ef          	jal	ra,3d0 <analog_write_reg8>
    176e:	bf59                	c.j	1704 <gpio_input_dis+0x34>
    1770:	0001                	c.nop
	...

00001774 <gpio_set_up_down_res>:
gpio_set_up_down_res():
/cygdrive/c/Users/SwaminathanK/AndeSight3/workspace/DSP_cfft_q15_benchmark_N/Debug/../drivers/gpio.c:373
 * @param[in] pin - the pin needs to set its pull-up/down resistor.
 * @param[in] up_down_res - the type of the pull-up/down resistor.
 * @return    none.
 */
void gpio_set_up_down_res(gpio_pin_e pin, gpio_pull_type_e up_down_res)
{
    1774:	1101                	c.addi	sp,-32
    1776:	ce06                	c.swsp	ra,28(sp)
    1778:	cc22                	c.swsp	s0,24(sp)
    177a:	ca26                	c.swsp	s1,20(sp)
    177c:	c84a                	c.swsp	s2,16(sp)
    177e:	c64e                	c.swsp	s3,12(sp)
/cygdrive/c/Users/SwaminathanK/AndeSight3/workspace/DSP_cfft_q15_benchmark_N/Debug/../drivers/gpio.c:374
	unsigned char r_val = up_down_res & 0x03;
    1780:	0035f913          	andi	s2,a1,3
/cygdrive/c/Users/SwaminathanK/AndeSight3/workspace/DSP_cfft_q15_benchmark_N/Debug/../drivers/gpio.c:376

	unsigned char base_ana_reg = 0x0e + ((pin >> 8) << 1) + ( (pin & 0xf0) ? 1 : 0 );  //group = gpio>>8;
    1784:	00855413          	srli	s0,a0,0x8
    1788:	0474245b          	bfoz	s0,s0,1,7
    178c:	0f057793          	andi	a5,a0,240
    1790:	00f037b3          	snez	a5,a5
    1794:	943e                	c.add	s0,a5
    1796:	0439                	c.addi	s0,14
    1798:	0ff47413          	andi	s0,s0,255
/cygdrive/c/Users/SwaminathanK/AndeSight3/workspace/DSP_cfft_q15_benchmark_N/Debug/../drivers/gpio.c:379
	unsigned char shift_num, mask_not;

	if(pin & 0x11){
    179c:	01157793          	andi	a5,a0,17
    17a0:	ef91                	c.bnez	a5,17bc <gpio_set_up_down_res+0x48>
/cygdrive/c/Users/SwaminathanK/AndeSight3/workspace/DSP_cfft_q15_benchmark_N/Debug/../drivers/gpio.c:383
			shift_num = 0;
			mask_not = 0xfc;
		}
		else if(pin & 0x22){
    17a2:	02257793          	andi	a5,a0,34
    17a6:	ef99                	c.bnez	a5,17c4 <gpio_set_up_down_res+0x50>
/cygdrive/c/Users/SwaminathanK/AndeSight3/workspace/DSP_cfft_q15_benchmark_N/Debug/../drivers/gpio.c:387
			shift_num = 2;
			mask_not = 0xf3;
		}
		else if(pin & 0x44){
    17a8:	04457793          	andi	a5,a0,68
    17ac:	e7a1                	c.bnez	a5,17f4 <gpio_set_up_down_res+0x80>
/cygdrive/c/Users/SwaminathanK/AndeSight3/workspace/DSP_cfft_q15_benchmark_N/Debug/../drivers/gpio.c:391
			shift_num = 4;
			mask_not = 0xcf;
		}
		else if(pin & 0x88){
    17ae:	08857513          	andi	a0,a0,136
    17b2:	c90d                	c.beqz	a0,17e4 <gpio_set_up_down_res+0x70>
/cygdrive/c/Users/SwaminathanK/AndeSight3/workspace/DSP_cfft_q15_benchmark_N/Debug/../drivers/gpio.c:393
			shift_num = 6;
			mask_not = 0x3f;
    17b4:	03f00493          	li	s1,63
/cygdrive/c/Users/SwaminathanK/AndeSight3/workspace/DSP_cfft_q15_benchmark_N/Debug/../drivers/gpio.c:392
			shift_num = 6;
    17b8:	4999                	c.li	s3,6
    17ba:	a809                	c.j	17cc <gpio_set_up_down_res+0x58>
/cygdrive/c/Users/SwaminathanK/AndeSight3/workspace/DSP_cfft_q15_benchmark_N/Debug/../drivers/gpio.c:381
			mask_not = 0xfc;
    17bc:	0fc00493          	li	s1,252
/cygdrive/c/Users/SwaminathanK/AndeSight3/workspace/DSP_cfft_q15_benchmark_N/Debug/../drivers/gpio.c:380
			shift_num = 0;
    17c0:	4981                	c.li	s3,0
    17c2:	a029                	c.j	17cc <gpio_set_up_down_res+0x58>
/cygdrive/c/Users/SwaminathanK/AndeSight3/workspace/DSP_cfft_q15_benchmark_N/Debug/../drivers/gpio.c:385
			mask_not = 0xf3;
    17c4:	0f300493          	li	s1,243
/cygdrive/c/Users/SwaminathanK/AndeSight3/workspace/DSP_cfft_q15_benchmark_N/Debug/../drivers/gpio.c:384
			shift_num = 2;
    17c8:	00200993          	li	s3,2
/cygdrive/c/Users/SwaminathanK/AndeSight3/workspace/DSP_cfft_q15_benchmark_N/Debug/../drivers/gpio.c:398
		}
		else{
			return;
		}
	analog_write_reg8(base_ana_reg, (analog_read_reg8(base_ana_reg) & mask_not) | (r_val << shift_num));
    17cc:	8522                	c.mv	a0,s0
    17ce:	bb3fe0ef          	jal	ra,380 <analog_read_reg8>
    17d2:	013915b3          	sll	a1,s2,s3
    17d6:	8d65                	c.and	a0,s1
    17d8:	8dc9                	c.or	a1,a0
    17da:	0ff5f593          	andi	a1,a1,255
    17de:	8522                	c.mv	a0,s0
    17e0:	bf1fe0ef          	jal	ra,3d0 <analog_write_reg8>
/cygdrive/c/Users/SwaminathanK/AndeSight3/workspace/DSP_cfft_q15_benchmark_N/Debug/../drivers/gpio.c:399
}
    17e4:	40f2                	c.lwsp	ra,28(sp)
    17e6:	4462                	c.lwsp	s0,24(sp)
    17e8:	44d2                	c.lwsp	s1,20(sp)
    17ea:	4942                	c.lwsp	s2,16(sp)
    17ec:	49b2                	c.lwsp	s3,12(sp)
    17ee:	6105                	c.addi16sp	sp,32
    17f0:	00008067          	ret
/cygdrive/c/Users/SwaminathanK/AndeSight3/workspace/DSP_cfft_q15_benchmark_N/Debug/../drivers/gpio.c:389
			mask_not = 0xcf;
    17f4:	0cf00493          	li	s1,207
/cygdrive/c/Users/SwaminathanK/AndeSight3/workspace/DSP_cfft_q15_benchmark_N/Debug/../drivers/gpio.c:388
			shift_num = 4;
    17f8:	4991                	c.li	s3,4
    17fa:	bfc9                	c.j	17cc <gpio_set_up_down_res+0x58>

000017fc <usb_dp_pullup_en>:
usb_dp_pullup_en():
C:\Users\SwaminathanK\AndeSight3\workspace\DSP_cfft_q15_benchmark_N\drivers/usbhw.h:396
 * @brief      This function enables or disables the internal pull-up resistor of DP pin of USB interface
 * @param[in]  en - enables or disables the internal pull-up resistor(1: enable 0: disable)
 * @return     none
 */
static inline void usb_dp_pullup_en (int en)
{
    17fc:	1141                	c.addi	sp,-16
    17fe:	c606                	c.swsp	ra,12(sp)
    1800:	c422                	c.swsp	s0,8(sp)
    1802:	842a                	c.mv	s0,a0
C:\Users\SwaminathanK\AndeSight3\workspace\DSP_cfft_q15_benchmark_N\drivers/usbhw.h:397
	unsigned char dat = analog_read_reg8(0x0b);
    1804:	452d                	c.li	a0,11
    1806:	b7bfe0ef          	jal	ra,380 <analog_read_reg8>
C:\Users\SwaminathanK\AndeSight3\workspace\DSP_cfft_q15_benchmark_N\drivers/usbhw.h:398
	if (en) {
    180a:	e819                	c.bnez	s0,1820 <usb_dp_pullup_en+0x24>
C:\Users\SwaminathanK\AndeSight3\workspace\DSP_cfft_q15_benchmark_N\drivers/usbhw.h:403
		dat = dat | BIT(7);
	}
	else
	{
		dat = dat & 0x7f ;
    180c:	07f57593          	andi	a1,a0,127
C:\Users\SwaminathanK\AndeSight3\workspace\DSP_cfft_q15_benchmark_N\drivers/usbhw.h:406
	}

	analog_write_reg8 (0x0b, dat);
    1810:	452d                	c.li	a0,11
    1812:	bbffe0ef          	jal	ra,3d0 <analog_write_reg8>
C:\Users\SwaminathanK\AndeSight3\workspace\DSP_cfft_q15_benchmark_N\drivers/usbhw.h:407
}
    1816:	40b2                	c.lwsp	ra,12(sp)
    1818:	4422                	c.lwsp	s0,8(sp)
    181a:	0141                	c.addi	sp,16
    181c:	00008067          	ret
C:\Users\SwaminathanK\AndeSight3\workspace\DSP_cfft_q15_benchmark_N\drivers/usbhw.h:399
		dat = dat | BIT(7);
    1820:	f8056593          	ori	a1,a0,-128
    1824:	0ff5f593          	andi	a1,a1,255
    1828:	b7e5                	c.j	1810 <usb_dp_pullup_en+0x14>
    182a:	0001                	c.nop

0000182c <usb_set_pin_en>:
usb_set_pin_en():
C:\Users\SwaminathanK\AndeSight3\workspace\DSP_cfft_q15_benchmark_N\drivers/usbhw.h:431
/**
 * @brief      This function serves to set GPIO MUX function as DP and DM pin of USB
 * @return     none.
 */
static inline void usb_set_pin_en(void)
{
    182c:	1141                	c.addi	sp,-16
    182e:	c606                	c.swsp	ra,12(sp)
C:\Users\SwaminathanK\AndeSight3\workspace\DSP_cfft_q15_benchmark_N\drivers/usbhw.h:432
	reg_gpio_func_mux(GPIO_PA5)=reg_gpio_func_mux(GPIO_PA5)&(~BIT_RNG(2,3));
    1830:	801407b7          	lui	a5,0x80140
    1834:	33178703          	lb	a4,817(a5) # 80140331 <_DATA_LMA_START+0x60139759>
    1838:	0f377713          	andi	a4,a4,243
    183c:	32e788a3          	sb	a4,817(a5)
gpio_function_dis():
C:\Users\SwaminathanK\AndeSight3\workspace\DSP_cfft_q15_benchmark_N\drivers/gpio.h:207
 * @return     none.
 */
static inline void gpio_function_dis(gpio_pin_e pin)
{
	unsigned char	bit = pin & 0xff;
	BM_CLR(reg_gpio_func(pin), bit);
    1840:	30678703          	lb	a4,774(a5)
    1844:	0df77713          	andi	a4,a4,223
    1848:	30e78323          	sb	a4,774(a5)
usb_set_pin_en():
C:\Users\SwaminathanK\AndeSight3\workspace\DSP_cfft_q15_benchmark_N\drivers/usbhw.h:434
	gpio_function_dis(GPIO_PA5);
	reg_gpio_func_mux(GPIO_PA6)=reg_gpio_func_mux(GPIO_PA6)&(~BIT_RNG(4,5));
    184c:	33178703          	lb	a4,817(a5)
    1850:	0cf77713          	andi	a4,a4,207
    1854:	32e788a3          	sb	a4,817(a5)
gpio_function_dis():
C:\Users\SwaminathanK\AndeSight3\workspace\DSP_cfft_q15_benchmark_N\drivers/gpio.h:207
    1858:	30678703          	lb	a4,774(a5)
    185c:	0bf77713          	andi	a4,a4,191
    1860:	30e78323          	sb	a4,774(a5)
usb_set_pin_en():
C:\Users\SwaminathanK\AndeSight3\workspace\DSP_cfft_q15_benchmark_N\drivers/usbhw.h:436
	gpio_function_dis(GPIO_PA6);
	gpio_input_en(GPIO_PA5|GPIO_PA6);//DP/DM must set input enable
    1864:	06000513          	li	a0,96
    1868:	3bc1                	c.jal	1638 <gpio_input_en>
C:\Users\SwaminathanK\AndeSight3\workspace\DSP_cfft_q15_benchmark_N\drivers/usbhw.h:437
	usb_dp_pullup_en (1);
    186a:	4505                	c.li	a0,1
    186c:	3f41                	c.jal	17fc <usb_dp_pullup_en>
C:\Users\SwaminathanK\AndeSight3\workspace\DSP_cfft_q15_benchmark_N\drivers/usbhw.h:438
	write_reg8(0x100c01, (read_reg8(0x100c01) | BIT(7)));   //swire_usb_en
    186e:	80101737          	lui	a4,0x80101
    1872:	c0170783          	lb	a5,-1023(a4) # 80100c01 <_DATA_LMA_START+0x600fa029>
    1876:	f807e793          	ori	a5,a5,-128
    187a:	0ff7f793          	andi	a5,a5,255
    187e:	c0f700a3          	sb	a5,-1023(a4)
C:\Users\SwaminathanK\AndeSight3\workspace\DSP_cfft_q15_benchmark_N\drivers/usbhw.h:439
}
    1882:	40b2                	c.lwsp	ra,12(sp)
    1884:	0141                	c.addi	sp,16
    1886:	8082                	c.jr	ra
    1888:	0001                	c.nop
	...

0000188c <user_init>:
user_init():
/cygdrive/c/Users/SwaminathanK/AndeSight3/workspace/DSP_cfft_q15_benchmark_N/Debug/../Debug_Demo/app.c:28
 *******************************************************************************************************/
#include "app_config.h"
//#include <stdio.h>
//#include <stdlib.h>
void user_init(void)
{
    188c:	1141                	c.addi	sp,-16
    188e:	c606                	c.swsp	ra,12(sp)
    1890:	c422                	c.swsp	s0,8(sp)
gpio_function_en():
C:\Users\SwaminathanK\AndeSight3\workspace\DSP_cfft_q15_benchmark_N\drivers/gpio.h:195
	BM_SET(reg_gpio_func(pin), bit);
    1892:	80140437          	lui	s0,0x80140
    1896:	30e40783          	lb	a5,782(s0) # 8014030e <_DATA_LMA_START+0x60139736>
    189a:	0ff7f793          	andi	a5,a5,255
    189e:	0107e793          	ori	a5,a5,16
    18a2:	30f40723          	sb	a5,782(s0)
gpio_output_en():
C:\Users\SwaminathanK\AndeSight3\workspace\DSP_cfft_q15_benchmark_N\drivers/gpio.h:303
 * @return     none.
 */
static inline void gpio_output_en(gpio_pin_e pin)
{
	unsigned char	bit = pin & 0xff;
	BM_CLR(reg_gpio_oen(pin), bit);
    18a6:	30a40783          	lb	a5,778(s0)
    18aa:	0ef7f793          	andi	a5,a5,239
    18ae:	30f40523          	sb	a5,778(s0)
user_init():
/cygdrive/c/Users/SwaminathanK/AndeSight3/workspace/DSP_cfft_q15_benchmark_N/Debug/../Debug_Demo/app.c:31
	gpio_function_en(LED1);
	gpio_output_en(LED1);
	gpio_input_dis(LED1);
    18b2:	11000513          	li	a0,272
    18b6:	3d29                	c.jal	16d0 <gpio_input_dis>
gpio_function_en():
C:\Users\SwaminathanK\AndeSight3\workspace\DSP_cfft_q15_benchmark_N\drivers/gpio.h:195
	BM_SET(reg_gpio_func(pin), bit);
    18b8:	30e40783          	lb	a5,782(s0)
    18bc:	0ff7f793          	andi	a5,a5,255
    18c0:	0207e793          	ori	a5,a5,32
    18c4:	30f40723          	sb	a5,782(s0)
gpio_output_en():
C:\Users\SwaminathanK\AndeSight3\workspace\DSP_cfft_q15_benchmark_N\drivers/gpio.h:303
	BM_CLR(reg_gpio_oen(pin), bit);
    18c8:	30a40783          	lb	a5,778(s0)
    18cc:	0df7f793          	andi	a5,a5,223
    18d0:	30f40523          	sb	a5,778(s0)
user_init():
/cygdrive/c/Users/SwaminathanK/AndeSight3/workspace/DSP_cfft_q15_benchmark_N/Debug/../Debug_Demo/app.c:34
	gpio_function_en(LED2);
	gpio_output_en(LED2);
	gpio_input_dis(LED2);
    18d4:	12000513          	li	a0,288
    18d8:	3be5                	c.jal	16d0 <gpio_input_dis>
gpio_function_en():
C:\Users\SwaminathanK\AndeSight3\workspace\DSP_cfft_q15_benchmark_N\drivers/gpio.h:195
	BM_SET(reg_gpio_func(pin), bit);
    18da:	30e40783          	lb	a5,782(s0)
    18de:	0ff7f793          	andi	a5,a5,255
    18e2:	0407e793          	ori	a5,a5,64
    18e6:	30f40723          	sb	a5,782(s0)
gpio_output_en():
C:\Users\SwaminathanK\AndeSight3\workspace\DSP_cfft_q15_benchmark_N\drivers/gpio.h:303
	BM_CLR(reg_gpio_oen(pin), bit);
    18ea:	30a40783          	lb	a5,778(s0)
    18ee:	0bf7f793          	andi	a5,a5,191
    18f2:	30f40523          	sb	a5,778(s0)
user_init():
/cygdrive/c/Users/SwaminathanK/AndeSight3/workspace/DSP_cfft_q15_benchmark_N/Debug/../Debug_Demo/app.c:37
	gpio_function_en(LED3);
	gpio_output_en(LED3);
	gpio_input_dis(LED3);
    18f6:	14000513          	li	a0,320
    18fa:	3bd9                	c.jal	16d0 <gpio_input_dis>
gpio_function_en():
C:\Users\SwaminathanK\AndeSight3\workspace\DSP_cfft_q15_benchmark_N\drivers/gpio.h:195
	BM_SET(reg_gpio_func(pin), bit);
    18fc:	30e40783          	lb	a5,782(s0)
    1900:	f807e793          	ori	a5,a5,-128
    1904:	0ff7f793          	andi	a5,a5,255
    1908:	30f40723          	sb	a5,782(s0)
gpio_output_en():
C:\Users\SwaminathanK\AndeSight3\workspace\DSP_cfft_q15_benchmark_N\drivers/gpio.h:303
	BM_CLR(reg_gpio_oen(pin), bit);
    190c:	30a40783          	lb	a5,778(s0)
    1910:	07f7f793          	andi	a5,a5,127
    1914:	30f40523          	sb	a5,778(s0)
user_init():
/cygdrive/c/Users/SwaminathanK/AndeSight3/workspace/DSP_cfft_q15_benchmark_N/Debug/../Debug_Demo/app.c:40
	gpio_function_en(LED4);
	gpio_output_en(LED4);
	gpio_input_dis(LED4);
    1918:	18000513          	li	a0,384
    191c:	3b55                	c.jal	16d0 <gpio_input_dis>
/cygdrive/c/Users/SwaminathanK/AndeSight3/workspace/DSP_cfft_q15_benchmark_N/Debug/../Debug_Demo/app.c:42
#if(DEBUG_BUS==USB_PRINT_DEBUG_ENABLE)
	usb_set_pin_en();
    191e:	3739                	c.jal	182c <usb_set_pin_en>
usbhw_set_printer_threshold():
C:\Users\SwaminathanK\AndeSight3\workspace\DSP_cfft_q15_benchmark_N\drivers/usbhw.h:322
	reg_usb_ep8_send_thres = th;
    1920:	80101737          	lui	a4,0x80101
    1924:	4785                	c.li	a5,1
    1926:	82f70e23          	sb	a5,-1988(a4) # 8010083c <_DATA_LMA_START+0x600f9c64>
usbhw_set_ep8_fifo_mode():
C:\Users\SwaminathanK\AndeSight3\workspace\DSP_cfft_q15_benchmark_N\drivers/usbhw.h:62
	BM_SET(reg_usb_ep8_fifo_mode,FLD_USB_ENP8_FIFO_MODE);
    192a:	83d70783          	lb	a5,-1987(a4)
    192e:	0ff7f793          	andi	a5,a5,255
    1932:	0017e793          	ori	a5,a5,1
    1936:	82f70ea3          	sb	a5,-1987(a4)
user_init():
/cygdrive/c/Users/SwaminathanK/AndeSight3/workspace/DSP_cfft_q15_benchmark_N/Debug/../Debug_Demo/app.c:45
	usbhw_set_printer_threshold(1);
	usbhw_set_ep8_fifo_mode();
	delay_ms(1000);
    193a:	3e800513          	li	a0,1000
    193e:	82eff0ef          	jal	ra,96c <delay_ms>
/cygdrive/c/Users/SwaminathanK/AndeSight3/workspace/DSP_cfft_q15_benchmark_N/Debug/../Debug_Demo/app.c:46
	printf("\n Driver version: %2x \n Copyright (c) %d Telink semiconductor (%s) Ltd, Co \n",0xa001,2019,"shanghai");
    1942:	000806b7          	lui	a3,0x80
    1946:	1c868693          	addi	a3,a3,456 # 801c8 <flash_support_mid+0x160>
    194a:	7e300613          	li	a2,2019
    194e:	65a9                	c.lui	a1,0xa
    1950:	0585                	c.addi	a1,1
    1952:	00080537          	lui	a0,0x80
    1956:	1d450513          	addi	a0,a0,468 # 801d4 <flash_support_mid+0x16c>
    195a:	464040ef          	jal	ra,5dbe <iprintf>
/cygdrive/c/Users/SwaminathanK/AndeSight3/workspace/DSP_cfft_q15_benchmark_N/Debug/../Debug_Demo/app.c:55
	printf("\n Copyright (c) %d \n",2020);
	printf("\n Telink semiconductor (%s)Ltd, Co \n","shanghai");

#endif

}
    195e:	40b2                	c.lwsp	ra,12(sp)
    1960:	4422                	c.lwsp	s0,8(sp)
    1962:	0141                	c.addi	sp,16
    1964:	8082                	c.jr	ra
    1966:	0001                	c.nop

00001968 <reset_cycle_count>:
reset_cycle_count():
/cygdrive/c/Users/SwaminathanK/AndeSight3/workspace/DSP_cfft_q15_benchmark_N/Debug/../Debug_Demo/main.c:19
#define Q15_SCALE (32768)   // Scaling factor for Q15 format
#define NUM_EXECUTIONS 10   // Number of FFT executions

// Function to reset cycle count (RISC-V processor)
void reset_cycle_count() {
    write_csr(NDS_MCYCLE, 0);
    1968:	b0005073          	csrwi	mcycle,0
/cygdrive/c/Users/SwaminathanK/AndeSight3/workspace/DSP_cfft_q15_benchmark_N/Debug/../Debug_Demo/main.c:20
}
    196c:	8082                	c.jr	ra
	...

00001970 <read_cycle_count>:
read_cycle_count():
/cygdrive/c/Users/SwaminathanK/AndeSight3/workspace/DSP_cfft_q15_benchmark_N/Debug/../Debug_Demo/main.c:25

// Function to read cycle count (32-bit)
unsigned int read_cycle_count() {
    return read_csr(NDS_MCYCLE);
}
    1970:	b0002573          	csrr	a0,mcycle
    1974:	8082                	c.jr	ra
	...

00001978 <generate_sine_wave_q15>:
generate_sine_wave_q15():
/cygdrive/c/Users/SwaminathanK/AndeSight3/workspace/DSP_cfft_q15_benchmark_N/Debug/../Debug_Demo/main.c:27

void generate_sine_wave_q15(q15_t* input, int N, float signal_freq, float sampling_freq) {
    1978:	7179                	c.addi16sp	sp,-48
    197a:	d606                	c.swsp	ra,44(sp)
    197c:	d422                	c.swsp	s0,40(sp)
    197e:	d226                	c.swsp	s1,36(sp)
    1980:	d04a                	c.swsp	s2,32(sp)
    1982:	ce4e                	c.swsp	s3,28(sp)
    1984:	cc52                	c.swsp	s4,24(sp)
    1986:	e622                	c.fswsp	fs0,12(sp)
    1988:	e426                	c.fswsp	fs1,8(sp)
    198a:	84aa                	c.mv	s1,a0
    198c:	8a2e                	c.mv	s4,a1
    198e:	20a504d3          	fmv.s	fs1,fa0
    1992:	20b58453          	fmv.s	fs0,fa1
/cygdrive/c/Users/SwaminathanK/AndeSight3/workspace/DSP_cfft_q15_benchmark_N/Debug/../Debug_Demo/main.c:28
    for (int i = 0; i < N; i++) {
    1996:	4401                	c.li	s0,0
    1998:	0700006f          	j	1a08 <generate_sine_wave_q15+0x90>
/cygdrive/c/Users/SwaminathanK/AndeSight3/workspace/DSP_cfft_q15_benchmark_N/Debug/../Debug_Demo/main.c:30
        // Generate sine wave in float format
        float32_t value = sinf(2 * M_PI * signal_freq * i / sampling_freq);
    199c:	20948553          	fmv.s	fa0,fs1
    19a0:	5f5030ef          	jal	ra,5794 <__extendsfdf2>
    19a4:	000807b7          	lui	a5,0x80
    19a8:	02078793          	addi	a5,a5,32 # 80020 <cst_libm_sincosf+0x20>
    19ac:	4390                	c.lw	a2,0(a5)
    19ae:	43d4                	c.lw	a3,4(a5)
    19b0:	3e1020ef          	jal	ra,4590 <__muldf3>
    19b4:	892a                	c.mv	s2,a0
    19b6:	89ae                	c.mv	s3,a1
    19b8:	8522                	c.mv	a0,s0
    19ba:	55f030ef          	jal	ra,5718 <__floatsidf>
    19be:	864a                	c.mv	a2,s2
    19c0:	86ce                	c.mv	a3,s3
    19c2:	3cf020ef          	jal	ra,4590 <__muldf3>
    19c6:	892a                	c.mv	s2,a0
    19c8:	89ae                	c.mv	s3,a1
    19ca:	20840553          	fmv.s	fa0,fs0
    19ce:	5c7030ef          	jal	ra,5794 <__extendsfdf2>
    19d2:	862a                	c.mv	a2,a0
    19d4:	86ae                	c.mv	a3,a1
    19d6:	854a                	c.mv	a0,s2
    19d8:	85ce                	c.mv	a1,s3
    19da:	3ca020ef          	jal	ra,3da4 <__divdf3>
    19de:	6c7030ef          	jal	ra,58a4 <__truncdfsf2>
    19e2:	70e010ef          	jal	ra,30f0 <sinf>
/cygdrive/c/Users/SwaminathanK/AndeSight3/workspace/DSP_cfft_q15_benchmark_N/Debug/../Debug_Demo/main.c:32
        // Convert to Q15 format
        input[2 * i] = (q15_t)(value * Q15_SCALE); // Real part
    19e6:	000807b7          	lui	a5,0x80
    19ea:	0287a787          	flw	fa5,40(a5) # 80028 <cst_libm_sincosf+0x28>
    19ee:	10f57553          	fmul.s	fa0,fa0,fa5
    19f2:	00241713          	slli	a4,s0,0x2
    19f6:	00e486b3          	add	a3,s1,a4
    19fa:	c00517d3          	fcvt.w.s	a5,fa0,rtz
    19fe:	00f69023          	sh	a5,0(a3)
/cygdrive/c/Users/SwaminathanK/AndeSight3/workspace/DSP_cfft_q15_benchmark_N/Debug/../Debug_Demo/main.c:33
        input[2 * i + 1] = 0;                     // Imaginary part (set to 0)
    1a02:	00069123          	sh	zero,2(a3)
/cygdrive/c/Users/SwaminathanK/AndeSight3/workspace/DSP_cfft_q15_benchmark_N/Debug/../Debug_Demo/main.c:28
    for (int i = 0; i < N; i++) {
    1a06:	0405                	c.addi	s0,1
    1a08:	f9444ae3          	blt	s0,s4,199c <generate_sine_wave_q15+0x24>
/cygdrive/c/Users/SwaminathanK/AndeSight3/workspace/DSP_cfft_q15_benchmark_N/Debug/../Debug_Demo/main.c:35
    }
}
    1a0c:	50b2                	c.lwsp	ra,44(sp)
    1a0e:	5422                	c.lwsp	s0,40(sp)
    1a10:	5492                	c.lwsp	s1,36(sp)
    1a12:	5902                	c.lwsp	s2,32(sp)
    1a14:	49f2                	c.lwsp	s3,28(sp)
    1a16:	4a62                	c.lwsp	s4,24(sp)
    1a18:	6432                	c.flwsp	fs0,12(sp)
    1a1a:	64a2                	c.flwsp	fs1,8(sp)
    1a1c:	6145                	c.addi16sp	sp,48
    1a1e:	8082                	c.jr	ra

00001a20 <main>:
main():
/cygdrive/c/Users/SwaminathanK/AndeSight3/workspace/DSP_cfft_q15_benchmark_N/Debug/../Debug_Demo/main.c:39

extern void user_init(void);

int main(void) {
    1a20:	7175                	c.addi16sp	sp,-144
    1a22:	c706                	c.swsp	ra,140(sp)
    1a24:	c522                	c.swsp	s0,136(sp)
    1a26:	c326                	c.swsp	s1,132(sp)
    1a28:	c14a                	c.swsp	s2,128(sp)
    1a2a:	dece                	c.swsp	s3,124(sp)
    1a2c:	dcd2                	c.swsp	s4,120(sp)
    1a2e:	dad6                	c.swsp	s5,116(sp)
    1a30:	d8da                	c.swsp	s6,112(sp)
    1a32:	d6de                	c.swsp	s7,108(sp)
    1a34:	d4e2                	c.swsp	s8,104(sp)
    1a36:	d2e6                	c.swsp	s9,100(sp)
    1a38:	d0ea                	c.swsp	s10,96(sp)
    1a3a:	ceee                	c.swsp	s11,92(sp)
/cygdrive/c/Users/SwaminathanK/AndeSight3/workspace/DSP_cfft_q15_benchmark_N/Debug/../Debug_Demo/main.c:40
    PLATFORM_INIT;
    1a3c:	4581                	c.li	a1,0
    1a3e:	4501                	c.li	a0,0
    1a40:	3661                	c.jal	15c8 <platform_init>
/cygdrive/c/Users/SwaminathanK/AndeSight3/workspace/DSP_cfft_q15_benchmark_N/Debug/../Debug_Demo/main.c:41
    CLOCK_INIT;
    1a42:	4791                	c.li	a5,4
    1a44:	4705                	c.li	a4,1
    1a46:	4685                	c.li	a3,1
    1a48:	4621                	c.li	a2,8
    1a4a:	4589                	c.li	a1,2
    1a4c:	6531                	c.lui	a0,0xc
    1a4e:	04250513          	addi	a0,a0,66 # c042 <BIN_SIZE+0x3dc0>
    1a52:	fb2ff0ef          	jal	ra,1204 <clock_init>
/cygdrive/c/Users/SwaminathanK/AndeSight3/workspace/DSP_cfft_q15_benchmark_N/Debug/../Debug_Demo/main.c:42
    user_init();
    1a56:	3d1d                	c.jal	188c <user_init>
/cygdrive/c/Users/SwaminathanK/AndeSight3/workspace/DSP_cfft_q15_benchmark_N/Debug/../Debug_Demo/main.c:44

	printf("****************** \n");
    1a58:	00080537          	lui	a0,0x80
    1a5c:	07450513          	addi	a0,a0,116 # 80074 <flash_support_mid+0xc>
    1a60:	3a2040ef          	jal	ra,5e02 <puts>
/cygdrive/c/Users/SwaminathanK/AndeSight3/workspace/DSP_cfft_q15_benchmark_N/Debug/../Debug_Demo/main.c:45
	printf("Starting FFT Benchmark Program\n");
    1a64:	00080537          	lui	a0,0x80
    1a68:	08850513          	addi	a0,a0,136 # 80088 <flash_support_mid+0x20>
    1a6c:	396040ef          	jal	ra,5e02 <puts>
/cygdrive/c/Users/SwaminathanK/AndeSight3/workspace/DSP_cfft_q15_benchmark_N/Debug/../Debug_Demo/main.c:47
    // Array of different N values to test
    const int N_values[] = {1024, 512, 256, 128, 64, 32};
    1a70:	841f978b          	addigp	a5,-1984 # 80040 <cst_libm_sincosf+0x40>
    1a74:	4b90                	c.lw	a2,16(a5)
    1a76:	4bd4                	c.lw	a3,20(a5)
    1a78:	4f98                	c.lw	a4,24(a5)
    1a7a:	dc32                	c.swsp	a2,56(sp)
    1a7c:	de36                	c.swsp	a3,60(sp)
    1a7e:	c0ba                	c.swsp	a4,64(sp)
    1a80:	4fd4                	c.lw	a3,28(a5)
    1a82:	5398                	c.lw	a4,32(a5)
    1a84:	53dc                	c.lw	a5,36(a5)
    1a86:	c2b6                	c.swsp	a3,68(sp)
    1a88:	c4ba                	c.swsp	a4,72(sp)
    1a8a:	c6be                	c.swsp	a5,76(sp)
/cygdrive/c/Users/SwaminathanK/AndeSight3/workspace/DSP_cfft_q15_benchmark_N/Debug/../Debug_Demo/main.c:51
    const int num_N_values = sizeof(N_values) / sizeof(N_values[0]);

    // Loop over each N value
    for (int n_idx = 0; n_idx < num_N_values; n_idx++) {
    1a8c:	4d81                	c.li	s11,0
    1a8e:	aa89                	c.j	1be0 <main+0x1c0>
/cygdrive/c/Users/SwaminathanK/AndeSight3/workspace/DSP_cfft_q15_benchmark_N/Debug/../Debug_Demo/main.c:63
        q15_t* magnitude_results = (q15_t*)malloc(N * sizeof(q15_t));       // Temporary magnitude results
        q15_t* magnitude_reference = (q15_t*)malloc(N * sizeof(q15_t));     // Reference magnitude result
        unsigned int cycle_counts[NUM_EXECUTIONS];                          // Array to store cycle counts

        if (input == NULL || original_input == NULL || magnitude_results == NULL || magnitude_reference == NULL) {
            printf("Memory allocation failed for N = %d\n", N);
    1a90:	85a2                	c.mv	a1,s0
    1a92:	00080537          	lui	a0,0x80
    1a96:	0a850513          	addi	a0,a0,168 # 800a8 <flash_support_mid+0x40>
    1a9a:	324040ef          	jal	ra,5dbe <iprintf>
/cygdrive/c/Users/SwaminathanK/AndeSight3/workspace/DSP_cfft_q15_benchmark_N/Debug/../Debug_Demo/main.c:64
            delay_ms(30);
    1a9e:	4579                	c.li	a0,30
    1aa0:	ecdfe0ef          	jal	ra,96c <delay_ms>
/cygdrive/c/Users/SwaminathanK/AndeSight3/workspace/DSP_cfft_q15_benchmark_N/Debug/../Debug_Demo/main.c:65
            return -1;
    1aa4:	557d                	c.li	a0,-1
    1aa6:	aaf9                	c.j	1c84 <main+0x264>
/cygdrive/c/Users/SwaminathanK/AndeSight3/workspace/DSP_cfft_q15_benchmark_N/Debug/../Debug_Demo/main.c:101
            // Calculate the magnitude for the current FFT result
            riscv_dsp_cmag_q15(input, magnitude_results, N);

            // For the first iteration, store the reference magnitude
            if (execution == 0) {
                memcpy(magnitude_reference, magnitude_results, N * sizeof(q15_t));
    1aa8:	4632                	c.lwsp	a2,12(sp)
    1aaa:	85a6                	c.mv	a1,s1
    1aac:	854a                	c.mv	a0,s2
    1aae:	166040ef          	jal	ra,5c14 <memcpy>
    1ab2:	a019                	c.j	1ab8 <main+0x98>
/cygdrive/c/Users/SwaminathanK/AndeSight3/workspace/DSP_cfft_q15_benchmark_N/Debug/../Debug_Demo/main.c:106
            } else {
                // Compare current magnitude with the reference magnitude
                for (int i = 0; i < N; i++) {
                    if (abs(magnitude_results[i] - magnitude_reference[i]) > 1) { // Tolerance of 1 for Q15 format
                        consistent_magnitude = 0;
    1ab4:	00000d13          	li	s10,0
/cygdrive/c/Users/SwaminathanK/AndeSight3/workspace/DSP_cfft_q15_benchmark_N/Debug/../Debug_Demo/main.c:77
        for (int execution = 0; execution < NUM_EXECUTIONS; execution++) {
    1ab8:	00198993          	addi	s3,s3,1
    1abc:	47a5                	c.li	a5,9
    1abe:	0737c363          	blt	a5,s3,1b24 <main+0x104>
/cygdrive/c/Users/SwaminathanK/AndeSight3/workspace/DSP_cfft_q15_benchmark_N/Debug/../Debug_Demo/main.c:79
            memcpy(input, original_input, 2 * N * sizeof(q15_t));
    1ac2:	865e                	c.mv	a2,s7
    1ac4:	85da                	c.mv	a1,s6
    1ac6:	8556                	c.mv	a0,s5
    1ac8:	14c040ef          	jal	ra,5c14 <memcpy>
/cygdrive/c/Users/SwaminathanK/AndeSight3/workspace/DSP_cfft_q15_benchmark_N/Debug/../Debug_Demo/main.c:82
            reset_cycle_count();
    1acc:	3d71                	c.jal	1968 <reset_cycle_count>
/cygdrive/c/Users/SwaminathanK/AndeSight3/workspace/DSP_cfft_q15_benchmark_N/Debug/../Debug_Demo/main.c:85
            unsigned int start_cycles = read_cycle_count();
    1ace:	354d                	c.jal	1970 <read_cycle_count>
    1ad0:	8a2a                	c.mv	s4,a0
/cygdrive/c/Users/SwaminathanK/AndeSight3/workspace/DSP_cfft_q15_benchmark_N/Debug/../Debug_Demo/main.c:88
            riscv_dsp_cfft_q15(input, M);
    1ad2:	85e6                	c.mv	a1,s9
    1ad4:	8556                	c.mv	a0,s5
    1ad6:	2ba9                	c.jal	2030 <riscv_dsp_cfft_q15>
/cygdrive/c/Users/SwaminathanK/AndeSight3/workspace/DSP_cfft_q15_benchmark_N/Debug/../Debug_Demo/main.c:91
            unsigned int end_cycles = read_cycle_count();
    1ad8:	3d61                	c.jal	1970 <read_cycle_count>
/cygdrive/c/Users/SwaminathanK/AndeSight3/workspace/DSP_cfft_q15_benchmark_N/Debug/../Debug_Demo/main.c:94
            cycle_counts[execution] = end_cycles - start_cycles;
    1ada:	41450533          	sub	a0,a0,s4
    1ade:	0890                	c.addi4spn	a2,sp,80
    1ae0:	0d3607db          	lea.w	a5,a2,s3
    1ae4:	fca7a023          	sw	a0,-64(a5)
/cygdrive/c/Users/SwaminathanK/AndeSight3/workspace/DSP_cfft_q15_benchmark_N/Debug/../Debug_Demo/main.c:97
            riscv_dsp_cmag_q15(input, magnitude_results, N);
    1ae8:	8662                	c.mv	a2,s8
    1aea:	85a6                	c.mv	a1,s1
    1aec:	8556                	c.mv	a0,s5
    1aee:	7d3000ef          	jal	ra,2ac0 <riscv_dsp_cmag_q15>
/cygdrive/c/Users/SwaminathanK/AndeSight3/workspace/DSP_cfft_q15_benchmark_N/Debug/../Debug_Demo/main.c:100
            if (execution == 0) {
    1af2:	fa098be3          	beqz	s3,1aa8 <main+0x88>
/cygdrive/c/Users/SwaminathanK/AndeSight3/workspace/DSP_cfft_q15_benchmark_N/Debug/../Debug_Demo/main.c:104
                for (int i = 0; i < N; i++) {
    1af6:	4681                	c.li	a3,0
    1af8:	fc86d0e3          	bge	a3,s0,1ab8 <main+0x98>
/cygdrive/c/Users/SwaminathanK/AndeSight3/workspace/DSP_cfft_q15_benchmark_N/Debug/../Debug_Demo/main.c:105
                    if (abs(magnitude_results[i] - magnitude_reference[i]) > 1) { // Tolerance of 1 for Q15 format
    1afc:	00169713          	slli	a4,a3,0x1
    1b00:	00e487b3          	add	a5,s1,a4
    1b04:	00079783          	lh	a5,0(a5)
    1b08:	974a                	c.add	a4,s2
    1b0a:	00071703          	lh	a4,0(a4)
    1b0e:	8f99                	c.sub	a5,a4
    1b10:	40f00733          	neg	a4,a5
    1b14:	f2e787ff          	maxw	a5,a5,a4
    1b18:	4705                	c.li	a4,1
    1b1a:	f8f74de3          	blt	a4,a5,1ab4 <main+0x94>
/cygdrive/c/Users/SwaminathanK/AndeSight3/workspace/DSP_cfft_q15_benchmark_N/Debug/../Debug_Demo/main.c:104
                for (int i = 0; i < N; i++) {
    1b1e:	0685                	c.addi	a3,1
    1b20:	fd9ff06f          	j	1af8 <main+0xd8>
/cygdrive/c/Users/SwaminathanK/AndeSight3/workspace/DSP_cfft_q15_benchmark_N/Debug/../Debug_Demo/main.c:125
//			}
//			printf("\n");
//			delay_ms(10);
//		}

		if (consistent_magnitude) {
    1b24:	020d0a63          	beqz	s10,1b58 <main+0x138>
/cygdrive/c/Users/SwaminathanK/AndeSight3/workspace/DSP_cfft_q15_benchmark_N/Debug/../Debug_Demo/main.c:126
			printf("Magnitude results are consistent for FFT_SIZE = %d.\n", N);
    1b28:	85a2                	c.mv	a1,s0
    1b2a:	00080537          	lui	a0,0x80
    1b2e:	0e850513          	addi	a0,a0,232 # 800e8 <flash_support_mid+0x80>
    1b32:	28c040ef          	jal	ra,5dbe <iprintf>
/cygdrive/c/Users/SwaminathanK/AndeSight3/workspace/DSP_cfft_q15_benchmark_N/Debug/../Debug_Demo/main.c:127
			delay_ms(30);
    1b36:	4579                	c.li	a0,30
    1b38:	e35fe0ef          	jal	ra,96c <delay_ms>
/cygdrive/c/Users/SwaminathanK/AndeSight3/workspace/DSP_cfft_q15_benchmark_N/Debug/../Debug_Demo/main.c:134
			printf("Inconsistent magnitudes detected for FFT size N = %d\n", N);
			delay_ms(30);
		}

        // Calculate and display the cycle counts and average
        printf("Cycle Counts for each FFT execution (N = %d):\n", N);
    1b3c:	85a2                	c.mv	a1,s0
    1b3e:	00080537          	lui	a0,0x80
    1b42:	15850513          	addi	a0,a0,344 # 80158 <flash_support_mid+0xf0>
    1b46:	278040ef          	jal	ra,5dbe <iprintf>
/cygdrive/c/Users/SwaminathanK/AndeSight3/workspace/DSP_cfft_q15_benchmark_N/Debug/../Debug_Demo/main.c:135
        delay_ms(30);
    1b4a:	4579                	c.li	a0,30
    1b4c:	e21fe0ef          	jal	ra,96c <delay_ms>
/cygdrive/c/Users/SwaminathanK/AndeSight3/workspace/DSP_cfft_q15_benchmark_N/Debug/../Debug_Demo/main.c:137
        unsigned int total_cycle_count = 0;
        for (int execution = 0; execution < NUM_EXECUTIONS; execution++) {
    1b50:	4781                	c.li	a5,0
/cygdrive/c/Users/SwaminathanK/AndeSight3/workspace/DSP_cfft_q15_benchmark_N/Debug/../Debug_Demo/main.c:136
        unsigned int total_cycle_count = 0;
    1b52:	4b81                	c.li	s7,0
    1b54:	0440006f          	j	1b98 <main+0x178>
/cygdrive/c/Users/SwaminathanK/AndeSight3/workspace/DSP_cfft_q15_benchmark_N/Debug/../Debug_Demo/main.c:129
			printf("Inconsistent magnitudes detected for FFT size N = %d\n", N);
    1b58:	85a2                	c.mv	a1,s0
    1b5a:	00080537          	lui	a0,0x80
    1b5e:	12050513          	addi	a0,a0,288 # 80120 <flash_support_mid+0xb8>
    1b62:	25c040ef          	jal	ra,5dbe <iprintf>
/cygdrive/c/Users/SwaminathanK/AndeSight3/workspace/DSP_cfft_q15_benchmark_N/Debug/../Debug_Demo/main.c:130
			delay_ms(30);
    1b66:	4579                	c.li	a0,30
    1b68:	e05fe0ef          	jal	ra,96c <delay_ms>
    1b6c:	fd1ff06f          	j	1b3c <main+0x11c>
/cygdrive/c/Users/SwaminathanK/AndeSight3/workspace/DSP_cfft_q15_benchmark_N/Debug/../Debug_Demo/main.c:138
            printf("Execution %d: %u cycles\n", execution + 1, cycle_counts[execution]);
    1b70:	00178993          	addi	s3,a5,1
    1b74:	088c                	c.addi4spn	a1,sp,80
    1b76:	0cf587db          	lea.w	a5,a1,a5
    1b7a:	fc07aa03          	lw	s4,-64(a5)
    1b7e:	8652                	c.mv	a2,s4
    1b80:	85ce                	c.mv	a1,s3
    1b82:	00080537          	lui	a0,0x80
    1b86:	18850513          	addi	a0,a0,392 # 80188 <flash_support_mid+0x120>
    1b8a:	234040ef          	jal	ra,5dbe <iprintf>
/cygdrive/c/Users/SwaminathanK/AndeSight3/workspace/DSP_cfft_q15_benchmark_N/Debug/../Debug_Demo/main.c:139
            delay_ms(30);
    1b8e:	4579                	c.li	a0,30
    1b90:	dddfe0ef          	jal	ra,96c <delay_ms>
/cygdrive/c/Users/SwaminathanK/AndeSight3/workspace/DSP_cfft_q15_benchmark_N/Debug/../Debug_Demo/main.c:140
            total_cycle_count += cycle_counts[execution];
    1b94:	9bd2                	c.add	s7,s4
/cygdrive/c/Users/SwaminathanK/AndeSight3/workspace/DSP_cfft_q15_benchmark_N/Debug/../Debug_Demo/main.c:137
        for (int execution = 0; execution < NUM_EXECUTIONS; execution++) {
    1b96:	87ce                	c.mv	a5,s3
    1b98:	4725                	c.li	a4,9
    1b9a:	fcf75be3          	bge	a4,a5,1b70 <main+0x150>
/cygdrive/c/Users/SwaminathanK/AndeSight3/workspace/DSP_cfft_q15_benchmark_N/Debug/../Debug_Demo/main.c:142
        }
        unsigned int average_cycle_count = total_cycle_count / NUM_EXECUTIONS;
    1b9e:	ccccd637          	lui	a2,0xccccd
    1ba2:	ccd60613          	addi	a2,a2,-819 # cccccccd <_DATA_LMA_START+0xaccc60f5>
    1ba6:	02cbb633          	mulhu	a2,s7,a2
/cygdrive/c/Users/SwaminathanK/AndeSight3/workspace/DSP_cfft_q15_benchmark_N/Debug/../Debug_Demo/main.c:143
        printf("Average Cycle Count (N = %d): %u\n", N, average_cycle_count);
    1baa:	820d                	c.srli	a2,0x3
    1bac:	85a2                	c.mv	a1,s0
    1bae:	00080537          	lui	a0,0x80
    1bb2:	1a450513          	addi	a0,a0,420 # 801a4 <flash_support_mid+0x13c>
    1bb6:	208040ef          	jal	ra,5dbe <iprintf>
/cygdrive/c/Users/SwaminathanK/AndeSight3/workspace/DSP_cfft_q15_benchmark_N/Debug/../Debug_Demo/main.c:144
        delay_ms(30);
    1bba:	4579                	c.li	a0,30
    1bbc:	db1fe0ef          	jal	ra,96c <delay_ms>
/cygdrive/c/Users/SwaminathanK/AndeSight3/workspace/DSP_cfft_q15_benchmark_N/Debug/../Debug_Demo/main.c:145
        printf("\n");
    1bc0:	4529                	c.li	a0,10
    1bc2:	21a040ef          	jal	ra,5ddc <putchar>
/cygdrive/c/Users/SwaminathanK/AndeSight3/workspace/DSP_cfft_q15_benchmark_N/Debug/../Debug_Demo/main.c:148

        // Free dynamically allocated memory
        free(input);
    1bc6:	8556                	c.mv	a0,s5
    1bc8:	044040ef          	jal	ra,5c0c <free>
/cygdrive/c/Users/SwaminathanK/AndeSight3/workspace/DSP_cfft_q15_benchmark_N/Debug/../Debug_Demo/main.c:149
        free(original_input);
    1bcc:	855a                	c.mv	a0,s6
    1bce:	03e040ef          	jal	ra,5c0c <free>
/cygdrive/c/Users/SwaminathanK/AndeSight3/workspace/DSP_cfft_q15_benchmark_N/Debug/../Debug_Demo/main.c:150
        free(magnitude_results);
    1bd2:	8526                	c.mv	a0,s1
    1bd4:	038040ef          	jal	ra,5c0c <free>
/cygdrive/c/Users/SwaminathanK/AndeSight3/workspace/DSP_cfft_q15_benchmark_N/Debug/../Debug_Demo/main.c:151
        free(magnitude_reference);
    1bd8:	854a                	c.mv	a0,s2
    1bda:	032040ef          	jal	ra,5c0c <free>
/cygdrive/c/Users/SwaminathanK/AndeSight3/workspace/DSP_cfft_q15_benchmark_N/Debug/../Debug_Demo/main.c:51
    for (int n_idx = 0; n_idx < num_N_values; n_idx++) {
    1bde:	0d85                	c.addi	s11,1
    1be0:	4795                	c.li	a5,5
    1be2:	09b7cf63          	blt	a5,s11,1c80 <main+0x260>
/cygdrive/c/Users/SwaminathanK/AndeSight3/workspace/DSP_cfft_q15_benchmark_N/Debug/../Debug_Demo/main.c:52
        int N = N_values[n_idx];
    1be6:	0890                	c.addi4spn	a2,sp,80
    1be8:	0db607db          	lea.w	a5,a2,s11
    1bec:	fe87a403          	lw	s0,-24(a5)
/cygdrive/c/Users/SwaminathanK/AndeSight3/workspace/DSP_cfft_q15_benchmark_N/Debug/../Debug_Demo/main.c:53
        int M = (int)(log2(N)); // Calculate M = log2(N)
    1bf0:	8522                	c.mv	a0,s0
    1bf2:	327030ef          	jal	ra,5718 <__floatsidf>
    1bf6:	016010ef          	jal	ra,2c0c <log>
    1bfa:	000807b7          	lui	a5,0x80
    1bfe:	03078793          	addi	a5,a5,48 # 80030 <cst_libm_sincosf+0x30>
    1c02:	4390                	c.lw	a2,0(a5)
    1c04:	43d4                	c.lw	a3,4(a5)
    1c06:	19e020ef          	jal	ra,3da4 <__divdf3>
    1c0a:	247030ef          	jal	ra,5650 <__fixdfsi>
    1c0e:	8caa                	c.mv	s9,a0
/cygdrive/c/Users/SwaminathanK/AndeSight3/workspace/DSP_cfft_q15_benchmark_N/Debug/../Debug_Demo/main.c:56
        q15_t* input = (q15_t*)malloc(2 * N * sizeof(q15_t));               // Interleaved input (real + imag)
    1c10:	00241b93          	slli	s7,s0,0x2
    1c14:	855e                	c.mv	a0,s7
    1c16:	7ef030ef          	jal	ra,5c04 <malloc>
    1c1a:	8aaa                	c.mv	s5,a0
/cygdrive/c/Users/SwaminathanK/AndeSight3/workspace/DSP_cfft_q15_benchmark_N/Debug/../Debug_Demo/main.c:57
        q15_t* original_input = (q15_t*)malloc(2 * N * sizeof(q15_t));      // Original input
    1c1c:	855e                	c.mv	a0,s7
    1c1e:	7e7030ef          	jal	ra,5c04 <malloc>
    1c22:	8b2a                	c.mv	s6,a0
/cygdrive/c/Users/SwaminathanK/AndeSight3/workspace/DSP_cfft_q15_benchmark_N/Debug/../Debug_Demo/main.c:58
        q15_t* magnitude_results = (q15_t*)malloc(N * sizeof(q15_t));       // Temporary magnitude results
    1c24:	8c22                	c.mv	s8,s0
    1c26:	00141613          	slli	a2,s0,0x1
    1c2a:	8d32                	c.mv	s10,a2
    1c2c:	c632                	c.swsp	a2,12(sp)
    1c2e:	8532                	c.mv	a0,a2
    1c30:	7d5030ef          	jal	ra,5c04 <malloc>
    1c34:	84aa                	c.mv	s1,a0
/cygdrive/c/Users/SwaminathanK/AndeSight3/workspace/DSP_cfft_q15_benchmark_N/Debug/../Debug_Demo/main.c:59
        q15_t* magnitude_reference = (q15_t*)malloc(N * sizeof(q15_t));     // Reference magnitude result
    1c36:	856a                	c.mv	a0,s10
    1c38:	7cd030ef          	jal	ra,5c04 <malloc>
    1c3c:	892a                	c.mv	s2,a0
/cygdrive/c/Users/SwaminathanK/AndeSight3/workspace/DSP_cfft_q15_benchmark_N/Debug/../Debug_Demo/main.c:62
        if (input == NULL || original_input == NULL || magnitude_results == NULL || magnitude_reference == NULL) {
    1c3e:	e40a89e3          	beqz	s5,1a90 <main+0x70>
    1c42:	e40b07e3          	beqz	s6,1a90 <main+0x70>
    1c46:	e40485e3          	beqz	s1,1a90 <main+0x70>
    1c4a:	e40503e3          	beqz	a0,1a90 <main+0x70>
/cygdrive/c/Users/SwaminathanK/AndeSight3/workspace/DSP_cfft_q15_benchmark_N/Debug/../Debug_Demo/main.c:69
		generate_sine_wave_q15(original_input, N, SINE_FREQ, SAMPLING_FREQ);
    1c4e:	000807b7          	lui	a5,0x80
    1c52:	0387a587          	flw	fa1,56(a5) # 80038 <cst_libm_sincosf+0x38>
    1c56:	000807b7          	lui	a5,0x80
    1c5a:	03c7a507          	flw	fa0,60(a5) # 8003c <cst_libm_sincosf+0x3c>
    1c5e:	85a2                	c.mv	a1,s0
    1c60:	855a                	c.mv	a0,s6
    1c62:	3b19                	c.jal	1978 <generate_sine_wave_q15>
/cygdrive/c/Users/SwaminathanK/AndeSight3/workspace/DSP_cfft_q15_benchmark_N/Debug/../Debug_Demo/main.c:71
        printf("Testing FFT for N = %d\n", N);
    1c64:	85a2                	c.mv	a1,s0
    1c66:	00080537          	lui	a0,0x80
    1c6a:	0d050513          	addi	a0,a0,208 # 800d0 <flash_support_mid+0x68>
    1c6e:	150040ef          	jal	ra,5dbe <iprintf>
/cygdrive/c/Users/SwaminathanK/AndeSight3/workspace/DSP_cfft_q15_benchmark_N/Debug/../Debug_Demo/main.c:72
        delay_ms(30);
    1c72:	4579                	c.li	a0,30
    1c74:	cf9fe0ef          	jal	ra,96c <delay_ms>
/cygdrive/c/Users/SwaminathanK/AndeSight3/workspace/DSP_cfft_q15_benchmark_N/Debug/../Debug_Demo/main.c:77
        for (int execution = 0; execution < NUM_EXECUTIONS; execution++) {
    1c78:	4981                	c.li	s3,0
/cygdrive/c/Users/SwaminathanK/AndeSight3/workspace/DSP_cfft_q15_benchmark_N/Debug/../Debug_Demo/main.c:74
        int consistent_magnitude = 1;
    1c7a:	4d05                	c.li	s10,1
    1c7c:	e41ff06f          	j	1abc <main+0x9c>
/cygdrive/c/Users/SwaminathanK/AndeSight3/workspace/DSP_cfft_q15_benchmark_N/Debug/../Debug_Demo/main.c:154
    }

    return 0;
    1c80:	00000513          	li	a0,0
/cygdrive/c/Users/SwaminathanK/AndeSight3/workspace/DSP_cfft_q15_benchmark_N/Debug/../Debug_Demo/main.c:155
}
    1c84:	40ba                	c.lwsp	ra,140(sp)
    1c86:	442a                	c.lwsp	s0,136(sp)
    1c88:	449a                	c.lwsp	s1,132(sp)
    1c8a:	490a                	c.lwsp	s2,128(sp)
    1c8c:	59f6                	c.lwsp	s3,124(sp)
    1c8e:	5a66                	c.lwsp	s4,120(sp)
    1c90:	5ad6                	c.lwsp	s5,116(sp)
    1c92:	5b46                	c.lwsp	s6,112(sp)
    1c94:	5bb6                	c.lwsp	s7,108(sp)
    1c96:	5c26                	c.lwsp	s8,104(sp)
    1c98:	5c96                	c.lwsp	s9,100(sp)
    1c9a:	5d06                	c.lwsp	s10,96(sp)
    1c9c:	4df6                	c.lwsp	s11,92(sp)
    1c9e:	6149                	c.addi16sp	sp,144
    1ca0:	8082                	c.jr	ra
	...

00001ca4 <pm_update_status_info>:
pm_update_status_info():
D:/release_sdk/v2_3_0_2/telink_b91m_driver_src/chip/B91/drivers/lib/src/pm.c:222
    1ca4:	1141                	c.addi	sp,-16
D:/release_sdk/v2_3_0_2/telink_b91m_driver_src/chip/B91/drivers/lib/src/pm.c:223
    1ca6:	03800513          	li	a0,56
D:/release_sdk/v2_3_0_2/telink_b91m_driver_src/chip/B91/drivers/lib/src/pm.c:222
    1caa:	c606                	c.swsp	ra,12(sp)
    1cac:	c422                	c.swsp	s0,8(sp)
    1cae:	c04a                	c.swsp	s2,0(sp)
    1cb0:	c226                	c.swsp	s1,4(sp)
D:/release_sdk/v2_3_0_2/telink_b91m_driver_src/chip/B91/drivers/lib/src/pm.c:223
    1cb2:	ecefe0ef          	jal	ra,380 <analog_read_reg8>
    1cb6:	842a                	c.mv	s0,a0
D:/release_sdk/v2_3_0_2/telink_b91m_driver_src/chip/B91/drivers/lib/src/pm.c:224
    1cb8:	03900513          	li	a0,57
    1cbc:	ec4fe0ef          	jal	ra,380 <analog_read_reg8>
    1cc0:	892a                	c.mv	s2,a0
D:/release_sdk/v2_3_0_2/telink_b91m_driver_src/chip/B91/drivers/lib/src/pm.c:225
    1cc2:	0604735b          	bbc	s0,0,1d28 <pm_update_status_info+0x84>
    1cc6:	0fe47593          	andi	a1,s0,254
D:/release_sdk/v2_3_0_2/telink_b91m_driver_src/chip/B91/drivers/lib/src/pm.c:227
    1cca:	69d0148b          	addigp	s1,3740 # 8169c <g_pm_status_info>
D:/release_sdk/v2_3_0_2/telink_b91m_driver_src/chip/B91/drivers/lib/src/pm.c:228
    1cce:	03800513          	li	a0,56
D:/release_sdk/v2_3_0_2/telink_b91m_driver_src/chip/B91/drivers/lib/src/pm.c:226
    1cd2:	4409755b          	bbs	s2,0,1d1c <pm_update_status_info+0x78>
D:/release_sdk/v2_3_0_2/telink_b91m_driver_src/chip/B91/drivers/lib/src/pm.c:230
    1cd6:	4785                	c.li	a5,1
    1cd8:	00f48123          	sb	a5,2(s1)
D:/release_sdk/v2_3_0_2/telink_b91m_driver_src/chip/B91/drivers/lib/src/pm.c:231
    1cdc:	ef4fe0ef          	jal	ra,3d0 <analog_write_reg8>
D:/release_sdk/v2_3_0_2/telink_b91m_driver_src/chip/B91/drivers/lib/src/pm.c:232
    1ce0:	00196593          	ori	a1,s2,1
    1ce4:	0ff5f593          	andi	a1,a1,255
    1ce8:	03900513          	li	a0,57
    1cec:	ee4fe0ef          	jal	ra,3d0 <analog_write_reg8>
D:/release_sdk/v2_3_0_2/telink_b91m_driver_src/chip/B91/drivers/lib/src/pm.c:244
    1cf0:	4585                	c.li	a1,1
    1cf2:	07f00513          	li	a0,127
    1cf6:	edafe0ef          	jal	ra,3d0 <analog_write_reg8>
pm_get_wakeup_src():
D:\release_sdk\v2_3_0_2\telink_b91m_driver_src\chip\B91\drivers/lib/include/pm.h:239
    1cfa:	06400513          	li	a0,100
    1cfe:	e82fe0ef          	jal	ra,380 <analog_read_reg8>
pm_update_status_info():
D:/release_sdk/v2_3_0_2/telink_b91m_driver_src/chip/B91/drivers/lib/src/pm.c:246
    1d02:	0c3527db          	bfoz	a5,a0,3,3
    1d06:	68f03e8b          	sbgp	a5,3740 # 8169c <g_pm_status_info>
D:/release_sdk/v2_3_0_2/telink_b91m_driver_src/chip/B91/drivers/lib/src/pm.c:247
    1d0a:	40b2                	c.lwsp	ra,12(sp)
    1d0c:	4422                	c.lwsp	s0,8(sp)
D:/release_sdk/v2_3_0_2/telink_b91m_driver_src/chip/B91/drivers/lib/src/pm.c:245
    1d0e:	00a480a3          	sb	a0,1(s1)
D:/release_sdk/v2_3_0_2/telink_b91m_driver_src/chip/B91/drivers/lib/src/pm.c:247
    1d12:	4902                	c.lwsp	s2,0(sp)
    1d14:	4492                	c.lwsp	s1,4(sp)
    1d16:	0141                	c.addi	sp,16
    1d18:	00008067          	ret
D:/release_sdk/v2_3_0_2/telink_b91m_driver_src/chip/B91/drivers/lib/src/pm.c:227
    1d1c:	4791                	c.li	a5,4
    1d1e:	00f48123          	sb	a5,2(s1)
D:/release_sdk/v2_3_0_2/telink_b91m_driver_src/chip/B91/drivers/lib/src/pm.c:228
    1d22:	eaefe0ef          	jal	ra,3d0 <analog_write_reg8>
    1d26:	b7e9                	c.j	1cf0 <pm_update_status_info+0x4c>
pm_get_deep_retention_flag():
D:\release_sdk\v2_3_0_2\telink_b91m_driver_src\chip\B91\drivers/lib/include/pm.h:230
    1d28:	07f00513          	li	a0,127
    1d2c:	e54fe0ef          	jal	ra,380 <analog_read_reg8>
pm_update_status_info():
D:/release_sdk/v2_3_0_2/telink_b91m_driver_src/chip/B91/drivers/lib/src/pm.c:236
    1d30:	69d0148b          	addigp	s1,3740 # 8169c <g_pm_status_info>
D:/release_sdk/v2_3_0_2/telink_b91m_driver_src/chip/B91/drivers/lib/src/pm.c:235
    1d34:	0005785b          	bbc	a0,0,1d44 <pm_update_status_info+0xa0>
D:/release_sdk/v2_3_0_2/telink_b91m_driver_src/chip/B91/drivers/lib/src/pm.c:237
    1d38:	40197a5b          	bbs	s2,1,1d4c <pm_update_status_info+0xa8>
D:/release_sdk/v2_3_0_2/telink_b91m_driver_src/chip/B91/drivers/lib/src/pm.c:241
    1d3c:	47c1                	c.li	a5,16
    1d3e:	00f48123          	sb	a5,2(s1)
    1d42:	b77d                	c.j	1cf0 <pm_update_status_info+0x4c>
D:/release_sdk/v2_3_0_2/telink_b91m_driver_src/chip/B91/drivers/lib/src/pm.c:236
    1d44:	47a1                	c.li	a5,8
    1d46:	00f48123          	sb	a5,2(s1)
    1d4a:	b75d                	c.j	1cf0 <pm_update_status_info+0x4c>
D:/release_sdk/v2_3_0_2/telink_b91m_driver_src/chip/B91/drivers/lib/src/pm.c:238
    1d4c:	02000793          	li	a5,32
D:/release_sdk/v2_3_0_2/telink_b91m_driver_src/chip/B91/drivers/lib/src/pm.c:239
    1d50:	0fd97593          	andi	a1,s2,253
    1d54:	03900513          	li	a0,57
D:/release_sdk/v2_3_0_2/telink_b91m_driver_src/chip/B91/drivers/lib/src/pm.c:238
    1d58:	00f48123          	sb	a5,2(s1)
D:/release_sdk/v2_3_0_2/telink_b91m_driver_src/chip/B91/drivers/lib/src/pm.c:239
    1d5c:	e74fe0ef          	jal	ra,3d0 <analog_write_reg8>
    1d60:	bf41                	c.j	1cf0 <pm_update_status_info+0x4c>
	...

00001d64 <pm_update_32k_rc_sleep_tick>:
pm_update_32k_rc_sleep_tick():
D:/release_sdk/v2_3_0_2/telink_b91m_driver_src/chip/B91/drivers/lib/src/pm.c:362
    1d64:	000007b7          	lui	a5,0x0
    1d68:	18078713          	addi	a4,a5,384 # 180 <flash_read_page>
    1d6c:	5714                	c.lw	a3,40(a4)
D:/release_sdk/v2_3_0_2/telink_b91m_driver_src/chip/B91/drivers/lib/src/pm.c:363
    1d6e:	03474603          	lbu	a2,52(a4)
D:/release_sdk/v2_3_0_2/telink_b91m_driver_src/chip/B91/drivers/lib/src/pm.c:362
    1d72:	40d506b3          	sub	a3,a0,a3
    1d76:	d754                	c.sw	a3,44(a4)
    1d78:	18078793          	addi	a5,a5,384
D:/release_sdk/v2_3_0_2/telink_b91m_driver_src/chip/B91/drivers/lib/src/pm.c:363
    1d7c:	e605                	c.bnez	a2,1da4 <pm_update_32k_rc_sleep_tick+0x40>
    1d7e:	47d8                	c.lw	a4,12(a5)
    1d80:	c315                	c.beqz	a4,1da4 <pm_update_32k_rc_sleep_tick+0x40>
    1d82:	00000737          	lui	a4,0x0
    1d86:	16474703          	lbu	a4,356(a4) # 164 <g_pm_tick_update_en>
    1d8a:	ef09                	c.bnez	a4,1da4 <pm_update_32k_rc_sleep_tick+0x40>
    1d8c:	0107a703          	lw	a4,16(a5)
    1d90:	000276b7          	lui	a3,0x27
    1d94:	40e50733          	sub	a4,a0,a4
    1d98:	6c07275b          	bfoz	a4,a4,27,0
    1d9c:	10068693          	addi	a3,a3,256 # 27100 <BIN_SIZE+0x1ee7e>
    1da0:	00e6f863          	bgeu	a3,a4,1db0 <pm_update_32k_rc_sleep_tick+0x4c>
D:/release_sdk/v2_3_0_2/telink_b91m_driver_src/chip/B91/drivers/lib/src/pm.c:367
    1da4:	0015e593          	ori	a1,a1,1
D:/release_sdk/v2_3_0_2/telink_b91m_driver_src/chip/B91/drivers/lib/src/pm.c:365
    1da8:	02078a23          	sb	zero,52(a5)
D:/release_sdk/v2_3_0_2/telink_b91m_driver_src/chip/B91/drivers/lib/src/pm.c:366
    1dac:	cb88                	c.sw	a0,16(a5)
D:/release_sdk/v2_3_0_2/telink_b91m_driver_src/chip/B91/drivers/lib/src/pm.c:367
    1dae:	c7cc                	c.sw	a1,12(a5)
D:/release_sdk/v2_3_0_2/telink_b91m_driver_src/chip/B91/drivers/lib/src/pm.c:369
    1db0:	8082                	c.jr	ra
    1db2:	0001                	c.nop

00001db4 <pm_get_32k_rc_calib>:
pm_get_32k_rc_calib():
D:/release_sdk/v2_3_0_2/telink_b91m_driver_src/chip/B91/drivers/lib/src/pm.c:400
    1db4:	801407b7          	lui	a5,0x80140
    1db8:	2147a703          	lw	a4,532(a5) # 80140214 <_DATA_LMA_START+0x6013963c>
    1dbc:	df75                	c.beqz	a4,1db8 <pm_get_32k_rc_calib+0x4>
D:/release_sdk/v2_3_0_2/telink_b91m_driver_src/chip/B91/drivers/lib/src/pm.c:403
    1dbe:	00000737          	lui	a4,0x0
    1dc2:	18070613          	addi	a2,a4,384 # 180 <flash_read_page>
D:/release_sdk/v2_3_0_2/telink_b91m_driver_src/chip/B91/drivers/lib/src/pm.c:402
    1dc6:	2147a783          	lw	a5,532(a5)
D:/release_sdk/v2_3_0_2/telink_b91m_driver_src/chip/B91/drivers/lib/src/pm.c:405
    1dca:	5214                	c.lw	a3,32(a2)
D:/release_sdk/v2_3_0_2/telink_b91m_driver_src/chip/B91/drivers/lib/src/pm.c:403
    1dcc:	da1c                	c.sw	a5,48(a2)
    1dce:	18070713          	addi	a4,a4,384
D:/release_sdk/v2_3_0_2/telink_b91m_driver_src/chip/B91/drivers/lib/src/pm.c:404
    1dd2:	0792                	c.slli	a5,0x4
D:/release_sdk/v2_3_0_2/telink_b91m_driver_src/chip/B91/drivers/lib/src/pm.c:405
    1dd4:	ca91                	c.beqz	a3,1de8 <pm_get_32k_rc_calib+0x34>
D:/release_sdk/v2_3_0_2/telink_b91m_driver_src/chip/B91/drivers/lib/src/pm.c:411
    1dd6:	03474583          	lbu	a1,52(a4)
    1dda:	4611                	c.li	a2,4
    1ddc:	8f95                	c.sub	a5,a3
    1dde:	8e0d                	c.sub	a2,a1
    1de0:	40c7d7b3          	sra	a5,a5,a2
    1de4:	00d787b3          	add	a5,a5,a3
    1de8:	d31c                	c.sw	a5,32(a4)
D:/release_sdk/v2_3_0_2/telink_b91m_driver_src/chip/B91/drivers/lib/src/pm.c:414
    1dea:	5308                	c.lw	a0,32(a4)
    1dec:	4b5c                	c.lw	a5,20(a4)
    1dee:	8511                	c.srai	a0,0x4
    1df0:	02f507b3          	mul	a5,a0,a5
    1df4:	87c9                	c.srai	a5,0x12
D:/release_sdk/v2_3_0_2/telink_b91m_driver_src/chip/B91/drivers/lib/src/pm.c:417
    1df6:	953e                	c.add	a0,a5
    1df8:	8082                	c.jr	ra
    1dfa:	0001                	c.nop

00001dfc <rf_update_internal_cap>:
rf_update_internal_cap():
D:/release_sdk/v2_3_0_2/telink_b91m_driver_src/chip/B91/drivers/lib/src/rf.c:1525
    1dfc:	1141                	c.addi	sp,-16
    1dfe:	c422                	c.swsp	s0,8(sp)
    1e00:	842a                	c.mv	s0,a0
D:/release_sdk/v2_3_0_2/telink_b91m_driver_src/chip/B91/drivers/lib/src/rf.c:1526
    1e02:	08a00513          	li	a0,138
D:/release_sdk/v2_3_0_2/telink_b91m_driver_src/chip/B91/drivers/lib/src/rf.c:1525
    1e06:	c606                	c.swsp	ra,12(sp)
D:/release_sdk/v2_3_0_2/telink_b91m_driver_src/chip/B91/drivers/lib/src/rf.c:1526
    1e08:	03f47413          	andi	s0,s0,63
    1e0c:	d74fe0ef          	jal	ra,380 <analog_read_reg8>
    1e10:	04057593          	andi	a1,a0,64
    1e14:	8dc1                	c.or	a1,s0
D:/release_sdk/v2_3_0_2/telink_b91m_driver_src/chip/B91/drivers/lib/src/rf.c:1527
    1e16:	4422                	c.lwsp	s0,8(sp)
    1e18:	40b2                	c.lwsp	ra,12(sp)
D:/release_sdk/v2_3_0_2/telink_b91m_driver_src/chip/B91/drivers/lib/src/rf.c:1526
    1e1a:	08a00513          	li	a0,138
D:/release_sdk/v2_3_0_2/telink_b91m_driver_src/chip/B91/drivers/lib/src/rf.c:1527
    1e1e:	0141                	c.addi	sp,16
D:/release_sdk/v2_3_0_2/telink_b91m_driver_src/chip/B91/drivers/lib/src/rf.c:1526
    1e20:	db0fe06f          	j	3d0 <analog_write_reg8>
    1e24:	0001                	c.nop
	...

00001e28 <sys_init>:
sys_init():
D:/release_sdk/v2_3_0_2/telink_b91m_driver_src/chip/B91/drivers/lib/src/sys.c:109
    1e28:	1141                	c.addi	sp,-16
D:/release_sdk/v2_3_0_2/telink_b91m_driver_src/chip/B91/drivers/lib/src/sys.c:115
    1e2a:	ffbc07b7          	lui	a5,0xffbc0
D:/release_sdk/v2_3_0_2/telink_b91m_driver_src/chip/B91/drivers/lib/src/sys.c:109
    1e2e:	c422                	c.swsp	s0,8(sp)
    1e30:	c226                	c.swsp	s1,4(sp)
    1e32:	c606                	c.swsp	ra,12(sp)
    1e34:	c04a                	c.swsp	s2,0(sp)
D:/release_sdk/v2_3_0_2/telink_b91m_driver_src/chip/B91/drivers/lib/src/sys.c:115
    1e36:	80140737          	lui	a4,0x80140
    1e3a:	17fd                	c.addi	a5,-1
D:/release_sdk/v2_3_0_2/telink_b91m_driver_src/chip/B91/drivers/lib/src/sys.c:109
    1e3c:	84aa                	c.mv	s1,a0
    1e3e:	842e                	c.mv	s0,a1
D:/release_sdk/v2_3_0_2/telink_b91m_driver_src/chip/B91/drivers/lib/src/sys.c:115
    1e40:	1ef72023          	sw	a5,480(a4) # 801401e0 <_DATA_LMA_START+0x60139608>
D:/release_sdk/v2_3_0_2/telink_b91m_driver_src/chip/B91/drivers/lib/src/sys.c:118
    1e44:	00200593          	li	a1,2
    1e48:	08c00513          	li	a0,140
D:/release_sdk/v2_3_0_2/telink_b91m_driver_src/chip/B91/drivers/lib/src/sys.c:116
    1e4c:	1ef72223          	sw	a5,484(a4)
D:/release_sdk/v2_3_0_2/telink_b91m_driver_src/chip/B91/drivers/lib/src/sys.c:118
    1e50:	d80fe0ef          	jal	ra,3d0 <analog_write_reg8>
D:/release_sdk/v2_3_0_2/telink_b91m_driver_src/chip/B91/drivers/lib/src/sys.c:123
    1e54:	1434de5b          	beqc	s1,3,1fb0 <sys_init+0x188>
D:/release_sdk/v2_3_0_2/telink_b91m_driver_src/chip/B91/drivers/lib/src/sys.c:128
    1e58:	85a6                	c.mv	a1,s1
    1e5a:	4529                	c.li	a0,10
    1e5c:	d74fe0ef          	jal	ra,3d0 <analog_write_reg8>
D:/release_sdk/v2_3_0_2/telink_b91m_driver_src/chip/B91/drivers/lib/src/sys.c:135
    1e60:	03b00593          	li	a1,59
    1e64:	452d                	c.li	a0,11
    1e66:	d6afe0ef          	jal	ra,3d0 <analog_write_reg8>
D:/release_sdk/v2_3_0_2/telink_b91m_driver_src/chip/B91/drivers/lib/src/sys.c:137
    1e6a:	4515                	c.li	a0,5
    1e6c:	d14fe0ef          	jal	ra,380 <analog_read_reg8>
    1e70:	0f757593          	andi	a1,a0,247
    1e74:	4515                	c.li	a0,5
    1e76:	d5afe0ef          	jal	ra,3d0 <analog_write_reg8>
D:/release_sdk/v2_3_0_2/telink_b91m_driver_src/chip/B91/drivers/lib/src/sys.c:139
    1e7a:	4519                	c.li	a0,6
    1e7c:	d04fe0ef          	jal	ra,380 <analog_read_reg8>
    1e80:	fc146793          	ori	a5,s0,-63
    1e84:	fff7c793          	not	a5,a5
    1e88:	8fe9                	c.and	a5,a0
    1e8a:	0ff7f593          	andi	a1,a5,255
    1e8e:	4519                	c.li	a0,6
    1e90:	d40fe0ef          	jal	ra,3d0 <analog_write_reg8>
D:/release_sdk/v2_3_0_2/telink_b91m_driver_src/chip/B91/drivers/lib/src/sys.c:144
    1e94:	04500593          	li	a1,69
    1e98:	4505                	c.li	a0,1
    1e9a:	d36fe0ef          	jal	ra,3d0 <analog_write_reg8>
D:/release_sdk/v2_3_0_2/telink_b91m_driver_src/chip/B91/drivers/lib/src/sys.c:150
    1e9e:	04c00593          	li	a1,76
    1ea2:	4571                	c.li	a0,28
    1ea4:	d2cfe0ef          	jal	ra,3d0 <analog_write_reg8>
    1ea8:	001007b7          	lui	a5,0x100
    1eac:	44478693          	addi	a3,a5,1092 # 100444 <FLASH_SIZE+0x444>
D:\release_sdk\v2_3_0_2\telink_b91m_driver_src\chip\B91\drivers/dma.h:203
    1eb0:	800005b7          	lui	a1,0x80000
D:/release_sdk/v2_3_0_2/telink_b91m_driver_src/chip/B91/drivers/lib/src/sys.c:154
    1eb4:	4e478713          	addi	a4,a5,1252
D:\release_sdk\v2_3_0_2\telink_b91m_driver_src\chip\B91\drivers/dma.h:203
    1eb8:	00b6e633          	or	a2,a3,a1
    1ebc:	00060783          	lb	a5,0(a2)
    1ec0:	06d1                	c.addi	a3,20
    1ec2:	0ff7f793          	andi	a5,a5,255
    1ec6:	00e7e793          	ori	a5,a5,14
    1eca:	00f60023          	sb	a5,0(a2)
D:/release_sdk/v2_3_0_2/telink_b91m_driver_src/chip/B91/drivers/lib/src/sys.c:154
    1ece:	fee695e3          	bne	a3,a4,1eb8 <sys_init+0x90>
    1ed2:	801017b7          	lui	a5,0x80101
    1ed6:	83a78703          	lb	a4,-1990(a5) # 8010083a <_DATA_LMA_START+0x600f9c62>
    1eda:	82078d23          	sb	zero,-1990(a5)
D:/release_sdk/v2_3_0_2/telink_b91m_driver_src/chip/B91/drivers/lib/src/sys.c:160
    1ede:	33d9                	c.jal	1ca4 <pm_update_status_info>
D:/release_sdk/v2_3_0_2/telink_b91m_driver_src/chip/B91/drivers/lib/src/sys.c:165
    1ee0:	08800513          	li	a0,136
    1ee4:	c9cfe0ef          	jal	ra,380 <analog_read_reg8>
    1ee8:	be757c5b          	bbc	a0,7,1ee0 <sys_init+0xb8>
D:/release_sdk/v2_3_0_2/telink_b91m_driver_src/chip/B91/drivers/lib/src/sys.c:170
    1eec:	aa5fe0ef          	jal	ra,990 <pm_wait_bbpll_done>
D:/release_sdk/v2_3_0_2/telink_b91m_driver_src/chip/B91/drivers/lib/src/sys.c:172
    1ef0:	69d0140b          	addigp	s0,3740 # 8169c <g_pm_status_info>
    1ef4:	00244783          	lbu	a5,2(s0)
    1ef8:	0c87d85b          	beqc	a5,8,1fc8 <sys_init+0x1a0>
D:/release_sdk/v2_3_0_2/telink_b91m_driver_src/chip/B91/drivers/lib/src/sys.c:177
    1efc:	80140737          	lui	a4,0x80140
    1f00:	20a70783          	lb	a5,522(a4) # 8014020a <_DATA_LMA_START+0x60139632>
    1f04:	0ff7f793          	andi	a5,a5,255
    1f08:	00c7e793          	ori	a5,a5,12
    1f0c:	20f70523          	sb	a5,522(a4)
D:/release_sdk/v2_3_0_2/telink_b91m_driver_src/chip/B91/drivers/lib/src/sys.c:178
    1f10:	00100793          	li	a5,1
    1f14:	20f72023          	sw	a5,512(a4)
D:/release_sdk/v2_3_0_2/telink_b91m_driver_src/chip/B91/drivers/lib/src/sys.c:184
    1f18:	80140937          	lui	s2,0x80140
    1f1c:	1fd90783          	lb	a5,509(s2) # 801401fd <_DATA_LMA_START+0x60139625>
    1f20:	0ff7f793          	andi	a5,a5,255
    1f24:	6af040ab          	swgp	a5,3744 # 816a0 <g_chip_version>
D:/release_sdk/v2_3_0_2/telink_b91m_driver_src/chip/B91/drivers/lib/src/sys.c:187
    1f28:	00244703          	lbu	a4,2(s0)
    1f2c:	04475c5b          	beqc	a4,4,1f84 <sys_init+0x15c>
D:/release_sdk/v2_3_0_2/telink_b91m_driver_src/chip/B91/drivers/lib/src/sys.c:195
    1f30:	0ff00693          	li	a3,255
    1f34:	04d78063          	beq	a5,a3,1f74 <sys_init+0x14c>
D:/release_sdk/v2_3_0_2/telink_b91m_driver_src/chip/B91/drivers/lib/src/sys.c:203
    1f38:	08000593          	li	a1,128
    1f3c:	07d00513          	li	a0,125
    1f40:	c90fe0ef          	jal	ra,3d0 <analog_write_reg8>
D:/release_sdk/v2_3_0_2/telink_b91m_driver_src/chip/B91/drivers/lib/src/sys.c:213
    1f44:	0234d25b          	beqc	s1,3,1f68 <sys_init+0x140>
efuse_check_protection_code():
D:/release_sdk/v2_3_0_2/telink_b91m_driver_src/chip/B91/drivers/lib/src/sys.c:63
    1f48:	2061                	c.jal	1fd0 <efuse_get_low_word>
    1f4a:	893d                	c.andi	a0,15
D:/release_sdk/v2_3_0_2/telink_b91m_driver_src/chip/B91/drivers/lib/src/sys.c:67
    1f4c:	0035565b          	beqc	a0,3,1f58 <sys_init+0x130>
    1f50:	00900793          	li	a5,9
    1f54:	06a7f463          	bgeu	a5,a0,1fbc <sys_init+0x194>
D:/release_sdk/v2_3_0_2/telink_b91m_driver_src/chip/B91/drivers/lib/src/sys.c:69
    1f58:	801407b7          	lui	a5,0x80140
    1f5c:	02000713          	li	a4,32
    1f60:	1ee787a3          	sb	a4,495(a5) # 801401ef <_DATA_LMA_START+0x60139617>
    1f64:	0000006f          	j	1f64 <sys_init+0x13c>
sys_init():
D:/release_sdk/v2_3_0_2/telink_b91m_driver_src/chip/B91/drivers/lib/src/sys.c:215
    1f68:	04400593          	li	a1,68
    1f6c:	4531                	c.li	a0,12
    1f6e:	c62fe0ef          	jal	ra,3d0 <analog_write_reg8>
    1f72:	bfd9                	c.j	1f48 <sys_init+0x120>
D:/release_sdk/v2_3_0_2/telink_b91m_driver_src/chip/B91/drivers/lib/src/sys.c:197
    1f74:	bc17625b          	bnec	a4,1,1f38 <sys_init+0x110>
D:/release_sdk/v2_3_0_2/telink_b91m_driver_src/chip/B91/drivers/lib/src/sys.c:199
    1f78:	07d00513          	li	a0,125
    1f7c:	08000593          	li	a1,128
    1f80:	0180006f          	j	1f98 <sys_init+0x170>
D:/release_sdk/v2_3_0_2/telink_b91m_driver_src/chip/B91/drivers/lib/src/sys.c:190
    1f84:	03900513          	li	a0,57
    1f88:	bf8fe0ef          	jal	ra,380 <analog_read_reg8>
    1f8c:	00256593          	ori	a1,a0,2
    1f90:	0ff5f593          	andi	a1,a1,255
    1f94:	03900513          	li	a0,57
D:/release_sdk/v2_3_0_2/telink_b91m_driver_src/chip/B91/drivers/lib/src/sys.c:199
    1f98:	c38fe0ef          	jal	ra,3d0 <analog_write_reg8>
D:\release_sdk\v2_3_0_2\telink_b91m_driver_src\chip\B91\drivers/stimer.h:169
    1f9c:	20092503          	lw	a0,512(s2)
D:/release_sdk/v2_3_0_2/telink_b91m_driver_src/chip/B91/drivers/lib/src/sys.c:200
    1fa0:	001877b7          	lui	a5,0x187
    1fa4:	a0078793          	addi	a5,a5,-1536 # 186a00 <FLASH_SIZE+0x86a00>
    1fa8:	953e                	c.add	a0,a5
    1faa:	b7eff0ef          	jal	ra,1328 <pm_sleep_wakeup.constprop.0>
    1fae:	b769                	c.j	1f38 <sys_init+0x110>
D:/release_sdk/v2_3_0_2/telink_b91m_driver_src/chip/B91/drivers/lib/src/sys.c:125
    1fb0:	04000593          	li	a1,64
    1fb4:	4531                	c.li	a0,12
    1fb6:	c1afe0ef          	jal	ra,3d0 <analog_write_reg8>
    1fba:	bd79                	c.j	1e58 <sys_init+0x30>
D:/release_sdk/v2_3_0_2/telink_b91m_driver_src/chip/B91/drivers/lib/src/sys.c:225
    1fbc:	40b2                	c.lwsp	ra,12(sp)
    1fbe:	4422                	c.lwsp	s0,8(sp)
    1fc0:	4492                	c.lwsp	s1,4(sp)
    1fc2:	4902                	c.lwsp	s2,0(sp)
    1fc4:	0141                	c.addi	sp,16
    1fc6:	8082                	c.jr	ra
D:/release_sdk/v2_3_0_2/telink_b91m_driver_src/chip/B91/drivers/lib/src/sys.c:174
    1fc8:	a79fe0ef          	jal	ra,a40 <pm_stimer_recover>
    1fcc:	b7b1                	c.j	1f18 <sys_init+0xf0>
	...

00001fd0 <efuse_get_low_word>:
efuse_get_low_word():
D:/release_sdk/v2_3_0_2/telink_b91m_driver_src/chip/B91/drivers/lib/src/sys.c:273
    1fd0:	801407b7          	lui	a5,0x80140
    1fd4:	06500713          	li	a4,101
    1fd8:	1ee78a23          	sb	a4,500(a5) # 801401f4 <_DATA_LMA_START+0x6013961c>
D:/release_sdk/v2_3_0_2/telink_b91m_driver_src/chip/B91/drivers/lib/src/sys.c:274
    1fdc:	1c87a503          	lw	a0,456(a5)
D:/release_sdk/v2_3_0_2/telink_b91m_driver_src/chip/B91/drivers/lib/src/sys.c:275
    1fe0:	1e078a23          	sb	zero,500(a5)
D:/release_sdk/v2_3_0_2/telink_b91m_driver_src/chip/B91/drivers/lib/src/sys.c:277
    1fe4:	8082                	c.jr	ra
	...

00001fe8 <efuse_get_adc_calib_value>:
efuse_get_adc_calib_value():
D:/release_sdk/v2_3_0_2/telink_b91m_driver_src/chip/B91/drivers/lib/src/sys.c:273
    1fe8:	80140737          	lui	a4,0x80140
    1fec:	06500793          	li	a5,101
    1ff0:	1ef70a23          	sb	a5,500(a4) # 801401f4 <_DATA_LMA_START+0x6013961c>
D:/release_sdk/v2_3_0_2/telink_b91m_driver_src/chip/B91/drivers/lib/src/sys.c:274
    1ff4:	1c872783          	lw	a5,456(a4)
D:/release_sdk/v2_3_0_2/telink_b91m_driver_src/chip/B91/drivers/lib/src/sys.c:275
    1ff8:	1e070a23          	sb	zero,500(a4)
D:/release_sdk/v2_3_0_2/telink_b91m_driver_src/chip/B91/drivers/lib/src/sys.c:328
    1ffc:	4c47a7db          	bfoz	a5,a5,19,4
    2000:	3807a75b          	bfoz	a4,a5,14,0
D:/release_sdk/v2_3_0_2/telink_b91m_driver_src/chip/B91/drivers/lib/src/sys.c:329
    2004:	cf11                	c.beqz	a4,2020 <efuse_get_adc_calib_value+0x38>
D:/release_sdk/v2_3_0_2/telink_b91m_driver_src/chip/B91/drivers/lib/src/sys.c:333
    2006:	1ff7f793          	andi	a5,a5,511
    200a:	3e878793          	addi	a5,a5,1000
D:/release_sdk/v2_3_0_2/telink_b91m_driver_src/chip/B91/drivers/lib/src/sys.c:335
    200e:	8325                	c.srli	a4,0x9
D:/release_sdk/v2_3_0_2/telink_b91m_driver_src/chip/B91/drivers/lib/src/sys.c:333
    2010:	00f51023          	sh	a5,0(a0)
D:/release_sdk/v2_3_0_2/telink_b91m_driver_src/chip/B91/drivers/lib/src/sys.c:335
    2014:	1731                	c.addi	a4,-20
    2016:	00e58023          	sb	a4,0(a1) # 80000000 <_DATA_LMA_START+0x5fff9428>
D:/release_sdk/v2_3_0_2/telink_b91m_driver_src/chip/B91/drivers/lib/src/sys.c:336
    201a:	4505                	c.li	a0,1
    201c:	00008067          	ret
D:/release_sdk/v2_3_0_2/telink_b91m_driver_src/chip/B91/drivers/lib/src/sys.c:340
    2020:	4501                	c.li	a0,0
D:/release_sdk/v2_3_0_2/telink_b91m_driver_src/chip/B91/drivers/lib/src/sys.c:341
    2022:	8082                	c.jr	ra
    2024:	0001                	c.nop
	...

00002028 <default_irq_entry>:
entry_irq55():
/cygdrive/c/Users/SwaminathanK/AndeSight3/workspace/DSP_cfft_q15_benchmark_N/Debug/../boot/cstartup_flash.S:434
.text
	.global default_irq_entry
	.align 2

default_irq_entry:
1:	j 1b
    2028:	a001                	c.j	2028 <default_irq_entry>

0000202a <trap_handler>:
trap_handler():
/cygdrive/c/Users/SwaminathanK/AndeSight3/workspace/DSP_cfft_q15_benchmark_N/Debug/../boot/cstartup_flash.S:439

       .weak trap_handler

 trap_handler:
1:	j 1b
    202a:	a001                	c.j	202a <trap_handler>
    202c:	0001                	c.nop
	...

00002030 <riscv_dsp_cfft_q15>:
riscv_dsp_cfft_q15():
    2030:	ffc58793          	addi	a5,a1,-4
    2034:	4729                	c.li	a4,10
    2036:	00f76b63          	bltu	a4,a5,204c <riscv_dsp_cfft_q15+0x1c>
    203a:	a25f970b          	addigp	a4,-1500 # 80224 <flash_support_mid+0x1bc>
    203e:	0cf707db          	lea.w	a5,a4,a5
    2042:	439c                	c.lw	a5,0(a5)
    2044:	00078067          	jr	a5
    2048:	38c0006f          	j	23d4 <riscv_dsp_cfft_rd4_q15>
    204c:	a011                	c.j	2050 <riscv_dsp_cfft_rd2_q15>
	...

00002050 <riscv_dsp_cfft_rd2_q15>:
riscv_dsp_cfft_rd2_q15():
    2050:	4789                	c.li	a5,2
    2052:	00b797b3          	sll	a5,a5,a1
    2056:	00f50e33          	add	t3,a0,a5
    205a:	000e2603          	lw	a2,0(t3)
    205e:	4114                	c.lw	a3,0(a0)
    2060:	7179                	c.addi16sp	sp,-48
    2062:	7016067f          	srai16	a2,a2,1
    2066:	701686ff          	srai16	a3,a3,1
    206a:	d24a                	c.swsp	s2,36(sp)
    206c:	cc56                	c.swsp	s5,24(sp)
    206e:	ca5a                	c.swsp	s6,20(sp)
    2070:	c85e                	c.swsp	s7,16(sp)
    2072:	00c6877f          	radd16	a4,a3,a2
    2076:	d622                	c.swsp	s0,44(sp)
    2078:	d426                	c.swsp	s1,40(sp)
    207a:	d04e                	c.swsp	s3,32(sp)
    207c:	ce52                	c.swsp	s4,28(sp)
    207e:	c662                	c.swsp	s8,12(sp)
    2080:	c466                	c.swsp	s9,8(sp)
    2082:	02c686ff          	rsub16	a3,a3,a2
    2086:	c118                	c.sw	a4,0(a0)
    2088:	4a85                	c.li	s5,1
    208a:	00450b93          	addi	s7,a0,4
    208e:	00de2023          	sw	a3,0(t3)
    2092:	8b2e                	c.mv	s6,a1
    2094:	892a                	c.mv	s2,a0
    2096:	00ba9ab3          	sll	s5,s5,a1
    209a:	0d7e0d63          	beq	t3,s7,2174 <riscv_dsp_cfft_rd2_q15+0x124>
    209e:	0791                	c.addi	a5,4
    20a0:	4f29                	c.li	t5,10
    20a2:	6ec1                	c.lui	t4,0x10
    20a4:	40bf0f33          	sub	t5,t5,a1
    20a8:	953e                	c.add	a0,a5
    20aa:	85de                	c.mv	a1,s7
    20ac:	4881                	c.li	a7,0
    20ae:	a55f980b          	addigp	a6,-1452 # 80254 <riscv_dsp_cos_table_q15_1024+0x4>
    20b2:	10000313          	li	t1,256
    20b6:	1efd                	c.addi	t4,-1
    20b8:	0500006f          	j	2108 <riscv_dsp_cfft_rd2_q15+0xb8>
    20bc:	00039283          	lh	t0,0(t2)
    20c0:	000f9783          	lh	a5,0(t6)
    20c4:	00052f83          	lw	t6,0(a0)
    20c8:	4190                	c.lw	a2,0(a1)
    20ca:	86be                	c.mv	a3,a5
    20cc:	701f8fff          	srai16	t6,t6,1
    20d0:	7016067f          	srai16	a2,a2,1
    20d4:	43f607ff          	sub16	a5,a2,t6
    20d8:	0e5696ff          	pkbb16	a3,a3,t0
    20dc:	38f692ff          	kmda	t0,a3,a5
    20e0:	78d797ff          	smxds	a5,a5,a3
    20e4:	0102d693          	srli	a3,t0,0x10
    20e8:	3ed7177f          	pktb16	a4,a4,a3
    20ec:	83c1                	c.srli	a5,0x10
    20ee:	01f6067f          	radd16	a2,a2,t6
    20f2:	07c2                	c.slli	a5,0x10
    20f4:	01d77733          	and	a4,a4,t4
    20f8:	c190                	c.sw	a2,0(a1)
    20fa:	8f5d                	c.or	a4,a5
    20fc:	c118                	c.sw	a4,0(a0)
    20fe:	0591                	c.addi	a1,4
    2100:	00450513          	addi	a0,a0,4
    2104:	06be0863          	beq	t3,a1,2174 <riscv_dsp_cfft_rd2_q15+0x124>
    2108:	0885                	c.addi	a7,1
    210a:	01e897b3          	sll	a5,a7,t5
    210e:	f0078693          	addi	a3,a5,-256
    2112:	40f30633          	sub	a2,t1,a5
    2116:	0af803db          	lea.h	t2,a6,a5
    211a:	0ac80fdb          	lea.h	t6,a6,a2
    211e:	40d302b3          	sub	t0,t1,a3
    2122:	f8c04de3          	bgtz	a2,20bc <riscv_dsp_cfft_rd2_q15+0x6c>
    2126:	e0078793          	addi	a5,a5,-512
    212a:	40f30fb3          	sub	t6,t1,a5
    212e:	0af803db          	lea.h	t2,a6,a5
    2132:	0a58065b          	lea.h	a2,a6,t0
    2136:	0ad806db          	lea.h	a3,a6,a3
    213a:	0bf807db          	lea.h	a5,a6,t6
    213e:	00505b63          	blez	t0,2154 <riscv_dsp_cfft_rd2_q15+0x104>
    2142:	00065283          	lhu	t0,0(a2)
    2146:	00069783          	lh	a5,0(a3)
    214a:	405002b3          	neg	t0,t0
    214e:	3c02b2db          	bfos	t0,t0,15,0
    2152:	bf8d                	c.j	20c4 <riscv_dsp_cfft_rd2_q15+0x74>
    2154:	00079283          	lh	t0,0(a5)
    2158:	0003d603          	lhu	a2,0(t2)
    215c:	40c00633          	neg	a2,a2
    2160:	405006b3          	neg	a3,t0
    2164:	3c0637db          	bfos	a5,a2,15,0
    2168:	f5f05ee3          	blez	t6,20c4 <riscv_dsp_cfft_rd2_q15+0x74>
    216c:	82be                	c.mv	t0,a5
    216e:	3c06b7db          	bfos	a5,a3,15,0
    2172:	bf89                	c.j	20c4 <riscv_dsp_cfft_rd2_q15+0x74>
    2174:	ffeb0a13          	addi	s4,s6,-2
    2178:	89d6                	c.mv	s3,s5
    217a:	4e89                	c.li	t4,2
    217c:	0c0a0863          	beqz	s4,224c <riscv_dsp_cfft_rd2_q15+0x1fc>
    2180:	44a9                	c.li	s1,10
    2182:	6341                	c.lui	t1,0x10
    2184:	416484b3          	sub	s1,s1,s6
    2188:	a55f9f8b          	addigp	t6,-1452 # 80254 <riscv_dsp_cos_table_q15_1024+0x4>
    218c:	10000293          	li	t0,256
    2190:	fff30313          	addi	t1,t1,-1 # ffff <BIN_SIZE+0x7d7d>
    2194:	0019d993          	srli	s3,s3,0x1
    2198:	00199413          	slli	s0,s3,0x1
    219c:	0b3903db          	lea.h	t2,s2,s3
    21a0:	020e8463          	beqz	t4,21c8 <riscv_dsp_cfft_rd2_q15+0x178>
    21a4:	00299813          	slli	a6,s3,0x2
    21a8:	861e                	c.mv	a2,t2
    21aa:	86ca                	c.mv	a3,s2
    21ac:	01d005b3          	add	a1,zero,t4
    21b0:	429c                	c.lw	a5,0(a3)
    21b2:	4208                	c.lw	a0,0(a2)
    21b4:	15fd                	c.addi	a1,-1
    21b6:	00a7877f          	radd16	a4,a5,a0
    21ba:	c298                	c.sw	a4,0(a3)
    21bc:	02a787ff          	rsub16	a5,a5,a0
    21c0:	c21c                	c.sw	a5,0(a2)
    21c2:	96c2                	c.add	a3,a6
    21c4:	9642                	c.add	a2,a6
    21c6:	f5ed                	c.bnez	a1,21b0 <riscv_dsp_cfft_rd2_q15+0x160>
    21c8:	00299893          	slli	a7,s3,0x2
    21cc:	8e5e                	c.mv	t3,s7
    21ce:	4f01                	c.li	t5,0
    21d0:	067b8a63          	beq	s7,t2,2244 <riscv_dsp_cfft_rd2_q15+0x1f4>
    21d4:	01df0f33          	add	t5,t5,t4
    21d8:	009f17b3          	sll	a5,t5,s1
    21dc:	40f286b3          	sub	a3,t0,a5
    21e0:	18d05063          	blez	a3,2360 <riscv_dsp_cfft_rd2_q15+0x310>
    21e4:	0adf865b          	lea.h	a2,t6,a3
    21e8:	0aff87db          	lea.h	a5,t6,a5
    21ec:	00079683          	lh	a3,0(a5)
    21f0:	00061603          	lh	a2,0(a2)
    21f4:	008e0533          	add	a0,t3,s0
    21f8:	85f2                	c.mv	a1,t3
    21fa:	8876                	c.mv	a6,t4
    21fc:	040e8063          	beqz	t4,223c <riscv_dsp_cfft_rd2_q15+0x1ec>
    2200:	0ed6167f          	pkbb16	a2,a2,a3
    2204:	4194                	c.lw	a3,0(a1)
    2206:	00052c83          	lw	s9,0(a0)
    220a:	187d                	c.addi	a6,-1
    220c:	439687ff          	sub16	a5,a3,s9
    2210:	38f61c7f          	kmda	s8,a2,a5
    2214:	78c797ff          	smxds	a5,a5,a2
    2218:	010c5c13          	srli	s8,s8,0x10
    221c:	3f87177f          	pktb16	a4,a4,s8
    2220:	83c1                	c.srli	a5,0x10
    2222:	019686ff          	radd16	a3,a3,s9
    2226:	07c2                	c.slli	a5,0x10
    2228:	00677733          	and	a4,a4,t1
    222c:	c194                	c.sw	a3,0(a1)
    222e:	8f5d                	c.or	a4,a5
    2230:	c118                	c.sw	a4,0(a0)
    2232:	95c6                	c.add	a1,a7
    2234:	01150533          	add	a0,a0,a7
    2238:	fc0816e3          	bnez	a6,2204 <riscv_dsp_cfft_rd2_q15+0x1b4>
    223c:	004e0e13          	addi	t3,t3,4
    2240:	f9c39ae3          	bne	t2,t3,21d4 <riscv_dsp_cfft_rd2_q15+0x184>
    2244:	1a7d                	c.addi	s4,-1
    2246:	0e86                	c.slli	t4,0x1
    2248:	f40a16e3          	bnez	s4,2194 <riscv_dsp_cfft_rd2_q15+0x144>
    224c:	4891                	c.li	a7,4
    224e:	016898b3          	sll	a7,a7,s6
    2252:	01190833          	add	a6,s2,a7
    2256:	87ca                	c.mv	a5,s2
    2258:	03090663          	beq	s2,a6,2284 <riscv_dsp_cfft_rd2_q15+0x234>
    225c:	43cc                	c.lw	a1,4(a5)
    225e:	4394                	c.lw	a3,0(a5)
    2260:	4798                	c.lw	a4,8(a5)
    2262:	47d0                	c.lw	a2,12(a5)
    2264:	00b6857f          	radd16	a0,a3,a1
    2268:	02b686ff          	rsub16	a3,a3,a1
    226c:	00c705ff          	radd16	a1,a4,a2
    2270:	02c7077f          	rsub16	a4,a4,a2
    2274:	c388                	c.sw	a0,0(a5)
    2276:	c3d4                	c.sw	a3,4(a5)
    2278:	c78c                	c.sw	a1,8(a5)
    227a:	c7d8                	c.sw	a4,12(a5)
    227c:	01078793          	addi	a5,a5,16
    2280:	fcf81ee3          	bne	a6,a5,225c <riscv_dsp_cfft_rd2_q15+0x20c>
    2284:	001ad813          	srli	a6,s5,0x1
    2288:	0d09075b          	lea.w	a4,s2,a6
    228c:	431c                	c.lw	a5,0(a4)
    228e:	18f9                	c.addi	a7,-2
    2290:	00492683          	lw	a3,4(s2)
    2294:	98ca                	c.add	a7,s2
    2296:	002ada93          	srli	s5,s5,0x2
    229a:	00f92223          	sw	a5,4(s2)
    229e:	01584333          	xor	t1,a6,s5
    22a2:	00890613          	addi	a2,s2,8
    22a6:	fee88513          	addi	a0,a7,-18
    22aa:	87c2                	c.mv	a5,a6
    22ac:	4591                	c.li	a1,4
    22ae:	1b7d                	c.addi	s6,-1
    22b0:	00d72023          	sw	a3,0(a4)
    22b4:	0067c7b3          	xor	a5,a5,t1
    22b8:	00faf733          	and	a4,s5,a5
    22bc:	eb01                	c.bnez	a4,22cc <riscv_dsp_cfft_rd2_q15+0x27c>
    22be:	8756                	c.mv	a4,s5
    22c0:	8305                	c.srli	a4,0x1
    22c2:	8fb9                	c.xor	a5,a4
    22c4:	00f776b3          	and	a3,a4,a5
    22c8:	fe068ce3          	beqz	a3,22c0 <riscv_dsp_cfft_rd2_q15+0x270>
    22cc:	ffe58713          	addi	a4,a1,-2
    22d0:	02f77863          	bgeu	a4,a5,2300 <riscv_dsp_cfft_rd2_q15+0x2b0>
    22d4:	0cf906db          	lea.w	a3,s2,a5
    22d8:	0006ae83          	lw	t4,0(a3)
    22dc:	00062e03          	lw	t3,0(a2)
    22e0:	40f00733          	neg	a4,a5
    22e4:	01d62023          	sw	t4,0(a2)
    22e8:	0ce8875b          	lea.w	a4,a7,a4
    22ec:	01c6a023          	sw	t3,0(a3)
    22f0:	ffe72e03          	lw	t3,-2(a4)
    22f4:	00852683          	lw	a3,8(a0)
    22f8:	01c52423          	sw	t3,8(a0)
    22fc:	fed72f23          	sw	a3,-2(a4)
    2300:	97c2                	c.add	a5,a6
    2302:	0cf907db          	lea.w	a5,s2,a5
    2306:	4394                	c.lw	a3,0(a5)
    2308:	4258                	c.lw	a4,4(a2)
    230a:	c254                	c.sw	a3,4(a2)
    230c:	c398                	c.sw	a4,0(a5)
    230e:	0b05f563          	bgeu	a1,a6,23b8 <riscv_dsp_cfft_rd2_q15+0x368>
    2312:	e76587ff          	bitrev	a5,a1,s6
    2316:	02f5f763          	bgeu	a1,a5,2344 <riscv_dsp_cfft_rd2_q15+0x2f4>
    231a:	0cf906db          	lea.w	a3,s2,a5
    231e:	0006ae83          	lw	t4,0(a3)
    2322:	00862e03          	lw	t3,8(a2)
    2326:	40f00733          	neg	a4,a5
    232a:	01d62423          	sw	t4,8(a2)
    232e:	0ce8875b          	lea.w	a4,a7,a4
    2332:	01c6a023          	sw	t3,0(a3)
    2336:	ffe72e03          	lw	t3,-2(a4)
    233a:	4114                	c.lw	a3,0(a0)
    233c:	01c52023          	sw	t3,0(a0)
    2340:	fed72f23          	sw	a3,-2(a4)
    2344:	97c2                	c.add	a5,a6
    2346:	0cf9075b          	lea.w	a4,s2,a5
    234a:	00072e03          	lw	t3,0(a4)
    234e:	4654                	c.lw	a3,12(a2)
    2350:	01c62623          	sw	t3,12(a2)
    2354:	1541                	c.addi	a0,-16
    2356:	0641                	c.addi	a2,16
    2358:	0591                	c.addi	a1,4
    235a:	c314                	c.sw	a3,0(a4)
    235c:	f59ff06f          	j	22b4 <riscv_dsp_cfft_rd2_q15+0x264>
    2360:	f0078613          	addi	a2,a5,-256
    2364:	40c286b3          	sub	a3,t0,a2
    2368:	02d05063          	blez	a3,2388 <riscv_dsp_cfft_rd2_q15+0x338>
    236c:	0adf86db          	lea.h	a3,t6,a3
    2370:	0006d683          	lhu	a3,0(a3)
    2374:	0acf865b          	lea.h	a2,t6,a2
    2378:	40d006b3          	neg	a3,a3
    237c:	00061603          	lh	a2,0(a2)
    2380:	3c06b6db          	bfos	a3,a3,15,0
    2384:	e71ff06f          	j	21f4 <riscv_dsp_cfft_rd2_q15+0x1a4>
    2388:	e0078793          	addi	a5,a5,-512
    238c:	0aff86db          	lea.h	a3,t6,a5
    2390:	0006d603          	lhu	a2,0(a3)
    2394:	40f287b3          	sub	a5,t0,a5
    2398:	0aff86db          	lea.h	a3,t6,a5
    239c:	40c00633          	neg	a2,a2
    23a0:	00069683          	lh	a3,0(a3)
    23a4:	3c06365b          	bfos	a2,a2,15,0
    23a8:	e4f056e3          	blez	a5,21f4 <riscv_dsp_cfft_rd2_q15+0x1a4>
    23ac:	40d007b3          	neg	a5,a3
    23b0:	86b2                	c.mv	a3,a2
    23b2:	3c07b65b          	bfos	a2,a5,15,0
    23b6:	bd3d                	c.j	21f4 <riscv_dsp_cfft_rd2_q15+0x1a4>
    23b8:	5432                	c.lwsp	s0,44(sp)
    23ba:	54a2                	c.lwsp	s1,40(sp)
    23bc:	5912                	c.lwsp	s2,36(sp)
    23be:	5982                	c.lwsp	s3,32(sp)
    23c0:	4a72                	c.lwsp	s4,28(sp)
    23c2:	4ae2                	c.lwsp	s5,24(sp)
    23c4:	4b52                	c.lwsp	s6,20(sp)
    23c6:	4bc2                	c.lwsp	s7,16(sp)
    23c8:	4c32                	c.lwsp	s8,12(sp)
    23ca:	4ca2                	c.lwsp	s9,8(sp)
    23cc:	4501                	c.li	a0,0
    23ce:	6145                	c.addi16sp	sp,48
    23d0:	8082                	c.jr	ra
    23d2:	0001                	c.nop

000023d4 <riscv_dsp_cfft_rd4_q15>:
riscv_dsp_cfft_rd4_q15():
    23d4:	715d                	c.addi16sp	sp,-80
    23d6:	4785                	c.li	a5,1
    23d8:	d26a                	c.swsp	s10,36(sp)
    23da:	00b79d33          	sll	s10,a5,a1
    23de:	ffed7693          	andi	a3,s10,-2
    23e2:	c4a6                	c.swsp	s1,72(sp)
    23e4:	0ad504db          	lea.h	s1,a0,a3
    23e8:	c6a2                	c.swsp	s0,76(sp)
    23ea:	00d50f33          	add	t5,a0,a3
    23ee:	842a                	c.mv	s0,a0
    23f0:	00d48833          	add	a6,s1,a3
    23f4:	401c                	c.lw	a5,0(s0)
    23f6:	000f2703          	lw	a4,0(t5)
    23fa:	ca2e                	c.swsp	a1,20(sp)
    23fc:	c22a                	c.swsp	a0,4(sp)
    23fe:	00082583          	lw	a1,0(a6)
    2402:	4088                	c.lw	a0,0(s1)
    2404:	7017077f          	srai16	a4,a4,1
    2408:	701787ff          	srai16	a5,a5,1
    240c:	7015057f          	srai16	a0,a0,1
    2410:	701585ff          	srai16	a1,a1,1
    2414:	00a7867f          	radd16	a2,a5,a0
    2418:	00b708ff          	radd16	a7,a4,a1
    241c:	c2ca                	c.swsp	s2,68(sp)
    241e:	c0ce                	c.swsp	s3,64(sp)
    2420:	de52                	c.swsp	s4,60(sp)
    2422:	dc56                	c.swsp	s5,56(sp)
    2424:	da5a                	c.swsp	s6,52(sp)
    2426:	d85e                	c.swsp	s7,48(sp)
    2428:	d662                	c.swsp	s8,44(sp)
    242a:	d466                	c.swsp	s9,40(sp)
    242c:	d06e                	c.swsp	s11,32(sp)
    242e:	0116037f          	radd16	t1,a2,a7
    2432:	00642023          	sw	t1,0(s0)
    2436:	02a787ff          	rsub16	a5,a5,a0
    243a:	02b7077f          	rsub16	a4,a4,a1
    243e:	0316067f          	rsub16	a2,a2,a7
    2442:	00cf2023          	sw	a2,0(t5)
    2446:	06e7867f          	rcrsa16	a2,a5,a4
    244a:	c090                	c.sw	a2,0(s1)
    244c:	04e787ff          	rcras16	a5,a5,a4
    2450:	0411                	c.addi	s0,4
    2452:	ce26                	c.swsp	s1,28(sp)
    2454:	001d5493          	srli	s1,s10,0x1
    2458:	cc6a                	c.swsp	s10,24(sp)
    245a:	c622                	c.swsp	s0,12(sp)
    245c:	00f82023          	sw	a5,0(a6)
    2460:	c426                	c.swsp	s1,8(sp)
    2462:	228f0b63          	beq	t5,s0,2698 <riscv_dsp_cfft_rd4_q15+0x2c4>
    2466:	8622                	c.mv	a2,s0
    2468:	4412                	c.lwsp	s0,4(sp)
    246a:	4799                	c.li	a5,6
    246c:	8822                	c.mv	a6,s0
    246e:	c4f4987f          	maddr32	a6,s1,a5
    2472:	00468893          	addi	a7,a3,4
    2476:	44d2                	c.lwsp	s1,20(sp)
    2478:	0689                	c.addi	a3,2
    247a:	4e29                	c.li	t3,10
    247c:	0ad4055b          	lea.h	a0,s0,a3
    2480:	409e0e33          	sub	t3,t3,s1
    2484:	98a2                	c.add	a7,s0
    2486:	0811                	c.addi	a6,4
    2488:	4e8d                	c.li	t4,3
    248a:	4301                	c.li	t1,0
    248c:	a55f968b          	addigp	a3,-1452 # 80254 <riscv_dsp_cos_table_q15_1024+0x4>
    2490:	10000593          	li	a1,256
    2494:	0b00006f          	j	2544 <riscv_dsp_cfft_rd4_q15+0x170>
    2498:	0a5682db          	lea.h	t0,a3,t0
    249c:	0a9684db          	lea.h	s1,a3,s1
    24a0:	00029403          	lh	s0,0(t0)
    24a4:	00049283          	lh	t0,0(s1)
    24a8:	0e8292ff          	pkbb16	t0,t0,s0
    24ac:	385713ff          	kmda	t2,a4,t0
    24b0:	7857177f          	smxds	a4,a4,t0
    24b4:	01075713          	srli	a4,a4,0x10
    24b8:	0103d293          	srli	t0,t2,0x10
    24bc:	0e57177f          	pkbb16	a4,a4,t0
    24c0:	01c312b3          	sll	t0,t1,t3
    24c4:	00e8a023          	sw	a4,0(a7)
    24c8:	405583b3          	sub	t2,a1,t0
    24cc:	17f7877f          	kcrsa16	a4,a5,t6
    24d0:	15f787ff          	kcras16	a5,a5,t6
    24d4:	10705663          	blez	t2,25e0 <riscv_dsp_cfft_rd4_q15+0x20c>
    24d8:	0a5682db          	lea.h	t0,a3,t0
    24dc:	0a7683db          	lea.h	t2,a3,t2
    24e0:	00029403          	lh	s0,0(t0)
    24e4:	00039f83          	lh	t6,0(t2)
    24e8:	0e8f9fff          	pkbb16	t6,t6,s0
    24ec:	39f712ff          	kmda	t0,a4,t6
    24f0:	79f7177f          	smxds	a4,a4,t6
    24f4:	8341                	c.srli	a4,0x10
    24f6:	0102df93          	srli	t6,t0,0x10
    24fa:	0ff7177f          	pkbb16	a4,a4,t6
    24fe:	01ce9fb3          	sll	t6,t4,t3
    2502:	41f582b3          	sub	t0,a1,t6
    2506:	c118                	c.sw	a4,0(a0)
    2508:	0a505863          	blez	t0,25b8 <riscv_dsp_cfft_rd4_q15+0x1e4>
    250c:	0bf68fdb          	lea.h	t6,a3,t6
    2510:	0a5682db          	lea.h	t0,a3,t0
    2514:	000f9383          	lh	t2,0(t6)
    2518:	00029703          	lh	a4,0(t0)
    251c:	0e77177f          	pkbb16	a4,a4,t2
    2520:	38e79fff          	kmda	t6,a5,a4
    2524:	78e797ff          	smxds	a5,a5,a4
    2528:	83c1                	c.srli	a5,0x10
    252a:	010fd713          	srli	a4,t6,0x10
    252e:	0ee797ff          	pkbb16	a5,a5,a4
    2532:	00f82023          	sw	a5,0(a6)
    2536:	0611                	c.addi	a2,4
    2538:	0891                	c.addi	a7,4
    253a:	0511                	c.addi	a0,4
    253c:	0811                	c.addi	a6,4
    253e:	0e8d                	c.addi	t4,3
    2540:	14cf0c63          	beq	t5,a2,2698 <riscv_dsp_cfft_rd4_q15+0x2c4>
    2544:	0008a403          	lw	s0,0(a7)
    2548:	00052383          	lw	t2,0(a0)
    254c:	00082f83          	lw	t6,0(a6)
    2550:	421c                	c.lw	a5,0(a2)
    2552:	7014047f          	srai16	s0,s0,1
    2556:	701383ff          	srai16	t2,t2,1
    255a:	701787ff          	srai16	a5,a5,1
    255e:	701f8fff          	srai16	t6,t6,1
    2562:	0305                	c.addi	t1,1
    2564:	0077897f          	radd16	s2,a5,t2
    2568:	01f4077f          	radd16	a4,s0,t6
    256c:	00131293          	slli	t0,t1,0x1
    2570:	00e909ff          	radd16	s3,s2,a4
    2574:	01c292b3          	sll	t0,t0,t3
    2578:	405584b3          	sub	s1,a1,t0
    257c:	01362023          	sw	s3,0(a2)
    2580:	027787ff          	rsub16	a5,a5,t2
    2584:	03f40fff          	rsub16	t6,s0,t6
    2588:	12e9077f          	ksub16	a4,s2,a4
    258c:	f09046e3          	bgtz	s1,2498 <riscv_dsp_cfft_rd4_q15+0xc4>
    2590:	f0028393          	addi	t2,t0,-256
    2594:	40758433          	sub	s0,a1,t2
    2598:	06805863          	blez	s0,2608 <riscv_dsp_cfft_rd4_q15+0x234>
    259c:	0a86845b          	lea.h	s0,a3,s0
    25a0:	00045403          	lhu	s0,0(s0)
    25a4:	0a7683db          	lea.h	t2,a3,t2
    25a8:	40800433          	neg	s0,s0
    25ac:	00039283          	lh	t0,0(t2)
    25b0:	3c04345b          	bfos	s0,s0,15,0
    25b4:	ef5ff06f          	j	24a8 <riscv_dsp_cfft_rd4_q15+0xd4>
    25b8:	f00f8713          	addi	a4,t6,-256
    25bc:	40e582b3          	sub	t0,a1,a4
    25c0:	06505c63          	blez	t0,2638 <riscv_dsp_cfft_rd4_q15+0x264>
    25c4:	0a5682db          	lea.h	t0,a3,t0
    25c8:	0002d383          	lhu	t2,0(t0)
    25cc:	0ae6875b          	lea.h	a4,a3,a4
    25d0:	407003b3          	neg	t2,t2
    25d4:	00071703          	lh	a4,0(a4)
    25d8:	3c03b3db          	bfos	t2,t2,15,0
    25dc:	f41ff06f          	j	251c <riscv_dsp_cfft_rd4_q15+0x148>
    25e0:	f0028f93          	addi	t6,t0,-256
    25e4:	41f583b3          	sub	t2,a1,t6
    25e8:	08705063          	blez	t2,2668 <riscv_dsp_cfft_rd4_q15+0x294>
    25ec:	0a7683db          	lea.h	t2,a3,t2
    25f0:	0003d403          	lhu	s0,0(t2)
    25f4:	0bf68fdb          	lea.h	t6,a3,t6
    25f8:	40800433          	neg	s0,s0
    25fc:	000f9f83          	lh	t6,0(t6)
    2600:	3c04345b          	bfos	s0,s0,15,0
    2604:	ee5ff06f          	j	24e8 <riscv_dsp_cfft_rd4_q15+0x114>
    2608:	e0028493          	addi	s1,t0,-512
    260c:	0a9682db          	lea.h	t0,a3,s1
    2610:	0002d283          	lhu	t0,0(t0)
    2614:	409584b3          	sub	s1,a1,s1
    2618:	0a96845b          	lea.h	s0,a3,s1
    261c:	405003b3          	neg	t2,t0
    2620:	00041403          	lh	s0,0(s0)
    2624:	3c03b2db          	bfos	t0,t2,15,0
    2628:	e89050e3          	blez	s1,24a8 <riscv_dsp_cfft_rd4_q15+0xd4>
    262c:	408003b3          	neg	t2,s0
    2630:	8416                	c.mv	s0,t0
    2632:	3c03b2db          	bfos	t0,t2,15,0
    2636:	bd8d                	c.j	24a8 <riscv_dsp_cfft_rd4_q15+0xd4>
    2638:	e00f8f93          	addi	t6,t6,-512
    263c:	0bf6875b          	lea.h	a4,a3,t6
    2640:	00075703          	lhu	a4,0(a4)
    2644:	41f582b3          	sub	t0,a1,t6
    2648:	0a5683db          	lea.h	t2,a3,t0
    264c:	40e00fb3          	neg	t6,a4
    2650:	00039383          	lh	t2,0(t2)
    2654:	3c0fb75b          	bfos	a4,t6,15,0
    2658:	ec5052e3          	blez	t0,251c <riscv_dsp_cfft_rd4_q15+0x148>
    265c:	40700fb3          	neg	t6,t2
    2660:	83ba                	c.mv	t2,a4
    2662:	3c0fb75b          	bfos	a4,t6,15,0
    2666:	bd5d                	c.j	251c <riscv_dsp_cfft_rd4_q15+0x148>
    2668:	e0028293          	addi	t0,t0,-512
    266c:	0a568fdb          	lea.h	t6,a3,t0
    2670:	000fdf83          	lhu	t6,0(t6)
    2674:	405583b3          	sub	t2,a1,t0
    2678:	0a76845b          	lea.h	s0,a3,t2
    267c:	41f002b3          	neg	t0,t6
    2680:	00041403          	lh	s0,0(s0)
    2684:	3c02bfdb          	bfos	t6,t0,15,0
    2688:	e67050e3          	blez	t2,24e8 <riscv_dsp_cfft_rd4_q15+0x114>
    268c:	408002b3          	neg	t0,s0
    2690:	847e                	c.mv	s0,t6
    2692:	3c02bfdb          	bfos	t6,t0,15,0
    2696:	bd89                	c.j	24e8 <riscv_dsp_cfft_rd4_q15+0x114>
    2698:	4452                	c.lwsp	s0,20(sp)
    269a:	4d22                	c.lwsp	s10,8(sp)
    269c:	00145793          	srli	a5,s0,0x1
    26a0:	ffe78493          	addi	s1,a5,-2
    26a4:	c826                	c.swsp	s1,16(sp)
    26a6:	4b11                	c.li	s6,4
    26a8:	1a048863          	beqz	s1,2858 <riscv_dsp_cfft_rd4_q15+0x484>
    26ac:	00a00b93          	li	s7,10
    26b0:	408b8bb3          	sub	s7,s7,s0
    26b4:	a55f998b          	addigp	s3,-1452 # 80254 <riscv_dsp_cos_table_q15_1024+0x4>
    26b8:	10000a93          	li	s5,256
    26bc:	4412                	c.lwsp	s0,4(sp)
    26be:	002d5d13          	srli	s10,s10,0x2
    26c2:	001d1c93          	slli	s9,s10,0x1
    26c6:	0ba40c5b          	lea.h	s8,s0,s10
    26ca:	040b0d63          	beqz	s6,2724 <riscv_dsp_cfft_rd4_q15+0x350>
    26ce:	8622                	c.mv	a2,s0
    26d0:	003d1893          	slli	a7,s10,0x3
    26d4:	019c0833          	add	a6,s8,s9
    26d8:	8562                	c.mv	a0,s8
    26da:	0dac05db          	lea.w	a1,s8,s10
    26de:	835a                	c.mv	t1,s6
    26e0:	4198                	c.lw	a4,0(a1)
    26e2:	4114                	c.lw	a3,0(a0)
    26e4:	421c                	c.lw	a5,0(a2)
    26e6:	00082e83          	lw	t4,0(a6)
    26ea:	00e68e7f          	radd16	t3,a3,a4
    26ee:	02e686ff          	rsub16	a3,a3,a4
    26f2:	01d7877f          	radd16	a4,a5,t4
    26f6:	01c70f7f          	radd16	t5,a4,t3
    26fa:	01e62023          	sw	t5,0(a2)
    26fe:	03d787ff          	rsub16	a5,a5,t4
    2702:	03c7077f          	rsub16	a4,a4,t3
    2706:	c118                	c.sw	a4,0(a0)
    2708:	06d7877f          	rcrsa16	a4,a5,a3
    270c:	00e82023          	sw	a4,0(a6)
    2710:	04d787ff          	rcras16	a5,a5,a3
    2714:	c19c                	c.sw	a5,0(a1)
    2716:	137d                	c.addi	t1,-1
    2718:	9646                	c.add	a2,a7
    271a:	9846                	c.add	a6,a7
    271c:	9546                	c.add	a0,a7
    271e:	95c6                	c.add	a1,a7
    2720:	fc0310e3          	bnez	t1,26e0 <riscv_dsp_cfft_rd4_q15+0x30c>
    2724:	4432                	c.lwsp	s0,12(sp)
    2726:	13840363          	beq	s0,s8,284c <riscv_dsp_cfft_rd4_q15+0x478>
    272a:	8922                	c.mv	s2,s0
    272c:	4419                	c.li	s0,6
    272e:	028d0db3          	mul	s11,s10,s0
    2732:	003d1293          	slli	t0,s10,0x3
    2736:	002d1413          	slli	s0,s10,0x2
    273a:	4a01                	c.li	s4,0
    273c:	00812023          	sw	s0,0(sp)
    2740:	016a0a33          	add	s4,s4,s6
    2744:	017a17b3          	sll	a5,s4,s7
    2748:	40fa8733          	sub	a4,s5,a5
    274c:	28e05e63          	blez	a4,29e8 <riscv_dsp_cfft_rd4_q15+0x614>
    2750:	0af987db          	lea.h	a5,s3,a5
    2754:	0ae9875b          	lea.h	a4,s3,a4
    2758:	00079603          	lh	a2,0(a5)
    275c:	00071683          	lh	a3,0(a4)
    2760:	001a1793          	slli	a5,s4,0x1
    2764:	01779733          	sll	a4,a5,s7
    2768:	40ea85b3          	sub	a1,s5,a4
    276c:	22b05063          	blez	a1,298c <riscv_dsp_cfft_rd4_q15+0x5b8>
    2770:	0ae9875b          	lea.h	a4,s3,a4
    2774:	0ab9855b          	lea.h	a0,s3,a1
    2778:	00071583          	lh	a1,0(a4)
    277c:	00051703          	lh	a4,0(a0)
    2780:	014787b3          	add	a5,a5,s4
    2784:	017797b3          	sll	a5,a5,s7
    2788:	40fa8533          	sub	a0,s5,a5
    278c:	22a05a63          	blez	a0,29c0 <riscv_dsp_cfft_rd4_q15+0x5ec>
    2790:	0af987db          	lea.h	a5,s3,a5
    2794:	0aa9855b          	lea.h	a0,s3,a0
    2798:	00079e03          	lh	t3,0(a5)
    279c:	00051503          	lh	a0,0(a0)
    27a0:	0ec6987f          	pkbb16	a6,a3,a2
    27a4:	0eb718ff          	pkbb16	a7,a4,a1
    27a8:	0fc5137f          	pkbb16	t1,a0,t3
    27ac:	080b0c63          	beqz	s6,2844 <riscv_dsp_cfft_rd4_q15+0x470>
    27b0:	4402                	c.lwsp	s0,0(sp)
    27b2:	012c8fb3          	add	t6,s9,s2
    27b6:	00890f33          	add	t5,s2,s0
    27ba:	01b90eb3          	add	t4,s2,s11
    27be:	8e4a                	c.mv	t3,s2
    27c0:	01600433          	add	s0,zero,s6
    27c4:	000ea683          	lw	a3,0(t4) # 10000 <BIN_SIZE+0x7d7e>
    27c8:	000f2703          	lw	a4,0(t5)
    27cc:	000fa603          	lw	a2,0(t6)
    27d0:	000e2783          	lw	a5,0(t3)
    27d4:	147d                	c.addi	s0,-1
    27d6:	00d604ff          	radd16	s1,a2,a3
    27da:	00e7857f          	radd16	a0,a5,a4
    27de:	02d6067f          	rsub16	a2,a2,a3
    27e2:	02e787ff          	rsub16	a5,a5,a4
    27e6:	129506ff          	ksub16	a3,a0,s1
    27ea:	16c7877f          	kcrsa16	a4,a5,a2
    27ee:	391695ff          	kmda	a1,a3,a7
    27f2:	14c787ff          	kcras16	a5,a5,a2
    27f6:	791696ff          	smxds	a3,a3,a7
    27fa:	3907167f          	kmda	a2,a4,a6
    27fe:	386793ff          	kmda	t2,a5,t1
    2802:	0095057f          	radd16	a0,a0,s1
    2806:	82c1                	c.srli	a3,0x10
    2808:	81c1                	c.srli	a1,0x10
    280a:	7907177f          	smxds	a4,a4,a6
    280e:	00ae2023          	sw	a0,0(t3)
    2812:	0eb696ff          	pkbb16	a3,a3,a1
    2816:	8341                	c.srli	a4,0x10
    2818:	8241                	c.srli	a2,0x10
    281a:	786797ff          	smxds	a5,a5,t1
    281e:	00dfa023          	sw	a3,0(t6)
    2822:	0ec7177f          	pkbb16	a4,a4,a2
    2826:	83c1                	c.srli	a5,0x10
    2828:	0103d393          	srli	t2,t2,0x10
    282c:	00ef2023          	sw	a4,0(t5)
    2830:	0e7797ff          	pkbb16	a5,a5,t2
    2834:	00fea023          	sw	a5,0(t4)
    2838:	9e16                	c.add	t3,t0
    283a:	9f96                	c.add	t6,t0
    283c:	9f16                	c.add	t5,t0
    283e:	9e96                	c.add	t4,t0
    2840:	f80412e3          	bnez	s0,27c4 <riscv_dsp_cfft_rd4_q15+0x3f0>
    2844:	00490913          	addi	s2,s2,4
    2848:	ef2c1ce3          	bne	s8,s2,2740 <riscv_dsp_cfft_rd4_q15+0x36c>
    284c:	4442                	c.lwsp	s0,16(sp)
    284e:	0b0a                	c.slli	s6,0x2
    2850:	147d                	c.addi	s0,-1
    2852:	c822                	c.swsp	s0,16(sp)
    2854:	e60414e3          	bnez	s0,26bc <riscv_dsp_cfft_rd4_q15+0x2e8>
    2858:	4452                	c.lwsp	s0,20(sp)
    285a:	4891                	c.li	a7,4
    285c:	008898b3          	sll	a7,a7,s0
    2860:	4412                	c.lwsp	s0,4(sp)
    2862:	01140833          	add	a6,s0,a7
    2866:	87a2                	c.mv	a5,s0
    2868:	05040263          	beq	s0,a6,28ac <riscv_dsp_cfft_rd4_q15+0x4d8>
    286c:	47d0                	c.lw	a2,12(a5)
    286e:	4788                	c.lw	a0,8(a5)
    2870:	43d4                	c.lw	a3,4(a5)
    2872:	4398                	c.lw	a4,0(a5)
    2874:	01078793          	addi	a5,a5,16
    2878:	00c685ff          	radd16	a1,a3,a2
    287c:	02c686ff          	rsub16	a3,a3,a2
    2880:	00a7067f          	radd16	a2,a4,a0
    2884:	02a7077f          	rsub16	a4,a4,a0
    2888:	00b6057f          	radd16	a0,a2,a1
    288c:	02b6067f          	rsub16	a2,a2,a1
    2890:	06d705ff          	rcrsa16	a1,a4,a3
    2894:	04d7077f          	rcras16	a4,a4,a3
    2898:	fea7a823          	sw	a0,-16(a5)
    289c:	fec7aa23          	sw	a2,-12(a5)
    28a0:	feb7ac23          	sw	a1,-8(a5)
    28a4:	fee7ae23          	sw	a4,-4(a5)
    28a8:	fcf812e3          	bne	a6,a5,286c <riscv_dsp_cfft_rd4_q15+0x498>
    28ac:	44f2                	c.lwsp	s1,28(sp)
    28ae:	4412                	c.lwsp	s0,4(sp)
    28b0:	409c                	c.lw	a5,0(s1)
    28b2:	45e2                	c.lwsp	a1,24(sp)
    28b4:	18f9                	c.addi	a7,-2
    28b6:	4058                	c.lw	a4,4(s0)
    28b8:	98a2                	c.add	a7,s0
    28ba:	c05c                	c.sw	a5,4(s0)
    28bc:	00840613          	addi	a2,s0,8
    28c0:	47a2                	c.lwsp	a5,8(sp)
    28c2:	4452                	c.lwsp	s0,20(sp)
    28c4:	0025d813          	srli	a6,a1,0x2
    28c8:	0107c333          	xor	t1,a5,a6
    28cc:	fee88513          	addi	a0,a7,-18
    28d0:	4591                	c.li	a1,4
    28d2:	fff40e13          	addi	t3,s0,-1
    28d6:	c098                	c.sw	a4,0(s1)
    28d8:	00f347b3          	xor	a5,t1,a5
    28dc:	00f87733          	and	a4,a6,a5
    28e0:	eb01                	c.bnez	a4,28f0 <riscv_dsp_cfft_rd4_q15+0x51c>
    28e2:	8742                	c.mv	a4,a6
    28e4:	8305                	c.srli	a4,0x1
    28e6:	8fb9                	c.xor	a5,a4
    28e8:	00f776b3          	and	a3,a4,a5
    28ec:	fe068ce3          	beqz	a3,28e4 <riscv_dsp_cfft_rd4_q15+0x510>
    28f0:	ffe58713          	addi	a4,a1,-2
    28f4:	02f77863          	bgeu	a4,a5,2924 <riscv_dsp_cfft_rd4_q15+0x550>
    28f8:	4412                	c.lwsp	s0,4(sp)
    28fa:	00062e83          	lw	t4,0(a2)
    28fe:	0cf406db          	lea.w	a3,s0,a5
    2902:	0006af03          	lw	t5,0(a3)
    2906:	40f00733          	neg	a4,a5
    290a:	01e62023          	sw	t5,0(a2)
    290e:	0ce8875b          	lea.w	a4,a7,a4
    2912:	01d6a023          	sw	t4,0(a3)
    2916:	ffe72e83          	lw	t4,-2(a4)
    291a:	4514                	c.lw	a3,8(a0)
    291c:	01d52423          	sw	t4,8(a0)
    2920:	fed72f23          	sw	a3,-2(a4)
    2924:	4422                	c.lwsp	s0,8(sp)
    2926:	4492                	c.lwsp	s1,4(sp)
    2928:	97a2                	c.add	a5,s0
    292a:	0cf487db          	lea.w	a5,s1,a5
    292e:	4394                	c.lw	a3,0(a5)
    2930:	4258                	c.lw	a4,4(a2)
    2932:	c254                	c.sw	a3,4(a2)
    2934:	c398                	c.sw	a4,0(a5)
    2936:	1685f563          	bgeu	a1,s0,2aa0 <riscv_dsp_cfft_rd4_q15+0x6cc>
    293a:	e7c587ff          	bitrev	a5,a1,t3
    293e:	02f5f763          	bgeu	a1,a5,296c <riscv_dsp_cfft_rd4_q15+0x598>
    2942:	0cf486db          	lea.w	a3,s1,a5
    2946:	0006af03          	lw	t5,0(a3)
    294a:	00862e83          	lw	t4,8(a2)
    294e:	40f00733          	neg	a4,a5
    2952:	01e62423          	sw	t5,8(a2)
    2956:	0ce8875b          	lea.w	a4,a7,a4
    295a:	01d6a023          	sw	t4,0(a3)
    295e:	ffe72e83          	lw	t4,-2(a4)
    2962:	4114                	c.lw	a3,0(a0)
    2964:	01d52023          	sw	t4,0(a0)
    2968:	fed72f23          	sw	a3,-2(a4)
    296c:	4422                	c.lwsp	s0,8(sp)
    296e:	4654                	c.lw	a3,12(a2)
    2970:	97a2                	c.add	a5,s0
    2972:	4412                	c.lwsp	s0,4(sp)
    2974:	1541                	c.addi	a0,-16
    2976:	0cf4075b          	lea.w	a4,s0,a5
    297a:	00072e83          	lw	t4,0(a4)
    297e:	0641                	c.addi	a2,16
    2980:	ffd62e23          	sw	t4,-4(a2)
    2984:	0591                	c.addi	a1,4
    2986:	c314                	c.sw	a3,0(a4)
    2988:	f51ff06f          	j	28d8 <riscv_dsp_cfft_rd4_q15+0x504>
    298c:	f0070513          	addi	a0,a4,-256
    2990:	40aa85b3          	sub	a1,s5,a0
    2994:	06b05e63          	blez	a1,2a10 <riscv_dsp_cfft_rd4_q15+0x63c>
    2998:	0ab985db          	lea.h	a1,s3,a1
    299c:	0005d583          	lhu	a1,0(a1)
    29a0:	014787b3          	add	a5,a5,s4
    29a4:	017797b3          	sll	a5,a5,s7
    29a8:	0aa9875b          	lea.h	a4,s3,a0
    29ac:	40b005b3          	neg	a1,a1
    29b0:	40fa8533          	sub	a0,s5,a5
    29b4:	00071703          	lh	a4,0(a4)
    29b8:	3c05b5db          	bfos	a1,a1,15,0
    29bc:	dca04ae3          	bgtz	a0,2790 <riscv_dsp_cfft_rd4_q15+0x3bc>
    29c0:	f0078513          	addi	a0,a5,-256
    29c4:	40aa8833          	sub	a6,s5,a0
    29c8:	07005c63          	blez	a6,2a40 <riscv_dsp_cfft_rd4_q15+0x66c>
    29cc:	0b09885b          	lea.h	a6,s3,a6
    29d0:	00085e03          	lhu	t3,0(a6)
    29d4:	0aa9855b          	lea.h	a0,s3,a0
    29d8:	41c00e33          	neg	t3,t3
    29dc:	00051503          	lh	a0,0(a0)
    29e0:	3c0e3e5b          	bfos	t3,t3,15,0
    29e4:	dbdff06f          	j	27a0 <riscv_dsp_cfft_rd4_q15+0x3cc>
    29e8:	f0078713          	addi	a4,a5,-256
    29ec:	40ea86b3          	sub	a3,s5,a4
    29f0:	08d05063          	blez	a3,2a70 <riscv_dsp_cfft_rd4_q15+0x69c>
    29f4:	0ad986db          	lea.h	a3,s3,a3
    29f8:	0006d603          	lhu	a2,0(a3)
    29fc:	0ae9875b          	lea.h	a4,s3,a4
    2a00:	40c00633          	neg	a2,a2
    2a04:	00071683          	lh	a3,0(a4)
    2a08:	3c06365b          	bfos	a2,a2,15,0
    2a0c:	d55ff06f          	j	2760 <riscv_dsp_cfft_rd4_q15+0x38c>
    2a10:	e0070713          	addi	a4,a4,-512
    2a14:	0ae985db          	lea.h	a1,s3,a4
    2a18:	0005d583          	lhu	a1,0(a1)
    2a1c:	40ea8533          	sub	a0,s5,a4
    2a20:	0aa9885b          	lea.h	a6,s3,a0
    2a24:	40b00733          	neg	a4,a1
    2a28:	3c07375b          	bfos	a4,a4,15,0
    2a2c:	00081583          	lh	a1,0(a6)
    2a30:	d4a058e3          	blez	a0,2780 <riscv_dsp_cfft_rd4_q15+0x3ac>
    2a34:	40b00533          	neg	a0,a1
    2a38:	85ba                	c.mv	a1,a4
    2a3a:	3c05375b          	bfos	a4,a0,15,0
    2a3e:	b389                	c.j	2780 <riscv_dsp_cfft_rd4_q15+0x3ac>
    2a40:	e0078793          	addi	a5,a5,-512
    2a44:	0af9855b          	lea.h	a0,s3,a5
    2a48:	00055503          	lhu	a0,0(a0)
    2a4c:	40fa87b3          	sub	a5,s5,a5
    2a50:	0af9885b          	lea.h	a6,s3,a5
    2a54:	40a00533          	neg	a0,a0
    2a58:	00081e03          	lh	t3,0(a6)
    2a5c:	3c05355b          	bfos	a0,a0,15,0
    2a60:	d4f050e3          	blez	a5,27a0 <riscv_dsp_cfft_rd4_q15+0x3cc>
    2a64:	41c007b3          	neg	a5,t3
    2a68:	8e2a                	c.mv	t3,a0
    2a6a:	3c07b55b          	bfos	a0,a5,15,0
    2a6e:	bb0d                	c.j	27a0 <riscv_dsp_cfft_rd4_q15+0x3cc>
    2a70:	e0078793          	addi	a5,a5,-512
    2a74:	0af9875b          	lea.h	a4,s3,a5
    2a78:	00075683          	lhu	a3,0(a4)
    2a7c:	40fa87b3          	sub	a5,s5,a5
    2a80:	0af9875b          	lea.h	a4,s3,a5
    2a84:	40d006b3          	neg	a3,a3
    2a88:	00071603          	lh	a2,0(a4)
    2a8c:	3c06b6db          	bfos	a3,a3,15,0
    2a90:	ccf058e3          	blez	a5,2760 <riscv_dsp_cfft_rd4_q15+0x38c>
    2a94:	40c007b3          	neg	a5,a2
    2a98:	8636                	c.mv	a2,a3
    2a9a:	3c07b6db          	bfos	a3,a5,15,0
    2a9e:	b1c9                	c.j	2760 <riscv_dsp_cfft_rd4_q15+0x38c>
    2aa0:	4436                	c.lwsp	s0,76(sp)
    2aa2:	44a6                	c.lwsp	s1,72(sp)
    2aa4:	4916                	c.lwsp	s2,68(sp)
    2aa6:	4986                	c.lwsp	s3,64(sp)
    2aa8:	5a72                	c.lwsp	s4,60(sp)
    2aaa:	5ae2                	c.lwsp	s5,56(sp)
    2aac:	5b52                	c.lwsp	s6,52(sp)
    2aae:	5bc2                	c.lwsp	s7,48(sp)
    2ab0:	5c32                	c.lwsp	s8,44(sp)
    2ab2:	5ca2                	c.lwsp	s9,40(sp)
    2ab4:	5d12                	c.lwsp	s10,36(sp)
    2ab6:	5d82                	c.lwsp	s11,32(sp)
    2ab8:	4501                	c.li	a0,0
    2aba:	6161                	c.addi16sp	sp,80
    2abc:	8082                	c.jr	ra
    2abe:	0001                	c.nop

00002ac0 <riscv_dsp_cmag_q15>:
riscv_dsp_cmag_q15():
    2ac0:	7179                	c.addi16sp	sp,-48
    2ac2:	ce4e                	c.swsp	s3,28(sp)
    2ac4:	cc52                	c.swsp	s4,24(sp)
    2ac6:	ca56                	c.swsp	s5,20(sp)
    2ac8:	4785                	c.li	a5,1
    2aca:	d606                	c.swsp	ra,44(sp)
    2acc:	d422                	c.swsp	s0,40(sp)
    2ace:	d226                	c.swsp	s1,36(sp)
    2ad0:	d04a                	c.swsp	s2,32(sp)
    2ad2:	c85a                	c.swsp	s6,16(sp)
    2ad4:	c65e                	c.swsp	s7,12(sp)
    2ad6:	c462                	c.swsp	s8,8(sp)
    2ad8:	89b2                	c.mv	s3,a2
    2ada:	8aaa                	c.mv	s5,a0
    2adc:	8a2e                	c.mv	s4,a1
    2ade:	04c7f963          	bgeu	a5,a2,2b30 <riscv_dsp_cmag_q15+0x70>
    2ae2:	8c32                	c.mv	s8,a2
    2ae4:	8bae                	c.mv	s7,a1
    2ae6:	8b2a                	c.mv	s6,a0
    2ae8:	00100913          	li	s2,1
    2aec:	000b2503          	lw	a0,0(s6)
    2af0:	004b2403          	lw	s0,4(s6)
    2af4:	1c79                	c.addi	s8,-2
    2af6:	38a5157f          	kmda	a0,a0,a0
    2afa:	3884147f          	kmda	s0,s0,s0
    2afe:	8545                	c.srai	a0,0x11
    2b00:	060000ef          	jal	ra,2b60 <riscv_dsp_sqrt_q15>
    2b04:	84aa                	c.mv	s1,a0
    2b06:	41145513          	srai	a0,s0,0x11
    2b0a:	2899                	c.jal	2b60 <riscv_dsp_sqrt_q15>
    2b0c:	0e9517ff          	pkbb16	a5,a0,s1
    2b10:	00fba023          	sw	a5,0(s7)
    2b14:	0b21                	c.addi	s6,8
    2b16:	0b91                	c.addi	s7,4
    2b18:	fd896ae3          	bltu	s2,s8,2aec <riscv_dsp_cmag_q15+0x2c>
    2b1c:	ffe98793          	addi	a5,s3,-2
    2b20:	8385                	c.srli	a5,0x1
    2b22:	0785                	c.addi	a5,1
    2b24:	0efa8adb          	lea.d	s5,s5,a5
    2b28:	0cfa0a5b          	lea.w	s4,s4,a5
    2b2c:	0019f993          	andi	s3,s3,1
    2b30:	00099e63          	bnez	s3,2b4c <riscv_dsp_cmag_q15+0x8c>
    2b34:	50b2                	c.lwsp	ra,44(sp)
    2b36:	5422                	c.lwsp	s0,40(sp)
    2b38:	5492                	c.lwsp	s1,36(sp)
    2b3a:	5902                	c.lwsp	s2,32(sp)
    2b3c:	49f2                	c.lwsp	s3,28(sp)
    2b3e:	4a62                	c.lwsp	s4,24(sp)
    2b40:	4ad2                	c.lwsp	s5,20(sp)
    2b42:	4b42                	c.lwsp	s6,16(sp)
    2b44:	4bb2                	c.lwsp	s7,12(sp)
    2b46:	4c22                	c.lwsp	s8,8(sp)
    2b48:	6145                	c.addi16sp	sp,48
    2b4a:	8082                	c.jr	ra
    2b4c:	000aa503          	lw	a0,0(s5)
    2b50:	38a5157f          	kmda	a0,a0,a0
    2b54:	8545                	c.srai	a0,0x11
    2b56:	2029                	c.jal	2b60 <riscv_dsp_sqrt_q15>
    2b58:	00aa1023          	sh	a0,0(s4)
    2b5c:	bfe1                	c.j	2b34 <riscv_dsp_cmag_q15+0x74>
    2b5e:	0001                	c.nop

00002b60 <riscv_dsp_sqrt_q15>:
riscv_dsp_sqrt_q15():
    2b60:	0aa05063          	blez	a0,2c00 <riscv_dsp_sqrt_q15+0xa0>
    2b64:	af9505ff          	clz32	a1,a0
    2b68:	ff058293          	addi	t0,a1,-16
    2b6c:	ffe2f313          	andi	t1,t0,-2
    2b70:	00651733          	sll	a4,a0,t1
    2b74:	66f9                	c.lui	a3,0x1e
    2b76:	46f7795b          	bbs	a4,15,2be8 <riscv_dsp_sqrt_q15+0x88>
    2b7a:	7ae68793          	addi	a5,a3,1966 # 1e7ae <BIN_SIZE+0x1652c>
    2b7e:	00171393          	slli	t2,a4,0x1
    2b82:	6611                	c.lui	a2,0x4
    2b84:	40778833          	sub	a6,a5,t2
    2b88:	2fa60893          	addi	a7,a2,762 # 42fa <__divdf3+0x556>
    2b8c:	03180e33          	mul	t3,a6,a7
    2b90:	40fe5e93          	srai	t4,t3,0xf
    2b94:	40175693          	srai	a3,a4,0x1
    2b98:	03d683b3          	mul	t2,a3,t4
    2b9c:	67b1                	c.lui	a5,0xc
    2b9e:	00135313          	srli	t1,t1,0x1
    2ba2:	40f3d613          	srai	a2,t2,0xf
    2ba6:	03d60833          	mul	a6,a2,t4
    2baa:	40f85893          	srai	a7,a6,0xf
    2bae:	41178e33          	sub	t3,a5,a7
    2bb2:	03de0eb3          	mul	t4,t3,t4
    2bb6:	40fedf13          	srai	t5,t4,0xf
    2bba:	03e68fb3          	mul	t6,a3,t5
    2bbe:	40ffd593          	srai	a1,t6,0xf
    2bc2:	03e58533          	mul	a0,a1,t5
    2bc6:	40f55293          	srai	t0,a0,0xf
    2bca:	405786b3          	sub	a3,a5,t0
    2bce:	03e683b3          	mul	t2,a3,t5
    2bd2:	40f3d793          	srai	a5,t2,0xf
    2bd6:	02e78733          	mul	a4,a5,a4
    2bda:	40f75613          	srai	a2,a4,0xf
    2bde:	40665333          	sra	t1,a2,t1
    2be2:	3c03355b          	bfos	a0,t1,15,0
    2be6:	8082                	c.jr	ra
    2be8:	7ae68f13          	addi	t5,a3,1966
    2bec:	6f8d                	c.lui	t6,0x3
    2bee:	40ef05b3          	sub	a1,t5,a4
    2bf2:	f5cf8513          	addi	a0,t6,-164 # 2f5c <log+0x350>
    2bf6:	02a582b3          	mul	t0,a1,a0
    2bfa:	40f2de93          	srai	t4,t0,0xf
    2bfe:	bf59                	c.j	2b94 <riscv_dsp_sqrt_q15+0x34>
    2c00:	00a03533          	snez	a0,a0
    2c04:	40a00533          	neg	a0,a0
    2c08:	8082                	c.jr	ra
    2c0a:	0001                	c.nop

00002c0c <log>:
log():
    2c0c:	715d                	c.addi16sp	sp,-80
    2c0e:	87ae                	c.mv	a5,a1
    2c10:	872a                	c.mv	a4,a0
    2c12:	4601                	c.li	a2,0
    2c14:	c01206b7          	lui	a3,0xc0120
    2c18:	000315b7          	lui	a1,0x31
    2c1c:	c0e6167f          	add64	a2,a2,a4
    2c20:	8ff58593          	addi	a1,a1,-1793 # 308ff <BIN_SIZE+0x2867d>
    2c24:	c686                	c.swsp	ra,76(sp)
    2c26:	c4a2                	c.swsp	s0,72(sp)
    2c28:	c2a6                	c.swsp	s1,68(sp)
    2c2a:	c0ca                	c.swsp	s2,64(sp)
    2c2c:	de4e                	c.swsp	s3,60(sp)
    2c2e:	dc52                	c.swsp	s4,56(sp)
    2c30:	da56                	c.swsp	s5,52(sp)
    2c32:	d85a                	c.swsp	s6,48(sp)
    2c34:	d65e                	c.swsp	s7,44(sp)
    2c36:	d462                	c.swsp	s8,40(sp)
    2c38:	d266                	c.swsp	s9,36(sp)
    2c3a:	d06a                	c.swsp	s10,32(sp)
    2c3c:	ce6e                	c.swsp	s11,28(sp)
    2c3e:	18d5fd63          	bgeu	a1,a3,2dd8 <log+0x1cc>
    2c42:	0107d513          	srli	a0,a5,0x10
    2c46:	66a1                	c.lui	a3,0x8
    2c48:	ff050613          	addi	a2,a0,-16
    2c4c:	fdf68693          	addi	a3,a3,-33 # 7fdf <_RAMCODE_VMA_END+0x155b>
    2c50:	883a                	c.mv	a6,a4
    2c52:	88be                	c.mv	a7,a5
    2c54:	36c6ec63          	bltu	a3,a2,2fcc <log+0x3c0>
    2c58:	4a01                	c.li	s4,0
    2c5a:	c01a0ab7          	lui	s5,0xc01a0
    2c5e:	c1481a7f          	add64	s4,a6,s4
    2c62:	4cdaa9db          	bfoz	s3,s5,19,13
    2c66:	08998913          	addi	s2,s3,137
    2c6a:	c79f940b          	addigp	s0,-904 # 80478 <__log_data>
    2c6e:	0912                	c.slli	s2,0x4
    2c70:	fff007b7          	lui	a5,0xfff00
    2c74:	9922                	c.add	s2,s0
    2c76:	0157f5b3          	and	a1,a5,s5
    2c7a:	00092603          	lw	a2,0(s2)
    2c7e:	00492683          	lw	a3,4(s2)
    2c82:	4501                	c.li	a0,0
    2c84:	c2a8157f          	sub64	a0,a6,a0
    2c88:	755010ef          	jal	ra,4bdc <__subdf3>
    2c8c:	00892603          	lw	a2,8(s2)
    2c90:	00c92683          	lw	a3,12(s2)
    2c94:	09a5                	c.addi	s3,9
    2c96:	0992                	c.slli	s3,0x4
    2c98:	745010ef          	jal	ra,4bdc <__subdf3>
    2c9c:	99a2                	c.add	s3,s0
    2c9e:	0009a603          	lw	a2,0(s3)
    2ca2:	0049a683          	lw	a3,4(s3)
    2ca6:	0eb010ef          	jal	ra,4590 <__muldf3>
    2caa:	892a                	c.mv	s2,a0
    2cac:	414ad513          	srai	a0,s5,0x14
    2cb0:	84ae                	c.mv	s1,a1
    2cb2:	267020ef          	jal	ra,5718 <__floatsidf>
    2cb6:	4010                	c.lw	a2,0(s0)
    2cb8:	4054                	c.lw	a3,4(s0)
    2cba:	8dae                	c.mv	s11,a1
    2cbc:	c62a                	c.swsp	a0,12(sp)
    2cbe:	0d3010ef          	jal	ra,4590 <__muldf3>
    2cc2:	0089a603          	lw	a2,8(s3)
    2cc6:	00c9a683          	lw	a3,12(s3)
    2cca:	6f6000ef          	jal	ra,33c0 <__adddf3>
    2cce:	8c2a                	c.mv	s8,a0
    2cd0:	8bae                	c.mv	s7,a1
    2cd2:	862a                	c.mv	a2,a0
    2cd4:	86ae                	c.mv	a3,a1
    2cd6:	854a                	c.mv	a0,s2
    2cd8:	85a6                	c.mv	a1,s1
    2cda:	6e6000ef          	jal	ra,33c0 <__adddf3>
    2cde:	864a                	c.mv	a2,s2
    2ce0:	8b2a                	c.mv	s6,a0
    2ce2:	8aae                	c.mv	s5,a1
    2ce4:	86a6                	c.mv	a3,s1
    2ce6:	854a                	c.mv	a0,s2
    2ce8:	85a6                	c.mv	a1,s1
    2cea:	0a7010ef          	jal	ra,4590 <__muldf3>
    2cee:	5810                	c.lw	a2,48(s0)
    2cf0:	5854                	c.lw	a3,52(s0)
    2cf2:	8a2a                	c.mv	s4,a0
    2cf4:	89ae                	c.mv	s3,a1
    2cf6:	854a                	c.mv	a0,s2
    2cf8:	85a6                	c.mv	a1,s1
    2cfa:	097010ef          	jal	ra,4590 <__muldf3>
    2cfe:	5410                	c.lw	a2,40(s0)
    2d00:	5454                	c.lw	a3,44(s0)
    2d02:	6be000ef          	jal	ra,33c0 <__adddf3>
    2d06:	8652                	c.mv	a2,s4
    2d08:	86ce                	c.mv	a3,s3
    2d0a:	087010ef          	jal	ra,4590 <__muldf3>
    2d0e:	5010                	c.lw	a2,32(s0)
    2d10:	5054                	c.lw	a3,36(s0)
    2d12:	8d2a                	c.mv	s10,a0
    2d14:	8cae                	c.mv	s9,a1
    2d16:	854a                	c.mv	a0,s2
    2d18:	85a6                	c.mv	a1,s1
    2d1a:	077010ef          	jal	ra,4590 <__muldf3>
    2d1e:	4c10                	c.lw	a2,24(s0)
    2d20:	4c54                	c.lw	a3,28(s0)
    2d22:	69e000ef          	jal	ra,33c0 <__adddf3>
    2d26:	862a                	c.mv	a2,a0
    2d28:	86ae                	c.mv	a3,a1
    2d2a:	856a                	c.mv	a0,s10
    2d2c:	85e6                	c.mv	a1,s9
    2d2e:	692000ef          	jal	ra,33c0 <__adddf3>
    2d32:	8652                	c.mv	a2,s4
    2d34:	8d2a                	c.mv	s10,a0
    2d36:	8cae                	c.mv	s9,a1
    2d38:	854a                	c.mv	a0,s2
    2d3a:	86ce                	c.mv	a3,s3
    2d3c:	85a6                	c.mv	a1,s1
    2d3e:	053010ef          	jal	ra,4590 <__muldf3>
    2d42:	862a                	c.mv	a2,a0
    2d44:	86ae                	c.mv	a3,a1
    2d46:	856a                	c.mv	a0,s10
    2d48:	85e6                	c.mv	a1,s9
    2d4a:	047010ef          	jal	ra,4590 <__muldf3>
    2d4e:	47b2                	c.lwsp	a5,12(sp)
    2d50:	4410                	c.lw	a2,8(s0)
    2d52:	4454                	c.lw	a3,12(s0)
    2d54:	8d2a                	c.mv	s10,a0
    2d56:	8cae                	c.mv	s9,a1
    2d58:	853e                	c.mv	a0,a5
    2d5a:	85ee                	c.mv	a1,s11
    2d5c:	035010ef          	jal	ra,4590 <__muldf3>
    2d60:	865a                	c.mv	a2,s6
    2d62:	872a                	c.mv	a4,a0
    2d64:	87ae                	c.mv	a5,a1
    2d66:	8562                	c.mv	a0,s8
    2d68:	86d6                	c.mv	a3,s5
    2d6a:	85de                	c.mv	a1,s7
    2d6c:	8c3a                	c.mv	s8,a4
    2d6e:	8bbe                	c.mv	s7,a5
    2d70:	66d010ef          	jal	ra,4bdc <__subdf3>
    2d74:	864a                	c.mv	a2,s2
    2d76:	86a6                	c.mv	a3,s1
    2d78:	25a1                	c.jal	33c0 <__adddf3>
    2d7a:	862a                	c.mv	a2,a0
    2d7c:	86ae                	c.mv	a3,a1
    2d7e:	8562                	c.mv	a0,s8
    2d80:	85de                	c.mv	a1,s7
    2d82:	2d3d                	c.jal	33c0 <__adddf3>
    2d84:	4810                	c.lw	a2,16(s0)
    2d86:	4854                	c.lw	a3,20(s0)
    2d88:	892a                	c.mv	s2,a0
    2d8a:	84ae                	c.mv	s1,a1
    2d8c:	8552                	c.mv	a0,s4
    2d8e:	85ce                	c.mv	a1,s3
    2d90:	001010ef          	jal	ra,4590 <__muldf3>
    2d94:	862a                	c.mv	a2,a0
    2d96:	86ae                	c.mv	a3,a1
    2d98:	854a                	c.mv	a0,s2
    2d9a:	85a6                	c.mv	a1,s1
    2d9c:	2515                	c.jal	33c0 <__adddf3>
    2d9e:	862a                	c.mv	a2,a0
    2da0:	86ae                	c.mv	a3,a1
    2da2:	856a                	c.mv	a0,s10
    2da4:	85e6                	c.mv	a1,s9
    2da6:	2d29                	c.jal	33c0 <__adddf3>
    2da8:	865a                	c.mv	a2,s6
    2daa:	86d6                	c.mv	a3,s5
    2dac:	2d11                	c.jal	33c0 <__adddf3>
    2dae:	86aa                	c.mv	a3,a0
    2db0:	00b007b3          	add	a5,zero,a1
    2db4:	40b6                	c.lwsp	ra,76(sp)
    2db6:	4426                	c.lwsp	s0,72(sp)
    2db8:	4496                	c.lwsp	s1,68(sp)
    2dba:	4906                	c.lwsp	s2,64(sp)
    2dbc:	59f2                	c.lwsp	s3,60(sp)
    2dbe:	5a62                	c.lwsp	s4,56(sp)
    2dc0:	5ad2                	c.lwsp	s5,52(sp)
    2dc2:	5b42                	c.lwsp	s6,48(sp)
    2dc4:	5bb2                	c.lwsp	s7,44(sp)
    2dc6:	5c22                	c.lwsp	s8,40(sp)
    2dc8:	5c92                	c.lwsp	s9,36(sp)
    2dca:	5d02                	c.lwsp	s10,32(sp)
    2dcc:	4df2                	c.lwsp	s11,28(sp)
    2dce:	8536                	c.mv	a0,a3
    2dd0:	85be                	c.mv	a1,a5
    2dd2:	6161                	c.addi16sp	sp,80
    2dd4:	00008067          	ret
    2dd8:	28050263          	beqz	a0,305c <log+0x450>
    2ddc:	85be                	c.mv	a1,a5
    2dde:	000807b7          	lui	a5,0x80
    2de2:	4607a603          	lw	a2,1120(a5) # 80460 <riscv_dsp_cos_table_q15_1024+0x210>
    2de6:	4647a683          	lw	a3,1124(a5)
    2dea:	853a                	c.mv	a0,a4
    2dec:	5f1010ef          	jal	ra,4bdc <__subdf3>
    2df0:	862a                	c.mv	a2,a0
    2df2:	86ae                	c.mv	a3,a1
    2df4:	84aa                	c.mv	s1,a0
    2df6:	842e                	c.mv	s0,a1
    2df8:	798010ef          	jal	ra,4590 <__muldf3>
    2dfc:	8b2a                	c.mv	s6,a0
    2dfe:	8aae                	c.mv	s5,a1
    2e00:	862a                	c.mv	a2,a0
    2e02:	86ae                	c.mv	a3,a1
    2e04:	8526                	c.mv	a0,s1
    2e06:	85a2                	c.mv	a1,s0
    2e08:	c79f990b          	addigp	s2,-904 # 80478 <__log_data>
    2e0c:	784010ef          	jal	ra,4590 <__muldf3>
    2e10:	07892603          	lw	a2,120(s2)
    2e14:	07c92683          	lw	a3,124(s2)
    2e18:	8a2a                	c.mv	s4,a0
    2e1a:	89ae                	c.mv	s3,a1
    2e1c:	8526                	c.mv	a0,s1
    2e1e:	85a2                	c.mv	a1,s0
    2e20:	770010ef          	jal	ra,4590 <__muldf3>
    2e24:	07092603          	lw	a2,112(s2)
    2e28:	07492683          	lw	a3,116(s2)
    2e2c:	2b51                	c.jal	33c0 <__adddf3>
    2e2e:	08092603          	lw	a2,128(s2)
    2e32:	08492683          	lw	a3,132(s2)
    2e36:	8c2a                	c.mv	s8,a0
    2e38:	8bae                	c.mv	s7,a1
    2e3a:	855a                	c.mv	a0,s6
    2e3c:	85d6                	c.mv	a1,s5
    2e3e:	752010ef          	jal	ra,4590 <__muldf3>
    2e42:	862a                	c.mv	a2,a0
    2e44:	86ae                	c.mv	a3,a1
    2e46:	8562                	c.mv	a0,s8
    2e48:	85de                	c.mv	a1,s7
    2e4a:	2b9d                	c.jal	33c0 <__adddf3>
    2e4c:	08892603          	lw	a2,136(s2)
    2e50:	08c92683          	lw	a3,140(s2)
    2e54:	8c2a                	c.mv	s8,a0
    2e56:	8bae                	c.mv	s7,a1
    2e58:	8552                	c.mv	a0,s4
    2e5a:	85ce                	c.mv	a1,s3
    2e5c:	734010ef          	jal	ra,4590 <__muldf3>
    2e60:	862a                	c.mv	a2,a0
    2e62:	86ae                	c.mv	a3,a1
    2e64:	8562                	c.mv	a0,s8
    2e66:	85de                	c.mv	a1,s7
    2e68:	2ba1                	c.jal	33c0 <__adddf3>
    2e6a:	8652                	c.mv	a2,s4
    2e6c:	86ce                	c.mv	a3,s3
    2e6e:	722010ef          	jal	ra,4590 <__muldf3>
    2e72:	06092603          	lw	a2,96(s2)
    2e76:	06492683          	lw	a3,100(s2)
    2e7a:	8c2a                	c.mv	s8,a0
    2e7c:	8bae                	c.mv	s7,a1
    2e7e:	8526                	c.mv	a0,s1
    2e80:	85a2                	c.mv	a1,s0
    2e82:	70e010ef          	jal	ra,4590 <__muldf3>
    2e86:	05892603          	lw	a2,88(s2)
    2e8a:	05c92683          	lw	a3,92(s2)
    2e8e:	2b0d                	c.jal	33c0 <__adddf3>
    2e90:	06892603          	lw	a2,104(s2)
    2e94:	06c92683          	lw	a3,108(s2)
    2e98:	8d2a                	c.mv	s10,a0
    2e9a:	8cae                	c.mv	s9,a1
    2e9c:	855a                	c.mv	a0,s6
    2e9e:	85d6                	c.mv	a1,s5
    2ea0:	6f0010ef          	jal	ra,4590 <__muldf3>
    2ea4:	862a                	c.mv	a2,a0
    2ea6:	86ae                	c.mv	a3,a1
    2ea8:	856a                	c.mv	a0,s10
    2eaa:	85e6                	c.mv	a1,s9
    2eac:	2b11                	c.jal	33c0 <__adddf3>
    2eae:	862a                	c.mv	a2,a0
    2eb0:	86ae                	c.mv	a3,a1
    2eb2:	8562                	c.mv	a0,s8
    2eb4:	85de                	c.mv	a1,s7
    2eb6:	2329                	c.jal	33c0 <__adddf3>
    2eb8:	8652                	c.mv	a2,s4
    2eba:	86ce                	c.mv	a3,s3
    2ebc:	6d4010ef          	jal	ra,4590 <__muldf3>
    2ec0:	04892603          	lw	a2,72(s2)
    2ec4:	04c92683          	lw	a3,76(s2)
    2ec8:	8c2a                	c.mv	s8,a0
    2eca:	8bae                	c.mv	s7,a1
    2ecc:	8526                	c.mv	a0,s1
    2ece:	85a2                	c.mv	a1,s0
    2ed0:	6c0010ef          	jal	ra,4590 <__muldf3>
    2ed4:	04092603          	lw	a2,64(s2)
    2ed8:	04492683          	lw	a3,68(s2)
    2edc:	21d5                	c.jal	33c0 <__adddf3>
    2ede:	05092603          	lw	a2,80(s2)
    2ee2:	05492683          	lw	a3,84(s2)
    2ee6:	872a                	c.mv	a4,a0
    2ee8:	87ae                	c.mv	a5,a1
    2eea:	855a                	c.mv	a0,s6
    2eec:	85d6                	c.mv	a1,s5
    2eee:	8b3a                	c.mv	s6,a4
    2ef0:	8abe                	c.mv	s5,a5
    2ef2:	69e010ef          	jal	ra,4590 <__muldf3>
    2ef6:	862a                	c.mv	a2,a0
    2ef8:	86ae                	c.mv	a3,a1
    2efa:	855a                	c.mv	a0,s6
    2efc:	85d6                	c.mv	a1,s5
    2efe:	21c9                	c.jal	33c0 <__adddf3>
    2f00:	862a                	c.mv	a2,a0
    2f02:	86ae                	c.mv	a3,a1
    2f04:	8562                	c.mv	a0,s8
    2f06:	85de                	c.mv	a1,s7
    2f08:	2965                	c.jal	33c0 <__adddf3>
    2f0a:	8652                	c.mv	a2,s4
    2f0c:	86ce                	c.mv	a3,s3
    2f0e:	682010ef          	jal	ra,4590 <__muldf3>
    2f12:	000807b7          	lui	a5,0x80
    2f16:	4687a603          	lw	a2,1128(a5) # 80468 <riscv_dsp_cos_table_q15_1024+0x218>
    2f1a:	46c7a683          	lw	a3,1132(a5)
    2f1e:	8caa                	c.mv	s9,a0
    2f20:	8c2e                	c.mv	s8,a1
    2f22:	8526                	c.mv	a0,s1
    2f24:	85a2                	c.mv	a1,s0
    2f26:	66a010ef          	jal	ra,4590 <__muldf3>
    2f2a:	8a2a                	c.mv	s4,a0
    2f2c:	89ae                	c.mv	s3,a1
    2f2e:	862a                	c.mv	a2,a0
    2f30:	86ae                	c.mv	a3,a1
    2f32:	8526                	c.mv	a0,s1
    2f34:	85a2                	c.mv	a1,s0
    2f36:	2169                	c.jal	33c0 <__adddf3>
    2f38:	8652                	c.mv	a2,s4
    2f3a:	86ce                	c.mv	a3,s3
    2f3c:	4a1010ef          	jal	ra,4bdc <__subdf3>
    2f40:	03892d03          	lw	s10,56(s2)
    2f44:	03c92d83          	lw	s11,60(s2)
    2f48:	862a                	c.mv	a2,a0
    2f4a:	86ae                	c.mv	a3,a1
    2f4c:	8a2a                	c.mv	s4,a0
    2f4e:	89ae                	c.mv	s3,a1
    2f50:	640010ef          	jal	ra,4590 <__muldf3>
    2f54:	866a                	c.mv	a2,s10
    2f56:	86ee                	c.mv	a3,s11
    2f58:	638010ef          	jal	ra,4590 <__muldf3>
    2f5c:	8baa                	c.mv	s7,a0
    2f5e:	8b2e                	c.mv	s6,a1
    2f60:	862a                	c.mv	a2,a0
    2f62:	86ae                	c.mv	a3,a1
    2f64:	8526                	c.mv	a0,s1
    2f66:	85a2                	c.mv	a1,s0
    2f68:	29a1                	c.jal	33c0 <__adddf3>
    2f6a:	862a                	c.mv	a2,a0
    2f6c:	86ae                	c.mv	a3,a1
    2f6e:	8aaa                	c.mv	s5,a0
    2f70:	892e                	c.mv	s2,a1
    2f72:	8526                	c.mv	a0,s1
    2f74:	85a2                	c.mv	a1,s0
    2f76:	467010ef          	jal	ra,4bdc <__subdf3>
    2f7a:	865e                	c.mv	a2,s7
    2f7c:	86da                	c.mv	a3,s6
    2f7e:	2189                	c.jal	33c0 <__adddf3>
    2f80:	8652                	c.mv	a2,s4
    2f82:	8baa                	c.mv	s7,a0
    2f84:	8b2e                	c.mv	s6,a1
    2f86:	8526                	c.mv	a0,s1
    2f88:	86ce                	c.mv	a3,s3
    2f8a:	85a2                	c.mv	a1,s0
    2f8c:	451010ef          	jal	ra,4bdc <__subdf3>
    2f90:	866a                	c.mv	a2,s10
    2f92:	86ee                	c.mv	a3,s11
    2f94:	5fc010ef          	jal	ra,4590 <__muldf3>
    2f98:	8652                	c.mv	a2,s4
    2f9a:	872a                	c.mv	a4,a0
    2f9c:	87ae                	c.mv	a5,a1
    2f9e:	8526                	c.mv	a0,s1
    2fa0:	86ce                	c.mv	a3,s3
    2fa2:	85a2                	c.mv	a1,s0
    2fa4:	84ba                	c.mv	s1,a4
    2fa6:	843e                	c.mv	s0,a5
    2fa8:	2921                	c.jal	33c0 <__adddf3>
    2faa:	862a                	c.mv	a2,a0
    2fac:	86ae                	c.mv	a3,a1
    2fae:	8526                	c.mv	a0,s1
    2fb0:	85a2                	c.mv	a1,s0
    2fb2:	5de010ef          	jal	ra,4590 <__muldf3>
    2fb6:	865e                	c.mv	a2,s7
    2fb8:	86da                	c.mv	a3,s6
    2fba:	2119                	c.jal	33c0 <__adddf3>
    2fbc:	8666                	c.mv	a2,s9
    2fbe:	86e2                	c.mv	a3,s8
    2fc0:	2101                	c.jal	33c0 <__adddf3>
    2fc2:	862a                	c.mv	a2,a0
    2fc4:	86ae                	c.mv	a3,a1
    2fc6:	8556                	c.mv	a0,s5
    2fc8:	85ca                	c.mv	a1,s2
    2fca:	b3cd                	c.j	2dac <log+0x1a0>
    2fcc:	dff706ff          	wexti	a3,a4,31
    2fd0:	00171613          	slli	a2,a4,0x1
    2fd4:	8ed1                	c.or	a3,a2
    2fd6:	cea9                	c.beqz	a3,3030 <log+0x424>
    2fd8:	06070c63          	beqz	a4,3050 <log+0x444>
    2fdc:	66a1                	c.lui	a3,0x8
    2fde:	00d57633          	and	a2,a0,a3
    2fe2:	e60d                	c.bnez	a2,300c <log+0x400>
    2fe4:	16c1                	c.addi	a3,-16
    2fe6:	8d75                	c.and	a0,a3
    2fe8:	02d50263          	beq	a0,a3,300c <log+0x400>
    2fec:	85be                	c.mv	a1,a5
    2fee:	000807b7          	lui	a5,0x80
    2ff2:	4707a603          	lw	a2,1136(a5) # 80470 <riscv_dsp_cos_table_q15_1024+0x220>
    2ff6:	4747a683          	lw	a3,1140(a5)
    2ffa:	853a                	c.mv	a0,a4
    2ffc:	594010ef          	jal	ra,4590 <__muldf3>
    3000:	4801                	c.li	a6,0
    3002:	fcc008b7          	lui	a7,0xfcc00
    3006:	c0a8187f          	add64	a6,a6,a0
    300a:	b1b9                	c.j	2c58 <log+0x4c>
    300c:	4426                	c.lwsp	s0,72(sp)
    300e:	40b6                	c.lwsp	ra,76(sp)
    3010:	4496                	c.lwsp	s1,68(sp)
    3012:	4906                	c.lwsp	s2,64(sp)
    3014:	59f2                	c.lwsp	s3,60(sp)
    3016:	5a62                	c.lwsp	s4,56(sp)
    3018:	5ad2                	c.lwsp	s5,52(sp)
    301a:	5b42                	c.lwsp	s6,48(sp)
    301c:	5bb2                	c.lwsp	s7,44(sp)
    301e:	5c22                	c.lwsp	s8,40(sp)
    3020:	5c92                	c.lwsp	s9,36(sp)
    3022:	5d02                	c.lwsp	s10,32(sp)
    3024:	4df2                	c.lwsp	s11,28(sp)
    3026:	853a                	c.mv	a0,a4
    3028:	85be                	c.mv	a1,a5
    302a:	6161                	c.addi16sp	sp,80
    302c:	0840006f          	j	30b0 <__math_invalid>
    3030:	4426                	c.lwsp	s0,72(sp)
    3032:	40b6                	c.lwsp	ra,76(sp)
    3034:	4496                	c.lwsp	s1,68(sp)
    3036:	4906                	c.lwsp	s2,64(sp)
    3038:	59f2                	c.lwsp	s3,60(sp)
    303a:	5a62                	c.lwsp	s4,56(sp)
    303c:	5ad2                	c.lwsp	s5,52(sp)
    303e:	5b42                	c.lwsp	s6,48(sp)
    3040:	5bb2                	c.lwsp	s7,44(sp)
    3042:	5c22                	c.lwsp	s8,40(sp)
    3044:	5c92                	c.lwsp	s9,36(sp)
    3046:	5d02                	c.lwsp	s10,32(sp)
    3048:	4df2                	c.lwsp	s11,28(sp)
    304a:	4505                	c.li	a0,1
    304c:	6161                	c.addi16sp	sp,80
    304e:	a015                	c.j	3072 <__math_divzero>
    3050:	7ff006b7          	lui	a3,0x7ff00
    3054:	f8f694e3          	bne	a3,a5,2fdc <log+0x3d0>
    3058:	86ba                	c.mv	a3,a4
    305a:	bba9                	c.j	2db4 <log+0x1a8>
    305c:	3ff006b7          	lui	a3,0x3ff00
    3060:	d6f69ee3          	bne	a3,a5,2ddc <log+0x1d0>
    3064:	4681                	c.li	a3,0
    3066:	4781                	c.li	a5,0
    3068:	b3b1                	c.j	2db4 <log+0x1a8>
    306a:	0001                	c.nop

0000306c <with_errno>:
with_errno():
    306c:	6ac042ab          	swgp	a2,3748 # 816a4 <__mculib_REENT_errno>
    3070:	8082                	c.jr	ra

00003072 <__math_divzero>:
__math_divzero():
    3072:	363022ef          	jal	t0,5bd4 <__riscv_save_0>
    3076:	1141                	c.addi	sp,-16
    3078:	e50d                	c.bnez	a0,30a2 <__math_divzero+0x30>
    307a:	000807b7          	lui	a5,0x80
    307e:	4607a703          	lw	a4,1120(a5) # 80460 <riscv_dsp_cos_table_q15_1024+0x210>
    3082:	4647a783          	lw	a5,1124(a5)
    3086:	c43a                	c.swsp	a4,8(sp)
    3088:	c63e                	c.swsp	a5,12(sp)
    308a:	4522                	c.lwsp	a0,8(sp)
    308c:	45b2                	c.lwsp	a1,12(sp)
    308e:	4681                	c.li	a3,0
    3090:	4601                	c.li	a2,0
    3092:	513000ef          	jal	ra,3da4 <__divdf3>
    3096:	02200613          	li	a2,34
    309a:	3fc9                	c.jal	306c <with_errno>
    309c:	0141                	c.addi	sp,16
    309e:	35b0206f          	j	5bf8 <__riscv_restore_0>
    30a2:	000817b7          	lui	a5,0x81
    30a6:	5087a703          	lw	a4,1288(a5) # 81508 <__global_pointer$+0xd08>
    30aa:	50c7a783          	lw	a5,1292(a5)
    30ae:	bfe1                	c.j	3086 <__math_divzero+0x14>

000030b0 <__math_invalid>:
__math_invalid():
    30b0:	30b022ef          	jal	t0,5bba <__riscv_save_4>
    30b4:	862a                	c.mv	a2,a0
    30b6:	86ae                	c.mv	a3,a1
    30b8:	89aa                	c.mv	s3,a0
    30ba:	892e                	c.mv	s2,a1
    30bc:	321010ef          	jal	ra,4bdc <__subdf3>
    30c0:	862a                	c.mv	a2,a0
    30c2:	86ae                	c.mv	a3,a1
    30c4:	4e1000ef          	jal	ra,3da4 <__divdf3>
    30c8:	864e                	c.mv	a2,s3
    30ca:	84aa                	c.mv	s1,a0
    30cc:	842e                	c.mv	s0,a1
    30ce:	86ca                	c.mv	a3,s2
    30d0:	854e                	c.mv	a0,s3
    30d2:	85ca                	c.mv	a1,s2
    30d4:	510020ef          	jal	ra,55e4 <__unorddf2>
    30d8:	e901                	c.bnez	a0,30e8 <__math_invalid+0x38>
    30da:	8526                	c.mv	a0,s1
    30dc:	85a2                	c.mv	a1,s0
    30de:	02100613          	li	a2,33
    30e2:	3769                	c.jal	306c <with_errno>
    30e4:	84aa                	c.mv	s1,a0
    30e6:	842e                	c.mv	s0,a1
    30e8:	8526                	c.mv	a0,s1
    30ea:	85a2                	c.mv	a1,s0
    30ec:	3030206f          	j	5bee <__riscv_restore_4>

000030f0 <sinf>:
sinf():
    30f0:	3f4917b7          	lui	a5,0x3f491
    30f4:	fda78793          	addi	a5,a5,-38 # 3f490fda <_DATA_LMA_START+0x1f48a402>
    30f8:	e00505d3          	fmv.x.w	a1,fa0
    30fc:	7805a75b          	bfoz	a4,a1,30,0
    3100:	02e7ee63          	bltu	a5,a4,313c <sinf+0x4c>
    3104:	398007b7          	lui	a5,0x39800
    3108:	10f76063          	bltu	a4,a5,3208 <sinf+0x118>
    310c:	10a577d3          	fmul.s	fa5,fa0,fa0
    3110:	801f978b          	addigp	a5,-2048 # 80000 <cst_libm_sincosf>
    3114:	20a505d3          	fmv.s	fa1,fa0
    3118:	6788                	c.flw	fa0,8(a5)
    311a:	63d4                	c.flw	fa3,4(a5)
    311c:	6398                	c.flw	fa4,0(a5)
    311e:	10a7f553          	fmul.s	fa0,fa5,fa0
    3122:	00d57553          	fadd.s	fa0,fa0,fa3
    3126:	10f57553          	fmul.s	fa0,fa0,fa5
    312a:	00e57553          	fadd.s	fa0,fa0,fa4
    312e:	10f57553          	fmul.s	fa0,fa0,fa5
    3132:	10b57553          	fmul.s	fa0,fa0,fa1
    3136:	00a5f553          	fadd.s	fa0,fa1,fa0
    313a:	8082                	c.jr	ra
    313c:	1101                	c.addi	sp,-32
    313e:	464917b7          	lui	a5,0x46491
    3142:	e4878793          	addi	a5,a5,-440 # 46490e48 <_DATA_LMA_START+0x2648a270>
    3146:	ce06                	c.swsp	ra,28(sp)
    3148:	0ee7e863          	bltu	a5,a4,3238 <sinf+0x148>
    314c:	5290178b          	addigp	a5,3368 # 81528 <cst_libm_rredf>
    3150:	6398                	c.flw	fa4,0(a5)
    3152:	00081737          	lui	a4,0x81
    3156:	51072587          	flw	fa1,1296(a4) # 81510 <__global_pointer$+0xd10>
    315a:	10e577d3          	fmul.s	fa5,fa0,fa4
    315e:	6798                	c.flw	fa4,8(a5)
    3160:	67d0                	c.flw	fa2,12(a5)
    3162:	6b94                	c.flw	fa3,16(a5)
    3164:	6bc8                	c.flw	fa0,20(a5)
    3166:	00b7f7d3          	fadd.s	fa5,fa5,fa1
    316a:	08b7f7d3          	fsub.s	fa5,fa5,fa1
    316e:	f00585d3          	fmv.w.x	fa1,a1
    3172:	10e7f753          	fmul.s	fa4,fa5,fa4
    3176:	10c7f653          	fmul.s	fa2,fa5,fa2
    317a:	10d7f6d3          	fmul.s	fa3,fa5,fa3
    317e:	08e5f753          	fsub.s	fa4,fa1,fa4
    3182:	c0079753          	fcvt.w.s	a4,fa5,rtz
    3186:	08c77753          	fsub.s	fa4,fa4,fa2
    318a:	10a7f7d3          	fmul.s	fa5,fa5,fa0
    318e:	00177793          	andi	a5,a4,1
    3192:	8b09                	c.andi	a4,2
    3194:	08d77753          	fsub.s	fa4,fa4,fa3
    3198:	08f77653          	fsub.s	fa2,fa4,fa5
    319c:	e00605d3          	fmv.x.w	a1,fa2
    31a0:	f0058653          	fmv.w.x	fa2,a1
    31a4:	10c67753          	fmul.s	fa4,fa2,fa2
    31a8:	02078c63          	beqz	a5,31e0 <sinf+0xf0>
    31ac:	801f978b          	addigp	a5,-2048 # 80000 <cst_libm_sincosf>
    31b0:	6f9c                	c.flw	fa5,24(a5)
    31b2:	6bc8                	c.flw	fa0,20(a5)
    31b4:	6b90                	c.flw	fa2,16(a5)
    31b6:	10f777d3          	fmul.s	fa5,fa4,fa5
    31ba:	67d4                	c.flw	fa3,12(a5)
    31bc:	00a7f553          	fadd.s	fa0,fa5,fa0
    31c0:	10e57553          	fmul.s	fa0,fa0,fa4
    31c4:	00c57553          	fadd.s	fa0,fa0,fa2
    31c8:	10e57553          	fmul.s	fa0,fa0,fa4
    31cc:	00d57553          	fadd.s	fa0,fa0,fa3
    31d0:	00070463          	beqz	a4,31d8 <sinf+0xe8>
    31d4:	20a51553          	fneg.s	fa0,fa0
    31d8:	40f2                	c.lwsp	ra,28(sp)
    31da:	6105                	c.addi16sp	sp,32
    31dc:	00008067          	ret
    31e0:	801f978b          	addigp	a5,-2048 # 80000 <cst_libm_sincosf>
    31e4:	679c                	c.flw	fa5,8(a5)
    31e6:	63c8                	c.flw	fa0,4(a5)
    31e8:	6394                	c.flw	fa3,0(a5)
    31ea:	10f777d3          	fmul.s	fa5,fa4,fa5
    31ee:	00a7f553          	fadd.s	fa0,fa5,fa0
    31f2:	10e57553          	fmul.s	fa0,fa0,fa4
    31f6:	00d57553          	fadd.s	fa0,fa0,fa3
    31fa:	f00586d3          	fmv.w.x	fa3,a1
    31fe:	10e57553          	fmul.s	fa0,fa0,fa4
    3202:	10c57553          	fmul.s	fa0,fa0,fa2
    3206:	b7d9                	c.j	31cc <sinf+0xdc>
    3208:	00159693          	slli	a3,a1,0x1
    320c:	ff0007b7          	lui	a5,0xff000
    3210:	02f6e263          	bltu	a3,a5,3234 <sinf+0x144>
    3214:	00f68663          	beq	a3,a5,3220 <sinf+0x130>
    3218:	00a57553          	fadd.s	fa0,fa0,fa0
    321c:	00008067          	ret
    3220:	02100713          	li	a4,33
    3224:	f0000553          	fmv.w.x	fa0,zero
    3228:	18a57553          	fdiv.s	fa0,fa0,fa0
    322c:	6ae042ab          	swgp	a4,3748 # 816a4 <__mculib_REENT_errno>
    3230:	00008067          	ret
    3234:	00008067          	ret
    3238:	0068                	c.addi4spn	a0,sp,12
    323a:	283d                	c.jal	3278 <ref__mathlib_rredf2>
    323c:	4732                	c.lwsp	a4,12(sp)
    323e:	e00505d3          	fmv.x.w	a1,fa0
    3242:	02075763          	bgez	a4,3270 <sinf+0x180>
    3246:	00159693          	slli	a3,a1,0x1
    324a:	ff0007b7          	lui	a5,0xff000
    324e:	f8f6e5e3          	bltu	a3,a5,31d8 <sinf+0xe8>
    3252:	00f68563          	beq	a3,a5,325c <sinf+0x16c>
    3256:	00a57553          	fadd.s	fa0,fa0,fa0
    325a:	bfbd                	c.j	31d8 <sinf+0xe8>
    325c:	f0000553          	fmv.w.x	fa0,zero
    3260:	02100713          	li	a4,33
    3264:	18a57553          	fdiv.s	fa0,fa0,fa0
    3268:	6ae042ab          	swgp	a4,3748 # 816a4 <__mculib_REENT_errno>
    326c:	f6dff06f          	j	31d8 <sinf+0xe8>
    3270:	00177793          	andi	a5,a4,1
    3274:	8b09                	c.andi	a4,2
    3276:	b72d                	c.j	31a0 <sinf+0xb0>

00003278 <ref__mathlib_rredf2>:
ref__mathlib_rredf2():
    3278:	00159713          	slli	a4,a1,0x1
    327c:	ff0007b7          	lui	a5,0xff000
    3280:	12f77c63          	bgeu	a4,a5,33b8 <ref__mathlib_rredf2+0x140>
    3284:	7975a7db          	bfoz	a5,a1,30,23
    3288:	f8878793          	addi	a5,a5,-120 # feffff88 <_DATA_LMA_START+0xdeff93b0>
    328c:	4057d613          	srai	a2,a5,0x5
    3290:	5410168b          	addigp	a3,3392 # 81540 <twooverpi.0>
    3294:	0cc688db          	lea.w	a7,a3,a2
    3298:	0008a303          	lw	t1,0(a7) # fcc00000 <_DATA_LMA_START+0xdcbf9428>
    329c:	0048a703          	lw	a4,4(a7)
    32a0:	0088a803          	lw	a6,8(a7)
    32a4:	00859e13          	slli	t3,a1,0x8
    32a8:	800008b7          	lui	a7,0x80000
    32ac:	8bfd                	c.andi	a5,31
    32ae:	011e6e33          	or	t3,t3,a7
    32b2:	cb8d                	c.beqz	a5,32e4 <ref__mathlib_rredf2+0x6c>
    32b4:	0cc686db          	lea.w	a3,a3,a2
    32b8:	46d0                	c.lw	a2,12(a3)
    32ba:	02000693          	li	a3,32
    32be:	8e9d                	c.sub	a3,a5
    32c0:	00d75eb3          	srl	t4,a4,a3
    32c4:	00d858b3          	srl	a7,a6,a3
    32c8:	00f31333          	sll	t1,t1,a5
    32cc:	00f71733          	sll	a4,a4,a5
    32d0:	00f81833          	sll	a6,a6,a5
    32d4:	00d656b3          	srl	a3,a2,a3
    32d8:	006ee333          	or	t1,t4,t1
    32dc:	00e8e733          	or	a4,a7,a4
    32e0:	0106e833          	or	a6,a3,a6
    32e4:	f0ee167f          	mulr64	a2,t3,a4
    32e8:	f10e187f          	mulr64	a6,t3,a6
    32ec:	f1c3137f          	mulr64	t1,t1,t3
    32f0:	00c88e33          	add	t3,a7,a2
    32f4:	006687b3          	add	a5,a3,t1
    32f8:	011e3733          	sltu	a4,t3,a7
    32fc:	00e787b3          	add	a5,a5,a4
    3300:	0b1e6663          	bltu	t3,a7,33ac <ref__mathlib_rredf2+0x134>
    3304:	00d7b733          	sltu	a4,a5,a3
    3308:	00d79693          	slli	a3,a5,0xd
    330c:	971e                	c.add	a4,t2
    330e:	83cd                	c.srli	a5,0x13
    3310:	d016f553          	fcvt.s.wu	fa0,a3
    3314:	07b6                	c.slli	a5,0xd
    3316:	01a71693          	slli	a3,a4,0x1a
    331a:	8fd5                	c.or	a5,a3
    331c:	d007f6d3          	fcvt.s.w	fa3,a5
    3320:	000817b7          	lui	a5,0x81
    3324:	5147a707          	flw	fa4,1300(a5) # 81514 <__global_pointer$+0xd14>
    3328:	d01e77d3          	fcvt.s.wu	fa5,t3
    332c:	000817b7          	lui	a5,0x81
    3330:	6685                	c.lui	a3,0x1
    3332:	10e57553          	fmul.s	fa0,fa0,fa4
    3336:	5187a707          	flw	fa4,1304(a5) # 81518 <__global_pointer$+0xd18>
    333a:	80068693          	addi	a3,a3,-2048 # 800 <flash_mspi_read_ram+0x54>
    333e:	02070713          	addi	a4,a4,32
    3342:	10e7f7d3          	fmul.s	fa5,fa5,fa4
    3346:	8319                	c.srli	a4,0x6
    3348:	00a6f753          	fadd.s	fa4,fa3,fa0
    334c:	00f775d3          	fadd.s	fa1,fa4,fa5
    3350:	e00587d3          	fmv.x.w	a5,fa1
    3354:	97b6                	c.add	a5,a3
    3356:	76fd                	c.lui	a3,0xfffff
    3358:	00d7f7b3          	and	a5,a5,a3
    335c:	f00785d3          	fmv.w.x	fa1,a5
    3360:	08d5f6d3          	fsub.s	fa3,fa1,fa3
    3364:	000816b7          	lui	a3,0x81
    3368:	000817b7          	lui	a5,0x81
    336c:	5206a607          	flw	fa2,1312(a3) # 81520 <__global_pointer$+0xd20>
    3370:	000816b7          	lui	a3,0x81
    3374:	08a6f553          	fsub.s	fa0,fa3,fa0
    3378:	5246a707          	flw	fa4,1316(a3) # 81524 <__global_pointer$+0xd24>
    337c:	10b67653          	fmul.s	fa2,fa2,fa1
    3380:	10b77753          	fmul.s	fa4,fa4,fa1
    3384:	08a7f7d3          	fsub.s	fa5,fa5,fa0
    3388:	51c7a507          	flw	fa0,1308(a5) # 8151c <__global_pointer$+0xd1c>
    338c:	10a7f553          	fmul.s	fa0,fa5,fa0
    3390:	00c57553          	fadd.s	fa0,fa0,fa2
    3394:	00e57553          	fadd.s	fa0,fa0,fa4
    3398:	0005d863          	bgez	a1,33a8 <ref__mathlib_rredf2+0x130>
    339c:	20a51553          	fneg.s	fa0,fa0
    33a0:	100007b7          	lui	a5,0x10000
    33a4:	40e78733          	sub	a4,a5,a4
    33a8:	c118                	c.sw	a4,0(a0)
    33aa:	8082                	c.jr	ra
    33ac:	00f6b733          	sltu	a4,a3,a5
    33b0:	00174713          	xori	a4,a4,1
    33b4:	f55ff06f          	j	3308 <ref__mathlib_rredf2+0x90>
    33b8:	57fd                	c.li	a5,-1
    33ba:	c11c                	c.sw	a5,0(a0)
    33bc:	8082                	c.jr	ra
    33be:	0001                	c.nop

000033c0 <__adddf3>:
__adddf3():
/cygdrive/d/Jenkins/workspace/build-system-3/source-packages/gcc-7.4.0-riscv-bsp-v5_1_0-branch/libgcc/soft-fp/adddf3.c:43
    33c0:	00202f73          	frrm	t5
/cygdrive/d/Jenkins/workspace/build-system-3/source-packages/gcc-7.4.0-riscv-bsp-v5_1_0-branch/libgcc/soft-fp/adddf3.c:44
    33c4:	001007b7          	lui	a5,0x100
    33c8:	17fd                	c.addi	a5,-1
    33ca:	00f5f833          	and	a6,a1,a5
/cygdrive/d/Jenkins/workspace/build-system-3/source-packages/gcc-7.4.0-riscv-bsp-v5_1_0-branch/libgcc/soft-fp/adddf3.c:45
    33ce:	8ff5                	c.and	a5,a3
/cygdrive/d/Jenkins/workspace/build-system-3/source-packages/gcc-7.4.0-riscv-bsp-v5_1_0-branch/libgcc/soft-fp/adddf3.c:44
    33d0:	01d55713          	srli	a4,a0,0x1d
/cygdrive/d/Jenkins/workspace/build-system-3/source-packages/gcc-7.4.0-riscv-bsp-v5_1_0-branch/libgcc/soft-fp/adddf3.c:45
    33d4:	01d65313          	srli	t1,a2,0x1d
/cygdrive/d/Jenkins/workspace/build-system-3/source-packages/gcc-7.4.0-riscv-bsp-v5_1_0-branch/libgcc/soft-fp/adddf3.c:44
    33d8:	080e                	c.slli	a6,0x3
/cygdrive/d/Jenkins/workspace/build-system-3/source-packages/gcc-7.4.0-riscv-bsp-v5_1_0-branch/libgcc/soft-fp/adddf3.c:45
    33da:	078e                	c.slli	a5,0x3
/cygdrive/d/Jenkins/workspace/build-system-3/source-packages/gcc-7.4.0-riscv-bsp-v5_1_0-branch/libgcc/soft-fp/adddf3.c:44
    33dc:	01f5d293          	srli	t0,a1,0x1f
/cygdrive/d/Jenkins/workspace/build-system-3/source-packages/gcc-7.4.0-riscv-bsp-v5_1_0-branch/libgcc/soft-fp/adddf3.c:45
    33e0:	01f6d893          	srli	a7,a3,0x1f
/cygdrive/d/Jenkins/workspace/build-system-3/source-packages/gcc-7.4.0-riscv-bsp-v5_1_0-branch/libgcc/soft-fp/adddf3.c:44
    33e4:	7945a5db          	bfoz	a1,a1,30,20
/cygdrive/d/Jenkins/workspace/build-system-3/source-packages/gcc-7.4.0-riscv-bsp-v5_1_0-branch/libgcc/soft-fp/adddf3.c:45
    33e8:	7946a6db          	bfoz	a3,a3,30,20
/cygdrive/d/Jenkins/workspace/build-system-3/source-packages/gcc-7.4.0-riscv-bsp-v5_1_0-branch/libgcc/soft-fp/adddf3.c:44
    33ec:	01076fb3          	or	t6,a4,a6
    33f0:	050e                	c.slli	a0,0x3
/cygdrive/d/Jenkins/workspace/build-system-3/source-packages/gcc-7.4.0-riscv-bsp-v5_1_0-branch/libgcc/soft-fp/adddf3.c:45
    33f2:	00f36733          	or	a4,t1,a5
    33f6:	060e                	c.slli	a2,0x3
/cygdrive/d/Jenkins/workspace/build-system-3/source-packages/gcc-7.4.0-riscv-bsp-v5_1_0-branch/libgcc/soft-fp/adddf3.c:46
    33f8:	40d58eb3          	sub	t4,a1,a3
    33fc:	19128063          	beq	t0,a7,357c <__adddf3+0x1bc>
/cygdrive/d/Jenkins/workspace/build-system-3/source-packages/gcc-7.4.0-riscv-bsp-v5_1_0-branch/libgcc/soft-fp/adddf3.c:46 (discriminator 8)
    3400:	13d05863          	blez	t4,3530 <__adddf3+0x170>
/cygdrive/d/Jenkins/workspace/build-system-3/source-packages/gcc-7.4.0-riscv-bsp-v5_1_0-branch/libgcc/soft-fp/adddf3.c:46 (discriminator 185)
    3404:	1c069463          	bnez	a3,35cc <__adddf3+0x20c>
/cygdrive/d/Jenkins/workspace/build-system-3/source-packages/gcc-7.4.0-riscv-bsp-v5_1_0-branch/libgcc/soft-fp/adddf3.c:46 (discriminator 187)
    3408:	00c767b3          	or	a5,a4,a2
    340c:	24078263          	beqz	a5,3650 <__adddf3+0x290>
/cygdrive/d/Jenkins/workspace/build-system-3/source-packages/gcc-7.4.0-riscv-bsp-v5_1_0-branch/libgcc/soft-fp/adddf3.c:46 (discriminator 190)
    3410:	fffe8e13          	addi	t3,t4,-1
    3414:	4a0e1e63          	bnez	t3,38d0 <__adddf3+0x510>
/cygdrive/d/Jenkins/workspace/build-system-3/source-packages/gcc-7.4.0-riscv-bsp-v5_1_0-branch/libgcc/soft-fp/adddf3.c:46 (discriminator 198)
    3418:	40c50333          	sub	t1,a0,a2
    341c:	40ef8733          	sub	a4,t6,a4
    3420:	00653533          	sltu	a0,a0,t1
    3424:	8f09                	c.sub	a4,a0
    3426:	4177745b          	bbs	a4,23,342e <__adddf3+0x6e>
    342a:	5da0006f          	j	3a04 <__adddf3+0x644>
/cygdrive/d/Jenkins/workspace/build-system-3/source-packages/gcc-7.4.0-riscv-bsp-v5_1_0-branch/libgcc/soft-fp/adddf3.c:46
    342e:	4585                	c.li	a1,1
/cygdrive/d/Jenkins/workspace/build-system-3/source-packages/gcc-7.4.0-riscv-bsp-v5_1_0-branch/libgcc/soft-fp/adddf3.c:46 (discriminator 333)
    3430:	58072e5b          	bfoz	t3,a4,22,0
/cygdrive/d/Jenkins/workspace/build-system-3/source-packages/gcc-7.4.0-riscv-bsp-v5_1_0-branch/libgcc/soft-fp/adddf3.c:46 (discriminator 334)
    3434:	af9e07ff          	clz32	a5,t3
    3438:	000e1663          	bnez	t3,3444 <__adddf3+0x84>
/cygdrive/d/Jenkins/workspace/build-system-3/source-packages/gcc-7.4.0-riscv-bsp-v5_1_0-branch/libgcc/soft-fp/adddf3.c:46 (discriminator 341)
    343c:	af9307ff          	clz32	a5,t1
    3440:	02078793          	addi	a5,a5,32 # 100020 <FLASH_SIZE+0x20>
/cygdrive/d/Jenkins/workspace/build-system-3/source-packages/gcc-7.4.0-riscv-bsp-v5_1_0-branch/libgcc/soft-fp/adddf3.c:46 (discriminator 348)
    3444:	ff878693          	addi	a3,a5,-8
    3448:	01f00713          	li	a4,31
    344c:	40d74463          	blt	a4,a3,3854 <__adddf3+0x494>
/cygdrive/d/Jenkins/workspace/build-system-3/source-packages/gcc-7.4.0-riscv-bsp-v5_1_0-branch/libgcc/soft-fp/adddf3.c:46 (discriminator 349)
    3450:	40d00733          	neg	a4,a3
    3454:	00e35733          	srl	a4,t1,a4
    3458:	00de1e33          	sll	t3,t3,a3
    345c:	01c76733          	or	a4,a4,t3
    3460:	00d31333          	sll	t1,t1,a3
/cygdrive/d/Jenkins/workspace/build-system-3/source-packages/gcc-7.4.0-riscv-bsp-v5_1_0-branch/libgcc/soft-fp/adddf3.c:46 (discriminator 358)
    3464:	3cb6ce63          	blt	a3,a1,3840 <__adddf3+0x480>
/cygdrive/d/Jenkins/workspace/build-system-3/source-packages/gcc-7.4.0-riscv-bsp-v5_1_0-branch/libgcc/soft-fp/adddf3.c:46 (discriminator 359)
    3468:	40b685b3          	sub	a1,a3,a1
    346c:	00158793          	addi	a5,a1,1
    3470:	46fd                	c.li	a3,31
    3472:	46f6c563          	blt	a3,a5,38dc <__adddf3+0x51c>
/cygdrive/d/Jenkins/workspace/build-system-3/source-packages/gcc-7.4.0-riscv-bsp-v5_1_0-branch/libgcc/soft-fp/adddf3.c:46 (discriminator 361)
    3476:	02000693          	li	a3,32
    347a:	8e9d                	c.sub	a3,a5
    347c:	00f35633          	srl	a2,t1,a5
    3480:	00d31333          	sll	t1,t1,a3
    3484:	00d716b3          	sll	a3,a4,a3
    3488:	00c6e6b3          	or	a3,a3,a2
    348c:	00603333          	snez	t1,t1
    3490:	0066e333          	or	t1,a3,t1
    3494:	00f75733          	srl	a4,a4,a5
    3498:	00e36833          	or	a6,t1,a4
/cygdrive/d/Jenkins/workspace/build-system-3/source-packages/gcc-7.4.0-riscv-bsp-v5_1_0-branch/libgcc/soft-fp/adddf3.c:47 (discriminator 1)
    349c:	30080c63          	beqz	a6,37b4 <__adddf3+0x3f4>
    34a0:	00737813          	andi	a6,t1,7
/cygdrive/d/Jenkins/workspace/build-system-3/source-packages/gcc-7.4.0-riscv-bsp-v5_1_0-branch/libgcc/soft-fp/adddf3.c:47
    34a4:	00131793          	slli	a5,t1,0x1
    34a8:	01f35e13          	srli	t3,t1,0x1f
    34ac:	0077f693          	andi	a3,a5,7
    34b0:	0aee0e5b          	lea.h	t3,t3,a4
    34b4:	4e81                	c.li	t4,0
    34b6:	ce89                	c.beqz	a3,34d0 <__adddf3+0x110>
/cygdrive/d/Jenkins/workspace/build-system-3/source-packages/gcc-7.4.0-riscv-bsp-v5_1_0-branch/libgcc/soft-fp/adddf3.c:47 (discriminator 13)
    34b8:	002f645b          	bnec	t5,2,34c0 <__adddf3+0x100>
    34bc:	5f80006f          	j	3ab4 <__adddf3+0x6f4>
    34c0:	003f645b          	bnec	t5,3,34c8 <__adddf3+0x108>
    34c4:	6040006f          	j	3ac8 <__adddf3+0x708>
    34c8:	00100e93          	li	t4,1
    34cc:	540f0863          	beqz	t5,3a1c <__adddf3+0x65c>
/cygdrive/d/Jenkins/workspace/build-system-3/source-packages/gcc-7.4.0-riscv-bsp-v5_1_0-branch/libgcc/soft-fp/adddf3.c:47 (discriminator 21)
    34d0:	018e5e13          	srli	t3,t3,0x18
    34d4:	001e4e13          	xori	t3,t3,1
    34d8:	001e7e13          	andi	t3,t3,1
    34dc:	00000793          	li	a5,0
/cygdrive/d/Jenkins/workspace/build-system-3/source-packages/gcc-7.4.0-riscv-bsp-v5_1_0-branch/libgcc/soft-fp/adddf3.c:47 (discriminator 28)
    34e0:	0a080ce3          	beqz	a6,3d98 <__adddf3+0x9d8>
/cygdrive/d/Jenkins/workspace/build-system-3/source-packages/gcc-7.4.0-riscv-bsp-v5_1_0-branch/libgcc/soft-fp/adddf3.c:47 (discriminator 29)
    34e4:	322f5c5b          	beqc	t5,2,381c <__adddf3+0x45c>
    34e8:	343f525b          	beqc	t5,3,382c <__adddf3+0x46c>
    34ec:	2e0f0e63          	beqz	t5,37e8 <__adddf3+0x428>
    34f0:	008006b7          	lui	a3,0x800
    34f4:	00e6f6b3          	and	a3,a3,a4
/cygdrive/d/Jenkins/workspace/build-system-3/source-packages/gcc-7.4.0-riscv-bsp-v5_1_0-branch/libgcc/soft-fp/adddf3.c:47
    34f8:	080e0ce3          	beqz	t3,3d90 <__adddf3+0x9d0>
/cygdrive/d/Jenkins/workspace/build-system-3/source-packages/gcc-7.4.0-riscv-bsp-v5_1_0-branch/libgcc/soft-fp/adddf3.c:47 (discriminator 44)
    34fc:	002e6e13          	ori	t3,t3,2
/cygdrive/d/Jenkins/workspace/build-system-3/source-packages/gcc-7.4.0-riscv-bsp-v5_1_0-branch/libgcc/soft-fp/adddf3.c:47 (discriminator 46)
    3500:	080684e3          	beqz	a3,3d88 <__adddf3+0x9c8>
/cygdrive/d/Jenkins/workspace/build-system-3/source-packages/gcc-7.4.0-riscv-bsp-v5_1_0-branch/libgcc/soft-fp/adddf3.c:47 (discriminator 47)
    3504:	0785                	c.addi	a5,1
    3506:	7ff00693          	li	a3,2047
    350a:	2cd78163          	beq	a5,a3,37cc <__adddf3+0x40c>
/cygdrive/d/Jenkins/workspace/build-system-3/source-packages/gcc-7.4.0-riscv-bsp-v5_1_0-branch/libgcc/soft-fp/adddf3.c:47
    350e:	ff8006b7          	lui	a3,0xff800
    3512:	16fd                	c.addi	a3,-1
    3514:	8f75                	c.and	a4,a3
    3516:	01d71513          	slli	a0,a4,0x1d
    351a:	00335313          	srli	t1,t1,0x3
    351e:	00656333          	or	t1,a0,t1
    3522:	5837275b          	bfoz	a4,a4,22,3
    3526:	7ff7f793          	andi	a5,a5,2047
    352a:	0012f893          	andi	a7,t0,1
    352e:	aaa9                	c.j	3688 <__adddf3+0x2c8>
/cygdrive/d/Jenkins/workspace/build-system-3/source-packages/gcc-7.4.0-riscv-bsp-v5_1_0-branch/libgcc/soft-fp/adddf3.c:46 (discriminator 186)
    3530:	180e9463          	bnez	t4,36b8 <__adddf3+0x2f8>
/cygdrive/d/Jenkins/workspace/build-system-3/source-packages/gcc-7.4.0-riscv-bsp-v5_1_0-branch/libgcc/soft-fp/adddf3.c:46 (discriminator 238)
    3534:	00158793          	addi	a5,a1,1
    3538:	7ff7f793          	andi	a5,a5,2047
    353c:	00100813          	li	a6,1
    3540:	36f85663          	bge	a6,a5,38ac <__adddf3+0x4ec>
/cygdrive/d/Jenkins/workspace/build-system-3/source-packages/gcc-7.4.0-riscv-bsp-v5_1_0-branch/libgcc/soft-fp/adddf3.c:46 (discriminator 290)
    3544:	40c50333          	sub	t1,a0,a2
    3548:	40ef8e33          	sub	t3,t6,a4
    354c:	00653833          	sltu	a6,a0,t1
    3550:	410e0e33          	sub	t3,t3,a6
    3554:	7b7e785b          	bbs	t3,23,3904 <__adddf3+0x544>
/cygdrive/d/Jenkins/workspace/build-system-3/source-packages/gcc-7.4.0-riscv-bsp-v5_1_0-branch/libgcc/soft-fp/adddf3.c:46 (discriminator 331)
    3558:	01c36833          	or	a6,t1,t3
    355c:	ec081ce3          	bnez	a6,3434 <__adddf3+0x74>
/cygdrive/d/Jenkins/workspace/build-system-3/source-packages/gcc-7.4.0-riscv-bsp-v5_1_0-branch/libgcc/soft-fp/adddf3.c:46 (discriminator 332)
    3560:	ffef0893          	addi	a7,t5,-2
    3564:	0018b293          	seqz	t0,a7
    3568:	4301                	c.li	t1,0
    356a:	4e01                	c.li	t3,0
    356c:	4c08275b          	bfoz	a4,a6,19,0
    3570:	7ffef793          	andi	a5,t4,2047
    3574:	0012f893          	andi	a7,t0,1
    3578:	1100006f          	j	3688 <__adddf3+0x2c8>
/cygdrive/d/Jenkins/workspace/build-system-3/source-packages/gcc-7.4.0-riscv-bsp-v5_1_0-branch/libgcc/soft-fp/adddf3.c:46 (discriminator 7)
    357c:	1dd05e63          	blez	t4,3758 <__adddf3+0x398>
/cygdrive/d/Jenkins/workspace/build-system-3/source-packages/gcc-7.4.0-riscv-bsp-v5_1_0-branch/libgcc/soft-fp/adddf3.c:46 (discriminator 9)
    3580:	e6c1                	c.bnez	a3,3608 <__adddf3+0x248>
/cygdrive/d/Jenkins/workspace/build-system-3/source-packages/gcc-7.4.0-riscv-bsp-v5_1_0-branch/libgcc/soft-fp/adddf3.c:46 (discriminator 11)
    3582:	00c767b3          	or	a5,a4,a2
    3586:	c7e9                	c.beqz	a5,3650 <__adddf3+0x290>
/cygdrive/d/Jenkins/workspace/build-system-3/source-packages/gcc-7.4.0-riscv-bsp-v5_1_0-branch/libgcc/soft-fp/adddf3.c:46 (discriminator 14)
    3588:	fffe8793          	addi	a5,t4,-1
    358c:	46079663          	bnez	a5,39f8 <__adddf3+0x638>
/cygdrive/d/Jenkins/workspace/build-system-3/source-packages/gcc-7.4.0-riscv-bsp-v5_1_0-branch/libgcc/soft-fp/adddf3.c:46 (discriminator 23)
    3590:	00c50333          	add	t1,a0,a2
    3594:	977e                	c.add	a4,t6
    3596:	00a33533          	sltu	a0,t1,a0
    359a:	972a                	c.add	a4,a0
    359c:	4789                	c.li	a5,2
/cygdrive/d/Jenkins/workspace/build-system-3/source-packages/gcc-7.4.0-riscv-bsp-v5_1_0-branch/libgcc/soft-fp/adddf3.c:44 (discriminator 23)
    359e:	4585                	c.li	a1,1
/cygdrive/d/Jenkins/workspace/build-system-3/source-packages/gcc-7.4.0-riscv-bsp-v5_1_0-branch/libgcc/soft-fp/adddf3.c:46 (discriminator 23)
    35a0:	1977705b          	bbc	a4,23,3720 <__adddf3+0x360>
/cygdrive/d/Jenkins/workspace/build-system-3/source-packages/gcc-7.4.0-riscv-bsp-v5_1_0-branch/libgcc/soft-fp/adddf3.c:46
    35a4:	ff8006b7          	lui	a3,0xff800
    35a8:	16fd                	c.addi	a3,-1
    35aa:	8f75                	c.and	a4,a3
    35ac:	00135693          	srli	a3,t1,0x1
    35b0:	00137313          	andi	t1,t1,1
    35b4:	0066e333          	or	t1,a3,t1
    35b8:	01f71693          	slli	a3,a4,0x1f
    35bc:	0066e333          	or	t1,a3,t1
    35c0:	8305                	c.srli	a4,0x1
    35c2:	00737813          	andi	a6,t1,7
    35c6:	4e01                	c.li	t3,0
    35c8:	4e81                	c.li	t4,0
    35ca:	bf19                	c.j	34e0 <__adddf3+0x120>
/cygdrive/d/Jenkins/workspace/build-system-3/source-packages/gcc-7.4.0-riscv-bsp-v5_1_0-branch/libgcc/soft-fp/adddf3.c:46 (discriminator 188)
    35cc:	008006b7          	lui	a3,0x800
    35d0:	7ff00793          	li	a5,2047
    35d4:	00d76733          	or	a4,a4,a3
    35d8:	14f58a63          	beq	a1,a5,372c <__adddf3+0x36c>
/cygdrive/d/Jenkins/workspace/build-system-3/source-packages/gcc-7.4.0-riscv-bsp-v5_1_0-branch/libgcc/soft-fp/adddf3.c:46 (discriminator 218)
    35dc:	03800793          	li	a5,56
    35e0:	1bd7cc63          	blt	a5,t4,3798 <__adddf3+0x3d8>
/cygdrive/d/Jenkins/workspace/build-system-3/source-packages/gcc-7.4.0-riscv-bsp-v5_1_0-branch/libgcc/soft-fp/adddf3.c:46 (discriminator 219)
    35e4:	47fd                	c.li	a5,31
    35e6:	37d7df63          	bge	a5,t4,3964 <__adddf3+0x5a4>
/cygdrive/d/Jenkins/workspace/build-system-3/source-packages/gcc-7.4.0-riscv-bsp-v5_1_0-branch/libgcc/soft-fp/adddf3.c:46 (discriminator 222)
    35ea:	01d75333          	srl	t1,a4,t4
    35ee:	000ed7db          	beqc	t4,32,35fc <__adddf3+0x23c>
/cygdrive/d/Jenkins/workspace/build-system-3/source-packages/gcc-7.4.0-riscv-bsp-v5_1_0-branch/libgcc/soft-fp/adddf3.c:46 (discriminator 229)
    35f2:	41d007b3          	neg	a5,t4
    35f6:	00f71733          	sll	a4,a4,a5
    35fa:	8e59                	c.or	a2,a4
/cygdrive/d/Jenkins/workspace/build-system-3/source-packages/gcc-7.4.0-riscv-bsp-v5_1_0-branch/libgcc/soft-fp/adddf3.c:46 (discriminator 232)
    35fc:	00c03633          	snez	a2,a2
    3600:	00666333          	or	t1,a2,t1
    3604:	19c0006f          	j	37a0 <__adddf3+0x3e0>
/cygdrive/d/Jenkins/workspace/build-system-3/source-packages/gcc-7.4.0-riscv-bsp-v5_1_0-branch/libgcc/soft-fp/adddf3.c:46 (discriminator 12)
    3608:	008006b7          	lui	a3,0x800
    360c:	7ff00793          	li	a5,2047
    3610:	00d76733          	or	a4,a4,a3
    3614:	48f58a63          	beq	a1,a5,3aa8 <__adddf3+0x6e8>
/cygdrive/d/Jenkins/workspace/build-system-3/source-packages/gcc-7.4.0-riscv-bsp-v5_1_0-branch/libgcc/soft-fp/adddf3.c:46 (discriminator 45)
    3618:	03800793          	li	a5,56
    361c:	2fd7ce63          	blt	a5,t4,3918 <__adddf3+0x558>
/cygdrive/d/Jenkins/workspace/build-system-3/source-packages/gcc-7.4.0-riscv-bsp-v5_1_0-branch/libgcc/soft-fp/adddf3.c:46 (discriminator 46)
    3620:	47fd                	c.li	a5,31
    3622:	4fd7cb63          	blt	a5,t4,3b18 <__adddf3+0x758>
/cygdrive/d/Jenkins/workspace/build-system-3/source-packages/gcc-7.4.0-riscv-bsp-v5_1_0-branch/libgcc/soft-fp/adddf3.c:46 (discriminator 48)
    3626:	02000793          	li	a5,32
    362a:	41d787b3          	sub	a5,a5,t4
    362e:	00f71333          	sll	t1,a4,a5
    3632:	01d656b3          	srl	a3,a2,t4
    3636:	00f61633          	sll	a2,a2,a5
    363a:	00d36333          	or	t1,t1,a3
    363e:	00c03633          	snez	a2,a2
    3642:	01d75733          	srl	a4,a4,t4
    3646:	00c36333          	or	t1,t1,a2
    364a:	9fba                	c.add	t6,a4
    364c:	2d40006f          	j	3920 <__adddf3+0x560>
/cygdrive/d/Jenkins/workspace/build-system-3/source-packages/gcc-7.4.0-riscv-bsp-v5_1_0-branch/libgcc/soft-fp/adddf3.c:46 (discriminator 189)
    3650:	7ff00793          	li	a5,2047
    3654:	0efe8663          	beq	t4,a5,3740 <__adddf3+0x380>
/cygdrive/d/Jenkins/workspace/build-system-3/source-packages/gcc-7.4.0-riscv-bsp-v5_1_0-branch/libgcc/soft-fp/adddf3.c:37
    3658:	00000e13          	li	t3,0
    365c:	00355513          	srli	a0,a0,0x3
    3660:	01df9313          	slli	t1,t6,0x1d
/cygdrive/d/Jenkins/workspace/build-system-3/source-packages/gcc-7.4.0-riscv-bsp-v5_1_0-branch/libgcc/soft-fp/adddf3.c:47
    3664:	7ff00793          	li	a5,2047
    3668:	00656333          	or	t1,a0,t1
    366c:	003fd813          	srli	a6,t6,0x3
    3670:	eefe9ee3          	bne	t4,a5,356c <__adddf3+0x1ac>
/cygdrive/d/Jenkins/workspace/build-system-3/source-packages/gcc-7.4.0-riscv-bsp-v5_1_0-branch/libgcc/soft-fp/adddf3.c:47 (discriminator 64)
    3674:	00686733          	or	a4,a6,t1
    3678:	3a070063          	beqz	a4,3a18 <__adddf3+0x658>
    367c:	4881                	c.li	a7,0
    367e:	7ff00793          	li	a5,2047
    3682:	00080737          	lui	a4,0x80
/cygdrive/d/Jenkins/workspace/build-system-3/source-packages/gcc-7.4.0-riscv-bsp-v5_1_0-branch/libgcc/soft-fp/adddf3.c:47
    3686:	4301                	c.li	t1,0
/cygdrive/d/Jenkins/workspace/build-system-3/source-packages/gcc-7.4.0-riscv-bsp-v5_1_0-branch/libgcc/soft-fp/adddf3.c:47 (discriminator 74)
    3688:	4581                	c.li	a1,0
    368a:	fff006b7          	lui	a3,0xfff00
    368e:	8eed                	c.and	a3,a1
    3690:	4c07275b          	bfoz	a4,a4,19,0
    3694:	8f55                	c.or	a4,a3
    3696:	01479693          	slli	a3,a5,0x14
    369a:	801007b7          	lui	a5,0x80100
    369e:	17fd                	c.addi	a5,-1
    36a0:	8ff9                	c.and	a5,a4
    36a2:	8fd5                	c.or	a5,a3
    36a4:	08fe                	c.slli	a7,0x1f
    36a6:	7807a7db          	bfoz	a5,a5,30,0
    36aa:	851a                	c.mv	a0,t1
    36ac:	0117e5b3          	or	a1,a5,a7
/cygdrive/d/Jenkins/workspace/build-system-3/source-packages/gcc-7.4.0-riscv-bsp-v5_1_0-branch/libgcc/soft-fp/adddf3.c:48 (discriminator 74)
    36b0:	0e0e1063          	bnez	t3,3790 <__adddf3+0x3d0>
/cygdrive/d/Jenkins/workspace/build-system-3/source-packages/gcc-7.4.0-riscv-bsp-v5_1_0-branch/libgcc/soft-fp/adddf3.c:51
    36b4:	00008067          	ret
/cygdrive/d/Jenkins/workspace/build-system-3/source-packages/gcc-7.4.0-riscv-bsp-v5_1_0-branch/libgcc/soft-fp/adddf3.c:46 (discriminator 237)
    36b8:	2c058c63          	beqz	a1,3990 <__adddf3+0x5d0>
/cygdrive/d/Jenkins/workspace/build-system-3/source-packages/gcc-7.4.0-riscv-bsp-v5_1_0-branch/libgcc/soft-fp/adddf3.c:46 (discriminator 240)
    36bc:	7ff00793          	li	a5,2047
    36c0:	4ef68063          	beq	a3,a5,3ba0 <__adddf3+0x7e0>
/cygdrive/d/Jenkins/workspace/build-system-3/source-packages/gcc-7.4.0-riscv-bsp-v5_1_0-branch/libgcc/soft-fp/adddf3.c:46 (discriminator 262)
    36c4:	008005b7          	lui	a1,0x800
    36c8:	41d007b3          	neg	a5,t4
    36cc:	00bfefb3          	or	t6,t6,a1
/cygdrive/d/Jenkins/workspace/build-system-3/source-packages/gcc-7.4.0-riscv-bsp-v5_1_0-branch/libgcc/soft-fp/adddf3.c:46 (discriminator 270)
    36d0:	03800593          	li	a1,56
    36d4:	50f5c263          	blt	a1,a5,3bd8 <__adddf3+0x818>
/cygdrive/d/Jenkins/workspace/build-system-3/source-packages/gcc-7.4.0-riscv-bsp-v5_1_0-branch/libgcc/soft-fp/adddf3.c:46 (discriminator 271)
    36d8:	45fd                	c.li	a1,31
    36da:	5af5c563          	blt	a1,a5,3c84 <__adddf3+0x8c4>
/cygdrive/d/Jenkins/workspace/build-system-3/source-packages/gcc-7.4.0-riscv-bsp-v5_1_0-branch/libgcc/soft-fp/adddf3.c:46 (discriminator 273)
    36de:	02000593          	li	a1,32
    36e2:	8d9d                	c.sub	a1,a5
    36e4:	00bf9333          	sll	t1,t6,a1
    36e8:	00f55833          	srl	a6,a0,a5
    36ec:	00b515b3          	sll	a1,a0,a1
    36f0:	01036333          	or	t1,t1,a6
    36f4:	00b035b3          	snez	a1,a1
    36f8:	00ffd7b3          	srl	a5,t6,a5
    36fc:	00b36333          	or	t1,t1,a1
    3700:	40f70733          	sub	a4,a4,a5
/cygdrive/d/Jenkins/workspace/build-system-3/source-packages/gcc-7.4.0-riscv-bsp-v5_1_0-branch/libgcc/soft-fp/adddf3.c:46 (discriminator 287)
    3704:	40660333          	sub	t1,a2,t1
    3708:	00663633          	sltu	a2,a2,t1
    370c:	8f11                	c.sub	a4,a2
/cygdrive/d/Jenkins/workspace/build-system-3/source-packages/gcc-7.4.0-riscv-bsp-v5_1_0-branch/libgcc/soft-fp/adddf3.c:45 (discriminator 287)
    370e:	85b6                	c.mv	a1,a3
    3710:	011002b3          	add	t0,zero,a7
/cygdrive/d/Jenkins/workspace/build-system-3/source-packages/gcc-7.4.0-riscv-bsp-v5_1_0-branch/libgcc/soft-fp/adddf3.c:46 (discriminator 287)
    3714:	d1777e5b          	bbs	a4,23,3430 <__adddf3+0x70>
    3718:	00e36833          	or	a6,t1,a4
/cygdrive/d/Jenkins/workspace/build-system-3/source-packages/gcc-7.4.0-riscv-bsp-v5_1_0-branch/libgcc/soft-fp/adddf3.c:47
    371c:	d80580e3          	beqz	a1,349c <__adddf3+0xdc>
    3720:	00737813          	andi	a6,t1,7
    3724:	87ae                	c.mv	a5,a1
    3726:	4e01                	c.li	t3,0
    3728:	4e81                	c.li	t4,0
    372a:	bb5d                	c.j	34e0 <__adddf3+0x120>
/cygdrive/d/Jenkins/workspace/build-system-3/source-packages/gcc-7.4.0-riscv-bsp-v5_1_0-branch/libgcc/soft-fp/adddf3.c:46 (discriminator 211)
    372c:	00afe7b3          	or	a5,t6,a0
    3730:	28078063          	beqz	a5,39b0 <__adddf3+0x5f0>
/cygdrive/d/Jenkins/workspace/build-system-3/source-packages/gcc-7.4.0-riscv-bsp-v5_1_0-branch/libgcc/soft-fp/adddf3.c:46 (discriminator 213)
    3734:	7ff00e93          	li	t4,2047
    3738:	f36ff05b          	bbs	t6,22,3658 <__adddf3+0x298>
/cygdrive/d/Jenkins/workspace/build-system-3/source-packages/gcc-7.4.0-riscv-bsp-v5_1_0-branch/libgcc/soft-fp/adddf3.c:46
    373c:	4e41                	c.li	t3,16
    373e:	bf39                	c.j	365c <__adddf3+0x29c>
/cygdrive/d/Jenkins/workspace/build-system-3/source-packages/gcc-7.4.0-riscv-bsp-v5_1_0-branch/libgcc/soft-fp/adddf3.c:46 (discriminator 191)
    3740:	00afe7b3          	or	a5,t6,a0
    3744:	2a078663          	beqz	a5,39f0 <__adddf3+0x630>
/cygdrive/d/Jenkins/workspace/build-system-3/source-packages/gcc-7.4.0-riscv-bsp-v5_1_0-branch/libgcc/soft-fp/adddf3.c:46 (discriminator 204)
    3748:	00400e37          	lui	t3,0x400
    374c:	01cffe33          	and	t3,t6,t3
    3750:	001e3e13          	seqz	t3,t3
    3754:	0e12                	c.slli	t3,0x4
    3756:	b719                	c.j	365c <__adddf3+0x29c>
/cygdrive/d/Jenkins/workspace/build-system-3/source-packages/gcc-7.4.0-riscv-bsp-v5_1_0-branch/libgcc/soft-fp/adddf3.c:46 (discriminator 10)
    3758:	320e9063          	bnez	t4,3a78 <__adddf3+0x6b8>
/cygdrive/d/Jenkins/workspace/build-system-3/source-packages/gcc-7.4.0-riscv-bsp-v5_1_0-branch/libgcc/soft-fp/adddf3.c:46 (discriminator 65)
    375c:	00158793          	addi	a5,a1,1 # 800001 <FLASH_SIZE+0x700001>
    3760:	7ff7f313          	andi	t1,a5,2047
    3764:	4805                	c.li	a6,1
    3766:	36685b63          	bge	a6,t1,3adc <__adddf3+0x71c>
/cygdrive/d/Jenkins/workspace/build-system-3/source-packages/gcc-7.4.0-riscv-bsp-v5_1_0-branch/libgcc/soft-fp/adddf3.c:46 (discriminator 120)
    376a:	7ff00693          	li	a3,2047
    376e:	2cd78563          	beq	a5,a3,3a38 <__adddf3+0x678>
/cygdrive/d/Jenkins/workspace/build-system-3/source-packages/gcc-7.4.0-riscv-bsp-v5_1_0-branch/libgcc/soft-fp/adddf3.c:46
    3772:	962a                	c.add	a2,a0
    3774:	00a63533          	sltu	a0,a2,a0
    3778:	977e                	c.add	a4,t6
    377a:	972a                	c.add	a4,a0
    377c:	01f71313          	slli	t1,a4,0x1f
    3780:	8205                	c.srli	a2,0x1
    3782:	00c36333          	or	t1,t1,a2
    3786:	8305                	c.srli	a4,0x1
    3788:	00737813          	andi	a6,t1,7
    378c:	4e01                	c.li	t3,0
    378e:	bb89                	c.j	34e0 <__adddf3+0x120>
/cygdrive/d/Jenkins/workspace/build-system-3/source-packages/gcc-7.4.0-riscv-bsp-v5_1_0-branch/libgcc/soft-fp/adddf3.c:48 (discriminator 1)
    3790:	001e2073          	csrs	fflags,t3
/cygdrive/d/Jenkins/workspace/build-system-3/source-packages/gcc-7.4.0-riscv-bsp-v5_1_0-branch/libgcc/soft-fp/adddf3.c:50 (discriminator 1)
    3794:	00008067          	ret
/cygdrive/d/Jenkins/workspace/build-system-3/source-packages/gcc-7.4.0-riscv-bsp-v5_1_0-branch/libgcc/soft-fp/adddf3.c:46 (discriminator 220)
    3798:	00e66633          	or	a2,a2,a4
    379c:	00c03333          	snez	t1,a2
/cygdrive/d/Jenkins/workspace/build-system-3/source-packages/gcc-7.4.0-riscv-bsp-v5_1_0-branch/libgcc/soft-fp/adddf3.c:46 (discriminator 235)
    37a0:	40650333          	sub	t1,a0,t1
    37a4:	00653533          	sltu	a0,a0,t1
    37a8:	40af8733          	sub	a4,t6,a0
    37ac:	b777765b          	bbc	a4,23,3718 <__adddf3+0x358>
    37b0:	c81ff06f          	j	3430 <__adddf3+0x70>
    37b4:	4e81                	c.li	t4,0
    37b6:	4301                	c.li	t1,0
    37b8:	4e01                	c.li	t3,0
    37ba:	4c08275b          	bfoz	a4,a6,19,0
    37be:	7ffef793          	andi	a5,t4,2047
    37c2:	0012f893          	andi	a7,t0,1
    37c6:	b5c9                	c.j	3688 <__adddf3+0x2c8>
/cygdrive/d/Jenkins/workspace/build-system-3/source-packages/gcc-7.4.0-riscv-bsp-v5_1_0-branch/libgcc/soft-fp/adddf3.c:47
    37c8:	82c6                	c.mv	t0,a7
    37ca:	4e15                	c.li	t3,5
/cygdrive/d/Jenkins/workspace/build-system-3/source-packages/gcc-7.4.0-riscv-bsp-v5_1_0-branch/libgcc/soft-fp/adddf3.c:47 (discriminator 49)
    37cc:	080f1a63          	bnez	t5,3860 <__adddf3+0x4a0>
/cygdrive/d/Jenkins/workspace/build-system-3/source-packages/gcc-7.4.0-riscv-bsp-v5_1_0-branch/libgcc/soft-fp/adddf3.c:47
    37d0:	005e6e13          	ori	t3,t3,5
    37d4:	005008b3          	add	a7,zero,t0
    37d8:	0018f893          	andi	a7,a7,1
    37dc:	7ff00793          	li	a5,2047
    37e0:	4701                	c.li	a4,0
    37e2:	4301                	c.li	t1,0
    37e4:	ea5ff06f          	j	3688 <__adddf3+0x2c8>
    37e8:	00f37693          	andi	a3,t1,15
    37ec:	00100513          	li	a0,1
    37f0:	9046d05b          	beqc	a3,4,34f0 <__adddf3+0x130>
/cygdrive/d/Jenkins/workspace/build-system-3/source-packages/gcc-7.4.0-riscv-bsp-v5_1_0-branch/libgcc/soft-fp/adddf3.c:47 (discriminator 36)
    37f4:	00430593          	addi	a1,t1,4
    37f8:	0065b333          	sltu	t1,a1,t1
    37fc:	971a                	c.add	a4,t1
    37fe:	008006b7          	lui	a3,0x800
    3802:	8672                	c.mv	a2,t3
    3804:	8ef9                	c.and	a3,a4
    3806:	832e                	c.mv	t1,a1
    3808:	00a00e33          	add	t3,zero,a0
/cygdrive/d/Jenkins/workspace/build-system-3/source-packages/gcc-7.4.0-riscv-bsp-v5_1_0-branch/libgcc/soft-fp/adddf3.c:47 (discriminator 37)
    380c:	ce060ae3          	beqz	a2,3500 <__adddf3+0x140>
/cygdrive/d/Jenkins/workspace/build-system-3/source-packages/gcc-7.4.0-riscv-bsp-v5_1_0-branch/libgcc/soft-fp/adddf3.c:47 (discriminator 42)
    3810:	8e0e785b          	bbc	t3,0,3500 <__adddf3+0x140>
/cygdrive/d/Jenkins/workspace/build-system-3/source-packages/gcc-7.4.0-riscv-bsp-v5_1_0-branch/libgcc/soft-fp/adddf3.c:47
    3814:	002e6e13          	ori	t3,t3,2
    3818:	ce9ff06f          	j	3500 <__adddf3+0x140>
/cygdrive/d/Jenkins/workspace/build-system-3/source-packages/gcc-7.4.0-riscv-bsp-v5_1_0-branch/libgcc/soft-fp/adddf3.c:47 (discriminator 34)
    381c:	06029063          	bnez	t0,387c <__adddf3+0x4bc>
    3820:	008006b7          	lui	a3,0x800
/cygdrive/d/Jenkins/workspace/build-system-3/source-packages/gcc-7.4.0-riscv-bsp-v5_1_0-branch/libgcc/soft-fp/adddf3.c:47
    3824:	8672                	c.mv	a2,t3
    3826:	8ef9                	c.and	a3,a4
    3828:	4e05                	c.li	t3,1
    382a:	b7cd                	c.j	380c <__adddf3+0x44c>
    382c:	00100593          	li	a1,1
/cygdrive/d/Jenkins/workspace/build-system-3/source-packages/gcc-7.4.0-riscv-bsp-v5_1_0-branch/libgcc/soft-fp/adddf3.c:47 (discriminator 35)
    3830:	06028263          	beqz	t0,3894 <__adddf3+0x4d4>
    3834:	008006b7          	lui	a3,0x800
/cygdrive/d/Jenkins/workspace/build-system-3/source-packages/gcc-7.4.0-riscv-bsp-v5_1_0-branch/libgcc/soft-fp/adddf3.c:47
    3838:	8672                	c.mv	a2,t3
    383a:	8ef9                	c.and	a3,a4
    383c:	8e2e                	c.mv	t3,a1
    383e:	b7f9                	c.j	380c <__adddf3+0x44c>
/cygdrive/d/Jenkins/workspace/build-system-3/source-packages/gcc-7.4.0-riscv-bsp-v5_1_0-branch/libgcc/soft-fp/adddf3.c:46 (discriminator 360)
    3840:	ff8007b7          	lui	a5,0xff800
    3844:	17fd                	c.addi	a5,-1
    3846:	8f7d                	c.and	a4,a5
    3848:	8d95                	c.sub	a1,a3
    384a:	00e36833          	or	a6,t1,a4
/cygdrive/d/Jenkins/workspace/build-system-3/source-packages/gcc-7.4.0-riscv-bsp-v5_1_0-branch/libgcc/soft-fp/adddf3.c:47 (discriminator 360)
    384e:	c40587e3          	beqz	a1,349c <__adddf3+0xdc>
    3852:	b5f9                	c.j	3720 <__adddf3+0x360>
/cygdrive/d/Jenkins/workspace/build-system-3/source-packages/gcc-7.4.0-riscv-bsp-v5_1_0-branch/libgcc/soft-fp/adddf3.c:46 (discriminator 350)
    3854:	fd878713          	addi	a4,a5,-40 # ff7fffd8 <_DATA_LMA_START+0xdf7f9400>
    3858:	00e31733          	sll	a4,t1,a4
    385c:	4301                	c.li	t1,0
    385e:	b119                	c.j	3464 <__adddf3+0xa4>
/cygdrive/d/Jenkins/workspace/build-system-3/source-packages/gcc-7.4.0-riscv-bsp-v5_1_0-branch/libgcc/soft-fp/adddf3.c:47 (discriminator 52)
    3860:	263f585b          	beqc	t5,3,3ad0 <__adddf3+0x710>
/cygdrive/d/Jenkins/workspace/build-system-3/source-packages/gcc-7.4.0-riscv-bsp-v5_1_0-branch/libgcc/soft-fp/adddf3.c:47 (discriminator 56)
    3864:	1a2f565b          	beqc	t5,2,3a10 <__adddf3+0x650>
/cygdrive/d/Jenkins/workspace/build-system-3/source-packages/gcc-7.4.0-riscv-bsp-v5_1_0-branch/libgcc/soft-fp/adddf3.c:47
    3868:	005e6e13          	ori	t3,t3,5
    386c:	20000737          	lui	a4,0x20000
    3870:	537d                	c.li	t1,-1
    3872:	fff70813          	addi	a6,a4,-1 # 1fffffff <FLASH_SIZE+0x1fefffff>
    3876:	7fe00e93          	li	t4,2046
    387a:	b9cd                	c.j	356c <__adddf3+0x1ac>
/cygdrive/d/Jenkins/workspace/build-system-3/source-packages/gcc-7.4.0-riscv-bsp-v5_1_0-branch/libgcc/soft-fp/adddf3.c:47 (discriminator 41)
    387c:	00830593          	addi	a1,t1,8
    3880:	0065b333          	sltu	t1,a1,t1
    3884:	971a                	c.add	a4,t1
    3886:	008006b7          	lui	a3,0x800
    388a:	8672                	c.mv	a2,t3
    388c:	8ef9                	c.and	a3,a4
    388e:	832e                	c.mv	t1,a1
    3890:	4e05                	c.li	t3,1
    3892:	bfad                	c.j	380c <__adddf3+0x44c>
/cygdrive/d/Jenkins/workspace/build-system-3/source-packages/gcc-7.4.0-riscv-bsp-v5_1_0-branch/libgcc/soft-fp/adddf3.c:47 (discriminator 39)
    3894:	00830513          	addi	a0,t1,8
    3898:	00653333          	sltu	t1,a0,t1
    389c:	971a                	c.add	a4,t1
    389e:	008006b7          	lui	a3,0x800
    38a2:	8672                	c.mv	a2,t3
    38a4:	8ef9                	c.and	a3,a4
    38a6:	832a                	c.mv	t1,a0
    38a8:	8e2e                	c.mv	t3,a1
    38aa:	b78d                	c.j	380c <__adddf3+0x44c>
    38ac:	00afe833          	or	a6,t6,a0
    38b0:	00c76333          	or	t1,a4,a2
/cygdrive/d/Jenkins/workspace/build-system-3/source-packages/gcc-7.4.0-riscv-bsp-v5_1_0-branch/libgcc/soft-fp/adddf3.c:46 (discriminator 289)
    38b4:	10059263          	bnez	a1,39b8 <__adddf3+0x5f8>
/cygdrive/d/Jenkins/workspace/build-system-3/source-packages/gcc-7.4.0-riscv-bsp-v5_1_0-branch/libgcc/soft-fp/adddf3.c:46 (discriminator 291)
    38b8:	34081863          	bnez	a6,3c08 <__adddf3+0x848>
/cygdrive/d/Jenkins/workspace/build-system-3/source-packages/gcc-7.4.0-riscv-bsp-v5_1_0-branch/libgcc/soft-fp/adddf3.c:46 (discriminator 293)
    38bc:	42031063          	bnez	t1,3cdc <__adddf3+0x91c>
/cygdrive/d/Jenkins/workspace/build-system-3/source-packages/gcc-7.4.0-riscv-bsp-v5_1_0-branch/libgcc/soft-fp/adddf3.c:46 (discriminator 295)
    38c0:	ffef0893          	addi	a7,t5,-2
    38c4:	0018b293          	seqz	t0,a7
    38c8:	881a                	c.mv	a6,t1
    38ca:	4e01                	c.li	t3,0
    38cc:	ca1ff06f          	j	356c <__adddf3+0x1ac>
/cygdrive/d/Jenkins/workspace/build-system-3/source-packages/gcc-7.4.0-riscv-bsp-v5_1_0-branch/libgcc/soft-fp/adddf3.c:46 (discriminator 199)
    38d0:	7ff00793          	li	a5,2047
    38d4:	0cfe8a63          	beq	t4,a5,39a8 <__adddf3+0x5e8>
    38d8:	8ef2                	c.mv	t4,t3
    38da:	b309                	c.j	35dc <__adddf3+0x21c>
/cygdrive/d/Jenkins/workspace/build-system-3/source-packages/gcc-7.4.0-riscv-bsp-v5_1_0-branch/libgcc/soft-fp/adddf3.c:46 (discriminator 362)
    38dc:	fe158593          	addi	a1,a1,-31
    38e0:	00b756b3          	srl	a3,a4,a1
    38e4:	0007d8db          	beqc	a5,32,38f4 <__adddf3+0x534>
/cygdrive/d/Jenkins/workspace/build-system-3/source-packages/gcc-7.4.0-riscv-bsp-v5_1_0-branch/libgcc/soft-fp/adddf3.c:46 (discriminator 370)
    38e8:	40f007b3          	neg	a5,a5
    38ec:	00f71733          	sll	a4,a4,a5
    38f0:	00e36333          	or	t1,t1,a4
/cygdrive/d/Jenkins/workspace/build-system-3/source-packages/gcc-7.4.0-riscv-bsp-v5_1_0-branch/libgcc/soft-fp/adddf3.c:46 (discriminator 373)
    38f4:	00603333          	snez	t1,t1
    38f8:	00d36333          	or	t1,t1,a3
    38fc:	881a                	c.mv	a6,t1
    38fe:	4701                	c.li	a4,0
    3900:	b9dff06f          	j	349c <__adddf3+0xdc>
/cygdrive/d/Jenkins/workspace/build-system-3/source-packages/gcc-7.4.0-riscv-bsp-v5_1_0-branch/libgcc/soft-fp/adddf3.c:46 (discriminator 330)
    3904:	40a60333          	sub	t1,a2,a0
    3908:	41f70733          	sub	a4,a4,t6
    390c:	00663633          	sltu	a2,a2,t1
    3910:	40c70e33          	sub	t3,a4,a2
    3914:	82c6                	c.mv	t0,a7
    3916:	be39                	c.j	3434 <__adddf3+0x74>
/cygdrive/d/Jenkins/workspace/build-system-3/source-packages/gcc-7.4.0-riscv-bsp-v5_1_0-branch/libgcc/soft-fp/adddf3.c:46 (discriminator 47)
    3918:	00e66633          	or	a2,a2,a4
    391c:	00c03333          	snez	t1,a2
/cygdrive/d/Jenkins/workspace/build-system-3/source-packages/gcc-7.4.0-riscv-bsp-v5_1_0-branch/libgcc/soft-fp/adddf3.c:46 (discriminator 62)
    3920:	00a30333          	add	t1,t1,a0
    3924:	00a33533          	sltu	a0,t1,a0
    3928:	01f50733          	add	a4,a0,t6
/cygdrive/d/Jenkins/workspace/build-system-3/source-packages/gcc-7.4.0-riscv-bsp-v5_1_0-branch/libgcc/soft-fp/adddf3.c:46 (discriminator 118)
    392c:	9f77765b          	bbc	a4,23,3718 <__adddf3+0x358>
/cygdrive/d/Jenkins/workspace/build-system-3/source-packages/gcc-7.4.0-riscv-bsp-v5_1_0-branch/libgcc/soft-fp/adddf3.c:46 (discriminator 168)
    3930:	00158793          	addi	a5,a1,1
    3934:	7ff00693          	li	a3,2047
    3938:	c6d796e3          	bne	a5,a3,35a4 <__adddf3+0x1e4>
/cygdrive/d/Jenkins/workspace/build-system-3/source-packages/gcc-7.4.0-riscv-bsp-v5_1_0-branch/libgcc/soft-fp/adddf3.c:46 (discriminator 170)
    393c:	120f0c63          	beqz	t5,3a74 <__adddf3+0x6b4>
/cygdrive/d/Jenkins/workspace/build-system-3/source-packages/gcc-7.4.0-riscv-bsp-v5_1_0-branch/libgcc/soft-fp/adddf3.c:46 (discriminator 173)
    3940:	003f645b          	bnec	t5,3,3948 <__adddf3+0x588>
    3944:	3f40006f          	j	3d38 <__adddf3+0x978>
/cygdrive/d/Jenkins/workspace/build-system-3/source-packages/gcc-7.4.0-riscv-bsp-v5_1_0-branch/libgcc/soft-fp/adddf3.c:46 (discriminator 177)
    3948:	122f525b          	beqc	t5,2,3a6c <__adddf3+0x6ac>
/cygdrive/d/Jenkins/workspace/build-system-3/source-packages/gcc-7.4.0-riscv-bsp-v5_1_0-branch/libgcc/soft-fp/adddf3.c:47
    394c:	420f0663          	beqz	t5,3d78 <__adddf3+0x9b8>
    3950:	a63f6c5b          	bnec	t5,3,37c8 <__adddf3+0x408>
    3954:	577d                	c.li	a4,-1
    3956:	537d                	c.li	t1,-1
    3958:	7fe00793          	li	a5,2046
    395c:	4e01                	c.li	t3,0
    395e:	4595                	c.li	a1,5
    3960:	ed1ff06f          	j	3830 <__adddf3+0x470>
/cygdrive/d/Jenkins/workspace/build-system-3/source-packages/gcc-7.4.0-riscv-bsp-v5_1_0-branch/libgcc/soft-fp/adddf3.c:46 (discriminator 221)
    3964:	02000793          	li	a5,32
    3968:	41d787b3          	sub	a5,a5,t4
    396c:	00f71333          	sll	t1,a4,a5
    3970:	01d656b3          	srl	a3,a2,t4
    3974:	00f61633          	sll	a2,a2,a5
    3978:	00d36333          	or	t1,t1,a3
    397c:	00c03633          	snez	a2,a2
    3980:	01d75733          	srl	a4,a4,t4
    3984:	00c36333          	or	t1,t1,a2
    3988:	40ef8fb3          	sub	t6,t6,a4
    398c:	e15ff06f          	j	37a0 <__adddf3+0x3e0>
/cygdrive/d/Jenkins/workspace/build-system-3/source-packages/gcc-7.4.0-riscv-bsp-v5_1_0-branch/libgcc/soft-fp/adddf3.c:46 (discriminator 239)
    3990:	00afe7b3          	or	a5,t6,a0
    3994:	1e079c63          	bnez	a5,3b8c <__adddf3+0x7cc>
/cygdrive/d/Jenkins/workspace/build-system-3/source-packages/gcc-7.4.0-riscv-bsp-v5_1_0-branch/libgcc/soft-fp/adddf3.c:46 (discriminator 241)
    3998:	7ff00793          	li	a5,2047
    399c:	04f68463          	beq	a3,a5,39e4 <__adddf3+0x624>
/cygdrive/d/Jenkins/workspace/build-system-3/source-packages/gcc-7.4.0-riscv-bsp-v5_1_0-branch/libgcc/soft-fp/adddf3.c:45
    39a0:	8332                	c.mv	t1,a2
    39a2:	85b6                	c.mv	a1,a3
    39a4:	82c6                	c.mv	t0,a7
    39a6:	bb8d                	c.j	3718 <__adddf3+0x358>
/cygdrive/d/Jenkins/workspace/build-system-3/source-packages/gcc-7.4.0-riscv-bsp-v5_1_0-branch/libgcc/soft-fp/adddf3.c:46 (discriminator 202)
    39a8:	00afe7b3          	or	a5,t6,a0
    39ac:	d8079ee3          	bnez	a5,3748 <__adddf3+0x388>
    39b0:	8896                	c.mv	a7,t0
/cygdrive/d/Jenkins/workspace/build-system-3/source-packages/gcc-7.4.0-riscv-bsp-v5_1_0-branch/libgcc/soft-fp/adddf3.c:37
    39b2:	4e01                	c.li	t3,0
    39b4:	e25ff06f          	j	37d8 <__adddf3+0x418>
/cygdrive/d/Jenkins/workspace/build-system-3/source-packages/gcc-7.4.0-riscv-bsp-v5_1_0-branch/libgcc/soft-fp/adddf3.c:46 (discriminator 292)
    39b8:	7ff00793          	li	a5,2047
    39bc:	26f58e63          	beq	a1,a5,3c38 <__adddf3+0x878>
/cygdrive/d/Jenkins/workspace/build-system-3/source-packages/gcc-7.4.0-riscv-bsp-v5_1_0-branch/libgcc/soft-fp/adddf3.c:46 (discriminator 308)
    39c0:	08f68c63          	beq	a3,a5,3a58 <__adddf3+0x698>
/cygdrive/d/Jenkins/workspace/build-system-3/source-packages/gcc-7.4.0-riscv-bsp-v5_1_0-branch/libgcc/soft-fp/adddf3.c:46 (discriminator 315)
    39c4:	28081463          	bnez	a6,3c4c <__adddf3+0x88c>
/cygdrive/d/Jenkins/workspace/build-system-3/source-packages/gcc-7.4.0-riscv-bsp-v5_1_0-branch/libgcc/soft-fp/adddf3.c:47 (discriminator 316)
    39c8:	4501                	c.li	a0,0
    39ca:	7ff805b7          	lui	a1,0x7ff80
/cygdrive/d/Jenkins/workspace/build-system-3/source-packages/gcc-7.4.0-riscv-bsp-v5_1_0-branch/libgcc/soft-fp/adddf3.c:46 (discriminator 316)
    39ce:	4e41                	c.li	t3,16
    39d0:	dc0300e3          	beqz	t1,3790 <__adddf3+0x3d0>
/cygdrive/d/Jenkins/workspace/build-system-3/source-packages/gcc-7.4.0-riscv-bsp-v5_1_0-branch/libgcc/soft-fp/adddf3.c:46
    39d4:	8e76                	c.mv	t3,t4
    39d6:	82c6                	c.mv	t0,a7
    39d8:	8fba                	c.mv	t6,a4
    39da:	8532                	c.mv	a0,a2
    39dc:	7ff00e93          	li	t4,2047
    39e0:	c7dff06f          	j	365c <__adddf3+0x29c>
/cygdrive/d/Jenkins/workspace/build-system-3/source-packages/gcc-7.4.0-riscv-bsp-v5_1_0-branch/libgcc/soft-fp/adddf3.c:46 (discriminator 243)
    39e4:	00c767b3          	or	a5,a4,a2
    39e8:	1c079063          	bnez	a5,3ba8 <__adddf3+0x7e8>
    39ec:	011002b3          	add	t0,zero,a7
/cygdrive/d/Jenkins/workspace/build-system-3/source-packages/gcc-7.4.0-riscv-bsp-v5_1_0-branch/libgcc/soft-fp/adddf3.c:47
    39f0:	4301                	c.li	t1,0
    39f2:	4801                	c.li	a6,0
    39f4:	4e01                	c.li	t3,0
    39f6:	b9bd                	c.j	3674 <__adddf3+0x2b4>
/cygdrive/d/Jenkins/workspace/build-system-3/source-packages/gcc-7.4.0-riscv-bsp-v5_1_0-branch/libgcc/soft-fp/adddf3.c:46 (discriminator 24)
    39f8:	7ff00693          	li	a3,2047
    39fc:	2ade8463          	beq	t4,a3,3ca4 <__adddf3+0x8e4>
    3a00:	8ebe                	c.mv	t4,a5
    3a02:	b919                	c.j	3618 <__adddf3+0x258>
    3a04:	00737813          	andi	a6,t1,7
/cygdrive/d/Jenkins/workspace/build-system-3/source-packages/gcc-7.4.0-riscv-bsp-v5_1_0-branch/libgcc/soft-fp/adddf3.c:46
    3a08:	4e81                	c.li	t4,0
    3a0a:	4785                	c.li	a5,1
    3a0c:	ad5ff06f          	j	34e0 <__adddf3+0x120>
/cygdrive/d/Jenkins/workspace/build-system-3/source-packages/gcc-7.4.0-riscv-bsp-v5_1_0-branch/libgcc/soft-fp/adddf3.c:47 (discriminator 57)
    3a10:	005e6e13          	ori	t3,t3,5
    3a14:	e4028ce3          	beqz	t0,386c <__adddf3+0x4ac>
    3a18:	8896                	c.mv	a7,t0
    3a1a:	bb7d                	c.j	37d8 <__adddf3+0x418>
/cygdrive/d/Jenkins/workspace/build-system-3/source-packages/gcc-7.4.0-riscv-bsp-v5_1_0-branch/libgcc/soft-fp/adddf3.c:47 (discriminator 16)
    3a1c:	00f7f693          	andi	a3,a5,15
    3a20:	4e85                	c.li	t4,1
    3a22:	0046e45b          	bnec	a3,4,3a2a <__adddf3+0x66a>
    3a26:	aabff06f          	j	34d0 <__adddf3+0x110>
/cygdrive/d/Jenkins/workspace/build-system-3/source-packages/gcc-7.4.0-riscv-bsp-v5_1_0-branch/libgcc/soft-fp/adddf3.c:47 (discriminator 20)
    3a2a:	ffc7b793          	sltiu	a5,a5,-4
    3a2e:	0017c793          	xori	a5,a5,1
    3a32:	9e3e                	c.add	t3,a5
    3a34:	a9dff06f          	j	34d0 <__adddf3+0x110>
/cygdrive/d/Jenkins/workspace/build-system-3/source-packages/gcc-7.4.0-riscv-bsp-v5_1_0-branch/libgcc/soft-fp/adddf3.c:46 (discriminator 155)
    3a38:	020f0e63          	beqz	t5,3a74 <__adddf3+0x6b4>
/cygdrive/d/Jenkins/workspace/build-system-3/source-packages/gcc-7.4.0-riscv-bsp-v5_1_0-branch/libgcc/soft-fp/adddf3.c:46 (discriminator 157)
    3a3c:	323f525b          	beqc	t5,3,3d60 <__adddf3+0x9a0>
/cygdrive/d/Jenkins/workspace/build-system-3/source-packages/gcc-7.4.0-riscv-bsp-v5_1_0-branch/libgcc/soft-fp/adddf3.c:46 (discriminator 161)
    3a40:	b02f665b          	bnec	t5,2,394c <__adddf3+0x58c>
/cygdrive/d/Jenkins/workspace/build-system-3/source-packages/gcc-7.4.0-riscv-bsp-v5_1_0-branch/libgcc/soft-fp/adddf3.c:46 (discriminator 162)
    3a44:	02089863          	bnez	a7,3a74 <__adddf3+0x6b4>
    3a48:	537d                	c.li	t1,-1
    3a4a:	7fe00793          	li	a5,2046
    3a4e:	577d                	c.li	a4,-1
    3a50:	4e15                	c.li	t3,5
    3a52:	bc4d                	c.j	3504 <__adddf3+0x144>
/cygdrive/d/Jenkins/workspace/build-system-3/source-packages/gcc-7.4.0-riscv-bsp-v5_1_0-branch/libgcc/soft-fp/adddf3.c:46
    3a54:	f6b69ae3          	bne	a3,a1,39c8 <__adddf3+0x608>
/cygdrive/d/Jenkins/workspace/build-system-3/source-packages/gcc-7.4.0-riscv-bsp-v5_1_0-branch/libgcc/soft-fp/adddf3.c:46 (discriminator 309)
    3a58:	f60306e3          	beqz	t1,39c4 <__adddf3+0x604>
/cygdrive/d/Jenkins/workspace/build-system-3/source-packages/gcc-7.4.0-riscv-bsp-v5_1_0-branch/libgcc/soft-fp/adddf3.c:46 (discriminator 311)
    3a5c:	4167745b          	bbs	a4,22,3a64 <__adddf3+0x6a4>
/cygdrive/d/Jenkins/workspace/build-system-3/source-packages/gcc-7.4.0-riscv-bsp-v5_1_0-branch/libgcc/soft-fp/adddf3.c:46
    3a60:	01000e93          	li	t4,16
    3a64:	f60808e3          	beqz	a6,39d4 <__adddf3+0x614>
    3a68:	8e76                	c.mv	t3,t4
    3a6a:	b909                	c.j	367c <__adddf3+0x2bc>
/cygdrive/d/Jenkins/workspace/build-system-3/source-packages/gcc-7.4.0-riscv-bsp-v5_1_0-branch/libgcc/soft-fp/adddf3.c:46 (discriminator 178)
    3a6c:	fc028ee3          	beqz	t0,3a48 <__adddf3+0x688>
/cygdrive/d/Jenkins/workspace/build-system-3/source-packages/gcc-7.4.0-riscv-bsp-v5_1_0-branch/libgcc/soft-fp/adddf3.c:46
    3a70:	005008b3          	add	a7,zero,t0
    3a74:	4e15                	c.li	t3,5
    3a76:	b38d                	c.j	37d8 <__adddf3+0x418>
/cygdrive/d/Jenkins/workspace/build-system-3/source-packages/gcc-7.4.0-riscv-bsp-v5_1_0-branch/libgcc/soft-fp/adddf3.c:46 (discriminator 64)
    3a78:	e1e1                	c.bnez	a1,3b38 <__adddf3+0x778>
/cygdrive/d/Jenkins/workspace/build-system-3/source-packages/gcc-7.4.0-riscv-bsp-v5_1_0-branch/libgcc/soft-fp/adddf3.c:46 (discriminator 66)
    3a7a:	00afe7b3          	or	a5,t6,a0
    3a7e:	1c079d63          	bnez	a5,3c58 <__adddf3+0x898>
/cygdrive/d/Jenkins/workspace/build-system-3/source-packages/gcc-7.4.0-riscv-bsp-v5_1_0-branch/libgcc/soft-fp/adddf3.c:46 (discriminator 68)
    3a82:	7ff00793          	li	a5,2047
/cygdrive/d/Jenkins/workspace/build-system-3/source-packages/gcc-7.4.0-riscv-bsp-v5_1_0-branch/libgcc/soft-fp/adddf3.c:45 (discriminator 68)
    3a86:	8332                	c.mv	t1,a2
    3a88:	85b6                	c.mv	a1,a3
/cygdrive/d/Jenkins/workspace/build-system-3/source-packages/gcc-7.4.0-riscv-bsp-v5_1_0-branch/libgcc/soft-fp/adddf3.c:46 (discriminator 68)
    3a8a:	c8f697e3          	bne	a3,a5,3718 <__adddf3+0x358>
/cygdrive/d/Jenkins/workspace/build-system-3/source-packages/gcc-7.4.0-riscv-bsp-v5_1_0-branch/libgcc/soft-fp/adddf3.c:46 (discriminator 70)
    3a8e:	00c767b3          	or	a5,a4,a2
    3a92:	dfb9                	c.beqz	a5,39f0 <__adddf3+0x630>
/cygdrive/d/Jenkins/workspace/build-system-3/source-packages/gcc-7.4.0-riscv-bsp-v5_1_0-branch/libgcc/soft-fp/adddf3.c:46 (discriminator 94)
    3a94:	7ff00e93          	li	t4,2047
    3a98:	8fba                	c.mv	t6,a4
    3a9a:	8532                	c.mv	a0,a2
    3a9c:	0167745b          	bbc	a4,22,3aa4 <__adddf3+0x6e4>
    3aa0:	bb9ff06f          	j	3658 <__adddf3+0x298>
/cygdrive/d/Jenkins/workspace/build-system-3/source-packages/gcc-7.4.0-riscv-bsp-v5_1_0-branch/libgcc/soft-fp/adddf3.c:46
    3aa4:	4e41                	c.li	t3,16
    3aa6:	be5d                	c.j	365c <__adddf3+0x29c>
/cygdrive/d/Jenkins/workspace/build-system-3/source-packages/gcc-7.4.0-riscv-bsp-v5_1_0-branch/libgcc/soft-fp/adddf3.c:46 (discriminator 37)
    3aa8:	00afe7b3          	or	a5,t6,a0
    3aac:	c80794e3          	bnez	a5,3734 <__adddf3+0x374>
/cygdrive/d/Jenkins/workspace/build-system-3/source-packages/gcc-7.4.0-riscv-bsp-v5_1_0-branch/libgcc/soft-fp/adddf3.c:37
    3ab0:	4e01                	c.li	t3,0
    3ab2:	b31d                	c.j	37d8 <__adddf3+0x418>
/cygdrive/d/Jenkins/workspace/build-system-3/source-packages/gcc-7.4.0-riscv-bsp-v5_1_0-branch/libgcc/soft-fp/adddf3.c:47 (discriminator 18)
    3ab4:	00100e93          	li	t4,1
    3ab8:	a0028ce3          	beqz	t0,34d0 <__adddf3+0x110>
/cygdrive/d/Jenkins/workspace/build-system-3/source-packages/gcc-7.4.0-riscv-bsp-v5_1_0-branch/libgcc/soft-fp/adddf3.c:47 (discriminator 25)
    3abc:	ff87b793          	sltiu	a5,a5,-8
    3ac0:	0017c793          	xori	a5,a5,1
    3ac4:	9e3e                	c.add	t3,a5
    3ac6:	b429                	c.j	34d0 <__adddf3+0x110>
/cygdrive/d/Jenkins/workspace/build-system-3/source-packages/gcc-7.4.0-riscv-bsp-v5_1_0-branch/libgcc/soft-fp/adddf3.c:47 (discriminator 19)
    3ac8:	4e85                	c.li	t4,1
    3aca:	a00293e3          	bnez	t0,34d0 <__adddf3+0x110>
    3ace:	b7fd                	c.j	3abc <__adddf3+0x6fc>
/cygdrive/d/Jenkins/workspace/build-system-3/source-packages/gcc-7.4.0-riscv-bsp-v5_1_0-branch/libgcc/soft-fp/adddf3.c:47 (discriminator 53)
    3ad0:	d8029ce3          	bnez	t0,3868 <__adddf3+0x4a8>
/cygdrive/d/Jenkins/workspace/build-system-3/source-packages/gcc-7.4.0-riscv-bsp-v5_1_0-branch/libgcc/soft-fp/adddf3.c:47
    3ad4:	005e6e13          	ori	t3,t3,5
    3ad8:	4881                	c.li	a7,0
    3ada:	b9fd                	c.j	37d8 <__adddf3+0x418>
    3adc:	00afe7b3          	or	a5,t6,a0
/cygdrive/d/Jenkins/workspace/build-system-3/source-packages/gcc-7.4.0-riscv-bsp-v5_1_0-branch/libgcc/soft-fp/adddf3.c:46 (discriminator 119)
    3ae0:	10059263          	bnez	a1,3be4 <__adddf3+0x824>
    3ae4:	00c76833          	or	a6,a4,a2
/cygdrive/d/Jenkins/workspace/build-system-3/source-packages/gcc-7.4.0-riscv-bsp-v5_1_0-branch/libgcc/soft-fp/adddf3.c:46 (discriminator 121)
    3ae8:	1e078463          	beqz	a5,3cd0 <__adddf3+0x910>
/cygdrive/d/Jenkins/workspace/build-system-3/source-packages/gcc-7.4.0-riscv-bsp-v5_1_0-branch/libgcc/soft-fp/adddf3.c:46 (discriminator 124)
    3aec:	0e080263          	beqz	a6,3bd0 <__adddf3+0x810>
/cygdrive/d/Jenkins/workspace/build-system-3/source-packages/gcc-7.4.0-riscv-bsp-v5_1_0-branch/libgcc/soft-fp/adddf3.c:46 (discriminator 130)
    3af0:	00c50333          	add	t1,a0,a2
    3af4:	977e                	c.add	a4,t6
    3af6:	00a33533          	sltu	a0,t1,a0
    3afa:	972a                	c.add	a4,a0
    3afc:	4177745b          	bbs	a4,23,3b04 <__adddf3+0x744>
    3b00:	999ff06f          	j	3498 <__adddf3+0xd8>
/cygdrive/d/Jenkins/workspace/build-system-3/source-packages/gcc-7.4.0-riscv-bsp-v5_1_0-branch/libgcc/soft-fp/adddf3.c:46 (discriminator 132)
    3b04:	ff8007b7          	lui	a5,0xff800
    3b08:	17fd                	c.addi	a5,-1
    3b0a:	8f7d                	c.and	a4,a5
    3b0c:	00737813          	andi	a6,t1,7
    3b10:	4e01                	c.li	t3,0
    3b12:	4785                	c.li	a5,1
    3b14:	9cdff06f          	j	34e0 <__adddf3+0x120>
/cygdrive/d/Jenkins/workspace/build-system-3/source-packages/gcc-7.4.0-riscv-bsp-v5_1_0-branch/libgcc/soft-fp/adddf3.c:46 (discriminator 49)
    3b18:	01d75333          	srl	t1,a4,t4
    3b1c:	000ed8db          	beqc	t4,32,3b2c <__adddf3+0x76c>
/cygdrive/d/Jenkins/workspace/build-system-3/source-packages/gcc-7.4.0-riscv-bsp-v5_1_0-branch/libgcc/soft-fp/adddf3.c:46 (discriminator 56)
    3b20:	41d007b3          	neg	a5,t4
    3b24:	00f71733          	sll	a4,a4,a5
    3b28:	00e66633          	or	a2,a2,a4
/cygdrive/d/Jenkins/workspace/build-system-3/source-packages/gcc-7.4.0-riscv-bsp-v5_1_0-branch/libgcc/soft-fp/adddf3.c:46 (discriminator 59)
    3b2c:	00c03633          	snez	a2,a2
    3b30:	00666333          	or	t1,a2,t1
    3b34:	dedff06f          	j	3920 <__adddf3+0x560>
/cygdrive/d/Jenkins/workspace/build-system-3/source-packages/gcc-7.4.0-riscv-bsp-v5_1_0-branch/libgcc/soft-fp/adddf3.c:46 (discriminator 67)
    3b38:	7ff00793          	li	a5,2047
    3b3c:	12f68863          	beq	a3,a5,3c6c <__adddf3+0x8ac>
/cygdrive/d/Jenkins/workspace/build-system-3/source-packages/gcc-7.4.0-riscv-bsp-v5_1_0-branch/libgcc/soft-fp/adddf3.c:46 (discriminator 91)
    3b40:	008005b7          	lui	a1,0x800
    3b44:	41d007b3          	neg	a5,t4
    3b48:	00bfefb3          	or	t6,t6,a1
/cygdrive/d/Jenkins/workspace/build-system-3/source-packages/gcc-7.4.0-riscv-bsp-v5_1_0-branch/libgcc/soft-fp/adddf3.c:46 (discriminator 100)
    3b4c:	03800593          	li	a1,56
    3b50:	12f5c463          	blt	a1,a5,3c78 <__adddf3+0x8b8>
/cygdrive/d/Jenkins/workspace/build-system-3/source-packages/gcc-7.4.0-riscv-bsp-v5_1_0-branch/libgcc/soft-fp/adddf3.c:46 (discriminator 101)
    3b54:	45fd                	c.li	a1,31
    3b56:	1cf5c163          	blt	a1,a5,3d18 <__adddf3+0x958>
/cygdrive/d/Jenkins/workspace/build-system-3/source-packages/gcc-7.4.0-riscv-bsp-v5_1_0-branch/libgcc/soft-fp/adddf3.c:46 (discriminator 103)
    3b5a:	02000593          	li	a1,32
    3b5e:	8d9d                	c.sub	a1,a5
    3b60:	00bf9333          	sll	t1,t6,a1
    3b64:	00f55833          	srl	a6,a0,a5
    3b68:	00b515b3          	sll	a1,a0,a1
    3b6c:	01036333          	or	t1,t1,a6
    3b70:	00b035b3          	snez	a1,a1
    3b74:	00ffd7b3          	srl	a5,t6,a5
    3b78:	00b36333          	or	t1,t1,a1
    3b7c:	00f70733          	add	a4,a4,a5
/cygdrive/d/Jenkins/workspace/build-system-3/source-packages/gcc-7.4.0-riscv-bsp-v5_1_0-branch/libgcc/soft-fp/adddf3.c:46 (discriminator 117)
    3b80:	9332                	c.add	t1,a2
    3b82:	00c33633          	sltu	a2,t1,a2
    3b86:	9732                	c.add	a4,a2
/cygdrive/d/Jenkins/workspace/build-system-3/source-packages/gcc-7.4.0-riscv-bsp-v5_1_0-branch/libgcc/soft-fp/adddf3.c:45 (discriminator 117)
    3b88:	85b6                	c.mv	a1,a3
    3b8a:	b34d                	c.j	392c <__adddf3+0x56c>
/cygdrive/d/Jenkins/workspace/build-system-3/source-packages/gcc-7.4.0-riscv-bsp-v5_1_0-branch/libgcc/soft-fp/adddf3.c:46 (discriminator 242)
    3b8c:	57fd                	c.li	a5,-1
    3b8e:	12fe8163          	beq	t4,a5,3cb0 <__adddf3+0x8f0>
/cygdrive/d/Jenkins/workspace/build-system-3/source-packages/gcc-7.4.0-riscv-bsp-v5_1_0-branch/libgcc/soft-fp/adddf3.c:46 (discriminator 251)
    3b92:	7ff00793          	li	a5,2047
    3b96:	00f68563          	beq	a3,a5,3ba0 <__adddf3+0x7e0>
    3b9a:	fffec793          	not	a5,t4
    3b9e:	be0d                	c.j	36d0 <__adddf3+0x310>
/cygdrive/d/Jenkins/workspace/build-system-3/source-packages/gcc-7.4.0-riscv-bsp-v5_1_0-branch/libgcc/soft-fp/adddf3.c:46 (discriminator 263)
    3ba0:	00c767b3          	or	a5,a4,a2
    3ba4:	f00786e3          	beqz	a5,3ab0 <__adddf3+0x6f0>
/cygdrive/d/Jenkins/workspace/build-system-3/source-packages/gcc-7.4.0-riscv-bsp-v5_1_0-branch/libgcc/soft-fp/adddf3.c:46 (discriminator 265)
    3ba8:	7ff00e93          	li	t4,2047
    3bac:	82c6                	c.mv	t0,a7
    3bae:	8fba                	c.mv	t6,a4
    3bb0:	8532                	c.mv	a0,a2
    3bb2:	0167745b          	bbc	a4,22,3bba <__adddf3+0x7fa>
    3bb6:	aa3ff06f          	j	3658 <__adddf3+0x298>
/cygdrive/d/Jenkins/workspace/build-system-3/source-packages/gcc-7.4.0-riscv-bsp-v5_1_0-branch/libgcc/soft-fp/adddf3.c:46
    3bba:	4e41                	c.li	t3,16
    3bbc:	aa1ff06f          	j	365c <__adddf3+0x29c>
/cygdrive/d/Jenkins/workspace/build-system-3/source-packages/gcc-7.4.0-riscv-bsp-v5_1_0-branch/libgcc/soft-fp/adddf3.c:46 (discriminator 300)
    3bc0:	00f6e833          	or	a6,a3,a5
    3bc4:	98080ee3          	beqz	a6,3560 <__adddf3+0x1a0>
    3bc8:	0076f813          	andi	a6,a3,7
/cygdrive/d/Jenkins/workspace/build-system-3/source-packages/gcc-7.4.0-riscv-bsp-v5_1_0-branch/libgcc/soft-fp/adddf3.c:46
    3bcc:	8fbe                	c.mv	t6,a5
    3bce:	8536                	c.mv	a0,a3
/cygdrive/d/Jenkins/workspace/build-system-3/source-packages/gcc-7.4.0-riscv-bsp-v5_1_0-branch/libgcc/soft-fp/adddf3.c:45
    3bd0:	877e                	c.mv	a4,t6
    3bd2:	832a                	c.mv	t1,a0
    3bd4:	8d1ff06f          	j	34a4 <__adddf3+0xe4>
/cygdrive/d/Jenkins/workspace/build-system-3/source-packages/gcc-7.4.0-riscv-bsp-v5_1_0-branch/libgcc/soft-fp/adddf3.c:46 (discriminator 272)
    3bd8:	00afe533          	or	a0,t6,a0
    3bdc:	00a03333          	snez	t1,a0
    3be0:	b25ff06f          	j	3704 <__adddf3+0x344>
/cygdrive/d/Jenkins/workspace/build-system-3/source-packages/gcc-7.4.0-riscv-bsp-v5_1_0-branch/libgcc/soft-fp/adddf3.c:46 (discriminator 122)
    3be4:	7ff00813          	li	a6,2047
    3be8:	11058463          	beq	a1,a6,3cf0 <__adddf3+0x930>
/cygdrive/d/Jenkins/workspace/build-system-3/source-packages/gcc-7.4.0-riscv-bsp-v5_1_0-branch/libgcc/soft-fp/adddf3.c:46 (discriminator 139)
    3bec:	17068463          	beq	a3,a6,3d54 <__adddf3+0x994>
/cygdrive/d/Jenkins/workspace/build-system-3/source-packages/gcc-7.4.0-riscv-bsp-v5_1_0-branch/libgcc/soft-fp/adddf3.c:46 (discriminator 146)
    3bf0:	0e078a63          	beqz	a5,3ce4 <__adddf3+0x924>
/cygdrive/d/Jenkins/workspace/build-system-3/source-packages/gcc-7.4.0-riscv-bsp-v5_1_0-branch/libgcc/soft-fp/adddf3.c:46 (discriminator 148)
    3bf4:	00e66633          	or	a2,a2,a4
    3bf8:	e60618e3          	bnez	a2,3a68 <__adddf3+0x6a8>
    3bfc:	8e76                	c.mv	t3,t4
/cygdrive/d/Jenkins/workspace/build-system-3/source-packages/gcc-7.4.0-riscv-bsp-v5_1_0-branch/libgcc/soft-fp/adddf3.c:46
    3bfe:	82c6                	c.mv	t0,a7
    3c00:	7ff00e93          	li	t4,2047
    3c04:	a59ff06f          	j	365c <__adddf3+0x29c>
/cygdrive/d/Jenkins/workspace/build-system-3/source-packages/gcc-7.4.0-riscv-bsp-v5_1_0-branch/libgcc/soft-fp/adddf3.c:46 (discriminator 294)
    3c08:	0c030863          	beqz	t1,3cd8 <__adddf3+0x918>
/cygdrive/d/Jenkins/workspace/build-system-3/source-packages/gcc-7.4.0-riscv-bsp-v5_1_0-branch/libgcc/soft-fp/adddf3.c:46 (discriminator 298)
    3c0c:	40c506b3          	sub	a3,a0,a2
    3c10:	40ef87b3          	sub	a5,t6,a4
    3c14:	00d535b3          	sltu	a1,a0,a3
    3c18:	8f8d                	c.sub	a5,a1
    3c1a:	bb77f35b          	bbc	a5,23,3bc0 <__adddf3+0x800>
/cygdrive/d/Jenkins/workspace/build-system-3/source-packages/gcc-7.4.0-riscv-bsp-v5_1_0-branch/libgcc/soft-fp/adddf3.c:46 (discriminator 299)
    3c1e:	40a60333          	sub	t1,a2,a0
    3c22:	41f70733          	sub	a4,a4,t6
    3c26:	00663633          	sltu	a2,a2,t1
    3c2a:	8f11                	c.sub	a4,a2
    3c2c:	00e36833          	or	a6,t1,a4
    3c30:	011002b3          	add	t0,zero,a7
    3c34:	869ff06f          	j	349c <__adddf3+0xdc>
/cygdrive/d/Jenkins/workspace/build-system-3/source-packages/gcc-7.4.0-riscv-bsp-v5_1_0-branch/libgcc/soft-fp/adddf3.c:46 (discriminator 302)
    3c38:	e0080ee3          	beqz	a6,3a54 <__adddf3+0x694>
/cygdrive/d/Jenkins/workspace/build-system-3/source-packages/gcc-7.4.0-riscv-bsp-v5_1_0-branch/libgcc/soft-fp/adddf3.c:46 (discriminator 304)
    3c3c:	416ff45b          	bbs	t6,22,3c44 <__adddf3+0x884>
/cygdrive/d/Jenkins/workspace/build-system-3/source-packages/gcc-7.4.0-riscv-bsp-v5_1_0-branch/libgcc/soft-fp/adddf3.c:46
    3c40:	01000e93          	li	t4,16
    3c44:	7ff00793          	li	a5,2047
    3c48:	e0f688e3          	beq	a3,a5,3a58 <__adddf3+0x698>
/cygdrive/d/Jenkins/workspace/build-system-3/source-packages/gcc-7.4.0-riscv-bsp-v5_1_0-branch/libgcc/soft-fp/adddf3.c:46 (discriminator 317)
    3c4c:	e0031ee3          	bnez	t1,3a68 <__adddf3+0x6a8>
    3c50:	8e76                	c.mv	t3,t4
/cygdrive/d/Jenkins/workspace/build-system-3/source-packages/gcc-7.4.0-riscv-bsp-v5_1_0-branch/libgcc/soft-fp/adddf3.c:46
    3c52:	7ff00e93          	li	t4,2047
    3c56:	b419                	c.j	365c <__adddf3+0x29c>
/cygdrive/d/Jenkins/workspace/build-system-3/source-packages/gcc-7.4.0-riscv-bsp-v5_1_0-branch/libgcc/soft-fp/adddf3.c:46 (discriminator 69)
    3c58:	57fd                	c.li	a5,-1
    3c5a:	0efe8563          	beq	t4,a5,3d44 <__adddf3+0x984>
/cygdrive/d/Jenkins/workspace/build-system-3/source-packages/gcc-7.4.0-riscv-bsp-v5_1_0-branch/libgcc/soft-fp/adddf3.c:46 (discriminator 79)
    3c5e:	7ff00793          	li	a5,2047
    3c62:	00f68563          	beq	a3,a5,3c6c <__adddf3+0x8ac>
    3c66:	fffec793          	not	a5,t4
    3c6a:	b5cd                	c.j	3b4c <__adddf3+0x78c>
/cygdrive/d/Jenkins/workspace/build-system-3/source-packages/gcc-7.4.0-riscv-bsp-v5_1_0-branch/libgcc/soft-fp/adddf3.c:46 (discriminator 92)
    3c6c:	00c767b3          	or	a5,a4,a2
    3c70:	e20792e3          	bnez	a5,3a94 <__adddf3+0x6d4>
/cygdrive/d/Jenkins/workspace/build-system-3/source-packages/gcc-7.4.0-riscv-bsp-v5_1_0-branch/libgcc/soft-fp/adddf3.c:37
    3c74:	4e01                	c.li	t3,0
    3c76:	b68d                	c.j	37d8 <__adddf3+0x418>
/cygdrive/d/Jenkins/workspace/build-system-3/source-packages/gcc-7.4.0-riscv-bsp-v5_1_0-branch/libgcc/soft-fp/adddf3.c:46 (discriminator 102)
    3c78:	00afe533          	or	a0,t6,a0
    3c7c:	00a03333          	snez	t1,a0
    3c80:	f01ff06f          	j	3b80 <__adddf3+0x7c0>
/cygdrive/d/Jenkins/workspace/build-system-3/source-packages/gcc-7.4.0-riscv-bsp-v5_1_0-branch/libgcc/soft-fp/adddf3.c:46 (discriminator 274)
    3c84:	00ffd333          	srl	t1,t6,a5
    3c88:	0007d8db          	beqc	a5,32,3c98 <__adddf3+0x8d8>
/cygdrive/d/Jenkins/workspace/build-system-3/source-packages/gcc-7.4.0-riscv-bsp-v5_1_0-branch/libgcc/soft-fp/adddf3.c:46 (discriminator 281)
    3c8c:	40f007b3          	neg	a5,a5
    3c90:	00ff9833          	sll	a6,t6,a5
    3c94:	01056533          	or	a0,a0,a6
/cygdrive/d/Jenkins/workspace/build-system-3/source-packages/gcc-7.4.0-riscv-bsp-v5_1_0-branch/libgcc/soft-fp/adddf3.c:46 (discriminator 284)
    3c98:	00a03533          	snez	a0,a0
    3c9c:	00656333          	or	t1,a0,t1
    3ca0:	a65ff06f          	j	3704 <__adddf3+0x344>
/cygdrive/d/Jenkins/workspace/build-system-3/source-packages/gcc-7.4.0-riscv-bsp-v5_1_0-branch/libgcc/soft-fp/adddf3.c:46 (discriminator 27)
    3ca4:	00afe7b3          	or	a5,t6,a0
    3ca8:	e00784e3          	beqz	a5,3ab0 <__adddf3+0x6f0>
    3cac:	a9dff06f          	j	3748 <__adddf3+0x388>
/cygdrive/d/Jenkins/workspace/build-system-3/source-packages/gcc-7.4.0-riscv-bsp-v5_1_0-branch/libgcc/soft-fp/adddf3.c:46 (discriminator 250)
    3cb0:	40a60333          	sub	t1,a2,a0
    3cb4:	41f70733          	sub	a4,a4,t6
    3cb8:	00663633          	sltu	a2,a2,t1
    3cbc:	8f11                	c.sub	a4,a2
/cygdrive/d/Jenkins/workspace/build-system-3/source-packages/gcc-7.4.0-riscv-bsp-v5_1_0-branch/libgcc/soft-fp/adddf3.c:45 (discriminator 250)
    3cbe:	85b6                	c.mv	a1,a3
/cygdrive/d/Jenkins/workspace/build-system-3/source-packages/gcc-7.4.0-riscv-bsp-v5_1_0-branch/libgcc/soft-fp/adddf3.c:46 (discriminator 250)
    3cc0:	011002b3          	add	t0,zero,a7
    3cc4:	4177745b          	bbs	a4,23,3ccc <__adddf3+0x90c>
    3cc8:	a51ff06f          	j	3718 <__adddf3+0x358>
    3ccc:	f64ff06f          	j	3430 <__adddf3+0x70>
/cygdrive/d/Jenkins/workspace/build-system-3/source-packages/gcc-7.4.0-riscv-bsp-v5_1_0-branch/libgcc/soft-fp/adddf3.c:45
    3cd0:	00c00333          	add	t1,zero,a2
    3cd4:	fc8ff06f          	j	349c <__adddf3+0xdc>
    3cd8:	4801                	c.li	a6,0
    3cda:	bddd                	c.j	3bd0 <__adddf3+0x810>
    3cdc:	8fba                	c.mv	t6,a4
    3cde:	8532                	c.mv	a0,a2
    3ce0:	82c6                	c.mv	t0,a7
    3ce2:	b5fd                	c.j	3bd0 <__adddf3+0x810>
/cygdrive/d/Jenkins/workspace/build-system-3/source-packages/gcc-7.4.0-riscv-bsp-v5_1_0-branch/libgcc/soft-fp/adddf3.c:46
    3ce4:	8fba                	c.mv	t6,a4
    3ce6:	8532                	c.mv	a0,a2
/cygdrive/d/Jenkins/workspace/build-system-3/source-packages/gcc-7.4.0-riscv-bsp-v5_1_0-branch/libgcc/soft-fp/adddf3.c:37
    3ce8:	4e01                	c.li	t3,0
/cygdrive/d/Jenkins/workspace/build-system-3/source-packages/gcc-7.4.0-riscv-bsp-v5_1_0-branch/libgcc/soft-fp/adddf3.c:46
    3cea:	7ff00e93          	li	t4,2047
    3cee:	b2bd                	c.j	365c <__adddf3+0x29c>
/cygdrive/d/Jenkins/workspace/build-system-3/source-packages/gcc-7.4.0-riscv-bsp-v5_1_0-branch/libgcc/soft-fp/adddf3.c:46 (discriminator 133)
    3cf0:	cfa5                	c.beqz	a5,3d68 <__adddf3+0x9a8>
/cygdrive/d/Jenkins/workspace/build-system-3/source-packages/gcc-7.4.0-riscv-bsp-v5_1_0-branch/libgcc/soft-fp/adddf3.c:46 (discriminator 135)
    3cf2:	416ff35b          	bbs	t6,22,3cf8 <__adddf3+0x938>
/cygdrive/d/Jenkins/workspace/build-system-3/source-packages/gcc-7.4.0-riscv-bsp-v5_1_0-branch/libgcc/soft-fp/adddf3.c:46
    3cf6:	4ec1                	c.li	t4,16
    3cf8:	7ff00593          	li	a1,2047
    3cfc:	eeb69ce3          	bne	a3,a1,3bf4 <__adddf3+0x834>
    3d00:	00c766b3          	or	a3,a4,a2
    3d04:	ee068ce3          	beqz	a3,3bfc <__adddf3+0x83c>
/cygdrive/d/Jenkins/workspace/build-system-3/source-packages/gcc-7.4.0-riscv-bsp-v5_1_0-branch/libgcc/soft-fp/adddf3.c:46 (discriminator 142)
    3d08:	4167745b          	bbs	a4,22,3d10 <__adddf3+0x950>
/cygdrive/d/Jenkins/workspace/build-system-3/source-packages/gcc-7.4.0-riscv-bsp-v5_1_0-branch/libgcc/soft-fp/adddf3.c:46
    3d0c:	01000e93          	li	t4,16
    3d10:	cc0782e3          	beqz	a5,39d4 <__adddf3+0x614>
    3d14:	8e76                	c.mv	t3,t4
    3d16:	b29d                	c.j	367c <__adddf3+0x2bc>
/cygdrive/d/Jenkins/workspace/build-system-3/source-packages/gcc-7.4.0-riscv-bsp-v5_1_0-branch/libgcc/soft-fp/adddf3.c:46 (discriminator 104)
    3d18:	00ffd333          	srl	t1,t6,a5
    3d1c:	0007d8db          	beqc	a5,32,3d2c <__adddf3+0x96c>
/cygdrive/d/Jenkins/workspace/build-system-3/source-packages/gcc-7.4.0-riscv-bsp-v5_1_0-branch/libgcc/soft-fp/adddf3.c:46 (discriminator 111)
    3d20:	40f007b3          	neg	a5,a5
    3d24:	00ff9833          	sll	a6,t6,a5
    3d28:	01056533          	or	a0,a0,a6
/cygdrive/d/Jenkins/workspace/build-system-3/source-packages/gcc-7.4.0-riscv-bsp-v5_1_0-branch/libgcc/soft-fp/adddf3.c:46 (discriminator 114)
    3d2c:	00a03533          	snez	a0,a0
    3d30:	00656333          	or	t1,a0,t1
    3d34:	e4dff06f          	j	3b80 <__adddf3+0x7c0>
/cygdrive/d/Jenkins/workspace/build-system-3/source-packages/gcc-7.4.0-riscv-bsp-v5_1_0-branch/libgcc/soft-fp/adddf3.c:46 (discriminator 174)
    3d38:	d00298e3          	bnez	t0,3a48 <__adddf3+0x688>
/cygdrive/d/Jenkins/workspace/build-system-3/source-packages/gcc-7.4.0-riscv-bsp-v5_1_0-branch/libgcc/soft-fp/adddf3.c:46
    3d3c:	4881                	c.li	a7,0
    3d3e:	4e15                	c.li	t3,5
    3d40:	a99ff06f          	j	37d8 <__adddf3+0x418>
/cygdrive/d/Jenkins/workspace/build-system-3/source-packages/gcc-7.4.0-riscv-bsp-v5_1_0-branch/libgcc/soft-fp/adddf3.c:46 (discriminator 78)
    3d44:	00c50333          	add	t1,a0,a2
    3d48:	977e                	c.add	a4,t6
    3d4a:	00c33633          	sltu	a2,t1,a2
    3d4e:	9732                	c.add	a4,a2
/cygdrive/d/Jenkins/workspace/build-system-3/source-packages/gcc-7.4.0-riscv-bsp-v5_1_0-branch/libgcc/soft-fp/adddf3.c:45 (discriminator 78)
    3d50:	85b6                	c.mv	a1,a3
/cygdrive/d/Jenkins/workspace/build-system-3/source-packages/gcc-7.4.0-riscv-bsp-v5_1_0-branch/libgcc/soft-fp/adddf3.c:46 (discriminator 78)
    3d52:	bee9                	c.j	392c <__adddf3+0x56c>
/cygdrive/d/Jenkins/workspace/build-system-3/source-packages/gcc-7.4.0-riscv-bsp-v5_1_0-branch/libgcc/soft-fp/adddf3.c:46 (discriminator 140)
    3d54:	00c766b3          	or	a3,a4,a2
    3d58:	fac5                	c.bnez	a3,3d08 <__adddf3+0x948>
/cygdrive/d/Jenkins/workspace/build-system-3/source-packages/gcc-7.4.0-riscv-bsp-v5_1_0-branch/libgcc/soft-fp/adddf3.c:46
    3d5a:	ea0791e3          	bnez	a5,3bfc <__adddf3+0x83c>
    3d5e:	b949                	c.j	39f0 <__adddf3+0x630>
/cygdrive/d/Jenkins/workspace/build-system-3/source-packages/gcc-7.4.0-riscv-bsp-v5_1_0-branch/libgcc/soft-fp/adddf3.c:46 (discriminator 158)
    3d60:	ce0894e3          	bnez	a7,3a48 <__adddf3+0x688>
/cygdrive/d/Jenkins/workspace/build-system-3/source-packages/gcc-7.4.0-riscv-bsp-v5_1_0-branch/libgcc/soft-fp/adddf3.c:46
    3d64:	4e15                	c.li	t3,5
    3d66:	bc8d                	c.j	37d8 <__adddf3+0x418>
    3d68:	f6b69ee3          	bne	a3,a1,3ce4 <__adddf3+0x924>
    3d6c:	00c766b3          	or	a3,a4,a2
    3d70:	c80680e3          	beqz	a3,39f0 <__adddf3+0x630>
    3d74:	f95ff06f          	j	3d08 <__adddf3+0x948>
/cygdrive/d/Jenkins/workspace/build-system-3/source-packages/gcc-7.4.0-riscv-bsp-v5_1_0-branch/libgcc/soft-fp/adddf3.c:47
    3d78:	4e01                	c.li	t3,0
    3d7a:	7fe00793          	li	a5,2046
    3d7e:	4515                	c.li	a0,5
    3d80:	537d                	c.li	t1,-1
    3d82:	577d                	c.li	a4,-1
    3d84:	a71ff06f          	j	37f4 <__adddf3+0x434>
    3d88:	851a                	c.mv	a0,t1
    3d8a:	8ebe                	c.mv	t4,a5
    3d8c:	8fba                	c.mv	t6,a4
    3d8e:	b0f9                	c.j	365c <__adddf3+0x29c>
    3d90:	00100e13          	li	t3,1
    3d94:	f6cff06f          	j	3500 <__adddf3+0x140>
    3d98:	008006b7          	lui	a3,0x800
    3d9c:	8672                	c.mv	a2,t3
    3d9e:	8ef9                	c.and	a3,a4
    3da0:	8e76                	c.mv	t3,t4
    3da2:	b4ad                	c.j	380c <__adddf3+0x44c>

00003da4 <__divdf3>:
__divdf3():
/cygdrive/d/Jenkins/workspace/build-system-3/source-packages/gcc-7.4.0-riscv-bsp-v5_1_0-branch/libgcc/soft-fp/divdf3.c:36
    3da4:	1101                	c.addi	sp,-32
    3da6:	ce22                	c.swsp	s0,28(sp)
    3da8:	cc26                	c.swsp	s1,24(sp)
    3daa:	ca4a                	c.swsp	s2,20(sp)
    3dac:	c84e                	c.swsp	s3,16(sp)
    3dae:	c652                	c.swsp	s4,12(sp)
/cygdrive/d/Jenkins/workspace/build-system-3/source-packages/gcc-7.4.0-riscv-bsp-v5_1_0-branch/libgcc/soft-fp/divdf3.c:43
    3db0:	00202ef3          	frrm	t4
/cygdrive/d/Jenkins/workspace/build-system-3/source-packages/gcc-7.4.0-riscv-bsp-v5_1_0-branch/libgcc/soft-fp/divdf3.c:44
    3db4:	7945a75b          	bfoz	a4,a1,30,20
    3db8:	4c05a7db          	bfoz	a5,a1,19,0
    3dbc:	81fd                	c.srli	a1,0x1f
    3dbe:	c37d                	c.beqz	a4,3ea4 <__divdf3+0x100>
    3dc0:	7ff00813          	li	a6,2047
    3dc4:	07070a63          	beq	a4,a6,3e38 <__divdf3+0x94>
    3dc8:	078e                	c.slli	a5,0x3
    3dca:	00800837          	lui	a6,0x800
    3dce:	01d55893          	srli	a7,a0,0x1d
    3dd2:	0107e7b3          	or	a5,a5,a6
    3dd6:	00f8e8b3          	or	a7,a7,a5
    3dda:	050e                	c.slli	a0,0x3
    3ddc:	c0170f93          	addi	t6,a4,-1023
    3de0:	4781                	c.li	a5,0
    3de2:	4381                	c.li	t2,0
/cygdrive/d/Jenkins/workspace/build-system-3/source-packages/gcc-7.4.0-riscv-bsp-v5_1_0-branch/libgcc/soft-fp/divdf3.c:37
    3de4:	00000e13          	li	t3,0
/cygdrive/d/Jenkins/workspace/build-system-3/source-packages/gcc-7.4.0-riscv-bsp-v5_1_0-branch/libgcc/soft-fp/divdf3.c:45
    3de8:	7946a85b          	bfoz	a6,a3,30,20
    3dec:	4c06a75b          	bfoz	a4,a3,19,0
    3df0:	01f6d693          	srli	a3,a3,0x1f
    3df4:	06080463          	beqz	a6,3e5c <__divdf3+0xb8>
    3df8:	7ff00313          	li	t1,2047
    3dfc:	0e680a63          	beq	a6,t1,3ef0 <__divdf3+0x14c>
    3e00:	070e                	c.slli	a4,0x3
    3e02:	00800f37          	lui	t5,0x800
    3e06:	01d65313          	srli	t1,a2,0x1d
    3e0a:	01e76733          	or	a4,a4,t5
    3e0e:	c0180813          	addi	a6,a6,-1023 # 7ffc01 <FLASH_SIZE+0x6ffc01>
    3e12:	00e36733          	or	a4,t1,a4
    3e16:	060e                	c.slli	a2,0x3
    3e18:	410f8fb3          	sub	t6,t6,a6
    3e1c:	00000293          	li	t0,0
    3e20:	00d5c833          	xor	a6,a1,a3
/cygdrive/d/Jenkins/workspace/build-system-3/source-packages/gcc-7.4.0-riscv-bsp-v5_1_0-branch/libgcc/soft-fp/divdf3.c:46
    3e24:	433d                	c.li	t1,15
    3e26:	8f42                	c.mv	t5,a6
    3e28:	12f36063          	bltu	t1,a5,3f48 <__divdf3+0x1a4>
    3e2c:	5610130b          	addigp	t1,3424 # 81560 <twooverpi.0+0x20>
    3e30:	0cf307db          	lea.w	a5,t1,a5
    3e34:	439c                	c.lw	a5,0(a5)
    3e36:	8782                	c.jr	a5
/cygdrive/d/Jenkins/workspace/build-system-3/source-packages/gcc-7.4.0-riscv-bsp-v5_1_0-branch/libgcc/soft-fp/divdf3.c:44 (discriminator 3)
    3e38:	00a7e8b3          	or	a7,a5,a0
    3e3c:	0e089a63          	bnez	a7,3f30 <__divdf3+0x18c>
/cygdrive/d/Jenkins/workspace/build-system-3/source-packages/gcc-7.4.0-riscv-bsp-v5_1_0-branch/libgcc/soft-fp/divdf3.c:45
    3e40:	7946a85b          	bfoz	a6,a3,30,20
    3e44:	4c06a75b          	bfoz	a4,a3,19,0
    3e48:	47a1                	c.li	a5,8
    3e4a:	4501                	c.li	a0,0
    3e4c:	7ff00f93          	li	t6,2047
/cygdrive/d/Jenkins/workspace/build-system-3/source-packages/gcc-7.4.0-riscv-bsp-v5_1_0-branch/libgcc/soft-fp/divdf3.c:44
    3e50:	4389                	c.li	t2,2
/cygdrive/d/Jenkins/workspace/build-system-3/source-packages/gcc-7.4.0-riscv-bsp-v5_1_0-branch/libgcc/soft-fp/divdf3.c:37
    3e52:	4e01                	c.li	t3,0
/cygdrive/d/Jenkins/workspace/build-system-3/source-packages/gcc-7.4.0-riscv-bsp-v5_1_0-branch/libgcc/soft-fp/divdf3.c:45
    3e54:	01f6d693          	srli	a3,a3,0x1f
    3e58:	fa0810e3          	bnez	a6,3df8 <__divdf3+0x54>
/cygdrive/d/Jenkins/workspace/build-system-3/source-packages/gcc-7.4.0-riscv-bsp-v5_1_0-branch/libgcc/soft-fp/divdf3.c:45 (discriminator 2)
    3e5c:	00c76833          	or	a6,a4,a2
    3e60:	0a080663          	beqz	a6,3f0c <__divdf3+0x168>
/cygdrive/d/Jenkins/workspace/build-system-3/source-packages/gcc-7.4.0-riscv-bsp-v5_1_0-branch/libgcc/soft-fp/divdf3.c:45 (discriminator 11)
    3e64:	af97087f          	clz32	a6,a4
    3e68:	00071663          	bnez	a4,3e74 <__divdf3+0xd0>
/cygdrive/d/Jenkins/workspace/build-system-3/source-packages/gcc-7.4.0-riscv-bsp-v5_1_0-branch/libgcc/soft-fp/divdf3.c:45 (discriminator 18)
    3e6c:	af96087f          	clz32	a6,a2
    3e70:	02080813          	addi	a6,a6,32
/cygdrive/d/Jenkins/workspace/build-system-3/source-packages/gcc-7.4.0-riscv-bsp-v5_1_0-branch/libgcc/soft-fp/divdf3.c:45 (discriminator 25)
    3e74:	ff580293          	addi	t0,a6,-11
    3e78:	4371                	c.li	t1,28
    3e7a:	36534363          	blt	t1,t0,41e0 <__divdf3+0x43c>
/cygdrive/d/Jenkins/workspace/build-system-3/source-packages/gcc-7.4.0-riscv-bsp-v5_1_0-branch/libgcc/soft-fp/divdf3.c:45 (discriminator 26)
    3e7e:	4375                	c.li	t1,29
    3e80:	ff880f13          	addi	t5,a6,-8
    3e84:	40530333          	sub	t1,t1,t0
    3e88:	00665333          	srl	t1,a2,t1
    3e8c:	01e71733          	sll	a4,a4,t5
    3e90:	00e36733          	or	a4,t1,a4
    3e94:	01e61633          	sll	a2,a2,t5
/cygdrive/d/Jenkins/workspace/build-system-3/source-packages/gcc-7.4.0-riscv-bsp-v5_1_0-branch/libgcc/soft-fp/divdf3.c:45 (discriminator 35)
    3e98:	9fc2                	c.add	t6,a6
    3e9a:	3f3f8f93          	addi	t6,t6,1011
    3e9e:	4281                	c.li	t0,0
    3ea0:	f81ff06f          	j	3e20 <__divdf3+0x7c>
/cygdrive/d/Jenkins/workspace/build-system-3/source-packages/gcc-7.4.0-riscv-bsp-v5_1_0-branch/libgcc/soft-fp/divdf3.c:44 (discriminator 2)
    3ea4:	00a7e8b3          	or	a7,a5,a0
    3ea8:	06088e63          	beqz	a7,3f24 <__divdf3+0x180>
/cygdrive/d/Jenkins/workspace/build-system-3/source-packages/gcc-7.4.0-riscv-bsp-v5_1_0-branch/libgcc/soft-fp/divdf3.c:44 (discriminator 11)
    3eac:	af97877f          	clz32	a4,a5
    3eb0:	00079663          	bnez	a5,3ebc <__divdf3+0x118>
/cygdrive/d/Jenkins/workspace/build-system-3/source-packages/gcc-7.4.0-riscv-bsp-v5_1_0-branch/libgcc/soft-fp/divdf3.c:44 (discriminator 18)
    3eb4:	af95077f          	clz32	a4,a0
    3eb8:	02070713          	addi	a4,a4,32
/cygdrive/d/Jenkins/workspace/build-system-3/source-packages/gcc-7.4.0-riscv-bsp-v5_1_0-branch/libgcc/soft-fp/divdf3.c:44 (discriminator 25)
    3ebc:	ff570313          	addi	t1,a4,-11
    3ec0:	4871                	c.li	a6,28
    3ec2:	32684563          	blt	a6,t1,41ec <__divdf3+0x448>
/cygdrive/d/Jenkins/workspace/build-system-3/source-packages/gcc-7.4.0-riscv-bsp-v5_1_0-branch/libgcc/soft-fp/divdf3.c:44 (discriminator 26)
    3ec6:	48f5                	c.li	a7,29
    3ec8:	ff870813          	addi	a6,a4,-8
    3ecc:	406888b3          	sub	a7,a7,t1
    3ed0:	011558b3          	srl	a7,a0,a7
    3ed4:	010797b3          	sll	a5,a5,a6
    3ed8:	00f8e8b3          	or	a7,a7,a5
    3edc:	01051533          	sll	a0,a0,a6
/cygdrive/d/Jenkins/workspace/build-system-3/source-packages/gcc-7.4.0-riscv-bsp-v5_1_0-branch/libgcc/soft-fp/divdf3.c:44 (discriminator 35)
    3ee0:	c0d00f93          	li	t6,-1011
    3ee4:	40ef8fb3          	sub	t6,t6,a4
    3ee8:	4781                	c.li	a5,0
    3eea:	4381                	c.li	t2,0
    3eec:	4e01                	c.li	t3,0
    3eee:	bded                	c.j	3de8 <__divdf3+0x44>
/cygdrive/d/Jenkins/workspace/build-system-3/source-packages/gcc-7.4.0-riscv-bsp-v5_1_0-branch/libgcc/soft-fp/divdf3.c:45 (discriminator 3)
    3ef0:	00c76833          	or	a6,a4,a2
    3ef4:	801f8f93          	addi	t6,t6,-2047
    3ef8:	02080063          	beqz	a6,3f18 <__divdf3+0x174>
    3efc:	0037e793          	ori	a5,a5,3
/cygdrive/d/Jenkins/workspace/build-system-3/source-packages/gcc-7.4.0-riscv-bsp-v5_1_0-branch/libgcc/soft-fp/divdf3.c:45 (discriminator 37)
    3f00:	428d                	c.li	t0,3
    3f02:	f1377f5b          	bbs	a4,19,3e20 <__divdf3+0x7c>
/cygdrive/d/Jenkins/workspace/build-system-3/source-packages/gcc-7.4.0-riscv-bsp-v5_1_0-branch/libgcc/soft-fp/divdf3.c:45
    3f06:	4e41                	c.li	t3,16
    3f08:	f19ff06f          	j	3e20 <__divdf3+0x7c>
    3f0c:	0017e793          	ori	a5,a5,1
    3f10:	4701                	c.li	a4,0
    3f12:	4601                	c.li	a2,0
    3f14:	4285                	c.li	t0,1
    3f16:	b729                	c.j	3e20 <__divdf3+0x7c>
    3f18:	0027e793          	ori	a5,a5,2
    3f1c:	4701                	c.li	a4,0
    3f1e:	4601                	c.li	a2,0
    3f20:	4289                	c.li	t0,2
    3f22:	bdfd                	c.j	3e20 <__divdf3+0x7c>
    3f24:	4791                	c.li	a5,4
    3f26:	4501                	c.li	a0,0
    3f28:	4f81                	c.li	t6,0
/cygdrive/d/Jenkins/workspace/build-system-3/source-packages/gcc-7.4.0-riscv-bsp-v5_1_0-branch/libgcc/soft-fp/divdf3.c:44
    3f2a:	4385                	c.li	t2,1
/cygdrive/d/Jenkins/workspace/build-system-3/source-packages/gcc-7.4.0-riscv-bsp-v5_1_0-branch/libgcc/soft-fp/divdf3.c:37
    3f2c:	4e01                	c.li	t3,0
    3f2e:	bd6d                	c.j	3de8 <__divdf3+0x44>
/cygdrive/d/Jenkins/workspace/build-system-3/source-packages/gcc-7.4.0-riscv-bsp-v5_1_0-branch/libgcc/soft-fp/divdf3.c:44 (discriminator 37)
    3f30:	0137d713          	srli	a4,a5,0x13
    3f34:	88be                	c.mv	a7,a5
    3f36:	7ff00f93          	li	t6,2047
    3f3a:	47b1                	c.li	a5,12
    3f3c:	438d                	c.li	t2,3
    3f3e:	4e41                	c.li	t3,16
    3f40:	ea0704e3          	beqz	a4,3de8 <__divdf3+0x44>
/cygdrive/d/Jenkins/workspace/build-system-3/source-packages/gcc-7.4.0-riscv-bsp-v5_1_0-branch/libgcc/soft-fp/divdf3.c:37
    3f44:	4e01                	c.li	t3,0
    3f46:	b54d                	c.j	3de8 <__divdf3+0x44>
/cygdrive/d/Jenkins/workspace/build-system-3/source-packages/gcc-7.4.0-riscv-bsp-v5_1_0-branch/libgcc/soft-fp/divdf3.c:46 (discriminator 2)
    3f48:	2f176063          	bltu	a4,a7,4228 <__divdf3+0x484>
/cygdrive/d/Jenkins/workspace/build-system-3/source-packages/gcc-7.4.0-riscv-bsp-v5_1_0-branch/libgcc/soft-fp/divdf3.c:46 (discriminator 11)
    3f4c:	2ce88c63          	beq	a7,a4,4224 <__divdf3+0x480>
/cygdrive/d/Jenkins/workspace/build-system-3/source-packages/gcc-7.4.0-riscv-bsp-v5_1_0-branch/libgcc/soft-fp/divdf3.c:46 (discriminator 15)
    3f50:	85aa                	c.mv	a1,a0
    3f52:	1ffd                	c.addi	t6,-1
    3f54:	00000513          	li	a0,0
/cygdrive/d/Jenkins/workspace/build-system-3/source-packages/gcc-7.4.0-riscv-bsp-v5_1_0-branch/libgcc/soft-fp/divdf3.c:46 (discriminator 19)
    3f58:	0722                	c.slli	a4,0x8
    3f5a:	01865313          	srli	t1,a2,0x18
    3f5e:	00e36333          	or	t1,t1,a4
    3f62:	01035293          	srli	t0,t1,0x10
    3f66:	0258d733          	divu	a4,a7,t0
    3f6a:	3c0323db          	bfoz	t2,t1,15,0
    3f6e:	00861413          	slli	s0,a2,0x8
    3f72:	0105d793          	srli	a5,a1,0x10
    3f76:	0258f8b3          	remu	a7,a7,t0
    3f7a:	02e38633          	mul	a2,t2,a4
    3f7e:	08c2                	c.slli	a7,0x10
    3f80:	0117e7b3          	or	a5,a5,a7
    3f84:	00c7fc63          	bgeu	a5,a2,3f9c <__divdf3+0x1f8>
/cygdrive/d/Jenkins/workspace/build-system-3/source-packages/gcc-7.4.0-riscv-bsp-v5_1_0-branch/libgcc/soft-fp/divdf3.c:46 (discriminator 22)
    3f88:	979a                	c.add	a5,t1
    3f8a:	fff70693          	addi	a3,a4,-1
    3f8e:	3a67e963          	bltu	a5,t1,4340 <__divdf3+0x59c>
/cygdrive/d/Jenkins/workspace/build-system-3/source-packages/gcc-7.4.0-riscv-bsp-v5_1_0-branch/libgcc/soft-fp/divdf3.c:46 (discriminator 24)
    3f92:	3ac7f763          	bgeu	a5,a2,4340 <__divdf3+0x59c>
/cygdrive/d/Jenkins/workspace/build-system-3/source-packages/gcc-7.4.0-riscv-bsp-v5_1_0-branch/libgcc/soft-fp/divdf3.c:46 (discriminator 26)
    3f96:	1779                	c.addi	a4,-2
    3f98:	006787b3          	add	a5,a5,t1
/cygdrive/d/Jenkins/workspace/build-system-3/source-packages/gcc-7.4.0-riscv-bsp-v5_1_0-branch/libgcc/soft-fp/divdf3.c:46 (discriminator 28)
    3f9c:	8f91                	c.sub	a5,a2
    3f9e:	0257d6b3          	divu	a3,a5,t0
    3fa2:	0257f7b3          	remu	a5,a5,t0
    3fa6:	02d38933          	mul	s2,t2,a3
    3faa:	0eb797ff          	pkbb16	a5,a5,a1
    3fae:	0127fb63          	bgeu	a5,s2,3fc4 <__divdf3+0x220>
/cygdrive/d/Jenkins/workspace/build-system-3/source-packages/gcc-7.4.0-riscv-bsp-v5_1_0-branch/libgcc/soft-fp/divdf3.c:46 (discriminator 29)
    3fb2:	979a                	c.add	a5,t1
    3fb4:	fff68613          	addi	a2,a3,-1 # 7fffff <FLASH_SIZE+0x6fffff>
    3fb8:	3867e663          	bltu	a5,t1,4344 <__divdf3+0x5a0>
/cygdrive/d/Jenkins/workspace/build-system-3/source-packages/gcc-7.4.0-riscv-bsp-v5_1_0-branch/libgcc/soft-fp/divdf3.c:46 (discriminator 31)
    3fbc:	3927f463          	bgeu	a5,s2,4344 <__divdf3+0x5a0>
/cygdrive/d/Jenkins/workspace/build-system-3/source-packages/gcc-7.4.0-riscv-bsp-v5_1_0-branch/libgcc/soft-fp/divdf3.c:46 (discriminator 33)
    3fc0:	16f9                	c.addi	a3,-2
    3fc2:	979a                	c.add	a5,t1
/cygdrive/d/Jenkins/workspace/build-system-3/source-packages/gcc-7.4.0-riscv-bsp-v5_1_0-branch/libgcc/soft-fp/divdf3.c:46 (discriminator 35)
    3fc4:	0742                	c.slli	a4,0x10
    3fc6:	69c1                	c.lui	s3,0x10
    3fc8:	8f55                	c.or	a4,a3
    3fca:	fff98693          	addi	a3,s3,-1 # ffff <BIN_SIZE+0x7d7d>
    3fce:	00d478b3          	and	a7,s0,a3
    3fd2:	01075613          	srli	a2,a4,0x10
    3fd6:	031605b3          	mul	a1,a2,a7
    3fda:	8ef9                	c.and	a3,a4
    3fdc:	01045493          	srli	s1,s0,0x10
    3fe0:	412787b3          	sub	a5,a5,s2
    3fe4:	03168a33          	mul	s4,a3,a7
    3fe8:	892e                	c.mv	s2,a1
    3fea:	c4d4997f          	maddr32	s2,s1,a3
    3fee:	02960633          	mul	a2,a2,s1
    3ff2:	010a5693          	srli	a3,s4,0x10
    3ff6:	96ca                	c.add	a3,s2
    3ff8:	00b6f463          	bgeu	a3,a1,4000 <__divdf3+0x25c>
/cygdrive/d/Jenkins/workspace/build-system-3/source-packages/gcc-7.4.0-riscv-bsp-v5_1_0-branch/libgcc/soft-fp/divdf3.c:46 (discriminator 36)
    3ffc:	01360633          	add	a2,a2,s3
/cygdrive/d/Jenkins/workspace/build-system-3/source-packages/gcc-7.4.0-riscv-bsp-v5_1_0-branch/libgcc/soft-fp/divdf3.c:46 (discriminator 38)
    4000:	69c1                	c.lui	s3,0x10
    4002:	19fd                	c.addi	s3,-1
    4004:	0106d913          	srli	s2,a3,0x10
    4008:	0136f5b3          	and	a1,a3,s3
    400c:	05c2                	c.slli	a1,0x10
    400e:	013a76b3          	and	a3,s4,s3
    4012:	964a                	c.add	a2,s2
    4014:	00d585b3          	add	a1,a1,a3
    4018:	1ec7e463          	bltu	a5,a2,4200 <__divdf3+0x45c>
/cygdrive/d/Jenkins/workspace/build-system-3/source-packages/gcc-7.4.0-riscv-bsp-v5_1_0-branch/libgcc/soft-fp/divdf3.c:46 (discriminator 40)
    401c:	1cc78e63          	beq	a5,a2,41f8 <__divdf3+0x454>
    4020:	40c786b3          	sub	a3,a5,a2
/cygdrive/d/Jenkins/workspace/build-system-3/source-packages/gcc-7.4.0-riscv-bsp-v5_1_0-branch/libgcc/soft-fp/divdf3.c:46 (discriminator 57)
    4024:	40b505b3          	sub	a1,a0,a1
    4028:	00b53533          	sltu	a0,a0,a1
    402c:	40a68533          	sub	a0,a3,a0
    4030:	3fff8793          	addi	a5,t6,1023
    4034:	3aa30863          	beq	t1,a0,43e4 <__divdf3+0x640>
/cygdrive/d/Jenkins/workspace/build-system-3/source-packages/gcc-7.4.0-riscv-bsp-v5_1_0-branch/libgcc/soft-fp/divdf3.c:46 (discriminator 59)
    4038:	02555633          	divu	a2,a0,t0
    403c:	0105d693          	srli	a3,a1,0x10
    4040:	02557533          	remu	a0,a0,t0
    4044:	02c38833          	mul	a6,t2,a2
    4048:	0542                	c.slli	a0,0x10
    404a:	8d55                	c.or	a0,a3
    404c:	01057c63          	bgeu	a0,a6,4064 <__divdf3+0x2c0>
/cygdrive/d/Jenkins/workspace/build-system-3/source-packages/gcc-7.4.0-riscv-bsp-v5_1_0-branch/libgcc/soft-fp/divdf3.c:46 (discriminator 60)
    4050:	951a                	c.add	a0,t1
    4052:	fff60693          	addi	a3,a2,-1
    4056:	3a656763          	bltu	a0,t1,4404 <__divdf3+0x660>
/cygdrive/d/Jenkins/workspace/build-system-3/source-packages/gcc-7.4.0-riscv-bsp-v5_1_0-branch/libgcc/soft-fp/divdf3.c:46 (discriminator 62)
    405a:	3b057563          	bgeu	a0,a6,4404 <__divdf3+0x660>
/cygdrive/d/Jenkins/workspace/build-system-3/source-packages/gcc-7.4.0-riscv-bsp-v5_1_0-branch/libgcc/soft-fp/divdf3.c:46 (discriminator 64)
    405e:	1679                	c.addi	a2,-2
    4060:	00650533          	add	a0,a0,t1
/cygdrive/d/Jenkins/workspace/build-system-3/source-packages/gcc-7.4.0-riscv-bsp-v5_1_0-branch/libgcc/soft-fp/divdf3.c:46 (discriminator 66)
    4064:	41050533          	sub	a0,a0,a6
    4068:	025556b3          	divu	a3,a0,t0
    406c:	02557533          	remu	a0,a0,t0
    4070:	02d383b3          	mul	t2,t2,a3
    4074:	0eb5157f          	pkbb16	a0,a0,a1
    4078:	00757c63          	bgeu	a0,t2,4090 <__divdf3+0x2ec>
/cygdrive/d/Jenkins/workspace/build-system-3/source-packages/gcc-7.4.0-riscv-bsp-v5_1_0-branch/libgcc/soft-fp/divdf3.c:46 (discriminator 67)
    407c:	951a                	c.add	a0,t1
    407e:	fff68593          	addi	a1,a3,-1
    4082:	36656f63          	bltu	a0,t1,4400 <__divdf3+0x65c>
/cygdrive/d/Jenkins/workspace/build-system-3/source-packages/gcc-7.4.0-riscv-bsp-v5_1_0-branch/libgcc/soft-fp/divdf3.c:46 (discriminator 69)
    4086:	36757d63          	bgeu	a0,t2,4400 <__divdf3+0x65c>
/cygdrive/d/Jenkins/workspace/build-system-3/source-packages/gcc-7.4.0-riscv-bsp-v5_1_0-branch/libgcc/soft-fp/divdf3.c:46 (discriminator 71)
    408a:	16f9                	c.addi	a3,-2
    408c:	00650533          	add	a0,a0,t1
/cygdrive/d/Jenkins/workspace/build-system-3/source-packages/gcc-7.4.0-riscv-bsp-v5_1_0-branch/libgcc/soft-fp/divdf3.c:46 (discriminator 73)
    4090:	0642                	c.slli	a2,0x10
    4092:	8e55                	c.or	a2,a3
    4094:	01065813          	srli	a6,a2,0x10
    4098:	031805b3          	mul	a1,a6,a7
    409c:	3c0626db          	bfoz	a3,a2,15,0
    40a0:	40750533          	sub	a0,a0,t2
    40a4:	02d888b3          	mul	a7,a7,a3
    40a8:	82ae                	c.mv	t0,a1
    40aa:	c4d492ff          	maddr32	t0,s1,a3
    40ae:	030484b3          	mul	s1,s1,a6
    40b2:	0108d693          	srli	a3,a7,0x10
    40b6:	9696                	c.add	a3,t0
    40b8:	00b6f463          	bgeu	a3,a1,40c0 <__divdf3+0x31c>
/cygdrive/d/Jenkins/workspace/build-system-3/source-packages/gcc-7.4.0-riscv-bsp-v5_1_0-branch/libgcc/soft-fp/divdf3.c:46 (discriminator 74)
    40bc:	65c1                	c.lui	a1,0x10
    40be:	94ae                	c.add	s1,a1
/cygdrive/d/Jenkins/workspace/build-system-3/source-packages/gcc-7.4.0-riscv-bsp-v5_1_0-branch/libgcc/soft-fp/divdf3.c:46 (discriminator 76)
    40c0:	6841                	c.lui	a6,0x10
    40c2:	187d                	c.addi	a6,-1
    40c4:	0106d593          	srli	a1,a3,0x10
    40c8:	0106f6b3          	and	a3,a3,a6
    40cc:	06c2                	c.slli	a3,0x10
    40ce:	0108f8b3          	and	a7,a7,a6
    40d2:	94ae                	c.add	s1,a1
    40d4:	00d888b3          	add	a7,a7,a3
    40d8:	22957263          	bgeu	a0,s1,42fc <__divdf3+0x558>
/cygdrive/d/Jenkins/workspace/build-system-3/source-packages/gcc-7.4.0-riscv-bsp-v5_1_0-branch/libgcc/soft-fp/divdf3.c:46 (discriminator 81)
    40dc:	951a                	c.add	a0,t1
    40de:	fff60693          	addi	a3,a2,-1
    40e2:	3c656163          	bltu	a0,t1,44a4 <__divdf3+0x700>
/cygdrive/d/Jenkins/workspace/build-system-3/source-packages/gcc-7.4.0-riscv-bsp-v5_1_0-branch/libgcc/soft-fp/divdf3.c:46 (discriminator 87)
    40e6:	32956963          	bltu	a0,s1,4418 <__divdf3+0x674>
/cygdrive/d/Jenkins/workspace/build-system-3/source-packages/gcc-7.4.0-riscv-bsp-v5_1_0-branch/libgcc/soft-fp/divdf3.c:46 (discriminator 90)
    40ea:	42950f63          	beq	a0,s1,4528 <__divdf3+0x784>
/cygdrive/d/Jenkins/workspace/build-system-3/source-packages/gcc-7.4.0-riscv-bsp-v5_1_0-branch/libgcc/soft-fp/divdf3.c:46
    40ee:	8636                	c.mv	a2,a3
/cygdrive/d/Jenkins/workspace/build-system-3/source-packages/gcc-7.4.0-riscv-bsp-v5_1_0-branch/libgcc/soft-fp/divdf3.c:46 (discriminator 98)
    40f0:	00166613          	ori	a2,a2,1
/cygdrive/d/Jenkins/workspace/build-system-3/source-packages/gcc-7.4.0-riscv-bsp-v5_1_0-branch/libgcc/soft-fp/divdf3.c:47 (discriminator 2)
    40f4:	18f05c63          	blez	a5,428c <__divdf3+0x4e8>
/cygdrive/d/Jenkins/workspace/build-system-3/source-packages/gcc-7.4.0-riscv-bsp-v5_1_0-branch/libgcc/soft-fp/divdf3.c:47 (discriminator 6)
    40f8:	00767693          	andi	a3,a2,7
    40fc:	20069e63          	bnez	a3,4318 <__divdf3+0x574>
    4100:	01e00833          	add	a6,zero,t5
/cygdrive/d/Jenkins/workspace/build-system-3/source-packages/gcc-7.4.0-riscv-bsp-v5_1_0-branch/libgcc/soft-fp/divdf3.c:47 (discriminator 16)
    4104:	0187785b          	bbc	a4,24,4114 <__divdf3+0x370>
/cygdrive/d/Jenkins/workspace/build-system-3/source-packages/gcc-7.4.0-riscv-bsp-v5_1_0-branch/libgcc/soft-fp/divdf3.c:47 (discriminator 21)
    4108:	ff0007b7          	lui	a5,0xff000
    410c:	17fd                	c.addi	a5,-1
    410e:	8f7d                	c.and	a4,a5
    4110:	400f8793          	addi	a5,t6,1024
/cygdrive/d/Jenkins/workspace/build-system-3/source-packages/gcc-7.4.0-riscv-bsp-v5_1_0-branch/libgcc/soft-fp/divdf3.c:47 (discriminator 23)
    4114:	7fe00693          	li	a3,2046
    4118:	12f6c263          	blt	a3,a5,423c <__divdf3+0x498>
/cygdrive/d/Jenkins/workspace/build-system-3/source-packages/gcc-7.4.0-riscv-bsp-v5_1_0-branch/libgcc/soft-fp/divdf3.c:47
    411c:	00365693          	srli	a3,a2,0x3
    4120:	01d71613          	slli	a2,a4,0x1d
    4124:	8e55                	c.or	a2,a3
    4126:	7ff7f793          	andi	a5,a5,2047
    412a:	583726db          	bfoz	a3,a4,22,3
    412e:	a01d                	c.j	4154 <__divdf3+0x3b0>
/cygdrive/d/Jenkins/workspace/build-system-3/source-packages/gcc-7.4.0-riscv-bsp-v5_1_0-branch/libgcc/soft-fp/divdf3.c:44
    4130:	8f2e                	c.mv	t5,a1
    4132:	8746                	c.mv	a4,a7
    4134:	862a                	c.mv	a2,a0
/cygdrive/d/Jenkins/workspace/build-system-3/source-packages/gcc-7.4.0-riscv-bsp-v5_1_0-branch/libgcc/soft-fp/divdf3.c:46
    4136:	829e                	c.mv	t0,t2
/cygdrive/d/Jenkins/workspace/build-system-3/source-packages/gcc-7.4.0-riscv-bsp-v5_1_0-branch/libgcc/soft-fp/divdf3.c:47
    4138:	3822da5b          	beqc	t0,2,44cc <__divdf3+0x728>
    413c:	0832da5b          	beqc	t0,3,41d0 <__divdf3+0x42c>
    4140:	3012dc5b          	beqc	t0,1,4458 <__divdf3+0x6b4>
    4144:	3fff8793          	addi	a5,t6,1023
    4148:	fadff06f          	j	40f4 <__divdf3+0x350>
/cygdrive/d/Jenkins/workspace/build-system-3/source-packages/gcc-7.4.0-riscv-bsp-v5_1_0-branch/libgcc/soft-fp/divdf3.c:46
    414c:	7ff00793          	li	a5,2047
    4150:	4681                	c.li	a3,0
/cygdrive/d/Jenkins/workspace/build-system-3/source-packages/gcc-7.4.0-riscv-bsp-v5_1_0-branch/libgcc/soft-fp/divdf3.c:47
    4152:	4601                	c.li	a2,0
/cygdrive/d/Jenkins/workspace/build-system-3/source-packages/gcc-7.4.0-riscv-bsp-v5_1_0-branch/libgcc/soft-fp/divdf3.c:47 (discriminator 108)
    4154:	4581                	c.li	a1,0
    4156:	fff00737          	lui	a4,0xfff00
    415a:	8f6d                	c.and	a4,a1
    415c:	4c06a6db          	bfoz	a3,a3,19,0
    4160:	8f55                	c.or	a4,a3
    4162:	01479693          	slli	a3,a5,0x14
    4166:	801007b7          	lui	a5,0x80100
    416a:	17fd                	c.addi	a5,-1
    416c:	8ff9                	c.and	a5,a4
    416e:	8fd5                	c.or	a5,a3
    4170:	087e                	c.slli	a6,0x1f
    4172:	7807a7db          	bfoz	a5,a5,30,0
    4176:	8532                	c.mv	a0,a2
    4178:	0107e5b3          	or	a1,a5,a6
/cygdrive/d/Jenkins/workspace/build-system-3/source-packages/gcc-7.4.0-riscv-bsp-v5_1_0-branch/libgcc/soft-fp/divdf3.c:48 (discriminator 108)
    417c:	020e1863          	bnez	t3,41ac <__divdf3+0x408>
/cygdrive/d/Jenkins/workspace/build-system-3/source-packages/gcc-7.4.0-riscv-bsp-v5_1_0-branch/libgcc/soft-fp/divdf3.c:51
    4180:	4472                	c.lwsp	s0,28(sp)
    4182:	44e2                	c.lwsp	s1,24(sp)
    4184:	4952                	c.lwsp	s2,20(sp)
    4186:	49c2                	c.lwsp	s3,16(sp)
    4188:	4a32                	c.lwsp	s4,12(sp)
    418a:	6105                	c.addi16sp	sp,32
    418c:	00008067          	ret
/cygdrive/d/Jenkins/workspace/build-system-3/source-packages/gcc-7.4.0-riscv-bsp-v5_1_0-branch/libgcc/soft-fp/divdf3.c:45
    4190:	8f36                	c.mv	t5,a3
    4192:	b75d                	c.j	4138 <__divdf3+0x394>
/cygdrive/d/Jenkins/workspace/build-system-3/source-packages/gcc-7.4.0-riscv-bsp-v5_1_0-branch/libgcc/soft-fp/divdf3.c:46
    4194:	4781                	c.li	a5,0
    4196:	4681                	c.li	a3,0
/cygdrive/d/Jenkins/workspace/build-system-3/source-packages/gcc-7.4.0-riscv-bsp-v5_1_0-branch/libgcc/soft-fp/divdf3.c:47
    4198:	4601                	c.li	a2,0
    419a:	bf6d                	c.j	4154 <__divdf3+0x3b0>
/cygdrive/d/Jenkins/workspace/build-system-3/source-packages/gcc-7.4.0-riscv-bsp-v5_1_0-branch/libgcc/soft-fp/divdf3.c:47 (discriminator 3)
    419c:	7ff007b7          	lui	a5,0x7ff00
    41a0:	087e                	c.slli	a6,0x1f
    41a2:	4501                	c.li	a0,0
    41a4:	0107e5b3          	or	a1,a5,a6
/cygdrive/d/Jenkins/workspace/build-system-3/source-packages/gcc-7.4.0-riscv-bsp-v5_1_0-branch/libgcc/soft-fp/divdf3.c:46 (discriminator 3)
    41a8:	008e6e13          	ori	t3,t3,8
/cygdrive/d/Jenkins/workspace/build-system-3/source-packages/gcc-7.4.0-riscv-bsp-v5_1_0-branch/libgcc/soft-fp/divdf3.c:48 (discriminator 1)
    41ac:	001e2073          	csrs	fflags,t3
/cygdrive/d/Jenkins/workspace/build-system-3/source-packages/gcc-7.4.0-riscv-bsp-v5_1_0-branch/libgcc/soft-fp/divdf3.c:51
    41b0:	4472                	c.lwsp	s0,28(sp)
    41b2:	44e2                	c.lwsp	s1,24(sp)
    41b4:	4952                	c.lwsp	s2,20(sp)
    41b6:	49c2                	c.lwsp	s3,16(sp)
    41b8:	4a32                	c.lwsp	s4,12(sp)
    41ba:	6105                	c.addi16sp	sp,32
    41bc:	00008067          	ret
/cygdrive/d/Jenkins/workspace/build-system-3/source-packages/gcc-7.4.0-riscv-bsp-v5_1_0-branch/libgcc/soft-fp/divdf3.c:46
    41c0:	4801                	c.li	a6,0
    41c2:	7ff00793          	li	a5,2047
    41c6:	000806b7          	lui	a3,0x80
/cygdrive/d/Jenkins/workspace/build-system-3/source-packages/gcc-7.4.0-riscv-bsp-v5_1_0-branch/libgcc/soft-fp/divdf3.c:47
    41ca:	4601                	c.li	a2,0
/cygdrive/d/Jenkins/workspace/build-system-3/source-packages/gcc-7.4.0-riscv-bsp-v5_1_0-branch/libgcc/soft-fp/divdf3.c:46
    41cc:	4e41                	c.li	t3,16
    41ce:	b759                	c.j	4154 <__divdf3+0x3b0>
/cygdrive/d/Jenkins/workspace/build-system-3/source-packages/gcc-7.4.0-riscv-bsp-v5_1_0-branch/libgcc/soft-fp/divdf3.c:47
    41d0:	4801                	c.li	a6,0
    41d2:	7ff00793          	li	a5,2047
    41d6:	000806b7          	lui	a3,0x80
    41da:	4601                	c.li	a2,0
    41dc:	f79ff06f          	j	4154 <__divdf3+0x3b0>
/cygdrive/d/Jenkins/workspace/build-system-3/source-packages/gcc-7.4.0-riscv-bsp-v5_1_0-branch/libgcc/soft-fp/divdf3.c:45 (discriminator 27)
    41e0:	fd880713          	addi	a4,a6,-40 # ffd8 <BIN_SIZE+0x7d56>
    41e4:	00e61733          	sll	a4,a2,a4
    41e8:	4601                	c.li	a2,0
    41ea:	b17d                	c.j	3e98 <__divdf3+0xf4>
/cygdrive/d/Jenkins/workspace/build-system-3/source-packages/gcc-7.4.0-riscv-bsp-v5_1_0-branch/libgcc/soft-fp/divdf3.c:44 (discriminator 27)
    41ec:	fd870893          	addi	a7,a4,-40 # ffefffd8 <_DATA_LMA_START+0xdfef9400>
    41f0:	011518b3          	sll	a7,a0,a7
    41f4:	4501                	c.li	a0,0
    41f6:	b1ed                	c.j	3ee0 <__divdf3+0x13c>
    41f8:	00000693          	li	a3,0
/cygdrive/d/Jenkins/workspace/build-system-3/source-packages/gcc-7.4.0-riscv-bsp-v5_1_0-branch/libgcc/soft-fp/divdf3.c:46 (discriminator 41)
    41fc:	e2b574e3          	bgeu	a0,a1,4024 <__divdf3+0x280>
/cygdrive/d/Jenkins/workspace/build-system-3/source-packages/gcc-7.4.0-riscv-bsp-v5_1_0-branch/libgcc/soft-fp/divdf3.c:46 (discriminator 43)
    4200:	9522                	c.add	a0,s0
    4202:	008536b3          	sltu	a3,a0,s0
    4206:	969a                	c.add	a3,t1
    4208:	00d787b3          	add	a5,a5,a3
    420c:	fff70913          	addi	s2,a4,-1
    4210:	0ef37c63          	bgeu	t1,a5,4308 <__divdf3+0x564>
/cygdrive/d/Jenkins/workspace/build-system-3/source-packages/gcc-7.4.0-riscv-bsp-v5_1_0-branch/libgcc/soft-fp/divdf3.c:46 (discriminator 49)
    4214:	1ec7ea63          	bltu	a5,a2,4408 <__divdf3+0x664>
/cygdrive/d/Jenkins/workspace/build-system-3/source-packages/gcc-7.4.0-riscv-bsp-v5_1_0-branch/libgcc/soft-fp/divdf3.c:46 (discriminator 52)
    4218:	30f60263          	beq	a2,a5,451c <__divdf3+0x778>
    421c:	40c786b3          	sub	a3,a5,a2
/cygdrive/d/Jenkins/workspace/build-system-3/source-packages/gcc-7.4.0-riscv-bsp-v5_1_0-branch/libgcc/soft-fp/divdf3.c:46
    4220:	874a                	c.mv	a4,s2
    4222:	b509                	c.j	4024 <__divdf3+0x280>
/cygdrive/d/Jenkins/workspace/build-system-3/source-packages/gcc-7.4.0-riscv-bsp-v5_1_0-branch/libgcc/soft-fp/divdf3.c:46 (discriminator 12)
    4224:	d2c566e3          	bltu	a0,a2,3f50 <__divdf3+0x1ac>
/cygdrive/d/Jenkins/workspace/build-system-3/source-packages/gcc-7.4.0-riscv-bsp-v5_1_0-branch/libgcc/soft-fp/divdf3.c:46 (discriminator 14)
    4228:	01f89593          	slli	a1,a7,0x1f
    422c:	00155793          	srli	a5,a0,0x1
    4230:	0018d893          	srli	a7,a7,0x1
    4234:	8ddd                	c.or	a1,a5
    4236:	057e                	c.slli	a0,0x1f
    4238:	d21ff06f          	j	3f58 <__divdf3+0x1b4>
/cygdrive/d/Jenkins/workspace/build-system-3/source-packages/gcc-7.4.0-riscv-bsp-v5_1_0-branch/libgcc/soft-fp/divdf3.c:47 (discriminator 24)
    423c:	122ed45b          	beqc	t4,2,4364 <__divdf3+0x5c0>
    4240:	223ed25b          	beqc	t4,3,4464 <__divdf3+0x6c0>
    4244:	120e8263          	beqz	t4,4368 <__divdf3+0x5c4>
    4248:	00100737          	lui	a4,0x100
    424c:	7fe00793          	li	a5,2046
    4250:	fff70693          	addi	a3,a4,-1 # fffff <_STACK_TOP+0x5ffff>
/cygdrive/d/Jenkins/workspace/build-system-3/source-packages/gcc-7.4.0-riscv-bsp-v5_1_0-branch/libgcc/soft-fp/divdf3.c:47
    4254:	fff00613          	li	a2,-1
/cygdrive/d/Jenkins/workspace/build-system-3/source-packages/gcc-7.4.0-riscv-bsp-v5_1_0-branch/libgcc/soft-fp/divdf3.c:47 (discriminator 35)
    4258:	005e6e13          	ori	t3,t3,5
/cygdrive/d/Jenkins/workspace/build-system-3/source-packages/gcc-7.4.0-riscv-bsp-v5_1_0-branch/libgcc/soft-fp/divdf3.c:47
    425c:	4581                	c.li	a1,0
    425e:	fff00737          	lui	a4,0xfff00
    4262:	8532                	c.mv	a0,a2
    4264:	00b77633          	and	a2,a4,a1
    4268:	4c06a75b          	bfoz	a4,a3,19,0
    426c:	8f51                	c.or	a4,a2
    426e:	80100637          	lui	a2,0x80100
    4272:	167d                	c.addi	a2,-1
    4274:	8e79                	c.and	a2,a4
    4276:	07d2                	c.slli	a5,0x14
    4278:	8fd1                	c.or	a5,a2
    427a:	087e                	c.slli	a6,0x1f
    427c:	7807a7db          	bfoz	a5,a5,30,0
    4280:	0107e5b3          	or	a1,a5,a6
/cygdrive/d/Jenkins/workspace/build-system-3/source-packages/gcc-7.4.0-riscv-bsp-v5_1_0-branch/libgcc/soft-fp/divdf3.c:48
    4284:	001e2073          	csrs	fflags,t3
    4288:	f29ff06f          	j	41b0 <__divdf3+0x40c>
/cygdrive/d/Jenkins/workspace/build-system-3/source-packages/gcc-7.4.0-riscv-bsp-v5_1_0-branch/libgcc/soft-fp/divdf3.c:47 (discriminator 7)
    428c:	efd5                	c.bnez	a5,4348 <__divdf3+0x5a4>
/cygdrive/d/Jenkins/workspace/build-system-3/source-packages/gcc-7.4.0-riscv-bsp-v5_1_0-branch/libgcc/soft-fp/divdf3.c:47 (discriminator 36)
    428e:	00767793          	andi	a5,a2,7
    4292:	86ba                	c.mv	a3,a4
    4294:	24079263          	bnez	a5,44d8 <__divdf3+0x734>
/cygdrive/d/Jenkins/workspace/build-system-3/source-packages/gcc-7.4.0-riscv-bsp-v5_1_0-branch/libgcc/soft-fp/divdf3.c:47 (discriminator 46)
    4298:	01875513          	srli	a0,a4,0x18
    429c:	00154513          	xori	a0,a0,1
    42a0:	8905                	c.andi	a0,1
    42a2:	4585                	c.li	a1,1
/cygdrive/d/Jenkins/workspace/build-system-3/source-packages/gcc-7.4.0-riscv-bsp-v5_1_0-branch/libgcc/soft-fp/divdf3.c:47 (discriminator 56)
    42a4:	41ef8713          	addi	a4,t6,1054
    42a8:	00e697b3          	sll	a5,a3,a4
    42ac:	00b65833          	srl	a6,a2,a1
    42b0:	00e61733          	sll	a4,a2,a4
    42b4:	00e03733          	snez	a4,a4
    42b8:	0107e633          	or	a2,a5,a6
    42bc:	8e59                	c.or	a2,a4
    42be:	00767793          	andi	a5,a2,7
    42c2:	00b6d733          	srl	a4,a3,a1
    42c6:	cb89                	c.beqz	a5,42d8 <__divdf3+0x534>
/cygdrive/d/Jenkins/workspace/build-system-3/source-packages/gcc-7.4.0-riscv-bsp-v5_1_0-branch/libgcc/soft-fp/divdf3.c:47 (discriminator 70)
    42c8:	001e6e13          	ori	t3,t3,1
    42cc:	282ed25b          	beqc	t4,2,4550 <__divdf3+0x7ac>
    42d0:	263ed45b          	beqc	t4,3,4538 <__divdf3+0x794>
    42d4:	0e0e8c63          	beqz	t4,43cc <__divdf3+0x628>
/cygdrive/d/Jenkins/workspace/build-system-3/source-packages/gcc-7.4.0-riscv-bsp-v5_1_0-branch/libgcc/soft-fp/divdf3.c:47 (discriminator 78)
    42d8:	2377745b          	bbc	a4,23,4500 <__divdf3+0x75c>
/cygdrive/d/Jenkins/workspace/build-system-3/source-packages/gcc-7.4.0-riscv-bsp-v5_1_0-branch/libgcc/soft-fp/divdf3.c:47 (discriminator 83)
    42dc:	001e6e13          	ori	t3,t3,1
    42e0:	4785                	c.li	a5,1
    42e2:	4681                	c.li	a3,0
    42e4:	00000613          	li	a2,0
    42e8:	01e00833          	add	a6,zero,t5
/cygdrive/d/Jenkins/workspace/build-system-3/source-packages/gcc-7.4.0-riscv-bsp-v5_1_0-branch/libgcc/soft-fp/divdf3.c:47 (discriminator 86)
    42ec:	e60504e3          	beqz	a0,4154 <__divdf3+0x3b0>
/cygdrive/d/Jenkins/workspace/build-system-3/source-packages/gcc-7.4.0-riscv-bsp-v5_1_0-branch/libgcc/soft-fp/divdf3.c:47 (discriminator 87)
    42f0:	a60e725b          	bbc	t3,0,4154 <__divdf3+0x3b0>
/cygdrive/d/Jenkins/workspace/build-system-3/source-packages/gcc-7.4.0-riscv-bsp-v5_1_0-branch/libgcc/soft-fp/divdf3.c:47 (discriminator 88)
    42f4:	002e6e13          	ori	t3,t3,2
    42f8:	f65ff06f          	j	425c <__divdf3+0x4b8>
/cygdrive/d/Jenkins/workspace/build-system-3/source-packages/gcc-7.4.0-riscv-bsp-v5_1_0-branch/libgcc/soft-fp/divdf3.c:46 (discriminator 78)
    42fc:	de951ae3          	bne	a0,s1,40f0 <__divdf3+0x34c>
/cygdrive/d/Jenkins/workspace/build-system-3/source-packages/gcc-7.4.0-riscv-bsp-v5_1_0-branch/libgcc/soft-fp/divdf3.c:46 (discriminator 79)
    4300:	de088ae3          	beqz	a7,40f4 <__divdf3+0x350>
    4304:	dd9ff06f          	j	40dc <__divdf3+0x338>
/cygdrive/d/Jenkins/workspace/build-system-3/source-packages/gcc-7.4.0-riscv-bsp-v5_1_0-branch/libgcc/soft-fp/divdf3.c:46 (discriminator 46)
    4308:	f0f31ae3          	bne	t1,a5,421c <__divdf3+0x478>
/cygdrive/d/Jenkins/workspace/build-system-3/source-packages/gcc-7.4.0-riscv-bsp-v5_1_0-branch/libgcc/soft-fp/divdf3.c:46 (discriminator 47)
    430c:	f08574e3          	bgeu	a0,s0,4214 <__divdf3+0x470>
    4310:	40c306b3          	sub	a3,t1,a2
/cygdrive/d/Jenkins/workspace/build-system-3/source-packages/gcc-7.4.0-riscv-bsp-v5_1_0-branch/libgcc/soft-fp/divdf3.c:46
    4314:	874a                	c.mv	a4,s2
    4316:	b339                	c.j	4024 <__divdf3+0x280>
/cygdrive/d/Jenkins/workspace/build-system-3/source-packages/gcc-7.4.0-riscv-bsp-v5_1_0-branch/libgcc/soft-fp/divdf3.c:47 (discriminator 8)
    4318:	001e6e13          	ori	t3,t3,1
    431c:	162ed85b          	beqc	t4,2,448c <__divdf3+0x6e8>
    4320:	143ed85b          	beqc	t4,3,4470 <__divdf3+0x6cc>
    4324:	dc0e9ee3          	bnez	t4,4100 <__divdf3+0x35c>
/cygdrive/d/Jenkins/workspace/build-system-3/source-packages/gcc-7.4.0-riscv-bsp-v5_1_0-branch/libgcc/soft-fp/divdf3.c:47 (discriminator 11)
    4328:	00f67693          	andi	a3,a2,15
    432c:	887a                	c.mv	a6,t5
    432e:	9c46db5b          	beqc	a3,4,4104 <__divdf3+0x360>
    4332:	86b2                	c.mv	a3,a2
/cygdrive/d/Jenkins/workspace/build-system-3/source-packages/gcc-7.4.0-riscv-bsp-v5_1_0-branch/libgcc/soft-fp/divdf3.c:47 (discriminator 15)
    4334:	00468613          	addi	a2,a3,4 # 80004 <cst_libm_sincosf+0x4>
    4338:	00d636b3          	sltu	a3,a2,a3
    433c:	9736                	c.add	a4,a3
    433e:	b3d9                	c.j	4104 <__divdf3+0x360>
/cygdrive/d/Jenkins/workspace/build-system-3/source-packages/gcc-7.4.0-riscv-bsp-v5_1_0-branch/libgcc/soft-fp/divdf3.c:46
    4340:	8736                	c.mv	a4,a3
    4342:	b9a9                	c.j	3f9c <__divdf3+0x1f8>
    4344:	86b2                	c.mv	a3,a2
    4346:	b9bd                	c.j	3fc4 <__divdf3+0x220>
/cygdrive/d/Jenkins/workspace/build-system-3/source-packages/gcc-7.4.0-riscv-bsp-v5_1_0-branch/libgcc/soft-fp/divdf3.c:47 (discriminator 53)
    4348:	4585                	c.li	a1,1
    434a:	8d9d                	c.sub	a1,a5
    434c:	03800693          	li	a3,56
    4350:	02b6da63          	bge	a3,a1,4384 <__divdf3+0x5e0>
/cygdrive/d/Jenkins/workspace/build-system-3/source-packages/gcc-7.4.0-riscv-bsp-v5_1_0-branch/libgcc/soft-fp/divdf3.c:47 (discriminator 55)
    4354:	8e59                	c.or	a2,a4
    4356:	e26d                	c.bnez	a2,4438 <__divdf3+0x694>
/cygdrive/d/Jenkins/workspace/build-system-3/source-packages/gcc-7.4.0-riscv-bsp-v5_1_0-branch/libgcc/soft-fp/divdf3.c:47 (discriminator 104)
    4358:	002e6e13          	ori	t3,t3,2
    435c:	887a                	c.mv	a6,t5
    435e:	4781                	c.li	a5,0
    4360:	4681                	c.li	a3,0
    4362:	bded                	c.j	425c <__divdf3+0x4b8>
/cygdrive/d/Jenkins/workspace/build-system-3/source-packages/gcc-7.4.0-riscv-bsp-v5_1_0-branch/libgcc/soft-fp/divdf3.c:47 (discriminator 27)
    4364:	ee0f02e3          	beqz	t5,4248 <__divdf3+0x4a4>
/cygdrive/d/Jenkins/workspace/build-system-3/source-packages/gcc-7.4.0-riscv-bsp-v5_1_0-branch/libgcc/soft-fp/divdf3.c:47
    4368:	7ff00793          	li	a5,2047
    436c:	4681                	c.li	a3,0
    436e:	4601                	c.li	a2,0
    4370:	ee9ff06f          	j	4258 <__divdf3+0x4b4>
    4374:	4585                	c.li	a1,1
    4376:	8d9d                	c.sub	a1,a5
    4378:	03800693          	li	a3,56
    437c:	0ab6ce63          	blt	a3,a1,4438 <__divdf3+0x694>
/cygdrive/d/Jenkins/workspace/build-system-3/source-packages/gcc-7.4.0-riscv-bsp-v5_1_0-branch/libgcc/soft-fp/divdf3.c:46
    4380:	fff00613          	li	a2,-1
/cygdrive/d/Jenkins/workspace/build-system-3/source-packages/gcc-7.4.0-riscv-bsp-v5_1_0-branch/libgcc/soft-fp/divdf3.c:47 (discriminator 54)
    4384:	46fd                	c.li	a3,31
    4386:	20b6d163          	bge	a3,a1,4588 <__divdf3+0x7e4>
/cygdrive/d/Jenkins/workspace/build-system-3/source-packages/gcc-7.4.0-riscv-bsp-v5_1_0-branch/libgcc/soft-fp/divdf3.c:47 (discriminator 57)
    438a:	5685                	c.li	a3,-31
    438c:	40f687b3          	sub	a5,a3,a5
    4390:	00f757b3          	srl	a5,a4,a5
    4394:	0005d8db          	beqc	a1,32,43a4 <__divdf3+0x600>
/cygdrive/d/Jenkins/workspace/build-system-3/source-packages/gcc-7.4.0-riscv-bsp-v5_1_0-branch/libgcc/soft-fp/divdf3.c:47 (discriminator 65)
    4398:	43ef8f93          	addi	t6,t6,1086
    439c:	01f71733          	sll	a4,a4,t6
    43a0:	00e66633          	or	a2,a2,a4
/cygdrive/d/Jenkins/workspace/build-system-3/source-packages/gcc-7.4.0-riscv-bsp-v5_1_0-branch/libgcc/soft-fp/divdf3.c:47 (discriminator 68)
    43a4:	00c03633          	snez	a2,a2
    43a8:	8e5d                	c.or	a2,a5
    43aa:	00767793          	andi	a5,a2,7
    43ae:	16078163          	beqz	a5,4510 <__divdf3+0x76c>
/cygdrive/d/Jenkins/workspace/build-system-3/source-packages/gcc-7.4.0-riscv-bsp-v5_1_0-branch/libgcc/soft-fp/divdf3.c:47
    43b2:	001e6e13          	ori	t3,t3,1
    43b6:	182edb5b          	beqc	t4,2,454c <__divdf3+0x7a8>
    43ba:	163edd5b          	beqc	t4,3,4534 <__divdf3+0x790>
    43be:	4505                	c.li	a0,1
    43c0:	4701                	c.li	a4,0
    43c2:	120e9f63          	bnez	t4,4500 <__divdf3+0x75c>
    43c6:	4505                	c.li	a0,1
    43c8:	00000713          	li	a4,0
/cygdrive/d/Jenkins/workspace/build-system-3/source-packages/gcc-7.4.0-riscv-bsp-v5_1_0-branch/libgcc/soft-fp/divdf3.c:47 (discriminator 73)
    43cc:	00f67793          	andi	a5,a2,15
    43d0:	b047d45b          	beqc	a5,4,42d8 <__divdf3+0x534>
/cygdrive/d/Jenkins/workspace/build-system-3/source-packages/gcc-7.4.0-riscv-bsp-v5_1_0-branch/libgcc/soft-fp/divdf3.c:47 (discriminator 77)
    43d4:	00460793          	addi	a5,a2,4 # 80100004 <_DATA_LMA_START+0x600f942c>
    43d8:	00c7b633          	sltu	a2,a5,a2
    43dc:	9732                	c.add	a4,a2
    43de:	863e                	c.mv	a2,a5
    43e0:	ef9ff06f          	j	42d8 <__divdf3+0x534>
/cygdrive/d/Jenkins/workspace/build-system-3/source-packages/gcc-7.4.0-riscv-bsp-v5_1_0-branch/libgcc/soft-fp/divdf3.c:47
    43e4:	0cf05463          	blez	a5,44ac <__divdf3+0x708>
    43e8:	001e6e13          	ori	t3,t3,1
    43ec:	082ede5b          	beqc	t4,2,4488 <__divdf3+0x6e4>
    43f0:	063ede5b          	beqc	t4,3,446c <__divdf3+0x6c8>
/cygdrive/d/Jenkins/workspace/build-system-3/source-packages/gcc-7.4.0-riscv-bsp-v5_1_0-branch/libgcc/soft-fp/divdf3.c:46
    43f4:	567d                	c.li	a2,-1
/cygdrive/d/Jenkins/workspace/build-system-3/source-packages/gcc-7.4.0-riscv-bsp-v5_1_0-branch/libgcc/soft-fp/divdf3.c:47
    43f6:	d00e95e3          	bnez	t4,4100 <__divdf3+0x35c>
/cygdrive/d/Jenkins/workspace/build-system-3/source-packages/gcc-7.4.0-riscv-bsp-v5_1_0-branch/libgcc/soft-fp/divdf3.c:46
    43fa:	56fd                	c.li	a3,-1
    43fc:	f39ff06f          	j	4334 <__divdf3+0x590>
    4400:	86ae                	c.mv	a3,a1
    4402:	b179                	c.j	4090 <__divdf3+0x2ec>
    4404:	8636                	c.mv	a2,a3
    4406:	b9b9                	c.j	4064 <__divdf3+0x2c0>
/cygdrive/d/Jenkins/workspace/build-system-3/source-packages/gcc-7.4.0-riscv-bsp-v5_1_0-branch/libgcc/soft-fp/divdf3.c:46 (discriminator 55)
    4408:	9522                	c.add	a0,s0
    440a:	008536b3          	sltu	a3,a0,s0
    440e:	969a                	c.add	a3,t1
    4410:	97b6                	c.add	a5,a3
    4412:	1779                	c.addi	a4,-2
    4414:	c0dff06f          	j	4020 <__divdf3+0x27c>
/cygdrive/d/Jenkins/workspace/build-system-3/source-packages/gcc-7.4.0-riscv-bsp-v5_1_0-branch/libgcc/soft-fp/divdf3.c:46 (discriminator 93)
    4418:	00141693          	slli	a3,s0,0x1
    441c:	0086b433          	sltu	s0,a3,s0
    4420:	9322                	c.add	t1,s0
    4422:	951a                	c.add	a0,t1
    4424:	1679                	c.addi	a2,-2
    4426:	8436                	c.mv	s0,a3
    4428:	cc9514e3          	bne	a0,s1,40f0 <__divdf3+0x34c>
/cygdrive/d/Jenkins/workspace/build-system-3/source-packages/gcc-7.4.0-riscv-bsp-v5_1_0-branch/libgcc/soft-fp/divdf3.c:46 (discriminator 97)
    442c:	cc8884e3          	beq	a7,s0,40f4 <__divdf3+0x350>
/cygdrive/d/Jenkins/workspace/build-system-3/source-packages/gcc-7.4.0-riscv-bsp-v5_1_0-branch/libgcc/soft-fp/divdf3.c:46
    4430:	00166613          	ori	a2,a2,1
    4434:	cc1ff06f          	j	40f4 <__divdf3+0x350>
/cygdrive/d/Jenkins/workspace/build-system-3/source-packages/gcc-7.4.0-riscv-bsp-v5_1_0-branch/libgcc/soft-fp/divdf3.c:47 (discriminator 91)
    4438:	001e6e13          	ori	t3,t3,1
    443c:	01e03633          	snez	a2,t5
    4440:	b02edc5b          	beqc	t4,2,4358 <__divdf3+0x5b4>
    4444:	ffde8793          	addi	a5,t4,-3
    4448:	0017b793          	seqz	a5,a5
    444c:	001f3613          	seqz	a2,t5
    4450:	40f007b3          	neg	a5,a5
    4454:	8e7d                	c.and	a2,a5
    4456:	b709                	c.j	4358 <__divdf3+0x5b4>
    4458:	887a                	c.mv	a6,t5
/cygdrive/d/Jenkins/workspace/build-system-3/source-packages/gcc-7.4.0-riscv-bsp-v5_1_0-branch/libgcc/soft-fp/divdf3.c:47
    445a:	4781                	c.li	a5,0
    445c:	4681                	c.li	a3,0
    445e:	4601                	c.li	a2,0
    4460:	cf5ff06f          	j	4154 <__divdf3+0x3b0>
/cygdrive/d/Jenkins/workspace/build-system-3/source-packages/gcc-7.4.0-riscv-bsp-v5_1_0-branch/libgcc/soft-fp/divdf3.c:47 (discriminator 28)
    4464:	de0f12e3          	bnez	t5,4248 <__divdf3+0x4a4>
    4468:	f01ff06f          	j	4368 <__divdf3+0x5c4>
/cygdrive/d/Jenkins/workspace/build-system-3/source-packages/gcc-7.4.0-riscv-bsp-v5_1_0-branch/libgcc/soft-fp/divdf3.c:46
    446c:	fff00613          	li	a2,-1
    4470:	4805                	c.li	a6,1
/cygdrive/d/Jenkins/workspace/build-system-3/source-packages/gcc-7.4.0-riscv-bsp-v5_1_0-branch/libgcc/soft-fp/divdf3.c:47 (discriminator 14)
    4472:	c80f19e3          	bnez	t5,4104 <__divdf3+0x360>
/cygdrive/d/Jenkins/workspace/build-system-3/source-packages/gcc-7.4.0-riscv-bsp-v5_1_0-branch/libgcc/soft-fp/divdf3.c:47 (discriminator 18)
    4476:	00860693          	addi	a3,a2,8
    447a:	00c6b633          	sltu	a2,a3,a2
    447e:	9732                	c.add	a4,a2
    4480:	4801                	c.li	a6,0
    4482:	8636                	c.mv	a2,a3
    4484:	c81ff06f          	j	4104 <__divdf3+0x360>
/cygdrive/d/Jenkins/workspace/build-system-3/source-packages/gcc-7.4.0-riscv-bsp-v5_1_0-branch/libgcc/soft-fp/divdf3.c:46
    4488:	fff00613          	li	a2,-1
    448c:	4801                	c.li	a6,0
/cygdrive/d/Jenkins/workspace/build-system-3/source-packages/gcc-7.4.0-riscv-bsp-v5_1_0-branch/libgcc/soft-fp/divdf3.c:47 (discriminator 13)
    448e:	c60f0be3          	beqz	t5,4104 <__divdf3+0x360>
/cygdrive/d/Jenkins/workspace/build-system-3/source-packages/gcc-7.4.0-riscv-bsp-v5_1_0-branch/libgcc/soft-fp/divdf3.c:47 (discriminator 20)
    4492:	00860693          	addi	a3,a2,8
    4496:	00c6b633          	sltu	a2,a3,a2
    449a:	9732                	c.add	a4,a2
    449c:	4805                	c.li	a6,1
    449e:	8636                	c.mv	a2,a3
    44a0:	c65ff06f          	j	4104 <__divdf3+0x360>
/cygdrive/d/Jenkins/workspace/build-system-3/source-packages/gcc-7.4.0-riscv-bsp-v5_1_0-branch/libgcc/soft-fp/divdf3.c:46
    44a4:	8636                	c.mv	a2,a3
    44a6:	f89503e3          	beq	a0,s1,442c <__divdf3+0x688>
    44aa:	b199                	c.j	40f0 <__divdf3+0x34c>
/cygdrive/d/Jenkins/workspace/build-system-3/source-packages/gcc-7.4.0-riscv-bsp-v5_1_0-branch/libgcc/soft-fp/divdf3.c:47
    44ac:	ec0794e3          	bnez	a5,4374 <__divdf3+0x5d0>
    44b0:	001e6e13          	ori	t3,t3,1
    44b4:	0a2ede5b          	beqc	t4,2,4570 <__divdf3+0x7cc>
    44b8:	0a3ed05b          	beqc	t4,3,4558 <__divdf3+0x7b4>
    44bc:	0c0e8263          	beqz	t4,4580 <__divdf3+0x7dc>
    44c0:	86ba                	c.mv	a3,a4
/cygdrive/d/Jenkins/workspace/build-system-3/source-packages/gcc-7.4.0-riscv-bsp-v5_1_0-branch/libgcc/soft-fp/divdf3.c:46
    44c2:	567d                	c.li	a2,-1
/cygdrive/d/Jenkins/workspace/build-system-3/source-packages/gcc-7.4.0-riscv-bsp-v5_1_0-branch/libgcc/soft-fp/divdf3.c:47
    44c4:	c0100f93          	li	t6,-1023
    44c8:	dd1ff06f          	j	4298 <__divdf3+0x4f4>
    44cc:	887a                	c.mv	a6,t5
    44ce:	7ff00793          	li	a5,2047
    44d2:	4681                	c.li	a3,0
    44d4:	4601                	c.li	a2,0
    44d6:	b9bd                	c.j	4154 <__divdf3+0x3b0>
/cygdrive/d/Jenkins/workspace/build-system-3/source-packages/gcc-7.4.0-riscv-bsp-v5_1_0-branch/libgcc/soft-fp/divdf3.c:47 (discriminator 38)
    44d8:	001e6e13          	ori	t3,t3,1
    44dc:	082ede5b          	beqc	t4,2,4578 <__divdf3+0x7d4>
    44e0:	083ed05b          	beqc	t4,3,4560 <__divdf3+0x7bc>
    44e4:	da0e9ae3          	bnez	t4,4298 <__divdf3+0x4f4>
/cygdrive/d/Jenkins/workspace/build-system-3/source-packages/gcc-7.4.0-riscv-bsp-v5_1_0-branch/libgcc/soft-fp/divdf3.c:47 (discriminator 41)
    44e8:	00f67793          	andi	a5,a2,15
    44ec:	9a47d65b          	beqc	a5,4,4298 <__divdf3+0x4f4>
/cygdrive/d/Jenkins/workspace/build-system-3/source-packages/gcc-7.4.0-riscv-bsp-v5_1_0-branch/libgcc/soft-fp/divdf3.c:47 (discriminator 45)
    44f0:	ffc63793          	sltiu	a5,a2,-4
    44f4:	0017c793          	xori	a5,a5,1
    44f8:	86ba                	c.mv	a3,a4
    44fa:	973e                	c.add	a4,a5
    44fc:	d9dff06f          	j	4298 <__divdf3+0x4f4>
/cygdrive/d/Jenkins/workspace/build-system-3/source-packages/gcc-7.4.0-riscv-bsp-v5_1_0-branch/libgcc/soft-fp/divdf3.c:47
    4500:	01d71793          	slli	a5,a4,0x1d
    4504:	820d                	c.srli	a2,0x3
    4506:	8e5d                	c.or	a2,a5
    4508:	583726db          	bfoz	a3,a4,22,3
    450c:	4781                	c.li	a5,0
    450e:	bbe9                	c.j	42e8 <__divdf3+0x544>
    4510:	820d                	c.srli	a2,0x3
    4512:	887a                	c.mv	a6,t5
    4514:	4781                	c.li	a5,0
    4516:	4681                	c.li	a3,0
    4518:	dd9ff06f          	j	42f0 <__divdf3+0x54c>
/cygdrive/d/Jenkins/workspace/build-system-3/source-packages/gcc-7.4.0-riscv-bsp-v5_1_0-branch/libgcc/soft-fp/divdf3.c:46 (discriminator 53)
    451c:	eeb566e3          	bltu	a0,a1,4408 <__divdf3+0x664>
/cygdrive/d/Jenkins/workspace/build-system-3/source-packages/gcc-7.4.0-riscv-bsp-v5_1_0-branch/libgcc/soft-fp/divdf3.c:46
    4520:	874a                	c.mv	a4,s2
    4522:	4681                	c.li	a3,0
    4524:	b01ff06f          	j	4024 <__divdf3+0x280>
/cygdrive/d/Jenkins/workspace/build-system-3/source-packages/gcc-7.4.0-riscv-bsp-v5_1_0-branch/libgcc/soft-fp/divdf3.c:46 (discriminator 91)
    4528:	ef1468e3          	bltu	s0,a7,4418 <__divdf3+0x674>
/cygdrive/d/Jenkins/workspace/build-system-3/source-packages/gcc-7.4.0-riscv-bsp-v5_1_0-branch/libgcc/soft-fp/divdf3.c:46
    452c:	8636                	c.mv	a2,a3
    452e:	f08891e3          	bne	a7,s0,4430 <__divdf3+0x68c>
    4532:	b6c9                	c.j	40f4 <__divdf3+0x350>
/cygdrive/d/Jenkins/workspace/build-system-3/source-packages/gcc-7.4.0-riscv-bsp-v5_1_0-branch/libgcc/soft-fp/divdf3.c:47
    4534:	4505                	c.li	a0,1
    4536:	4701                	c.li	a4,0
/cygdrive/d/Jenkins/workspace/build-system-3/source-packages/gcc-7.4.0-riscv-bsp-v5_1_0-branch/libgcc/soft-fp/divdf3.c:47 (discriminator 76)
    4538:	da0f10e3          	bnez	t5,42d8 <__divdf3+0x534>
/cygdrive/d/Jenkins/workspace/build-system-3/source-packages/gcc-7.4.0-riscv-bsp-v5_1_0-branch/libgcc/soft-fp/divdf3.c:47 (discriminator 82)
    453c:	00860793          	addi	a5,a2,8
    4540:	00c7b633          	sltu	a2,a5,a2
    4544:	9732                	c.add	a4,a2
    4546:	863e                	c.mv	a2,a5
    4548:	d91ff06f          	j	42d8 <__divdf3+0x534>
/cygdrive/d/Jenkins/workspace/build-system-3/source-packages/gcc-7.4.0-riscv-bsp-v5_1_0-branch/libgcc/soft-fp/divdf3.c:47
    454c:	4505                	c.li	a0,1
    454e:	4701                	c.li	a4,0
/cygdrive/d/Jenkins/workspace/build-system-3/source-packages/gcc-7.4.0-riscv-bsp-v5_1_0-branch/libgcc/soft-fp/divdf3.c:47 (discriminator 75)
    4550:	d80f04e3          	beqz	t5,42d8 <__divdf3+0x534>
    4554:	fe9ff06f          	j	453c <__divdf3+0x798>
/cygdrive/d/Jenkins/workspace/build-system-3/source-packages/gcc-7.4.0-riscv-bsp-v5_1_0-branch/libgcc/soft-fp/divdf3.c:47
    4558:	86ba                	c.mv	a3,a4
    455a:	c0100f93          	li	t6,-1023
/cygdrive/d/Jenkins/workspace/build-system-3/source-packages/gcc-7.4.0-riscv-bsp-v5_1_0-branch/libgcc/soft-fp/divdf3.c:46
    455e:	567d                	c.li	a2,-1
/cygdrive/d/Jenkins/workspace/build-system-3/source-packages/gcc-7.4.0-riscv-bsp-v5_1_0-branch/libgcc/soft-fp/divdf3.c:47 (discriminator 44)
    4560:	d20f1ce3          	bnez	t5,4298 <__divdf3+0x4f4>
/cygdrive/d/Jenkins/workspace/build-system-3/source-packages/gcc-7.4.0-riscv-bsp-v5_1_0-branch/libgcc/soft-fp/divdf3.c:47 (discriminator 50)
    4564:	ff863793          	sltiu	a5,a2,-8
    4568:	0017c793          	xori	a5,a5,1
    456c:	973e                	c.add	a4,a5
    456e:	b32d                	c.j	4298 <__divdf3+0x4f4>
/cygdrive/d/Jenkins/workspace/build-system-3/source-packages/gcc-7.4.0-riscv-bsp-v5_1_0-branch/libgcc/soft-fp/divdf3.c:47
    4570:	86ba                	c.mv	a3,a4
    4572:	c0100f93          	li	t6,-1023
/cygdrive/d/Jenkins/workspace/build-system-3/source-packages/gcc-7.4.0-riscv-bsp-v5_1_0-branch/libgcc/soft-fp/divdf3.c:46
    4576:	567d                	c.li	a2,-1
/cygdrive/d/Jenkins/workspace/build-system-3/source-packages/gcc-7.4.0-riscv-bsp-v5_1_0-branch/libgcc/soft-fp/divdf3.c:47 (discriminator 43)
    4578:	d20f00e3          	beqz	t5,4298 <__divdf3+0x4f4>
    457c:	fe9ff06f          	j	4564 <__divdf3+0x7c0>
/cygdrive/d/Jenkins/workspace/build-system-3/source-packages/gcc-7.4.0-riscv-bsp-v5_1_0-branch/libgcc/soft-fp/divdf3.c:47
    4580:	c0100f93          	li	t6,-1023
/cygdrive/d/Jenkins/workspace/build-system-3/source-packages/gcc-7.4.0-riscv-bsp-v5_1_0-branch/libgcc/soft-fp/divdf3.c:46
    4584:	567d                	c.li	a2,-1
    4586:	b7ad                	c.j	44f0 <__divdf3+0x74c>
    4588:	86ba                	c.mv	a3,a4
    458a:	4505                	c.li	a0,1
    458c:	bb21                	c.j	42a4 <__divdf3+0x500>
	...

00004590 <__muldf3>:
__muldf3():
/cygdrive/d/Jenkins/workspace/build-system-3/source-packages/gcc-7.4.0-riscv-bsp-v5_1_0-branch/libgcc/soft-fp/muldf3.c:36
    4590:	1101                	c.addi	sp,-32
    4592:	ce22                	c.swsp	s0,28(sp)
    4594:	cc26                	c.swsp	s1,24(sp)
    4596:	ca4a                	c.swsp	s2,20(sp)
    4598:	c84e                	c.swsp	s3,16(sp)
    459a:	c652                	c.swsp	s4,12(sp)
    459c:	c456                	c.swsp	s5,8(sp)
    459e:	c25a                	c.swsp	s6,4(sp)
/cygdrive/d/Jenkins/workspace/build-system-3/source-packages/gcc-7.4.0-riscv-bsp-v5_1_0-branch/libgcc/soft-fp/muldf3.c:43
    45a0:	00202373          	frrm	t1
/cygdrive/d/Jenkins/workspace/build-system-3/source-packages/gcc-7.4.0-riscv-bsp-v5_1_0-branch/libgcc/soft-fp/muldf3.c:44
    45a4:	7945a75b          	bfoz	a4,a1,30,20
    45a8:	4c05a7db          	bfoz	a5,a1,19,0
    45ac:	81fd                	c.srli	a1,0x1f
    45ae:	10070963          	beqz	a4,46c0 <__muldf3+0x130>
    45b2:	7ff00813          	li	a6,2047
    45b6:	07070963          	beq	a4,a6,4628 <__muldf3+0x98>
    45ba:	00800837          	lui	a6,0x800
    45be:	078e                	c.slli	a5,0x3
    45c0:	01d55293          	srli	t0,a0,0x1d
    45c4:	0107e7b3          	or	a5,a5,a6
    45c8:	c0170e13          	addi	t3,a4,-1023 # ffeffc01 <_DATA_LMA_START+0xdfef9029>
    45cc:	00f2e2b3          	or	t0,t0,a5
    45d0:	050e                	c.slli	a0,0x3
    45d2:	4701                	c.li	a4,0
    45d4:	4381                	c.li	t2,0
/cygdrive/d/Jenkins/workspace/build-system-3/source-packages/gcc-7.4.0-riscv-bsp-v5_1_0-branch/libgcc/soft-fp/muldf3.c:37
    45d6:	4801                	c.li	a6,0
/cygdrive/d/Jenkins/workspace/build-system-3/source-packages/gcc-7.4.0-riscv-bsp-v5_1_0-branch/libgcc/soft-fp/muldf3.c:45
    45d8:	7946a8db          	bfoz	a7,a3,30,20
    45dc:	4c06a7db          	bfoz	a5,a3,19,0
    45e0:	01f6d693          	srli	a3,a3,0x1f
    45e4:	12088a63          	beqz	a7,4718 <__muldf3+0x188>
    45e8:	7ff00e93          	li	t4,2047
    45ec:	17d88a63          	beq	a7,t4,4760 <__muldf3+0x1d0>
    45f0:	00800f37          	lui	t5,0x800
    45f4:	078e                	c.slli	a5,0x3
    45f6:	01d65e93          	srli	t4,a2,0x1d
    45fa:	01e7e7b3          	or	a5,a5,t5
    45fe:	c0188893          	addi	a7,a7,-1023 # 7ffffc01 <_DATA_LMA_START+0x5fff9029>
    4602:	00fee7b3          	or	a5,t4,a5
    4606:	060e                	c.slli	a2,0x3
    4608:	9e46                	c.add	t3,a7
    460a:	4f01                	c.li	t5,0
/cygdrive/d/Jenkins/workspace/build-system-3/source-packages/gcc-7.4.0-riscv-bsp-v5_1_0-branch/libgcc/soft-fp/muldf3.c:46
    460c:	48bd                	c.li	a7,15
    460e:	00d5ceb3          	xor	t4,a1,a3
    4612:	001e0f93          	addi	t6,t3,1 # 400001 <FLASH_SIZE+0x300001>
    4616:	16e8e363          	bltu	a7,a4,477c <__muldf3+0x1ec>
    461a:	5a10188b          	addigp	a7,3488 # 815a0 <twooverpi.0+0x60>
    461e:	0ce8875b          	lea.w	a4,a7,a4
    4622:	4318                	c.lw	a4,0(a4)
    4624:	00070067          	jr	a4
/cygdrive/d/Jenkins/workspace/build-system-3/source-packages/gcc-7.4.0-riscv-bsp-v5_1_0-branch/libgcc/soft-fp/muldf3.c:44 (discriminator 3)
    4628:	00a7e2b3          	or	t0,a5,a0
    462c:	32028263          	beqz	t0,4950 <__muldf3+0x3c0>
/cygdrive/d/Jenkins/workspace/build-system-3/source-packages/gcc-7.4.0-riscv-bsp-v5_1_0-branch/libgcc/soft-fp/muldf3.c:44 (discriminator 37)
    4630:	0137d713          	srli	a4,a5,0x13
    4634:	82be                	c.mv	t0,a5
    4636:	46070563          	beqz	a4,4aa0 <__muldf3+0x510>
/cygdrive/d/Jenkins/workspace/build-system-3/source-packages/gcc-7.4.0-riscv-bsp-v5_1_0-branch/libgcc/soft-fp/muldf3.c:44
    463a:	4731                	c.li	a4,12
    463c:	7ff00e13          	li	t3,2047
    4640:	438d                	c.li	t2,3
/cygdrive/d/Jenkins/workspace/build-system-3/source-packages/gcc-7.4.0-riscv-bsp-v5_1_0-branch/libgcc/soft-fp/muldf3.c:37
    4642:	4801                	c.li	a6,0
    4644:	f95ff06f          	j	45d8 <__muldf3+0x48>
/cygdrive/d/Jenkins/workspace/build-system-3/source-packages/gcc-7.4.0-riscv-bsp-v5_1_0-branch/libgcc/soft-fp/muldf3.c:45 (discriminator 4)
    4648:	00d00eb3          	add	t4,zero,a3
/cygdrive/d/Jenkins/workspace/build-system-3/source-packages/gcc-7.4.0-riscv-bsp-v5_1_0-branch/libgcc/soft-fp/muldf3.c:47
    464c:	062f605b          	bnec	t5,2,46ac <__muldf3+0x11c>
    4650:	88f6                	c.mv	a7,t4
/cygdrive/d/Jenkins/workspace/build-system-3/source-packages/gcc-7.4.0-riscv-bsp-v5_1_0-branch/libgcc/soft-fp/muldf3.c:47 (discriminator 4)
    4652:	7ff00713          	li	a4,2047
    4656:	4781                	c.li	a5,0
    4658:	00000613          	li	a2,0
/cygdrive/d/Jenkins/workspace/build-system-3/source-packages/gcc-7.4.0-riscv-bsp-v5_1_0-branch/libgcc/soft-fp/muldf3.c:47 (discriminator 108)
    465c:	4581                	c.li	a1,0
    465e:	fff006b7          	lui	a3,0xfff00
    4662:	8eed                	c.and	a3,a1
    4664:	4c07a7db          	bfoz	a5,a5,19,0
    4668:	8fd5                	c.or	a5,a3
    466a:	01471693          	slli	a3,a4,0x14
    466e:	80100737          	lui	a4,0x80100
    4672:	177d                	c.addi	a4,-1
    4674:	8f7d                	c.and	a4,a5
    4676:	8f55                	c.or	a4,a3
    4678:	08fe                	c.slli	a7,0x1f
    467a:	7807275b          	bfoz	a4,a4,30,0
    467e:	8532                	c.mv	a0,a2
    4680:	011765b3          	or	a1,a4,a7
/cygdrive/d/Jenkins/workspace/build-system-3/source-packages/gcc-7.4.0-riscv-bsp-v5_1_0-branch/libgcc/soft-fp/muldf3.c:48 (discriminator 108)
    4684:	3e081e63          	bnez	a6,4a80 <__muldf3+0x4f0>
/cygdrive/d/Jenkins/workspace/build-system-3/source-packages/gcc-7.4.0-riscv-bsp-v5_1_0-branch/libgcc/soft-fp/muldf3.c:51
    4688:	4472                	c.lwsp	s0,28(sp)
    468a:	44e2                	c.lwsp	s1,24(sp)
    468c:	4952                	c.lwsp	s2,20(sp)
    468e:	49c2                	c.lwsp	s3,16(sp)
    4690:	4a32                	c.lwsp	s4,12(sp)
    4692:	4aa2                	c.lwsp	s5,8(sp)
    4694:	4b12                	c.lwsp	s6,4(sp)
    4696:	6105                	c.addi16sp	sp,32
    4698:	00008067          	ret
/cygdrive/d/Jenkins/workspace/build-system-3/source-packages/gcc-7.4.0-riscv-bsp-v5_1_0-branch/libgcc/soft-fp/muldf3.c:44 (discriminator 7)
    469c:	00b00eb3          	add	t4,zero,a1
/cygdrive/d/Jenkins/workspace/build-system-3/source-packages/gcc-7.4.0-riscv-bsp-v5_1_0-branch/libgcc/soft-fp/muldf3.c:46 (discriminator 7)
    46a0:	8f1e                	c.mv	t5,t2
    46a2:	8796                	c.mv	a5,t0
    46a4:	00a00633          	add	a2,zero,a0
/cygdrive/d/Jenkins/workspace/build-system-3/source-packages/gcc-7.4.0-riscv-bsp-v5_1_0-branch/libgcc/soft-fp/muldf3.c:47 (discriminator 7)
    46a8:	ba2f545b          	beqc	t5,2,4650 <__muldf3+0xc0>
/cygdrive/d/Jenkins/workspace/build-system-3/source-packages/gcc-7.4.0-riscv-bsp-v5_1_0-branch/libgcc/soft-fp/muldf3.c:47
    46ac:	363f525b          	beqc	t5,3,4a10 <__muldf3+0x480>
    46b0:	221f685b          	bnec	t5,1,48e0 <__muldf3+0x350>
    46b4:	88f6                	c.mv	a7,t4
    46b6:	4701                	c.li	a4,0
    46b8:	4781                	c.li	a5,0
    46ba:	4601                	c.li	a2,0
    46bc:	fa1ff06f          	j	465c <__muldf3+0xcc>
/cygdrive/d/Jenkins/workspace/build-system-3/source-packages/gcc-7.4.0-riscv-bsp-v5_1_0-branch/libgcc/soft-fp/muldf3.c:44 (discriminator 2)
    46c0:	00a7e2b3          	or	t0,a5,a0
    46c4:	28028063          	beqz	t0,4944 <__muldf3+0x3b4>
/cygdrive/d/Jenkins/workspace/build-system-3/source-packages/gcc-7.4.0-riscv-bsp-v5_1_0-branch/libgcc/soft-fp/muldf3.c:44 (discriminator 11)
    46c8:	af97877f          	clz32	a4,a5
    46cc:	00079663          	bnez	a5,46d8 <__muldf3+0x148>
/cygdrive/d/Jenkins/workspace/build-system-3/source-packages/gcc-7.4.0-riscv-bsp-v5_1_0-branch/libgcc/soft-fp/muldf3.c:44 (discriminator 18)
    46d0:	af95077f          	clz32	a4,a0
    46d4:	02070713          	addi	a4,a4,32 # 80100020 <_DATA_LMA_START+0x600f9448>
/cygdrive/d/Jenkins/workspace/build-system-3/source-packages/gcc-7.4.0-riscv-bsp-v5_1_0-branch/libgcc/soft-fp/muldf3.c:44 (discriminator 25)
    46d8:	ff570893          	addi	a7,a4,-11
    46dc:	4871                	c.li	a6,28
    46de:	3b184b63          	blt	a6,a7,4a94 <__muldf3+0x504>
/cygdrive/d/Jenkins/workspace/build-system-3/source-packages/gcc-7.4.0-riscv-bsp-v5_1_0-branch/libgcc/soft-fp/muldf3.c:44 (discriminator 26)
    46e2:	42f5                	c.li	t0,29
    46e4:	ff870813          	addi	a6,a4,-8
    46e8:	411282b3          	sub	t0,t0,a7
    46ec:	005552b3          	srl	t0,a0,t0
    46f0:	010797b3          	sll	a5,a5,a6
    46f4:	00f2e2b3          	or	t0,t0,a5
    46f8:	01051533          	sll	a0,a0,a6
/cygdrive/d/Jenkins/workspace/build-system-3/source-packages/gcc-7.4.0-riscv-bsp-v5_1_0-branch/libgcc/soft-fp/muldf3.c:44 (discriminator 35)
    46fc:	c0d00e13          	li	t3,-1011
/cygdrive/d/Jenkins/workspace/build-system-3/source-packages/gcc-7.4.0-riscv-bsp-v5_1_0-branch/libgcc/soft-fp/muldf3.c:45 (discriminator 35)
    4700:	7946a8db          	bfoz	a7,a3,30,20
/cygdrive/d/Jenkins/workspace/build-system-3/source-packages/gcc-7.4.0-riscv-bsp-v5_1_0-branch/libgcc/soft-fp/muldf3.c:44 (discriminator 35)
    4704:	40ee0e33          	sub	t3,t3,a4
/cygdrive/d/Jenkins/workspace/build-system-3/source-packages/gcc-7.4.0-riscv-bsp-v5_1_0-branch/libgcc/soft-fp/muldf3.c:45 (discriminator 35)
    4708:	4c06a7db          	bfoz	a5,a3,19,0
/cygdrive/d/Jenkins/workspace/build-system-3/source-packages/gcc-7.4.0-riscv-bsp-v5_1_0-branch/libgcc/soft-fp/muldf3.c:44 (discriminator 35)
    470c:	4701                	c.li	a4,0
    470e:	4381                	c.li	t2,0
    4710:	4801                	c.li	a6,0
/cygdrive/d/Jenkins/workspace/build-system-3/source-packages/gcc-7.4.0-riscv-bsp-v5_1_0-branch/libgcc/soft-fp/muldf3.c:45 (discriminator 35)
    4712:	82fd                	c.srli	a3,0x1f
    4714:	ec089ae3          	bnez	a7,45e8 <__muldf3+0x58>
/cygdrive/d/Jenkins/workspace/build-system-3/source-packages/gcc-7.4.0-riscv-bsp-v5_1_0-branch/libgcc/soft-fp/muldf3.c:45 (discriminator 2)
    4718:	00c7e8b3          	or	a7,a5,a2
    471c:	24088263          	beqz	a7,4960 <__muldf3+0x3d0>
/cygdrive/d/Jenkins/workspace/build-system-3/source-packages/gcc-7.4.0-riscv-bsp-v5_1_0-branch/libgcc/soft-fp/muldf3.c:45 (discriminator 11)
    4720:	af9788ff          	clz32	a7,a5
    4724:	00079663          	bnez	a5,4730 <__muldf3+0x1a0>
/cygdrive/d/Jenkins/workspace/build-system-3/source-packages/gcc-7.4.0-riscv-bsp-v5_1_0-branch/libgcc/soft-fp/muldf3.c:45 (discriminator 18)
    4728:	af9608ff          	clz32	a7,a2
    472c:	02088893          	addi	a7,a7,32
/cygdrive/d/Jenkins/workspace/build-system-3/source-packages/gcc-7.4.0-riscv-bsp-v5_1_0-branch/libgcc/soft-fp/muldf3.c:45 (discriminator 25)
    4730:	ff588f93          	addi	t6,a7,-11
    4734:	4ef1                	c.li	t4,28
    4736:	35fec963          	blt	t4,t6,4a88 <__muldf3+0x4f8>
/cygdrive/d/Jenkins/workspace/build-system-3/source-packages/gcc-7.4.0-riscv-bsp-v5_1_0-branch/libgcc/soft-fp/muldf3.c:45 (discriminator 26)
    473a:	4ef5                	c.li	t4,29
    473c:	ff888f13          	addi	t5,a7,-8
    4740:	41fe8eb3          	sub	t4,t4,t6
    4744:	01d65eb3          	srl	t4,a2,t4
    4748:	01e797b3          	sll	a5,a5,t5
    474c:	00fee7b3          	or	a5,t4,a5
    4750:	01e61633          	sll	a2,a2,t5
/cygdrive/d/Jenkins/workspace/build-system-3/source-packages/gcc-7.4.0-riscv-bsp-v5_1_0-branch/libgcc/soft-fp/muldf3.c:45 (discriminator 35)
    4754:	411e0e33          	sub	t3,t3,a7
    4758:	c0de0e13          	addi	t3,t3,-1011
    475c:	4f01                	c.li	t5,0
    475e:	b57d                	c.j	460c <__muldf3+0x7c>
/cygdrive/d/Jenkins/workspace/build-system-3/source-packages/gcc-7.4.0-riscv-bsp-v5_1_0-branch/libgcc/soft-fp/muldf3.c:45 (discriminator 3)
    4760:	00c7e8b3          	or	a7,a5,a2
    4764:	7ffe0e13          	addi	t3,t3,2047
    4768:	20088263          	beqz	a7,496c <__muldf3+0x3dc>
    476c:	00376713          	ori	a4,a4,3
/cygdrive/d/Jenkins/workspace/build-system-3/source-packages/gcc-7.4.0-riscv-bsp-v5_1_0-branch/libgcc/soft-fp/muldf3.c:45 (discriminator 37)
    4770:	4f0d                	c.li	t5,3
    4772:	e937fd5b          	bbs	a5,19,460c <__muldf3+0x7c>
/cygdrive/d/Jenkins/workspace/build-system-3/source-packages/gcc-7.4.0-riscv-bsp-v5_1_0-branch/libgcc/soft-fp/muldf3.c:45
    4776:	4841                	c.li	a6,16
    4778:	e95ff06f          	j	460c <__muldf3+0x7c>
    477c:	6f41                	c.lui	t5,0x10
    477e:	ffff0713          	addi	a4,t5,-1 # ffff <BIN_SIZE+0x7d7d>
    4782:	00e678b3          	and	a7,a2,a4
/cygdrive/d/Jenkins/workspace/build-system-3/source-packages/gcc-7.4.0-riscv-bsp-v5_1_0-branch/libgcc/soft-fp/muldf3.c:46 (discriminator 2)
    4786:	01055393          	srli	t2,a0,0x10
    478a:	031385b3          	mul	a1,t2,a7
    478e:	8d79                	c.and	a0,a4
    4790:	01065913          	srli	s2,a2,0x10
    4794:	02a886b3          	mul	a3,a7,a0
    4798:	862e                	c.mv	a2,a1
    479a:	c4a9167f          	maddr32	a2,s2,a0
    479e:	03238733          	mul	a4,t2,s2
    47a2:	0106d413          	srli	s0,a3,0x10
    47a6:	9432                	c.add	s0,a2
    47a8:	00b47463          	bgeu	s0,a1,47b0 <__muldf3+0x220>
/cygdrive/d/Jenkins/workspace/build-system-3/source-packages/gcc-7.4.0-riscv-bsp-v5_1_0-branch/libgcc/soft-fp/muldf3.c:46 (discriminator 9)
    47ac:	01e70733          	add	a4,a4,t5
/cygdrive/d/Jenkins/workspace/build-system-3/source-packages/gcc-7.4.0-riscv-bsp-v5_1_0-branch/libgcc/soft-fp/muldf3.c:46 (discriminator 11)
    47b0:	6b41                	c.lui	s6,0x10
    47b2:	fffb0f13          	addi	t5,s6,-1 # ffff <BIN_SIZE+0x7d7d>
    47b6:	01e7f5b3          	and	a1,a5,t5
    47ba:	02b38a33          	mul	s4,t2,a1
    47be:	0107d993          	srli	s3,a5,0x10
    47c2:	01e47633          	and	a2,s0,t5
    47c6:	01e6f6b3          	and	a3,a3,t5
    47ca:	0642                	c.slli	a2,0x10
    47cc:	00d60f33          	add	t5,a2,a3
    47d0:	02b50ab3          	mul	s5,a0,a1
    47d4:	01045493          	srli	s1,s0,0x10
    47d8:	87d2                	c.mv	a5,s4
    47da:	c4a997ff          	maddr32	a5,s3,a0
    47de:	033383b3          	mul	t2,t2,s3
    47e2:	010ad693          	srli	a3,s5,0x10
    47e6:	96be                	c.add	a3,a5
    47e8:	0146f463          	bgeu	a3,s4,47f0 <__muldf3+0x260>
/cygdrive/d/Jenkins/workspace/build-system-3/source-packages/gcc-7.4.0-riscv-bsp-v5_1_0-branch/libgcc/soft-fp/muldf3.c:46 (discriminator 12)
    47ec:	016383b3          	add	t2,t2,s6
/cygdrive/d/Jenkins/workspace/build-system-3/source-packages/gcc-7.4.0-riscv-bsp-v5_1_0-branch/libgcc/soft-fp/muldf3.c:46 (discriminator 14)
    47f0:	6b41                	c.lui	s6,0x10
    47f2:	fffb0413          	addi	s0,s6,-1 # ffff <BIN_SIZE+0x7d7d>
    47f6:	0102da13          	srli	s4,t0,0x10
    47fa:	0082f7b3          	and	a5,t0,s0
    47fe:	031a02b3          	mul	t0,s4,a7
    4802:	0086f633          	and	a2,a3,s0
    4806:	82c1                	c.srli	a3,0x10
    4808:	93b6                	c.add	t2,a3
    480a:	0642                	c.slli	a2,0x10
    480c:	008afab3          	and	s5,s5,s0
    4810:	02f888b3          	mul	a7,a7,a5
    4814:	01560433          	add	s0,a2,s5
    4818:	94a2                	c.add	s1,s0
    481a:	8696                	c.mv	a3,t0
    481c:	c4f916ff          	maddr32	a3,s2,a5
    4820:	03490633          	mul	a2,s2,s4
    4824:	0108d513          	srli	a0,a7,0x10
    4828:	9536                	c.add	a0,a3
    482a:	00557363          	bgeu	a0,t0,4830 <__muldf3+0x2a0>
/cygdrive/d/Jenkins/workspace/build-system-3/source-packages/gcc-7.4.0-riscv-bsp-v5_1_0-branch/libgcc/soft-fp/muldf3.c:46 (discriminator 15)
    482e:	965a                	c.add	a2,s6
/cygdrive/d/Jenkins/workspace/build-system-3/source-packages/gcc-7.4.0-riscv-bsp-v5_1_0-branch/libgcc/soft-fp/muldf3.c:46 (discriminator 17)
    4830:	02ba0ab3          	mul	s5,s4,a1
    4834:	6b41                	c.lui	s6,0x10
    4836:	fffb0293          	addi	t0,s6,-1 # ffff <BIN_SIZE+0x7d7d>
    483a:	005576b3          	and	a3,a0,t0
    483e:	06c2                	c.slli	a3,0x10
    4840:	0058f8b3          	and	a7,a7,t0
    4844:	02b78933          	mul	s2,a5,a1
    4848:	98b6                	c.add	a7,a3
    484a:	8141                	c.srli	a0,0x10
    484c:	9532                	c.add	a0,a2
    484e:	85d6                	c.mv	a1,s5
    4850:	c4f995ff          	maddr32	a1,s3,a5
    4854:	034982b3          	mul	t0,s3,s4
    4858:	01095693          	srli	a3,s2,0x10
    485c:	00b687b3          	add	a5,a3,a1
    4860:	0157f463          	bgeu	a5,s5,4868 <__muldf3+0x2d8>
/cygdrive/d/Jenkins/workspace/build-system-3/source-packages/gcc-7.4.0-riscv-bsp-v5_1_0-branch/libgcc/soft-fp/muldf3.c:46 (discriminator 18)
    4864:	016282b3          	add	t0,t0,s6
/cygdrive/d/Jenkins/workspace/build-system-3/source-packages/gcc-7.4.0-riscv-bsp-v5_1_0-branch/libgcc/soft-fp/muldf3.c:46 (discriminator 20)
    4868:	65c1                	c.lui	a1,0x10
    486a:	15fd                	c.addi	a1,-1
    486c:	00b7f6b3          	and	a3,a5,a1
    4870:	06c2                	c.slli	a3,0x10
    4872:	00b975b3          	and	a1,s2,a1
    4876:	9726                	c.add	a4,s1
    4878:	96ae                	c.add	a3,a1
    487a:	00873633          	sltu	a2,a4,s0
    487e:	969e                	c.add	a3,t2
    4880:	9746                	c.add	a4,a7
    4882:	00c684b3          	add	s1,a3,a2
    4886:	011735b3          	sltu	a1,a4,a7
    488a:	00a488b3          	add	a7,s1,a0
    488e:	00b88433          	add	s0,a7,a1
    4892:	00c4b633          	sltu	a2,s1,a2
    4896:	0076b6b3          	sltu	a3,a3,t2
    489a:	8ed1                	c.or	a3,a2
    489c:	00b435b3          	sltu	a1,s0,a1
    48a0:	83c1                	c.srli	a5,0x10
    48a2:	00a8b533          	sltu	a0,a7,a0
    48a6:	97b6                	c.add	a5,a3
    48a8:	8dc9                	c.or	a1,a0
    48aa:	00971613          	slli	a2,a4,0x9
    48ae:	97ae                	c.add	a5,a1
    48b0:	9796                	c.add	a5,t0
    48b2:	01e66633          	or	a2,a2,t5
    48b6:	01745693          	srli	a3,s0,0x17
    48ba:	07a6                	c.slli	a5,0x9
    48bc:	00c03633          	snez	a2,a2
    48c0:	835d                	c.srli	a4,0x17
    48c2:	8e59                	c.or	a2,a4
    48c4:	0426                	c.slli	s0,0x9
    48c6:	8fd5                	c.or	a5,a3
    48c8:	8e41                	c.or	a2,s0
    48ca:	1f87f15b          	bbc	a5,24,4aac <__muldf3+0x51c>
/cygdrive/d/Jenkins/workspace/build-system-3/source-packages/gcc-7.4.0-riscv-bsp-v5_1_0-branch/libgcc/soft-fp/muldf3.c:46 (discriminator 37)
    48ce:	00165713          	srli	a4,a2,0x1
    48d2:	8a05                	c.andi	a2,1
    48d4:	01f79693          	slli	a3,a5,0x1f
    48d8:	8e59                	c.or	a2,a4
    48da:	8e55                	c.or	a2,a3
    48dc:	0017d793          	srli	a5,a5,0x1
/cygdrive/d/Jenkins/workspace/build-system-3/source-packages/gcc-7.4.0-riscv-bsp-v5_1_0-branch/libgcc/soft-fp/muldf3.c:47 (discriminator 2)
    48e0:	3fff8713          	addi	a4,t6,1023
    48e4:	0ae05263          	blez	a4,4988 <__muldf3+0x3f8>
/cygdrive/d/Jenkins/workspace/build-system-3/source-packages/gcc-7.4.0-riscv-bsp-v5_1_0-branch/libgcc/soft-fp/muldf3.c:47 (discriminator 6)
    48e8:	00767693          	andi	a3,a2,7
    48ec:	c685                	c.beqz	a3,4914 <__muldf3+0x384>
/cygdrive/d/Jenkins/workspace/build-system-3/source-packages/gcc-7.4.0-riscv-bsp-v5_1_0-branch/libgcc/soft-fp/muldf3.c:47 (discriminator 8)
    48ee:	00186813          	ori	a6,a6,1
    48f2:	1c235f5b          	beqc	t1,2,4ad0 <__muldf3+0x540>
    48f6:	2633535b          	beqc	t1,3,4b5c <__muldf3+0x5cc>
    48fa:	00031d63          	bnez	t1,4914 <__muldf3+0x384>
/cygdrive/d/Jenkins/workspace/build-system-3/source-packages/gcc-7.4.0-riscv-bsp-v5_1_0-branch/libgcc/soft-fp/muldf3.c:47 (discriminator 11)
    48fe:	00f67693          	andi	a3,a2,15
    4902:	0046d95b          	beqc	a3,4,4914 <__muldf3+0x384>
/cygdrive/d/Jenkins/workspace/build-system-3/source-packages/gcc-7.4.0-riscv-bsp-v5_1_0-branch/libgcc/soft-fp/muldf3.c:47 (discriminator 15)
    4906:	00460693          	addi	a3,a2,4
    490a:	00c6b633          	sltu	a2,a3,a2
    490e:	97b2                	c.add	a5,a2
    4910:	00d00633          	add	a2,zero,a3
/cygdrive/d/Jenkins/workspace/build-system-3/source-packages/gcc-7.4.0-riscv-bsp-v5_1_0-branch/libgcc/soft-fp/muldf3.c:47 (discriminator 16)
    4914:	0187f85b          	bbc	a5,24,4924 <__muldf3+0x394>
/cygdrive/d/Jenkins/workspace/build-system-3/source-packages/gcc-7.4.0-riscv-bsp-v5_1_0-branch/libgcc/soft-fp/muldf3.c:47 (discriminator 21)
    4918:	ff000737          	lui	a4,0xff000
    491c:	177d                	c.addi	a4,-1
    491e:	8ff9                	c.and	a5,a4
    4920:	400f8713          	addi	a4,t6,1024
/cygdrive/d/Jenkins/workspace/build-system-3/source-packages/gcc-7.4.0-riscv-bsp-v5_1_0-branch/libgcc/soft-fp/muldf3.c:47 (discriminator 23)
    4924:	7fe00693          	li	a3,2046
    4928:	88f6                	c.mv	a7,t4
    492a:	18e6c363          	blt	a3,a4,4ab0 <__muldf3+0x520>
/cygdrive/d/Jenkins/workspace/build-system-3/source-packages/gcc-7.4.0-riscv-bsp-v5_1_0-branch/libgcc/soft-fp/muldf3.c:47
    492e:	00365693          	srli	a3,a2,0x3
    4932:	01d79613          	slli	a2,a5,0x1d
    4936:	8e55                	c.or	a2,a3
    4938:	5837a7db          	bfoz	a5,a5,22,3
    493c:	7ff77713          	andi	a4,a4,2047
    4940:	d1dff06f          	j	465c <__muldf3+0xcc>
    4944:	4711                	c.li	a4,4
    4946:	4501                	c.li	a0,0
    4948:	4e01                	c.li	t3,0
/cygdrive/d/Jenkins/workspace/build-system-3/source-packages/gcc-7.4.0-riscv-bsp-v5_1_0-branch/libgcc/soft-fp/muldf3.c:44
    494a:	4385                	c.li	t2,1
/cygdrive/d/Jenkins/workspace/build-system-3/source-packages/gcc-7.4.0-riscv-bsp-v5_1_0-branch/libgcc/soft-fp/muldf3.c:37
    494c:	4801                	c.li	a6,0
    494e:	b169                	c.j	45d8 <__muldf3+0x48>
    4950:	4721                	c.li	a4,8
    4952:	4501                	c.li	a0,0
    4954:	7ff00e13          	li	t3,2047
/cygdrive/d/Jenkins/workspace/build-system-3/source-packages/gcc-7.4.0-riscv-bsp-v5_1_0-branch/libgcc/soft-fp/muldf3.c:44
    4958:	4389                	c.li	t2,2
/cygdrive/d/Jenkins/workspace/build-system-3/source-packages/gcc-7.4.0-riscv-bsp-v5_1_0-branch/libgcc/soft-fp/muldf3.c:37
    495a:	4801                	c.li	a6,0
    495c:	c7dff06f          	j	45d8 <__muldf3+0x48>
    4960:	00176713          	ori	a4,a4,1
/cygdrive/d/Jenkins/workspace/build-system-3/source-packages/gcc-7.4.0-riscv-bsp-v5_1_0-branch/libgcc/soft-fp/muldf3.c:45
    4964:	4781                	c.li	a5,0
    4966:	4601                	c.li	a2,0
    4968:	4f05                	c.li	t5,1
    496a:	b14d                	c.j	460c <__muldf3+0x7c>
    496c:	00276713          	ori	a4,a4,2
    4970:	4781                	c.li	a5,0
    4972:	4601                	c.li	a2,0
    4974:	4f09                	c.li	t5,2
    4976:	b959                	c.j	460c <__muldf3+0x7c>
/cygdrive/d/Jenkins/workspace/build-system-3/source-packages/gcc-7.4.0-riscv-bsp-v5_1_0-branch/libgcc/soft-fp/muldf3.c:46
    4978:	4881                	c.li	a7,0
    497a:	7ff00713          	li	a4,2047
    497e:	000807b7          	lui	a5,0x80
/cygdrive/d/Jenkins/workspace/build-system-3/source-packages/gcc-7.4.0-riscv-bsp-v5_1_0-branch/libgcc/soft-fp/muldf3.c:47
    4982:	4601                	c.li	a2,0
/cygdrive/d/Jenkins/workspace/build-system-3/source-packages/gcc-7.4.0-riscv-bsp-v5_1_0-branch/libgcc/soft-fp/muldf3.c:46
    4984:	4841                	c.li	a6,16
    4986:	b9d9                	c.j	465c <__muldf3+0xcc>
    4988:	4685                	c.li	a3,1
    498a:	8e99                	c.sub	a3,a4
/cygdrive/d/Jenkins/workspace/build-system-3/source-packages/gcc-7.4.0-riscv-bsp-v5_1_0-branch/libgcc/soft-fp/muldf3.c:47 (discriminator 7)
    498c:	eb51                	c.bnez	a4,4a20 <__muldf3+0x490>
/cygdrive/d/Jenkins/workspace/build-system-3/source-packages/gcc-7.4.0-riscv-bsp-v5_1_0-branch/libgcc/soft-fp/muldf3.c:47 (discriminator 36)
    498e:	00767593          	andi	a1,a2,7
    4992:	873e                	c.mv	a4,a5
    4994:	00058a63          	beqz	a1,49a8 <__muldf3+0x418>
/cygdrive/d/Jenkins/workspace/build-system-3/source-packages/gcc-7.4.0-riscv-bsp-v5_1_0-branch/libgcc/soft-fp/muldf3.c:47 (discriminator 38)
    4998:	00186813          	ori	a6,a6,1
    499c:	1e23565b          	beqc	t1,2,4b88 <__muldf3+0x5f8>
    49a0:	1c335c5b          	beqc	t1,3,4b78 <__muldf3+0x5e8>
    49a4:	1e030663          	beqz	t1,4b90 <__muldf3+0x600>
/cygdrive/d/Jenkins/workspace/build-system-3/source-packages/gcc-7.4.0-riscv-bsp-v5_1_0-branch/libgcc/soft-fp/muldf3.c:47 (discriminator 46)
    49a8:	01875593          	srli	a1,a4,0x18
    49ac:	0015c593          	xori	a1,a1,1
    49b0:	0015f593          	andi	a1,a1,1
/cygdrive/d/Jenkins/workspace/build-system-3/source-packages/gcc-7.4.0-riscv-bsp-v5_1_0-branch/libgcc/soft-fp/muldf3.c:47 (discriminator 56)
    49b4:	41ef8f93          	addi	t6,t6,1054
    49b8:	01f61733          	sll	a4,a2,t6
    49bc:	00d65533          	srl	a0,a2,a3
    49c0:	01f79fb3          	sll	t6,a5,t6
    49c4:	00e03633          	snez	a2,a4
    49c8:	00afefb3          	or	t6,t6,a0
    49cc:	01f66633          	or	a2,a2,t6
    49d0:	00767713          	andi	a4,a2,7
    49d4:	00d7d7b3          	srl	a5,a5,a3
    49d8:	00070a63          	beqz	a4,49ec <__muldf3+0x45c>
/cygdrive/d/Jenkins/workspace/build-system-3/source-packages/gcc-7.4.0-riscv-bsp-v5_1_0-branch/libgcc/soft-fp/muldf3.c:47 (discriminator 70)
    49dc:	00186813          	ori	a6,a6,1
    49e0:	1c23545b          	beqc	t1,2,4ba8 <__muldf3+0x618>
    49e4:	1c335e5b          	beqc	t1,3,4bc0 <__muldf3+0x630>
    49e8:	14030a63          	beqz	t1,4b3c <__muldf3+0x5ac>
/cygdrive/d/Jenkins/workspace/build-system-3/source-packages/gcc-7.4.0-riscv-bsp-v5_1_0-branch/libgcc/soft-fp/muldf3.c:47 (discriminator 78)
    49ec:	1777fc5b          	bbc	a5,23,4b64 <__muldf3+0x5d4>
/cygdrive/d/Jenkins/workspace/build-system-3/source-packages/gcc-7.4.0-riscv-bsp-v5_1_0-branch/libgcc/soft-fp/muldf3.c:47 (discriminator 83)
    49f0:	00186813          	ori	a6,a6,1
    49f4:	4705                	c.li	a4,1
    49f6:	4781                	c.li	a5,0
    49f8:	00000613          	li	a2,0
    49fc:	01d008b3          	add	a7,zero,t4
/cygdrive/d/Jenkins/workspace/build-system-3/source-packages/gcc-7.4.0-riscv-bsp-v5_1_0-branch/libgcc/soft-fp/muldf3.c:47 (discriminator 86)
    4a00:	c4058ee3          	beqz	a1,465c <__muldf3+0xcc>
/cygdrive/d/Jenkins/workspace/build-system-3/source-packages/gcc-7.4.0-riscv-bsp-v5_1_0-branch/libgcc/soft-fp/muldf3.c:47 (discriminator 87)
    4a04:	84087c5b          	bbc	a6,0,465c <__muldf3+0xcc>
/cygdrive/d/Jenkins/workspace/build-system-3/source-packages/gcc-7.4.0-riscv-bsp-v5_1_0-branch/libgcc/soft-fp/muldf3.c:47 (discriminator 88)
    4a08:	00286813          	ori	a6,a6,2
    4a0c:	04c0006f          	j	4a58 <__muldf3+0x4c8>
/cygdrive/d/Jenkins/workspace/build-system-3/source-packages/gcc-7.4.0-riscv-bsp-v5_1_0-branch/libgcc/soft-fp/muldf3.c:47
    4a10:	4881                	c.li	a7,0
    4a12:	7ff00713          	li	a4,2047
    4a16:	000807b7          	lui	a5,0x80
    4a1a:	4601                	c.li	a2,0
    4a1c:	c41ff06f          	j	465c <__muldf3+0xcc>
/cygdrive/d/Jenkins/workspace/build-system-3/source-packages/gcc-7.4.0-riscv-bsp-v5_1_0-branch/libgcc/soft-fp/muldf3.c:47 (discriminator 53)
    4a20:	03800593          	li	a1,56
    4a24:	0cd5da63          	bge	a1,a3,4af8 <__muldf3+0x568>
/cygdrive/d/Jenkins/workspace/build-system-3/source-packages/gcc-7.4.0-riscv-bsp-v5_1_0-branch/libgcc/soft-fp/muldf3.c:47 (discriminator 55)
    4a28:	8e5d                	c.or	a2,a5
    4a2a:	c20d                	c.beqz	a2,4a4c <__muldf3+0x4bc>
/cygdrive/d/Jenkins/workspace/build-system-3/source-packages/gcc-7.4.0-riscv-bsp-v5_1_0-branch/libgcc/soft-fp/muldf3.c:47 (discriminator 91)
    4a2c:	00186813          	ori	a6,a6,1
    4a30:	01d03633          	snez	a2,t4
    4a34:	00235c5b          	beqc	t1,2,4a4c <__muldf3+0x4bc>
    4a38:	ffd30793          	addi	a5,t1,-3
    4a3c:	0017b793          	seqz	a5,a5
    4a40:	001eb613          	seqz	a2,t4
    4a44:	40f007b3          	neg	a5,a5
    4a48:	00f67633          	and	a2,a2,a5
/cygdrive/d/Jenkins/workspace/build-system-3/source-packages/gcc-7.4.0-riscv-bsp-v5_1_0-branch/libgcc/soft-fp/muldf3.c:47 (discriminator 104)
    4a4c:	00286813          	ori	a6,a6,2
    4a50:	88f6                	c.mv	a7,t4
    4a52:	4701                	c.li	a4,0
    4a54:	00000793          	li	a5,0
/cygdrive/d/Jenkins/workspace/build-system-3/source-packages/gcc-7.4.0-riscv-bsp-v5_1_0-branch/libgcc/soft-fp/muldf3.c:47
    4a58:	4581                	c.li	a1,0
    4a5a:	fff006b7          	lui	a3,0xfff00
    4a5e:	8eed                	c.and	a3,a1
    4a60:	4c07a7db          	bfoz	a5,a5,19,0
    4a64:	8fd5                	c.or	a5,a3
    4a66:	801006b7          	lui	a3,0x80100
    4a6a:	16fd                	c.addi	a3,-1
    4a6c:	0752                	c.slli	a4,0x14
    4a6e:	8efd                	c.and	a3,a5
    4a70:	8f55                	c.or	a4,a3
    4a72:	08fe                	c.slli	a7,0x1f
    4a74:	7807275b          	bfoz	a4,a4,30,0
    4a78:	00c00533          	add	a0,zero,a2
    4a7c:	011765b3          	or	a1,a4,a7
/cygdrive/d/Jenkins/workspace/build-system-3/source-packages/gcc-7.4.0-riscv-bsp-v5_1_0-branch/libgcc/soft-fp/muldf3.c:48 (discriminator 1)
    4a80:	00182073          	csrs	fflags,a6
/cygdrive/d/Jenkins/workspace/build-system-3/source-packages/gcc-7.4.0-riscv-bsp-v5_1_0-branch/libgcc/soft-fp/muldf3.c:50 (discriminator 1)
    4a84:	c05ff06f          	j	4688 <__muldf3+0xf8>
/cygdrive/d/Jenkins/workspace/build-system-3/source-packages/gcc-7.4.0-riscv-bsp-v5_1_0-branch/libgcc/soft-fp/muldf3.c:45 (discriminator 27)
    4a88:	fd888793          	addi	a5,a7,-40
    4a8c:	00f617b3          	sll	a5,a2,a5
    4a90:	4601                	c.li	a2,0
    4a92:	b1c9                	c.j	4754 <__muldf3+0x1c4>
/cygdrive/d/Jenkins/workspace/build-system-3/source-packages/gcc-7.4.0-riscv-bsp-v5_1_0-branch/libgcc/soft-fp/muldf3.c:44 (discriminator 27)
    4a94:	fd870793          	addi	a5,a4,-40 # feffffd8 <_DATA_LMA_START+0xdeff9400>
    4a98:	00f512b3          	sll	t0,a0,a5
    4a9c:	4501                	c.li	a0,0
    4a9e:	b9b9                	c.j	46fc <__muldf3+0x16c>
    4aa0:	4731                	c.li	a4,12
    4aa2:	7ff00e13          	li	t3,2047
/cygdrive/d/Jenkins/workspace/build-system-3/source-packages/gcc-7.4.0-riscv-bsp-v5_1_0-branch/libgcc/soft-fp/muldf3.c:44
    4aa6:	438d                	c.li	t2,3
    4aa8:	4841                	c.li	a6,16
    4aaa:	b63d                	c.j	45d8 <__muldf3+0x48>
/cygdrive/d/Jenkins/workspace/build-system-3/source-packages/gcc-7.4.0-riscv-bsp-v5_1_0-branch/libgcc/soft-fp/muldf3.c:46
    4aac:	8ff2                	c.mv	t6,t3
    4aae:	bd0d                	c.j	48e0 <__muldf3+0x350>
/cygdrive/d/Jenkins/workspace/build-system-3/source-packages/gcc-7.4.0-riscv-bsp-v5_1_0-branch/libgcc/soft-fp/muldf3.c:47 (discriminator 24)
    4ab0:	02235a5b          	beqc	t1,2,4ae4 <__muldf3+0x554>
    4ab4:	0a33505b          	beqc	t1,3,4b54 <__muldf3+0x5c4>
    4ab8:	02030863          	beqz	t1,4ae8 <__muldf3+0x558>
    4abc:	001007b7          	lui	a5,0x100
    4ac0:	7fe00713          	li	a4,2046
    4ac4:	17fd                	c.addi	a5,-1
/cygdrive/d/Jenkins/workspace/build-system-3/source-packages/gcc-7.4.0-riscv-bsp-v5_1_0-branch/libgcc/soft-fp/muldf3.c:47
    4ac6:	567d                	c.li	a2,-1
    4ac8:	00586813          	ori	a6,a6,5
    4acc:	f8dff06f          	j	4a58 <__muldf3+0x4c8>
/cygdrive/d/Jenkins/workspace/build-system-3/source-packages/gcc-7.4.0-riscv-bsp-v5_1_0-branch/libgcc/soft-fp/muldf3.c:47 (discriminator 13)
    4ad0:	e40e82e3          	beqz	t4,4914 <__muldf3+0x384>
/cygdrive/d/Jenkins/workspace/build-system-3/source-packages/gcc-7.4.0-riscv-bsp-v5_1_0-branch/libgcc/soft-fp/muldf3.c:47 (discriminator 20)
    4ad4:	00860693          	addi	a3,a2,8
    4ad8:	00c6b633          	sltu	a2,a3,a2
    4adc:	97b2                	c.add	a5,a2
    4ade:	8636                	c.mv	a2,a3
    4ae0:	e35ff06f          	j	4914 <__muldf3+0x384>
/cygdrive/d/Jenkins/workspace/build-system-3/source-packages/gcc-7.4.0-riscv-bsp-v5_1_0-branch/libgcc/soft-fp/muldf3.c:47 (discriminator 27)
    4ae4:	fc0e8ce3          	beqz	t4,4abc <__muldf3+0x52c>
    4ae8:	7ff00713          	li	a4,2047
    4aec:	4781                	c.li	a5,0
/cygdrive/d/Jenkins/workspace/build-system-3/source-packages/gcc-7.4.0-riscv-bsp-v5_1_0-branch/libgcc/soft-fp/muldf3.c:47
    4aee:	4601                	c.li	a2,0
    4af0:	00586813          	ori	a6,a6,5
    4af4:	f65ff06f          	j	4a58 <__muldf3+0x4c8>
/cygdrive/d/Jenkins/workspace/build-system-3/source-packages/gcc-7.4.0-riscv-bsp-v5_1_0-branch/libgcc/soft-fp/muldf3.c:47 (discriminator 54)
    4af8:	45fd                	c.li	a1,31
    4afa:	0cd5dd63          	bge	a1,a3,4bd4 <__muldf3+0x644>
/cygdrive/d/Jenkins/workspace/build-system-3/source-packages/gcc-7.4.0-riscv-bsp-v5_1_0-branch/libgcc/soft-fp/muldf3.c:47 (discriminator 57)
    4afe:	5585                	c.li	a1,-31
    4b00:	40e58733          	sub	a4,a1,a4
    4b04:	00e7d733          	srl	a4,a5,a4
    4b08:	0006d8db          	beqc	a3,32,4b18 <__muldf3+0x588>
/cygdrive/d/Jenkins/workspace/build-system-3/source-packages/gcc-7.4.0-riscv-bsp-v5_1_0-branch/libgcc/soft-fp/muldf3.c:47 (discriminator 65)
    4b0c:	43ef8f93          	addi	t6,t6,1086
    4b10:	01f797b3          	sll	a5,a5,t6
    4b14:	00f66633          	or	a2,a2,a5
/cygdrive/d/Jenkins/workspace/build-system-3/source-packages/gcc-7.4.0-riscv-bsp-v5_1_0-branch/libgcc/soft-fp/muldf3.c:47 (discriminator 68)
    4b18:	00c03633          	snez	a2,a2
    4b1c:	8e59                	c.or	a2,a4
    4b1e:	00767793          	andi	a5,a2,7
    4b22:	c3dd                	c.beqz	a5,4bc8 <__muldf3+0x638>
/cygdrive/d/Jenkins/workspace/build-system-3/source-packages/gcc-7.4.0-riscv-bsp-v5_1_0-branch/libgcc/soft-fp/muldf3.c:47
    4b24:	00186813          	ori	a6,a6,1
    4b28:	06235e5b          	beqc	t1,2,4ba4 <__muldf3+0x614>
    4b2c:	0833585b          	beqc	t1,3,4bbc <__muldf3+0x62c>
    4b30:	4585                	c.li	a1,1
    4b32:	4781                	c.li	a5,0
    4b34:	02031863          	bnez	t1,4b64 <__muldf3+0x5d4>
    4b38:	4781                	c.li	a5,0
    4b3a:	4585                	c.li	a1,1
/cygdrive/d/Jenkins/workspace/build-system-3/source-packages/gcc-7.4.0-riscv-bsp-v5_1_0-branch/libgcc/soft-fp/muldf3.c:47 (discriminator 73)
    4b3c:	00f67713          	andi	a4,a2,15
    4b40:	aa47565b          	beqc	a4,4,49ec <__muldf3+0x45c>
/cygdrive/d/Jenkins/workspace/build-system-3/source-packages/gcc-7.4.0-riscv-bsp-v5_1_0-branch/libgcc/soft-fp/muldf3.c:47 (discriminator 77)
    4b44:	00460713          	addi	a4,a2,4
    4b48:	00c73633          	sltu	a2,a4,a2
    4b4c:	97b2                	c.add	a5,a2
    4b4e:	863a                	c.mv	a2,a4
    4b50:	e9dff06f          	j	49ec <__muldf3+0x45c>
/cygdrive/d/Jenkins/workspace/build-system-3/source-packages/gcc-7.4.0-riscv-bsp-v5_1_0-branch/libgcc/soft-fp/muldf3.c:47 (discriminator 28)
    4b54:	f80e8ae3          	beqz	t4,4ae8 <__muldf3+0x558>
    4b58:	f65ff06f          	j	4abc <__muldf3+0x52c>
/cygdrive/d/Jenkins/workspace/build-system-3/source-packages/gcc-7.4.0-riscv-bsp-v5_1_0-branch/libgcc/soft-fp/muldf3.c:47 (discriminator 14)
    4b5c:	da0e9ce3          	bnez	t4,4914 <__muldf3+0x384>
    4b60:	f75ff06f          	j	4ad4 <__muldf3+0x544>
/cygdrive/d/Jenkins/workspace/build-system-3/source-packages/gcc-7.4.0-riscv-bsp-v5_1_0-branch/libgcc/soft-fp/muldf3.c:47
    4b64:	00365713          	srli	a4,a2,0x3
    4b68:	01d79613          	slli	a2,a5,0x1d
    4b6c:	8e59                	c.or	a2,a4
    4b6e:	5837a7db          	bfoz	a5,a5,22,3
    4b72:	4701                	c.li	a4,0
    4b74:	e89ff06f          	j	49fc <__muldf3+0x46c>
/cygdrive/d/Jenkins/workspace/build-system-3/source-packages/gcc-7.4.0-riscv-bsp-v5_1_0-branch/libgcc/soft-fp/muldf3.c:47 (discriminator 44)
    4b78:	e20e98e3          	bnez	t4,49a8 <__muldf3+0x418>
/cygdrive/d/Jenkins/workspace/build-system-3/source-packages/gcc-7.4.0-riscv-bsp-v5_1_0-branch/libgcc/soft-fp/muldf3.c:47 (discriminator 50)
    4b7c:	ff863713          	sltiu	a4,a2,-8
    4b80:	00174713          	xori	a4,a4,1
    4b84:	973e                	c.add	a4,a5
    4b86:	b50d                	c.j	49a8 <__muldf3+0x418>
/cygdrive/d/Jenkins/workspace/build-system-3/source-packages/gcc-7.4.0-riscv-bsp-v5_1_0-branch/libgcc/soft-fp/muldf3.c:47 (discriminator 43)
    4b88:	e20e80e3          	beqz	t4,49a8 <__muldf3+0x418>
    4b8c:	ff1ff06f          	j	4b7c <__muldf3+0x5ec>
/cygdrive/d/Jenkins/workspace/build-system-3/source-packages/gcc-7.4.0-riscv-bsp-v5_1_0-branch/libgcc/soft-fp/muldf3.c:47 (discriminator 41)
    4b90:	00f67593          	andi	a1,a2,15
    4b94:	a045da5b          	beqc	a1,4,49a8 <__muldf3+0x418>
/cygdrive/d/Jenkins/workspace/build-system-3/source-packages/gcc-7.4.0-riscv-bsp-v5_1_0-branch/libgcc/soft-fp/muldf3.c:47 (discriminator 45)
    4b98:	ffc63713          	sltiu	a4,a2,-4
    4b9c:	00174713          	xori	a4,a4,1
    4ba0:	973e                	c.add	a4,a5
    4ba2:	b519                	c.j	49a8 <__muldf3+0x418>
/cygdrive/d/Jenkins/workspace/build-system-3/source-packages/gcc-7.4.0-riscv-bsp-v5_1_0-branch/libgcc/soft-fp/muldf3.c:47
    4ba4:	4781                	c.li	a5,0
    4ba6:	4585                	c.li	a1,1
/cygdrive/d/Jenkins/workspace/build-system-3/source-packages/gcc-7.4.0-riscv-bsp-v5_1_0-branch/libgcc/soft-fp/muldf3.c:47 (discriminator 75)
    4ba8:	e40e82e3          	beqz	t4,49ec <__muldf3+0x45c>
/cygdrive/d/Jenkins/workspace/build-system-3/source-packages/gcc-7.4.0-riscv-bsp-v5_1_0-branch/libgcc/soft-fp/muldf3.c:47 (discriminator 82)
    4bac:	00860713          	addi	a4,a2,8
    4bb0:	00c73633          	sltu	a2,a4,a2
    4bb4:	97b2                	c.add	a5,a2
    4bb6:	863a                	c.mv	a2,a4
    4bb8:	e35ff06f          	j	49ec <__muldf3+0x45c>
/cygdrive/d/Jenkins/workspace/build-system-3/source-packages/gcc-7.4.0-riscv-bsp-v5_1_0-branch/libgcc/soft-fp/muldf3.c:47
    4bbc:	4781                	c.li	a5,0
    4bbe:	4585                	c.li	a1,1
/cygdrive/d/Jenkins/workspace/build-system-3/source-packages/gcc-7.4.0-riscv-bsp-v5_1_0-branch/libgcc/soft-fp/muldf3.c:47 (discriminator 76)
    4bc0:	e20e96e3          	bnez	t4,49ec <__muldf3+0x45c>
    4bc4:	fe9ff06f          	j	4bac <__muldf3+0x61c>
/cygdrive/d/Jenkins/workspace/build-system-3/source-packages/gcc-7.4.0-riscv-bsp-v5_1_0-branch/libgcc/soft-fp/muldf3.c:47
    4bc8:	820d                	c.srli	a2,0x3
    4bca:	88f6                	c.mv	a7,t4
    4bcc:	4701                	c.li	a4,0
    4bce:	4781                	c.li	a5,0
    4bd0:	e35ff06f          	j	4a04 <__muldf3+0x474>
    4bd4:	4585                	c.li	a1,1
    4bd6:	bbf9                	c.j	49b4 <__muldf3+0x424>
    4bd8:	0001                	c.nop
	...

00004bdc <__subdf3>:
__subdf3():
/cygdrive/d/Jenkins/workspace/build-system-3/source-packages/gcc-7.4.0-riscv-bsp-v5_1_0-branch/libgcc/soft-fp/subdf3.c:43
    4bdc:	00202f73          	frrm	t5
/cygdrive/d/Jenkins/workspace/build-system-3/source-packages/gcc-7.4.0-riscv-bsp-v5_1_0-branch/libgcc/soft-fp/subdf3.c:44
    4be0:	001007b7          	lui	a5,0x100
    4be4:	17fd                	c.addi	a5,-1
    4be6:	00f5f833          	and	a6,a1,a5
/cygdrive/d/Jenkins/workspace/build-system-3/source-packages/gcc-7.4.0-riscv-bsp-v5_1_0-branch/libgcc/soft-fp/subdf3.c:45
    4bea:	8ff5                	c.and	a5,a3
/cygdrive/d/Jenkins/workspace/build-system-3/source-packages/gcc-7.4.0-riscv-bsp-v5_1_0-branch/libgcc/soft-fp/subdf3.c:44
    4bec:	01d55e13          	srli	t3,a0,0x1d
/cygdrive/d/Jenkins/workspace/build-system-3/source-packages/gcc-7.4.0-riscv-bsp-v5_1_0-branch/libgcc/soft-fp/subdf3.c:45
    4bf0:	01d65713          	srli	a4,a2,0x1d
/cygdrive/d/Jenkins/workspace/build-system-3/source-packages/gcc-7.4.0-riscv-bsp-v5_1_0-branch/libgcc/soft-fp/subdf3.c:44
    4bf4:	080e                	c.slli	a6,0x3
/cygdrive/d/Jenkins/workspace/build-system-3/source-packages/gcc-7.4.0-riscv-bsp-v5_1_0-branch/libgcc/soft-fp/subdf3.c:45
    4bf6:	078e                	c.slli	a5,0x3
    4bf8:	7946a35b          	bfoz	t1,a3,30,20
/cygdrive/d/Jenkins/workspace/build-system-3/source-packages/gcc-7.4.0-riscv-bsp-v5_1_0-branch/libgcc/soft-fp/subdf3.c:46
    4bfc:	7ff00893          	li	a7,2047
/cygdrive/d/Jenkins/workspace/build-system-3/source-packages/gcc-7.4.0-riscv-bsp-v5_1_0-branch/libgcc/soft-fp/subdf3.c:44
    4c00:	7945afdb          	bfoz	t6,a1,30,20
    4c04:	010e6833          	or	a6,t3,a6
    4c08:	81fd                	c.srli	a1,0x1f
    4c0a:	050e                	c.slli	a0,0x3
/cygdrive/d/Jenkins/workspace/build-system-3/source-packages/gcc-7.4.0-riscv-bsp-v5_1_0-branch/libgcc/soft-fp/subdf3.c:45
    4c0c:	82fd                	c.srli	a3,0x1f
    4c0e:	8fd9                	c.or	a5,a4
    4c10:	00361613          	slli	a2,a2,0x3
/cygdrive/d/Jenkins/workspace/build-system-3/source-packages/gcc-7.4.0-riscv-bsp-v5_1_0-branch/libgcc/soft-fp/subdf3.c:46
    4c14:	09130263          	beq	t1,a7,4c98 <__subdf3+0xbc>
/cygdrive/d/Jenkins/workspace/build-system-3/source-packages/gcc-7.4.0-riscv-bsp-v5_1_0-branch/libgcc/soft-fp/subdf3.c:46 (discriminator 3)
    4c18:	0016c693          	xori	a3,a3,1
    4c1c:	406f8eb3          	sub	t4,t6,t1
    4c20:	08b68463          	beq	a3,a1,4ca8 <__subdf3+0xcc>
/cygdrive/d/Jenkins/workspace/build-system-3/source-packages/gcc-7.4.0-riscv-bsp-v5_1_0-branch/libgcc/soft-fp/subdf3.c:46 (discriminator 13)
    4c24:	13d05663          	blez	t4,4d50 <__subdf3+0x174>
/cygdrive/d/Jenkins/workspace/build-system-3/source-packages/gcc-7.4.0-riscv-bsp-v5_1_0-branch/libgcc/soft-fp/subdf3.c:46 (discriminator 190)
    4c28:	16031a63          	bnez	t1,4d9c <__subdf3+0x1c0>
/cygdrive/d/Jenkins/workspace/build-system-3/source-packages/gcc-7.4.0-riscv-bsp-v5_1_0-branch/libgcc/soft-fp/subdf3.c:46 (discriminator 192)
    4c2c:	00c7e733          	or	a4,a5,a2
    4c30:	1e071863          	bnez	a4,4e20 <__subdf3+0x244>
/cygdrive/d/Jenkins/workspace/build-system-3/source-packages/gcc-7.4.0-riscv-bsp-v5_1_0-branch/libgcc/soft-fp/subdf3.c:46 (discriminator 194)
    4c34:	7ff00793          	li	a5,2047
    4c38:	4afe8e63          	beq	t4,a5,50f4 <__subdf3+0x518>
    4c3c:	01d81893          	slli	a7,a6,0x1d
    4c40:	00355513          	srli	a0,a0,0x3
/cygdrive/d/Jenkins/workspace/build-system-3/source-packages/gcc-7.4.0-riscv-bsp-v5_1_0-branch/libgcc/soft-fp/subdf3.c:47
    4c44:	7ff00693          	li	a3,2047
    4c48:	00a8e8b3          	or	a7,a7,a0
    4c4c:	00385713          	srli	a4,a6,0x3
    4c50:	12de9e63          	bne	t4,a3,4d8c <__subdf3+0x1b0>
/cygdrive/d/Jenkins/workspace/build-system-3/source-packages/gcc-7.4.0-riscv-bsp-v5_1_0-branch/libgcc/soft-fp/subdf3.c:47 (discriminator 64)
    4c54:	00e8e733          	or	a4,a7,a4
    4c58:	60070263          	beqz	a4,525c <__subdf3+0x680>
    4c5c:	4681                	c.li	a3,0
    4c5e:	7ff00793          	li	a5,2047
    4c62:	00080737          	lui	a4,0x80
/cygdrive/d/Jenkins/workspace/build-system-3/source-packages/gcc-7.4.0-riscv-bsp-v5_1_0-branch/libgcc/soft-fp/subdf3.c:47
    4c66:	4881                	c.li	a7,0
/cygdrive/d/Jenkins/workspace/build-system-3/source-packages/gcc-7.4.0-riscv-bsp-v5_1_0-branch/libgcc/soft-fp/subdf3.c:47 (discriminator 74)
    4c68:	4581                	c.li	a1,0
    4c6a:	fff00637          	lui	a2,0xfff00
    4c6e:	8e6d                	c.and	a2,a1
    4c70:	4c07275b          	bfoz	a4,a4,19,0
    4c74:	8f51                	c.or	a4,a2
    4c76:	01479613          	slli	a2,a5,0x14
    4c7a:	801007b7          	lui	a5,0x80100
    4c7e:	17fd                	c.addi	a5,-1
    4c80:	8ff9                	c.and	a5,a4
    4c82:	8fd1                	c.or	a5,a2
    4c84:	06fe                	c.slli	a3,0x1f
    4c86:	7807a7db          	bfoz	a5,a5,30,0
    4c8a:	8546                	c.mv	a0,a7
    4c8c:	00d7e5b3          	or	a1,a5,a3
/cygdrive/d/Jenkins/workspace/build-system-3/source-packages/gcc-7.4.0-riscv-bsp-v5_1_0-branch/libgcc/soft-fp/subdf3.c:48 (discriminator 74)
    4c90:	32031263          	bnez	t1,4fb4 <__subdf3+0x3d8>
/cygdrive/d/Jenkins/workspace/build-system-3/source-packages/gcc-7.4.0-riscv-bsp-v5_1_0-branch/libgcc/soft-fp/subdf3.c:51
    4c94:	00008067          	ret
/cygdrive/d/Jenkins/workspace/build-system-3/source-packages/gcc-7.4.0-riscv-bsp-v5_1_0-branch/libgcc/soft-fp/subdf3.c:46 (discriminator 2)
    4c98:	00c7e733          	or	a4,a5,a2
    4c9c:	f6070ee3          	beqz	a4,4c18 <__subdf3+0x3c>
    4ca0:	406f8eb3          	sub	t4,t6,t1
/cygdrive/d/Jenkins/workspace/build-system-3/source-packages/gcc-7.4.0-riscv-bsp-v5_1_0-branch/libgcc/soft-fp/subdf3.c:46
    4ca4:	f8b690e3          	bne	a3,a1,4c24 <__subdf3+0x48>
/cygdrive/d/Jenkins/workspace/build-system-3/source-packages/gcc-7.4.0-riscv-bsp-v5_1_0-branch/libgcc/soft-fp/subdf3.c:46 (discriminator 12)
    4ca8:	2dd05a63          	blez	t4,4f7c <__subdf3+0x3a0>
/cygdrive/d/Jenkins/workspace/build-system-3/source-packages/gcc-7.4.0-riscv-bsp-v5_1_0-branch/libgcc/soft-fp/subdf3.c:46 (discriminator 14)
    4cac:	12031663          	bnez	t1,4dd8 <__subdf3+0x1fc>
/cygdrive/d/Jenkins/workspace/build-system-3/source-packages/gcc-7.4.0-riscv-bsp-v5_1_0-branch/libgcc/soft-fp/subdf3.c:46 (discriminator 16)
    4cb0:	00c7e733          	or	a4,a5,a2
    4cb4:	d341                	c.beqz	a4,4c34 <__subdf3+0x58>
/cygdrive/d/Jenkins/workspace/build-system-3/source-packages/gcc-7.4.0-riscv-bsp-v5_1_0-branch/libgcc/soft-fp/subdf3.c:46 (discriminator 19)
    4cb6:	fffe8713          	addi	a4,t4,-1
    4cba:	58071163          	bnez	a4,523c <__subdf3+0x660>
/cygdrive/d/Jenkins/workspace/build-system-3/source-packages/gcc-7.4.0-riscv-bsp-v5_1_0-branch/libgcc/soft-fp/subdf3.c:46 (discriminator 28)
    4cbe:	00c508b3          	add	a7,a0,a2
    4cc2:	97c2                	c.add	a5,a6
    4cc4:	00a8b533          	sltu	a0,a7,a0
    4cc8:	97aa                	c.add	a5,a0
    4cca:	4e09                	c.li	t3,2
/cygdrive/d/Jenkins/workspace/build-system-3/source-packages/gcc-7.4.0-riscv-bsp-v5_1_0-branch/libgcc/soft-fp/subdf3.c:44 (discriminator 28)
    4ccc:	00100f93          	li	t6,1
/cygdrive/d/Jenkins/workspace/build-system-3/source-packages/gcc-7.4.0-riscv-bsp-v5_1_0-branch/libgcc/soft-fp/subdf3.c:46 (discriminator 28)
    4cd0:	2977f65b          	bbc	a5,23,4f5c <__subdf3+0x380>
/cygdrive/d/Jenkins/workspace/build-system-3/source-packages/gcc-7.4.0-riscv-bsp-v5_1_0-branch/libgcc/soft-fp/subdf3.c:46
    4cd4:	ff800737          	lui	a4,0xff800
    4cd8:	177d                	c.addi	a4,-1
    4cda:	8ff9                	c.and	a5,a4
    4cdc:	0018d713          	srli	a4,a7,0x1
    4ce0:	0018f893          	andi	a7,a7,1
    4ce4:	011768b3          	or	a7,a4,a7
    4ce8:	01f79713          	slli	a4,a5,0x1f
    4cec:	011768b3          	or	a7,a4,a7
    4cf0:	8385                	c.srli	a5,0x1
    4cf2:	0078f713          	andi	a4,a7,7
    4cf6:	4301                	c.li	t1,0
    4cf8:	00000e93          	li	t4,0
/cygdrive/d/Jenkins/workspace/build-system-3/source-packages/gcc-7.4.0-riscv-bsp-v5_1_0-branch/libgcc/soft-fp/subdf3.c:47 (discriminator 28)
    4cfc:	0c070ee3          	beqz	a4,55d8 <__subdf3+0x9fc>
/cygdrive/d/Jenkins/workspace/build-system-3/source-packages/gcc-7.4.0-riscv-bsp-v5_1_0-branch/libgcc/soft-fp/subdf3.c:47 (discriminator 29)
    4d00:	322f5e5b          	beqc	t5,2,503c <__subdf3+0x460>
    4d04:	343f545b          	beqc	t5,3,504c <__subdf3+0x470>
    4d08:	300f0063          	beqz	t5,5008 <__subdf3+0x42c>
    4d0c:	00800737          	lui	a4,0x800
    4d10:	00f77733          	and	a4,a4,a5
/cygdrive/d/Jenkins/workspace/build-system-3/source-packages/gcc-7.4.0-riscv-bsp-v5_1_0-branch/libgcc/soft-fp/subdf3.c:47
    4d14:	0a030ee3          	beqz	t1,55d0 <__subdf3+0x9f4>
/cygdrive/d/Jenkins/workspace/build-system-3/source-packages/gcc-7.4.0-riscv-bsp-v5_1_0-branch/libgcc/soft-fp/subdf3.c:47 (discriminator 44)
    4d18:	00236313          	ori	t1,t1,2
/cygdrive/d/Jenkins/workspace/build-system-3/source-packages/gcc-7.4.0-riscv-bsp-v5_1_0-branch/libgcc/soft-fp/subdf3.c:47 (discriminator 46)
    4d1c:	0a0704e3          	beqz	a4,55c4 <__subdf3+0x9e8>
/cygdrive/d/Jenkins/workspace/build-system-3/source-packages/gcc-7.4.0-riscv-bsp-v5_1_0-branch/libgcc/soft-fp/subdf3.c:47 (discriminator 47)
    4d20:	001e0613          	addi	a2,t3,1
    4d24:	7ff00713          	li	a4,2047
    4d28:	2ce60463          	beq	a2,a4,4ff0 <__subdf3+0x414>
/cygdrive/d/Jenkins/workspace/build-system-3/source-packages/gcc-7.4.0-riscv-bsp-v5_1_0-branch/libgcc/soft-fp/subdf3.c:47
    4d2c:	ff800737          	lui	a4,0xff800
    4d30:	177d                	c.addi	a4,-1
    4d32:	8f7d                	c.and	a4,a5
    4d34:	01d71513          	slli	a0,a4,0x1d
    4d38:	0038d893          	srli	a7,a7,0x3
    4d3c:	011568b3          	or	a7,a0,a7
    4d40:	5837275b          	bfoz	a4,a4,22,3
    4d44:	7ff67793          	andi	a5,a2,2047
    4d48:	0015f693          	andi	a3,a1,1
    4d4c:	f1dff06f          	j	4c68 <__subdf3+0x8c>
/cygdrive/d/Jenkins/workspace/build-system-3/source-packages/gcc-7.4.0-riscv-bsp-v5_1_0-branch/libgcc/soft-fp/subdf3.c:46 (discriminator 191)
    4d50:	1a0e9063          	bnez	t4,4ef0 <__subdf3+0x314>
/cygdrive/d/Jenkins/workspace/build-system-3/source-packages/gcc-7.4.0-riscv-bsp-v5_1_0-branch/libgcc/soft-fp/subdf3.c:46 (discriminator 243)
    4d54:	001f8713          	addi	a4,t6,1
    4d58:	7ff77713          	andi	a4,a4,2047
    4d5c:	4885                	c.li	a7,1
    4d5e:	36e8d963          	bge	a7,a4,50d0 <__subdf3+0x4f4>
/cygdrive/d/Jenkins/workspace/build-system-3/source-packages/gcc-7.4.0-riscv-bsp-v5_1_0-branch/libgcc/soft-fp/subdf3.c:46 (discriminator 295)
    4d62:	40c508b3          	sub	a7,a0,a2
    4d66:	40f80333          	sub	t1,a6,a5
    4d6a:	01153733          	sltu	a4,a0,a7
    4d6e:	40e30333          	sub	t1,t1,a4
    4d72:	0173745b          	bbc	t1,23,4d7a <__subdf3+0x19e>
    4d76:	3ca0006f          	j	5140 <__subdf3+0x564>
/cygdrive/d/Jenkins/workspace/build-system-3/source-packages/gcc-7.4.0-riscv-bsp-v5_1_0-branch/libgcc/soft-fp/subdf3.c:46 (discriminator 336)
    4d7a:	0068e733          	or	a4,a7,t1
    4d7e:	e379                	c.bnez	a4,4e44 <__subdf3+0x268>
/cygdrive/d/Jenkins/workspace/build-system-3/source-packages/gcc-7.4.0-riscv-bsp-v5_1_0-branch/libgcc/soft-fp/subdf3.c:46 (discriminator 337)
    4d80:	ffef0593          	addi	a1,t5,-2
    4d84:	0015b593          	seqz	a1,a1
    4d88:	4881                	c.li	a7,0
    4d8a:	4301                	c.li	t1,0
    4d8c:	4c07275b          	bfoz	a4,a4,19,0
    4d90:	7ffef793          	andi	a5,t4,2047
    4d94:	0015f693          	andi	a3,a1,1
    4d98:	ed1ff06f          	j	4c68 <__subdf3+0x8c>
/cygdrive/d/Jenkins/workspace/build-system-3/source-packages/gcc-7.4.0-riscv-bsp-v5_1_0-branch/libgcc/soft-fp/subdf3.c:46 (discriminator 193)
    4d9c:	008006b7          	lui	a3,0x800
    4da0:	7ff00713          	li	a4,2047
    4da4:	00d7e7b3          	or	a5,a5,a3
    4da8:	1cef8063          	beq	t6,a4,4f68 <__subdf3+0x38c>
/cygdrive/d/Jenkins/workspace/build-system-3/source-packages/gcc-7.4.0-riscv-bsp-v5_1_0-branch/libgcc/soft-fp/subdf3.c:46 (discriminator 223)
    4dac:	03800713          	li	a4,56
    4db0:	21d74663          	blt	a4,t4,4fbc <__subdf3+0x3e0>
/cygdrive/d/Jenkins/workspace/build-system-3/source-packages/gcc-7.4.0-riscv-bsp-v5_1_0-branch/libgcc/soft-fp/subdf3.c:46 (discriminator 224)
    4db4:	477d                	c.li	a4,31
    4db6:	3fd75363          	bge	a4,t4,519c <__subdf3+0x5c0>
/cygdrive/d/Jenkins/workspace/build-system-3/source-packages/gcc-7.4.0-riscv-bsp-v5_1_0-branch/libgcc/soft-fp/subdf3.c:46 (discriminator 227)
    4dba:	01d7d8b3          	srl	a7,a5,t4
    4dbe:	000ed7db          	beqc	t4,32,4dcc <__subdf3+0x1f0>
/cygdrive/d/Jenkins/workspace/build-system-3/source-packages/gcc-7.4.0-riscv-bsp-v5_1_0-branch/libgcc/soft-fp/subdf3.c:46 (discriminator 234)
    4dc2:	41d00eb3          	neg	t4,t4
    4dc6:	01d797b3          	sll	a5,a5,t4
    4dca:	8e5d                	c.or	a2,a5
/cygdrive/d/Jenkins/workspace/build-system-3/source-packages/gcc-7.4.0-riscv-bsp-v5_1_0-branch/libgcc/soft-fp/subdf3.c:46 (discriminator 237)
    4dcc:	00c03633          	snez	a2,a2
    4dd0:	011668b3          	or	a7,a2,a7
    4dd4:	1f00006f          	j	4fc4 <__subdf3+0x3e8>
/cygdrive/d/Jenkins/workspace/build-system-3/source-packages/gcc-7.4.0-riscv-bsp-v5_1_0-branch/libgcc/soft-fp/subdf3.c:46 (discriminator 17)
    4dd8:	008008b7          	lui	a7,0x800
    4ddc:	7ff00713          	li	a4,2047
    4de0:	0117e7b3          	or	a5,a5,a7
    4de4:	50ef8063          	beq	t6,a4,52e4 <__subdf3+0x708>
/cygdrive/d/Jenkins/workspace/build-system-3/source-packages/gcc-7.4.0-riscv-bsp-v5_1_0-branch/libgcc/soft-fp/subdf3.c:46 (discriminator 50)
    4de8:	03800713          	li	a4,56
    4dec:	37d74463          	blt	a4,t4,5154 <__subdf3+0x578>
/cygdrive/d/Jenkins/workspace/build-system-3/source-packages/gcc-7.4.0-riscv-bsp-v5_1_0-branch/libgcc/soft-fp/subdf3.c:46 (discriminator 51)
    4df0:	477d                	c.li	a4,31
    4df2:	55d74f63          	blt	a4,t4,5350 <__subdf3+0x774>
/cygdrive/d/Jenkins/workspace/build-system-3/source-packages/gcc-7.4.0-riscv-bsp-v5_1_0-branch/libgcc/soft-fp/subdf3.c:46 (discriminator 53)
    4df6:	02000713          	li	a4,32
    4dfa:	41d70733          	sub	a4,a4,t4
    4dfe:	00e798b3          	sll	a7,a5,a4
    4e02:	01d65333          	srl	t1,a2,t4
    4e06:	00e61633          	sll	a2,a2,a4
    4e0a:	0068e8b3          	or	a7,a7,t1
    4e0e:	00c03633          	snez	a2,a2
    4e12:	01d7d7b3          	srl	a5,a5,t4
    4e16:	00c8e8b3          	or	a7,a7,a2
    4e1a:	983e                	c.add	a6,a5
    4e1c:	3400006f          	j	515c <__subdf3+0x580>
/cygdrive/d/Jenkins/workspace/build-system-3/source-packages/gcc-7.4.0-riscv-bsp-v5_1_0-branch/libgcc/soft-fp/subdf3.c:46 (discriminator 195)
    4e20:	fffe8313          	addi	t1,t4,-1
    4e24:	2e031463          	bnez	t1,510c <__subdf3+0x530>
/cygdrive/d/Jenkins/workspace/build-system-3/source-packages/gcc-7.4.0-riscv-bsp-v5_1_0-branch/libgcc/soft-fp/subdf3.c:46 (discriminator 203)
    4e28:	40c508b3          	sub	a7,a0,a2
    4e2c:	40f807b3          	sub	a5,a6,a5
    4e30:	01153533          	sltu	a0,a0,a7
    4e34:	8f89                	c.sub	a5,a0
    4e36:	4177f45b          	bbs	a5,23,4e3e <__subdf3+0x262>
    4e3a:	40e0006f          	j	5248 <__subdf3+0x66c>
/cygdrive/d/Jenkins/workspace/build-system-3/source-packages/gcc-7.4.0-riscv-bsp-v5_1_0-branch/libgcc/soft-fp/subdf3.c:46
    4e3e:	4f85                	c.li	t6,1
/cygdrive/d/Jenkins/workspace/build-system-3/source-packages/gcc-7.4.0-riscv-bsp-v5_1_0-branch/libgcc/soft-fp/subdf3.c:46 (discriminator 338)
    4e40:	5807a35b          	bfoz	t1,a5,22,0
/cygdrive/d/Jenkins/workspace/build-system-3/source-packages/gcc-7.4.0-riscv-bsp-v5_1_0-branch/libgcc/soft-fp/subdf3.c:46 (discriminator 339)
    4e44:	af9306ff          	clz32	a3,t1
    4e48:	00031663          	bnez	t1,4e54 <__subdf3+0x278>
/cygdrive/d/Jenkins/workspace/build-system-3/source-packages/gcc-7.4.0-riscv-bsp-v5_1_0-branch/libgcc/soft-fp/subdf3.c:46 (discriminator 346)
    4e4c:	af9886ff          	clz32	a3,a7
    4e50:	02068693          	addi	a3,a3,32 # 800020 <FLASH_SIZE+0x700020>
/cygdrive/d/Jenkins/workspace/build-system-3/source-packages/gcc-7.4.0-riscv-bsp-v5_1_0-branch/libgcc/soft-fp/subdf3.c:46 (discriminator 353)
    4e54:	ff868513          	addi	a0,a3,-8
    4e58:	01f00793          	li	a5,31
    4e5c:	20a7ce63          	blt	a5,a0,5078 <__subdf3+0x49c>
/cygdrive/d/Jenkins/workspace/build-system-3/source-packages/gcc-7.4.0-riscv-bsp-v5_1_0-branch/libgcc/soft-fp/subdf3.c:46 (discriminator 354)
    4e60:	40a007b3          	neg	a5,a0
    4e64:	00f8d7b3          	srl	a5,a7,a5
    4e68:	00a31333          	sll	t1,t1,a0
    4e6c:	0067e7b3          	or	a5,a5,t1
    4e70:	00a898b3          	sll	a7,a7,a0
/cygdrive/d/Jenkins/workspace/build-system-3/source-packages/gcc-7.4.0-riscv-bsp-v5_1_0-branch/libgcc/soft-fp/subdf3.c:46 (discriminator 363)
    4e74:	1ff54663          	blt	a0,t6,5060 <__subdf3+0x484>
/cygdrive/d/Jenkins/workspace/build-system-3/source-packages/gcc-7.4.0-riscv-bsp-v5_1_0-branch/libgcc/soft-fp/subdf3.c:46 (discriminator 364)
    4e78:	41f50fb3          	sub	t6,a0,t6
    4e7c:	001f8713          	addi	a4,t6,1
    4e80:	46fd                	c.li	a3,31
    4e82:	28e6cb63          	blt	a3,a4,5118 <__subdf3+0x53c>
/cygdrive/d/Jenkins/workspace/build-system-3/source-packages/gcc-7.4.0-riscv-bsp-v5_1_0-branch/libgcc/soft-fp/subdf3.c:46 (discriminator 366)
    4e86:	02000693          	li	a3,32
    4e8a:	8e99                	c.sub	a3,a4
    4e8c:	00e8d633          	srl	a2,a7,a4
    4e90:	00d898b3          	sll	a7,a7,a3
    4e94:	00d796b3          	sll	a3,a5,a3
    4e98:	00c6e6b3          	or	a3,a3,a2
    4e9c:	011038b3          	snez	a7,a7
    4ea0:	0116e8b3          	or	a7,a3,a7
    4ea4:	00e7d7b3          	srl	a5,a5,a4
    4ea8:	00f8e733          	or	a4,a7,a5
/cygdrive/d/Jenkins/workspace/build-system-3/source-packages/gcc-7.4.0-riscv-bsp-v5_1_0-branch/libgcc/soft-fp/subdf3.c:47 (discriminator 1)
    4eac:	12070663          	beqz	a4,4fd8 <__subdf3+0x3fc>
    4eb0:	0078f713          	andi	a4,a7,7
/cygdrive/d/Jenkins/workspace/build-system-3/source-packages/gcc-7.4.0-riscv-bsp-v5_1_0-branch/libgcc/soft-fp/subdf3.c:47
    4eb4:	00189693          	slli	a3,a7,0x1
    4eb8:	01f8d313          	srli	t1,a7,0x1f
    4ebc:	0076f613          	andi	a2,a3,7
    4ec0:	0af3035b          	lea.h	t1,t1,a5
    4ec4:	4e81                	c.li	t4,0
    4ec6:	ce09                	c.beqz	a2,4ee0 <__subdf3+0x304>
/cygdrive/d/Jenkins/workspace/build-system-3/source-packages/gcc-7.4.0-riscv-bsp-v5_1_0-branch/libgcc/soft-fp/subdf3.c:47 (discriminator 13)
    4ec8:	002f645b          	bnec	t5,2,4ed0 <__subdf3+0x2f4>
    4ecc:	4380006f          	j	5304 <__subdf3+0x728>
    4ed0:	003f645b          	bnec	t5,3,4ed8 <__subdf3+0x2fc>
    4ed4:	41c0006f          	j	52f0 <__subdf3+0x714>
    4ed8:	00100e93          	li	t4,1
    4edc:	380f0263          	beqz	t5,5260 <__subdf3+0x684>
/cygdrive/d/Jenkins/workspace/build-system-3/source-packages/gcc-7.4.0-riscv-bsp-v5_1_0-branch/libgcc/soft-fp/subdf3.c:47 (discriminator 21)
    4ee0:	01835313          	srli	t1,t1,0x18
    4ee4:	00134313          	xori	t1,t1,1
    4ee8:	00137313          	andi	t1,t1,1
    4eec:	4e01                	c.li	t3,0
    4eee:	b539                	c.j	4cfc <__subdf3+0x120>
/cygdrive/d/Jenkins/workspace/build-system-3/source-packages/gcc-7.4.0-riscv-bsp-v5_1_0-branch/libgcc/soft-fp/subdf3.c:46 (discriminator 242)
    4ef0:	2c0f8c63          	beqz	t6,51c8 <__subdf3+0x5ec>
/cygdrive/d/Jenkins/workspace/build-system-3/source-packages/gcc-7.4.0-riscv-bsp-v5_1_0-branch/libgcc/soft-fp/subdf3.c:46 (discriminator 245)
    4ef4:	7ff00713          	li	a4,2047
    4ef8:	4ee30063          	beq	t1,a4,53d8 <__subdf3+0x7fc>
/cygdrive/d/Jenkins/workspace/build-system-3/source-packages/gcc-7.4.0-riscv-bsp-v5_1_0-branch/libgcc/soft-fp/subdf3.c:46 (discriminator 267)
    4efc:	00800737          	lui	a4,0x800
    4f00:	41d00eb3          	neg	t4,t4
    4f04:	00e86833          	or	a6,a6,a4
/cygdrive/d/Jenkins/workspace/build-system-3/source-packages/gcc-7.4.0-riscv-bsp-v5_1_0-branch/libgcc/soft-fp/subdf3.c:46 (discriminator 275)
    4f08:	03800713          	li	a4,56
    4f0c:	51d74063          	blt	a4,t4,540c <__subdf3+0x830>
/cygdrive/d/Jenkins/workspace/build-system-3/source-packages/gcc-7.4.0-riscv-bsp-v5_1_0-branch/libgcc/soft-fp/subdf3.c:46 (discriminator 276)
    4f10:	01f00713          	li	a4,31
    4f14:	5bd74463          	blt	a4,t4,54bc <__subdf3+0x8e0>
/cygdrive/d/Jenkins/workspace/build-system-3/source-packages/gcc-7.4.0-riscv-bsp-v5_1_0-branch/libgcc/soft-fp/subdf3.c:46 (discriminator 278)
    4f18:	02000713          	li	a4,32
    4f1c:	41d70733          	sub	a4,a4,t4
    4f20:	00e818b3          	sll	a7,a6,a4
    4f24:	01d555b3          	srl	a1,a0,t4
    4f28:	00e51733          	sll	a4,a0,a4
    4f2c:	00b8e8b3          	or	a7,a7,a1
    4f30:	00e03733          	snez	a4,a4
    4f34:	01d85eb3          	srl	t4,a6,t4
    4f38:	00e8e8b3          	or	a7,a7,a4
    4f3c:	41d787b3          	sub	a5,a5,t4
/cygdrive/d/Jenkins/workspace/build-system-3/source-packages/gcc-7.4.0-riscv-bsp-v5_1_0-branch/libgcc/soft-fp/subdf3.c:46 (discriminator 292)
    4f40:	411608b3          	sub	a7,a2,a7
    4f44:	01163633          	sltu	a2,a2,a7
    4f48:	8f91                	c.sub	a5,a2
/cygdrive/d/Jenkins/workspace/build-system-3/source-packages/gcc-7.4.0-riscv-bsp-v5_1_0-branch/libgcc/soft-fp/subdf3.c:45 (discriminator 292)
    4f4a:	8f9a                	c.mv	t6,t1
    4f4c:	00d005b3          	add	a1,zero,a3
/cygdrive/d/Jenkins/workspace/build-system-3/source-packages/gcc-7.4.0-riscv-bsp-v5_1_0-branch/libgcc/soft-fp/subdf3.c:46 (discriminator 292)
    4f50:	ef77f85b          	bbs	a5,23,4e40 <__subdf3+0x264>
    4f54:	00f8e733          	or	a4,a7,a5
/cygdrive/d/Jenkins/workspace/build-system-3/source-packages/gcc-7.4.0-riscv-bsp-v5_1_0-branch/libgcc/soft-fp/subdf3.c:47
    4f58:	f40f8ae3          	beqz	t6,4eac <__subdf3+0x2d0>
    4f5c:	0078f713          	andi	a4,a7,7
    4f60:	8e7e                	c.mv	t3,t6
    4f62:	4301                	c.li	t1,0
    4f64:	4e81                	c.li	t4,0
    4f66:	bb59                	c.j	4cfc <__subdf3+0x120>
/cygdrive/d/Jenkins/workspace/build-system-3/source-packages/gcc-7.4.0-riscv-bsp-v5_1_0-branch/libgcc/soft-fp/subdf3.c:46 (discriminator 216)
    4f68:	00a867b3          	or	a5,a6,a0
    4f6c:	26078e63          	beqz	a5,51e8 <__subdf3+0x60c>
/cygdrive/d/Jenkins/workspace/build-system-3/source-packages/gcc-7.4.0-riscv-bsp-v5_1_0-branch/libgcc/soft-fp/subdf3.c:46 (discriminator 218)
    4f70:	7ff00e93          	li	t4,2047
    4f74:	6b68785b          	bbs	a6,22,5224 <__subdf3+0x648>
/cygdrive/d/Jenkins/workspace/build-system-3/source-packages/gcc-7.4.0-riscv-bsp-v5_1_0-branch/libgcc/soft-fp/subdf3.c:46
    4f78:	4341                	c.li	t1,16
    4f7a:	b1c9                	c.j	4c3c <__subdf3+0x60>
/cygdrive/d/Jenkins/workspace/build-system-3/source-packages/gcc-7.4.0-riscv-bsp-v5_1_0-branch/libgcc/soft-fp/subdf3.c:46 (discriminator 15)
    4f7c:	320e9c63          	bnez	t4,52b4 <__subdf3+0x6d8>
/cygdrive/d/Jenkins/workspace/build-system-3/source-packages/gcc-7.4.0-riscv-bsp-v5_1_0-branch/libgcc/soft-fp/subdf3.c:46 (discriminator 70)
    4f80:	001f8e13          	addi	t3,t6,1
    4f84:	7ffe7893          	andi	a7,t3,2047
    4f88:	4705                	c.li	a4,1
    4f8a:	39175763          	bge	a4,a7,5318 <__subdf3+0x73c>
/cygdrive/d/Jenkins/workspace/build-system-3/source-packages/gcc-7.4.0-riscv-bsp-v5_1_0-branch/libgcc/soft-fp/subdf3.c:46 (discriminator 125)
    4f8e:	7ff00713          	li	a4,2047
    4f92:	2eee0363          	beq	t3,a4,5278 <__subdf3+0x69c>
/cygdrive/d/Jenkins/workspace/build-system-3/source-packages/gcc-7.4.0-riscv-bsp-v5_1_0-branch/libgcc/soft-fp/subdf3.c:46
    4f96:	962a                	c.add	a2,a0
    4f98:	00a63533          	sltu	a0,a2,a0
    4f9c:	97c2                	c.add	a5,a6
    4f9e:	97aa                	c.add	a5,a0
    4fa0:	01f79893          	slli	a7,a5,0x1f
    4fa4:	8205                	c.srli	a2,0x1
    4fa6:	00c8e8b3          	or	a7,a7,a2
    4faa:	8385                	c.srli	a5,0x1
    4fac:	0078f713          	andi	a4,a7,7
    4fb0:	4301                	c.li	t1,0
    4fb2:	b3a9                	c.j	4cfc <__subdf3+0x120>
/cygdrive/d/Jenkins/workspace/build-system-3/source-packages/gcc-7.4.0-riscv-bsp-v5_1_0-branch/libgcc/soft-fp/subdf3.c:48 (discriminator 1)
    4fb4:	00132073          	csrs	fflags,t1
/cygdrive/d/Jenkins/workspace/build-system-3/source-packages/gcc-7.4.0-riscv-bsp-v5_1_0-branch/libgcc/soft-fp/subdf3.c:50 (discriminator 1)
    4fb8:	00008067          	ret
/cygdrive/d/Jenkins/workspace/build-system-3/source-packages/gcc-7.4.0-riscv-bsp-v5_1_0-branch/libgcc/soft-fp/subdf3.c:46 (discriminator 225)
    4fbc:	00c7e7b3          	or	a5,a5,a2
    4fc0:	00f038b3          	snez	a7,a5
/cygdrive/d/Jenkins/workspace/build-system-3/source-packages/gcc-7.4.0-riscv-bsp-v5_1_0-branch/libgcc/soft-fp/subdf3.c:46 (discriminator 240)
    4fc4:	411508b3          	sub	a7,a0,a7
    4fc8:	011537b3          	sltu	a5,a0,a7
    4fcc:	40f807b3          	sub	a5,a6,a5
    4fd0:	b977f25b          	bbc	a5,23,4f54 <__subdf3+0x378>
    4fd4:	e6dff06f          	j	4e40 <__subdf3+0x264>
    4fd8:	4e81                	c.li	t4,0
    4fda:	4881                	c.li	a7,0
    4fdc:	4301                	c.li	t1,0
    4fde:	4c07275b          	bfoz	a4,a4,19,0
    4fe2:	7ffef793          	andi	a5,t4,2047
    4fe6:	0015f693          	andi	a3,a1,1
    4fea:	b9bd                	c.j	4c68 <__subdf3+0x8c>
/cygdrive/d/Jenkins/workspace/build-system-3/source-packages/gcc-7.4.0-riscv-bsp-v5_1_0-branch/libgcc/soft-fp/subdf3.c:47
    4fec:	85b6                	c.mv	a1,a3
    4fee:	4315                	c.li	t1,5
/cygdrive/d/Jenkins/workspace/build-system-3/source-packages/gcc-7.4.0-riscv-bsp-v5_1_0-branch/libgcc/soft-fp/subdf3.c:47 (discriminator 49)
    4ff0:	080f1a63          	bnez	t5,5084 <__subdf3+0x4a8>
/cygdrive/d/Jenkins/workspace/build-system-3/source-packages/gcc-7.4.0-riscv-bsp-v5_1_0-branch/libgcc/soft-fp/subdf3.c:47
    4ff4:	00536313          	ori	t1,t1,5
    4ff8:	00b006b3          	add	a3,zero,a1
    4ffc:	8a85                	c.andi	a3,1
    4ffe:	7ff00793          	li	a5,2047
    5002:	4701                	c.li	a4,0
    5004:	4881                	c.li	a7,0
    5006:	b18d                	c.j	4c68 <__subdf3+0x8c>
    5008:	00f8f713          	andi	a4,a7,15
    500c:	00100813          	li	a6,1
    5010:	8e475e5b          	beqc	a4,4,4d0c <__subdf3+0x130>
/cygdrive/d/Jenkins/workspace/build-system-3/source-packages/gcc-7.4.0-riscv-bsp-v5_1_0-branch/libgcc/soft-fp/subdf3.c:47 (discriminator 36)
    5014:	00488513          	addi	a0,a7,4 # 800004 <FLASH_SIZE+0x700004>
    5018:	011538b3          	sltu	a7,a0,a7
    501c:	97c6                	c.add	a5,a7
    501e:	00800737          	lui	a4,0x800
    5022:	869a                	c.mv	a3,t1
    5024:	8f7d                	c.and	a4,a5
    5026:	88aa                	c.mv	a7,a0
    5028:	01000333          	add	t1,zero,a6
/cygdrive/d/Jenkins/workspace/build-system-3/source-packages/gcc-7.4.0-riscv-bsp-v5_1_0-branch/libgcc/soft-fp/subdf3.c:47 (discriminator 37)
    502c:	ce0688e3          	beqz	a3,4d1c <__subdf3+0x140>
/cygdrive/d/Jenkins/workspace/build-system-3/source-packages/gcc-7.4.0-riscv-bsp-v5_1_0-branch/libgcc/soft-fp/subdf3.c:47 (discriminator 42)
    5030:	8e03765b          	bbc	t1,0,4d1c <__subdf3+0x140>
/cygdrive/d/Jenkins/workspace/build-system-3/source-packages/gcc-7.4.0-riscv-bsp-v5_1_0-branch/libgcc/soft-fp/subdf3.c:47
    5034:	00236313          	ori	t1,t1,2
    5038:	ce5ff06f          	j	4d1c <__subdf3+0x140>
/cygdrive/d/Jenkins/workspace/build-system-3/source-packages/gcc-7.4.0-riscv-bsp-v5_1_0-branch/libgcc/soft-fp/subdf3.c:47 (discriminator 34)
    503c:	edb5                	c.bnez	a1,50b8 <__subdf3+0x4dc>
    503e:	00800737          	lui	a4,0x800
/cygdrive/d/Jenkins/workspace/build-system-3/source-packages/gcc-7.4.0-riscv-bsp-v5_1_0-branch/libgcc/soft-fp/subdf3.c:47
    5042:	869a                	c.mv	a3,t1
    5044:	8f7d                	c.and	a4,a5
    5046:	4305                	c.li	t1,1
    5048:	fe5ff06f          	j	502c <__subdf3+0x450>
    504c:	00100613          	li	a2,1
/cygdrive/d/Jenkins/workspace/build-system-3/source-packages/gcc-7.4.0-riscv-bsp-v5_1_0-branch/libgcc/soft-fp/subdf3.c:47 (discriminator 35)
    5050:	c9a1                	c.beqz	a1,50a0 <__subdf3+0x4c4>
    5052:	00800737          	lui	a4,0x800
/cygdrive/d/Jenkins/workspace/build-system-3/source-packages/gcc-7.4.0-riscv-bsp-v5_1_0-branch/libgcc/soft-fp/subdf3.c:47
    5056:	869a                	c.mv	a3,t1
    5058:	8f7d                	c.and	a4,a5
    505a:	8332                	c.mv	t1,a2
    505c:	fd1ff06f          	j	502c <__subdf3+0x450>
/cygdrive/d/Jenkins/workspace/build-system-3/source-packages/gcc-7.4.0-riscv-bsp-v5_1_0-branch/libgcc/soft-fp/subdf3.c:46 (discriminator 365)
    5060:	ff800737          	lui	a4,0xff800
    5064:	177d                	c.addi	a4,-1
    5066:	8ff9                	c.and	a5,a4
    5068:	40af8fb3          	sub	t6,t6,a0
    506c:	00f8e733          	or	a4,a7,a5
/cygdrive/d/Jenkins/workspace/build-system-3/source-packages/gcc-7.4.0-riscv-bsp-v5_1_0-branch/libgcc/soft-fp/subdf3.c:47 (discriminator 365)
    5070:	e20f8ee3          	beqz	t6,4eac <__subdf3+0x2d0>
    5074:	ee9ff06f          	j	4f5c <__subdf3+0x380>
/cygdrive/d/Jenkins/workspace/build-system-3/source-packages/gcc-7.4.0-riscv-bsp-v5_1_0-branch/libgcc/soft-fp/subdf3.c:46 (discriminator 355)
    5078:	fd868793          	addi	a5,a3,-40
    507c:	00f897b3          	sll	a5,a7,a5
    5080:	4881                	c.li	a7,0
    5082:	bbcd                	c.j	4e74 <__subdf3+0x298>
/cygdrive/d/Jenkins/workspace/build-system-3/source-packages/gcc-7.4.0-riscv-bsp-v5_1_0-branch/libgcc/soft-fp/subdf3.c:47 (discriminator 52)
    5084:	283f545b          	beqc	t5,3,530c <__subdf3+0x730>
/cygdrive/d/Jenkins/workspace/build-system-3/source-packages/gcc-7.4.0-riscv-bsp-v5_1_0-branch/libgcc/soft-fp/subdf3.c:47 (discriminator 56)
    5088:	1c2f565b          	beqc	t5,2,5254 <__subdf3+0x678>
/cygdrive/d/Jenkins/workspace/build-system-3/source-packages/gcc-7.4.0-riscv-bsp-v5_1_0-branch/libgcc/soft-fp/subdf3.c:47
    508c:	00536313          	ori	t1,t1,5
    5090:	20000737          	lui	a4,0x20000
    5094:	58fd                	c.li	a7,-1
    5096:	177d                	c.addi	a4,-1
    5098:	7fe00e93          	li	t4,2046
    509c:	cf1ff06f          	j	4d8c <__subdf3+0x1b0>
/cygdrive/d/Jenkins/workspace/build-system-3/source-packages/gcc-7.4.0-riscv-bsp-v5_1_0-branch/libgcc/soft-fp/subdf3.c:47 (discriminator 39)
    50a0:	00888513          	addi	a0,a7,8
    50a4:	011538b3          	sltu	a7,a0,a7
    50a8:	97c6                	c.add	a5,a7
    50aa:	00800737          	lui	a4,0x800
    50ae:	869a                	c.mv	a3,t1
    50b0:	8f7d                	c.and	a4,a5
    50b2:	88aa                	c.mv	a7,a0
    50b4:	8332                	c.mv	t1,a2
    50b6:	bf9d                	c.j	502c <__subdf3+0x450>
/cygdrive/d/Jenkins/workspace/build-system-3/source-packages/gcc-7.4.0-riscv-bsp-v5_1_0-branch/libgcc/soft-fp/subdf3.c:47 (discriminator 41)
    50b8:	00888613          	addi	a2,a7,8
    50bc:	011638b3          	sltu	a7,a2,a7
    50c0:	97c6                	c.add	a5,a7
    50c2:	00800737          	lui	a4,0x800
    50c6:	869a                	c.mv	a3,t1
    50c8:	8f7d                	c.and	a4,a5
    50ca:	88b2                	c.mv	a7,a2
    50cc:	4305                	c.li	t1,1
    50ce:	bfb9                	c.j	502c <__subdf3+0x450>
    50d0:	00a86733          	or	a4,a6,a0
    50d4:	00c7e8b3          	or	a7,a5,a2
/cygdrive/d/Jenkins/workspace/build-system-3/source-packages/gcc-7.4.0-riscv-bsp-v5_1_0-branch/libgcc/soft-fp/subdf3.c:46 (discriminator 294)
    50d8:	100f9c63          	bnez	t6,51f0 <__subdf3+0x614>
/cygdrive/d/Jenkins/workspace/build-system-3/source-packages/gcc-7.4.0-riscv-bsp-v5_1_0-branch/libgcc/soft-fp/subdf3.c:46 (discriminator 296)
    50dc:	36071063          	bnez	a4,543c <__subdf3+0x860>
/cygdrive/d/Jenkins/workspace/build-system-3/source-packages/gcc-7.4.0-riscv-bsp-v5_1_0-branch/libgcc/soft-fp/subdf3.c:46 (discriminator 298)
    50e0:	42089663          	bnez	a7,550c <__subdf3+0x930>
/cygdrive/d/Jenkins/workspace/build-system-3/source-packages/gcc-7.4.0-riscv-bsp-v5_1_0-branch/libgcc/soft-fp/subdf3.c:46 (discriminator 300)
    50e4:	ffef0593          	addi	a1,t5,-2
    50e8:	0015b593          	seqz	a1,a1
    50ec:	8776                	c.mv	a4,t4
    50ee:	4301                	c.li	t1,0
    50f0:	c9dff06f          	j	4d8c <__subdf3+0x1b0>
/cygdrive/d/Jenkins/workspace/build-system-3/source-packages/gcc-7.4.0-riscv-bsp-v5_1_0-branch/libgcc/soft-fp/subdf3.c:46 (discriminator 196)
    50f4:	00a867b3          	or	a5,a6,a0
    50f8:	12078e63          	beqz	a5,5234 <__subdf3+0x658>
/cygdrive/d/Jenkins/workspace/build-system-3/source-packages/gcc-7.4.0-riscv-bsp-v5_1_0-branch/libgcc/soft-fp/subdf3.c:46 (discriminator 209)
    50fc:	00400337          	lui	t1,0x400
    5100:	00687333          	and	t1,a6,t1
    5104:	00133313          	seqz	t1,t1
    5108:	0312                	c.slli	t1,0x4
    510a:	be0d                	c.j	4c3c <__subdf3+0x60>
/cygdrive/d/Jenkins/workspace/build-system-3/source-packages/gcc-7.4.0-riscv-bsp-v5_1_0-branch/libgcc/soft-fp/subdf3.c:46 (discriminator 204)
    510c:	7ff00713          	li	a4,2047
    5110:	0cee8863          	beq	t4,a4,51e0 <__subdf3+0x604>
    5114:	8e9a                	c.mv	t4,t1
    5116:	b959                	c.j	4dac <__subdf3+0x1d0>
/cygdrive/d/Jenkins/workspace/build-system-3/source-packages/gcc-7.4.0-riscv-bsp-v5_1_0-branch/libgcc/soft-fp/subdf3.c:46 (discriminator 367)
    5118:	fe1f8f93          	addi	t6,t6,-31
    511c:	01f7d533          	srl	a0,a5,t6
    5120:	000758db          	beqc	a4,32,5130 <__subdf3+0x554>
/cygdrive/d/Jenkins/workspace/build-system-3/source-packages/gcc-7.4.0-riscv-bsp-v5_1_0-branch/libgcc/soft-fp/subdf3.c:46 (discriminator 375)
    5124:	40e00733          	neg	a4,a4
    5128:	00e797b3          	sll	a5,a5,a4
    512c:	00f8e8b3          	or	a7,a7,a5
/cygdrive/d/Jenkins/workspace/build-system-3/source-packages/gcc-7.4.0-riscv-bsp-v5_1_0-branch/libgcc/soft-fp/subdf3.c:46 (discriminator 378)
    5130:	011038b3          	snez	a7,a7
    5134:	00a8e8b3          	or	a7,a7,a0
    5138:	8746                	c.mv	a4,a7
    513a:	4781                	c.li	a5,0
    513c:	d71ff06f          	j	4eac <__subdf3+0x2d0>
/cygdrive/d/Jenkins/workspace/build-system-3/source-packages/gcc-7.4.0-riscv-bsp-v5_1_0-branch/libgcc/soft-fp/subdf3.c:46 (discriminator 335)
    5140:	40a608b3          	sub	a7,a2,a0
    5144:	410787b3          	sub	a5,a5,a6
    5148:	01163633          	sltu	a2,a2,a7
    514c:	40c78333          	sub	t1,a5,a2
    5150:	85b6                	c.mv	a1,a3
    5152:	b9cd                	c.j	4e44 <__subdf3+0x268>
/cygdrive/d/Jenkins/workspace/build-system-3/source-packages/gcc-7.4.0-riscv-bsp-v5_1_0-branch/libgcc/soft-fp/subdf3.c:46 (discriminator 52)
    5154:	00c7e7b3          	or	a5,a5,a2
    5158:	00f038b3          	snez	a7,a5
/cygdrive/d/Jenkins/workspace/build-system-3/source-packages/gcc-7.4.0-riscv-bsp-v5_1_0-branch/libgcc/soft-fp/subdf3.c:46 (discriminator 67)
    515c:	98aa                	c.add	a7,a0
    515e:	00a8b7b3          	sltu	a5,a7,a0
    5162:	97c2                	c.add	a5,a6
/cygdrive/d/Jenkins/workspace/build-system-3/source-packages/gcc-7.4.0-riscv-bsp-v5_1_0-branch/libgcc/soft-fp/subdf3.c:46 (discriminator 123)
    5164:	9f77f85b          	bbc	a5,23,4f54 <__subdf3+0x378>
/cygdrive/d/Jenkins/workspace/build-system-3/source-packages/gcc-7.4.0-riscv-bsp-v5_1_0-branch/libgcc/soft-fp/subdf3.c:46 (discriminator 173)
    5168:	001f8e13          	addi	t3,t6,1
    516c:	7ff00713          	li	a4,2047
    5170:	b6ee12e3          	bne	t3,a4,4cd4 <__subdf3+0xf8>
/cygdrive/d/Jenkins/workspace/build-system-3/source-packages/gcc-7.4.0-riscv-bsp-v5_1_0-branch/libgcc/soft-fp/subdf3.c:46 (discriminator 175)
    5174:	120f0e63          	beqz	t5,52b0 <__subdf3+0x6d4>
/cygdrive/d/Jenkins/workspace/build-system-3/source-packages/gcc-7.4.0-riscv-bsp-v5_1_0-branch/libgcc/soft-fp/subdf3.c:46 (discriminator 178)
    5178:	003f645b          	bnec	t5,3,5180 <__subdf3+0x5a4>
    517c:	3f80006f          	j	5574 <__subdf3+0x998>
/cygdrive/d/Jenkins/workspace/build-system-3/source-packages/gcc-7.4.0-riscv-bsp-v5_1_0-branch/libgcc/soft-fp/subdf3.c:46 (discriminator 182)
    5180:	122f565b          	beqc	t5,2,52ac <__subdf3+0x6d0>
/cygdrive/d/Jenkins/workspace/build-system-3/source-packages/gcc-7.4.0-riscv-bsp-v5_1_0-branch/libgcc/soft-fp/subdf3.c:47
    5184:	420f0863          	beqz	t5,55b4 <__subdf3+0x9d8>
    5188:	a63f625b          	bnec	t5,3,4fec <__subdf3+0x410>
    518c:	57fd                	c.li	a5,-1
    518e:	58fd                	c.li	a7,-1
    5190:	7fe00e13          	li	t3,2046
    5194:	4301                	c.li	t1,0
    5196:	4615                	c.li	a2,5
    5198:	eb9ff06f          	j	5050 <__subdf3+0x474>
/cygdrive/d/Jenkins/workspace/build-system-3/source-packages/gcc-7.4.0-riscv-bsp-v5_1_0-branch/libgcc/soft-fp/subdf3.c:46 (discriminator 226)
    519c:	02000713          	li	a4,32
    51a0:	41d70733          	sub	a4,a4,t4
    51a4:	00e798b3          	sll	a7,a5,a4
    51a8:	01d656b3          	srl	a3,a2,t4
    51ac:	00e61633          	sll	a2,a2,a4
    51b0:	00d8e8b3          	or	a7,a7,a3
    51b4:	00c03633          	snez	a2,a2
    51b8:	01d7d7b3          	srl	a5,a5,t4
    51bc:	00c8e8b3          	or	a7,a7,a2
    51c0:	40f80833          	sub	a6,a6,a5
    51c4:	e01ff06f          	j	4fc4 <__subdf3+0x3e8>
/cygdrive/d/Jenkins/workspace/build-system-3/source-packages/gcc-7.4.0-riscv-bsp-v5_1_0-branch/libgcc/soft-fp/subdf3.c:46 (discriminator 244)
    51c8:	00a86733          	or	a4,a6,a0
    51cc:	1e071c63          	bnez	a4,53c4 <__subdf3+0x7e8>
/cygdrive/d/Jenkins/workspace/build-system-3/source-packages/gcc-7.4.0-riscv-bsp-v5_1_0-branch/libgcc/soft-fp/subdf3.c:46 (discriminator 246)
    51d0:	7ff00713          	li	a4,2047
    51d4:	04e30a63          	beq	t1,a4,5228 <__subdf3+0x64c>
/cygdrive/d/Jenkins/workspace/build-system-3/source-packages/gcc-7.4.0-riscv-bsp-v5_1_0-branch/libgcc/soft-fp/subdf3.c:45
    51d8:	88b2                	c.mv	a7,a2
    51da:	8f9a                	c.mv	t6,t1
    51dc:	85b6                	c.mv	a1,a3
    51de:	bb9d                	c.j	4f54 <__subdf3+0x378>
/cygdrive/d/Jenkins/workspace/build-system-3/source-packages/gcc-7.4.0-riscv-bsp-v5_1_0-branch/libgcc/soft-fp/subdf3.c:46 (discriminator 207)
    51e0:	00a867b3          	or	a5,a6,a0
    51e4:	f0079ce3          	bnez	a5,50fc <__subdf3+0x520>
    51e8:	86ae                	c.mv	a3,a1
/cygdrive/d/Jenkins/workspace/build-system-3/source-packages/gcc-7.4.0-riscv-bsp-v5_1_0-branch/libgcc/soft-fp/subdf3.c:37
    51ea:	4301                	c.li	t1,0
    51ec:	e11ff06f          	j	4ffc <__subdf3+0x420>
/cygdrive/d/Jenkins/workspace/build-system-3/source-packages/gcc-7.4.0-riscv-bsp-v5_1_0-branch/libgcc/soft-fp/subdf3.c:46 (discriminator 297)
    51f0:	7ff00e13          	li	t3,2047
    51f4:	27cf8c63          	beq	t6,t3,546c <__subdf3+0x890>
/cygdrive/d/Jenkins/workspace/build-system-3/source-packages/gcc-7.4.0-riscv-bsp-v5_1_0-branch/libgcc/soft-fp/subdf3.c:46 (discriminator 313)
    51f8:	0bc30063          	beq	t1,t3,5298 <__subdf3+0x6bc>
/cygdrive/d/Jenkins/workspace/build-system-3/source-packages/gcc-7.4.0-riscv-bsp-v5_1_0-branch/libgcc/soft-fp/subdf3.c:46 (discriminator 320)
    51fc:	28071263          	bnez	a4,5480 <__subdf3+0x8a4>
/cygdrive/d/Jenkins/workspace/build-system-3/source-packages/gcc-7.4.0-riscv-bsp-v5_1_0-branch/libgcc/soft-fp/subdf3.c:47 (discriminator 321)
    5200:	4501                	c.li	a0,0
    5202:	7ff805b7          	lui	a1,0x7ff80
/cygdrive/d/Jenkins/workspace/build-system-3/source-packages/gcc-7.4.0-riscv-bsp-v5_1_0-branch/libgcc/soft-fp/subdf3.c:46 (discriminator 321)
    5206:	4341                	c.li	t1,16
    5208:	da0886e3          	beqz	a7,4fb4 <__subdf3+0x3d8>
/cygdrive/d/Jenkins/workspace/build-system-3/source-packages/gcc-7.4.0-riscv-bsp-v5_1_0-branch/libgcc/soft-fp/subdf3.c:46
    520c:	8376                	c.mv	t1,t4
    520e:	85b6                	c.mv	a1,a3
    5210:	883e                	c.mv	a6,a5
    5212:	8532                	c.mv	a0,a2
    5214:	7ff00e93          	li	t4,2047
    5218:	a25ff06f          	j	4c3c <__subdf3+0x60>
    521c:	85b6                	c.mv	a1,a3
    521e:	883e                	c.mv	a6,a5
/cygdrive/d/Jenkins/workspace/build-system-3/source-packages/gcc-7.4.0-riscv-bsp-v5_1_0-branch/libgcc/soft-fp/subdf3.c:45
    5220:	00c00533          	add	a0,zero,a2
/cygdrive/d/Jenkins/workspace/build-system-3/source-packages/gcc-7.4.0-riscv-bsp-v5_1_0-branch/libgcc/soft-fp/subdf3.c:37
    5224:	4301                	c.li	t1,0
    5226:	bc19                	c.j	4c3c <__subdf3+0x60>
/cygdrive/d/Jenkins/workspace/build-system-3/source-packages/gcc-7.4.0-riscv-bsp-v5_1_0-branch/libgcc/soft-fp/subdf3.c:46 (discriminator 248)
    5228:	00c7e733          	or	a4,a5,a2
    522c:	1a071a63          	bnez	a4,53e0 <__subdf3+0x804>
    5230:	00d005b3          	add	a1,zero,a3
/cygdrive/d/Jenkins/workspace/build-system-3/source-packages/gcc-7.4.0-riscv-bsp-v5_1_0-branch/libgcc/soft-fp/subdf3.c:47
    5234:	4881                	c.li	a7,0
    5236:	4701                	c.li	a4,0
    5238:	4301                	c.li	t1,0
    523a:	bc29                	c.j	4c54 <__subdf3+0x78>
/cygdrive/d/Jenkins/workspace/build-system-3/source-packages/gcc-7.4.0-riscv-bsp-v5_1_0-branch/libgcc/soft-fp/subdf3.c:46 (discriminator 29)
    523c:	7ff00893          	li	a7,2047
    5240:	291e8e63          	beq	t4,a7,54dc <__subdf3+0x900>
    5244:	8eba                	c.mv	t4,a4
    5246:	b64d                	c.j	4de8 <__subdf3+0x20c>
    5248:	0078f713          	andi	a4,a7,7
/cygdrive/d/Jenkins/workspace/build-system-3/source-packages/gcc-7.4.0-riscv-bsp-v5_1_0-branch/libgcc/soft-fp/subdf3.c:46
    524c:	4e81                	c.li	t4,0
    524e:	4e05                	c.li	t3,1
    5250:	aadff06f          	j	4cfc <__subdf3+0x120>
/cygdrive/d/Jenkins/workspace/build-system-3/source-packages/gcc-7.4.0-riscv-bsp-v5_1_0-branch/libgcc/soft-fp/subdf3.c:47 (discriminator 57)
    5254:	00536313          	ori	t1,t1,5
    5258:	e2058ce3          	beqz	a1,5090 <__subdf3+0x4b4>
    525c:	86ae                	c.mv	a3,a1
    525e:	bb79                	c.j	4ffc <__subdf3+0x420>
/cygdrive/d/Jenkins/workspace/build-system-3/source-packages/gcc-7.4.0-riscv-bsp-v5_1_0-branch/libgcc/soft-fp/subdf3.c:47 (discriminator 16)
    5260:	00f6f613          	andi	a2,a3,15
    5264:	4e85                	c.li	t4,1
    5266:	86465d5b          	beqc	a2,4,4ee0 <__subdf3+0x304>
/cygdrive/d/Jenkins/workspace/build-system-3/source-packages/gcc-7.4.0-riscv-bsp-v5_1_0-branch/libgcc/soft-fp/subdf3.c:47 (discriminator 20)
    526a:	ffc6b693          	sltiu	a3,a3,-4
    526e:	0016c693          	xori	a3,a3,1
    5272:	9336                	c.add	t1,a3
    5274:	c6dff06f          	j	4ee0 <__subdf3+0x304>
/cygdrive/d/Jenkins/workspace/build-system-3/source-packages/gcc-7.4.0-riscv-bsp-v5_1_0-branch/libgcc/soft-fp/subdf3.c:46 (discriminator 160)
    5278:	020f0c63          	beqz	t5,52b0 <__subdf3+0x6d4>
/cygdrive/d/Jenkins/workspace/build-system-3/source-packages/gcc-7.4.0-riscv-bsp-v5_1_0-branch/libgcc/soft-fp/subdf3.c:46 (discriminator 162)
    527c:	323f505b          	beqc	t5,3,559c <__subdf3+0x9c0>
/cygdrive/d/Jenkins/workspace/build-system-3/source-packages/gcc-7.4.0-riscv-bsp-v5_1_0-branch/libgcc/soft-fp/subdf3.c:46 (discriminator 166)
    5280:	b02f625b          	bnec	t5,2,5184 <__subdf3+0x5a8>
/cygdrive/d/Jenkins/workspace/build-system-3/source-packages/gcc-7.4.0-riscv-bsp-v5_1_0-branch/libgcc/soft-fp/subdf3.c:46 (discriminator 167)
    5284:	02069663          	bnez	a3,52b0 <__subdf3+0x6d4>
    5288:	58fd                	c.li	a7,-1
    528a:	7fe00e13          	li	t3,2046
    528e:	57fd                	c.li	a5,-1
    5290:	4315                	c.li	t1,5
    5292:	b479                	c.j	4d20 <__subdf3+0x144>
/cygdrive/d/Jenkins/workspace/build-system-3/source-packages/gcc-7.4.0-riscv-bsp-v5_1_0-branch/libgcc/soft-fp/subdf3.c:46
    5294:	f7f316e3          	bne	t1,t6,5200 <__subdf3+0x624>
/cygdrive/d/Jenkins/workspace/build-system-3/source-packages/gcc-7.4.0-riscv-bsp-v5_1_0-branch/libgcc/soft-fp/subdf3.c:46 (discriminator 314)
    5298:	f60882e3          	beqz	a7,51fc <__subdf3+0x620>
/cygdrive/d/Jenkins/workspace/build-system-3/source-packages/gcc-7.4.0-riscv-bsp-v5_1_0-branch/libgcc/soft-fp/subdf3.c:46 (discriminator 316)
    529c:	4167f45b          	bbs	a5,22,52a4 <__subdf3+0x6c8>
/cygdrive/d/Jenkins/workspace/build-system-3/source-packages/gcc-7.4.0-riscv-bsp-v5_1_0-branch/libgcc/soft-fp/subdf3.c:46
    52a0:	01000e93          	li	t4,16
    52a4:	f60704e3          	beqz	a4,520c <__subdf3+0x630>
    52a8:	8376                	c.mv	t1,t4
    52aa:	ba4d                	c.j	4c5c <__subdf3+0x80>
/cygdrive/d/Jenkins/workspace/build-system-3/source-packages/gcc-7.4.0-riscv-bsp-v5_1_0-branch/libgcc/soft-fp/subdf3.c:46 (discriminator 183)
    52ac:	ddf1                	c.beqz	a1,5288 <__subdf3+0x6ac>
/cygdrive/d/Jenkins/workspace/build-system-3/source-packages/gcc-7.4.0-riscv-bsp-v5_1_0-branch/libgcc/soft-fp/subdf3.c:46
    52ae:	86ae                	c.mv	a3,a1
    52b0:	4315                	c.li	t1,5
    52b2:	b3a9                	c.j	4ffc <__subdf3+0x420>
/cygdrive/d/Jenkins/workspace/build-system-3/source-packages/gcc-7.4.0-riscv-bsp-v5_1_0-branch/libgcc/soft-fp/subdf3.c:46 (discriminator 69)
    52b4:	0a0f9e63          	bnez	t6,5370 <__subdf3+0x794>
/cygdrive/d/Jenkins/workspace/build-system-3/source-packages/gcc-7.4.0-riscv-bsp-v5_1_0-branch/libgcc/soft-fp/subdf3.c:46 (discriminator 71)
    52b8:	00a86733          	or	a4,a6,a0
    52bc:	1c071a63          	bnez	a4,5490 <__subdf3+0x8b4>
/cygdrive/d/Jenkins/workspace/build-system-3/source-packages/gcc-7.4.0-riscv-bsp-v5_1_0-branch/libgcc/soft-fp/subdf3.c:46 (discriminator 73)
    52c0:	7ff00713          	li	a4,2047
/cygdrive/d/Jenkins/workspace/build-system-3/source-packages/gcc-7.4.0-riscv-bsp-v5_1_0-branch/libgcc/soft-fp/subdf3.c:45 (discriminator 73)
    52c4:	88b2                	c.mv	a7,a2
    52c6:	8f9a                	c.mv	t6,t1
/cygdrive/d/Jenkins/workspace/build-system-3/source-packages/gcc-7.4.0-riscv-bsp-v5_1_0-branch/libgcc/soft-fp/subdf3.c:46 (discriminator 73)
    52c8:	c8e316e3          	bne	t1,a4,4f54 <__subdf3+0x378>
/cygdrive/d/Jenkins/workspace/build-system-3/source-packages/gcc-7.4.0-riscv-bsp-v5_1_0-branch/libgcc/soft-fp/subdf3.c:46 (discriminator 75)
    52cc:	00c7e733          	or	a4,a5,a2
    52d0:	f60702e3          	beqz	a4,5234 <__subdf3+0x658>
/cygdrive/d/Jenkins/workspace/build-system-3/source-packages/gcc-7.4.0-riscv-bsp-v5_1_0-branch/libgcc/soft-fp/subdf3.c:46 (discriminator 99)
    52d4:	7ff00e93          	li	t4,2047
    52d8:	883e                	c.mv	a6,a5
    52da:	8532                	c.mv	a0,a2
    52dc:	f567f45b          	bbs	a5,22,5224 <__subdf3+0x648>
/cygdrive/d/Jenkins/workspace/build-system-3/source-packages/gcc-7.4.0-riscv-bsp-v5_1_0-branch/libgcc/soft-fp/subdf3.c:46
    52e0:	4341                	c.li	t1,16
    52e2:	baa9                	c.j	4c3c <__subdf3+0x60>
/cygdrive/d/Jenkins/workspace/build-system-3/source-packages/gcc-7.4.0-riscv-bsp-v5_1_0-branch/libgcc/soft-fp/subdf3.c:46 (discriminator 42)
    52e4:	00a867b3          	or	a5,a6,a0
    52e8:	c80794e3          	bnez	a5,4f70 <__subdf3+0x394>
/cygdrive/d/Jenkins/workspace/build-system-3/source-packages/gcc-7.4.0-riscv-bsp-v5_1_0-branch/libgcc/soft-fp/subdf3.c:37
    52ec:	4301                	c.li	t1,0
    52ee:	b339                	c.j	4ffc <__subdf3+0x420>
/cygdrive/d/Jenkins/workspace/build-system-3/source-packages/gcc-7.4.0-riscv-bsp-v5_1_0-branch/libgcc/soft-fp/subdf3.c:47 (discriminator 19)
    52f0:	00100e93          	li	t4,1
    52f4:	be0596e3          	bnez	a1,4ee0 <__subdf3+0x304>
/cygdrive/d/Jenkins/workspace/build-system-3/source-packages/gcc-7.4.0-riscv-bsp-v5_1_0-branch/libgcc/soft-fp/subdf3.c:47 (discriminator 25)
    52f8:	ff86b693          	sltiu	a3,a3,-8
    52fc:	0016c693          	xori	a3,a3,1
    5300:	9336                	c.add	t1,a3
    5302:	bef9                	c.j	4ee0 <__subdf3+0x304>
/cygdrive/d/Jenkins/workspace/build-system-3/source-packages/gcc-7.4.0-riscv-bsp-v5_1_0-branch/libgcc/soft-fp/subdf3.c:47 (discriminator 18)
    5304:	4e85                	c.li	t4,1
    5306:	bc058de3          	beqz	a1,4ee0 <__subdf3+0x304>
    530a:	b7fd                	c.j	52f8 <__subdf3+0x71c>
/cygdrive/d/Jenkins/workspace/build-system-3/source-packages/gcc-7.4.0-riscv-bsp-v5_1_0-branch/libgcc/soft-fp/subdf3.c:47 (discriminator 53)
    530c:	d80590e3          	bnez	a1,508c <__subdf3+0x4b0>
/cygdrive/d/Jenkins/workspace/build-system-3/source-packages/gcc-7.4.0-riscv-bsp-v5_1_0-branch/libgcc/soft-fp/subdf3.c:47
    5310:	00536313          	ori	t1,t1,5
    5314:	4681                	c.li	a3,0
    5316:	b1dd                	c.j	4ffc <__subdf3+0x420>
    5318:	00a868b3          	or	a7,a6,a0
/cygdrive/d/Jenkins/workspace/build-system-3/source-packages/gcc-7.4.0-riscv-bsp-v5_1_0-branch/libgcc/soft-fp/subdf3.c:46 (discriminator 124)
    531c:	0e0f9e63          	bnez	t6,5418 <__subdf3+0x83c>
    5320:	00c7e733          	or	a4,a5,a2
/cygdrive/d/Jenkins/workspace/build-system-3/source-packages/gcc-7.4.0-riscv-bsp-v5_1_0-branch/libgcc/soft-fp/subdf3.c:46 (discriminator 126)
    5324:	1e088063          	beqz	a7,5504 <__subdf3+0x928>
/cygdrive/d/Jenkins/workspace/build-system-3/source-packages/gcc-7.4.0-riscv-bsp-v5_1_0-branch/libgcc/soft-fp/subdf3.c:46 (discriminator 129)
    5328:	cf71                	c.beqz	a4,5404 <__subdf3+0x828>
/cygdrive/d/Jenkins/workspace/build-system-3/source-packages/gcc-7.4.0-riscv-bsp-v5_1_0-branch/libgcc/soft-fp/subdf3.c:46 (discriminator 135)
    532a:	00c508b3          	add	a7,a0,a2
    532e:	97c2                	c.add	a5,a6
    5330:	00a8b533          	sltu	a0,a7,a0
    5334:	97aa                	c.add	a5,a0
    5336:	4177f45b          	bbs	a5,23,533e <__subdf3+0x762>
    533a:	b6fff06f          	j	4ea8 <__subdf3+0x2cc>
/cygdrive/d/Jenkins/workspace/build-system-3/source-packages/gcc-7.4.0-riscv-bsp-v5_1_0-branch/libgcc/soft-fp/subdf3.c:46 (discriminator 137)
    533e:	ff800737          	lui	a4,0xff800
    5342:	177d                	c.addi	a4,-1
    5344:	8ff9                	c.and	a5,a4
    5346:	4301                	c.li	t1,0
    5348:	0078f713          	andi	a4,a7,7
    534c:	4e05                	c.li	t3,1
    534e:	b27d                	c.j	4cfc <__subdf3+0x120>
/cygdrive/d/Jenkins/workspace/build-system-3/source-packages/gcc-7.4.0-riscv-bsp-v5_1_0-branch/libgcc/soft-fp/subdf3.c:46 (discriminator 54)
    5350:	01d7d8b3          	srl	a7,a5,t4
    5354:	000ed8db          	beqc	t4,32,5364 <__subdf3+0x788>
/cygdrive/d/Jenkins/workspace/build-system-3/source-packages/gcc-7.4.0-riscv-bsp-v5_1_0-branch/libgcc/soft-fp/subdf3.c:46 (discriminator 61)
    5358:	41d00eb3          	neg	t4,t4
    535c:	01d797b3          	sll	a5,a5,t4
    5360:	00f66633          	or	a2,a2,a5
/cygdrive/d/Jenkins/workspace/build-system-3/source-packages/gcc-7.4.0-riscv-bsp-v5_1_0-branch/libgcc/soft-fp/subdf3.c:46 (discriminator 64)
    5364:	00c03633          	snez	a2,a2
    5368:	011668b3          	or	a7,a2,a7
    536c:	df1ff06f          	j	515c <__subdf3+0x580>
/cygdrive/d/Jenkins/workspace/build-system-3/source-packages/gcc-7.4.0-riscv-bsp-v5_1_0-branch/libgcc/soft-fp/subdf3.c:46 (discriminator 72)
    5370:	7ff00713          	li	a4,2047
    5374:	12e30863          	beq	t1,a4,54a4 <__subdf3+0x8c8>
/cygdrive/d/Jenkins/workspace/build-system-3/source-packages/gcc-7.4.0-riscv-bsp-v5_1_0-branch/libgcc/soft-fp/subdf3.c:46 (discriminator 96)
    5378:	00800737          	lui	a4,0x800
    537c:	41d00eb3          	neg	t4,t4
    5380:	00e86833          	or	a6,a6,a4
/cygdrive/d/Jenkins/workspace/build-system-3/source-packages/gcc-7.4.0-riscv-bsp-v5_1_0-branch/libgcc/soft-fp/subdf3.c:46 (discriminator 105)
    5384:	03800713          	li	a4,56
    5388:	13d74463          	blt	a4,t4,54b0 <__subdf3+0x8d4>
/cygdrive/d/Jenkins/workspace/build-system-3/source-packages/gcc-7.4.0-riscv-bsp-v5_1_0-branch/libgcc/soft-fp/subdf3.c:46 (discriminator 106)
    538c:	477d                	c.li	a4,31
    538e:	19d74363          	blt	a4,t4,5514 <__subdf3+0x938>
/cygdrive/d/Jenkins/workspace/build-system-3/source-packages/gcc-7.4.0-riscv-bsp-v5_1_0-branch/libgcc/soft-fp/subdf3.c:46 (discriminator 108)
    5392:	02000713          	li	a4,32
    5396:	41d70733          	sub	a4,a4,t4
    539a:	00e818b3          	sll	a7,a6,a4
    539e:	01d55e33          	srl	t3,a0,t4
    53a2:	00e51733          	sll	a4,a0,a4
    53a6:	01c8e8b3          	or	a7,a7,t3
    53aa:	00e03733          	snez	a4,a4
    53ae:	01d85833          	srl	a6,a6,t4
    53b2:	00e8e8b3          	or	a7,a7,a4
    53b6:	97c2                	c.add	a5,a6
/cygdrive/d/Jenkins/workspace/build-system-3/source-packages/gcc-7.4.0-riscv-bsp-v5_1_0-branch/libgcc/soft-fp/subdf3.c:46 (discriminator 122)
    53b8:	98b2                	c.add	a7,a2
    53ba:	00c8b633          	sltu	a2,a7,a2
    53be:	97b2                	c.add	a5,a2
/cygdrive/d/Jenkins/workspace/build-system-3/source-packages/gcc-7.4.0-riscv-bsp-v5_1_0-branch/libgcc/soft-fp/subdf3.c:45 (discriminator 122)
    53c0:	8f9a                	c.mv	t6,t1
    53c2:	b34d                	c.j	5164 <__subdf3+0x588>
/cygdrive/d/Jenkins/workspace/build-system-3/source-packages/gcc-7.4.0-riscv-bsp-v5_1_0-branch/libgcc/soft-fp/subdf3.c:46 (discriminator 247)
    53c4:	fff00713          	li	a4,-1
    53c8:	12ee8063          	beq	t4,a4,54e8 <__subdf3+0x90c>
/cygdrive/d/Jenkins/workspace/build-system-3/source-packages/gcc-7.4.0-riscv-bsp-v5_1_0-branch/libgcc/soft-fp/subdf3.c:46 (discriminator 256)
    53cc:	7ff00713          	li	a4,2047
    53d0:	fffece93          	not	t4,t4
    53d4:	b2e31ae3          	bne	t1,a4,4f08 <__subdf3+0x32c>
/cygdrive/d/Jenkins/workspace/build-system-3/source-packages/gcc-7.4.0-riscv-bsp-v5_1_0-branch/libgcc/soft-fp/subdf3.c:46 (discriminator 268)
    53d8:	00c7e733          	or	a4,a5,a2
    53dc:	f00708e3          	beqz	a4,52ec <__subdf3+0x710>
/cygdrive/d/Jenkins/workspace/build-system-3/source-packages/gcc-7.4.0-riscv-bsp-v5_1_0-branch/libgcc/soft-fp/subdf3.c:46 (discriminator 270)
    53e0:	7ff00e93          	li	t4,2047
    53e4:	e367fc5b          	bbs	a5,22,521c <__subdf3+0x640>
/cygdrive/d/Jenkins/workspace/build-system-3/source-packages/gcc-7.4.0-riscv-bsp-v5_1_0-branch/libgcc/soft-fp/subdf3.c:46
    53e8:	85b6                	c.mv	a1,a3
    53ea:	883e                	c.mv	a6,a5
    53ec:	8532                	c.mv	a0,a2
    53ee:	4341                	c.li	t1,16
    53f0:	84dff06f          	j	4c3c <__subdf3+0x60>
/cygdrive/d/Jenkins/workspace/build-system-3/source-packages/gcc-7.4.0-riscv-bsp-v5_1_0-branch/libgcc/soft-fp/subdf3.c:46 (discriminator 305)
    53f4:	01136733          	or	a4,t1,a7
    53f8:	980704e3          	beqz	a4,4d80 <__subdf3+0x1a4>
    53fc:	00737713          	andi	a4,t1,7
/cygdrive/d/Jenkins/workspace/build-system-3/source-packages/gcc-7.4.0-riscv-bsp-v5_1_0-branch/libgcc/soft-fp/subdf3.c:46
    5400:	8846                	c.mv	a6,a7
    5402:	851a                	c.mv	a0,t1
/cygdrive/d/Jenkins/workspace/build-system-3/source-packages/gcc-7.4.0-riscv-bsp-v5_1_0-branch/libgcc/soft-fp/subdf3.c:45
    5404:	87c2                	c.mv	a5,a6
    5406:	88aa                	c.mv	a7,a0
    5408:	aadff06f          	j	4eb4 <__subdf3+0x2d8>
/cygdrive/d/Jenkins/workspace/build-system-3/source-packages/gcc-7.4.0-riscv-bsp-v5_1_0-branch/libgcc/soft-fp/subdf3.c:46 (discriminator 277)
    540c:	00a86533          	or	a0,a6,a0
    5410:	00a038b3          	snez	a7,a0
    5414:	b2dff06f          	j	4f40 <__subdf3+0x364>
/cygdrive/d/Jenkins/workspace/build-system-3/source-packages/gcc-7.4.0-riscv-bsp-v5_1_0-branch/libgcc/soft-fp/subdf3.c:46 (discriminator 127)
    5418:	7ff00713          	li	a4,2047
    541c:	12ef8463          	beq	t6,a4,5544 <__subdf3+0x968>
/cygdrive/d/Jenkins/workspace/build-system-3/source-packages/gcc-7.4.0-riscv-bsp-v5_1_0-branch/libgcc/soft-fp/subdf3.c:46 (discriminator 144)
    5420:	16e30863          	beq	t1,a4,5590 <__subdf3+0x9b4>
/cygdrive/d/Jenkins/workspace/build-system-3/source-packages/gcc-7.4.0-riscv-bsp-v5_1_0-branch/libgcc/soft-fp/subdf3.c:46 (discriminator 151)
    5424:	10088863          	beqz	a7,5534 <__subdf3+0x958>
/cygdrive/d/Jenkins/workspace/build-system-3/source-packages/gcc-7.4.0-riscv-bsp-v5_1_0-branch/libgcc/soft-fp/subdf3.c:46 (discriminator 153)
    5428:	00c7e7b3          	or	a5,a5,a2
    542c:	e6079ee3          	bnez	a5,52a8 <__subdf3+0x6cc>
    5430:	8376                	c.mv	t1,t4
/cygdrive/d/Jenkins/workspace/build-system-3/source-packages/gcc-7.4.0-riscv-bsp-v5_1_0-branch/libgcc/soft-fp/subdf3.c:46
    5432:	85b6                	c.mv	a1,a3
    5434:	7ff00e93          	li	t4,2047
    5438:	805ff06f          	j	4c3c <__subdf3+0x60>
/cygdrive/d/Jenkins/workspace/build-system-3/source-packages/gcc-7.4.0-riscv-bsp-v5_1_0-branch/libgcc/soft-fp/subdf3.c:46 (discriminator 299)
    543c:	0c088663          	beqz	a7,5508 <__subdf3+0x92c>
/cygdrive/d/Jenkins/workspace/build-system-3/source-packages/gcc-7.4.0-riscv-bsp-v5_1_0-branch/libgcc/soft-fp/subdf3.c:46 (discriminator 303)
    5440:	40c50333          	sub	t1,a0,a2
    5444:	40f808b3          	sub	a7,a6,a5
    5448:	00653733          	sltu	a4,a0,t1
    544c:	40e888b3          	sub	a7,a7,a4
    5450:	bb78f25b          	bbc	a7,23,53f4 <__subdf3+0x818>
/cygdrive/d/Jenkins/workspace/build-system-3/source-packages/gcc-7.4.0-riscv-bsp-v5_1_0-branch/libgcc/soft-fp/subdf3.c:46 (discriminator 304)
    5454:	40a608b3          	sub	a7,a2,a0
    5458:	410787b3          	sub	a5,a5,a6
    545c:	01163633          	sltu	a2,a2,a7
    5460:	8f91                	c.sub	a5,a2
    5462:	00f8e733          	or	a4,a7,a5
    5466:	85b6                	c.mv	a1,a3
    5468:	a45ff06f          	j	4eac <__subdf3+0x2d0>
/cygdrive/d/Jenkins/workspace/build-system-3/source-packages/gcc-7.4.0-riscv-bsp-v5_1_0-branch/libgcc/soft-fp/subdf3.c:46 (discriminator 307)
    546c:	e20704e3          	beqz	a4,5294 <__subdf3+0x6b8>
/cygdrive/d/Jenkins/workspace/build-system-3/source-packages/gcc-7.4.0-riscv-bsp-v5_1_0-branch/libgcc/soft-fp/subdf3.c:46 (discriminator 309)
    5470:	4168745b          	bbs	a6,22,5478 <__subdf3+0x89c>
/cygdrive/d/Jenkins/workspace/build-system-3/source-packages/gcc-7.4.0-riscv-bsp-v5_1_0-branch/libgcc/soft-fp/subdf3.c:46
    5474:	01000e93          	li	t4,16
    5478:	7ff00e13          	li	t3,2047
    547c:	e1c30ee3          	beq	t1,t3,5298 <__subdf3+0x6bc>
/cygdrive/d/Jenkins/workspace/build-system-3/source-packages/gcc-7.4.0-riscv-bsp-v5_1_0-branch/libgcc/soft-fp/subdf3.c:46 (discriminator 322)
    5480:	e20894e3          	bnez	a7,52a8 <__subdf3+0x6cc>
    5484:	01d00333          	add	t1,zero,t4
/cygdrive/d/Jenkins/workspace/build-system-3/source-packages/gcc-7.4.0-riscv-bsp-v5_1_0-branch/libgcc/soft-fp/subdf3.c:46
    5488:	7ff00e93          	li	t4,2047
    548c:	fb0ff06f          	j	4c3c <__subdf3+0x60>
/cygdrive/d/Jenkins/workspace/build-system-3/source-packages/gcc-7.4.0-riscv-bsp-v5_1_0-branch/libgcc/soft-fp/subdf3.c:46 (discriminator 74)
    5490:	fff00713          	li	a4,-1
    5494:	0eee8663          	beq	t4,a4,5580 <__subdf3+0x9a4>
/cygdrive/d/Jenkins/workspace/build-system-3/source-packages/gcc-7.4.0-riscv-bsp-v5_1_0-branch/libgcc/soft-fp/subdf3.c:46 (discriminator 84)
    5498:	7ff00713          	li	a4,2047
    549c:	fffece93          	not	t4,t4
    54a0:	eee312e3          	bne	t1,a4,5384 <__subdf3+0x7a8>
/cygdrive/d/Jenkins/workspace/build-system-3/source-packages/gcc-7.4.0-riscv-bsp-v5_1_0-branch/libgcc/soft-fp/subdf3.c:46 (discriminator 97)
    54a4:	00c7e733          	or	a4,a5,a2
    54a8:	e20716e3          	bnez	a4,52d4 <__subdf3+0x6f8>
/cygdrive/d/Jenkins/workspace/build-system-3/source-packages/gcc-7.4.0-riscv-bsp-v5_1_0-branch/libgcc/soft-fp/subdf3.c:37
    54ac:	4301                	c.li	t1,0
    54ae:	b6b9                	c.j	4ffc <__subdf3+0x420>
/cygdrive/d/Jenkins/workspace/build-system-3/source-packages/gcc-7.4.0-riscv-bsp-v5_1_0-branch/libgcc/soft-fp/subdf3.c:46 (discriminator 107)
    54b0:	00a86533          	or	a0,a6,a0
    54b4:	00a038b3          	snez	a7,a0
    54b8:	f01ff06f          	j	53b8 <__subdf3+0x7dc>
/cygdrive/d/Jenkins/workspace/build-system-3/source-packages/gcc-7.4.0-riscv-bsp-v5_1_0-branch/libgcc/soft-fp/subdf3.c:46 (discriminator 279)
    54bc:	01d858b3          	srl	a7,a6,t4
    54c0:	000ed8db          	beqc	t4,32,54d0 <__subdf3+0x8f4>
/cygdrive/d/Jenkins/workspace/build-system-3/source-packages/gcc-7.4.0-riscv-bsp-v5_1_0-branch/libgcc/soft-fp/subdf3.c:46 (discriminator 286)
    54c4:	41d00eb3          	neg	t4,t4
    54c8:	01d81833          	sll	a6,a6,t4
    54cc:	01056533          	or	a0,a0,a6
/cygdrive/d/Jenkins/workspace/build-system-3/source-packages/gcc-7.4.0-riscv-bsp-v5_1_0-branch/libgcc/soft-fp/subdf3.c:46 (discriminator 289)
    54d0:	00a03533          	snez	a0,a0
    54d4:	011568b3          	or	a7,a0,a7
    54d8:	a69ff06f          	j	4f40 <__subdf3+0x364>
/cygdrive/d/Jenkins/workspace/build-system-3/source-packages/gcc-7.4.0-riscv-bsp-v5_1_0-branch/libgcc/soft-fp/subdf3.c:46 (discriminator 32)
    54dc:	00a867b3          	or	a5,a6,a0
    54e0:	e00786e3          	beqz	a5,52ec <__subdf3+0x710>
    54e4:	c19ff06f          	j	50fc <__subdf3+0x520>
/cygdrive/d/Jenkins/workspace/build-system-3/source-packages/gcc-7.4.0-riscv-bsp-v5_1_0-branch/libgcc/soft-fp/subdf3.c:46 (discriminator 255)
    54e8:	40a608b3          	sub	a7,a2,a0
    54ec:	410787b3          	sub	a5,a5,a6
    54f0:	01163633          	sltu	a2,a2,a7
    54f4:	8f91                	c.sub	a5,a2
/cygdrive/d/Jenkins/workspace/build-system-3/source-packages/gcc-7.4.0-riscv-bsp-v5_1_0-branch/libgcc/soft-fp/subdf3.c:45 (discriminator 255)
    54f6:	8f9a                	c.mv	t6,t1
/cygdrive/d/Jenkins/workspace/build-system-3/source-packages/gcc-7.4.0-riscv-bsp-v5_1_0-branch/libgcc/soft-fp/subdf3.c:46 (discriminator 255)
    54f8:	85b6                	c.mv	a1,a3
    54fa:	4177f45b          	bbs	a5,23,5502 <__subdf3+0x926>
    54fe:	a57ff06f          	j	4f54 <__subdf3+0x378>
    5502:	ba3d                	c.j	4e40 <__subdf3+0x264>
/cygdrive/d/Jenkins/workspace/build-system-3/source-packages/gcc-7.4.0-riscv-bsp-v5_1_0-branch/libgcc/soft-fp/subdf3.c:45
    5504:	88b2                	c.mv	a7,a2
    5506:	b25d                	c.j	4eac <__subdf3+0x2d0>
    5508:	4701                	c.li	a4,0
    550a:	bded                	c.j	5404 <__subdf3+0x828>
    550c:	883e                	c.mv	a6,a5
    550e:	8532                	c.mv	a0,a2
    5510:	85b6                	c.mv	a1,a3
    5512:	bdcd                	c.j	5404 <__subdf3+0x828>
/cygdrive/d/Jenkins/workspace/build-system-3/source-packages/gcc-7.4.0-riscv-bsp-v5_1_0-branch/libgcc/soft-fp/subdf3.c:46 (discriminator 109)
    5514:	01d858b3          	srl	a7,a6,t4
    5518:	000ed8db          	beqc	t4,32,5528 <__subdf3+0x94c>
/cygdrive/d/Jenkins/workspace/build-system-3/source-packages/gcc-7.4.0-riscv-bsp-v5_1_0-branch/libgcc/soft-fp/subdf3.c:46 (discriminator 116)
    551c:	41d00eb3          	neg	t4,t4
    5520:	01d81833          	sll	a6,a6,t4
    5524:	01056533          	or	a0,a0,a6
/cygdrive/d/Jenkins/workspace/build-system-3/source-packages/gcc-7.4.0-riscv-bsp-v5_1_0-branch/libgcc/soft-fp/subdf3.c:46 (discriminator 119)
    5528:	00a03533          	snez	a0,a0
    552c:	011568b3          	or	a7,a0,a7
    5530:	e89ff06f          	j	53b8 <__subdf3+0x7dc>
/cygdrive/d/Jenkins/workspace/build-system-3/source-packages/gcc-7.4.0-riscv-bsp-v5_1_0-branch/libgcc/soft-fp/subdf3.c:46
    5534:	883e                	c.mv	a6,a5
    5536:	8532                	c.mv	a0,a2
/cygdrive/d/Jenkins/workspace/build-system-3/source-packages/gcc-7.4.0-riscv-bsp-v5_1_0-branch/libgcc/soft-fp/subdf3.c:37
    5538:	00000313          	li	t1,0
/cygdrive/d/Jenkins/workspace/build-system-3/source-packages/gcc-7.4.0-riscv-bsp-v5_1_0-branch/libgcc/soft-fp/subdf3.c:46
    553c:	7ff00e93          	li	t4,2047
    5540:	efcff06f          	j	4c3c <__subdf3+0x60>
/cygdrive/d/Jenkins/workspace/build-system-3/source-packages/gcc-7.4.0-riscv-bsp-v5_1_0-branch/libgcc/soft-fp/subdf3.c:46 (discriminator 138)
    5544:	06088063          	beqz	a7,55a4 <__subdf3+0x9c8>
/cygdrive/d/Jenkins/workspace/build-system-3/source-packages/gcc-7.4.0-riscv-bsp-v5_1_0-branch/libgcc/soft-fp/subdf3.c:46 (discriminator 140)
    5548:	4168745b          	bbs	a6,22,5550 <__subdf3+0x974>
/cygdrive/d/Jenkins/workspace/build-system-3/source-packages/gcc-7.4.0-riscv-bsp-v5_1_0-branch/libgcc/soft-fp/subdf3.c:46
    554c:	01000e93          	li	t4,16
    5550:	7ff00713          	li	a4,2047
    5554:	ece31ae3          	bne	t1,a4,5428 <__subdf3+0x84c>
    5558:	00c7e733          	or	a4,a5,a2
    555c:	ec070ae3          	beqz	a4,5430 <__subdf3+0x854>
/cygdrive/d/Jenkins/workspace/build-system-3/source-packages/gcc-7.4.0-riscv-bsp-v5_1_0-branch/libgcc/soft-fp/subdf3.c:46 (discriminator 147)
    5560:	4167f45b          	bbs	a5,22,5568 <__subdf3+0x98c>
/cygdrive/d/Jenkins/workspace/build-system-3/source-packages/gcc-7.4.0-riscv-bsp-v5_1_0-branch/libgcc/soft-fp/subdf3.c:46
    5564:	01000e93          	li	t4,16
    5568:	ca0882e3          	beqz	a7,520c <__subdf3+0x630>
    556c:	01d00333          	add	t1,zero,t4
    5570:	eecff06f          	j	4c5c <__subdf3+0x80>
/cygdrive/d/Jenkins/workspace/build-system-3/source-packages/gcc-7.4.0-riscv-bsp-v5_1_0-branch/libgcc/soft-fp/subdf3.c:46 (discriminator 179)
    5574:	d0059ae3          	bnez	a1,5288 <__subdf3+0x6ac>
/cygdrive/d/Jenkins/workspace/build-system-3/source-packages/gcc-7.4.0-riscv-bsp-v5_1_0-branch/libgcc/soft-fp/subdf3.c:46
    5578:	4681                	c.li	a3,0
    557a:	4315                	c.li	t1,5
    557c:	a81ff06f          	j	4ffc <__subdf3+0x420>
/cygdrive/d/Jenkins/workspace/build-system-3/source-packages/gcc-7.4.0-riscv-bsp-v5_1_0-branch/libgcc/soft-fp/subdf3.c:46 (discriminator 83)
    5580:	00c508b3          	add	a7,a0,a2
    5584:	97c2                	c.add	a5,a6
    5586:	00c8b633          	sltu	a2,a7,a2
    558a:	97b2                	c.add	a5,a2
/cygdrive/d/Jenkins/workspace/build-system-3/source-packages/gcc-7.4.0-riscv-bsp-v5_1_0-branch/libgcc/soft-fp/subdf3.c:45 (discriminator 83)
    558c:	8f9a                	c.mv	t6,t1
/cygdrive/d/Jenkins/workspace/build-system-3/source-packages/gcc-7.4.0-riscv-bsp-v5_1_0-branch/libgcc/soft-fp/subdf3.c:46 (discriminator 83)
    558e:	bed9                	c.j	5164 <__subdf3+0x588>
/cygdrive/d/Jenkins/workspace/build-system-3/source-packages/gcc-7.4.0-riscv-bsp-v5_1_0-branch/libgcc/soft-fp/subdf3.c:46 (discriminator 145)
    5590:	00c7e733          	or	a4,a5,a2
    5594:	f771                	c.bnez	a4,5560 <__subdf3+0x984>
/cygdrive/d/Jenkins/workspace/build-system-3/source-packages/gcc-7.4.0-riscv-bsp-v5_1_0-branch/libgcc/soft-fp/subdf3.c:46
    5596:	e8089de3          	bnez	a7,5430 <__subdf3+0x854>
    559a:	b969                	c.j	5234 <__subdf3+0x658>
/cygdrive/d/Jenkins/workspace/build-system-3/source-packages/gcc-7.4.0-riscv-bsp-v5_1_0-branch/libgcc/soft-fp/subdf3.c:46 (discriminator 163)
    559c:	ce0696e3          	bnez	a3,5288 <__subdf3+0x6ac>
/cygdrive/d/Jenkins/workspace/build-system-3/source-packages/gcc-7.4.0-riscv-bsp-v5_1_0-branch/libgcc/soft-fp/subdf3.c:46
    55a0:	4315                	c.li	t1,5
    55a2:	bca9                	c.j	4ffc <__subdf3+0x420>
    55a4:	f9f318e3          	bne	t1,t6,5534 <__subdf3+0x958>
    55a8:	00c7e733          	or	a4,a5,a2
    55ac:	c80704e3          	beqz	a4,5234 <__subdf3+0x658>
    55b0:	fb1ff06f          	j	5560 <__subdf3+0x984>
/cygdrive/d/Jenkins/workspace/build-system-3/source-packages/gcc-7.4.0-riscv-bsp-v5_1_0-branch/libgcc/soft-fp/subdf3.c:47
    55b4:	4301                	c.li	t1,0
    55b6:	7fe00e13          	li	t3,2046
    55ba:	4815                	c.li	a6,5
    55bc:	58fd                	c.li	a7,-1
    55be:	57fd                	c.li	a5,-1
    55c0:	a55ff06f          	j	5014 <__subdf3+0x438>
    55c4:	8546                	c.mv	a0,a7
    55c6:	8ef2                	c.mv	t4,t3
    55c8:	00f00833          	add	a6,zero,a5
    55cc:	e70ff06f          	j	4c3c <__subdf3+0x60>
    55d0:	00100313          	li	t1,1
    55d4:	f48ff06f          	j	4d1c <__subdf3+0x140>
    55d8:	00800737          	lui	a4,0x800
    55dc:	869a                	c.mv	a3,t1
    55de:	8f7d                	c.and	a4,a5
    55e0:	8376                	c.mv	t1,t4
    55e2:	b4a9                	c.j	502c <__subdf3+0x450>

000055e4 <__unorddf2>:
__unorddf2():
/cygdrive/d/Jenkins/workspace/build-system-3/source-packages/gcc-7.4.0-riscv-bsp-v5_1_0-branch/libgcc/soft-fp/unorddf2.c:41
    55e4:	002027f3          	frrm	a5
/cygdrive/d/Jenkins/workspace/build-system-3/source-packages/gcc-7.4.0-riscv-bsp-v5_1_0-branch/libgcc/soft-fp/unorddf2.c:42
    55e8:	001007b7          	lui	a5,0x100
    55ec:	17fd                	c.addi	a5,-1
    55ee:	7945a85b          	bfoz	a6,a1,30,20
/cygdrive/d/Jenkins/workspace/build-system-3/source-packages/gcc-7.4.0-riscv-bsp-v5_1_0-branch/libgcc/soft-fp/unorddf2.c:44
    55f2:	7ff00893          	li	a7,2047
/cygdrive/d/Jenkins/workspace/build-system-3/source-packages/gcc-7.4.0-riscv-bsp-v5_1_0-branch/libgcc/soft-fp/unorddf2.c:42
    55f6:	8dfd                	c.and	a1,a5
    55f8:	872a                	c.mv	a4,a0
/cygdrive/d/Jenkins/workspace/build-system-3/source-packages/gcc-7.4.0-riscv-bsp-v5_1_0-branch/libgcc/soft-fp/unorddf2.c:43
    55fa:	8ff5                	c.and	a5,a3
    55fc:	7946a6db          	bfoz	a3,a3,30,20
/cygdrive/d/Jenkins/workspace/build-system-3/source-packages/gcc-7.4.0-riscv-bsp-v5_1_0-branch/libgcc/soft-fp/unorddf2.c:44
    5600:	03180663          	beq	a6,a7,562c <__unorddf2+0x48>
/cygdrive/d/Jenkins/workspace/build-system-3/source-packages/gcc-7.4.0-riscv-bsp-v5_1_0-branch/libgcc/soft-fp/unorddf2.c:44 (discriminator 21)
    5604:	7ff00893          	li	a7,2047
    5608:	00000513          	li	a0,0
    560c:	01168463          	beq	a3,a7,5614 <__unorddf2+0x30>
/cygdrive/d/Jenkins/workspace/build-system-3/source-packages/gcc-7.4.0-riscv-bsp-v5_1_0-branch/libgcc/soft-fp/unorddf2.c:48
    5610:	00008067          	ret
/cygdrive/d/Jenkins/workspace/build-system-3/source-packages/gcc-7.4.0-riscv-bsp-v5_1_0-branch/libgcc/soft-fp/unorddf2.c:44 (discriminator 22)
    5614:	8e5d                	c.or	a2,a5
    5616:	de6d                	c.beqz	a2,5610 <__unorddf2+0x2c>
/cygdrive/d/Jenkins/workspace/build-system-3/source-packages/gcc-7.4.0-riscv-bsp-v5_1_0-branch/libgcc/soft-fp/unorddf2.c:44 (discriminator 31)
    5618:	02d80463          	beq	a6,a3,5640 <__unorddf2+0x5c>
    561c:	00100513          	li	a0,1
/cygdrive/d/Jenkins/workspace/build-system-3/source-packages/gcc-7.4.0-riscv-bsp-v5_1_0-branch/libgcc/soft-fp/unorddf2.c:44 (discriminator 63)
    5620:	ff37f85b          	bbs	a5,19,5610 <__unorddf2+0x2c>
/cygdrive/d/Jenkins/workspace/build-system-3/source-packages/gcc-7.4.0-riscv-bsp-v5_1_0-branch/libgcc/soft-fp/unorddf2.c:45 (discriminator 1)
    5624:	00186073          	csrsi	fflags,16
    5628:	4505                	c.li	a0,1
    562a:	8082                	c.jr	ra
/cygdrive/d/Jenkins/workspace/build-system-3/source-packages/gcc-7.4.0-riscv-bsp-v5_1_0-branch/libgcc/soft-fp/unorddf2.c:44 (discriminator 18)
    562c:	8d4d                	c.or	a0,a1
    562e:	d979                	c.beqz	a0,5604 <__unorddf2+0x20>
/cygdrive/d/Jenkins/workspace/build-system-3/source-packages/gcc-7.4.0-riscv-bsp-v5_1_0-branch/libgcc/soft-fp/unorddf2.c:44 (discriminator 54)
    5630:	bf35fa5b          	bbc	a1,19,5624 <__unorddf2+0x40>
    5634:	4505                	c.li	a0,1
/cygdrive/d/Jenkins/workspace/build-system-3/source-packages/gcc-7.4.0-riscv-bsp-v5_1_0-branch/libgcc/soft-fp/unorddf2.c:44 (discriminator 60)
    5636:	fd069de3          	bne	a3,a6,5610 <__unorddf2+0x2c>
    563a:	8e5d                	c.or	a2,a5
    563c:	00c0006f          	j	5648 <__unorddf2+0x64>
/cygdrive/d/Jenkins/workspace/build-system-3/source-packages/gcc-7.4.0-riscv-bsp-v5_1_0-branch/libgcc/soft-fp/unorddf2.c:44
    5640:	8f4d                	c.or	a4,a1
    5642:	df69                	c.beqz	a4,561c <__unorddf2+0x38>
    5644:	bf35f05b          	bbc	a1,19,5624 <__unorddf2+0x40>
    5648:	4505                	c.li	a0,1
    564a:	fa69                	c.bnez	a2,561c <__unorddf2+0x38>
/cygdrive/d/Jenkins/workspace/build-system-3/source-packages/gcc-7.4.0-riscv-bsp-v5_1_0-branch/libgcc/soft-fp/unorddf2.c:48
    564c:	8082                	c.jr	ra
	...

00005650 <__fixdfsi>:
__fixdfsi():
/cygdrive/d/Jenkins/workspace/build-system-3/source-packages/gcc-7.4.0-riscv-bsp-v5_1_0-branch/libgcc/soft-fp/fixdfsi.c:41
    5650:	002027f3          	frrm	a5
/cygdrive/d/Jenkins/workspace/build-system-3/source-packages/gcc-7.4.0-riscv-bsp-v5_1_0-branch/libgcc/soft-fp/fixdfsi.c:43
    5654:	3fe00793          	li	a5,1022
/cygdrive/d/Jenkins/workspace/build-system-3/source-packages/gcc-7.4.0-riscv-bsp-v5_1_0-branch/libgcc/soft-fp/fixdfsi.c:42
    5658:	7945a6db          	bfoz	a3,a1,30,20
    565c:	4c05a65b          	bfoz	a2,a1,19,0
    5660:	872a                	c.mv	a4,a0
    5662:	81fd                	c.srli	a1,0x1f
/cygdrive/d/Jenkins/workspace/build-system-3/source-packages/gcc-7.4.0-riscv-bsp-v5_1_0-branch/libgcc/soft-fp/fixdfsi.c:43
    5664:	00d7cc63          	blt	a5,a3,567c <__fixdfsi+0x2c>
/cygdrive/d/Jenkins/workspace/build-system-3/source-packages/gcc-7.4.0-riscv-bsp-v5_1_0-branch/libgcc/soft-fp/fixdfsi.c:43 (discriminator 1)
    5668:	e681                	c.bnez	a3,5670 <__fixdfsi+0x20>
/cygdrive/d/Jenkins/workspace/build-system-3/source-packages/gcc-7.4.0-riscv-bsp-v5_1_0-branch/libgcc/soft-fp/fixdfsi.c:43 (discriminator 3)
    566a:	8d51                	c.or	a0,a2
    566c:	0a050263          	beqz	a0,5710 <__fixdfsi+0xc0>
    5670:	4501                	c.li	a0,0
/cygdrive/d/Jenkins/workspace/build-system-3/source-packages/gcc-7.4.0-riscv-bsp-v5_1_0-branch/libgcc/soft-fp/fixdfsi.c:43
    5672:	4805                	c.li	a6,1
/cygdrive/d/Jenkins/workspace/build-system-3/source-packages/gcc-7.4.0-riscv-bsp-v5_1_0-branch/libgcc/soft-fp/fixdfsi.c:44 (discriminator 1)
    5674:	00182073          	csrs	fflags,a6
/cygdrive/d/Jenkins/workspace/build-system-3/source-packages/gcc-7.4.0-riscv-bsp-v5_1_0-branch/libgcc/soft-fp/fixdfsi.c:47
    5678:	00008067          	ret
/cygdrive/d/Jenkins/workspace/build-system-3/source-packages/gcc-7.4.0-riscv-bsp-v5_1_0-branch/libgcc/soft-fp/fixdfsi.c:43 (discriminator 10)
    567c:	41d00793          	li	a5,1053
    5680:	02d7d663          	bge	a5,a3,56ac <__fixdfsi+0x5c>
/cygdrive/d/Jenkins/workspace/build-system-3/source-packages/gcc-7.4.0-riscv-bsp-v5_1_0-branch/libgcc/soft-fp/fixdfsi.c:43 (discriminator 13)
    5684:	800007b7          	lui	a5,0x80000
    5688:	fff7c793          	not	a5,a5
    568c:	00f58533          	add	a0,a1,a5
    5690:	c1b5                	c.beqz	a1,56f4 <__fixdfsi+0xa4>
/cygdrive/d/Jenkins/workspace/build-system-3/source-packages/gcc-7.4.0-riscv-bsp-v5_1_0-branch/libgcc/soft-fp/fixdfsi.c:43 (discriminator 19)
    5692:	41e00793          	li	a5,1054
    5696:	4841                	c.li	a6,16
    5698:	fcf69ee3          	bne	a3,a5,5674 <__fixdfsi+0x24>
/cygdrive/d/Jenkins/workspace/build-system-3/source-packages/gcc-7.4.0-riscv-bsp-v5_1_0-branch/libgcc/soft-fp/fixdfsi.c:43 (discriminator 21)
    569c:	062e                	c.slli	a2,0xb
    569e:	01575793          	srli	a5,a4,0x15
    56a2:	8e5d                	c.or	a2,a5
    56a4:	fa61                	c.bnez	a2,5674 <__fixdfsi+0x24>
/cygdrive/d/Jenkins/workspace/build-system-3/source-packages/gcc-7.4.0-riscv-bsp-v5_1_0-branch/libgcc/soft-fp/fixdfsi.c:43 (discriminator 24)
    56a6:	072e                	c.slli	a4,0xb
    56a8:	e735                	c.bnez	a4,5714 <__fixdfsi+0xc4>
    56aa:	8082                	c.jr	ra
/cygdrive/d/Jenkins/workspace/build-system-3/source-packages/gcc-7.4.0-riscv-bsp-v5_1_0-branch/libgcc/soft-fp/fixdfsi.c:43 (discriminator 12)
    56ac:	43300513          	li	a0,1075
    56b0:	40d508b3          	sub	a7,a0,a3
    56b4:	487d                	c.li	a6,31
    56b6:	00100537          	lui	a0,0x100
    56ba:	8d51                	c.or	a0,a2
    56bc:	03185e63          	bge	a6,a7,56f8 <__fixdfsi+0xa8>
/cygdrive/d/Jenkins/workspace/build-system-3/source-packages/gcc-7.4.0-riscv-bsp-v5_1_0-branch/libgcc/soft-fp/fixdfsi.c:43 (discriminator 30)
    56c0:	0008d8db          	beqc	a7,32,56d0 <__fixdfsi+0x80>
/cygdrive/d/Jenkins/workspace/build-system-3/source-packages/gcc-7.4.0-riscv-bsp-v5_1_0-branch/libgcc/soft-fp/fixdfsi.c:43 (discriminator 38)
    56c4:	c0d68793          	addi	a5,a3,-1011
    56c8:	00f517b3          	sll	a5,a0,a5
    56cc:	00f76733          	or	a4,a4,a5
/cygdrive/d/Jenkins/workspace/build-system-3/source-packages/gcc-7.4.0-riscv-bsp-v5_1_0-branch/libgcc/soft-fp/fixdfsi.c:43 (discriminator 41)
    56d0:	41300793          	li	a5,1043
    56d4:	40d787b3          	sub	a5,a5,a3
    56d8:	00e03833          	snez	a6,a4
    56dc:	00f55533          	srl	a0,a0,a5
/cygdrive/d/Jenkins/workspace/build-system-3/source-packages/gcc-7.4.0-riscv-bsp-v5_1_0-branch/libgcc/soft-fp/fixdfsi.c:43 (discriminator 42)
    56e0:	00058463          	beqz	a1,56e8 <__fixdfsi+0x98>
/cygdrive/d/Jenkins/workspace/build-system-3/source-packages/gcc-7.4.0-riscv-bsp-v5_1_0-branch/libgcc/soft-fp/fixdfsi.c:43 (discriminator 44)
    56e4:	40a00533          	neg	a0,a0
/cygdrive/d/Jenkins/workspace/build-system-3/source-packages/gcc-7.4.0-riscv-bsp-v5_1_0-branch/libgcc/soft-fp/fixdfsi.c:43 (discriminator 55)
    56e8:	f80808e3          	beqz	a6,5678 <__fixdfsi+0x28>
/cygdrive/d/Jenkins/workspace/build-system-3/source-packages/gcc-7.4.0-riscv-bsp-v5_1_0-branch/libgcc/soft-fp/fixdfsi.c:44
    56ec:	00182073          	csrs	fflags,a6
    56f0:	f89ff06f          	j	5678 <__fixdfsi+0x28>
/cygdrive/d/Jenkins/workspace/build-system-3/source-packages/gcc-7.4.0-riscv-bsp-v5_1_0-branch/libgcc/soft-fp/fixdfsi.c:43
    56f4:	4841                	c.li	a6,16
    56f6:	bfbd                	c.j	5674 <__fixdfsi+0x24>
/cygdrive/d/Jenkins/workspace/build-system-3/source-packages/gcc-7.4.0-riscv-bsp-v5_1_0-branch/libgcc/soft-fp/fixdfsi.c:43 (discriminator 29)
    56f8:	bed68793          	addi	a5,a3,-1043
    56fc:	00f71833          	sll	a6,a4,a5
    5700:	00f517b3          	sll	a5,a0,a5
    5704:	01175533          	srl	a0,a4,a7
    5708:	01003833          	snez	a6,a6
    570c:	8d5d                	c.or	a0,a5
    570e:	bfc9                	c.j	56e0 <__fixdfsi+0x90>
    5710:	00008067          	ret
/cygdrive/d/Jenkins/workspace/build-system-3/source-packages/gcc-7.4.0-riscv-bsp-v5_1_0-branch/libgcc/soft-fp/fixdfsi.c:43
    5714:	4805                	c.li	a6,1
    5716:	bfb9                	c.j	5674 <__fixdfsi+0x24>

00005718 <__floatsidf>:
__floatsidf():
/cygdrive/d/Jenkins/workspace/build-system-3/source-packages/gcc-7.4.0-riscv-bsp-v5_1_0-branch/libgcc/soft-fp/floatsidf.c:41
    5718:	c925                	c.beqz	a0,5788 <__floatsidf+0x70>
/cygdrive/d/Jenkins/workspace/build-system-3/source-packages/gcc-7.4.0-riscv-bsp-v5_1_0-branch/libgcc/soft-fp/floatsidf.c:41 (discriminator 1)
    571a:	40a007b3          	neg	a5,a0
    571e:	01f55613          	srli	a2,a0,0x1f
    5722:	f2f5057f          	maxw	a0,a0,a5
    5726:	af95077f          	clz32	a4,a0
    572a:	41e00793          	li	a5,1054
    572e:	8f99                	c.sub	a5,a4
    5730:	46a9                	c.li	a3,10
    5732:	7ff7f793          	andi	a5,a5,2047
    5736:	02e6df63          	bge	a3,a4,5774 <__floatsidf+0x5c>
/cygdrive/d/Jenkins/workspace/build-system-3/source-packages/gcc-7.4.0-riscv-bsp-v5_1_0-branch/libgcc/soft-fp/floatsidf.c:41 (discriminator 21)
    573a:	1755                	c.addi	a4,-11
    573c:	00e516b3          	sll	a3,a0,a4
    5740:	4c06a6db          	bfoz	a3,a3,19,0
    5744:	00000713          	li	a4,0
/cygdrive/d/Jenkins/workspace/build-system-3/source-packages/gcc-7.4.0-riscv-bsp-v5_1_0-branch/libgcc/soft-fp/floatsidf.c:42
    5748:	4581                	c.li	a1,0
    574a:	853a                	c.mv	a0,a4
    574c:	fff00737          	lui	a4,0xfff00
    5750:	8f6d                	c.and	a4,a1
    5752:	4c06a6db          	bfoz	a3,a3,19,0
    5756:	8ed9                	c.or	a3,a4
    5758:	01479713          	slli	a4,a5,0x14
    575c:	801007b7          	lui	a5,0x80100
    5760:	17fd                	c.addi	a5,-1
    5762:	8ff5                	c.and	a5,a3
    5764:	8fd9                	c.or	a5,a4
    5766:	7807a7db          	bfoz	a5,a5,30,0
    576a:	01f61713          	slli	a4,a2,0x1f
    576e:	00e7e5b3          	or	a1,a5,a4
/cygdrive/d/Jenkins/workspace/build-system-3/source-packages/gcc-7.4.0-riscv-bsp-v5_1_0-branch/libgcc/soft-fp/floatsidf.c:45
    5772:	8082                	c.jr	ra
/cygdrive/d/Jenkins/workspace/build-system-3/source-packages/gcc-7.4.0-riscv-bsp-v5_1_0-branch/libgcc/soft-fp/floatsidf.c:41 (discriminator 20)
    5774:	46ad                	c.li	a3,11
    5776:	8e99                	c.sub	a3,a4
    5778:	00d556b3          	srl	a3,a0,a3
    577c:	0755                	c.addi	a4,21
    577e:	00e51733          	sll	a4,a0,a4
    5782:	4c06a6db          	bfoz	a3,a3,19,0
    5786:	b7c9                	c.j	5748 <__floatsidf+0x30>
    5788:	4601                	c.li	a2,0
    578a:	4781                	c.li	a5,0
    578c:	4681                	c.li	a3,0
/cygdrive/d/Jenkins/workspace/build-system-3/source-packages/gcc-7.4.0-riscv-bsp-v5_1_0-branch/libgcc/soft-fp/floatsidf.c:41
    578e:	4701                	c.li	a4,0
    5790:	bf65                	c.j	5748 <__floatsidf+0x30>
	...

00005794 <__extendsfdf2>:
__extendsfdf2():
/cygdrive/d/Jenkins/workspace/build-system-3/source-packages/gcc-7.4.0-riscv-bsp-v5_1_0-branch/libgcc/soft-fp/extendsfdf2.c:38
    5794:	e0050753          	fmv.x.w	a4,fa0
/cygdrive/d/Jenkins/workspace/build-system-3/source-packages/gcc-7.4.0-riscv-bsp-v5_1_0-branch/libgcc/soft-fp/extendsfdf2.c:44
    5798:	002027f3          	frrm	a5
    579c:	797727db          	bfoz	a5,a4,30,23
/cygdrive/d/Jenkins/workspace/build-system-3/source-packages/gcc-7.4.0-riscv-bsp-v5_1_0-branch/libgcc/soft-fp/extendsfdf2.c:47
    57a0:	00178593          	addi	a1,a5,1 # 80100001 <_DATA_LMA_START+0x600f9429>
    57a4:	0ff5f593          	andi	a1,a1,255
    57a8:	4505                	c.li	a0,1
/cygdrive/d/Jenkins/workspace/build-system-3/source-packages/gcc-7.4.0-riscv-bsp-v5_1_0-branch/libgcc/soft-fp/extendsfdf2.c:45
    57aa:	580726db          	bfoz	a3,a4,22,0
    57ae:	01f75613          	srli	a2,a4,0x1f
/cygdrive/d/Jenkins/workspace/build-system-3/source-packages/gcc-7.4.0-riscv-bsp-v5_1_0-branch/libgcc/soft-fp/extendsfdf2.c:47
    57b2:	02b55d63          	bge	a0,a1,57ec <__extendsfdf2+0x58>
/cygdrive/d/Jenkins/workspace/build-system-3/source-packages/gcc-7.4.0-riscv-bsp-v5_1_0-branch/libgcc/soft-fp/extendsfdf2.c:47 (discriminator 1)
    57b6:	0036d713          	srli	a4,a3,0x3
    57ba:	38078793          	addi	a5,a5,896
    57be:	06f6                	c.slli	a3,0x1d
/cygdrive/d/Jenkins/workspace/build-system-3/source-packages/gcc-7.4.0-riscv-bsp-v5_1_0-branch/libgcc/soft-fp/extendsfdf2.c:51
    57c0:	4581                	c.li	a1,0
    57c2:	8536                	c.mv	a0,a3
    57c4:	fff006b7          	lui	a3,0xfff00
    57c8:	8eed                	c.and	a3,a1
    57ca:	4c07275b          	bfoz	a4,a4,19,0
    57ce:	8ed9                	c.or	a3,a4
    57d0:	51e7a75b          	bfoz	a4,a5,20,30
    57d4:	801007b7          	lui	a5,0x80100
    57d8:	17fd                	c.addi	a5,-1
    57da:	8ff5                	c.and	a5,a3
    57dc:	8fd9                	c.or	a5,a4
    57de:	7807a7db          	bfoz	a5,a5,30,0
    57e2:	01f61713          	slli	a4,a2,0x1f
    57e6:	00e7e5b3          	or	a1,a5,a4
    57ea:	8082                	c.jr	ra
/cygdrive/d/Jenkins/workspace/build-system-3/source-packages/gcc-7.4.0-riscv-bsp-v5_1_0-branch/libgcc/soft-fp/extendsfdf2.c:47 (discriminator 2)
    57ec:	e785                	c.bnez	a5,5814 <__extendsfdf2+0x80>
/cygdrive/d/Jenkins/workspace/build-system-3/source-packages/gcc-7.4.0-riscv-bsp-v5_1_0-branch/libgcc/soft-fp/extendsfdf2.c:47 (discriminator 11)
    57ee:	cabd                	c.beqz	a3,5864 <__extendsfdf2+0xd0>
/cygdrive/d/Jenkins/workspace/build-system-3/source-packages/gcc-7.4.0-riscv-bsp-v5_1_0-branch/libgcc/soft-fp/extendsfdf2.c:47 (discriminator 15)
    57f0:	af9685ff          	clz32	a1,a3
    57f4:	47a9                	c.li	a5,10
    57f6:	06b7db63          	bge	a5,a1,586c <__extendsfdf2+0xd8>
/cygdrive/d/Jenkins/workspace/build-system-3/source-packages/gcc-7.4.0-riscv-bsp-v5_1_0-branch/libgcc/soft-fp/extendsfdf2.c:47 (discriminator 29)
    57fa:	ff558713          	addi	a4,a1,-11 # 7ff7fff5 <_DATA_LMA_START+0x5ff7941d>
    57fe:	00e69733          	sll	a4,a3,a4
    5802:	4681                	c.li	a3,0
/cygdrive/d/Jenkins/workspace/build-system-3/source-packages/gcc-7.4.0-riscv-bsp-v5_1_0-branch/libgcc/soft-fp/extendsfdf2.c:47 (discriminator 37)
    5804:	38900793          	li	a5,905
    5808:	8f8d                	c.sub	a5,a1
    580a:	4c07275b          	bfoz	a4,a4,19,0
    580e:	7ff7f793          	andi	a5,a5,2047
    5812:	b77d                	c.j	57c0 <__extendsfdf2+0x2c>
/cygdrive/d/Jenkins/workspace/build-system-3/source-packages/gcc-7.4.0-riscv-bsp-v5_1_0-branch/libgcc/soft-fp/extendsfdf2.c:47 (discriminator 8)
    5814:	c6a1                	c.beqz	a3,585c <__extendsfdf2+0xc8>
    5816:	00080737          	lui	a4,0x80
    581a:	0036d793          	srli	a5,a3,0x3
    581e:	00100837          	lui	a6,0x100
    5822:	8fd9                	c.or	a5,a4
    5824:	187d                	c.addi	a6,-1
    5826:	01d69713          	slli	a4,a3,0x1d
    582a:	0107f7b3          	and	a5,a5,a6
/cygdrive/d/Jenkins/workspace/build-system-3/source-packages/gcc-7.4.0-riscv-bsp-v5_1_0-branch/libgcc/soft-fp/extendsfdf2.c:47 (discriminator 38)
    582e:	4566f95b          	bbs	a3,22,5880 <__extendsfdf2+0xec>
/cygdrive/d/Jenkins/workspace/build-system-3/source-packages/gcc-7.4.0-riscv-bsp-v5_1_0-branch/libgcc/soft-fp/extendsfdf2.c:51
    5832:	4581                	c.li	a1,0
    5834:	853a                	c.mv	a0,a4
    5836:	fff00737          	lui	a4,0xfff00
    583a:	8f6d                	c.and	a4,a1
    583c:	0107f7b3          	and	a5,a5,a6
    5840:	8fd9                	c.or	a5,a4
    5842:	7ff006b7          	lui	a3,0x7ff00
    5846:	8edd                	c.or	a3,a5
    5848:	01f61713          	slli	a4,a2,0x1f
    584c:	7806a6db          	bfoz	a3,a3,30,0
    5850:	00e6e5b3          	or	a1,a3,a4
/cygdrive/d/Jenkins/workspace/build-system-3/source-packages/gcc-7.4.0-riscv-bsp-v5_1_0-branch/libgcc/soft-fp/extendsfdf2.c:52
    5854:	00186073          	csrsi	fflags,16
    5858:	00008067          	ret
    585c:	7ff00793          	li	a5,2047
    5860:	4701                	c.li	a4,0
    5862:	bfb9                	c.j	57c0 <__extendsfdf2+0x2c>
    5864:	4781                	c.li	a5,0
    5866:	4701                	c.li	a4,0
    5868:	f59ff06f          	j	57c0 <__extendsfdf2+0x2c>
/cygdrive/d/Jenkins/workspace/build-system-3/source-packages/gcc-7.4.0-riscv-bsp-v5_1_0-branch/libgcc/soft-fp/extendsfdf2.c:47 (discriminator 28)
    586c:	472d                	c.li	a4,11
    586e:	8f0d                	c.sub	a4,a1
    5870:	01558793          	addi	a5,a1,21
    5874:	00e6d733          	srl	a4,a3,a4
    5878:	00f696b3          	sll	a3,a3,a5
    587c:	f89ff06f          	j	5804 <__extendsfdf2+0x70>
/cygdrive/d/Jenkins/workspace/build-system-3/source-packages/gcc-7.4.0-riscv-bsp-v5_1_0-branch/libgcc/soft-fp/extendsfdf2.c:51
    5880:	4581                	c.li	a1,0
    5882:	853a                	c.mv	a0,a4
    5884:	fff00737          	lui	a4,0xfff00
    5888:	8f6d                	c.and	a4,a1
    588a:	0107f7b3          	and	a5,a5,a6
    588e:	8fd9                	c.or	a5,a4
    5890:	7ff006b7          	lui	a3,0x7ff00
    5894:	8edd                	c.or	a3,a5
    5896:	01f61713          	slli	a4,a2,0x1f
    589a:	7806a6db          	bfoz	a3,a3,30,0
    589e:	00e6e5b3          	or	a1,a3,a4
/cygdrive/d/Jenkins/workspace/build-system-3/source-packages/gcc-7.4.0-riscv-bsp-v5_1_0-branch/libgcc/soft-fp/extendsfdf2.c:55
    58a2:	8082                	c.jr	ra

000058a4 <__truncdfsf2>:
__truncdfsf2():
/cygdrive/d/Jenkins/workspace/build-system-3/source-packages/gcc-7.4.0-riscv-bsp-v5_1_0-branch/libgcc/soft-fp/truncdfsf2.c:43
    58a4:	00202873          	frrm	a6
/cygdrive/d/Jenkins/workspace/build-system-3/source-packages/gcc-7.4.0-riscv-bsp-v5_1_0-branch/libgcc/soft-fp/truncdfsf2.c:44
    58a8:	7945a65b          	bfoz	a2,a1,30,20
/cygdrive/d/Jenkins/workspace/build-system-3/source-packages/gcc-7.4.0-riscv-bsp-v5_1_0-branch/libgcc/soft-fp/truncdfsf2.c:46
    58ac:	00160693          	addi	a3,a2,1 # fff00001 <_DATA_LMA_START+0xdfef9429>
/cygdrive/d/Jenkins/workspace/build-system-3/source-packages/gcc-7.4.0-riscv-bsp-v5_1_0-branch/libgcc/soft-fp/truncdfsf2.c:44
    58b0:	0d65a8db          	bfoz	a7,a1,3,22
    58b4:	01d55713          	srli	a4,a0,0x1d
/cygdrive/d/Jenkins/workspace/build-system-3/source-packages/gcc-7.4.0-riscv-bsp-v5_1_0-branch/libgcc/soft-fp/truncdfsf2.c:46
    58b8:	7ff6f693          	andi	a3,a3,2047
    58bc:	4785                	c.li	a5,1
/cygdrive/d/Jenkins/workspace/build-system-3/source-packages/gcc-7.4.0-riscv-bsp-v5_1_0-branch/libgcc/soft-fp/truncdfsf2.c:44
    58be:	01176733          	or	a4,a4,a7
    58c2:	81fd                	c.srli	a1,0x1f
    58c4:	00351893          	slli	a7,a0,0x3
/cygdrive/d/Jenkins/workspace/build-system-3/source-packages/gcc-7.4.0-riscv-bsp-v5_1_0-branch/libgcc/soft-fp/truncdfsf2.c:46
    58c8:	0cd7da63          	bge	a5,a3,599c <__truncdfsf2+0xf8>
/cygdrive/d/Jenkins/workspace/build-system-3/source-packages/gcc-7.4.0-riscv-bsp-v5_1_0-branch/libgcc/soft-fp/truncdfsf2.c:46 (discriminator 1)
    58cc:	c8060693          	addi	a3,a2,-896
    58d0:	0fe00793          	li	a5,254
    58d4:	06d7c863          	blt	a5,a3,5944 <__truncdfsf2+0xa0>
/cygdrive/d/Jenkins/workspace/build-system-3/source-packages/gcc-7.4.0-riscv-bsp-v5_1_0-branch/libgcc/soft-fp/truncdfsf2.c:46 (discriminator 4)
    58d8:	10d05e63          	blez	a3,59f4 <__truncdfsf2+0x150>
/cygdrive/d/Jenkins/workspace/build-system-3/source-packages/gcc-7.4.0-riscv-bsp-v5_1_0-branch/libgcc/soft-fp/truncdfsf2.c:46 (discriminator 18)
    58dc:	051a                	c.slli	a0,0x6
    58de:	00a03533          	snez	a0,a0
    58e2:	070e                	c.slli	a4,0x3
    58e4:	8f49                	c.or	a4,a0
    58e6:	01d8d893          	srli	a7,a7,0x1d
    58ea:	01176733          	or	a4,a4,a7
    58ee:	00777613          	andi	a2,a4,7
    58f2:	4781                	c.li	a5,0
/cygdrive/d/Jenkins/workspace/build-system-3/source-packages/gcc-7.4.0-riscv-bsp-v5_1_0-branch/libgcc/soft-fp/truncdfsf2.c:38 (discriminator 18)
    58f4:	4501                	c.li	a0,0
/cygdrive/d/Jenkins/workspace/build-system-3/source-packages/gcc-7.4.0-riscv-bsp-v5_1_0-branch/libgcc/soft-fp/truncdfsf2.c:50 (discriminator 18)
    58f6:	ca49                	c.beqz	a2,5988 <__truncdfsf2+0xe4>
/cygdrive/d/Jenkins/workspace/build-system-3/source-packages/gcc-7.4.0-riscv-bsp-v5_1_0-branch/libgcc/soft-fp/truncdfsf2.c:50 (discriminator 29)
    58f8:	1628505b          	beqc	a6,2,5a58 <__truncdfsf2+0x1b4>
    58fc:	0838525b          	beqc	a6,3,5980 <__truncdfsf2+0xdc>
    5900:	14080463          	beqz	a6,5a48 <__truncdfsf2+0x1a4>
    5904:	04000637          	lui	a2,0x4000
    5908:	00e67633          	and	a2,a2,a4
/cygdrive/d/Jenkins/workspace/build-system-3/source-packages/gcc-7.4.0-riscv-bsp-v5_1_0-branch/libgcc/soft-fp/truncdfsf2.c:50
    590c:	28078863          	beqz	a5,5b9c <__truncdfsf2+0x2f8>
/cygdrive/d/Jenkins/workspace/build-system-3/source-packages/gcc-7.4.0-riscv-bsp-v5_1_0-branch/libgcc/soft-fp/truncdfsf2.c:50 (discriminator 44)
    5910:	0027e513          	ori	a0,a5,2
/cygdrive/d/Jenkins/workspace/build-system-3/source-packages/gcc-7.4.0-riscv-bsp-v5_1_0-branch/libgcc/soft-fp/truncdfsf2.c:50
    5914:	26060663          	beqz	a2,5b80 <__truncdfsf2+0x2dc>
/cygdrive/d/Jenkins/workspace/build-system-3/source-packages/gcc-7.4.0-riscv-bsp-v5_1_0-branch/libgcc/soft-fp/truncdfsf2.c:50 (discriminator 47)
    5918:	00168693          	addi	a3,a3,1 # 7ff00001 <_DATA_LMA_START+0x5fef9429>
    591c:	0ff00613          	li	a2,255
    5920:	6437275b          	bfoz	a4,a4,25,3
    5924:	0ff6f793          	andi	a5,a3,255
    5928:	0ac68a63          	beq	a3,a2,59dc <__truncdfsf2+0x138>
/cygdrive/d/Jenkins/workspace/build-system-3/source-packages/gcc-7.4.0-riscv-bsp-v5_1_0-branch/libgcc/soft-fp/truncdfsf2.c:50 (discriminator 74)
    592c:	07de                	c.slli	a5,0x17
    592e:	5807275b          	bfoz	a4,a4,22,0
    5932:	05fe                	c.slli	a1,0x1f
    5934:	8fd9                	c.or	a5,a4
    5936:	8fcd                	c.or	a5,a1
/cygdrive/d/Jenkins/workspace/build-system-3/source-packages/gcc-7.4.0-riscv-bsp-v5_1_0-branch/libgcc/soft-fp/truncdfsf2.c:51 (discriminator 74)
    5938:	02051e63          	bnez	a0,5974 <__truncdfsf2+0xd0>
/cygdrive/d/Jenkins/workspace/build-system-3/source-packages/gcc-7.4.0-riscv-bsp-v5_1_0-branch/libgcc/soft-fp/truncdfsf2.c:54
    593c:	f0078553          	fmv.w.x	fa0,a5
    5940:	00008067          	ret
/cygdrive/d/Jenkins/workspace/build-system-3/source-packages/gcc-7.4.0-riscv-bsp-v5_1_0-branch/libgcc/soft-fp/truncdfsf2.c:46 (discriminator 3)
    5944:	16080c63          	beqz	a6,5abc <__truncdfsf2+0x218>
/cygdrive/d/Jenkins/workspace/build-system-3/source-packages/gcc-7.4.0-riscv-bsp-v5_1_0-branch/libgcc/soft-fp/truncdfsf2.c:46 (discriminator 6)
    5948:	1638545b          	beqc	a6,3,5ab0 <__truncdfsf2+0x20c>
/cygdrive/d/Jenkins/workspace/build-system-3/source-packages/gcc-7.4.0-riscv-bsp-v5_1_0-branch/libgcc/soft-fp/truncdfsf2.c:46 (discriminator 10)
    594c:	1e285a5b          	beqc	a6,2,5b40 <__truncdfsf2+0x29c>
/cygdrive/d/Jenkins/workspace/build-system-3/source-packages/gcc-7.4.0-riscv-bsp-v5_1_0-branch/libgcc/soft-fp/truncdfsf2.c:50
    5950:	00500513          	li	a0,5
    5954:	16080a63          	beqz	a6,5ac8 <__truncdfsf2+0x224>
/cygdrive/d/Jenkins/workspace/build-system-3/source-packages/gcc-7.4.0-riscv-bsp-v5_1_0-branch/libgcc/soft-fp/truncdfsf2.c:50 (discriminator 52)
    5958:	1e385a5b          	beqc	a6,3,5b4c <__truncdfsf2+0x2a8>
/cygdrive/d/Jenkins/workspace/build-system-3/source-packages/gcc-7.4.0-riscv-bsp-v5_1_0-branch/libgcc/soft-fp/truncdfsf2.c:50 (discriminator 56)
    595c:	1a285e5b          	beqc	a6,2,5b18 <__truncdfsf2+0x274>
/cygdrive/d/Jenkins/workspace/build-system-3/source-packages/gcc-7.4.0-riscv-bsp-v5_1_0-branch/libgcc/soft-fp/truncdfsf2.c:50
    5960:	00800737          	lui	a4,0x800
    5964:	7f0007b7          	lui	a5,0x7f000
    5968:	177d                	c.addi	a4,-1
    596a:	8f5d                	c.or	a4,a5
    596c:	05fe                	c.slli	a1,0x1f
    596e:	780727db          	bfoz	a5,a4,30,0
    5972:	8fcd                	c.or	a5,a1
/cygdrive/d/Jenkins/workspace/build-system-3/source-packages/gcc-7.4.0-riscv-bsp-v5_1_0-branch/libgcc/soft-fp/truncdfsf2.c:51 (discriminator 1)
    5974:	00152073          	csrs	fflags,a0
/cygdrive/d/Jenkins/workspace/build-system-3/source-packages/gcc-7.4.0-riscv-bsp-v5_1_0-branch/libgcc/soft-fp/truncdfsf2.c:54
    5978:	f0078553          	fmv.w.x	fa0,a5
    597c:	00008067          	ret
    5980:	4505                	c.li	a0,1
/cygdrive/d/Jenkins/workspace/build-system-3/source-packages/gcc-7.4.0-riscv-bsp-v5_1_0-branch/libgcc/soft-fp/truncdfsf2.c:50 (discriminator 35)
    5982:	e199                	c.bnez	a1,5988 <__truncdfsf2+0xe4>
/cygdrive/d/Jenkins/workspace/build-system-3/source-packages/gcc-7.4.0-riscv-bsp-v5_1_0-branch/libgcc/soft-fp/truncdfsf2.c:50 (discriminator 41)
    5984:	00870713          	addi	a4,a4,8 # 800008 <FLASH_SIZE+0x700008>
    5988:	04000637          	lui	a2,0x4000
    598c:	8e79                	c.and	a2,a4
/cygdrive/d/Jenkins/workspace/build-system-3/source-packages/gcc-7.4.0-riscv-bsp-v5_1_0-branch/libgcc/soft-fp/truncdfsf2.c:50 (discriminator 37)
    598e:	d3d9                	c.beqz	a5,5914 <__truncdfsf2+0x70>
/cygdrive/d/Jenkins/workspace/build-system-3/source-packages/gcc-7.4.0-riscv-bsp-v5_1_0-branch/libgcc/soft-fp/truncdfsf2.c:50 (discriminator 42)
    5990:	b805725b          	bbc	a0,0,5914 <__truncdfsf2+0x70>
    5994:	87aa                	c.mv	a5,a0
/cygdrive/d/Jenkins/workspace/build-system-3/source-packages/gcc-7.4.0-riscv-bsp-v5_1_0-branch/libgcc/soft-fp/truncdfsf2.c:50
    5996:	0027e513          	ori	a0,a5,2
    599a:	bfad                	c.j	5914 <__truncdfsf2+0x70>
    599c:	011768b3          	or	a7,a4,a7
/cygdrive/d/Jenkins/workspace/build-system-3/source-packages/gcc-7.4.0-riscv-bsp-v5_1_0-branch/libgcc/soft-fp/truncdfsf2.c:46 (discriminator 2)
    59a0:	e615                	c.bnez	a2,59cc <__truncdfsf2+0x128>
/cygdrive/d/Jenkins/workspace/build-system-3/source-packages/gcc-7.4.0-riscv-bsp-v5_1_0-branch/libgcc/soft-fp/truncdfsf2.c:50 (discriminator 42)
    59a2:	01f59793          	slli	a5,a1,0x1f
/cygdrive/d/Jenkins/workspace/build-system-3/source-packages/gcc-7.4.0-riscv-bsp-v5_1_0-branch/libgcc/soft-fp/truncdfsf2.c:46 (discriminator 42)
    59a6:	f8088be3          	beqz	a7,593c <__truncdfsf2+0x98>
/cygdrive/d/Jenkins/workspace/build-system-3/source-packages/gcc-7.4.0-riscv-bsp-v5_1_0-branch/libgcc/soft-fp/truncdfsf2.c:50
    59aa:	1828535b          	beqc	a6,2,5b30 <__truncdfsf2+0x28c>
    59ae:	1238555b          	beqc	a6,3,5ad8 <__truncdfsf2+0x234>
/cygdrive/d/Jenkins/workspace/build-system-3/source-packages/gcc-7.4.0-riscv-bsp-v5_1_0-branch/libgcc/soft-fp/truncdfsf2.c:46
    59b2:	4705                	c.li	a4,1
/cygdrive/d/Jenkins/workspace/build-system-3/source-packages/gcc-7.4.0-riscv-bsp-v5_1_0-branch/libgcc/soft-fp/truncdfsf2.c:50
    59b4:	4789                	c.li	a5,2
    59b6:	4605                	c.li	a2,1
    59b8:	1a080463          	beqz	a6,5b60 <__truncdfsf2+0x2bc>
    59bc:	83ed                	c.srli	a5,0x1b
    59be:	0017c793          	xori	a5,a5,1
    59c2:	8b85                	c.andi	a5,1
/cygdrive/d/Jenkins/workspace/build-system-3/source-packages/gcc-7.4.0-riscv-bsp-v5_1_0-branch/libgcc/soft-fp/truncdfsf2.c:50 (discriminator 25)
    59c4:	4505                	c.li	a0,1
    59c6:	4681                	c.li	a3,0
/cygdrive/d/Jenkins/workspace/build-system-3/source-packages/gcc-7.4.0-riscv-bsp-v5_1_0-branch/libgcc/soft-fp/truncdfsf2.c:50
    59c8:	fa05                	c.bnez	a2,58f8 <__truncdfsf2+0x54>
    59ca:	bf7d                	c.j	5988 <__truncdfsf2+0xe4>
/cygdrive/d/Jenkins/workspace/build-system-3/source-packages/gcc-7.4.0-riscv-bsp-v5_1_0-branch/libgcc/soft-fp/truncdfsf2.c:46 (discriminator 39)
    59cc:	08089a63          	bnez	a7,5a60 <__truncdfsf2+0x1bc>
/cygdrive/d/Jenkins/workspace/build-system-3/source-packages/gcc-7.4.0-riscv-bsp-v5_1_0-branch/libgcc/soft-fp/truncdfsf2.c:50
    59d0:	05fe                	c.slli	a1,0x1f
    59d2:	7f8007b7          	lui	a5,0x7f800
    59d6:	8fcd                	c.or	a5,a1
    59d8:	f65ff06f          	j	593c <__truncdfsf2+0x98>
    59dc:	00556513          	ori	a0,a0,5
/cygdrive/d/Jenkins/workspace/build-system-3/source-packages/gcc-7.4.0-riscv-bsp-v5_1_0-branch/libgcc/soft-fp/truncdfsf2.c:50 (discriminator 49)
    59e0:	f6081ce3          	bnez	a6,5958 <__truncdfsf2+0xb4>
/cygdrive/d/Jenkins/workspace/build-system-3/source-packages/gcc-7.4.0-riscv-bsp-v5_1_0-branch/libgcc/soft-fp/truncdfsf2.c:50
    59e4:	05fe                	c.slli	a1,0x1f
    59e6:	7f8007b7          	lui	a5,0x7f800
    59ea:	8fcd                	c.or	a5,a1
/cygdrive/d/Jenkins/workspace/build-system-3/source-packages/gcc-7.4.0-riscv-bsp-v5_1_0-branch/libgcc/soft-fp/truncdfsf2.c:51
    59ec:	00152073          	csrs	fflags,a0
    59f0:	f89ff06f          	j	5978 <__truncdfsf2+0xd4>
/cygdrive/d/Jenkins/workspace/build-system-3/source-packages/gcc-7.4.0-riscv-bsp-v5_1_0-branch/libgcc/soft-fp/truncdfsf2.c:46 (discriminator 17)
    59f4:	57a5                	c.li	a5,-23
    59f6:	0af6c363          	blt	a3,a5,5a9c <__truncdfsf2+0x1f8>
/cygdrive/d/Jenkins/workspace/build-system-3/source-packages/gcc-7.4.0-riscv-bsp-v5_1_0-branch/libgcc/soft-fp/truncdfsf2.c:46 (discriminator 20)
    59fa:	4579                	c.li	a0,30
    59fc:	008007b7          	lui	a5,0x800
    5a00:	8d15                	c.sub	a0,a3
    5a02:	437d                	c.li	t1,31
    5a04:	8fd9                	c.or	a5,a4
    5a06:	0ea34163          	blt	t1,a0,5ae8 <__truncdfsf2+0x244>
/cygdrive/d/Jenkins/workspace/build-system-3/source-packages/gcc-7.4.0-riscv-bsp-v5_1_0-branch/libgcc/soft-fp/truncdfsf2.c:46 (discriminator 22)
    5a0a:	c8260613          	addi	a2,a2,-894 # 3fffc82 <FLASH_SIZE+0x3effc82>
    5a0e:	00c89733          	sll	a4,a7,a2
    5a12:	00e03733          	snez	a4,a4
    5a16:	00c797b3          	sll	a5,a5,a2
    5a1a:	00a8d8b3          	srl	a7,a7,a0
    5a1e:	8f5d                	c.or	a4,a5
    5a20:	00e8e733          	or	a4,a7,a4
/cygdrive/d/Jenkins/workspace/build-system-3/source-packages/gcc-7.4.0-riscv-bsp-v5_1_0-branch/libgcc/soft-fp/truncdfsf2.c:50 (discriminator 1)
    5a24:	01f59793          	slli	a5,a1,0x1f
    5a28:	db11                	c.beqz	a4,593c <__truncdfsf2+0x98>
/cygdrive/d/Jenkins/workspace/build-system-3/source-packages/gcc-7.4.0-riscv-bsp-v5_1_0-branch/libgcc/soft-fp/truncdfsf2.c:50
    5a2a:	00171793          	slli	a5,a4,0x1
    5a2e:	0077f693          	andi	a3,a5,7
    5a32:	00777613          	andi	a2,a4,7
    5a36:	14069763          	bnez	a3,5b84 <__truncdfsf2+0x2e0>
    5a3a:	83ed                	c.srli	a5,0x1b
    5a3c:	0017c793          	xori	a5,a5,1
    5a40:	8b85                	c.andi	a5,1
    5a42:	4501                	c.li	a0,0
    5a44:	4681                	c.li	a3,0
    5a46:	b749                	c.j	59c8 <__truncdfsf2+0x124>
    5a48:	00f77613          	andi	a2,a4,15
    5a4c:	aa465c5b          	beqc	a2,4,5904 <__truncdfsf2+0x60>
    5a50:	00100513          	li	a0,1
/cygdrive/d/Jenkins/workspace/build-system-3/source-packages/gcc-7.4.0-riscv-bsp-v5_1_0-branch/libgcc/soft-fp/truncdfsf2.c:50 (discriminator 36)
    5a54:	0711                	c.addi	a4,4
    5a56:	bf0d                	c.j	5988 <__truncdfsf2+0xe4>
    5a58:	4505                	c.li	a0,1
/cygdrive/d/Jenkins/workspace/build-system-3/source-packages/gcc-7.4.0-riscv-bsp-v5_1_0-branch/libgcc/soft-fp/truncdfsf2.c:50 (discriminator 34)
    5a5a:	d59d                	c.beqz	a1,5988 <__truncdfsf2+0xe4>
/cygdrive/d/Jenkins/workspace/build-system-3/source-packages/gcc-7.4.0-riscv-bsp-v5_1_0-branch/libgcc/soft-fp/truncdfsf2.c:50
    5a5c:	0721                	c.addi	a4,8
    5a5e:	b72d                	c.j	5988 <__truncdfsf2+0xe4>
/cygdrive/d/Jenkins/workspace/build-system-3/source-packages/gcc-7.4.0-riscv-bsp-v5_1_0-branch/libgcc/soft-fp/truncdfsf2.c:46 (discriminator 48)
    5a60:	7ff00793          	li	a5,2047
/cygdrive/d/Jenkins/workspace/build-system-3/source-packages/gcc-7.4.0-riscv-bsp-v5_1_0-branch/libgcc/soft-fp/truncdfsf2.c:38 (discriminator 48)
    5a64:	4501                	c.li	a0,0
/cygdrive/d/Jenkins/workspace/build-system-3/source-packages/gcc-7.4.0-riscv-bsp-v5_1_0-branch/libgcc/soft-fp/truncdfsf2.c:46 (discriminator 48)
    5a66:	00f61963          	bne	a2,a5,5a78 <__truncdfsf2+0x1d4>
/cygdrive/d/Jenkins/workspace/build-system-3/source-packages/gcc-7.4.0-riscv-bsp-v5_1_0-branch/libgcc/soft-fp/truncdfsf2.c:46 (discriminator 51)
    5a6a:	00400537          	lui	a0,0x400
    5a6e:	8d79                	c.and	a0,a4
/cygdrive/d/Jenkins/workspace/build-system-3/source-packages/gcc-7.4.0-riscv-bsp-v5_1_0-branch/libgcc/soft-fp/truncdfsf2.c:38 (discriminator 51)
    5a70:	00153513          	seqz	a0,a0
    5a74:	00451513          	slli	a0,a0,0x4
/cygdrive/d/Jenkins/workspace/build-system-3/source-packages/gcc-7.4.0-riscv-bsp-v5_1_0-branch/libgcc/soft-fp/truncdfsf2.c:46 (discriminator 55)
    5a78:	070e                	c.slli	a4,0x3
    5a7a:	020007b7          	lui	a5,0x2000
    5a7e:	8f5d                	c.or	a4,a5
    5a80:	0ff00693          	li	a3,255
/cygdrive/d/Jenkins/workspace/build-system-3/source-packages/gcc-7.4.0-riscv-bsp-v5_1_0-branch/libgcc/soft-fp/truncdfsf2.c:50
    5a84:	0ff00793          	li	a5,255
    5a88:	00375713          	srli	a4,a4,0x3
    5a8c:	08f68a63          	beq	a3,a5,5b20 <__truncdfsf2+0x27c>
    5a90:	5807275b          	bfoz	a4,a4,22,0
    5a94:	0ff6f793          	andi	a5,a3,255
    5a98:	e95ff06f          	j	592c <__truncdfsf2+0x88>
    5a9c:	08285a5b          	beqc	a6,2,5b30 <__truncdfsf2+0x28c>
    5aa0:	02385c5b          	beqc	a6,3,5ad8 <__truncdfsf2+0x234>
    5aa4:	0a080863          	beqz	a6,5b54 <__truncdfsf2+0x2b0>
/cygdrive/d/Jenkins/workspace/build-system-3/source-packages/gcc-7.4.0-riscv-bsp-v5_1_0-branch/libgcc/soft-fp/truncdfsf2.c:46
    5aa8:	4705                	c.li	a4,1
/cygdrive/d/Jenkins/workspace/build-system-3/source-packages/gcc-7.4.0-riscv-bsp-v5_1_0-branch/libgcc/soft-fp/truncdfsf2.c:50
    5aaa:	4681                	c.li	a3,0
    5aac:	4785                	c.li	a5,1
    5aae:	b5a9                	c.j	58f8 <__truncdfsf2+0x54>
/cygdrive/d/Jenkins/workspace/build-system-3/source-packages/gcc-7.4.0-riscv-bsp-v5_1_0-branch/libgcc/soft-fp/truncdfsf2.c:46 (discriminator 7)
    5ab0:	edb1                	c.bnez	a1,5b0c <__truncdfsf2+0x268>
/cygdrive/d/Jenkins/workspace/build-system-3/source-packages/gcc-7.4.0-riscv-bsp-v5_1_0-branch/libgcc/soft-fp/truncdfsf2.c:50
    5ab2:	7f8007b7          	lui	a5,0x7f800
/cygdrive/d/Jenkins/workspace/build-system-3/source-packages/gcc-7.4.0-riscv-bsp-v5_1_0-branch/libgcc/soft-fp/truncdfsf2.c:46
    5ab6:	4515                	c.li	a0,5
    5ab8:	ebdff06f          	j	5974 <__truncdfsf2+0xd0>
/cygdrive/d/Jenkins/workspace/build-system-3/source-packages/gcc-7.4.0-riscv-bsp-v5_1_0-branch/libgcc/soft-fp/truncdfsf2.c:50
    5abc:	05fe                	c.slli	a1,0x1f
    5abe:	7f8007b7          	lui	a5,0x7f800
    5ac2:	8fcd                	c.or	a5,a1
/cygdrive/d/Jenkins/workspace/build-system-3/source-packages/gcc-7.4.0-riscv-bsp-v5_1_0-branch/libgcc/soft-fp/truncdfsf2.c:46
    5ac4:	4515                	c.li	a0,5
    5ac6:	b57d                	c.j	5974 <__truncdfsf2+0xd0>
/cygdrive/d/Jenkins/workspace/build-system-3/source-packages/gcc-7.4.0-riscv-bsp-v5_1_0-branch/libgcc/soft-fp/truncdfsf2.c:50
    5ac8:	577d                	c.li	a4,-1
    5aca:	4781                	c.li	a5,0
    5acc:	4515                	c.li	a0,5
    5ace:	0fe00693          	li	a3,254
    5ad2:	0711                	c.addi	a4,4
    5ad4:	eb5ff06f          	j	5988 <__truncdfsf2+0xe4>
    5ad8:	4605                	c.li	a2,1
/cygdrive/d/Jenkins/workspace/build-system-3/source-packages/gcc-7.4.0-riscv-bsp-v5_1_0-branch/libgcc/soft-fp/truncdfsf2.c:46
    5ada:	4705                	c.li	a4,1
/cygdrive/d/Jenkins/workspace/build-system-3/source-packages/gcc-7.4.0-riscv-bsp-v5_1_0-branch/libgcc/soft-fp/truncdfsf2.c:50
    5adc:	00200793          	li	a5,2
/cygdrive/d/Jenkins/workspace/build-system-3/source-packages/gcc-7.4.0-riscv-bsp-v5_1_0-branch/libgcc/soft-fp/truncdfsf2.c:50 (discriminator 19)
    5ae0:	ec059ee3          	bnez	a1,59bc <__truncdfsf2+0x118>
/cygdrive/d/Jenkins/workspace/build-system-3/source-packages/gcc-7.4.0-riscv-bsp-v5_1_0-branch/libgcc/soft-fp/truncdfsf2.c:50 (discriminator 25)
    5ae4:	07a1                	c.addi	a5,8
    5ae6:	bdd9                	c.j	59bc <__truncdfsf2+0x118>
/cygdrive/d/Jenkins/workspace/build-system-3/source-packages/gcc-7.4.0-riscv-bsp-v5_1_0-branch/libgcc/soft-fp/truncdfsf2.c:46 (discriminator 23)
    5ae8:	5779                	c.li	a4,-2
    5aea:	8f15                	c.sub	a4,a3
    5aec:	00e7d733          	srl	a4,a5,a4
    5af0:	000558db          	beqc	a0,32,5b00 <__truncdfsf2+0x25c>
/cygdrive/d/Jenkins/workspace/build-system-3/source-packages/gcc-7.4.0-riscv-bsp-v5_1_0-branch/libgcc/soft-fp/truncdfsf2.c:46 (discriminator 31)
    5af4:	ca260613          	addi	a2,a2,-862
    5af8:	00c797b3          	sll	a5,a5,a2
    5afc:	00f8e8b3          	or	a7,a7,a5
/cygdrive/d/Jenkins/workspace/build-system-3/source-packages/gcc-7.4.0-riscv-bsp-v5_1_0-branch/libgcc/soft-fp/truncdfsf2.c:46 (discriminator 34)
    5b00:	011038b3          	snez	a7,a7
    5b04:	00e8e733          	or	a4,a7,a4
    5b08:	f1dff06f          	j	5a24 <__truncdfsf2+0x180>
    5b0c:	577d                	c.li	a4,-1
    5b0e:	0fe00693          	li	a3,254
    5b12:	4515                	c.li	a0,5
    5b14:	e05ff06f          	j	5918 <__truncdfsf2+0x74>
/cygdrive/d/Jenkins/workspace/build-system-3/source-packages/gcc-7.4.0-riscv-bsp-v5_1_0-branch/libgcc/soft-fp/truncdfsf2.c:50 (discriminator 57)
    5b18:	e40584e3          	beqz	a1,5960 <__truncdfsf2+0xbc>
    5b1c:	4585                	c.li	a1,1
    5b1e:	b5d9                	c.j	59e4 <__truncdfsf2+0x140>
/cygdrive/d/Jenkins/workspace/build-system-3/source-packages/gcc-7.4.0-riscv-bsp-v5_1_0-branch/libgcc/soft-fp/truncdfsf2.c:50 (discriminator 64)
    5b20:	cf21                	c.beqz	a4,5b78 <__truncdfsf2+0x2d4>
/cygdrive/d/Jenkins/workspace/build-system-3/source-packages/gcc-7.4.0-riscv-bsp-v5_1_0-branch/libgcc/soft-fp/truncdfsf2.c:50
    5b22:	4581                	c.li	a1,0
    5b24:	0ff00793          	li	a5,255
    5b28:	00400737          	lui	a4,0x400
    5b2c:	e01ff06f          	j	592c <__truncdfsf2+0x88>
    5b30:	4605                	c.li	a2,1
/cygdrive/d/Jenkins/workspace/build-system-3/source-packages/gcc-7.4.0-riscv-bsp-v5_1_0-branch/libgcc/soft-fp/truncdfsf2.c:46
    5b32:	4705                	c.li	a4,1
/cygdrive/d/Jenkins/workspace/build-system-3/source-packages/gcc-7.4.0-riscv-bsp-v5_1_0-branch/libgcc/soft-fp/truncdfsf2.c:50
    5b34:	00200793          	li	a5,2
/cygdrive/d/Jenkins/workspace/build-system-3/source-packages/gcc-7.4.0-riscv-bsp-v5_1_0-branch/libgcc/soft-fp/truncdfsf2.c:50 (discriminator 18)
    5b38:	e80582e3          	beqz	a1,59bc <__truncdfsf2+0x118>
/cygdrive/d/Jenkins/workspace/build-system-3/source-packages/gcc-7.4.0-riscv-bsp-v5_1_0-branch/libgcc/soft-fp/truncdfsf2.c:50
    5b3c:	07a1                	c.addi	a5,8
    5b3e:	bdbd                	c.j	59bc <__truncdfsf2+0x118>
/cygdrive/d/Jenkins/workspace/build-system-3/source-packages/gcc-7.4.0-riscv-bsp-v5_1_0-branch/libgcc/soft-fp/truncdfsf2.c:46 (discriminator 11)
    5b40:	d5f1                	c.beqz	a1,5b0c <__truncdfsf2+0x268>
/cygdrive/d/Jenkins/workspace/build-system-3/source-packages/gcc-7.4.0-riscv-bsp-v5_1_0-branch/libgcc/soft-fp/truncdfsf2.c:50
    5b42:	ff8007b7          	lui	a5,0xff800
/cygdrive/d/Jenkins/workspace/build-system-3/source-packages/gcc-7.4.0-riscv-bsp-v5_1_0-branch/libgcc/soft-fp/truncdfsf2.c:46
    5b46:	4515                	c.li	a0,5
    5b48:	e2dff06f          	j	5974 <__truncdfsf2+0xd0>
/cygdrive/d/Jenkins/workspace/build-system-3/source-packages/gcc-7.4.0-riscv-bsp-v5_1_0-branch/libgcc/soft-fp/truncdfsf2.c:50 (discriminator 53)
    5b4c:	e8058ce3          	beqz	a1,59e4 <__truncdfsf2+0x140>
    5b50:	e11ff06f          	j	5960 <__truncdfsf2+0xbc>
/cygdrive/d/Jenkins/workspace/build-system-3/source-packages/gcc-7.4.0-riscv-bsp-v5_1_0-branch/libgcc/soft-fp/truncdfsf2.c:50
    5b54:	4785                	c.li	a5,1
    5b56:	4681                	c.li	a3,0
/cygdrive/d/Jenkins/workspace/build-system-3/source-packages/gcc-7.4.0-riscv-bsp-v5_1_0-branch/libgcc/soft-fp/truncdfsf2.c:46
    5b58:	4705                	c.li	a4,1
    5b5a:	4505                	c.li	a0,1
    5b5c:	ef9ff06f          	j	5a54 <__truncdfsf2+0x1b0>
    5b60:	4705                	c.li	a4,1
/cygdrive/d/Jenkins/workspace/build-system-3/source-packages/gcc-7.4.0-riscv-bsp-v5_1_0-branch/libgcc/soft-fp/truncdfsf2.c:50
    5b62:	4789                	c.li	a5,2
    5b64:	00100613          	li	a2,1
    5b68:	0791                	c.addi	a5,4
    5b6a:	83ed                	c.srli	a5,0x1b
    5b6c:	0017c793          	xori	a5,a5,1
    5b70:	8b85                	c.andi	a5,1
    5b72:	4505                	c.li	a0,1
    5b74:	4681                	c.li	a3,0
    5b76:	bd89                	c.j	59c8 <__truncdfsf2+0x124>
    5b78:	0ff00793          	li	a5,255
    5b7c:	4701                	c.li	a4,0
    5b7e:	b37d                	c.j	592c <__truncdfsf2+0x88>
    5b80:	830d                	c.srli	a4,0x3
    5b82:	b739                	c.j	5a90 <__truncdfsf2+0x1ec>
/cygdrive/d/Jenkins/workspace/build-system-3/source-packages/gcc-7.4.0-riscv-bsp-v5_1_0-branch/libgcc/soft-fp/truncdfsf2.c:50 (discriminator 13)
    5b84:	ba285a5b          	beqc	a6,2,5b38 <__truncdfsf2+0x294>
    5b88:	b4385c5b          	beqc	a6,3,5ae0 <__truncdfsf2+0x23c>
    5b8c:	e20818e3          	bnez	a6,59bc <__truncdfsf2+0x118>
/cygdrive/d/Jenkins/workspace/build-system-3/source-packages/gcc-7.4.0-riscv-bsp-v5_1_0-branch/libgcc/soft-fp/truncdfsf2.c:50 (discriminator 16)
    5b90:	00f7f693          	andi	a3,a5,15
    5b94:	a246d45b          	beqc	a3,4,59bc <__truncdfsf2+0x118>
    5b98:	fd1ff06f          	j	5b68 <__truncdfsf2+0x2c4>
    5b9c:	4505                	c.li	a0,1
/cygdrive/d/Jenkins/workspace/build-system-3/source-packages/gcc-7.4.0-riscv-bsp-v5_1_0-branch/libgcc/soft-fp/truncdfsf2.c:50 (discriminator 46)
    5b9e:	d6061de3          	bnez	a2,5918 <__truncdfsf2+0x74>
    5ba2:	b5cd                	c.j	5a84 <__truncdfsf2+0x1e0>

00005ba4 <__riscv_save_12>:
__riscv_save_12():
/cygdrive/d/Jenkins/workspace/build-system-3/source-packages/gcc-7.4.0-riscv-bsp-v5_1_0-branch/libgcc/config/riscv/save-restore.S:336
    5ba4:	7139                	c.addi16sp	sp,-64
/cygdrive/d/Jenkins/workspace/build-system-3/source-packages/gcc-7.4.0-riscv-bsp-v5_1_0-branch/libgcc/config/riscv/save-restore.S:338
    5ba6:	4301                	c.li	t1,0
/cygdrive/d/Jenkins/workspace/build-system-3/source-packages/gcc-7.4.0-riscv-bsp-v5_1_0-branch/libgcc/config/riscv/save-restore.S:339
    5ba8:	c66e                	c.swsp	s11,12(sp)
/cygdrive/d/Jenkins/workspace/build-system-3/source-packages/gcc-7.4.0-riscv-bsp-v5_1_0-branch/libgcc/config/riscv/save-restore.S:341
    5baa:	a019                	c.j	5bb0 <__riscv_save_10+0x4>

00005bac <__riscv_save_10>:
__riscv_save_8():
/cygdrive/d/Jenkins/workspace/build-system-3/source-packages/gcc-7.4.0-riscv-bsp-v5_1_0-branch/libgcc/config/riscv/save-restore.S:348
    5bac:	7139                	c.addi16sp	sp,-64
/cygdrive/d/Jenkins/workspace/build-system-3/source-packages/gcc-7.4.0-riscv-bsp-v5_1_0-branch/libgcc/config/riscv/save-restore.S:350
    5bae:	5341                	c.li	t1,-16
/cygdrive/d/Jenkins/workspace/build-system-3/source-packages/gcc-7.4.0-riscv-bsp-v5_1_0-branch/libgcc/config/riscv/save-restore.S:352
    5bb0:	c86a                	c.swsp	s10,16(sp)
/cygdrive/d/Jenkins/workspace/build-system-3/source-packages/gcc-7.4.0-riscv-bsp-v5_1_0-branch/libgcc/config/riscv/save-restore.S:354
    5bb2:	ca66                	c.swsp	s9,20(sp)
/cygdrive/d/Jenkins/workspace/build-system-3/source-packages/gcc-7.4.0-riscv-bsp-v5_1_0-branch/libgcc/config/riscv/save-restore.S:356
    5bb4:	cc62                	c.swsp	s8,24(sp)
/cygdrive/d/Jenkins/workspace/build-system-3/source-packages/gcc-7.4.0-riscv-bsp-v5_1_0-branch/libgcc/config/riscv/save-restore.S:358
    5bb6:	ce5e                	c.swsp	s7,28(sp)
/cygdrive/d/Jenkins/workspace/build-system-3/source-packages/gcc-7.4.0-riscv-bsp-v5_1_0-branch/libgcc/config/riscv/save-restore.S:360
    5bb8:	a019                	c.j	5bbe <__riscv_save_4+0x4>

00005bba <__riscv_save_4>:
__riscv_save_7():
/cygdrive/d/Jenkins/workspace/build-system-3/source-packages/gcc-7.4.0-riscv-bsp-v5_1_0-branch/libgcc/config/riscv/save-restore.S:371
    5bba:	7139                	c.addi16sp	sp,-64
/cygdrive/d/Jenkins/workspace/build-system-3/source-packages/gcc-7.4.0-riscv-bsp-v5_1_0-branch/libgcc/config/riscv/save-restore.S:373
    5bbc:	5301                	c.li	t1,-32
/cygdrive/d/Jenkins/workspace/build-system-3/source-packages/gcc-7.4.0-riscv-bsp-v5_1_0-branch/libgcc/config/riscv/save-restore.S:375
    5bbe:	d05a                	c.swsp	s6,32(sp)
/cygdrive/d/Jenkins/workspace/build-system-3/source-packages/gcc-7.4.0-riscv-bsp-v5_1_0-branch/libgcc/config/riscv/save-restore.S:377
    5bc0:	d256                	c.swsp	s5,36(sp)
/cygdrive/d/Jenkins/workspace/build-system-3/source-packages/gcc-7.4.0-riscv-bsp-v5_1_0-branch/libgcc/config/riscv/save-restore.S:379
    5bc2:	d452                	c.swsp	s4,40(sp)
/cygdrive/d/Jenkins/workspace/build-system-3/source-packages/gcc-7.4.0-riscv-bsp-v5_1_0-branch/libgcc/config/riscv/save-restore.S:381
    5bc4:	d64e                	c.swsp	s3,44(sp)
/cygdrive/d/Jenkins/workspace/build-system-3/source-packages/gcc-7.4.0-riscv-bsp-v5_1_0-branch/libgcc/config/riscv/save-restore.S:383
    5bc6:	d84a                	c.swsp	s2,48(sp)
/cygdrive/d/Jenkins/workspace/build-system-3/source-packages/gcc-7.4.0-riscv-bsp-v5_1_0-branch/libgcc/config/riscv/save-restore.S:385
    5bc8:	da26                	c.swsp	s1,52(sp)
/cygdrive/d/Jenkins/workspace/build-system-3/source-packages/gcc-7.4.0-riscv-bsp-v5_1_0-branch/libgcc/config/riscv/save-restore.S:387
    5bca:	dc22                	c.swsp	s0,56(sp)
/cygdrive/d/Jenkins/workspace/build-system-3/source-packages/gcc-7.4.0-riscv-bsp-v5_1_0-branch/libgcc/config/riscv/save-restore.S:389
    5bcc:	de06                	c.swsp	ra,60(sp)
/cygdrive/d/Jenkins/workspace/build-system-3/source-packages/gcc-7.4.0-riscv-bsp-v5_1_0-branch/libgcc/config/riscv/save-restore.S:393
    5bce:	40610133          	sub	sp,sp,t1
/cygdrive/d/Jenkins/workspace/build-system-3/source-packages/gcc-7.4.0-riscv-bsp-v5_1_0-branch/libgcc/config/riscv/save-restore.S:394
    5bd2:	8282                	c.jr	t0

00005bd4 <__riscv_save_0>:
__riscv_save_1():
/cygdrive/d/Jenkins/workspace/build-system-3/source-packages/gcc-7.4.0-riscv-bsp-v5_1_0-branch/libgcc/config/riscv/save-restore.S:404
    5bd4:	1141                	c.addi	sp,-16
/cygdrive/d/Jenkins/workspace/build-system-3/source-packages/gcc-7.4.0-riscv-bsp-v5_1_0-branch/libgcc/config/riscv/save-restore.S:406
    5bd6:	c04a                	c.swsp	s2,0(sp)
/cygdrive/d/Jenkins/workspace/build-system-3/source-packages/gcc-7.4.0-riscv-bsp-v5_1_0-branch/libgcc/config/riscv/save-restore.S:407
    5bd8:	c226                	c.swsp	s1,4(sp)
/cygdrive/d/Jenkins/workspace/build-system-3/source-packages/gcc-7.4.0-riscv-bsp-v5_1_0-branch/libgcc/config/riscv/save-restore.S:409
    5bda:	c422                	c.swsp	s0,8(sp)
/cygdrive/d/Jenkins/workspace/build-system-3/source-packages/gcc-7.4.0-riscv-bsp-v5_1_0-branch/libgcc/config/riscv/save-restore.S:411
    5bdc:	c606                	c.swsp	ra,12(sp)
/cygdrive/d/Jenkins/workspace/build-system-3/source-packages/gcc-7.4.0-riscv-bsp-v5_1_0-branch/libgcc/config/riscv/save-restore.S:413
    5bde:	8282                	c.jr	t0

00005be0 <__riscv_restore_12>:
__riscv_restore_12():
/cygdrive/d/Jenkins/workspace/build-system-3/source-packages/gcc-7.4.0-riscv-bsp-v5_1_0-branch/libgcc/config/riscv/save-restore.S:432
    5be0:	4db2                	c.lwsp	s11,12(sp)
/cygdrive/d/Jenkins/workspace/build-system-3/source-packages/gcc-7.4.0-riscv-bsp-v5_1_0-branch/libgcc/config/riscv/save-restore.S:434
    5be2:	0141                	c.addi	sp,16

00005be4 <__riscv_restore_10>:
__riscv_restore_10():
/cygdrive/d/Jenkins/workspace/build-system-3/source-packages/gcc-7.4.0-riscv-bsp-v5_1_0-branch/libgcc/config/riscv/save-restore.S:442
    5be4:	4d02                	c.lwsp	s10,0(sp)
/cygdrive/d/Jenkins/workspace/build-system-3/source-packages/gcc-7.4.0-riscv-bsp-v5_1_0-branch/libgcc/config/riscv/save-restore.S:444
    5be6:	4c92                	c.lwsp	s9,4(sp)
/cygdrive/d/Jenkins/workspace/build-system-3/source-packages/gcc-7.4.0-riscv-bsp-v5_1_0-branch/libgcc/config/riscv/save-restore.S:446
    5be8:	4c22                	c.lwsp	s8,8(sp)
/cygdrive/d/Jenkins/workspace/build-system-3/source-packages/gcc-7.4.0-riscv-bsp-v5_1_0-branch/libgcc/config/riscv/save-restore.S:448
    5bea:	4bb2                	c.lwsp	s7,12(sp)
/cygdrive/d/Jenkins/workspace/build-system-3/source-packages/gcc-7.4.0-riscv-bsp-v5_1_0-branch/libgcc/config/riscv/save-restore.S:450
    5bec:	0141                	c.addi	sp,16

00005bee <__riscv_restore_4>:
__riscv_restore_5():
/cygdrive/d/Jenkins/workspace/build-system-3/source-packages/gcc-7.4.0-riscv-bsp-v5_1_0-branch/libgcc/config/riscv/save-restore.S:462
    5bee:	4b02                	c.lwsp	s6,0(sp)
/cygdrive/d/Jenkins/workspace/build-system-3/source-packages/gcc-7.4.0-riscv-bsp-v5_1_0-branch/libgcc/config/riscv/save-restore.S:464
    5bf0:	4a92                	c.lwsp	s5,4(sp)
/cygdrive/d/Jenkins/workspace/build-system-3/source-packages/gcc-7.4.0-riscv-bsp-v5_1_0-branch/libgcc/config/riscv/save-restore.S:466
    5bf2:	4a22                	c.lwsp	s4,8(sp)
/cygdrive/d/Jenkins/workspace/build-system-3/source-packages/gcc-7.4.0-riscv-bsp-v5_1_0-branch/libgcc/config/riscv/save-restore.S:468
    5bf4:	49b2                	c.lwsp	s3,12(sp)
/cygdrive/d/Jenkins/workspace/build-system-3/source-packages/gcc-7.4.0-riscv-bsp-v5_1_0-branch/libgcc/config/riscv/save-restore.S:470
    5bf6:	0141                	c.addi	sp,16

00005bf8 <__riscv_restore_0>:
__riscv_restore_3():
/cygdrive/d/Jenkins/workspace/build-system-3/source-packages/gcc-7.4.0-riscv-bsp-v5_1_0-branch/libgcc/config/riscv/save-restore.S:485
    5bf8:	4902                	c.lwsp	s2,0(sp)
/cygdrive/d/Jenkins/workspace/build-system-3/source-packages/gcc-7.4.0-riscv-bsp-v5_1_0-branch/libgcc/config/riscv/save-restore.S:487
    5bfa:	4492                	c.lwsp	s1,4(sp)
/cygdrive/d/Jenkins/workspace/build-system-3/source-packages/gcc-7.4.0-riscv-bsp-v5_1_0-branch/libgcc/config/riscv/save-restore.S:489
    5bfc:	4422                	c.lwsp	s0,8(sp)
/cygdrive/d/Jenkins/workspace/build-system-3/source-packages/gcc-7.4.0-riscv-bsp-v5_1_0-branch/libgcc/config/riscv/save-restore.S:491
    5bfe:	40b2                	c.lwsp	ra,12(sp)
/cygdrive/d/Jenkins/workspace/build-system-3/source-packages/gcc-7.4.0-riscv-bsp-v5_1_0-branch/libgcc/config/riscv/save-restore.S:493
    5c00:	0141                	c.addi	sp,16
/cygdrive/d/Jenkins/workspace/build-system-3/source-packages/gcc-7.4.0-riscv-bsp-v5_1_0-branch/libgcc/config/riscv/save-restore.S:495
    5c02:	8082                	c.jr	ra

00005c04 <malloc>:
malloc():
    5c04:	85aa                	c.mv	a1,a0
    5c06:	6850252b          	lwgp	a0,3716 # 81684 <_impure_ptr>
    5c0a:	a231                	c.j	5d16 <_malloc_r>

00005c0c <free>:
free():
    5c0c:	85aa                	c.mv	a1,a0
    5c0e:	6850252b          	lwgp	a0,3716 # 81684 <_impure_ptr>
    5c12:	a895                	c.j	5c86 <_free_r>

00005c14 <memcpy>:
memcpy():
    5c14:	c63d                	c.beqz	a2,5c82 <memcpy+0x6e>
    5c16:	82aa                	c.mv	t0,a0
    5c18:	83b2                	c.mv	t2,a2
    5c1a:	fe03f313          	andi	t1,t2,-32
    5c1e:	9316                	c.add	t1,t0
    5c20:	02655863          	bge	a0,t1,5c50 <memcpy+0x3c>
    5c24:	4190                	c.lw	a2,0(a1)
    5c26:	41d4                	c.lw	a3,4(a1)
    5c28:	4598                	c.lw	a4,8(a1)
    5c2a:	45dc                	c.lw	a5,12(a1)
    5c2c:	c110                	c.sw	a2,0(a0)
    5c2e:	c154                	c.sw	a3,4(a0)
    5c30:	c518                	c.sw	a4,8(a0)
    5c32:	c55c                	c.sw	a5,12(a0)
    5c34:	4990                	c.lw	a2,16(a1)
    5c36:	49d4                	c.lw	a3,20(a1)
    5c38:	4d98                	c.lw	a4,24(a1)
    5c3a:	4ddc                	c.lw	a5,28(a1)
    5c3c:	c910                	c.sw	a2,16(a0)
    5c3e:	c954                	c.sw	a3,20(a0)
    5c40:	cd18                	c.sw	a4,24(a0)
    5c42:	cd5c                	c.sw	a5,28(a0)
    5c44:	02058593          	addi	a1,a1,32
    5c48:	02050513          	addi	a0,a0,32 # 400020 <FLASH_SIZE+0x300020>
    5c4c:	fc654ce3          	blt	a0,t1,5c24 <memcpy+0x10>
    5c50:	ffc3f313          	andi	t1,t2,-4
    5c54:	00530333          	add	t1,t1,t0
    5c58:	00655863          	bge	a0,t1,5c68 <memcpy+0x54>
    5c5c:	4190                	c.lw	a2,0(a1)
    5c5e:	0591                	c.addi	a1,4
    5c60:	c110                	c.sw	a2,0(a0)
    5c62:	0511                	c.addi	a0,4
    5c64:	fe654ce3          	blt	a0,t1,5c5c <memcpy+0x48>
    5c68:	00728333          	add	t1,t0,t2
    5c6c:	00655a63          	bge	a0,t1,5c80 <memcpy+0x6c>
    5c70:	0005c603          	lbu	a2,0(a1)
    5c74:	0585                	c.addi	a1,1
    5c76:	00c50023          	sb	a2,0(a0)
    5c7a:	0505                	c.addi	a0,1
    5c7c:	fe654ae3          	blt	a0,t1,5c70 <memcpy+0x5c>
    5c80:	8516                	c.mv	a0,t0
    5c82:	8082                	c.jr	ra
    5c84:	0001                	c.nop

00005c86 <_free_r>:
_free_r():
    5c86:	c5b5                	c.beqz	a1,5cf2 <_free_r+0x6c>
    5c88:	ffc5a703          	lw	a4,-4(a1)
    5c8c:	ffc58793          	addi	a5,a1,-4
    5c90:	00075363          	bgez	a4,5c96 <_free_r+0x10>
    5c94:	97ba                	c.add	a5,a4
    5c96:	6ad0272b          	lwgp	a4,3756 # 816ac <__malloc_free_list>
    5c9a:	85b6                	c.mv	a1,a3
    5c9c:	e711                	c.bnez	a4,5ca8 <_free_r+0x22>
    5c9e:	0007a223          	sw	zero,4(a5) # ff800004 <_DATA_LMA_START+0xdf7f942c>
    5ca2:	6af046ab          	swgp	a5,3756 # 816ac <__malloc_free_list>
    5ca6:	8082                	c.jr	ra
    5ca8:	00e7ff63          	bgeu	a5,a4,5cc6 <_free_r+0x40>
    5cac:	4390                	c.lw	a2,0(a5)
    5cae:	00c786b3          	add	a3,a5,a2
    5cb2:	00d71663          	bne	a4,a3,5cbe <_free_r+0x38>
    5cb6:	4314                	c.lw	a3,0(a4)
    5cb8:	4358                	c.lw	a4,4(a4)
    5cba:	96b2                	c.add	a3,a2
    5cbc:	c394                	c.sw	a3,0(a5)
    5cbe:	c3d8                	c.sw	a4,4(a5)
    5cc0:	6af046ab          	swgp	a5,3756 # 816ac <__malloc_free_list>
    5cc4:	8082                	c.jr	ra
    5cc6:	86ba                	c.mv	a3,a4
    5cc8:	4358                	c.lw	a4,4(a4)
    5cca:	c319                	c.beqz	a4,5cd0 <_free_r+0x4a>
    5ccc:	fee7fde3          	bgeu	a5,a4,5cc6 <_free_r+0x40>
    5cd0:	4290                	c.lw	a2,0(a3)
    5cd2:	00c685b3          	add	a1,a3,a2
    5cd6:	00f59f63          	bne	a1,a5,5cf4 <_free_r+0x6e>
    5cda:	439c                	c.lw	a5,0(a5)
    5cdc:	97b2                	c.add	a5,a2
    5cde:	00f68633          	add	a2,a3,a5
    5ce2:	c29c                	c.sw	a5,0(a3)
    5ce4:	00c71763          	bne	a4,a2,5cf2 <_free_r+0x6c>
    5ce8:	4310                	c.lw	a2,0(a4)
    5cea:	97b2                	c.add	a5,a2
    5cec:	c29c                	c.sw	a5,0(a3)
    5cee:	435c                	c.lw	a5,4(a4)
    5cf0:	c2dc                	c.sw	a5,4(a3)
    5cf2:	8082                	c.jr	ra
    5cf4:	00b7f663          	bgeu	a5,a1,5d00 <_free_r+0x7a>
    5cf8:	4731                	c.li	a4,12
    5cfa:	6ae042ab          	swgp	a4,3748 # 816a4 <__mculib_REENT_errno>
    5cfe:	8082                	c.jr	ra
    5d00:	438c                	c.lw	a1,0(a5)
    5d02:	00b78633          	add	a2,a5,a1
    5d06:	00c71663          	bne	a4,a2,5d12 <_free_r+0x8c>
    5d0a:	4310                	c.lw	a2,0(a4)
    5d0c:	4358                	c.lw	a4,4(a4)
    5d0e:	962e                	c.add	a2,a1
    5d10:	c390                	c.sw	a2,0(a5)
    5d12:	c3d8                	c.sw	a4,4(a5)
    5d14:	bff1                	c.j	5cf0 <_free_r+0x6a>

00005d16 <_malloc_r>:
_malloc_r():
    5d16:	ebfff2ef          	jal	t0,5bd4 <__riscv_save_0>
    5d1a:	00358493          	addi	s1,a1,3
    5d1e:	98f1                	c.andi	s1,-4
    5d20:	04a1                	c.addi	s1,8
    5d22:	47b1                	c.li	a5,12
    5d24:	04f4f463          	bgeu	s1,a5,5d6c <_malloc_r+0x56>
    5d28:	44b1                	c.li	s1,12
    5d2a:	04b4e363          	bltu	s1,a1,5d70 <_malloc_r+0x5a>
    5d2e:	6ad0272b          	lwgp	a4,3756 # 816ac <__malloc_free_list>
    5d32:	86be                	c.mv	a3,a5
    5d34:	843a                	c.mv	s0,a4
    5d36:	e031                	c.bnez	s0,5d7a <_malloc_r+0x64>
    5d38:	6a9027ab          	lwgp	a5,3752 # 816a8 <__malloc_sbrk_start>
    5d3c:	e791                	c.bnez	a5,5d48 <_malloc_r+0x32>
    5d3e:	4501                	c.li	a0,0
    5d40:	3bf000ef          	jal	ra,68fe <_sbrk>
    5d44:	6aa044ab          	swgp	a0,3752 # 816a8 <__malloc_sbrk_start>
    5d48:	8526                	c.mv	a0,s1
    5d4a:	597d                	c.li	s2,-1
    5d4c:	3b3000ef          	jal	ra,68fe <_sbrk>
    5d50:	03250063          	beq	a0,s2,5d70 <_malloc_r+0x5a>
    5d54:	00350413          	addi	s0,a0,3
    5d58:	9871                	c.andi	s0,-4
    5d5a:	02850963          	beq	a0,s0,5d8c <_malloc_r+0x76>
    5d5e:	40a40533          	sub	a0,s0,a0
    5d62:	39d000ef          	jal	ra,68fe <_sbrk>
    5d66:	03251363          	bne	a0,s2,5d8c <_malloc_r+0x76>
    5d6a:	a019                	c.j	5d70 <_malloc_r+0x5a>
    5d6c:	fa04dfe3          	bgez	s1,5d2a <_malloc_r+0x14>
    5d70:	4731                	c.li	a4,12
    5d72:	4501                	c.li	a0,0
    5d74:	6ae042ab          	swgp	a4,3748 # 816a4 <__mculib_REENT_errno>
    5d78:	b541                	c.j	5bf8 <__riscv_restore_0>
    5d7a:	401c                	c.lw	a5,0(s0)
    5d7c:	8f85                	c.sub	a5,s1
    5d7e:	0207cd63          	bltz	a5,5db8 <_malloc_r+0xa2>
    5d82:	462d                	c.li	a2,11
    5d84:	00f67663          	bgeu	a2,a5,5d90 <_malloc_r+0x7a>
    5d88:	c01c                	c.sw	a5,0(s0)
    5d8a:	943e                	c.add	s0,a5
    5d8c:	c004                	c.sw	s1,0(s0)
    5d8e:	a031                	c.j	5d9a <_malloc_r+0x84>
    5d90:	405c                	c.lw	a5,4(s0)
    5d92:	02871163          	bne	a4,s0,5db4 <_malloc_r+0x9e>
    5d96:	6af046ab          	swgp	a5,3756 # 816ac <__malloc_free_list>
    5d9a:	00b40513          	addi	a0,s0,11
    5d9e:	00440793          	addi	a5,s0,4
    5da2:	9961                	c.andi	a0,-8
    5da4:	40f50733          	sub	a4,a0,a5
    5da8:	fcf508e3          	beq	a0,a5,5d78 <_malloc_r+0x62>
    5dac:	943a                	c.add	s0,a4
    5dae:	8f89                	c.sub	a5,a0
    5db0:	c01c                	c.sw	a5,0(s0)
    5db2:	b7d9                	c.j	5d78 <_malloc_r+0x62>
    5db4:	c35c                	c.sw	a5,4(a4)
    5db6:	b7d5                	c.j	5d9a <_malloc_r+0x84>
    5db8:	8722                	c.mv	a4,s0
    5dba:	4040                	c.lw	s0,4(s0)
    5dbc:	bfad                	c.j	5d36 <_malloc_r+0x20>

00005dbe <iprintf>:
printf():
    5dbe:	7139                	c.addi16sp	sp,-64
    5dc0:	d22e                	c.swsp	a1,36(sp)
    5dc2:	104c                	c.addi4spn	a1,sp,36
    5dc4:	ce06                	c.swsp	ra,28(sp)
    5dc6:	d432                	c.swsp	a2,40(sp)
    5dc8:	d636                	c.swsp	a3,44(sp)
    5dca:	d83a                	c.swsp	a4,48(sp)
    5dcc:	da3e                	c.swsp	a5,52(sp)
    5dce:	dc42                	c.swsp	a6,56(sp)
    5dd0:	de46                	c.swsp	a7,60(sp)
    5dd2:	c62e                	c.swsp	a1,12(sp)
    5dd4:	20c9                	c.jal	5e96 <viprintf>
    5dd6:	40f2                	c.lwsp	ra,28(sp)
    5dd8:	6121                	c.addi16sp	sp,64
    5dda:	8082                	c.jr	ra

00005ddc <putchar>:
putchar():
    5ddc:	df9ff2ef          	jal	t0,5bd4 <__riscv_save_0>
    5de0:	1141                	c.addi	sp,-16
    5de2:	842a                	c.mv	s0,a0
    5de4:	00a107a3          	sb	a0,15(sp)
    5de8:	4605                	c.li	a2,1
    5dea:	00f10593          	addi	a1,sp,15
    5dee:	4505                	c.li	a0,1
    5df0:	821fb0ef          	jal	ra,1610 <_write>
    5df4:	e501                	c.bnez	a0,5dfc <putchar+0x20>
    5df6:	4759                	c.li	a4,22
    5df8:	6ae042ab          	swgp	a4,3748 # 816a4 <__mculib_REENT_errno>
    5dfc:	8522                	c.mv	a0,s0
    5dfe:	0141                	c.addi	sp,16
    5e00:	bbe5                	c.j	5bf8 <__riscv_restore_0>

00005e02 <puts>:
puts():
    5e02:	dd3ff2ef          	jal	t0,5bd4 <__riscv_save_0>
    5e06:	1101                	c.addi	sp,-32
    5e08:	c62a                	c.swsp	a0,12(sp)
    5e0a:	202d                	c.jal	5e34 <strlen>
    5e0c:	45b2                	c.lwsp	a1,12(sp)
    5e0e:	862a                	c.mv	a2,a0
    5e10:	4505                	c.li	a0,1
    5e12:	ffefb0ef          	jal	ra,1610 <_write>
    5e16:	00054d63          	bltz	a0,5e30 <puts+0x2e>
    5e1a:	47a9                	c.li	a5,10
    5e1c:	4605                	c.li	a2,1
    5e1e:	01f10593          	addi	a1,sp,31
    5e22:	4505                	c.li	a0,1
    5e24:	00f10fa3          	sb	a5,31(sp)
    5e28:	fe8fb0ef          	jal	ra,1610 <_write>
    5e2c:	6105                	c.addi16sp	sp,32
    5e2e:	b3e9                	c.j	5bf8 <__riscv_restore_0>
    5e30:	557d                	c.li	a0,-1
    5e32:	bfed                	c.j	5e2c <puts+0x2a>

00005e34 <strlen>:
strlen():
    5e34:	87aa                	c.mv	a5,a0
    5e36:	00350693          	addi	a3,a0,3
    5e3a:	9af1                	c.andi	a3,-4
    5e3c:	00d50863          	beq	a0,a3,5e4c <strlen+0x18>
    5e40:	00054583          	lbu	a1,0(a0)
    5e44:	c991                	c.beqz	a1,5e58 <strlen+0x24>
    5e46:	0505                	c.addi	a0,1
    5e48:	fed51ce3          	bne	a0,a3,5e40 <strlen+0xc>
    5e4c:	410c                	c.lw	a1,0(a0)
    5e4e:	200585db          	ffb	a1,a1,zero
    5e52:	0511                	c.addi	a0,4
    5e54:	dde5                	c.beqz	a1,5e4c <strlen+0x18>
    5e56:	952e                	c.add	a0,a1
    5e58:	8d1d                	c.sub	a0,a5
    5e5a:	8082                	c.jr	ra
    5e5c:	0001                	c.nop

00005e5e <__vprintf_help>:
__vprintf_help():
    5e5e:	d77ff2ef          	jal	t0,5bd4 <__riscv_save_0>
    5e62:	6b9027ab          	lwgp	a5,3768 # 816b8 <__printf_count>
    5e66:	0785                	c.addi	a5,1
    5e68:	6af04cab          	swgp	a5,3768 # 816b8 <__printf_count>
    5e6c:	6b5025ab          	lwgp	a1,3764 # 816b4 <__vprintf_buf>
    5e70:	6b1027ab          	lwgp	a5,3760 # 816b0 <__vprintf_buf_len>
    5e74:	00178713          	addi	a4,a5,1
    5e78:	97ae                	c.add	a5,a1
    5e7a:	6ae048ab          	swgp	a4,3760 # 816b0 <__vprintf_buf_len>
    5e7e:	00a78023          	sb	a0,0(a5)
    5e82:	4007695b          	bnec	a4,64,5e94 <__vprintf_help+0x36>
    5e86:	04000613          	li	a2,64
    5e8a:	4505                	c.li	a0,1
    5e8c:	f84fb0ef          	jal	ra,1610 <_write>
    5e90:	6a0048ab          	swgp	zero,3760 # 816b0 <__vprintf_buf_len>
    5e94:	b395                	c.j	5bf8 <__riscv_restore_0>

00005e96 <viprintf>:
vprintf():
    5e96:	1141                	c.addi	sp,-16
    5e98:	c606                	c.swsp	ra,12(sp)
    5e9a:	c422                	c.swsp	s0,8(sp)
    5e9c:	c226                	c.swsp	s1,4(sp)
    5e9e:	0800                	c.addi4spn	s0,sp,16
    5ea0:	c04a                	c.swsp	s2,0(sp)
    5ea2:	715d                	c.addi16sp	sp,-80
    5ea4:	00f10793          	addi	a5,sp,15
    5ea8:	00006637          	lui	a2,0x6
    5eac:	9bc1                	c.andi	a5,-16
    5eae:	e5e60613          	addi	a2,a2,-418 # 5e5e <__vprintf_help>
    5eb2:	6af04aab          	swgp	a5,3764 # 816b4 <__vprintf_buf>
    5eb6:	6a0048ab          	swgp	zero,3760 # 816b0 <__vprintf_buf_len>
    5eba:	20b5                	c.jal	5f26 <__printf_impl>
    5ebc:	6b10262b          	lwgp	a2,3760 # 816b0 <__vprintf_buf_len>
    5ec0:	6b5025ab          	lwgp	a1,3764 # 816b4 <__vprintf_buf>
    5ec4:	4505                	c.li	a0,1
    5ec6:	f4afb0ef          	jal	ra,1610 <_write>
    5eca:	6b90252b          	lwgp	a0,3768 # 816b8 <__printf_count>
    5ece:	ff040113          	addi	sp,s0,-16
    5ed2:	40b2                	c.lwsp	ra,12(sp)
    5ed4:	4422                	c.lwsp	s0,8(sp)
    5ed6:	4492                	c.lwsp	s1,4(sp)
    5ed8:	4902                	c.lwsp	s2,0(sp)
    5eda:	0141                	c.addi	sp,16
    5edc:	8082                	c.jr	ra

00005ede <__print_integral>:
__print_integral():
    5ede:	cf7ff2ef          	jal	t0,5bd4 <__riscv_save_0>
    5ee2:	1101                	c.addi	sp,-32
    5ee4:	842a                	c.mv	s0,a0
    5ee6:	84ae                	c.mv	s1,a1
    5ee8:	8932                	c.mv	s2,a2
    5eea:	c636                	c.swsp	a3,12(sp)
    5eec:	853a                	c.mv	a0,a4
    5eee:	85be                	c.mv	a1,a5
    5ef0:	0830                	c.addi4spn	a2,sp,24
    5ef2:	ca3e                	c.swsp	a5,20(sp)
    5ef4:	2171                	c.jal	6380 <__int_to_poly>
    5ef6:	46b2                	c.lwsp	a3,12(sp)
    5ef8:	882a                	c.mv	a6,a0
    5efa:	083c                	c.addi4spn	a5,sp,24
    5efc:	0858                	c.addi4spn	a4,sp,20
    5efe:	864a                	c.mv	a2,s2
    5f00:	85a6                	c.mv	a1,s1
    5f02:	8522                	c.mv	a0,s0
    5f04:	2971                	c.jal	63a0 <__print_integral_poly>
    5f06:	5e10178b          	addigp	a5,3552 # 815e0 <__digits>
    5f0a:	00a46563          	bltu	s0,a0,5f14 <__print_integral+0x36>
    5f0e:	6105                	c.addi16sp	sp,32
    5f10:	ce9ff06f          	j	5bf8 <__riscv_restore_0>
    5f14:	00044703          	lbu	a4,0(s0)
    5f18:	0405                	c.addi	s0,1
    5f1a:	973e                	c.add	a4,a5
    5f1c:	00074703          	lbu	a4,0(a4) # 400000 <FLASH_SIZE+0x300000>
    5f20:	fee40fa3          	sb	a4,-1(s0)
    5f24:	b7dd                	c.j	5f0a <__print_integral+0x2c>

00005f26 <__printf_impl>:
__printf_impl_lite():
    5f26:	c7fff2ef          	jal	t0,5ba4 <__riscv_save_12>
    5f2a:	a6010113          	addi	sp,sp,-1440
    5f2e:	6b85                	c.lui	s7,0x1
    5f30:	842e                	c.mv	s0,a1
    5f32:	5f10158b          	addigp	a1,3568 # 815f0 <__digits+0x10>
    5f36:	892a                	c.mv	s2,a0
    5f38:	89b2                	c.mv	s3,a2
    5f3a:	01c10a93          	addi	s5,sp,28
    5f3e:	800b8b93          	addi	s7,s7,-2048 # 800 <flash_mspi_read_ram+0x54>
    5f42:	6a004cab          	swgp	zero,3768 # 816b8 <__printf_count>
    5f46:	c42e                	c.swsp	a1,8(sp)
    5f48:	00094503          	lbu	a0,0(s2)
    5f4c:	e509                	c.bnez	a0,5f56 <__printf_impl+0x30>
    5f4e:	5a010113          	addi	sp,sp,1440
    5f52:	c8fff06f          	j	5be0 <__riscv_restore_12>
    5f56:	00190493          	addi	s1,s2,1
    5f5a:	005555db          	beqc	a0,37,5f64 <__printf_impl+0x3e>
    5f5e:	9982                	c.jalr	s3
    5f60:	8926                	c.mv	s2,s1
    5f62:	b7dd                	c.j	5f48 <__printf_impl+0x22>
    5f64:	00194783          	lbu	a5,1(s2)
    5f68:	0057e8db          	bnec	a5,37,5f78 <__printf_impl+0x52>
    5f6c:	02500513          	li	a0,37
    5f70:	00290493          	addi	s1,s2,2
    5f74:	9982                	c.jalr	s3
    5f76:	b7ed                	c.j	5f60 <__printf_impl+0x3a>
    5f78:	4681                	c.li	a3,0
    5f7a:	4701                	c.li	a4,0
    5f7c:	d002                	c.swsp	zero,32(sp)
    5f7e:	0004c783          	lbu	a5,0(s1)
    5f82:	0007e7db          	bnec	a5,32,5f90 <__printf_impl+0x6a>
    5f86:	00276713          	ori	a4,a4,2
    5f8a:	0485                	c.addi	s1,1
    5f8c:	4685                	c.li	a3,1
    5f8e:	bfc5                	c.j	5f7e <__printf_impl+0x58>
    5f90:	00d7e5db          	bnec	a5,45,5f9a <__printf_impl+0x74>
    5f94:	00476713          	ori	a4,a4,4
    5f98:	bfcd                	c.j	5f8a <__printf_impl+0x64>
    5f9a:	00b7e5db          	bnec	a5,43,5fa4 <__printf_impl+0x7e>
    5f9e:	00876713          	ori	a4,a4,8
    5fa2:	b7e5                	c.j	5f8a <__printf_impl+0x64>
    5fa4:	0037e5db          	bnec	a5,35,5fae <__printf_impl+0x88>
    5fa8:	01076713          	ori	a4,a4,16
    5fac:	bff9                	c.j	5f8a <__printf_impl+0x64>
    5fae:	0107e5db          	bnec	a5,48,5fb8 <__printf_impl+0x92>
    5fb2:	02076713          	ori	a4,a4,32
    5fb6:	bfd1                	c.j	5f8a <__printf_impl+0x64>
    5fb8:	c291                	c.beqz	a3,5fbc <__printf_impl+0x96>
    5fba:	d03a                	c.swsp	a4,32(sp)
    5fbc:	04a7eadb          	bnec	a5,42,6010 <__printf_impl+0xea>
    5fc0:	00042a03          	lw	s4,0(s0)
    5fc4:	00440713          	addi	a4,s0,4
    5fc8:	000a5863          	bgez	s4,5fd8 <__printf_impl+0xb2>
    5fcc:	5782                	c.lwsp	a5,32(sp)
    5fce:	41400a33          	neg	s4,s4
    5fd2:	0047e793          	ori	a5,a5,4
    5fd6:	d03e                	c.swsp	a5,32(sp)
    5fd8:	0485                	c.addi	s1,1
    5fda:	843a                	c.mv	s0,a4
    5fdc:	0004c783          	lbu	a5,0(s1)
    5fe0:	5dfd                	c.li	s11,-1
    5fe2:	06e7e4db          	bnec	a5,46,604a <__printf_impl+0x124>
    5fe6:	0014c783          	lbu	a5,1(s1)
    5fea:	04a7dbdb          	beqc	a5,42,6040 <__printf_impl+0x11a>
    5fee:	0485                	c.addi	s1,1
    5ff0:	4d81                	c.li	s11,0
    5ff2:	4725                	c.li	a4,9
    5ff4:	4629                	c.li	a2,10
    5ff6:	0004c783          	lbu	a5,0(s1)
    5ffa:	fd078793          	addi	a5,a5,-48
    5ffe:	0ff7f693          	andi	a3,a5,255
    6002:	04d76463          	bltu	a4,a3,604a <__printf_impl+0x124>
    6006:	c4cd97ff          	maddr32	a5,s11,a2
    600a:	0485                	c.addi	s1,1
    600c:	8dbe                	c.mv	s11,a5
    600e:	b7e5                	c.j	5ff6 <__printf_impl+0xd0>
    6010:	fd078793          	addi	a5,a5,-48
    6014:	0ff7f793          	andi	a5,a5,255
    6018:	4725                	c.li	a4,9
    601a:	4a01                	c.li	s4,0
    601c:	fcf760e3          	bltu	a4,a5,5fdc <__printf_impl+0xb6>
    6020:	4725                	c.li	a4,9
    6022:	4629                	c.li	a2,10
    6024:	a029                	c.j	602e <__printf_impl+0x108>
    6026:	c4ca17ff          	maddr32	a5,s4,a2
    602a:	0485                	c.addi	s1,1
    602c:	8a3e                	c.mv	s4,a5
    602e:	0004c783          	lbu	a5,0(s1)
    6032:	fd078793          	addi	a5,a5,-48
    6036:	0ff7f693          	andi	a3,a5,255
    603a:	fed776e3          	bgeu	a4,a3,6026 <__printf_impl+0x100>
    603e:	bf79                	c.j	5fdc <__printf_impl+0xb6>
    6040:	401c                	c.lw	a5,0(s0)
    6042:	0489                	c.addi	s1,2
    6044:	0411                	c.addi	s0,4
    6046:	f2fd8dff          	maxw	s11,s11,a5
    604a:	43200613          	li	a2,1074
    604e:	0004c783          	lbu	a5,0(s1)
    6052:	f0cd867f          	minw	a2,s11,a2
    6056:	4687e8db          	bnec	a5,104,60c6 <__printf_impl+0x1a0>
    605a:	5782                	c.lwsp	a5,32(sp)
    605c:	0014c703          	lbu	a4,1(s1)
    6060:	44876ddb          	bnec	a4,104,60ba <__printf_impl+0x194>
    6064:	0407e793          	ori	a5,a5,64
    6068:	00248913          	addi	s2,s1,2
    606c:	d03e                	c.swsp	a5,32(sp)
    606e:	00094503          	lbu	a0,0(s2)
    6072:	07800793          	li	a5,120
    6076:	24a7e163          	bltu	a5,a0,62b8 <__printf_impl+0x392>
    607a:	05700793          	li	a5,87
    607e:	06a7ee63          	bltu	a5,a0,60fa <__printf_impl+0x1d4>
    6082:	4015595b          	beqc	a0,65,6094 <__printf_impl+0x16e>
    6086:	fbb50793          	addi	a5,a0,-69
    608a:	0ff7f793          	andi	a5,a5,255
    608e:	4709                	c.li	a4,2
    6090:	22f76463          	bltu	a4,a5,62b8 <__printf_impl+0x392>
    6094:	00740593          	addi	a1,s0,7
    6098:	99e1                	c.andi	a1,-8
    609a:	0005a803          	lw	a6,0(a1)
    609e:	0045a883          	lw	a7,4(a1)
    60a2:	87aa                	c.mv	a5,a0
    60a4:	02057c93          	andi	s9,a0,32
    60a8:	00858413          	addi	s0,a1,8
    60ac:	86c2                	c.mv	a3,a6
    60ae:	8746                	c.mv	a4,a7
    60b0:	100c                	c.addi4spn	a1,sp,32
    60b2:	1048                	c.addi4spn	a0,sp,36
    60b4:	2e95                	c.jal	6428 <__printf_float_impl>
    60b6:	84aa                	c.mv	s1,a0
    60b8:	a8bd                	c.j	6136 <__printf_impl+0x210>
    60ba:	0807e793          	ori	a5,a5,128
    60be:	00148913          	addi	s2,s1,1
    60c2:	d03e                	c.swsp	a5,32(sp)
    60c4:	b76d                	c.j	606e <__printf_impl+0x148>
    60c6:	40c7eddb          	bnec	a5,108,60e0 <__printf_impl+0x1ba>
    60ca:	5782                	c.lwsp	a5,32(sp)
    60cc:	0014c703          	lbu	a4,1(s1)
    60d0:	40c765db          	bnec	a4,108,60da <__printf_impl+0x1b4>
    60d4:	2007e793          	ori	a5,a5,512
    60d8:	bf41                	c.j	6068 <__printf_impl+0x142>
    60da:	1007e793          	ori	a5,a5,256
    60de:	b7c5                	c.j	60be <__printf_impl+0x198>
    60e0:	00148913          	addi	s2,s1,1
    60e4:	41a7e7db          	bnec	a5,122,60f2 <__printf_impl+0x1cc>
    60e8:	5782                	c.lwsp	a5,32(sp)
    60ea:	1007e793          	ori	a5,a5,256
    60ee:	d03e                	c.swsp	a5,32(sp)
    60f0:	bfbd                	c.j	606e <__printf_impl+0x148>
    60f2:	ff47dbdb          	beqc	a5,116,60e8 <__printf_impl+0x1c2>
    60f6:	8926                	c.mv	s2,s1
    60f8:	bf9d                	c.j	606e <__printf_impl+0x148>
    60fa:	fa850793          	addi	a5,a0,-88
    60fe:	0ff7f793          	andi	a5,a5,255
    6102:	02000713          	li	a4,32
    6106:	1af76963          	bltu	a4,a5,62b8 <__printf_impl+0x392>
    610a:	45a2                	c.lwsp	a1,8(sp)
    610c:	0cf587db          	lea.w	a5,a1,a5
    6110:	439c                	c.lw	a5,0(a5)
    6112:	8782                	c.jr	a5
    6114:	45a9                	c.li	a1,10
    6116:	5782                	c.lwsp	a5,32(sp)
    6118:	1267f25b          	bbc	a5,6,623c <__printf_impl+0x316>
    611c:	00044703          	lbu	a4,0(s0)
    6120:	00440d13          	addi	s10,s0,4
    6124:	4781                	c.li	a5,0
    6126:	a281                	c.j	6266 <__printf_impl+0x340>
    6128:	401c                	c.lw	a5,0(s0)
    612a:	4c81                	c.li	s9,0
    612c:	0411                	c.addi	s0,4
    612e:	02510493          	addi	s1,sp,37
    6132:	02f10223          	sb	a5,36(sp)
    6136:	02410c13          	addi	s8,sp,36
    613a:	a01d                	c.j	6160 <__printf_impl+0x23a>
    613c:	00042c03          	lw	s8,0(s0)
    6140:	85b2                	c.mv	a1,a2
    6142:	8562                	c.mv	a0,s8
    6144:	c632                	c.swsp	a2,12(sp)
    6146:	2f21                	c.jal	685e <strnlen>
    6148:	57fd                	c.li	a5,-1
    614a:	00440c93          	addi	s9,s0,4
    614e:	00fd8563          	beq	s11,a5,6158 <__printf_impl+0x232>
    6152:	4632                	c.lwsp	a2,12(sp)
    6154:	f0c5057f          	minw	a0,a0,a2
    6158:	8466                	c.mv	s0,s9
    615a:	00ac04b3          	add	s1,s8,a0
    615e:	4c81                	c.li	s9,0
    6160:	5782                	c.lwsp	a5,32(sp)
    6162:	02d00693          	li	a3,45
    6166:	40a7fb5b          	bbs	a5,10,617c <__printf_impl+0x256>
    616a:	02b00693          	li	a3,43
    616e:	4037f75b          	bbs	a5,3,617c <__printf_impl+0x256>
    6172:	8d56                	c.mv	s10,s5
    6174:	0017f85b          	bbc	a5,1,6184 <__printf_impl+0x25e>
    6178:	02000693          	li	a3,32
    617c:	01d10d13          	addi	s10,sp,29
    6180:	00d10e23          	sb	a3,28(sp)
    6184:	0177f6b3          	and	a3,a5,s7
    6188:	ca91                	c.beqz	a3,619c <__printf_impl+0x276>
    618a:	03000693          	li	a3,48
    618e:	00dd0023          	sb	a3,0(s10)
    6192:	05800693          	li	a3,88
    6196:	00dd00a3          	sb	a3,1(s10)
    619a:	0d09                	c.addi	s10,2
    619c:	5627f85b          	bbs	a5,2,630c <__printf_impl+0x3e6>
    61a0:	41848db3          	sub	s11,s1,s8
    61a4:	4057f95b          	bbs	a5,5,61b6 <__printf_impl+0x290>
    61a8:	41ba07b3          	sub	a5,s4,s11
    61ac:	415d06b3          	sub	a3,s10,s5
    61b0:	8f95                	c.sub	a5,a3
    61b2:	16f04b63          	bgtz	a5,6328 <__printf_impl+0x402>
    61b6:	87d6                	c.mv	a5,s5
    61b8:	a279                	c.j	6346 <__printf_impl+0x420>
    61ba:	5682                	c.lwsp	a3,32(sp)
    61bc:	0266f55b          	bbc	a3,6,61e6 <__printf_impl+0x2c0>
    61c0:	00040703          	lb	a4,0(s0)
    61c4:	00440d13          	addi	s10,s0,4
    61c8:	41f75793          	srai	a5,a4,0x1f
    61cc:	0407d463          	bgez	a5,6214 <__printf_impl+0x2ee>
    61d0:	00e035b3          	snez	a1,a4
    61d4:	40f007b3          	neg	a5,a5
    61d8:	40e00733          	neg	a4,a4
    61dc:	8f8d                	c.sub	a5,a1
    61de:	4006e693          	ori	a3,a3,1024
    61e2:	d036                	c.swsp	a3,32(sp)
    61e4:	a805                	c.j	6214 <__printf_impl+0x2ee>
    61e6:	0076f75b          	bbc	a3,7,61f4 <__printf_impl+0x2ce>
    61ea:	00041703          	lh	a4,0(s0)
    61ee:	00440d13          	addi	s10,s0,4
    61f2:	bfd9                	c.j	61c8 <__printf_impl+0x2a2>
    61f4:	0086f65b          	bbc	a3,8,6200 <__printf_impl+0x2da>
    61f8:	4018                	c.lw	a4,0(s0)
    61fa:	00440d13          	addi	s10,s0,4
    61fe:	b7e9                	c.j	61c8 <__printf_impl+0x2a2>
    6200:	be96fc5b          	bbc	a3,9,61f8 <__printf_impl+0x2d2>
    6204:	041d                	c.addi	s0,7
    6206:	9861                	c.andi	s0,-8
    6208:	405c                	c.lw	a5,4(s0)
    620a:	4018                	c.lw	a4,0(s0)
    620c:	00840d13          	addi	s10,s0,8
    6210:	0007c963          	bltz	a5,6222 <__printf_impl+0x2fc>
    6214:	56fd                	c.li	a3,-1
    6216:	45a9                	c.li	a1,10
    6218:	4c81                	c.li	s9,0
    621a:	04dd9b63          	bne	s11,a3,6270 <__printf_impl+0x34a>
    621e:	4605                	c.li	a2,1
    6220:	a0bd                	c.j	628e <__printf_impl+0x368>
    6222:	f75d                	c.bnez	a4,61d0 <__printf_impl+0x2aa>
    6224:	800005b7          	lui	a1,0x80000
    6228:	fab794e3          	bne	a5,a1,61d0 <__printf_impl+0x2aa>
    622c:	4701                	c.li	a4,0
    622e:	800007b7          	lui	a5,0x80000
    6232:	b775                	c.j	61de <__printf_impl+0x2b8>
    6234:	45c1                	c.li	a1,16
    6236:	b5c5                	c.j	6116 <__printf_impl+0x1f0>
    6238:	45a1                	c.li	a1,8
    623a:	bdf1                	c.j	6116 <__printf_impl+0x1f0>
    623c:	0077f75b          	bbc	a5,7,624a <__printf_impl+0x324>
    6240:	00045703          	lhu	a4,0(s0)
    6244:	00440d13          	addi	s10,s0,4
    6248:	bdf1                	c.j	6124 <__printf_impl+0x1fe>
    624a:	0087f65b          	bbc	a5,8,6256 <__printf_impl+0x330>
    624e:	4018                	c.lw	a4,0(s0)
    6250:	00440d13          	addi	s10,s0,4
    6254:	bdc1                	c.j	6124 <__printf_impl+0x1fe>
    6256:	be97fc5b          	bbc	a5,9,624e <__printf_impl+0x328>
    625a:	041d                	c.addi	s0,7
    625c:	9861                	c.andi	s0,-8
    625e:	4018                	c.lw	a4,0(s0)
    6260:	405c                	c.lw	a5,4(s0)
    6262:	00840d13          	addi	s10,s0,8
    6266:	56fd                	c.li	a3,-1
    6268:	02057c93          	andi	s9,a0,32
    626c:	02dd8963          	beq	s11,a3,629e <__printf_impl+0x378>
    6270:	5682                	c.lwsp	a3,32(sp)
    6272:	fdf6f693          	andi	a3,a3,-33
    6276:	d036                	c.swsp	a3,32(sp)
    6278:	0105eb5b          	bnec	a1,16,628e <__printf_impl+0x368>
    627c:	5682                	c.lwsp	a3,32(sp)
    627e:	0046f85b          	bbc	a3,4,628e <__printf_impl+0x368>
    6282:	00f76533          	or	a0,a4,a5
    6286:	c501                	c.beqz	a0,628e <__printf_impl+0x368>
    6288:	0176e6b3          	or	a3,a3,s7
    628c:	d036                	c.swsp	a3,32(sp)
    628e:	86b2                	c.mv	a3,a2
    6290:	5602                	c.lwsp	a2,32(sp)
    6292:	1048                	c.addi4spn	a0,sp,36
    6294:	c4bff0ef          	jal	ra,5ede <__print_integral>
    6298:	846a                	c.mv	s0,s10
    629a:	84aa                	c.mv	s1,a0
    629c:	bd69                	c.j	6136 <__printf_impl+0x210>
    629e:	4605                	c.li	a2,1
    62a0:	bfe1                	c.j	6278 <__printf_impl+0x352>
    62a2:	5602                	c.lwsp	a2,32(sp)
    62a4:	6b9027ab          	lwgp	a5,3768 # 816b8 <__printf_count>
    62a8:	4018                	c.lw	a4,0(s0)
    62aa:	00440693          	addi	a3,s0,4
    62ae:	0066795b          	bbc	a2,6,62c0 <__printf_impl+0x39a>
    62b2:	00f70023          	sb	a5,0(a4)
    62b6:	8436                	c.mv	s0,a3
    62b8:	1044                	c.addi4spn	s1,sp,36
    62ba:	4c81                	c.li	s9,0
    62bc:	8c26                	c.mv	s8,s1
    62be:	b54d                	c.j	6160 <__printf_impl+0x23a>
    62c0:	0076755b          	bbc	a2,7,62ca <__printf_impl+0x3a4>
    62c4:	00f71023          	sh	a5,0(a4)
    62c8:	b7fd                	c.j	62b6 <__printf_impl+0x390>
    62ca:	c31c                	c.sw	a5,0(a4)
    62cc:	fe86755b          	bbs	a2,8,62b6 <__printf_impl+0x390>
    62d0:	be96735b          	bbc	a2,9,62b6 <__printf_impl+0x390>
    62d4:	87fd                	c.srai	a5,0x1f
    62d6:	c35c                	c.sw	a5,4(a4)
    62d8:	bff9                	c.j	62b6 <__printf_impl+0x390>
    62da:	000dc503          	lbu	a0,0(s11)
    62de:	0d85                	c.addi	s11,1
    62e0:	00ace533          	or	a0,s9,a0
    62e4:	9982                	c.jalr	s3
    62e6:	ffadeae3          	bltu	s11,s10,62da <__printf_impl+0x3b4>
    62ea:	4781                	c.li	a5,0
    62ec:	015d6463          	bltu	s10,s5,62f4 <__printf_impl+0x3ce>
    62f0:	41aa87b3          	sub	a5,s5,s10
    62f4:	9a3e                	c.add	s4,a5
    62f6:	8d62                	c.mv	s10,s8
    62f8:	01a49c63          	bne	s1,s10,6310 <__printf_impl+0x3ea>
    62fc:	418484b3          	sub	s1,s1,s8
    6300:	409a04b3          	sub	s1,s4,s1
    6304:	00904d63          	bgtz	s1,631e <__printf_impl+0x3f8>
    6308:	0905                	c.addi	s2,1
    630a:	b93d                	c.j	5f48 <__printf_impl+0x22>
    630c:	8dd6                	c.mv	s11,s5
    630e:	bfe1                	c.j	62e6 <__printf_impl+0x3c0>
    6310:	000d4503          	lbu	a0,0(s10)
    6314:	0d05                	c.addi	s10,1
    6316:	00ace533          	or	a0,s9,a0
    631a:	9982                	c.jalr	s3
    631c:	bff1                	c.j	62f8 <__printf_impl+0x3d2>
    631e:	02000513          	li	a0,32
    6322:	14fd                	c.addi	s1,-1
    6324:	9982                	c.jalr	s3
    6326:	bff9                	c.j	6304 <__printf_impl+0x3de>
    6328:	02000513          	li	a0,32
    632c:	c63e                	c.swsp	a5,12(sp)
    632e:	9982                	c.jalr	s3
    6330:	47b2                	c.lwsp	a5,12(sp)
    6332:	17fd                	c.addi	a5,-1
    6334:	bdbd                	c.j	61b2 <__printf_impl+0x28c>
    6336:	0007c503          	lbu	a0,0(a5) # 80000000 <_DATA_LMA_START+0x5fff9428>
    633a:	c63e                	c.swsp	a5,12(sp)
    633c:	00ace533          	or	a0,s9,a0
    6340:	9982                	c.jalr	s3
    6342:	47b2                	c.lwsp	a5,12(sp)
    6344:	0785                	c.addi	a5,1
    6346:	ffa7e8e3          	bltu	a5,s10,6336 <__printf_impl+0x410>
    634a:	4781                	c.li	a5,0
    634c:	015d6463          	bltu	s10,s5,6354 <__printf_impl+0x42e>
    6350:	41aa87b3          	sub	a5,s5,s10
    6354:	9a3e                	c.add	s4,a5
    6356:	5782                	c.lwsp	a5,32(sp)
    6358:	0057f65b          	bbc	a5,5,6364 <__printf_impl+0x43e>
    635c:	41ba0a33          	sub	s4,s4,s11
    6360:	01404b63          	bgtz	s4,6376 <__printf_impl+0x450>
    6364:	fb8482e3          	beq	s1,s8,6308 <__printf_impl+0x3e2>
    6368:	000c4503          	lbu	a0,0(s8)
    636c:	0c05                	c.addi	s8,1
    636e:	00ace533          	or	a0,s9,a0
    6372:	9982                	c.jalr	s3
    6374:	bfc5                	c.j	6364 <__printf_impl+0x43e>
    6376:	03000513          	li	a0,48
    637a:	1a7d                	c.addi	s4,-1
    637c:	9982                	c.jalr	s3
    637e:	b7cd                	c.j	6360 <__printf_impl+0x43a>

00006380 <__int_to_poly>:
__int_to_poly():
    6380:	872a                	c.mv	a4,a0
    6382:	87ae                	c.mv	a5,a1
    6384:	4501                	c.li	a0,0
    6386:	00f766b3          	or	a3,a4,a5
    638a:	e291                	c.bnez	a3,638e <__int_to_poly+0xe>
    638c:	8082                	c.jr	ra
    638e:	0aa606db          	lea.h	a3,a2,a0
    6392:	00e69023          	sh	a4,0(a3)
    6396:	0505                	c.addi	a0,1
    6398:	df07077f          	wexti	a4,a4,16
    639c:	83c1                	c.srli	a5,0x10
    639e:	b7e5                	c.j	6386 <__int_to_poly+0x6>

000063a0 <__print_integral_poly>:
__print_integral_poly():
    63a0:	835ff2ef          	jal	t0,5bd4 <__riscv_save_0>
    63a4:	84ba                	c.mv	s1,a4
    63a6:	fff80893          	addi	a7,a6,-1 # fffff <_STACK_TOP+0x5ffff>
    63aa:	0b07875b          	lea.h	a4,a5,a6
    63ae:	8346                	c.mv	t1,a7
    63b0:	4401                	c.li	s0,0
    63b2:	8e3a                	c.mv	t3,a4
    63b4:	1779                	c.addi	a4,-2
    63b6:	02035663          	bgez	t1,63e2 <__print_integral_poly+0x42>
    63ba:	05005063          	blez	a6,63fa <__print_integral_poly+0x5a>
    63be:	ffee5703          	lhu	a4,-2(t3)
    63c2:	e701                	c.bnez	a4,63ca <__print_integral_poly+0x2a>
    63c4:	03105b63          	blez	a7,63fa <__print_integral_poly+0x5a>
    63c8:	8846                	c.mv	a6,a7
    63ca:	8726                	c.mv	a4,s1
    63cc:	16fd                	c.addi	a3,-1
    63ce:	3fc9                	c.jal	63a0 <__print_integral_poly>
    63d0:	87aa                	c.mv	a5,a0
    63d2:	0505                	c.addi	a0,1
    63d4:	00878023          	sb	s0,0(a5)
    63d8:	409c                	c.lw	a5,0(s1)
    63da:	0785                	c.addi	a5,1
    63dc:	c09c                	c.sw	a5,0(s1)
    63de:	81bff06f          	j	5bf8 <__riscv_restore_0>
    63e2:	00075e83          	lhu	t4,0(a4)
    63e6:	0442                	c.slli	s0,0x10
    63e8:	9476                	c.add	s0,t4
    63ea:	02b45eb3          	divu	t4,s0,a1
    63ee:	137d                	c.addi	t1,-1
    63f0:	02b47433          	remu	s0,s0,a1
    63f4:	01d71023          	sh	t4,0(a4)
    63f8:	bf75                	c.j	63b4 <__print_integral_poly+0x14>
    63fa:	c011                	c.beqz	s0,63fe <__print_integral_poly+0x5e>
    63fc:	16fd                	c.addi	a3,-1
    63fe:	00d04763          	bgtz	a3,640c <__print_integral_poly+0x6c>
    6402:	0085ee5b          	bnec	a1,8,641e <__print_integral_poly+0x7e>
    6406:	00467c5b          	bbc	a2,4,641e <__print_integral_poly+0x7e>
    640a:	4685                	c.li	a3,1
    640c:	4781                	c.li	a5,0
    640e:	00f50733          	add	a4,a0,a5
    6412:	00070023          	sb	zero,0(a4)
    6416:	0785                	c.addi	a5,1
    6418:	fed7cbe3          	blt	a5,a3,640e <__print_integral_poly+0x6e>
    641c:	9536                	c.add	a0,a3
    641e:	dc4d                	c.beqz	s0,63d8 <__print_integral_poly+0x38>
    6420:	00850023          	sb	s0,0(a0)
    6424:	0505                	c.addi	a0,1
    6426:	bf4d                	c.j	63d8 <__print_integral_poly+0x38>

00006428 <__printf_float_impl>:
__printf_float_impl():
    6428:	f7cff2ef          	jal	t0,5ba4 <__riscv_save_12>
    642c:	7169                	c.addi16sp	sp,-304
    642e:	0df7fd13          	andi	s10,a5,223
    6432:	c03e                	c.swsp	a5,0(sp)
    6434:	8aaa                	c.mv	s5,a0
    6436:	892e                	c.mv	s2,a1
    6438:	84b2                	c.mv	s1,a2
    643a:	8c36                	c.mv	s8,a3
    643c:	8cba                	c.mv	s9,a4
    643e:	467d6d5b          	bnec	s10,71,64b8 <__printf_float_impl+0x90>
    6442:	0005a983          	lw	s3,0(a1) # 80000000 <_DATA_LMA_START+0x5fff9428>
    6446:	0109c993          	xori	s3,s3,16
    644a:	1049a9db          	bfoz	s3,s3,4,4
    644e:	0604db63          	bgez	s1,64c4 <__printf_float_impl+0x9c>
    6452:	44b5                	c.li	s1,13
    6454:	401d535b          	beqc	s10,65,645a <__printf_float_impl+0x32>
    6458:	4499                	c.li	s1,6
    645a:	dffc047f          	wexti	s0,s8,31
    645e:	c262                	c.swsp	s8,4(sp)
    6460:	8055                	c.srli	s0,0x15
    6462:	4c0caa5b          	bfoz	s4,s9,19,0
    6466:	000cd863          	bgez	s9,6476 <__printf_float_impl+0x4e>
    646a:	00092703          	lw	a4,0(s2)
    646e:	40076713          	ori	a4,a4,1024
    6472:	00e92023          	sw	a4,0(s2)
    6476:	401d6a5b          	bnec	s10,65,648a <__printf_float_impl+0x62>
    647a:	00092703          	lw	a4,0(s2)
    647e:	6685                	c.lui	a3,0x1
    6480:	80068693          	addi	a3,a3,-2048 # 800 <flash_mspi_read_ram+0x54>
    6484:	8f55                	c.or	a4,a3
    6486:	00e92023          	sw	a4,0(s2)
    648a:	7ff00713          	li	a4,2047
    648e:	04e41663          	bne	s0,a4,64da <__printf_float_impl+0xb2>
    6492:	00092703          	lw	a4,0(s2)
    6496:	018a65b3          	or	a1,s4,s8
    649a:	fdf77713          	andi	a4,a4,-33
    649e:	00e92023          	sw	a4,0(s2)
    64a2:	c59d                	c.beqz	a1,64d0 <__printf_float_impl+0xa8>
    64a4:	000815b7          	lui	a1,0x81
    64a8:	67458593          	addi	a1,a1,1652 # 81674 <__digits+0x94>
    64ac:	8556                	c.mv	a0,s5
    64ae:	2ead                	c.jal	6828 <strcpy>
    64b0:	050d                	c.addi	a0,3
    64b2:	6155                	c.addi16sp	sp,304
    64b4:	f2cff06f          	j	5be0 <__riscv_restore_12>
    64b8:	4981                	c.li	s3,0
    64ba:	f81d6a5b          	bnec	s10,65,644e <__printf_float_impl+0x26>
    64be:	01f65993          	srli	s3,a2,0x1f
    64c2:	b771                	c.j	644e <__printf_float_impl+0x26>
    64c4:	f8d9                	c.bnez	s1,645a <__printf_float_impl+0x32>
    64c6:	fb9d0493          	addi	s1,s10,-71
    64ca:	0014b493          	seqz	s1,s1
    64ce:	b771                	c.j	645a <__printf_float_impl+0x32>
    64d0:	000815b7          	lui	a1,0x81
    64d4:	67858593          	addi	a1,a1,1656 # 81678 <__digits+0x98>
    64d8:	bfd1                	c.j	64ac <__printf_float_impl+0x84>
    64da:	e811                	c.bnez	s0,64ee <__printf_float_impl+0xc6>
    64dc:	018a6733          	or	a4,s4,s8
    64e0:	c0300413          	li	s0,-1021
    64e4:	18071263          	bnez	a4,6668 <__printf_float_impl+0x240>
    64e8:	03500413          	li	s0,53
    64ec:	a819                	c.j	6502 <__printf_float_impl+0xda>
    64ee:	00100737          	lui	a4,0x100
    64f2:	01476a33          	or	s4,a4,s4
    64f6:	c0240413          	addi	s0,s0,-1022
    64fa:	03400713          	li	a4,52
    64fe:	16875363          	bge	a4,s0,6664 <__printf_float_impl+0x23c>
    6502:	fcb40413          	addi	s0,s0,-53
    6506:	00445b13          	srli	s6,s0,0x4
    650a:	001b1b93          	slli	s7,s6,0x1
    650e:	865e                	c.mv	a2,s7
    6510:	4581                	c.li	a1,0
    6512:	1008                	c.addi4spn	a0,sp,32
    6514:	2695                	c.jal	6878 <memset>
    6516:	883d                	c.andi	s0,15
    6518:	1a14                	c.addi4spn	a3,sp,304
    651a:	8622                	c.mv	a2,s0
    651c:	8562                	c.mv	a0,s8
    651e:	85d2                	c.mv	a1,s4
    6520:	9bb6                	c.add	s7,a3
    6522:	292d                	c.jal	695c <__ashldi3>
    6524:	0b05                	c.addi	s6,1
    6526:	100c                	c.addi4spn	a1,sp,32
    6528:	4641                	c.li	a2,16
    652a:	eeab9823          	sh	a0,-272(s7)
    652e:	8e01                	c.sub	a2,s0
    6530:	0b658bdb          	lea.h	s7,a1,s6
    6534:	8562                	c.mv	a0,s8
    6536:	85d2                	c.mv	a1,s4
    6538:	2ed5                	c.jal	692c <__lshrdi3>
    653a:	865e                	c.mv	a2,s7
    653c:	3591                	c.jal	6380 <__int_to_poly>
    653e:	4d81                	c.li	s11,0
    6540:	9b2a                	c.add	s6,a0
    6542:	57fd                	c.li	a5,-1
    6544:	ce3e                	c.swsp	a5,28(sp)
    6546:	4441                	c.li	s0,16
    6548:	401d535b          	beqc	s10,65,654e <__printf_float_impl+0x126>
    654c:	4429                	c.li	s0,10
    654e:	885a                	c.mv	a6,s6
    6550:	101c                	c.addi4spn	a5,sp,32
    6552:	4685                	c.li	a3,1
    6554:	85a2                	c.mv	a1,s0
    6556:	0878                	c.addi4spn	a4,sp,28
    6558:	4601                	c.li	a2,0
    655a:	8556                	c.mv	a0,s5
    655c:	3591                	c.jal	63a0 <__print_integral_poly>
    655e:	4582                	c.lwsp	a1,0(sp)
    6560:	02e00793          	li	a5,46
    6564:	001b3b13          	seqz	s6,s6
    6568:	00f50023          	sb	a5,0(a0)
    656c:	0db5fa13          	andi	s4,a1,219
    6570:	00150693          	addi	a3,a0,1
    6574:	87da                	c.mv	a5,s6
    6576:	401a535b          	beqc	s4,65,657c <__printf_float_impl+0x154>
    657a:	4781                	c.li	a5,0
    657c:	00148713          	addi	a4,s1,1
    6580:	973e                	c.add	a4,a5
    6582:	fffd8893          	addi	a7,s11,-1
    6586:	1130                	c.addi4spn	a2,sp,168
    6588:	001d9593          	slli	a1,s11,0x1
    658c:	0bb6065b          	lea.h	a2,a2,s11
    6590:	8846                	c.mv	a6,a7
    6592:	4781                	c.li	a5,0
    6594:	1679                	c.addi	a2,-2
    6596:	16085c63          	bgez	a6,670e <__printf_float_impl+0x2e6>
    659a:	01b05863          	blez	s11,65aa <__printf_float_impl+0x182>
    659e:	1a10                	c.addi4spn	a2,sp,304
    65a0:	962e                	c.add	a2,a1
    65a2:	f7665603          	lhu	a2,-138(a2)
    65a6:	e211                	c.bnez	a2,65aa <__printf_float_impl+0x182>
    65a8:	8dc6                	c.mv	s11,a7
    65aa:	160b0b63          	beqz	s6,6720 <__printf_float_impl+0x2f8>
    65ae:	4672                	c.lwsp	a2,28(sp)
    65b0:	0017bb13          	seqz	s6,a5
    65b4:	167d                	c.addi	a2,-1
    65b6:	ce32                	c.swsp	a2,28(sp)
    65b8:	00f68023          	sb	a5,0(a3)
    65bc:	0685                	c.addi	a3,1
    65be:	f371                	c.bnez	a4,6582 <__printf_float_impl+0x15a>
    65c0:	567d635b          	bnec	s10,71,6726 <__printf_float_impl+0x2fe>
    65c4:	47f2                	c.lwsp	a5,28(sp)
    65c6:	fff48713          	addi	a4,s1,-1
    65ca:	1897d063          	bge	a5,s1,674a <__printf_float_impl+0x322>
    65ce:	5671                	c.li	a2,-4
    65d0:	16c7cd63          	blt	a5,a2,674a <__printf_float_impl+0x322>
    65d4:	40f704b3          	sub	s1,a4,a5
    65d8:	04600d13          	li	s10,70
    65dc:	0489                	c.addi	s1,2
    65de:	9526                	c.add	a0,s1
    65e0:	fff54683          	lbu	a3,-1(a0)
    65e4:	40145713          	srai	a4,s0,0x1
    65e8:	fff50793          	addi	a5,a0,-1
    65ec:	00e6a6b3          	slt	a3,a3,a4
    65f0:	0016c693          	xori	a3,a3,1
    65f4:	863e                	c.mv	a2,a5
    65f6:	1acaf563          	bgeu	s5,a2,67a0 <__printf_float_impl+0x378>
    65fa:	18069163          	bnez	a3,677c <__printf_float_impl+0x354>
    65fe:	17fd                	c.addi	a5,-1
    6600:	00178513          	addi	a0,a5,1
    6604:	00faf763          	bgeu	s5,a5,6612 <__printf_float_impl+0x1ea>
    6608:	00098563          	beqz	s3,6612 <__printf_float_impl+0x1ea>
    660c:	0007c703          	lbu	a4,0(a5)
    6610:	d77d                	c.beqz	a4,65fe <__printf_float_impl+0x1d6>
    6612:	fff54783          	lbu	a5,-1(a0)
    6616:	00e7e7db          	bnec	a5,46,6624 <__printf_float_impl+0x1fc>
    661a:	00092783          	lw	a5,0(s2)
    661e:	4047f35b          	bbs	a5,4,6624 <__printf_float_impl+0x1fc>
    6622:	157d                	c.addi	a0,-1
    6624:	46bd                	c.li	a3,15
    6626:	5e10170b          	addigp	a4,3552 # 815e0 <__digits>
    662a:	1aaae963          	bltu	s5,a0,67dc <__printf_float_impl+0x3b4>
    662e:	5c5d625b          	bnec	s10,69,67f2 <__printf_float_impl+0x3ca>
    6632:	01a50023          	sb	s10,0(a0)
    6636:	4772                	c.lwsp	a4,28(sp)
    6638:	02b00793          	li	a5,43
    663c:	00075463          	bgez	a4,6644 <__printf_float_impl+0x21c>
    6640:	02d00793          	li	a5,45
    6644:	00f500a3          	sb	a5,1(a0)
    6648:	47f2                	c.lwsp	a5,28(sp)
    664a:	4689                	c.li	a3,2
    664c:	40f00733          	neg	a4,a5
    6650:	f2f7077f          	maxw	a4,a4,a5
    6654:	41f75793          	srai	a5,a4,0x1f
    6658:	4601                	c.li	a2,0
    665a:	45a9                	c.li	a1,10
    665c:	0509                	c.addi	a0,2
    665e:	881ff0ef          	jal	ra,5ede <__print_integral>
    6662:	bd81                	c.j	64b2 <__printf_float_impl+0x8a>
    6664:	06804063          	bgtz	s0,66c4 <__printf_float_impl+0x29c>
    6668:	40800433          	neg	s0,s0
    666c:	00445b13          	srli	s6,s0,0x4
    6670:	001b1b93          	slli	s7,s6,0x1
    6674:	865e                	c.mv	a2,s7
    6676:	4581                	c.li	a1,0
    6678:	1128                	c.addi4spn	a0,sp,168
    667a:	2afd                	c.jal	6878 <memset>
    667c:	1134                	c.addi4spn	a3,sp,168
    667e:	883d                	c.andi	s0,15
    6680:	9bb6                	c.add	s7,a3
    6682:	02540413          	addi	s0,s0,37
    6686:	885e                	c.mv	a6,s7
    6688:	4701                	c.li	a4,0
    668a:	4512                	c.lwsp	a0,4(sp)
    668c:	8622                	c.mv	a2,s0
    668e:	8dba                	c.mv	s11,a4
    6690:	85d2                	c.mv	a1,s4
    6692:	0705                	c.addi	a4,1
    6694:	c642                	c.swsp	a6,12(sp)
    6696:	c43a                	c.swsp	a4,8(sp)
    6698:	2c51                	c.jal	692c <__lshrdi3>
    669a:	4832                	c.lwsp	a6,12(sp)
    669c:	1441                	c.addi	s0,-16
    669e:	00a81023          	sh	a0,0(a6)
    66a2:	4722                	c.lwsp	a4,8(sp)
    66a4:	0809                	c.addi	a6,2
    66a6:	fe0452e3          	bgez	s0,668a <__printf_float_impl+0x262>
    66aa:	0aeb8bdb          	lea.h	s7,s7,a4
    66ae:	40800633          	neg	a2,s0
    66b2:	8562                	c.mv	a0,s8
    66b4:	85d2                	c.mv	a1,s4
    66b6:	0d89                	c.addi	s11,2
    66b8:	9dda                	c.add	s11,s6
    66ba:	244d                	c.jal	695c <__ashldi3>
    66bc:	4b01                	c.li	s6,0
    66be:	00ab9023          	sh	a0,0(s7)
    66c2:	b541                	c.j	6542 <__printf_float_impl+0x11a>
    66c4:	03500613          	li	a2,53
    66c8:	8e01                	c.sub	a2,s0
    66ca:	8562                	c.mv	a0,s8
    66cc:	85d2                	c.mv	a1,s4
    66ce:	2cb9                	c.jal	692c <__lshrdi3>
    66d0:	1010                	c.addi4spn	a2,sp,32
    66d2:	cafff0ef          	jal	ra,6380 <__int_to_poly>
    66d6:	02500613          	li	a2,37
    66da:	8b2a                	c.mv	s6,a0
    66dc:	40860433          	sub	s0,a2,s0
    66e0:	0a810b93          	addi	s7,sp,168
    66e4:	4d81                	c.li	s11,0
    66e6:	0d85                	c.addi	s11,1
    66e8:	00045a63          	bgez	s0,66fc <__printf_float_impl+0x2d4>
    66ec:	40800633          	neg	a2,s0
    66f0:	8562                	c.mv	a0,s8
    66f2:	85d2                	c.mv	a1,s4
    66f4:	24a5                	c.jal	695c <__ashldi3>
    66f6:	00ab9023          	sh	a0,0(s7)
    66fa:	b5a1                	c.j	6542 <__printf_float_impl+0x11a>
    66fc:	4512                	c.lwsp	a0,4(sp)
    66fe:	8622                	c.mv	a2,s0
    6700:	85d2                	c.mv	a1,s4
    6702:	242d                	c.jal	692c <__lshrdi3>
    6704:	1441                	c.addi	s0,-16
    6706:	00ab9023          	sh	a0,0(s7)
    670a:	0b89                	c.addi	s7,2
    670c:	bfe9                	c.j	66e6 <__printf_float_impl+0x2be>
    670e:	00065303          	lhu	t1,0(a2)
    6712:	187d                	c.addi	a6,-1
    6714:	c48317ff          	maddr32	a5,t1,s0
    6718:	00f61023          	sh	a5,0(a2)
    671c:	83c1                	c.srli	a5,0x10
    671e:	bd9d                	c.j	6594 <__printf_float_impl+0x16c>
    6720:	177d                	c.addi	a4,-1
    6722:	4b01                	c.li	s6,0
    6724:	bd51                	c.j	65b8 <__printf_float_impl+0x190>
    6726:	8726                	c.mv	a4,s1
    6728:	ea6d5a5b          	beqc	s10,70,65dc <__printf_float_impl+0x1b4>
    672c:	47f2                	c.lwsp	a5,28(sp)
    672e:	001a8613          	addi	a2,s5,1 # c01a0001 <_DATA_LMA_START+0xa0199429>
    6732:	02f04463          	bgtz	a5,675a <__printf_float_impl+0x332>
    6736:	c785                	c.beqz	a5,675e <__printf_float_impl+0x336>
    6738:	40f507b3          	sub	a5,a0,a5
    673c:	02d7e963          	bltu	a5,a3,676e <__printf_float_impl+0x346>
    6740:	001ac783          	lbu	a5,1(s5)
    6744:	00fa8023          	sb	a5,0(s5)
    6748:	a819                	c.j	675e <__printf_float_impl+0x336>
    674a:	04500d13          	li	s10,69
    674e:	bff9                	c.j	672c <__printf_float_impl+0x304>
    6750:	fff54783          	lbu	a5,-1(a0)
    6754:	157d                	c.addi	a0,-1
    6756:	00f500a3          	sb	a5,1(a0)
    675a:	fec51be3          	bne	a0,a2,6750 <__printf_float_impl+0x328>
    675e:	02e00793          	li	a5,46
    6762:	001a8513          	addi	a0,s5,1
    6766:	84ba                	c.mv	s1,a4
    6768:	00fa80a3          	sb	a5,1(s5)
    676c:	bd85                	c.j	65dc <__printf_float_impl+0x1b4>
    676e:	0007c603          	lbu	a2,0(a5)
    6772:	0785                	c.addi	a5,1
    6774:	0505                	c.addi	a0,1
    6776:	fec50fa3          	sb	a2,-1(a0)
    677a:	b7c9                	c.j	673c <__printf_float_impl+0x314>
    677c:	167d                	c.addi	a2,-1
    677e:	00064703          	lbu	a4,0(a2)
    6782:	a6e75adb          	beqc	a4,46,65f6 <__printf_float_impl+0x1ce>
    6786:	0705                	c.addi	a4,1
    6788:	0ff77713          	andi	a4,a4,255
    678c:	00875663          	bge	a4,s0,6798 <__printf_float_impl+0x370>
    6790:	4681                	c.li	a3,0
    6792:	00e60023          	sb	a4,0(a2)
    6796:	b585                	c.j	65f6 <__printf_float_impl+0x1ce>
    6798:	8f01                	c.sub	a4,s0
    679a:	00e60023          	sb	a4,0(a2)
    679e:	bda1                	c.j	65f6 <__printf_float_impl+0x1ce>
    67a0:	873e                	c.mv	a4,a5
    67a2:	e4068ee3          	beqz	a3,65fe <__printf_float_impl+0x1d6>
    67a6:	02eae363          	bltu	s5,a4,67cc <__printf_float_impl+0x3a4>
    67aa:	4705                	c.li	a4,1
    67ac:	00ea8023          	sb	a4,0(s5)
    67b0:	4772                	c.lwsp	a4,28(sp)
    67b2:	0705                	c.addi	a4,1
    67b4:	ce3a                	c.swsp	a4,28(sp)
    67b6:	426d515b          	beqc	s10,70,67d8 <__printf_float_impl+0x3b0>
    67ba:	001ac703          	lbu	a4,1(s5)
    67be:	00ea8123          	sb	a4,2(s5)
    67c2:	02e00713          	li	a4,46
    67c6:	00ea80a3          	sb	a4,1(s5)
    67ca:	bd15                	c.j	65fe <__printf_float_impl+0x1d6>
    67cc:	fff74683          	lbu	a3,-1(a4) # fffff <_STACK_TOP+0x5ffff>
    67d0:	177d                	c.addi	a4,-1
    67d2:	00d700a3          	sb	a3,1(a4)
    67d6:	bfc1                	c.j	67a6 <__printf_float_impl+0x37e>
    67d8:	87aa                	c.mv	a5,a0
    67da:	b515                	c.j	65fe <__printf_float_impl+0x1d6>
    67dc:	000ac783          	lbu	a5,0(s5)
    67e0:	00f6e763          	bltu	a3,a5,67ee <__printf_float_impl+0x3c6>
    67e4:	97ba                	c.add	a5,a4
    67e6:	0007c783          	lbu	a5,0(a5)
    67ea:	00fa8023          	sb	a5,0(s5)
    67ee:	0a85                	c.addi	s5,1
    67f0:	bd2d                	c.j	662a <__printf_float_impl+0x202>
    67f2:	cc1d605b          	bnec	s10,65,64b2 <__printf_float_impl+0x8a>
    67f6:	05000793          	li	a5,80
    67fa:	00f50023          	sb	a5,0(a0)
    67fe:	4772                	c.lwsp	a4,28(sp)
    6800:	02b00793          	li	a5,43
    6804:	00075463          	bgez	a4,680c <__printf_float_impl+0x3e4>
    6808:	02d00793          	li	a5,45
    680c:	00f500a3          	sb	a5,1(a0)
    6810:	4772                	c.lwsp	a4,28(sp)
    6812:	4685                	c.li	a3,1
    6814:	40e007b3          	neg	a5,a4
    6818:	f2e787ff          	maxw	a5,a5,a4
    681c:	00279713          	slli	a4,a5,0x2
    6820:	75d7b7db          	bfos	a5,a5,29,29
    6824:	bd15                	c.j	6658 <__printf_float_impl+0x230>
	...

00006828 <strcpy>:
strcpy():
    6828:	832a                	c.mv	t1,a0
    682a:	00b566b3          	or	a3,a0,a1
    682e:	8a8d                	c.andi	a3,3
    6830:	ee91                	c.bnez	a3,684c <strcpy+0x24>
    6832:	419c                	c.lw	a5,0(a1)
    6834:	2007875b          	ffb	a4,a5,zero
    6838:	00071a63          	bnez	a4,684c <strcpy+0x24>
    683c:	0591                	c.addi	a1,4
    683e:	c11c                	c.sw	a5,0(a0)
    6840:	0511                	c.addi	a0,4
    6842:	419c                	c.lw	a5,0(a1)
    6844:	2007875b          	ffb	a4,a5,zero
    6848:	fe070ae3          	beqz	a4,683c <strcpy+0x14>
    684c:	0005c683          	lbu	a3,0(a1)
    6850:	0585                	c.addi	a1,1
    6852:	00d50023          	sb	a3,0(a0)
    6856:	0505                	c.addi	a0,1
    6858:	faf5                	c.bnez	a3,684c <strcpy+0x24>
    685a:	851a                	c.mv	a0,t1
    685c:	8082                	c.jr	ra

0000685e <strnlen>:
strnlen():
    685e:	95aa                	c.add	a1,a0
    6860:	87aa                	c.mv	a5,a0
    6862:	00b78563          	beq	a5,a1,686c <strnlen+0xe>
    6866:	0007c703          	lbu	a4,0(a5)
    686a:	e701                	c.bnez	a4,6872 <strnlen+0x14>
    686c:	40a78533          	sub	a0,a5,a0
    6870:	8082                	c.jr	ra
    6872:	0785                	c.addi	a5,1
    6874:	b7fd                	c.j	6862 <strnlen+0x4>
	...

00006878 <memset>:
memset():
    6878:	832a                	c.mv	t1,a0
    687a:	00c503b3          	add	t2,a0,a2
    687e:	00357693          	andi	a3,a0,3
    6882:	ce81                	c.beqz	a3,689a <memset+0x22>
    6884:	ffc68693          	addi	a3,a3,-4
    6888:	40d507b3          	sub	a5,a0,a3
    688c:	06f3e463          	bltu	t2,a5,68f4 <memset+0x7c>
    6890:	00b50023          	sb	a1,0(a0)
    6894:	0505                	c.addi	a0,1
    6896:	fea79de3          	bne	a5,a0,6890 <memset+0x18>
    689a:	04750d63          	beq	a0,t2,68f4 <memset+0x7c>
    689e:	05e2                	c.slli	a1,0x18
    68a0:	0085d793          	srli	a5,a1,0x8
    68a4:	95be                	c.add	a1,a5
    68a6:	0105d793          	srli	a5,a1,0x10
    68aa:	95be                	c.add	a1,a5
    68ac:	40a38633          	sub	a2,t2,a0
    68b0:	02000713          	li	a4,32
    68b4:	fe067693          	andi	a3,a2,-32
    68b8:	00a687b3          	add	a5,a3,a0
    68bc:	e285                	c.bnez	a3,68dc <memset+0x64>
    68be:	ffc67693          	andi	a3,a2,-4
    68c2:	ca8d                	c.beqz	a3,68f4 <memset+0x7c>
    68c4:	40d70633          	sub	a2,a4,a3
    68c8:	00a687b3          	add	a5,a3,a0
    68cc:	8736                	c.mv	a4,a3
    68ce:	8205                	c.srli	a2,0x1
    68d0:	00000697          	auipc	a3,0x0
    68d4:	00c686b3          	add	a3,a3,a2
    68d8:	00c68067          	jr	12(a3) # 68dc <memset+0x64>
    68dc:	cd4c                	c.sw	a1,28(a0)
    68de:	cd0c                	c.sw	a1,24(a0)
    68e0:	c94c                	c.sw	a1,20(a0)
    68e2:	c90c                	c.sw	a1,16(a0)
    68e4:	c54c                	c.sw	a1,12(a0)
    68e6:	c50c                	c.sw	a1,8(a0)
    68e8:	c14c                	c.sw	a1,4(a0)
    68ea:	c10c                	c.sw	a1,0(a0)
    68ec:	953a                	c.add	a0,a4
    68ee:	fef517e3          	bne	a0,a5,68dc <memset+0x64>
    68f2:	bf6d                	c.j	68ac <memset+0x34>
    68f4:	879e                	c.mv	a5,t2
    68f6:	f8751de3          	bne	a0,t2,6890 <memset+0x18>
    68fa:	851a                	c.mv	a0,t1
    68fc:	8082                	c.jr	ra

000068fe <_sbrk>:
_sbrk():
    68fe:	6bd0272b          	lwgp	a4,3772 # 816bc <heap_end.0>
    6902:	e709                	c.bnez	a4,690c <_sbrk+0xe>
    6904:	6e90170b          	addigp	a4,3816 # 816e8 <_end>
    6908:	6ae04eab          	swgp	a4,3772 # 816bc <heap_end.0>
    690c:	6bd026ab          	lwgp	a3,3772 # 816bc <heap_end.0>
    6910:	00d50733          	add	a4,a0,a3
    6914:	00e17763          	bgeu	sp,a4,6922 <_sbrk+0x24>
    6918:	4731                	c.li	a4,12
    691a:	557d                	c.li	a0,-1
    691c:	6ae042ab          	swgp	a4,3748 # 816a4 <__mculib_REENT_errno>
    6920:	8082                	c.jr	ra
    6922:	8536                	c.mv	a0,a3
    6924:	6ae04eab          	swgp	a4,3772 # 816bc <heap_end.0>
    6928:	8082                	c.jr	ra
	...

0000692c <__lshrdi3>:
__lshrdi3():
/cygdrive/d/Jenkins/workspace/build-system-3/source-packages/gcc-7.4.0-riscv-bsp-v5_1_0-branch/libgcc/libgcc2.c:406
    692c:	ce11                	c.beqz	a2,6948 <__lshrdi3+0x1c>
/cygdrive/d/Jenkins/workspace/build-system-3/source-packages/gcc-7.4.0-riscv-bsp-v5_1_0-branch/libgcc/libgcc2.c:410
    692e:	02000793          	li	a5,32
    6932:	8f91                	c.sub	a5,a2
/cygdrive/d/Jenkins/workspace/build-system-3/source-packages/gcc-7.4.0-riscv-bsp-v5_1_0-branch/libgcc/libgcc2.c:413
    6934:	00f05c63          	blez	a5,694c <__lshrdi3+0x20>
/cygdrive/d/Jenkins/workspace/build-system-3/source-packages/gcc-7.4.0-riscv-bsp-v5_1_0-branch/libgcc/libgcc2.c:423
    6938:	00c55533          	srl	a0,a0,a2
/cygdrive/d/Jenkins/workspace/build-system-3/source-packages/gcc-7.4.0-riscv-bsp-v5_1_0-branch/libgcc/libgcc2.c:420
    693c:	00f597b3          	sll	a5,a1,a5
/cygdrive/d/Jenkins/workspace/build-system-3/source-packages/gcc-7.4.0-riscv-bsp-v5_1_0-branch/libgcc/libgcc2.c:422
    6940:	00c5d633          	srl	a2,a1,a2
/cygdrive/d/Jenkins/workspace/build-system-3/source-packages/gcc-7.4.0-riscv-bsp-v5_1_0-branch/libgcc/libgcc2.c:423
    6944:	8d5d                	c.or	a0,a5
/cygdrive/d/Jenkins/workspace/build-system-3/source-packages/gcc-7.4.0-riscv-bsp-v5_1_0-branch/libgcc/libgcc2.c:426
    6946:	85b2                	c.mv	a1,a2
/cygdrive/d/Jenkins/workspace/build-system-3/source-packages/gcc-7.4.0-riscv-bsp-v5_1_0-branch/libgcc/libgcc2.c:427
    6948:	00008067          	ret
/cygdrive/d/Jenkins/workspace/build-system-3/source-packages/gcc-7.4.0-riscv-bsp-v5_1_0-branch/libgcc/libgcc2.c:416
    694c:	40f00533          	neg	a0,a5
/cygdrive/d/Jenkins/workspace/build-system-3/source-packages/gcc-7.4.0-riscv-bsp-v5_1_0-branch/libgcc/libgcc2.c:415
    6950:	4601                	c.li	a2,0
/cygdrive/d/Jenkins/workspace/build-system-3/source-packages/gcc-7.4.0-riscv-bsp-v5_1_0-branch/libgcc/libgcc2.c:416
    6952:	00a5d533          	srl	a0,a1,a0
/cygdrive/d/Jenkins/workspace/build-system-3/source-packages/gcc-7.4.0-riscv-bsp-v5_1_0-branch/libgcc/libgcc2.c:426
    6956:	85b2                	c.mv	a1,a2
    6958:	bfc5                	c.j	6948 <__lshrdi3+0x1c>
    695a:	0001                	c.nop

0000695c <__ashldi3>:
__ashldi3():
/cygdrive/d/Jenkins/workspace/build-system-3/source-packages/gcc-7.4.0-riscv-bsp-v5_1_0-branch/libgcc/libgcc2.c:434
    695c:	ce11                	c.beqz	a2,6978 <__ashldi3+0x1c>
/cygdrive/d/Jenkins/workspace/build-system-3/source-packages/gcc-7.4.0-riscv-bsp-v5_1_0-branch/libgcc/libgcc2.c:438
    695e:	02000793          	li	a5,32
    6962:	8f91                	c.sub	a5,a2
/cygdrive/d/Jenkins/workspace/build-system-3/source-packages/gcc-7.4.0-riscv-bsp-v5_1_0-branch/libgcc/libgcc2.c:441
    6964:	00f05c63          	blez	a5,697c <__ashldi3+0x20>
/cygdrive/d/Jenkins/workspace/build-system-3/source-packages/gcc-7.4.0-riscv-bsp-v5_1_0-branch/libgcc/libgcc2.c:451
    6968:	00c595b3          	sll	a1,a1,a2
/cygdrive/d/Jenkins/workspace/build-system-3/source-packages/gcc-7.4.0-riscv-bsp-v5_1_0-branch/libgcc/libgcc2.c:448
    696c:	00f557b3          	srl	a5,a0,a5
/cygdrive/d/Jenkins/workspace/build-system-3/source-packages/gcc-7.4.0-riscv-bsp-v5_1_0-branch/libgcc/libgcc2.c:450
    6970:	00c51633          	sll	a2,a0,a2
/cygdrive/d/Jenkins/workspace/build-system-3/source-packages/gcc-7.4.0-riscv-bsp-v5_1_0-branch/libgcc/libgcc2.c:451
    6974:	8ddd                	c.or	a1,a5
/cygdrive/d/Jenkins/workspace/build-system-3/source-packages/gcc-7.4.0-riscv-bsp-v5_1_0-branch/libgcc/libgcc2.c:454
    6976:	8532                	c.mv	a0,a2
/cygdrive/d/Jenkins/workspace/build-system-3/source-packages/gcc-7.4.0-riscv-bsp-v5_1_0-branch/libgcc/libgcc2.c:455
    6978:	00008067          	ret
/cygdrive/d/Jenkins/workspace/build-system-3/source-packages/gcc-7.4.0-riscv-bsp-v5_1_0-branch/libgcc/libgcc2.c:444
    697c:	40f005b3          	neg	a1,a5
/cygdrive/d/Jenkins/workspace/build-system-3/source-packages/gcc-7.4.0-riscv-bsp-v5_1_0-branch/libgcc/libgcc2.c:443
    6980:	4601                	c.li	a2,0
/cygdrive/d/Jenkins/workspace/build-system-3/source-packages/gcc-7.4.0-riscv-bsp-v5_1_0-branch/libgcc/libgcc2.c:444
    6982:	00b515b3          	sll	a1,a0,a1
/cygdrive/d/Jenkins/workspace/build-system-3/source-packages/gcc-7.4.0-riscv-bsp-v5_1_0-branch/libgcc/libgcc2.c:454
    6986:	8532                	c.mv	a0,a2
    6988:	bfc5                	c.j	6978 <__ashldi3+0x1c>
    698a:	0001                	c.nop
    698c:	0010                	0x10
    698e:	0000                	unimp
    6990:	0000                	unimp
    6992:	0000                	unimp
    6994:	7a01                	c.lui	s4,0xfffe0
    6996:	0052                	c.slli	zero,0x14
    6998:	7c01                	c.lui	s8,0xfffe0
    699a:	0105                	c.addi	sp,1
    699c:	00020d1b          	sext.w	s10,tp
    69a0:	0048                	c.addi4spn	a0,sp,4
    69a2:	0000                	unimp
    69a4:	0018                	0x18
    69a6:	0000                	unimp
    69a8:	f1fc                	c.fsw	fa5,100(a1)
    69aa:	0030ffff          	0x30ffff
    69ae:	0000                	unimp
    69b0:	4200                	c.lw	s0,0(a2)
    69b2:	400e                	0x400e
    69b4:	9b44                	exec.it	#876     !
    69b6:	420d                	c.li	tp,3
    69b8:	400e42db          	0x400e42db
    69bc:	9a44                	exec.it	#364     !
    69be:	420c                	c.lw	a1,0(a2)
    69c0:	0b99                	c.addi	s7,6
    69c2:	9842                	c.add	a6,a6
    69c4:	420a                	c.lwsp	tp,128(sp)
    69c6:	d7420997          	auipc	s3,0xd7420
    69ca:	d9d8                	c.sw	a4,52(a1)
    69cc:	dbda                	c.swsp	s6,244(sp)
    69ce:	0e42                	c.slli	t3,0x10
    69d0:	4440                	c.lw	s0,12(s0)
    69d2:	0896                	c.slli	a7,0x5
    69d4:	9542                	c.add	a0,a6
    69d6:	06944207          	flq	ft4,105(s0)
    69da:	9342                	c.add	t1,a6
    69dc:	4205                	c.li	tp,1
    69de:	0492                	c.slli	s1,0x4
    69e0:	8942                	c.mv	s2,a6
    69e2:	02884203          	lbu	tp,40(a6)
    69e6:	8142                	c.mv	sp,a6
    69e8:	0001                	c.nop
    69ea:	0000                	unimp
    69ec:	001c                	0x1c
    69ee:	0000                	unimp
    69f0:	0064                	c.addi4spn	s1,sp,12
    69f2:	0000                	unimp
    69f4:	f1e0                	c.fsw	fs0,100(a1)
    69f6:	000cffff          	0xcffff
    69fa:	0000                	unimp
    69fc:	4200                	c.lw	s0,0(a2)
    69fe:	100e                	c.slli	zero,0x23
    6a00:	8944                	exec.it	#556     !
    6a02:	4204                	c.lw	s1,0(a2)
    6a04:	0288                	c.addi4spn	a0,sp,320
    6a06:	8142                	c.mv	sp,a6
    6a08:	0001                	c.nop
    6a0a:	0000                	unimp
    6a0c:	002c                	c.addi4spn	a1,sp,8
    6a0e:	0000                	unimp
    6a10:	0000                	unimp
    6a12:	0000                	unimp
    6a14:	7a01                	c.lui	s4,0xfffe0
    6a16:	0052                	c.slli	zero,0x14
    6a18:	7c01                	c.lui	s8,0xfffe0
    6a1a:	0101                	c.addi	sp,0
    6a1c:	0e020d1b          	addiw	s10,tp,224
    6a20:	9b40                	exec.it	#868     !
    6a22:	9a0d                	c.andi	a2,-29
    6a24:	990c                	exec.it	#908     !
    6a26:	970a980b          	addigp	a6,-77456 # 6d970 <BIN_SIZE+0x656ee>
    6a2a:	9609                	c.srai	a2,0x22
    6a2c:	9508                	exec.it	#898     !
    6a2e:	93069407          	flh	fs0,-1744(a3)
    6a32:	9205                	c.srli	a2,0x21
    6a34:	8904                	exec.it	#524     !
    6a36:	81028803          	lb	a6,-2032(t0)
    6a3a:	0001                	c.nop
    6a3c:	0044                	c.addi4spn	s1,sp,4
    6a3e:	0000                	unimp
    6a40:	0034                	c.addi4spn	a3,sp,8
    6a42:	0000                	unimp
    6a44:	f19c                	c.fsw	fa5,32(a1)
    6a46:	0024ffff          	0x24ffff
    6a4a:	0000                	unimp
    6a4c:	4200                	c.lw	s0,0(a2)
    6a4e:	0edb42db          	0xedb42db
    6a52:	4230                	c.lw	a2,64(a2)
    6a54:	42da                	c.lwsp	t0,148(sp)
    6a56:	42d9                	c.li	t0,22
    6a58:	42d8                	c.lw	a4,4(a3)
    6a5a:	d8d742d7          	0xd8d742d7
    6a5e:	dad9                	c.beqz	a3,69f4 <__ashldi3+0x98>
    6a60:	42200edb          	0x42200edb
    6a64:	42d6                	c.lwsp	t0,84(sp)
    6a66:	42d5                	c.li	t0,21
    6a68:	42d4                	c.lw	a3,4(a3)
    6a6a:	d4d342d3          	0xd4d342d3
    6a6e:	d6d5                	c.beqz	a3,6a1a <__ashldi3+0xbe>
    6a70:	d9d8                	c.sw	a4,52(a1)
    6a72:	dbda                	c.swsp	s6,244(sp)
    6a74:	100e                	c.slli	zero,0x23
    6a76:	d242                	c.swsp	a6,36(sp)
    6a78:	c942                	c.swsp	a6,144(sp)
    6a7a:	c842                	c.swsp	a6,16(sp)
    6a7c:	c142                	c.swsp	a6,128(sp)
    6a7e:	0e42                	c.slli	t3,0x10
    6a80:	0000                	unimp
	...
