
RV_NN_Convolution_Benchmark.adx:     file format elf32-littleriscv
RV_NN_Convolution_Benchmark.adx
architecture: riscv:rv32, flags 0x00000112:
EXEC_P, HAS_SYMS, D_PAGED
start address 0x20000000

Program Header:
    LOAD off    0x00001000 vaddr 0x20000000 paddr 0x20000000 align 2**12
         filesz 0x0000018a memsz 0x0000018a flags r-x
    LOAD off    0x00002000 vaddr 0x00000000 paddr 0x20000190 align 2**12
         filesz 0x000001bc memsz 0x000001bc flags rwx
    LOAD off    0x00002200 vaddr 0x00000200 paddr 0x20000350 align 2**12
         filesz 0x0000a784 memsz 0x0000a784 flags r-x
    LOAD off    0x0000d000 vaddr 0x00080000 paddr 0x2000aad8 align 2**12
         filesz 0x0000ba58 memsz 0x0000ba94 flags rw-
    LOAD off    0x00018a98 vaddr 0x0008ba98 paddr 0x20016530 align 2**12
         filesz 0x00000022 memsz 0x00000022 flags rw-
    LOAD off    0x00019a94 vaddr 0x0008ba94 paddr 0x2001656c align 2**12
         filesz 0x00000000 memsz 0x00000004 flags rw-
0x70000000 off    0x0002b242 vaddr 0x00000000 paddr 0x00000000 align 2**0
         filesz 0x00000040 memsz 0x00000000 flags r--

Sections:
Idx Name          Size      VMA       LMA       File off  Algn
  0 .vectors      0000018a  20000000  20000000  00001000  2**2
                  CONTENTS, ALLOC, LOAD, READONLY, CODE
  1 .retention_reset 00000154  00000000  20000190  00002000  2**2
                  CONTENTS, ALLOC, LOAD, READONLY, CODE
  2 .retention_data 00000064  00000158  200002e8  00002158  2**2
                  CONTENTS, ALLOC, LOAD, DATA
  3 .ram_code     0000a784  00000200  20000350  00002200  2**8
                  CONTENTS, ALLOC, LOAD, READONLY, CODE
  4 .data         0000ba58  00080000  2000aad8  0000d000  2**3
                  CONTENTS, ALLOC, LOAD, DATA
  5 .sbss         0000003c  0008ba58  20016530  00018a58  2**2
                  ALLOC
  6 .bss          00000004  0008ba94  2001656c  00019a94  2**2
                  ALLOC
  7 .sdk_version  00000022  0008ba98  20016530  00018a98  2**2
                  CONTENTS, ALLOC, LOAD, DATA
  8 .debug_info   000079c2  00000000  00000000  00018aba  2**0
                  CONTENTS, READONLY, DEBUGGING
  9 .debug_abbrev 00000a40  00000000  00000000  0002047c  2**0
                  CONTENTS, READONLY, DEBUGGING
 10 .debug_loc    00001f2f  00000000  00000000  00020ebc  2**0
                  CONTENTS, READONLY, DEBUGGING
 11 .debug_aranges 000001c8  00000000  00000000  00022df0  2**3
                  CONTENTS, READONLY, DEBUGGING
 12 .debug_ranges 00000a10  00000000  00000000  00022fb8  2**3
                  CONTENTS, READONLY, DEBUGGING
 13 .debug_line   00004668  00000000  00000000  000239c8  2**0
                  CONTENTS, READONLY, DEBUGGING
 14 .debug_str    000031c9  00000000  00000000  00028030  2**0
                  CONTENTS, READONLY, DEBUGGING
 15 .comment      00000049  00000000  00000000  0002b1f9  2**0
                  CONTENTS, READONLY
 16 .riscv.attributes 00000040  00000000  00000000  0002b242  2**0
                  CONTENTS, READONLY
 17 .debug_frame  000005c0  00000000  00000000  0002b284  2**2
                  CONTENTS, READONLY, DEBUGGING
SYMBOL TABLE:
20000000 l    d  .vectors	00000000 .vectors
00000000 l    d  .retention_reset	00000000 .retention_reset
00000158 l    d  .retention_data	00000000 .retention_data
00000200 l    d  .ram_code	00000000 .ram_code
00080000 l    d  .data	00000000 .data
0008ba58 l    d  .sbss	00000000 .sbss
0008ba94 l    d  .bss	00000000 .bss
0008ba98 l    d  .sdk_version	00000000 .sdk_version
00000000 l    d  .debug_info	00000000 .debug_info
00000000 l    d  .debug_abbrev	00000000 .debug_abbrev
00000000 l    d  .debug_loc	00000000 .debug_loc
00000000 l    d  .debug_aranges	00000000 .debug_aranges
00000000 l    d  .debug_ranges	00000000 .debug_ranges
00000000 l    d  .debug_line	00000000 .debug_line
00000000 l    d  .debug_str	00000000 .debug_str
00000000 l    d  .comment	00000000 .comment
00000000 l    d  .riscv.attributes	00000000 .riscv.attributes
00000000 l    d  .debug_frame	00000000 .debug_frame
00000000 l    df *ABS*	00000000 ./boot/cstartup_flash.o
20000028 l       .vectors	00000000 _START
2000008e l       .vectors	00000000 _RETENTION_RESET_INIT
200000a6 l       .vectors	00000000 _RETENTION_RESET_BEGIN
200000b8 l       .vectors	00000000 _RETENTION_DATA_INIT
200000cc l       .vectors	00000000 _RETENTION_DATA_INIT_BEGIN
200000de l       .vectors	00000000 _RAMCODE_INIT
200000f6 l       .vectors	00000000 _RAMCODE_INIT_BEGIN
20000108 l       .vectors	00000000 _DATA_INIT
20000120 l       .vectors	00000000 _DATA_INIT_BEGIN
20000132 l       .vectors	00000000 _ZERO_BSS
20000146 l       .vectors	00000000 _ZERO_BSS_BEGIN
20000152 l       .vectors	00000000 _ZERO_AES
20000166 l       .vectors	00000000 _ZERO_AES_BEGIN
20000172 l       .vectors	00000000 _FILL_STK
20000172 l       .vectors	00000000 _MAIN_FUNC
20000188 l       .vectors	00000000 _END
00000022 l       .retention_reset	00000000 _ISTART
0000002a l       .retention_reset	00000000 _ISWS_USB_DIS
00000088 l       .retention_reset	00000000 _WAKEUP_FLASH
000000a2 l       .retention_reset	00000000 _MSPI_WAIT
000000bc l       .retention_reset	00000000 _WAIT_EFUSE_LOAD_AND_FLASH_WAKEUP_FINISH
000000c2 l       .retention_reset	00000000 _MULTI_ADDRESS_BEGIN
000000d2 l       .retention_reset	00000000 _IZERO_BSS
000000e6 l       .retention_reset	00000000 _IZERO_BSS_BEGIN
000000f2 l       .retention_reset	00000000 _IZERO_AES
00000106 l       .retention_reset	00000000 _IZERO_AES_BEGIN
00000112 l       .retention_reset	00000000 _IFILL_STK
00000112 l       .retention_reset	00000000 _IDATA_INIT
0000012a l       .retention_reset	00000000 _IDATA_INIT_BEGIN
0000013c l       .retention_reset	00000000 _IMAIN_FUNC
00000152 l       .retention_reset	00000000 _IEND
00000040 l       *ABS*	00000000 irqno
00000000 l    df *ABS*	00000000 
00000200 l     F .ram_code	00000020 delay_ms.constprop.12
0000140c l     F .ram_code	000000fc user_calib_adc_vref.constprop.9
00000220 l     F .ram_code	00000044 flash_send_addr
00000264 l     F .ram_code	00000048 flash_send_cmd
000002ac l     F .ram_code	00000060 clock_set_32k_tick
0000030c l     F .ram_code	0000004c analog_read_reg32.constprop.4
00000358 l     F .ram_code	00000024 clock_get_32k_tick
0000037c l     F .ram_code	00000094 pm_stimer_recover
00000410 l     F .ram_code	00000058 plic_exit_critical_sec
00000468 l     F .ram_code	00000060 plic_enter_critical_sec
000004c8 l     F .ram_code	00000180 flash_mspi_read_ram
00001204 l     F .ram_code	00000028 flash_read_uid.constprop.6
0000122c l     F .ram_code	00000028 flash_read_mid
00001254 l     F .ram_code	00000168 flash_read_mid_uid_with_check
00000648 l     F .ram_code	0000014c flash_mspi_read_ram.constprop.7
000013bc l     F .ram_code	00000020 flash_dread
00000794 l     F .ram_code	00000044 analog_write_reg8
000007d8 l     F .ram_code	0000004c analog_read_reg8
00000824 l     F .ram_code	00000140 clock_init_ram.constprop.11
000013dc l     F .ram_code	00000018 clock_init.constprop.10
00001508 l     F .ram_code	00000054 user_calib_freq_offset.constprop.8
00000964 l     F .ram_code	000000b4 pm_wait_bbpll_done
00000a18 l     F .ram_code	00000194 pm_sleep_start
00000bac l     F .ram_code	00000120 dr_putchar
00001560 l     F .ram_code	00000018 gpio_input_dis
00000ccc l     F .ram_code	0000030c pm_sleep_wakeup_ram.constprop.3
000013f4 l     F .ram_code	00000016 pm_sleep_wakeup.constprop.2
0000157c l     F .ram_code	00000076 validate.lto_priv.13
0000157c l     F .ram_code	00000076 validate.lto_priv.14
000015f4 l     F .ram_code	00000076 validate_s16.lto_priv.15
000015f4 l     F .ram_code	00000076 validate_s16.lto_priv.16
0000166c l     F .ram_code	000001ba dw_int16xint8_dilation_riscv_depthwise_conv_s16
00001828 l     F .ram_code	000001b6 dw_int16xint8_riscv_depthwise_conv_s16
000019e0 l     F .ram_code	000001b2 conv_3x3_dilation_5x5_input_riscv_convolve_s8
00001b94 l     F .ram_code	0000026a int16xint8_dilation_1_riscv_convolve_s16
00081158 l     O .data	00001000 int16xint8_dilation_1_input
00082158 l     O .data	00000e10 int16xint8_dilation_1_output
000852e0 l     O .data	00001ef0 int16xint8_weights
00083010 l     O .data	00002260 int16xint8_input
000894a0 l     O .data	00001ef0 int16xint8xint32_1_weights
000871d0 l     O .data	00002260 int16xint8xint32_1_input
00000158 l     O .retention_data	00000004 flash_read_page
0000015c l     O .retention_data	00000001 g_pm_long_suspend
00000160 l     O .retention_data	00000004 g_pm_tick_cur
00000164 l     O .retention_data	00000029 pmcd
00000190 l     O .retention_data	00000004 g_pm_tick_32k_calib
00000194 l     O .retention_data	00000001 g_plic_preempt_en
00000198 l     O .retention_data	00000002 s_flash_preempt_config
0000019a l     O .retention_data	00000001 g_pm_suspend_power_cfg
0000019c l     O .retention_data	00000008 g_pm_early_wakeup_time_us
000001a4 l     O .retention_data	00000004 g_pm_tick_32k_cur
000001a8 l     O .retention_data	00000001 g_pm_tick_update_en
000001ac l     O .retention_data	00000004 g_pm_r_delay_cycle
000001b0 l     O .retention_data	00000008 g_pm_longsleep_early_wakeup_time_us
00080010 l     O .data	00000028 basic_input
00080038 l     O .data	00000014 basic_output_ref
0008004c l     O .data	000000c8 conv_2x2_dilation_input
00080114 l     O .data	00000048 conv_2x2_dilation_output_ref
0008015c l     O .data	00000024 conv_2x2_dilation_weights
00080180 l     O .data	000000c6 conv_3x3_dilation_5x5_input_input
00080248 l     O .data	000000c6 conv_3x3_dilation_5x5_input_output_ref
000803a8 l     O .data	00000024 conv_3x3_dilation_5x5_input_weights
000803cc l     O .data	00000024 depthwise_2_biases
000803f0 l     O .data	0000005a depthwise_2_input
0008044c l     O .data	00000024 depthwise_2_output_mult
00080470 l     O .data	00000051 depthwise_2_output_ref
000804c4 l     O .data	00000024 depthwise_2_output_shift
000804e8 l     O .data	0000006c depthwise_2_weights
00080554 l     O .data	00000031 depthwise_dilation_input
00080588 l     O .data	00000031 depthwise_dilation_output_ref
000805bc l     O .data	00000009 depthwise_dilation_weights
000805c8 l     O .data	0000000c depthwise_mult_batches_biases
000805d4 l     O .data	0000005a depthwise_mult_batches_input
00080630 l     O .data	0000000c depthwise_mult_batches_output_mult
0008063c l     O .data	00000024 depthwise_mult_batches_output_ref
00080660 l     O .data	0000000c depthwise_mult_batches_output_shift
0008066c l     O .data	00000018 depthwise_mult_batches_weights
00080688 l     O .data	00000040 dw_int16xint8_biases
000806c8 l     O .data	00000040 dw_int16xint8_dilation_biases
00080708 l     O .data	00000168 dw_int16xint8_dilation_input
00080870 l     O .data	00000020 dw_int16xint8_dilation_output_mult
00080890 l     O .data	000002d0 dw_int16xint8_dilation_output_ref
00080b60 l     O .data	00000020 dw_int16xint8_dilation_output_shift
00080c44 l     O .data	00000080 dw_int16xint8_dilation_weights
00080cc4 l     O .data	00000168 dw_int16xint8_input
00080e30 l     O .data	00000040 dw_int16xint8_mult4_biases
00080e70 l     O .data	00000050 dw_int16xint8_mult4_input
00080ec0 l     O .data	00000020 dw_int16xint8_mult4_output_mult
00080ee0 l     O .data	00000010 dw_int16xint8_mult4_output_ref
00080ef0 l     O .data	00000020 dw_int16xint8_mult4_output_shift
00080f10 l     O .data	00000060 dw_int16xint8_mult4_weights
00080f70 l     O .data	00000020 dw_int16xint8_output_mult
00080f90 l     O .data	00000090 dw_int16xint8_output_ref
00081020 l     O .data	00000020 dw_int16xint8_output_shift
000810c8 l     O .data	00000060 dw_int16xint8_weights
00081128 l     O .data	00000020 int16xint8_bias
00081148 l     O .data	00000010 int16xint8_dilation_1_bias
00083000 l     O .data	00000010 int16xint8_dilation_1_weights
00085270 l     O .data	00000050 int16xint8_output
000852c0 l     O .data	00000010 int16xint8_output_multiplier
000852d0 l     O .data	00000010 int16xint8_output_shift
00089430 l     O .data	00000050 int16xint8xint32_1_output
00089480 l     O .data	00000010 int16xint8xint32_1_output_multiplier
00089490 l     O .data	00000010 int16xint8xint32_1_output_shift
0008ba58 l     O .sbss	00000004 exception_mcause
0008ba5c l     O .sbss	00000004 exception_mdcause
0008ba60 l     O .sbss	00000004 exception_mepc
0008ba64 l     O .sbss	00000004 exception_mstatus
0008ba68 l     O .sbss	00000004 exception_mtval
0008ba6c l     O .sbss	00000004 g_chip_version
0008ba70 l     O .sbss	00000004 g_pm_status_info
0008ba74 l     O .sbss	00000004 stack_limit
0008b9e8 l     O .data	00000001 init_flag.4915
0008b9ec l     O .data	00000006 sys_clk
0008b9f8 l     O .data	00000004 basic_biases
0008b9fc l     O .data	00000004 basic_output_mult
0008ba00 l     O .data	00000004 basic_output_shift
0008ba04 l     O .data	00000008 basic_weights
0008ba0c l     O .data	00000008 conv_2x2_dilation_biases
0008ba14 l     O .data	00000008 conv_2x2_dilation_output_mult
0008ba1c l     O .data	00000008 conv_2x2_dilation_output_shift
0008ba24 l     O .data	00000008 conv_3x3_dilation_5x5_input_biases
0008ba2c l     O .data	00000008 conv_3x3_dilation_5x5_input_output_mult
0008ba34 l     O .data	00000008 conv_3x3_dilation_5x5_input_output_shift
0008ba3c l     O .data	00000004 depthwise_dilation_biases
0008ba40 l     O .data	00000004 depthwise_dilation_output_mult
0008ba44 l     O .data	00000004 depthwise_dilation_output_shift
0008ba48 l     O .data	00000008 int16xint8_dilation_1_output_multiplier
0008ba50 l     O .data	00000008 int16xint8_dilation_1_output_shift
0008ba98 l     O .sdk_version	00000022 sdk_version
00000000 l    df *ABS*	00000000 riscv_convolve_wrapper_s16.c.o
00002f38 l       .ram_code	00000000 $x
00000000 l    df *ABS*	00000000 riscv_convolve_wrapper_s8.c.o
00002f3c l       .ram_code	00000000 $x
00000000 l    df *ABS*	00000000 riscv_depthwise_conv_get_buffer_sizes_s16.c.o
00003090 l       .ram_code	00000000 $x
000030a4 l       .ram_code	00000000 $x
00000000 l    df *ABS*	00000000 riscv_convolve_s16.c.o
000030e4 l       .ram_code	00000000 $x
00000000 l    df *ABS*	00000000 riscv_convolve_get_buffer_sizes_s16.c.o
00003598 l       .ram_code	00000000 $x
00000000 l    df *ABS*	00000000 riscv_convolve_1x1_s8_fast.c.o
000035ac l       .ram_code	00000000 $x
00000000 l    df *ABS*	00000000 riscv_convolve_s8.c.o
000038ec l       .ram_code	00000000 $x
00000000 l    df *ABS*	00000000 riscv_nn_mat_mult_kernel_s8_s16.c.o
00004064 l       .ram_code	00000000 $x
00000000 l    df *ABS*	00000000 riscv_convolve_get_buffer_sizes_s8.c.o
00004538 l       .ram_code	00000000 $x
00000000 l    df *ABS*	00000000 riscv_nn_mat_mult_kernel_s16.c.o
000045c8 l       .ram_code	00000000 $x
00000000 l    df *ABS*	00000000 riscv_depthwise_conv_get_buffer_sizes_s8.c.o
00004ee0 l       .ram_code	00000000 $x
00004ef4 l       .ram_code	00000000 $x
00000000 l    df *ABS*	00000000 riscv_nn_mat_mult_kernel_row_offset_s8_s16.c.o
00004f48 l       .ram_code	00000000 $x
00000000 l    df *ABS*	00000000 riscv_convolve_1x1_s8.c.o
0000542c l       .ram_code	00000000 $x
00000000 l    df *ABS*	00000000 riscv_depthwise_conv_wrapper_s8.c.o
00005550 l       .ram_code	00000000 $x
00000000 l    df *ABS*	00000000 riscv_depthwise_conv_wrapper_s16.c.o
00005628 l       .ram_code	00000000 $x
00000000 l    df *ABS*	00000000 riscv_convolve_1_x_n_s8.c.o
000056bc l       .ram_code	00000000 $x
00000000 l    df *ABS*	00000000 riscv_nn_mat_mult_nt_t_s8.c.o
00005710 l       .ram_code	00000000 $x
00000000 l    df *ABS*	00000000 riscv_s8_to_s16_unordered_with_offset.c.o
00006454 l       .ram_code	00000000 $x
00000000 l    df *ABS*	00000000 riscv_depthwise_conv_s16.c.o
000064d8 l       .ram_code	00000000 $x
00000000 l    df *ABS*	00000000 riscv_depthwise_conv_s8.c.o
00006900 l       .ram_code	00000000 $x
00006900 l     F .ram_code	000003be depthwise_conv_s8_mult_4
00006cc0 l       .ram_code	00000000 $x
00000000 l    df *ABS*	00000000 riscv_depthwise_conv_s8_opt.c.o
00007128 l       .ram_code	00000000 $x
00000000 l    df *ABS*	00000000 riscv_depthwise_conv_3x3_s8.c.o
00007808 l       .ram_code	00000000 $x
00000000 l    df *ABS*	00000000 riscv_depthwise_conv_fast_s16.c.o
00008ff0 l       .ram_code	00000000 $x
00000000 l    df *ABS*	00000000 riscv_q7_to_q15_with_offset.c.o
000098dc l       .ram_code	00000000 $x
00000000 l    df *ABS*	00000000 memcpy.c
00000000 l    df *ABS*	00000000 malloc.c
00000000 l    df *ABS*	00000000 nano-mallocr.c
00000000 l    df *ABS*	00000000 nano-mallocr.c
00000000 l    df *ABS*	00000000 printf.c
00000000 l    df *ABS*	00000000 puts.c
00000000 l    df *ABS*	00000000 strlen.c
00000000 l    df *ABS*	00000000 vprintf.c
00009d1c l     F .ram_code	0000003a __vprintf_help
0008ba80 l     O .sbss	00000004 __vprintf_buf
0008ba84 l     O .sbss	00000004 __vprintf_buf_len
00000000 l    df *ABS*	00000000 printf_impl.c
00000000 l    df *ABS*	00000000 printf_impl_float.c
00000000 l    df *ABS*	00000000 strcpy.c
00000000 l    df *ABS*	00000000 strnlen.c
00000000 l    df *ABS*	00000000 _sbrk.c
0008ba90 l     O .sbss	00000004 heap_end.2408
00000000 l    df *ABS*	00000000 libgcc2.c
00000000 l    df *ABS*	00000000 libgcc2.c
00000000 l    df *ABS*	00000000 printf_data.c
00000000 l    df *ABS*	00000000 impure.c
0008ba94 l     O .bss	00000000 impure_data
00002f30  w      .ram_code	00000000 entry_irq55
00002f30  w      .ram_code	00000000 entry_irq13
00002f38 g     F .ram_code	00000002 riscv_convolve_wrapper_s16
0000a70c g     F .ram_code	0000007c strcpy
00002f30  w      .ram_code	00000000 entry_irq15
0000a7fc g     F .ram_code	0000002e .hidden __ashldi3
00002f30  w      .ram_code	00000000 entry_irq27
00002f30  w      .ram_code	00000000 entry_irq60
00002f30  w      .ram_code	00000000 entry_irq1
00002f30  w      .ram_code	00000000 entry_irq52
00002f30  w      .ram_code	00000000 entry_irq50
00002f30  w      .ram_code	00000000 entry_irq62
00009c68 g     F .ram_code	0000001e printf
00080800 g       .data	00000000 __global_pointer$
0000a834 g       .ram_code	00000000 .hidden __riscv_save_8
00002f30  w      .ram_code	00000000 entry_irq58
00003090 g     F .ram_code	00000012 riscv_depthwise_conv_fast_s16_get_buffer_size
0000a880 g       .ram_code	00000000 .hidden __riscv_restore_3
000098dc g     F .ram_code	00000088 riscv_q7_to_q15_with_offset
000001bc g       .retention_data	00000000 _RETENTION_DATA_VMA_END
0000a86c g       .ram_code	00000000 .hidden __riscv_restore_10
0000a834 g       .ram_code	00000000 .hidden __riscv_save_11
00009da2 g     F .ram_code	00000048 __print_integral
00000000 g       .retention_reset	00000000 _RETENTION_RESET_VMA_START
00002f30  w      .ram_code	00000000 entry_irq10
00002f30  w      .ram_code	00000000 entry_irq21
00000158 g       .retention_data	00000000 _AES_VMA_START
00002f30  w      .ram_code	00000000 entry_irq48
0000a880 g       .ram_code	00000000 .hidden __riscv_restore_2
00002f30  w      .ram_code	00000000 entry_irq8
00002f30  w      .ram_code	00000000 entry_irq33
0008ba98 g       .bss	00000000 _BSS_VMA_END
00009964 g     F .ram_code	000000fa memcpy
20000190 g       *ABS*	00000000 _RETENTION_RESET_LMA_START
00009dea g     F .ram_code	00000472 __printf_impl
00002f30  w      .ram_code	00000000 entry_irq12
00009c86 g     F .ram_code	00000034 puts
00002f3c g     F .ram_code	00000154 riscv_convolve_wrapper_s8
00009b08 g     F .ram_code	00000010 malloc
00002f30  w      .ram_code	00000000 entry_irq14
0000a82c g       .ram_code	00000000 .hidden __riscv_save_12
00002f30  w      .ram_code	00000000 entry_irq2
00002f30  w      .ram_code	00000000 entry_irq51
0000a86c g       .ram_code	00000000 .hidden __riscv_restore_11
00002f30  w      .ram_code	00000000 entry_irq28
00002f30  w      .ram_code	00000000 entry_irq43
0000a85c g       .ram_code	00000000 .hidden __riscv_save_1
0000a880 g       .ram_code	00000000 .hidden __riscv_restore_0
00002f30  w      .ram_code	00000000 entry_irq20
0000a842 g       .ram_code	00000000 .hidden __riscv_save_7
0008ba58 g       .sbss	00000000 _BSS_VMA_START
00002f30  w      .ram_code	00000000 entry_irq63
0008ba58 g       .data	00000000 _DATA_VMA_END
00002f30  w      .ram_code	00000000 entry_irq46
00002f30  w      .ram_code	00000000 entry_irq31
00002f30  w      .ram_code	00000000 entry_irq16
00100000 g       *ABS*	00000000 FLASH_SIZE
0000a876 g       .ram_code	00000000 .hidden __riscv_restore_5
00080000 g       .data	00000000 _DATA_VMA_START
00005550 g     F .ram_code	000000d8 riscv_depthwise_conv_wrapper_s8
0000a7a2  w    F .ram_code	00000028 _sbrk
00002f30  w      .ram_code	00000000 entry_irq53
00002f30  w      .ram_code	00000000 entry_irq11
00000154 g       .retention_reset	00000000 _RETENTION_RESET_VMA_END
0000a78a g     F .ram_code	00000018 strnlen
0000a876 g       .ram_code	00000000 .hidden __riscv_restore_6
000064d8 g     F .ram_code	00000426 riscv_depthwise_conv_s16
000030e4 g     F .ram_code	000004b4 riscv_convolve_s16
00002f30  w      .ram_code	00000000 entry_irq5
00002f30  w      .ram_code	00000000 entry_irq23
00002f32  w      .ram_code	00000000 trap_handler
00002f30  w      .ram_code	00000000 entry_irq34
0000a7cc g     F .ram_code	0000002e .hidden __lshrdi3
00002f30  w      .ram_code	00000000 entry_irq36
0000a834 g       .ram_code	00000000 .hidden __riscv_save_9
00002f30  w      .ram_code	00000000 entry_irq44
00005710 g     F .ram_code	00000d44 riscv_nn_mat_mult_nt_t_s8
00009d56 g     F .ram_code	0000004c vprintf
00002f30  w      .ram_code	00000000 entry_irq45
00002f30  w      .ram_code	00000000 entry_irq26
0000a842 g       .ram_code	00000000 .hidden __riscv_save_4
00002f30  w      .ram_code	00000000 entry_irq41
00006cc0 g     F .ram_code	00000466 riscv_depthwise_conv_s8
00007808 g     F .ram_code	000017e6 riscv_depthwise_conv_3x3_s8
00002f30  w      .ram_code	00000000 entry_irq61
20000000 g       .vectors	00000000 BIN_BEGIN
00009b28 g     F .ram_code	00000090 _free_r
00004f48 g     F .ram_code	000004e4 riscv_nn_mat_mult_kernel_row_offset_s8_s16
0000a85c g       .ram_code	00000000 .hidden __riscv_save_3
0000542c g     F .ram_code	00000124 riscv_convolve_1x1_s8
00002f30  w      .ram_code	00000000 entry_irq38
00001100 g       .ram_code	00000000 __vectors
00016552 g       *ABS*	00000000 BIN_SIZE
0008b9d0 g     O .data	00000010 __digits
20000350 g       *ABS*	00000000 _RAMCODE_LMA_START
00004538 g     F .ram_code	0000008e riscv_convolve_wrapper_s8_get_buffer_size
000056bc g     F .ram_code	00000054 riscv_convolve_1_x_n_s8
0008ba8c g     O .sbss	00000004 __printf_count
00002f30  w      .ram_code	00000000 entry_irq59
00002f30  w      .ram_code	00000000 entry_irq6
0000a834 g       .ram_code	00000000 .hidden __riscv_save_10
0008ba88 g     O .sbss	00000004 __mculib_REENT_errno
2000aad8 g       *ABS*	00000000 _DATA_LMA_START
0000a27a g     F .ram_code	00000090 __print_integral_poly
20000000 g       *ABS*	00000000 NDS_SAG_LMA_FLASH
0000a876 g       .ram_code	00000000 .hidden __riscv_restore_4
0000a86c g       .ram_code	00000000 .hidden __riscv_restore_8
00008ff0 g     F .ram_code	000008ec riscv_depthwise_conv_fast_s16
0000a842 g       .ram_code	00000000 .hidden __riscv_save_6
00004ee0 g     F .ram_code	00000012 riscv_depthwise_conv_s8_opt_get_buffer_size
20000000  w      .vectors	00000000 _RELAX_END_
0000a30a g     F .ram_code	00000400 __printf_float_impl
00009a5e g     F .ram_code	000000aa memset
0000a86c g       .ram_code	00000000 .hidden __riscv_restore_9
0000a876 g       .ram_code	00000000 .hidden __riscv_restore_7
00001e48 g     F .ram_code	000010e8 main
00002f30 g       .ram_code	00000000 default_irq_entry
00002f30  w      .ram_code	00000000 entry_irq3
00000fd8 g     F .ram_code	00000100 trap_entry
00000158 g       .retention_data	00000000 _AES_VMA_END
00006454 g     F .ram_code	00000084 riscv_s8_to_s16_unordered_with_offset
00002f30  w      .ram_code	00000000 entry_irq39
00002f30  w      .ram_code	00000000 entry_irq49
00009bb8 g     F .ram_code	000000b0 _malloc_r
00004ef4 g     F .ram_code	00000054 riscv_depthwise_conv_wrapper_s8_get_buffer_size
000030a4 g     F .ram_code	0000003e riscv_depthwise_conv_wrapper_s16_get_buffer_size
00002f30  w      .ram_code	00000000 entry_irq57
00002f30  w      .ram_code	00000000 entry_irq47
200002e8 g       *ABS*	00000000 _RETENTION_DATA_LMA_START
20000000 g     F .vectors	00000000 _RESET_ENTRY
000045c8 g     F .ram_code	00000916 riscv_nn_mat_mult_kernel_s16
00000158 g       .retention_data	00000000 _RETENTION_DATA_VMA_START
00002f30  w      .ram_code	00000000 entry_irq4
000a0000 g       *ABS*	00000000 _STACK_TOP
00002f30  w      .ram_code	00000000 entry_irq22
00002f30  w      .ram_code	00000000 entry_irq30
0008b9f4 g     O .data	00000004 _impure_ptr
00002f30  w      .ram_code	00000000 entry_irq42
00005628 g     F .ram_code	00000094 riscv_depthwise_conv_wrapper_s16
00002f30  w      .ram_code	00000000 entry_irq24
00004064 g     F .ram_code	000004d4 riscv_nn_mat_mult_kernel_s8_s16
0000a85c g       .ram_code	00000000 .hidden __riscv_save_2
0000a984 g       .ram_code	00000000 _RAMCODE_VMA_END
00000000  w      *ABS*	00000000 _ITB_BASE_
0000a842 g       .ram_code	00000000 .hidden __riscv_save_5
00002f30  w      .ram_code	00000000 entry_irq19
00003598 g     F .ram_code	00000012 riscv_convolve_wrapper_s16_get_buffer_size
00001e00 g     F .ram_code	00000048 _write
0008bac0 g       .sdk_version	00000000 _end
00002f30  w      .ram_code	00000000 entry_irq17
00002f30  w      .ram_code	00000000 entry_irq9
00007128 g     F .ram_code	000006e0 riscv_depthwise_conv_s8_opt
00002f30  w      .ram_code	00000000 entry_irq56
00002f30  w      .ram_code	00000000 entry_irq35
00002f30  w      .ram_code	00000000 entry_irq37
000001b8 g     O .retention_data	00000004 g_pm_mspi_cfg
00002f30  w      .ram_code	00000000 entry_irq54
00002f30  w      .ram_code	00000000 entry_irq40
0000a868 g       .ram_code	00000000 .hidden __riscv_restore_12
00000200 g       .ram_code	00000000 _RAMCODE_VMA_START
0000a85c g       .ram_code	00000000 .hidden __riscv_save_0
00009cbc g     F .ram_code	0000005e strlen
00002f30  w      .ram_code	00000000 entry_irq29
0008ba7c g     O .sbss	00000004 __malloc_sbrk_start
000038ec g     F .ram_code	00000778 riscv_convolve_s8
0008ba78 g     O .sbss	00000004 __malloc_free_list
0000a880 g       .ram_code	00000000 .hidden __riscv_restore_1
000035ac g     F .ram_code	00000340 riscv_convolve_1x1_s8_fast
00002f30  w      .ram_code	00000000 entry_irq7
00002f30  w      .ram_code	00000000 entry_irq32
00000000 g     F .retention_reset	00000000 _IRESET_ENTRY
00002f30  w      .ram_code	00000000 entry_irq18
0000a25c g     F .ram_code	0000001e __int_to_poly
00009b18 g     F .ram_code	00000010 free
00002f30  w      .ram_code	00000000 entry_irq25



Disassembly of section .vectors:

20000000 <_RESET_ENTRY>:
20000000:	a025                	c.j	20000028 <_START>
	...
20000016:	0000                	unimp
20000018:	6552                	c.flwsp	fa0,20(sp)
2000001a:	0001                	c.nop
2000001c:	0000                	unimp
2000001e:	0000                	unimp
20000020:	544c4e4b          	fnmsub.h	ft8,fs8,ft4,fa0,rmm
20000024:	0000                	unimp
20000026:	          	sllw	a4,zero,zero

20000028 <_START>:
20000028:	e0080197          	auipc	gp,0xe0080
2000002c:	7d818193          	addi	gp,gp,2008 # 80800 <__global_pointer$>
20000030:	801002b7          	lui	t0,0x80100
20000034:	70028293          	addi	t0,t0,1792 # 80100700 <_DATA_LMA_START+0x600f5c28>
20000038:	04000313          	li	t1,64
2000003c:	506280a3          	sb	t1,1281(t0)
20000040:	e00a0297          	auipc	t0,0xe00a0
20000044:	fc028293          	addi	t0,t0,-64 # a0000 <_STACK_TOP>
20000048:	8116                	c.mv	sp,t0
2000004a:	e0000297          	auipc	t0,0xe0000
2000004e:	fb628293          	addi	t0,t0,-74 # 0 <_ITB_BASE_>
20000052:	80029073          	csrw	uitb,t0
20000056:	6299                	c.lui	t0,0x6
20000058:	3002a2f3          	csrrs	t0,mstatus,t0
2000005c:	00301073          	fssr	zero
20000060:	e0001297          	auipc	t0,0xe0001
20000064:	0a028293          	addi	t0,t0,160 # 1100 <__vectors>
20000068:	30529073          	csrw	mtvec,t0
2000006c:	7d016073          	csrsi	mmisc_ctl,2
20000070:	e40002b7          	lui	t0,0xe4000
20000074:	4309                	c.li	t1,2
20000076:	0062a023          	sw	t1,0(t0) # e4000000 <_DATA_LMA_START+0xc3ff5528>
2000007a:	7ca022f3          	csrr	t0,mcache_ctl
2000007e:	0012e293          	ori	t0,t0,1
20000082:	0022e293          	ori	t0,t0,2
20000086:	7ca29073          	csrw	mcache_ctl,t0
2000008a:	0000100f          	fence.i

2000008e <_RETENTION_RESET_INIT>:
2000008e:	00000317          	auipc	t1,0x0
20000092:	10230313          	addi	t1,t1,258 # 20000190 <_RETENTION_RESET_LMA_START>
20000096:	e0000397          	auipc	t2,0xe0000
2000009a:	f6a38393          	addi	t2,t2,-150 # 0 <_ITB_BASE_>
2000009e:	e0000e17          	auipc	t3,0xe0000
200000a2:	0b6e0e13          	addi	t3,t3,182 # 154 <_RETENTION_RESET_VMA_END>

200000a6 <_RETENTION_RESET_BEGIN>:
200000a6:	01c3f963          	bgeu	t2,t3,200000b8 <_RETENTION_DATA_INIT>
200000aa:	00032283          	lw	t0,0(t1)
200000ae:	0053a023          	sw	t0,0(t2)
200000b2:	0311                	c.addi	t1,4
200000b4:	0391                	c.addi	t2,4
200000b6:	bfc5                	c.j	200000a6 <_RETENTION_RESET_BEGIN>

200000b8 <_RETENTION_DATA_INIT>:
200000b8:	00000317          	auipc	t1,0x0
200000bc:	23030313          	addi	t1,t1,560 # 200002e8 <_RETENTION_DATA_LMA_START>
200000c0:	15800393          	li	t2,344
200000c4:	e0000e17          	auipc	t3,0xe0000
200000c8:	0f8e0e13          	addi	t3,t3,248 # 1bc <_RETENTION_DATA_VMA_END>

200000cc <_RETENTION_DATA_INIT_BEGIN>:
200000cc:	01c3f963          	bgeu	t2,t3,200000de <_RAMCODE_INIT>
200000d0:	00032283          	lw	t0,0(t1)
200000d4:	0053a023          	sw	t0,0(t2)
200000d8:	0311                	c.addi	t1,4
200000da:	0391                	c.addi	t2,4
200000dc:	bfc5                	c.j	200000cc <_RETENTION_DATA_INIT_BEGIN>

200000de <_RAMCODE_INIT>:
200000de:	00000317          	auipc	t1,0x0
200000e2:	27230313          	addi	t1,t1,626 # 20000350 <_RAMCODE_LMA_START>
200000e6:	e0000397          	auipc	t2,0xe0000
200000ea:	11a38393          	addi	t2,t2,282 # 200 <delay_ms.constprop.12>
200000ee:	e000be17          	auipc	t3,0xe000b
200000f2:	896e0e13          	addi	t3,t3,-1898 # a984 <_RAMCODE_VMA_END>

200000f6 <_RAMCODE_INIT_BEGIN>:
200000f6:	01c3f963          	bgeu	t2,t3,20000108 <_DATA_INIT>
200000fa:	00032283          	lw	t0,0(t1)
200000fe:	0053a023          	sw	t0,0(t2)
20000102:	0311                	c.addi	t1,4
20000104:	0391                	c.addi	t2,4
20000106:	bfc5                	c.j	200000f6 <_RAMCODE_INIT_BEGIN>

20000108 <_DATA_INIT>:
20000108:	0000b317          	auipc	t1,0xb
2000010c:	9d030313          	addi	t1,t1,-1584 # 2000aad8 <_DATA_LMA_START>
20000110:	e0080397          	auipc	t2,0xe0080
20000114:	ef038393          	addi	t2,t2,-272 # 80000 <_DATA_VMA_START>
20000118:	e008ce17          	auipc	t3,0xe008c
2000011c:	940e0e13          	addi	t3,t3,-1728 # 8ba58 <_DATA_VMA_END>

20000120 <_DATA_INIT_BEGIN>:
20000120:	01c3f963          	bgeu	t2,t3,20000132 <_ZERO_BSS>
20000124:	00032283          	lw	t0,0(t1)
20000128:	0053a023          	sw	t0,0(t2)
2000012c:	0311                	c.addi	t1,4
2000012e:	0391                	c.addi	t2,4
20000130:	bfc5                	c.j	20000120 <_DATA_INIT_BEGIN>

20000132 <_ZERO_BSS>:
20000132:	000002b7          	lui	t0,0x0
20000136:	e008c397          	auipc	t2,0xe008c
2000013a:	92238393          	addi	t2,t2,-1758 # 8ba58 <_DATA_VMA_END>
2000013e:	e008ce17          	auipc	t3,0xe008c
20000142:	95ae0e13          	addi	t3,t3,-1702 # 8ba98 <_BSS_VMA_END>

20000146 <_ZERO_BSS_BEGIN>:
20000146:	01c3f663          	bgeu	t2,t3,20000152 <_ZERO_AES>
2000014a:	0053a023          	sw	t0,0(t2)
2000014e:	0391                	c.addi	t2,4
20000150:	bfdd                	c.j	20000146 <_ZERO_BSS_BEGIN>

20000152 <_ZERO_AES>:
20000152:	000002b7          	lui	t0,0x0
20000156:	e0000397          	auipc	t2,0xe0000
2000015a:	00238393          	addi	t2,t2,2 # 158 <_AES_VMA_END>
2000015e:	e0000e17          	auipc	t3,0xe0000
20000162:	ffae0e13          	addi	t3,t3,-6 # 158 <_AES_VMA_END>

20000166 <_ZERO_AES_BEGIN>:
20000166:	01c3f663          	bgeu	t2,t3,20000172 <_FILL_STK>
2000016a:	0053a023          	sw	t0,0(t2)
2000016e:	0391                	c.addi	t2,4
20000170:	bfdd                	c.j	20000166 <_ZERO_AES_BEGIN>

20000172 <_FILL_STK>:
20000172:	0001                	c.nop
20000174:	e0002297          	auipc	t0,0xe0002
20000178:	cd428293          	addi	t0,t0,-812 # 1e48 <main>
2000017c:	9282                	c.jalr	t0
2000017e:	0001                	c.nop
20000180:	0001                	c.nop
20000182:	0001                	c.nop
20000184:	0001                	c.nop
20000186:	0001                	c.nop

20000188 <_END>:
20000188:	a001                	c.j	20000188 <_END>

Disassembly of section .retention_reset:

00000000 <_IRESET_ENTRY>:
   0:	a00d                	c.j	22 <_ISTART>
	...

00000022 <_ISTART>:
  22:	00080197          	auipc	gp,0x80
  26:	7de18193          	addi	gp,gp,2014 # 80800 <__global_pointer$>

0000002a <_ISWS_USB_DIS>:
  2a:	801002b7          	lui	t0,0x80100
  2e:	70028293          	addi	t0,t0,1792 # 80100700 <_DATA_LMA_START+0x600f5c28>
  32:	04000313          	li	t1,64
  36:	506280a3          	sb	t1,1281(t0)
  3a:	000a0297          	auipc	t0,0xa0
  3e:	fc628293          	addi	t0,t0,-58 # a0000 <_STACK_TOP>
  42:	8116                	c.mv	sp,t0
  44:	00000297          	auipc	t0,0x0
  48:	fbc28293          	addi	t0,t0,-68 # 0 <_IRESET_ENTRY>
  4c:	80029073          	csrw	uitb,t0
  50:	6299                	c.lui	t0,0x6
  52:	3002a2f3          	csrrs	t0,mstatus,t0
  56:	00301073          	fssr	zero
  5a:	00001297          	auipc	t0,0x1
  5e:	0a628293          	addi	t0,t0,166 # 1100 <__vectors>
  62:	30529073          	csrw	mtvec,t0
  66:	7d016073          	csrsi	mmisc_ctl,2
  6a:	e40002b7          	lui	t0,0xe4000
  6e:	4309                	c.li	t1,2
  70:	0062a023          	sw	t1,0(t0) # e4000000 <_DATA_LMA_START+0xc3ff5528>
  74:	7ca022f3          	csrr	t0,mcache_ctl
  78:	0012e293          	ori	t0,t0,1
  7c:	0022e293          	ori	t0,t0,2
  80:	7ca29073          	csrw	mcache_ctl,t0
  84:	0000100f          	fence.i

00000088 <_WAKEUP_FLASH>:
  88:	801402b7          	lui	t0,0x80140
  8c:	0ff00313          	li	t1,255
  90:	4381                	c.li	t2,0
  92:	0ab00e13          	li	t3,171
  96:	326284a3          	sb	t1,809(t0) # 80140329 <_DATA_LMA_START+0x60135851>
  9a:	107280a3          	sb	t2,257(t0)
  9e:	11c28023          	sb	t3,256(t0)

000000a2 <_MSPI_WAIT>:
  a2:	801402b7          	lui	t0,0x80140
  a6:	10228383          	lb	t2,258(t0) # 80140102 <_DATA_LMA_START+0x6013562a>
  aa:	4e05                	c.li	t3,1
  ac:	4ec1                	c.li	t4,16
  ae:	fe7e0ae3          	beq	t3,t2,a2 <_MSPI_WAIT>
  b2:	11d280a3          	sb	t4,257(t0)
  b6:	4281                	c.li	t0,0
  b8:	14000313          	li	t1,320

000000bc <_WAIT_EFUSE_LOAD_AND_FLASH_WAKEUP_FINISH>:
  bc:	0285                	c.addi	t0,1
  be:	fe537fe3          	bgeu	t1,t0,bc <_WAIT_EFUSE_LOAD_AND_FLASH_WAKEUP_FINISH>

000000c2 <_MULTI_ADDRESS_BEGIN>:
  c2:	801402b7          	lui	t0,0x80140
  c6:	1b800313          	li	t1,440
  ca:	00032383          	lw	t2,0(t1)
  ce:	1072a223          	sw	t2,260(t0) # 80140104 <_DATA_LMA_START+0x6013562c>

000000d2 <_IZERO_BSS>:
  d2:	000002b7          	lui	t0,0x0
  d6:	0008c397          	auipc	t2,0x8c
  da:	98238393          	addi	t2,t2,-1662 # 8ba58 <_DATA_VMA_END>
  de:	0008ce17          	auipc	t3,0x8c
  e2:	9bae0e13          	addi	t3,t3,-1606 # 8ba98 <_BSS_VMA_END>

000000e6 <_IZERO_BSS_BEGIN>:
  e6:	01c3f663          	bgeu	t2,t3,f2 <_IZERO_AES>
  ea:	0053a023          	sw	t0,0(t2)
  ee:	0391                	c.addi	t2,4
  f0:	bfdd                	c.j	e6 <_IZERO_BSS_BEGIN>

000000f2 <_IZERO_AES>:
  f2:	000002b7          	lui	t0,0x0
  f6:	00000397          	auipc	t2,0x0
  fa:	06238393          	addi	t2,t2,98 # 158 <_AES_VMA_END>
  fe:	00000e17          	auipc	t3,0x0
 102:	05ae0e13          	addi	t3,t3,90 # 158 <_AES_VMA_END>

00000106 <_IZERO_AES_BEGIN>:
 106:	01c3f663          	bgeu	t2,t3,112 <_IDATA_INIT>
 10a:	0053a023          	sw	t0,0(t2)
 10e:	0391                	c.addi	t2,4
 110:	bfdd                	c.j	106 <_IZERO_AES_BEGIN>

00000112 <_IDATA_INIT>:
 112:	2000b317          	auipc	t1,0x2000b
 116:	9c630313          	addi	t1,t1,-1594 # 2000aad8 <_DATA_LMA_START>
 11a:	00080397          	auipc	t2,0x80
 11e:	ee638393          	addi	t2,t2,-282 # 80000 <_DATA_VMA_START>
 122:	0008ce17          	auipc	t3,0x8c
 126:	936e0e13          	addi	t3,t3,-1738 # 8ba58 <_DATA_VMA_END>

0000012a <_IDATA_INIT_BEGIN>:
 12a:	01c3f963          	bgeu	t2,t3,13c <_IMAIN_FUNC>
 12e:	00032283          	lw	t0,0(t1)
 132:	0053a023          	sw	t0,0(t2)
 136:	0311                	c.addi	t1,4
 138:	0391                	c.addi	t2,4
 13a:	bfc5                	c.j	12a <_IDATA_INIT_BEGIN>

0000013c <_IMAIN_FUNC>:
 13c:	0001                	c.nop
 13e:	00002297          	auipc	t0,0x2
 142:	d0a28293          	addi	t0,t0,-758 # 1e48 <main>
 146:	9282                	c.jalr	t0
 148:	0001                	c.nop
 14a:	0001                	c.nop
 14c:	0001                	c.nop
 14e:	0001                	c.nop
 150:	0001                	c.nop

00000152 <_IEND>:
 152:	a001                	c.j	152 <_IEND>

Disassembly of section .ram_code:

00000200 <delay_ms.constprop.12>:
     200:	801407b7          	lui	a5,0x80140
     204:	0004e737          	lui	a4,0x4e
     208:	2007a603          	lw	a2,512(a5) # 80140200 <_DATA_LMA_START+0x60135728>
     20c:	801406b7          	lui	a3,0x80140
     210:	20070713          	addi	a4,a4,512 # 4e200 <BIN_SIZE+0x37cae>
     214:	2006a783          	lw	a5,512(a3) # 80140200 <_DATA_LMA_START+0x60135728>
     218:	8f91                	c.sub	a5,a2
     21a:	fef77de3          	bgeu	a4,a5,214 <delay_ms.constprop.12+0x14>
     21e:	8082                	c.jr	ra

00000220 <flash_send_addr>:
     220:	5d05275b          	bfoz	a4,a0,23,16
     224:	801407b7          	lui	a5,0x80140
     228:	801406b7          	lui	a3,0x80140
     22c:	10e78023          	sb	a4,256(a5) # 80140100 <_DATA_LMA_START+0x60135628>
     230:	10268783          	lb	a5,258(a3) # 80140102 <_DATA_LMA_START+0x6013562a>
     234:	fe07fe5b          	bbs	a5,0,230 <flash_send_addr+0x10>
     238:	3c8527db          	bfoz	a5,a0,15,8
     23c:	80140737          	lui	a4,0x80140
     240:	10f68023          	sb	a5,256(a3)
     244:	10270783          	lb	a5,258(a4) # 80140102 <_DATA_LMA_START+0x6013562a>
     248:	fe07fe5b          	bbs	a5,0,244 <flash_send_addr+0x24>
     24c:	0ff57513          	andi	a0,a0,255
     250:	801406b7          	lui	a3,0x80140
     254:	10a70023          	sb	a0,256(a4)
     258:	10268783          	lb	a5,258(a3) # 80140102 <_DATA_LMA_START+0x6013562a>
     25c:	fe07fe5b          	bbs	a5,0,258 <flash_send_addr+0x38>
     260:	00008067          	ret

00000264 <flash_send_cmd>:
     264:	801407b7          	lui	a5,0x80140
     268:	10178703          	lb	a4,257(a5) # 80140101 <_DATA_LMA_START+0x60135629>
     26c:	0ff77713          	andi	a4,a4,255
     270:	01076713          	ori	a4,a4,16
     274:	10e780a3          	sb	a4,257(a5)
     278:	0001                	c.nop
     27a:	0001                	c.nop
     27c:	0001                	c.nop
     27e:	0001                	c.nop
     280:	0001                	c.nop
     282:	0001                	c.nop
     284:	0001                	c.nop
     286:	0001                	c.nop
     288:	0001                	c.nop
     28a:	0001                	c.nop
     28c:	10178683          	lb	a3,257(a5)
     290:	80140737          	lui	a4,0x80140
     294:	0ef6f693          	andi	a3,a3,239
     298:	10d780a3          	sb	a3,257(a5)
     29c:	10a78023          	sb	a0,256(a5)
     2a0:	10270783          	lb	a5,258(a4) # 80140102 <_DATA_LMA_START+0x6013562a>
     2a4:	fe07fe5b          	bbs	a5,0,2a0 <flash_send_cmd+0x3c>
     2a8:	00008067          	ret

000002ac <clock_set_32k_tick>:
     2ac:	801406b7          	lui	a3,0x80140
     2b0:	20a68783          	lb	a5,522(a3) # 8014020a <_DATA_LMA_START+0x60135732>
     2b4:	80140737          	lui	a4,0x80140
     2b8:	0ff7f793          	andi	a5,a5,255
     2bc:	0017e793          	ori	a5,a5,1
     2c0:	20f68523          	sb	a5,522(a3)
     2c4:	20b70683          	lb	a3,523(a4) # 8014020b <_DATA_LMA_START+0x60135733>
     2c8:	20b70793          	addi	a5,a4,523
     2cc:	fe66fc5b          	bbs	a3,6,2c4 <clock_set_32k_tick+0x18>
     2d0:	20a72623          	sw	a0,524(a4)
     2d4:	4721                	c.li	a4,8
     2d6:	00e78023          	sb	a4,0(a5)
     2da:	0001                	c.nop
     2dc:	0001                	c.nop
     2de:	0001                	c.nop
     2e0:	0001                	c.nop
     2e2:	0001                	c.nop
     2e4:	0001                	c.nop
     2e6:	0001                	c.nop
     2e8:	0001                	c.nop
     2ea:	0001                	c.nop
     2ec:	0001                	c.nop
     2ee:	0001                	c.nop
     2f0:	0001                	c.nop
     2f2:	0001                	c.nop
     2f4:	0001                	c.nop
     2f6:	0001                	c.nop
     2f8:	00000013          	nop
     2fc:	801407b7          	lui	a5,0x80140
     300:	20b78703          	lb	a4,523(a5) # 8014020b <_DATA_LMA_START+0x60135733>
     304:	fe377e5b          	bbs	a4,3,300 <clock_set_32k_tick+0x54>
     308:	00008067          	ret

0000030c <analog_read_reg32.constprop.4>:
     30c:	300027f3          	csrr	a5,mstatus
     310:	8ba1                	c.andi	a5,8
     312:	c789                	c.beqz	a5,31c <analog_read_reg32.constprop.4+0x10>
     314:	30047773          	csrrci	a4,mstatus,8
     318:	0ff0000f          	fence
     31c:	80140737          	lui	a4,0x80140
     320:	00400693          	li	a3,4
     324:	18d701a3          	sb	a3,387(a4) # 80140183 <_DATA_LMA_START+0x601356ab>
     328:	06000693          	li	a3,96
     32c:	18d70023          	sb	a3,384(a4)
     330:	04000613          	li	a2,64
     334:	801406b7          	lui	a3,0x80140
     338:	18c70123          	sb	a2,386(a4)
     33c:	18268703          	lb	a4,386(a3) # 80140182 <_DATA_LMA_START+0x601356aa>
     340:	fe777e5b          	bbs	a4,7,33c <analog_read_reg32.constprop.4+0x30>
     344:	1846a503          	lw	a0,388(a3)
     348:	00078663          	beqz	a5,354 <analog_read_reg32.constprop.4+0x48>
     34c:	3007a7f3          	csrrs	a5,mstatus,a5
     350:	0ff0000f          	fence
     354:	00008067          	ret

00000358 <clock_get_32k_tick>:
     358:	1141                	c.addi	sp,-16
     35a:	c422                	c.swsp	s0,8(sp)
     35c:	c606                	c.swsp	ra,12(sp)
     35e:	377d                	c.jal	30c <analog_read_reg32.constprop.4>
     360:	00a00433          	add	s0,zero,a0
     364:	fa9ff0ef          	jal	ra,30c <analog_read_reg32.constprop.4>
     368:	40850733          	sub	a4,a0,s0
     36c:	842a                	c.mv	s0,a0
     36e:	be176b5b          	bnec	a4,1,364 <clock_get_32k_tick+0xc>
     372:	40b2                	c.lwsp	ra,12(sp)
     374:	4422                	c.lwsp	s0,8(sp)
     376:	0141                	c.addi	sp,16
     378:	00008067          	ret

0000037c <pm_stimer_recover>:
     37c:	1141                	c.addi	sp,-16
     37e:	80140737          	lui	a4,0x80140
     382:	c606                	c.swsp	ra,12(sp)
     384:	4789                	c.li	a5,2
     386:	20f70c23          	sb	a5,536(a4) # 80140218 <_DATA_LMA_START+0x60135740>
     38a:	20a70783          	lb	a5,522(a4)
     38e:	0ff7f793          	andi	a5,a5,255
     392:	00c7e793          	ori	a5,a5,12
     396:	20f70523          	sb	a5,522(a4)
     39a:	3f7d                	c.jal	358 <clock_get_32k_tick>
     39c:	000007b7          	lui	a5,0x0
     3a0:	15878713          	addi	a4,a5,344 # 158 <_AES_VMA_END>
     3a4:	00474703          	lbu	a4,4(a4)
     3a8:	15878793          	addi	a5,a5,344
     3ac:	cf01                	c.beqz	a4,3c4 <pm_stimer_recover+0x48>
     3ae:	4b98                	c.lw	a4,16(a5)
     3b0:	5f90                	c.lw	a2,56(a5)
     3b2:	40e50733          	sub	a4,a0,a4
     3b6:	47d4                	c.lw	a3,12(a5)
     3b8:	0705                	c.addi	a4,1
     3ba:	8315                	c.srli	a4,0x5
     3bc:	c4c716ff          	maddr32	a3,a4,a2
     3c0:	c794                	c.sw	a3,8(a5)
     3c2:	a829                	c.j	3dc <pm_stimer_recover+0x60>
     3c4:	4b98                	c.lw	a4,16(a5)
     3c6:	5f94                	c.lw	a3,56(a5)
     3c8:	40e50733          	sub	a4,a0,a4
     3cc:	0705                	c.addi	a4,1
     3ce:	02d70733          	mul	a4,a4,a3
     3d2:	47d4                	c.lw	a3,12(a5)
     3d4:	8315                	c.srli	a4,0x5
     3d6:	9736                	c.add	a4,a3
     3d8:	00e7a423          	sw	a4,8(a5)
     3dc:	4b98                	c.lw	a4,16(a5)
     3de:	4794                	c.lw	a3,8(a5)
     3e0:	40e50733          	sub	a4,a0,a4
     3e4:	0705                	c.addi	a4,1
     3e6:	0505                	c.addi	a0,1
     3e8:	0685                	c.addi	a3,1
     3ea:	d788                	c.sw	a0,40(a5)
     3ec:	02e7a223          	sw	a4,36(a5)
     3f0:	80140637          	lui	a2,0x80140
     3f4:	801407b7          	lui	a5,0x80140
     3f8:	20d7a023          	sw	a3,512(a5) # 80140200 <_DATA_LMA_START+0x60135728>
     3fc:	20b60783          	lb	a5,523(a2) # 8014020b <_DATA_LMA_START+0x60135733>
     400:	be77fe5b          	bbc	a5,7,3fc <pm_stimer_recover+0x80>
     404:	20060c23          	sb	zero,536(a2)
     408:	40b2                	c.lwsp	ra,12(sp)
     40a:	0141                	c.addi	sp,16
     40c:	00008067          	ret

00000410 <plic_exit_critical_sec>:
     410:	000007b7          	lui	a5,0x0
     414:	15878793          	addi	a5,a5,344 # 158 <_AES_VMA_END>
     418:	03c78783          	lb	a5,60(a5)
     41c:	0ff7f793          	andi	a5,a5,255
     420:	c795                	c.beqz	a5,44c <plic_exit_critical_sec+0x3c>
     422:	c50d                	c.beqz	a0,44c <plic_exit_critical_sec+0x3c>
     424:	300027f3          	csrr	a5,mstatus
     428:	8ba1                	c.andi	a5,8
     42a:	0ff5f593          	andi	a1,a1,255
     42e:	c78d                	c.beqz	a5,458 <plic_exit_critical_sec+0x48>
     430:	30047773          	csrrci	a4,mstatus,8
     434:	0ff0000f          	fence
     438:	e4200737          	lui	a4,0xe4200
     43c:	c30c                	c.sw	a1,0(a4)
     43e:	0ff0000f          	fence
     442:	3007a7f3          	csrrs	a5,mstatus,a5
     446:	0ff0000f          	fence
     44a:	8082                	c.jr	ra
     44c:	cd81                	c.beqz	a1,464 <plic_exit_critical_sec+0x54>
     44e:	3005a5f3          	csrrs	a1,mstatus,a1
     452:	0ff0000f          	fence
     456:	8082                	c.jr	ra
     458:	e42007b7          	lui	a5,0xe4200
     45c:	00b7a023          	sw	a1,0(a5) # e4200000 <_DATA_LMA_START+0xc41f5528>
     460:	0ff0000f          	fence
     464:	00008067          	ret

00000468 <plic_enter_critical_sec>:
     468:	000007b7          	lui	a5,0x0
     46c:	15878793          	addi	a5,a5,344 # 158 <_AES_VMA_END>
     470:	03c78783          	lb	a5,60(a5)
     474:	0ff7f793          	andi	a5,a5,255
     478:	cb85                	c.beqz	a5,4a8 <plic_enter_critical_sec+0x40>
     47a:	c51d                	c.beqz	a0,4a8 <plic_enter_critical_sec+0x40>
     47c:	e4200737          	lui	a4,0xe4200
     480:	4308                	c.lw	a0,0(a4)
     482:	04b57163          	bgeu	a0,a1,4c4 <plic_enter_critical_sec+0x5c>
     486:	300027f3          	csrr	a5,mstatus
     48a:	8ba1                	c.andi	a5,8
     48c:	cb85                	c.beqz	a5,4bc <plic_enter_critical_sec+0x54>
     48e:	300476f3          	csrrci	a3,mstatus,8
     492:	0ff0000f          	fence
     496:	c30c                	c.sw	a1,0(a4)
     498:	0ff0000f          	fence
     49c:	3007a7f3          	csrrs	a5,mstatus,a5
     4a0:	0ff0000f          	fence
     4a4:	00008067          	ret
     4a8:	30002573          	csrr	a0,mstatus
     4ac:	8921                	c.andi	a0,8
     4ae:	c919                	c.beqz	a0,4c4 <plic_enter_critical_sec+0x5c>
     4b0:	300477f3          	csrrci	a5,mstatus,8
     4b4:	0ff0000f          	fence
     4b8:	00008067          	ret
     4bc:	00b72023          	sw	a1,0(a4) # e4200000 <_DATA_LMA_START+0xc41f5528>
     4c0:	0ff0000f          	fence
     4c4:	00008067          	ret

000004c8 <flash_mspi_read_ram>:
     4c8:	7179                	c.addi16sp	sp,-48
     4ca:	d226                	c.swsp	s1,36(sp)
     4cc:	000004b7          	lui	s1,0x0
     4d0:	15848493          	addi	s1,s1,344 # 158 <_AES_VMA_END>
     4d4:	d04a                	c.swsp	s2,32(sp)
     4d6:	c65e                	c.swsp	s7,12(sp)
     4d8:	892a                	c.mv	s2,a0
     4da:	8bae                	c.mv	s7,a1
     4dc:	0404c503          	lbu	a0,64(s1)
     4e0:	0414c583          	lbu	a1,65(s1)
     4e4:	d422                	c.swsp	s0,40(sp)
     4e6:	ce4e                	c.swsp	s3,28(sp)
     4e8:	cc52                	c.swsp	s4,24(sp)
     4ea:	ca56                	c.swsp	s5,20(sp)
     4ec:	c85a                	c.swsp	s6,16(sp)
     4ee:	d606                	c.swsp	ra,44(sp)
     4f0:	8b32                	c.mv	s6,a2
     4f2:	8ab6                	c.mv	s5,a3
     4f4:	843a                	c.mv	s0,a4
     4f6:	8a3e                	c.mv	s4,a5
     4f8:	f71ff0ef          	jal	ra,468 <plic_enter_critical_sec>
     4fc:	80140637          	lui	a2,0x80140
     500:	00a009b3          	add	s3,zero,a0
     504:	10260783          	lb	a5,258(a2) # 80140102 <_DATA_LMA_START+0x6013562a>
     508:	fe07fe5b          	bbs	a5,0,504 <flash_mspi_read_ram+0x3c>
     50c:	10160783          	lb	a5,257(a2)
     510:	80140737          	lui	a4,0x80140
     514:	0ff7f793          	andi	a5,a5,255
     518:	0107e793          	ori	a5,a5,16
     51c:	10f600a3          	sb	a5,257(a2)
     520:	32870783          	lb	a5,808(a4) # 80140328 <_DATA_LMA_START+0x60135850>
     524:	be37fe5b          	bbc	a5,3,520 <flash_mspi_read_ram+0x58>
     528:	10170783          	lb	a5,257(a4)
     52c:	854a                	c.mv	a0,s2
     52e:	0fd7f793          	andi	a5,a5,253
     532:	10f700a3          	sb	a5,257(a4)
     536:	10170783          	lb	a5,257(a4)
     53a:	0f37f793          	andi	a5,a5,243
     53e:	10f700a3          	sb	a5,257(a4)
     542:	330d                	c.jal	264 <flash_send_cmd>
     544:	0e0b1e63          	bnez	s6,640 <flash_mspi_read_ram+0x178>
     548:	020a8063          	beqz	s5,568 <flash_mspi_read_ram+0xa0>
     54c:	00000713          	li	a4,0
     550:	80140637          	lui	a2,0x80140
     554:	10060023          	sb	zero,256(a2) # 80140100 <_DATA_LMA_START+0x60135628>
     558:	10260783          	lb	a5,258(a2)
     55c:	fe07fe5b          	bbs	a5,0,558 <flash_mspi_read_ram+0x90>
     560:	00170713          	addi	a4,a4,1
     564:	ff5718e3          	bne	a4,s5,554 <flash_mspi_read_ram+0x8c>
     568:	01b96cdb          	bnec	s2,59,580 <flash_mspi_read_ram+0xb8>
     56c:	80140737          	lui	a4,0x80140
     570:	10170783          	lb	a5,257(a4) # 80140101 <_DATA_LMA_START+0x60135629>
     574:	0f37f793          	andi	a5,a5,243
     578:	0047e793          	ori	a5,a5,4
     57c:	10f700a3          	sb	a5,257(a4)
     580:	801406b7          	lui	a3,0x80140
     584:	10168783          	lb	a5,257(a3) # 80140101 <_DATA_LMA_START+0x60135629>
     588:	80140737          	lui	a4,0x80140
     58c:	0ff7f793          	andi	a5,a5,255
     590:	0027e793          	ori	a5,a5,2
     594:	10f680a3          	sb	a5,257(a3)
     598:	10068023          	sb	zero,256(a3)
     59c:	10270783          	lb	a5,258(a4) # 80140102 <_DATA_LMA_START+0x6013562a>
     5a0:	fe07fe5b          	bbs	a5,0,59c <flash_mspi_read_ram+0xd4>
     5a4:	10170783          	lb	a5,257(a4)
     5a8:	801406b7          	lui	a3,0x80140
     5ac:	0ff7f793          	andi	a5,a5,255
     5b0:	0017e793          	ori	a5,a5,1
     5b4:	10f700a3          	sb	a5,257(a4)
     5b8:	10268783          	lb	a5,258(a3) # 80140102 <_DATA_LMA_START+0x6013562a>
     5bc:	fe07fe5b          	bbs	a5,0,5b8 <flash_mspi_read_ram+0xf0>
     5c0:	020a0263          	beqz	s4,5e4 <flash_mspi_read_ram+0x11c>
     5c4:	008a0a33          	add	s4,s4,s0
     5c8:	801406b7          	lui	a3,0x80140
     5cc:	10068783          	lb	a5,256(a3) # 80140100 <_DATA_LMA_START+0x60135628>
     5d0:	00140413          	addi	s0,s0,1
     5d4:	fef40fa3          	sb	a5,-1(s0)
     5d8:	10268783          	lb	a5,258(a3)
     5dc:	fe07fe5b          	bbs	a5,0,5d8 <flash_mspi_read_ram+0x110>
     5e0:	ff4416e3          	bne	s0,s4,5cc <flash_mspi_read_ram+0x104>
     5e4:	801407b7          	lui	a5,0x80140
     5e8:	10178703          	lb	a4,257(a5) # 80140101 <_DATA_LMA_START+0x60135629>
     5ec:	0fe77713          	andi	a4,a4,254
     5f0:	10e780a3          	sb	a4,257(a5)
     5f4:	01b968db          	bnec	s2,59,604 <flash_mspi_read_ram+0x13c>
     5f8:	10178703          	lb	a4,257(a5)
     5fc:	0f377713          	andi	a4,a4,243
     600:	10e780a3          	sb	a4,257(a5)
     604:	80140737          	lui	a4,0x80140
     608:	10170783          	lb	a5,257(a4) # 80140101 <_DATA_LMA_START+0x60135629>
     60c:	0ff7f793          	andi	a5,a5,255
     610:	0107e793          	ori	a5,a5,16
     614:	10f700a3          	sb	a5,257(a4)
     618:	0001                	c.nop
     61a:	0001                	c.nop
     61c:	0001                	c.nop
     61e:	0001                	c.nop
     620:	0001                	c.nop
     622:	5422                	c.lwsp	s0,40(sp)
     624:	0404c503          	lbu	a0,64(s1)
     628:	50b2                	c.lwsp	ra,44(sp)
     62a:	5492                	c.lwsp	s1,36(sp)
     62c:	5902                	c.lwsp	s2,32(sp)
     62e:	4a62                	c.lwsp	s4,24(sp)
     630:	4ad2                	c.lwsp	s5,20(sp)
     632:	4b42                	c.lwsp	s6,16(sp)
     634:	4bb2                	c.lwsp	s7,12(sp)
     636:	85ce                	c.mv	a1,s3
     638:	49f2                	c.lwsp	s3,28(sp)
     63a:	6145                	c.addi16sp	sp,48
     63c:	dd5ff06f          	j	410 <plic_exit_critical_sec>
     640:	855e                	c.mv	a0,s7
     642:	3ef9                	c.jal	220 <flash_send_addr>
     644:	f05ff06f          	j	548 <flash_mspi_read_ram+0x80>

00000648 <flash_mspi_read_ram.constprop.7>:
     648:	1101                	c.addi	sp,-32
     64a:	c64e                	c.swsp	s3,12(sp)
     64c:	000009b7          	lui	s3,0x0
     650:	15898993          	addi	s3,s3,344 # 158 <_AES_VMA_END>
     654:	cc22                	c.swsp	s0,24(sp)
     656:	c256                	c.swsp	s5,4(sp)
     658:	842e                	c.mv	s0,a1
     65a:	8aaa                	c.mv	s5,a0
     65c:	0419c583          	lbu	a1,65(s3)
     660:	0409c503          	lbu	a0,64(s3)
     664:	c84a                	c.swsp	s2,16(sp)
     666:	c452                	c.swsp	s4,8(sp)
     668:	ce06                	c.swsp	ra,28(sp)
     66a:	ca26                	c.swsp	s1,20(sp)
     66c:	8932                	c.mv	s2,a2
     66e:	3bed                	c.jal	468 <plic_enter_critical_sec>
     670:	80140737          	lui	a4,0x80140
     674:	00a00a33          	add	s4,zero,a0
     678:	10270783          	lb	a5,258(a4) # 80140102 <_DATA_LMA_START+0x6013562a>
     67c:	fe07fe5b          	bbs	a5,0,678 <flash_mspi_read_ram.constprop.7+0x30>
     680:	10170783          	lb	a5,257(a4)
     684:	801404b7          	lui	s1,0x80140
     688:	0ff7f793          	andi	a5,a5,255
     68c:	0107e793          	ori	a5,a5,16
     690:	10f700a3          	sb	a5,257(a4)
     694:	32848783          	lb	a5,808(s1) # 80140328 <_DATA_LMA_START+0x60135850>
     698:	be37fe5b          	bbc	a5,3,694 <flash_mspi_read_ram.constprop.7+0x4c>
     69c:	10148783          	lb	a5,257(s1)
     6a0:	03b00513          	li	a0,59
     6a4:	0fd7f793          	andi	a5,a5,253
     6a8:	10f480a3          	sb	a5,257(s1)
     6ac:	10148783          	lb	a5,257(s1)
     6b0:	0f37f793          	andi	a5,a5,243
     6b4:	10f480a3          	sb	a5,257(s1)
     6b8:	badff0ef          	jal	ra,264 <flash_send_cmd>
     6bc:	01500533          	add	a0,zero,s5
     6c0:	b61ff0ef          	jal	ra,220 <flash_send_addr>
     6c4:	80140737          	lui	a4,0x80140
     6c8:	10048023          	sb	zero,256(s1)
     6cc:	10270783          	lb	a5,258(a4) # 80140102 <_DATA_LMA_START+0x6013562a>
     6d0:	fe07fe5b          	bbs	a5,0,6cc <flash_mspi_read_ram.constprop.7+0x84>
     6d4:	10170783          	lb	a5,257(a4)
     6d8:	801406b7          	lui	a3,0x80140
     6dc:	0f37f793          	andi	a5,a5,243
     6e0:	0047e793          	ori	a5,a5,4
     6e4:	10f700a3          	sb	a5,257(a4)
     6e8:	10170783          	lb	a5,257(a4)
     6ec:	0ff7f793          	andi	a5,a5,255
     6f0:	0027e793          	ori	a5,a5,2
     6f4:	10f700a3          	sb	a5,257(a4)
     6f8:	10070023          	sb	zero,256(a4)
     6fc:	10268783          	lb	a5,258(a3) # 80140102 <_DATA_LMA_START+0x6013562a>
     700:	fe07fe5b          	bbs	a5,0,6fc <flash_mspi_read_ram.constprop.7+0xb4>
     704:	10168783          	lb	a5,257(a3)
     708:	80140737          	lui	a4,0x80140
     70c:	0ff7f793          	andi	a5,a5,255
     710:	0017e793          	ori	a5,a5,1
     714:	10f680a3          	sb	a5,257(a3)
     718:	10270783          	lb	a5,258(a4) # 80140102 <_DATA_LMA_START+0x6013562a>
     71c:	fe07fe5b          	bbs	a5,0,718 <flash_mspi_read_ram.constprop.7+0xd0>
     720:	02090263          	beqz	s2,744 <flash_mspi_read_ram.constprop.7+0xfc>
     724:	01240633          	add	a2,s0,s2
     728:	80140737          	lui	a4,0x80140
     72c:	10070783          	lb	a5,256(a4) # 80140100 <_DATA_LMA_START+0x60135628>
     730:	00140413          	addi	s0,s0,1
     734:	fef40fa3          	sb	a5,-1(s0)
     738:	10270783          	lb	a5,258(a4)
     73c:	fe07fe5b          	bbs	a5,0,738 <flash_mspi_read_ram.constprop.7+0xf0>
     740:	fec416e3          	bne	s0,a2,72c <flash_mspi_read_ram.constprop.7+0xe4>
     744:	801407b7          	lui	a5,0x80140
     748:	10178703          	lb	a4,257(a5) # 80140101 <_DATA_LMA_START+0x60135629>
     74c:	0fe77713          	andi	a4,a4,254
     750:	10e780a3          	sb	a4,257(a5)
     754:	10178703          	lb	a4,257(a5)
     758:	0f377713          	andi	a4,a4,243
     75c:	10e780a3          	sb	a4,257(a5)
     760:	10178703          	lb	a4,257(a5)
     764:	0ff77713          	andi	a4,a4,255
     768:	01076713          	ori	a4,a4,16
     76c:	10e780a3          	sb	a4,257(a5)
     770:	0001                	c.nop
     772:	0001                	c.nop
     774:	0001                	c.nop
     776:	0001                	c.nop
     778:	0001                	c.nop
     77a:	4462                	c.lwsp	s0,24(sp)
     77c:	0409c503          	lbu	a0,64(s3)
     780:	40f2                	c.lwsp	ra,28(sp)
     782:	44d2                	c.lwsp	s1,20(sp)
     784:	4942                	c.lwsp	s2,16(sp)
     786:	49b2                	c.lwsp	s3,12(sp)
     788:	4a92                	c.lwsp	s5,4(sp)
     78a:	85d2                	c.mv	a1,s4
     78c:	4a22                	c.lwsp	s4,8(sp)
     78e:	6105                	c.addi16sp	sp,32
     790:	c81ff06f          	j	410 <plic_exit_critical_sec>

00000794 <analog_write_reg8>:
     794:	30002673          	csrr	a2,mstatus
     798:	8a21                	c.andi	a2,8
     79a:	c609                	c.beqz	a2,7a4 <analog_write_reg8+0x10>
     79c:	300477f3          	csrrci	a5,mstatus,8
     7a0:	0ff0000f          	fence
     7a4:	80140737          	lui	a4,0x80140
     7a8:	18a70023          	sb	a0,384(a4) # 80140180 <_DATA_LMA_START+0x601356a8>
     7ac:	18b70223          	sb	a1,388(a4)
     7b0:	06000693          	li	a3,96
     7b4:	801407b7          	lui	a5,0x80140
     7b8:	18d70123          	sb	a3,386(a4)
     7bc:	18278703          	lb	a4,386(a5) # 80140182 <_DATA_LMA_START+0x601356aa>
     7c0:	fe777e5b          	bbs	a4,7,7bc <analog_write_reg8+0x28>
     7c4:	18078123          	sb	zero,386(a5)
     7c8:	00060663          	beqz	a2,7d4 <analog_write_reg8+0x40>
     7cc:	30062673          	csrrs	a2,mstatus,a2
     7d0:	0ff0000f          	fence
     7d4:	00008067          	ret

000007d8 <analog_read_reg8>:
     7d8:	300026f3          	csrr	a3,mstatus
     7dc:	8aa1                	c.andi	a3,8
     7de:	c689                	c.beqz	a3,7e8 <analog_read_reg8+0x10>
     7e0:	300477f3          	csrrci	a5,mstatus,8
     7e4:	0ff0000f          	fence
     7e8:	801407b7          	lui	a5,0x80140
     7ec:	18a78023          	sb	a0,384(a5) # 80140180 <_DATA_LMA_START+0x601356a8>
     7f0:	00100713          	li	a4,1
     7f4:	18e781a3          	sb	a4,387(a5)
     7f8:	04000613          	li	a2,64
     7fc:	80140737          	lui	a4,0x80140
     800:	18c78123          	sb	a2,386(a5)
     804:	18270783          	lb	a5,386(a4) # 80140182 <_DATA_LMA_START+0x601356aa>
     808:	fe77fe5b          	bbs	a5,7,804 <analog_read_reg8+0x2c>
     80c:	18470503          	lb	a0,388(a4)
     810:	0ff57513          	andi	a0,a0,255
     814:	00068663          	beqz	a3,820 <analog_read_reg8+0x48>
     818:	3006a6f3          	csrrs	a3,mstatus,a3
     81c:	0ff0000f          	fence
     820:	00008067          	ret

00000824 <clock_init_ram.constprop.11>:
     824:	1141                	c.addi	sp,-16
     826:	80140737          	lui	a4,0x80140
     82a:	c606                	c.swsp	ra,12(sp)
     82c:	c422                	c.swsp	s0,8(sp)
     82e:	c226                	c.swsp	s1,4(sp)
     830:	10270783          	lb	a5,258(a4) # 80140102 <_DATA_LMA_START+0x6013562a>
     834:	fe07fe5b          	bbs	a5,0,830 <clock_init_ram.constprop.11+0xc>
     838:	10170783          	lb	a5,257(a4)
     83c:	801404b7          	lui	s1,0x80140
     840:	0ff7f793          	andi	a5,a5,255
     844:	0107e793          	ori	a5,a5,16
     848:	10f700a3          	sb	a5,257(a4)
     84c:	32848783          	lb	a5,808(s1) # 80140328 <_DATA_LMA_START+0x60135850>
     850:	be37fe5b          	bbc	a5,3,84c <clock_init_ram.constprop.11+0x28>
     854:	1e848783          	lb	a5,488(s1)
     858:	08000513          	li	a0,128
     85c:	8bbd                	c.andi	a5,15
     85e:	1ef48423          	sb	a5,488(s1)
     862:	3f9d                	c.jal	7d8 <analog_read_reg8>
     864:	0e057593          	andi	a1,a0,224
     868:	0105e593          	ori	a1,a1,16
     86c:	08000513          	li	a0,128
     870:	f25ff0ef          	jal	ra,794 <analog_write_reg8>
     874:	00900513          	li	a0,9
     878:	f61ff0ef          	jal	ra,7d8 <analog_read_reg8>
     87c:	0f357593          	andi	a1,a0,243
     880:	0085e593          	ori	a1,a1,8
     884:	4525                	c.li	a0,9
     886:	3739                	c.jal	794 <analog_write_reg8>
     888:	0c000793          	li	a5,192
     88c:	1ec6940b          	addigp	s0,45548 # 8b9ec <sys_clk>
     890:	00f41023          	sh	a5,0(s0)
     894:	08100513          	li	a0,129
     898:	4791                	c.li	a5,4
     89a:	1ef48da3          	sb	a5,507(s1)
     89e:	3f2d                	c.jal	7d8 <analog_read_reg8>
     8a0:	04056593          	ori	a1,a0,64
     8a4:	0ff5f593          	andi	a1,a1,255
     8a8:	08100513          	li	a0,129
     8ac:	ee9ff0ef          	jal	ra,794 <analog_write_reg8>
     8b0:	08800513          	li	a0,136
     8b4:	f25ff0ef          	jal	ra,7d8 <analog_read_reg8>
     8b8:	be557c5b          	bbc	a0,5,8b0 <clock_init_ram.constprop.11+0x8c>
     8bc:	08100513          	li	a0,129
     8c0:	f19ff0ef          	jal	ra,7d8 <analog_read_reg8>
     8c4:	0bf57593          	andi	a1,a0,191
     8c8:	08100513          	li	a0,129
     8cc:	ec9ff0ef          	jal	ra,794 <analog_write_reg8>
     8d0:	801407b7          	lui	a5,0x80140
     8d4:	1e978703          	lb	a4,489(a5) # 801401e9 <_DATA_LMA_START+0x60135711>
     8d8:	8b3d                	c.andi	a4,15
     8da:	04076713          	ori	a4,a4,64
     8de:	1ee784a3          	sb	a4,489(a5)
     8e2:	1e878703          	lb	a4,488(a5)
     8e6:	f8076713          	ori	a4,a4,-128
     8ea:	0ff77713          	andi	a4,a4,255
     8ee:	1ee78423          	sb	a4,488(a5)
     8f2:	1e878703          	lb	a4,488(a5)
     8f6:	f8076713          	ori	a4,a4,-128
     8fa:	0ff77713          	andi	a4,a4,255
     8fe:	1ee78423          	sb	a4,488(a5)
     902:	1d878703          	lb	a4,472(a5)
     906:	00045683          	lhu	a3,0(s0)
     90a:	0fb77713          	andi	a4,a4,251
     90e:	1ce78c23          	sb	a4,472(a5)
     912:	1d878703          	lb	a4,472(a5)
     916:	8689                	c.srai	a3,0x2
     918:	00d402a3          	sb	a3,5(s0)
     91c:	0fc77713          	andi	a4,a4,252
     920:	1ce78c23          	sb	a4,472(a5)
     924:	1e878703          	lb	a4,488(a5)
     928:	0f077713          	andi	a4,a4,240
     92c:	00876713          	ori	a4,a4,8
     930:	1ee78423          	sb	a4,488(a5)
     934:	1e878703          	lb	a4,488(a5)
     938:	00045683          	lhu	a3,0(s0)
     93c:	08f77713          	andi	a4,a4,143
     940:	868d                	c.srai	a3,0x3
     942:	00d40123          	sb	a3,2(s0)
     946:	02076713          	ori	a4,a4,32
     94a:	1ee78423          	sb	a4,488(a5)
     94e:	0ff6f693          	andi	a3,a3,255
     952:	00d401a3          	sb	a3,3(s0)
     956:	00d40223          	sb	a3,4(s0)
     95a:	40b2                	c.lwsp	ra,12(sp)
     95c:	4422                	c.lwsp	s0,8(sp)
     95e:	4492                	c.lwsp	s1,4(sp)
     960:	0141                	c.addi	sp,16
     962:	8082                	c.jr	ra

00000964 <pm_wait_bbpll_done>:
     964:	1101                	c.addi	sp,-32
     966:	08100513          	li	a0,129
     96a:	cc22                	c.swsp	s0,24(sp)
     96c:	ca26                	c.swsp	s1,20(sp)
     96e:	c84a                	c.swsp	s2,16(sp)
     970:	ce06                	c.swsp	ra,28(sp)
     972:	359d                	c.jal	7d8 <analog_read_reg8>
     974:	04056593          	ori	a1,a0,64
     978:	892a                	c.mv	s2,a0
     97a:	0ff5f593          	andi	a1,a1,255
     97e:	08100513          	li	a0,129
     982:	0bf97913          	andi	s2,s2,191
     986:	4481                	c.li	s1,0
     988:	4475                	c.li	s0,29
     98a:	3529                	c.jal	794 <analog_write_reg8>
     98c:	000107a3          	sb	zero,15(sp)
     990:	00f10783          	lb	a5,15(sp)
     994:	0ff7f793          	andi	a5,a5,255
     998:	02f46063          	bltu	s0,a5,9b8 <pm_wait_bbpll_done+0x54>
     99c:	0001                	c.nop
     99e:	00f10783          	lb	a5,15(sp)
     9a2:	0785                	c.addi	a5,1
     9a4:	0ff7f793          	andi	a5,a5,255
     9a8:	00f107a3          	sb	a5,15(sp)
     9ac:	00f10783          	lb	a5,15(sp)
     9b0:	0ff7f793          	andi	a5,a5,255
     9b4:	fef474e3          	bgeu	s0,a5,99c <pm_wait_bbpll_done+0x38>
     9b8:	08800513          	li	a0,136
     9bc:	e1dff0ef          	jal	ra,7d8 <analog_read_reg8>
     9c0:	4255765b          	bbs	a0,5,9ec <pm_wait_bbpll_done+0x88>
     9c4:	cc95                	c.beqz	s1,a00 <pm_wait_bbpll_done+0x9c>
     9c6:	0414d35b          	beqc	s1,1,a0c <pm_wait_bbpll_done+0xa8>
     9ca:	85ca                	c.mv	a1,s2
     9cc:	08100513          	li	a0,129
     9d0:	dc5ff0ef          	jal	ra,794 <analog_write_reg8>
     9d4:	0024d65b          	beqc	s1,2,9e0 <pm_wait_bbpll_done+0x7c>
     9d8:	0485                	c.addi	s1,1
     9da:	0ff4f493          	andi	s1,s1,255
     9de:	b77d                	c.j	98c <pm_wait_bbpll_done+0x28>
     9e0:	40f2                	c.lwsp	ra,28(sp)
     9e2:	4462                	c.lwsp	s0,24(sp)
     9e4:	44d2                	c.lwsp	s1,20(sp)
     9e6:	4942                	c.lwsp	s2,16(sp)
     9e8:	6105                	c.addi16sp	sp,32
     9ea:	8082                	c.jr	ra
     9ec:	4462                	c.lwsp	s0,24(sp)
     9ee:	40f2                	c.lwsp	ra,28(sp)
     9f0:	44d2                	c.lwsp	s1,20(sp)
     9f2:	85ca                	c.mv	a1,s2
     9f4:	4942                	c.lwsp	s2,16(sp)
     9f6:	08100513          	li	a0,129
     9fa:	6105                	c.addi16sp	sp,32
     9fc:	d99ff06f          	j	794 <analog_write_reg8>
     a00:	04600593          	li	a1,70
     a04:	4505                	c.li	a0,1
     a06:	3379                	c.jal	794 <analog_write_reg8>
     a08:	fd1ff06f          	j	9d8 <pm_wait_bbpll_done+0x74>
     a0c:	04300593          	li	a1,67
     a10:	4505                	c.li	a0,1
     a12:	3349                	c.jal	794 <analog_write_reg8>
     a14:	fc5ff06f          	j	9d8 <pm_wait_bbpll_done+0x74>

00000a18 <pm_sleep_start>:
     a18:	1101                	c.addi	sp,-32
     a1a:	26c6a72b          	lwgp	a4,45676 # 8ba6c <g_chip_version>
     a1e:	000006b7          	lui	a3,0x0
     a22:	ce06                	c.swsp	ra,28(sp)
     a24:	cc22                	c.swsp	s0,24(sp)
     a26:	ca26                	c.swsp	s1,20(sp)
     a28:	0ff00793          	li	a5,255
     a2c:	19a6c583          	lbu	a1,410(a3) # 19a <g_pm_suspend_power_cfg>
     a30:	00f71a63          	bne	a4,a5,a44 <pm_sleep_start+0x2c>
     a34:	0fe5f593          	andi	a1,a1,254
     a38:	07d00513          	li	a0,125
     a3c:	d59ff0ef          	jal	ra,794 <analog_write_reg8>
     a40:	00c0006f          	j	a4c <pm_sleep_start+0x34>
     a44:	07d00513          	li	a0,125
     a48:	d4dff0ef          	jal	ra,794 <analog_write_reg8>
     a4c:	801406b7          	lui	a3,0x80140
     a50:	10268783          	lb	a5,258(a3) # 80140102 <_DATA_LMA_START+0x6013562a>
     a54:	fe07fe5b          	bbs	a5,0,a50 <pm_sleep_start+0x38>
     a58:	10168703          	lb	a4,257(a3)
     a5c:	801407b7          	lui	a5,0x80140
     a60:	0ff77713          	andi	a4,a4,255
     a64:	01076713          	ori	a4,a4,16
     a68:	10e680a3          	sb	a4,257(a3)
     a6c:	32878703          	lb	a4,808(a5) # 80140328 <_DATA_LMA_START+0x60135850>
     a70:	be377e5b          	bbc	a4,3,a6c <pm_sleep_start+0x54>
     a74:	10178703          	lb	a4,257(a5)
     a78:	80140437          	lui	s0,0x80140
     a7c:	0fd77713          	andi	a4,a4,253
     a80:	10e780a3          	sb	a4,257(a5)
     a84:	10178703          	lb	a4,257(a5)
     a88:	0ef77713          	andi	a4,a4,239
     a8c:	10e780a3          	sb	a4,257(a5)
     a90:	fb900713          	li	a4,-71
     a94:	10e78023          	sb	a4,256(a5)
     a98:	10240783          	lb	a5,258(s0) # 80140102 <_DATA_LMA_START+0x6013562a>
     a9c:	fe07fe5b          	bbs	a5,0,a98 <pm_sleep_start+0x80>
     aa0:	10140783          	lb	a5,257(s0)
     aa4:	452d                	c.li	a0,11
     aa6:	0ff7f793          	andi	a5,a5,255
     aaa:	0107e793          	ori	a5,a5,16
     aae:	10f400a3          	sb	a5,257(s0)
     ab2:	320404a3          	sb	zero,809(s0)
     ab6:	330d                	c.jal	7d8 <analog_read_reg8>
     ab8:	0fc57593          	andi	a1,a0,252
     abc:	452d                	c.li	a0,11
     abe:	39d9                	c.jal	794 <analog_write_reg8>
     ac0:	08100513          	li	a0,129
     ac4:	d15ff0ef          	jal	ra,7d8 <analog_read_reg8>
     ac8:	f8056593          	ori	a1,a0,-128
     acc:	0ff5f593          	andi	a1,a1,255
     ad0:	08100513          	li	a0,129
     ad4:	cc1ff0ef          	jal	ra,794 <analog_write_reg8>
     ad8:	f8000793          	li	a5,-128
     adc:	1ef407a3          	sb	a5,495(s0)
     ae0:	03f00493          	li	s1,63
     ae4:	00012423          	sw	zero,8(sp)
     ae8:	47a2                	c.lwsp	a5,8(sp)
     aea:	00f4e763          	bltu	s1,a5,af8 <pm_sleep_start+0xe0>
     aee:	0001                	c.nop
     af0:	47a2                	c.lwsp	a5,8(sp)
     af2:	0785                	c.addi	a5,1
     af4:	c43e                	c.swsp	a5,8(sp)
     af6:	bfcd                	c.j	ae8 <pm_sleep_start+0xd0>
     af8:	08100513          	li	a0,129
     afc:	cddff0ef          	jal	ra,7d8 <analog_read_reg8>
     b00:	07f57593          	andi	a1,a0,127
     b04:	08100513          	li	a0,129
     b08:	c8dff0ef          	jal	ra,794 <analog_write_reg8>
     b0c:	00b00513          	li	a0,11
     b10:	cc9ff0ef          	jal	ra,7d8 <analog_read_reg8>
     b14:	00356593          	ori	a1,a0,3
     b18:	0ff5f593          	andi	a1,a1,255
     b1c:	452d                	c.li	a0,11
     b1e:	399d                	c.jal	794 <analog_write_reg8>
     b20:	08000593          	li	a1,128
     b24:	07d00513          	li	a0,125
     b28:	c6dff0ef          	jal	ra,794 <analog_write_reg8>
     b2c:	801407b7          	lui	a5,0x80140
     b30:	329784a3          	sb	s1,809(a5) # 80140329 <_DATA_LMA_START+0x60135851>
     b34:	10178683          	lb	a3,257(a5)
     b38:	80140737          	lui	a4,0x80140
     b3c:	0ef6f693          	andi	a3,a3,239
     b40:	10d780a3          	sb	a3,257(a5)
     b44:	fab00693          	li	a3,-85
     b48:	10d78023          	sb	a3,256(a5)
     b4c:	10270783          	lb	a5,258(a4) # 80140102 <_DATA_LMA_START+0x6013562a>
     b50:	fe07fe5b          	bbs	a5,0,b4c <pm_sleep_start+0x134>
     b54:	10170783          	lb	a5,257(a4)
     b58:	12b00693          	li	a3,299
     b5c:	0ff7f793          	andi	a5,a5,255
     b60:	0107e793          	ori	a5,a5,16
     b64:	10f700a3          	sb	a5,257(a4)
     b68:	00012623          	sw	zero,12(sp)
     b6c:	47b2                	c.lwsp	a5,12(sp)
     b6e:	00f6e763          	bltu	a3,a5,b7c <pm_sleep_start+0x164>
     b72:	0001                	c.nop
     b74:	47b2                	c.lwsp	a5,12(sp)
     b76:	0785                	c.addi	a5,1
     b78:	c63e                	c.swsp	a5,12(sp)
     b7a:	bfcd                	c.j	b6c <pm_sleep_start+0x154>
     b7c:	08800513          	li	a0,136
     b80:	c59ff0ef          	jal	ra,7d8 <analog_read_reg8>
     b84:	be757c5b          	bbc	a0,7,b7c <pm_sleep_start+0x164>
     b88:	08800513          	li	a0,136
     b8c:	c4dff0ef          	jal	ra,7d8 <analog_read_reg8>
     b90:	be757c5b          	bbc	a0,7,b88 <pm_sleep_start+0x170>
     b94:	08800513          	li	a0,136
     b98:	c41ff0ef          	jal	ra,7d8 <analog_read_reg8>
     b9c:	be757c5b          	bbc	a0,7,b94 <pm_sleep_start+0x17c>
     ba0:	4462                	c.lwsp	s0,24(sp)
     ba2:	40f2                	c.lwsp	ra,28(sp)
     ba4:	44d2                	c.lwsp	s1,20(sp)
     ba6:	6105                	c.addi16sp	sp,32
     ba8:	dbdff06f          	j	964 <pm_wait_bbpll_done>

00000bac <dr_putchar>:
     bac:	1101                	c.addi	sp,-32
     bae:	ca26                	c.swsp	s1,20(sp)
     bb0:	cc22                	c.swsp	s0,24(sp)
     bb2:	ce06                	c.swsp	ra,28(sp)
     bb4:	c84a                	c.swsp	s2,16(sp)
     bb6:	1e86948b          	addigp	s1,45544 # 8b9e8 <init_flag.4915>
     bba:	842a                	c.mv	s0,a0
     bbc:	0004c783          	lbu	a5,0(s1)
     bc0:	0c17d25b          	beqc	a5,1,c84 <dr_putchar+0xd8>
     bc4:	801407b7          	lui	a5,0x80140
     bc8:	30378703          	lb	a4,771(a5) # 80140303 <_DATA_LMA_START+0x6013582b>
     bcc:	30378783          	lb	a5,771(a5)
     bd0:	0fe77713          	andi	a4,a4,254
     bd4:	0ff7f793          	andi	a5,a5,255
     bd8:	0017e793          	ori	a5,a5,1
     bdc:	00e10223          	sb	a4,4(sp)
     be0:	86be                	c.mv	a3,a5
     be2:	4004735b          	bbs	s0,0,be8 <dr_putchar+0x3c>
     be6:	86ba                	c.mv	a3,a4
     be8:	00d102a3          	sb	a3,5(sp)
     bec:	86be                	c.mv	a3,a5
     bee:	4014735b          	bbs	s0,1,bf4 <dr_putchar+0x48>
     bf2:	86ba                	c.mv	a3,a4
     bf4:	00d10323          	sb	a3,6(sp)
     bf8:	86be                	c.mv	a3,a5
     bfa:	4024735b          	bbs	s0,2,c00 <dr_putchar+0x54>
     bfe:	86ba                	c.mv	a3,a4
     c00:	00d103a3          	sb	a3,7(sp)
     c04:	86be                	c.mv	a3,a5
     c06:	4034735b          	bbs	s0,3,c0c <dr_putchar+0x60>
     c0a:	86ba                	c.mv	a3,a4
     c0c:	00d10423          	sb	a3,8(sp)
     c10:	86be                	c.mv	a3,a5
     c12:	4044735b          	bbs	s0,4,c18 <dr_putchar+0x6c>
     c16:	86ba                	c.mv	a3,a4
     c18:	00d104a3          	sb	a3,9(sp)
     c1c:	86be                	c.mv	a3,a5
     c1e:	4054735b          	bbs	s0,5,c24 <dr_putchar+0x78>
     c22:	86ba                	c.mv	a3,a4
     c24:	00d10523          	sb	a3,10(sp)
     c28:	86be                	c.mv	a3,a5
     c2a:	4064735b          	bbs	s0,6,c30 <dr_putchar+0x84>
     c2e:	86ba                	c.mv	a3,a4
     c30:	00d105a3          	sb	a3,11(sp)
     c34:	801d                	c.srli	s0,0x7
     c36:	c019                	c.beqz	s0,c3c <dr_putchar+0x90>
     c38:	00f00733          	add	a4,zero,a5
     c3c:	00f106a3          	sb	a5,13(sp)
     c40:	801407b7          	lui	a5,0x80140
     c44:	00e10623          	sb	a4,12(sp)
     c48:	2007a603          	lw	a2,512(a5) # 80140200 <_DATA_LMA_START+0x60135728>
     c4c:	00410513          	addi	a0,sp,4
     c50:	00e10813          	addi	a6,sp,14
     c54:	801406b7          	lui	a3,0x80140
     c58:	08900593          	li	a1,137
     c5c:	2006a783          	lw	a5,512(a3) # 80140200 <_DATA_LMA_START+0x60135728>
     c60:	40c78733          	sub	a4,a5,a2
     c64:	fee5fce3          	bgeu	a1,a4,c5c <dr_putchar+0xb0>
     c68:	00054703          	lbu	a4,0(a0)
     c6c:	0505                	c.addi	a0,1
     c6e:	30e681a3          	sb	a4,771(a3)
     c72:	863e                	c.mv	a2,a5
     c74:	ff0514e3          	bne	a0,a6,c5c <dr_putchar+0xb0>
     c78:	40f2                	c.lwsp	ra,28(sp)
     c7a:	4462                	c.lwsp	s0,24(sp)
     c7c:	44d2                	c.lwsp	s1,20(sp)
     c7e:	4942                	c.lwsp	s2,16(sp)
     c80:	6105                	c.addi16sp	sp,32
     c82:	8082                	c.jr	ra
     c84:	80140937          	lui	s2,0x80140
     c88:	30690783          	lb	a5,774(s2) # 80140306 <_DATA_LMA_START+0x6013582e>
     c8c:	4539                	c.li	a0,14
     c8e:	0ff7f793          	andi	a5,a5,255
     c92:	0017e793          	ori	a5,a5,1
     c96:	30f90323          	sb	a5,774(s2)
     c9a:	3e3d                	c.jal	7d8 <analog_read_reg8>
     c9c:	0fc57593          	andi	a1,a0,252
     ca0:	0015e593          	ori	a1,a1,1
     ca4:	4539                	c.li	a0,14
     ca6:	34fd                	c.jal	794 <analog_write_reg8>
     ca8:	30290783          	lb	a5,770(s2)
     cac:	0fe7f793          	andi	a5,a5,254
     cb0:	30f90123          	sb	a5,770(s2)
     cb4:	30390783          	lb	a5,771(s2)
     cb8:	0ff7f793          	andi	a5,a5,255
     cbc:	0017e793          	ori	a5,a5,1
     cc0:	30f901a3          	sb	a5,771(s2)
     cc4:	00048023          	sb	zero,0(s1)
     cc8:	efdff06f          	j	bc4 <dr_putchar+0x18>

00000ccc <pm_sleep_wakeup_ram.constprop.3>:
     ccc:	1101                	c.addi	sp,-32
     cce:	c452                	c.swsp	s4,8(sp)
     cd0:	8a2a                	c.mv	s4,a0
     cd2:	ce06                	c.swsp	ra,28(sp)
     cd4:	cc22                	c.swsp	s0,24(sp)
     cd6:	ca26                	c.swsp	s1,20(sp)
     cd8:	c84a                	c.swsp	s2,16(sp)
     cda:	c64e                	c.swsp	s3,12(sp)
     cdc:	c256                	c.swsp	s5,4(sp)
     cde:	c05a                	c.swsp	s6,0(sp)
     ce0:	300029f3          	csrr	s3,mstatus
     ce4:	0089f993          	andi	s3,s3,8
     ce8:	00098663          	beqz	s3,cf4 <pm_sleep_wakeup_ram.constprop.3+0x28>
     cec:	300477f3          	csrrci	a5,mstatus,8
     cf0:	0ff0000f          	fence
     cf4:	801407b7          	lui	a5,0x80140
     cf8:	2147a683          	lw	a3,532(a5) # 80140214 <_DATA_LMA_START+0x6013573c>
     cfc:	def5                	c.beqz	a3,cf8 <pm_sleep_wakeup_ram.constprop.3+0x2c>
     cfe:	00000437          	lui	s0,0x0
     d02:	15840693          	addi	a3,s0,344 # 158 <_AES_VMA_END>
     d06:	2147a783          	lw	a5,532(a5)
     d0a:	5298                	c.lw	a4,32(a3)
     d0c:	da9c                	c.sw	a5,48(a3)
     d0e:	15840413          	addi	s0,s0,344
     d12:	0792                	c.slli	a5,0x4
     d14:	cb11                	c.beqz	a4,d28 <pm_sleep_wakeup_ram.constprop.3+0x5c>
     d16:	03444603          	lbu	a2,52(s0)
     d1a:	4691                	c.li	a3,4
     d1c:	8f99                	c.sub	a5,a4
     d1e:	8e91                	c.sub	a3,a2
     d20:	40d7d7b3          	sra	a5,a5,a3
     d24:	00e787b3          	add	a5,a5,a4
     d28:	d01c                	c.sw	a5,32(s0)
     d2a:	5004                	c.lw	s1,32(s0)
     d2c:	485c                	c.lw	a5,20(s0)
     d2e:	8491                	c.srai	s1,0x4
     d30:	02f487b3          	mul	a5,s1,a5
     d34:	80140937          	lui	s2,0x80140
     d38:	20092a83          	lw	s5,512(s2) # 80140200 <_DATA_LMA_START+0x60135728>
     d3c:	e0000737          	lui	a4,0xe0000
     d40:	415a0ab3          	sub	s5,s4,s5
     d44:	87c9                	c.srai	a5,0x12
     d46:	94be                	c.add	s1,a5
     d48:	0486                	c.slli	s1,0x1
     d4a:	dc04                	c.sw	s1,56(s0)
     d4c:	03577063          	bgeu	a4,s5,d6c <pm_sleep_wakeup_ram.constprop.3+0xa0>
     d50:	00098663          	beqz	s3,d5c <pm_sleep_wakeup_ram.constprop.3+0x90>
     d54:	3009a9f3          	csrrs	s3,mstatus,s3
     d58:	0ff0000f          	fence
     d5c:	06400513          	li	a0,100
     d60:	a79ff0ef          	jal	ra,7d8 <analog_read_reg8>
     d64:	01f57513          	andi	a0,a0,31
     d68:	25c0006f          	j	fc4 <pm_sleep_wakeup_ram.constprop.3+0x2f8>
     d6c:	04a41783          	lh	a5,74(s0)
     d70:	1137a7db          	bfoz	a5,a5,4,19
     d74:	02fafe63          	bgeu	s5,a5,db0 <pm_sleep_wakeup_ram.constprop.3+0xe4>
     d78:	45fd                	c.li	a1,31
     d7a:	06400513          	li	a0,100
     d7e:	801404b7          	lui	s1,0x80140
     d82:	20092403          	lw	s0,512(s2)
     d86:	3439                	c.jal	794 <analog_write_reg8>
     d88:	06400513          	li	a0,100
     d8c:	a4dff0ef          	jal	ra,7d8 <analog_read_reg8>
     d90:	2004a783          	lw	a5,512(s1) # 80140200 <_DATA_LMA_START+0x60135728>
     d94:	897d                	c.andi	a0,31
     d96:	8f81                	c.sub	a5,s0
     d98:	0157f463          	bgeu	a5,s5,da0 <pm_sleep_wakeup_ram.constprop.3+0xd4>
     d9c:	fe0506e3          	beqz	a0,d88 <pm_sleep_wakeup_ram.constprop.3+0xbc>
     da0:	22098263          	beqz	s3,fc4 <pm_sleep_wakeup_ram.constprop.3+0x2f8>
     da4:	3009a9f3          	csrrs	s3,mstatus,s3
     da8:	0ff0000f          	fence
     dac:	2180006f          	j	fc4 <pm_sleep_wakeup_ram.constprop.3+0x2f8>
     db0:	1e890a83          	lb	s5,488(s2)
     db4:	00faf793          	andi	a5,s5,15
     db8:	1ef90423          	sb	a5,488(s2)
     dbc:	1d890b03          	lb	s6,472(s2)
     dc0:	0f8b7793          	andi	a5,s6,248
     dc4:	1cf90c23          	sb	a5,472(s2)
     dc8:	00100793          	li	a5,1
     dcc:	20f90c23          	sb	a5,536(s2)
     dd0:	20a90783          	lb	a5,522(s2)
     dd4:	0f77f793          	andi	a5,a5,247
     dd8:	20f90523          	sb	a5,522(s2)
     ddc:	d7cff0ef          	jal	ra,358 <clock_get_32k_tick>
     de0:	20092703          	lw	a4,512(s2)
     de4:	20b90783          	lb	a5,523(s2)
     de8:	5414                	c.lw	a3,40(s0)
     dea:	0ff7f793          	andi	a5,a5,255
     dee:	0027e793          	ori	a5,a5,2
     df2:	c468                	c.sw	a0,76(s0)
     df4:	c418                	c.sw	a4,8(s0)
     df6:	03444603          	lbu	a2,52(s0)
     dfa:	40d506b3          	sub	a3,a0,a3
     dfe:	20f905a3          	sb	a5,523(s2)
     e02:	d454                	c.sw	a3,44(s0)
     e04:	e215                	c.bnez	a2,e28 <pm_sleep_wakeup_ram.constprop.3+0x15c>
     e06:	445c                	c.lw	a5,12(s0)
     e08:	c385                	c.beqz	a5,e28 <pm_sleep_wakeup_ram.constprop.3+0x15c>
     e0a:	05044783          	lbu	a5,80(s0)
     e0e:	ef89                	c.bnez	a5,e28 <pm_sleep_wakeup_ram.constprop.3+0x15c>
     e10:	01042783          	lw	a5,16(s0)
     e14:	000276b7          	lui	a3,0x27
     e18:	40f507b3          	sub	a5,a0,a5
     e1c:	6c07a7db          	bfoz	a5,a5,27,0
     e20:	10068693          	addi	a3,a3,256 # 27100 <BIN_SIZE+0x10bae>
     e24:	00f6f863          	bgeu	a3,a5,e34 <pm_sleep_wakeup_ram.constprop.3+0x168>
     e28:	00176713          	ori	a4,a4,1
     e2c:	02040a23          	sb	zero,52(s0)
     e30:	c808                	c.sw	a0,16(s0)
     e32:	c458                	c.sw	a4,12(s0)
     e34:	02000593          	li	a1,32
     e38:	04b00513          	li	a0,75
     e3c:	959ff0ef          	jal	ra,794 <analog_write_reg8>
     e40:	45fd                	c.li	a1,31
     e42:	06400513          	li	a0,100
     e46:	32b9                	c.jal	794 <analog_write_reg8>
     e48:	03000593          	li	a1,48
     e4c:	07e00513          	li	a0,126
     e50:	945ff0ef          	jal	ra,794 <analog_write_reg8>
     e54:	0f900593          	li	a1,249
     e58:	04d00513          	li	a0,77
     e5c:	939ff0ef          	jal	ra,794 <analog_write_reg8>
     e60:	4585                	c.li	a1,1
     e62:	07f00513          	li	a0,127
     e66:	323d                	c.jal	794 <analog_write_reg8>
     e68:	04841783          	lh	a5,72(s0)
     e6c:	0ee00593          	li	a1,238
     e70:	1137a7db          	bfoz	a5,a5,4,19
     e74:	04c00513          	li	a0,76
     e78:	40fa0933          	sub	s2,s4,a5
     e7c:	919ff0ef          	jal	ra,794 <analog_write_reg8>
     e80:	05441583          	lh	a1,84(s0)
     e84:	04000513          	li	a0,64
     e88:	0ff5f593          	andi	a1,a1,255
     e8c:	909ff0ef          	jal	ra,794 <analog_write_reg8>
     e90:	445c                	c.lw	a5,12(s0)
     e92:	07ff0737          	lui	a4,0x7ff0
     e96:	40f907b3          	sub	a5,s2,a5
     e9a:	00f77763          	bgeu	a4,a5,ea8 <pm_sleep_wakeup_ram.constprop.3+0x1dc>
     e9e:	4705                	c.li	a4,1
     ea0:	00e40223          	sb	a4,4(s0)
     ea4:	0080006f          	j	eac <pm_sleep_wakeup_ram.constprop.3+0x1e0>
     ea8:	00040223          	sb	zero,4(s0)
     eac:	00444683          	lbu	a3,4(s0)
     eb0:	4808                	c.lw	a0,16(s0)
     eb2:	5c18                	c.lw	a4,56(s0)
     eb4:	c691                	c.beqz	a3,ec0 <pm_sleep_wakeup_ram.constprop.3+0x1f4>
     eb6:	02e7d7b3          	divu	a5,a5,a4
     eba:	0796                	c.slli	a5,0x5
     ebc:	953e                	c.add	a0,a5
     ebe:	a039                	c.j	ecc <pm_sleep_wakeup_ram.constprop.3+0x200>
     ec0:	8085                	c.srli	s1,0x1
     ec2:	0796                	c.slli	a5,0x5
     ec4:	97a6                	c.add	a5,s1
     ec6:	02e7d7b3          	divu	a5,a5,a4
     eca:	953e                	c.add	a0,a5
     ecc:	be0ff0ef          	jal	ra,2ac <clock_set_32k_tick>
     ed0:	06400513          	li	a0,100
     ed4:	905ff0ef          	jal	ra,7d8 <analog_read_reg8>
     ed8:	01f57513          	andi	a0,a0,31
     edc:	e901                	c.bnez	a0,eec <pm_sleep_wakeup_ram.constprop.3+0x220>
     ede:	3e2d                	c.jal	a18 <pm_sleep_start>
     ee0:	00100593          	li	a1,1
     ee4:	07f00513          	li	a0,127
     ee8:	8adff0ef          	jal	ra,794 <analog_write_reg8>
     eec:	80140737          	lui	a4,0x80140
     ef0:	02000793          	li	a5,32
     ef4:	1ef707a3          	sb	a5,495(a4) # 801401ef <_DATA_LMA_START+0x60135717>
     ef8:	00200793          	li	a5,2
     efc:	20f70c23          	sb	a5,536(a4)
     f00:	20a70783          	lb	a5,522(a4)
     f04:	0ff7f793          	andi	a5,a5,255
     f08:	00c7e793          	ori	a5,a5,12
     f0c:	20f70523          	sb	a5,522(a4)
     f10:	c48ff0ef          	jal	ra,358 <clock_get_32k_tick>
     f14:	00444783          	lbu	a5,4(s0)
     f18:	cf81                	c.beqz	a5,f30 <pm_sleep_wakeup_ram.constprop.3+0x264>
     f1a:	481c                	c.lw	a5,16(s0)
     f1c:	5c14                	c.lw	a3,56(s0)
     f1e:	40f507b3          	sub	a5,a0,a5
     f22:	4458                	c.lw	a4,12(s0)
     f24:	0785                	c.addi	a5,1
     f26:	8395                	c.srli	a5,0x5
     f28:	c4d7977f          	maddr32	a4,a5,a3
     f2c:	c418                	c.sw	a4,8(s0)
     f2e:	a829                	c.j	f48 <pm_sleep_wakeup_ram.constprop.3+0x27c>
     f30:	481c                	c.lw	a5,16(s0)
     f32:	5c18                	c.lw	a4,56(s0)
     f34:	40f507b3          	sub	a5,a0,a5
     f38:	0785                	c.addi	a5,1
     f3a:	02e787b3          	mul	a5,a5,a4
     f3e:	4458                	c.lw	a4,12(s0)
     f40:	8395                	c.srli	a5,0x5
     f42:	97ba                	c.add	a5,a4
     f44:	00f42423          	sw	a5,8(s0)
     f48:	481c                	c.lw	a5,16(s0)
     f4a:	4414                	c.lw	a3,8(s0)
     f4c:	40f507b3          	sub	a5,a0,a5
     f50:	0785                	c.addi	a5,1
     f52:	0505                	c.addi	a0,1
     f54:	d05c                	c.sw	a5,36(s0)
     f56:	0685                	c.addi	a3,1
     f58:	02a42423          	sw	a0,40(s0)
     f5c:	801407b7          	lui	a5,0x80140
     f60:	80140737          	lui	a4,0x80140
     f64:	20d7a023          	sw	a3,512(a5) # 80140200 <_DATA_LMA_START+0x60135728>
     f68:	20b70783          	lb	a5,523(a4) # 8014020b <_DATA_LMA_START+0x60135733>
     f6c:	be77fe5b          	bbc	a5,7,f68 <pm_sleep_wakeup_ram.constprop.3+0x29c>
     f70:	20070c23          	sb	zero,536(a4)
     f74:	1d670c23          	sb	s6,472(a4)
     f78:	06400513          	li	a0,100
     f7c:	1f570423          	sb	s5,488(a4)
     f80:	859ff0ef          	jal	ra,7d8 <analog_read_reg8>
     f84:	2706970b          	addigp	a4,45680 # 8ba70 <g_pm_status_info>
     f88:	00a700a3          	sb	a0,1(a4)
     f8c:	2706978b          	addigp	a5,45680 # 8ba70 <g_pm_status_info>
     f90:	00157c5b          	bbc	a0,1,fa8 <pm_sleep_wakeup_ram.constprop.3+0x2dc>
     f94:	80140637          	lui	a2,0x80140
     f98:	400006b7          	lui	a3,0x40000
     f9c:	20062703          	lw	a4,512(a2) # 80140200 <_DATA_LMA_START+0x60135728>
     fa0:	41470733          	sub	a4,a4,s4
     fa4:	fee6ece3          	bltu	a3,a4,f9c <pm_sleep_wakeup_ram.constprop.3+0x2d0>
     fa8:	00098663          	beqz	s3,fb4 <pm_sleep_wakeup_ram.constprop.3+0x2e8>
     fac:	3009a9f3          	csrrs	s3,mstatus,s3
     fb0:	0ff0000f          	fence
     fb4:	0017c783          	lbu	a5,1(a5)
     fb8:	10000513          	li	a0,256
     fbc:	c781                	c.beqz	a5,fc4 <pm_sleep_wakeup_ram.constprop.3+0x2f8>
     fbe:	40000537          	lui	a0,0x40000
     fc2:	8d5d                	c.or	a0,a5
     fc4:	40f2                	c.lwsp	ra,28(sp)
     fc6:	4462                	c.lwsp	s0,24(sp)
     fc8:	44d2                	c.lwsp	s1,20(sp)
     fca:	4942                	c.lwsp	s2,16(sp)
     fcc:	49b2                	c.lwsp	s3,12(sp)
     fce:	4a22                	c.lwsp	s4,8(sp)
     fd0:	4a92                	c.lwsp	s5,4(sp)
     fd2:	4b02                	c.lwsp	s6,0(sp)
     fd4:	6105                	c.addi16sp	sp,32
     fd6:	8082                	c.jr	ra

00000fd8 <trap_entry>:
     fd8:	1101                	c.addi	sp,-32
     fda:	ce2a                	c.swsp	a0,28(sp)
     fdc:	cc2e                	c.swsp	a1,24(sp)
     fde:	ca32                	c.swsp	a2,20(sp)
     fe0:	c836                	c.swsp	a3,16(sp)
     fe2:	c63a                	c.swsp	a4,12(sp)
     fe4:	c43e                	c.swsp	a5,8(sp)
     fe6:	34202773          	csrr	a4,mcause
     fea:	000007b7          	lui	a5,0x0
     fee:	15878793          	addi	a5,a5,344 # 158 <_AES_VMA_END>
     ff2:	03c78683          	lb	a3,60(a5)
     ff6:	0ff6f693          	andi	a3,a3,255
     ffa:	c2dd                	c.beqz	a3,10a0 <trap_entry+0xc8>
     ffc:	34102673          	csrr	a2,mepc
    1000:	300025f3          	csrr	a1,mstatus
    1004:	7c4026f3          	csrr	a3,mxstatus
    1008:	02074a63          	bltz	a4,103c <trap_entry+0x64>
    100c:	34302773          	csrr	a4,mtval
    1010:	26e6c42b          	swgp	a4,45672 # 8ba68 <exception_mtval>
    1014:	34102773          	csrr	a4,mepc
    1018:	26e6c02b          	swgp	a4,45664 # 8ba60 <exception_mepc>
    101c:	30002773          	csrr	a4,mstatus
    1020:	26e6c22b          	swgp	a4,45668 # 8ba64 <exception_mstatus>
    1024:	34202773          	csrr	a4,mcause
    1028:	24e6cc2b          	swgp	a4,45656 # 8ba58 <_DATA_VMA_END>
    102c:	7c902773          	csrr	a4,mdcause
    1030:	24e6ce2b          	swgp	a4,45660 # 8ba5c <exception_mdcause>
    1034:	0001                	c.nop
    1036:	0001                	c.nop
    1038:	ffdff06f          	j	1034 <trap_entry+0x5c>
    103c:	7807275b          	bfoz	a4,a4,30,0
    1040:	0677545b          	beqc	a4,7,10a8 <trap_entry+0xd0>
    1044:	bc37645b          	bnec	a4,3,100c <trap_entry+0x34>
    1048:	e6600737          	lui	a4,0xe6600
    104c:	4358                	c.lw	a4,4(a4)
    104e:	03c78703          	lb	a4,60(a5)
    1052:	0ff77713          	andi	a4,a4,255
    1056:	c319                	c.beqz	a4,105c <trap_entry+0x84>
    1058:	30046773          	csrrsi	a4,mstatus,8
    105c:	03c78703          	lb	a4,60(a5)
    1060:	0ff77713          	andi	a4,a4,255
    1064:	00070463          	beqz	a4,106c <trap_entry+0x94>
    1068:	30047773          	csrrci	a4,mstatus,8
    106c:	e6600737          	lui	a4,0xe6600
    1070:	4505                	c.li	a0,1
    1072:	c348                	c.sw	a0,4(a4)
    1074:	03c78783          	lb	a5,60(a5)
    1078:	0ff7f793          	andi	a5,a5,255
    107c:	00078863          	beqz	a5,108c <trap_entry+0xb4>
    1080:	30059073          	csrw	mstatus,a1
    1084:	34161073          	csrw	mepc,a2
    1088:	7c469073          	csrw	mxstatus,a3
    108c:	4572                	c.lwsp	a0,28(sp)
    108e:	45e2                	c.lwsp	a1,24(sp)
    1090:	4652                	c.lwsp	a2,20(sp)
    1092:	46c2                	c.lwsp	a3,16(sp)
    1094:	4732                	c.lwsp	a4,12(sp)
    1096:	47a2                	c.lwsp	a5,8(sp)
    1098:	02010113          	addi	sp,sp,32
    109c:	30200073          	mret
    10a0:	4681                	c.li	a3,0
    10a2:	4581                	c.li	a1,0
    10a4:	4601                	c.li	a2,0
    10a6:	b78d                	c.j	1008 <trap_entry+0x30>
    10a8:	03c78703          	lb	a4,60(a5)
    10ac:	0ff77713          	andi	a4,a4,255
    10b0:	00070863          	beqz	a4,10c0 <trap_entry+0xe8>
    10b4:	08000713          	li	a4,128
    10b8:	30473773          	csrrc	a4,mie,a4
    10bc:	30046773          	csrrsi	a4,mstatus,8
    10c0:	03c78703          	lb	a4,60(a5)
    10c4:	0ff77713          	andi	a4,a4,255
    10c8:	d755                	c.beqz	a4,1074 <trap_entry+0x9c>
    10ca:	30047773          	csrrci	a4,mstatus,8
    10ce:	08000713          	li	a4,128
    10d2:	30472773          	csrrs	a4,mie,a4
    10d6:	bf79                	c.j	1074 <trap_entry+0x9c>
    10d8:	0001                	c.nop
	...

00001100 <__vectors>:
    1100:	0fd8                	c.addi4spn	a4,sp,980
    1102:	0000                	unimp
    1104:	2f30                	c.fld	fa2,88(a4)
    1106:	0000                	unimp
    1108:	2f30                	c.fld	fa2,88(a4)
    110a:	0000                	unimp
    110c:	2f30                	c.fld	fa2,88(a4)
    110e:	0000                	unimp
    1110:	2f30                	c.fld	fa2,88(a4)
    1112:	0000                	unimp
    1114:	2f30                	c.fld	fa2,88(a4)
    1116:	0000                	unimp
    1118:	2f30                	c.fld	fa2,88(a4)
    111a:	0000                	unimp
    111c:	2f30                	c.fld	fa2,88(a4)
    111e:	0000                	unimp
    1120:	2f30                	c.fld	fa2,88(a4)
    1122:	0000                	unimp
    1124:	2f30                	c.fld	fa2,88(a4)
    1126:	0000                	unimp
    1128:	2f30                	c.fld	fa2,88(a4)
    112a:	0000                	unimp
    112c:	2f30                	c.fld	fa2,88(a4)
    112e:	0000                	unimp
    1130:	2f30                	c.fld	fa2,88(a4)
    1132:	0000                	unimp
    1134:	2f30                	c.fld	fa2,88(a4)
    1136:	0000                	unimp
    1138:	2f30                	c.fld	fa2,88(a4)
    113a:	0000                	unimp
    113c:	2f30                	c.fld	fa2,88(a4)
    113e:	0000                	unimp
    1140:	2f30                	c.fld	fa2,88(a4)
    1142:	0000                	unimp
    1144:	2f30                	c.fld	fa2,88(a4)
    1146:	0000                	unimp
    1148:	2f30                	c.fld	fa2,88(a4)
    114a:	0000                	unimp
    114c:	2f30                	c.fld	fa2,88(a4)
    114e:	0000                	unimp
    1150:	2f30                	c.fld	fa2,88(a4)
    1152:	0000                	unimp
    1154:	2f30                	c.fld	fa2,88(a4)
    1156:	0000                	unimp
    1158:	2f30                	c.fld	fa2,88(a4)
    115a:	0000                	unimp
    115c:	2f30                	c.fld	fa2,88(a4)
    115e:	0000                	unimp
    1160:	2f30                	c.fld	fa2,88(a4)
    1162:	0000                	unimp
    1164:	2f30                	c.fld	fa2,88(a4)
    1166:	0000                	unimp
    1168:	2f30                	c.fld	fa2,88(a4)
    116a:	0000                	unimp
    116c:	2f30                	c.fld	fa2,88(a4)
    116e:	0000                	unimp
    1170:	2f30                	c.fld	fa2,88(a4)
    1172:	0000                	unimp
    1174:	2f30                	c.fld	fa2,88(a4)
    1176:	0000                	unimp
    1178:	2f30                	c.fld	fa2,88(a4)
    117a:	0000                	unimp
    117c:	2f30                	c.fld	fa2,88(a4)
    117e:	0000                	unimp
    1180:	2f30                	c.fld	fa2,88(a4)
    1182:	0000                	unimp
    1184:	2f30                	c.fld	fa2,88(a4)
    1186:	0000                	unimp
    1188:	2f30                	c.fld	fa2,88(a4)
    118a:	0000                	unimp
    118c:	2f30                	c.fld	fa2,88(a4)
    118e:	0000                	unimp
    1190:	2f30                	c.fld	fa2,88(a4)
    1192:	0000                	unimp
    1194:	2f30                	c.fld	fa2,88(a4)
    1196:	0000                	unimp
    1198:	2f30                	c.fld	fa2,88(a4)
    119a:	0000                	unimp
    119c:	2f30                	c.fld	fa2,88(a4)
    119e:	0000                	unimp
    11a0:	2f30                	c.fld	fa2,88(a4)
    11a2:	0000                	unimp
    11a4:	2f30                	c.fld	fa2,88(a4)
    11a6:	0000                	unimp
    11a8:	2f30                	c.fld	fa2,88(a4)
    11aa:	0000                	unimp
    11ac:	2f30                	c.fld	fa2,88(a4)
    11ae:	0000                	unimp
    11b0:	2f30                	c.fld	fa2,88(a4)
    11b2:	0000                	unimp
    11b4:	2f30                	c.fld	fa2,88(a4)
    11b6:	0000                	unimp
    11b8:	2f30                	c.fld	fa2,88(a4)
    11ba:	0000                	unimp
    11bc:	2f30                	c.fld	fa2,88(a4)
    11be:	0000                	unimp
    11c0:	2f30                	c.fld	fa2,88(a4)
    11c2:	0000                	unimp
    11c4:	2f30                	c.fld	fa2,88(a4)
    11c6:	0000                	unimp
    11c8:	2f30                	c.fld	fa2,88(a4)
    11ca:	0000                	unimp
    11cc:	2f30                	c.fld	fa2,88(a4)
    11ce:	0000                	unimp
    11d0:	2f30                	c.fld	fa2,88(a4)
    11d2:	0000                	unimp
    11d4:	2f30                	c.fld	fa2,88(a4)
    11d6:	0000                	unimp
    11d8:	2f30                	c.fld	fa2,88(a4)
    11da:	0000                	unimp
    11dc:	2f30                	c.fld	fa2,88(a4)
    11de:	0000                	unimp
    11e0:	2f30                	c.fld	fa2,88(a4)
    11e2:	0000                	unimp
    11e4:	2f30                	c.fld	fa2,88(a4)
    11e6:	0000                	unimp
    11e8:	2f30                	c.fld	fa2,88(a4)
    11ea:	0000                	unimp
    11ec:	2f30                	c.fld	fa2,88(a4)
    11ee:	0000                	unimp
    11f0:	2f30                	c.fld	fa2,88(a4)
    11f2:	0000                	unimp
    11f4:	2f30                	c.fld	fa2,88(a4)
    11f6:	0000                	unimp
    11f8:	2f30                	c.fld	fa2,88(a4)
    11fa:	0000                	unimp
    11fc:	2f30                	c.fld	fa2,88(a4)
    11fe:	0000                	unimp
    1200:	0001                	c.nop
	...

00001204 <flash_read_uid.constprop.6>:
    1204:	1141                	c.addi	sp,-16
    1206:	c606                	c.swsp	ra,12(sp)
    1208:	872a                	c.mv	a4,a0
    120a:	7d047073          	csrci	mmisc_ctl,8
    120e:	47c1                	c.li	a5,16
    1210:	4691                	c.li	a3,4
    1212:	4601                	c.li	a2,0
    1214:	00000593          	li	a1,0
    1218:	04b00513          	li	a0,75
    121c:	aacff0ef          	jal	ra,4c8 <flash_mspi_read_ram>
    1220:	7d046073          	csrsi	mmisc_ctl,8
    1224:	40b2                	c.lwsp	ra,12(sp)
    1226:	0141                	c.addi	sp,16
    1228:	00008067          	ret

0000122c <flash_read_mid>:
    122c:	1101                	c.addi	sp,-32
    122e:	ce06                	c.swsp	ra,28(sp)
    1230:	c602                	c.swsp	zero,12(sp)
    1232:	7d047073          	csrci	mmisc_ctl,8
    1236:	478d                	c.li	a5,3
    1238:	0078                	c.addi4spn	a4,sp,12
    123a:	4681                	c.li	a3,0
    123c:	4601                	c.li	a2,0
    123e:	4581                	c.li	a1,0
    1240:	09f00513          	li	a0,159
    1244:	a84ff0ef          	jal	ra,4c8 <flash_mspi_read_ram>
    1248:	7d046073          	csrsi	mmisc_ctl,8
    124c:	40f2                	c.lwsp	ra,28(sp)
    124e:	4532                	c.lwsp	a0,12(sp)
    1250:	6105                	c.addi16sp	sp,32
    1252:	8082                	c.jr	ra

00001254 <flash_read_mid_uid_with_check>:
    1254:	801f978b          	addigp	a5,-2048 # 80000 <_DATA_VMA_START>
    1258:	4798                	c.lw	a4,8(a5)
    125a:	4390                	c.lw	a2,0(a5)
    125c:	43d4                	c.lw	a3,4(a5)
    125e:	47dc                	c.lw	a5,12(a5)
    1260:	1101                	c.addi	sp,-32
    1262:	cc22                	c.swsp	s0,24(sp)
    1264:	ca26                	c.swsp	s1,20(sp)
    1266:	842a                	c.mv	s0,a0
    1268:	c43a                	c.swsp	a4,8(sp)
    126a:	c63e                	c.swsp	a5,12(sp)
    126c:	ce06                	c.swsp	ra,28(sp)
    126e:	84ae                	c.mv	s1,a1
    1270:	c032                	c.swsp	a2,0(sp)
    1272:	c236                	c.swsp	a3,4(sp)
    1274:	fb9ff0ef          	jal	ra,122c <flash_read_mid>
    1278:	77c1                	c.lui	a5,0xffff0
    127a:	17fd                	c.addi	a5,-1
    127c:	00146737          	lui	a4,0x146
    1280:	c008                	c.sw	a0,0(s0)
    1282:	8fe9                	c.and	a5,a0
    1284:	08570713          	addi	a4,a4,133 # 146085 <FLASH_SIZE+0x46085>
    1288:	02e78063          	beq	a5,a4,12a8 <flash_read_mid_uid_with_check+0x54>
    128c:	00166737          	lui	a4,0x166
    1290:	08570713          	addi	a4,a4,133 # 166085 <FLASH_SIZE+0x66085>
    1294:	4781                	c.li	a5,0
    1296:	00e50963          	beq	a0,a4,12a8 <flash_read_mid_uid_with_check+0x54>
    129a:	40f2                	c.lwsp	ra,28(sp)
    129c:	4462                	c.lwsp	s0,24(sp)
    129e:	44d2                	c.lwsp	s1,20(sp)
    12a0:	853e                	c.mv	a0,a5
    12a2:	6105                	c.addi16sp	sp,32
    12a4:	00008067          	ret
    12a8:	8526                	c.mv	a0,s1
    12aa:	3fa9                	c.jal	1204 <flash_read_uid.constprop.6>
    12ac:	0004c783          	lbu	a5,0(s1)
    12b0:	00014603          	lbu	a2,0(sp)
    12b4:	0014c683          	lbu	a3,1(s1)
    12b8:	00114703          	lbu	a4,1(sp)
    12bc:	8f91                	c.sub	a5,a2
    12be:	0017b793          	seqz	a5,a5
    12c2:	00e69363          	bne	a3,a4,12c8 <flash_read_mid_uid_with_check+0x74>
    12c6:	0785                	c.addi	a5,1
    12c8:	0024c683          	lbu	a3,2(s1)
    12cc:	00214703          	lbu	a4,2(sp)
    12d0:	00e69463          	bne	a3,a4,12d8 <flash_read_mid_uid_with_check+0x84>
    12d4:	00178793          	addi	a5,a5,1 # ffff0001 <_DATA_LMA_START+0xdffe5529>
    12d8:	0034c683          	lbu	a3,3(s1)
    12dc:	00314703          	lbu	a4,3(sp)
    12e0:	00e69463          	bne	a3,a4,12e8 <flash_read_mid_uid_with_check+0x94>
    12e4:	00178793          	addi	a5,a5,1
    12e8:	0044c683          	lbu	a3,4(s1)
    12ec:	00414703          	lbu	a4,4(sp)
    12f0:	00e69463          	bne	a3,a4,12f8 <flash_read_mid_uid_with_check+0xa4>
    12f4:	00178793          	addi	a5,a5,1
    12f8:	0054c683          	lbu	a3,5(s1)
    12fc:	00514703          	lbu	a4,5(sp)
    1300:	00e69463          	bne	a3,a4,1308 <flash_read_mid_uid_with_check+0xb4>
    1304:	00178793          	addi	a5,a5,1
    1308:	0064c683          	lbu	a3,6(s1)
    130c:	00614703          	lbu	a4,6(sp)
    1310:	00e69463          	bne	a3,a4,1318 <flash_read_mid_uid_with_check+0xc4>
    1314:	00178793          	addi	a5,a5,1
    1318:	0074c683          	lbu	a3,7(s1)
    131c:	00714703          	lbu	a4,7(sp)
    1320:	00e69463          	bne	a3,a4,1328 <flash_read_mid_uid_with_check+0xd4>
    1324:	00178793          	addi	a5,a5,1
    1328:	0084c683          	lbu	a3,8(s1)
    132c:	00814703          	lbu	a4,8(sp)
    1330:	00e69463          	bne	a3,a4,1338 <flash_read_mid_uid_with_check+0xe4>
    1334:	00178793          	addi	a5,a5,1
    1338:	0094c683          	lbu	a3,9(s1)
    133c:	00914703          	lbu	a4,9(sp)
    1340:	00e69463          	bne	a3,a4,1348 <flash_read_mid_uid_with_check+0xf4>
    1344:	00178793          	addi	a5,a5,1
    1348:	00a4c683          	lbu	a3,10(s1)
    134c:	00a14703          	lbu	a4,10(sp)
    1350:	00e69463          	bne	a3,a4,1358 <flash_read_mid_uid_with_check+0x104>
    1354:	00178793          	addi	a5,a5,1
    1358:	00b4c683          	lbu	a3,11(s1)
    135c:	00b14703          	lbu	a4,11(sp)
    1360:	00e69463          	bne	a3,a4,1368 <flash_read_mid_uid_with_check+0x114>
    1364:	00178793          	addi	a5,a5,1
    1368:	00c4c683          	lbu	a3,12(s1)
    136c:	00c14703          	lbu	a4,12(sp)
    1370:	00e69463          	bne	a3,a4,1378 <flash_read_mid_uid_with_check+0x124>
    1374:	00178793          	addi	a5,a5,1
    1378:	00d4c683          	lbu	a3,13(s1)
    137c:	00d14703          	lbu	a4,13(sp)
    1380:	00e69463          	bne	a3,a4,1388 <flash_read_mid_uid_with_check+0x134>
    1384:	00178793          	addi	a5,a5,1
    1388:	00e4c683          	lbu	a3,14(s1)
    138c:	00e14703          	lbu	a4,14(sp)
    1390:	00e69463          	bne	a3,a4,1398 <flash_read_mid_uid_with_check+0x144>
    1394:	00178793          	addi	a5,a5,1
    1398:	00f14683          	lbu	a3,15(sp)
    139c:	00f4c703          	lbu	a4,15(s1)
    13a0:	00e69463          	bne	a3,a4,13a8 <flash_read_mid_uid_with_check+0x154>
    13a4:	00178793          	addi	a5,a5,1
    13a8:	40f2                	c.lwsp	ra,28(sp)
    13aa:	4462                	c.lwsp	s0,24(sp)
    13ac:	17c1                	c.addi	a5,-16
    13ae:	00f037b3          	snez	a5,a5
    13b2:	44d2                	c.lwsp	s1,20(sp)
    13b4:	853e                	c.mv	a0,a5
    13b6:	6105                	c.addi16sp	sp,32
    13b8:	00008067          	ret

000013bc <flash_dread>:
    13bc:	1141                	c.addi	sp,-16
    13be:	c606                	c.swsp	ra,12(sp)
    13c0:	87b2                	c.mv	a5,a2
    13c2:	7d047073          	csrci	mmisc_ctl,8
    13c6:	862e                	c.mv	a2,a1
    13c8:	00f005b3          	add	a1,zero,a5
    13cc:	a7cff0ef          	jal	ra,648 <flash_mspi_read_ram.constprop.7>
    13d0:	7d046073          	csrsi	mmisc_ctl,8
    13d4:	40b2                	c.lwsp	ra,12(sp)
    13d6:	0141                	c.addi	sp,16
    13d8:	00008067          	ret

000013dc <clock_init.constprop.10>:
    13dc:	1141                	c.addi	sp,-16
    13de:	c606                	c.swsp	ra,12(sp)
    13e0:	7d047073          	csrci	mmisc_ctl,8
    13e4:	c40ff0ef          	jal	ra,824 <clock_init_ram.constprop.11>
    13e8:	7d046073          	csrsi	mmisc_ctl,8
    13ec:	40b2                	c.lwsp	ra,12(sp)
    13ee:	0141                	c.addi	sp,16
    13f0:	00008067          	ret

000013f4 <pm_sleep_wakeup.constprop.2>:
    13f4:	1141                	c.addi	sp,-16
    13f6:	c606                	c.swsp	ra,12(sp)
    13f8:	7d047073          	csrci	mmisc_ctl,8
    13fc:	8d1ff0ef          	jal	ra,ccc <pm_sleep_wakeup_ram.constprop.3>
    1400:	7d046073          	csrsi	mmisc_ctl,8
    1404:	40b2                	c.lwsp	ra,12(sp)
    1406:	0141                	c.addi	sp,16
    1408:	8082                	c.jr	ra
    140a:	0001                	c.nop

0000140c <user_calib_adc_vref.constprop.9>:
    140c:	1101                	c.addi	sp,-32
    140e:	ce06                	c.swsp	ra,28(sp)
    1410:	c402                	c.swsp	zero,8(sp)
    1412:	00011623          	sh	zero,12(sp)
    1416:	00010723          	sb	zero,14(sp)
    141a:	c54d                	c.beqz	a0,14c4 <user_calib_adc_vref.constprop.9+0xb8>
    141c:	000007b7          	lui	a5,0x0
    1420:	1587a783          	lw	a5,344(a5) # 158 <_AES_VMA_END>
    1424:	0030                	c.addi4spn	a2,sp,8
    1426:	459d                	c.li	a1,7
    1428:	9782                	c.jalr	a5
    142a:	00c14783          	lbu	a5,12(sp)
    142e:	1c07b75b          	bfos	a4,a5,7,0
    1432:	04074163          	bltz	a4,1474 <user_calib_adc_vref.constprop.9+0x68>
    1436:	00e14703          	lbu	a4,14(sp)
    143a:	00d14603          	lbu	a2,13(sp)
    143e:	0722                	c.slli	a4,0x8
    1440:	66c1                	c.lui	a3,0x10
    1442:	00c705b3          	add	a1,a4,a2
    1446:	16fd                	c.addi	a3,-1
    1448:	02d58663          	beq	a1,a3,1474 <user_calib_adc_vref.constprop.9+0x68>
    144c:	fd060613          	addi	a2,a2,-48
    1450:	9732                	c.add	a4,a2
    1452:	3c07275b          	bfoz	a4,a4,15,0
    1456:	0fb00693          	li	a3,251
    145a:	08e6e563          	bltu	a3,a4,14e4 <user_calib_adc_vref.constprop.9+0xd8>
    145e:	17b1                	c.addi	a5,-20
    1460:	1c07b7db          	bfos	a5,a5,7,0
    1464:	5731                	c.li	a4,-20
    1466:	06e78f63          	beq	a5,a4,14e4 <user_calib_adc_vref.constprop.9+0xd8>
    146a:	f9578513          	addi	a0,a5,-107
    146e:	00a03533          	snez	a0,a0
    1472:	a89d                	c.j	14e8 <user_calib_adc_vref.constprop.9+0xdc>
    1474:	801407b7          	lui	a5,0x80140
    1478:	06500713          	li	a4,101
    147c:	1ee78a23          	sb	a4,500(a5) # 801401f4 <_DATA_LMA_START+0x6013571c>
    1480:	1c87a703          	lw	a4,456(a5)
    1484:	1e078a23          	sb	zero,500(a5)
    1488:	4c47275b          	bfoz	a4,a4,19,4
    148c:	380727db          	bfoz	a5,a4,14,0
    1490:	06078063          	beqz	a5,14f0 <user_calib_adc_vref.constprop.9+0xe4>
    1494:	1ff77713          	andi	a4,a4,511
    1498:	f9b70713          	addi	a4,a4,-101
    149c:	3c07275b          	bfoz	a4,a4,15,0
    14a0:	0c600693          	li	a3,198
    14a4:	04e6e063          	bltu	a3,a4,14e4 <user_calib_adc_vref.constprop.9+0xd8>
    14a8:	0097d513          	srli	a0,a5,0x9
    14ac:	1531                	c.addi	a0,-20
    14ae:	1c05355b          	bfos	a0,a0,7,0
    14b2:	57b1                	c.li	a5,-20
    14b4:	02f50863          	beq	a0,a5,14e4 <user_calib_adc_vref.constprop.9+0xd8>
    14b8:	fd550513          	addi	a0,a0,-43 # 3fffffd5 <_DATA_LMA_START+0x1fff54fd>
    14bc:	00a03533          	snez	a0,a0
    14c0:	0280006f          	j	14e8 <user_calib_adc_vref.constprop.9+0xdc>
    14c4:	801407b7          	lui	a5,0x80140
    14c8:	06500713          	li	a4,101
    14cc:	1ee78a23          	sb	a4,500(a5) # 801401f4 <_DATA_LMA_START+0x6013571c>
    14d0:	1c87a703          	lw	a4,456(a5)
    14d4:	1e078a23          	sb	zero,500(a5)
    14d8:	4c47275b          	bfoz	a4,a4,19,4
    14dc:	380727db          	bfoz	a5,a4,14,0
    14e0:	fa079ae3          	bnez	a5,1494 <user_calib_adc_vref.constprop.9+0x88>
    14e4:	00000513          	li	a0,0
    14e8:	40f2                	c.lwsp	ra,28(sp)
    14ea:	6105                	c.addi16sp	sp,32
    14ec:	00008067          	ret
    14f0:	00814503          	lbu	a0,8(sp)
    14f4:	00914783          	lbu	a5,9(sp)
    14f8:	953e                	c.add	a0,a5
    14fa:	f8050513          	addi	a0,a0,-128
    14fe:	3c05255b          	bfoz	a0,a0,15,0
    1502:	0fc53513          	sltiu	a0,a0,252
    1506:	b7cd                	c.j	14e8 <user_calib_adc_vref.constprop.9+0xdc>

00001508 <user_calib_freq_offset.constprop.8>:
    1508:	000007b7          	lui	a5,0x0
    150c:	1101                	c.addi	sp,-32
    150e:	1587a783          	lw	a5,344(a5) # 158 <_AES_VMA_END>
    1512:	577d                	c.li	a4,-1
    1514:	00f10613          	addi	a2,sp,15
    1518:	4585                	c.li	a1,1
    151a:	cc22                	c.swsp	s0,24(sp)
    151c:	ce06                	c.swsp	ra,28(sp)
    151e:	00e107a3          	sb	a4,15(sp)
    1522:	9782                	c.jalr	a5
    1524:	00f14403          	lbu	s0,15(sp)
    1528:	0ff00793          	li	a5,255
    152c:	00000513          	li	a0,0
    1530:	02f40263          	beq	s0,a5,1554 <user_calib_freq_offset.constprop.8+0x4c>
    1534:	08a00513          	li	a0,138
    1538:	aa0ff0ef          	jal	ra,7d8 <analog_read_reg8>
    153c:	03f47413          	andi	s0,s0,63
    1540:	04057593          	andi	a1,a0,64
    1544:	0085e5b3          	or	a1,a1,s0
    1548:	08a00513          	li	a0,138
    154c:	a48ff0ef          	jal	ra,794 <analog_write_reg8>
    1550:	00100513          	li	a0,1
    1554:	40f2                	c.lwsp	ra,28(sp)
    1556:	4462                	c.lwsp	s0,24(sp)
    1558:	6105                	c.addi16sp	sp,32
    155a:	8082                	c.jr	ra
    155c:	0001                	c.nop
	...

00001560 <gpio_input_dis>:
    1560:	801407b7          	lui	a5,0x80140
    1564:	30978703          	lb	a4,777(a5) # 80140309 <_DATA_LMA_START+0x60135831>
    1568:	fff54513          	not	a0,a0
    156c:	8d79                	c.and	a0,a4
    156e:	0ff57513          	andi	a0,a0,255
    1572:	30a784a3          	sb	a0,777(a5)
    1576:	8082                	c.jr	ra
    1578:	0001                	c.nop
	...

0000157c <validate.lto_priv.13>:
    157c:	1101                	c.addi	sp,-32
    157e:	cc22                	c.swsp	s0,24(sp)
    1580:	ca26                	c.swsp	s1,20(sp)
    1582:	c84a                	c.swsp	s2,16(sp)
    1584:	c64e                	c.swsp	s3,12(sp)
    1586:	c452                	c.swsp	s4,8(sp)
    1588:	c256                	c.swsp	s5,4(sp)
    158a:	c05a                	c.swsp	s6,0(sp)
    158c:	89b2                	c.mv	s3,a2
    158e:	892a                	c.mv	s2,a0
    1590:	84ae                	c.mv	s1,a1
    1592:	4401                	c.li	s0,0
    1594:	4a01                	c.li	s4,0
    1596:	4b05                	c.li	s6,1
    1598:	0008cab7          	lui	s5,0x8c
    159c:	00112e23          	sw	ra,28(sp)
    15a0:	00090703          	lb	a4,0(s2)
    15a4:	00048783          	lb	a5,0(s1)
    15a8:	85a2                	c.mv	a1,s0
    15aa:	86be                	c.mv	a3,a5
    15ac:	0405                	c.addi	s0,1
    15ae:	863a                	c.mv	a2,a4
    15b0:	998a8513          	addi	a0,s5,-1640 # 8b998 <int16xint8xint32_1_weights+0x24f8>
    15b4:	00f70663          	beq	a4,a5,15c0 <validate.lto_priv.13+0x44>
    15b8:	0a05                	c.addi	s4,1
    15ba:	4b01                	c.li	s6,0
    15bc:	6ac080ef          	jal	ra,9c68 <printf>
    15c0:	0905                	c.addi	s2,1
    15c2:	0485                	c.addi	s1,1
    15c4:	fc899ee3          	bne	s3,s0,15a0 <validate.lto_priv.13+0x24>
    15c8:	000b1a63          	bnez	s6,15dc <validate.lto_priv.13+0x60>
    15cc:	0008c537          	lui	a0,0x8c
    15d0:	864e                	c.mv	a2,s3
    15d2:	85d2                	c.mv	a1,s4
    15d4:	9bc50513          	addi	a0,a0,-1604 # 8b9bc <int16xint8xint32_1_weights+0x251c>
    15d8:	690080ef          	jal	ra,9c68 <printf>
    15dc:	40f2                	c.lwsp	ra,28(sp)
    15de:	4462                	c.lwsp	s0,24(sp)
    15e0:	855a                	c.mv	a0,s6
    15e2:	44d2                	c.lwsp	s1,20(sp)
    15e4:	4942                	c.lwsp	s2,16(sp)
    15e6:	49b2                	c.lwsp	s3,12(sp)
    15e8:	4a22                	c.lwsp	s4,8(sp)
    15ea:	4a92                	c.lwsp	s5,4(sp)
    15ec:	4b02                	c.lwsp	s6,0(sp)
    15ee:	6105                	c.addi16sp	sp,32
    15f0:	8082                	c.jr	ra
	...

000015f4 <validate_s16.lto_priv.15>:
    15f4:	1101                	c.addi	sp,-32
    15f6:	cc22                	c.swsp	s0,24(sp)
    15f8:	ca26                	c.swsp	s1,20(sp)
    15fa:	c84a                	c.swsp	s2,16(sp)
    15fc:	c64e                	c.swsp	s3,12(sp)
    15fe:	c452                	c.swsp	s4,8(sp)
    1600:	c256                	c.swsp	s5,4(sp)
    1602:	c05a                	c.swsp	s6,0(sp)
    1604:	89b2                	c.mv	s3,a2
    1606:	892a                	c.mv	s2,a0
    1608:	84ae                	c.mv	s1,a1
    160a:	4401                	c.li	s0,0
    160c:	4a01                	c.li	s4,0
    160e:	4b05                	c.li	s6,1
    1610:	0008cab7          	lui	s5,0x8c
    1614:	00112e23          	sw	ra,28(sp)
    1618:	00091703          	lh	a4,0(s2)
    161c:	00049783          	lh	a5,0(s1)
    1620:	85a2                	c.mv	a1,s0
    1622:	86be                	c.mv	a3,a5
    1624:	0405                	c.addi	s0,1
    1626:	863a                	c.mv	a2,a4
    1628:	998a8513          	addi	a0,s5,-1640 # 8b998 <int16xint8xint32_1_weights+0x24f8>
    162c:	00f70663          	beq	a4,a5,1638 <validate_s16.lto_priv.15+0x44>
    1630:	0a05                	c.addi	s4,1
    1632:	4b01                	c.li	s6,0
    1634:	634080ef          	jal	ra,9c68 <printf>
    1638:	0909                	c.addi	s2,2
    163a:	0489                	c.addi	s1,2
    163c:	fc899ee3          	bne	s3,s0,1618 <validate_s16.lto_priv.15+0x24>
    1640:	000b1a63          	bnez	s6,1654 <validate_s16.lto_priv.15+0x60>
    1644:	0008c537          	lui	a0,0x8c
    1648:	864e                	c.mv	a2,s3
    164a:	85d2                	c.mv	a1,s4
    164c:	9bc50513          	addi	a0,a0,-1604 # 8b9bc <int16xint8xint32_1_weights+0x251c>
    1650:	618080ef          	jal	ra,9c68 <printf>
    1654:	40f2                	c.lwsp	ra,28(sp)
    1656:	4462                	c.lwsp	s0,24(sp)
    1658:	855a                	c.mv	a0,s6
    165a:	44d2                	c.lwsp	s1,20(sp)
    165c:	4942                	c.lwsp	s2,16(sp)
    165e:	49b2                	c.lwsp	s3,12(sp)
    1660:	4a22                	c.lwsp	s4,8(sp)
    1662:	4a92                	c.lwsp	s5,4(sp)
    1664:	4b02                	c.lwsp	s6,0(sp)
    1666:	6105                	c.addi16sp	sp,32
    1668:	8082                	c.jr	ra
	...

0000166c <dw_int16xint8_dilation_riscv_depthwise_conv_s16>:
    166c:	c8010113          	addi	sp,sp,-896
    1670:	37212823          	sw	s2,880(sp)
    1674:	09010913          	addi	s2,sp,144
    1678:	2d000613          	li	a2,720
    167c:	4581                	c.li	a1,0
    167e:	854a                	c.mv	a0,s2
    1680:	36112e23          	sw	ra,892(sp)
    1684:	36812c23          	sw	s0,888(sp)
    1688:	36912a23          	sw	s1,884(sp)
    168c:	37312623          	sw	s3,876(sp)
    1690:	37412423          	sw	s4,872(sp)
    1694:	37512223          	sw	s5,868(sp)
    1698:	3c6080ef          	jal	ra,9a5e <memset>
    169c:	4791                	c.li	a5,4
    169e:	d0be                	c.swsp	a5,96(sp)
    16a0:	c6be                	c.swsp	a5,76(sp)
    16a2:	c4be                	c.swsp	a5,72(sp)
    16a4:	dcbe                	c.swsp	a5,120(sp)
    16a6:	77e1                	c.lui	a5,0xffff8
    16a8:	04478793          	addi	a5,a5,68 # ffff8044 <_DATA_LMA_START+0xdffed56c>
    16ac:	c53e                	c.swsp	a5,136(sp)
    16ae:	67a1                	c.lui	a5,0x8
    16b0:	17fd                	c.addi	a5,-1
    16b2:	c73e                	c.swsp	a5,140(sp)
    16b4:	0700178b          	addigp	a5,112 # 80870 <dw_int16xint8_dilation_output_mult>
    16b8:	4315                	c.li	t1,5
    16ba:	ca3e                	c.swsp	a5,20(sp)
    16bc:	1044                	c.addi4spn	s1,sp,36
    16be:	4705                	c.li	a4,1
    16c0:	4e25                	c.li	t3,9
    16c2:	488d                	c.li	a7,3
    16c4:	4809                	c.li	a6,2
    16c6:	3600178b          	addigp	a5,864 # 80b60 <dw_int16xint8_dilation_output_shift>
    16ca:	86a6                	c.mv	a3,s1
    16cc:	00d0                	c.addi4spn	a2,sp,68
    16ce:	08cc                	c.addi4spn	a1,sp,84
    16d0:	cc9a                	c.swsp	t1,88(sp)
    16d2:	d41a                	c.swsp	t1,40(sp)
    16d4:	10c8                	c.addi4spn	a0,sp,100
    16d6:	4321                	c.li	t1,8
    16d8:	cc3e                	c.swsp	a5,24(sp)
    16da:	caba                	c.swsp	a4,84(sp)
    16dc:	cef2                	c.swsp	t3,92(sp)
    16de:	d672                	c.swsp	t3,44(sp)
    16e0:	d81a                	c.swsp	t1,48(sp)
    16e2:	dec6                	c.swsp	a7,124(sp)
    16e4:	d8ba                	c.swsp	a4,112(sp)
    16e6:	daba                	c.swsp	a4,116(sp)
    16e8:	c146                	c.swsp	a7,128(sp)
    16ea:	c342                	c.swsp	a6,132(sp)
    16ec:	d6c2                	c.swsp	a6,108(sp)
    16ee:	da02                	c.swsp	zero,52(sp)
    16f0:	dc02                	c.swsp	zero,56(sp)
    16f2:	de02                	c.swsp	zero,60(sp)
    16f4:	c082                	c.swsp	zero,64(sp)
    16f6:	d282                	c.swsp	zero,100(sp)
    16f8:	06012423          	sw	zero,104(sp)
    16fc:	1a9010ef          	jal	ra,30a4 <riscv_depthwise_conv_wrapper_s16_get_buffer_size>
    1700:	00a009b3          	add	s3,zero,a0
    1704:	404080ef          	jal	ra,9b08 <malloc>
    1708:	2746940b          	addigp	s0,45684 # 8ba74 <stack_limit>
    170c:	001d978b          	addigp	a5,124928 # 9f000 <_end+0x13540>
    1710:	ce2a                	c.swsp	a0,28(sp)
    1712:	d04e                	c.swsp	s3,32(sp)
    1714:	c01c                	c.sw	a5,0(s0)
    1716:	b0005073          	csrwi	mcycle,0
    171a:	870a                	c.mv	a4,sp
    171c:	00e7fe63          	bgeu	a5,a4,1738 <dw_int16xint8_dilation_riscv_depthwise_conv_s16+0xcc>
    1720:	00178693          	addi	a3,a5,1 # 8001 <riscv_depthwise_conv_3x3_s8+0x7f9>
    1724:	00400613          	li	a2,4
    1728:	0cd77263          	bgeu	a4,a3,17ec <dw_int16xint8_dilation_riscv_depthwise_conv_s16+0x180>
    172c:	0aa00593          	li	a1,170
    1730:	00f00533          	add	a0,zero,a5
    1734:	32a080ef          	jal	ra,9a5e <memset>
    1738:	b0002a73          	csrr	s4,mcycle
    173c:	ec9f930b          	addigp	t1,-312 # 806c8 <dw_int16xint8_dilation_biases>
    1740:	03410893          	addi	a7,sp,52
    1744:	4440180b          	addigp	a6,1092 # 80c44 <dw_int16xint8_dilation_weights>
    1748:	00dc                	c.addi4spn	a5,sp,68
    174a:	f09f970b          	addigp	a4,-248 # 80708 <dw_int16xint8_dilation_input>
    174e:	08d4                	c.addi4spn	a3,sp,84
    1750:	0850                	c.addi4spn	a2,sp,20
    1752:	10cc                	c.addi4spn	a1,sp,100
    1754:	0868                	c.addi4spn	a0,sp,28
    1756:	c44a                	c.swsp	s2,8(sp)
    1758:	c226                	c.swsp	s1,4(sp)
    175a:	c01a                	c.swsp	t1,0(sp)
    175c:	6cd030ef          	jal	ra,5628 <riscv_depthwise_conv_wrapper_s16>
    1760:	b0002af3          	csrr	s5,mcycle
    1764:	848a                	c.mv	s1,sp
    1766:	4000                	c.lw	s0,0(s0)
    1768:	02947263          	bgeu	s0,s1,178c <dw_int16xint8_dilation_riscv_depthwise_conv_s16+0x120>
    176c:	aaaab7b7          	lui	a5,0xaaaab
    1770:	4018                	c.lw	a4,0(s0)
    1772:	aaa78793          	addi	a5,a5,-1366 # aaaaaaaa <_DATA_LMA_START+0x8aa9ffd2>
    1776:	00f70763          	beq	a4,a5,1784 <dw_int16xint8_dilation_riscv_depthwise_conv_s16+0x118>
    177a:	a809                	c.j	178c <dw_int16xint8_dilation_riscv_depthwise_conv_s16+0x120>
    177c:	00042783          	lw	a5,0(s0)
    1780:	00e79663          	bne	a5,a4,178c <dw_int16xint8_dilation_riscv_depthwise_conv_s16+0x120>
    1784:	00440413          	addi	s0,s0,4
    1788:	fe946ae3          	bltu	s0,s1,177c <dw_int16xint8_dilation_riscv_depthwise_conv_s16+0x110>
    178c:	4572                	c.lwsp	a0,28(sp)
    178e:	c909                	c.beqz	a0,17a0 <dw_int16xint8_dilation_riscv_depthwise_conv_s16+0x134>
    1790:	864e                	c.mv	a2,s3
    1792:	4581                	c.li	a1,0
    1794:	2ca080ef          	jal	ra,9a5e <memset>
    1798:	01c12503          	lw	a0,28(sp)
    179c:	37c080ef          	jal	ra,9b18 <free>
    17a0:	0008b537          	lui	a0,0x8b
    17a4:	56850513          	addi	a0,a0,1384 # 8b568 <int16xint8xint32_1_weights+0x20c8>
    17a8:	4c0080ef          	jal	ra,9c68 <printf>
    17ac:	16800613          	li	a2,360
    17b0:	0900158b          	addigp	a1,144 # 80890 <dw_int16xint8_dilation_output_ref>
    17b4:	854a                	c.mv	a0,s2
    17b6:	3d3d                	c.jal	15f4 <validate_s16.lto_priv.15>
    17b8:	04051063          	bnez	a0,17f8 <dw_int16xint8_dilation_riscv_depthwise_conv_s16+0x18c>
    17bc:	00081537          	lui	a0,0x81
    17c0:	bf850513          	addi	a0,a0,-1032 # 80bf8 <dw_int16xint8_dilation_output_shift+0x98>
    17c4:	4a4080ef          	jal	ra,9c68 <printf>
    17c8:	37c12083          	lw	ra,892(sp)
    17cc:	37812403          	lw	s0,888(sp)
    17d0:	37412483          	lw	s1,884(sp)
    17d4:	37012903          	lw	s2,880(sp)
    17d8:	36c12983          	lw	s3,876(sp)
    17dc:	36812a03          	lw	s4,872(sp)
    17e0:	36412a83          	lw	s5,868(sp)
    17e4:	38010113          	addi	sp,sp,896
    17e8:	00008067          	ret
    17ec:	fff7c613          	not	a2,a5
    17f0:	963a                	c.add	a2,a4
    17f2:	9a71                	c.andi	a2,-4
    17f4:	0611                	c.addi	a2,4
    17f6:	bf1d                	c.j	172c <dw_int16xint8_dilation_riscv_depthwise_conv_s16+0xc0>
    17f8:	00081537          	lui	a0,0x81
    17fc:	b8050513          	addi	a0,a0,-1152 # 80b80 <dw_int16xint8_dilation_output_shift+0x20>
    1800:	468080ef          	jal	ra,9c68 <printf>
    1804:	00081537          	lui	a0,0x81
    1808:	408485b3          	sub	a1,s1,s0
    180c:	bcc50513          	addi	a0,a0,-1076 # 80bcc <dw_int16xint8_dilation_output_shift+0x6c>
    1810:	458080ef          	jal	ra,9c68 <printf>
    1814:	00081537          	lui	a0,0x81
    1818:	414a85b3          	sub	a1,s5,s4
    181c:	be450513          	addi	a0,a0,-1052 # 80be4 <dw_int16xint8_dilation_output_shift+0x84>
    1820:	448080ef          	jal	ra,9c68 <printf>
    1824:	b755                	c.j	17c8 <dw_int16xint8_dilation_riscv_depthwise_conv_s16+0x15c>
    1826:	0001                	c.nop

00001828 <dw_int16xint8_riscv_depthwise_conv_s16>:
    1828:	7129                	c.addi16sp	sp,-320
    182a:	13212823          	sw	s2,304(sp)
    182e:	09010913          	addi	s2,sp,144
    1832:	09000613          	li	a2,144
    1836:	4581                	c.li	a1,0
    1838:	01200533          	add	a0,zero,s2
    183c:	12112e23          	sw	ra,316(sp)
    1840:	12812c23          	sw	s0,312(sp)
    1844:	12912a23          	sw	s1,308(sp)
    1848:	13312623          	sw	s3,300(sp)
    184c:	13412423          	sw	s4,296(sp)
    1850:	13512223          	sw	s5,292(sp)
    1854:	20a080ef          	jal	ra,9a5e <memset>
    1858:	4785                	c.li	a5,1
    185a:	cabe                	c.swsp	a5,84(sp)
    185c:	debe                	c.swsp	a5,124(sp)
    185e:	c13e                	c.swsp	a5,128(sp)
    1860:	c33e                	c.swsp	a5,132(sp)
    1862:	77ed                	c.lui	a5,0xffffb
    1864:	d8978793          	addi	a5,a5,-631 # ffffad89 <_DATA_LMA_START+0xdfff02b1>
    1868:	c53e                	c.swsp	a5,136(sp)
    186a:	67a1                	c.lui	a5,0x8
    186c:	17fd                	c.addi	a5,-1
    186e:	c73e                	c.swsp	a5,140(sp)
    1870:	7700178b          	addigp	a5,1904 # 80f70 <dw_int16xint8_output_mult>
    1874:	4891                	c.li	a7,4
    1876:	ca3e                	c.swsp	a5,20(sp)
    1878:	1044                	c.addi4spn	s1,sp,36
    187a:	4325                	c.li	t1,9
    187c:	470d                	c.li	a4,3
    187e:	4809                	c.li	a6,2
    1880:	0210178b          	addigp	a5,2080 # 81020 <dw_int16xint8_output_shift>
    1884:	86a6                	c.mv	a3,s1
    1886:	00d0                	c.addi4spn	a2,sp,68
    1888:	08cc                	c.addi4spn	a1,sp,84
    188a:	ce9a                	c.swsp	t1,92(sp)
    188c:	d0c6                	c.swsp	a7,96(sp)
    188e:	4315                	c.li	t1,5
    1890:	c4c6                	c.swsp	a7,72(sp)
    1892:	10c8                	c.addi4spn	a0,sp,100
    1894:	48a1                	c.li	a7,8
    1896:	cc3e                	c.swsp	a5,24(sp)
    1898:	cc9a                	c.swsp	t1,88(sp)
    189a:	c6ba                	c.swsp	a4,76(sp)
    189c:	d63a                	c.swsp	a4,44(sp)
    189e:	d43a                	c.swsp	a4,40(sp)
    18a0:	d846                	c.swsp	a7,48(sp)
    18a2:	d8ba                	c.swsp	a4,112(sp)
    18a4:	dac2                	c.swsp	a6,116(sp)
    18a6:	d6c2                	c.swsp	a6,108(sp)
    18a8:	da02                	c.swsp	zero,52(sp)
    18aa:	dc02                	c.swsp	zero,56(sp)
    18ac:	de02                	c.swsp	zero,60(sp)
    18ae:	c082                	c.swsp	zero,64(sp)
    18b0:	dc82                	c.swsp	zero,120(sp)
    18b2:	d282                	c.swsp	zero,100(sp)
    18b4:	06012423          	sw	zero,104(sp)
    18b8:	7ec010ef          	jal	ra,30a4 <riscv_depthwise_conv_wrapper_s16_get_buffer_size>
    18bc:	00a009b3          	add	s3,zero,a0
    18c0:	248080ef          	jal	ra,9b08 <malloc>
    18c4:	2746940b          	addigp	s0,45684 # 8ba74 <stack_limit>
    18c8:	001d978b          	addigp	a5,124928 # 9f000 <_end+0x13540>
    18cc:	ce2a                	c.swsp	a0,28(sp)
    18ce:	d04e                	c.swsp	s3,32(sp)
    18d0:	c01c                	c.sw	a5,0(s0)
    18d2:	b0005073          	csrwi	mcycle,0
    18d6:	870a                	c.mv	a4,sp
    18d8:	00e7fe63          	bgeu	a5,a4,18f4 <dw_int16xint8_riscv_depthwise_conv_s16+0xcc>
    18dc:	00178693          	addi	a3,a5,1 # 8001 <riscv_depthwise_conv_3x3_s8+0x7f9>
    18e0:	00400613          	li	a2,4
    18e4:	0cd77063          	bgeu	a4,a3,19a4 <dw_int16xint8_riscv_depthwise_conv_s16+0x17c>
    18e8:	0aa00593          	li	a1,170
    18ec:	00f00533          	add	a0,zero,a5
    18f0:	16e080ef          	jal	ra,9a5e <memset>
    18f4:	b0002a73          	csrr	s4,mcycle
    18f8:	e89f930b          	addigp	t1,-376 # 80688 <dw_int16xint8_biases>
    18fc:	03410893          	addi	a7,sp,52
    1900:	0c90180b          	addigp	a6,2248 # 810c8 <dw_int16xint8_weights>
    1904:	00dc                	c.addi4spn	a5,sp,68
    1906:	4c40170b          	addigp	a4,1220 # 80cc4 <dw_int16xint8_input>
    190a:	08d4                	c.addi4spn	a3,sp,84
    190c:	0850                	c.addi4spn	a2,sp,20
    190e:	10cc                	c.addi4spn	a1,sp,100
    1910:	0868                	c.addi4spn	a0,sp,28
    1912:	c44a                	c.swsp	s2,8(sp)
    1914:	c226                	c.swsp	s1,4(sp)
    1916:	c01a                	c.swsp	t1,0(sp)
    1918:	511030ef          	jal	ra,5628 <riscv_depthwise_conv_wrapper_s16>
    191c:	b0002af3          	csrr	s5,mcycle
    1920:	848a                	c.mv	s1,sp
    1922:	4000                	c.lw	s0,0(s0)
    1924:	02947263          	bgeu	s0,s1,1948 <dw_int16xint8_riscv_depthwise_conv_s16+0x120>
    1928:	aaaab7b7          	lui	a5,0xaaaab
    192c:	4018                	c.lw	a4,0(s0)
    192e:	aaa78793          	addi	a5,a5,-1366 # aaaaaaaa <_DATA_LMA_START+0x8aa9ffd2>
    1932:	00f70763          	beq	a4,a5,1940 <dw_int16xint8_riscv_depthwise_conv_s16+0x118>
    1936:	a809                	c.j	1948 <dw_int16xint8_riscv_depthwise_conv_s16+0x120>
    1938:	00042783          	lw	a5,0(s0)
    193c:	00e79663          	bne	a5,a4,1948 <dw_int16xint8_riscv_depthwise_conv_s16+0x120>
    1940:	00440413          	addi	s0,s0,4
    1944:	fe946ae3          	bltu	s0,s1,1938 <dw_int16xint8_riscv_depthwise_conv_s16+0x110>
    1948:	4572                	c.lwsp	a0,28(sp)
    194a:	c909                	c.beqz	a0,195c <dw_int16xint8_riscv_depthwise_conv_s16+0x134>
    194c:	864e                	c.mv	a2,s3
    194e:	4581                	c.li	a1,0
    1950:	10e080ef          	jal	ra,9a5e <memset>
    1954:	01c12503          	lw	a0,28(sp)
    1958:	1c0080ef          	jal	ra,9b18 <free>
    195c:	0008b537          	lui	a0,0x8b
    1960:	56850513          	addi	a0,a0,1384 # 8b568 <int16xint8xint32_1_weights+0x20c8>
    1964:	304080ef          	jal	ra,9c68 <printf>
    1968:	04800613          	li	a2,72
    196c:	7900158b          	addigp	a1,1936 # 80f90 <dw_int16xint8_output_ref>
    1970:	854a                	c.mv	a0,s2
    1972:	3149                	c.jal	15f4 <validate_s16.lto_priv.15>
    1974:	02051e63          	bnez	a0,19b0 <dw_int16xint8_riscv_depthwise_conv_s16+0x188>
    1978:	00081537          	lui	a0,0x81
    197c:	08450513          	addi	a0,a0,132 # 81084 <dw_int16xint8_output_shift+0x64>
    1980:	2e8080ef          	jal	ra,9c68 <printf>
    1984:	13c12083          	lw	ra,316(sp)
    1988:	13812403          	lw	s0,312(sp)
    198c:	13412483          	lw	s1,308(sp)
    1990:	13012903          	lw	s2,304(sp)
    1994:	12c12983          	lw	s3,300(sp)
    1998:	12812a03          	lw	s4,296(sp)
    199c:	12412a83          	lw	s5,292(sp)
    19a0:	6131                	c.addi16sp	sp,320
    19a2:	8082                	c.jr	ra
    19a4:	fff7c613          	not	a2,a5
    19a8:	963a                	c.add	a2,a4
    19aa:	9a71                	c.andi	a2,-4
    19ac:	0611                	c.addi	a2,4
    19ae:	bf2d                	c.j	18e8 <dw_int16xint8_riscv_depthwise_conv_s16+0xc0>
    19b0:	00081537          	lui	a0,0x81
    19b4:	04050513          	addi	a0,a0,64 # 81040 <dw_int16xint8_output_shift+0x20>
    19b8:	2b0080ef          	jal	ra,9c68 <printf>
    19bc:	00081537          	lui	a0,0x81
    19c0:	408485b3          	sub	a1,s1,s0
    19c4:	bcc50513          	addi	a0,a0,-1076 # 80bcc <dw_int16xint8_dilation_output_shift+0x6c>
    19c8:	2a0080ef          	jal	ra,9c68 <printf>
    19cc:	00081537          	lui	a0,0x81
    19d0:	414a85b3          	sub	a1,s5,s4
    19d4:	be450513          	addi	a0,a0,-1052 # 80be4 <dw_int16xint8_dilation_output_shift+0x84>
    19d8:	290080ef          	jal	ra,9c68 <printf>
    19dc:	b765                	c.j	1984 <dw_int16xint8_riscv_depthwise_conv_s16+0x15c>
    19de:	0001                	c.nop

000019e0 <conv_3x3_dilation_5x5_input_riscv_convolve_s8>:
    19e0:	7149                	c.addi16sp	sp,-368
    19e2:	17212023          	sw	s2,352(sp)
    19e6:	08810913          	addi	s2,sp,136
    19ea:	0c600613          	li	a2,198
    19ee:	4581                	c.li	a1,0
    19f0:	01200533          	add	a0,zero,s2
    19f4:	16112623          	sw	ra,364(sp)
    19f8:	16812423          	sw	s0,360(sp)
    19fc:	16912223          	sw	s1,356(sp)
    1a00:	15312e23          	sw	s3,348(sp)
    1a04:	15412c23          	sw	s4,344(sp)
    1a08:	15512a23          	sw	s5,340(sp)
    1a0c:	052080ef          	jal	ra,9a5e <memset>
    1a10:	4789                	c.li	a5,2
    1a12:	cebe                	c.swsp	a5,92(sp)
    1a14:	c6be                	c.swsp	a5,76(sp)
    1a16:	d63e                	c.swsp	a5,44(sp)
    1a18:	d8be                	c.swsp	a5,112(sp)
    1a1a:	dabe                	c.swsp	a5,116(sp)
    1a1c:	dcbe                	c.swsp	a5,120(sp)
    1a1e:	debe                	c.swsp	a5,124(sp)
    1a20:	08000793          	li	a5,128
    1a24:	d0be                	c.swsp	a5,96(sp)
    1a26:	5799                	c.li	a5,-26
    1a28:	d2be                	c.swsp	a5,100(sp)
    1a2a:	fc300793          	li	a5,-61
    1a2e:	c13e                	c.swsp	a5,128(sp)
    1a30:	06b00793          	li	a5,107
    1a34:	c33e                	c.swsp	a5,132(sp)
    1a36:	22c6978b          	addigp	a5,45612 # 8ba2c <conv_3x3_dilation_5x5_input_output_mult>
    1a3a:	c83e                	c.swsp	a5,16(sp)
    1a3c:	1004                	c.addi4spn	s1,sp,32
    1a3e:	4705                	c.li	a4,1
    1a40:	48a5                	c.li	a7,9
    1a42:	482d                	c.li	a6,11
    1a44:	430d                	c.li	t1,3
    1a46:	2346978b          	addigp	a5,45620 # 8ba34 <conv_3x3_dilation_5x5_input_output_shift>
    1a4a:	86a6                	c.mv	a3,s1
    1a4c:	0090                	c.addi4spn	a2,sp,64
    1a4e:	088c                	c.addi4spn	a1,sp,80
    1a50:	1088                	c.addi4spn	a0,sp,96
    1a52:	ca3e                	c.swsp	a5,20(sp)
    1a54:	c8ba                	c.swsp	a4,80(sp)
    1a56:	ccc6                	c.swsp	a7,88(sp)
    1a58:	cac2                	c.swsp	a6,84(sp)
    1a5a:	c49a                	c.swsp	t1,72(sp)
    1a5c:	c29a                	c.swsp	t1,68(sp)
    1a5e:	d446                	c.swsp	a7,40(sp)
    1a60:	d242                	c.swsp	a6,36(sp)
    1a62:	d4ba                	c.swsp	a4,104(sp)
    1a64:	06e12623          	sw	a4,108(sp)
    1a68:	2d1020ef          	jal	ra,4538 <riscv_convolve_wrapper_s8_get_buffer_size>
    1a6c:	00a009b3          	add	s3,zero,a0
    1a70:	098080ef          	jal	ra,9b08 <malloc>
    1a74:	2746940b          	addigp	s0,45684 # 8ba74 <stack_limit>
    1a78:	001d978b          	addigp	a5,124928 # 9f000 <_end+0x13540>
    1a7c:	cc2a                	c.swsp	a0,24(sp)
    1a7e:	ce02                	c.swsp	zero,28(sp)
    1a80:	c01c                	c.sw	a5,0(s0)
    1a82:	b0005073          	csrwi	mcycle,0
    1a86:	870a                	c.mv	a4,sp
    1a88:	00e7fe63          	bgeu	a5,a4,1aa4 <conv_3x3_dilation_5x5_input_riscv_convolve_s8+0xc4>
    1a8c:	00178693          	addi	a3,a5,1
    1a90:	00400613          	li	a2,4
    1a94:	0cd77263          	bgeu	a4,a3,1b58 <conv_3x3_dilation_5x5_input_riscv_convolve_s8+0x178>
    1a98:	0aa00593          	li	a1,170
    1a9c:	00f00533          	add	a0,zero,a5
    1aa0:	7bf070ef          	jal	ra,9a5e <memset>
    1aa4:	b0002a73          	csrr	s4,mcycle
    1aa8:	2246930b          	addigp	t1,45604 # 8ba24 <conv_3x3_dilation_5x5_input_biases>
    1aac:	03010893          	addi	a7,sp,48
    1ab0:	ba9f980b          	addigp	a6,-1112 # 803a8 <conv_3x3_dilation_5x5_input_weights>
    1ab4:	009c                	c.addi4spn	a5,sp,64
    1ab6:	981f970b          	addigp	a4,-1664 # 80180 <conv_3x3_dilation_5x5_input_input>
    1aba:	0894                	c.addi4spn	a3,sp,80
    1abc:	0810                	c.addi4spn	a2,sp,16
    1abe:	108c                	c.addi4spn	a1,sp,96
    1ac0:	0828                	c.addi4spn	a0,sp,24
    1ac2:	c44a                	c.swsp	s2,8(sp)
    1ac4:	c226                	c.swsp	s1,4(sp)
    1ac6:	c01a                	c.swsp	t1,0(sp)
    1ac8:	474010ef          	jal	ra,2f3c <riscv_convolve_wrapper_s8>
    1acc:	b0002af3          	csrr	s5,mcycle
    1ad0:	848a                	c.mv	s1,sp
    1ad2:	4000                	c.lw	s0,0(s0)
    1ad4:	02947263          	bgeu	s0,s1,1af8 <conv_3x3_dilation_5x5_input_riscv_convolve_s8+0x118>
    1ad8:	aaaab7b7          	lui	a5,0xaaaab
    1adc:	4018                	c.lw	a4,0(s0)
    1ade:	aaa78793          	addi	a5,a5,-1366 # aaaaaaaa <_DATA_LMA_START+0x8aa9ffd2>
    1ae2:	00f70763          	beq	a4,a5,1af0 <conv_3x3_dilation_5x5_input_riscv_convolve_s8+0x110>
    1ae6:	a809                	c.j	1af8 <conv_3x3_dilation_5x5_input_riscv_convolve_s8+0x118>
    1ae8:	00042783          	lw	a5,0(s0)
    1aec:	00e79663          	bne	a5,a4,1af8 <conv_3x3_dilation_5x5_input_riscv_convolve_s8+0x118>
    1af0:	00440413          	addi	s0,s0,4
    1af4:	fe946ae3          	bltu	s0,s1,1ae8 <conv_3x3_dilation_5x5_input_riscv_convolve_s8+0x108>
    1af8:	4562                	c.lwsp	a0,24(sp)
    1afa:	c909                	c.beqz	a0,1b0c <conv_3x3_dilation_5x5_input_riscv_convolve_s8+0x12c>
    1afc:	864e                	c.mv	a2,s3
    1afe:	4581                	c.li	a1,0
    1b00:	75f070ef          	jal	ra,9a5e <memset>
    1b04:	01812503          	lw	a0,24(sp)
    1b08:	010080ef          	jal	ra,9b18 <free>
    1b0c:	0008b537          	lui	a0,0x8b
    1b10:	56850513          	addi	a0,a0,1384 # 8b568 <int16xint8xint32_1_weights+0x20c8>
    1b14:	154080ef          	jal	ra,9c68 <printf>
    1b18:	0c600613          	li	a2,198
    1b1c:	a49f958b          	addigp	a1,-1464 # 80248 <conv_3x3_dilation_5x5_input_output_ref>
    1b20:	01200533          	add	a0,zero,s2
    1b24:	a59ff0ef          	jal	ra,157c <validate.lto_priv.13>
    1b28:	02051e63          	bnez	a0,1b64 <conv_3x3_dilation_5x5_input_riscv_convolve_s8+0x184>
    1b2c:	00080537          	lui	a0,0x80
    1b30:	35c50513          	addi	a0,a0,860 # 8035c <conv_3x3_dilation_5x5_input_output_ref+0x114>
    1b34:	134080ef          	jal	ra,9c68 <printf>
    1b38:	16c12083          	lw	ra,364(sp)
    1b3c:	16812403          	lw	s0,360(sp)
    1b40:	16412483          	lw	s1,356(sp)
    1b44:	16012903          	lw	s2,352(sp)
    1b48:	15c12983          	lw	s3,348(sp)
    1b4c:	15812a03          	lw	s4,344(sp)
    1b50:	15412a83          	lw	s5,340(sp)
    1b54:	6175                	c.addi16sp	sp,368
    1b56:	8082                	c.jr	ra
    1b58:	fff7c613          	not	a2,a5
    1b5c:	963a                	c.add	a2,a4
    1b5e:	9a71                	c.andi	a2,-4
    1b60:	0611                	c.addi	a2,4
    1b62:	bf1d                	c.j	1a98 <conv_3x3_dilation_5x5_input_riscv_convolve_s8+0xb8>
    1b64:	00080537          	lui	a0,0x80
    1b68:	31050513          	addi	a0,a0,784 # 80310 <conv_3x3_dilation_5x5_input_output_ref+0xc8>
    1b6c:	0fc080ef          	jal	ra,9c68 <printf>
    1b70:	00081537          	lui	a0,0x81
    1b74:	408485b3          	sub	a1,s1,s0
    1b78:	bcc50513          	addi	a0,a0,-1076 # 80bcc <dw_int16xint8_dilation_output_shift+0x6c>
    1b7c:	0ec080ef          	jal	ra,9c68 <printf>
    1b80:	00081537          	lui	a0,0x81
    1b84:	414a85b3          	sub	a1,s5,s4
    1b88:	be450513          	addi	a0,a0,-1052 # 80be4 <dw_int16xint8_dilation_output_shift+0x84>
    1b8c:	0dc080ef          	jal	ra,9c68 <printf>
    1b90:	b765                	c.j	1b38 <conv_3x3_dilation_5x5_input_riscv_convolve_s8+0x158>
    1b92:	0001                	c.nop

00001b94 <int16xint8_dilation_1_riscv_convolve_s16>:
    1b94:	81010113          	addi	sp,sp,-2032
    1b98:	7e112623          	sw	ra,2028(sp)
    1b9c:	7e812423          	sw	s0,2024(sp)
    1ba0:	7e912223          	sw	s1,2020(sp)
    1ba4:	7f212023          	sw	s2,2016(sp)
    1ba8:	7d312e23          	sw	s3,2012(sp)
    1bac:	7d412c23          	sw	s4,2008(sp)
    1bb0:	7d512a23          	sw	s5,2004(sp)
    1bb4:	6605                	c.lui	a2,0x1
    1bb6:	92010113          	addi	sp,sp,-1760
    1bba:	e1060613          	addi	a2,a2,-496 # e10 <pm_sleep_wakeup_ram.constprop.3+0x144>
    1bbe:	4581                	c.li	a1,0
    1bc0:	0a010513          	addi	a0,sp,160
    1bc4:	69b070ef          	jal	ra,9a5e <memset>
    1bc8:	4789                	c.li	a5,2
    1bca:	dabe                	c.swsp	a5,116(sp)
    1bcc:	d0be                	c.swsp	a5,96(sp)
    1bce:	cebe                	c.swsp	a5,92(sp)
    1bd0:	c2be                	c.swsp	a5,68(sp)
    1bd2:	c93e                	c.swsp	a5,144(sp)
    1bd4:	cb3e                	c.swsp	a5,148(sp)
    1bd6:	77e1                	c.lui	a5,0xffff8
    1bd8:	cd3e                	c.swsp	a5,152(sp)
    1bda:	67a1                	c.lui	a5,0x8
    1bdc:	17fd                	c.addi	a5,-1
    1bde:	cf3e                	c.swsp	a5,156(sp)
    1be0:	6485                	c.lui	s1,0x1
    1be2:	747d                	c.lui	s0,0xfffff
    1be4:	01010f93          	addi	t6,sp,16
    1be8:	ea048f13          	addi	t5,s1,-352 # ea0 <pm_sleep_wakeup_ram.constprop.3+0x1d4>
    1bec:	2486978b          	addigp	a5,45640 # 8ba48 <int16xint8_dilation_1_output_multiplier>
    1bf0:	9f7e                	c.add	t5,t6
    1bf2:	d43e                	c.swsp	a5,40(sp)
    1bf4:	18840693          	addi	a3,s0,392 # fffff188 <_DATA_LMA_START+0xdfff46b0>
    1bf8:	1a840613          	addi	a2,s0,424
    1bfc:	1b840593          	addi	a1,s0,440
    1c00:	1c840513          	addi	a0,s0,456
    1c04:	4705                	c.li	a4,1
    1c06:	02000313          	li	t1,32
    1c0a:	48f9                	c.li	a7,30
    1c0c:	1490180b          	addigp	a6,2376 # 81148 <int16xint8_dilation_1_bias>
    1c10:	2506978b          	addigp	a5,45648 # 8ba50 <int16xint8_dilation_1_output_shift>
    1c14:	96fa                	c.add	a3,t5
    1c16:	967a                	c.add	a2,t5
    1c18:	95fa                	c.add	a1,t5
    1c1a:	957a                	c.add	a0,t5
    1c1c:	d63e                	c.swsp	a5,44(sp)
    1c1e:	d042                	c.swsp	a6,32(sp)
    1c20:	d4ba                	c.swsp	a4,104(sp)
    1c22:	d89a                	c.swsp	t1,112(sp)
    1c24:	d69a                	c.swsp	t1,108(sp)
    1c26:	c0c6                	c.swsp	a7,64(sp)
    1c28:	de46                	c.swsp	a7,60(sp)
    1c2a:	c13a                	c.swsp	a4,128(sp)
    1c2c:	c33a                	c.swsp	a4,132(sp)
    1c2e:	02010223          	sb	zero,36(sp)
    1c32:	c502                	c.swsp	zero,136(sp)
    1c34:	c702                	c.swsp	zero,140(sp)
    1c36:	dc82                	c.swsp	zero,120(sp)
    1c38:	06012e23          	sw	zero,124(sp)
    1c3c:	15d010ef          	jal	ra,3598 <riscv_convolve_wrapper_s16_get_buffer_size>
    1c40:	00a009b3          	add	s3,zero,a0
    1c44:	6c5070ef          	jal	ra,9b08 <malloc>
    1c48:	001f978b          	addigp	a5,129024 # a0000 <_STACK_TOP>
    1c4c:	2746990b          	addigp	s2,45684 # 8ba74 <stack_limit>
    1c50:	943e                	c.add	s0,a5
    1c52:	d82a                	c.swsp	a0,48(sp)
    1c54:	00892023          	sw	s0,0(s2)
    1c58:	b0005073          	csrwi	mcycle,0
    1c5c:	878a                	c.mv	a5,sp
    1c5e:	00f47d63          	bgeu	s0,a5,1c78 <int16xint8_dilation_1_riscv_convolve_s16+0xe4>
    1c62:	00140713          	addi	a4,s0,1
    1c66:	4611                	c.li	a2,4
    1c68:	14e7fe63          	bgeu	a5,a4,1dc4 <int16xint8_dilation_1_riscv_convolve_s16+0x230>
    1c6c:	0aa00593          	li	a1,170
    1c70:	00800533          	add	a0,zero,s0
    1c74:	5eb070ef          	jal	ra,9a5e <memset>
    1c78:	b0002a73          	csrr	s4,mcycle
    1c7c:	6485                	c.lui	s1,0x1
    1c7e:	01010f13          	addi	t5,sp,16
    1c82:	777d                	c.lui	a4,0xfffff
    1c84:	ea048413          	addi	s0,s1,-352 # ea0 <pm_sleep_wakeup_ram.constprop.3+0x1d4>
    1c88:	947a                	c.add	s0,t5
    1c8a:	1f070e93          	addi	t4,a4,496 # fffff1f0 <_DATA_LMA_START+0xdfff4718>
    1c8e:	9ea2                	c.add	t4,s0
    1c90:	ea048413          	addi	s0,s1,-352
    1c94:	947a                	c.add	s0,t5
    1c96:	18870e13          	addi	t3,a4,392
    1c9a:	9e22                	c.add	t3,s0
    1c9c:	ea048413          	addi	s0,s1,-352
    1ca0:	947a                	c.add	s0,t5
    1ca2:	19870893          	addi	a7,a4,408
    1ca6:	1a870793          	addi	a5,a4,424
    1caa:	1b870693          	addi	a3,a4,440
    1cae:	17870613          	addi	a2,a4,376
    1cb2:	1c870593          	addi	a1,a4,456
    1cb6:	18070513          	addi	a0,a4,384
    1cba:	17070713          	addi	a4,a4,368
    1cbe:	00e40333          	add	t1,s0,a4
    1cc2:	ea048413          	addi	s0,s1,-352
    1cc6:	947a                	c.add	s0,t5
    1cc8:	96a2                	c.add	a3,s0
    1cca:	ea048413          	addi	s0,s1,-352
    1cce:	947a                	c.add	s0,t5
    1cd0:	ea048713          	addi	a4,s1,-352
    1cd4:	977a                	c.add	a4,t5
    1cd6:	9622                	c.add	a2,s0
    1cd8:	ea048413          	addi	s0,s1,-352
    1cdc:	947a                	c.add	s0,t5
    1cde:	98ba                	c.add	a7,a4
    1ce0:	ea048713          	addi	a4,s1,-352
    1ce4:	977a                	c.add	a4,t5
    1ce6:	95a2                	c.add	a1,s0
    1ce8:	ea048413          	addi	s0,s1,-352
    1cec:	97ba                	c.add	a5,a4
    1cee:	947a                	c.add	s0,t5
    1cf0:	0014180b          	addigp	a6,10240 # 83000 <int16xint8_dilation_1_weights>
    1cf4:	1590170b          	addigp	a4,2392 # 81158 <int16xint8_dilation_1_input>
    1cf8:	9522                	c.add	a0,s0
    1cfa:	c476                	c.swsp	t4,8(sp)
    1cfc:	c272                	c.swsp	t3,4(sp)
    1cfe:	c01a                	c.swsp	t1,0(sp)
    1d00:	238010ef          	jal	ra,2f38 <riscv_convolve_wrapper_s16>
    1d04:	b0002af3          	csrr	s5,mcycle
    1d08:	848a                	c.mv	s1,sp
    1d0a:	00092403          	lw	s0,0(s2)
    1d0e:	02947363          	bgeu	s0,s1,1d34 <int16xint8_dilation_1_riscv_convolve_s16+0x1a0>
    1d12:	aaaab7b7          	lui	a5,0xaaaab
    1d16:	4018                	c.lw	a4,0(s0)
    1d18:	aaa78793          	addi	a5,a5,-1366 # aaaaaaaa <_DATA_LMA_START+0x8aa9ffd2>
    1d1c:	00f70863          	beq	a4,a5,1d2c <int16xint8_dilation_1_riscv_convolve_s16+0x198>
    1d20:	0140006f          	j	1d34 <int16xint8_dilation_1_riscv_convolve_s16+0x1a0>
    1d24:	00042783          	lw	a5,0(s0)
    1d28:	00e79663          	bne	a5,a4,1d34 <int16xint8_dilation_1_riscv_convolve_s16+0x1a0>
    1d2c:	00440413          	addi	s0,s0,4
    1d30:	fe946ae3          	bltu	s0,s1,1d24 <int16xint8_dilation_1_riscv_convolve_s16+0x190>
    1d34:	6685                	c.lui	a3,0x1
    1d36:	080c                	c.addi4spn	a1,sp,16
    1d38:	ea068693          	addi	a3,a3,-352 # ea0 <pm_sleep_wakeup_ram.constprop.3+0x1d4>
    1d3c:	77fd                	c.lui	a5,0xfffff
    1d3e:	96ae                	c.add	a3,a1
    1d40:	00f685b3          	add	a1,a3,a5
    1d44:	1805a503          	lw	a0,384(a1)
    1d48:	ce2e                	c.swsp	a1,28(sp)
    1d4a:	c919                	c.beqz	a0,1d60 <int16xint8_dilation_1_riscv_convolve_s16+0x1cc>
    1d4c:	864e                	c.mv	a2,s3
    1d4e:	4581                	c.li	a1,0
    1d50:	50f070ef          	jal	ra,9a5e <memset>
    1d54:	01c12603          	lw	a2,28(sp)
    1d58:	18062503          	lw	a0,384(a2)
    1d5c:	5bd070ef          	jal	ra,9b18 <free>
    1d60:	0008b537          	lui	a0,0x8b
    1d64:	56850513          	addi	a0,a0,1384 # 8b568 <int16xint8xint32_1_weights+0x20c8>
    1d68:	701070ef          	jal	ra,9c68 <printf>
    1d6c:	6685                	c.lui	a3,0x1
    1d6e:	757d                	c.lui	a0,0xfffff
    1d70:	ea068693          	addi	a3,a3,-352 # ea0 <pm_sleep_wakeup_ram.constprop.3+0x1d4>
    1d74:	0818                	c.addi4spn	a4,sp,16
    1d76:	1f050513          	addi	a0,a0,496 # fffff1f0 <_DATA_LMA_START+0xdfff4718>
    1d7a:	96ba                	c.add	a3,a4
    1d7c:	70800613          	li	a2,1800
    1d80:	1592158b          	addigp	a1,6488 # 82158 <int16xint8_dilation_1_output>
    1d84:	00d50533          	add	a0,a0,a3
    1d88:	86dff0ef          	jal	ra,15f4 <validate_s16.lto_priv.15>
    1d8c:	04051263          	bnez	a0,1dd0 <int16xint8_dilation_1_riscv_convolve_s16+0x23c>
    1d90:	00083537          	lui	a0,0x83
    1d94:	fb450513          	addi	a0,a0,-76 # 82fb4 <int16xint8_dilation_1_output+0xe5c>
    1d98:	6d1070ef          	jal	ra,9c68 <printf>
    1d9c:	6e010113          	addi	sp,sp,1760
    1da0:	7ec12083          	lw	ra,2028(sp)
    1da4:	7e812403          	lw	s0,2024(sp)
    1da8:	7e412483          	lw	s1,2020(sp)
    1dac:	7e012903          	lw	s2,2016(sp)
    1db0:	7dc12983          	lw	s3,2012(sp)
    1db4:	7d812a03          	lw	s4,2008(sp)
    1db8:	7d412a83          	lw	s5,2004(sp)
    1dbc:	7f010113          	addi	sp,sp,2032
    1dc0:	00008067          	ret
    1dc4:	fff44613          	not	a2,s0
    1dc8:	963e                	c.add	a2,a5
    1dca:	9a71                	c.andi	a2,-4
    1dcc:	0611                	c.addi	a2,4
    1dce:	bd79                	c.j	1c6c <int16xint8_dilation_1_riscv_convolve_s16+0xd8>
    1dd0:	00083537          	lui	a0,0x83
    1dd4:	f6850513          	addi	a0,a0,-152 # 82f68 <int16xint8_dilation_1_output+0xe10>
    1dd8:	691070ef          	jal	ra,9c68 <printf>
    1ddc:	00081537          	lui	a0,0x81
    1de0:	408485b3          	sub	a1,s1,s0
    1de4:	bcc50513          	addi	a0,a0,-1076 # 80bcc <dw_int16xint8_dilation_output_shift+0x6c>
    1de8:	681070ef          	jal	ra,9c68 <printf>
    1dec:	00081537          	lui	a0,0x81
    1df0:	414a85b3          	sub	a1,s5,s4
    1df4:	be450513          	addi	a0,a0,-1052 # 80be4 <dw_int16xint8_dilation_output_shift+0x84>
    1df8:	671070ef          	jal	ra,9c68 <printf>
    1dfc:	b745                	c.j	1d9c <int16xint8_dilation_1_riscv_convolve_s16+0x208>
	...

00001e00 <_write>:
    1e00:	1141                	c.addi	sp,-16
    1e02:	c606                	c.swsp	ra,12(sp)
    1e04:	c422                	c.swsp	s0,8(sp)
    1e06:	c226                	c.swsp	s1,4(sp)
    1e08:	c04a                	c.swsp	s2,0(sp)
    1e0a:	02c05763          	blez	a2,1e38 <_write+0x38>
    1e0e:	8932                	c.mv	s2,a2
    1e10:	00b00433          	add	s0,zero,a1
    1e14:	00c584b3          	add	s1,a1,a2
    1e18:	00044503          	lbu	a0,0(s0)
    1e1c:	00140413          	addi	s0,s0,1
    1e20:	d8dfe0ef          	jal	ra,bac <dr_putchar>
    1e24:	fe941ae3          	bne	s0,s1,1e18 <_write+0x18>
    1e28:	40b2                	c.lwsp	ra,12(sp)
    1e2a:	4422                	c.lwsp	s0,8(sp)
    1e2c:	854a                	c.mv	a0,s2
    1e2e:	4492                	c.lwsp	s1,4(sp)
    1e30:	4902                	c.lwsp	s2,0(sp)
    1e32:	0141                	c.addi	sp,16
    1e34:	00008067          	ret
    1e38:	40b2                	c.lwsp	ra,12(sp)
    1e3a:	4422                	c.lwsp	s0,8(sp)
    1e3c:	4901                	c.li	s2,0
    1e3e:	854a                	c.mv	a0,s2
    1e40:	4492                	c.lwsp	s1,4(sp)
    1e42:	4902                	c.lwsp	s2,0(sp)
    1e44:	0141                	c.addi	sp,16
    1e46:	8082                	c.jr	ra

00001e48 <main>:
    1e48:	712d                	c.addi16sp	sp,-288
    1e4a:	ffbc07b7          	lui	a5,0xffbc0
    1e4e:	10112e23          	sw	ra,284(sp)
    1e52:	17fd                	c.addi	a5,-1
    1e54:	80140737          	lui	a4,0x80140
    1e58:	10812c23          	sw	s0,280(sp)
    1e5c:	10912a23          	sw	s1,276(sp)
    1e60:	11212823          	sw	s2,272(sp)
    1e64:	11312623          	sw	s3,268(sp)
    1e68:	11412423          	sw	s4,264(sp)
    1e6c:	11512223          	sw	s5,260(sp)
    1e70:	11612023          	sw	s6,256(sp)
    1e74:	dfde                	c.swsp	s7,252(sp)
    1e76:	dde2                	c.swsp	s8,248(sp)
    1e78:	dbe6                	c.swsp	s9,244(sp)
    1e7a:	1ef72023          	sw	a5,480(a4) # 801401e0 <_DATA_LMA_START+0x60135708>
    1e7e:	4589                	c.li	a1,2
    1e80:	08c00513          	li	a0,140
    1e84:	1ef72223          	sw	a5,484(a4)
    1e88:	90dfe0ef          	jal	ra,794 <analog_write_reg8>
    1e8c:	4581                	c.li	a1,0
    1e8e:	4529                	c.li	a0,10
    1e90:	905fe0ef          	jal	ra,794 <analog_write_reg8>
    1e94:	03b00593          	li	a1,59
    1e98:	00b00513          	li	a0,11
    1e9c:	8f9fe0ef          	jal	ra,794 <analog_write_reg8>
    1ea0:	00500513          	li	a0,5
    1ea4:	935fe0ef          	jal	ra,7d8 <analog_read_reg8>
    1ea8:	0f757593          	andi	a1,a0,247
    1eac:	00500513          	li	a0,5
    1eb0:	8e5fe0ef          	jal	ra,794 <analog_write_reg8>
    1eb4:	00600513          	li	a0,6
    1eb8:	921fe0ef          	jal	ra,7d8 <analog_read_reg8>
    1ebc:	03e57593          	andi	a1,a0,62
    1ec0:	00600513          	li	a0,6
    1ec4:	8d1fe0ef          	jal	ra,794 <analog_write_reg8>
    1ec8:	04500593          	li	a1,69
    1ecc:	00100513          	li	a0,1
    1ed0:	8c5fe0ef          	jal	ra,794 <analog_write_reg8>
    1ed4:	04c00593          	li	a1,76
    1ed8:	01c00513          	li	a0,28
    1edc:	8b9fe0ef          	jal	ra,794 <analog_write_reg8>
    1ee0:	801007b7          	lui	a5,0x80100
    1ee4:	44478703          	lb	a4,1092(a5) # 80100444 <_DATA_LMA_START+0x600f596c>
    1ee8:	801016b7          	lui	a3,0x80101
    1eec:	0ff77713          	andi	a4,a4,255
    1ef0:	00e76713          	ori	a4,a4,14
    1ef4:	44e78223          	sb	a4,1092(a5)
    1ef8:	45878703          	lb	a4,1112(a5)
    1efc:	03800513          	li	a0,56
    1f00:	0ff77713          	andi	a4,a4,255
    1f04:	00e76713          	ori	a4,a4,14
    1f08:	44e78c23          	sb	a4,1112(a5)
    1f0c:	46c78703          	lb	a4,1132(a5)
    1f10:	0ff77713          	andi	a4,a4,255
    1f14:	00e76713          	ori	a4,a4,14
    1f18:	46e78623          	sb	a4,1132(a5)
    1f1c:	48078703          	lb	a4,1152(a5)
    1f20:	0ff77713          	andi	a4,a4,255
    1f24:	00e76713          	ori	a4,a4,14
    1f28:	48e78023          	sb	a4,1152(a5)
    1f2c:	49478703          	lb	a4,1172(a5)
    1f30:	0ff77713          	andi	a4,a4,255
    1f34:	00e76713          	ori	a4,a4,14
    1f38:	48e78a23          	sb	a4,1172(a5)
    1f3c:	4a878703          	lb	a4,1192(a5)
    1f40:	0ff77713          	andi	a4,a4,255
    1f44:	00e76713          	ori	a4,a4,14
    1f48:	4ae78423          	sb	a4,1192(a5)
    1f4c:	4bc78703          	lb	a4,1212(a5)
    1f50:	0ff77713          	andi	a4,a4,255
    1f54:	00e76713          	ori	a4,a4,14
    1f58:	4ae78e23          	sb	a4,1212(a5)
    1f5c:	4d078703          	lb	a4,1232(a5)
    1f60:	0ff77713          	andi	a4,a4,255
    1f64:	00e76713          	ori	a4,a4,14
    1f68:	4ce78823          	sb	a4,1232(a5)
    1f6c:	83a68783          	lb	a5,-1990(a3) # 8010083a <_DATA_LMA_START+0x600f5d62>
    1f70:	82068d23          	sb	zero,-1990(a3)
    1f74:	865fe0ef          	jal	ra,7d8 <analog_read_reg8>
    1f78:	00a00433          	add	s0,zero,a0
    1f7c:	03900513          	li	a0,57
    1f80:	859fe0ef          	jal	ra,7d8 <analog_read_reg8>
    1f84:	84aa                	c.mv	s1,a0
    1f86:	4004745b          	bbs	s0,0,1f8e <main+0x146>
    1f8a:	7630006f          	j	2eec <main+0x10a4>
    1f8e:	0fe47593          	andi	a1,s0,254
    1f92:	2706940b          	addigp	s0,45680 # 8ba70 <g_pm_status_info>
    1f96:	03800513          	li	a0,56
    1f9a:	4004f45b          	bbs	s1,0,1fa2 <main+0x15a>
    1f9e:	72f0006f          	j	2ecc <main+0x1084>
    1fa2:	4791                	c.li	a5,4
    1fa4:	00f40123          	sb	a5,2(s0)
    1fa8:	fecfe0ef          	jal	ra,794 <analog_write_reg8>
    1fac:	00100593          	li	a1,1
    1fb0:	07f00513          	li	a0,127
    1fb4:	fe0fe0ef          	jal	ra,794 <analog_write_reg8>
    1fb8:	06400513          	li	a0,100
    1fbc:	81dfe0ef          	jal	ra,7d8 <analog_read_reg8>
    1fc0:	0c3527db          	bfoz	a5,a0,3,3
    1fc4:	00a400a3          	sb	a0,1(s0)
    1fc8:	00f40023          	sb	a5,0(s0)
    1fcc:	08800513          	li	a0,136
    1fd0:	809fe0ef          	jal	ra,7d8 <analog_read_reg8>
    1fd4:	be757c5b          	bbc	a0,7,1fcc <main+0x184>
    1fd8:	98dfe0ef          	jal	ra,964 <pm_wait_bbpll_done>
    1fdc:	00244783          	lbu	a5,2(s0)
    1fe0:	0a87de5b          	beqc	a5,8,209c <main+0x254>
    1fe4:	80140737          	lui	a4,0x80140
    1fe8:	20a70783          	lb	a5,522(a4) # 8014020a <_DATA_LMA_START+0x60135732>
    1fec:	0ff7f793          	andi	a5,a5,255
    1ff0:	00c7e793          	ori	a5,a5,12
    1ff4:	20f70523          	sb	a5,522(a4)
    1ff8:	00100793          	li	a5,1
    1ffc:	20f72023          	sw	a5,512(a4)
    2000:	801404b7          	lui	s1,0x80140
    2004:	1fd48783          	lb	a5,509(s1) # 801401fd <_DATA_LMA_START+0x60135725>
    2008:	0ff7f793          	andi	a5,a5,255
    200c:	26f6c62b          	swgp	a5,45676 # 8ba6c <g_chip_version>
    2010:	00244703          	lbu	a4,2(s0)
    2014:	04475c5b          	beqc	a4,4,206c <main+0x224>
    2018:	0ff00693          	li	a3,255
    201c:	04d78063          	beq	a5,a3,205c <main+0x214>
    2020:	08000593          	li	a1,128
    2024:	07d00513          	li	a0,125
    2028:	f6cfe0ef          	jal	ra,794 <analog_write_reg8>
    202c:	80140737          	lui	a4,0x80140
    2030:	06500793          	li	a5,101
    2034:	1ef70a23          	sb	a5,500(a4) # 801401f4 <_DATA_LMA_START+0x6013571c>
    2038:	1c872783          	lw	a5,456(a4)
    203c:	1e070a23          	sb	zero,500(a4)
    2040:	8bbd                	c.andi	a5,15
    2042:	0037d55b          	beqc	a5,3,204c <main+0x204>
    2046:	4725                	c.li	a4,9
    2048:	04f77e63          	bgeu	a4,a5,20a4 <main+0x25c>
    204c:	801407b7          	lui	a5,0x80140
    2050:	02000713          	li	a4,32
    2054:	1ee787a3          	sb	a4,495(a5) # 801401ef <_DATA_LMA_START+0x60135717>
    2058:	0000006f          	j	2058 <main+0x210>
    205c:	bc17625b          	bnec	a4,1,2020 <main+0x1d8>
    2060:	07d00513          	li	a0,125
    2064:	08000593          	li	a1,128
    2068:	0180006f          	j	2080 <main+0x238>
    206c:	03900513          	li	a0,57
    2070:	f68fe0ef          	jal	ra,7d8 <analog_read_reg8>
    2074:	00256593          	ori	a1,a0,2
    2078:	0ff5f593          	andi	a1,a1,255
    207c:	03900513          	li	a0,57
    2080:	f14fe0ef          	jal	ra,794 <analog_write_reg8>
    2084:	2004a503          	lw	a0,512(s1)
    2088:	001877b7          	lui	a5,0x187
    208c:	a0078793          	addi	a5,a5,-1536 # 186a00 <FLASH_SIZE+0x86a00>
    2090:	00f50533          	add	a0,a0,a5
    2094:	b60ff0ef          	jal	ra,13f4 <pm_sleep_wakeup.constprop.2>
    2098:	f89ff06f          	j	2020 <main+0x1d8>
    209c:	ae0fe0ef          	jal	ra,37c <pm_stimer_recover>
    20a0:	f61ff06f          	j	2000 <main+0x1b8>
    20a4:	00f00513          	li	a0,15
    20a8:	f30fe0ef          	jal	ra,7d8 <analog_read_reg8>
    20ac:	03f57593          	andi	a1,a0,63
    20b0:	0405e593          	ori	a1,a1,64
    20b4:	00f00513          	li	a0,15
    20b8:	edcfe0ef          	jal	ra,794 <analog_write_reg8>
    20bc:	0964                	c.addi4spn	s1,sp,156
    20be:	85a6                	c.mv	a1,s1
    20c0:	07010513          	addi	a0,sp,112
    20c4:	990ff0ef          	jal	ra,1254 <flash_read_mid_uid_with_check>
    20c8:	0ff57513          	andi	a0,a0,255
    20cc:	0015545b          	beqc	a0,1,20d4 <main+0x28c>
    20d0:	5f10006f          	j	2ec0 <main+0x1078>
    20d4:	07214783          	lbu	a5,114(sp)
    20d8:	474d                	c.li	a4,19
    20da:	0137e45b          	bnec	a5,19,20e2 <main+0x29a>
    20de:	5cb0006f          	j	2ea8 <main+0x1060>
    20e2:	00f76463          	bltu	a4,a5,20ea <main+0x2a2>
    20e6:	55b0006f          	j	2e40 <main+0xff8>
    20ea:	4755                	c.li	a4,21
    20ec:	0157e45b          	bnec	a5,21,20f4 <main+0x2ac>
    20f0:	5390006f          	j	2e28 <main+0xfe0>
    20f4:	3ce7e6e3          	bltu	a5,a4,2cc0 <main+0xe78>
    20f8:	0167d45b          	beqc	a5,22,2100 <main+0x2b8>
    20fc:	5c50006f          	j	2ec0 <main+0x1078>
    2100:	003fe537          	lui	a0,0x3fe
    2104:	0c050513          	addi	a0,a0,192 # 3fe0c0 <FLASH_SIZE+0x2fe0c0>
    2108:	b04ff0ef          	jal	ra,140c <user_calib_adc_vref.constprop.9>
    210c:	003fe537          	lui	a0,0x3fe
    2110:	bf8ff0ef          	jal	ra,1508 <user_calib_freq_offset.constprop.8>
    2114:	80140437          	lui	s0,0x80140
    2118:	ac4ff0ef          	jal	ra,13dc <clock_init.constprop.10>
    211c:	30e40783          	lb	a5,782(s0) # 8014030e <_DATA_LMA_START+0x60135836>
    2120:	11000513          	li	a0,272
    2124:	0ff7f793          	andi	a5,a5,255
    2128:	0107e793          	ori	a5,a5,16
    212c:	30f40723          	sb	a5,782(s0)
    2130:	30a40783          	lb	a5,778(s0)
    2134:	0008bab7          	lui	s5,0x8b
    2138:	0ef7f793          	andi	a5,a5,239
    213c:	30f40523          	sb	a5,778(s0)
    2140:	c20ff0ef          	jal	ra,1560 <gpio_input_dis>
    2144:	30e40783          	lb	a5,782(s0)
    2148:	12000513          	li	a0,288
    214c:	0ff7f793          	andi	a5,a5,255
    2150:	0207e793          	ori	a5,a5,32
    2154:	30f40723          	sb	a5,782(s0)
    2158:	30a40783          	lb	a5,778(s0)
    215c:	06010a13          	addi	s4,sp,96
    2160:	0df7f793          	andi	a5,a5,223
    2164:	30f40523          	sb	a5,778(s0)
    2168:	bf8ff0ef          	jal	ra,1560 <gpio_input_dis>
    216c:	30e40783          	lb	a5,782(s0)
    2170:	14000513          	li	a0,320
    2174:	0ff7f793          	andi	a5,a5,255
    2178:	0407e793          	ori	a5,a5,64
    217c:	30f40723          	sb	a5,782(s0)
    2180:	30a40783          	lb	a5,778(s0)
    2184:	03010993          	addi	s3,sp,48
    2188:	0bf7f793          	andi	a5,a5,191
    218c:	30f40523          	sb	a5,778(s0)
    2190:	bd0ff0ef          	jal	ra,1560 <gpio_input_dis>
    2194:	30e40783          	lb	a5,782(s0)
    2198:	18000513          	li	a0,384
    219c:	f807e793          	ori	a5,a5,-128
    21a0:	0ff7f793          	andi	a5,a5,255
    21a4:	30f40723          	sb	a5,782(s0)
    21a8:	30a40783          	lb	a5,778(s0)
    21ac:	07f7f793          	andi	a5,a5,127
    21b0:	30f40523          	sb	a5,778(s0)
    21b4:	bacff0ef          	jal	ra,1560 <gpio_input_dis>
    21b8:	0008b537          	lui	a0,0x8b
    21bc:	39050513          	addi	a0,a0,912 # 8b390 <int16xint8xint32_1_weights+0x1ef0>
    21c0:	2c7070ef          	jal	ra,9c86 <puts>
    21c4:	65a9                	c.lui	a1,0xa
    21c6:	0008b537          	lui	a0,0x8b
    21ca:	0585                	c.addi	a1,1
    21cc:	39450513          	addi	a0,a0,916 # 8b394 <int16xint8xint32_1_weights+0x1ef4>
    21d0:	299070ef          	jal	ra,9c68 <printf>
    21d4:	0008b537          	lui	a0,0x8b
    21d8:	7e400593          	li	a1,2020
    21dc:	3ac50513          	addi	a0,a0,940 # 8b3ac <int16xint8xint32_1_weights+0x1f0c>
    21e0:	289070ef          	jal	ra,9c68 <printf>
    21e4:	0008b5b7          	lui	a1,0x8b
    21e8:	0008b537          	lui	a0,0x8b
    21ec:	3c458593          	addi	a1,a1,964 # 8b3c4 <int16xint8xint32_1_weights+0x1f24>
    21f0:	3d050513          	addi	a0,a0,976 # 8b3d0 <int16xint8xint32_1_weights+0x1f30>
    21f4:	275070ef          	jal	ra,9c68 <printf>
    21f8:	808fe0ef          	jal	ra,200 <delay_ms.constprop.12>
    21fc:	568a8513          	addi	a0,s5,1384 # 8b568 <int16xint8xint32_1_weights+0x20c8>
    2200:	269070ef          	jal	ra,9c68 <printf>
    2204:	0008b537          	lui	a0,0x8b
    2208:	3f850513          	addi	a0,a0,1016 # 8b3f8 <int16xint8xint32_1_weights+0x1f58>
    220c:	25d070ef          	jal	ra,9c68 <printf>
    2210:	568a8513          	addi	a0,s5,1384
    2214:	255070ef          	jal	ra,9c68 <printf>
    2218:	0008b537          	lui	a0,0x8b
    221c:	43450513          	addi	a0,a0,1076 # 8b434 <int16xint8xint32_1_weights+0x1f94>
    2220:	249070ef          	jal	ra,9c68 <printf>
    2224:	4785                	c.li	a5,1
    2226:	d83e                	c.swsp	a5,48(sp)
    2228:	de3e                	c.swsp	a5,60(sp)
    222a:	c6be                	c.swsp	a5,76(sp)
    222c:	d6be                	c.swsp	a5,108(sp)
    222e:	d33e                	c.swsp	a5,164(sp)
    2230:	d53e                	c.swsp	a5,168(sp)
    2232:	db3e                	c.swsp	a5,180(sp)
    2234:	dd3e                	c.swsp	a5,184(sp)
    2236:	08000793          	li	a5,128
    223a:	cf3e                	c.swsp	a5,156(sp)
    223c:	f8000793          	li	a5,-128
    2240:	df3e                	c.swsp	a5,188(sp)
    2242:	1fc6978b          	addigp	a5,45564 # 8b9fc <basic_output_mult>
    2246:	d43e                	c.swsp	a5,40(sp)
    2248:	4321                	c.li	t1,8
    224a:	4815                	c.li	a6,5
    224c:	4891                	c.li	a7,4
    224e:	07f00713          	li	a4,127
    2252:	2006978b          	addigp	a5,45568 # 8ba00 <basic_output_shift>
    2256:	86d2                	c.mv	a3,s4
    2258:	0090                	c.addi4spn	a2,sp,64
    225a:	85ce                	c.mv	a1,s3
    225c:	da1a                	c.swsp	t1,52(sp)
    225e:	8526                	c.mv	a0,s1
    2260:	4309                	c.li	t1,2
    2262:	dc42                	c.swsp	a6,56(sp)
    2264:	c49a                	c.swsp	t1,72(sp)
    2266:	c2c6                	c.swsp	a7,68(sp)
    2268:	d4c6                	c.swsp	a7,104(sp)
    226a:	d2c2                	c.swsp	a6,100(sp)
    226c:	d13a                	c.swsp	a4,160(sp)
    226e:	c1ba                	c.swsp	a4,192(sp)
    2270:	d63e                	c.swsp	a5,44(sp)
    2272:	d882                	c.swsp	zero,112(sp)
    2274:	da82                	c.swsp	zero,116(sp)
    2276:	dc82                	c.swsp	zero,120(sp)
    2278:	de82                	c.swsp	zero,124(sp)
    227a:	c102                	c.swsp	zero,128(sp)
    227c:	d702                	c.swsp	zero,172(sp)
    227e:	d902                	c.swsp	zero,176(sp)
    2280:	001d940b          	addigp	s0,124928 # 9f000 <_end+0x13540>
    2284:	2b4020ef          	jal	ra,4538 <riscv_convolve_wrapper_s8_get_buffer_size>
    2288:	2746990b          	addigp	s2,45684 # 8ba74 <stack_limit>
    228c:	00a00b33          	add	s6,zero,a0
    2290:	079070ef          	jal	ra,9b08 <malloc>
    2294:	d202                	c.swsp	zero,36(sp)
    2296:	d02a                	c.swsp	a0,32(sp)
    2298:	00892023          	sw	s0,0(s2)
    229c:	b0005073          	csrwi	mcycle,0
    22a0:	878a                	c.mv	a5,sp
    22a2:	02f47363          	bgeu	s0,a5,22c8 <main+0x480>
    22a6:	00140713          	addi	a4,s0,1
    22aa:	4611                	c.li	a2,4
    22ac:	00e7e863          	bltu	a5,a4,22bc <main+0x474>
    22b0:	fff44613          	not	a2,s0
    22b4:	963e                	c.add	a2,a5
    22b6:	9a71                	c.andi	a2,-4
    22b8:	00460613          	addi	a2,a2,4
    22bc:	0aa00593          	li	a1,170
    22c0:	00800533          	add	a0,zero,s0
    22c4:	79a070ef          	jal	ra,9a5e <memset>
    22c8:	b0002c73          	csrr	s8,mcycle
    22cc:	07010e13          	addi	t3,sp,112
    22d0:	1f86930b          	addigp	t1,45560 # 8b9f8 <basic_biases>
    22d4:	05010893          	addi	a7,sp,80
    22d8:	2046980b          	addigp	a6,45572 # 8ba04 <basic_weights>
    22dc:	009c                	c.addi4spn	a5,sp,64
    22de:	811f970b          	addigp	a4,-2032 # 80010 <basic_input>
    22e2:	86ce                	c.mv	a3,s3
    22e4:	1030                	c.addi4spn	a2,sp,40
    22e6:	85a6                	c.mv	a1,s1
    22e8:	1008                	c.addi4spn	a0,sp,32
    22ea:	c472                	c.swsp	t3,8(sp)
    22ec:	c252                	c.swsp	s4,4(sp)
    22ee:	c01a                	c.swsp	t1,0(sp)
    22f0:	44d000ef          	jal	ra,2f3c <riscv_convolve_wrapper_s8>
    22f4:	b00025f3          	csrr	a1,mcycle
    22f8:	868a                	c.mv	a3,sp
    22fa:	00092783          	lw	a5,0(s2)
    22fe:	02d7f363          	bgeu	a5,a3,2324 <main+0x4dc>
    2302:	aaaab637          	lui	a2,0xaaaab
    2306:	4398                	c.lw	a4,0(a5)
    2308:	aaa60613          	addi	a2,a2,-1366 # aaaaaaaa <_DATA_LMA_START+0x8aa9ffd2>
    230c:	00c70863          	beq	a4,a2,231c <main+0x4d4>
    2310:	0140006f          	j	2324 <main+0x4dc>
    2314:	0007a603          	lw	a2,0(a5)
    2318:	00e61663          	bne	a2,a4,2324 <main+0x4dc>
    231c:	00478793          	addi	a5,a5,4
    2320:	fed7eae3          	bltu	a5,a3,2314 <main+0x4cc>
    2324:	5502                	c.lwsp	a0,32(sp)
    2326:	40f68bb3          	sub	s7,a3,a5
    232a:	41858c33          	sub	s8,a1,s8
    232e:	c909                	c.beqz	a0,2340 <main+0x4f8>
    2330:	865a                	c.mv	a2,s6
    2332:	4581                	c.li	a1,0
    2334:	72a070ef          	jal	ra,9a5e <memset>
    2338:	02012503          	lw	a0,32(sp)
    233c:	7dc070ef          	jal	ra,9b18 <free>
    2340:	568a8513          	addi	a0,s5,1384
    2344:	125070ef          	jal	ra,9c68 <printf>
    2348:	4651                	c.li	a2,20
    234a:	839f958b          	addigp	a1,-1992 # 80038 <basic_output_ref>
    234e:	1888                	c.addi4spn	a0,sp,112
    2350:	a2cff0ef          	jal	ra,157c <validate.lto_priv.13>
    2354:	180512e3          	bnez	a0,2cd8 <main+0xe90>
    2358:	0008b537          	lui	a0,0x8b
    235c:	49050513          	addi	a0,a0,1168 # 8b490 <int16xint8xint32_1_weights+0x1ff0>
    2360:	109070ef          	jal	ra,9c68 <printf>
    2364:	04800613          	li	a2,72
    2368:	4581                	c.li	a1,0
    236a:	8526                	c.mv	a0,s1
    236c:	6f2070ef          	jal	ra,9a5e <memset>
    2370:	4789                	c.li	a5,2
    2372:	de3e                	c.swsp	a5,60(sp)
    2374:	c6be                	c.swsp	a5,76(sp)
    2376:	d6be                	c.swsp	a5,108(sp)
    2378:	c53e                	c.swsp	a5,136(sp)
    237a:	c73e                	c.swsp	a5,140(sp)
    237c:	08000793          	li	a5,128
    2380:	d8be                	c.swsp	a5,112(sp)
    2382:	f8000793          	li	a5,-128
    2386:	dabe                	c.swsp	a5,116(sp)
    2388:	fc300793          	li	a5,-61
    238c:	c93e                	c.swsp	a5,144(sp)
    238e:	06b00793          	li	a5,107
    2392:	cb3e                	c.swsp	a5,148(sp)
    2394:	2146978b          	addigp	a5,45588 # 8ba14 <conv_2x2_dilation_output_mult>
    2398:	d43e                	c.swsp	a5,40(sp)
    239a:	4705                	c.li	a4,1
    239c:	4329                	c.li	t1,10
    239e:	488d                	c.li	a7,3
    23a0:	4819                	c.li	a6,6
    23a2:	21c6978b          	addigp	a5,45596 # 8ba1c <conv_2x2_dilation_output_shift>
    23a6:	86d2                	c.mv	a3,s4
    23a8:	0090                	c.addi4spn	a2,sp,64
    23aa:	85ce                	c.mv	a1,s3
    23ac:	1888                	c.addi4spn	a0,sp,112
    23ae:	d83a                	c.swsp	a4,48(sp)
    23b0:	dc1a                	c.swsp	t1,56(sp)
    23b2:	da1a                	c.swsp	t1,52(sp)
    23b4:	c4c6                	c.swsp	a7,72(sp)
    23b6:	c2c6                	c.swsp	a7,68(sp)
    23b8:	d4c2                	c.swsp	a6,104(sp)
    23ba:	d2c2                	c.swsp	a6,100(sp)
    23bc:	dcba                	c.swsp	a4,120(sp)
    23be:	deba                	c.swsp	a4,124(sp)
    23c0:	d63e                	c.swsp	a5,44(sp)
    23c2:	c102                	c.swsp	zero,128(sp)
    23c4:	08012223          	sw	zero,132(sp)
    23c8:	170020ef          	jal	ra,4538 <riscv_convolve_wrapper_s8_get_buffer_size>
    23cc:	00a00b33          	add	s6,zero,a0
    23d0:	738070ef          	jal	ra,9b08 <malloc>
    23d4:	d202                	c.swsp	zero,36(sp)
    23d6:	d02a                	c.swsp	a0,32(sp)
    23d8:	00892023          	sw	s0,0(s2)
    23dc:	b0005073          	csrwi	mcycle,0
    23e0:	878a                	c.mv	a5,sp
    23e2:	02f47363          	bgeu	s0,a5,2408 <main+0x5c0>
    23e6:	00140713          	addi	a4,s0,1
    23ea:	4611                	c.li	a2,4
    23ec:	00e7e863          	bltu	a5,a4,23fc <main+0x5b4>
    23f0:	fff44613          	not	a2,s0
    23f4:	963e                	c.add	a2,a5
    23f6:	9a71                	c.andi	a2,-4
    23f8:	00460613          	addi	a2,a2,4
    23fc:	0aa00593          	li	a1,170
    2400:	00800533          	add	a0,zero,s0
    2404:	65a070ef          	jal	ra,9a5e <memset>
    2408:	b0002c73          	csrr	s8,mcycle
    240c:	20c6930b          	addigp	t1,45580 # 8ba0c <conv_2x2_dilation_biases>
    2410:	05010893          	addi	a7,sp,80
    2414:	95df980b          	addigp	a6,-1700 # 8015c <conv_2x2_dilation_weights>
    2418:	009c                	c.addi4spn	a5,sp,64
    241a:	84df970b          	addigp	a4,-1972 # 8004c <conv_2x2_dilation_input>
    241e:	86ce                	c.mv	a3,s3
    2420:	1030                	c.addi4spn	a2,sp,40
    2422:	188c                	c.addi4spn	a1,sp,112
    2424:	1008                	c.addi4spn	a0,sp,32
    2426:	c426                	c.swsp	s1,8(sp)
    2428:	c252                	c.swsp	s4,4(sp)
    242a:	c01a                	c.swsp	t1,0(sp)
    242c:	311000ef          	jal	ra,2f3c <riscv_convolve_wrapper_s8>
    2430:	b00025f3          	csrr	a1,mcycle
    2434:	868a                	c.mv	a3,sp
    2436:	00092783          	lw	a5,0(s2)
    243a:	02d7f363          	bgeu	a5,a3,2460 <main+0x618>
    243e:	aaaab637          	lui	a2,0xaaaab
    2442:	4398                	c.lw	a4,0(a5)
    2444:	aaa60613          	addi	a2,a2,-1366 # aaaaaaaa <_DATA_LMA_START+0x8aa9ffd2>
    2448:	00c70863          	beq	a4,a2,2458 <main+0x610>
    244c:	0140006f          	j	2460 <main+0x618>
    2450:	0007a603          	lw	a2,0(a5)
    2454:	00e61663          	bne	a2,a4,2460 <main+0x618>
    2458:	00478793          	addi	a5,a5,4
    245c:	fed7eae3          	bltu	a5,a3,2450 <main+0x608>
    2460:	5502                	c.lwsp	a0,32(sp)
    2462:	40f68bb3          	sub	s7,a3,a5
    2466:	41858c33          	sub	s8,a1,s8
    246a:	c909                	c.beqz	a0,247c <main+0x634>
    246c:	865a                	c.mv	a2,s6
    246e:	4581                	c.li	a1,0
    2470:	5ee070ef          	jal	ra,9a5e <memset>
    2474:	02012503          	lw	a0,32(sp)
    2478:	6a0070ef          	jal	ra,9b18 <free>
    247c:	568a8513          	addi	a0,s5,1384
    2480:	7e8070ef          	jal	ra,9c68 <printf>
    2484:	04800613          	li	a2,72
    2488:	915f958b          	addigp	a1,-1772 # 80114 <conv_2x2_dilation_output_ref>
    248c:	00900533          	add	a0,zero,s1
    2490:	8ecff0ef          	jal	ra,157c <validate.lto_priv.13>
    2494:	06051ae3          	bnez	a0,2d08 <main+0xec0>
    2498:	0008b537          	lui	a0,0x8b
    249c:	50450513          	addi	a0,a0,1284 # 8b504 <int16xint8xint32_1_weights+0x2064>
    24a0:	7c8070ef          	jal	ra,9c68 <printf>
    24a4:	d3cff0ef          	jal	ra,19e0 <conv_3x3_dilation_5x5_input_riscv_convolve_s8>
    24a8:	568a8513          	addi	a0,s5,1384
    24ac:	7bc070ef          	jal	ra,9c68 <printf>
    24b0:	0008b537          	lui	a0,0x8b
    24b4:	54450513          	addi	a0,a0,1348 # 8b544 <int16xint8xint32_1_weights+0x20a4>
    24b8:	7b0070ef          	jal	ra,9c68 <printf>
    24bc:	05000613          	li	a2,80
    24c0:	4581                	c.li	a1,0
    24c2:	8526                	c.mv	a0,s1
    24c4:	59a070ef          	jal	ra,9a5e <memset>
    24c8:	4785                	c.li	a5,1
    24ca:	d83e                	c.swsp	a5,48(sp)
    24cc:	dcbe                	c.swsp	a5,120(sp)
    24ce:	debe                	c.swsp	a5,124(sp)
    24d0:	c53e                	c.swsp	a5,136(sp)
    24d2:	c73e                	c.swsp	a5,140(sp)
    24d4:	1290170b          	addigp	a4,2344 # 81128 <int16xint8_bias>
    24d8:	77e1                	c.lui	a5,0xffff8
    24da:	cc3a                	c.swsp	a4,24(sp)
    24dc:	c93e                	c.swsp	a5,144(sp)
    24de:	4729                	c.li	a4,10
    24e0:	67a1                	c.lui	a5,0x8
    24e2:	dc3a                	c.swsp	a4,56(sp)
    24e4:	17fd                	c.addi	a5,-1
    24e6:	4721                	c.li	a4,8
    24e8:	da3a                	c.swsp	a4,52(sp)
    24ea:	cb3e                	c.swsp	a5,148(sp)
    24ec:	03700713          	li	a4,55
    24f0:	de3a                	c.swsp	a4,60(sp)
    24f2:	2c18178b          	addigp	a5,19136 # 852c0 <int16xint8_output_multiplier>
    24f6:	4725                	c.li	a4,9
    24f8:	c4ba                	c.swsp	a4,72(sp)
    24fa:	d43e                	c.swsp	a5,40(sp)
    24fc:	4709                	c.li	a4,2
    24fe:	4811                	c.li	a6,4
    2500:	2d18178b          	addigp	a5,19152 # 852d0 <int16xint8_output_shift>
    2504:	86d2                	c.mv	a3,s4
    2506:	0090                	c.addi4spn	a2,sp,64
    2508:	85ce                	c.mv	a1,s3
    250a:	d4ba                	c.swsp	a4,104(sp)
    250c:	1888                	c.addi4spn	a0,sp,112
    250e:	4715                	c.li	a4,5
    2510:	c2c2                	c.swsp	a6,68(sp)
    2512:	d2ba                	c.swsp	a4,100(sp)
    2514:	d6c2                	c.swsp	a6,108(sp)
    2516:	d63e                	c.swsp	a5,44(sp)
    2518:	00010e23          	sb	zero,28(sp)
    251c:	c102                	c.swsp	zero,128(sp)
    251e:	c302                	c.swsp	zero,132(sp)
    2520:	d882                	c.swsp	zero,112(sp)
    2522:	da82                	c.swsp	zero,116(sp)
    2524:	074010ef          	jal	ra,3598 <riscv_convolve_wrapper_s16_get_buffer_size>
    2528:	00a00b33          	add	s6,zero,a0
    252c:	5dc070ef          	jal	ra,9b08 <malloc>
    2530:	00892023          	sw	s0,0(s2)
    2534:	d02a                	c.swsp	a0,32(sp)
    2536:	b0005073          	csrwi	mcycle,0
    253a:	878a                	c.mv	a5,sp
    253c:	02f47263          	bgeu	s0,a5,2560 <main+0x718>
    2540:	00140713          	addi	a4,s0,1
    2544:	4611                	c.li	a2,4
    2546:	00e7e763          	bltu	a5,a4,2554 <main+0x70c>
    254a:	fff44613          	not	a2,s0
    254e:	963e                	c.add	a2,a5
    2550:	9a71                	c.andi	a2,-4
    2552:	0611                	c.addi	a2,4
    2554:	0aa00593          	li	a1,170
    2558:	00800533          	add	a0,zero,s0
    255c:	502070ef          	jal	ra,9a5e <memset>
    2560:	b0002bf3          	csrr	s7,mcycle
    2564:	01810e93          	addi	t4,sp,24
    2568:	05010893          	addi	a7,sp,80
    256c:	2e18180b          	addigp	a6,19168 # 852e0 <int16xint8_weights>
    2570:	009c                	c.addi4spn	a5,sp,64
    2572:	0114170b          	addigp	a4,10256 # 83010 <int16xint8_input>
    2576:	86ce                	c.mv	a3,s3
    2578:	1030                	c.addi4spn	a2,sp,40
    257a:	188c                	c.addi4spn	a1,sp,112
    257c:	1008                	c.addi4spn	a0,sp,32
    257e:	c426                	c.swsp	s1,8(sp)
    2580:	c252                	c.swsp	s4,4(sp)
    2582:	c076                	c.swsp	t4,0(sp)
    2584:	1b5000ef          	jal	ra,2f38 <riscv_convolve_wrapper_s16>
    2588:	8c2a                	c.mv	s8,a0
    258a:	b00027f3          	csrr	a5,mcycle
    258e:	41778bb3          	sub	s7,a5,s7
    2592:	868a                	c.mv	a3,sp
    2594:	00092783          	lw	a5,0(s2)
    2598:	02d7f263          	bgeu	a5,a3,25bc <main+0x774>
    259c:	aaaab637          	lui	a2,0xaaaab
    25a0:	4398                	c.lw	a4,0(a5)
    25a2:	aaa60613          	addi	a2,a2,-1366 # aaaaaaaa <_DATA_LMA_START+0x8aa9ffd2>
    25a6:	00c70763          	beq	a4,a2,25b4 <main+0x76c>
    25aa:	a809                	c.j	25bc <main+0x774>
    25ac:	0007a603          	lw	a2,0(a5) # 8000 <riscv_depthwise_conv_3x3_s8+0x7f8>
    25b0:	00e61663          	bne	a2,a4,25bc <main+0x774>
    25b4:	00478793          	addi	a5,a5,4
    25b8:	fed7eae3          	bltu	a5,a3,25ac <main+0x764>
    25bc:	5502                	c.lwsp	a0,32(sp)
    25be:	40f68cb3          	sub	s9,a3,a5
    25c2:	c909                	c.beqz	a0,25d4 <main+0x78c>
    25c4:	865a                	c.mv	a2,s6
    25c6:	4581                	c.li	a1,0
    25c8:	496070ef          	jal	ra,9a5e <memset>
    25cc:	02012503          	lw	a0,32(sp)
    25d0:	548070ef          	jal	ra,9b18 <free>
    25d4:	568a8513          	addi	a0,s5,1384
    25d8:	690070ef          	jal	ra,9c68 <printf>
    25dc:	000c1c63          	bnez	s8,25f4 <main+0x7ac>
    25e0:	02800613          	li	a2,40
    25e4:	2718158b          	addigp	a1,19056 # 85270 <int16xint8_output>
    25e8:	00900533          	add	a0,zero,s1
    25ec:	808ff0ef          	jal	ra,15f4 <validate_s16.lto_priv.15>
    25f0:	74051463          	bnez	a0,2d38 <main+0xef0>
    25f4:	0008b537          	lui	a0,0x8b
    25f8:	60850513          	addi	a0,a0,1544 # 8b608 <int16xint8xint32_1_weights+0x2168>
    25fc:	66c070ef          	jal	ra,9c68 <printf>
    2600:	d94ff0ef          	jal	ra,1b94 <int16xint8_dilation_1_riscv_convolve_s16>
    2604:	05000613          	li	a2,80
    2608:	4581                	c.li	a1,0
    260a:	8526                	c.mv	a0,s1
    260c:	452070ef          	jal	ra,9a5e <memset>
    2610:	4785                	c.li	a5,1
    2612:	d83e                	c.swsp	a5,48(sp)
    2614:	dcbe                	c.swsp	a5,120(sp)
    2616:	debe                	c.swsp	a5,124(sp)
    2618:	c53e                	c.swsp	a5,136(sp)
    261a:	c73e                	c.swsp	a5,140(sp)
    261c:	4805                	c.li	a6,1
    261e:	77e1                	c.lui	a5,0xffff8
    2620:	01010e23          	sb	a6,28(sp)
    2624:	c93e                	c.swsp	a5,144(sp)
    2626:	4829                	c.li	a6,10
    2628:	67a1                	c.lui	a5,0x8
    262a:	dc42                	c.swsp	a6,56(sp)
    262c:	17fd                	c.addi	a5,-1
    262e:	4821                	c.li	a6,8
    2630:	da42                	c.swsp	a6,52(sp)
    2632:	cb3e                	c.swsp	a5,148(sp)
    2634:	03700813          	li	a6,55
    2638:	de42                	c.swsp	a6,60(sp)
    263a:	4810978b          	addigp	a5,35968 # 89480 <int16xint8xint32_1_output_multiplier>
    263e:	4825                	c.li	a6,9
    2640:	c4c2                	c.swsp	a6,72(sp)
    2642:	d43e                	c.swsp	a5,40(sp)
    2644:	4809                	c.li	a6,2
    2646:	4711                	c.li	a4,4
    2648:	4910978b          	addigp	a5,35984 # 89490 <int16xint8xint32_1_output_shift>
    264c:	86d2                	c.mv	a3,s4
    264e:	0090                	c.addi4spn	a2,sp,64
    2650:	85ce                	c.mv	a1,s3
    2652:	d4c2                	c.swsp	a6,104(sp)
    2654:	1888                	c.addi4spn	a0,sp,112
    2656:	4815                	c.li	a6,5
    2658:	c2ba                	c.swsp	a4,68(sp)
    265a:	d2c2                	c.swsp	a6,100(sp)
    265c:	d6ba                	c.swsp	a4,108(sp)
    265e:	d63e                	c.swsp	a5,44(sp)
    2660:	cc02                	c.swsp	zero,24(sp)
    2662:	c102                	c.swsp	zero,128(sp)
    2664:	c302                	c.swsp	zero,132(sp)
    2666:	d882                	c.swsp	zero,112(sp)
    2668:	06012a23          	sw	zero,116(sp)
    266c:	72d000ef          	jal	ra,3598 <riscv_convolve_wrapper_s16_get_buffer_size>
    2670:	00a00b33          	add	s6,zero,a0
    2674:	494070ef          	jal	ra,9b08 <malloc>
    2678:	00892023          	sw	s0,0(s2)
    267c:	d02a                	c.swsp	a0,32(sp)
    267e:	b0005073          	csrwi	mcycle,0
    2682:	878a                	c.mv	a5,sp
    2684:	02f47263          	bgeu	s0,a5,26a8 <main+0x860>
    2688:	00140713          	addi	a4,s0,1
    268c:	4611                	c.li	a2,4
    268e:	00e7e763          	bltu	a5,a4,269c <main+0x854>
    2692:	fff44613          	not	a2,s0
    2696:	963e                	c.add	a2,a5
    2698:	9a71                	c.andi	a2,-4
    269a:	0611                	c.addi	a2,4
    269c:	0aa00593          	li	a1,170
    26a0:	00800533          	add	a0,zero,s0
    26a4:	3ba070ef          	jal	ra,9a5e <memset>
    26a8:	b0002c73          	csrr	s8,mcycle
    26ac:	01810f13          	addi	t5,sp,24
    26b0:	05010893          	addi	a7,sp,80
    26b4:	4a10980b          	addigp	a6,36000 # 894a0 <int16xint8xint32_1_weights>
    26b8:	009c                	c.addi4spn	a5,sp,64
    26ba:	1d1c170b          	addigp	a4,27088 # 871d0 <int16xint8xint32_1_input>
    26be:	86ce                	c.mv	a3,s3
    26c0:	1030                	c.addi4spn	a2,sp,40
    26c2:	188c                	c.addi4spn	a1,sp,112
    26c4:	1008                	c.addi4spn	a0,sp,32
    26c6:	c426                	c.swsp	s1,8(sp)
    26c8:	c252                	c.swsp	s4,4(sp)
    26ca:	c07a                	c.swsp	t5,0(sp)
    26cc:	06d000ef          	jal	ra,2f38 <riscv_convolve_wrapper_s16>
    26d0:	b00025f3          	csrr	a1,mcycle
    26d4:	868a                	c.mv	a3,sp
    26d6:	00092783          	lw	a5,0(s2)
    26da:	02d7f363          	bgeu	a5,a3,2700 <main+0x8b8>
    26de:	aaaab637          	lui	a2,0xaaaab
    26e2:	4398                	c.lw	a4,0(a5)
    26e4:	aaa60613          	addi	a2,a2,-1366 # aaaaaaaa <_DATA_LMA_START+0x8aa9ffd2>
    26e8:	00c70863          	beq	a4,a2,26f8 <main+0x8b0>
    26ec:	0140006f          	j	2700 <main+0x8b8>
    26f0:	0007a603          	lw	a2,0(a5) # 8000 <riscv_depthwise_conv_3x3_s8+0x7f8>
    26f4:	00e61663          	bne	a2,a4,2700 <main+0x8b8>
    26f8:	00478793          	addi	a5,a5,4
    26fc:	fed7eae3          	bltu	a5,a3,26f0 <main+0x8a8>
    2700:	5502                	c.lwsp	a0,32(sp)
    2702:	40f68bb3          	sub	s7,a3,a5
    2706:	41858c33          	sub	s8,a1,s8
    270a:	c909                	c.beqz	a0,271c <main+0x8d4>
    270c:	865a                	c.mv	a2,s6
    270e:	4581                	c.li	a1,0
    2710:	34e070ef          	jal	ra,9a5e <memset>
    2714:	02012503          	lw	a0,32(sp)
    2718:	400070ef          	jal	ra,9b18 <free>
    271c:	568a8513          	addi	a0,s5,1384
    2720:	548070ef          	jal	ra,9c68 <printf>
    2724:	02800613          	li	a2,40
    2728:	4310958b          	addigp	a1,35888 # 89430 <int16xint8xint32_1_output>
    272c:	00900533          	add	a0,zero,s1
    2730:	ec5fe0ef          	jal	ra,15f4 <validate_s16.lto_priv.15>
    2734:	62051a63          	bnez	a0,2d68 <main+0xf20>
    2738:	0008b537          	lui	a0,0x8b
    273c:	68850513          	addi	a0,a0,1672 # 8b688 <int16xint8xint32_1_weights+0x21e8>
    2740:	528070ef          	jal	ra,9c68 <printf>
    2744:	568a8513          	addi	a0,s5,1384
    2748:	520070ef          	jal	ra,9c68 <printf>
    274c:	0008b537          	lui	a0,0x8b
    2750:	6d450513          	addi	a0,a0,1748 # 8b6d4 <int16xint8xint32_1_weights+0x2234>
    2754:	514070ef          	jal	ra,9c68 <printf>
    2758:	05100613          	li	a2,81
    275c:	4581                	c.li	a1,0
    275e:	8526                	c.mv	a0,s1
    2760:	2fe070ef          	jal	ra,9a5e <memset>
    2764:	478d                	c.li	a5,3
    2766:	de3e                	c.swsp	a5,60(sp)
    2768:	c4be                	c.swsp	a5,72(sp)
    276a:	d4be                	c.swsp	a5,104(sp)
    276c:	d2be                	c.swsp	a5,100(sp)
    276e:	dcbe                	c.swsp	a5,120(sp)
    2770:	08000793          	li	a5,128
    2774:	d8be                	c.swsp	a5,112(sp)
    2776:	47bd                	c.li	a5,15
    2778:	dabe                	c.swsp	a5,116(sp)
    277a:	fb700793          	li	a5,-73
    277e:	cb3e                	c.swsp	a5,148(sp)
    2780:	07f00793          	li	a5,127
    2784:	cd3e                	c.swsp	a5,152(sp)
    2786:	4899                	c.li	a7,6
    2788:	dc46                	c.swsp	a7,56(sp)
    278a:	c4df978b          	addigp	a5,-948 # 8044c <depthwise_2_output_mult>
    278e:	4895                	c.li	a7,5
    2790:	da46                	c.swsp	a7,52(sp)
    2792:	d43e                	c.swsp	a5,40(sp)
    2794:	4891                	c.li	a7,4
    2796:	4705                	c.li	a4,1
    2798:	4809                	c.li	a6,2
    279a:	cc5f978b          	addigp	a5,-828 # 804c4 <depthwise_2_output_shift>
    279e:	86d2                	c.mv	a3,s4
    27a0:	0090                	c.addi4spn	a2,sp,64
    27a2:	85ce                	c.mv	a1,s3
    27a4:	c2c6                	c.swsp	a7,68(sp)
    27a6:	1888                	c.addi4spn	a0,sp,112
    27a8:	48a5                	c.li	a7,9
    27aa:	d83a                	c.swsp	a4,48(sp)
    27ac:	d6c6                	c.swsp	a7,108(sp)
    27ae:	c53a                	c.swsp	a4,136(sp)
    27b0:	dec2                	c.swsp	a6,124(sp)
    27b2:	c142                	c.swsp	a6,128(sp)
    27b4:	c73a                	c.swsp	a4,140(sp)
    27b6:	c93a                	c.swsp	a4,144(sp)
    27b8:	d63e                	c.swsp	a5,44(sp)
    27ba:	c882                	c.swsp	zero,80(sp)
    27bc:	ca82                	c.swsp	zero,84(sp)
    27be:	cc82                	c.swsp	zero,88(sp)
    27c0:	ce82                	c.swsp	zero,92(sp)
    27c2:	c302                	c.swsp	zero,132(sp)
    27c4:	730020ef          	jal	ra,4ef4 <riscv_depthwise_conv_wrapper_s8_get_buffer_size>
    27c8:	00a00b33          	add	s6,zero,a0
    27cc:	33c070ef          	jal	ra,9b08 <malloc>
    27d0:	d25a                	c.swsp	s6,36(sp)
    27d2:	d02a                	c.swsp	a0,32(sp)
    27d4:	00892023          	sw	s0,0(s2)
    27d8:	b0005073          	csrwi	mcycle,0
    27dc:	878a                	c.mv	a5,sp
    27de:	02f47363          	bgeu	s0,a5,2804 <main+0x9bc>
    27e2:	00140713          	addi	a4,s0,1
    27e6:	4611                	c.li	a2,4
    27e8:	00e7e863          	bltu	a5,a4,27f8 <main+0x9b0>
    27ec:	fff44613          	not	a2,s0
    27f0:	963e                	c.add	a2,a5
    27f2:	9a71                	c.andi	a2,-4
    27f4:	00460613          	addi	a2,a2,4
    27f8:	0aa00593          	li	a1,170
    27fc:	00800533          	add	a0,zero,s0
    2800:	25e070ef          	jal	ra,9a5e <memset>
    2804:	b0002c73          	csrr	s8,mcycle
    2808:	bcdf930b          	addigp	t1,-1076 # 803cc <depthwise_2_biases>
    280c:	05010893          	addi	a7,sp,80
    2810:	ce9f980b          	addigp	a6,-792 # 804e8 <depthwise_2_weights>
    2814:	009c                	c.addi4spn	a5,sp,64
    2816:	bf1f970b          	addigp	a4,-1040 # 803f0 <depthwise_2_input>
    281a:	86ce                	c.mv	a3,s3
    281c:	1030                	c.addi4spn	a2,sp,40
    281e:	188c                	c.addi4spn	a1,sp,112
    2820:	1008                	c.addi4spn	a0,sp,32
    2822:	c426                	c.swsp	s1,8(sp)
    2824:	c252                	c.swsp	s4,4(sp)
    2826:	c01a                	c.swsp	t1,0(sp)
    2828:	529020ef          	jal	ra,5550 <riscv_depthwise_conv_wrapper_s8>
    282c:	b00025f3          	csrr	a1,mcycle
    2830:	868a                	c.mv	a3,sp
    2832:	00092783          	lw	a5,0(s2)
    2836:	02d7f363          	bgeu	a5,a3,285c <main+0xa14>
    283a:	aaaab637          	lui	a2,0xaaaab
    283e:	4398                	c.lw	a4,0(a5)
    2840:	aaa60613          	addi	a2,a2,-1366 # aaaaaaaa <_DATA_LMA_START+0x8aa9ffd2>
    2844:	00c70863          	beq	a4,a2,2854 <main+0xa0c>
    2848:	0140006f          	j	285c <main+0xa14>
    284c:	0007a603          	lw	a2,0(a5)
    2850:	00e61663          	bne	a2,a4,285c <main+0xa14>
    2854:	00478793          	addi	a5,a5,4
    2858:	fed7eae3          	bltu	a5,a3,284c <main+0xa04>
    285c:	5502                	c.lwsp	a0,32(sp)
    285e:	40f68bb3          	sub	s7,a3,a5
    2862:	41858c33          	sub	s8,a1,s8
    2866:	c909                	c.beqz	a0,2878 <main+0xa30>
    2868:	865a                	c.mv	a2,s6
    286a:	4581                	c.li	a1,0
    286c:	1f2070ef          	jal	ra,9a5e <memset>
    2870:	02012503          	lw	a0,32(sp)
    2874:	2a4070ef          	jal	ra,9b18 <free>
    2878:	568a8513          	addi	a0,s5,1384
    287c:	3ec070ef          	jal	ra,9c68 <printf>
    2880:	05100613          	li	a2,81
    2884:	c71f958b          	addigp	a1,-912 # 80470 <depthwise_2_output_ref>
    2888:	00900533          	add	a0,zero,s1
    288c:	cf1fe0ef          	jal	ra,157c <validate.lto_priv.13>
    2890:	50051463          	bnez	a0,2d98 <main+0xf50>
    2894:	0008b537          	lui	a0,0x8b
    2898:	74450513          	addi	a0,a0,1860 # 8b744 <int16xint8xint32_1_weights+0x22a4>
    289c:	3cc070ef          	jal	ra,9c68 <printf>
    28a0:	02400613          	li	a2,36
    28a4:	4581                	c.li	a1,0
    28a6:	1888                	c.addi4spn	a0,sp,112
    28a8:	1b6070ef          	jal	ra,9a5e <memset>
    28ac:	4789                	c.li	a5,2
    28ae:	d83e                	c.swsp	a5,48(sp)
    28b0:	c4be                	c.swsp	a5,72(sp)
    28b2:	d4be                	c.swsp	a5,104(sp)
    28b4:	d53e                	c.swsp	a5,168(sp)
    28b6:	d73e                	c.swsp	a5,172(sp)
    28b8:	08000793          	li	a5,128
    28bc:	cf3e                	c.swsp	a5,156(sp)
    28be:	fd700793          	li	a5,-41
    28c2:	d13e                	c.swsp	a5,160(sp)
    28c4:	f8000793          	li	a5,-128
    28c8:	c1be                	c.swsp	a5,192(sp)
    28ca:	07f00793          	li	a5,127
    28ce:	c3be                	c.swsp	a5,196(sp)
    28d0:	e31f978b          	addigp	a5,-464 # 80630 <depthwise_mult_batches_output_mult>
    28d4:	d43e                	c.swsp	a5,40(sp)
    28d6:	4895                	c.li	a7,5
    28d8:	480d                	c.li	a6,3
    28da:	4705                	c.li	a4,1
    28dc:	e61f978b          	addigp	a5,-416 # 80660 <depthwise_mult_batches_output_shift>
    28e0:	86d2                	c.mv	a3,s4
    28e2:	0090                	c.addi4spn	a2,sp,64
    28e4:	85ce                	c.mv	a1,s3
    28e6:	da46                	c.swsp	a7,52(sp)
    28e8:	8526                	c.mv	a0,s1
    28ea:	4891                	c.li	a7,4
    28ec:	dc42                	c.swsp	a6,56(sp)
    28ee:	de42                	c.swsp	a6,60(sp)
    28f0:	c2c6                	c.swsp	a7,68(sp)
    28f2:	d2c2                	c.swsp	a6,100(sp)
    28f4:	d6c2                	c.swsp	a6,108(sp)
    28f6:	db3a                	c.swsp	a4,180(sp)
    28f8:	dd3a                	c.swsp	a4,184(sp)
    28fa:	df3a                	c.swsp	a4,188(sp)
    28fc:	d33a                	c.swsp	a4,164(sp)
    28fe:	d63e                	c.swsp	a5,44(sp)
    2900:	c882                	c.swsp	zero,80(sp)
    2902:	ca82                	c.swsp	zero,84(sp)
    2904:	cc82                	c.swsp	zero,88(sp)
    2906:	ce82                	c.swsp	zero,92(sp)
    2908:	0a012823          	sw	zero,176(sp)
    290c:	5e8020ef          	jal	ra,4ef4 <riscv_depthwise_conv_wrapper_s8_get_buffer_size>
    2910:	00a00b33          	add	s6,zero,a0
    2914:	1f4070ef          	jal	ra,9b08 <malloc>
    2918:	d25a                	c.swsp	s6,36(sp)
    291a:	d02a                	c.swsp	a0,32(sp)
    291c:	00892023          	sw	s0,0(s2)
    2920:	b0005073          	csrwi	mcycle,0
    2924:	878a                	c.mv	a5,sp
    2926:	02f47363          	bgeu	s0,a5,294c <main+0xb04>
    292a:	00140713          	addi	a4,s0,1
    292e:	4611                	c.li	a2,4
    2930:	00e7e863          	bltu	a5,a4,2940 <main+0xaf8>
    2934:	fff44613          	not	a2,s0
    2938:	963e                	c.add	a2,a5
    293a:	9a71                	c.andi	a2,-4
    293c:	00460613          	addi	a2,a2,4
    2940:	0aa00593          	li	a1,170
    2944:	00800533          	add	a0,zero,s0
    2948:	116070ef          	jal	ra,9a5e <memset>
    294c:	b0002c73          	csrr	s8,mcycle
    2950:	07010f93          	addi	t6,sp,112
    2954:	dc9f930b          	addigp	t1,-568 # 805c8 <depthwise_mult_batches_biases>
    2958:	05010893          	addi	a7,sp,80
    295c:	e6df980b          	addigp	a6,-404 # 8066c <depthwise_mult_batches_weights>
    2960:	009c                	c.addi4spn	a5,sp,64
    2962:	dd5f970b          	addigp	a4,-556 # 805d4 <depthwise_mult_batches_input>
    2966:	86ce                	c.mv	a3,s3
    2968:	1030                	c.addi4spn	a2,sp,40
    296a:	85a6                	c.mv	a1,s1
    296c:	1008                	c.addi4spn	a0,sp,32
    296e:	c47e                	c.swsp	t6,8(sp)
    2970:	c252                	c.swsp	s4,4(sp)
    2972:	c01a                	c.swsp	t1,0(sp)
    2974:	3dd020ef          	jal	ra,5550 <riscv_depthwise_conv_wrapper_s8>
    2978:	b00025f3          	csrr	a1,mcycle
    297c:	868a                	c.mv	a3,sp
    297e:	00092783          	lw	a5,0(s2)
    2982:	02d7f363          	bgeu	a5,a3,29a8 <main+0xb60>
    2986:	aaaab637          	lui	a2,0xaaaab
    298a:	4398                	c.lw	a4,0(a5)
    298c:	aaa60613          	addi	a2,a2,-1366 # aaaaaaaa <_DATA_LMA_START+0x8aa9ffd2>
    2990:	00c70863          	beq	a4,a2,29a0 <main+0xb58>
    2994:	0140006f          	j	29a8 <main+0xb60>
    2998:	0007a603          	lw	a2,0(a5)
    299c:	00e61663          	bne	a2,a4,29a8 <main+0xb60>
    29a0:	00478793          	addi	a5,a5,4
    29a4:	fed7eae3          	bltu	a5,a3,2998 <main+0xb50>
    29a8:	5502                	c.lwsp	a0,32(sp)
    29aa:	40f68bb3          	sub	s7,a3,a5
    29ae:	41858c33          	sub	s8,a1,s8
    29b2:	c909                	c.beqz	a0,29c4 <main+0xb7c>
    29b4:	865a                	c.mv	a2,s6
    29b6:	4581                	c.li	a1,0
    29b8:	0a6070ef          	jal	ra,9a5e <memset>
    29bc:	02012503          	lw	a0,32(sp)
    29c0:	158070ef          	jal	ra,9b18 <free>
    29c4:	568a8513          	addi	a0,s5,1384
    29c8:	2a0070ef          	jal	ra,9c68 <printf>
    29cc:	02400613          	li	a2,36
    29d0:	e3df958b          	addigp	a1,-452 # 8063c <depthwise_mult_batches_output_ref>
    29d4:	07010513          	addi	a0,sp,112
    29d8:	ba5fe0ef          	jal	ra,157c <validate.lto_priv.13>
    29dc:	3e051663          	bnez	a0,2dc8 <main+0xf80>
    29e0:	0008b537          	lui	a0,0x8b
    29e4:	7d050513          	addi	a0,a0,2000 # 8b7d0 <int16xint8xint32_1_weights+0x2330>
    29e8:	280070ef          	jal	ra,9c68 <printf>
    29ec:	03100613          	li	a2,49
    29f0:	4581                	c.li	a1,0
    29f2:	8526                	c.mv	a0,s1
    29f4:	06a070ef          	jal	ra,9a5e <memset>
    29f8:	4785                	c.li	a5,1
    29fa:	d83e                	c.swsp	a5,48(sp)
    29fc:	de3e                	c.swsp	a5,60(sp)
    29fe:	d6be                	c.swsp	a5,108(sp)
    2a00:	debe                	c.swsp	a5,124(sp)
    2a02:	c13e                	c.swsp	a5,128(sp)
    2a04:	dcbe                	c.swsp	a5,120(sp)
    2a06:	08000793          	li	a5,128
    2a0a:	d8be                	c.swsp	a5,112(sp)
    2a0c:	f9500793          	li	a5,-107
    2a10:	dabe                	c.swsp	a5,116(sp)
    2a12:	fba00793          	li	a5,-70
    2a16:	cb3e                	c.swsp	a5,148(sp)
    2a18:	07f00793          	li	a5,127
    2a1c:	cd3e                	c.swsp	a5,152(sp)
    2a1e:	2406978b          	addigp	a5,45632 # 8ba40 <depthwise_dilation_output_mult>
    2a22:	d43e                	c.swsp	a5,40(sp)
    2a24:	481d                	c.li	a6,7
    2a26:	4709                	c.li	a4,2
    2a28:	488d                	c.li	a7,3
    2a2a:	2446978b          	addigp	a5,45636 # 8ba44 <depthwise_dilation_output_shift>
    2a2e:	86d2                	c.mv	a3,s4
    2a30:	0090                	c.addi4spn	a2,sp,64
    2a32:	85ce                	c.mv	a1,s3
    2a34:	1888                	c.addi4spn	a0,sp,112
    2a36:	dc42                	c.swsp	a6,56(sp)
    2a38:	da42                	c.swsp	a6,52(sp)
    2a3a:	c4c6                	c.swsp	a7,72(sp)
    2a3c:	c2c6                	c.swsp	a7,68(sp)
    2a3e:	d4c2                	c.swsp	a6,104(sp)
    2a40:	d2c2                	c.swsp	a6,100(sp)
    2a42:	c33a                	c.swsp	a4,132(sp)
    2a44:	c53a                	c.swsp	a4,136(sp)
    2a46:	c73a                	c.swsp	a4,140(sp)
    2a48:	c93a                	c.swsp	a4,144(sp)
    2a4a:	d63e                	c.swsp	a5,44(sp)
    2a4c:	c882                	c.swsp	zero,80(sp)
    2a4e:	ca82                	c.swsp	zero,84(sp)
    2a50:	cc82                	c.swsp	zero,88(sp)
    2a52:	ce82                	c.swsp	zero,92(sp)
    2a54:	4a0020ef          	jal	ra,4ef4 <riscv_depthwise_conv_wrapper_s8_get_buffer_size>
    2a58:	00a00b33          	add	s6,zero,a0
    2a5c:	0ac070ef          	jal	ra,9b08 <malloc>
    2a60:	d25a                	c.swsp	s6,36(sp)
    2a62:	d02a                	c.swsp	a0,32(sp)
    2a64:	00892023          	sw	s0,0(s2)
    2a68:	b0005073          	csrwi	mcycle,0
    2a6c:	878a                	c.mv	a5,sp
    2a6e:	02f47363          	bgeu	s0,a5,2a94 <main+0xc4c>
    2a72:	00140713          	addi	a4,s0,1
    2a76:	4611                	c.li	a2,4
    2a78:	00e7e863          	bltu	a5,a4,2a88 <main+0xc40>
    2a7c:	fff44613          	not	a2,s0
    2a80:	963e                	c.add	a2,a5
    2a82:	9a71                	c.andi	a2,-4
    2a84:	00460613          	addi	a2,a2,4
    2a88:	0aa00593          	li	a1,170
    2a8c:	00800533          	add	a0,zero,s0
    2a90:	7cf060ef          	jal	ra,9a5e <memset>
    2a94:	b0002c73          	csrr	s8,mcycle
    2a98:	23c6930b          	addigp	t1,45628 # 8ba3c <depthwise_dilation_biases>
    2a9c:	05010893          	addi	a7,sp,80
    2aa0:	dbdf980b          	addigp	a6,-580 # 805bc <depthwise_dilation_weights>
    2aa4:	009c                	c.addi4spn	a5,sp,64
    2aa6:	d55f970b          	addigp	a4,-684 # 80554 <depthwise_dilation_input>
    2aaa:	86ce                	c.mv	a3,s3
    2aac:	1030                	c.addi4spn	a2,sp,40
    2aae:	188c                	c.addi4spn	a1,sp,112
    2ab0:	1008                	c.addi4spn	a0,sp,32
    2ab2:	c426                	c.swsp	s1,8(sp)
    2ab4:	c252                	c.swsp	s4,4(sp)
    2ab6:	c01a                	c.swsp	t1,0(sp)
    2ab8:	299020ef          	jal	ra,5550 <riscv_depthwise_conv_wrapper_s8>
    2abc:	b00025f3          	csrr	a1,mcycle
    2ac0:	868a                	c.mv	a3,sp
    2ac2:	00092783          	lw	a5,0(s2)
    2ac6:	02d7f363          	bgeu	a5,a3,2aec <main+0xca4>
    2aca:	aaaab637          	lui	a2,0xaaaab
    2ace:	4398                	c.lw	a4,0(a5)
    2ad0:	aaa60613          	addi	a2,a2,-1366 # aaaaaaaa <_DATA_LMA_START+0x8aa9ffd2>
    2ad4:	00c70863          	beq	a4,a2,2ae4 <main+0xc9c>
    2ad8:	0140006f          	j	2aec <main+0xca4>
    2adc:	0007a603          	lw	a2,0(a5)
    2ae0:	00e61663          	bne	a2,a4,2aec <main+0xca4>
    2ae4:	00478793          	addi	a5,a5,4
    2ae8:	fed7eae3          	bltu	a5,a3,2adc <main+0xc94>
    2aec:	5502                	c.lwsp	a0,32(sp)
    2aee:	40f68bb3          	sub	s7,a3,a5
    2af2:	41858c33          	sub	s8,a1,s8
    2af6:	c909                	c.beqz	a0,2b08 <main+0xcc0>
    2af8:	865a                	c.mv	a2,s6
    2afa:	4581                	c.li	a1,0
    2afc:	763060ef          	jal	ra,9a5e <memset>
    2b00:	02012503          	lw	a0,32(sp)
    2b04:	014070ef          	jal	ra,9b18 <free>
    2b08:	568a8513          	addi	a0,s5,1384
    2b0c:	15c070ef          	jal	ra,9c68 <printf>
    2b10:	03100613          	li	a2,49
    2b14:	d89f958b          	addigp	a1,-632 # 80588 <depthwise_dilation_output_ref>
    2b18:	00900533          	add	a0,zero,s1
    2b1c:	a61fe0ef          	jal	ra,157c <validate.lto_priv.13>
    2b20:	2c051c63          	bnez	a0,2df8 <main+0xfb0>
    2b24:	0008c537          	lui	a0,0x8c
    2b28:	86450513          	addi	a0,a0,-1948 # 8b864 <int16xint8xint32_1_weights+0x23c4>
    2b2c:	13c070ef          	jal	ra,9c68 <printf>
    2b30:	568a8513          	addi	a0,s5,1384
    2b34:	134070ef          	jal	ra,9c68 <printf>
    2b38:	0008c537          	lui	a0,0x8c
    2b3c:	8ac50513          	addi	a0,a0,-1876 # 8b8ac <int16xint8xint32_1_weights+0x240c>
    2b40:	128070ef          	jal	ra,9c68 <printf>
    2b44:	ce5fe0ef          	jal	ra,1828 <dw_int16xint8_riscv_depthwise_conv_s16>
    2b48:	4785                	c.li	a5,1
    2b4a:	c0be                	c.swsp	a5,64(sp)
    2b4c:	dcbe                	c.swsp	a5,120(sp)
    2b4e:	dabe                	c.swsp	a5,116(sp)
    2b50:	dd3e                	c.swsp	a5,184(sp)
    2b52:	df3e                	c.swsp	a5,188(sp)
    2b54:	77e1                	c.lui	a5,0xffff8
    2b56:	0785                	c.addi	a5,1
    2b58:	c1be                	c.swsp	a5,192(sp)
    2b5a:	67a1                	c.lui	a5,0x8
    2b5c:	17fd                	c.addi	a5,-1
    2b5e:	c3be                	c.swsp	a5,196(sp)
    2b60:	6c00178b          	addigp	a5,1728 # 80ec0 <dw_int16xint8_mult4_output_mult>
    2b64:	d43e                	c.swsp	a5,40(sp)
    2b66:	4315                	c.li	t1,5
    2b68:	4711                	c.li	a4,4
    2b6a:	4809                	c.li	a6,2
    2b6c:	488d                	c.li	a7,3
    2b6e:	6f00178b          	addigp	a5,1776 # 80ef0 <dw_int16xint8_mult4_output_shift>
    2b72:	1894                	c.addi4spn	a3,sp,112
    2b74:	0890                	c.addi4spn	a2,sp,80
    2b76:	008c                	c.addi4spn	a1,sp,64
    2b78:	c29a                	c.swsp	t1,68(sp)
    2b7a:	8526                	c.mv	a0,s1
    2b7c:	4321                	c.li	t1,8
    2b7e:	c4ba                	c.swsp	a4,72(sp)
    2b80:	c6c2                	c.swsp	a6,76(sp)
    2b82:	ccc6                	c.swsp	a7,88(sp)
    2b84:	caba                	c.swsp	a4,84(sp)
    2b86:	de9a                	c.swsp	t1,124(sp)
    2b88:	d546                	c.swsp	a7,168(sp)
    2b8a:	d742                	c.swsp	a6,172(sp)
    2b8c:	d33a                	c.swsp	a4,164(sp)
    2b8e:	d63e                	c.swsp	a5,44(sp)
    2b90:	d802                	c.swsp	zero,48(sp)
    2b92:	da02                	c.swsp	zero,52(sp)
    2b94:	dc02                	c.swsp	zero,56(sp)
    2b96:	de02                	c.swsp	zero,60(sp)
    2b98:	d082                	c.swsp	zero,96(sp)
    2b9a:	d282                	c.swsp	zero,100(sp)
    2b9c:	d482                	c.swsp	zero,104(sp)
    2b9e:	d682                	c.swsp	zero,108(sp)
    2ba0:	d902                	c.swsp	zero,176(sp)
    2ba2:	db02                	c.swsp	zero,180(sp)
    2ba4:	cf02                	c.swsp	zero,156(sp)
    2ba6:	d102                	c.swsp	zero,160(sp)
    2ba8:	4fc000ef          	jal	ra,30a4 <riscv_depthwise_conv_wrapper_s16_get_buffer_size>
    2bac:	00a00b33          	add	s6,zero,a0
    2bb0:	759060ef          	jal	ra,9b08 <malloc>
    2bb4:	d25a                	c.swsp	s6,36(sp)
    2bb6:	d02a                	c.swsp	a0,32(sp)
    2bb8:	00892023          	sw	s0,0(s2)
    2bbc:	b0005073          	csrwi	mcycle,0
    2bc0:	878a                	c.mv	a5,sp
    2bc2:	02f47363          	bgeu	s0,a5,2be8 <main+0xda0>
    2bc6:	00140713          	addi	a4,s0,1
    2bca:	4611                	c.li	a2,4
    2bcc:	00e7e863          	bltu	a5,a4,2bdc <main+0xd94>
    2bd0:	fff44613          	not	a2,s0
    2bd4:	963e                	c.add	a2,a5
    2bd6:	9a71                	c.andi	a2,-4
    2bd8:	00460613          	addi	a2,a2,4
    2bdc:	0aa00593          	li	a1,170
    2be0:	00800533          	add	a0,zero,s0
    2be4:	67b060ef          	jal	ra,9a5e <memset>
    2be8:	b0002bf3          	csrr	s7,mcycle
    2bec:	85a6                	c.mv	a1,s1
    2bee:	6300130b          	addigp	t1,1584 # 80e30 <dw_int16xint8_mult4_biases>
    2bf2:	88d2                	c.mv	a7,s4
    2bf4:	7100180b          	addigp	a6,1808 # 80f10 <dw_int16xint8_mult4_weights>
    2bf8:	089c                	c.addi4spn	a5,sp,80
    2bfa:	6700170b          	addigp	a4,1648 # 80e70 <dw_int16xint8_mult4_input>
    2bfe:	0094                	c.addi4spn	a3,sp,64
    2c00:	1030                	c.addi4spn	a2,sp,40
    2c02:	1008                	c.addi4spn	a0,sp,32
    2c04:	1884                	c.addi4spn	s1,sp,112
    2c06:	c44e                	c.swsp	s3,8(sp)
    2c08:	c226                	c.swsp	s1,4(sp)
    2c0a:	c01a                	c.swsp	t1,0(sp)
    2c0c:	21d020ef          	jal	ra,5628 <riscv_depthwise_conv_wrapper_s16>
    2c10:	b00024f3          	csrr	s1,mcycle
    2c14:	870a                	c.mv	a4,sp
    2c16:	00092783          	lw	a5,0(s2)
    2c1a:	02e7f363          	bgeu	a5,a4,2c40 <main+0xdf8>
    2c1e:	aaaab637          	lui	a2,0xaaaab
    2c22:	4394                	c.lw	a3,0(a5)
    2c24:	aaa60613          	addi	a2,a2,-1366 # aaaaaaaa <_DATA_LMA_START+0x8aa9ffd2>
    2c28:	00c68863          	beq	a3,a2,2c38 <main+0xdf0>
    2c2c:	0140006f          	j	2c40 <main+0xdf8>
    2c30:	0007a603          	lw	a2,0(a5) # 8000 <riscv_depthwise_conv_3x3_s8+0x7f8>
    2c34:	00d61663          	bne	a2,a3,2c40 <main+0xdf8>
    2c38:	00478793          	addi	a5,a5,4
    2c3c:	fee7eae3          	bltu	a5,a4,2c30 <main+0xde8>
    2c40:	5502                	c.lwsp	a0,32(sp)
    2c42:	40f70433          	sub	s0,a4,a5
    2c46:	417484b3          	sub	s1,s1,s7
    2c4a:	c909                	c.beqz	a0,2c5c <main+0xe14>
    2c4c:	865a                	c.mv	a2,s6
    2c4e:	4581                	c.li	a1,0
    2c50:	60f060ef          	jal	ra,9a5e <memset>
    2c54:	02012503          	lw	a0,32(sp)
    2c58:	6c1060ef          	jal	ra,9b18 <free>
    2c5c:	568a8513          	addi	a0,s5,1384
    2c60:	008070ef          	jal	ra,9c68 <printf>
    2c64:	4621                	c.li	a2,8
    2c66:	6e00158b          	addigp	a1,1760 # 80ee0 <dw_int16xint8_mult4_output_ref>
    2c6a:	854e                	c.mv	a0,s3
    2c6c:	989fe0ef          	jal	ra,15f4 <validate_s16.lto_priv.15>
    2c70:	1e051863          	bnez	a0,2e60 <main+0x1018>
    2c74:	0008c537          	lui	a0,0x8c
    2c78:	92850513          	addi	a0,a0,-1752 # 8b928 <int16xint8xint32_1_weights+0x2488>
    2c7c:	7ed060ef          	jal	ra,9c68 <printf>
    2c80:	9edfe0ef          	jal	ra,166c <dw_int16xint8_dilation_riscv_depthwise_conv_s16>
    2c84:	0008c537          	lui	a0,0x8c
    2c88:	97050513          	addi	a0,a0,-1680 # 8b970 <int16xint8xint32_1_weights+0x24d0>
    2c8c:	7dd060ef          	jal	ra,9c68 <printf>
    2c90:	d70fd0ef          	jal	ra,200 <delay_ms.constprop.12>
    2c94:	11c12083          	lw	ra,284(sp)
    2c98:	11812403          	lw	s0,280(sp)
    2c9c:	11412483          	lw	s1,276(sp)
    2ca0:	11012903          	lw	s2,272(sp)
    2ca4:	10c12983          	lw	s3,268(sp)
    2ca8:	10812a03          	lw	s4,264(sp)
    2cac:	10412a83          	lw	s5,260(sp)
    2cb0:	10012b03          	lw	s6,256(sp)
    2cb4:	5bfe                	c.lwsp	s7,252(sp)
    2cb6:	5c6e                	c.lwsp	s8,248(sp)
    2cb8:	5cde                	c.lwsp	s9,244(sp)
    2cba:	4501                	c.li	a0,0
    2cbc:	6115                	c.addi16sp	sp,288
    2cbe:	8082                	c.jr	ra
    2cc0:	000fe537          	lui	a0,0xfe
    2cc4:	0c050513          	addi	a0,a0,192 # fe0c0 <_STACK_TOP+0x5e0c0>
    2cc8:	f44fe0ef          	jal	ra,140c <user_calib_adc_vref.constprop.9>
    2ccc:	000fe537          	lui	a0,0xfe
    2cd0:	839fe0ef          	jal	ra,1508 <user_calib_freq_offset.constprop.8>
    2cd4:	c40ff06f          	j	2114 <main+0x2cc>
    2cd8:	0008b537          	lui	a0,0x8b
    2cdc:	45c50513          	addi	a0,a0,1116 # 8b45c <int16xint8xint32_1_weights+0x1fbc>
    2ce0:	789060ef          	jal	ra,9c68 <printf>
    2ce4:	00081537          	lui	a0,0x81
    2ce8:	017005b3          	add	a1,zero,s7
    2cec:	bcc50513          	addi	a0,a0,-1076 # 80bcc <dw_int16xint8_dilation_output_shift+0x6c>
    2cf0:	779060ef          	jal	ra,9c68 <printf>
    2cf4:	00081537          	lui	a0,0x81
    2cf8:	018005b3          	add	a1,zero,s8
    2cfc:	be450513          	addi	a0,a0,-1052 # 80be4 <dw_int16xint8_dilation_output_shift+0x84>
    2d00:	769060ef          	jal	ra,9c68 <printf>
    2d04:	e60ff06f          	j	2364 <main+0x51c>
    2d08:	0008b537          	lui	a0,0x8b
    2d0c:	4c450513          	addi	a0,a0,1220 # 8b4c4 <int16xint8xint32_1_weights+0x2024>
    2d10:	759060ef          	jal	ra,9c68 <printf>
    2d14:	00081537          	lui	a0,0x81
    2d18:	017005b3          	add	a1,zero,s7
    2d1c:	bcc50513          	addi	a0,a0,-1076 # 80bcc <dw_int16xint8_dilation_output_shift+0x6c>
    2d20:	749060ef          	jal	ra,9c68 <printf>
    2d24:	00081537          	lui	a0,0x81
    2d28:	018005b3          	add	a1,zero,s8
    2d2c:	be450513          	addi	a0,a0,-1052 # 80be4 <dw_int16xint8_dilation_output_shift+0x84>
    2d30:	739060ef          	jal	ra,9c68 <printf>
    2d34:	f70ff06f          	j	24a4 <main+0x65c>
    2d38:	0008b537          	lui	a0,0x8b
    2d3c:	56c50513          	addi	a0,a0,1388 # 8b56c <int16xint8xint32_1_weights+0x20cc>
    2d40:	729060ef          	jal	ra,9c68 <printf>
    2d44:	0008b537          	lui	a0,0x8b
    2d48:	019005b3          	add	a1,zero,s9
    2d4c:	5a050513          	addi	a0,a0,1440 # 8b5a0 <int16xint8xint32_1_weights+0x2100>
    2d50:	719060ef          	jal	ra,9c68 <printf>
    2d54:	0008b537          	lui	a0,0x8b
    2d58:	017005b3          	add	a1,zero,s7
    2d5c:	5d850513          	addi	a0,a0,1496 # 8b5d8 <int16xint8xint32_1_weights+0x2138>
    2d60:	709060ef          	jal	ra,9c68 <printf>
    2d64:	89dff06f          	j	2600 <main+0x7b8>
    2d68:	0008b537          	lui	a0,0x8b
    2d6c:	63c50513          	addi	a0,a0,1596 # 8b63c <int16xint8xint32_1_weights+0x219c>
    2d70:	6f9060ef          	jal	ra,9c68 <printf>
    2d74:	00081537          	lui	a0,0x81
    2d78:	017005b3          	add	a1,zero,s7
    2d7c:	bcc50513          	addi	a0,a0,-1076 # 80bcc <dw_int16xint8_dilation_output_shift+0x6c>
    2d80:	6e9060ef          	jal	ra,9c68 <printf>
    2d84:	00081537          	lui	a0,0x81
    2d88:	018005b3          	add	a1,zero,s8
    2d8c:	be450513          	addi	a0,a0,-1052 # 80be4 <dw_int16xint8_dilation_output_shift+0x84>
    2d90:	6d9060ef          	jal	ra,9c68 <printf>
    2d94:	9b1ff06f          	j	2744 <main+0x8fc>
    2d98:	0008b537          	lui	a0,0x8b
    2d9c:	70450513          	addi	a0,a0,1796 # 8b704 <int16xint8xint32_1_weights+0x2264>
    2da0:	6c9060ef          	jal	ra,9c68 <printf>
    2da4:	00081537          	lui	a0,0x81
    2da8:	017005b3          	add	a1,zero,s7
    2dac:	bcc50513          	addi	a0,a0,-1076 # 80bcc <dw_int16xint8_dilation_output_shift+0x6c>
    2db0:	6b9060ef          	jal	ra,9c68 <printf>
    2db4:	00081537          	lui	a0,0x81
    2db8:	018005b3          	add	a1,zero,s8
    2dbc:	be450513          	addi	a0,a0,-1052 # 80be4 <dw_int16xint8_dilation_output_shift+0x84>
    2dc0:	6a9060ef          	jal	ra,9c68 <printf>
    2dc4:	addff06f          	j	28a0 <main+0xa58>
    2dc8:	0008b537          	lui	a0,0x8b
    2dcc:	78450513          	addi	a0,a0,1924 # 8b784 <int16xint8xint32_1_weights+0x22e4>
    2dd0:	699060ef          	jal	ra,9c68 <printf>
    2dd4:	00081537          	lui	a0,0x81
    2dd8:	017005b3          	add	a1,zero,s7
    2ddc:	bcc50513          	addi	a0,a0,-1076 # 80bcc <dw_int16xint8_dilation_output_shift+0x6c>
    2de0:	689060ef          	jal	ra,9c68 <printf>
    2de4:	00081537          	lui	a0,0x81
    2de8:	018005b3          	add	a1,zero,s8
    2dec:	be450513          	addi	a0,a0,-1052 # 80be4 <dw_int16xint8_dilation_output_shift+0x84>
    2df0:	679060ef          	jal	ra,9c68 <printf>
    2df4:	bf9ff06f          	j	29ec <main+0xba4>
    2df8:	0008c537          	lui	a0,0x8c
    2dfc:	81c50513          	addi	a0,a0,-2020 # 8b81c <int16xint8xint32_1_weights+0x237c>
    2e00:	669060ef          	jal	ra,9c68 <printf>
    2e04:	00081537          	lui	a0,0x81
    2e08:	017005b3          	add	a1,zero,s7
    2e0c:	bcc50513          	addi	a0,a0,-1076 # 80bcc <dw_int16xint8_dilation_output_shift+0x6c>
    2e10:	659060ef          	jal	ra,9c68 <printf>
    2e14:	00081537          	lui	a0,0x81
    2e18:	018005b3          	add	a1,zero,s8
    2e1c:	be450513          	addi	a0,a0,-1052 # 80be4 <dw_int16xint8_dilation_output_shift+0x84>
    2e20:	649060ef          	jal	ra,9c68 <printf>
    2e24:	d0dff06f          	j	2b30 <main+0xce8>
    2e28:	001fe537          	lui	a0,0x1fe
    2e2c:	0c050513          	addi	a0,a0,192 # 1fe0c0 <FLASH_SIZE+0xfe0c0>
    2e30:	ddcfe0ef          	jal	ra,140c <user_calib_adc_vref.constprop.9>
    2e34:	001fe537          	lui	a0,0x1fe
    2e38:	ed0fe0ef          	jal	ra,1508 <user_calib_freq_offset.constprop.8>
    2e3c:	ad8ff06f          	j	2114 <main+0x2cc>
    2e40:	0507d85b          	beqc	a5,16,2e90 <main+0x1048>
    2e44:	0717ee5b          	bnec	a5,17,2ec0 <main+0x1078>
    2e48:	0001e537          	lui	a0,0x1e
    2e4c:	0c050513          	addi	a0,a0,192 # 1e0c0 <BIN_SIZE+0x7b6e>
    2e50:	dbcfe0ef          	jal	ra,140c <user_calib_adc_vref.constprop.9>
    2e54:	0001e537          	lui	a0,0x1e
    2e58:	eb0fe0ef          	jal	ra,1508 <user_calib_freq_offset.constprop.8>
    2e5c:	ab8ff06f          	j	2114 <main+0x2cc>
    2e60:	0008c537          	lui	a0,0x8c
    2e64:	8e050513          	addi	a0,a0,-1824 # 8b8e0 <int16xint8xint32_1_weights+0x2440>
    2e68:	601060ef          	jal	ra,9c68 <printf>
    2e6c:	00081537          	lui	a0,0x81
    2e70:	008005b3          	add	a1,zero,s0
    2e74:	bcc50513          	addi	a0,a0,-1076 # 80bcc <dw_int16xint8_dilation_output_shift+0x6c>
    2e78:	5f1060ef          	jal	ra,9c68 <printf>
    2e7c:	00081537          	lui	a0,0x81
    2e80:	009005b3          	add	a1,zero,s1
    2e84:	be450513          	addi	a0,a0,-1052 # 80be4 <dw_int16xint8_dilation_output_shift+0x84>
    2e88:	5e1060ef          	jal	ra,9c68 <printf>
    2e8c:	df5ff06f          	j	2c80 <main+0xe38>
    2e90:	0000e537          	lui	a0,0xe
    2e94:	0c050513          	addi	a0,a0,192 # e0c0 <_RAMCODE_VMA_END+0x373c>
    2e98:	d74fe0ef          	jal	ra,140c <user_calib_adc_vref.constprop.9>
    2e9c:	0000e537          	lui	a0,0xe
    2ea0:	e68fe0ef          	jal	ra,1508 <user_calib_freq_offset.constprop.8>
    2ea4:	a70ff06f          	j	2114 <main+0x2cc>
    2ea8:	0007e537          	lui	a0,0x7e
    2eac:	0c050513          	addi	a0,a0,192 # 7e0c0 <BIN_SIZE+0x67b6e>
    2eb0:	d5cfe0ef          	jal	ra,140c <user_calib_adc_vref.constprop.9>
    2eb4:	0007e537          	lui	a0,0x7e
    2eb8:	e50fe0ef          	jal	ra,1508 <user_calib_freq_offset.constprop.8>
    2ebc:	a58ff06f          	j	2114 <main+0x2cc>
    2ec0:	00000513          	li	a0,0
    2ec4:	d48fe0ef          	jal	ra,140c <user_calib_adc_vref.constprop.9>
    2ec8:	a4cff06f          	j	2114 <main+0x2cc>
    2ecc:	00100793          	li	a5,1
    2ed0:	00f40123          	sb	a5,2(s0)
    2ed4:	8c1fd0ef          	jal	ra,794 <analog_write_reg8>
    2ed8:	0014e593          	ori	a1,s1,1
    2edc:	0ff5f593          	andi	a1,a1,255
    2ee0:	03900513          	li	a0,57
    2ee4:	8b1fd0ef          	jal	ra,794 <analog_write_reg8>
    2ee8:	8c4ff06f          	j	1fac <main+0x164>
    2eec:	07f00513          	li	a0,127
    2ef0:	8e9fd0ef          	jal	ra,7d8 <analog_read_reg8>
    2ef4:	2706940b          	addigp	s0,45680 # 8ba70 <g_pm_status_info>
    2ef8:	00057a5b          	bbc	a0,0,2f0c <main+0x10c4>
    2efc:	4014fe5b          	bbs	s1,1,2f18 <main+0x10d0>
    2f00:	01000793          	li	a5,16
    2f04:	00f40123          	sb	a5,2(s0)
    2f08:	8a4ff06f          	j	1fac <main+0x164>
    2f0c:	00800793          	li	a5,8
    2f10:	00f40123          	sb	a5,2(s0)
    2f14:	898ff06f          	j	1fac <main+0x164>
    2f18:	02000793          	li	a5,32
    2f1c:	0fd4f593          	andi	a1,s1,253
    2f20:	03900513          	li	a0,57
    2f24:	00f40123          	sb	a5,2(s0)
    2f28:	86dfd0ef          	jal	ra,794 <analog_write_reg8>
    2f2c:	880ff06f          	j	1fac <main+0x164>

00002f30 <default_irq_entry>:
    2f30:	a001                	c.j	2f30 <default_irq_entry>

00002f32 <trap_handler>:
    2f32:	a001                	c.j	2f32 <trap_handler>
    2f34:	0001                	c.nop
	...

00002f38 <riscv_convolve_wrapper_s16>:
    2f38:	a275                	c.j	30e4 <riscv_convolve_s16>
	...

00002f3c <riscv_convolve_wrapper_s8>:
    2f3c:	7179                	c.addi16sp	sp,-48
    2f3e:	0105a283          	lw	t0,16(a1)
    2f42:	d422                	c.swsp	s0,40(sp)
    2f44:	d226                	c.swsp	s1,36(sp)
    2f46:	d04a                	c.swsp	s2,32(sp)
    2f48:	ce4e                	c.swsp	s3,28(sp)
    2f4a:	cc52                	c.swsp	s4,24(sp)
    2f4c:	d606                	c.swsp	ra,44(sp)
    2f4e:	ca56                	c.swsp	s5,20(sp)
    2f50:	c85a                	c.swsp	s6,16(sp)
    2f52:	5942                	c.lwsp	s2,48(sp)
    2f54:	59d2                	c.lwsp	s3,52(sp)
    2f56:	5a62                	c.lwsp	s4,56(sp)
    2f58:	832e                	c.mv	t1,a1
    2f5a:	83aa                	c.mv	t2,a0
    2f5c:	8432                	c.mv	s0,a2
    2f5e:	8e36                	c.mv	t3,a3
    2f60:	84ba                	c.mv	s1,a4
    2f62:	8ebe                	c.mv	t4,a5
    2f64:	8f42                	c.mv	t5,a6
    2f66:	8fc6                	c.mv	t6,a7
    2f68:	00029663          	bnez	t0,2f74 <riscv_convolve_wrapper_s8+0x38>
    2f6c:	0145a283          	lw	t0,20(a1)
    2f70:	04028863          	beqz	t0,2fc0 <riscv_convolve_wrapper_s8+0x84>
    2f74:	004e2783          	lw	a5,4(t3)
    2f78:	00100713          	li	a4,1
    2f7c:	00e79a63          	bne	a5,a4,2f90 <riscv_convolve_wrapper_s8+0x54>
    2f80:	01832703          	lw	a4,24(t1)
    2f84:	00f71663          	bne	a4,a5,2f90 <riscv_convolve_wrapper_s8+0x54>
    2f88:	004ea783          	lw	a5,4(t4)
    2f8c:	06e78263          	beq	a5,a4,2ff0 <riscv_convolve_wrapper_s8+0xb4>
    2f90:	8726                	c.mv	a4,s1
    2f92:	8622                	c.mv	a2,s0
    2f94:	88fe                	c.mv	a7,t6
    2f96:	887a                	c.mv	a6,t5
    2f98:	87f6                	c.mv	a5,t4
    2f9a:	86f2                	c.mv	a3,t3
    2f9c:	851e                	c.mv	a0,t2
    2f9e:	859a                	c.mv	a1,t1
    2fa0:	c652                	c.swsp	s4,12(sp)
    2fa2:	c44e                	c.swsp	s3,8(sp)
    2fa4:	c04a                	c.swsp	s2,0(sp)
    2fa6:	c202                	c.swsp	zero,4(sp)
    2fa8:	145000ef          	jal	ra,38ec <riscv_convolve_s8>
    2fac:	50b2                	c.lwsp	ra,44(sp)
    2fae:	5422                	c.lwsp	s0,40(sp)
    2fb0:	5492                	c.lwsp	s1,36(sp)
    2fb2:	5902                	c.lwsp	s2,32(sp)
    2fb4:	49f2                	c.lwsp	s3,28(sp)
    2fb6:	4a62                	c.lwsp	s4,24(sp)
    2fb8:	4ad2                	c.lwsp	s5,20(sp)
    2fba:	4b42                	c.lwsp	s6,16(sp)
    2fbc:	6145                	c.addi16sp	sp,48
    2fbe:	8082                	c.jr	ra
    2fc0:	0087a283          	lw	t0,8(a5)
    2fc4:	00100a93          	li	s5,1
    2fc8:	fb5296e3          	bne	t0,s5,2f74 <riscv_convolve_wrapper_s8+0x38>
    2fcc:	0047aa83          	lw	s5,4(a5)
    2fd0:	fa5a92e3          	bne	s5,t0,2f74 <riscv_convolve_wrapper_s8+0x38>
    2fd4:	0185a283          	lw	t0,24(a1)
    2fd8:	fb529ce3          	bne	t0,s5,2f90 <riscv_convolve_wrapper_s8+0x54>
    2fdc:	01c5aa83          	lw	s5,28(a1)
    2fe0:	045a8a63          	beq	s5,t0,3034 <riscv_convolve_wrapper_s8+0xf8>
    2fe4:	004e2703          	lw	a4,4(t3)
    2fe8:	00100793          	li	a5,1
    2fec:	faf712e3          	bne	a4,a5,2f90 <riscv_convolve_wrapper_s8+0x54>
    2ff0:	00ce2703          	lw	a4,12(t3)
    2ff4:	00832783          	lw	a5,8(t1)
    2ff8:	02f707b3          	mul	a5,a4,a5
    2ffc:	8b8d                	c.andi	a5,3
    2ffe:	fbc9                	c.bnez	a5,2f90 <riscv_convolve_wrapper_s8+0x54>
    3000:	00cea783          	lw	a5,12(t4)
    3004:	f8f716e3          	bne	a4,a5,2f90 <riscv_convolve_wrapper_s8+0x54>
    3008:	8622                	c.mv	a2,s0
    300a:	5422                	c.lwsp	s0,40(sp)
    300c:	dc52                	c.swsp	s4,56(sp)
    300e:	da4e                	c.swsp	s3,52(sp)
    3010:	d84a                	c.swsp	s2,48(sp)
    3012:	50b2                	c.lwsp	ra,44(sp)
    3014:	5902                	c.lwsp	s2,32(sp)
    3016:	49f2                	c.lwsp	s3,28(sp)
    3018:	4a62                	c.lwsp	s4,24(sp)
    301a:	4ad2                	c.lwsp	s5,20(sp)
    301c:	4b42                	c.lwsp	s6,16(sp)
    301e:	8726                	c.mv	a4,s1
    3020:	5492                	c.lwsp	s1,36(sp)
    3022:	88fe                	c.mv	a7,t6
    3024:	887a                	c.mv	a6,t5
    3026:	87f6                	c.mv	a5,t4
    3028:	86f2                	c.mv	a3,t3
    302a:	859a                	c.mv	a1,t1
    302c:	851e                	c.mv	a0,t2
    302e:	6145                	c.addi16sp	sp,48
    3030:	68c0206f          	j	56bc <riscv_convolve_1_x_n_s8>
    3034:	00c7a283          	lw	t0,12(a5)
    3038:	00c6ab03          	lw	s6,12(a3)
    303c:	fa5b14e3          	bne	s6,t0,2fe4 <riscv_convolve_wrapper_s8+0xa8>
    3040:	0085a283          	lw	t0,8(a1)
    3044:	01529663          	bne	t0,s5,3050 <riscv_convolve_wrapper_s8+0x114>
    3048:	00c5aa83          	lw	s5,12(a1)
    304c:	025a8863          	beq	s5,t0,307c <riscv_convolve_wrapper_s8+0x140>
    3050:	8622                	c.mv	a2,s0
    3052:	5422                	c.lwsp	s0,40(sp)
    3054:	dc52                	c.swsp	s4,56(sp)
    3056:	da4e                	c.swsp	s3,52(sp)
    3058:	d84a                	c.swsp	s2,48(sp)
    305a:	50b2                	c.lwsp	ra,44(sp)
    305c:	5902                	c.lwsp	s2,32(sp)
    305e:	49f2                	c.lwsp	s3,28(sp)
    3060:	4a62                	c.lwsp	s4,24(sp)
    3062:	4ad2                	c.lwsp	s5,20(sp)
    3064:	4b42                	c.lwsp	s6,16(sp)
    3066:	8726                	c.mv	a4,s1
    3068:	5492                	c.lwsp	s1,36(sp)
    306a:	88fe                	c.mv	a7,t6
    306c:	887a                	c.mv	a6,t5
    306e:	87f6                	c.mv	a5,t4
    3070:	86f2                	c.mv	a3,t3
    3072:	859a                	c.mv	a1,t1
    3074:	851e                	c.mv	a0,t2
    3076:	6145                	c.addi16sp	sp,48
    3078:	3b40206f          	j	542c <riscv_convolve_1x1_s8>
    307c:	5422                	c.lwsp	s0,40(sp)
    307e:	50b2                	c.lwsp	ra,44(sp)
    3080:	5492                	c.lwsp	s1,36(sp)
    3082:	5902                	c.lwsp	s2,32(sp)
    3084:	49f2                	c.lwsp	s3,28(sp)
    3086:	4a62                	c.lwsp	s4,24(sp)
    3088:	4ad2                	c.lwsp	s5,20(sp)
    308a:	4b42                	c.lwsp	s6,16(sp)
    308c:	6145                	c.addi16sp	sp,48
    308e:	ab39                	c.j	35ac <riscv_convolve_1x1_s8_fast>

00003090 <riscv_depthwise_conv_fast_s16_get_buffer_size>:
    3090:	4548                	c.lw	a0,12(a0)
    3092:	4598                	c.lw	a4,8(a1)
    3094:	41dc                	c.lw	a5,4(a1)
    3096:	02e50533          	mul	a0,a0,a4
    309a:	02f50533          	mul	a0,a0,a5
    309e:	0506                	c.slli	a0,0x1
    30a0:	8082                	c.jr	ra
	...

000030a4 <riscv_depthwise_conv_wrapper_s16_get_buffer_size>:
    30a4:	4518                	c.lw	a4,8(a0)
    30a6:	4685                	c.li	a3,1
    30a8:	87aa                	c.mv	a5,a0
    30aa:	4501                	c.li	a0,0
    30ac:	00d70463          	beq	a4,a3,30b4 <riscv_depthwise_conv_wrapper_s16_get_buffer_size+0x10>
    30b0:	00008067          	ret
    30b4:	4fd4                	c.lw	a3,28(a5)
    30b6:	4501                	c.li	a0,0
    30b8:	fee69ce3          	bne	a3,a4,30b0 <riscv_depthwise_conv_wrapper_s16_get_buffer_size+0xc>
    30bc:	539c                	c.lw	a5,32(a5)
    30be:	fed799e3          	bne	a5,a3,30b0 <riscv_depthwise_conv_wrapper_s16_get_buffer_size+0xc>
    30c2:	461c                	c.lw	a5,8(a2)
    30c4:	4258                	c.lw	a4,4(a2)
    30c6:	1ff00693          	li	a3,511
    30ca:	02e78633          	mul	a2,a5,a4
    30ce:	fec6c1e3          	blt	a3,a2,30b0 <riscv_depthwise_conv_wrapper_s16_get_buffer_size+0xc>
    30d2:	45d4                	c.lw	a3,12(a1)
    30d4:	02d787b3          	mul	a5,a5,a3
    30d8:	02e787b3          	mul	a5,a5,a4
    30dc:	00179513          	slli	a0,a5,0x1
    30e0:	8082                	c.jr	ra
	...

000030e4 <riscv_convolve_s16>:
    30e4:	4108                	c.lw	a0,0(a0)
    30e6:	7111                	c.addi16sp	sp,-256
    30e8:	dda2                	c.swsp	s0,248(sp)
    30ea:	d0aa                	c.swsp	a0,96(sp)
    30ec:	842a                	c.mv	s0,a0
    30ee:	df86                	c.swsp	ra,252(sp)
    30f0:	dba6                	c.swsp	s1,244(sp)
    30f2:	d9ca                	c.swsp	s2,240(sp)
    30f4:	d7ce                	c.swsp	s3,236(sp)
    30f6:	d5d2                	c.swsp	s4,232(sp)
    30f8:	d3d6                	c.swsp	s5,228(sp)
    30fa:	d1da                	c.swsp	s6,224(sp)
    30fc:	cfde                	c.swsp	s7,220(sp)
    30fe:	cde2                	c.swsp	s8,216(sp)
    3100:	cbe6                	c.swsp	s9,212(sp)
    3102:	c9ea                	c.swsp	s10,208(sp)
    3104:	c7ee                	c.swsp	s11,204(sp)
    3106:	10412503          	lw	a0,260(sp)
    310a:	48040563          	beqz	s0,3594 <riscv_convolve_s16+0x4b0>
    310e:	43c4                	c.lw	s1,4(a5)
    3110:	46c0                	c.lw	s0,12(a3)
    3112:	0087ac03          	lw	s8,8(a5)
    3116:	029407b3          	mul	a5,s0,s1
    311a:	ce26                	c.swsp	s1,28(sp)
    311c:	4684                	c.lw	s1,8(a3)
    311e:	038787b3          	mul	a5,a5,s8
    3122:	0006ad83          	lw	s11,0(a3)
    3126:	0185ac83          	lw	s9,24(a1)
    312a:	d6be                	c.swsp	a5,108(sp)
    312c:	42dc                	c.lw	a5,4(a3)
    312e:	0145ad03          	lw	s10,20(a1)
    3132:	dc3e                	c.swsp	a5,56(sp)
    3134:	451c                	c.lw	a5,8(a0)
    3136:	d626                	c.swsp	s1,44(sp)
    3138:	c6be                	c.swsp	a5,76(sp)
    313a:	415c                	c.lw	a5,4(a0)
    313c:	d4be                	c.swsp	a5,104(sp)
    313e:	455c                	c.lw	a5,12(a0)
    3140:	d2be                	c.swsp	a5,100(sp)
    3142:	4ddc                	c.lw	a5,28(a1)
    3144:	d03e                	c.swsp	a5,32(sp)
    3146:	499c                	c.lw	a5,16(a1)
    3148:	c53e                	c.swsp	a5,136(sp)
    314a:	459c                	c.lw	a5,8(a1)
    314c:	c8be                	c.swsp	a5,80(sp)
    314e:	45dc                	c.lw	a5,12(a1)
    3150:	c73e                	c.swsp	a5,140(sp)
    3152:	519c                	c.lw	a5,32(a1)
    3154:	d8be                	c.swsp	a5,112(sp)
    3156:	51dc                	c.lw	a5,36(a1)
    3158:	dabe                	c.swsp	a5,116(sp)
    315a:	421c                	c.lw	a5,0(a2)
    315c:	dcbe                	c.swsp	a5,120(sp)
    315e:	425c                	c.lw	a5,4(a2)
    3160:	debe                	c.swsp	a5,124(sp)
    3162:	19b05363          	blez	s11,32e8 <riscv_convolve_s16+0x204>
    3166:	4636                	c.lwsp	a2,76(sp)
    3168:	853a                	c.mv	a0,a4
    316a:	5726                	c.lwsp	a4,104(sp)
    316c:	46ba                	c.lwsp	a3,140(sp)
    316e:	02c70733          	mul	a4,a4,a2
    3172:	5602                	c.lwsp	a2,32(sp)
    3174:	029407b3          	mul	a5,s0,s1
    3178:	02d486b3          	mul	a3,s1,a3
    317c:	02960633          	mul	a2,a2,s1
    3180:	03a485b3          	mul	a1,s1,s10
    3184:	54e2                	c.lwsp	s1,56(sp)
    3186:	c342                	c.swsp	a6,132(sp)
    3188:	02978833          	mul	a6,a5,s1
    318c:	87ba                	c.mv	a5,a4
    318e:	5716                	c.lwsp	a4,100(sp)
    3190:	028686b3          	mul	a3,a3,s0
    3194:	02e788b3          	mul	a7,a5,a4
    3198:	47c6                	c.lwsp	a5,80(sp)
    319a:	472a                	c.lwsp	a4,136(sp)
    319c:	02f40333          	mul	t1,s0,a5
    31a0:	40b007b3          	neg	a5,a1
    31a4:	8f99                	c.sub	a5,a4
    31a6:	02860633          	mul	a2,a2,s0
    31aa:	03940e33          	mul	t3,s0,s9
    31ae:	872a                	c.mv	a4,a0
    31b0:	0406                	c.slli	s0,0x1
    31b2:	c487977f          	maddr32	a4,a5,s0
    31b6:	028c07b3          	mul	a5,s8,s0
    31ba:	001e1b93          	slli	s7,t3,0x1
    31be:	8f6e                	c.mv	t5,s11
    31c0:	d43e                	c.swsp	a5,40(sp)
    31c2:	00181793          	slli	a5,a6,0x1
    31c6:	cf3e                	c.swsp	a5,156(sp)
    31c8:	00189793          	slli	a5,a7,0x1
    31cc:	d53e                	c.swsp	a5,168(sp)
    31ce:	00169793          	slli	a5,a3,0x1
    31d2:	d73e                	c.swsp	a5,172(sp)
    31d4:	00131793          	slli	a5,t1,0x1
    31d8:	cabe                	c.swsp	a5,84(sp)
    31da:	00161793          	slli	a5,a2,0x1
    31de:	d23e                	c.swsp	a5,36(sp)
    31e0:	8fea                	c.mv	t6,s10
    31e2:	4781                	c.li	a5,0
    31e4:	56a6                	c.lwsp	a3,104(sp)
    31e6:	0ed05563          	blez	a3,32d0 <riscv_convolve_s16+0x1ec>
    31ea:	10812503          	lw	a0,264(sp)
    31ee:	5d06                	c.lwsp	s10,96(sp)
    31f0:	41f00db3          	neg	s11,t6
    31f4:	4681                	c.li	a3,0
    31f6:	c13a                	c.swsp	a4,128(sp)
    31f8:	cd02                	c.swsp	zero,152(sp)
    31fa:	ccaa                	c.swsp	a0,88(sp)
    31fc:	d97a                	c.swsp	t5,176(sp)
    31fe:	db7e                	c.swsp	t6,180(sp)
    3200:	dd3e                	c.swsp	a5,184(sp)
    3202:	df3a                	c.swsp	a4,188(sp)
    3204:	47aa                	c.lwsp	a5,136(sp)
    3206:	430a                	c.lwsp	t1,128(sp)
    3208:	40f007b3          	neg	a5,a5
    320c:	d83e                	c.swsp	a5,48(sp)
    320e:	47b6                	c.lwsp	a5,76(sp)
    3210:	00000e13          	li	t3,0
    3214:	08f05a63          	blez	a5,32a8 <riscv_convolve_s16+0x1c4>
    3218:	47f2                	c.lwsp	a5,28(sp)
    321a:	8a6e                	c.mv	s4,s11
    321c:	8b1a                	c.mv	s6,t1
    321e:	4a81                	c.li	s5,0
    3220:	06f05663          	blez	a5,328c <riscv_convolve_s16+0x1a8>
    3224:	c4ee                	c.swsp	s11,72(sp)
    3226:	8dea                	c.mv	s11,s10
    3228:	8d56                	c.mv	s10,s5
    322a:	8ad2                	c.mv	s5,s4
    322c:	de1a                	c.swsp	t1,60(sp)
    322e:	c0b6                	c.swsp	a3,64(sp)
    3230:	05c12223          	sw	t3,68(sp)
    3234:	03805e63          	blez	s8,3270 <riscv_convolve_s16+0x18c>
    3238:	0c0ac863          	bltz	s5,3308 <riscv_convolve_s16+0x224>
    323c:	57e2                	c.lwsp	a5,56(sp)
    323e:	0afad763          	bge	s5,a5,32ec <riscv_convolve_s16+0x208>
    3242:	5942                	c.lwsp	s2,48(sp)
    3244:	89da                	c.mv	s3,s6
    3246:	8a6e                	c.mv	s4,s11
    3248:	00000493          	li	s1,0
    324c:	8552                	c.mv	a0,s4
    324e:	8622                	c.mv	a2,s0
    3250:	4581                	c.li	a1,0
    3252:	00094563          	bltz	s2,325c <riscv_convolve_s16+0x178>
    3256:	57b2                	c.lwsp	a5,44(sp)
    3258:	0cf94663          	blt	s2,a5,3324 <riscv_convolve_s16+0x240>
    325c:	003060ef          	jal	ra,9a5e <memset>
    3260:	0485                	c.addi	s1,1
    3262:	9a22                	c.add	s4,s0
    3264:	9966                	c.add	s2,s9
    3266:	99de                	c.add	s3,s7
    3268:	fe9c12e3          	bne	s8,s1,324c <riscv_convolve_s16+0x168>
    326c:	57a2                	c.lwsp	a5,40(sp)
    326e:	9dbe                	c.add	s11,a5
    3270:	5792                	c.lwsp	a5,36(sp)
    3272:	0d05                	c.addi	s10,1
    3274:	9b3e                	c.add	s6,a5
    3276:	5782                	c.lwsp	a5,32(sp)
    3278:	9abe                	c.add	s5,a5
    327a:	47f2                	c.lwsp	a5,28(sp)
    327c:	fba79ce3          	bne	a5,s10,3234 <riscv_convolve_s16+0x150>
    3280:	8d6e                	c.mv	s10,s11
    3282:	5372                	c.lwsp	t1,60(sp)
    3284:	4686                	c.lwsp	a3,64(sp)
    3286:	4e16                	c.lwsp	t3,68(sp)
    3288:	04812d83          	lw	s11,72(sp)
    328c:	0685                	c.addi	a3,1
    328e:	4789                	c.li	a5,2
    3290:	0af68063          	beq	a3,a5,3330 <riscv_convolve_s16+0x24c>
    3294:	47d6                	c.lwsp	a5,84(sp)
    3296:	4746                	c.lwsp	a4,80(sp)
    3298:	933e                	c.add	t1,a5
    329a:	57c2                	c.lwsp	a5,48(sp)
    329c:	0e05                	c.addi	t3,1
    329e:	97ba                	c.add	a5,a4
    32a0:	d83e                	c.swsp	a5,48(sp)
    32a2:	47b6                	c.lwsp	a5,76(sp)
    32a4:	f7c79ae3          	bne	a5,t3,3218 <riscv_convolve_s16+0x134>
    32a8:	47e6                	c.lwsp	a5,88(sp)
    32aa:	c7e9                	c.beqz	a5,3374 <riscv_convolve_s16+0x290>
    32ac:	470a                	c.lwsp	a4,128(sp)
    32ae:	563a                	c.lwsp	a2,172(sp)
    32b0:	47ea                	c.lwsp	a5,152(sp)
    32b2:	9732                	c.add	a4,a2
    32b4:	c13a                	c.swsp	a4,128(sp)
    32b6:	473a                	c.lwsp	a4,140(sp)
    32b8:	0785                	c.addi	a5,1
    32ba:	9dba                	c.add	s11,a4
    32bc:	5726                	c.lwsp	a4,104(sp)
    32be:	cd3e                	c.swsp	a5,152(sp)
    32c0:	f4f712e3          	bne	a4,a5,3204 <riscv_convolve_s16+0x120>
    32c4:	4566                	c.lwsp	a0,88(sp)
    32c6:	5f4a                	c.lwsp	t5,176(sp)
    32c8:	5fda                	c.lwsp	t6,180(sp)
    32ca:	57ea                	c.lwsp	a5,184(sp)
    32cc:	577a                	c.lwsp	a4,188(sp)
    32ce:	e6e9                	c.bnez	a3,3398 <riscv_convolve_s16+0x2b4>
    32d0:	10812683          	lw	a3,264(sp)
    32d4:	562a                	c.lwsp	a2,168(sp)
    32d6:	0785                	c.addi	a5,1
    32d8:	96b2                	c.add	a3,a2
    32da:	10d12423          	sw	a3,264(sp)
    32de:	46fa                	c.lwsp	a3,156(sp)
    32e0:	00d70733          	add	a4,a4,a3
    32e4:	f0ff10e3          	bne	t5,a5,31e4 <riscv_convolve_s16+0x100>
    32e8:	4501                	c.li	a0,0
    32ea:	a079                	c.j	3378 <riscv_convolve_s16+0x294>
    32ec:	8a6e                	c.mv	s4,s11
    32ee:	4481                	c.li	s1,0
    32f0:	8552                	c.mv	a0,s4
    32f2:	0485                	c.addi	s1,1
    32f4:	8622                	c.mv	a2,s0
    32f6:	4581                	c.li	a1,0
    32f8:	008a0a33          	add	s4,s4,s0
    32fc:	762060ef          	jal	ra,9a5e <memset>
    3300:	fe9c18e3          	bne	s8,s1,32f0 <riscv_convolve_s16+0x20c>
    3304:	f69ff06f          	j	326c <riscv_convolve_s16+0x188>
    3308:	84ee                	c.mv	s1,s11
    330a:	4a01                	c.li	s4,0
    330c:	8526                	c.mv	a0,s1
    330e:	0a05                	c.addi	s4,1
    3310:	8622                	c.mv	a2,s0
    3312:	4581                	c.li	a1,0
    3314:	008484b3          	add	s1,s1,s0
    3318:	746060ef          	jal	ra,9a5e <memset>
    331c:	ff4c18e3          	bne	s8,s4,330c <riscv_convolve_s16+0x228>
    3320:	f4dff06f          	j	326c <riscv_convolve_s16+0x188>
    3324:	013005b3          	add	a1,zero,s3
    3328:	63c060ef          	jal	ra,9964 <memcpy>
    332c:	f35ff06f          	j	3260 <riscv_convolve_s16+0x17c>
    3330:	44e6                	c.lwsp	s1,88(sp)
    3332:	57c6                	c.lwsp	a5,112(sp)
    3334:	c226                	c.swsp	s1,4(sp)
    3336:	10012483          	lw	s1,256(sp)
    333a:	5766                	c.lwsp	a4,120(sp)
    333c:	c026                	c.swsp	s1,0(sp)
    333e:	44d6                	c.lwsp	s1,84(sp)
    3340:	56f6                	c.lwsp	a3,124(sp)
    3342:	58b6                	c.lwsp	a7,108(sp)
    3344:	5856                	c.lwsp	a6,116(sp)
    3346:	5616                	c.lwsp	a2,100(sp)
    3348:	5586                	c.lwsp	a1,96(sp)
    334a:	451a                	c.lwsp	a0,132(sp)
    334c:	0e05                	c.addi	t3,1
    334e:	9326                	c.add	t1,s1
    3350:	c0f2                	c.swsp	t3,64(sp)
    3352:	de1a                	c.swsp	t1,60(sp)
    3354:	274010ef          	jal	ra,45c8 <riscv_nn_mat_mult_kernel_s16>
    3358:	57c2                	c.lwsp	a5,48(sp)
    335a:	4746                	c.lwsp	a4,80(sp)
    335c:	4e06                	c.lwsp	t3,64(sp)
    335e:	97ba                	c.add	a5,a4
    3360:	d83e                	c.swsp	a5,48(sp)
    3362:	47b6                	c.lwsp	a5,76(sp)
    3364:	ccaa                	c.swsp	a0,88(sp)
    3366:	5372                	c.lwsp	t1,60(sp)
    3368:	5d06                	c.lwsp	s10,96(sp)
    336a:	4681                	c.li	a3,0
    336c:	ebc796e3          	bne	a5,t3,3218 <riscv_convolve_s16+0x134>
    3370:	47e6                	c.lwsp	a5,88(sp)
    3372:	ff8d                	c.bnez	a5,32ac <riscv_convolve_s16+0x1c8>
    3374:	ffe00513          	li	a0,-2
    3378:	50fe                	c.lwsp	ra,252(sp)
    337a:	546e                	c.lwsp	s0,248(sp)
    337c:	54de                	c.lwsp	s1,244(sp)
    337e:	594e                	c.lwsp	s2,240(sp)
    3380:	59be                	c.lwsp	s3,236(sp)
    3382:	5a2e                	c.lwsp	s4,232(sp)
    3384:	5a9e                	c.lwsp	s5,228(sp)
    3386:	5b0e                	c.lwsp	s6,224(sp)
    3388:	4bfe                	c.lwsp	s7,220(sp)
    338a:	4c6e                	c.lwsp	s8,216(sp)
    338c:	4cde                	c.lwsp	s9,212(sp)
    338e:	4d4e                	c.lwsp	s10,208(sp)
    3390:	4dbe                	c.lwsp	s11,204(sp)
    3392:	6111                	c.addi16sp	sp,256
    3394:	00008067          	ret
    3398:	10012683          	lw	a3,256(sp)
    339c:	0006a283          	lw	t0,0(a3)
    33a0:	0046c683          	lbu	a3,4(a3)
    33a4:	c0b6                	c.swsp	a3,64(sp)
    33a6:	5696                	c.lwsp	a3,100(sp)
    33a8:	f2d054e3          	blez	a3,32d0 <riscv_convolve_s16+0x1ec>
    33ac:	55b6                	c.lwsp	a1,108(sp)
    33ae:	5b06                	c.lwsp	s6,96(sp)
    33b0:	4025dd13          	srai	s10,a1,0x2
    33b4:	0686                	c.slli	a3,0x1
    33b6:	96aa                	c.add	a3,a0
    33b8:	003d1613          	slli	a2,s10,0x3
    33bc:	0035f313          	andi	t1,a1,3
    33c0:	de36                	c.swsp	a3,60(sp)
    33c2:	58f6                	c.lwsp	a7,124(sp)
    33c4:	00cb06b3          	add	a3,s6,a2
    33c8:	5866                	c.lwsp	a6,120(sp)
    33ca:	459a                	c.lwsp	a1,132(sp)
    33cc:	590a                	c.lwsp	s2,160(sp)
    33ce:	599a                	c.lwsp	s3,164(sp)
    33d0:	c4b6                	c.swsp	a3,72(sp)
    33d2:	8e16                	c.mv	t3,t0
    33d4:	002d1693          	slli	a3,s10,0x2
    33d8:	8396                	c.mv	t2,t0
    33da:	4d85                	c.li	s11,1
    33dc:	04d12223          	sw	a3,68(sp)
    33e0:	1a0d0663          	beqz	s10,358c <riscv_convolve_s16+0x4a8>
    33e4:	8eda                	c.mv	t4,s6
    33e6:	cece                	c.swsp	s3,92(sp)
    33e8:	8aea                	c.mv	s5,s10
    33ea:	89da                	c.mv	s3,s6
    33ec:	8a2e                	c.mv	s4,a1
    33ee:	8b3a                	c.mv	s6,a4
    33f0:	4681                	c.li	a3,0
    33f2:	873e                	c.mv	a4,a5
    33f4:	87de                	c.mv	a5,s7
    33f6:	d822                	c.swsp	s0,48(sp)
    33f8:	05212c23          	sw	s2,88(sp)
    33fc:	000a2603          	lw	a2,0(s4)
    3400:	c932                	c.swsp	a2,144(sp)
    3402:	cb32                	c.swsp	a2,148(sp)
    3404:	444a                	c.lwsp	s0,144(sp)
    3406:	44da                	c.lwsp	s1,148(sp)
    3408:	0a11                	c.addi	s4,4
    340a:	de8404ff          	wexti	s1,s0,8
    340e:	ac9484ff          	sunpkd820	s1,s1
    3412:	ac96067f          	sunpkd820	a2,a2
    3416:	2ec49bff          	pktt16	s7,s1,a2
    341a:	0ec4967f          	pkbb16	a2,s1,a2
    341e:	000ea483          	lw	s1,0(t4)
    3422:	489616ff          	kmada	a3,a2,s1
    3426:	004e8613          	addi	a2,t4,4
    342a:	4210                	c.lw	a2,0(a2)
    342c:	0ea1                	c.addi	t4,8
    342e:	48cb96ff          	kmada	a3,s7,a2
    3432:	1afd                	c.addi	s5,-1
    3434:	fc0a94e3          	bnez	s5,33fc <riscv_convolve_s16+0x318>
    3438:	4616                	c.lwsp	a2,68(sp)
    343a:	8bbe                	c.mv	s7,a5
    343c:	95b2                	c.add	a1,a2
    343e:	87ba                	c.mv	a5,a4
    3440:	5442                	c.lwsp	s0,48(sp)
    3442:	875a                	c.mv	a4,s6
    3444:	4966                	c.lwsp	s2,88(sp)
    3446:	8b4e                	c.mv	s6,s3
    3448:	4626                	c.lwsp	a2,72(sp)
    344a:	49f6                	c.lwsp	s3,92(sp)
    344c:	02030c63          	beqz	t1,3484 <riscv_convolve_s16+0x3a0>
    3450:	00061483          	lh	s1,0(a2)
    3454:	00058e83          	lb	t4,0(a1)
    3458:	c5d496ff          	maddr32	a3,s1,t4
    345c:	03b30263          	beq	t1,s11,3480 <riscv_convolve_s16+0x39c>
    3460:	00261483          	lh	s1,2(a2)
    3464:	00158e83          	lb	t4,1(a1)
    3468:	c5d496ff          	maddr32	a3,s1,t4
    346c:	00200493          	li	s1,2
    3470:	00930863          	beq	t1,s1,3480 <riscv_convolve_s16+0x39c>
    3474:	00258e83          	lb	t4,2(a1)
    3478:	00461603          	lh	a2,4(a2)
    347c:	c4ce96ff          	maddr32	a3,t4,a2
    3480:	006585b3          	add	a1,a1,t1
    3484:	4606                	c.lwsp	a2,64(sp)
    3486:	ce3d                	c.beqz	a2,3504 <riscv_convolve_s16+0x420>
    3488:	00028663          	beqz	t0,3494 <riscv_convolve_s16+0x3b0>
    348c:	000e2603          	lw	a2,0(t3)
    3490:	00c686b3          	add	a3,a3,a2
    3494:	0008ae83          	lw	t4,0(a7)
    3498:	00082483          	lw	s1,0(a6)
    349c:	4a81                	c.li	s5,0
    349e:	f35e8a7f          	maxw	s4,t4,s5
    34a2:	01469a33          	sll	s4,a3,s4
    34a6:	40000637          	lui	a2,0x40000
    34aa:	4681                	c.li	a3,0
    34ac:	849a167f          	smar64	a2,s4,s1
    34b0:	41d00eb3          	neg	t4,t4
    34b4:	f35e8eff          	maxw	t4,t4,s5
    34b8:	01dd94b3          	sll	s1,s11,t4
    34bc:	dff6067f          	wexti	a2,a2,31
    34c0:	fff48693          	addi	a3,s1,-1
    34c4:	4016d493          	srai	s1,a3,0x1
    34c8:	00062a13          	slti	s4,a2,0
    34cc:	8ef1                	c.and	a3,a2
    34ce:	94d2                	c.add	s1,s4
    34d0:	41d65633          	sra	a2,a2,t4
    34d4:	00d4a6b3          	slt	a3,s1,a3
    34d8:	00d60633          	add	a2,a2,a3
    34dc:	56c6                	c.lwsp	a3,112(sp)
    34de:	0509                	c.addi	a0,2
    34e0:	f2d6067f          	maxw	a2,a2,a3
    34e4:	56d6                	c.lwsp	a3,116(sp)
    34e6:	0891                	c.addi	a7,4
    34e8:	f0c686ff          	minw	a3,a3,a2
    34ec:	fed51f23          	sh	a3,-2(a0) # 7dffe <BIN_SIZE+0x67aac>
    34f0:	56f2                	c.lwsp	a3,60(sp)
    34f2:	0811                	c.addi	a6,4
    34f4:	0e11                	c.addi	t3,4
    34f6:	03a1                	c.addi	t2,8
    34f8:	eea694e3          	bne	a3,a0,33e0 <riscv_convolve_s16+0x2fc>
    34fc:	d14a                	c.swsp	s2,160(sp)
    34fe:	d34e                	c.swsp	s3,164(sp)
    3500:	dd1ff06f          	j	32d0 <riscv_convolve_s16+0x1ec>
    3504:	00d00933          	add	s2,zero,a3
    3508:	41f6d993          	srai	s3,a3,0x1f
    350c:	00028863          	beqz	t0,351c <riscv_convolve_s16+0x438>
    3510:	0003a603          	lw	a2,0(t2)
    3514:	0043a683          	lw	a3,4(t2)
    3518:	c0c9197f          	add64	s2,s2,a2
    351c:	00082e83          	lw	t4,0(a6)
    3520:	7fff06b7          	lui	a3,0x7fff0
    3524:	04dede63          	bge	t4,a3,3580 <riscv_convolve_s16+0x49c>
    3528:	66a1                	c.lui	a3,0x8
    352a:	9eb6                	c.add	t4,a3
    352c:	410eda13          	srai	s4,t4,0x10
    3530:	41fede93          	srai	t4,t4,0x1f
    3534:	032e8eb3          	mul	t4,t4,s2
    3538:	f149167f          	mulr64	a2,s2,s4
    353c:	0008a483          	lw	s1,0(a7)
    3540:	da36                	c.swsp	a3,52(sp)
    3542:	46b9                	c.li	a3,14
    3544:	c53a1eff          	maddr32	t4,s4,s3
    3548:	409684b3          	sub	s1,a3,s1
    354c:	56d2                	c.lwsp	a3,52(sp)
    354e:	fe048a13          	addi	s4,s1,-32
    3552:	96f6                	c.add	a3,t4
    3554:	d832                	c.swsp	a2,48(sp)
    3556:	da36                	c.swsp	a3,52(sp)
    3558:	4146d633          	sra	a2,a3,s4
    355c:	000a5e63          	bgez	s4,3578 <riscv_convolve_s16+0x494>
    3560:	5ad2                	c.lwsp	s5,52(sp)
    3562:	467d                	c.li	a2,31
    3564:	5a42                	c.lwsp	s4,48(sp)
    3566:	40960eb3          	sub	t4,a2,s1
    356a:	001a9693          	slli	a3,s5,0x1
    356e:	01d696b3          	sll	a3,a3,t4
    3572:	009a5633          	srl	a2,s4,s1
    3576:	8e55                	c.or	a2,a3
    3578:	0605                	c.addi	a2,1
    357a:	8605                	c.srai	a2,0x1
    357c:	f61ff06f          	j	34dc <riscv_convolve_s16+0x3f8>
    3580:	66a1                	c.lui	a3,0x8
    3582:	fff68a13          	addi	s4,a3,-1 # 7fff <riscv_depthwise_conv_3x3_s8+0x7f7>
    3586:	4e81                	c.li	t4,0
    3588:	fadff06f          	j	3534 <riscv_convolve_s16+0x450>
    358c:	865a                	c.mv	a2,s6
    358e:	4681                	c.li	a3,0
