
Debug_Demo.elf:     file format elf32-littleriscv
Debug_Demo.elf
architecture: riscv:rv32, flags 0x00000112:
EXEC_P, HAS_SYMS, D_PAGED
start address 0x20000000

Program Header:
    LOAD off    0x00001000 vaddr 0x20000000 paddr 0x20000000 align 2**12
         filesz 0x0000018a memsz 0x0000018a flags r-x
    LOAD off    0x00002000 vaddr 0x00000000 paddr 0x20000190 align 2**12
         filesz 0x000001bc memsz 0x000001bc flags rwx
    LOAD off    0x00002200 vaddr 0x00000200 paddr 0x20000350 align 2**12
         filesz 0x00000f02 memsz 0x00000f02 flags r-x
    LOAD off    0x00003258 vaddr 0x20001258 paddr 0x20001258 align 2**12
         filesz 0x00001600 memsz 0x00001600 flags r-x
    LOAD off    0x00005000 vaddr 0x00080000 paddr 0x20002858 align 2**12
         filesz 0x0000000a memsz 0x0000000a flags rw-
    LOAD off    0x00005038 vaddr 0x00080038 paddr 0x20002862 align 2**12
         filesz 0x00000022 memsz 0x00000022 flags rw-
    LOAD off    0x00006010 vaddr 0x00080010 paddr 0x20002868 align 2**12
         filesz 0x00000000 memsz 0x00000028 flags rw-
0x70000000 off    0x0000fe9c vaddr 0x00000000 paddr 0x00000000 align 2**0
         filesz 0x0000003b memsz 0x00000000 flags r--

Sections:
Idx Name              Size      VMA       LMA       File off  Algn  Flags
  0 .vectors          0000018a  20000000  20000000  00001000  2**2  CONTENTS, ALLOC, LOAD, READONLY, CODE
  1 .retention_reset  00000154  00000000  20000190  00002000  2**2  CONTENTS, ALLOC, LOAD, READONLY, CODE
  2 .retention_data   00000064  00000158  200002e8  00002158  2**2  CONTENTS, ALLOC, LOAD, DATA
  3 .ram_code         00000f02  00000200  20000350  00002200  2**8  CONTENTS, ALLOC, LOAD, READONLY, CODE
  4 .text             0000145c  20001258  20001258  00003258  2**2  CONTENTS, ALLOC, LOAD, READONLY, CODE
  5 .rodata           000000a0  200026b4  200026b4  000046b4  2**2  CONTENTS, ALLOC, LOAD, READONLY, DATA
  6 .eh_frame         000000f8  20002760  20002760  00004760  2**2  CONTENTS, ALLOC, LOAD, READONLY, DATA
  7 .data             0000000a  00080000  20002858  00005000  2**2  CONTENTS, ALLOC, LOAD, DATA
  8 .sbss             00000028  00080010  20002868  00006010  2**2  ALLOC
  9 .bss              00000000  00080038  20002862  00000000  2**0  ALLOC
 10 .sdk_version      00000022  00080038  20002862  00005038  2**2  CONTENTS, ALLOC, LOAD, DATA
 11 .debug_info       000041a0  00000000  00000000  0000505a  2**0  CONTENTS, READONLY, DEBUGGING
 12 .debug_abbrev     000009ec  00000000  00000000  000091fa  2**0  CONTENTS, READONLY, DEBUGGING
 13 .debug_loc        00000e97  00000000  00000000  00009be6  2**0  CONTENTS, READONLY, DEBUGGING
 14 .debug_aranges    00000190  00000000  00000000  0000aa80  2**3  CONTENTS, READONLY, DEBUGGING
 15 .debug_ranges     00000648  00000000  00000000  0000ac10  2**3  CONTENTS, READONLY, DEBUGGING
 16 .debug_line       000025fd  00000000  00000000  0000b258  2**0  CONTENTS, READONLY, DEBUGGING
 17 .debug_str        00002610  00000000  00000000  0000d855  2**0  CONTENTS, READONLY, DEBUGGING
 18 .comment          00000037  00000000  00000000  0000fe65  2**0  CONTENTS, READONLY
 19 .riscv.attributes 0000003b  00000000  00000000  0000fe9c  2**0  CONTENTS, READONLY
 20 .debug_frame      000003e8  00000000  00000000  0000fed8  2**2  CONTENTS, READONLY, DEBUGGING
SYMBOL TABLE:
20000000 l    d  .vectors	00000000 .vectors
00000000 l    d  .retention_reset	00000000 .retention_reset
00000158 l    d  .retention_data	00000000 .retention_data
00000200 l    d  .ram_code	00000000 .ram_code
20001258 l    d  .text	00000000 .text
200026b4 l    d  .rodata	00000000 .rodata
20002760 l    d  .eh_frame	00000000 .eh_frame
00080000 l    d  .data	00000000 .data
00080010 l    d  .sbss	00000000 .sbss
00080038 l    d  .bss	00000000 .bss
00080038 l    d  .sdk_version	00000000 .sdk_version
00000000 l    d  .debug_info	00000000 .debug_info
00000000 l    d  .debug_abbrev	00000000 .debug_abbrev
00000000 l    d  .debug_loc	00000000 .debug_loc
00000000 l    d  .debug_aranges	00000000 .debug_aranges
00000000 l    d  .debug_ranges	00000000 .debug_ranges
00000000 l    d  .debug_line	00000000 .debug_line
00000000 l    d  .debug_str	00000000 .debug_str
00000000 l    d  .comment	00000000 .comment
00000000 l    d  .riscv.attributes	00000000 .riscv.attributes
00000000 l    d  .debug_frame	00000000 .debug_frame
00000000 l    df *ABS*	00000000 ./boot/cstartup_flash.o
20000028 l       .vectors	00000000 _START
2000008e l       .vectors	00000000 _RETENTION_RESET_INIT
200000a6 l       .vectors	00000000 _RETENTION_RESET_BEGIN
200000b8 l       .vectors	00000000 _RETENTION_DATA_INIT
200000cc l       .vectors	00000000 _RETENTION_DATA_INIT_BEGIN
200000de l       .vectors	00000000 _RAMCODE_INIT
200000f6 l       .vectors	00000000 _RAMCODE_INIT_BEGIN
20000108 l       .vectors	00000000 _DATA_INIT
20000120 l       .vectors	00000000 _DATA_INIT_BEGIN
20000132 l       .vectors	00000000 _ZERO_BSS
20000146 l       .vectors	00000000 _ZERO_BSS_BEGIN
20000152 l       .vectors	00000000 _ZERO_AES
20000166 l       .vectors	00000000 _ZERO_AES_BEGIN
20000172 l       .vectors	00000000 _FILL_STK
20000172 l       .vectors	00000000 _MAIN_FUNC
20000188 l       .vectors	00000000 _END
00000022 l       .retention_reset	00000000 _ISTART
0000002a l       .retention_reset	00000000 _ISWS_USB_DIS
00000088 l       .retention_reset	00000000 _WAKEUP_FLASH
000000a2 l       .retention_reset	00000000 _MSPI_WAIT
000000bc l       .retention_reset	00000000 _WAIT_EFUSE_LOAD_AND_FLASH_WAKEUP_FINISH
000000c2 l       .retention_reset	00000000 _MULTI_ADDRESS_BEGIN
000000d2 l       .retention_reset	00000000 _IZERO_BSS
000000e6 l       .retention_reset	00000000 _IZERO_BSS_BEGIN
000000f2 l       .retention_reset	00000000 _IZERO_AES
00000106 l       .retention_reset	00000000 _IZERO_AES_BEGIN
00000112 l       .retention_reset	00000000 _IFILL_STK
00000112 l       .retention_reset	00000000 _IDATA_INIT
0000012a l       .retention_reset	00000000 _IDATA_INIT_BEGIN
0000013c l       .retention_reset	00000000 _IMAIN_FUNC
00000152 l       .retention_reset	00000000 _IEND
00000040 l       *ABS*	00000000 irqno
00000000 l    df *ABS*	00000000 
200013a4 l     F .text	000000fc user_calib_adc_vref.constprop.11
00000200 l     F .ram_code	00000020 delay_ms.constprop.2
00000220 l     F .ram_code	00000044 flash_send_addr
00000264 l     F .ram_code	00000048 flash_send_cmd
000002ac l     F .ram_code	00000060 clock_set_32k_tick
0000030c l     F .ram_code	0000004c analog_read_reg32.constprop.7
00000358 l     F .ram_code	00000024 clock_get_32k_tick
0000037c l     F .ram_code	00000094 pm_stimer_recover
00000410 l     F .ram_code	00000058 plic_exit_critical_sec
00000468 l     F .ram_code	00000060 plic_enter_critical_sec
000004c8 l     F .ram_code	00000180 flash_mspi_read_ram
20001258 l     F .text	0000002c flash_read_uid.constprop.9
20001284 l     F .text	0000002c flash_read_mid
200012b0 l     F .text	00000090 flash_read_mid_uid_with_check
20001340 l     F .text	0000002c flash_dread
00000648 l     F .ram_code	00000044 analog_write_reg8
0000068c l     F .ram_code	0000004c analog_read_reg8
200014a0 l     F .text	0000005c user_calib_freq_offset.constprop.10
000006d8 l     F .ram_code	00000140 clock_init_ram.constprop.1
2000136c l     F .text	0000001c clock_init.constprop.0
00000818 l     F .ram_code	000000b4 pm_wait_bbpll_done
000008cc l     F .ram_code	00000194 pm_sleep_start
20001500 l     F .text	00000018 gpio_input_dis
00000a60 l     F .ram_code	00000124 dr_putchar
00000b84 l     F .ram_code	0000030c pm_sleep_wakeup_ram.constprop.6
20001388 l     F .text	0000001a pm_sleep_wakeup.constprop.5
00000158 l     O .retention_data	00000004 flash_read_page
0000015c l     O .retention_data	00000001 g_pm_long_suspend
00000160 l     O .retention_data	00000004 g_pm_tick_cur
00000164 l     O .retention_data	00000029 pmcd
00000190 l     O .retention_data	00000004 g_pm_tick_32k_calib
00000194 l     O .retention_data	00000001 g_plic_preempt_en
00000198 l     O .retention_data	00000002 s_flash_preempt_config
0000019a l     O .retention_data	00000001 g_pm_suspend_power_cfg
0000019c l     O .retention_data	00000008 g_pm_early_wakeup_time_us
000001a4 l     O .retention_data	00000004 g_pm_tick_32k_cur
000001a8 l     O .retention_data	00000001 g_pm_tick_update_en
000001ac l     O .retention_data	00000004 g_pm_r_delay_cycle
000001b0 l     O .retention_data	00000008 g_pm_longsleep_early_wakeup_time_us
00080010 l     O .sbss	00000004 exception_mcause
00080014 l     O .sbss	00000004 exception_mdcause
00080018 l     O .sbss	00000004 exception_mepc
0008001c l     O .sbss	00000004 exception_mstatus
00080020 l     O .sbss	00000004 exception_mtval
00080024 l     O .sbss	00000004 g_chip_version
00080028 l     O .sbss	00000004 g_pm_status_info
00080000 l     O .data	00000001 init_flag.4915
00080004 l     O .data	00000006 sys_clk
00080038 l     O .sdk_version	00000022 sdk_version
00000000 l    df *ABS*	00000000 printf.c
00000000 l    df *ABS*	00000000 puts.c
00000000 l    df *ABS*	00000000 strlen.c
00000000 l    df *ABS*	00000000 vprintf.c
20001ac8 l     F .text	00000038 __vprintf_help
0008002c l     O .sbss	00000004 __vprintf_buf
00080030 l     O .sbss	00000004 __vprintf_buf_len
00000000 l    df *ABS*	00000000 printf_impl.c
00000000 l    df *ABS*	00000000 printf_impl_float.c
00000000 l    df *ABS*	00000000 strcpy.c
00000000 l    df *ABS*	00000000 strnlen.c
00000000 l    df *ABS*	00000000 libgcc2.c
00000000 l    df *ABS*	00000000 libgcc2.c
00000000 l    df *ABS*	00000000 printf_data.c
20001a14  w      .text	00000000 entry_irq55
20001a14  w      .text	00000000 entry_irq13
200024b4 g     F .text	0000007c strcpy
20001a14  w      .text	00000000 entry_irq15
20002624 g     F .text	0000002e .hidden __ashldi3
20001a14  w      .text	00000000 entry_irq27
20001a14  w      .text	00000000 entry_irq60
20001a14  w      .text	00000000 entry_irq1
20001a14  w      .text	00000000 entry_irq52
20001a14  w      .text	00000000 entry_irq50
20001a14  w      .text	00000000 entry_irq62
20001a1a g     F .text	0000001e printf
00080800 g       .data	00000000 __global_pointer$
2000265c g       .text	00000000 .hidden __riscv_save_8
20001a14  w      .text	00000000 entry_irq58
200026a8 g       .text	00000000 .hidden __riscv_restore_3
000001bc g       .retention_data	00000000 _RETENTION_DATA_VMA_END
20002694 g       .text	00000000 .hidden __riscv_restore_10
2000265c g       .text	00000000 .hidden __riscv_save_11
20001b4a g     F .text	0000004c __print_integral
00000000 g       .retention_reset	00000000 _RETENTION_RESET_VMA_START
20001a14  w      .text	00000000 entry_irq10
20001a14  w      .text	00000000 entry_irq21
00000158 g       .retention_data	00000000 _AES_VMA_START
20001a14  w      .text	00000000 entry_irq48
200026a8 g       .text	00000000 .hidden __riscv_restore_2
20001a14  w      .text	00000000 entry_irq8
20001a14  w      .text	00000000 entry_irq33
00080038 g       .sbss	00000000 _BSS_VMA_END
20000190 g       *ABS*	00000000 _RETENTION_RESET_LMA_START
20001b96 g     F .text	00000470 __printf_impl
20001a14  w      .text	00000000 entry_irq12
20001a38 g     F .text	00000030 puts
20001a14  w      .text	00000000 entry_irq14
20002654 g       .text	00000000 .hidden __riscv_save_12
20001a14  w      .text	00000000 entry_irq2
20001a14  w      .text	00000000 entry_irq51
20002694 g       .text	00000000 .hidden __riscv_restore_11
20001a14  w      .text	00000000 entry_irq28
20001a14  w      .text	00000000 entry_irq43
20002684 g       .text	00000000 .hidden __riscv_save_1
200026a8 g       .text	00000000 .hidden __riscv_restore_0
20001a14  w      .text	00000000 entry_irq20
2000266a g       .text	00000000 .hidden __riscv_save_7
00080010 g       .sbss	00000000 _BSS_VMA_START
20001a14  w      .text	00000000 entry_irq63
0008000a g       .data	00000000 _DATA_VMA_END
20001a14  w      .text	00000000 entry_irq46
20001a14  w      .text	00000000 entry_irq31
20001a14  w      .text	00000000 entry_irq16
00100000 g       *ABS*	00000000 FLASH_SIZE
2000269e g       .text	00000000 .hidden __riscv_restore_5
00080000 g       .data	00000000 _DATA_VMA_START
20001a14  w      .text	00000000 entry_irq53
20001a14  w      .text	00000000 entry_irq11
00000154 g       .retention_reset	00000000 _RETENTION_RESET_VMA_END
20002532 g     F .text	00000018 strnlen
2000269e g       .text	00000000 .hidden __riscv_restore_6
20001a14  w      .text	00000000 entry_irq5
20001a14  w      .text	00000000 entry_irq23
20001a16  w      .text	00000000 trap_handler
20001a14  w      .text	00000000 entry_irq34
200025f4 g     F .text	0000002e .hidden __lshrdi3
20001a14  w      .text	00000000 entry_irq36
2000265c g       .text	00000000 .hidden __riscv_save_9
20001a14  w      .text	00000000 entry_irq44
20001b00 g     F .text	0000004a vprintf
20001a14  w      .text	00000000 entry_irq45
20001a14  w      .text	00000000 entry_irq26
2000266a g       .text	00000000 .hidden __riscv_save_4
20001a14  w      .text	00000000 entry_irq41
20001a14  w      .text	00000000 entry_irq61
20000000 g       .vectors	00000000 BIN_BEGIN
20002684 g       .text	00000000 .hidden __riscv_save_3
20001a14  w      .text	00000000 entry_irq38
00001000 g       .ram_code	00000000 __vectors
00002884 g       *ABS*	00000000 BIN_SIZE
2000273c g     O .rodata	00000010 __digits
20000350 g       *ABS*	00000000 _RAMCODE_LMA_START
00080034 g     O .sbss	00000004 __printf_count
20001a14  w      .text	00000000 entry_irq59
20001a14  w      .text	00000000 entry_irq6
2000265c g       .text	00000000 .hidden __riscv_save_10
20002858 g       *ABS*	00000000 _DATA_LMA_START
20002024 g     F .text	00000090 __print_integral_poly
20000000 g       *ABS*	00000000 NDS_SAG_LMA_FLASH
2000269e g       .text	00000000 .hidden __riscv_restore_4
20002694 g       .text	00000000 .hidden __riscv_restore_8
2000266a g       .text	00000000 .hidden __riscv_save_6
20000000  w      .vectors	00000000 _RELAX_END_
2000254a g     F .text	000000aa memset
200020b4 g     F .text	000003fe __printf_float_impl
20002694 g       .text	00000000 .hidden __riscv_restore_9
2000269e g       .text	00000000 .hidden __riscv_restore_7
2000151c g     F .text	000004aa main
20001a14 g       .text	00000000 default_irq_entry
20001a14  w      .text	00000000 entry_irq3
00000e90 g     F .ram_code	00000100 trap_entry
00000158 g       .retention_data	00000000 _AES_VMA_END
20001a14  w      .text	00000000 entry_irq39
20001a14  w      .text	00000000 entry_irq49
20001a14  w      .text	00000000 entry_irq57
20001a14  w      .text	00000000 entry_irq47
200002e8 g       *ABS*	00000000 _RETENTION_DATA_LMA_START
20000000 g     F .vectors	00000000 _RESET_ENTRY
00000158 g       .retention_data	00000000 _RETENTION_DATA_VMA_START
20001a14  w      .text	00000000 entry_irq4
000a0000 g       *ABS*	00000000 _STACK_TOP
20001a14  w      .text	00000000 entry_irq22
20001a14  w      .text	00000000 entry_irq30
20001a14  w      .text	00000000 entry_irq42
20001a14  w      .text	00000000 entry_irq24
20002684 g       .text	00000000 .hidden __riscv_save_2
00001102 g       .ram_code	00000000 _RAMCODE_VMA_END
00000000  w      *ABS*	00000000 _ITB_BASE_
2000266a g       .text	00000000 .hidden __riscv_save_5
20001a14  w      .text	00000000 entry_irq19
200019c8 g     F .text	0000004c _write
00080060 g       .sdk_version	00000000 _end
20001a14  w      .text	00000000 entry_irq17
20001a14  w      .text	00000000 entry_irq9
20001a14  w      .text	00000000 entry_irq56
20001a14  w      .text	00000000 entry_irq35
20001a14  w      .text	00000000 entry_irq37
000001b8 g     O .retention_data	00000004 g_pm_mspi_cfg
20001a14  w      .text	00000000 entry_irq54
20001a14  w      .text	00000000 entry_irq40
20002690 g       .text	00000000 .hidden __riscv_restore_12
00000200 g       .ram_code	00000000 _RAMCODE_VMA_START
20002684 g       .text	00000000 .hidden __riscv_save_0
20001a68 g     F .text	0000005e strlen
20001a14  w      .text	00000000 entry_irq29
200026a8 g       .text	00000000 .hidden __riscv_restore_1
20001a14  w      .text	00000000 entry_irq7
20001a14  w      .text	00000000 entry_irq32
00000000 g     F .retention_reset	00000000 _IRESET_ENTRY
20001a14  w      .text	00000000 entry_irq18
20002006 g     F .text	0000001e __int_to_poly
20001a14  w      .text	00000000 entry_irq25



Disassembly of section .vectors:

20000000 <_RESET_ENTRY>:
BIN_BEGIN():
/cygdrive/c/Users/SwaminathanK/Downloads/telink_b91m_driver_sdk/project/tlsr_riscv/B91/Debug_Demo/../../../../chip/B91/boot/cstartup_flash.S:59
    .global _RESET_ENTRY
 	.type _RESET_ENTRY,@function

    .align 2
_RESET_ENTRY:
	j 		 _START
20000000:	a025                	c.j	20000028 <_START>
	...
20000016:	0000                	unimp
20000018:	2884                	c.fld	fs1,16(s1)
2000001a:	0000                	unimp
2000001c:	0000                	unimp
2000001e:	0000                	unimp
20000020:	544c4e4b          	fnmsub.h	ft8,fs8,ft4,fa0,rmm
20000024:	0000                	unimp
20000026:	          	sllw	a4,zero,zero

20000028 <_START>:
_START():
/cygdrive/c/Users/SwaminathanK/Downloads/telink_b91m_driver_sdk/project/tlsr_riscv/B91/Debug_Demo/../../../../chip/B91/boot/cstartup_flash.S:90
	sb		t2 , 0x30b(t0)		 //0x8014030b  PB output  =  0x10
#endif
	/* Initialize global pointer */
    .option push
    .option norelax
    la     gp, __global_pointer$
20000028:	e0080197          	auipc	gp,0xe0080
2000002c:	7d818193          	addi	gp,gp,2008 # 80800 <__global_pointer$>
/cygdrive/c/Users/SwaminathanK/Downloads/telink_b91m_driver_sdk/project/tlsr_riscv/B91/Debug_Demo/../../../../chip/B91/boot/cstartup_flash.S:94
    .option pop

#if DP_THROUGH_SWIRE_DIS
	lui		t0, 0x80100
20000030:	801002b7          	lui	t0,0x80100
/cygdrive/c/Users/SwaminathanK/Downloads/telink_b91m_driver_sdk/project/tlsr_riscv/B91/Debug_Demo/../../../../chip/B91/boot/cstartup_flash.S:95
	addi	t0 , t0 , 0x700
20000034:	70028293          	addi	t0,t0,1792 # 80100700 <_DATA_LMA_START+0x600fdea8>
/cygdrive/c/Users/SwaminathanK/Downloads/telink_b91m_driver_sdk/project/tlsr_riscv/B91/Debug_Demo/../../../../chip/B91/boot/cstartup_flash.S:96
	li		t1, 0x040
20000038:	04000313          	li	t1,64
/cygdrive/c/Users/SwaminathanK/Downloads/telink_b91m_driver_sdk/project/tlsr_riscv/B91/Debug_Demo/../../../../chip/B91/boot/cstartup_flash.S:97
	sb		t1, 0x501(t0)  //0x80100c01 -> 0x40  <7>: 0 swire_usb_dis <6>:read-only bit
2000003c:	506280a3          	sb	t1,1281(t0)
/cygdrive/c/Users/SwaminathanK/Downloads/telink_b91m_driver_sdk/project/tlsr_riscv/B91/Debug_Demo/../../../../chip/B91/boot/cstartup_flash.S:100
#endif
	/* Initialize stack pointer */
    la     t0, _STACK_TOP
20000040:	e00a0297          	auipc	t0,0xe00a0
20000044:	fc028293          	addi	t0,t0,-64 # a0000 <_STACK_TOP>
/cygdrive/c/Users/SwaminathanK/Downloads/telink_b91m_driver_sdk/project/tlsr_riscv/B91/Debug_Demo/../../../../chip/B91/boot/cstartup_flash.S:101
    mv     sp, t0
20000048:	8116                	c.mv	sp,t0
/cygdrive/c/Users/SwaminathanK/Downloads/telink_b91m_driver_sdk/project/tlsr_riscv/B91/Debug_Demo/../../../../chip/B91/boot/cstartup_flash.S:105

#ifdef __nds_execit
	/* Initialize EXEC.IT table */
	la t0, _ITB_BASE_
2000004a:	e0000297          	auipc	t0,0xe0000
2000004e:	fb628293          	addi	t0,t0,-74 # 0 <_ITB_BASE_>
/cygdrive/c/Users/SwaminathanK/Downloads/telink_b91m_driver_sdk/project/tlsr_riscv/B91/Debug_Demo/../../../../chip/B91/boot/cstartup_flash.S:106
	csrw uitb, t0
20000052:	80029073          	csrw	uitb,t0
/cygdrive/c/Users/SwaminathanK/Downloads/telink_b91m_driver_sdk/project/tlsr_riscv/B91/Debug_Demo/../../../../chip/B91/boot/cstartup_flash.S:111
#endif

#ifdef __riscv_flen
	/* Enable FPU */
	li t0, 0x00006000
20000056:	6299                	c.lui	t0,0x6
/cygdrive/c/Users/SwaminathanK/Downloads/telink_b91m_driver_sdk/project/tlsr_riscv/B91/Debug_Demo/../../../../chip/B91/boot/cstartup_flash.S:112
	csrrs t0, mstatus, t0
20000058:	3002a2f3          	csrrs	t0,mstatus,t0
/cygdrive/c/Users/SwaminathanK/Downloads/telink_b91m_driver_sdk/project/tlsr_riscv/B91/Debug_Demo/../../../../chip/B91/boot/cstartup_flash.S:114
	/* Initialize FCSR */
	fscsr zero
2000005c:	00301073          	fssr	zero
/cygdrive/c/Users/SwaminathanK/Downloads/telink_b91m_driver_sdk/project/tlsr_riscv/B91/Debug_Demo/../../../../chip/B91/boot/cstartup_flash.S:118
#endif

    /* Initial machine trap-vector Base */
    la     t0, __vectors
20000060:	e0001297          	auipc	t0,0xe0001
20000064:	fa028293          	addi	t0,t0,-96 # 1000 <__vectors>
/cygdrive/c/Users/SwaminathanK/Downloads/telink_b91m_driver_sdk/project/tlsr_riscv/B91/Debug_Demo/../../../../chip/B91/boot/cstartup_flash.S:119
    csrw   mtvec, t0
20000068:	30529073          	csrw	mtvec,t0
/cygdrive/c/Users/SwaminathanK/Downloads/telink_b91m_driver_sdk/project/tlsr_riscv/B91/Debug_Demo/../../../../chip/B91/boot/cstartup_flash.S:122

    /* Enable vectored external plic interrupt */
    csrsi  mmisc_ctl, 2
2000006c:	7d016073          	csrsi	mmisc_ctl,2
/cygdrive/c/Users/SwaminathanK/Downloads/telink_b91m_driver_sdk/project/tlsr_riscv/B91/Debug_Demo/../../../../chip/B91/boot/cstartup_flash.S:125

	/*vector mode enable bit (VECTORED) of the Feature Enable Register */
    lui		t0, 0xe4000
20000070:	e40002b7          	lui	t0,0xe4000
/cygdrive/c/Users/SwaminathanK/Downloads/telink_b91m_driver_sdk/project/tlsr_riscv/B91/Debug_Demo/../../../../chip/B91/boot/cstartup_flash.S:126
	li		t1, 0x02
20000074:	4309                	c.li	t1,2
/cygdrive/c/Users/SwaminathanK/Downloads/telink_b91m_driver_sdk/project/tlsr_riscv/B91/Debug_Demo/../../../../chip/B91/boot/cstartup_flash.S:127
	sw		t1, 0x0(t0)		 //(*(volatile unsigned long*)(0xe4000000))= 0x02
20000076:	0062a023          	sw	t1,0(t0) # e4000000 <_DATA_LMA_START+0xc3ffd7a8>
/cygdrive/c/Users/SwaminathanK/Downloads/telink_b91m_driver_sdk/project/tlsr_riscv/B91/Debug_Demo/../../../../chip/B91/boot/cstartup_flash.S:130

    /* Enable I/D-Cache */
    csrr   t0,  mcache_ctl
2000007a:	7ca022f3          	csrr	t0,mcache_ctl
/cygdrive/c/Users/SwaminathanK/Downloads/telink_b91m_driver_sdk/project/tlsr_riscv/B91/Debug_Demo/../../../../chip/B91/boot/cstartup_flash.S:131
    ori    t0,  t0,  1  #/I-Cache
2000007e:	0012e293          	ori	t0,t0,1
/cygdrive/c/Users/SwaminathanK/Downloads/telink_b91m_driver_sdk/project/tlsr_riscv/B91/Debug_Demo/../../../../chip/B91/boot/cstartup_flash.S:132
    ori    t0,  t0,  2  #/D-Cache
20000082:	0022e293          	ori	t0,t0,2
/cygdrive/c/Users/SwaminathanK/Downloads/telink_b91m_driver_sdk/project/tlsr_riscv/B91/Debug_Demo/../../../../chip/B91/boot/cstartup_flash.S:133
    csrw   mcache_ctl,  t0
20000086:	7ca29073          	csrw	mcache_ctl,t0
/cygdrive/c/Users/SwaminathanK/Downloads/telink_b91m_driver_sdk/project/tlsr_riscv/B91/Debug_Demo/../../../../chip/B91/boot/cstartup_flash.S:134
    fence.i
2000008a:	0000100f          	fence.i

2000008e <_RETENTION_RESET_INIT>:
_RETENTION_RESET_INIT():
/cygdrive/c/Users/SwaminathanK/Downloads/telink_b91m_driver_sdk/project/tlsr_riscv/B91/Debug_Demo/../../../../chip/B91/boot/cstartup_flash.S:138
	/* Move retention reset from flash to sram */
_RETENTION_RESET_INIT:

    la     t1, _RETENTION_RESET_LMA_START
2000008e:	00000317          	auipc	t1,0x0
20000092:	10230313          	addi	t1,t1,258 # 20000190 <_RETENTION_RESET_LMA_START>
/cygdrive/c/Users/SwaminathanK/Downloads/telink_b91m_driver_sdk/project/tlsr_riscv/B91/Debug_Demo/../../../../chip/B91/boot/cstartup_flash.S:139
    la     t2, _RETENTION_RESET_VMA_START
20000096:	e0000397          	auipc	t2,0xe0000
2000009a:	f6a38393          	addi	t2,t2,-150 # 0 <_ITB_BASE_>
/cygdrive/c/Users/SwaminathanK/Downloads/telink_b91m_driver_sdk/project/tlsr_riscv/B91/Debug_Demo/../../../../chip/B91/boot/cstartup_flash.S:140
    la     t3, _RETENTION_RESET_VMA_END
2000009e:	e0000e17          	auipc	t3,0xe0000
200000a2:	0b6e0e13          	addi	t3,t3,182 # 154 <_RETENTION_RESET_VMA_END>

200000a6 <_RETENTION_RESET_BEGIN>:
_RETENTION_RESET_BEGIN():
/cygdrive/c/Users/SwaminathanK/Downloads/telink_b91m_driver_sdk/project/tlsr_riscv/B91/Debug_Demo/../../../../chip/B91/boot/cstartup_flash.S:142
_RETENTION_RESET_BEGIN:
    bleu    t3, t2, _RETENTION_DATA_INIT
200000a6:	01c3f963          	bgeu	t2,t3,200000b8 <_RETENTION_DATA_INIT>
/cygdrive/c/Users/SwaminathanK/Downloads/telink_b91m_driver_sdk/project/tlsr_riscv/B91/Debug_Demo/../../../../chip/B91/boot/cstartup_flash.S:143
    lw     t0, 0(t1)
200000aa:	00032283          	lw	t0,0(t1)
/cygdrive/c/Users/SwaminathanK/Downloads/telink_b91m_driver_sdk/project/tlsr_riscv/B91/Debug_Demo/../../../../chip/B91/boot/cstartup_flash.S:144
    sw     t0, 0(t2)
200000ae:	0053a023          	sw	t0,0(t2)
/cygdrive/c/Users/SwaminathanK/Downloads/telink_b91m_driver_sdk/project/tlsr_riscv/B91/Debug_Demo/../../../../chip/B91/boot/cstartup_flash.S:145
    addi   t1, t1, 4
200000b2:	0311                	c.addi	t1,4
/cygdrive/c/Users/SwaminathanK/Downloads/telink_b91m_driver_sdk/project/tlsr_riscv/B91/Debug_Demo/../../../../chip/B91/boot/cstartup_flash.S:146
    addi   t2, t2, 4
200000b4:	0391                	c.addi	t2,4
/cygdrive/c/Users/SwaminathanK/Downloads/telink_b91m_driver_sdk/project/tlsr_riscv/B91/Debug_Demo/../../../../chip/B91/boot/cstartup_flash.S:147
    j      _RETENTION_RESET_BEGIN
200000b6:	bfc5                	c.j	200000a6 <_RETENTION_RESET_BEGIN>

200000b8 <_RETENTION_DATA_INIT>:
_RETENTION_DATA_INIT():
/cygdrive/c/Users/SwaminathanK/Downloads/telink_b91m_driver_sdk/project/tlsr_riscv/B91/Debug_Demo/../../../../chip/B91/boot/cstartup_flash.S:152

	/* Move retention from flash to sram */
_RETENTION_DATA_INIT:

    la     t1, _RETENTION_DATA_LMA_START
200000b8:	00000317          	auipc	t1,0x0
200000bc:	23030313          	addi	t1,t1,560 # 200002e8 <_RETENTION_DATA_LMA_START>
/cygdrive/c/Users/SwaminathanK/Downloads/telink_b91m_driver_sdk/project/tlsr_riscv/B91/Debug_Demo/../../../../chip/B91/boot/cstartup_flash.S:153
    la     t2, _RETENTION_DATA_VMA_START
200000c0:	15800393          	li	t2,344
/cygdrive/c/Users/SwaminathanK/Downloads/telink_b91m_driver_sdk/project/tlsr_riscv/B91/Debug_Demo/../../../../chip/B91/boot/cstartup_flash.S:154
    la     t3, _RETENTION_DATA_VMA_END
200000c4:	e0000e17          	auipc	t3,0xe0000
200000c8:	0f8e0e13          	addi	t3,t3,248 # 1bc <_RETENTION_DATA_VMA_END>

200000cc <_RETENTION_DATA_INIT_BEGIN>:
_RETENTION_DATA_INIT_BEGIN():
/cygdrive/c/Users/SwaminathanK/Downloads/telink_b91m_driver_sdk/project/tlsr_riscv/B91/Debug_Demo/../../../../chip/B91/boot/cstartup_flash.S:156
_RETENTION_DATA_INIT_BEGIN:
    bleu   t3, t2, _RAMCODE_INIT
200000cc:	01c3f963          	bgeu	t2,t3,200000de <_RAMCODE_INIT>
/cygdrive/c/Users/SwaminathanK/Downloads/telink_b91m_driver_sdk/project/tlsr_riscv/B91/Debug_Demo/../../../../chip/B91/boot/cstartup_flash.S:157
    lw     t0, 0(t1)
200000d0:	00032283          	lw	t0,0(t1)
/cygdrive/c/Users/SwaminathanK/Downloads/telink_b91m_driver_sdk/project/tlsr_riscv/B91/Debug_Demo/../../../../chip/B91/boot/cstartup_flash.S:158
    sw     t0, 0(t2)
200000d4:	0053a023          	sw	t0,0(t2)
/cygdrive/c/Users/SwaminathanK/Downloads/telink_b91m_driver_sdk/project/tlsr_riscv/B91/Debug_Demo/../../../../chip/B91/boot/cstartup_flash.S:159
    addi   t1, t1, 4
200000d8:	0311                	c.addi	t1,4
/cygdrive/c/Users/SwaminathanK/Downloads/telink_b91m_driver_sdk/project/tlsr_riscv/B91/Debug_Demo/../../../../chip/B91/boot/cstartup_flash.S:160
    addi   t2, t2, 4
200000da:	0391                	c.addi	t2,4
/cygdrive/c/Users/SwaminathanK/Downloads/telink_b91m_driver_sdk/project/tlsr_riscv/B91/Debug_Demo/../../../../chip/B91/boot/cstartup_flash.S:161
    j      _RETENTION_DATA_INIT_BEGIN
200000dc:	bfc5                	c.j	200000cc <_RETENTION_DATA_INIT_BEGIN>

200000de <_RAMCODE_INIT>:
_RAMCODE_INIT():
/cygdrive/c/Users/SwaminathanK/Downloads/telink_b91m_driver_sdk/project/tlsr_riscv/B91/Debug_Demo/../../../../chip/B91/boot/cstartup_flash.S:166

	/* Move ramcode from flash to sram */
_RAMCODE_INIT:

    la     t1, _RAMCODE_LMA_START
200000de:	00000317          	auipc	t1,0x0
200000e2:	27230313          	addi	t1,t1,626 # 20000350 <_RAMCODE_LMA_START>
/cygdrive/c/Users/SwaminathanK/Downloads/telink_b91m_driver_sdk/project/tlsr_riscv/B91/Debug_Demo/../../../../chip/B91/boot/cstartup_flash.S:167
    la     t2, _RAMCODE_VMA_START
200000e6:	e0000397          	auipc	t2,0xe0000
200000ea:	11a38393          	addi	t2,t2,282 # 200 <delay_ms.constprop.2>
/cygdrive/c/Users/SwaminathanK/Downloads/telink_b91m_driver_sdk/project/tlsr_riscv/B91/Debug_Demo/../../../../chip/B91/boot/cstartup_flash.S:168
    la     t3, _RAMCODE_VMA_END
200000ee:	e0001e17          	auipc	t3,0xe0001
200000f2:	014e0e13          	addi	t3,t3,20 # 1102 <_RAMCODE_VMA_END>

200000f6 <_RAMCODE_INIT_BEGIN>:
_RAMCODE_INIT_BEGIN():
/cygdrive/c/Users/SwaminathanK/Downloads/telink_b91m_driver_sdk/project/tlsr_riscv/B91/Debug_Demo/../../../../chip/B91/boot/cstartup_flash.S:170
_RAMCODE_INIT_BEGIN:
    bleu    t3, t2, _DATA_INIT
200000f6:	01c3f963          	bgeu	t2,t3,20000108 <_DATA_INIT>
/cygdrive/c/Users/SwaminathanK/Downloads/telink_b91m_driver_sdk/project/tlsr_riscv/B91/Debug_Demo/../../../../chip/B91/boot/cstartup_flash.S:171
    lw     t0, 0(t1)
200000fa:	00032283          	lw	t0,0(t1)
/cygdrive/c/Users/SwaminathanK/Downloads/telink_b91m_driver_sdk/project/tlsr_riscv/B91/Debug_Demo/../../../../chip/B91/boot/cstartup_flash.S:172
    sw     t0, 0(t2)
200000fe:	0053a023          	sw	t0,0(t2)
/cygdrive/c/Users/SwaminathanK/Downloads/telink_b91m_driver_sdk/project/tlsr_riscv/B91/Debug_Demo/../../../../chip/B91/boot/cstartup_flash.S:173
    addi   t1, t1, 4
20000102:	0311                	c.addi	t1,4
/cygdrive/c/Users/SwaminathanK/Downloads/telink_b91m_driver_sdk/project/tlsr_riscv/B91/Debug_Demo/../../../../chip/B91/boot/cstartup_flash.S:174
    addi   t2, t2, 4
20000104:	0391                	c.addi	t2,4
/cygdrive/c/Users/SwaminathanK/Downloads/telink_b91m_driver_sdk/project/tlsr_riscv/B91/Debug_Demo/../../../../chip/B91/boot/cstartup_flash.S:175
    j      _RAMCODE_INIT_BEGIN
20000106:	bfc5                	c.j	200000f6 <_RAMCODE_INIT_BEGIN>

20000108 <_DATA_INIT>:
_DATA_INIT():
/cygdrive/c/Users/SwaminathanK/Downloads/telink_b91m_driver_sdk/project/tlsr_riscv/B91/Debug_Demo/../../../../chip/B91/boot/cstartup_flash.S:180


	/* Move Data from flash to sram */
_DATA_INIT:
    la     t1, _DATA_LMA_START
20000108:	00002317          	auipc	t1,0x2
2000010c:	75030313          	addi	t1,t1,1872 # 20002858 <_DATA_LMA_START>
/cygdrive/c/Users/SwaminathanK/Downloads/telink_b91m_driver_sdk/project/tlsr_riscv/B91/Debug_Demo/../../../../chip/B91/boot/cstartup_flash.S:181
    la     t2, _DATA_VMA_START
20000110:	e0080397          	auipc	t2,0xe0080
20000114:	ef038393          	addi	t2,t2,-272 # 80000 <_DATA_VMA_START>
/cygdrive/c/Users/SwaminathanK/Downloads/telink_b91m_driver_sdk/project/tlsr_riscv/B91/Debug_Demo/../../../../chip/B91/boot/cstartup_flash.S:182
    la     t3, _DATA_VMA_END
20000118:	e0080e17          	auipc	t3,0xe0080
2000011c:	ef2e0e13          	addi	t3,t3,-270 # 8000a <_DATA_VMA_END>

20000120 <_DATA_INIT_BEGIN>:
_DATA_INIT_BEGIN():
/cygdrive/c/Users/SwaminathanK/Downloads/telink_b91m_driver_sdk/project/tlsr_riscv/B91/Debug_Demo/../../../../chip/B91/boot/cstartup_flash.S:184
_DATA_INIT_BEGIN:
    bleu   t3, t2, _ZERO_BSS
20000120:	01c3f963          	bgeu	t2,t3,20000132 <_ZERO_BSS>
/cygdrive/c/Users/SwaminathanK/Downloads/telink_b91m_driver_sdk/project/tlsr_riscv/B91/Debug_Demo/../../../../chip/B91/boot/cstartup_flash.S:185
    lw     t0, 0(t1)
20000124:	00032283          	lw	t0,0(t1)
/cygdrive/c/Users/SwaminathanK/Downloads/telink_b91m_driver_sdk/project/tlsr_riscv/B91/Debug_Demo/../../../../chip/B91/boot/cstartup_flash.S:186
    sw     t0, 0(t2)
20000128:	0053a023          	sw	t0,0(t2)
/cygdrive/c/Users/SwaminathanK/Downloads/telink_b91m_driver_sdk/project/tlsr_riscv/B91/Debug_Demo/../../../../chip/B91/boot/cstartup_flash.S:187
    addi   t1, t1, 4
2000012c:	0311                	c.addi	t1,4
/cygdrive/c/Users/SwaminathanK/Downloads/telink_b91m_driver_sdk/project/tlsr_riscv/B91/Debug_Demo/../../../../chip/B91/boot/cstartup_flash.S:188
    addi   t2, t2, 4
2000012e:	0391                	c.addi	t2,4
/cygdrive/c/Users/SwaminathanK/Downloads/telink_b91m_driver_sdk/project/tlsr_riscv/B91/Debug_Demo/../../../../chip/B91/boot/cstartup_flash.S:189
    j      _DATA_INIT_BEGIN
20000130:	bfc5                	c.j	20000120 <_DATA_INIT_BEGIN>

20000132 <_ZERO_BSS>:
_ZERO_BSS():
/cygdrive/c/Users/SwaminathanK/Downloads/telink_b91m_driver_sdk/project/tlsr_riscv/B91/Debug_Demo/../../../../chip/B91/boot/cstartup_flash.S:195



	/* Zero .bss section in sram */
_ZERO_BSS:
    lui    t0, 0
20000132:	000002b7          	lui	t0,0x0
/cygdrive/c/Users/SwaminathanK/Downloads/telink_b91m_driver_sdk/project/tlsr_riscv/B91/Debug_Demo/../../../../chip/B91/boot/cstartup_flash.S:196
    la     t2, _BSS_VMA_START
20000136:	e0080397          	auipc	t2,0xe0080
2000013a:	eda38393          	addi	t2,t2,-294 # 80010 <_BSS_VMA_START>
/cygdrive/c/Users/SwaminathanK/Downloads/telink_b91m_driver_sdk/project/tlsr_riscv/B91/Debug_Demo/../../../../chip/B91/boot/cstartup_flash.S:197
    la     t3, _BSS_VMA_END
2000013e:	e0080e17          	auipc	t3,0xe0080
20000142:	efae0e13          	addi	t3,t3,-262 # 80038 <_BSS_VMA_END>

20000146 <_ZERO_BSS_BEGIN>:
_ZERO_BSS_BEGIN():
/cygdrive/c/Users/SwaminathanK/Downloads/telink_b91m_driver_sdk/project/tlsr_riscv/B91/Debug_Demo/../../../../chip/B91/boot/cstartup_flash.S:199
_ZERO_BSS_BEGIN:
    bleu   t3, t2, _ZERO_AES
20000146:	01c3f663          	bgeu	t2,t3,20000152 <_ZERO_AES>
/cygdrive/c/Users/SwaminathanK/Downloads/telink_b91m_driver_sdk/project/tlsr_riscv/B91/Debug_Demo/../../../../chip/B91/boot/cstartup_flash.S:200
    sw     t0, 0(t2)
2000014a:	0053a023          	sw	t0,0(t2)
/cygdrive/c/Users/SwaminathanK/Downloads/telink_b91m_driver_sdk/project/tlsr_riscv/B91/Debug_Demo/../../../../chip/B91/boot/cstartup_flash.S:201
    addi   t2, t2, 4
2000014e:	0391                	c.addi	t2,4
/cygdrive/c/Users/SwaminathanK/Downloads/telink_b91m_driver_sdk/project/tlsr_riscv/B91/Debug_Demo/../../../../chip/B91/boot/cstartup_flash.S:202
    j      _ZERO_BSS_BEGIN
20000150:	bfdd                	c.j	20000146 <_ZERO_BSS_BEGIN>

20000152 <_ZERO_AES>:
_ZERO_AES():
/cygdrive/c/Users/SwaminathanK/Downloads/telink_b91m_driver_sdk/project/tlsr_riscv/B91/Debug_Demo/../../../../chip/B91/boot/cstartup_flash.S:206

	/* Zero .aes section in sram */
_ZERO_AES:
    lui    t0, 0
20000152:	000002b7          	lui	t0,0x0
/cygdrive/c/Users/SwaminathanK/Downloads/telink_b91m_driver_sdk/project/tlsr_riscv/B91/Debug_Demo/../../../../chip/B91/boot/cstartup_flash.S:207
    la     t2, _AES_VMA_START
20000156:	e0000397          	auipc	t2,0xe0000
2000015a:	00238393          	addi	t2,t2,2 # 158 <_AES_VMA_END>
/cygdrive/c/Users/SwaminathanK/Downloads/telink_b91m_driver_sdk/project/tlsr_riscv/B91/Debug_Demo/../../../../chip/B91/boot/cstartup_flash.S:208
    la     t3, _AES_VMA_END
2000015e:	e0000e17          	auipc	t3,0xe0000
20000162:	ffae0e13          	addi	t3,t3,-6 # 158 <_AES_VMA_END>

20000166 <_ZERO_AES_BEGIN>:
_ZERO_AES_BEGIN():
/cygdrive/c/Users/SwaminathanK/Downloads/telink_b91m_driver_sdk/project/tlsr_riscv/B91/Debug_Demo/../../../../chip/B91/boot/cstartup_flash.S:210
_ZERO_AES_BEGIN:
    bleu   t3, t2, _FILL_STK
20000166:	01c3f663          	bgeu	t2,t3,20000172 <_FILL_STK>
/cygdrive/c/Users/SwaminathanK/Downloads/telink_b91m_driver_sdk/project/tlsr_riscv/B91/Debug_Demo/../../../../chip/B91/boot/cstartup_flash.S:211
    sw     t0, 0(t2)
2000016a:	0053a023          	sw	t0,0(t2)
/cygdrive/c/Users/SwaminathanK/Downloads/telink_b91m_driver_sdk/project/tlsr_riscv/B91/Debug_Demo/../../../../chip/B91/boot/cstartup_flash.S:212
    addi   t2, t2, 4
2000016e:	0391                	c.addi	t2,4
/cygdrive/c/Users/SwaminathanK/Downloads/telink_b91m_driver_sdk/project/tlsr_riscv/B91/Debug_Demo/../../../../chip/B91/boot/cstartup_flash.S:213
    j      _ZERO_AES_BEGIN
20000170:	bfdd                	c.j	20000166 <_ZERO_AES_BEGIN>

20000172 <_FILL_STK>:
_FILL_STK():
/cygdrive/c/Users/SwaminathanK/Downloads/telink_b91m_driver_sdk/project/tlsr_riscv/B91/Debug_Demo/../../../../chip/B91/boot/cstartup_flash.S:230
    addi   t2, t2, 4
    j      _FILL_STK_BEGIN
#endif
	/* Jump to the main function */
_MAIN_FUNC:
    nop
20000172:	0001                	c.nop
/cygdrive/c/Users/SwaminathanK/Downloads/telink_b91m_driver_sdk/project/tlsr_riscv/B91/Debug_Demo/../../../../chip/B91/boot/cstartup_flash.S:232

    la     t0, main
20000174:	00001297          	auipc	t0,0x1
20000178:	3a828293          	addi	t0,t0,936 # 2000151c <main>
/cygdrive/c/Users/SwaminathanK/Downloads/telink_b91m_driver_sdk/project/tlsr_riscv/B91/Debug_Demo/../../../../chip/B91/boot/cstartup_flash.S:233
    jalr   t0
2000017c:	9282                	c.jalr	t0
/cygdrive/c/Users/SwaminathanK/Downloads/telink_b91m_driver_sdk/project/tlsr_riscv/B91/Debug_Demo/../../../../chip/B91/boot/cstartup_flash.S:235

    nop
2000017e:	0001                	c.nop
/cygdrive/c/Users/SwaminathanK/Downloads/telink_b91m_driver_sdk/project/tlsr_riscv/B91/Debug_Demo/../../../../chip/B91/boot/cstartup_flash.S:236
    nop
20000180:	0001                	c.nop
/cygdrive/c/Users/SwaminathanK/Downloads/telink_b91m_driver_sdk/project/tlsr_riscv/B91/Debug_Demo/../../../../chip/B91/boot/cstartup_flash.S:237
    nop
20000182:	0001                	c.nop
/cygdrive/c/Users/SwaminathanK/Downloads/telink_b91m_driver_sdk/project/tlsr_riscv/B91/Debug_Demo/../../../../chip/B91/boot/cstartup_flash.S:238
    nop
20000184:	0001                	c.nop
/cygdrive/c/Users/SwaminathanK/Downloads/telink_b91m_driver_sdk/project/tlsr_riscv/B91/Debug_Demo/../../../../chip/B91/boot/cstartup_flash.S:239
    nop
20000186:	0001                	c.nop

20000188 <_END>:
_END():
/cygdrive/c/Users/SwaminathanK/Downloads/telink_b91m_driver_sdk/project/tlsr_riscv/B91/Debug_Demo/../../../../chip/B91/boot/cstartup_flash.S:241
_END:
    j    _END
20000188:	a001                	c.j	20000188 <_END>

Disassembly of section .retention_reset:

00000000 <_IRESET_ENTRY>:
_RETENTION_RESET_VMA_START():
/cygdrive/c/Users/SwaminathanK/Downloads/telink_b91m_driver_sdk/project/tlsr_riscv/B91/Debug_Demo/../../../../chip/B91/boot/cstartup_flash.S:253
 	.type _IRESET_ENTRY,@function

    .align 2
_IRESET_ENTRY:
	/* Decide whether this is an NMI or cold reset */
	j 		_ISTART
   0:	a00d                	c.j	22 <_ISTART>
	...

00000022 <_ISTART>:
_ISTART():
/cygdrive/c/Users/SwaminathanK/Downloads/telink_b91m_driver_sdk/project/tlsr_riscv/B91/Debug_Demo/../../../../chip/B91/boot/cstartup_flash.S:267
	sb		t1 , 0x30a(t0)		 //0x8014030a  PB oen     =  0xef
	sb		t2 , 0x30b(t0)		 //0x8014030b  PB output  =  0x10
#endif
	/* Initialize global pointer */

    la     gp, __global_pointer$
  22:	00080197          	auipc	gp,0x80
  26:	7de18193          	addi	gp,gp,2014 # 80800 <__global_pointer$>

0000002a <_ISWS_USB_DIS>:
_ISWS_USB_DIS():
/cygdrive/c/Users/SwaminathanK/Downloads/telink_b91m_driver_sdk/project/tlsr_riscv/B91/Debug_Demo/../../../../chip/B91/boot/cstartup_flash.S:275
/*
* swire usb enable default.when dp and dm use as GPIO, it has a risk to trigger the swire through usb function
* to do something unexcept when toggle dp pin
*/
_ISWS_USB_DIS:
	lui		t0, 0x80100
  2a:	801002b7          	lui	t0,0x80100
/cygdrive/c/Users/SwaminathanK/Downloads/telink_b91m_driver_sdk/project/tlsr_riscv/B91/Debug_Demo/../../../../chip/B91/boot/cstartup_flash.S:276
	addi	t0 , t0 , 0x700
  2e:	70028293          	addi	t0,t0,1792 # 80100700 <_DATA_LMA_START+0x600fdea8>
/cygdrive/c/Users/SwaminathanK/Downloads/telink_b91m_driver_sdk/project/tlsr_riscv/B91/Debug_Demo/../../../../chip/B91/boot/cstartup_flash.S:277
	li		t1, 0x40
  32:	04000313          	li	t1,64
/cygdrive/c/Users/SwaminathanK/Downloads/telink_b91m_driver_sdk/project/tlsr_riscv/B91/Debug_Demo/../../../../chip/B91/boot/cstartup_flash.S:278
	sb		t1, 0x501(t0)  //0x80100c01 -> 0x40  <7>: 0 swire_usb_dis
  36:	506280a3          	sb	t1,1281(t0)
/cygdrive/c/Users/SwaminathanK/Downloads/telink_b91m_driver_sdk/project/tlsr_riscv/B91/Debug_Demo/../../../../chip/B91/boot/cstartup_flash.S:281

	/* Initialize stack pointer */
    la     t0, _STACK_TOP
  3a:	000a0297          	auipc	t0,0xa0
  3e:	fc628293          	addi	t0,t0,-58 # a0000 <_STACK_TOP>
/cygdrive/c/Users/SwaminathanK/Downloads/telink_b91m_driver_sdk/project/tlsr_riscv/B91/Debug_Demo/../../../../chip/B91/boot/cstartup_flash.S:282
    mv     sp, t0
  42:	8116                	c.mv	sp,t0
/cygdrive/c/Users/SwaminathanK/Downloads/telink_b91m_driver_sdk/project/tlsr_riscv/B91/Debug_Demo/../../../../chip/B91/boot/cstartup_flash.S:286

#ifdef __nds_execit
	/* Initialize EXEC.IT table */
	la t0, _ITB_BASE_
  44:	00000297          	auipc	t0,0x0
  48:	fbc28293          	addi	t0,t0,-68 # 0 <_IRESET_ENTRY>
/cygdrive/c/Users/SwaminathanK/Downloads/telink_b91m_driver_sdk/project/tlsr_riscv/B91/Debug_Demo/../../../../chip/B91/boot/cstartup_flash.S:287
	csrw uitb, t0
  4c:	80029073          	csrw	uitb,t0
/cygdrive/c/Users/SwaminathanK/Downloads/telink_b91m_driver_sdk/project/tlsr_riscv/B91/Debug_Demo/../../../../chip/B91/boot/cstartup_flash.S:292
#endif

#ifdef __riscv_flen
	/* Enable FPU */
	li t0, 0x00006000
  50:	6299                	c.lui	t0,0x6
/cygdrive/c/Users/SwaminathanK/Downloads/telink_b91m_driver_sdk/project/tlsr_riscv/B91/Debug_Demo/../../../../chip/B91/boot/cstartup_flash.S:293
	csrrs t0, mstatus, t0
  52:	3002a2f3          	csrrs	t0,mstatus,t0
/cygdrive/c/Users/SwaminathanK/Downloads/telink_b91m_driver_sdk/project/tlsr_riscv/B91/Debug_Demo/../../../../chip/B91/boot/cstartup_flash.S:295
	/* Initialize FCSR */
	fscsr zero
  56:	00301073          	fssr	zero
/cygdrive/c/Users/SwaminathanK/Downloads/telink_b91m_driver_sdk/project/tlsr_riscv/B91/Debug_Demo/../../../../chip/B91/boot/cstartup_flash.S:299
#endif

    /* Initial machine trap-vector Base */
    la     t0, __vectors
  5a:	00001297          	auipc	t0,0x1
  5e:	fa628293          	addi	t0,t0,-90 # 1000 <__vectors>
/cygdrive/c/Users/SwaminathanK/Downloads/telink_b91m_driver_sdk/project/tlsr_riscv/B91/Debug_Demo/../../../../chip/B91/boot/cstartup_flash.S:300
    csrw   mtvec, t0
  62:	30529073          	csrw	mtvec,t0
/cygdrive/c/Users/SwaminathanK/Downloads/telink_b91m_driver_sdk/project/tlsr_riscv/B91/Debug_Demo/../../../../chip/B91/boot/cstartup_flash.S:303

    /* Enable vectored external plic interrupt */
    csrsi  mmisc_ctl, 2
  66:	7d016073          	csrsi	mmisc_ctl,2
/cygdrive/c/Users/SwaminathanK/Downloads/telink_b91m_driver_sdk/project/tlsr_riscv/B91/Debug_Demo/../../../../chip/B91/boot/cstartup_flash.S:306

	/*vector mode enable bit (VECTORED) of the Feature Enable Register */
    lui		t0, 0xe4000
  6a:	e40002b7          	lui	t0,0xe4000
/cygdrive/c/Users/SwaminathanK/Downloads/telink_b91m_driver_sdk/project/tlsr_riscv/B91/Debug_Demo/../../../../chip/B91/boot/cstartup_flash.S:307
	li		t1, 0x02
  6e:	4309                	c.li	t1,2
/cygdrive/c/Users/SwaminathanK/Downloads/telink_b91m_driver_sdk/project/tlsr_riscv/B91/Debug_Demo/../../../../chip/B91/boot/cstartup_flash.S:308
	sw		t1, 0x0(t0)		 //(*(volatile unsigned long*)(0xe4000000))= 0x02
  70:	0062a023          	sw	t1,0(t0) # e4000000 <_DATA_LMA_START+0xc3ffd7a8>
/cygdrive/c/Users/SwaminathanK/Downloads/telink_b91m_driver_sdk/project/tlsr_riscv/B91/Debug_Demo/../../../../chip/B91/boot/cstartup_flash.S:311

    /* Enable I/D-Cache */
    csrr   t0,  mcache_ctl
  74:	7ca022f3          	csrr	t0,mcache_ctl
/cygdrive/c/Users/SwaminathanK/Downloads/telink_b91m_driver_sdk/project/tlsr_riscv/B91/Debug_Demo/../../../../chip/B91/boot/cstartup_flash.S:312
    ori    t0,  t0,  1  #/I-Cache
  78:	0012e293          	ori	t0,t0,1
/cygdrive/c/Users/SwaminathanK/Downloads/telink_b91m_driver_sdk/project/tlsr_riscv/B91/Debug_Demo/../../../../chip/B91/boot/cstartup_flash.S:313
    ori    t0,  t0,  2  #/D-Cache
  7c:	0022e293          	ori	t0,t0,2
/cygdrive/c/Users/SwaminathanK/Downloads/telink_b91m_driver_sdk/project/tlsr_riscv/B91/Debug_Demo/../../../../chip/B91/boot/cstartup_flash.S:314
    csrw   mcache_ctl,  t0
  80:	7ca29073          	csrw	mcache_ctl,t0
/cygdrive/c/Users/SwaminathanK/Downloads/telink_b91m_driver_sdk/project/tlsr_riscv/B91/Debug_Demo/../../../../chip/B91/boot/cstartup_flash.S:315
    fence.i
  84:	0000100f          	fence.i

00000088 <_WAKEUP_FLASH>:
_WAKEUP_FLASH():
/cygdrive/c/Users/SwaminathanK/Downloads/telink_b91m_driver_sdk/project/tlsr_riscv/B91/Debug_Demo/../../../../chip/B91/boot/cstartup_flash.S:320


/* flash wakeup */
_WAKEUP_FLASH:
	lui		t0 , 0x80140
  88:	801402b7          	lui	t0,0x80140
/cygdrive/c/Users/SwaminathanK/Downloads/telink_b91m_driver_sdk/project/tlsr_riscv/B91/Debug_Demo/../../../../chip/B91/boot/cstartup_flash.S:321
	li		t1 , 0xff
  8c:	0ff00313          	li	t1,255
/cygdrive/c/Users/SwaminathanK/Downloads/telink_b91m_driver_sdk/project/tlsr_riscv/B91/Debug_Demo/../../../../chip/B91/boot/cstartup_flash.S:322
	li		t2 , 0x0
  90:	4381                	c.li	t2,0
/cygdrive/c/Users/SwaminathanK/Downloads/telink_b91m_driver_sdk/project/tlsr_riscv/B91/Debug_Demo/../../../../chip/B91/boot/cstartup_flash.S:323
	li		t3 , 0xab
  92:	0ab00e13          	li	t3,171
/cygdrive/c/Users/SwaminathanK/Downloads/telink_b91m_driver_sdk/project/tlsr_riscv/B91/Debug_Demo/../../../../chip/B91/boot/cstartup_flash.S:324
	sb		t1 , 0x329(t0)			 //mspi ie enable	:0x140329:0x1f
  96:	326284a3          	sb	t1,809(t0) # 80140329 <_DATA_LMA_START+0x6013dad1>
/cygdrive/c/Users/SwaminathanK/Downloads/telink_b91m_driver_sdk/project/tlsr_riscv/B91/Debug_Demo/../../../../chip/B91/boot/cstartup_flash.S:325
	sb		t2 , 0x101(t0)			 //cs_low			:0x140101:0x00
  9a:	107280a3          	sb	t2,257(t0)
/cygdrive/c/Users/SwaminathanK/Downloads/telink_b91m_driver_sdk/project/tlsr_riscv/B91/Debug_Demo/../../../../chip/B91/boot/cstartup_flash.S:326
	sb		t3 , 0x100(t0)			 //wakeup_cmd		:0x140100:0xab
  9e:	11c28023          	sb	t3,256(t0)

000000a2 <_MSPI_WAIT>:
_MSPI_WAIT():
/cygdrive/c/Users/SwaminathanK/Downloads/telink_b91m_driver_sdk/project/tlsr_riscv/B91/Debug_Demo/../../../../chip/B91/boot/cstartup_flash.S:328
_MSPI_WAIT:
	lui		t0 , 0x80140
  a2:	801402b7          	lui	t0,0x80140
/cygdrive/c/Users/SwaminathanK/Downloads/telink_b91m_driver_sdk/project/tlsr_riscv/B91/Debug_Demo/../../../../chip/B91/boot/cstartup_flash.S:329
	lb		t2 , 0x102(t0)			//read reg_mspi_status FLD_MSPI_BUSY(bit0)
  a6:	10228383          	lb	t2,258(t0) # 80140102 <_DATA_LMA_START+0x6013d8aa>
/cygdrive/c/Users/SwaminathanK/Downloads/telink_b91m_driver_sdk/project/tlsr_riscv/B91/Debug_Demo/../../../../chip/B91/boot/cstartup_flash.S:330
	li		t3 , 0x1
  aa:	4e05                	c.li	t3,1
/cygdrive/c/Users/SwaminathanK/Downloads/telink_b91m_driver_sdk/project/tlsr_riscv/B91/Debug_Demo/../../../../chip/B91/boot/cstartup_flash.S:331
	li		t4 , 0x10
  ac:	4ec1                	c.li	t4,16
/cygdrive/c/Users/SwaminathanK/Downloads/telink_b91m_driver_sdk/project/tlsr_riscv/B91/Debug_Demo/../../../../chip/B91/boot/cstartup_flash.S:332
	beq 	t3 , t2 ,_MSPI_WAIT
  ae:	fe7e0ae3          	beq	t3,t2,a2 <_MSPI_WAIT>
/cygdrive/c/Users/SwaminathanK/Downloads/telink_b91m_driver_sdk/project/tlsr_riscv/B91/Debug_Demo/../../../../chip/B91/boot/cstartup_flash.S:333
	sb		t4 , 0x101(t0)			//cs_high			:0x140101:0x10
  b2:	11d280a3          	sb	t4,257(t0)
/cygdrive/c/Users/SwaminathanK/Downloads/telink_b91m_driver_sdk/project/tlsr_riscv/B91/Debug_Demo/../../../../chip/B91/boot/cstartup_flash.S:344
	sb		t1, 0x30b(t0)		 	//0x8014030b  PB output  =  0x00
#endif

	/*flash wakeup need delay about 20us */
	/*efuse load need delay about 18us */
	li		t0, 0
  b6:	4281                	c.li	t0,0
/cygdrive/c/Users/SwaminathanK/Downloads/telink_b91m_driver_sdk/project/tlsr_riscv/B91/Debug_Demo/../../../../chip/B91/boot/cstartup_flash.S:345
	li		t1, EFUSE_LOAD_AND_FLASH_WAKEUP_LOOP_NUM
  b8:	14000313          	li	t1,320

000000bc <_WAIT_EFUSE_LOAD_AND_FLASH_WAKEUP_FINISH>:
_WAIT_EFUSE_LOAD_AND_FLASH_WAKEUP_FINISH():
/cygdrive/c/Users/SwaminathanK/Downloads/telink_b91m_driver_sdk/project/tlsr_riscv/B91/Debug_Demo/../../../../chip/B91/boot/cstartup_flash.S:347
_WAIT_EFUSE_LOAD_AND_FLASH_WAKEUP_FINISH:
	addi 	t0, t0 , 1
  bc:	0285                	c.addi	t0,1
/cygdrive/c/Users/SwaminathanK/Downloads/telink_b91m_driver_sdk/project/tlsr_riscv/B91/Debug_Demo/../../../../chip/B91/boot/cstartup_flash.S:348
	bgeu 	t1, t0 , _WAIT_EFUSE_LOAD_AND_FLASH_WAKEUP_FINISH
  be:	fe537fe3          	bgeu	t1,t0,bc <_WAIT_EFUSE_LOAD_AND_FLASH_WAKEUP_FINISH>

000000c2 <_MULTI_ADDRESS_BEGIN>:
_MULTI_ADDRESS_BEGIN():
/cygdrive/c/Users/SwaminathanK/Downloads/telink_b91m_driver_sdk/project/tlsr_riscv/B91/Debug_Demo/../../../../chip/B91/boot/cstartup_flash.S:358
	li		t1, 0x10
	sb		t1, 0x30b(t0)		 //0x8014030b  PB output  =  0x00
#endif

_MULTI_ADDRESS_BEGIN:
	lui		t0, 0x80140
  c2:	801402b7          	lui	t0,0x80140
/cygdrive/c/Users/SwaminathanK/Downloads/telink_b91m_driver_sdk/project/tlsr_riscv/B91/Debug_Demo/../../../../chip/B91/boot/cstartup_flash.S:359
	la		t1, g_pm_mspi_cfg
  c6:	1b800313          	li	t1,440
/cygdrive/c/Users/SwaminathanK/Downloads/telink_b91m_driver_sdk/project/tlsr_riscv/B91/Debug_Demo/../../../../chip/B91/boot/cstartup_flash.S:360
	lw		t2, 0(t1)
  ca:	00032383          	lw	t2,0(t1)
/cygdrive/c/Users/SwaminathanK/Downloads/telink_b91m_driver_sdk/project/tlsr_riscv/B91/Debug_Demo/../../../../chip/B91/boot/cstartup_flash.S:361
	sw		t2, 0x104(t0)			 //g_pm_mspi_cfg->0x80140104
  ce:	1072a223          	sw	t2,260(t0) # 80140104 <_DATA_LMA_START+0x6013d8ac>

000000d2 <_IZERO_BSS>:
_IZERO_BSS():
/cygdrive/c/Users/SwaminathanK/Downloads/telink_b91m_driver_sdk/project/tlsr_riscv/B91/Debug_Demo/../../../../chip/B91/boot/cstartup_flash.S:365

	/* Zero .bss section in sram */
_IZERO_BSS:
    lui    t0, 0
  d2:	000002b7          	lui	t0,0x0
/cygdrive/c/Users/SwaminathanK/Downloads/telink_b91m_driver_sdk/project/tlsr_riscv/B91/Debug_Demo/../../../../chip/B91/boot/cstartup_flash.S:366
    la     t2, _BSS_VMA_START
  d6:	00080397          	auipc	t2,0x80
  da:	f3a38393          	addi	t2,t2,-198 # 80010 <_BSS_VMA_START>
/cygdrive/c/Users/SwaminathanK/Downloads/telink_b91m_driver_sdk/project/tlsr_riscv/B91/Debug_Demo/../../../../chip/B91/boot/cstartup_flash.S:367
    la     t3, _BSS_VMA_END
  de:	00080e17          	auipc	t3,0x80
  e2:	f5ae0e13          	addi	t3,t3,-166 # 80038 <_BSS_VMA_END>

000000e6 <_IZERO_BSS_BEGIN>:
_IZERO_BSS_BEGIN():
/cygdrive/c/Users/SwaminathanK/Downloads/telink_b91m_driver_sdk/project/tlsr_riscv/B91/Debug_Demo/../../../../chip/B91/boot/cstartup_flash.S:369
_IZERO_BSS_BEGIN:
    bleu   t3, t2, _IZERO_AES
  e6:	01c3f663          	bgeu	t2,t3,f2 <_IZERO_AES>
/cygdrive/c/Users/SwaminathanK/Downloads/telink_b91m_driver_sdk/project/tlsr_riscv/B91/Debug_Demo/../../../../chip/B91/boot/cstartup_flash.S:370
    sw     t0, 0(t2)
  ea:	0053a023          	sw	t0,0(t2)
/cygdrive/c/Users/SwaminathanK/Downloads/telink_b91m_driver_sdk/project/tlsr_riscv/B91/Debug_Demo/../../../../chip/B91/boot/cstartup_flash.S:371
    addi   t2, t2, 4
  ee:	0391                	c.addi	t2,4
/cygdrive/c/Users/SwaminathanK/Downloads/telink_b91m_driver_sdk/project/tlsr_riscv/B91/Debug_Demo/../../../../chip/B91/boot/cstartup_flash.S:372
    j      _IZERO_BSS_BEGIN
  f0:	bfdd                	c.j	e6 <_IZERO_BSS_BEGIN>

000000f2 <_IZERO_AES>:
_IZERO_AES():
/cygdrive/c/Users/SwaminathanK/Downloads/telink_b91m_driver_sdk/project/tlsr_riscv/B91/Debug_Demo/../../../../chip/B91/boot/cstartup_flash.S:376

	/* Zero .aes section in sram */
_IZERO_AES:
    lui    t0, 0
  f2:	000002b7          	lui	t0,0x0
/cygdrive/c/Users/SwaminathanK/Downloads/telink_b91m_driver_sdk/project/tlsr_riscv/B91/Debug_Demo/../../../../chip/B91/boot/cstartup_flash.S:377
    la     t2, _AES_VMA_START
  f6:	00000397          	auipc	t2,0x0
  fa:	06238393          	addi	t2,t2,98 # 158 <_AES_VMA_END>
/cygdrive/c/Users/SwaminathanK/Downloads/telink_b91m_driver_sdk/project/tlsr_riscv/B91/Debug_Demo/../../../../chip/B91/boot/cstartup_flash.S:378
    la     t3, _AES_VMA_END
  fe:	00000e17          	auipc	t3,0x0
 102:	05ae0e13          	addi	t3,t3,90 # 158 <_AES_VMA_END>

00000106 <_IZERO_AES_BEGIN>:
_IZERO_AES_BEGIN():
/cygdrive/c/Users/SwaminathanK/Downloads/telink_b91m_driver_sdk/project/tlsr_riscv/B91/Debug_Demo/../../../../chip/B91/boot/cstartup_flash.S:380
_IZERO_AES_BEGIN:
    bleu   t3, t2, _IFILL_STK
 106:	01c3f663          	bgeu	t2,t3,112 <_IDATA_INIT>
/cygdrive/c/Users/SwaminathanK/Downloads/telink_b91m_driver_sdk/project/tlsr_riscv/B91/Debug_Demo/../../../../chip/B91/boot/cstartup_flash.S:381
    sw     t0, 0(t2)
 10a:	0053a023          	sw	t0,0(t2)
/cygdrive/c/Users/SwaminathanK/Downloads/telink_b91m_driver_sdk/project/tlsr_riscv/B91/Debug_Demo/../../../../chip/B91/boot/cstartup_flash.S:382
    addi   t2, t2, 4
 10e:	0391                	c.addi	t2,4
/cygdrive/c/Users/SwaminathanK/Downloads/telink_b91m_driver_sdk/project/tlsr_riscv/B91/Debug_Demo/../../../../chip/B91/boot/cstartup_flash.S:383
    j      _IZERO_AES_BEGIN
 110:	bfdd                	c.j	106 <_IZERO_AES_BEGIN>

00000112 <_IDATA_INIT>:
_IFILL_STK():
/cygdrive/c/Users/SwaminathanK/Downloads/telink_b91m_driver_sdk/project/tlsr_riscv/B91/Debug_Demo/../../../../chip/B91/boot/cstartup_flash.S:402
#endif

	/* Move Data from flash to sram */
//Read the flash as late as possible to lengthen the time from the wake up to the operation of the flash.
_IDATA_INIT:
    la     t1, _DATA_LMA_START
 112:	20002317          	auipc	t1,0x20002
 116:	74630313          	addi	t1,t1,1862 # 20002858 <_DATA_LMA_START>
/cygdrive/c/Users/SwaminathanK/Downloads/telink_b91m_driver_sdk/project/tlsr_riscv/B91/Debug_Demo/../../../../chip/B91/boot/cstartup_flash.S:403
    la     t2, _DATA_VMA_START
 11a:	00080397          	auipc	t2,0x80
 11e:	ee638393          	addi	t2,t2,-282 # 80000 <_DATA_VMA_START>
/cygdrive/c/Users/SwaminathanK/Downloads/telink_b91m_driver_sdk/project/tlsr_riscv/B91/Debug_Demo/../../../../chip/B91/boot/cstartup_flash.S:404
    la     t3, _DATA_VMA_END
 122:	00080e17          	auipc	t3,0x80
 126:	ee8e0e13          	addi	t3,t3,-280 # 8000a <_DATA_VMA_END>

0000012a <_IDATA_INIT_BEGIN>:
_IDATA_INIT_BEGIN():
/cygdrive/c/Users/SwaminathanK/Downloads/telink_b91m_driver_sdk/project/tlsr_riscv/B91/Debug_Demo/../../../../chip/B91/boot/cstartup_flash.S:406
_IDATA_INIT_BEGIN:
    bleu   t3, t2, _IMAIN_FUNC
 12a:	01c3f963          	bgeu	t2,t3,13c <_IMAIN_FUNC>
/cygdrive/c/Users/SwaminathanK/Downloads/telink_b91m_driver_sdk/project/tlsr_riscv/B91/Debug_Demo/../../../../chip/B91/boot/cstartup_flash.S:407
    lw     t0, 0(t1)
 12e:	00032283          	lw	t0,0(t1)
/cygdrive/c/Users/SwaminathanK/Downloads/telink_b91m_driver_sdk/project/tlsr_riscv/B91/Debug_Demo/../../../../chip/B91/boot/cstartup_flash.S:408
    sw     t0, 0(t2)
 132:	0053a023          	sw	t0,0(t2)
/cygdrive/c/Users/SwaminathanK/Downloads/telink_b91m_driver_sdk/project/tlsr_riscv/B91/Debug_Demo/../../../../chip/B91/boot/cstartup_flash.S:409
    addi   t1, t1, 4
 136:	0311                	c.addi	t1,4
/cygdrive/c/Users/SwaminathanK/Downloads/telink_b91m_driver_sdk/project/tlsr_riscv/B91/Debug_Demo/../../../../chip/B91/boot/cstartup_flash.S:410
    addi   t2, t2, 4
 138:	0391                	c.addi	t2,4
/cygdrive/c/Users/SwaminathanK/Downloads/telink_b91m_driver_sdk/project/tlsr_riscv/B91/Debug_Demo/../../../../chip/B91/boot/cstartup_flash.S:411
    j      _IDATA_INIT_BEGIN
 13a:	bfc5                	c.j	12a <_IDATA_INIT_BEGIN>

0000013c <_IMAIN_FUNC>:
_IMAIN_FUNC():
/cygdrive/c/Users/SwaminathanK/Downloads/telink_b91m_driver_sdk/project/tlsr_riscv/B91/Debug_Demo/../../../../chip/B91/boot/cstartup_flash.S:415

	/* Jump to the main function */
_IMAIN_FUNC:
    nop
 13c:	0001                	c.nop
/cygdrive/c/Users/SwaminathanK/Downloads/telink_b91m_driver_sdk/project/tlsr_riscv/B91/Debug_Demo/../../../../chip/B91/boot/cstartup_flash.S:417

    la     t0, main
 13e:	20001297          	auipc	t0,0x20001
 142:	3de28293          	addi	t0,t0,990 # 2000151c <main>
/cygdrive/c/Users/SwaminathanK/Downloads/telink_b91m_driver_sdk/project/tlsr_riscv/B91/Debug_Demo/../../../../chip/B91/boot/cstartup_flash.S:418
    jalr   t0
 146:	9282                	c.jalr	t0
/cygdrive/c/Users/SwaminathanK/Downloads/telink_b91m_driver_sdk/project/tlsr_riscv/B91/Debug_Demo/../../../../chip/B91/boot/cstartup_flash.S:420

    nop
 148:	0001                	c.nop
/cygdrive/c/Users/SwaminathanK/Downloads/telink_b91m_driver_sdk/project/tlsr_riscv/B91/Debug_Demo/../../../../chip/B91/boot/cstartup_flash.S:421
    nop
 14a:	0001                	c.nop
/cygdrive/c/Users/SwaminathanK/Downloads/telink_b91m_driver_sdk/project/tlsr_riscv/B91/Debug_Demo/../../../../chip/B91/boot/cstartup_flash.S:422
    nop
 14c:	0001                	c.nop
/cygdrive/c/Users/SwaminathanK/Downloads/telink_b91m_driver_sdk/project/tlsr_riscv/B91/Debug_Demo/../../../../chip/B91/boot/cstartup_flash.S:423
    nop
 14e:	0001                	c.nop
/cygdrive/c/Users/SwaminathanK/Downloads/telink_b91m_driver_sdk/project/tlsr_riscv/B91/Debug_Demo/../../../../chip/B91/boot/cstartup_flash.S:424
    nop
 150:	0001                	c.nop

00000152 <_IEND>:
_IEND():
/cygdrive/c/Users/SwaminathanK/Downloads/telink_b91m_driver_sdk/project/tlsr_riscv/B91/Debug_Demo/../../../../chip/B91/boot/cstartup_flash.S:426
_IEND:
    j    _IEND
 152:	a001                	c.j	152 <_IEND>

Disassembly of section .ram_code:

00000200 <delay_ms.constprop.2>:
stimer_get_tick():
/cygdrive/c/Users/SwaminathanK/Downloads/telink_b91m_driver_sdk/project/tlsr_riscv/B91/Debug_Demo/../../../../chip/B91/drivers/stimer.h:169
 * @return    system timer tick value.
**/
static inline unsigned int stimer_get_tick(void)
{

	return reg_system_tick;
     200:	801407b7          	lui	a5,0x80140
delay_ms():
/cygdrive/c/Users/SwaminathanK/Downloads/telink_b91m_driver_sdk/project/tlsr_riscv/B91/Debug_Demo/../../../../chip/B91/drivers/stimer.c:45
 * @return    none
*/
 void delay_ms(unsigned int millisec)
{
	unsigned long t = stimer_get_tick();
	while(!clock_time_exceed(t, millisec*1000)){
     204:	000c3737          	lui	a4,0xc3
stimer_get_tick():
/cygdrive/c/Users/SwaminathanK/Downloads/telink_b91m_driver_sdk/project/tlsr_riscv/B91/Debug_Demo/../../../../chip/B91/drivers/stimer.h:169
     208:	2007a603          	lw	a2,512(a5) # 80140200 <_DATA_LMA_START+0x6013d9a8>
     20c:	801406b7          	lui	a3,0x80140
delay_ms():
/cygdrive/c/Users/SwaminathanK/Downloads/telink_b91m_driver_sdk/project/tlsr_riscv/B91/Debug_Demo/../../../../chip/B91/drivers/stimer.c:45
     210:	50070713          	addi	a4,a4,1280 # c3500 <_STACK_TOP+0x23500>
stimer_get_tick():
/cygdrive/c/Users/SwaminathanK/Downloads/telink_b91m_driver_sdk/project/tlsr_riscv/B91/Debug_Demo/../../../../chip/B91/drivers/stimer.h:169
     214:	2006a783          	lw	a5,512(a3) # 80140200 <_DATA_LMA_START+0x6013d9a8>
clock_time_exceed():
/cygdrive/c/Users/SwaminathanK/Downloads/telink_b91m_driver_sdk/project/tlsr_riscv/B91/Debug_Demo/../../../../chip/B91/drivers/stimer.h:180
 * @param[in] us   - count by us.
 * @return    true - timeout, false - not timeout
 */
static inline _Bool clock_time_exceed(unsigned int ref, unsigned int us)
{
	return ((unsigned int)(stimer_get_tick() - ref) > us * SYSTEM_TIMER_TICK_1US);
     218:	8f91                	c.sub	a5,a2
delay_ms():
/cygdrive/c/Users/SwaminathanK/Downloads/telink_b91m_driver_sdk/project/tlsr_riscv/B91/Debug_Demo/../../../../chip/B91/drivers/stimer.c:45
     21a:	fef77de3          	bgeu	a4,a5,214 <delay_ms.constprop.2+0x14>
/cygdrive/c/Users/SwaminathanK/Downloads/telink_b91m_driver_sdk/project/tlsr_riscv/B91/Debug_Demo/../../../../chip/B91/drivers/stimer.c:47
	}
}
     21e:	8082                	c.jr	ra

00000220 <flash_send_addr>:
flash_send_addr():
/cygdrive/c/Users/SwaminathanK/Downloads/telink_b91m_driver_sdk/project/tlsr_riscv/B91/Debug_Demo/../../../../chip/B91/drivers/flash.c:113
 * @brief		This function serves to send flash address.
 * @param[in]	addr	- the flash address.
 * @return		none.
 */
_attribute_ram_code_sec_noinline_ static void flash_send_addr(unsigned int addr){
	mspi_write((unsigned char)(addr>>16));
     220:	5d05275b          	bfoz	a4,a0,23,16
mspi_write():
/cygdrive/c/Users/SwaminathanK/Downloads/telink_b91m_driver_sdk/project/tlsr_riscv/B91/Debug_Demo/../../../../chip/B91/drivers/mspi.h:120
 * @brief		This function servers to write the spi.
 * @param[in]	c	- the char need to be write.
 * @return		none.
 */
_attribute_ram_code_sec_ static inline void mspi_write(unsigned char c){
	reg_mspi_data = c;
     224:	801407b7          	lui	a5,0x80140
mspi_wait():
/cygdrive/c/Users/SwaminathanK/Downloads/telink_b91m_driver_sdk/project/tlsr_riscv/B91/Debug_Demo/../../../../chip/B91/drivers/mspi.h:46
	while(reg_mspi_status & FLD_MSPI_BUSY);
     228:	801406b7          	lui	a3,0x80140
mspi_write():
/cygdrive/c/Users/SwaminathanK/Downloads/telink_b91m_driver_sdk/project/tlsr_riscv/B91/Debug_Demo/../../../../chip/B91/drivers/mspi.h:120
	reg_mspi_data = c;
     22c:	10e78023          	sb	a4,256(a5) # 80140100 <_DATA_LMA_START+0x6013d8a8>
mspi_wait():
/cygdrive/c/Users/SwaminathanK/Downloads/telink_b91m_driver_sdk/project/tlsr_riscv/B91/Debug_Demo/../../../../chip/B91/drivers/mspi.h:46
	while(reg_mspi_status & FLD_MSPI_BUSY);
     230:	10268783          	lb	a5,258(a3) # 80140102 <_DATA_LMA_START+0x6013d8aa>
     234:	fe07fe5b          	bbs	a5,0,230 <flash_send_addr+0x10>
flash_send_addr():
/cygdrive/c/Users/SwaminathanK/Downloads/telink_b91m_driver_sdk/project/tlsr_riscv/B91/Debug_Demo/../../../../chip/B91/drivers/flash.c:115
	mspi_wait();
	mspi_write((unsigned char)(addr>>8));
     238:	3c8527db          	bfoz	a5,a0,15,8
mspi_wait():
/cygdrive/c/Users/SwaminathanK/Downloads/telink_b91m_driver_sdk/project/tlsr_riscv/B91/Debug_Demo/../../../../chip/B91/drivers/mspi.h:46
     23c:	80140737          	lui	a4,0x80140
mspi_write():
/cygdrive/c/Users/SwaminathanK/Downloads/telink_b91m_driver_sdk/project/tlsr_riscv/B91/Debug_Demo/../../../../chip/B91/drivers/mspi.h:120
	reg_mspi_data = c;
     240:	10f68023          	sb	a5,256(a3)
mspi_wait():
/cygdrive/c/Users/SwaminathanK/Downloads/telink_b91m_driver_sdk/project/tlsr_riscv/B91/Debug_Demo/../../../../chip/B91/drivers/mspi.h:46
	while(reg_mspi_status & FLD_MSPI_BUSY);
     244:	10270783          	lb	a5,258(a4) # 80140102 <_DATA_LMA_START+0x6013d8aa>
     248:	fe07fe5b          	bbs	a5,0,244 <flash_send_addr+0x24>
flash_send_addr():
/cygdrive/c/Users/SwaminathanK/Downloads/telink_b91m_driver_sdk/project/tlsr_riscv/B91/Debug_Demo/../../../../chip/B91/drivers/flash.c:117
	mspi_wait();
	mspi_write((unsigned char)(addr));
     24c:	0ff57513          	andi	a0,a0,255
mspi_wait():
/cygdrive/c/Users/SwaminathanK/Downloads/telink_b91m_driver_sdk/project/tlsr_riscv/B91/Debug_Demo/../../../../chip/B91/drivers/mspi.h:46
     250:	801406b7          	lui	a3,0x80140
mspi_write():
/cygdrive/c/Users/SwaminathanK/Downloads/telink_b91m_driver_sdk/project/tlsr_riscv/B91/Debug_Demo/../../../../chip/B91/drivers/mspi.h:120
	reg_mspi_data = c;
     254:	10a70023          	sb	a0,256(a4)
mspi_wait():
/cygdrive/c/Users/SwaminathanK/Downloads/telink_b91m_driver_sdk/project/tlsr_riscv/B91/Debug_Demo/../../../../chip/B91/drivers/mspi.h:46
	while(reg_mspi_status & FLD_MSPI_BUSY);
     258:	10268783          	lb	a5,258(a3) # 80140102 <_DATA_LMA_START+0x6013d8aa>
     25c:	fe07fe5b          	bbs	a5,0,258 <flash_send_addr+0x38>
flash_send_addr():
/cygdrive/c/Users/SwaminathanK/Downloads/telink_b91m_driver_sdk/project/tlsr_riscv/B91/Debug_Demo/../../../../chip/B91/drivers/flash.c:119
	mspi_wait();
}
     260:	00008067          	ret

00000264 <flash_send_cmd>:
mspi_high():
/cygdrive/c/Users/SwaminathanK/Downloads/telink_b91m_driver_sdk/project/tlsr_riscv/B91/Debug_Demo/../../../../chip/B91/drivers/mspi.h:95
	reg_mspi_fm |= FLD_MSPI_CSN;
     264:	801407b7          	lui	a5,0x80140
     268:	10178703          	lb	a4,257(a5) # 80140101 <_DATA_LMA_START+0x6013d8a9>
     26c:	0ff77713          	andi	a4,a4,255
     270:	01076713          	ori	a4,a4,16
     274:	10e780a3          	sb	a4,257(a5)
flash_send_cmd():
/cygdrive/c/Users/SwaminathanK/Downloads/telink_b91m_driver_sdk/project/tlsr_riscv/B91/Debug_Demo/../../../../chip/B91/drivers/flash.c:101
	CLOCK_DLY_10_CYC;
     278:	0001                	c.nop
     27a:	0001                	c.nop
     27c:	0001                	c.nop
     27e:	0001                	c.nop
     280:	0001                	c.nop
     282:	0001                	c.nop
     284:	0001                	c.nop
     286:	0001                	c.nop
     288:	0001                	c.nop
     28a:	0001                	c.nop
mspi_low():
/cygdrive/c/Users/SwaminathanK/Downloads/telink_b91m_driver_sdk/project/tlsr_riscv/B91/Debug_Demo/../../../../chip/B91/drivers/mspi.h:103
	reg_mspi_fm &= ~FLD_MSPI_CSN;
     28c:	10178683          	lb	a3,257(a5)
mspi_wait():
/cygdrive/c/Users/SwaminathanK/Downloads/telink_b91m_driver_sdk/project/tlsr_riscv/B91/Debug_Demo/../../../../chip/B91/drivers/mspi.h:46
	while(reg_mspi_status & FLD_MSPI_BUSY);
     290:	80140737          	lui	a4,0x80140
mspi_low():
/cygdrive/c/Users/SwaminathanK/Downloads/telink_b91m_driver_sdk/project/tlsr_riscv/B91/Debug_Demo/../../../../chip/B91/drivers/mspi.h:103
	reg_mspi_fm &= ~FLD_MSPI_CSN;
     294:	0ef6f693          	andi	a3,a3,239
     298:	10d780a3          	sb	a3,257(a5)
mspi_write():
/cygdrive/c/Users/SwaminathanK/Downloads/telink_b91m_driver_sdk/project/tlsr_riscv/B91/Debug_Demo/../../../../chip/B91/drivers/mspi.h:120
	reg_mspi_data = c;
     29c:	10a78023          	sb	a0,256(a5)
mspi_wait():
/cygdrive/c/Users/SwaminathanK/Downloads/telink_b91m_driver_sdk/project/tlsr_riscv/B91/Debug_Demo/../../../../chip/B91/drivers/mspi.h:46
	while(reg_mspi_status & FLD_MSPI_BUSY);
     2a0:	10270783          	lb	a5,258(a4) # 80140102 <_DATA_LMA_START+0x6013d8aa>
     2a4:	fe07fe5b          	bbs	a5,0,2a0 <flash_send_cmd+0x3c>
flash_send_cmd():
/cygdrive/c/Users/SwaminathanK/Downloads/telink_b91m_driver_sdk/project/tlsr_riscv/B91/Debug_Demo/../../../../chip/B91/drivers/flash.c:105
}
     2a8:	00008067          	ret

000002ac <clock_set_32k_tick>:
clock_set_32k_tick():
/cygdrive/c/Users/SwaminathanK/Downloads/telink_b91m_driver_sdk/project/tlsr_riscv/B91/Debug_Demo/../../../../chip/B91/drivers/clock.c:205
 * @param  tick - the value of to be set to 32k.
 * @return none.
 */
_attribute_ram_code_sec_noinline_ void clock_set_32k_tick(unsigned int tick)
{
	reg_system_ctrl |= FLD_SYSTEM_32K_WR_EN;//r_32k_wr = 1;
     2ac:	801406b7          	lui	a3,0x80140
     2b0:	20a68783          	lb	a5,522(a3) # 8014020a <_DATA_LMA_START+0x6013d9b2>
/cygdrive/c/Users/SwaminathanK/Downloads/telink_b91m_driver_sdk/project/tlsr_riscv/B91/Debug_Demo/../../../../chip/B91/drivers/clock.c:206
	while(reg_system_st & FLD_SYSTEM_RD_BUSY);
     2b4:	80140737          	lui	a4,0x80140
/cygdrive/c/Users/SwaminathanK/Downloads/telink_b91m_driver_sdk/project/tlsr_riscv/B91/Debug_Demo/../../../../chip/B91/drivers/clock.c:205
	reg_system_ctrl |= FLD_SYSTEM_32K_WR_EN;//r_32k_wr = 1;
     2b8:	0ff7f793          	andi	a5,a5,255
     2bc:	0017e793          	ori	a5,a5,1
     2c0:	20f68523          	sb	a5,522(a3)
/cygdrive/c/Users/SwaminathanK/Downloads/telink_b91m_driver_sdk/project/tlsr_riscv/B91/Debug_Demo/../../../../chip/B91/drivers/clock.c:206
	while(reg_system_st & FLD_SYSTEM_RD_BUSY);
     2c4:	20b70683          	lb	a3,523(a4) # 8014020b <_DATA_LMA_START+0x6013d9b3>
     2c8:	20b70793          	addi	a5,a4,523
     2cc:	fe66fc5b          	bbs	a3,6,2c4 <clock_set_32k_tick+0x18>
/cygdrive/c/Users/SwaminathanK/Downloads/telink_b91m_driver_sdk/project/tlsr_riscv/B91/Debug_Demo/../../../../chip/B91/drivers/clock.c:207
	reg_system_timer_set_32k = tick;
     2d0:	20a72623          	sw	a0,524(a4)
/cygdrive/c/Users/SwaminathanK/Downloads/telink_b91m_driver_sdk/project/tlsr_riscv/B91/Debug_Demo/../../../../chip/B91/drivers/clock.c:209

	reg_system_st = FLD_SYSTEM_CMD_SYNC;//cmd_sync = 1,trig write
     2d4:	4721                	c.li	a4,8
     2d6:	00e78023          	sb	a4,0(a5)
/cygdrive/c/Users/SwaminathanK/Downloads/telink_b91m_driver_sdk/project/tlsr_riscv/B91/Debug_Demo/../../../../chip/B91/drivers/clock.c:211
	//delay 10us
	__asm__("nop");__asm__("nop");__asm__("nop");__asm__("nop");
     2da:	0001                	c.nop
     2dc:	0001                	c.nop
     2de:	0001                	c.nop
     2e0:	0001                	c.nop
/cygdrive/c/Users/SwaminathanK/Downloads/telink_b91m_driver_sdk/project/tlsr_riscv/B91/Debug_Demo/../../../../chip/B91/drivers/clock.c:212
	__asm__("nop");__asm__("nop");__asm__("nop");__asm__("nop");
     2e2:	0001                	c.nop
     2e4:	0001                	c.nop
     2e6:	0001                	c.nop
     2e8:	0001                	c.nop
/cygdrive/c/Users/SwaminathanK/Downloads/telink_b91m_driver_sdk/project/tlsr_riscv/B91/Debug_Demo/../../../../chip/B91/drivers/clock.c:213
	__asm__("nop");__asm__("nop");__asm__("nop");__asm__("nop");
     2ea:	0001                	c.nop
     2ec:	0001                	c.nop
     2ee:	0001                	c.nop
     2f0:	0001                	c.nop
/cygdrive/c/Users/SwaminathanK/Downloads/telink_b91m_driver_sdk/project/tlsr_riscv/B91/Debug_Demo/../../../../chip/B91/drivers/clock.c:214
	__asm__("nop");__asm__("nop");__asm__("nop");__asm__("nop");
     2f2:	0001                	c.nop
     2f4:	0001                	c.nop
     2f6:	0001                	c.nop
     2f8:	00000013          	nop
/cygdrive/c/Users/SwaminathanK/Downloads/telink_b91m_driver_sdk/project/tlsr_riscv/B91/Debug_Demo/../../../../chip/B91/drivers/clock.c:215
	while(reg_system_st & FLD_SYSTEM_CMD_SYNC);//wait wr_busy = 0
     2fc:	801407b7          	lui	a5,0x80140
     300:	20b78703          	lb	a4,523(a5) # 8014020b <_DATA_LMA_START+0x6013d9b3>
     304:	fe377e5b          	bbs	a4,3,300 <clock_set_32k_tick+0x54>
/cygdrive/c/Users/SwaminathanK/Downloads/telink_b91m_driver_sdk/project/tlsr_riscv/B91/Debug_Demo/../../../../chip/B91/drivers/clock.c:217

}
     308:	00008067          	ret

0000030c <analog_read_reg32.constprop.7>:
core_interrupt_disable():
C:\Users\SwaminathanK\Downloads\telink_b91m_driver_sdk\chip\B91\drivers/core.h:114
 * @return  r - the MIE bit value of machine status register(MSTATUS).
 * @note  this function must be used when the system wants to disable all the interrupt.
 * @return     none
 */
static inline unsigned int core_interrupt_disable(void){
	unsigned int r = read_csr (NDS_MSTATUS)&FLD_MSTATUS_MIE;
     30c:	300027f3          	csrr	a5,mstatus
     310:	8ba1                	c.andi	a5,8
C:\Users\SwaminathanK\Downloads\telink_b91m_driver_sdk\chip\B91\drivers/core.h:115
	if(r)
     312:	c789                	c.beqz	a5,31c <analog_read_reg32.constprop.7+0x10>
C:\Users\SwaminathanK\Downloads\telink_b91m_driver_sdk\chip\B91\drivers/core.h:117
	{
		clear_csr(NDS_MSTATUS,FLD_MSTATUS_MIE);//global interrupts disable
     314:	30047773          	csrrci	a4,mstatus,8
C:\Users\SwaminathanK\Downloads\telink_b91m_driver_sdk\chip\B91\drivers/core.h:118
        fence_iorw; /* Hardware may change this value, fence IO ensures that software changes are valid. */
     318:	0ff0000f          	fence
analog_read_reg32():
/cygdrive/c/Users/SwaminathanK/Downloads/telink_b91m_driver_sdk/project/tlsr_riscv/B91/Debug_Demo/../../../../chip/B91/drivers/analog.c:176
 * @return     the result of read.
 */
_attribute_ram_code_sec_noinline_ unsigned int analog_read_reg32(unsigned char addr)
{
	unsigned int r=core_interrupt_disable();
	reg_ana_len = 4;
     31c:	80140737          	lui	a4,0x80140
     320:	00400693          	li	a3,4
     324:	18d701a3          	sb	a3,387(a4) # 80140183 <_DATA_LMA_START+0x6013d92b>
/cygdrive/c/Users/SwaminathanK/Downloads/telink_b91m_driver_sdk/project/tlsr_riscv/B91/Debug_Demo/../../../../chip/B91/drivers/analog.c:177
	reg_ana_addr = addr;
     328:	06000693          	li	a3,96
     32c:	18d70023          	sb	a3,384(a4)
/cygdrive/c/Users/SwaminathanK/Downloads/telink_b91m_driver_sdk/project/tlsr_riscv/B91/Debug_Demo/../../../../chip/B91/drivers/analog.c:178
	reg_ana_ctrl = FLD_ANA_CYC;
     330:	04000613          	li	a2,64
analog_wait():
/cygdrive/c/Users/SwaminathanK/Downloads/telink_b91m_driver_sdk/project/tlsr_riscv/B91/Debug_Demo/../../../../chip/B91/drivers/analog.c:432
/**
 * @brief      This function serves to judge whether analog write/read is busy .
 * @return     none.
 */
static inline void analog_wait(){
	while(reg_ana_ctrl & FLD_ANA_BUSY){}
     334:	801406b7          	lui	a3,0x80140
analog_read_reg32():
/cygdrive/c/Users/SwaminathanK/Downloads/telink_b91m_driver_sdk/project/tlsr_riscv/B91/Debug_Demo/../../../../chip/B91/drivers/analog.c:178
	reg_ana_ctrl = FLD_ANA_CYC;
     338:	18c70123          	sb	a2,386(a4)
analog_wait():
/cygdrive/c/Users/SwaminathanK/Downloads/telink_b91m_driver_sdk/project/tlsr_riscv/B91/Debug_Demo/../../../../chip/B91/drivers/analog.c:432
	while(reg_ana_ctrl & FLD_ANA_BUSY){}
     33c:	18268703          	lb	a4,386(a3) # 80140182 <_DATA_LMA_START+0x6013d92a>
     340:	fe777e5b          	bbs	a4,7,33c <analog_read_reg32.constprop.7+0x30>
analog_read_reg32():
/cygdrive/c/Users/SwaminathanK/Downloads/telink_b91m_driver_sdk/project/tlsr_riscv/B91/Debug_Demo/../../../../chip/B91/drivers/analog.c:180
	unsigned int data=reg_ana_addr_data32;
     344:	1846a503          	lw	a0,388(a3)
core_restore_interrupt():
C:\Users\SwaminathanK\Downloads\telink_b91m_driver_sdk\chip\B91\drivers/core.h:131
 * this  parameter must be the return value of the core_interrupt_disable function.
 * @return     0
 * @note this function must be used when the system wants to restore all the interrupt.
 */
static inline unsigned int core_restore_interrupt(unsigned int en){
	if(en)
     348:	00078663          	beqz	a5,354 <analog_read_reg32.constprop.7+0x48>
C:\Users\SwaminathanK\Downloads\telink_b91m_driver_sdk\chip\B91\drivers/core.h:133
	{
		set_csr(NDS_MSTATUS,en);//global interrupts enable
     34c:	3007a7f3          	csrrs	a5,mstatus,a5
C:\Users\SwaminathanK\Downloads\telink_b91m_driver_sdk\chip\B91\drivers/core.h:134
        fence_iorw; /* Hardware may change this value, fence IO ensures that software changes are valid. */
     350:	0ff0000f          	fence
analog_read_reg32():
/cygdrive/c/Users/SwaminathanK/Downloads/telink_b91m_driver_sdk/project/tlsr_riscv/B91/Debug_Demo/../../../../chip/B91/drivers/analog.c:183
}
     354:	00008067          	ret

00000358 <clock_get_32k_tick>:
clock_get_32k_tick():
/cygdrive/c/Users/SwaminathanK/Downloads/telink_b91m_driver_sdk/project/tlsr_riscv/B91/Debug_Demo/../../../../chip/B91/drivers/clock.c:242
 * modify by yi.bao,confirmed by guangjun at 20210105
 * Use digital register way to get 32k tick may read error tick,cause the wakeup time is
 * incorrect with the setting time,the sleep time will very little or very big,will not wakeup on time.
 */
_attribute_ram_code_sec_noinline_ unsigned int clock_get_32k_tick(void)
{
     358:	1141                	c.addi	sp,-16
     35a:	c422                	c.swsp	s0,8(sp)
     35c:	c606                	c.swsp	ra,12(sp)
/cygdrive/c/Users/SwaminathanK/Downloads/telink_b91m_driver_sdk/project/tlsr_riscv/B91/Debug_Demo/../../../../chip/B91/drivers/clock.c:250

    //In the system timer auto mode, when writing a tick value to the system tick, if the writing operation overlaps
    //with the 32k rising edge, the writing operation will be unsuccessful. When reading the 32k tick value,
    //first wait for the rising edge to pass to avoid overlap with the subsequent write tick value operation.
    //modify by weihua.zhang, confirmed by jianzhi at 20210126
	t0 = analog_read_reg32(0x60);
     35e:	377d                	c.jal	30c <analog_read_reg32.constprop.7>
     360:	00a00433          	add	s0,zero,a0
/cygdrive/c/Users/SwaminathanK/Downloads/telink_b91m_driver_sdk/project/tlsr_riscv/B91/Debug_Demo/../../../../chip/B91/drivers/clock.c:253
	while(1)
	{
		t1 = analog_read_reg32(0x60);
     364:	fa9ff0ef          	jal	ra,30c <analog_read_reg32.constprop.7>
/cygdrive/c/Users/SwaminathanK/Downloads/telink_b91m_driver_sdk/project/tlsr_riscv/B91/Debug_Demo/../../../../chip/B91/drivers/clock.c:254
		if((t1-t0) == 1)
     368:	40850733          	sub	a4,a0,s0
/cygdrive/c/Users/SwaminathanK/Downloads/telink_b91m_driver_sdk/project/tlsr_riscv/B91/Debug_Demo/../../../../chip/B91/drivers/clock.c:253
		t1 = analog_read_reg32(0x60);
     36c:	842a                	c.mv	s0,a0
/cygdrive/c/Users/SwaminathanK/Downloads/telink_b91m_driver_sdk/project/tlsr_riscv/B91/Debug_Demo/../../../../chip/B91/drivers/clock.c:254
		if((t1-t0) == 1)
     36e:	be176b5b          	bnec	a4,1,364 <clock_get_32k_tick+0xc>
/cygdrive/c/Users/SwaminathanK/Downloads/telink_b91m_driver_sdk/project/tlsr_riscv/B91/Debug_Demo/../../../../chip/B91/drivers/clock.c:263
		else if(t1-t0)
		{
			t0 = t1;
		}
	}
}
     372:	40b2                	c.lwsp	ra,12(sp)
     374:	4422                	c.lwsp	s0,8(sp)
     376:	0141                	c.addi	sp,16
     378:	00008067          	ret

0000037c <pm_stimer_recover>:
pm_stimer_recover():
D:/release_sdk/v2_3_0_2/telink_b91m_driver_src/chip/B91/drivers/lib/src/pm.c:113
     37c:	1141                	c.addi	sp,-16
D:/release_sdk/v2_3_0_2/telink_b91m_driver_src/chip/B91/drivers/lib/src/pm.c:115
     37e:	80140737          	lui	a4,0x80140
D:/release_sdk/v2_3_0_2/telink_b91m_driver_src/chip/B91/drivers/lib/src/pm.c:113
     382:	c606                	c.swsp	ra,12(sp)
D:/release_sdk/v2_3_0_2/telink_b91m_driver_src/chip/B91/drivers/lib/src/pm.c:115
     384:	4789                	c.li	a5,2
     386:	20f70c23          	sb	a5,536(a4) # 80140218 <_DATA_LMA_START+0x6013d9c0>
D:/release_sdk/v2_3_0_2/telink_b91m_driver_src/chip/B91/drivers/lib/src/pm.c:116
     38a:	20a70783          	lb	a5,522(a4)
     38e:	0ff7f793          	andi	a5,a5,255
     392:	00c7e793          	ori	a5,a5,12
     396:	20f70523          	sb	a5,522(a4)
D:/release_sdk/v2_3_0_2/telink_b91m_driver_src/chip/B91/drivers/lib/src/pm.c:117
     39a:	3f7d                	c.jal	358 <clock_get_32k_tick>
D:/release_sdk/v2_3_0_2/telink_b91m_driver_src/chip/B91/drivers/lib/src/pm.c:118
     39c:	000007b7          	lui	a5,0x0
     3a0:	15878713          	addi	a4,a5,344 # 158 <_AES_VMA_END>
     3a4:	00474703          	lbu	a4,4(a4)
     3a8:	15878793          	addi	a5,a5,344
     3ac:	cf01                	c.beqz	a4,3c4 <pm_stimer_recover+0x48>
D:/release_sdk/v2_3_0_2/telink_b91m_driver_src/chip/B91/drivers/lib/src/pm.c:119
     3ae:	4b98                	c.lw	a4,16(a5)
     3b0:	5f90                	c.lw	a2,56(a5)
     3b2:	40e50733          	sub	a4,a0,a4
     3b6:	47d4                	c.lw	a3,12(a5)
     3b8:	0705                	c.addi	a4,1
     3ba:	8315                	c.srli	a4,0x5
     3bc:	c4c716ff          	maddr32	a3,a4,a2
     3c0:	c794                	c.sw	a3,8(a5)
     3c2:	a829                	c.j	3dc <pm_stimer_recover+0x60>
D:/release_sdk/v2_3_0_2/telink_b91m_driver_src/chip/B91/drivers/lib/src/pm.c:121
     3c4:	4b98                	c.lw	a4,16(a5)
     3c6:	5f94                	c.lw	a3,56(a5)
     3c8:	40e50733          	sub	a4,a0,a4
     3cc:	0705                	c.addi	a4,1
     3ce:	02d70733          	mul	a4,a4,a3
     3d2:	47d4                	c.lw	a3,12(a5)
     3d4:	8315                	c.srli	a4,0x5
     3d6:	9736                	c.add	a4,a3
     3d8:	00e7a423          	sw	a4,8(a5)
D:/release_sdk/v2_3_0_2/telink_b91m_driver_src/chip/B91/drivers/lib/src/pm.c:124
     3dc:	4b98                	c.lw	a4,16(a5)
D:/release_sdk/v2_3_0_2/telink_b91m_driver_src/chip/B91/drivers/lib/src/pm.c:125
     3de:	4794                	c.lw	a3,8(a5)
D:/release_sdk/v2_3_0_2/telink_b91m_driver_src/chip/B91/drivers/lib/src/pm.c:124
     3e0:	40e50733          	sub	a4,a0,a4
     3e4:	0705                	c.addi	a4,1
D:/release_sdk/v2_3_0_2/telink_b91m_driver_src/chip/B91/drivers/lib/src/pm.c:123
     3e6:	0505                	c.addi	a0,1
D:/release_sdk/v2_3_0_2/telink_b91m_driver_src/chip/B91/drivers/lib/src/pm.c:125
     3e8:	0685                	c.addi	a3,1
D:/release_sdk/v2_3_0_2/telink_b91m_driver_src/chip/B91/drivers/lib/src/pm.c:123
     3ea:	d788                	c.sw	a0,40(a5)
D:/release_sdk/v2_3_0_2/telink_b91m_driver_src/chip/B91/drivers/lib/src/pm.c:124
     3ec:	02e7a223          	sw	a4,36(a5)
D:/release_sdk/v2_3_0_2/telink_b91m_driver_src/chip/B91/drivers/lib/src/pm.c:128
     3f0:	80140637          	lui	a2,0x80140
D:/release_sdk/v2_3_0_2/telink_b91m_driver_src/chip/B91/drivers/lib/src/pm.c:125
     3f4:	801407b7          	lui	a5,0x80140
     3f8:	20d7a023          	sw	a3,512(a5) # 80140200 <_DATA_LMA_START+0x6013d9a8>
D:/release_sdk/v2_3_0_2/telink_b91m_driver_src/chip/B91/drivers/lib/src/pm.c:128
     3fc:	20b60783          	lb	a5,523(a2) # 8014020b <_DATA_LMA_START+0x6013d9b3>
     400:	be77fe5b          	bbc	a5,7,3fc <pm_stimer_recover+0x80>
D:/release_sdk/v2_3_0_2/telink_b91m_driver_src/chip/B91/drivers/lib/src/pm.c:129
     404:	20060c23          	sb	zero,536(a2)
D:/release_sdk/v2_3_0_2/telink_b91m_driver_src/chip/B91/drivers/lib/src/pm.c:142
     408:	40b2                	c.lwsp	ra,12(sp)
     40a:	0141                	c.addi	sp,16
     40c:	00008067          	ret

00000410 <plic_exit_critical_sec>:
plic_exit_critical_sec():
D:/release_sdk/v2_3_0_2/telink_b91m_driver_src/chip/B91/drivers/lib/src/plic.c:80
     410:	000007b7          	lui	a5,0x0
     414:	15878793          	addi	a5,a5,344 # 158 <_AES_VMA_END>
     418:	03c78783          	lb	a5,60(a5)
     41c:	0ff7f793          	andi	a5,a5,255
     420:	c795                	c.beqz	a5,44c <plic_exit_critical_sec+0x3c>
     422:	c50d                	c.beqz	a0,44c <plic_exit_critical_sec+0x3c>
core_interrupt_disable():
D:\release_sdk\v2_3_0_2\telink_b91m_driver_src\chip\B91\drivers/core.h:114
     424:	300027f3          	csrr	a5,mstatus
     428:	8ba1                	c.andi	a5,8
     42a:	0ff5f593          	andi	a1,a1,255
D:\release_sdk\v2_3_0_2\telink_b91m_driver_src\chip\B91\drivers/core.h:115
     42e:	c78d                	c.beqz	a5,458 <plic_exit_critical_sec+0x48>
D:\release_sdk\v2_3_0_2\telink_b91m_driver_src\chip\B91\drivers/core.h:117
     430:	30047773          	csrrci	a4,mstatus,8
D:\release_sdk\v2_3_0_2\telink_b91m_driver_src\chip\B91\drivers/core.h:118
     434:	0ff0000f          	fence
plic_set_threshold():
D:\release_sdk\v2_3_0_2\telink_b91m_driver_src\chip\B91\drivers/lib/include/plic.h:341
     438:	e4200737          	lui	a4,0xe4200
     43c:	c30c                	c.sw	a1,0(a4)
D:\release_sdk\v2_3_0_2\telink_b91m_driver_src\chip\B91\drivers/lib/include/plic.h:342
     43e:	0ff0000f          	fence
core_restore_interrupt():
D:\release_sdk\v2_3_0_2\telink_b91m_driver_src\chip\B91\drivers/core.h:133
     442:	3007a7f3          	csrrs	a5,mstatus,a5
D:\release_sdk\v2_3_0_2\telink_b91m_driver_src\chip\B91\drivers/core.h:134
     446:	0ff0000f          	fence
     44a:	8082                	c.jr	ra
D:\release_sdk\v2_3_0_2\telink_b91m_driver_src\chip\B91\drivers/core.h:131
     44c:	cd81                	c.beqz	a1,464 <plic_exit_critical_sec+0x54>
D:\release_sdk\v2_3_0_2\telink_b91m_driver_src\chip\B91\drivers/core.h:133
     44e:	3005a5f3          	csrrs	a1,mstatus,a1
D:\release_sdk\v2_3_0_2\telink_b91m_driver_src\chip\B91\drivers/core.h:134
     452:	0ff0000f          	fence
     456:	8082                	c.jr	ra
plic_set_threshold():
D:\release_sdk\v2_3_0_2\telink_b91m_driver_src\chip\B91\drivers/lib/include/plic.h:341
     458:	e42007b7          	lui	a5,0xe4200
     45c:	00b7a023          	sw	a1,0(a5) # e4200000 <_DATA_LMA_START+0xc41fd7a8>
D:\release_sdk\v2_3_0_2\telink_b91m_driver_src\chip\B91\drivers/lib/include/plic.h:342
     460:	0ff0000f          	fence
plic_exit_critical_sec():
D:/release_sdk/v2_3_0_2/telink_b91m_driver_src/chip/B91/drivers/lib/src/plic.c:88
     464:	00008067          	ret

00000468 <plic_enter_critical_sec>:
plic_enter_critical_sec():
D:/release_sdk/v2_3_0_2/telink_b91m_driver_src/chip/B91/drivers/lib/src/plic.c:50
     468:	000007b7          	lui	a5,0x0
     46c:	15878793          	addi	a5,a5,344 # 158 <_AES_VMA_END>
     470:	03c78783          	lb	a5,60(a5)
     474:	0ff7f793          	andi	a5,a5,255
     478:	cb85                	c.beqz	a5,4a8 <plic_enter_critical_sec+0x40>
     47a:	c51d                	c.beqz	a0,4a8 <plic_enter_critical_sec+0x40>
D:/release_sdk/v2_3_0_2/telink_b91m_driver_src/chip/B91/drivers/lib/src/plic.c:56
     47c:	e4200737          	lui	a4,0xe4200
     480:	4308                	c.lw	a0,0(a4)
D:/release_sdk/v2_3_0_2/telink_b91m_driver_src/chip/B91/drivers/lib/src/plic.c:57
     482:	04b57163          	bgeu	a0,a1,4c4 <plic_enter_critical_sec+0x5c>
core_interrupt_disable():
D:\release_sdk\v2_3_0_2\telink_b91m_driver_src\chip\B91\drivers/core.h:114
     486:	300027f3          	csrr	a5,mstatus
     48a:	8ba1                	c.andi	a5,8
D:\release_sdk\v2_3_0_2\telink_b91m_driver_src\chip\B91\drivers/core.h:115
     48c:	cb85                	c.beqz	a5,4bc <plic_enter_critical_sec+0x54>
D:\release_sdk\v2_3_0_2\telink_b91m_driver_src\chip\B91\drivers/core.h:117
     48e:	300476f3          	csrrci	a3,mstatus,8
D:\release_sdk\v2_3_0_2\telink_b91m_driver_src\chip\B91\drivers/core.h:118
     492:	0ff0000f          	fence
plic_set_threshold():
D:\release_sdk\v2_3_0_2\telink_b91m_driver_src\chip\B91\drivers/lib/include/plic.h:341
     496:	c30c                	c.sw	a1,0(a4)
D:\release_sdk\v2_3_0_2\telink_b91m_driver_src\chip\B91\drivers/lib/include/plic.h:342
     498:	0ff0000f          	fence
core_restore_interrupt():
D:\release_sdk\v2_3_0_2\telink_b91m_driver_src\chip\B91\drivers/core.h:133
     49c:	3007a7f3          	csrrs	a5,mstatus,a5
D:\release_sdk\v2_3_0_2\telink_b91m_driver_src\chip\B91\drivers/core.h:134
     4a0:	0ff0000f          	fence
     4a4:	00008067          	ret
core_interrupt_disable():
D:\release_sdk\v2_3_0_2\telink_b91m_driver_src\chip\B91\drivers/core.h:114
     4a8:	30002573          	csrr	a0,mstatus
     4ac:	8921                	c.andi	a0,8
D:\release_sdk\v2_3_0_2\telink_b91m_driver_src\chip\B91\drivers/core.h:115
     4ae:	c919                	c.beqz	a0,4c4 <plic_enter_critical_sec+0x5c>
D:\release_sdk\v2_3_0_2\telink_b91m_driver_src\chip\B91\drivers/core.h:117
     4b0:	300477f3          	csrrci	a5,mstatus,8
D:\release_sdk\v2_3_0_2\telink_b91m_driver_src\chip\B91\drivers/core.h:118
     4b4:	0ff0000f          	fence
     4b8:	00008067          	ret
plic_set_threshold():
D:\release_sdk\v2_3_0_2\telink_b91m_driver_src\chip\B91\drivers/lib/include/plic.h:341
     4bc:	00b72023          	sw	a1,0(a4) # e4200000 <_DATA_LMA_START+0xc41fd7a8>
D:\release_sdk\v2_3_0_2\telink_b91m_driver_src\chip\B91\drivers/lib/include/plic.h:342
     4c0:	0ff0000f          	fence
plic_enter_critical_sec():
D:/release_sdk/v2_3_0_2/telink_b91m_driver_src/chip/B91/drivers/lib/src/plic.c:67
     4c4:	00008067          	ret

000004c8 <flash_mspi_read_ram>:
flash_mspi_read_ram():
/cygdrive/c/Users/SwaminathanK/Downloads/telink_b91m_driver_sdk/project/tlsr_riscv/B91/Debug_Demo/../../../../chip/B91/drivers/flash.c:153
 * @param[out]  data		- the start address of the data buffer(ram address).
 * @param[in]   data_len	- the length(in byte, must be above 0) of content needs to read out.
 * @return 		none.
 */
_attribute_ram_code_sec_noinline_ void flash_mspi_read_ram(flash_command_e cmd, unsigned long addr, unsigned char addr_en, unsigned char dummy_cnt, unsigned char *data, unsigned long data_len)
{
     4c8:	7179                	c.addi16sp	sp,-48
     4ca:	d226                	c.swsp	s1,36(sp)
/cygdrive/c/Users/SwaminathanK/Downloads/telink_b91m_driver_sdk/project/tlsr_riscv/B91/Debug_Demo/../../../../chip/B91/drivers/flash.c:154
	unsigned int r=plic_enter_critical_sec(s_flash_preempt_config.preempt_en,s_flash_preempt_config.threshold);
     4cc:	000004b7          	lui	s1,0x0
     4d0:	15848493          	addi	s1,s1,344 # 158 <_AES_VMA_END>
/cygdrive/c/Users/SwaminathanK/Downloads/telink_b91m_driver_sdk/project/tlsr_riscv/B91/Debug_Demo/../../../../chip/B91/drivers/flash.c:153
{
     4d4:	d04a                	c.swsp	s2,32(sp)
     4d6:	c65e                	c.swsp	s7,12(sp)
     4d8:	892a                	c.mv	s2,a0
     4da:	8bae                	c.mv	s7,a1
/cygdrive/c/Users/SwaminathanK/Downloads/telink_b91m_driver_sdk/project/tlsr_riscv/B91/Debug_Demo/../../../../chip/B91/drivers/flash.c:154
	unsigned int r=plic_enter_critical_sec(s_flash_preempt_config.preempt_en,s_flash_preempt_config.threshold);
     4dc:	0404c503          	lbu	a0,64(s1)
     4e0:	0414c583          	lbu	a1,65(s1)
/cygdrive/c/Users/SwaminathanK/Downloads/telink_b91m_driver_sdk/project/tlsr_riscv/B91/Debug_Demo/../../../../chip/B91/drivers/flash.c:153
{
     4e4:	d422                	c.swsp	s0,40(sp)
     4e6:	ce4e                	c.swsp	s3,28(sp)
     4e8:	cc52                	c.swsp	s4,24(sp)
     4ea:	ca56                	c.swsp	s5,20(sp)
     4ec:	c85a                	c.swsp	s6,16(sp)
     4ee:	d606                	c.swsp	ra,44(sp)
     4f0:	8b32                	c.mv	s6,a2
     4f2:	8ab6                	c.mv	s5,a3
     4f4:	843a                	c.mv	s0,a4
     4f6:	8a3e                	c.mv	s4,a5
/cygdrive/c/Users/SwaminathanK/Downloads/telink_b91m_driver_sdk/project/tlsr_riscv/B91/Debug_Demo/../../../../chip/B91/drivers/flash.c:154
	unsigned int r=plic_enter_critical_sec(s_flash_preempt_config.preempt_en,s_flash_preempt_config.threshold);
     4f8:	f71ff0ef          	jal	ra,468 <plic_enter_critical_sec>
mspi_wait():
/cygdrive/c/Users/SwaminathanK/Downloads/telink_b91m_driver_sdk/project/tlsr_riscv/B91/Debug_Demo/../../../../chip/B91/drivers/mspi.h:46
     4fc:	80140637          	lui	a2,0x80140
flash_mspi_read_ram():
/cygdrive/c/Users/SwaminathanK/Downloads/telink_b91m_driver_sdk/project/tlsr_riscv/B91/Debug_Demo/../../../../chip/B91/drivers/flash.c:154
     500:	00a009b3          	add	s3,zero,a0
mspi_wait():
/cygdrive/c/Users/SwaminathanK/Downloads/telink_b91m_driver_sdk/project/tlsr_riscv/B91/Debug_Demo/../../../../chip/B91/drivers/mspi.h:46
     504:	10260783          	lb	a5,258(a2) # 80140102 <_DATA_LMA_START+0x6013d8aa>
     508:	fe07fe5b          	bbs	a5,0,504 <flash_mspi_read_ram+0x3c>
mspi_high():
/cygdrive/c/Users/SwaminathanK/Downloads/telink_b91m_driver_sdk/project/tlsr_riscv/B91/Debug_Demo/../../../../chip/B91/drivers/mspi.h:95
	reg_mspi_fm |= FLD_MSPI_CSN;
     50c:	10160783          	lb	a5,257(a2)
gpio_get_level():
/cygdrive/c/Users/SwaminathanK/Downloads/telink_b91m_driver_sdk/project/tlsr_riscv/B91/Debug_Demo/../../../../chip/B91/drivers/gpio.h:263
 * @return    1: the pin's level is high.
 * 			  0: the pin's level is low.
 */
static inline _Bool gpio_get_level(gpio_pin_e pin)
{
	return BM_IS_SET(reg_gpio_in(pin), pin & 0xff);
     510:	80140737          	lui	a4,0x80140
mspi_high():
/cygdrive/c/Users/SwaminathanK/Downloads/telink_b91m_driver_sdk/project/tlsr_riscv/B91/Debug_Demo/../../../../chip/B91/drivers/mspi.h:95
     514:	0ff7f793          	andi	a5,a5,255
     518:	0107e793          	ori	a5,a5,16
     51c:	10f600a3          	sb	a5,257(a2)
gpio_get_level():
/cygdrive/c/Users/SwaminathanK/Downloads/telink_b91m_driver_sdk/project/tlsr_riscv/B91/Debug_Demo/../../../../chip/B91/drivers/gpio.h:263
     520:	32870783          	lb	a5,808(a4) # 80140328 <_DATA_LMA_START+0x6013dad0>
mspi_stop_xip():
/cygdrive/c/Users/SwaminathanK/Downloads/telink_b91m_driver_sdk/project/tlsr_riscv/B91/Debug_Demo/../../../../chip/B91/drivers/mspi.h:150
 */
_attribute_ram_code_sec_ static inline void mspi_stop_xip(void)
{
	mspi_wait();	//wait xip busy=0
	mspi_high();	//mspi_cn=1, stop xip read
	while(gpio_get_level(GPIO_PF3) == 0);	//wait cn=1
     524:	be37fe5b          	bbc	a5,3,520 <flash_mspi_read_ram+0x58>
mspi_fm_write_en():
/cygdrive/c/Users/SwaminathanK/Downloads/telink_b91m_driver_sdk/project/tlsr_riscv/B91/Debug_Demo/../../../../chip/B91/drivers/mspi.h:78
	reg_mspi_fm &= ~FLD_MSPI_RD_MODE;
     528:	10170783          	lb	a5,257(a4)
flash_mspi_read_ram():
/cygdrive/c/Users/SwaminathanK/Downloads/telink_b91m_driver_sdk/project/tlsr_riscv/B91/Debug_Demo/../../../../chip/B91/drivers/flash.c:159
	mspi_stop_xip();
	/*Flash single line mode does not distinguish between mspi read and mspi write.This is just to be compatible with single line, dual line and quad line.*/
	mspi_fm_write_en();			/* write mode */
	mspi_fm_data_line(MSPI_SINGLE_LINE);
	flash_send_cmd(cmd);
     52c:	854a                	c.mv	a0,s2
mspi_fm_write_en():
/cygdrive/c/Users/SwaminathanK/Downloads/telink_b91m_driver_sdk/project/tlsr_riscv/B91/Debug_Demo/../../../../chip/B91/drivers/mspi.h:78
     52e:	0fd7f793          	andi	a5,a5,253
     532:	10f700a3          	sb	a5,257(a4)
mspi_fm_data_line():
/cygdrive/c/Users/SwaminathanK/Downloads/telink_b91m_driver_sdk/project/tlsr_riscv/B91/Debug_Demo/../../../../chip/B91/drivers/mspi.h:87
	reg_mspi_fm = (reg_mspi_fm & (~FLD_MSPI_DATA_LINE)) | line;
     536:	10170783          	lb	a5,257(a4)
     53a:	0f37f793          	andi	a5,a5,243
     53e:	10f700a3          	sb	a5,257(a4)
flash_mspi_read_ram():
/cygdrive/c/Users/SwaminathanK/Downloads/telink_b91m_driver_sdk/project/tlsr_riscv/B91/Debug_Demo/../../../../chip/B91/drivers/flash.c:159
     542:	330d                	c.jal	264 <flash_send_cmd>
/cygdrive/c/Users/SwaminathanK/Downloads/telink_b91m_driver_sdk/project/tlsr_riscv/B91/Debug_Demo/../../../../chip/B91/drivers/flash.c:164
	if(cmd == FLASH_X4READ_CMD)
	{
		mspi_fm_data_line(MSPI_QUAD_LINE);
	}
	if(addr_en)
     544:	0e0b1e63          	bnez	s6,640 <flash_mspi_read_ram+0x178>
/cygdrive/c/Users/SwaminathanK/Downloads/telink_b91m_driver_sdk/project/tlsr_riscv/B91/Debug_Demo/../../../../chip/B91/drivers/flash.c:168
	{
		flash_send_addr(addr);
	}
	for(unsigned int i = 0; i < dummy_cnt; ++i)
     548:	020a8063          	beqz	s5,568 <flash_mspi_read_ram+0xa0>
     54c:	00000713          	li	a4,0
mspi_write():
/cygdrive/c/Users/SwaminathanK/Downloads/telink_b91m_driver_sdk/project/tlsr_riscv/B91/Debug_Demo/../../../../chip/B91/drivers/mspi.h:120
	reg_mspi_data = c;
     550:	80140637          	lui	a2,0x80140
     554:	10060023          	sb	zero,256(a2) # 80140100 <_DATA_LMA_START+0x6013d8a8>
mspi_wait():
/cygdrive/c/Users/SwaminathanK/Downloads/telink_b91m_driver_sdk/project/tlsr_riscv/B91/Debug_Demo/../../../../chip/B91/drivers/mspi.h:46
	while(reg_mspi_status & FLD_MSPI_BUSY);
     558:	10260783          	lb	a5,258(a2)
     55c:	fe07fe5b          	bbs	a5,0,558 <flash_mspi_read_ram+0x90>
flash_mspi_read_ram():
/cygdrive/c/Users/SwaminathanK/Downloads/telink_b91m_driver_sdk/project/tlsr_riscv/B91/Debug_Demo/../../../../chip/B91/drivers/flash.c:168
     560:	00170713          	addi	a4,a4,1
     564:	ff5718e3          	bne	a4,s5,554 <flash_mspi_read_ram+0x8c>
/cygdrive/c/Users/SwaminathanK/Downloads/telink_b91m_driver_sdk/project/tlsr_riscv/B91/Debug_Demo/../../../../chip/B91/drivers/flash.c:173
	{
		mspi_write(0x00);		/* dummy */
		mspi_wait();
	}
	if(cmd == FLASH_DREAD_CMD)
     568:	01b96cdb          	bnec	s2,59,580 <flash_mspi_read_ram+0xb8>
mspi_fm_data_line():
/cygdrive/c/Users/SwaminathanK/Downloads/telink_b91m_driver_sdk/project/tlsr_riscv/B91/Debug_Demo/../../../../chip/B91/drivers/mspi.h:87
	reg_mspi_fm = (reg_mspi_fm & (~FLD_MSPI_DATA_LINE)) | line;
     56c:	80140737          	lui	a4,0x80140
     570:	10170783          	lb	a5,257(a4) # 80140101 <_DATA_LMA_START+0x6013d8a9>
     574:	0f37f793          	andi	a5,a5,243
     578:	0047e793          	ori	a5,a5,4
     57c:	10f700a3          	sb	a5,257(a4)
mspi_fm_read_en():
/cygdrive/c/Users/SwaminathanK/Downloads/telink_b91m_driver_sdk/project/tlsr_riscv/B91/Debug_Demo/../../../../chip/B91/drivers/mspi.h:70
	reg_mspi_fm |= FLD_MSPI_RD_MODE;
     580:	801406b7          	lui	a3,0x80140
     584:	10168783          	lb	a5,257(a3) # 80140101 <_DATA_LMA_START+0x6013d8a9>
mspi_wait():
/cygdrive/c/Users/SwaminathanK/Downloads/telink_b91m_driver_sdk/project/tlsr_riscv/B91/Debug_Demo/../../../../chip/B91/drivers/mspi.h:46
	while(reg_mspi_status & FLD_MSPI_BUSY);
     588:	80140737          	lui	a4,0x80140
mspi_fm_read_en():
/cygdrive/c/Users/SwaminathanK/Downloads/telink_b91m_driver_sdk/project/tlsr_riscv/B91/Debug_Demo/../../../../chip/B91/drivers/mspi.h:70
	reg_mspi_fm |= FLD_MSPI_RD_MODE;
     58c:	0ff7f793          	andi	a5,a5,255
     590:	0027e793          	ori	a5,a5,2
     594:	10f680a3          	sb	a5,257(a3)
mspi_write():
/cygdrive/c/Users/SwaminathanK/Downloads/telink_b91m_driver_sdk/project/tlsr_riscv/B91/Debug_Demo/../../../../chip/B91/drivers/mspi.h:120
	reg_mspi_data = c;
     598:	10068023          	sb	zero,256(a3)
mspi_wait():
/cygdrive/c/Users/SwaminathanK/Downloads/telink_b91m_driver_sdk/project/tlsr_riscv/B91/Debug_Demo/../../../../chip/B91/drivers/mspi.h:46
	while(reg_mspi_status & FLD_MSPI_BUSY);
     59c:	10270783          	lb	a5,258(a4) # 80140102 <_DATA_LMA_START+0x6013d8aa>
     5a0:	fe07fe5b          	bbs	a5,0,59c <flash_mspi_read_ram+0xd4>
mspi_fm_rd_trig_en():
/cygdrive/c/Users/SwaminathanK/Downloads/telink_b91m_driver_sdk/project/tlsr_riscv/B91/Debug_Demo/../../../../chip/B91/drivers/mspi.h:54
	reg_mspi_fm |= FLD_MSPI_RD_TRIG_EN;
     5a4:	10170783          	lb	a5,257(a4)
mspi_wait():
/cygdrive/c/Users/SwaminathanK/Downloads/telink_b91m_driver_sdk/project/tlsr_riscv/B91/Debug_Demo/../../../../chip/B91/drivers/mspi.h:46
	while(reg_mspi_status & FLD_MSPI_BUSY);
     5a8:	801406b7          	lui	a3,0x80140
mspi_fm_rd_trig_en():
/cygdrive/c/Users/SwaminathanK/Downloads/telink_b91m_driver_sdk/project/tlsr_riscv/B91/Debug_Demo/../../../../chip/B91/drivers/mspi.h:54
	reg_mspi_fm |= FLD_MSPI_RD_TRIG_EN;
     5ac:	0ff7f793          	andi	a5,a5,255
     5b0:	0017e793          	ori	a5,a5,1
     5b4:	10f700a3          	sb	a5,257(a4)
mspi_wait():
/cygdrive/c/Users/SwaminathanK/Downloads/telink_b91m_driver_sdk/project/tlsr_riscv/B91/Debug_Demo/../../../../chip/B91/drivers/mspi.h:46
	while(reg_mspi_status & FLD_MSPI_BUSY);
     5b8:	10268783          	lb	a5,258(a3) # 80140102 <_DATA_LMA_START+0x6013d8aa>
     5bc:	fe07fe5b          	bbs	a5,0,5b8 <flash_mspi_read_ram+0xf0>
flash_mspi_read_ram():
/cygdrive/c/Users/SwaminathanK/Downloads/telink_b91m_driver_sdk/project/tlsr_riscv/B91/Debug_Demo/../../../../chip/B91/drivers/flash.c:182
	mspi_fm_read_en();			/* read mode */
	mspi_write(0x00);			/* to issue clock */
	mspi_wait();
	mspi_fm_rd_trig_en();		/* auto mode, mspi_get() automatically triggers mspi_write(0x00) once. */
	mspi_wait();
	for(unsigned int i = 0; i < data_len; ++i)
     5c0:	020a0263          	beqz	s4,5e4 <flash_mspi_read_ram+0x11c>
     5c4:	008a0a33          	add	s4,s4,s0
mspi_get():
/cygdrive/c/Users/SwaminathanK/Downloads/telink_b91m_driver_sdk/project/tlsr_riscv/B91/Debug_Demo/../../../../chip/B91/drivers/mspi.h:111
	return reg_mspi_data;
     5c8:	801406b7          	lui	a3,0x80140
     5cc:	10068783          	lb	a5,256(a3) # 80140100 <_DATA_LMA_START+0x6013d8a8>
flash_mspi_read_ram():
/cygdrive/c/Users/SwaminathanK/Downloads/telink_b91m_driver_sdk/project/tlsr_riscv/B91/Debug_Demo/../../../../chip/B91/drivers/flash.c:184
	{
		*data++ = mspi_get();
     5d0:	00140413          	addi	s0,s0,1
     5d4:	fef40fa3          	sb	a5,-1(s0)
mspi_wait():
/cygdrive/c/Users/SwaminathanK/Downloads/telink_b91m_driver_sdk/project/tlsr_riscv/B91/Debug_Demo/../../../../chip/B91/drivers/mspi.h:46
	while(reg_mspi_status & FLD_MSPI_BUSY);
     5d8:	10268783          	lb	a5,258(a3)
     5dc:	fe07fe5b          	bbs	a5,0,5d8 <flash_mspi_read_ram+0x110>
flash_mspi_read_ram():
/cygdrive/c/Users/SwaminathanK/Downloads/telink_b91m_driver_sdk/project/tlsr_riscv/B91/Debug_Demo/../../../../chip/B91/drivers/flash.c:182
	for(unsigned int i = 0; i < data_len; ++i)
     5e0:	ff4416e3          	bne	s0,s4,5cc <flash_mspi_read_ram+0x104>
mspi_fm_rd_trig_dis():
/cygdrive/c/Users/SwaminathanK/Downloads/telink_b91m_driver_sdk/project/tlsr_riscv/B91/Debug_Demo/../../../../chip/B91/drivers/mspi.h:62
	reg_mspi_fm &= ~FLD_MSPI_RD_TRIG_EN;
     5e4:	801407b7          	lui	a5,0x80140
     5e8:	10178703          	lb	a4,257(a5) # 80140101 <_DATA_LMA_START+0x6013d8a9>
     5ec:	0fe77713          	andi	a4,a4,254
     5f0:	10e780a3          	sb	a4,257(a5)
flash_mspi_read_ram():
/cygdrive/c/Users/SwaminathanK/Downloads/telink_b91m_driver_sdk/project/tlsr_riscv/B91/Debug_Demo/../../../../chip/B91/drivers/flash.c:188
		mspi_wait();
	}
	mspi_fm_rd_trig_dis();		/* off read auto mode */
	if((cmd == FLASH_X4READ_CMD)||(cmd == FLASH_DREAD_CMD))
     5f4:	01b968db          	bnec	s2,59,604 <flash_mspi_read_ram+0x13c>
mspi_fm_data_line():
/cygdrive/c/Users/SwaminathanK/Downloads/telink_b91m_driver_sdk/project/tlsr_riscv/B91/Debug_Demo/../../../../chip/B91/drivers/mspi.h:87
	reg_mspi_fm = (reg_mspi_fm & (~FLD_MSPI_DATA_LINE)) | line;
     5f8:	10178703          	lb	a4,257(a5)
     5fc:	0f377713          	andi	a4,a4,243
     600:	10e780a3          	sb	a4,257(a5)
mspi_high():
/cygdrive/c/Users/SwaminathanK/Downloads/telink_b91m_driver_sdk/project/tlsr_riscv/B91/Debug_Demo/../../../../chip/B91/drivers/mspi.h:95
	reg_mspi_fm |= FLD_MSPI_CSN;
     604:	80140737          	lui	a4,0x80140
     608:	10170783          	lb	a5,257(a4) # 80140101 <_DATA_LMA_START+0x6013d8a9>
     60c:	0ff7f793          	andi	a5,a5,255
     610:	0107e793          	ori	a5,a5,16
     614:	10f700a3          	sb	a5,257(a4)
flash_mspi_read_ram():
/cygdrive/c/Users/SwaminathanK/Downloads/telink_b91m_driver_sdk/project/tlsr_riscv/B91/Debug_Demo/../../../../chip/B91/drivers/flash.c:194
	{
		mspi_fm_data_line(MSPI_SINGLE_LINE);
	}
	mspi_high();

	CLOCK_DLY_5_CYC;
     618:	0001                	c.nop
     61a:	0001                	c.nop
     61c:	0001                	c.nop
     61e:	0001                	c.nop
     620:	0001                	c.nop
/cygdrive/c/Users/SwaminathanK/Downloads/telink_b91m_driver_sdk/project/tlsr_riscv/B91/Debug_Demo/../../../../chip/B91/drivers/flash.c:196
	plic_exit_critical_sec(s_flash_preempt_config.preempt_en,r);
}
     622:	5422                	c.lwsp	s0,40(sp)
/cygdrive/c/Users/SwaminathanK/Downloads/telink_b91m_driver_sdk/project/tlsr_riscv/B91/Debug_Demo/../../../../chip/B91/drivers/flash.c:195
	plic_exit_critical_sec(s_flash_preempt_config.preempt_en,r);
     624:	0404c503          	lbu	a0,64(s1)
/cygdrive/c/Users/SwaminathanK/Downloads/telink_b91m_driver_sdk/project/tlsr_riscv/B91/Debug_Demo/../../../../chip/B91/drivers/flash.c:196
}
     628:	50b2                	c.lwsp	ra,44(sp)
     62a:	5492                	c.lwsp	s1,36(sp)
     62c:	5902                	c.lwsp	s2,32(sp)
     62e:	4a62                	c.lwsp	s4,24(sp)
     630:	4ad2                	c.lwsp	s5,20(sp)
     632:	4b42                	c.lwsp	s6,16(sp)
     634:	4bb2                	c.lwsp	s7,12(sp)
/cygdrive/c/Users/SwaminathanK/Downloads/telink_b91m_driver_sdk/project/tlsr_riscv/B91/Debug_Demo/../../../../chip/B91/drivers/flash.c:195
	plic_exit_critical_sec(s_flash_preempt_config.preempt_en,r);
     636:	85ce                	c.mv	a1,s3
/cygdrive/c/Users/SwaminathanK/Downloads/telink_b91m_driver_sdk/project/tlsr_riscv/B91/Debug_Demo/../../../../chip/B91/drivers/flash.c:196
}
     638:	49f2                	c.lwsp	s3,28(sp)
     63a:	6145                	c.addi16sp	sp,48
/cygdrive/c/Users/SwaminathanK/Downloads/telink_b91m_driver_sdk/project/tlsr_riscv/B91/Debug_Demo/../../../../chip/B91/drivers/flash.c:195
	plic_exit_critical_sec(s_flash_preempt_config.preempt_en,r);
     63c:	dd5ff06f          	j	410 <plic_exit_critical_sec>
/cygdrive/c/Users/SwaminathanK/Downloads/telink_b91m_driver_sdk/project/tlsr_riscv/B91/Debug_Demo/../../../../chip/B91/drivers/flash.c:166
		flash_send_addr(addr);
     640:	855e                	c.mv	a0,s7
     642:	3ef9                	c.jal	220 <flash_send_addr>
     644:	f05ff06f          	j	548 <flash_mspi_read_ram+0x80>

00000648 <analog_write_reg8>:
core_interrupt_disable():
C:\Users\SwaminathanK\Downloads\telink_b91m_driver_sdk\chip\B91\drivers/core.h:114
	unsigned int r = read_csr (NDS_MSTATUS)&FLD_MSTATUS_MIE;
     648:	30002673          	csrr	a2,mstatus
     64c:	8a21                	c.andi	a2,8
C:\Users\SwaminathanK\Downloads\telink_b91m_driver_sdk\chip\B91\drivers/core.h:115
	if(r)
     64e:	c609                	c.beqz	a2,658 <analog_write_reg8+0x10>
C:\Users\SwaminathanK\Downloads\telink_b91m_driver_sdk\chip\B91\drivers/core.h:117
		clear_csr(NDS_MSTATUS,FLD_MSTATUS_MIE);//global interrupts disable
     650:	300477f3          	csrrci	a5,mstatus,8
C:\Users\SwaminathanK\Downloads\telink_b91m_driver_sdk\chip\B91\drivers/core.h:118
        fence_iorw; /* Hardware may change this value, fence IO ensures that software changes are valid. */
     654:	0ff0000f          	fence
analog_write_reg8():
/cygdrive/c/Users/SwaminathanK/Downloads/telink_b91m_driver_sdk/project/tlsr_riscv/B91/Debug_Demo/../../../../chip/B91/drivers/analog.c:125
	reg_ana_addr = addr;
     658:	80140737          	lui	a4,0x80140
     65c:	18a70023          	sb	a0,384(a4) # 80140180 <_DATA_LMA_START+0x6013d928>
/cygdrive/c/Users/SwaminathanK/Downloads/telink_b91m_driver_sdk/project/tlsr_riscv/B91/Debug_Demo/../../../../chip/B91/drivers/analog.c:126
    reg_ana_data(0) = data;
     660:	18b70223          	sb	a1,388(a4)
/cygdrive/c/Users/SwaminathanK/Downloads/telink_b91m_driver_sdk/project/tlsr_riscv/B91/Debug_Demo/../../../../chip/B91/drivers/analog.c:127
    reg_ana_ctrl = (FLD_ANA_CYC | FLD_ANA_RW);
     664:	06000693          	li	a3,96
analog_wait():
/cygdrive/c/Users/SwaminathanK/Downloads/telink_b91m_driver_sdk/project/tlsr_riscv/B91/Debug_Demo/../../../../chip/B91/drivers/analog.c:432
	while(reg_ana_ctrl & FLD_ANA_BUSY){}
     668:	801407b7          	lui	a5,0x80140
analog_write_reg8():
/cygdrive/c/Users/SwaminathanK/Downloads/telink_b91m_driver_sdk/project/tlsr_riscv/B91/Debug_Demo/../../../../chip/B91/drivers/analog.c:127
    reg_ana_ctrl = (FLD_ANA_CYC | FLD_ANA_RW);
     66c:	18d70123          	sb	a3,386(a4)
analog_wait():
/cygdrive/c/Users/SwaminathanK/Downloads/telink_b91m_driver_sdk/project/tlsr_riscv/B91/Debug_Demo/../../../../chip/B91/drivers/analog.c:432
	while(reg_ana_ctrl & FLD_ANA_BUSY){}
     670:	18278703          	lb	a4,386(a5) # 80140182 <_DATA_LMA_START+0x6013d92a>
     674:	fe777e5b          	bbs	a4,7,670 <analog_write_reg8+0x28>
analog_write_reg8():
/cygdrive/c/Users/SwaminathanK/Downloads/telink_b91m_driver_sdk/project/tlsr_riscv/B91/Debug_Demo/../../../../chip/B91/drivers/analog.c:129
	reg_ana_ctrl =0x00;
     678:	18078123          	sb	zero,386(a5)
core_restore_interrupt():
C:\Users\SwaminathanK\Downloads\telink_b91m_driver_sdk\chip\B91\drivers/core.h:131
	if(en)
     67c:	00060663          	beqz	a2,688 <analog_write_reg8+0x40>
C:\Users\SwaminathanK\Downloads\telink_b91m_driver_sdk\chip\B91\drivers/core.h:133
		set_csr(NDS_MSTATUS,en);//global interrupts enable
     680:	30062673          	csrrs	a2,mstatus,a2
C:\Users\SwaminathanK\Downloads\telink_b91m_driver_sdk\chip\B91\drivers/core.h:134
        fence_iorw; /* Hardware may change this value, fence IO ensures that software changes are valid. */
     684:	0ff0000f          	fence
analog_write_reg8():
/cygdrive/c/Users/SwaminathanK/Downloads/telink_b91m_driver_sdk/project/tlsr_riscv/B91/Debug_Demo/../../../../chip/B91/drivers/analog.c:131
}
     688:	00008067          	ret

0000068c <analog_read_reg8>:
core_interrupt_disable():
C:\Users\SwaminathanK\Downloads\telink_b91m_driver_sdk\chip\B91\drivers/core.h:114
	unsigned int r = read_csr (NDS_MSTATUS)&FLD_MSTATUS_MIE;
     68c:	300026f3          	csrr	a3,mstatus
     690:	8aa1                	c.andi	a3,8
C:\Users\SwaminathanK\Downloads\telink_b91m_driver_sdk\chip\B91\drivers/core.h:115
	if(r)
     692:	c689                	c.beqz	a3,69c <analog_read_reg8+0x10>
C:\Users\SwaminathanK\Downloads\telink_b91m_driver_sdk\chip\B91\drivers/core.h:117
		clear_csr(NDS_MSTATUS,FLD_MSTATUS_MIE);//global interrupts disable
     694:	300477f3          	csrrci	a5,mstatus,8
C:\Users\SwaminathanK\Downloads\telink_b91m_driver_sdk\chip\B91\drivers/core.h:118
        fence_iorw; /* Hardware may change this value, fence IO ensures that software changes are valid. */
     698:	0ff0000f          	fence
analog_read_reg8():
/cygdrive/c/Users/SwaminathanK/Downloads/telink_b91m_driver_sdk/project/tlsr_riscv/B91/Debug_Demo/../../../../chip/B91/drivers/analog.c:107
	reg_ana_addr = addr;
     69c:	801407b7          	lui	a5,0x80140
     6a0:	18a78023          	sb	a0,384(a5) # 80140180 <_DATA_LMA_START+0x6013d928>
/cygdrive/c/Users/SwaminathanK/Downloads/telink_b91m_driver_sdk/project/tlsr_riscv/B91/Debug_Demo/../../../../chip/B91/drivers/analog.c:108
	reg_ana_len=0x1;
     6a4:	00100713          	li	a4,1
     6a8:	18e781a3          	sb	a4,387(a5)
/cygdrive/c/Users/SwaminathanK/Downloads/telink_b91m_driver_sdk/project/tlsr_riscv/B91/Debug_Demo/../../../../chip/B91/drivers/analog.c:109
    reg_ana_ctrl = FLD_ANA_CYC;
     6ac:	04000613          	li	a2,64
analog_wait():
/cygdrive/c/Users/SwaminathanK/Downloads/telink_b91m_driver_sdk/project/tlsr_riscv/B91/Debug_Demo/../../../../chip/B91/drivers/analog.c:432
	while(reg_ana_ctrl & FLD_ANA_BUSY){}
     6b0:	80140737          	lui	a4,0x80140
analog_read_reg8():
/cygdrive/c/Users/SwaminathanK/Downloads/telink_b91m_driver_sdk/project/tlsr_riscv/B91/Debug_Demo/../../../../chip/B91/drivers/analog.c:109
    reg_ana_ctrl = FLD_ANA_CYC;
     6b4:	18c78123          	sb	a2,386(a5)
analog_wait():
/cygdrive/c/Users/SwaminathanK/Downloads/telink_b91m_driver_sdk/project/tlsr_riscv/B91/Debug_Demo/../../../../chip/B91/drivers/analog.c:432
	while(reg_ana_ctrl & FLD_ANA_BUSY){}
     6b8:	18270783          	lb	a5,386(a4) # 80140182 <_DATA_LMA_START+0x6013d92a>
     6bc:	fe77fe5b          	bbs	a5,7,6b8 <analog_read_reg8+0x2c>
analog_read_reg8():
/cygdrive/c/Users/SwaminathanK/Downloads/telink_b91m_driver_sdk/project/tlsr_riscv/B91/Debug_Demo/../../../../chip/B91/drivers/analog.c:111
	unsigned char data= reg_ana_data(0);
     6c0:	18470503          	lb	a0,388(a4)
     6c4:	0ff57513          	andi	a0,a0,255
core_restore_interrupt():
C:\Users\SwaminathanK\Downloads\telink_b91m_driver_sdk\chip\B91\drivers/core.h:131
	if(en)
     6c8:	00068663          	beqz	a3,6d4 <analog_read_reg8+0x48>
C:\Users\SwaminathanK\Downloads\telink_b91m_driver_sdk\chip\B91\drivers/core.h:133
		set_csr(NDS_MSTATUS,en);//global interrupts enable
     6cc:	3006a6f3          	csrrs	a3,mstatus,a3
C:\Users\SwaminathanK\Downloads\telink_b91m_driver_sdk\chip\B91\drivers/core.h:134
        fence_iorw; /* Hardware may change this value, fence IO ensures that software changes are valid. */
     6d0:	0ff0000f          	fence
analog_read_reg8():
/cygdrive/c/Users/SwaminathanK/Downloads/telink_b91m_driver_sdk/project/tlsr_riscv/B91/Debug_Demo/../../../../chip/B91/drivers/analog.c:115
}
     6d4:	00008067          	ret

000006d8 <clock_init_ram.constprop.1>:
clock_init_ram():
/cygdrive/c/Users/SwaminathanK/Downloads/telink_b91m_driver_sdk/project/tlsr_riscv/B91/Debug_Demo/../../../../chip/B91/drivers/clock.c:285
 * 			    because during the clock switching process, the system clock will be
 * 			    suspended for a period of time, which may cause data loss

 */
_attribute_ram_code_sec_noinline_
void clock_init_ram(sys_pll_clk_e pll,
     6d8:	1141                	c.addi	sp,-16
mspi_wait():
/cygdrive/c/Users/SwaminathanK/Downloads/telink_b91m_driver_sdk/project/tlsr_riscv/B91/Debug_Demo/../../../../chip/B91/drivers/mspi.h:46
	while(reg_mspi_status & FLD_MSPI_BUSY);
     6da:	80140737          	lui	a4,0x80140
clock_init_ram():
/cygdrive/c/Users/SwaminathanK/Downloads/telink_b91m_driver_sdk/project/tlsr_riscv/B91/Debug_Demo/../../../../chip/B91/drivers/clock.c:285
     6de:	c606                	c.swsp	ra,12(sp)
     6e0:	c422                	c.swsp	s0,8(sp)
     6e2:	c226                	c.swsp	s1,4(sp)
mspi_wait():
/cygdrive/c/Users/SwaminathanK/Downloads/telink_b91m_driver_sdk/project/tlsr_riscv/B91/Debug_Demo/../../../../chip/B91/drivers/mspi.h:46
     6e4:	10270783          	lb	a5,258(a4) # 80140102 <_DATA_LMA_START+0x6013d8aa>
     6e8:	fe07fe5b          	bbs	a5,0,6e4 <clock_init_ram.constprop.1+0xc>
mspi_high():
/cygdrive/c/Users/SwaminathanK/Downloads/telink_b91m_driver_sdk/project/tlsr_riscv/B91/Debug_Demo/../../../../chip/B91/drivers/mspi.h:95
	reg_mspi_fm |= FLD_MSPI_CSN;
     6ec:	10170783          	lb	a5,257(a4)
gpio_get_level():
/cygdrive/c/Users/SwaminathanK/Downloads/telink_b91m_driver_sdk/project/tlsr_riscv/B91/Debug_Demo/../../../../chip/B91/drivers/gpio.h:263
     6f0:	801404b7          	lui	s1,0x80140
mspi_high():
/cygdrive/c/Users/SwaminathanK/Downloads/telink_b91m_driver_sdk/project/tlsr_riscv/B91/Debug_Demo/../../../../chip/B91/drivers/mspi.h:95
     6f4:	0ff7f793          	andi	a5,a5,255
     6f8:	0107e793          	ori	a5,a5,16
     6fc:	10f700a3          	sb	a5,257(a4)
gpio_get_level():
/cygdrive/c/Users/SwaminathanK/Downloads/telink_b91m_driver_sdk/project/tlsr_riscv/B91/Debug_Demo/../../../../chip/B91/drivers/gpio.h:263
     700:	32848783          	lb	a5,808(s1) # 80140328 <_DATA_LMA_START+0x6013dad0>
mspi_stop_xip():
/cygdrive/c/Users/SwaminathanK/Downloads/telink_b91m_driver_sdk/project/tlsr_riscv/B91/Debug_Demo/../../../../chip/B91/drivers/mspi.h:150
	while(gpio_get_level(GPIO_PF3) == 0);	//wait cn=1
     704:	be37fe5b          	bbc	a5,3,700 <clock_init_ram.constprop.1+0x28>
clock_init_ram():
/cygdrive/c/Users/SwaminathanK/Downloads/telink_b91m_driver_sdk/project/tlsr_riscv/B91/Debug_Demo/../../../../chip/B91/drivers/clock.c:297
	//ensure mspi is not in busy status before change mspi clock
	mspi_stop_xip();

	//first cclk/mspi_clk switch to 24rc to avoid the risk of hclk/pclk/mspi_clk exceeding its maximum configurable frequency for a short period of time
	//when switching different clock frequencies using this interface.
	write_reg8(0x1401e8, read_reg8(0x1401e8) & 0x0f);				//cclk/mspi_clk to 24M rc clock
     708:	1e848783          	lb	a5,488(s1)
/cygdrive/c/Users/SwaminathanK/Downloads/telink_b91m_driver_sdk/project/tlsr_riscv/B91/Debug_Demo/../../../../chip/B91/drivers/clock.c:300

	//pll clk
	analog_write_reg8(0x80, (analog_read_reg8(0x80) & 0xe0) | ((pll >> 2) & 0x1f));
     70c:	08000513          	li	a0,128
/cygdrive/c/Users/SwaminathanK/Downloads/telink_b91m_driver_sdk/project/tlsr_riscv/B91/Debug_Demo/../../../../chip/B91/drivers/clock.c:297
	write_reg8(0x1401e8, read_reg8(0x1401e8) & 0x0f);				//cclk/mspi_clk to 24M rc clock
     710:	8bbd                	c.andi	a5,15
     712:	1ef48423          	sb	a5,488(s1)
/cygdrive/c/Users/SwaminathanK/Downloads/telink_b91m_driver_sdk/project/tlsr_riscv/B91/Debug_Demo/../../../../chip/B91/drivers/clock.c:300
	analog_write_reg8(0x80, (analog_read_reg8(0x80) & 0xe0) | ((pll >> 2) & 0x1f));
     716:	3f9d                	c.jal	68c <analog_read_reg8>
     718:	0e057593          	andi	a1,a0,224
     71c:	0105e593          	ori	a1,a1,16
     720:	08000513          	li	a0,128
     724:	f25ff0ef          	jal	ra,648 <analog_write_reg8>
/cygdrive/c/Users/SwaminathanK/Downloads/telink_b91m_driver_sdk/project/tlsr_riscv/B91/Debug_Demo/../../../../chip/B91/drivers/clock.c:301
	analog_write_reg8(0x09, (analog_read_reg8(0x09) & 0xf3) | ((pll&0x03) << 2));
     728:	00900513          	li	a0,9
     72c:	f61ff0ef          	jal	ra,68c <analog_read_reg8>
     730:	0f357593          	andi	a1,a0,243
     734:	0085e593          	ori	a1,a1,8
     738:	4525                	c.li	a0,9
     73a:	3739                	c.jal	648 <analog_write_reg8>
/cygdrive/c/Users/SwaminathanK/Downloads/telink_b91m_driver_sdk/project/tlsr_riscv/B91/Debug_Demo/../../../../chip/B91/drivers/clock.c:302
	sys_clk.pll_clk = (pll >> 8);
     73c:	0c000793          	li	a5,192
     740:	805f940b          	addigp	s0,-2044 # 80004 <sys_clk>
     744:	00f41023          	sh	a5,0(s0)
/cygdrive/c/Users/SwaminathanK/Downloads/telink_b91m_driver_sdk/project/tlsr_riscv/B91/Debug_Demo/../../../../chip/B91/drivers/clock.c:308

	//usb clock (192M/4 =48M) pll clock should be the multiple of 48, because USB clock is 48M.
	write_reg8(0x1401fb, sys_clk.pll_clk/48);

	//wait for PLL stable
	analog_write_reg8(0x81, (analog_read_reg8(0x81) | BIT(6)));
     748:	08100513          	li	a0,129
/cygdrive/c/Users/SwaminathanK/Downloads/telink_b91m_driver_sdk/project/tlsr_riscv/B91/Debug_Demo/../../../../chip/B91/drivers/clock.c:305
	write_reg8(0x1401fb, sys_clk.pll_clk/48);
     74c:	4791                	c.li	a5,4
     74e:	1ef48da3          	sb	a5,507(s1)
/cygdrive/c/Users/SwaminathanK/Downloads/telink_b91m_driver_sdk/project/tlsr_riscv/B91/Debug_Demo/../../../../chip/B91/drivers/clock.c:308
	analog_write_reg8(0x81, (analog_read_reg8(0x81) | BIT(6)));
     752:	3f2d                	c.jal	68c <analog_read_reg8>
     754:	04056593          	ori	a1,a0,64
     758:	0ff5f593          	andi	a1,a1,255
     75c:	08100513          	li	a0,129
     760:	ee9ff0ef          	jal	ra,648 <analog_write_reg8>
/cygdrive/c/Users/SwaminathanK/Downloads/telink_b91m_driver_sdk/project/tlsr_riscv/B91/Debug_Demo/../../../../chip/B91/drivers/clock.c:309
	while(BIT(5) != (analog_read_reg8(0x88) & BIT(5)));
     764:	08800513          	li	a0,136
     768:	f25ff0ef          	jal	ra,68c <analog_read_reg8>
     76c:	be557c5b          	bbc	a0,5,764 <clock_init_ram.constprop.1+0x8c>
/cygdrive/c/Users/SwaminathanK/Downloads/telink_b91m_driver_sdk/project/tlsr_riscv/B91/Debug_Demo/../../../../chip/B91/drivers/clock.c:310
	analog_write_reg8(0x81, (analog_read_reg8(0x81) & ~BIT(6)));
     770:	08100513          	li	a0,129
     774:	f19ff0ef          	jal	ra,68c <analog_read_reg8>
     778:	0bf57593          	andi	a1,a0,191
     77c:	08100513          	li	a0,129
     780:	ec9ff0ef          	jal	ra,648 <analog_write_reg8>
/cygdrive/c/Users/SwaminathanK/Downloads/telink_b91m_driver_sdk/project/tlsr_riscv/B91/Debug_Demo/../../../../chip/B91/drivers/clock.c:319
	{
		write_reg8(0x1401e8, read_reg8(0x1401e8) & 0x7f);  //bit7 0
	}
	else
	{
		write_reg8(0x1401e9, (read_reg8(0x1401e9) & 0x0f) | (mspi_clk_div<<4) );
     784:	801407b7          	lui	a5,0x80140
     788:	1e978703          	lb	a4,489(a5) # 801401e9 <_DATA_LMA_START+0x6013d991>
     78c:	8b3d                	c.andi	a4,15
     78e:	04076713          	ori	a4,a4,64
     792:	1ee784a3          	sb	a4,489(a5)
/cygdrive/c/Users/SwaminathanK/Downloads/telink_b91m_driver_sdk/project/tlsr_riscv/B91/Debug_Demo/../../../../chip/B91/drivers/clock.c:320
		write_reg8(0x1401e8, read_reg8(0x1401e8) | BIT(7));  //if the div is odd, should set two times to ensure the correct sequence.
     796:	1e878703          	lb	a4,488(a5)
     79a:	f8076713          	ori	a4,a4,-128
     79e:	0ff77713          	andi	a4,a4,255
     7a2:	1ee78423          	sb	a4,488(a5)
/cygdrive/c/Users/SwaminathanK/Downloads/telink_b91m_driver_sdk/project/tlsr_riscv/B91/Debug_Demo/../../../../chip/B91/drivers/clock.c:321
		write_reg8(0x1401e8, read_reg8(0x1401e8) | BIT(7));
     7a6:	1e878703          	lb	a4,488(a5)
     7aa:	f8076713          	ori	a4,a4,-128
     7ae:	0ff77713          	andi	a4,a4,255
     7b2:	1ee78423          	sb	a4,488(a5)
/cygdrive/c/Users/SwaminathanK/Downloads/telink_b91m_driver_sdk/project/tlsr_riscv/B91/Debug_Demo/../../../../chip/B91/drivers/clock.c:328
	}

	//hclk and pclk should be set ahead of cclk, ensure the hclk and pclk not exceed the max clk(cclk max 96M, hclk max 48M, pclk max 24M)
	if(CCLK_DIV1_TO_HCLK == hclk_div)
	{
		write_reg8(0x1401d8, read_reg8(0x1401d8) & ~BIT(2));
     7b6:	1d878703          	lb	a4,472(a5)
/cygdrive/c/Users/SwaminathanK/Downloads/telink_b91m_driver_sdk/project/tlsr_riscv/B91/Debug_Demo/../../../../chip/B91/drivers/clock.c:322
		sys_clk.mspi_clk = sys_clk.pll_clk / mspi_clk_div;
     7ba:	00045683          	lhu	a3,0(s0)
/cygdrive/c/Users/SwaminathanK/Downloads/telink_b91m_driver_sdk/project/tlsr_riscv/B91/Debug_Demo/../../../../chip/B91/drivers/clock.c:328
		write_reg8(0x1401d8, read_reg8(0x1401d8) & ~BIT(2));
     7be:	0fb77713          	andi	a4,a4,251
     7c2:	1ce78c23          	sb	a4,472(a5)
/cygdrive/c/Users/SwaminathanK/Downloads/telink_b91m_driver_sdk/project/tlsr_riscv/B91/Debug_Demo/../../../../chip/B91/drivers/clock.c:338
	}

	//pclk can div1/div2/div4 from hclk.
	if(HCLK_DIV1_TO_PCLK == pclk_div)
	{
		write_reg8(0x1401d8, read_reg8(0x1401d8) & 0xfc);
     7c6:	1d878703          	lb	a4,472(a5)
/cygdrive/c/Users/SwaminathanK/Downloads/telink_b91m_driver_sdk/project/tlsr_riscv/B91/Debug_Demo/../../../../chip/B91/drivers/clock.c:322
		sys_clk.mspi_clk = sys_clk.pll_clk / mspi_clk_div;
     7ca:	8689                	c.srai	a3,0x2
     7cc:	00d402a3          	sb	a3,5(s0)
/cygdrive/c/Users/SwaminathanK/Downloads/telink_b91m_driver_sdk/project/tlsr_riscv/B91/Debug_Demo/../../../../chip/B91/drivers/clock.c:338
		write_reg8(0x1401d8, read_reg8(0x1401d8) & 0xfc);
     7d0:	0fc77713          	andi	a4,a4,252
     7d4:	1ce78c23          	sb	a4,472(a5)
/cygdrive/c/Users/SwaminathanK/Downloads/telink_b91m_driver_sdk/project/tlsr_riscv/B91/Debug_Demo/../../../../chip/B91/drivers/clock.c:348
	}

	//select cclk source(RC24M/PAD24M/PAD_PLL_DIV/PAD_PLL)
	if(PAD_PLL_DIV == src)
	{
		write_reg8(0x1401e8, (read_reg8(0x1401e8) & 0xf0) | cclk_div);
     7d8:	1e878703          	lb	a4,488(a5)
     7dc:	0f077713          	andi	a4,a4,240
     7e0:	00876713          	ori	a4,a4,8
     7e4:	1ee78423          	sb	a4,488(a5)
/cygdrive/c/Users/SwaminathanK/Downloads/telink_b91m_driver_sdk/project/tlsr_riscv/B91/Debug_Demo/../../../../chip/B91/drivers/clock.c:359
	}
	else
	{
		sys_clk.cclk = 24;
	}
	write_reg8(0x1401e8, (read_reg8(0x1401e8) & 0x8f) | (src << 4));
     7e8:	1e878703          	lb	a4,488(a5)
/cygdrive/c/Users/SwaminathanK/Downloads/telink_b91m_driver_sdk/project/tlsr_riscv/B91/Debug_Demo/../../../../chip/B91/drivers/clock.c:349
		sys_clk.cclk = sys_clk.pll_clk / cclk_div;
     7ec:	00045683          	lhu	a3,0(s0)
/cygdrive/c/Users/SwaminathanK/Downloads/telink_b91m_driver_sdk/project/tlsr_riscv/B91/Debug_Demo/../../../../chip/B91/drivers/clock.c:359
	write_reg8(0x1401e8, (read_reg8(0x1401e8) & 0x8f) | (src << 4));
     7f0:	08f77713          	andi	a4,a4,143
/cygdrive/c/Users/SwaminathanK/Downloads/telink_b91m_driver_sdk/project/tlsr_riscv/B91/Debug_Demo/../../../../chip/B91/drivers/clock.c:349
		sys_clk.cclk = sys_clk.pll_clk / cclk_div;
     7f4:	868d                	c.srai	a3,0x3
     7f6:	00d40123          	sb	a3,2(s0)
/cygdrive/c/Users/SwaminathanK/Downloads/telink_b91m_driver_sdk/project/tlsr_riscv/B91/Debug_Demo/../../../../chip/B91/drivers/clock.c:359
	write_reg8(0x1401e8, (read_reg8(0x1401e8) & 0x8f) | (src << 4));
     7fa:	02076713          	ori	a4,a4,32
     7fe:	1ee78423          	sb	a4,488(a5)
/cygdrive/c/Users/SwaminathanK/Downloads/telink_b91m_driver_sdk/project/tlsr_riscv/B91/Debug_Demo/../../../../chip/B91/drivers/clock.c:362

	//clk record.
	sys_clk.hclk = sys_clk.cclk/hclk_div;
     802:	0ff6f693          	andi	a3,a3,255
     806:	00d401a3          	sb	a3,3(s0)
/cygdrive/c/Users/SwaminathanK/Downloads/telink_b91m_driver_sdk/project/tlsr_riscv/B91/Debug_Demo/../../../../chip/B91/drivers/clock.c:363
	sys_clk.pclk = sys_clk.hclk / pclk_div;
     80a:	00d40223          	sb	a3,4(s0)
/cygdrive/c/Users/SwaminathanK/Downloads/telink_b91m_driver_sdk/project/tlsr_riscv/B91/Debug_Demo/../../../../chip/B91/drivers/clock.c:367
	if(CCLK_TO_MSPI_CLK == mspi_clk_div){
		sys_clk.mspi_clk = sys_clk.cclk;
	}
}
     80e:	40b2                	c.lwsp	ra,12(sp)
     810:	4422                	c.lwsp	s0,8(sp)
     812:	4492                	c.lwsp	s1,4(sp)
     814:	0141                	c.addi	sp,16
     816:	8082                	c.jr	ra

00000818 <pm_wait_bbpll_done>:
pm_wait_bbpll_done():
D:/release_sdk/v2_3_0_2/telink_b91m_driver_src/chip/B91/drivers/lib/src/pm.c:189
     818:	1101                	c.addi	sp,-32
D:/release_sdk/v2_3_0_2/telink_b91m_driver_src/chip/B91/drivers/lib/src/pm.c:190
     81a:	08100513          	li	a0,129
D:/release_sdk/v2_3_0_2/telink_b91m_driver_src/chip/B91/drivers/lib/src/pm.c:189
     81e:	cc22                	c.swsp	s0,24(sp)
     820:	ca26                	c.swsp	s1,20(sp)
     822:	c84a                	c.swsp	s2,16(sp)
     824:	ce06                	c.swsp	ra,28(sp)
D:/release_sdk/v2_3_0_2/telink_b91m_driver_src/chip/B91/drivers/lib/src/pm.c:190
     826:	359d                	c.jal	68c <analog_read_reg8>
D:/release_sdk/v2_3_0_2/telink_b91m_driver_src/chip/B91/drivers/lib/src/pm.c:191
     828:	04056593          	ori	a1,a0,64
D:/release_sdk/v2_3_0_2/telink_b91m_driver_src/chip/B91/drivers/lib/src/pm.c:190
     82c:	892a                	c.mv	s2,a0
D:/release_sdk/v2_3_0_2/telink_b91m_driver_src/chip/B91/drivers/lib/src/pm.c:191
     82e:	0ff5f593          	andi	a1,a1,255
     832:	08100513          	li	a0,129
     836:	0bf97913          	andi	s2,s2,191
     83a:	4481                	c.li	s1,0
D:/release_sdk/v2_3_0_2/telink_b91m_driver_src/chip/B91/drivers/lib/src/pm.c:194
     83c:	4475                	c.li	s0,29
D:/release_sdk/v2_3_0_2/telink_b91m_driver_src/chip/B91/drivers/lib/src/pm.c:191
     83e:	3529                	c.jal	648 <analog_write_reg8>
D:/release_sdk/v2_3_0_2/telink_b91m_driver_src/chip/B91/drivers/lib/src/pm.c:194
     840:	000107a3          	sb	zero,15(sp)
     844:	00f10783          	lb	a5,15(sp)
     848:	0ff7f793          	andi	a5,a5,255
     84c:	02f46063          	bltu	s0,a5,86c <pm_wait_bbpll_done+0x54>
D:/release_sdk/v2_3_0_2/telink_b91m_driver_src/chip/B91/drivers/lib/src/pm.c:195
     850:	0001                	c.nop
D:/release_sdk/v2_3_0_2/telink_b91m_driver_src/chip/B91/drivers/lib/src/pm.c:194
     852:	00f10783          	lb	a5,15(sp)
     856:	0785                	c.addi	a5,1
     858:	0ff7f793          	andi	a5,a5,255
     85c:	00f107a3          	sb	a5,15(sp)
     860:	00f10783          	lb	a5,15(sp)
     864:	0ff7f793          	andi	a5,a5,255
     868:	fef474e3          	bgeu	s0,a5,850 <pm_wait_bbpll_done+0x38>
D:/release_sdk/v2_3_0_2/telink_b91m_driver_src/chip/B91/drivers/lib/src/pm.c:197
     86c:	08800513          	li	a0,136
     870:	e1dff0ef          	jal	ra,68c <analog_read_reg8>
     874:	4255765b          	bbs	a0,5,8a0 <pm_wait_bbpll_done+0x88>
D:/release_sdk/v2_3_0_2/telink_b91m_driver_src/chip/B91/drivers/lib/src/pm.c:204
     878:	cc95                	c.beqz	s1,8b4 <pm_wait_bbpll_done+0x9c>
D:/release_sdk/v2_3_0_2/telink_b91m_driver_src/chip/B91/drivers/lib/src/pm.c:207
     87a:	0414d35b          	beqc	s1,1,8c0 <pm_wait_bbpll_done+0xa8>
D:/release_sdk/v2_3_0_2/telink_b91m_driver_src/chip/B91/drivers/lib/src/pm.c:211
     87e:	85ca                	c.mv	a1,s2
     880:	08100513          	li	a0,129
     884:	dc5ff0ef          	jal	ra,648 <analog_write_reg8>
D:/release_sdk/v2_3_0_2/telink_b91m_driver_src/chip/B91/drivers/lib/src/pm.c:192
     888:	0024d65b          	beqc	s1,2,894 <pm_wait_bbpll_done+0x7c>
     88c:	0485                	c.addi	s1,1
     88e:	0ff4f493          	andi	s1,s1,255
     892:	b77d                	c.j	840 <pm_wait_bbpll_done+0x28>
D:/release_sdk/v2_3_0_2/telink_b91m_driver_src/chip/B91/drivers/lib/src/pm.c:215
     894:	40f2                	c.lwsp	ra,28(sp)
     896:	4462                	c.lwsp	s0,24(sp)
     898:	44d2                	c.lwsp	s1,20(sp)
     89a:	4942                	c.lwsp	s2,16(sp)
     89c:	6105                	c.addi16sp	sp,32
     89e:	8082                	c.jr	ra
     8a0:	4462                	c.lwsp	s0,24(sp)
     8a2:	40f2                	c.lwsp	ra,28(sp)
     8a4:	44d2                	c.lwsp	s1,20(sp)
D:/release_sdk/v2_3_0_2/telink_b91m_driver_src/chip/B91/drivers/lib/src/pm.c:199
     8a6:	85ca                	c.mv	a1,s2
D:/release_sdk/v2_3_0_2/telink_b91m_driver_src/chip/B91/drivers/lib/src/pm.c:215
     8a8:	4942                	c.lwsp	s2,16(sp)
D:/release_sdk/v2_3_0_2/telink_b91m_driver_src/chip/B91/drivers/lib/src/pm.c:199
     8aa:	08100513          	li	a0,129
D:/release_sdk/v2_3_0_2/telink_b91m_driver_src/chip/B91/drivers/lib/src/pm.c:215
     8ae:	6105                	c.addi16sp	sp,32
D:/release_sdk/v2_3_0_2/telink_b91m_driver_src/chip/B91/drivers/lib/src/pm.c:199
     8b0:	d99ff06f          	j	648 <analog_write_reg8>
D:/release_sdk/v2_3_0_2/telink_b91m_driver_src/chip/B91/drivers/lib/src/pm.c:205
     8b4:	04600593          	li	a1,70
     8b8:	4505                	c.li	a0,1
     8ba:	3379                	c.jal	648 <analog_write_reg8>
     8bc:	fd1ff06f          	j	88c <pm_wait_bbpll_done+0x74>
D:/release_sdk/v2_3_0_2/telink_b91m_driver_src/chip/B91/drivers/lib/src/pm.c:208
     8c0:	04300593          	li	a1,67
     8c4:	4505                	c.li	a0,1
     8c6:	3349                	c.jal	648 <analog_write_reg8>
     8c8:	fc5ff06f          	j	88c <pm_wait_bbpll_done+0x74>

000008cc <pm_sleep_start>:
pm_sleep_start():
D:/release_sdk/v2_3_0_2/telink_b91m_driver_src/chip/B91/drivers/lib/src/pm.c:254
     8cc:	1101                	c.addi	sp,-32
D:/release_sdk/v2_3_0_2/telink_b91m_driver_src/chip/B91/drivers/lib/src/pm.c:257
     8ce:	827fa72b          	lwgp	a4,-2012 # 80024 <g_chip_version>
     8d2:	000006b7          	lui	a3,0x0
D:/release_sdk/v2_3_0_2/telink_b91m_driver_src/chip/B91/drivers/lib/src/pm.c:254
     8d6:	ce06                	c.swsp	ra,28(sp)
     8d8:	cc22                	c.swsp	s0,24(sp)
     8da:	ca26                	c.swsp	s1,20(sp)
D:/release_sdk/v2_3_0_2/telink_b91m_driver_src/chip/B91/drivers/lib/src/pm.c:257
     8dc:	0ff00793          	li	a5,255
     8e0:	19a6c583          	lbu	a1,410(a3) # 19a <g_pm_suspend_power_cfg>
     8e4:	00f71a63          	bne	a4,a5,8f8 <pm_sleep_start+0x2c>
D:/release_sdk/v2_3_0_2/telink_b91m_driver_src/chip/B91/drivers/lib/src/pm.c:258
     8e8:	0fe5f593          	andi	a1,a1,254
     8ec:	07d00513          	li	a0,125
     8f0:	d59ff0ef          	jal	ra,648 <analog_write_reg8>
     8f4:	00c0006f          	j	900 <pm_sleep_start+0x34>
D:/release_sdk/v2_3_0_2/telink_b91m_driver_src/chip/B91/drivers/lib/src/pm.c:260
     8f8:	07d00513          	li	a0,125
     8fc:	d4dff0ef          	jal	ra,648 <analog_write_reg8>
D:\release_sdk\v2_3_0_2\telink_b91m_driver_src\chip\B91\drivers/mspi.h:46
     900:	801406b7          	lui	a3,0x80140
     904:	10268783          	lb	a5,258(a3) # 80140102 <_DATA_LMA_START+0x6013d8aa>
     908:	fe07fe5b          	bbs	a5,0,904 <pm_sleep_start+0x38>
D:\release_sdk\v2_3_0_2\telink_b91m_driver_src\chip\B91\drivers/mspi.h:95
     90c:	10168703          	lb	a4,257(a3)
D:\release_sdk\v2_3_0_2\telink_b91m_driver_src\chip\B91\drivers/gpio.h:263
     910:	801407b7          	lui	a5,0x80140
D:\release_sdk\v2_3_0_2\telink_b91m_driver_src\chip\B91\drivers/mspi.h:95
     914:	0ff77713          	andi	a4,a4,255
     918:	01076713          	ori	a4,a4,16
     91c:	10e680a3          	sb	a4,257(a3)
D:\release_sdk\v2_3_0_2\telink_b91m_driver_src\chip\B91\drivers/gpio.h:263
     920:	32878703          	lb	a4,808(a5) # 80140328 <_DATA_LMA_START+0x6013dad0>
D:\release_sdk\v2_3_0_2\telink_b91m_driver_src\chip\B91\drivers/mspi.h:150
     924:	be377e5b          	bbc	a4,3,920 <pm_sleep_start+0x54>
D:\release_sdk\v2_3_0_2\telink_b91m_driver_src\chip\B91\drivers/mspi.h:78
     928:	10178703          	lb	a4,257(a5)
D:\release_sdk\v2_3_0_2\telink_b91m_driver_src\chip\B91\drivers/mspi.h:46
     92c:	80140437          	lui	s0,0x80140
D:\release_sdk\v2_3_0_2\telink_b91m_driver_src\chip\B91\drivers/mspi.h:78
     930:	0fd77713          	andi	a4,a4,253
     934:	10e780a3          	sb	a4,257(a5)
D:\release_sdk\v2_3_0_2\telink_b91m_driver_src\chip\B91\drivers/mspi.h:103
     938:	10178703          	lb	a4,257(a5)
     93c:	0ef77713          	andi	a4,a4,239
     940:	10e780a3          	sb	a4,257(a5)
D:\release_sdk\v2_3_0_2\telink_b91m_driver_src\chip\B91\drivers/mspi.h:120
     944:	fb900713          	li	a4,-71
     948:	10e78023          	sb	a4,256(a5)
D:\release_sdk\v2_3_0_2\telink_b91m_driver_src\chip\B91\drivers/mspi.h:46
     94c:	10240783          	lb	a5,258(s0) # 80140102 <_DATA_LMA_START+0x6013d8aa>
     950:	fe07fe5b          	bbs	a5,0,94c <pm_sleep_start+0x80>
D:\release_sdk\v2_3_0_2\telink_b91m_driver_src\chip\B91\drivers/mspi.h:95
     954:	10140783          	lb	a5,257(s0)
D:/release_sdk/v2_3_0_2/telink_b91m_driver_src/chip/B91/drivers/lib/src/pm.c:272
     958:	452d                	c.li	a0,11
D:\release_sdk\v2_3_0_2\telink_b91m_driver_src\chip\B91\drivers/mspi.h:95
     95a:	0ff7f793          	andi	a5,a5,255
     95e:	0107e793          	ori	a5,a5,16
     962:	10f400a3          	sb	a5,257(s0)
D:/release_sdk/v2_3_0_2/telink_b91m_driver_src/chip/B91/drivers/lib/src/pm.c:268
     966:	320404a3          	sb	zero,809(s0)
D:/release_sdk/v2_3_0_2/telink_b91m_driver_src/chip/B91/drivers/lib/src/pm.c:272
     96a:	330d                	c.jal	68c <analog_read_reg8>
     96c:	0fc57593          	andi	a1,a0,252
     970:	452d                	c.li	a0,11
     972:	39d9                	c.jal	648 <analog_write_reg8>
D:/release_sdk/v2_3_0_2/telink_b91m_driver_src/chip/B91/drivers/lib/src/pm.c:274
     974:	08100513          	li	a0,129
     978:	d15ff0ef          	jal	ra,68c <analog_read_reg8>
     97c:	f8056593          	ori	a1,a0,-128
     980:	0ff5f593          	andi	a1,a1,255
     984:	08100513          	li	a0,129
     988:	cc1ff0ef          	jal	ra,648 <analog_write_reg8>
D:/release_sdk/v2_3_0_2/telink_b91m_driver_src/chip/B91/drivers/lib/src/pm.c:281
     98c:	f8000793          	li	a5,-128
     990:	1ef407a3          	sb	a5,495(s0)
D:/release_sdk/v2_3_0_2/telink_b91m_driver_src/chip/B91/drivers/lib/src/pm.c:287
     994:	03f00493          	li	s1,63
     998:	00012423          	sw	zero,8(sp)
     99c:	47a2                	c.lwsp	a5,8(sp)
     99e:	00f4e763          	bltu	s1,a5,9ac <pm_sleep_start+0xe0>
D:/release_sdk/v2_3_0_2/telink_b91m_driver_src/chip/B91/drivers/lib/src/pm.c:288
     9a2:	0001                	c.nop
D:/release_sdk/v2_3_0_2/telink_b91m_driver_src/chip/B91/drivers/lib/src/pm.c:287
     9a4:	47a2                	c.lwsp	a5,8(sp)
     9a6:	0785                	c.addi	a5,1
     9a8:	c43e                	c.swsp	a5,8(sp)
     9aa:	bfcd                	c.j	99c <pm_sleep_start+0xd0>
D:/release_sdk/v2_3_0_2/telink_b91m_driver_src/chip/B91/drivers/lib/src/pm.c:291
     9ac:	08100513          	li	a0,129
     9b0:	cddff0ef          	jal	ra,68c <analog_read_reg8>
     9b4:	07f57593          	andi	a1,a0,127
     9b8:	08100513          	li	a0,129
     9bc:	c8dff0ef          	jal	ra,648 <analog_write_reg8>
D:/release_sdk/v2_3_0_2/telink_b91m_driver_src/chip/B91/drivers/lib/src/pm.c:293
     9c0:	00b00513          	li	a0,11
     9c4:	cc9ff0ef          	jal	ra,68c <analog_read_reg8>
     9c8:	00356593          	ori	a1,a0,3
     9cc:	0ff5f593          	andi	a1,a1,255
     9d0:	452d                	c.li	a0,11
     9d2:	399d                	c.jal	648 <analog_write_reg8>
D:/release_sdk/v2_3_0_2/telink_b91m_driver_src/chip/B91/drivers/lib/src/pm.c:295
     9d4:	08000593          	li	a1,128
     9d8:	07d00513          	li	a0,125
     9dc:	c6dff0ef          	jal	ra,648 <analog_write_reg8>
D:/release_sdk/v2_3_0_2/telink_b91m_driver_src/chip/B91/drivers/lib/src/pm.c:304
     9e0:	801407b7          	lui	a5,0x80140
     9e4:	329784a3          	sb	s1,809(a5) # 80140329 <_DATA_LMA_START+0x6013dad1>
D:\release_sdk\v2_3_0_2\telink_b91m_driver_src\chip\B91\drivers/mspi.h:103
     9e8:	10178683          	lb	a3,257(a5)
D:\release_sdk\v2_3_0_2\telink_b91m_driver_src\chip\B91\drivers/mspi.h:46
     9ec:	80140737          	lui	a4,0x80140
D:\release_sdk\v2_3_0_2\telink_b91m_driver_src\chip\B91\drivers/mspi.h:103
     9f0:	0ef6f693          	andi	a3,a3,239
     9f4:	10d780a3          	sb	a3,257(a5)
D:\release_sdk\v2_3_0_2\telink_b91m_driver_src\chip\B91\drivers/mspi.h:120
     9f8:	fab00693          	li	a3,-85
     9fc:	10d78023          	sb	a3,256(a5)
D:\release_sdk\v2_3_0_2\telink_b91m_driver_src\chip\B91\drivers/mspi.h:46
     a00:	10270783          	lb	a5,258(a4) # 80140102 <_DATA_LMA_START+0x6013d8aa>
     a04:	fe07fe5b          	bbs	a5,0,a00 <pm_sleep_start+0x134>
D:\release_sdk\v2_3_0_2\telink_b91m_driver_src\chip\B91\drivers/mspi.h:95
     a08:	10170783          	lb	a5,257(a4)
D:/release_sdk/v2_3_0_2/telink_b91m_driver_src/chip/B91/drivers/lib/src/pm.c:311
     a0c:	12b00693          	li	a3,299
D:\release_sdk\v2_3_0_2\telink_b91m_driver_src\chip\B91\drivers/mspi.h:95
     a10:	0ff7f793          	andi	a5,a5,255
     a14:	0107e793          	ori	a5,a5,16
     a18:	10f700a3          	sb	a5,257(a4)
D:/release_sdk/v2_3_0_2/telink_b91m_driver_src/chip/B91/drivers/lib/src/pm.c:311
     a1c:	00012623          	sw	zero,12(sp)
     a20:	47b2                	c.lwsp	a5,12(sp)
     a22:	00f6e763          	bltu	a3,a5,a30 <pm_sleep_start+0x164>
D:/release_sdk/v2_3_0_2/telink_b91m_driver_src/chip/B91/drivers/lib/src/pm.c:312
     a26:	0001                	c.nop
D:/release_sdk/v2_3_0_2/telink_b91m_driver_src/chip/B91/drivers/lib/src/pm.c:311
     a28:	47b2                	c.lwsp	a5,12(sp)
     a2a:	0785                	c.addi	a5,1
     a2c:	c63e                	c.swsp	a5,12(sp)
     a2e:	bfcd                	c.j	a20 <pm_sleep_start+0x154>
D:/release_sdk/v2_3_0_2/telink_b91m_driver_src/chip/B91/drivers/lib/src/pm.c:315
     a30:	08800513          	li	a0,136
     a34:	c59ff0ef          	jal	ra,68c <analog_read_reg8>
     a38:	be757c5b          	bbc	a0,7,a30 <pm_sleep_start+0x164>
D:/release_sdk/v2_3_0_2/telink_b91m_driver_src/chip/B91/drivers/lib/src/pm.c:316
     a3c:	08800513          	li	a0,136
     a40:	c4dff0ef          	jal	ra,68c <analog_read_reg8>
     a44:	be757c5b          	bbc	a0,7,a3c <pm_sleep_start+0x170>
D:/release_sdk/v2_3_0_2/telink_b91m_driver_src/chip/B91/drivers/lib/src/pm.c:317
     a48:	08800513          	li	a0,136
     a4c:	c41ff0ef          	jal	ra,68c <analog_read_reg8>
     a50:	be757c5b          	bbc	a0,7,a48 <pm_sleep_start+0x17c>
D:/release_sdk/v2_3_0_2/telink_b91m_driver_src/chip/B91/drivers/lib/src/pm.c:320
     a54:	4462                	c.lwsp	s0,24(sp)
     a56:	40f2                	c.lwsp	ra,28(sp)
     a58:	44d2                	c.lwsp	s1,20(sp)
     a5a:	6105                	c.addi16sp	sp,32
D:/release_sdk/v2_3_0_2/telink_b91m_driver_src/chip/B91/drivers/lib/src/pm.c:319
     a5c:	dbdff06f          	j	818 <pm_wait_bbpll_done>

00000a60 <dr_putchar>:
dr_putchar():
/cygdrive/c/Users/SwaminathanK/Downloads/telink_b91m_driver_sdk/project/tlsr_riscv/B91/Debug_Demo/../../../../demo/vendor/common/common/printf.c:52
/**
 * @brief      This function serves to format string by GPIO simulate uart.
 * @param[in]  byte  -  a byte need to print
 * @return     none.
 */
_attribute_ram_code_sec_noinline_  void dr_putchar(unsigned char byte){
     a60:	1101                	c.addi	sp,-32
     a62:	ca26                	c.swsp	s1,20(sp)
     a64:	cc22                	c.swsp	s0,24(sp)
     a66:	ce06                	c.swsp	ra,28(sp)
     a68:	c84a                	c.swsp	s2,16(sp)
/cygdrive/c/Users/SwaminathanK/Downloads/telink_b91m_driver_sdk/project/tlsr_riscv/B91/Debug_Demo/../../../../demo/vendor/common/common/printf.c:58
	unsigned char j = 0;
	unsigned int t1 = 0;
	unsigned int t2 = 0;

	static unsigned char init_flag = 1;
	if(init_flag==1)
     a6a:	801f948b          	addigp	s1,-2048 # 80000 <_DATA_VMA_START>
/cygdrive/c/Users/SwaminathanK/Downloads/telink_b91m_driver_sdk/project/tlsr_riscv/B91/Debug_Demo/../../../../demo/vendor/common/common/printf.c:52
_attribute_ram_code_sec_noinline_  void dr_putchar(unsigned char byte){
     a6e:	842a                	c.mv	s0,a0
/cygdrive/c/Users/SwaminathanK/Downloads/telink_b91m_driver_sdk/project/tlsr_riscv/B91/Debug_Demo/../../../../demo/vendor/common/common/printf.c:58
	if(init_flag==1)
     a70:	0004c783          	lbu	a5,0(s1)
     a74:	0c17d45b          	beqc	a5,1,b3c <dr_putchar+0xdc>
/cygdrive/c/Users/SwaminathanK/Downloads/telink_b91m_driver_sdk/project/tlsr_riscv/B91/Debug_Demo/../../../../demo/vendor/common/common/printf.c:68
		gpio_set_high_level(DEBUG_INFO_TX_PIN);
		init_flag = 0;
	}

#if(MCU_CORE_B91||MCU_CORE_B92)
	unsigned char tmp_bit0 = TX_PIN_OUTPUT_REG & (~(DEBUG_INFO_TX_PIN & 0xff));
     a78:	801407b7          	lui	a5,0x80140
     a7c:	30378803          	lb	a6,771(a5) # 80140303 <_DATA_LMA_START+0x6013daab>
/cygdrive/c/Users/SwaminathanK/Downloads/telink_b91m_driver_sdk/project/tlsr_riscv/B91/Debug_Demo/../../../../demo/vendor/common/common/printf.c:69
	unsigned char tmp_bit1 = TX_PIN_OUTPUT_REG | (DEBUG_INFO_TX_PIN & 0xff);
     a80:	30378783          	lb	a5,771(a5)
/cygdrive/c/Users/SwaminathanK/Downloads/telink_b91m_driver_sdk/project/tlsr_riscv/B91/Debug_Demo/../../../../demo/vendor/common/common/printf.c:68
	unsigned char tmp_bit0 = TX_PIN_OUTPUT_REG & (~(DEBUG_INFO_TX_PIN & 0xff));
     a84:	0fe87813          	andi	a6,a6,254
/cygdrive/c/Users/SwaminathanK/Downloads/telink_b91m_driver_sdk/project/tlsr_riscv/B91/Debug_Demo/../../../../demo/vendor/common/common/printf.c:69
	unsigned char tmp_bit1 = TX_PIN_OUTPUT_REG | (DEBUG_INFO_TX_PIN & 0xff);
     a88:	0ff7f793          	andi	a5,a5,255
/cygdrive/c/Users/SwaminathanK/Downloads/telink_b91m_driver_sdk/project/tlsr_riscv/B91/Debug_Demo/../../../../demo/vendor/common/common/printf.c:79
	unsigned short bit[10] = {0};
#endif



	bit[0] = tmp_bit0;
     a8c:	01010223          	sb	a6,4(sp)
/cygdrive/c/Users/SwaminathanK/Downloads/telink_b91m_driver_sdk/project/tlsr_riscv/B91/Debug_Demo/../../../../demo/vendor/common/common/printf.c:69
	unsigned char tmp_bit1 = TX_PIN_OUTPUT_REG | (DEBUG_INFO_TX_PIN & 0xff);
     a90:	0017e793          	ori	a5,a5,1
/cygdrive/c/Users/SwaminathanK/Downloads/telink_b91m_driver_sdk/project/tlsr_riscv/B91/Debug_Demo/../../../../demo/vendor/common/common/printf.c:80
	bit[1] = (byte & 0x01)? tmp_bit1 : tmp_bit0;
     a94:	8742                	c.mv	a4,a6
     a96:	0004735b          	bbc	s0,0,a9c <dr_putchar+0x3c>
     a9a:	873e                	c.mv	a4,a5
     a9c:	00e102a3          	sb	a4,5(sp)
/cygdrive/c/Users/SwaminathanK/Downloads/telink_b91m_driver_sdk/project/tlsr_riscv/B91/Debug_Demo/../../../../demo/vendor/common/common/printf.c:81
	bit[2] = ((byte>>1) & 0x01)? tmp_bit1 : tmp_bit0;
     aa0:	8742                	c.mv	a4,a6
     aa2:	0014735b          	bbc	s0,1,aa8 <dr_putchar+0x48>
     aa6:	873e                	c.mv	a4,a5
     aa8:	00e10323          	sb	a4,6(sp)
/cygdrive/c/Users/SwaminathanK/Downloads/telink_b91m_driver_sdk/project/tlsr_riscv/B91/Debug_Demo/../../../../demo/vendor/common/common/printf.c:82
	bit[3] = ((byte>>2) & 0x01)? tmp_bit1 : tmp_bit0;
     aac:	8742                	c.mv	a4,a6
     aae:	0024735b          	bbc	s0,2,ab4 <dr_putchar+0x54>
     ab2:	873e                	c.mv	a4,a5
     ab4:	00e103a3          	sb	a4,7(sp)
/cygdrive/c/Users/SwaminathanK/Downloads/telink_b91m_driver_sdk/project/tlsr_riscv/B91/Debug_Demo/../../../../demo/vendor/common/common/printf.c:83
	bit[4] = ((byte>>3) & 0x01)? tmp_bit1 : tmp_bit0;
     ab8:	8742                	c.mv	a4,a6
     aba:	0034735b          	bbc	s0,3,ac0 <dr_putchar+0x60>
     abe:	873e                	c.mv	a4,a5
     ac0:	00e10423          	sb	a4,8(sp)
/cygdrive/c/Users/SwaminathanK/Downloads/telink_b91m_driver_sdk/project/tlsr_riscv/B91/Debug_Demo/../../../../demo/vendor/common/common/printf.c:84
	bit[5] = ((byte>>4) & 0x01)? tmp_bit1 : tmp_bit0;
     ac4:	8742                	c.mv	a4,a6
     ac6:	0044735b          	bbc	s0,4,acc <dr_putchar+0x6c>
     aca:	873e                	c.mv	a4,a5
     acc:	00e104a3          	sb	a4,9(sp)
/cygdrive/c/Users/SwaminathanK/Downloads/telink_b91m_driver_sdk/project/tlsr_riscv/B91/Debug_Demo/../../../../demo/vendor/common/common/printf.c:85
	bit[6] = ((byte>>5) & 0x01)? tmp_bit1 : tmp_bit0;
     ad0:	8742                	c.mv	a4,a6
     ad2:	0054735b          	bbc	s0,5,ad8 <dr_putchar+0x78>
     ad6:	873e                	c.mv	a4,a5
     ad8:	00e10523          	sb	a4,10(sp)
/cygdrive/c/Users/SwaminathanK/Downloads/telink_b91m_driver_sdk/project/tlsr_riscv/B91/Debug_Demo/../../../../demo/vendor/common/common/printf.c:86
	bit[7] = ((byte>>6) & 0x01)? tmp_bit1 : tmp_bit0;
     adc:	8742                	c.mv	a4,a6
     ade:	0064735b          	bbc	s0,6,ae4 <dr_putchar+0x84>
     ae2:	873e                	c.mv	a4,a5
     ae4:	00e105a3          	sb	a4,11(sp)
/cygdrive/c/Users/SwaminathanK/Downloads/telink_b91m_driver_sdk/project/tlsr_riscv/B91/Debug_Demo/../../../../demo/vendor/common/common/printf.c:87
	bit[8] = ((byte>>7) & 0x01)? tmp_bit1 : tmp_bit0;
     ae8:	801d                	c.srli	s0,0x7
     aea:	8742                	c.mv	a4,a6
     aec:	c011                	c.beqz	s0,af0 <dr_putchar+0x90>
     aee:	873e                	c.mv	a4,a5
/cygdrive/c/Users/SwaminathanK/Downloads/telink_b91m_driver_sdk/project/tlsr_riscv/B91/Debug_Demo/../../../../demo/vendor/common/common/printf.c:88
	bit[9] = tmp_bit1;
     af0:	00f106a3          	sb	a5,13(sp)
stimer_get_tick():
C:\Users\SwaminathanK\Downloads\telink_b91m_driver_sdk\chip\B91\drivers/stimer.h:169
 * @return    system timer tick value.
**/
static inline unsigned int stimer_get_tick(void)
{

	return reg_system_tick;
     af4:	801407b7          	lui	a5,0x80140
dr_putchar():
/cygdrive/c/Users/SwaminathanK/Downloads/telink_b91m_driver_sdk/project/tlsr_riscv/B91/Debug_Demo/../../../../demo/vendor/common/common/printf.c:87
	bit[8] = ((byte>>7) & 0x01)? tmp_bit1 : tmp_bit0;
     af8:	00e10623          	sb	a4,12(sp)
stimer_get_tick():
C:\Users\SwaminathanK\Downloads\telink_b91m_driver_sdk\chip\B91\drivers/stimer.h:169
     afc:	2007a603          	lw	a2,512(a5) # 80140200 <_DATA_LMA_START+0x6013d9a8>
     b00:	00510513          	addi	a0,sp,5
     b04:	00e10893          	addi	a7,sp,14
     b08:	801406b7          	lui	a3,0x80140
dr_putchar():
/cygdrive/c/Users/SwaminathanK/Downloads/telink_b91m_driver_sdk/project/tlsr_riscv/B91/Debug_Demo/../../../../demo/vendor/common/common/printf.c:94

	t1 = stimer_get_tick();// stimer register
	for(j = 0;j<10;j++)
	{
		t2=t1;
		while(t1 - t2 < BIT_INTERVAL){
     b0c:	08900593          	li	a1,137
stimer_get_tick():
C:\Users\SwaminathanK\Downloads\telink_b91m_driver_sdk\chip\B91\drivers/stimer.h:169
     b10:	2006a783          	lw	a5,512(a3) # 80140200 <_DATA_LMA_START+0x6013d9a8>
dr_putchar():
/cygdrive/c/Users/SwaminathanK/Downloads/telink_b91m_driver_sdk/project/tlsr_riscv/B91/Debug_Demo/../../../../demo/vendor/common/common/printf.c:94
     b14:	40c78733          	sub	a4,a5,a2
     b18:	fee5fce3          	bgeu	a1,a4,b10 <dr_putchar+0xb0>
/cygdrive/c/Users/SwaminathanK/Downloads/telink_b91m_driver_sdk/project/tlsr_riscv/B91/Debug_Demo/../../../../demo/vendor/common/common/printf.c:97
			t1  = stimer_get_tick();
		}
		TX_PIN_OUTPUT_REG=bit[j];        //send bit0
     b1c:	310681a3          	sb	a6,771(a3)
/cygdrive/c/Users/SwaminathanK/Downloads/telink_b91m_driver_sdk/project/tlsr_riscv/B91/Debug_Demo/../../../../demo/vendor/common/common/printf.c:91
	for(j = 0;j<10;j++)
     b20:	01150863          	beq	a0,a7,b30 <dr_putchar+0xd0>
     b24:	00054803          	lbu	a6,0(a0)
stimer_get_tick():
C:\Users\SwaminathanK\Downloads\telink_b91m_driver_sdk\chip\B91\drivers/stimer.h:169
     b28:	863e                	c.mv	a2,a5
     b2a:	0505                	c.addi	a0,1
     b2c:	fe5ff06f          	j	b10 <dr_putchar+0xb0>
dr_putchar():
/cygdrive/c/Users/SwaminathanK/Downloads/telink_b91m_driver_sdk/project/tlsr_riscv/B91/Debug_Demo/../../../../demo/vendor/common/common/printf.c:99
	}
}
     b30:	40f2                	c.lwsp	ra,28(sp)
     b32:	4462                	c.lwsp	s0,24(sp)
     b34:	44d2                	c.lwsp	s1,20(sp)
     b36:	4942                	c.lwsp	s2,16(sp)
     b38:	6105                	c.addi16sp	sp,32
     b3a:	8082                	c.jr	ra
gpio_function_en():
C:\Users\SwaminathanK\Downloads\telink_b91m_driver_sdk\chip\B91\drivers/gpio.h:195
 * @return     none.
 */
static inline void gpio_function_en(gpio_pin_e pin)
{
	unsigned char	bit = pin & 0xff;
	BM_SET(reg_gpio_func(pin), bit);
     b3c:	80140937          	lui	s2,0x80140
     b40:	30690783          	lb	a5,774(s2) # 80140306 <_DATA_LMA_START+0x6013daae>
gpio_set_up_down_res():
/cygdrive/c/Users/SwaminathanK/Downloads/telink_b91m_driver_sdk/project/tlsr_riscv/B91/Debug_Demo/../../../../chip/B91/drivers/gpio.c:398
			mask_not = 0x3f;
		}
		else{
			return;
		}
	analog_write_reg8(base_ana_reg, (analog_read_reg8(base_ana_reg) & mask_not) | (r_val << shift_num));
     b44:	4539                	c.li	a0,14
gpio_function_en():
C:\Users\SwaminathanK\Downloads\telink_b91m_driver_sdk\chip\B91\drivers/gpio.h:195
     b46:	0ff7f793          	andi	a5,a5,255
     b4a:	0017e793          	ori	a5,a5,1
     b4e:	30f90323          	sb	a5,774(s2)
gpio_set_up_down_res():
/cygdrive/c/Users/SwaminathanK/Downloads/telink_b91m_driver_sdk/project/tlsr_riscv/B91/Debug_Demo/../../../../chip/B91/drivers/gpio.c:398
     b52:	3e2d                	c.jal	68c <analog_read_reg8>
     b54:	0fc57593          	andi	a1,a0,252
     b58:	0015e593          	ori	a1,a1,1
     b5c:	4539                	c.li	a0,14
     b5e:	34ed                	c.jal	648 <analog_write_reg8>
gpio_output_en():
C:\Users\SwaminathanK\Downloads\telink_b91m_driver_sdk\chip\B91\drivers/gpio.h:303
 * @return     none.
 */
static inline void gpio_output_en(gpio_pin_e pin)
{
	unsigned char	bit = pin & 0xff;
	BM_CLR(reg_gpio_oen(pin), bit);
     b60:	30290783          	lb	a5,770(s2)
     b64:	0fe7f793          	andi	a5,a5,254
     b68:	30f90123          	sb	a5,770(s2)
gpio_set_high_level():
C:\Users\SwaminathanK\Downloads\telink_b91m_driver_sdk\chip\B91\drivers/gpio.h:220
	BM_SET(reg_gpio_out(pin), bit);
     b6c:	30390783          	lb	a5,771(s2)
     b70:	0ff7f793          	andi	a5,a5,255
     b74:	0017e793          	ori	a5,a5,1
     b78:	30f901a3          	sb	a5,771(s2)
dr_putchar():
/cygdrive/c/Users/SwaminathanK/Downloads/telink_b91m_driver_sdk/project/tlsr_riscv/B91/Debug_Demo/../../../../demo/vendor/common/common/printf.c:64
		init_flag = 0;
     b7c:	00048023          	sb	zero,0(s1)
     b80:	ef9ff06f          	j	a78 <dr_putchar+0x18>

00000b84 <pm_sleep_wakeup_ram.constprop.6>:
pm_sleep_wakeup_ram():
D:/release_sdk/v2_3_0_2/telink_b91m_driver_src/chip/B91/drivers/lib/src/pm.c:431
     b84:	1101                	c.addi	sp,-32
     b86:	c452                	c.swsp	s4,8(sp)
     b88:	8a2a                	c.mv	s4,a0
     b8a:	ce06                	c.swsp	ra,28(sp)
     b8c:	cc22                	c.swsp	s0,24(sp)
     b8e:	ca26                	c.swsp	s1,20(sp)
     b90:	c84a                	c.swsp	s2,16(sp)
     b92:	c64e                	c.swsp	s3,12(sp)
     b94:	c256                	c.swsp	s5,4(sp)
     b96:	c05a                	c.swsp	s6,0(sp)
core_interrupt_disable():
D:\release_sdk\v2_3_0_2\telink_b91m_driver_src\chip\B91\drivers/core.h:114
     b98:	300029f3          	csrr	s3,mstatus
     b9c:	0089f993          	andi	s3,s3,8
D:\release_sdk\v2_3_0_2\telink_b91m_driver_src\chip\B91\drivers/core.h:115
     ba0:	00098663          	beqz	s3,bac <pm_sleep_wakeup_ram.constprop.6+0x28>
D:\release_sdk\v2_3_0_2\telink_b91m_driver_src\chip\B91\drivers/core.h:117
     ba4:	300477f3          	csrrci	a5,mstatus,8
D:\release_sdk\v2_3_0_2\telink_b91m_driver_src\chip\B91\drivers/core.h:118
     ba8:	0ff0000f          	fence
pm_get_32k_rc_calib():
D:/release_sdk/v2_3_0_2/telink_b91m_driver_src/chip/B91/drivers/lib/src/pm.c:400
     bac:	801407b7          	lui	a5,0x80140
     bb0:	2147a683          	lw	a3,532(a5) # 80140214 <_DATA_LMA_START+0x6013d9bc>
     bb4:	def5                	c.beqz	a3,bb0 <pm_sleep_wakeup_ram.constprop.6+0x2c>
D:/release_sdk/v2_3_0_2/telink_b91m_driver_src/chip/B91/drivers/lib/src/pm.c:403
     bb6:	00000437          	lui	s0,0x0
     bba:	15840693          	addi	a3,s0,344 # 158 <_AES_VMA_END>
D:/release_sdk/v2_3_0_2/telink_b91m_driver_src/chip/B91/drivers/lib/src/pm.c:402
     bbe:	2147a783          	lw	a5,532(a5)
D:/release_sdk/v2_3_0_2/telink_b91m_driver_src/chip/B91/drivers/lib/src/pm.c:405
     bc2:	5298                	c.lw	a4,32(a3)
D:/release_sdk/v2_3_0_2/telink_b91m_driver_src/chip/B91/drivers/lib/src/pm.c:403
     bc4:	da9c                	c.sw	a5,48(a3)
     bc6:	15840413          	addi	s0,s0,344
D:/release_sdk/v2_3_0_2/telink_b91m_driver_src/chip/B91/drivers/lib/src/pm.c:404
     bca:	0792                	c.slli	a5,0x4
D:/release_sdk/v2_3_0_2/telink_b91m_driver_src/chip/B91/drivers/lib/src/pm.c:405
     bcc:	cb11                	c.beqz	a4,be0 <pm_sleep_wakeup_ram.constprop.6+0x5c>
D:/release_sdk/v2_3_0_2/telink_b91m_driver_src/chip/B91/drivers/lib/src/pm.c:411
     bce:	03444603          	lbu	a2,52(s0)
     bd2:	4691                	c.li	a3,4
     bd4:	8f99                	c.sub	a5,a4
     bd6:	8e91                	c.sub	a3,a2
     bd8:	40d7d7b3          	sra	a5,a5,a3
     bdc:	00e787b3          	add	a5,a5,a4
     be0:	d01c                	c.sw	a5,32(s0)
D:/release_sdk/v2_3_0_2/telink_b91m_driver_src/chip/B91/drivers/lib/src/pm.c:414
     be2:	5004                	c.lw	s1,32(s0)
     be4:	485c                	c.lw	a5,20(s0)
     be6:	8491                	c.srai	s1,0x4
     be8:	02f487b3          	mul	a5,s1,a5
pm_sleep_wakeup_ram():
D:\release_sdk\v2_3_0_2\telink_b91m_driver_src\chip\B91\drivers/stimer.h:169
     bec:	80140937          	lui	s2,0x80140
     bf0:	20092a83          	lw	s5,512(s2) # 80140200 <_DATA_LMA_START+0x6013d9a8>
D:/release_sdk/v2_3_0_2/telink_b91m_driver_src/chip/B91/drivers/lib/src/pm.c:456
     bf4:	e0000737          	lui	a4,0xe0000
D:/release_sdk/v2_3_0_2/telink_b91m_driver_src/chip/B91/drivers/lib/src/pm.c:454
     bf8:	415a0ab3          	sub	s5,s4,s5
pm_get_32k_rc_calib():
D:/release_sdk/v2_3_0_2/telink_b91m_driver_src/chip/B91/drivers/lib/src/pm.c:414
     bfc:	87c9                	c.srai	a5,0x12
D:/release_sdk/v2_3_0_2/telink_b91m_driver_src/chip/B91/drivers/lib/src/pm.c:415
     bfe:	94be                	c.add	s1,a5
pm_sleep_wakeup_ram():
D:/release_sdk/v2_3_0_2/telink_b91m_driver_src/chip/B91/drivers/lib/src/pm.c:441
     c00:	0486                	c.slli	s1,0x1
     c02:	dc04                	c.sw	s1,56(s0)
D:/release_sdk/v2_3_0_2/telink_b91m_driver_src/chip/B91/drivers/lib/src/pm.c:456
     c04:	03577063          	bgeu	a4,s5,c24 <pm_sleep_wakeup_ram.constprop.6+0xa0>
core_restore_interrupt():
D:\release_sdk\v2_3_0_2\telink_b91m_driver_src\chip\B91\drivers/core.h:131
     c08:	00098663          	beqz	s3,c14 <pm_sleep_wakeup_ram.constprop.6+0x90>
D:\release_sdk\v2_3_0_2\telink_b91m_driver_src\chip\B91\drivers/core.h:133
     c0c:	3009a9f3          	csrrs	s3,mstatus,s3
D:\release_sdk\v2_3_0_2\telink_b91m_driver_src\chip\B91\drivers/core.h:134
     c10:	0ff0000f          	fence
pm_sleep_wakeup_ram():
D:/release_sdk/v2_3_0_2/telink_b91m_driver_src/chip/B91/drivers/lib/src/pm.c:458
     c14:	06400513          	li	a0,100
     c18:	a75ff0ef          	jal	ra,68c <analog_read_reg8>
     c1c:	01f57513          	andi	a0,a0,31
     c20:	25c0006f          	j	e7c <pm_sleep_wakeup_ram.constprop.6+0x2f8>
D:/release_sdk/v2_3_0_2/telink_b91m_driver_src/chip/B91/drivers/lib/src/pm.c:460
     c24:	04a41783          	lh	a5,74(s0)
     c28:	1137a7db          	bfoz	a5,a5,4,19
     c2c:	02fafe63          	bgeu	s5,a5,c68 <pm_sleep_wakeup_ram.constprop.6+0xe4>
D:/release_sdk/v2_3_0_2/telink_b91m_driver_src/chip/B91/drivers/lib/src/pm.c:462
     c30:	45fd                	c.li	a1,31
     c32:	06400513          	li	a0,100
D:\release_sdk\v2_3_0_2\telink_b91m_driver_src\chip\B91\drivers/stimer.h:169
     c36:	801404b7          	lui	s1,0x80140
     c3a:	20092403          	lw	s0,512(s2)
D:/release_sdk/v2_3_0_2/telink_b91m_driver_src/chip/B91/drivers/lib/src/pm.c:462
     c3e:	3429                	c.jal	648 <analog_write_reg8>
D:/release_sdk/v2_3_0_2/telink_b91m_driver_src/chip/B91/drivers/lib/src/pm.c:465
     c40:	06400513          	li	a0,100
     c44:	a49ff0ef          	jal	ra,68c <analog_read_reg8>
D:\release_sdk\v2_3_0_2\telink_b91m_driver_src\chip\B91\drivers/stimer.h:169
     c48:	2004a783          	lw	a5,512(s1) # 80140200 <_DATA_LMA_START+0x6013d9a8>
D:/release_sdk/v2_3_0_2/telink_b91m_driver_src/chip/B91/drivers/lib/src/pm.c:465
     c4c:	897d                	c.andi	a0,31
D:/release_sdk/v2_3_0_2/telink_b91m_driver_src/chip/B91/drivers/lib/src/pm.c:466
     c4e:	8f81                	c.sub	a5,s0
     c50:	0157f463          	bgeu	a5,s5,c58 <pm_sleep_wakeup_ram.constprop.6+0xd4>
     c54:	fe0506e3          	beqz	a0,c40 <pm_sleep_wakeup_ram.constprop.6+0xbc>
core_restore_interrupt():
D:\release_sdk\v2_3_0_2\telink_b91m_driver_src\chip\B91\drivers/core.h:131
     c58:	22098263          	beqz	s3,e7c <pm_sleep_wakeup_ram.constprop.6+0x2f8>
D:\release_sdk\v2_3_0_2\telink_b91m_driver_src\chip\B91\drivers/core.h:133
     c5c:	3009a9f3          	csrrs	s3,mstatus,s3
D:\release_sdk\v2_3_0_2\telink_b91m_driver_src\chip\B91\drivers/core.h:134
     c60:	0ff0000f          	fence
     c64:	2180006f          	j	e7c <pm_sleep_wakeup_ram.constprop.6+0x2f8>
pm_sleep_wakeup_ram():
D:/release_sdk/v2_3_0_2/telink_b91m_driver_src/chip/B91/drivers/lib/src/pm.c:481
     c68:	1e890a83          	lb	s5,488(s2)
D:/release_sdk/v2_3_0_2/telink_b91m_driver_src/chip/B91/drivers/lib/src/pm.c:482
     c6c:	00faf793          	andi	a5,s5,15
     c70:	1ef90423          	sb	a5,488(s2)
D:/release_sdk/v2_3_0_2/telink_b91m_driver_src/chip/B91/drivers/lib/src/pm.c:483
     c74:	1d890b03          	lb	s6,472(s2)
D:/release_sdk/v2_3_0_2/telink_b91m_driver_src/chip/B91/drivers/lib/src/pm.c:484
     c78:	0f8b7793          	andi	a5,s6,248
     c7c:	1cf90c23          	sb	a5,472(s2)
D:/release_sdk/v2_3_0_2/telink_b91m_driver_src/chip/B91/drivers/lib/src/pm.c:492
     c80:	00100793          	li	a5,1
     c84:	20f90c23          	sb	a5,536(s2)
D:/release_sdk/v2_3_0_2/telink_b91m_driver_src/chip/B91/drivers/lib/src/pm.c:493
     c88:	20a90783          	lb	a5,522(s2)
     c8c:	0f77f793          	andi	a5,a5,247
     c90:	20f90523          	sb	a5,522(s2)
D:/release_sdk/v2_3_0_2/telink_b91m_driver_src/chip/B91/drivers/lib/src/pm.c:494
     c94:	ec4ff0ef          	jal	ra,358 <clock_get_32k_tick>
D:\release_sdk\v2_3_0_2\telink_b91m_driver_src\chip\B91\drivers/stimer.h:169
     c98:	20092703          	lw	a4,512(s2)
D:/release_sdk/v2_3_0_2/telink_b91m_driver_src/chip/B91/drivers/lib/src/pm.c:496
     c9c:	20b90783          	lb	a5,523(s2)
pm_update_32k_rc_sleep_tick():
D:/release_sdk/v2_3_0_2/telink_b91m_driver_src/chip/B91/drivers/lib/src/pm.c:362
     ca0:	5414                	c.lw	a3,40(s0)
pm_sleep_wakeup_ram():
D:/release_sdk/v2_3_0_2/telink_b91m_driver_src/chip/B91/drivers/lib/src/pm.c:496
     ca2:	0ff7f793          	andi	a5,a5,255
     ca6:	0027e793          	ori	a5,a5,2
D:/release_sdk/v2_3_0_2/telink_b91m_driver_src/chip/B91/drivers/lib/src/pm.c:494
     caa:	c468                	c.sw	a0,76(s0)
D:/release_sdk/v2_3_0_2/telink_b91m_driver_src/chip/B91/drivers/lib/src/pm.c:495
     cac:	c418                	c.sw	a4,8(s0)
pm_update_32k_rc_sleep_tick():
D:/release_sdk/v2_3_0_2/telink_b91m_driver_src/chip/B91/drivers/lib/src/pm.c:363
     cae:	03444603          	lbu	a2,52(s0)
D:/release_sdk/v2_3_0_2/telink_b91m_driver_src/chip/B91/drivers/lib/src/pm.c:362
     cb2:	40d506b3          	sub	a3,a0,a3
pm_sleep_wakeup_ram():
D:/release_sdk/v2_3_0_2/telink_b91m_driver_src/chip/B91/drivers/lib/src/pm.c:496
     cb6:	20f905a3          	sb	a5,523(s2)
pm_update_32k_rc_sleep_tick():
D:/release_sdk/v2_3_0_2/telink_b91m_driver_src/chip/B91/drivers/lib/src/pm.c:362
     cba:	d454                	c.sw	a3,44(s0)
D:/release_sdk/v2_3_0_2/telink_b91m_driver_src/chip/B91/drivers/lib/src/pm.c:363
     cbc:	e215                	c.bnez	a2,ce0 <pm_sleep_wakeup_ram.constprop.6+0x15c>
     cbe:	445c                	c.lw	a5,12(s0)
     cc0:	c385                	c.beqz	a5,ce0 <pm_sleep_wakeup_ram.constprop.6+0x15c>
     cc2:	05044783          	lbu	a5,80(s0)
     cc6:	ef89                	c.bnez	a5,ce0 <pm_sleep_wakeup_ram.constprop.6+0x15c>
     cc8:	01042783          	lw	a5,16(s0)
     ccc:	000276b7          	lui	a3,0x27
     cd0:	40f507b3          	sub	a5,a0,a5
     cd4:	6c07a7db          	bfoz	a5,a5,27,0
     cd8:	10068693          	addi	a3,a3,256 # 27100 <BIN_SIZE+0x2487c>
     cdc:	00f6f863          	bgeu	a3,a5,cec <pm_sleep_wakeup_ram.constprop.6+0x168>
D:/release_sdk/v2_3_0_2/telink_b91m_driver_src/chip/B91/drivers/lib/src/pm.c:367
     ce0:	00176713          	ori	a4,a4,1
D:/release_sdk/v2_3_0_2/telink_b91m_driver_src/chip/B91/drivers/lib/src/pm.c:365
     ce4:	02040a23          	sb	zero,52(s0)
D:/release_sdk/v2_3_0_2/telink_b91m_driver_src/chip/B91/drivers/lib/src/pm.c:366
     ce8:	c808                	c.sw	a0,16(s0)
D:/release_sdk/v2_3_0_2/telink_b91m_driver_src/chip/B91/drivers/lib/src/pm.c:367
     cea:	c458                	c.sw	a4,12(s0)
pm_sleep_wakeup_ram():
D:/release_sdk/v2_3_0_2/telink_b91m_driver_src/chip/B91/drivers/lib/src/pm.c:511
     cec:	02000593          	li	a1,32
     cf0:	04b00513          	li	a0,75
     cf4:	955ff0ef          	jal	ra,648 <analog_write_reg8>
D:/release_sdk/v2_3_0_2/telink_b91m_driver_src/chip/B91/drivers/lib/src/pm.c:512
     cf8:	45fd                	c.li	a1,31
     cfa:	06400513          	li	a0,100
     cfe:	32a9                	c.jal	648 <analog_write_reg8>
D:/release_sdk/v2_3_0_2/telink_b91m_driver_src/chip/B91/drivers/lib/src/pm.c:514
     d00:	03000593          	li	a1,48
     d04:	07e00513          	li	a0,126
     d08:	941ff0ef          	jal	ra,648 <analog_write_reg8>
D:/release_sdk/v2_3_0_2/telink_b91m_driver_src/chip/B91/drivers/lib/src/pm.c:559
     d0c:	0f900593          	li	a1,249
     d10:	04d00513          	li	a0,77
     d14:	935ff0ef          	jal	ra,648 <analog_write_reg8>
D:/release_sdk/v2_3_0_2/telink_b91m_driver_src/chip/B91/drivers/lib/src/pm.c:561
     d18:	4585                	c.li	a1,1
     d1a:	07f00513          	li	a0,127
     d1e:	322d                	c.jal	648 <analog_write_reg8>
D:/release_sdk/v2_3_0_2/telink_b91m_driver_src/chip/B91/drivers/lib/src/pm.c:563
     d20:	04841783          	lh	a5,72(s0)
D:/release_sdk/v2_3_0_2/telink_b91m_driver_src/chip/B91/drivers/lib/src/pm.c:596
     d24:	0ee00593          	li	a1,238
D:/release_sdk/v2_3_0_2/telink_b91m_driver_src/chip/B91/drivers/lib/src/pm.c:592
     d28:	1137a7db          	bfoz	a5,a5,4,19
D:/release_sdk/v2_3_0_2/telink_b91m_driver_src/chip/B91/drivers/lib/src/pm.c:596
     d2c:	04c00513          	li	a0,76
D:/release_sdk/v2_3_0_2/telink_b91m_driver_src/chip/B91/drivers/lib/src/pm.c:592
     d30:	40fa0933          	sub	s2,s4,a5
D:/release_sdk/v2_3_0_2/telink_b91m_driver_src/chip/B91/drivers/lib/src/pm.c:596
     d34:	915ff0ef          	jal	ra,648 <analog_write_reg8>
D:/release_sdk/v2_3_0_2/telink_b91m_driver_src/chip/B91/drivers/lib/src/pm.c:618
     d38:	05441583          	lh	a1,84(s0)
     d3c:	04000513          	li	a0,64
     d40:	0ff5f593          	andi	a1,a1,255
     d44:	905ff0ef          	jal	ra,648 <analog_write_reg8>
D:/release_sdk/v2_3_0_2/telink_b91m_driver_src/chip/B91/drivers/lib/src/pm.c:637
     d48:	445c                	c.lw	a5,12(s0)
     d4a:	07ff0737          	lui	a4,0x7ff0
     d4e:	40f907b3          	sub	a5,s2,a5
     d52:	00f77763          	bgeu	a4,a5,d60 <pm_sleep_wakeup_ram.constprop.6+0x1dc>
D:/release_sdk/v2_3_0_2/telink_b91m_driver_src/chip/B91/drivers/lib/src/pm.c:638
     d56:	4705                	c.li	a4,1
     d58:	00e40223          	sb	a4,4(s0)
     d5c:	0080006f          	j	d64 <pm_sleep_wakeup_ram.constprop.6+0x1e0>
D:/release_sdk/v2_3_0_2/telink_b91m_driver_src/chip/B91/drivers/lib/src/pm.c:641
     d60:	00040223          	sb	zero,4(s0)
D:/release_sdk/v2_3_0_2/telink_b91m_driver_src/chip/B91/drivers/lib/src/pm.c:645
     d64:	00444683          	lbu	a3,4(s0)
     d68:	4808                	c.lw	a0,16(s0)
     d6a:	5c18                	c.lw	a4,56(s0)
     d6c:	c691                	c.beqz	a3,d78 <pm_sleep_wakeup_ram.constprop.6+0x1f4>
D:/release_sdk/v2_3_0_2/telink_b91m_driver_src/chip/B91/drivers/lib/src/pm.c:646
     d6e:	02e7d7b3          	divu	a5,a5,a4
     d72:	0796                	c.slli	a5,0x5
     d74:	953e                	c.add	a0,a5
     d76:	a039                	c.j	d84 <pm_sleep_wakeup_ram.constprop.6+0x200>
D:/release_sdk/v2_3_0_2/telink_b91m_driver_src/chip/B91/drivers/lib/src/pm.c:453
     d78:	8085                	c.srli	s1,0x1
D:/release_sdk/v2_3_0_2/telink_b91m_driver_src/chip/B91/drivers/lib/src/pm.c:649
     d7a:	0796                	c.slli	a5,0x5
     d7c:	97a6                	c.add	a5,s1
     d7e:	02e7d7b3          	divu	a5,a5,a4
     d82:	953e                	c.add	a0,a5
D:/release_sdk/v2_3_0_2/telink_b91m_driver_src/chip/B91/drivers/lib/src/pm.c:654
     d84:	d28ff0ef          	jal	ra,2ac <clock_set_32k_tick>
pm_get_wakeup_src():
D:\release_sdk\v2_3_0_2\telink_b91m_driver_src\chip\B91\drivers/lib/include/pm.h:239
     d88:	06400513          	li	a0,100
     d8c:	901ff0ef          	jal	ra,68c <analog_read_reg8>
pm_sleep_wakeup_ram():
D:/release_sdk/v2_3_0_2/telink_b91m_driver_src/chip/B91/drivers/lib/src/pm.c:671
     d90:	01f57513          	andi	a0,a0,31
     d94:	e901                	c.bnez	a0,da4 <pm_sleep_wakeup_ram.constprop.6+0x220>
D:/release_sdk/v2_3_0_2/telink_b91m_driver_src/chip/B91/drivers/lib/src/pm.c:679
     d96:	3e1d                	c.jal	8cc <pm_sleep_start>
D:/release_sdk/v2_3_0_2/telink_b91m_driver_src/chip/B91/drivers/lib/src/pm.c:682
     d98:	00100593          	li	a1,1
     d9c:	07f00513          	li	a0,127
     da0:	8a9ff0ef          	jal	ra,648 <analog_write_reg8>
D:/release_sdk/v2_3_0_2/telink_b91m_driver_src/chip/B91/drivers/lib/src/pm.c:691
     da4:	80140737          	lui	a4,0x80140
     da8:	02000793          	li	a5,32
     dac:	1ef707a3          	sb	a5,495(a4) # 801401ef <_DATA_LMA_START+0x6013d997>
D:/release_sdk/v2_3_0_2/telink_b91m_driver_src/chip/B91/drivers/lib/src/pm.c:694
     db0:	00200793          	li	a5,2
     db4:	20f70c23          	sb	a5,536(a4)
D:/release_sdk/v2_3_0_2/telink_b91m_driver_src/chip/B91/drivers/lib/src/pm.c:695
     db8:	20a70783          	lb	a5,522(a4)
     dbc:	0ff7f793          	andi	a5,a5,255
     dc0:	00c7e793          	ori	a5,a5,12
     dc4:	20f70523          	sb	a5,522(a4)
D:/release_sdk/v2_3_0_2/telink_b91m_driver_src/chip/B91/drivers/lib/src/pm.c:696
     dc8:	d90ff0ef          	jal	ra,358 <clock_get_32k_tick>
D:/release_sdk/v2_3_0_2/telink_b91m_driver_src/chip/B91/drivers/lib/src/pm.c:697
     dcc:	00444783          	lbu	a5,4(s0)
     dd0:	cf81                	c.beqz	a5,de8 <pm_sleep_wakeup_ram.constprop.6+0x264>
D:/release_sdk/v2_3_0_2/telink_b91m_driver_src/chip/B91/drivers/lib/src/pm.c:698
     dd2:	481c                	c.lw	a5,16(s0)
     dd4:	5c14                	c.lw	a3,56(s0)
     dd6:	40f507b3          	sub	a5,a0,a5
     dda:	4458                	c.lw	a4,12(s0)
     ddc:	0785                	c.addi	a5,1
     dde:	8395                	c.srli	a5,0x5
     de0:	c4d7977f          	maddr32	a4,a5,a3
     de4:	c418                	c.sw	a4,8(s0)
     de6:	a829                	c.j	e00 <pm_sleep_wakeup_ram.constprop.6+0x27c>
D:/release_sdk/v2_3_0_2/telink_b91m_driver_src/chip/B91/drivers/lib/src/pm.c:700
     de8:	481c                	c.lw	a5,16(s0)
     dea:	5c18                	c.lw	a4,56(s0)
     dec:	40f507b3          	sub	a5,a0,a5
     df0:	0785                	c.addi	a5,1
     df2:	02e787b3          	mul	a5,a5,a4
     df6:	4458                	c.lw	a4,12(s0)
     df8:	8395                	c.srli	a5,0x5
     dfa:	97ba                	c.add	a5,a4
     dfc:	00f42423          	sw	a5,8(s0)
D:/release_sdk/v2_3_0_2/telink_b91m_driver_src/chip/B91/drivers/lib/src/pm.c:703
     e00:	481c                	c.lw	a5,16(s0)
D:/release_sdk/v2_3_0_2/telink_b91m_driver_src/chip/B91/drivers/lib/src/pm.c:704
     e02:	4414                	c.lw	a3,8(s0)
D:/release_sdk/v2_3_0_2/telink_b91m_driver_src/chip/B91/drivers/lib/src/pm.c:703
     e04:	40f507b3          	sub	a5,a0,a5
     e08:	0785                	c.addi	a5,1
D:/release_sdk/v2_3_0_2/telink_b91m_driver_src/chip/B91/drivers/lib/src/pm.c:702
     e0a:	0505                	c.addi	a0,1
D:/release_sdk/v2_3_0_2/telink_b91m_driver_src/chip/B91/drivers/lib/src/pm.c:703
     e0c:	d05c                	c.sw	a5,36(s0)
D:/release_sdk/v2_3_0_2/telink_b91m_driver_src/chip/B91/drivers/lib/src/pm.c:704
     e0e:	0685                	c.addi	a3,1
D:/release_sdk/v2_3_0_2/telink_b91m_driver_src/chip/B91/drivers/lib/src/pm.c:702
     e10:	02a42423          	sw	a0,40(s0)
D:/release_sdk/v2_3_0_2/telink_b91m_driver_src/chip/B91/drivers/lib/src/pm.c:704
     e14:	801407b7          	lui	a5,0x80140
D:/release_sdk/v2_3_0_2/telink_b91m_driver_src/chip/B91/drivers/lib/src/pm.c:716
     e18:	80140737          	lui	a4,0x80140
D:/release_sdk/v2_3_0_2/telink_b91m_driver_src/chip/B91/drivers/lib/src/pm.c:704
     e1c:	20d7a023          	sw	a3,512(a5) # 80140200 <_DATA_LMA_START+0x6013d9a8>
D:/release_sdk/v2_3_0_2/telink_b91m_driver_src/chip/B91/drivers/lib/src/pm.c:716
     e20:	20b70783          	lb	a5,523(a4) # 8014020b <_DATA_LMA_START+0x6013d9b3>
     e24:	be77fe5b          	bbc	a5,7,e20 <pm_sleep_wakeup_ram.constprop.6+0x29c>
D:/release_sdk/v2_3_0_2/telink_b91m_driver_src/chip/B91/drivers/lib/src/pm.c:717
     e28:	20070c23          	sb	zero,536(a4)
D:/release_sdk/v2_3_0_2/telink_b91m_driver_src/chip/B91/drivers/lib/src/pm.c:743
     e2c:	1d670c23          	sb	s6,472(a4)
pm_get_wakeup_src():
D:\release_sdk\v2_3_0_2\telink_b91m_driver_src\chip\B91\drivers/lib/include/pm.h:239
     e30:	06400513          	li	a0,100
pm_sleep_wakeup_ram():
D:/release_sdk/v2_3_0_2/telink_b91m_driver_src/chip/B91/drivers/lib/src/pm.c:744
     e34:	1f570423          	sb	s5,488(a4)
pm_get_wakeup_src():
D:\release_sdk\v2_3_0_2\telink_b91m_driver_src\chip\B91\drivers/lib/include/pm.h:239
     e38:	855ff0ef          	jal	ra,68c <analog_read_reg8>
pm_sleep_wakeup_ram():
D:/release_sdk/v2_3_0_2/telink_b91m_driver_src/chip/B91/drivers/lib/src/pm.c:751
     e3c:	829f970b          	addigp	a4,-2008 # 80028 <g_pm_status_info>
     e40:	00a700a3          	sb	a0,1(a4)
     e44:	829f978b          	addigp	a5,-2008 # 80028 <g_pm_status_info>
D:/release_sdk/v2_3_0_2/telink_b91m_driver_src/chip/B91/drivers/lib/src/pm.c:753
     e48:	00157c5b          	bbc	a0,1,e60 <pm_sleep_wakeup_ram.constprop.6+0x2dc>
D:\release_sdk\v2_3_0_2\telink_b91m_driver_src\chip\B91\drivers/stimer.h:169
     e4c:	80140637          	lui	a2,0x80140
D:/release_sdk/v2_3_0_2/telink_b91m_driver_src/chip/B91/drivers/lib/src/pm.c:756
     e50:	400006b7          	lui	a3,0x40000
D:\release_sdk\v2_3_0_2\telink_b91m_driver_src\chip\B91\drivers/stimer.h:169
     e54:	20062703          	lw	a4,512(a2) # 80140200 <_DATA_LMA_START+0x6013d9a8>
D:/release_sdk/v2_3_0_2/telink_b91m_driver_src/chip/B91/drivers/lib/src/pm.c:756
     e58:	41470733          	sub	a4,a4,s4
     e5c:	fee6ece3          	bltu	a3,a4,e54 <pm_sleep_wakeup_ram.constprop.6+0x2d0>
core_restore_interrupt():
D:\release_sdk\v2_3_0_2\telink_b91m_driver_src\chip\B91\drivers/core.h:131
     e60:	00098663          	beqz	s3,e6c <pm_sleep_wakeup_ram.constprop.6+0x2e8>
D:\release_sdk\v2_3_0_2\telink_b91m_driver_src\chip\B91\drivers/core.h:133
     e64:	3009a9f3          	csrrs	s3,mstatus,s3
D:\release_sdk\v2_3_0_2\telink_b91m_driver_src\chip\B91\drivers/core.h:134
     e68:	0ff0000f          	fence
pm_sleep_wakeup_ram():
D:/release_sdk/v2_3_0_2/telink_b91m_driver_src/chip/B91/drivers/lib/src/pm.c:774
     e6c:	0017c783          	lbu	a5,1(a5)
     e70:	10000513          	li	a0,256
     e74:	c781                	c.beqz	a5,e7c <pm_sleep_wakeup_ram.constprop.6+0x2f8>
     e76:	40000537          	lui	a0,0x40000
     e7a:	8d5d                	c.or	a0,a5
D:/release_sdk/v2_3_0_2/telink_b91m_driver_src/chip/B91/drivers/lib/src/pm.c:776
     e7c:	40f2                	c.lwsp	ra,28(sp)
     e7e:	4462                	c.lwsp	s0,24(sp)
     e80:	44d2                	c.lwsp	s1,20(sp)
     e82:	4942                	c.lwsp	s2,16(sp)
     e84:	49b2                	c.lwsp	s3,12(sp)
     e86:	4a22                	c.lwsp	s4,8(sp)
     e88:	4a92                	c.lwsp	s5,4(sp)
     e8a:	4b02                	c.lwsp	s6,0(sp)
     e8c:	6105                	c.addi16sp	sp,32
     e8e:	8082                	c.jr	ra

00000e90 <trap_entry>:
trap_entry():
/cygdrive/c/Users/SwaminathanK/Downloads/telink_b91m_driver_sdk/project/tlsr_riscv/B91/Debug_Demo/../../../../demo/vendor/common/B91/exception.c:92
 * @brief       This function service to handle all the platform pre-defined interrupt or exception.
 * @return      none
 */
_attribute_ram_code_sec_noinline_ void trap_entry(void) __attribute__((interrupt("machine"), aligned(4)));
void trap_entry(void)
{
     e90:	1101                	c.addi	sp,-32
     e92:	ce2a                	c.swsp	a0,28(sp)
     e94:	cc2e                	c.swsp	a1,24(sp)
     e96:	ca32                	c.swsp	a2,20(sp)
     e98:	c836                	c.swsp	a3,16(sp)
     e9a:	c63a                	c.swsp	a4,12(sp)
     e9c:	c43e                	c.swsp	a5,8(sp)
/cygdrive/c/Users/SwaminathanK/Downloads/telink_b91m_driver_sdk/project/tlsr_riscv/B91/Debug_Demo/../../../../demo/vendor/common/B91/exception.c:93
    long mcause = read_csr(NDS_MCAUSE);
     e9e:	34202773          	csrr	a4,mcause
/cygdrive/c/Users/SwaminathanK/Downloads/telink_b91m_driver_sdk/project/tlsr_riscv/B91/Debug_Demo/../../../../demo/vendor/common/B91/exception.c:98
    long mepc = 0;
    long mstatus = 0;
    long mxstatus = 0;

    if (g_plic_preempt_en)
     ea2:	000007b7          	lui	a5,0x0
     ea6:	15878793          	addi	a5,a5,344 # 158 <_AES_VMA_END>
     eaa:	03c78683          	lb	a3,60(a5)
     eae:	0ff6f693          	andi	a3,a3,255
     eb2:	c2dd                	c.beqz	a3,f58 <trap_entry+0xc8>
/cygdrive/c/Users/SwaminathanK/Downloads/telink_b91m_driver_sdk/project/tlsr_riscv/B91/Debug_Demo/../../../../demo/vendor/common/B91/exception.c:100
    {
        mepc = read_csr(NDS_MEPC);
     eb4:	34102673          	csrr	a2,mepc
/cygdrive/c/Users/SwaminathanK/Downloads/telink_b91m_driver_sdk/project/tlsr_riscv/B91/Debug_Demo/../../../../demo/vendor/common/B91/exception.c:101
        mstatus = read_csr(NDS_MSTATUS);
     eb8:	300025f3          	csrr	a1,mstatus
/cygdrive/c/Users/SwaminathanK/Downloads/telink_b91m_driver_sdk/project/tlsr_riscv/B91/Debug_Demo/../../../../demo/vendor/common/B91/exception.c:102
        mxstatus = read_csr(NDS_MXSTATUS);
     ebc:	7c4026f3          	csrr	a3,mxstatus
/cygdrive/c/Users/SwaminathanK/Downloads/telink_b91m_driver_sdk/project/tlsr_riscv/B91/Debug_Demo/../../../../demo/vendor/common/B91/exception.c:105
    }

    if ((mcause & 0x80000000UL) && ((mcause & 0x7FFFFFFFUL) == 7)) /* machine timer interrupt */
     ec0:	02074a63          	bltz	a4,ef4 <trap_entry+0x64>
except_handler():
/cygdrive/c/Users/SwaminathanK/Downloads/telink_b91m_driver_sdk/project/tlsr_riscv/B91/Debug_Demo/../../../../demo/vendor/common/B91/exception.c:74
    exception_mtval = read_csr(NDS_MTVAL);
     ec4:	34302773          	csrr	a4,mtval
     ec8:	82efc1ab          	swgp	a4,-2016 # 80020 <exception_mtval>
/cygdrive/c/Users/SwaminathanK/Downloads/telink_b91m_driver_sdk/project/tlsr_riscv/B91/Debug_Demo/../../../../demo/vendor/common/B91/exception.c:75
    exception_mepc = read_csr(NDS_MEPC);
     ecc:	34102773          	csrr	a4,mepc
     ed0:	80efcdab          	swgp	a4,-2024 # 80018 <exception_mepc>
/cygdrive/c/Users/SwaminathanK/Downloads/telink_b91m_driver_sdk/project/tlsr_riscv/B91/Debug_Demo/../../../../demo/vendor/common/B91/exception.c:76
    exception_mstatus = read_csr(NDS_MSTATUS);
     ed4:	30002773          	csrr	a4,mstatus
     ed8:	80efcfab          	swgp	a4,-2020 # 8001c <exception_mstatus>
/cygdrive/c/Users/SwaminathanK/Downloads/telink_b91m_driver_sdk/project/tlsr_riscv/B91/Debug_Demo/../../../../demo/vendor/common/B91/exception.c:77
    exception_mcause = read_csr(NDS_MCAUSE);
     edc:	34202773          	csrr	a4,mcause
     ee0:	80efc9ab          	swgp	a4,-2032 # 80010 <_BSS_VMA_START>
/cygdrive/c/Users/SwaminathanK/Downloads/telink_b91m_driver_sdk/project/tlsr_riscv/B91/Debug_Demo/../../../../demo/vendor/common/B91/exception.c:78
    exception_mdcause = read_csr(NDS_MDCAUSE);
     ee4:	7c902773          	csrr	a4,mdcause
     ee8:	80efcbab          	swgp	a4,-2028 # 80014 <exception_mdcause>
/cygdrive/c/Users/SwaminathanK/Downloads/telink_b91m_driver_sdk/project/tlsr_riscv/B91/Debug_Demo/../../../../demo/vendor/common/B91/exception.c:82
        __asm__("nop");
     eec:	0001                	c.nop
     eee:	0001                	c.nop
     ef0:	ffdff06f          	j	eec <trap_entry+0x5c>
trap_entry():
/cygdrive/c/Users/SwaminathanK/Downloads/telink_b91m_driver_sdk/project/tlsr_riscv/B91/Debug_Demo/../../../../demo/vendor/common/B91/exception.c:105
    if ((mcause & 0x80000000UL) && ((mcause & 0x7FFFFFFFUL) == 7)) /* machine timer interrupt */
     ef4:	7807275b          	bfoz	a4,a4,30,0
     ef8:	0677545b          	beqc	a4,7,f60 <trap_entry+0xd0>
/cygdrive/c/Users/SwaminathanK/Downloads/telink_b91m_driver_sdk/project/tlsr_riscv/B91/Debug_Demo/../../../../demo/vendor/common/B91/exception.c:123
            clear_csr(NDS_MSTATUS, FLD_MSTATUS_MIE);
            /* re-enable the timer interrupt. */
            core_mie_enable(FLD_MIE_MTIE);
        }
    }
    else if ((mcause & 0x80000000UL) && ((mcause & 0x7FFFFFFFUL) == 3)) /* machine software interrupt */
     efc:	bc37645b          	bnec	a4,3,ec4 <trap_entry+0x34>
plic_sw_interrupt_claim():
C:\Users\SwaminathanK\Downloads\telink_b91m_driver_sdk\chip\B91\drivers/plic_sw.h:87
 * @return   It returns the software interrupt source id.
 * @note     The claim signal needs to be generated manually in the interrupt service routine.
 */
static inline unsigned int plic_sw_interrupt_claim(void)
{
    return reg_irq_sw_done;
     f00:	e6600737          	lui	a4,0xe6600
     f04:	4358                	c.lw	a4,4(a4)
trap_entry():
/cygdrive/c/Users/SwaminathanK/Downloads/telink_b91m_driver_sdk/project/tlsr_riscv/B91/Debug_Demo/../../../../demo/vendor/common/B91/exception.c:127
    {
        plic_sw_interrupt_claim();
        /* if support interrupt nest,enable global interrupt */
        if (g_plic_preempt_en)
     f06:	03c78703          	lb	a4,60(a5)
     f0a:	0ff77713          	andi	a4,a4,255
     f0e:	c319                	c.beqz	a4,f14 <trap_entry+0x84>
/cygdrive/c/Users/SwaminathanK/Downloads/telink_b91m_driver_sdk/project/tlsr_riscv/B91/Debug_Demo/../../../../demo/vendor/common/B91/exception.c:129
        {
            set_csr(NDS_MSTATUS, FLD_MSTATUS_MIE);
     f10:	30046773          	csrrsi	a4,mstatus,8
/cygdrive/c/Users/SwaminathanK/Downloads/telink_b91m_driver_sdk/project/tlsr_riscv/B91/Debug_Demo/../../../../demo/vendor/common/B91/exception.c:134
        }

        mswi_irq_handler();

        if (g_plic_preempt_en)
     f14:	03c78703          	lb	a4,60(a5)
     f18:	0ff77713          	andi	a4,a4,255
     f1c:	00070463          	beqz	a4,f24 <trap_entry+0x94>
/cygdrive/c/Users/SwaminathanK/Downloads/telink_b91m_driver_sdk/project/tlsr_riscv/B91/Debug_Demo/../../../../demo/vendor/common/B91/exception.c:136
        {
            clear_csr(NDS_MSTATUS, FLD_MSTATUS_MIE);
     f20:	30047773          	csrrci	a4,mstatus,8
plic_sw_interrupt_complete():
C:\Users\SwaminathanK\Downloads\telink_b91m_driver_sdk\chip\B91\drivers/plic_sw.h:97
 * @return   none
 * @note     Software interrupts need to be completed before exiting the interrupt service routine to ensure that software interrupts are fully released..
 */
static inline void plic_sw_interrupt_complete()
{
    reg_irq_sw_done = FLD_PLIC_SW_ID;
     f24:	e6600737          	lui	a4,0xe6600
     f28:	4505                	c.li	a0,1
     f2a:	c348                	c.sw	a0,4(a4)
trap_entry():
/cygdrive/c/Users/SwaminathanK/Downloads/telink_b91m_driver_sdk/project/tlsr_riscv/B91/Debug_Demo/../../../../demo/vendor/common/B91/exception.c:146
    else /* unhandled Trap */
    {
        except_handler();
    }

    if (g_plic_preempt_en)
     f2c:	03c78783          	lb	a5,60(a5)
     f30:	0ff7f793          	andi	a5,a5,255
     f34:	00078863          	beqz	a5,f44 <trap_entry+0xb4>
/cygdrive/c/Users/SwaminathanK/Downloads/telink_b91m_driver_sdk/project/tlsr_riscv/B91/Debug_Demo/../../../../demo/vendor/common/B91/exception.c:148
    {
        write_csr(NDS_MSTATUS, mstatus);
     f38:	30059073          	csrw	mstatus,a1
/cygdrive/c/Users/SwaminathanK/Downloads/telink_b91m_driver_sdk/project/tlsr_riscv/B91/Debug_Demo/../../../../demo/vendor/common/B91/exception.c:149
        write_csr(NDS_MEPC, mepc);
     f3c:	34161073          	csrw	mepc,a2
/cygdrive/c/Users/SwaminathanK/Downloads/telink_b91m_driver_sdk/project/tlsr_riscv/B91/Debug_Demo/../../../../demo/vendor/common/B91/exception.c:150
        write_csr(NDS_MXSTATUS, mxstatus);
     f40:	7c469073          	csrw	mxstatus,a3
/cygdrive/c/Users/SwaminathanK/Downloads/telink_b91m_driver_sdk/project/tlsr_riscv/B91/Debug_Demo/../../../../demo/vendor/common/B91/exception.c:152
    }
}
     f44:	4572                	c.lwsp	a0,28(sp)
     f46:	45e2                	c.lwsp	a1,24(sp)
     f48:	4652                	c.lwsp	a2,20(sp)
     f4a:	46c2                	c.lwsp	a3,16(sp)
     f4c:	4732                	c.lwsp	a4,12(sp)
     f4e:	47a2                	c.lwsp	a5,8(sp)
     f50:	02010113          	addi	sp,sp,32
     f54:	30200073          	mret
/cygdrive/c/Users/SwaminathanK/Downloads/telink_b91m_driver_sdk/project/tlsr_riscv/B91/Debug_Demo/../../../../demo/vendor/common/B91/exception.c:96
    long mxstatus = 0;
     f58:	4681                	c.li	a3,0
/cygdrive/c/Users/SwaminathanK/Downloads/telink_b91m_driver_sdk/project/tlsr_riscv/B91/Debug_Demo/../../../../demo/vendor/common/B91/exception.c:95
    long mstatus = 0;
     f5a:	4581                	c.li	a1,0
/cygdrive/c/Users/SwaminathanK/Downloads/telink_b91m_driver_sdk/project/tlsr_riscv/B91/Debug_Demo/../../../../demo/vendor/common/B91/exception.c:94
    long mepc = 0;
     f5c:	4601                	c.li	a2,0
     f5e:	b78d                	c.j	ec0 <trap_entry+0x30>
/cygdrive/c/Users/SwaminathanK/Downloads/telink_b91m_driver_sdk/project/tlsr_riscv/B91/Debug_Demo/../../../../demo/vendor/common/B91/exception.c:107
        if (g_plic_preempt_en)
     f60:	03c78703          	lb	a4,60(a5)
     f64:	0ff77713          	andi	a4,a4,255
     f68:	00070863          	beqz	a4,f78 <trap_entry+0xe8>
core_mie_disable():
C:\Users\SwaminathanK\Downloads\telink_b91m_driver_sdk\chip\B91\drivers/core.h:156
 * @param[in] mie_mask - MIE(Machine Interrupt Enable) register mask.
 * @return  none
 */
static inline void core_mie_disable(mie_e mie_mask)
{
    clear_csr(NDS_MIE, mie_mask);
     f6c:	08000713          	li	a4,128
     f70:	30473773          	csrrc	a4,mie,a4
trap_entry():
/cygdrive/c/Users/SwaminathanK/Downloads/telink_b91m_driver_sdk/project/tlsr_riscv/B91/Debug_Demo/../../../../demo/vendor/common/B91/exception.c:111
            set_csr(NDS_MSTATUS, FLD_MSTATUS_MIE);
     f74:	30046773          	csrrsi	a4,mstatus,8
/cygdrive/c/Users/SwaminathanK/Downloads/telink_b91m_driver_sdk/project/tlsr_riscv/B91/Debug_Demo/../../../../demo/vendor/common/B91/exception.c:116
        if (g_plic_preempt_en)
     f78:	03c78703          	lb	a4,60(a5)
     f7c:	0ff77713          	andi	a4,a4,255
     f80:	d755                	c.beqz	a4,f2c <trap_entry+0x9c>
/cygdrive/c/Users/SwaminathanK/Downloads/telink_b91m_driver_sdk/project/tlsr_riscv/B91/Debug_Demo/../../../../demo/vendor/common/B91/exception.c:118
            clear_csr(NDS_MSTATUS, FLD_MSTATUS_MIE);
     f82:	30047773          	csrrci	a4,mstatus,8
core_mie_enable():
C:\Users\SwaminathanK\Downloads\telink_b91m_driver_sdk\chip\B91\drivers/core.h:146
    set_csr(NDS_MIE, mie_mask);
     f86:	08000713          	li	a4,128
     f8a:	30472773          	csrrs	a4,mie,a4
     f8e:	bf79                	c.j	f2c <trap_entry+0x9c>
	...

00001000 <__vectors>:
__vectors():
    1000:	0e90                	c.addi4spn	a2,sp,848
    1002:	0000                	unimp
    1004:	1a14                	c.addi4spn	a3,sp,304
    1006:	2000                	c.fld	fs0,0(s0)
    1008:	1a14                	c.addi4spn	a3,sp,304
    100a:	2000                	c.fld	fs0,0(s0)
    100c:	1a14                	c.addi4spn	a3,sp,304
    100e:	2000                	c.fld	fs0,0(s0)
    1010:	1a14                	c.addi4spn	a3,sp,304
    1012:	2000                	c.fld	fs0,0(s0)
    1014:	1a14                	c.addi4spn	a3,sp,304
    1016:	2000                	c.fld	fs0,0(s0)
    1018:	1a14                	c.addi4spn	a3,sp,304
    101a:	2000                	c.fld	fs0,0(s0)
    101c:	1a14                	c.addi4spn	a3,sp,304
    101e:	2000                	c.fld	fs0,0(s0)
    1020:	1a14                	c.addi4spn	a3,sp,304
    1022:	2000                	c.fld	fs0,0(s0)
    1024:	1a14                	c.addi4spn	a3,sp,304
    1026:	2000                	c.fld	fs0,0(s0)
    1028:	1a14                	c.addi4spn	a3,sp,304
    102a:	2000                	c.fld	fs0,0(s0)
    102c:	1a14                	c.addi4spn	a3,sp,304
    102e:	2000                	c.fld	fs0,0(s0)
    1030:	1a14                	c.addi4spn	a3,sp,304
    1032:	2000                	c.fld	fs0,0(s0)
    1034:	1a14                	c.addi4spn	a3,sp,304
    1036:	2000                	c.fld	fs0,0(s0)
    1038:	1a14                	c.addi4spn	a3,sp,304
    103a:	2000                	c.fld	fs0,0(s0)
    103c:	1a14                	c.addi4spn	a3,sp,304
    103e:	2000                	c.fld	fs0,0(s0)
    1040:	1a14                	c.addi4spn	a3,sp,304
    1042:	2000                	c.fld	fs0,0(s0)
    1044:	1a14                	c.addi4spn	a3,sp,304
    1046:	2000                	c.fld	fs0,0(s0)
    1048:	1a14                	c.addi4spn	a3,sp,304
    104a:	2000                	c.fld	fs0,0(s0)
    104c:	1a14                	c.addi4spn	a3,sp,304
    104e:	2000                	c.fld	fs0,0(s0)
    1050:	1a14                	c.addi4spn	a3,sp,304
    1052:	2000                	c.fld	fs0,0(s0)
    1054:	1a14                	c.addi4spn	a3,sp,304
    1056:	2000                	c.fld	fs0,0(s0)
    1058:	1a14                	c.addi4spn	a3,sp,304
    105a:	2000                	c.fld	fs0,0(s0)
    105c:	1a14                	c.addi4spn	a3,sp,304
    105e:	2000                	c.fld	fs0,0(s0)
    1060:	1a14                	c.addi4spn	a3,sp,304
    1062:	2000                	c.fld	fs0,0(s0)
    1064:	1a14                	c.addi4spn	a3,sp,304
    1066:	2000                	c.fld	fs0,0(s0)
    1068:	1a14                	c.addi4spn	a3,sp,304
    106a:	2000                	c.fld	fs0,0(s0)
    106c:	1a14                	c.addi4spn	a3,sp,304
    106e:	2000                	c.fld	fs0,0(s0)
    1070:	1a14                	c.addi4spn	a3,sp,304
    1072:	2000                	c.fld	fs0,0(s0)
    1074:	1a14                	c.addi4spn	a3,sp,304
    1076:	2000                	c.fld	fs0,0(s0)
    1078:	1a14                	c.addi4spn	a3,sp,304
    107a:	2000                	c.fld	fs0,0(s0)
    107c:	1a14                	c.addi4spn	a3,sp,304
    107e:	2000                	c.fld	fs0,0(s0)
    1080:	1a14                	c.addi4spn	a3,sp,304
    1082:	2000                	c.fld	fs0,0(s0)
    1084:	1a14                	c.addi4spn	a3,sp,304
    1086:	2000                	c.fld	fs0,0(s0)
    1088:	1a14                	c.addi4spn	a3,sp,304
    108a:	2000                	c.fld	fs0,0(s0)
    108c:	1a14                	c.addi4spn	a3,sp,304
    108e:	2000                	c.fld	fs0,0(s0)
    1090:	1a14                	c.addi4spn	a3,sp,304
    1092:	2000                	c.fld	fs0,0(s0)
    1094:	1a14                	c.addi4spn	a3,sp,304
    1096:	2000                	c.fld	fs0,0(s0)
    1098:	1a14                	c.addi4spn	a3,sp,304
    109a:	2000                	c.fld	fs0,0(s0)
    109c:	1a14                	c.addi4spn	a3,sp,304
    109e:	2000                	c.fld	fs0,0(s0)
    10a0:	1a14                	c.addi4spn	a3,sp,304
    10a2:	2000                	c.fld	fs0,0(s0)
    10a4:	1a14                	c.addi4spn	a3,sp,304
    10a6:	2000                	c.fld	fs0,0(s0)
    10a8:	1a14                	c.addi4spn	a3,sp,304
    10aa:	2000                	c.fld	fs0,0(s0)
    10ac:	1a14                	c.addi4spn	a3,sp,304
    10ae:	2000                	c.fld	fs0,0(s0)
    10b0:	1a14                	c.addi4spn	a3,sp,304
    10b2:	2000                	c.fld	fs0,0(s0)
    10b4:	1a14                	c.addi4spn	a3,sp,304
    10b6:	2000                	c.fld	fs0,0(s0)
    10b8:	1a14                	c.addi4spn	a3,sp,304
    10ba:	2000                	c.fld	fs0,0(s0)
    10bc:	1a14                	c.addi4spn	a3,sp,304
    10be:	2000                	c.fld	fs0,0(s0)
    10c0:	1a14                	c.addi4spn	a3,sp,304
    10c2:	2000                	c.fld	fs0,0(s0)
    10c4:	1a14                	c.addi4spn	a3,sp,304
    10c6:	2000                	c.fld	fs0,0(s0)
    10c8:	1a14                	c.addi4spn	a3,sp,304
    10ca:	2000                	c.fld	fs0,0(s0)
    10cc:	1a14                	c.addi4spn	a3,sp,304
    10ce:	2000                	c.fld	fs0,0(s0)
    10d0:	1a14                	c.addi4spn	a3,sp,304
    10d2:	2000                	c.fld	fs0,0(s0)
    10d4:	1a14                	c.addi4spn	a3,sp,304
    10d6:	2000                	c.fld	fs0,0(s0)
    10d8:	1a14                	c.addi4spn	a3,sp,304
    10da:	2000                	c.fld	fs0,0(s0)
    10dc:	1a14                	c.addi4spn	a3,sp,304
    10de:	2000                	c.fld	fs0,0(s0)
    10e0:	1a14                	c.addi4spn	a3,sp,304
    10e2:	2000                	c.fld	fs0,0(s0)
    10e4:	1a14                	c.addi4spn	a3,sp,304
    10e6:	2000                	c.fld	fs0,0(s0)
    10e8:	1a14                	c.addi4spn	a3,sp,304
    10ea:	2000                	c.fld	fs0,0(s0)
    10ec:	1a14                	c.addi4spn	a3,sp,304
    10ee:	2000                	c.fld	fs0,0(s0)
    10f0:	1a14                	c.addi4spn	a3,sp,304
    10f2:	2000                	c.fld	fs0,0(s0)
    10f4:	1a14                	c.addi4spn	a3,sp,304
    10f6:	2000                	c.fld	fs0,0(s0)
    10f8:	1a14                	c.addi4spn	a3,sp,304
    10fa:	2000                	c.fld	fs0,0(s0)
    10fc:	1a14                	c.addi4spn	a3,sp,304
    10fe:	2000                	c.fld	fs0,0(s0)
    1100:	0001                	c.nop

Disassembly of section .text:

20001258 <flash_read_uid.constprop.9>:
flash_read_uid():
/cygdrive/c/Users/SwaminathanK/Downloads/telink_b91m_driver_sdk/project/tlsr_riscv/B91/Debug_Demo/../../../../chip/B91/drivers/flash.c:590
 *
 *              Risk description: When the chip power supply voltage is relatively low, due to the unstable power supply,
 *              there may be a risk of error in the operation of the flash (especially for the write and erase operations.
 *              If an abnormality occurs, the firmware and user data may be rewritten, resulting in the final Product failure)
 */
_attribute_text_sec_ void flash_read_uid(unsigned char idcmd, unsigned char *buf)
20001258:	1141                	c.addi	sp,-16
2000125a:	c606                	c.swsp	ra,12(sp)
2000125c:	872a                	c.mv	a4,a0
/cygdrive/c/Users/SwaminathanK/Downloads/telink_b91m_driver_sdk/project/tlsr_riscv/B91/Debug_Demo/../../../../chip/B91/drivers/flash.c:592
{
	__asm__("csrci 	mmisc_ctl,8");	//disable BTB
2000125e:	7d047073          	csrci	mmisc_ctl,8
/cygdrive/c/Users/SwaminathanK/Downloads/telink_b91m_driver_sdk/project/tlsr_riscv/B91/Debug_Demo/../../../../chip/B91/drivers/flash.c:595
	if(idcmd == FLASH_READ_UID_CMD_GD_PUYA_ZB_TH)	//< GD/PUYA/ZB/TH
	{
		flash_mspi_read_ram(idcmd, 0, 0, 4, buf, 16);
20001262:	47c1                	c.li	a5,16
20001264:	4691                	c.li	a3,4
20001266:	4601                	c.li	a2,0
20001268:	00000593          	li	a1,0
2000126c:	04b00513          	li	a0,75
20001270:	dffff097          	auipc	ra,0xdffff
20001274:	258080e7          	jalr	600(ra) # 4c8 <flash_mspi_read_ram>
/cygdrive/c/Users/SwaminathanK/Downloads/telink_b91m_driver_sdk/project/tlsr_riscv/B91/Debug_Demo/../../../../chip/B91/drivers/flash.c:597
	}
	__asm__("csrsi 	mmisc_ctl,8");	//enable BTB
20001278:	7d046073          	csrsi	mmisc_ctl,8
/cygdrive/c/Users/SwaminathanK/Downloads/telink_b91m_driver_sdk/project/tlsr_riscv/B91/Debug_Demo/../../../../chip/B91/drivers/flash.c:598
}
2000127c:	40b2                	c.lwsp	ra,12(sp)
2000127e:	0141                	c.addi	sp,16
20001280:	00008067          	ret

20001284 <flash_read_mid>:
flash_read_mid():
/cygdrive/c/Users/SwaminathanK/Downloads/telink_b91m_driver_sdk/project/tlsr_riscv/B91/Debug_Demo/../../../../chip/B91/drivers/flash.c:566
{
20001284:	1101                	c.addi	sp,-32
20001286:	ce06                	c.swsp	ra,28(sp)
/cygdrive/c/Users/SwaminathanK/Downloads/telink_b91m_driver_sdk/project/tlsr_riscv/B91/Debug_Demo/../../../../chip/B91/drivers/flash.c:567
	unsigned int flash_mid = 0;
20001288:	c602                	c.swsp	zero,12(sp)
/cygdrive/c/Users/SwaminathanK/Downloads/telink_b91m_driver_sdk/project/tlsr_riscv/B91/Debug_Demo/../../../../chip/B91/drivers/flash.c:568
	__asm__("csrci 	mmisc_ctl,8");	//disable BTB
2000128a:	7d047073          	csrci	mmisc_ctl,8
/cygdrive/c/Users/SwaminathanK/Downloads/telink_b91m_driver_sdk/project/tlsr_riscv/B91/Debug_Demo/../../../../chip/B91/drivers/flash.c:569
	flash_mspi_read_ram(FLASH_GET_JEDEC_ID, 0, 0, 0, (unsigned char*)(&flash_mid), 3);
2000128e:	478d                	c.li	a5,3
20001290:	0078                	c.addi4spn	a4,sp,12
20001292:	4681                	c.li	a3,0
20001294:	4601                	c.li	a2,0
20001296:	4581                	c.li	a1,0
20001298:	09f00513          	li	a0,159
2000129c:	dffff097          	auipc	ra,0xdffff
200012a0:	22c080e7          	jalr	556(ra) # 4c8 <flash_mspi_read_ram>
/cygdrive/c/Users/SwaminathanK/Downloads/telink_b91m_driver_sdk/project/tlsr_riscv/B91/Debug_Demo/../../../../chip/B91/drivers/flash.c:570
	__asm__("csrsi 	mmisc_ctl,8");	//enable BTB
200012a4:	7d046073          	csrsi	mmisc_ctl,8
/cygdrive/c/Users/SwaminathanK/Downloads/telink_b91m_driver_sdk/project/tlsr_riscv/B91/Debug_Demo/../../../../chip/B91/drivers/flash.c:572
}
200012a8:	40f2                	c.lwsp	ra,28(sp)
200012aa:	4532                	c.lwsp	a0,12(sp)
200012ac:	6105                	c.addi16sp	sp,32
200012ae:	8082                	c.jr	ra

200012b0 <flash_read_mid_uid_with_check>:
flash_read_mid_uid_with_check():
/cygdrive/c/Users/SwaminathanK/Downloads/telink_b91m_driver_sdk/project/tlsr_riscv/B91/Debug_Demo/../../../../chip/B91/drivers/flash.c:690
 *              there may be a risk of error in the operation of the flash (especially for the write and erase operations.
 *              If an abnormality occurs, the firmware and user data may be rewritten, resulting in the final Product failure)
 */
_attribute_text_sec_ int flash_read_mid_uid_with_check(unsigned int *flash_mid, unsigned char *flash_uid)
{
	unsigned char no_uid[16]={0x51,0x01,0x51,0x01,0x51,0x01,0x51,0x01,0x51,0x01,0x51,0x01,0x51,0x01,0x51,0x01};
200012b0:	200027b7          	lui	a5,0x20002
200012b4:	6b478793          	addi	a5,a5,1716 # 200026b4 <__riscv_restore_0+0xc>
200012b8:	4798                	c.lw	a4,8(a5)
200012ba:	4390                	c.lw	a2,0(a5)
200012bc:	43d4                	c.lw	a3,4(a5)
200012be:	47dc                	c.lw	a5,12(a5)
/cygdrive/c/Users/SwaminathanK/Downloads/telink_b91m_driver_sdk/project/tlsr_riscv/B91/Debug_Demo/../../../../chip/B91/drivers/flash.c:689
{
200012c0:	1101                	c.addi	sp,-32
200012c2:	cc22                	c.swsp	s0,24(sp)
200012c4:	ca26                	c.swsp	s1,20(sp)
/cygdrive/c/Users/SwaminathanK/Downloads/telink_b91m_driver_sdk/project/tlsr_riscv/B91/Debug_Demo/../../../../chip/B91/drivers/flash.c:690
	unsigned char no_uid[16]={0x51,0x01,0x51,0x01,0x51,0x01,0x51,0x01,0x51,0x01,0x51,0x01,0x51,0x01,0x51,0x01};
200012c6:	c43a                	c.swsp	a4,8(sp)
/cygdrive/c/Users/SwaminathanK/Downloads/telink_b91m_driver_sdk/project/tlsr_riscv/B91/Debug_Demo/../../../../chip/B91/drivers/flash.c:689
{
200012c8:	84aa                	c.mv	s1,a0
/cygdrive/c/Users/SwaminathanK/Downloads/telink_b91m_driver_sdk/project/tlsr_riscv/B91/Debug_Demo/../../../../chip/B91/drivers/flash.c:690
	unsigned char no_uid[16]={0x51,0x01,0x51,0x01,0x51,0x01,0x51,0x01,0x51,0x01,0x51,0x01,0x51,0x01,0x51,0x01};
200012ca:	c63e                	c.swsp	a5,12(sp)
/cygdrive/c/Users/SwaminathanK/Downloads/telink_b91m_driver_sdk/project/tlsr_riscv/B91/Debug_Demo/../../../../chip/B91/drivers/flash.c:689
{
200012cc:	ce06                	c.swsp	ra,28(sp)
200012ce:	842e                	c.mv	s0,a1
/cygdrive/c/Users/SwaminathanK/Downloads/telink_b91m_driver_sdk/project/tlsr_riscv/B91/Debug_Demo/../../../../chip/B91/drivers/flash.c:690
	unsigned char no_uid[16]={0x51,0x01,0x51,0x01,0x51,0x01,0x51,0x01,0x51,0x01,0x51,0x01,0x51,0x01,0x51,0x01};
200012d0:	c032                	c.swsp	a2,0(sp)
200012d2:	c236                	c.swsp	a3,4(sp)
/cygdrive/c/Users/SwaminathanK/Downloads/telink_b91m_driver_sdk/project/tlsr_riscv/B91/Debug_Demo/../../../../chip/B91/drivers/flash.c:692
	unsigned int i,f_cnt=0;
	*flash_mid = flash_read_mid();
200012d4:	fb1ff0ef          	jal	ra,20001284 <flash_read_mid>
/cygdrive/c/Users/SwaminathanK/Downloads/telink_b91m_driver_sdk/project/tlsr_riscv/B91/Debug_Demo/../../../../chip/B91/drivers/flash.c:695

	for(i=0; i<FLASH_CNT; i++){
		if(flash_support_mid[i] == *flash_mid){
200012d8:	77c1                	c.lui	a5,0xffff0
200012da:	17fd                	c.addi	a5,-1
200012dc:	00146737          	lui	a4,0x146
/cygdrive/c/Users/SwaminathanK/Downloads/telink_b91m_driver_sdk/project/tlsr_riscv/B91/Debug_Demo/../../../../chip/B91/drivers/flash.c:692
	*flash_mid = flash_read_mid();
200012e0:	c088                	c.sw	a0,0(s1)
/cygdrive/c/Users/SwaminathanK/Downloads/telink_b91m_driver_sdk/project/tlsr_riscv/B91/Debug_Demo/../../../../chip/B91/drivers/flash.c:695
		if(flash_support_mid[i] == *flash_mid){
200012e2:	8fe9                	c.and	a5,a0
200012e4:	08570713          	addi	a4,a4,133 # 146085 <FLASH_SIZE+0x46085>
200012e8:	02e78063          	beq	a5,a4,20001308 <flash_read_mid_uid_with_check+0x58>
200012ec:	001667b7          	lui	a5,0x166
200012f0:	08578793          	addi	a5,a5,133 # 166085 <FLASH_SIZE+0x66085>
/cygdrive/c/Users/SwaminathanK/Downloads/telink_b91m_driver_sdk/project/tlsr_riscv/B91/Debug_Demo/../../../../chip/B91/drivers/flash.c:701
			flash_read_uid(FLASH_READ_UID_CMD_GD_PUYA_ZB_TH, (unsigned char *)flash_uid);
			break;
		}
	}
	if(i == FLASH_CNT){
		return 0;
200012f4:	4681                	c.li	a3,0
/cygdrive/c/Users/SwaminathanK/Downloads/telink_b91m_driver_sdk/project/tlsr_riscv/B91/Debug_Demo/../../../../chip/B91/drivers/flash.c:695
		if(flash_support_mid[i] == *flash_mid){
200012f6:	00f50963          	beq	a0,a5,20001308 <flash_read_mid_uid_with_check+0x58>
/cygdrive/c/Users/SwaminathanK/Downloads/telink_b91m_driver_sdk/project/tlsr_riscv/B91/Debug_Demo/../../../../chip/B91/drivers/flash.c:715
	if(f_cnt == 16){	//no uid flash
		return 0;
	}else{
		return 1;
	}
}
200012fa:	40f2                	c.lwsp	ra,28(sp)
200012fc:	4462                	c.lwsp	s0,24(sp)
200012fe:	44d2                	c.lwsp	s1,20(sp)
20001300:	8536                	c.mv	a0,a3
20001302:	6105                	c.addi16sp	sp,32
20001304:	00008067          	ret
/cygdrive/c/Users/SwaminathanK/Downloads/telink_b91m_driver_sdk/project/tlsr_riscv/B91/Debug_Demo/../../../../chip/B91/drivers/flash.c:696
			flash_read_uid(FLASH_READ_UID_CMD_GD_PUYA_ZB_TH, (unsigned char *)flash_uid);
20001308:	8522                	c.mv	a0,s0
2000130a:	37b9                	c.jal	20001258 <flash_read_uid.constprop.9>
2000130c:	85a2                	c.mv	a1,s0
2000130e:	870a                	c.mv	a4,sp
20001310:	0808                	c.addi4spn	a0,sp,16
20001312:	4681                	c.li	a3,0
/cygdrive/c/Users/SwaminathanK/Downloads/telink_b91m_driver_sdk/project/tlsr_riscv/B91/Debug_Demo/../../../../chip/B91/drivers/flash.c:705
		if(flash_uid[i] == no_uid[i]){
20001314:	0005c783          	lbu	a5,0(a1)
20001318:	00074603          	lbu	a2,0(a4)
2000131c:	0705                	c.addi	a4,1
/cygdrive/c/Users/SwaminathanK/Downloads/telink_b91m_driver_sdk/project/tlsr_riscv/B91/Debug_Demo/../../../../chip/B91/drivers/flash.c:706
			f_cnt++;
2000131e:	8f91                	c.sub	a5,a2
20001320:	0017b793          	seqz	a5,a5
20001324:	96be                	c.add	a3,a5
20001326:	0585                	c.addi	a1,1
/cygdrive/c/Users/SwaminathanK/Downloads/telink_b91m_driver_sdk/project/tlsr_riscv/B91/Debug_Demo/../../../../chip/B91/drivers/flash.c:704
	for(i=0; i<16; i++){
20001328:	fee516e3          	bne	a0,a4,20001314 <flash_read_mid_uid_with_check+0x64>
/cygdrive/c/Users/SwaminathanK/Downloads/telink_b91m_driver_sdk/project/tlsr_riscv/B91/Debug_Demo/../../../../chip/B91/drivers/flash.c:715
}
2000132c:	40f2                	c.lwsp	ra,28(sp)
2000132e:	4462                	c.lwsp	s0,24(sp)
/cygdrive/c/Users/SwaminathanK/Downloads/telink_b91m_driver_sdk/project/tlsr_riscv/B91/Debug_Demo/../../../../chip/B91/drivers/flash.c:710
	if(f_cnt == 16){	//no uid flash
20001330:	16c1                	c.addi	a3,-16
20001332:	00d036b3          	snez	a3,a3
/cygdrive/c/Users/SwaminathanK/Downloads/telink_b91m_driver_sdk/project/tlsr_riscv/B91/Debug_Demo/../../../../chip/B91/drivers/flash.c:715
}
20001336:	44d2                	c.lwsp	s1,20(sp)
20001338:	8536                	c.mv	a0,a3
2000133a:	6105                	c.addi16sp	sp,32
2000133c:	00008067          	ret

20001340 <flash_dread>:
flash_dread():
/cygdrive/c/Users/SwaminathanK/Downloads/telink_b91m_driver_sdk/project/tlsr_riscv/B91/Debug_Demo/../../../../chip/B91/drivers/flash.c:307
{
20001340:	1141                	c.addi	sp,-16
20001342:	c606                	c.swsp	ra,12(sp)
20001344:	87ae                	c.mv	a5,a1
20001346:	8732                	c.mv	a4,a2
/cygdrive/c/Users/SwaminathanK/Downloads/telink_b91m_driver_sdk/project/tlsr_riscv/B91/Debug_Demo/../../../../chip/B91/drivers/flash.c:308
	__asm__("csrci 	mmisc_ctl,8");	//disable BTB
20001348:	7d047073          	csrci	mmisc_ctl,8
/cygdrive/c/Users/SwaminathanK/Downloads/telink_b91m_driver_sdk/project/tlsr_riscv/B91/Debug_Demo/../../../../chip/B91/drivers/flash.c:309
	flash_mspi_read_ram(FLASH_DREAD_CMD, addr, 1, 1, buf, len);
2000134c:	4685                	c.li	a3,1
2000134e:	85aa                	c.mv	a1,a0
20001350:	00100613          	li	a2,1
20001354:	03b00513          	li	a0,59
20001358:	dffff097          	auipc	ra,0xdffff
2000135c:	170080e7          	jalr	368(ra) # 4c8 <flash_mspi_read_ram>
/cygdrive/c/Users/SwaminathanK/Downloads/telink_b91m_driver_sdk/project/tlsr_riscv/B91/Debug_Demo/../../../../chip/B91/drivers/flash.c:310
	__asm__("csrsi 	mmisc_ctl,8");	//enable BTB
20001360:	7d046073          	csrsi	mmisc_ctl,8
/cygdrive/c/Users/SwaminathanK/Downloads/telink_b91m_driver_sdk/project/tlsr_riscv/B91/Debug_Demo/../../../../chip/B91/drivers/flash.c:311
}
20001364:	40b2                	c.lwsp	ra,12(sp)
20001366:	0141                	c.addi	sp,16
20001368:	00008067          	ret

2000136c <clock_init.constprop.0>:
clock_init():
/cygdrive/c/Users/SwaminathanK/Downloads/telink_b91m_driver_sdk/project/tlsr_riscv/B91/Debug_Demo/../../../../chip/B91/drivers/clock.c:370

_attribute_text_sec_
void clock_init(sys_pll_clk_e pll,
2000136c:	1141                	c.addi	sp,-16
2000136e:	c606                	c.swsp	ra,12(sp)
/cygdrive/c/Users/SwaminathanK/Downloads/telink_b91m_driver_sdk/project/tlsr_riscv/B91/Debug_Demo/../../../../chip/B91/drivers/clock.c:377
				sys_pll_div_to_cclk_e cclk_div,
				sys_cclk_div_to_hclk_e hclk_div,
				sys_hclk_div_to_pclk_e pclk_div,
				sys_pll_div_to_mspi_clk_e mspi_clk_div)
{
	__asm__("csrci 	mmisc_ctl,8");	//disable BTB
20001370:	7d047073          	csrci	mmisc_ctl,8
/cygdrive/c/Users/SwaminathanK/Downloads/telink_b91m_driver_sdk/project/tlsr_riscv/B91/Debug_Demo/../../../../chip/B91/drivers/clock.c:378
	clock_init_ram(pll, src, cclk_div, hclk_div, pclk_div, mspi_clk_div);
20001374:	dffff097          	auipc	ra,0xdffff
20001378:	364080e7          	jalr	868(ra) # 6d8 <clock_init_ram.constprop.1>
/cygdrive/c/Users/SwaminathanK/Downloads/telink_b91m_driver_sdk/project/tlsr_riscv/B91/Debug_Demo/../../../../chip/B91/drivers/clock.c:379
	__asm__("csrsi 	mmisc_ctl,8");	//enable BTB
2000137c:	7d046073          	csrsi	mmisc_ctl,8
/cygdrive/c/Users/SwaminathanK/Downloads/telink_b91m_driver_sdk/project/tlsr_riscv/B91/Debug_Demo/../../../../chip/B91/drivers/clock.c:380
}
20001380:	40b2                	c.lwsp	ra,12(sp)
20001382:	0141                	c.addi	sp,16
20001384:	00008067          	ret

20001388 <pm_sleep_wakeup.constprop.5>:
pm_sleep_wakeup():
D:/release_sdk/v2_3_0_2/telink_b91m_driver_src/chip/B91/drivers/lib/src/pm.c:790
20001388:	1141                	c.addi	sp,-16
2000138a:	c606                	c.swsp	ra,12(sp)
D:/release_sdk/v2_3_0_2/telink_b91m_driver_src/chip/B91/drivers/lib/src/pm.c:793
2000138c:	7d047073          	csrci	mmisc_ctl,8
D:/release_sdk/v2_3_0_2/telink_b91m_driver_src/chip/B91/drivers/lib/src/pm.c:794
20001390:	dffff097          	auipc	ra,0xdffff
20001394:	7f4080e7          	jalr	2036(ra) # b84 <pm_sleep_wakeup_ram.constprop.6>
D:/release_sdk/v2_3_0_2/telink_b91m_driver_src/chip/B91/drivers/lib/src/pm.c:795
20001398:	7d046073          	csrsi	mmisc_ctl,8
D:/release_sdk/v2_3_0_2/telink_b91m_driver_src/chip/B91/drivers/lib/src/pm.c:797
2000139c:	40b2                	c.lwsp	ra,12(sp)
2000139e:	0141                	c.addi	sp,16
200013a0:	8082                	c.jr	ra
pm_sleep_wakeup.constprop.5():
200013a2:	0001                	c.nop

200013a4 <user_calib_adc_vref.constprop.11>:
user_calib_adc_vref():
/cygdrive/c/Users/SwaminathanK/Downloads/telink_b91m_driver_sdk/project/tlsr_riscv/B91/Debug_Demo/../../../../demo/vendor/common/B91/calibration/calibration.c:32
 * @brief      This function is used to calibrate ADC 1.2V vref.
 * @param[in]  velfrom - the calibration value from flash or otp.
 * @param[in]  addr - the calibration value address of flash or otp.
 * @return 	   1 - the calibration value update, 0 - the calibration value is not update.
 */
unsigned char user_calib_adc_vref(user_calib_from_e velfrom, unsigned int addr)
200013a4:	1101                	c.addi	sp,-32
200013a6:	ce06                	c.swsp	ra,28(sp)
/cygdrive/c/Users/SwaminathanK/Downloads/telink_b91m_driver_sdk/project/tlsr_riscv/B91/Debug_Demo/../../../../demo/vendor/common/B91/calibration/calibration.c:45
	deviation of two-point calibrate  in flash:-11~7mv.
	deviation of two-point calibrate  in efuse:-9~24mv.
	deviation of one-point calibrate  in flash:-20~20mv.
	The above statistical results are obtained by testing only 19 9213A chips.
********************************************************************************************/
	unsigned char adc_vref_calib_value[7] = {0};
200013a8:	c402                	c.swsp	zero,8(sp)
200013aa:	00011623          	sh	zero,12(sp)
200013ae:	00010723          	sb	zero,14(sp)
/cygdrive/c/Users/SwaminathanK/Downloads/telink_b91m_driver_sdk/project/tlsr_riscv/B91/Debug_Demo/../../../../demo/vendor/common/B91/calibration/calibration.c:48
	unsigned short gpio_calib_value = 0;
	signed char gpio_calib_value_offset = 0;
	if(addr == 0)
200013b2:	c54d                	c.beqz	a0,2000145c <user_calib_adc_vref.constprop.11+0xb8>
/cygdrive/c/Users/SwaminathanK/Downloads/telink_b91m_driver_sdk/project/tlsr_riscv/B91/Debug_Demo/../../../../demo/vendor/common/B91/calibration/calibration.c:65
	}
	else
	{
		if(velfrom == USER_CALIB_FROM_FLASH)
		{
			flash_read_page(addr, 7, adc_vref_calib_value);
200013b4:	000007b7          	lui	a5,0x0
200013b8:	1587a783          	lw	a5,344(a5) # 158 <_AES_VMA_END>
200013bc:	0030                	c.addi4spn	a2,sp,8
200013be:	459d                	c.li	a1,7
200013c0:	9782                	c.jalr	a5
/cygdrive/c/Users/SwaminathanK/Downloads/telink_b91m_driver_sdk/project/tlsr_riscv/B91/Debug_Demo/../../../../demo/vendor/common/B91/calibration/calibration.c:68
		}
		/****** Check the two-point gpio calibration value whether is exist ********/
		if((adc_vref_calib_value[4] != 0xff) && (adc_vref_calib_value[4] <= 0x7f) && (((adc_vref_calib_value[6] << 8) + adc_vref_calib_value[5]) != 0xffff)){
200013c2:	00c14783          	lbu	a5,12(sp)
200013c6:	1c07b75b          	bfos	a4,a5,7,0
200013ca:	04074163          	bltz	a4,2000140c <user_calib_adc_vref.constprop.11+0x68>
200013ce:	00e14703          	lbu	a4,14(sp)
200013d2:	00d14603          	lbu	a2,13(sp)
200013d6:	0722                	c.slli	a4,0x8
200013d8:	66c1                	c.lui	a3,0x10
200013da:	00c705b3          	add	a1,a4,a2
200013de:	16fd                	c.addi	a3,-1
200013e0:	02d58663          	beq	a1,a3,2000140c <user_calib_adc_vref.constprop.11+0x68>
/cygdrive/c/Users/SwaminathanK/Downloads/telink_b91m_driver_sdk/project/tlsr_riscv/B91/Debug_Demo/../../../../demo/vendor/common/B91/calibration/calibration.c:74
			/****** Method of calculating two-point gpio calibration Flash_gain and Flash_offset value: ********/
			/****** Vref = [(Seven_Byte << 8) + Six_Byte + 1000]mv ********/
			/****** offset = [Five_Byte - 20] mv ********/
			gpio_calib_value = (adc_vref_calib_value[6] << 8) + adc_vref_calib_value[5] + 1000;
			gpio_calib_value_offset = adc_vref_calib_value[4] - 20;
			if ((gpio_calib_value > 1047) && (gpio_calib_value < 1300) && (gpio_calib_value_offset > -20) && (gpio_calib_value_offset < 107))
200013e4:	fd060613          	addi	a2,a2,-48
200013e8:	9732                	c.add	a4,a2
200013ea:	3c07275b          	bfoz	a4,a4,15,0
200013ee:	0fb00693          	li	a3,251
200013f2:	08e6e563          	bltu	a3,a4,2000147c <user_calib_adc_vref.constprop.11+0xd8>
/cygdrive/c/Users/SwaminathanK/Downloads/telink_b91m_driver_sdk/project/tlsr_riscv/B91/Debug_Demo/../../../../demo/vendor/common/B91/calibration/calibration.c:73
			gpio_calib_value_offset = adc_vref_calib_value[4] - 20;
200013f6:	17b1                	c.addi	a5,-20
200013f8:	1c07b7db          	bfos	a5,a5,7,0
/cygdrive/c/Users/SwaminathanK/Downloads/telink_b91m_driver_sdk/project/tlsr_riscv/B91/Debug_Demo/../../../../demo/vendor/common/B91/calibration/calibration.c:74
			if ((gpio_calib_value > 1047) && (gpio_calib_value < 1300) && (gpio_calib_value_offset > -20) && (gpio_calib_value_offset < 107))
200013fc:	5731                	c.li	a4,-20
200013fe:	06e78f63          	beq	a5,a4,2000147c <user_calib_adc_vref.constprop.11+0xd8>
20001402:	f9578513          	addi	a0,a5,-107
/cygdrive/c/Users/SwaminathanK/Downloads/telink_b91m_driver_sdk/project/tlsr_riscv/B91/Debug_Demo/../../../../demo/vendor/common/B91/calibration/calibration.c:106
				}
			}
		}
	}

	return 0;
20001406:	00a03533          	snez	a0,a0
2000140a:	a89d                	c.j	20001480 <user_calib_adc_vref.constprop.11+0xdc>
efuse_get_adc_calib_value():
D:/release_sdk/v2_3_0_2/telink_b91m_driver_src/chip/B91/drivers/lib/src/sys.c:273
2000140c:	801407b7          	lui	a5,0x80140
20001410:	06500713          	li	a4,101
20001414:	1ee78a23          	sb	a4,500(a5) # 801401f4 <_DATA_LMA_START+0x6013d99c>
D:/release_sdk/v2_3_0_2/telink_b91m_driver_src/chip/B91/drivers/lib/src/sys.c:274
20001418:	1c87a703          	lw	a4,456(a5)
D:/release_sdk/v2_3_0_2/telink_b91m_driver_src/chip/B91/drivers/lib/src/sys.c:275
2000141c:	1e078a23          	sb	zero,500(a5)
D:/release_sdk/v2_3_0_2/telink_b91m_driver_src/chip/B91/drivers/lib/src/sys.c:328
20001420:	4c47275b          	bfoz	a4,a4,19,4
20001424:	380727db          	bfoz	a5,a4,14,0
D:/release_sdk/v2_3_0_2/telink_b91m_driver_src/chip/B91/drivers/lib/src/sys.c:329
20001428:	06078063          	beqz	a5,20001488 <user_calib_adc_vref.constprop.11+0xe4>
D:/release_sdk/v2_3_0_2/telink_b91m_driver_src/chip/B91/drivers/lib/src/sys.c:333
2000142c:	1ff77713          	andi	a4,a4,511
user_calib_adc_vref():
/cygdrive/c/Users/SwaminathanK/Downloads/telink_b91m_driver_sdk/project/tlsr_riscv/B91/Debug_Demo/../../../../demo/vendor/common/B91/calibration/calibration.c:85
				if((gpio_calib_value > 1100) && (gpio_calib_value < 1300) && (gpio_calib_value_offset > -20) && (gpio_calib_value_offset < 43))
20001430:	f9b70713          	addi	a4,a4,-101
20001434:	3c07275b          	bfoz	a4,a4,15,0
20001438:	0c600693          	li	a3,198
2000143c:	04e6e063          	bltu	a3,a4,2000147c <user_calib_adc_vref.constprop.11+0xd8>
efuse_get_adc_calib_value():
D:/release_sdk/v2_3_0_2/telink_b91m_driver_src/chip/B91/drivers/lib/src/sys.c:335
20001440:	0097d513          	srli	a0,a5,0x9
20001444:	1531                	c.addi	a0,-20
20001446:	1c05355b          	bfos	a0,a0,7,0
user_calib_adc_vref():
/cygdrive/c/Users/SwaminathanK/Downloads/telink_b91m_driver_sdk/project/tlsr_riscv/B91/Debug_Demo/../../../../demo/vendor/common/B91/calibration/calibration.c:85
2000144a:	57b1                	c.li	a5,-20
2000144c:	02f50863          	beq	a0,a5,2000147c <user_calib_adc_vref.constprop.11+0xd8>
20001450:	fd550513          	addi	a0,a0,-43 # 3fffffd5 <_DATA_LMA_START+0x1fffd77d>
/cygdrive/c/Users/SwaminathanK/Downloads/telink_b91m_driver_sdk/project/tlsr_riscv/B91/Debug_Demo/../../../../demo/vendor/common/B91/calibration/calibration.c:106
	return 0;
20001454:	00a03533          	snez	a0,a0
20001458:	0280006f          	j	20001480 <user_calib_adc_vref.constprop.11+0xdc>
efuse_get_adc_calib_value():
D:/release_sdk/v2_3_0_2/telink_b91m_driver_src/chip/B91/drivers/lib/src/sys.c:273
2000145c:	801407b7          	lui	a5,0x80140
20001460:	06500713          	li	a4,101
20001464:	1ee78a23          	sb	a4,500(a5) # 801401f4 <_DATA_LMA_START+0x6013d99c>
D:/release_sdk/v2_3_0_2/telink_b91m_driver_src/chip/B91/drivers/lib/src/sys.c:274
20001468:	1c87a703          	lw	a4,456(a5)
D:/release_sdk/v2_3_0_2/telink_b91m_driver_src/chip/B91/drivers/lib/src/sys.c:275
2000146c:	1e078a23          	sb	zero,500(a5)
D:/release_sdk/v2_3_0_2/telink_b91m_driver_src/chip/B91/drivers/lib/src/sys.c:328
20001470:	4c47275b          	bfoz	a4,a4,19,4
20001474:	380727db          	bfoz	a5,a4,14,0
D:/release_sdk/v2_3_0_2/telink_b91m_driver_src/chip/B91/drivers/lib/src/sys.c:329
20001478:	fa079ae3          	bnez	a5,2000142c <user_calib_adc_vref.constprop.11+0x88>
user_calib_adc_vref():
/cygdrive/c/Users/SwaminathanK/Downloads/telink_b91m_driver_sdk/project/tlsr_riscv/B91/Debug_Demo/../../../../demo/vendor/common/B91/calibration/calibration.c:106
2000147c:	00000513          	li	a0,0
/cygdrive/c/Users/SwaminathanK/Downloads/telink_b91m_driver_sdk/project/tlsr_riscv/B91/Debug_Demo/../../../../demo/vendor/common/B91/calibration/calibration.c:107
}
20001480:	40f2                	c.lwsp	ra,28(sp)
20001482:	6105                	c.addi16sp	sp,32
20001484:	00008067          	ret
/cygdrive/c/Users/SwaminathanK/Downloads/telink_b91m_driver_sdk/project/tlsr_riscv/B91/Debug_Demo/../../../../demo/vendor/common/B91/calibration/calibration.c:95
				gpio_calib_value = 920 + adc_vref_calib_value[0] + adc_vref_calib_value[1];
20001488:	00814503          	lbu	a0,8(sp)
2000148c:	00914783          	lbu	a5,9(sp)
20001490:	953e                	c.add	a0,a5
/cygdrive/c/Users/SwaminathanK/Downloads/telink_b91m_driver_sdk/project/tlsr_riscv/B91/Debug_Demo/../../../../demo/vendor/common/B91/calibration/calibration.c:97
				if ((gpio_calib_value > 1047) && (gpio_calib_value < 1300))
20001492:	f8050513          	addi	a0,a0,-128
20001496:	3c05255b          	bfoz	a0,a0,15,0
/cygdrive/c/Users/SwaminathanK/Downloads/telink_b91m_driver_sdk/project/tlsr_riscv/B91/Debug_Demo/../../../../demo/vendor/common/B91/calibration/calibration.c:106
	return 0;
2000149a:	0fc53513          	sltiu	a0,a0,252
2000149e:	b7cd                	c.j	20001480 <user_calib_adc_vref.constprop.11+0xdc>

200014a0 <user_calib_freq_offset.constprop.10>:
user_calib_freq_offset():
/cygdrive/c/Users/SwaminathanK/Downloads/telink_b91m_driver_sdk/project/tlsr_riscv/B91/Debug_Demo/../../../../demo/vendor/common/B91/calibration/calibration.c:120
unsigned char user_calib_freq_offset(user_calib_from_e velfrom, unsigned int addr)
{
	unsigned char frequency_offset_value = 0xff;
	if(velfrom == USER_CALIB_FROM_FLASH)
	{
		flash_read_page(addr, 1, &frequency_offset_value);
200014a0:	000007b7          	lui	a5,0x0
/cygdrive/c/Users/SwaminathanK/Downloads/telink_b91m_driver_sdk/project/tlsr_riscv/B91/Debug_Demo/../../../../demo/vendor/common/B91/calibration/calibration.c:115
unsigned char user_calib_freq_offset(user_calib_from_e velfrom, unsigned int addr)
200014a4:	1101                	c.addi	sp,-32
/cygdrive/c/Users/SwaminathanK/Downloads/telink_b91m_driver_sdk/project/tlsr_riscv/B91/Debug_Demo/../../../../demo/vendor/common/B91/calibration/calibration.c:120
		flash_read_page(addr, 1, &frequency_offset_value);
200014a6:	1587a783          	lw	a5,344(a5) # 158 <_AES_VMA_END>
/cygdrive/c/Users/SwaminathanK/Downloads/telink_b91m_driver_sdk/project/tlsr_riscv/B91/Debug_Demo/../../../../demo/vendor/common/B91/calibration/calibration.c:117
	unsigned char frequency_offset_value = 0xff;
200014aa:	577d                	c.li	a4,-1
/cygdrive/c/Users/SwaminathanK/Downloads/telink_b91m_driver_sdk/project/tlsr_riscv/B91/Debug_Demo/../../../../demo/vendor/common/B91/calibration/calibration.c:120
		flash_read_page(addr, 1, &frequency_offset_value);
200014ac:	00f10613          	addi	a2,sp,15
200014b0:	4585                	c.li	a1,1
/cygdrive/c/Users/SwaminathanK/Downloads/telink_b91m_driver_sdk/project/tlsr_riscv/B91/Debug_Demo/../../../../demo/vendor/common/B91/calibration/calibration.c:115
unsigned char user_calib_freq_offset(user_calib_from_e velfrom, unsigned int addr)
200014b2:	cc22                	c.swsp	s0,24(sp)
200014b4:	ce06                	c.swsp	ra,28(sp)
/cygdrive/c/Users/SwaminathanK/Downloads/telink_b91m_driver_sdk/project/tlsr_riscv/B91/Debug_Demo/../../../../demo/vendor/common/B91/calibration/calibration.c:117
	unsigned char frequency_offset_value = 0xff;
200014b6:	00e107a3          	sb	a4,15(sp)
/cygdrive/c/Users/SwaminathanK/Downloads/telink_b91m_driver_sdk/project/tlsr_riscv/B91/Debug_Demo/../../../../demo/vendor/common/B91/calibration/calibration.c:120
		flash_read_page(addr, 1, &frequency_offset_value);
200014ba:	9782                	c.jalr	a5
/cygdrive/c/Users/SwaminathanK/Downloads/telink_b91m_driver_sdk/project/tlsr_riscv/B91/Debug_Demo/../../../../demo/vendor/common/B91/calibration/calibration.c:122
	}
	if(0xff != frequency_offset_value)
200014bc:	00f14403          	lbu	s0,15(sp)
200014c0:	0ff00793          	li	a5,255
/cygdrive/c/Users/SwaminathanK/Downloads/telink_b91m_driver_sdk/project/tlsr_riscv/B91/Debug_Demo/../../../../demo/vendor/common/B91/calibration/calibration.c:128
	{
		rf_update_internal_cap(frequency_offset_value);
		return 1;
	}

	return 0;
200014c4:	00000513          	li	a0,0
/cygdrive/c/Users/SwaminathanK/Downloads/telink_b91m_driver_sdk/project/tlsr_riscv/B91/Debug_Demo/../../../../demo/vendor/common/B91/calibration/calibration.c:122
	if(0xff != frequency_offset_value)
200014c8:	02f40663          	beq	s0,a5,200014f4 <user_calib_freq_offset.constprop.10+0x54>
rf_update_internal_cap():
D:/release_sdk/v2_3_0_2/telink_b91m_driver_src/chip/B91/drivers/lib/src/rf.c:1526
200014cc:	08a00513          	li	a0,138
200014d0:	dffff097          	auipc	ra,0xdffff
200014d4:	1bc080e7          	jalr	444(ra) # 68c <analog_read_reg8>
200014d8:	03f47413          	andi	s0,s0,63
200014dc:	04057593          	andi	a1,a0,64
200014e0:	0085e5b3          	or	a1,a1,s0
200014e4:	08a00513          	li	a0,138
200014e8:	dffff097          	auipc	ra,0xdffff
200014ec:	160080e7          	jalr	352(ra) # 648 <analog_write_reg8>
user_calib_freq_offset():
/cygdrive/c/Users/SwaminathanK/Downloads/telink_b91m_driver_sdk/project/tlsr_riscv/B91/Debug_Demo/../../../../demo/vendor/common/B91/calibration/calibration.c:125
		return 1;
200014f0:	00100513          	li	a0,1
/cygdrive/c/Users/SwaminathanK/Downloads/telink_b91m_driver_sdk/project/tlsr_riscv/B91/Debug_Demo/../../../../demo/vendor/common/B91/calibration/calibration.c:129
}
200014f4:	40f2                	c.lwsp	ra,28(sp)
200014f6:	4462                	c.lwsp	s0,24(sp)
200014f8:	6105                	c.addi16sp	sp,32
200014fa:	8082                	c.jr	ra
user_calib_freq_offset.constprop.10():
200014fc:	0001                	c.nop
	...

20001500 <gpio_input_dis>:
gpio_input_dis():
/cygdrive/c/Users/SwaminathanK/Downloads/telink_b91m_driver_sdk/project/tlsr_riscv/B91/Debug_Demo/../../../../chip/B91/drivers/gpio.c:98
		BM_CLR(reg_gpio_ie(pin), bit);
20001500:	801407b7          	lui	a5,0x80140
20001504:	30978703          	lb	a4,777(a5) # 80140309 <_DATA_LMA_START+0x6013dab1>
20001508:	fff54513          	not	a0,a0
2000150c:	8d79                	c.and	a0,a4
2000150e:	0ff57513          	andi	a0,a0,255
20001512:	30a784a3          	sb	a0,777(a5)
/cygdrive/c/Users/SwaminathanK/Downloads/telink_b91m_driver_sdk/project/tlsr_riscv/B91/Debug_Demo/../../../../chip/B91/drivers/gpio.c:110
}
20001516:	8082                	c.jr	ra
20001518:	0001                	c.nop
	...

2000151c <main>:
main():
/cygdrive/c/Users/SwaminathanK/Downloads/telink_b91m_driver_sdk/project/tlsr_riscv/B91/Debug_Demo/../../../../demo/vendor/Debug_Demo/main.c:36
 * @brief		This is main function
 * @param[in]	none
 * @return      none
 */
int main(void)
{
2000151c:	7179                	c.addi16sp	sp,-48
sys_init():
D:/release_sdk/v2_3_0_2/telink_b91m_driver_src/chip/B91/drivers/lib/src/sys.c:115
2000151e:	ffbc07b7          	lui	a5,0xffbc0
20001522:	17fd                	c.addi	a5,-1
20001524:	80140737          	lui	a4,0x80140
main():
/cygdrive/c/Users/SwaminathanK/Downloads/telink_b91m_driver_sdk/project/tlsr_riscv/B91/Debug_Demo/../../../../demo/vendor/Debug_Demo/main.c:36
20001528:	d606                	c.swsp	ra,44(sp)
2000152a:	d422                	c.swsp	s0,40(sp)
2000152c:	d226                	c.swsp	s1,36(sp)
2000152e:	d04a                	c.swsp	s2,32(sp)
sys_init():
D:/release_sdk/v2_3_0_2/telink_b91m_driver_src/chip/B91/drivers/lib/src/sys.c:115
20001530:	1ef72023          	sw	a5,480(a4) # 801401e0 <_DATA_LMA_START+0x6013d988>
D:/release_sdk/v2_3_0_2/telink_b91m_driver_src/chip/B91/drivers/lib/src/sys.c:118
20001534:	00200593          	li	a1,2
20001538:	08c00513          	li	a0,140
D:/release_sdk/v2_3_0_2/telink_b91m_driver_src/chip/B91/drivers/lib/src/sys.c:116
2000153c:	1ef72223          	sw	a5,484(a4)
D:/release_sdk/v2_3_0_2/telink_b91m_driver_src/chip/B91/drivers/lib/src/sys.c:118
20001540:	dffff097          	auipc	ra,0xdffff
20001544:	108080e7          	jalr	264(ra) # 648 <analog_write_reg8>
D:/release_sdk/v2_3_0_2/telink_b91m_driver_src/chip/B91/drivers/lib/src/sys.c:128
20001548:	4581                	c.li	a1,0
2000154a:	4529                	c.li	a0,10
2000154c:	dffff097          	auipc	ra,0xdffff
20001550:	0fc080e7          	jalr	252(ra) # 648 <analog_write_reg8>
D:/release_sdk/v2_3_0_2/telink_b91m_driver_src/chip/B91/drivers/lib/src/sys.c:135
20001554:	03b00593          	li	a1,59
20001558:	00b00513          	li	a0,11
2000155c:	dffff097          	auipc	ra,0xdffff
20001560:	0ec080e7          	jalr	236(ra) # 648 <analog_write_reg8>
D:/release_sdk/v2_3_0_2/telink_b91m_driver_src/chip/B91/drivers/lib/src/sys.c:137
20001564:	00500513          	li	a0,5
20001568:	dffff097          	auipc	ra,0xdffff
2000156c:	124080e7          	jalr	292(ra) # 68c <analog_read_reg8>
20001570:	0f757593          	andi	a1,a0,247
20001574:	00500513          	li	a0,5
20001578:	dffff097          	auipc	ra,0xdffff
2000157c:	0d0080e7          	jalr	208(ra) # 648 <analog_write_reg8>
D:/release_sdk/v2_3_0_2/telink_b91m_driver_src/chip/B91/drivers/lib/src/sys.c:139
20001580:	00600513          	li	a0,6
20001584:	dffff097          	auipc	ra,0xdffff
20001588:	108080e7          	jalr	264(ra) # 68c <analog_read_reg8>
2000158c:	03e57593          	andi	a1,a0,62
20001590:	00600513          	li	a0,6
20001594:	dffff097          	auipc	ra,0xdffff
20001598:	0b4080e7          	jalr	180(ra) # 648 <analog_write_reg8>
D:/release_sdk/v2_3_0_2/telink_b91m_driver_src/chip/B91/drivers/lib/src/sys.c:144
2000159c:	04500593          	li	a1,69
200015a0:	00100513          	li	a0,1
200015a4:	dffff097          	auipc	ra,0xdffff
200015a8:	0a4080e7          	jalr	164(ra) # 648 <analog_write_reg8>
D:/release_sdk/v2_3_0_2/telink_b91m_driver_src/chip/B91/drivers/lib/src/sys.c:150
200015ac:	04c00593          	li	a1,76
200015b0:	01c00513          	li	a0,28
200015b4:	dffff097          	auipc	ra,0xdffff
200015b8:	094080e7          	jalr	148(ra) # 648 <analog_write_reg8>
200015bc:	001007b7          	lui	a5,0x100
200015c0:	44478693          	addi	a3,a5,1092 # 100444 <FLASH_SIZE+0x444>
D:\release_sdk\v2_3_0_2\telink_b91m_driver_src\chip\B91\drivers/dma.h:203
200015c4:	800005b7          	lui	a1,0x80000
D:/release_sdk/v2_3_0_2/telink_b91m_driver_src/chip/B91/drivers/lib/src/sys.c:154
200015c8:	4e478713          	addi	a4,a5,1252
D:\release_sdk\v2_3_0_2\telink_b91m_driver_src\chip\B91\drivers/dma.h:203
200015cc:	00b6e633          	or	a2,a3,a1
200015d0:	00060783          	lb	a5,0(a2)
200015d4:	01468693          	addi	a3,a3,20 # 10014 <BIN_SIZE+0xd790>
200015d8:	0ff7f793          	andi	a5,a5,255
200015dc:	00e7e793          	ori	a5,a5,14
200015e0:	00f60023          	sb	a5,0(a2)
D:/release_sdk/v2_3_0_2/telink_b91m_driver_src/chip/B91/drivers/lib/src/sys.c:154
200015e4:	fee694e3          	bne	a3,a4,200015cc <main+0xb0>
200015e8:	801017b7          	lui	a5,0x80101
200015ec:	83a78703          	lb	a4,-1990(a5) # 8010083a <_DATA_LMA_START+0x600fdfe2>
pm_update_status_info():
D:/release_sdk/v2_3_0_2/telink_b91m_driver_src/chip/B91/drivers/lib/src/pm.c:223
200015f0:	03800513          	li	a0,56
sys_init():
D:\release_sdk\v2_3_0_2\telink_b91m_driver_src\chip\B91\drivers/usbhw.h:154
200015f4:	82078d23          	sb	zero,-1990(a5)
pm_update_status_info():
D:/release_sdk/v2_3_0_2/telink_b91m_driver_src/chip/B91/drivers/lib/src/pm.c:223
200015f8:	dffff097          	auipc	ra,0xdffff
200015fc:	094080e7          	jalr	148(ra) # 68c <analog_read_reg8>
20001600:	00a00433          	add	s0,zero,a0
D:/release_sdk/v2_3_0_2/telink_b91m_driver_src/chip/B91/drivers/lib/src/pm.c:224
20001604:	03900513          	li	a0,57
20001608:	dffff097          	auipc	ra,0xdffff
2000160c:	084080e7          	jalr	132(ra) # 68c <analog_read_reg8>
20001610:	84aa                	c.mv	s1,a0
D:/release_sdk/v2_3_0_2/telink_b91m_driver_src/chip/B91/drivers/lib/src/pm.c:225
20001612:	2e04795b          	bbc	s0,0,20001904 <main+0x3e8>
20001616:	0fe47593          	andi	a1,s0,254
D:/release_sdk/v2_3_0_2/telink_b91m_driver_src/chip/B91/drivers/lib/src/pm.c:227
2000161a:	829f940b          	addigp	s0,-2008 # 80028 <g_pm_status_info>
D:/release_sdk/v2_3_0_2/telink_b91m_driver_src/chip/B91/drivers/lib/src/pm.c:228
2000161e:	03800513          	li	a0,56
D:/release_sdk/v2_3_0_2/telink_b91m_driver_src/chip/B91/drivers/lib/src/pm.c:226
20001622:	2a04fd5b          	bbc	s1,0,200018dc <main+0x3c0>
D:/release_sdk/v2_3_0_2/telink_b91m_driver_src/chip/B91/drivers/lib/src/pm.c:227
20001626:	4791                	c.li	a5,4
20001628:	00f40123          	sb	a5,2(s0)
D:/release_sdk/v2_3_0_2/telink_b91m_driver_src/chip/B91/drivers/lib/src/pm.c:228
2000162c:	dffff097          	auipc	ra,0xdffff
20001630:	01c080e7          	jalr	28(ra) # 648 <analog_write_reg8>
D:/release_sdk/v2_3_0_2/telink_b91m_driver_src/chip/B91/drivers/lib/src/pm.c:244
20001634:	00100593          	li	a1,1
20001638:	07f00513          	li	a0,127
2000163c:	dffff097          	auipc	ra,0xdffff
20001640:	00c080e7          	jalr	12(ra) # 648 <analog_write_reg8>
pm_get_wakeup_src():
D:\release_sdk\v2_3_0_2\telink_b91m_driver_src\chip\B91\drivers/lib/include/pm.h:239
20001644:	06400513          	li	a0,100
20001648:	dffff097          	auipc	ra,0xdffff
2000164c:	044080e7          	jalr	68(ra) # 68c <analog_read_reg8>
pm_update_status_info():
D:/release_sdk/v2_3_0_2/telink_b91m_driver_src/chip/B91/drivers/lib/src/pm.c:246
20001650:	0c3527db          	bfoz	a5,a0,3,3
D:/release_sdk/v2_3_0_2/telink_b91m_driver_src/chip/B91/drivers/lib/src/pm.c:245
20001654:	00a400a3          	sb	a0,1(s0)
D:/release_sdk/v2_3_0_2/telink_b91m_driver_src/chip/B91/drivers/lib/src/pm.c:246
20001658:	00f40023          	sb	a5,0(s0)
sys_init():
D:/release_sdk/v2_3_0_2/telink_b91m_driver_src/chip/B91/drivers/lib/src/sys.c:165
2000165c:	08800513          	li	a0,136
20001660:	dffff097          	auipc	ra,0xdffff
20001664:	02c080e7          	jalr	44(ra) # 68c <analog_read_reg8>
20001668:	be757a5b          	bbc	a0,7,2000165c <main+0x140>
D:/release_sdk/v2_3_0_2/telink_b91m_driver_src/chip/B91/drivers/lib/src/sys.c:170
2000166c:	dffff097          	auipc	ra,0xdffff
20001670:	1ac080e7          	jalr	428(ra) # 818 <pm_wait_bbpll_done>
D:/release_sdk/v2_3_0_2/telink_b91m_driver_src/chip/B91/drivers/lib/src/sys.c:172
20001674:	00244783          	lbu	a5,2(s0)
20001678:	0c87d25b          	beqc	a5,8,2000173c <main+0x220>
D:/release_sdk/v2_3_0_2/telink_b91m_driver_src/chip/B91/drivers/lib/src/sys.c:177
2000167c:	80140737          	lui	a4,0x80140
20001680:	20a70783          	lb	a5,522(a4) # 8014020a <_DATA_LMA_START+0x6013d9b2>
20001684:	0ff7f793          	andi	a5,a5,255
20001688:	00c7e793          	ori	a5,a5,12
2000168c:	20f70523          	sb	a5,522(a4)
D:/release_sdk/v2_3_0_2/telink_b91m_driver_src/chip/B91/drivers/lib/src/sys.c:178
20001690:	00100793          	li	a5,1
20001694:	20f72023          	sw	a5,512(a4)
D:/release_sdk/v2_3_0_2/telink_b91m_driver_src/chip/B91/drivers/lib/src/sys.c:184
20001698:	801404b7          	lui	s1,0x80140
2000169c:	1fd48783          	lb	a5,509(s1) # 801401fd <_DATA_LMA_START+0x6013d9a5>
200016a0:	0ff7f793          	andi	a5,a5,255
200016a4:	82ffc3ab          	swgp	a5,-2012 # 80024 <g_chip_version>
D:/release_sdk/v2_3_0_2/telink_b91m_driver_src/chip/B91/drivers/lib/src/sys.c:187
200016a8:	00244703          	lbu	a4,2(s0)
200016ac:	04475e5b          	beqc	a4,4,20001708 <main+0x1ec>
D:/release_sdk/v2_3_0_2/telink_b91m_driver_src/chip/B91/drivers/lib/src/sys.c:195
200016b0:	0ff00693          	li	a3,255
200016b4:	04d78263          	beq	a5,a3,200016f8 <main+0x1dc>
D:/release_sdk/v2_3_0_2/telink_b91m_driver_src/chip/B91/drivers/lib/src/sys.c:203
200016b8:	08000593          	li	a1,128
200016bc:	07d00513          	li	a0,125
200016c0:	dffff097          	auipc	ra,0xdffff
200016c4:	f88080e7          	jalr	-120(ra) # 648 <analog_write_reg8>
efuse_get_low_word():
D:/release_sdk/v2_3_0_2/telink_b91m_driver_src/chip/B91/drivers/lib/src/sys.c:273
200016c8:	80140737          	lui	a4,0x80140
200016cc:	06500793          	li	a5,101
200016d0:	1ef70a23          	sb	a5,500(a4) # 801401f4 <_DATA_LMA_START+0x6013d99c>
D:/release_sdk/v2_3_0_2/telink_b91m_driver_src/chip/B91/drivers/lib/src/sys.c:274
200016d4:	1c872783          	lw	a5,456(a4)
D:/release_sdk/v2_3_0_2/telink_b91m_driver_src/chip/B91/drivers/lib/src/sys.c:275
200016d8:	1e070a23          	sb	zero,500(a4)
efuse_check_protection_code():
D:/release_sdk/v2_3_0_2/telink_b91m_driver_src/chip/B91/drivers/lib/src/sys.c:63
200016dc:	8bbd                	c.andi	a5,15
D:/release_sdk/v2_3_0_2/telink_b91m_driver_src/chip/B91/drivers/lib/src/sys.c:67
200016de:	0037d55b          	beqc	a5,3,200016e8 <main+0x1cc>
200016e2:	4725                	c.li	a4,9
200016e4:	06f77263          	bgeu	a4,a5,20001748 <main+0x22c>
D:/release_sdk/v2_3_0_2/telink_b91m_driver_src/chip/B91/drivers/lib/src/sys.c:69
200016e8:	801407b7          	lui	a5,0x80140
200016ec:	02000713          	li	a4,32
200016f0:	1ee787a3          	sb	a4,495(a5) # 801401ef <_DATA_LMA_START+0x6013d997>
200016f4:	0000006f          	j	200016f4 <main+0x1d8>
sys_init():
D:/release_sdk/v2_3_0_2/telink_b91m_driver_src/chip/B91/drivers/lib/src/sys.c:197
200016f8:	bc17605b          	bnec	a4,1,200016b8 <main+0x19c>
D:/release_sdk/v2_3_0_2/telink_b91m_driver_src/chip/B91/drivers/lib/src/sys.c:199
200016fc:	07d00513          	li	a0,125
20001700:	08000593          	li	a1,128
20001704:	01c0006f          	j	20001720 <main+0x204>
D:/release_sdk/v2_3_0_2/telink_b91m_driver_src/chip/B91/drivers/lib/src/sys.c:190
20001708:	03900513          	li	a0,57
2000170c:	dffff097          	auipc	ra,0xdffff
20001710:	f80080e7          	jalr	-128(ra) # 68c <analog_read_reg8>
20001714:	00256593          	ori	a1,a0,2
20001718:	0ff5f593          	andi	a1,a1,255
2000171c:	03900513          	li	a0,57
D:/release_sdk/v2_3_0_2/telink_b91m_driver_src/chip/B91/drivers/lib/src/sys.c:199
20001720:	dffff097          	auipc	ra,0xdffff
20001724:	f28080e7          	jalr	-216(ra) # 648 <analog_write_reg8>
D:\release_sdk\v2_3_0_2\telink_b91m_driver_src\chip\B91\drivers/stimer.h:169
20001728:	2004a503          	lw	a0,512(s1)
D:/release_sdk/v2_3_0_2/telink_b91m_driver_src/chip/B91/drivers/lib/src/sys.c:200
2000172c:	001877b7          	lui	a5,0x187
20001730:	a0078793          	addi	a5,a5,-1536 # 186a00 <FLASH_SIZE+0x86a00>
20001734:	953e                	c.add	a0,a5
20001736:	3989                	c.jal	20001388 <pm_sleep_wakeup.constprop.5>
20001738:	f81ff06f          	j	200016b8 <main+0x19c>
D:/release_sdk/v2_3_0_2/telink_b91m_driver_src/chip/B91/drivers/lib/src/sys.c:174
2000173c:	dffff097          	auipc	ra,0xdffff
20001740:	c40080e7          	jalr	-960(ra) # 37c <pm_stimer_recover>
20001744:	f55ff06f          	j	20001698 <main+0x17c>
gpio_set_up_down_res():
/cygdrive/c/Users/SwaminathanK/Downloads/telink_b91m_driver_sdk/project/tlsr_riscv/B91/Debug_Demo/../../../../chip/B91/drivers/gpio.c:398
	analog_write_reg8(base_ana_reg, (analog_read_reg8(base_ana_reg) & mask_not) | (r_val << shift_num));
20001748:	00f00513          	li	a0,15
2000174c:	dffff097          	auipc	ra,0xdffff
20001750:	f40080e7          	jalr	-192(ra) # 68c <analog_read_reg8>
20001754:	03f57593          	andi	a1,a0,63
20001758:	0405e593          	ori	a1,a1,64
2000175c:	00f00513          	li	a0,15
20001760:	dffff097          	auipc	ra,0xdffff
20001764:	ee8080e7          	jalr	-280(ra) # 648 <analog_write_reg8>
user_read_flash_value_calib():
/cygdrive/c/Users/SwaminathanK/Downloads/telink_b91m_driver_sdk/project/tlsr_riscv/B91/Debug_Demo/../../../../demo/vendor/common/B91/calibration/calibration.c:145
	unsigned char flash_mid[4];
	unsigned char flash_uid[16];
	unsigned char flash_mid_sure = 0;

	/******check for flash mid********/
	flash_mid_sure = flash_read_mid_uid_with_check((unsigned int *)flash_mid, flash_uid);
20001768:	080c                	c.addi4spn	a1,sp,16
2000176a:	0068                	c.addi4spn	a0,sp,12
2000176c:	b45ff0ef          	jal	ra,200012b0 <flash_read_mid_uid_with_check>
/cygdrive/c/Users/SwaminathanK/Downloads/telink_b91m_driver_sdk/project/tlsr_riscv/B91/Debug_Demo/../../../../demo/vendor/common/B91/calibration/calibration.c:147

	if (1 == flash_mid_sure)
20001770:	0ff57513          	andi	a0,a0,255
20001774:	22156c5b          	bnec	a0,1,200019ac <main+0x490>
/cygdrive/c/Users/SwaminathanK/Downloads/telink_b91m_driver_sdk/project/tlsr_riscv/B91/Debug_Demo/../../../../demo/vendor/common/B91/calibration/calibration.c:149
	{
		switch (flash_mid[2])
20001778:	00e14783          	lbu	a5,14(sp)
2000177c:	474d                	c.li	a4,19
2000177e:	2137db5b          	beqc	a5,19,20001994 <main+0x478>
20001782:	1ef77b63          	bgeu	a4,a5,20001978 <main+0x45c>
20001786:	4755                	c.li	a4,21
20001788:	1d57dc5b          	beqc	a5,21,20001960 <main+0x444>
2000178c:	18e7ec63          	bltu	a5,a4,20001924 <main+0x408>
20001790:	2167ee5b          	bnec	a5,22,200019ac <main+0x490>
/cygdrive/c/Users/SwaminathanK/Downloads/telink_b91m_driver_sdk/project/tlsr_riscv/B91/Debug_Demo/../../../../demo/vendor/common/B91/calibration/calibration.c:172
			case FLASH_SIZE_2M:
				user_calib_adc_vref(USER_CALIB_FROM_FLASH, FLASH_ADC_VREF_CALIB_ADDR_2M);
				user_calib_freq_offset(USER_CALIB_FROM_FLASH, FLASH_CAP_VALUE_ADDR_2M);
				break;
			case FLASH_SIZE_4M:
				user_calib_adc_vref(USER_CALIB_FROM_FLASH, FLASH_ADC_VREF_CALIB_ADDR_4M);
20001794:	003fe537          	lui	a0,0x3fe
20001798:	0c050513          	addi	a0,a0,192 # 3fe0c0 <FLASH_SIZE+0x2fe0c0>
2000179c:	c09ff0ef          	jal	ra,200013a4 <user_calib_adc_vref.constprop.11>
/cygdrive/c/Users/SwaminathanK/Downloads/telink_b91m_driver_sdk/project/tlsr_riscv/B91/Debug_Demo/../../../../demo/vendor/common/B91/calibration/calibration.c:173
				user_calib_freq_offset(USER_CALIB_FROM_FLASH, FLASH_CAP_VALUE_ADDR_4M);
200017a0:	003fe537          	lui	a0,0x3fe
200017a4:	cfdff0ef          	jal	ra,200014a0 <user_calib_freq_offset.constprop.10>
gpio_function_en():
C:\Users\SwaminathanK\Downloads\telink_b91m_driver_sdk\chip\B91\drivers/gpio.h:195
	BM_SET(reg_gpio_func(pin), bit);
200017a8:	80140937          	lui	s2,0x80140
main():
/cygdrive/c/Users/SwaminathanK/Downloads/telink_b91m_driver_sdk/project/tlsr_riscv/B91/Debug_Demo/../../../../demo/vendor/Debug_Demo/main.c:38
    PLATFORM_INIT;
    CLOCK_INIT;
200017ac:	bc1ff0ef          	jal	ra,2000136c <clock_init.constprop.0>
gpio_function_en():
C:\Users\SwaminathanK\Downloads\telink_b91m_driver_sdk\chip\B91\drivers/gpio.h:195
200017b0:	30e90783          	lb	a5,782(s2) # 8014030e <_DATA_LMA_START+0x6013dab6>
user_init():
/cygdrive/c/Users/SwaminathanK/Downloads/telink_b91m_driver_sdk/project/tlsr_riscv/B91/Debug_Demo/../../../../demo/vendor/Debug_Demo/app.c:29
#include "app_config.h"
void user_init(void)
{
	gpio_function_en(LED1);
	gpio_output_en(LED1);
	gpio_input_dis(LED1);
200017b4:	11000513          	li	a0,272
gpio_function_en():
C:\Users\SwaminathanK\Downloads\telink_b91m_driver_sdk\chip\B91\drivers/gpio.h:195
200017b8:	0ff7f793          	andi	a5,a5,255
200017bc:	0107e793          	ori	a5,a5,16
200017c0:	30f90723          	sb	a5,782(s2)
gpio_output_en():
C:\Users\SwaminathanK\Downloads\telink_b91m_driver_sdk\chip\B91\drivers/gpio.h:303
	BM_CLR(reg_gpio_oen(pin), bit);
200017c4:	30a90783          	lb	a5,778(s2)
200017c8:	200024b7          	lui	s1,0x20002
200017cc:	0ef7f793          	andi	a5,a5,239
200017d0:	30f90523          	sb	a5,778(s2)
user_init():
/cygdrive/c/Users/SwaminathanK/Downloads/telink_b91m_driver_sdk/project/tlsr_riscv/B91/Debug_Demo/../../../../demo/vendor/Debug_Demo/app.c:29
200017d4:	d2dff0ef          	jal	ra,20001500 <gpio_input_dis>
gpio_function_en():
C:\Users\SwaminathanK\Downloads\telink_b91m_driver_sdk\chip\B91\drivers/gpio.h:195
	BM_SET(reg_gpio_func(pin), bit);
200017d8:	30e90783          	lb	a5,782(s2)
user_init():
/cygdrive/c/Users/SwaminathanK/Downloads/telink_b91m_driver_sdk/project/tlsr_riscv/B91/Debug_Demo/../../../../demo/vendor/Debug_Demo/app.c:32
	gpio_function_en(LED2);
	gpio_output_en(LED2);
	gpio_input_dis(LED2);
200017dc:	12000513          	li	a0,288
gpio_function_en():
C:\Users\SwaminathanK\Downloads\telink_b91m_driver_sdk\chip\B91\drivers/gpio.h:195
200017e0:	0ff7f793          	andi	a5,a5,255
200017e4:	0207e793          	ori	a5,a5,32
200017e8:	30f90723          	sb	a5,782(s2)
gpio_output_en():
C:\Users\SwaminathanK\Downloads\telink_b91m_driver_sdk\chip\B91\drivers/gpio.h:303
	BM_CLR(reg_gpio_oen(pin), bit);
200017ec:	30a90783          	lb	a5,778(s2)
gpio_toggle():
C:\Users\SwaminathanK\Downloads\telink_b91m_driver_sdk\chip\B91\drivers/gpio.h:290
	reg_gpio_out(pin) ^= (pin & 0xFF);
200017f0:	80140437          	lui	s0,0x80140
gpio_output_en():
C:\Users\SwaminathanK\Downloads\telink_b91m_driver_sdk\chip\B91\drivers/gpio.h:303
	BM_CLR(reg_gpio_oen(pin), bit);
200017f4:	0df7f793          	andi	a5,a5,223
200017f8:	30f90523          	sb	a5,778(s2)
user_init():
/cygdrive/c/Users/SwaminathanK/Downloads/telink_b91m_driver_sdk/project/tlsr_riscv/B91/Debug_Demo/../../../../demo/vendor/Debug_Demo/app.c:32
200017fc:	d05ff0ef          	jal	ra,20001500 <gpio_input_dis>
gpio_function_en():
C:\Users\SwaminathanK\Downloads\telink_b91m_driver_sdk\chip\B91\drivers/gpio.h:195
	BM_SET(reg_gpio_func(pin), bit);
20001800:	30e90783          	lb	a5,782(s2)
user_init():
/cygdrive/c/Users/SwaminathanK/Downloads/telink_b91m_driver_sdk/project/tlsr_riscv/B91/Debug_Demo/../../../../demo/vendor/Debug_Demo/app.c:35
	gpio_function_en(LED3);
	gpio_output_en(LED3);
	gpio_input_dis(LED3);
20001804:	14000513          	li	a0,320
gpio_function_en():
C:\Users\SwaminathanK\Downloads\telink_b91m_driver_sdk\chip\B91\drivers/gpio.h:195
20001808:	0ff7f793          	andi	a5,a5,255
2000180c:	0407e793          	ori	a5,a5,64
20001810:	30f90723          	sb	a5,782(s2)
gpio_output_en():
C:\Users\SwaminathanK\Downloads\telink_b91m_driver_sdk\chip\B91\drivers/gpio.h:303
	BM_CLR(reg_gpio_oen(pin), bit);
20001814:	30a90783          	lb	a5,778(s2)
20001818:	0bf7f793          	andi	a5,a5,191
2000181c:	30f90523          	sb	a5,778(s2)
user_init():
/cygdrive/c/Users/SwaminathanK/Downloads/telink_b91m_driver_sdk/project/tlsr_riscv/B91/Debug_Demo/../../../../demo/vendor/Debug_Demo/app.c:35
20001820:	ce1ff0ef          	jal	ra,20001500 <gpio_input_dis>
gpio_function_en():
C:\Users\SwaminathanK\Downloads\telink_b91m_driver_sdk\chip\B91\drivers/gpio.h:195
	BM_SET(reg_gpio_func(pin), bit);
20001824:	30e90783          	lb	a5,782(s2)
user_init():
/cygdrive/c/Users/SwaminathanK/Downloads/telink_b91m_driver_sdk/project/tlsr_riscv/B91/Debug_Demo/../../../../demo/vendor/Debug_Demo/app.c:38
	gpio_function_en(LED4);
	gpio_output_en(LED4);
	gpio_input_dis(LED4);
20001828:	18000513          	li	a0,384
gpio_function_en():
C:\Users\SwaminathanK\Downloads\telink_b91m_driver_sdk\chip\B91\drivers/gpio.h:195
2000182c:	f807e793          	ori	a5,a5,-128
20001830:	0ff7f793          	andi	a5,a5,255
20001834:	30f90723          	sb	a5,782(s2)
gpio_output_en():
C:\Users\SwaminathanK\Downloads\telink_b91m_driver_sdk\chip\B91\drivers/gpio.h:303
	BM_CLR(reg_gpio_oen(pin), bit);
20001838:	30a90783          	lb	a5,778(s2)
2000183c:	07f7f793          	andi	a5,a5,127
20001840:	30f90523          	sb	a5,778(s2)
user_init():
/cygdrive/c/Users/SwaminathanK/Downloads/telink_b91m_driver_sdk/project/tlsr_riscv/B91/Debug_Demo/../../../../demo/vendor/Debug_Demo/app.c:38
20001844:	cbdff0ef          	jal	ra,20001500 <gpio_input_dis>
/cygdrive/c/Users/SwaminathanK/Downloads/telink_b91m_driver_sdk/project/tlsr_riscv/B91/Debug_Demo/../../../../demo/vendor/Debug_Demo/app.c:46
	usbhw_set_printer_threshold(1);
	usbhw_set_ep8_fifo_mode();
	delay_ms(1000);
	printf("\n Driver version: %2x \n Copyright (c) %d Telink semiconductor (%s) Ltd, Co \n",0xa001,2019,"shanghai");
#elif(DEBUG_BUS==UART_PRINT_DEBUG_ENABLE)
	printf("  \n");								// caution: The first byte will be error
20001848:	20002537          	lui	a0,0x20002
2000184c:	6c450513          	addi	a0,a0,1732 # 200026c4 <__riscv_restore_0+0x1c>
20001850:	1e8000ef          	jal	ra,20001a38 <puts>
/cygdrive/c/Users/SwaminathanK/Downloads/telink_b91m_driver_sdk/project/tlsr_riscv/B91/Debug_Demo/../../../../demo/vendor/Debug_Demo/app.c:47
	printf("\n Driver version: %2x \n",0xa001);
20001854:	65a9                	c.lui	a1,0xa
20001856:	20002537          	lui	a0,0x20002
2000185a:	0585                	c.addi	a1,1
2000185c:	6c850513          	addi	a0,a0,1736 # 200026c8 <__riscv_restore_0+0x20>
20001860:	1ba000ef          	jal	ra,20001a1a <printf>
/cygdrive/c/Users/SwaminathanK/Downloads/telink_b91m_driver_sdk/project/tlsr_riscv/B91/Debug_Demo/../../../../demo/vendor/Debug_Demo/app.c:48
	printf("\n Copyright (c) %d \n",2020);
20001864:	20002537          	lui	a0,0x20002
20001868:	7e400593          	li	a1,2020
2000186c:	6e050513          	addi	a0,a0,1760 # 200026e0 <__riscv_restore_0+0x38>
20001870:	1aa000ef          	jal	ra,20001a1a <printf>
/cygdrive/c/Users/SwaminathanK/Downloads/telink_b91m_driver_sdk/project/tlsr_riscv/B91/Debug_Demo/../../../../demo/vendor/Debug_Demo/app.c:49
	printf("\n Telink semiconductor (%s)Ltd, Co \n","shanghai");
20001874:	200025b7          	lui	a1,0x20002
20001878:	20002537          	lui	a0,0x20002
2000187c:	6f858593          	addi	a1,a1,1784 # 200026f8 <__riscv_restore_0+0x50>
20001880:	70450513          	addi	a0,a0,1796 # 20002704 <__riscv_restore_0+0x5c>
20001884:	196000ef          	jal	ra,20001a1a <printf>
main_loop():
/cygdrive/c/Users/SwaminathanK/Downloads/telink_b91m_driver_sdk/project/tlsr_riscv/B91/Debug_Demo/../../../../demo/vendor/Debug_Demo/app.c:60
/////////////////////////////////////////////////////////////////////
// main loop flow
/////////////////////////////////////////////////////////////////////
void main_loop (void)
{
	printf(" Hello world! \n");
20001888:	72c48513          	addi	a0,s1,1836 # 2000272c <__riscv_restore_0+0x84>
2000188c:	1ac000ef          	jal	ra,20001a38 <puts>
gpio_toggle():
C:\Users\SwaminathanK\Downloads\telink_b91m_driver_sdk\chip\B91\drivers/gpio.h:290
	reg_gpio_out(pin) ^= (pin & 0xFF);
20001890:	30b40783          	lb	a5,779(s0) # 8014030b <_DATA_LMA_START+0x6013dab3>
20001894:	0107c793          	xori	a5,a5,16
20001898:	0ff7f793          	andi	a5,a5,255
2000189c:	30f405a3          	sb	a5,779(s0)
200018a0:	30b40783          	lb	a5,779(s0)
200018a4:	0207c793          	xori	a5,a5,32
200018a8:	0ff7f793          	andi	a5,a5,255
200018ac:	30f405a3          	sb	a5,779(s0)
200018b0:	30b40783          	lb	a5,779(s0)
200018b4:	0407c793          	xori	a5,a5,64
200018b8:	0ff7f793          	andi	a5,a5,255
200018bc:	30f405a3          	sb	a5,779(s0)
200018c0:	30b40783          	lb	a5,779(s0)
200018c4:	f807c793          	xori	a5,a5,-128
200018c8:	0ff7f793          	andi	a5,a5,255
200018cc:	30f405a3          	sb	a5,779(s0)
main_loop():
/cygdrive/c/Users/SwaminathanK/Downloads/telink_b91m_driver_sdk/project/tlsr_riscv/B91/Debug_Demo/../../../../demo/vendor/Debug_Demo/app.c:65
	gpio_toggle(LED1);
	gpio_toggle(LED2);
	gpio_toggle(LED3);
	gpio_toggle(LED4);
	delay_ms(50);
200018d0:	dffff097          	auipc	ra,0xdffff
200018d4:	930080e7          	jalr	-1744(ra) # 200 <delay_ms.constprop.2>
200018d8:	fb1ff06f          	j	20001888 <main+0x36c>
pm_update_status_info():
D:/release_sdk/v2_3_0_2/telink_b91m_driver_src/chip/B91/drivers/lib/src/pm.c:230
200018dc:	00100793          	li	a5,1
200018e0:	00f40123          	sb	a5,2(s0)
D:/release_sdk/v2_3_0_2/telink_b91m_driver_src/chip/B91/drivers/lib/src/pm.c:231
200018e4:	dffff097          	auipc	ra,0xdffff
200018e8:	d64080e7          	jalr	-668(ra) # 648 <analog_write_reg8>
D:/release_sdk/v2_3_0_2/telink_b91m_driver_src/chip/B91/drivers/lib/src/pm.c:232
200018ec:	0014e593          	ori	a1,s1,1
200018f0:	0ff5f593          	andi	a1,a1,255
200018f4:	03900513          	li	a0,57
200018f8:	dffff097          	auipc	ra,0xdffff
200018fc:	d50080e7          	jalr	-688(ra) # 648 <analog_write_reg8>
20001900:	d35ff06f          	j	20001634 <main+0x118>
pm_get_deep_retention_flag():
D:\release_sdk\v2_3_0_2\telink_b91m_driver_src\chip\B91\drivers/lib/include/pm.h:230
20001904:	07f00513          	li	a0,127
20001908:	dffff097          	auipc	ra,0xdffff
2000190c:	d84080e7          	jalr	-636(ra) # 68c <analog_read_reg8>
pm_update_status_info():
D:/release_sdk/v2_3_0_2/telink_b91m_driver_src/chip/B91/drivers/lib/src/pm.c:236
20001910:	829f940b          	addigp	s0,-2008 # 80028 <g_pm_status_info>
D:/release_sdk/v2_3_0_2/telink_b91m_driver_src/chip/B91/drivers/lib/src/pm.c:235
20001914:	0405725b          	bbc	a0,0,20001958 <main+0x43c>
D:/release_sdk/v2_3_0_2/telink_b91m_driver_src/chip/B91/drivers/lib/src/pm.c:237
20001918:	4214f25b          	bbs	s1,1,2000193c <main+0x420>
D:/release_sdk/v2_3_0_2/telink_b91m_driver_src/chip/B91/drivers/lib/src/pm.c:241
2000191c:	47c1                	c.li	a5,16
2000191e:	00f40123          	sb	a5,2(s0)
20001922:	bb09                	c.j	20001634 <main+0x118>
user_read_flash_value_calib():
/cygdrive/c/Users/SwaminathanK/Downloads/telink_b91m_driver_sdk/project/tlsr_riscv/B91/Debug_Demo/../../../../demo/vendor/common/B91/calibration/calibration.c:164
				user_calib_adc_vref(USER_CALIB_FROM_FLASH, FLASH_ADC_VREF_CALIB_ADDR_1M);
20001924:	000fe537          	lui	a0,0xfe
20001928:	0c050513          	addi	a0,a0,192 # fe0c0 <_STACK_TOP+0x5e0c0>
2000192c:	a79ff0ef          	jal	ra,200013a4 <user_calib_adc_vref.constprop.11>
/cygdrive/c/Users/SwaminathanK/Downloads/telink_b91m_driver_sdk/project/tlsr_riscv/B91/Debug_Demo/../../../../demo/vendor/common/B91/calibration/calibration.c:165
				user_calib_freq_offset(USER_CALIB_FROM_FLASH, FLASH_CAP_VALUE_ADDR_1M);
20001930:	000fe537          	lui	a0,0xfe
20001934:	b6dff0ef          	jal	ra,200014a0 <user_calib_freq_offset.constprop.10>
20001938:	e71ff06f          	j	200017a8 <main+0x28c>
pm_update_status_info():
D:/release_sdk/v2_3_0_2/telink_b91m_driver_src/chip/B91/drivers/lib/src/pm.c:238
2000193c:	02000793          	li	a5,32
D:/release_sdk/v2_3_0_2/telink_b91m_driver_src/chip/B91/drivers/lib/src/pm.c:239
20001940:	0fd4f593          	andi	a1,s1,253
20001944:	03900513          	li	a0,57
D:/release_sdk/v2_3_0_2/telink_b91m_driver_src/chip/B91/drivers/lib/src/pm.c:238
20001948:	00f40123          	sb	a5,2(s0)
D:/release_sdk/v2_3_0_2/telink_b91m_driver_src/chip/B91/drivers/lib/src/pm.c:239
2000194c:	dffff097          	auipc	ra,0xdffff
20001950:	cfc080e7          	jalr	-772(ra) # 648 <analog_write_reg8>
20001954:	ce1ff06f          	j	20001634 <main+0x118>
D:/release_sdk/v2_3_0_2/telink_b91m_driver_src/chip/B91/drivers/lib/src/pm.c:236
20001958:	47a1                	c.li	a5,8
2000195a:	00f40123          	sb	a5,2(s0)
2000195e:	b9d9                	c.j	20001634 <main+0x118>
user_read_flash_value_calib():
/cygdrive/c/Users/SwaminathanK/Downloads/telink_b91m_driver_sdk/project/tlsr_riscv/B91/Debug_Demo/../../../../demo/vendor/common/B91/calibration/calibration.c:168
				user_calib_adc_vref(USER_CALIB_FROM_FLASH, FLASH_ADC_VREF_CALIB_ADDR_2M);
20001960:	001fe537          	lui	a0,0x1fe
20001964:	0c050513          	addi	a0,a0,192 # 1fe0c0 <FLASH_SIZE+0xfe0c0>
20001968:	a3dff0ef          	jal	ra,200013a4 <user_calib_adc_vref.constprop.11>
/cygdrive/c/Users/SwaminathanK/Downloads/telink_b91m_driver_sdk/project/tlsr_riscv/B91/Debug_Demo/../../../../demo/vendor/common/B91/calibration/calibration.c:169
				user_calib_freq_offset(USER_CALIB_FROM_FLASH, FLASH_CAP_VALUE_ADDR_2M);
2000196c:	001fe537          	lui	a0,0x1fe
20001970:	b31ff0ef          	jal	ra,200014a0 <user_calib_freq_offset.constprop.10>
20001974:	e35ff06f          	j	200017a8 <main+0x28c>
/cygdrive/c/Users/SwaminathanK/Downloads/telink_b91m_driver_sdk/project/tlsr_riscv/B91/Debug_Demo/../../../../demo/vendor/common/B91/calibration/calibration.c:149
		switch (flash_mid[2])
20001978:	0307de5b          	beqc	a5,16,200019b4 <main+0x498>
2000197c:	0317e85b          	bnec	a5,17,200019ac <main+0x490>
/cygdrive/c/Users/SwaminathanK/Downloads/telink_b91m_driver_sdk/project/tlsr_riscv/B91/Debug_Demo/../../../../demo/vendor/common/B91/calibration/calibration.c:156
				user_calib_adc_vref(USER_CALIB_FROM_FLASH, FLASH_ADC_VREF_CALIB_ADDR_128K);
20001980:	6579                	c.lui	a0,0x1e
20001982:	0c050513          	addi	a0,a0,192 # 1e0c0 <BIN_SIZE+0x1b83c>
20001986:	3c39                	c.jal	200013a4 <user_calib_adc_vref.constprop.11>
/cygdrive/c/Users/SwaminathanK/Downloads/telink_b91m_driver_sdk/project/tlsr_riscv/B91/Debug_Demo/../../../../demo/vendor/common/B91/calibration/calibration.c:157
				user_calib_freq_offset(USER_CALIB_FROM_FLASH, FLASH_CAP_VALUE_ADDR_128K);
20001988:	0001e537          	lui	a0,0x1e
2000198c:	b15ff0ef          	jal	ra,200014a0 <user_calib_freq_offset.constprop.10>
20001990:	e19ff06f          	j	200017a8 <main+0x28c>
/cygdrive/c/Users/SwaminathanK/Downloads/telink_b91m_driver_sdk/project/tlsr_riscv/B91/Debug_Demo/../../../../demo/vendor/common/B91/calibration/calibration.c:160
				user_calib_adc_vref(USER_CALIB_FROM_FLASH, FLASH_ADC_VREF_CALIB_ADDR_512K);
20001994:	0007e537          	lui	a0,0x7e
20001998:	0c050513          	addi	a0,a0,192 # 7e0c0 <BIN_SIZE+0x7b83c>
2000199c:	a09ff0ef          	jal	ra,200013a4 <user_calib_adc_vref.constprop.11>
/cygdrive/c/Users/SwaminathanK/Downloads/telink_b91m_driver_sdk/project/tlsr_riscv/B91/Debug_Demo/../../../../demo/vendor/common/B91/calibration/calibration.c:161
				user_calib_freq_offset(USER_CALIB_FROM_FLASH, FLASH_CAP_VALUE_ADDR_512K);
200019a0:	0007e537          	lui	a0,0x7e
200019a4:	afdff0ef          	jal	ra,200014a0 <user_calib_freq_offset.constprop.10>
200019a8:	e01ff06f          	j	200017a8 <main+0x28c>
/cygdrive/c/Users/SwaminathanK/Downloads/telink_b91m_driver_sdk/project/tlsr_riscv/B91/Debug_Demo/../../../../demo/vendor/common/B91/calibration/calibration.c:182
				break;
		}
	}
	else
	{
		user_calib_adc_vref(USER_CALIB_FROM_FLASH, 0);
200019ac:	4501                	c.li	a0,0
200019ae:	3add                	c.jal	200013a4 <user_calib_adc_vref.constprop.11>
200019b0:	df9ff06f          	j	200017a8 <main+0x28c>
/cygdrive/c/Users/SwaminathanK/Downloads/telink_b91m_driver_sdk/project/tlsr_riscv/B91/Debug_Demo/../../../../demo/vendor/common/B91/calibration/calibration.c:152
				user_calib_adc_vref(USER_CALIB_FROM_FLASH, FLASH_ADC_VREF_CALIB_ADDR_64K);
200019b4:	6539                	c.lui	a0,0xe
200019b6:	0c050513          	addi	a0,a0,192 # e0c0 <BIN_SIZE+0xb83c>
200019ba:	32ed                	c.jal	200013a4 <user_calib_adc_vref.constprop.11>
/cygdrive/c/Users/SwaminathanK/Downloads/telink_b91m_driver_sdk/project/tlsr_riscv/B91/Debug_Demo/../../../../demo/vendor/common/B91/calibration/calibration.c:153
				user_calib_freq_offset(USER_CALIB_FROM_FLASH, FLASH_CAP_VALUE_ADDR_64K);
200019bc:	0000e537          	lui	a0,0xe
200019c0:	ae1ff0ef          	jal	ra,200014a0 <user_calib_freq_offset.constprop.10>
200019c4:	b3d5                	c.j	200017a8 <main+0x28c>
main():
200019c6:	0001                	c.nop

200019c8 <_write>:
_write():
/cygdrive/c/Users/SwaminathanK/Downloads/telink_b91m_driver_sdk/project/tlsr_riscv/B91/Debug_Demo/../../../../demo/vendor/common/common/printf.c:102

__attribute__((used)) int _write(int fd, const unsigned char *buf, int size)
{
200019c8:	1141                	c.addi	sp,-16
200019ca:	c606                	c.swsp	ra,12(sp)
200019cc:	c422                	c.swsp	s0,8(sp)
200019ce:	c226                	c.swsp	s1,4(sp)
200019d0:	c04a                	c.swsp	s2,0(sp)
/cygdrive/c/Users/SwaminathanK/Downloads/telink_b91m_driver_sdk/project/tlsr_riscv/B91/Debug_Demo/../../../../demo/vendor/common/common/printf.c:105
    (void) fd;
    int    i;
    for (i = 0; i < size; i++){
200019d2:	02c05963          	blez	a2,20001a04 <_write+0x3c>
200019d6:	8932                	c.mv	s2,a2
200019d8:	00b00433          	add	s0,zero,a1
200019dc:	00c584b3          	add	s1,a1,a2
/cygdrive/c/Users/SwaminathanK/Downloads/telink_b91m_driver_sdk/project/tlsr_riscv/B91/Debug_Demo/../../../../demo/vendor/common/common/printf.c:106
    	dr_putchar(buf[i]);
200019e0:	00044503          	lbu	a0,0(s0)
200019e4:	00140413          	addi	s0,s0,1
200019e8:	dffff097          	auipc	ra,0xdffff
200019ec:	078080e7          	jalr	120(ra) # a60 <dr_putchar>
/cygdrive/c/Users/SwaminathanK/Downloads/telink_b91m_driver_sdk/project/tlsr_riscv/B91/Debug_Demo/../../../../demo/vendor/common/common/printf.c:105
    for (i = 0; i < size; i++){
200019f0:	fe9418e3          	bne	s0,s1,200019e0 <_write+0x18>
/cygdrive/c/Users/SwaminathanK/Downloads/telink_b91m_driver_sdk/project/tlsr_riscv/B91/Debug_Demo/../../../../demo/vendor/common/common/printf.c:109
    }
    return i;
}
200019f4:	40b2                	c.lwsp	ra,12(sp)
200019f6:	4422                	c.lwsp	s0,8(sp)
200019f8:	854a                	c.mv	a0,s2
200019fa:	4492                	c.lwsp	s1,4(sp)
200019fc:	4902                	c.lwsp	s2,0(sp)
200019fe:	0141                	c.addi	sp,16
20001a00:	00008067          	ret
20001a04:	40b2                	c.lwsp	ra,12(sp)
20001a06:	4422                	c.lwsp	s0,8(sp)
/cygdrive/c/Users/SwaminathanK/Downloads/telink_b91m_driver_sdk/project/tlsr_riscv/B91/Debug_Demo/../../../../demo/vendor/common/common/printf.c:105
    for (i = 0; i < size; i++){
20001a08:	4901                	c.li	s2,0
/cygdrive/c/Users/SwaminathanK/Downloads/telink_b91m_driver_sdk/project/tlsr_riscv/B91/Debug_Demo/../../../../demo/vendor/common/common/printf.c:109
}
20001a0a:	854a                	c.mv	a0,s2
20001a0c:	4492                	c.lwsp	s1,4(sp)
20001a0e:	4902                	c.lwsp	s2,0(sp)
20001a10:	0141                	c.addi	sp,16
20001a12:	8082                	c.jr	ra

20001a14 <default_irq_entry>:
entry_irq55():
/cygdrive/c/Users/SwaminathanK/Downloads/telink_b91m_driver_sdk/project/tlsr_riscv/B91/Debug_Demo/../../../../chip/B91/boot/cstartup_flash.S:434
.text
	.global default_irq_entry
	.align 2

default_irq_entry:
1:	j 1b
20001a14:	a001                	c.j	20001a14 <default_irq_entry>

20001a16 <trap_handler>:
trap_handler():
/cygdrive/c/Users/SwaminathanK/Downloads/telink_b91m_driver_sdk/project/tlsr_riscv/B91/Debug_Demo/../../../../chip/B91/boot/cstartup_flash.S:439

       .weak trap_handler

 trap_handler:
1:	j 1b
20001a16:	a001                	c.j	20001a16 <trap_handler>
20001a18:	0001                	c.nop

20001a1a <printf>:
printf():
20001a1a:	7139                	c.addi16sp	sp,-64
20001a1c:	d22e                	c.swsp	a1,36(sp)
20001a1e:	104c                	c.addi4spn	a1,sp,36
20001a20:	ce06                	c.swsp	ra,28(sp)
20001a22:	d432                	c.swsp	a2,40(sp)
20001a24:	d636                	c.swsp	a3,44(sp)
20001a26:	d83a                	c.swsp	a4,48(sp)
20001a28:	da3e                	c.swsp	a5,52(sp)
20001a2a:	dc42                	c.swsp	a6,56(sp)
20001a2c:	de46                	c.swsp	a7,60(sp)
20001a2e:	c62e                	c.swsp	a1,12(sp)
20001a30:	28c1                	c.jal	20001b00 <vprintf>
20001a32:	40f2                	c.lwsp	ra,28(sp)
20001a34:	6121                	c.addi16sp	sp,64
20001a36:	8082                	c.jr	ra

20001a38 <puts>:
puts():
20001a38:	44d002ef          	jal	t0,20002684 <__riscv_save_0>
20001a3c:	1101                	c.addi	sp,-32
20001a3e:	c62a                	c.swsp	a0,12(sp)
20001a40:	2025                	c.jal	20001a68 <strlen>
20001a42:	45b2                	c.lwsp	a1,12(sp)
20001a44:	862a                	c.mv	a2,a0
20001a46:	4505                	c.li	a0,1
20001a48:	3741                	c.jal	200019c8 <_write>
20001a4a:	00054d63          	bltz	a0,20001a64 <puts+0x2c>
20001a4e:	47a9                	c.li	a5,10
20001a50:	4605                	c.li	a2,1
20001a52:	01f10593          	addi	a1,sp,31
20001a56:	4505                	c.li	a0,1
20001a58:	00f10fa3          	sb	a5,31(sp)
20001a5c:	37b5                	c.jal	200019c8 <_write>
20001a5e:	6105                	c.addi16sp	sp,32
20001a60:	4490006f          	j	200026a8 <__riscv_restore_0>
20001a64:	557d                	c.li	a0,-1
20001a66:	bfe5                	c.j	20001a5e <puts+0x26>

20001a68 <strlen>:
strlen():
20001a68:	00357793          	andi	a5,a0,3
20001a6c:	872a                	c.mv	a4,a0
20001a6e:	e79d                	c.bnez	a5,20001a9c <strlen+0x34>
20001a70:	0511                	c.addi	a0,4
20001a72:	ffc52783          	lw	a5,-4(a0) # dffc <BIN_SIZE+0xb778>
20001a76:	200787db          	ffb	a5,a5,zero
20001a7a:	dbfd                	c.beqz	a5,20001a70 <strlen+0x8>
20001a7c:	ffc54783          	lbu	a5,-4(a0)
20001a80:	40e50733          	sub	a4,a0,a4
20001a84:	ffd54683          	lbu	a3,-3(a0)
20001a88:	ffe54603          	lbu	a2,-2(a0)
20001a8c:	c795                	c.beqz	a5,20001ab8 <strlen+0x50>
20001a8e:	c28d                	c.beqz	a3,20001ab0 <strlen+0x48>
20001a90:	ca05                	c.beqz	a2,20001ac0 <strlen+0x58>
20001a92:	fff70513          	addi	a0,a4,-1
20001a96:	8082                	c.jr	ra
20001a98:	fc068ce3          	beqz	a3,20001a70 <strlen+0x8>
20001a9c:	00054783          	lbu	a5,0(a0)
20001aa0:	0505                	c.addi	a0,1
20001aa2:	00357693          	andi	a3,a0,3
20001aa6:	fbed                	c.bnez	a5,20001a98 <strlen+0x30>
20001aa8:	8d19                	c.sub	a0,a4
20001aaa:	157d                	c.addi	a0,-1
20001aac:	00008067          	ret
20001ab0:	ffd70513          	addi	a0,a4,-3
20001ab4:	00008067          	ret
20001ab8:	ffc70513          	addi	a0,a4,-4
20001abc:	00008067          	ret
20001ac0:	ffe70513          	addi	a0,a4,-2
20001ac4:	8082                	c.jr	ra
20001ac6:	0001                	c.nop

20001ac8 <__vprintf_help>:
__vprintf_help():
20001ac8:	3bd002ef          	jal	t0,20002684 <__riscv_save_0>
20001acc:	837fa7ab          	lwgp	a5,-1996 # 80034 <__printf_count>
20001ad0:	0785                	c.addi	a5,1
20001ad2:	82ffcbab          	swgp	a5,-1996 # 80034 <__printf_count>
20001ad6:	831f940b          	addigp	s0,-2000 # 80030 <__vprintf_buf_len>
20001ada:	82ffa5ab          	lwgp	a1,-2004 # 8002c <__vprintf_buf>
20001ade:	401c                	c.lw	a5,0(s0)
20001ae0:	00178713          	addi	a4,a5,1
20001ae4:	97ae                	c.add	a5,a1
20001ae6:	c018                	c.sw	a4,0(s0)
20001ae8:	00a78023          	sb	a0,0(a5)
20001aec:	4007685b          	bnec	a4,64,20001afc <__vprintf_help+0x34>
20001af0:	04000613          	li	a2,64
20001af4:	4505                	c.li	a0,1
20001af6:	3dc9                	c.jal	200019c8 <_write>
20001af8:	00042023          	sw	zero,0(s0)
20001afc:	3ad0006f          	j	200026a8 <__riscv_restore_0>

20001b00 <vprintf>:
vprintf():
20001b00:	1141                	c.addi	sp,-16
20001b02:	c606                	c.swsp	ra,12(sp)
20001b04:	c422                	c.swsp	s0,8(sp)
20001b06:	c226                	c.swsp	s1,4(sp)
20001b08:	c04a                	c.swsp	s2,0(sp)
20001b0a:	0800                	c.addi4spn	s0,sp,16
20001b0c:	715d                	c.addi16sp	sp,-80
20001b0e:	00f10793          	addi	a5,sp,15
20001b12:	20002637          	lui	a2,0x20002
20001b16:	9bc1                	c.andi	a5,-16
20001b18:	82df948b          	addigp	s1,-2004 # 8002c <__vprintf_buf>
20001b1c:	831f990b          	addigp	s2,-2000 # 80030 <__vprintf_buf_len>
20001b20:	ac860613          	addi	a2,a2,-1336 # 20001ac8 <__vprintf_help>
20001b24:	c09c                	c.sw	a5,0(s1)
20001b26:	00092023          	sw	zero,0(s2)
20001b2a:	20b5                	c.jal	20001b96 <__printf_impl>
20001b2c:	00092603          	lw	a2,0(s2)
20001b30:	408c                	c.lw	a1,0(s1)
20001b32:	4505                	c.li	a0,1
20001b34:	3d51                	c.jal	200019c8 <_write>
20001b36:	837fa52b          	lwgp	a0,-1996 # 80034 <__printf_count>
20001b3a:	ff040113          	addi	sp,s0,-16
20001b3e:	40b2                	c.lwsp	ra,12(sp)
20001b40:	4422                	c.lwsp	s0,8(sp)
20001b42:	4492                	c.lwsp	s1,4(sp)
20001b44:	4902                	c.lwsp	s2,0(sp)
20001b46:	0141                	c.addi	sp,16
20001b48:	8082                	c.jr	ra

20001b4a <__print_integral>:
__print_integral():
20001b4a:	33b002ef          	jal	t0,20002684 <__riscv_save_0>
20001b4e:	1101                	c.addi	sp,-32
20001b50:	842a                	c.mv	s0,a0
20001b52:	84ae                	c.mv	s1,a1
20001b54:	8932                	c.mv	s2,a2
20001b56:	c636                	c.swsp	a3,12(sp)
20001b58:	85be                	c.mv	a1,a5
20001b5a:	ca32                	c.swsp	a2,20(sp)
20001b5c:	853a                	c.mv	a0,a4
20001b5e:	0830                	c.addi4spn	a2,sp,24
20001b60:	215d                	c.jal	20002006 <__int_to_poly>
20001b62:	46b2                	c.lwsp	a3,12(sp)
20001b64:	882a                	c.mv	a6,a0
20001b66:	083c                	c.addi4spn	a5,sp,24
20001b68:	0858                	c.addi4spn	a4,sp,20
20001b6a:	864a                	c.mv	a2,s2
20001b6c:	85a6                	c.mv	a1,s1
20001b6e:	8522                	c.mv	a0,s0
20001b70:	2955                	c.jal	20002024 <__print_integral_poly>
20001b72:	200027b7          	lui	a5,0x20002
20001b76:	73c78793          	addi	a5,a5,1852 # 2000273c <__digits>
20001b7a:	00a46563          	bltu	s0,a0,20001b84 <__print_integral+0x3a>
20001b7e:	6105                	c.addi16sp	sp,32
20001b80:	3290006f          	j	200026a8 <__riscv_restore_0>
20001b84:	00044703          	lbu	a4,0(s0)
20001b88:	0405                	c.addi	s0,1
20001b8a:	973e                	c.add	a4,a5
20001b8c:	00070703          	lb	a4,0(a4)
20001b90:	fee40fa3          	sb	a4,-1(s0)
20001b94:	b7dd                	c.j	20001b7a <__print_integral+0x30>

20001b96 <__printf_impl>:
__printf_impl():
20001b96:	2bf002ef          	jal	t0,20002654 <__riscv_save_12>
20001b9a:	a6010113          	addi	sp,sp,-1440
20001b9e:	6b05                	c.lui	s6,0x1
20001ba0:	892a                	c.mv	s2,a0
20001ba2:	842e                	c.mv	s0,a1
20001ba4:	89b2                	c.mv	s3,a2
20001ba6:	01c10a13          	addi	s4,sp,28
20001baa:	800b0b13          	addi	s6,s6,-2048 # 800 <clock_init_ram.constprop.1+0x128>
20001bae:	820fcbab          	swgp	zero,-1996 # 80034 <__printf_count>
20001bb2:	c456                	c.swsp	s5,8(sp)
20001bb4:	00094503          	lbu	a0,0(s2)
20001bb8:	e509                	c.bnez	a0,20001bc2 <__printf_impl+0x2c>
20001bba:	5a010113          	addi	sp,sp,1440
20001bbe:	2d30006f          	j	20002690 <__riscv_restore_12>
20001bc2:	00190493          	addi	s1,s2,1
20001bc6:	005555db          	beqc	a0,37,20001bd0 <__printf_impl+0x3a>
20001bca:	9982                	c.jalr	s3
20001bcc:	8926                	c.mv	s2,s1
20001bce:	b7dd                	c.j	20001bb4 <__printf_impl+0x1e>
20001bd0:	00194783          	lbu	a5,1(s2)
20001bd4:	0057e8db          	bnec	a5,37,20001be4 <__printf_impl+0x4e>
20001bd8:	02500513          	li	a0,37
20001bdc:	9982                	c.jalr	s3
20001bde:	00290493          	addi	s1,s2,2
20001be2:	b7ed                	c.j	20001bcc <__printf_impl+0x36>
20001be4:	4681                	c.li	a3,0
20001be6:	4701                	c.li	a4,0
20001be8:	d002                	c.swsp	zero,32(sp)
20001bea:	0004c783          	lbu	a5,0(s1)
20001bee:	0007e7db          	bnec	a5,32,20001bfc <__printf_impl+0x66>
20001bf2:	00276713          	ori	a4,a4,2
20001bf6:	0485                	c.addi	s1,1
20001bf8:	4685                	c.li	a3,1
20001bfa:	bfc5                	c.j	20001bea <__printf_impl+0x54>
20001bfc:	00d7e5db          	bnec	a5,45,20001c06 <__printf_impl+0x70>
20001c00:	00476713          	ori	a4,a4,4
20001c04:	bfcd                	c.j	20001bf6 <__printf_impl+0x60>
20001c06:	00b7e5db          	bnec	a5,43,20001c10 <__printf_impl+0x7a>
20001c0a:	00876713          	ori	a4,a4,8
20001c0e:	b7e5                	c.j	20001bf6 <__printf_impl+0x60>
20001c10:	0037e5db          	bnec	a5,35,20001c1a <__printf_impl+0x84>
20001c14:	01076713          	ori	a4,a4,16
20001c18:	bff9                	c.j	20001bf6 <__printf_impl+0x60>
20001c1a:	0107e5db          	bnec	a5,48,20001c24 <__printf_impl+0x8e>
20001c1e:	02076713          	ori	a4,a4,32
20001c22:	bfd1                	c.j	20001bf6 <__printf_impl+0x60>
20001c24:	c291                	c.beqz	a3,20001c28 <__printf_impl+0x92>
20001c26:	d03a                	c.swsp	a4,32(sp)
20001c28:	04a7eadb          	bnec	a5,42,20001c7c <__printf_impl+0xe6>
20001c2c:	00042c03          	lw	s8,0(s0)
20001c30:	00440713          	addi	a4,s0,4
20001c34:	000c5863          	bgez	s8,20001c44 <__printf_impl+0xae>
20001c38:	5782                	c.lwsp	a5,32(sp)
20001c3a:	41800c33          	neg	s8,s8
20001c3e:	0047e793          	ori	a5,a5,4
20001c42:	d03e                	c.swsp	a5,32(sp)
20001c44:	0485                	c.addi	s1,1
20001c46:	843a                	c.mv	s0,a4
20001c48:	0004c783          	lbu	a5,0(s1)
20001c4c:	5cfd                	c.li	s9,-1
20001c4e:	06e7e4db          	bnec	a5,46,20001cb6 <__printf_impl+0x120>
20001c52:	0014c783          	lbu	a5,1(s1)
20001c56:	04a7dbdb          	beqc	a5,42,20001cac <__printf_impl+0x116>
20001c5a:	0485                	c.addi	s1,1
20001c5c:	4c81                	c.li	s9,0
20001c5e:	4725                	c.li	a4,9
20001c60:	4629                	c.li	a2,10
20001c62:	0004c783          	lbu	a5,0(s1)
20001c66:	fd078793          	addi	a5,a5,-48
20001c6a:	0ff7f693          	andi	a3,a5,255
20001c6e:	04d76463          	bltu	a4,a3,20001cb6 <__printf_impl+0x120>
20001c72:	c4cc97ff          	maddr32	a5,s9,a2
20001c76:	0485                	c.addi	s1,1
20001c78:	8cbe                	c.mv	s9,a5
20001c7a:	b7e5                	c.j	20001c62 <__printf_impl+0xcc>
20001c7c:	fd078793          	addi	a5,a5,-48
20001c80:	0ff7f793          	andi	a5,a5,255
20001c84:	4725                	c.li	a4,9
20001c86:	4c01                	c.li	s8,0
20001c88:	fcf760e3          	bltu	a4,a5,20001c48 <__printf_impl+0xb2>
20001c8c:	4725                	c.li	a4,9
20001c8e:	4629                	c.li	a2,10
20001c90:	a029                	c.j	20001c9a <__printf_impl+0x104>
20001c92:	c4cc17ff          	maddr32	a5,s8,a2
20001c96:	0485                	c.addi	s1,1
20001c98:	8c3e                	c.mv	s8,a5
20001c9a:	0004c783          	lbu	a5,0(s1)
20001c9e:	fd078793          	addi	a5,a5,-48
20001ca2:	0ff7f693          	andi	a3,a5,255
20001ca6:	fed776e3          	bgeu	a4,a3,20001c92 <__printf_impl+0xfc>
20001caa:	bf79                	c.j	20001c48 <__printf_impl+0xb2>
20001cac:	401c                	c.lw	a5,0(s0)
20001cae:	0489                	c.addi	s1,2
20001cb0:	0411                	c.addi	s0,4
20001cb2:	f2fc8cff          	maxw	s9,s9,a5
20001cb6:	43200613          	li	a2,1074
20001cba:	f0cc867f          	minw	a2,s9,a2
20001cbe:	0004c783          	lbu	a5,0(s1)
20001cc2:	4487efdb          	bnec	a5,104,20001d20 <__printf_impl+0x18a>
20001cc6:	5782                	c.lwsp	a5,32(sp)
20001cc8:	0014c703          	lbu	a4,1(s1)
20001ccc:	448764db          	bnec	a4,104,20001d14 <__printf_impl+0x17e>
20001cd0:	0407e793          	ori	a5,a5,64
20001cd4:	00248913          	addi	s2,s1,2
20001cd8:	d03e                	c.swsp	a5,32(sp)
20001cda:	00094503          	lbu	a0,0(s2)
20001cde:	06700793          	li	a5,103
20001ce2:	0aa7e263          	bltu	a5,a0,20001d86 <__printf_impl+0x1f0>
20001ce6:	06500793          	li	a5,101
20001cea:	06f57d63          	bgeu	a0,a5,20001d64 <__printf_impl+0x1ce>
20001cee:	05800793          	li	a5,88
20001cf2:	5785555b          	beqc	a0,88,20001e5c <__printf_impl+0x2c6>
20001cf6:	04a7ef63          	bltu	a5,a0,20001d54 <__printf_impl+0x1be>
20001cfa:	04100793          	li	a5,65
20001cfe:	4615535b          	beqc	a0,65,20001d64 <__printf_impl+0x1ce>
20001d02:	00f56763          	bltu	a0,a5,20001d10 <__printf_impl+0x17a>
20001d06:	fbb50793          	addi	a5,a0,-69
20001d0a:	4709                	c.li	a4,2
20001d0c:	04f77c63          	bgeu	a4,a5,20001d64 <__printf_impl+0x1ce>
20001d10:	84a2                	c.mv	s1,s0
20001d12:	a481                	c.j	20001f52 <__printf_impl+0x3bc>
20001d14:	0807e793          	ori	a5,a5,128
20001d18:	d03e                	c.swsp	a5,32(sp)
20001d1a:	00148913          	addi	s2,s1,1
20001d1e:	bf75                	c.j	20001cda <__printf_impl+0x144>
20001d20:	40c7eddb          	bnec	a5,108,20001d3a <__printf_impl+0x1a4>
20001d24:	5782                	c.lwsp	a5,32(sp)
20001d26:	0014c703          	lbu	a4,1(s1)
20001d2a:	40c765db          	bnec	a4,108,20001d34 <__printf_impl+0x19e>
20001d2e:	2007e793          	ori	a5,a5,512
20001d32:	b74d                	c.j	20001cd4 <__printf_impl+0x13e>
20001d34:	1007e793          	ori	a5,a5,256
20001d38:	b7c5                	c.j	20001d18 <__printf_impl+0x182>
20001d3a:	00148913          	addi	s2,s1,1
20001d3e:	41a7e7db          	bnec	a5,122,20001d4c <__printf_impl+0x1b6>
20001d42:	5782                	c.lwsp	a5,32(sp)
20001d44:	1007e793          	ori	a5,a5,256
20001d48:	d03e                	c.swsp	a5,32(sp)
20001d4a:	bf41                	c.j	20001cda <__printf_impl+0x144>
20001d4c:	ff47dbdb          	beqc	a5,116,20001d42 <__printf_impl+0x1ac>
20001d50:	8926                	c.mv	s2,s1
20001d52:	b761                	c.j	20001cda <__printf_impl+0x144>
20001d54:	06300793          	li	a5,99
20001d58:	50355cdb          	beqc	a0,99,20001e70 <__printf_impl+0x2da>
20001d5c:	04a7e463          	bltu	a5,a0,20001da4 <__printf_impl+0x20e>
20001d60:	fa1568db          	bnec	a0,97,20001d10 <__printf_impl+0x17a>
20001d64:	041d                	c.addi	s0,7
20001d66:	9861                	c.andi	s0,-8
20001d68:	00042803          	lw	a6,0(s0)
20001d6c:	00442883          	lw	a7,4(s0)
20001d70:	02057b93          	andi	s7,a0,32
20001d74:	87aa                	c.mv	a5,a0
20001d76:	86c2                	c.mv	a3,a6
20001d78:	8746                	c.mv	a4,a7
20001d7a:	100c                	c.addi4spn	a1,sp,32
20001d7c:	1048                	c.addi4spn	a0,sp,36
20001d7e:	00840493          	addi	s1,s0,8
20001d82:	2e0d                	c.jal	200020b4 <__printf_float_impl>
20001d84:	aa45                	c.j	20001f34 <__printf_impl+0x39e>
20001d86:	07000793          	li	a5,112
20001d8a:	4d0559db          	beqc	a0,112,20001e5c <__printf_impl+0x2c6>
20001d8e:	04a7e163          	bltu	a5,a0,20001dd0 <__printf_impl+0x23a>
20001d92:	06e00793          	li	a5,110
20001d96:	5ae553db          	beqc	a0,110,20001f3c <__printf_impl+0x3a6>
20001d9a:	45a1                	c.li	a1,8
20001d9c:	0ca7e163          	bltu	a5,a0,20001e5e <__printf_impl+0x2c8>
20001da0:	f69568db          	bnec	a0,105,20001d10 <__printf_impl+0x17a>
20001da4:	5682                	c.lwsp	a3,32(sp)
20001da6:	0e66f05b          	bbc	a3,6,20001e86 <__printf_impl+0x2f0>
20001daa:	00040703          	lb	a4,0(s0)
20001dae:	00440493          	addi	s1,s0,4
20001db2:	41f75793          	srai	a5,a4,0x1f
20001db6:	0e07df63          	bgez	a5,20001eb4 <__printf_impl+0x31e>
20001dba:	40e00733          	neg	a4,a4
20001dbe:	00e035b3          	snez	a1,a4
20001dc2:	40f007b3          	neg	a5,a5
20001dc6:	8f8d                	c.sub	a5,a1
20001dc8:	4006e693          	ori	a3,a3,1024
20001dcc:	d036                	c.swsp	a3,32(sp)
20001dce:	a0dd                	c.j	20001eb4 <__printf_impl+0x31e>
20001dd0:	515553db          	beqc	a0,117,20001ed6 <__printf_impl+0x340>
20001dd4:	498554db          	beqc	a0,120,20001e5c <__printf_impl+0x2c6>
20001dd8:	f3356cdb          	bnec	a0,115,20001d10 <__printf_impl+0x17a>
20001ddc:	00042a83          	lw	s5,0(s0)
20001de0:	85b2                	c.mv	a1,a2
20001de2:	8556                	c.mv	a0,s5
20001de4:	c632                	c.swsp	a2,12(sp)
20001de6:	27b1                	c.jal	20002532 <strnlen>
20001de8:	57fd                	c.li	a5,-1
20001dea:	00440493          	addi	s1,s0,4
20001dee:	00fc8563          	beq	s9,a5,20001df8 <__printf_impl+0x262>
20001df2:	4632                	c.lwsp	a2,12(sp)
20001df4:	f0c5057f          	minw	a0,a0,a2
20001df8:	00aa8433          	add	s0,s5,a0
20001dfc:	4b81                	c.li	s7,0
20001dfe:	5782                	c.lwsp	a5,32(sp)
20001e00:	02d00693          	li	a3,45
20001e04:	40a7fb5b          	bbs	a5,10,20001e1a <__printf_impl+0x284>
20001e08:	02b00693          	li	a3,43
20001e0c:	4037f75b          	bbs	a5,3,20001e1a <__printf_impl+0x284>
20001e10:	8cd2                	c.mv	s9,s4
20001e12:	0017f85b          	bbc	a5,1,20001e22 <__printf_impl+0x28c>
20001e16:	02000693          	li	a3,32
20001e1a:	01d10c93          	addi	s9,sp,29
20001e1e:	00d10e23          	sb	a3,28(sp)
20001e22:	0167f6b3          	and	a3,a5,s6
20001e26:	ca91                	c.beqz	a3,20001e3a <__printf_impl+0x2a4>
20001e28:	03000693          	li	a3,48
20001e2c:	00dc8023          	sb	a3,0(s9)
20001e30:	05800693          	li	a3,88
20001e34:	00dc80a3          	sb	a3,1(s9)
20001e38:	0c89                	c.addi	s9,2
20001e3a:	5627f35b          	bbs	a5,2,20001fa0 <__printf_impl+0x40a>
20001e3e:	41540db3          	sub	s11,s0,s5
20001e42:	4057fa5b          	bbs	a5,5,20001e56 <__printf_impl+0x2c0>
20001e46:	41bc0d33          	sub	s10,s8,s11
20001e4a:	414c87b3          	sub	a5,s9,s4
20001e4e:	40fd0d33          	sub	s10,s10,a5
20001e52:	17a04663          	bgtz	s10,20001fbe <__printf_impl+0x428>
20001e56:	8d52                	c.mv	s10,s4
20001e58:	9c52                	c.add	s8,s4
20001e5a:	aaad                	c.j	20001fd4 <__printf_impl+0x43e>
20001e5c:	45c1                	c.li	a1,16
20001e5e:	5782                	c.lwsp	a5,32(sp)
20001e60:	0667fd5b          	bbc	a5,6,20001eda <__printf_impl+0x344>
20001e64:	00044703          	lbu	a4,0(s0)
20001e68:	00440493          	addi	s1,s0,4
20001e6c:	4781                	c.li	a5,0
20001e6e:	a859                	c.j	20001f04 <__printf_impl+0x36e>
20001e70:	401c                	c.lw	a5,0(s0)
20001e72:	00440493          	addi	s1,s0,4
20001e76:	4b81                	c.li	s7,0
20001e78:	02510413          	addi	s0,sp,37
20001e7c:	02f10223          	sb	a5,36(sp)
20001e80:	02410a93          	addi	s5,sp,36
20001e84:	bfad                	c.j	20001dfe <__printf_impl+0x268>
20001e86:	0076f75b          	bbc	a3,7,20001e94 <__printf_impl+0x2fe>
20001e8a:	00440493          	addi	s1,s0,4
20001e8e:	00041703          	lh	a4,0(s0)
20001e92:	b705                	c.j	20001db2 <__printf_impl+0x21c>
20001e94:	0086f65b          	bbc	a3,8,20001ea0 <__printf_impl+0x30a>
20001e98:	00440493          	addi	s1,s0,4
20001e9c:	4018                	c.lw	a4,0(s0)
20001e9e:	bf11                	c.j	20001db2 <__printf_impl+0x21c>
20001ea0:	be96fc5b          	bbc	a3,9,20001e98 <__printf_impl+0x302>
20001ea4:	041d                	c.addi	s0,7
20001ea6:	9861                	c.andi	s0,-8
20001ea8:	405c                	c.lw	a5,4(s0)
20001eaa:	00840493          	addi	s1,s0,8
20001eae:	4018                	c.lw	a4,0(s0)
20001eb0:	0007c963          	bltz	a5,20001ec2 <__printf_impl+0x32c>
20001eb4:	56fd                	c.li	a3,-1
20001eb6:	45a9                	c.li	a1,10
20001eb8:	4b81                	c.li	s7,0
20001eba:	04dc9a63          	bne	s9,a3,20001f0e <__printf_impl+0x378>
20001ebe:	4605                	c.li	a2,1
20001ec0:	a0b5                	c.j	20001f2c <__printf_impl+0x396>
20001ec2:	ee071ce3          	bnez	a4,20001dba <__printf_impl+0x224>
20001ec6:	800005b7          	lui	a1,0x80000
20001eca:	eeb798e3          	bne	a5,a1,20001dba <__printf_impl+0x224>
20001ece:	4701                	c.li	a4,0
20001ed0:	800007b7          	lui	a5,0x80000
20001ed4:	bdd5                	c.j	20001dc8 <__printf_impl+0x232>
20001ed6:	45a9                	c.li	a1,10
20001ed8:	b759                	c.j	20001e5e <__printf_impl+0x2c8>
20001eda:	0077f75b          	bbc	a5,7,20001ee8 <__printf_impl+0x352>
20001ede:	00440493          	addi	s1,s0,4
20001ee2:	00045703          	lhu	a4,0(s0)
20001ee6:	b759                	c.j	20001e6c <__printf_impl+0x2d6>
20001ee8:	0087f65b          	bbc	a5,8,20001ef4 <__printf_impl+0x35e>
20001eec:	00440493          	addi	s1,s0,4
20001ef0:	4018                	c.lw	a4,0(s0)
20001ef2:	bfad                	c.j	20001e6c <__printf_impl+0x2d6>
20001ef4:	be97fc5b          	bbc	a5,9,20001eec <__printf_impl+0x356>
20001ef8:	041d                	c.addi	s0,7
20001efa:	9861                	c.andi	s0,-8
20001efc:	4018                	c.lw	a4,0(s0)
20001efe:	405c                	c.lw	a5,4(s0)
20001f00:	00840493          	addi	s1,s0,8
20001f04:	56fd                	c.li	a3,-1
20001f06:	02057b93          	andi	s7,a0,32
20001f0a:	02dc8763          	beq	s9,a3,20001f38 <__printf_impl+0x3a2>
20001f0e:	5682                	c.lwsp	a3,32(sp)
20001f10:	fdf6f693          	andi	a3,a3,-33
20001f14:	d036                	c.swsp	a3,32(sp)
20001f16:	0105eb5b          	bnec	a1,16,20001f2c <__printf_impl+0x396>
20001f1a:	5682                	c.lwsp	a3,32(sp)
20001f1c:	0046f85b          	bbc	a3,4,20001f2c <__printf_impl+0x396>
20001f20:	00f76533          	or	a0,a4,a5
20001f24:	c501                	c.beqz	a0,20001f2c <__printf_impl+0x396>
20001f26:	0166e6b3          	or	a3,a3,s6
20001f2a:	d036                	c.swsp	a3,32(sp)
20001f2c:	86b2                	c.mv	a3,a2
20001f2e:	5602                	c.lwsp	a2,32(sp)
20001f30:	1048                	c.addi4spn	a0,sp,36
20001f32:	3921                	c.jal	20001b4a <__print_integral>
20001f34:	842a                	c.mv	s0,a0
20001f36:	b7a9                	c.j	20001e80 <__printf_impl+0x2ea>
20001f38:	4605                	c.li	a2,1
20001f3a:	bff1                	c.j	20001f16 <__printf_impl+0x380>
20001f3c:	45a2                	c.lwsp	a1,8(sp)
20001f3e:	5682                	c.lwsp	a3,32(sp)
20001f40:	00440493          	addi	s1,s0,4
20001f44:	837fa7ab          	lwgp	a5,-1996 # 80034 <__printf_count>
20001f48:	4018                	c.lw	a4,0(s0)
20001f4a:	0066f85b          	bbc	a3,6,20001f5a <__printf_impl+0x3c4>
20001f4e:	00f70023          	sb	a5,0(a4)
20001f52:	1040                	c.addi4spn	s0,sp,36
20001f54:	4b81                	c.li	s7,0
20001f56:	8aa2                	c.mv	s5,s0
20001f58:	b55d                	c.j	20001dfe <__printf_impl+0x268>
20001f5a:	0076f55b          	bbc	a3,7,20001f64 <__printf_impl+0x3ce>
20001f5e:	00f71023          	sh	a5,0(a4)
20001f62:	bfc5                	c.j	20001f52 <__printf_impl+0x3bc>
20001f64:	c31c                	c.sw	a5,0(a4)
20001f66:	fe86f65b          	bbs	a3,8,20001f52 <__printf_impl+0x3bc>
20001f6a:	be96f45b          	bbc	a3,9,20001f52 <__printf_impl+0x3bc>
20001f6e:	87fd                	c.srai	a5,0x1f
20001f70:	c35c                	c.sw	a5,4(a4)
20001f72:	b7c5                	c.j	20001f52 <__printf_impl+0x3bc>
20001f74:	000dc503          	lbu	a0,0(s11)
20001f78:	0d85                	c.addi	s11,1
20001f7a:	01756533          	or	a0,a0,s7
20001f7e:	9982                	c.jalr	s3
20001f80:	41bc0d33          	sub	s10,s8,s11
20001f84:	ff9de8e3          	bltu	s11,s9,20001f74 <__printf_impl+0x3de>
20001f88:	8c56                	c.mv	s8,s5
20001f8a:	01841e63          	bne	s0,s8,20001fa6 <__printf_impl+0x410>
20001f8e:	41540433          	sub	s0,s0,s5
20001f92:	408d0433          	sub	s0,s10,s0
20001f96:	00804f63          	bgtz	s0,20001fb4 <__printf_impl+0x41e>
20001f9a:	0905                	c.addi	s2,1
20001f9c:	8426                	c.mv	s0,s1
20001f9e:	b919                	c.j	20001bb4 <__printf_impl+0x1e>
20001fa0:	8dd2                	c.mv	s11,s4
20001fa2:	9c52                	c.add	s8,s4
20001fa4:	bff1                	c.j	20001f80 <__printf_impl+0x3ea>
20001fa6:	000c4503          	lbu	a0,0(s8)
20001faa:	0c05                	c.addi	s8,1
20001fac:	01756533          	or	a0,a0,s7
20001fb0:	9982                	c.jalr	s3
20001fb2:	bfe1                	c.j	20001f8a <__printf_impl+0x3f4>
20001fb4:	02000513          	li	a0,32
20001fb8:	9982                	c.jalr	s3
20001fba:	147d                	c.addi	s0,-1
20001fbc:	bfe9                	c.j	20001f96 <__printf_impl+0x400>
20001fbe:	02000513          	li	a0,32
20001fc2:	9982                	c.jalr	s3
20001fc4:	1d7d                	c.addi	s10,-1
20001fc6:	b571                	c.j	20001e52 <__printf_impl+0x2bc>
20001fc8:	000d4503          	lbu	a0,0(s10)
20001fcc:	0d05                	c.addi	s10,1
20001fce:	01756533          	or	a0,a0,s7
20001fd2:	9982                	c.jalr	s3
20001fd4:	41ac07b3          	sub	a5,s8,s10
20001fd8:	ff9d68e3          	bltu	s10,s9,20001fc8 <__printf_impl+0x432>
20001fdc:	5682                	c.lwsp	a3,32(sp)
20001fde:	0056f65b          	bbc	a3,5,20001fea <__printf_impl+0x454>
20001fe2:	41b78db3          	sub	s11,a5,s11
20001fe6:	01b04b63          	bgtz	s11,20001ffc <__printf_impl+0x466>
20001fea:	fb5408e3          	beq	s0,s5,20001f9a <__printf_impl+0x404>
20001fee:	000ac503          	lbu	a0,0(s5)
20001ff2:	0a85                	c.addi	s5,1
20001ff4:	01756533          	or	a0,a0,s7
20001ff8:	9982                	c.jalr	s3
20001ffa:	bfc5                	c.j	20001fea <__printf_impl+0x454>
20001ffc:	03000513          	li	a0,48
20002000:	9982                	c.jalr	s3
20002002:	1dfd                	c.addi	s11,-1
20002004:	b7cd                	c.j	20001fe6 <__printf_impl+0x450>

20002006 <__int_to_poly>:
__int_to_poly():
20002006:	872a                	c.mv	a4,a0
20002008:	87ae                	c.mv	a5,a1
2000200a:	4501                	c.li	a0,0
2000200c:	00f766b3          	or	a3,a4,a5
20002010:	e291                	c.bnez	a3,20002014 <__int_to_poly+0xe>
20002012:	8082                	c.jr	ra
20002014:	00e61023          	sh	a4,0(a2)
20002018:	0505                	c.addi	a0,1
2000201a:	df07077f          	wexti	a4,a4,16
2000201e:	0609                	c.addi	a2,2
20002020:	83c1                	c.srli	a5,0x10
20002022:	b7ed                	c.j	2000200c <__int_to_poly+0x6>

20002024 <__print_integral_poly>:
__print_integral_poly():
20002024:	660002ef          	jal	t0,20002684 <__riscv_save_0>
20002028:	88c2                	c.mv	a7,a6
2000202a:	84ba                	c.mv	s1,a4
2000202c:	187d                	c.addi	a6,-1
2000202e:	0b17875b          	lea.h	a4,a5,a7
20002032:	8342                	c.mv	t1,a6
20002034:	4401                	c.li	s0,0
20002036:	8e3a                	c.mv	t3,a4
20002038:	1779                	c.addi	a4,-2
2000203a:	02035463          	bgez	t1,20002062 <__print_integral_poly+0x3e>
2000203e:	05105063          	blez	a7,2000207e <__print_integral_poly+0x5a>
20002042:	ffee5703          	lhu	a4,-2(t3)
20002046:	eb15                	c.bnez	a4,2000207a <__print_integral_poly+0x56>
20002048:	03005b63          	blez	a6,2000207e <__print_integral_poly+0x5a>
2000204c:	8726                	c.mv	a4,s1
2000204e:	16fd                	c.addi	a3,-1
20002050:	3fd1                	c.jal	20002024 <__print_integral_poly>
20002052:	87aa                	c.mv	a5,a0
20002054:	0505                	c.addi	a0,1
20002056:	00878023          	sb	s0,0(a5) # 80000000 <_DATA_LMA_START+0x5fffd7a8>
2000205a:	409c                	c.lw	a5,0(s1)
2000205c:	0785                	c.addi	a5,1
2000205e:	c09c                	c.sw	a5,0(s1)
20002060:	a5a1                	c.j	200026a8 <__riscv_restore_0>
20002062:	00075e83          	lhu	t4,0(a4)
20002066:	0442                	c.slli	s0,0x10
20002068:	9476                	c.add	s0,t4
2000206a:	02b45eb3          	divu	t4,s0,a1
2000206e:	137d                	c.addi	t1,-1
20002070:	02b47433          	remu	s0,s0,a1
20002074:	01d71023          	sh	t4,0(a4)
20002078:	b7c1                	c.j	20002038 <__print_integral_poly+0x14>
2000207a:	8846                	c.mv	a6,a7
2000207c:	bfc1                	c.j	2000204c <__print_integral_poly+0x28>
2000207e:	c011                	c.beqz	s0,20002082 <__print_integral_poly+0x5e>
20002080:	16fd                	c.addi	a3,-1
20002082:	00d04763          	bgtz	a3,20002090 <__print_integral_poly+0x6c>
20002086:	0085ee5b          	bnec	a1,8,200020a2 <__print_integral_poly+0x7e>
2000208a:	00467c5b          	bbc	a2,4,200020a2 <__print_integral_poly+0x7e>
2000208e:	4685                	c.li	a3,1
20002090:	87aa                	c.mv	a5,a0
20002092:	40a78733          	sub	a4,a5,a0
20002096:	00d74b63          	blt	a4,a3,200020ac <__print_integral_poly+0x88>
2000209a:	4781                	c.li	a5,0
2000209c:	f2f686ff          	maxw	a3,a3,a5
200020a0:	9536                	c.add	a0,a3
200020a2:	dc45                	c.beqz	s0,2000205a <__print_integral_poly+0x36>
200020a4:	00850023          	sb	s0,0(a0)
200020a8:	0505                	c.addi	a0,1
200020aa:	bf45                	c.j	2000205a <__print_integral_poly+0x36>
200020ac:	0785                	c.addi	a5,1
200020ae:	fe078fa3          	sb	zero,-1(a5)
200020b2:	b7c5                	c.j	20002092 <__print_integral_poly+0x6e>

200020b4 <__printf_float_impl>:
__printf_float_impl():
200020b4:	5a0002ef          	jal	t0,20002654 <__riscv_save_12>
200020b8:	0df7fc13          	andi	s8,a5,223
200020bc:	8b2a                	c.mv	s6,a0
200020be:	892e                	c.mv	s2,a1
200020c0:	7169                	c.addi16sp	sp,-304
200020c2:	84b2                	c.mv	s1,a2
200020c4:	8536                	c.mv	a0,a3
200020c6:	85ba                	c.mv	a1,a4
200020c8:	8a3e                	c.mv	s4,a5
200020ca:	467c6c5b          	bnec	s8,71,20002142 <__printf_float_impl+0x8e>
200020ce:	00092983          	lw	s3,0(s2)
200020d2:	0109c993          	xori	s3,s3,16
200020d6:	1049a9db          	bfoz	s3,s3,4,4
200020da:	0604da63          	bgez	s1,2000214e <__printf_float_impl+0x9a>
200020de:	4499                	c.li	s1,6
200020e0:	401c635b          	bnec	s8,65,200020e6 <__printf_float_impl+0x32>
200020e4:	44b5                	c.li	s1,13
200020e6:	dff5047f          	wexti	s0,a0,31
200020ea:	8055                	c.srli	s0,0x15
200020ec:	8aaa                	c.mv	s5,a0
200020ee:	4c05ad5b          	bfoz	s10,a1,19,0
200020f2:	0005d863          	bgez	a1,20002102 <__printf_float_impl+0x4e>
200020f6:	00092783          	lw	a5,0(s2)
200020fa:	4007e793          	ori	a5,a5,1024
200020fe:	00f92023          	sw	a5,0(s2)
20002102:	401c6a5b          	bnec	s8,65,20002116 <__printf_float_impl+0x62>
20002106:	00092783          	lw	a5,0(s2)
2000210a:	6705                	c.lui	a4,0x1
2000210c:	80070713          	addi	a4,a4,-2048 # 800 <clock_init_ram.constprop.1+0x128>
20002110:	8fd9                	c.or	a5,a4
20002112:	00f92023          	sw	a5,0(s2)
20002116:	7ff00793          	li	a5,2047
2000211a:	04f41563          	bne	s0,a5,20002164 <__printf_float_impl+0xb0>
2000211e:	00092783          	lw	a5,0(s2)
20002122:	00ad66b3          	or	a3,s10,a0
20002126:	fdf7f793          	andi	a5,a5,-33
2000212a:	00f92023          	sw	a5,0(s2)
2000212e:	c695                	c.beqz	a3,2000215a <__printf_float_impl+0xa6>
20002130:	200025b7          	lui	a1,0x20002
20002134:	74c58593          	addi	a1,a1,1868 # 2000274c <__digits+0x10>
20002138:	855a                	c.mv	a0,s6
2000213a:	2ead                	c.jal	200024b4 <strcpy>
2000213c:	050d                	c.addi	a0,3
2000213e:	6155                	c.addi16sp	sp,304
20002140:	ab81                	c.j	20002690 <__riscv_restore_12>
20002142:	4981                	c.li	s3,0
20002144:	f81c6b5b          	bnec	s8,65,200020da <__printf_float_impl+0x26>
20002148:	01f65993          	srli	s3,a2,0x1f
2000214c:	b779                	c.j	200020da <__printf_float_impl+0x26>
2000214e:	fcc1                	c.bnez	s1,200020e6 <__printf_float_impl+0x32>
20002150:	fb9c0493          	addi	s1,s8,-71
20002154:	0014b493          	seqz	s1,s1
20002158:	b779                	c.j	200020e6 <__printf_float_impl+0x32>
2000215a:	200025b7          	lui	a1,0x20002
2000215e:	75058593          	addi	a1,a1,1872 # 20002750 <__digits+0x14>
20002162:	bfd9                	c.j	20002138 <__printf_float_impl+0x84>
20002164:	e811                	c.bnez	s0,20002178 <__printf_float_impl+0xc4>
20002166:	00ad66b3          	or	a3,s10,a0
2000216a:	c0300413          	li	s0,-1021
2000216e:	18069463          	bnez	a3,200022f6 <__printf_float_impl+0x242>
20002172:	03500413          	li	s0,53
20002176:	a829                	c.j	20002190 <__printf_float_impl+0xdc>
20002178:	00100db7          	lui	s11,0x100
2000217c:	01adedb3          	or	s11,s11,s10
20002180:	c0240413          	addi	s0,s0,-1022
20002184:	03400793          	li	a5,52
20002188:	8aaa                	c.mv	s5,a0
2000218a:	8d6e                	c.mv	s10,s11
2000218c:	1687d363          	bge	a5,s0,200022f2 <__printf_float_impl+0x23e>
20002190:	fcb40413          	addi	s0,s0,-53
20002194:	00445b93          	srli	s7,s0,0x4
20002198:	001b9c93          	slli	s9,s7,0x1
2000219c:	8666                	c.mv	a2,s9
2000219e:	4581                	c.li	a1,0
200021a0:	1008                	c.addi4spn	a0,sp,32
200021a2:	2665                	c.jal	2000254a <memset>
200021a4:	883d                	c.andi	s0,15
200021a6:	1a0c                	c.addi4spn	a1,sp,304
200021a8:	9cae                	c.add	s9,a1
200021aa:	8622                	c.mv	a2,s0
200021ac:	8556                	c.mv	a0,s5
200021ae:	85ea                	c.mv	a1,s10
200021b0:	2995                	c.jal	20002624 <__ashldi3>
200021b2:	4641                	c.li	a2,16
200021b4:	eeac9823          	sh	a0,-272(s9)
200021b8:	1014                	c.addi4spn	a3,sp,32
200021ba:	0b85                	c.addi	s7,1
200021bc:	8e01                	c.sub	a2,s0
200021be:	8556                	c.mv	a0,s5
200021c0:	85ea                	c.mv	a1,s10
200021c2:	0b768cdb          	lea.h	s9,a3,s7
200021c6:	213d                	c.jal	200025f4 <__lshrdi3>
200021c8:	8666                	c.mv	a2,s9
200021ca:	3d35                	c.jal	20002006 <__int_to_poly>
200021cc:	4c81                	c.li	s9,0
200021ce:	9baa                	c.add	s7,a0
200021d0:	57fd                	c.li	a5,-1
200021d2:	ce3e                	c.swsp	a5,28(sp)
200021d4:	4429                	c.li	s0,10
200021d6:	401c635b          	bnec	s8,65,200021dc <__printf_float_impl+0x128>
200021da:	4441                	c.li	s0,16
200021dc:	885e                	c.mv	a6,s7
200021de:	101c                	c.addi4spn	a5,sp,32
200021e0:	4685                	c.li	a3,1
200021e2:	0878                	c.addi4spn	a4,sp,28
200021e4:	4601                	c.li	a2,0
200021e6:	85a2                	c.mv	a1,s0
200021e8:	855a                	c.mv	a0,s6
200021ea:	3d2d                	c.jal	20002024 <__print_integral_poly>
200021ec:	02e00793          	li	a5,46
200021f0:	00f50023          	sb	a5,0(a0)
200021f4:	001bbb93          	seqz	s7,s7
200021f8:	0dba7a13          	andi	s4,s4,219
200021fc:	00150693          	addi	a3,a0,1
20002200:	87de                	c.mv	a5,s7
20002202:	401a535b          	beqc	s4,65,20002208 <__printf_float_impl+0x154>
20002206:	4781                	c.li	a5,0
20002208:	00148713          	addi	a4,s1,1
2000220c:	973e                	c.add	a4,a5
2000220e:	fffc8893          	addi	a7,s9,-1
20002212:	001c9613          	slli	a2,s9,0x1
20002216:	112c                	c.addi4spn	a1,sp,168
20002218:	95b2                	c.add	a1,a2
2000221a:	8846                	c.mv	a6,a7
2000221c:	4781                	c.li	a5,0
2000221e:	15f9                	c.addi	a1,-2
20002220:	16085e63          	bgez	a6,2000239c <__printf_float_impl+0x2e8>
20002224:	01905863          	blez	s9,20002234 <__printf_float_impl+0x180>
20002228:	1a0c                	c.addi4spn	a1,sp,304
2000222a:	962e                	c.add	a2,a1
2000222c:	f7665603          	lhu	a2,-138(a2)
20002230:	e211                	c.bnez	a2,20002234 <__printf_float_impl+0x180>
20002232:	8cc6                	c.mv	s9,a7
20002234:	160b8d63          	beqz	s7,200023ae <__printf_float_impl+0x2fa>
20002238:	4672                	c.lwsp	a2,28(sp)
2000223a:	0017bb93          	seqz	s7,a5
2000223e:	167d                	c.addi	a2,-1
20002240:	ce32                	c.swsp	a2,28(sp)
20002242:	0685                	c.addi	a3,1
20002244:	fef68fa3          	sb	a5,-1(a3)
20002248:	f379                	c.bnez	a4,2000220e <__printf_float_impl+0x15a>
2000224a:	567c655b          	bnec	s8,71,200023b4 <__printf_float_impl+0x300>
2000224e:	47f2                	c.lwsp	a5,28(sp)
20002250:	fff48713          	addi	a4,s1,-1
20002254:	1897d263          	bge	a5,s1,200023d8 <__printf_float_impl+0x324>
20002258:	5671                	c.li	a2,-4
2000225a:	16c7cf63          	blt	a5,a2,200023d8 <__printf_float_impl+0x324>
2000225e:	40f704b3          	sub	s1,a4,a5
20002262:	04600c13          	li	s8,70
20002266:	0489                	c.addi	s1,2
20002268:	9526                	c.add	a0,s1
2000226a:	fff54683          	lbu	a3,-1(a0)
2000226e:	40145713          	srai	a4,s0,0x1
20002272:	fff50793          	addi	a5,a0,-1
20002276:	00e6a6b3          	slt	a3,a3,a4
2000227a:	0016c693          	xori	a3,a3,1
2000227e:	863e                	c.mv	a2,a5
20002280:	1acb7763          	bgeu	s6,a2,2000242e <__printf_float_impl+0x37a>
20002284:	18069363          	bnez	a3,2000240a <__printf_float_impl+0x356>
20002288:	17fd                	c.addi	a5,-1
2000228a:	00178513          	addi	a0,a5,1
2000228e:	00fb7763          	bgeu	s6,a5,2000229c <__printf_float_impl+0x1e8>
20002292:	00098563          	beqz	s3,2000229c <__printf_float_impl+0x1e8>
20002296:	0007c703          	lbu	a4,0(a5)
2000229a:	d77d                	c.beqz	a4,20002288 <__printf_float_impl+0x1d4>
2000229c:	fff54783          	lbu	a5,-1(a0)
200022a0:	00e7e7db          	bnec	a5,46,200022ae <__printf_float_impl+0x1fa>
200022a4:	00092783          	lw	a5,0(s2)
200022a8:	4047f35b          	bbs	a5,4,200022ae <__printf_float_impl+0x1fa>
200022ac:	157d                	c.addi	a0,-1
200022ae:	20002737          	lui	a4,0x20002
200022b2:	46bd                	c.li	a3,15
200022b4:	73c70713          	addi	a4,a4,1852 # 2000273c <__digits>
200022b8:	1aab6963          	bltu	s6,a0,2000246a <__printf_float_impl+0x3b6>
200022bc:	5c5c625b          	bnec	s8,69,20002480 <__printf_float_impl+0x3cc>
200022c0:	01850023          	sb	s8,0(a0)
200022c4:	4772                	c.lwsp	a4,28(sp)
200022c6:	02d00793          	li	a5,45
200022ca:	00074463          	bltz	a4,200022d2 <__printf_float_impl+0x21e>
200022ce:	02b00793          	li	a5,43
200022d2:	00f500a3          	sb	a5,1(a0)
200022d6:	47f2                	c.lwsp	a5,28(sp)
200022d8:	4689                	c.li	a3,2
200022da:	40f00733          	neg	a4,a5
200022de:	f2f7077f          	maxw	a4,a4,a5
200022e2:	41f75793          	srai	a5,a4,0x1f
200022e6:	4601                	c.li	a2,0
200022e8:	45a9                	c.li	a1,10
200022ea:	0509                	c.addi	a0,2
200022ec:	85fff0ef          	jal	ra,20001b4a <__print_integral>
200022f0:	b5b9                	c.j	2000213e <__printf_float_impl+0x8a>
200022f2:	06804263          	bgtz	s0,20002356 <__printf_float_impl+0x2a2>
200022f6:	40800433          	neg	s0,s0
200022fa:	00445b93          	srli	s7,s0,0x4
200022fe:	001b9d93          	slli	s11,s7,0x1
20002302:	866e                	c.mv	a2,s11
20002304:	4581                	c.li	a1,0
20002306:	1128                	c.addi4spn	a0,sp,168
20002308:	2489                	c.jal	2000254a <memset>
2000230a:	112c                	c.addi4spn	a1,sp,168
2000230c:	883d                	c.andi	s0,15
2000230e:	9dae                	c.add	s11,a1
20002310:	02540413          	addi	s0,s0,37
20002314:	876e                	c.mv	a4,s11
20002316:	4c81                	c.li	s9,0
20002318:	001c8793          	addi	a5,s9,1
2000231c:	8622                	c.mv	a2,s0
2000231e:	8556                	c.mv	a0,s5
20002320:	85ea                	c.mv	a1,s10
20002322:	c63a                	c.swsp	a4,12(sp)
20002324:	c43e                	c.swsp	a5,8(sp)
20002326:	24f9                	c.jal	200025f4 <__lshrdi3>
20002328:	4732                	c.lwsp	a4,12(sp)
2000232a:	1441                	c.addi	s0,-16
2000232c:	00a71023          	sh	a0,0(a4)
20002330:	47a2                	c.lwsp	a5,8(sp)
20002332:	0709                	c.addi	a4,2
20002334:	00045f63          	bgez	s0,20002352 <__printf_float_impl+0x29e>
20002338:	0afd8ddb          	lea.h	s11,s11,a5
2000233c:	40800633          	neg	a2,s0
20002340:	8556                	c.mv	a0,s5
20002342:	85ea                	c.mv	a1,s10
20002344:	0c89                	c.addi	s9,2
20002346:	2cf9                	c.jal	20002624 <__ashldi3>
20002348:	9cde                	c.add	s9,s7
2000234a:	00ad9023          	sh	a0,0(s11) # 100000 <FLASH_SIZE>
2000234e:	4b81                	c.li	s7,0
20002350:	b541                	c.j	200021d0 <__printf_float_impl+0x11c>
20002352:	8cbe                	c.mv	s9,a5
20002354:	b7d1                	c.j	20002318 <__printf_float_impl+0x264>
20002356:	03500613          	li	a2,53
2000235a:	8e01                	c.sub	a2,s0
2000235c:	85ee                	c.mv	a1,s11
2000235e:	2c59                	c.jal	200025f4 <__lshrdi3>
20002360:	1010                	c.addi4spn	a2,sp,32
20002362:	3155                	c.jal	20002006 <__int_to_poly>
20002364:	02500793          	li	a5,37
20002368:	8baa                	c.mv	s7,a0
2000236a:	40878433          	sub	s0,a5,s0
2000236e:	0a810d13          	addi	s10,sp,168
20002372:	4c81                	c.li	s9,0
20002374:	0c85                	c.addi	s9,1
20002376:	00045a63          	bgez	s0,2000238a <__printf_float_impl+0x2d6>
2000237a:	40800633          	neg	a2,s0
2000237e:	8556                	c.mv	a0,s5
20002380:	85ee                	c.mv	a1,s11
20002382:	244d                	c.jal	20002624 <__ashldi3>
20002384:	00ad1023          	sh	a0,0(s10)
20002388:	b5a1                	c.j	200021d0 <__printf_float_impl+0x11c>
2000238a:	8622                	c.mv	a2,s0
2000238c:	8556                	c.mv	a0,s5
2000238e:	85ee                	c.mv	a1,s11
20002390:	2495                	c.jal	200025f4 <__lshrdi3>
20002392:	1441                	c.addi	s0,-16
20002394:	00ad1023          	sh	a0,0(s10)
20002398:	0d09                	c.addi	s10,2
2000239a:	bfe9                	c.j	20002374 <__printf_float_impl+0x2c0>
2000239c:	0005d303          	lhu	t1,0(a1)
200023a0:	187d                	c.addi	a6,-1
200023a2:	c48317ff          	maddr32	a5,t1,s0
200023a6:	00f59023          	sh	a5,0(a1)
200023aa:	83c1                	c.srli	a5,0x10
200023ac:	bd8d                	c.j	2000221e <__printf_float_impl+0x16a>
200023ae:	177d                	c.addi	a4,-1
200023b0:	4b81                	c.li	s7,0
200023b2:	bd41                	c.j	20002242 <__printf_float_impl+0x18e>
200023b4:	8726                	c.mv	a4,s1
200023b6:	ea6c585b          	beqc	s8,70,20002266 <__printf_float_impl+0x1b2>
200023ba:	47f2                	c.lwsp	a5,28(sp)
200023bc:	001b0613          	addi	a2,s6,1
200023c0:	02f04463          	bgtz	a5,200023e8 <__printf_float_impl+0x334>
200023c4:	c785                	c.beqz	a5,200023ec <__printf_float_impl+0x338>
200023c6:	40f507b3          	sub	a5,a0,a5
200023ca:	02d7e963          	bltu	a5,a3,200023fc <__printf_float_impl+0x348>
200023ce:	001b0783          	lb	a5,1(s6)
200023d2:	00fb0023          	sb	a5,0(s6)
200023d6:	a819                	c.j	200023ec <__printf_float_impl+0x338>
200023d8:	04500c13          	li	s8,69
200023dc:	bff9                	c.j	200023ba <__printf_float_impl+0x306>
200023de:	fff50783          	lb	a5,-1(a0)
200023e2:	157d                	c.addi	a0,-1
200023e4:	00f500a3          	sb	a5,1(a0)
200023e8:	fec51be3          	bne	a0,a2,200023de <__printf_float_impl+0x32a>
200023ec:	02e00793          	li	a5,46
200023f0:	001b0513          	addi	a0,s6,1
200023f4:	00fb00a3          	sb	a5,1(s6)
200023f8:	84ba                	c.mv	s1,a4
200023fa:	b5b5                	c.j	20002266 <__printf_float_impl+0x1b2>
200023fc:	0785                	c.addi	a5,1
200023fe:	fff7c603          	lbu	a2,-1(a5)
20002402:	0505                	c.addi	a0,1
20002404:	fec50fa3          	sb	a2,-1(a0)
20002408:	b7c9                	c.j	200023ca <__printf_float_impl+0x316>
2000240a:	167d                	c.addi	a2,-1
2000240c:	00064703          	lbu	a4,0(a2)
20002410:	a6e758db          	beqc	a4,46,20002280 <__printf_float_impl+0x1cc>
20002414:	0705                	c.addi	a4,1
20002416:	0ff77713          	andi	a4,a4,255
2000241a:	00875663          	bge	a4,s0,20002426 <__printf_float_impl+0x372>
2000241e:	00e60023          	sb	a4,0(a2)
20002422:	4681                	c.li	a3,0
20002424:	bdb1                	c.j	20002280 <__printf_float_impl+0x1cc>
20002426:	8f01                	c.sub	a4,s0
20002428:	00e60023          	sb	a4,0(a2)
2000242c:	bd91                	c.j	20002280 <__printf_float_impl+0x1cc>
2000242e:	873e                	c.mv	a4,a5
20002430:	e4068ce3          	beqz	a3,20002288 <__printf_float_impl+0x1d4>
20002434:	02eb6363          	bltu	s6,a4,2000245a <__printf_float_impl+0x3a6>
20002438:	4705                	c.li	a4,1
2000243a:	00eb0023          	sb	a4,0(s6)
2000243e:	4772                	c.lwsp	a4,28(sp)
20002440:	0705                	c.addi	a4,1
20002442:	ce3a                	c.swsp	a4,28(sp)
20002444:	426c515b          	beqc	s8,70,20002466 <__printf_float_impl+0x3b2>
20002448:	001b0703          	lb	a4,1(s6)
2000244c:	00eb0123          	sb	a4,2(s6)
20002450:	02e00713          	li	a4,46
20002454:	00eb00a3          	sb	a4,1(s6)
20002458:	bd05                	c.j	20002288 <__printf_float_impl+0x1d4>
2000245a:	fff70683          	lb	a3,-1(a4)
2000245e:	177d                	c.addi	a4,-1
20002460:	00d700a3          	sb	a3,1(a4)
20002464:	bfc1                	c.j	20002434 <__printf_float_impl+0x380>
20002466:	87aa                	c.mv	a5,a0
20002468:	b505                	c.j	20002288 <__printf_float_impl+0x1d4>
2000246a:	000b4783          	lbu	a5,0(s6)
2000246e:	00f6e763          	bltu	a3,a5,2000247c <__printf_float_impl+0x3c8>
20002472:	97ba                	c.add	a5,a4
20002474:	00078783          	lb	a5,0(a5)
20002478:	00fb0023          	sb	a5,0(s6)
2000247c:	0b05                	c.addi	s6,1
2000247e:	bd2d                	c.j	200022b8 <__printf_float_impl+0x204>
20002480:	ca1c6f5b          	bnec	s8,65,2000213e <__printf_float_impl+0x8a>
20002484:	05000793          	li	a5,80
20002488:	00f50023          	sb	a5,0(a0)
2000248c:	4772                	c.lwsp	a4,28(sp)
2000248e:	02d00793          	li	a5,45
20002492:	00074463          	bltz	a4,2000249a <__printf_float_impl+0x3e6>
20002496:	02b00793          	li	a5,43
2000249a:	00f500a3          	sb	a5,1(a0)
2000249e:	47f2                	c.lwsp	a5,28(sp)
200024a0:	4685                	c.li	a3,1
200024a2:	40f00733          	neg	a4,a5
200024a6:	f2f7077f          	maxw	a4,a4,a5
200024aa:	070a                	c.slli	a4,0x2
200024ac:	41f75793          	srai	a5,a4,0x1f
200024b0:	bd1d                	c.j	200022e6 <__printf_float_impl+0x232>
	...

200024b4 <strcpy>:
strcpy():
200024b4:	00b567b3          	or	a5,a0,a1
200024b8:	8b8d                	c.andi	a5,3
200024ba:	e3ad                	c.bnez	a5,2000251c <strcpy+0x68>
200024bc:	4198                	c.lw	a4,0(a1)
200024be:	200707db          	ffb	a5,a4,zero
200024c2:	e3a9                	c.bnez	a5,20002504 <strcpy+0x50>
200024c4:	00a007b3          	add	a5,zero,a0
200024c8:	0591                	c.addi	a1,4
200024ca:	0791                	c.addi	a5,4
200024cc:	fee7ae23          	sw	a4,-4(a5)
200024d0:	4198                	c.lw	a4,0(a1)
200024d2:	200706db          	ffb	a3,a4,zero
200024d6:	daed                	c.beqz	a3,200024c8 <strcpy+0x14>
200024d8:	0005c703          	lbu	a4,0(a1)
200024dc:	0015c683          	lbu	a3,1(a1)
200024e0:	0025c603          	lbu	a2,2(a1)
200024e4:	00e78023          	sb	a4,0(a5)
200024e8:	00070863          	beqz	a4,200024f8 <strcpy+0x44>
200024ec:	00d780a3          	sb	a3,1(a5)
200024f0:	c681                	c.beqz	a3,200024f8 <strcpy+0x44>
200024f2:	00c78123          	sb	a2,2(a5)
200024f6:	e219                	c.bnez	a2,200024fc <strcpy+0x48>
200024f8:	00008067          	ret
200024fc:	000781a3          	sb	zero,3(a5)
20002500:	00008067          	ret
20002504:	0005c703          	lbu	a4,0(a1)
20002508:	87aa                	c.mv	a5,a0
2000250a:	0015c683          	lbu	a3,1(a1)
2000250e:	0025c603          	lbu	a2,2(a1)
20002512:	00e78023          	sb	a4,0(a5)
20002516:	fb79                	c.bnez	a4,200024ec <strcpy+0x38>
20002518:	fe1ff06f          	j	200024f8 <strcpy+0x44>
2000251c:	00a007b3          	add	a5,zero,a0
20002520:	0005c703          	lbu	a4,0(a1)
20002524:	0785                	c.addi	a5,1
20002526:	fee78fa3          	sb	a4,-1(a5)
2000252a:	0585                	c.addi	a1,1
2000252c:	fb75                	c.bnez	a4,20002520 <strcpy+0x6c>
2000252e:	8082                	c.jr	ra
20002530:	0001                	c.nop

20002532 <strnlen>:
strnlen():
20002532:	95aa                	c.add	a1,a0
20002534:	87aa                	c.mv	a5,a0
20002536:	00b78563          	beq	a5,a1,20002540 <strnlen+0xe>
2000253a:	0007c703          	lbu	a4,0(a5)
2000253e:	e701                	c.bnez	a4,20002546 <strnlen+0x14>
20002540:	40a78533          	sub	a0,a5,a0
20002544:	8082                	c.jr	ra
20002546:	0785                	c.addi	a5,1
20002548:	b7fd                	c.j	20002536 <strnlen+0x4>

2000254a <memset>:
memset():
2000254a:	433d                	c.li	t1,15
2000254c:	872a                	c.mv	a4,a0
2000254e:	02c37363          	bgeu	t1,a2,20002574 <memset+0x2a>
20002552:	00f77793          	andi	a5,a4,15
20002556:	e3c1                	c.bnez	a5,200025d6 <memset+0x8c>
20002558:	e5b5                	c.bnez	a1,200025c4 <memset+0x7a>
2000255a:	ff067693          	andi	a3,a2,-16
2000255e:	8a3d                	c.andi	a2,15
20002560:	96ba                	c.add	a3,a4
20002562:	c30c                	c.sw	a1,0(a4)
20002564:	c34c                	c.sw	a1,4(a4)
20002566:	c70c                	c.sw	a1,8(a4)
20002568:	c74c                	c.sw	a1,12(a4)
2000256a:	0741                	c.addi	a4,16
2000256c:	fed76be3          	bltu	a4,a3,20002562 <memset+0x18>
20002570:	e211                	c.bnez	a2,20002574 <memset+0x2a>
20002572:	8082                	c.jr	ra
20002574:	40c306b3          	sub	a3,t1,a2
20002578:	068a                	c.slli	a3,0x2
2000257a:	00000297          	auipc	t0,0x0
2000257e:	005686b3          	add	a3,a3,t0
20002582:	00c68067          	jr	12(a3)
20002586:	00b70723          	sb	a1,14(a4)
2000258a:	00b706a3          	sb	a1,13(a4)
2000258e:	00b70623          	sb	a1,12(a4)
20002592:	00b705a3          	sb	a1,11(a4)
20002596:	00b70523          	sb	a1,10(a4)
2000259a:	00b704a3          	sb	a1,9(a4)
2000259e:	00b70423          	sb	a1,8(a4)
200025a2:	00b703a3          	sb	a1,7(a4)
200025a6:	00b70323          	sb	a1,6(a4)
200025aa:	00b702a3          	sb	a1,5(a4)
200025ae:	00b70223          	sb	a1,4(a4)
200025b2:	00b701a3          	sb	a1,3(a4)
200025b6:	00b70123          	sb	a1,2(a4)
200025ba:	00b700a3          	sb	a1,1(a4)
200025be:	00b70023          	sb	a1,0(a4)
200025c2:	8082                	c.jr	ra
200025c4:	0ff5f593          	andi	a1,a1,255
200025c8:	00859693          	slli	a3,a1,0x8
200025cc:	8dd5                	c.or	a1,a3
200025ce:	01059693          	slli	a3,a1,0x10
200025d2:	8dd5                	c.or	a1,a3
200025d4:	b759                	c.j	2000255a <memset+0x10>
200025d6:	00279693          	slli	a3,a5,0x2
200025da:	00000297          	auipc	t0,0x0
200025de:	9696                	c.add	a3,t0
200025e0:	8286                	c.mv	t0,ra
200025e2:	fa8680e7          	jalr	-88(a3)
200025e6:	8096                	c.mv	ra,t0
200025e8:	17c1                	c.addi	a5,-16
200025ea:	8f1d                	c.sub	a4,a5
200025ec:	963e                	c.add	a2,a5
200025ee:	f8c373e3          	bgeu	t1,a2,20002574 <memset+0x2a>
200025f2:	b79d                	c.j	20002558 <memset+0xe>

200025f4 <__lshrdi3>:
__lshrdi3():
/cygdrive/d/Jenkins/workspace/build-system-3/source-packages/gcc-7.4.0-riscv-bsp-v5_1_0-branch/libgcc/libgcc2.c:406
200025f4:	ce11                	c.beqz	a2,20002610 <__lshrdi3+0x1c>
/cygdrive/d/Jenkins/workspace/build-system-3/source-packages/gcc-7.4.0-riscv-bsp-v5_1_0-branch/libgcc/libgcc2.c:410
200025f6:	02000793          	li	a5,32
200025fa:	8f91                	c.sub	a5,a2
/cygdrive/d/Jenkins/workspace/build-system-3/source-packages/gcc-7.4.0-riscv-bsp-v5_1_0-branch/libgcc/libgcc2.c:413
200025fc:	00f05c63          	blez	a5,20002614 <__lshrdi3+0x20>
/cygdrive/d/Jenkins/workspace/build-system-3/source-packages/gcc-7.4.0-riscv-bsp-v5_1_0-branch/libgcc/libgcc2.c:423
20002600:	00c55533          	srl	a0,a0,a2
/cygdrive/d/Jenkins/workspace/build-system-3/source-packages/gcc-7.4.0-riscv-bsp-v5_1_0-branch/libgcc/libgcc2.c:420
20002604:	00f597b3          	sll	a5,a1,a5
/cygdrive/d/Jenkins/workspace/build-system-3/source-packages/gcc-7.4.0-riscv-bsp-v5_1_0-branch/libgcc/libgcc2.c:422
20002608:	00c5d633          	srl	a2,a1,a2
/cygdrive/d/Jenkins/workspace/build-system-3/source-packages/gcc-7.4.0-riscv-bsp-v5_1_0-branch/libgcc/libgcc2.c:423
2000260c:	8d5d                	c.or	a0,a5
/cygdrive/d/Jenkins/workspace/build-system-3/source-packages/gcc-7.4.0-riscv-bsp-v5_1_0-branch/libgcc/libgcc2.c:426
2000260e:	85b2                	c.mv	a1,a2
/cygdrive/d/Jenkins/workspace/build-system-3/source-packages/gcc-7.4.0-riscv-bsp-v5_1_0-branch/libgcc/libgcc2.c:427
20002610:	00008067          	ret
/cygdrive/d/Jenkins/workspace/build-system-3/source-packages/gcc-7.4.0-riscv-bsp-v5_1_0-branch/libgcc/libgcc2.c:416
20002614:	40f00533          	neg	a0,a5
/cygdrive/d/Jenkins/workspace/build-system-3/source-packages/gcc-7.4.0-riscv-bsp-v5_1_0-branch/libgcc/libgcc2.c:415
20002618:	4601                	c.li	a2,0
/cygdrive/d/Jenkins/workspace/build-system-3/source-packages/gcc-7.4.0-riscv-bsp-v5_1_0-branch/libgcc/libgcc2.c:416
2000261a:	00a5d533          	srl	a0,a1,a0
/cygdrive/d/Jenkins/workspace/build-system-3/source-packages/gcc-7.4.0-riscv-bsp-v5_1_0-branch/libgcc/libgcc2.c:426
2000261e:	85b2                	c.mv	a1,a2
20002620:	bfc5                	c.j	20002610 <__lshrdi3+0x1c>
20002622:	0001                	c.nop

20002624 <__ashldi3>:
__ashldi3():
/cygdrive/d/Jenkins/workspace/build-system-3/source-packages/gcc-7.4.0-riscv-bsp-v5_1_0-branch/libgcc/libgcc2.c:434
20002624:	ce11                	c.beqz	a2,20002640 <__ashldi3+0x1c>
/cygdrive/d/Jenkins/workspace/build-system-3/source-packages/gcc-7.4.0-riscv-bsp-v5_1_0-branch/libgcc/libgcc2.c:438
20002626:	02000793          	li	a5,32
2000262a:	8f91                	c.sub	a5,a2
/cygdrive/d/Jenkins/workspace/build-system-3/source-packages/gcc-7.4.0-riscv-bsp-v5_1_0-branch/libgcc/libgcc2.c:441
2000262c:	00f05c63          	blez	a5,20002644 <__ashldi3+0x20>
/cygdrive/d/Jenkins/workspace/build-system-3/source-packages/gcc-7.4.0-riscv-bsp-v5_1_0-branch/libgcc/libgcc2.c:451
20002630:	00c595b3          	sll	a1,a1,a2
/cygdrive/d/Jenkins/workspace/build-system-3/source-packages/gcc-7.4.0-riscv-bsp-v5_1_0-branch/libgcc/libgcc2.c:448
20002634:	00f557b3          	srl	a5,a0,a5
/cygdrive/d/Jenkins/workspace/build-system-3/source-packages/gcc-7.4.0-riscv-bsp-v5_1_0-branch/libgcc/libgcc2.c:450
20002638:	00c51633          	sll	a2,a0,a2
/cygdrive/d/Jenkins/workspace/build-system-3/source-packages/gcc-7.4.0-riscv-bsp-v5_1_0-branch/libgcc/libgcc2.c:451
2000263c:	8ddd                	c.or	a1,a5
/cygdrive/d/Jenkins/workspace/build-system-3/source-packages/gcc-7.4.0-riscv-bsp-v5_1_0-branch/libgcc/libgcc2.c:454
2000263e:	8532                	c.mv	a0,a2
/cygdrive/d/Jenkins/workspace/build-system-3/source-packages/gcc-7.4.0-riscv-bsp-v5_1_0-branch/libgcc/libgcc2.c:455
20002640:	00008067          	ret
/cygdrive/d/Jenkins/workspace/build-system-3/source-packages/gcc-7.4.0-riscv-bsp-v5_1_0-branch/libgcc/libgcc2.c:444
20002644:	40f005b3          	neg	a1,a5
/cygdrive/d/Jenkins/workspace/build-system-3/source-packages/gcc-7.4.0-riscv-bsp-v5_1_0-branch/libgcc/libgcc2.c:443
20002648:	4601                	c.li	a2,0
/cygdrive/d/Jenkins/workspace/build-system-3/source-packages/gcc-7.4.0-riscv-bsp-v5_1_0-branch/libgcc/libgcc2.c:444
2000264a:	00b515b3          	sll	a1,a0,a1
/cygdrive/d/Jenkins/workspace/build-system-3/source-packages/gcc-7.4.0-riscv-bsp-v5_1_0-branch/libgcc/libgcc2.c:454
2000264e:	8532                	c.mv	a0,a2
20002650:	bfc5                	c.j	20002640 <__ashldi3+0x1c>
20002652:	0001                	c.nop

20002654 <__riscv_save_12>:
__riscv_save_12():
/cygdrive/d/Jenkins/workspace/build-system-3/source-packages/gcc-7.4.0-riscv-bsp-v5_1_0-branch/libgcc/config/riscv/save-restore.S:336
20002654:	7139                	c.addi16sp	sp,-64
/cygdrive/d/Jenkins/workspace/build-system-3/source-packages/gcc-7.4.0-riscv-bsp-v5_1_0-branch/libgcc/config/riscv/save-restore.S:338
20002656:	4301                	c.li	t1,0
/cygdrive/d/Jenkins/workspace/build-system-3/source-packages/gcc-7.4.0-riscv-bsp-v5_1_0-branch/libgcc/config/riscv/save-restore.S:339
20002658:	c66e                	c.swsp	s11,12(sp)
/cygdrive/d/Jenkins/workspace/build-system-3/source-packages/gcc-7.4.0-riscv-bsp-v5_1_0-branch/libgcc/config/riscv/save-restore.S:341
2000265a:	a019                	c.j	20002660 <__riscv_save_10+0x4>

2000265c <__riscv_save_10>:
__riscv_save_8():
/cygdrive/d/Jenkins/workspace/build-system-3/source-packages/gcc-7.4.0-riscv-bsp-v5_1_0-branch/libgcc/config/riscv/save-restore.S:348
2000265c:	7139                	c.addi16sp	sp,-64
/cygdrive/d/Jenkins/workspace/build-system-3/source-packages/gcc-7.4.0-riscv-bsp-v5_1_0-branch/libgcc/config/riscv/save-restore.S:350
2000265e:	5341                	c.li	t1,-16
/cygdrive/d/Jenkins/workspace/build-system-3/source-packages/gcc-7.4.0-riscv-bsp-v5_1_0-branch/libgcc/config/riscv/save-restore.S:352
20002660:	c86a                	c.swsp	s10,16(sp)
/cygdrive/d/Jenkins/workspace/build-system-3/source-packages/gcc-7.4.0-riscv-bsp-v5_1_0-branch/libgcc/config/riscv/save-restore.S:354
20002662:	ca66                	c.swsp	s9,20(sp)
/cygdrive/d/Jenkins/workspace/build-system-3/source-packages/gcc-7.4.0-riscv-bsp-v5_1_0-branch/libgcc/config/riscv/save-restore.S:356
20002664:	cc62                	c.swsp	s8,24(sp)
/cygdrive/d/Jenkins/workspace/build-system-3/source-packages/gcc-7.4.0-riscv-bsp-v5_1_0-branch/libgcc/config/riscv/save-restore.S:358
20002666:	ce5e                	c.swsp	s7,28(sp)
/cygdrive/d/Jenkins/workspace/build-system-3/source-packages/gcc-7.4.0-riscv-bsp-v5_1_0-branch/libgcc/config/riscv/save-restore.S:360
20002668:	a019                	c.j	2000266e <__riscv_save_4+0x4>

2000266a <__riscv_save_4>:
__riscv_save_7():
/cygdrive/d/Jenkins/workspace/build-system-3/source-packages/gcc-7.4.0-riscv-bsp-v5_1_0-branch/libgcc/config/riscv/save-restore.S:371
2000266a:	7139                	c.addi16sp	sp,-64
/cygdrive/d/Jenkins/workspace/build-system-3/source-packages/gcc-7.4.0-riscv-bsp-v5_1_0-branch/libgcc/config/riscv/save-restore.S:373
2000266c:	5301                	c.li	t1,-32
/cygdrive/d/Jenkins/workspace/build-system-3/source-packages/gcc-7.4.0-riscv-bsp-v5_1_0-branch/libgcc/config/riscv/save-restore.S:375
2000266e:	d05a                	c.swsp	s6,32(sp)
/cygdrive/d/Jenkins/workspace/build-system-3/source-packages/gcc-7.4.0-riscv-bsp-v5_1_0-branch/libgcc/config/riscv/save-restore.S:377
20002670:	d256                	c.swsp	s5,36(sp)
/cygdrive/d/Jenkins/workspace/build-system-3/source-packages/gcc-7.4.0-riscv-bsp-v5_1_0-branch/libgcc/config/riscv/save-restore.S:379
20002672:	d452                	c.swsp	s4,40(sp)
/cygdrive/d/Jenkins/workspace/build-system-3/source-packages/gcc-7.4.0-riscv-bsp-v5_1_0-branch/libgcc/config/riscv/save-restore.S:381
20002674:	d64e                	c.swsp	s3,44(sp)
/cygdrive/d/Jenkins/workspace/build-system-3/source-packages/gcc-7.4.0-riscv-bsp-v5_1_0-branch/libgcc/config/riscv/save-restore.S:383
20002676:	d84a                	c.swsp	s2,48(sp)
/cygdrive/d/Jenkins/workspace/build-system-3/source-packages/gcc-7.4.0-riscv-bsp-v5_1_0-branch/libgcc/config/riscv/save-restore.S:385
20002678:	da26                	c.swsp	s1,52(sp)
/cygdrive/d/Jenkins/workspace/build-system-3/source-packages/gcc-7.4.0-riscv-bsp-v5_1_0-branch/libgcc/config/riscv/save-restore.S:387
2000267a:	dc22                	c.swsp	s0,56(sp)
/cygdrive/d/Jenkins/workspace/build-system-3/source-packages/gcc-7.4.0-riscv-bsp-v5_1_0-branch/libgcc/config/riscv/save-restore.S:389
2000267c:	de06                	c.swsp	ra,60(sp)
/cygdrive/d/Jenkins/workspace/build-system-3/source-packages/gcc-7.4.0-riscv-bsp-v5_1_0-branch/libgcc/config/riscv/save-restore.S:393
2000267e:	40610133          	sub	sp,sp,t1
/cygdrive/d/Jenkins/workspace/build-system-3/source-packages/gcc-7.4.0-riscv-bsp-v5_1_0-branch/libgcc/config/riscv/save-restore.S:394
20002682:	8282                	c.jr	t0

20002684 <__riscv_save_0>:
__riscv_save_1():
/cygdrive/d/Jenkins/workspace/build-system-3/source-packages/gcc-7.4.0-riscv-bsp-v5_1_0-branch/libgcc/config/riscv/save-restore.S:404
20002684:	1141                	c.addi	sp,-16
/cygdrive/d/Jenkins/workspace/build-system-3/source-packages/gcc-7.4.0-riscv-bsp-v5_1_0-branch/libgcc/config/riscv/save-restore.S:406
20002686:	c04a                	c.swsp	s2,0(sp)
/cygdrive/d/Jenkins/workspace/build-system-3/source-packages/gcc-7.4.0-riscv-bsp-v5_1_0-branch/libgcc/config/riscv/save-restore.S:407
20002688:	c226                	c.swsp	s1,4(sp)
/cygdrive/d/Jenkins/workspace/build-system-3/source-packages/gcc-7.4.0-riscv-bsp-v5_1_0-branch/libgcc/config/riscv/save-restore.S:409
2000268a:	c422                	c.swsp	s0,8(sp)
/cygdrive/d/Jenkins/workspace/build-system-3/source-packages/gcc-7.4.0-riscv-bsp-v5_1_0-branch/libgcc/config/riscv/save-restore.S:411
2000268c:	c606                	c.swsp	ra,12(sp)
/cygdrive/d/Jenkins/workspace/build-system-3/source-packages/gcc-7.4.0-riscv-bsp-v5_1_0-branch/libgcc/config/riscv/save-restore.S:413
2000268e:	8282                	c.jr	t0

20002690 <__riscv_restore_12>:
__riscv_restore_12():
/cygdrive/d/Jenkins/workspace/build-system-3/source-packages/gcc-7.4.0-riscv-bsp-v5_1_0-branch/libgcc/config/riscv/save-restore.S:432
20002690:	4db2                	c.lwsp	s11,12(sp)
/cygdrive/d/Jenkins/workspace/build-system-3/source-packages/gcc-7.4.0-riscv-bsp-v5_1_0-branch/libgcc/config/riscv/save-restore.S:434
20002692:	0141                	c.addi	sp,16

20002694 <__riscv_restore_10>:
__riscv_restore_10():
/cygdrive/d/Jenkins/workspace/build-system-3/source-packages/gcc-7.4.0-riscv-bsp-v5_1_0-branch/libgcc/config/riscv/save-restore.S:442
20002694:	4d02                	c.lwsp	s10,0(sp)
/cygdrive/d/Jenkins/workspace/build-system-3/source-packages/gcc-7.4.0-riscv-bsp-v5_1_0-branch/libgcc/config/riscv/save-restore.S:444
20002696:	4c92                	c.lwsp	s9,4(sp)
/cygdrive/d/Jenkins/workspace/build-system-3/source-packages/gcc-7.4.0-riscv-bsp-v5_1_0-branch/libgcc/config/riscv/save-restore.S:446
20002698:	4c22                	c.lwsp	s8,8(sp)
/cygdrive/d/Jenkins/workspace/build-system-3/source-packages/gcc-7.4.0-riscv-bsp-v5_1_0-branch/libgcc/config/riscv/save-restore.S:448
2000269a:	4bb2                	c.lwsp	s7,12(sp)
/cygdrive/d/Jenkins/workspace/build-system-3/source-packages/gcc-7.4.0-riscv-bsp-v5_1_0-branch/libgcc/config/riscv/save-restore.S:450
2000269c:	0141                	c.addi	sp,16

2000269e <__riscv_restore_4>:
__riscv_restore_5():
/cygdrive/d/Jenkins/workspace/build-system-3/source-packages/gcc-7.4.0-riscv-bsp-v5_1_0-branch/libgcc/config/riscv/save-restore.S:462
2000269e:	4b02                	c.lwsp	s6,0(sp)
/cygdrive/d/Jenkins/workspace/build-system-3/source-packages/gcc-7.4.0-riscv-bsp-v5_1_0-branch/libgcc/config/riscv/save-restore.S:464
200026a0:	4a92                	c.lwsp	s5,4(sp)
/cygdrive/d/Jenkins/workspace/build-system-3/source-packages/gcc-7.4.0-riscv-bsp-v5_1_0-branch/libgcc/config/riscv/save-restore.S:466
200026a2:	4a22                	c.lwsp	s4,8(sp)
/cygdrive/d/Jenkins/workspace/build-system-3/source-packages/gcc-7.4.0-riscv-bsp-v5_1_0-branch/libgcc/config/riscv/save-restore.S:468
200026a4:	49b2                	c.lwsp	s3,12(sp)
/cygdrive/d/Jenkins/workspace/build-system-3/source-packages/gcc-7.4.0-riscv-bsp-v5_1_0-branch/libgcc/config/riscv/save-restore.S:470
200026a6:	0141                	c.addi	sp,16

200026a8 <__riscv_restore_0>:
__riscv_restore_3():
/cygdrive/d/Jenkins/workspace/build-system-3/source-packages/gcc-7.4.0-riscv-bsp-v5_1_0-branch/libgcc/config/riscv/save-restore.S:485
200026a8:	4902                	c.lwsp	s2,0(sp)
/cygdrive/d/Jenkins/workspace/build-system-3/source-packages/gcc-7.4.0-riscv-bsp-v5_1_0-branch/libgcc/config/riscv/save-restore.S:487
200026aa:	4492                	c.lwsp	s1,4(sp)
/cygdrive/d/Jenkins/workspace/build-system-3/source-packages/gcc-7.4.0-riscv-bsp-v5_1_0-branch/libgcc/config/riscv/save-restore.S:489
200026ac:	4422                	c.lwsp	s0,8(sp)
/cygdrive/d/Jenkins/workspace/build-system-3/source-packages/gcc-7.4.0-riscv-bsp-v5_1_0-branch/libgcc/config/riscv/save-restore.S:491
200026ae:	40b2                	c.lwsp	ra,12(sp)
/cygdrive/d/Jenkins/workspace/build-system-3/source-packages/gcc-7.4.0-riscv-bsp-v5_1_0-branch/libgcc/config/riscv/save-restore.S:493
200026b0:	0141                	c.addi	sp,16
/cygdrive/d/Jenkins/workspace/build-system-3/source-packages/gcc-7.4.0-riscv-bsp-v5_1_0-branch/libgcc/config/riscv/save-restore.S:495
200026b2:	8082                	c.jr	ra
