
Andes_demo_cifar10.adx:     file format elf32-littleriscv
Andes_demo_cifar10.adx
architecture: riscv:rv32, flags 0x00000112:
EXEC_P, HAS_SYMS, D_PAGED
start address 0x20000000

Program Header:
    LOAD off    0x00001000 vaddr 0x20000000 paddr 0x20000000 align 2**12
         filesz 0x0000018a memsz 0x0000018a flags r-x
    LOAD off    0x00002000 vaddr 0x00000000 paddr 0x20000190 align 2**12
         filesz 0x000001bc memsz 0x000001bc flags rwx
    LOAD off    0x00002200 vaddr 0x00000200 paddr 0x20000350 align 2**12
         filesz 0x00003478 memsz 0x00003478 flags r-x
    LOAD off    0x00006000 vaddr 0x00080000 paddr 0x200037c8 align 2**12
         filesz 0x0000909a memsz 0x0000909a flags rw-
    LOAD off    0x00010058 vaddr 0x00095058 paddr 0x2000c862 align 2**12
         filesz 0x00000022 memsz 0x00000022 flags rw-
    LOAD off    0x000100a0 vaddr 0x000890a0 paddr 0x2000c868 align 2**12
         filesz 0x00000000 memsz 0x0000bfb8 flags rw-
0x70000000 off    0x0001cd20 vaddr 0x00000000 paddr 0x00000000 align 2**0
         filesz 0x0000004c memsz 0x00000000 flags r--

Sections:
Idx Name          Size      VMA       LMA       File off  Algn
  0 .vectors      0000018a  20000000  20000000  00001000  2**2
                  CONTENTS, ALLOC, LOAD, READONLY, CODE
  1 .retention_reset 00000154  00000000  20000190  00002000  2**2
                  CONTENTS, ALLOC, LOAD, READONLY, CODE
  2 .retention_data 00000064  00000158  200002e8  00002158  2**2
                  CONTENTS, ALLOC, LOAD, DATA
  3 .ram_code     00003478  00000200  20000350  00002200  2**8
                  CONTENTS, ALLOC, LOAD, READONLY, CODE
  4 .data         0000909a  00080000  200037c8  00006000  2**2
                  CONTENTS, ALLOC, LOAD, DATA
  5 .sbss         00000028  000890a0  2000c868  000100a0  2**2
                  ALLOC
  6 .bss          0000bf90  000890c8  2000c890  000100a0  2**2
                  ALLOC
  7 .sdk_version  00000022  00095058  2000c862  00010058  2**2
                  CONTENTS, ALLOC, LOAD, DATA
  8 .debug_info   00004f56  00000000  00000000  0001007a  2**0
                  CONTENTS, READONLY, DEBUGGING
  9 .debug_abbrev 00000b77  00000000  00000000  00014fd0  2**0
                  CONTENTS, READONLY, DEBUGGING
 10 .debug_loc    0000134f  00000000  00000000  00015b47  2**0
                  CONTENTS, READONLY, DEBUGGING
 11 .debug_aranges 000001b8  00000000  00000000  00016e98  2**3
                  CONTENTS, READONLY, DEBUGGING
 12 .debug_ranges 00000770  00000000  00000000  00017050  2**3
                  CONTENTS, READONLY, DEBUGGING
 13 .debug_line   00002cd5  00000000  00000000  000177c0  2**0
                  CONTENTS, READONLY, DEBUGGING
 14 .debug_str    00002818  00000000  00000000  0001a495  2**0
                  CONTENTS, READONLY, DEBUGGING
 15 .comment      00000073  00000000  00000000  0001ccad  2**0
                  CONTENTS, READONLY
 16 .riscv.attributes 0000004c  00000000  00000000  0001cd20  2**0
                  CONTENTS, READONLY
 17 .debug_frame  00000474  00000000  00000000  0001cd6c  2**2
                  CONTENTS, READONLY, DEBUGGING
SYMBOL TABLE:
20000000 l    d  .vectors	00000000 .vectors
00000000 l    d  .retention_reset	00000000 .retention_reset
00000158 l    d  .retention_data	00000000 .retention_data
00000200 l    d  .ram_code	00000000 .ram_code
00080000 l    d  .data	00000000 .data
000890a0 l    d  .sbss	00000000 .sbss
000890c8 l    d  .bss	00000000 .bss
00095058 l    d  .sdk_version	00000000 .sdk_version
00000000 l    d  .debug_info	00000000 .debug_info
00000000 l    d  .debug_abbrev	00000000 .debug_abbrev
00000000 l    d  .debug_loc	00000000 .debug_loc
00000000 l    d  .debug_aranges	00000000 .debug_aranges
00000000 l    d  .debug_ranges	00000000 .debug_ranges
00000000 l    d  .debug_line	00000000 .debug_line
00000000 l    d  .debug_str	00000000 .debug_str
00000000 l    d  .comment	00000000 .comment
00000000 l    d  .riscv.attributes	00000000 .riscv.attributes
00000000 l    d  .debug_frame	00000000 .debug_frame
00000000 l    df *ABS*	00000000 ./boot/cstartup_flash.o
20000028 l       .vectors	00000000 _START
2000008e l       .vectors	00000000 _RETENTION_RESET_INIT
200000a6 l       .vectors	00000000 _RETENTION_RESET_BEGIN
200000b8 l       .vectors	00000000 _RETENTION_DATA_INIT
200000cc l       .vectors	00000000 _RETENTION_DATA_INIT_BEGIN
200000de l       .vectors	00000000 _RAMCODE_INIT
200000f6 l       .vectors	00000000 _RAMCODE_INIT_BEGIN
20000108 l       .vectors	00000000 _DATA_INIT
20000120 l       .vectors	00000000 _DATA_INIT_BEGIN
20000132 l       .vectors	00000000 _ZERO_BSS
20000146 l       .vectors	00000000 _ZERO_BSS_BEGIN
20000152 l       .vectors	00000000 _ZERO_AES
20000166 l       .vectors	00000000 _ZERO_AES_BEGIN
20000172 l       .vectors	00000000 _FILL_STK
20000172 l       .vectors	00000000 _MAIN_FUNC
20000188 l       .vectors	00000000 _END
00000022 l       .retention_reset	00000000 _ISTART
0000002a l       .retention_reset	00000000 _ISWS_USB_DIS
00000088 l       .retention_reset	00000000 _WAKEUP_FLASH
000000a2 l       .retention_reset	00000000 _MSPI_WAIT
000000bc l       .retention_reset	00000000 _WAIT_EFUSE_LOAD_AND_FLASH_WAKEUP_FINISH
000000c2 l       .retention_reset	00000000 _MULTI_ADDRESS_BEGIN
000000d2 l       .retention_reset	00000000 _IZERO_BSS
000000e6 l       .retention_reset	00000000 _IZERO_BSS_BEGIN
000000f2 l       .retention_reset	00000000 _IZERO_AES
00000106 l       .retention_reset	00000000 _IZERO_AES_BEGIN
00000112 l       .retention_reset	00000000 _IFILL_STK
00000112 l       .retention_reset	00000000 _IDATA_INIT
0000012a l       .retention_reset	00000000 _IDATA_INIT_BEGIN
0000013c l       .retention_reset	00000000 _IMAIN_FUNC
00000152 l       .retention_reset	00000000 _IEND
00000040 l       *ABS*	00000000 irqno
00000000 l    df *ABS*	00000000 
00000200 l     F .ram_code	00000020 delay_ms.constprop.12
0000140c l     F .ram_code	000000fc user_calib_adc_vref.constprop.9
00000220 l     F .ram_code	00000044 flash_send_addr
00000264 l     F .ram_code	00000048 flash_send_cmd
000002ac l     F .ram_code	00000060 clock_set_32k_tick
0000030c l     F .ram_code	0000004c analog_read_reg32.constprop.4
00000358 l     F .ram_code	00000024 clock_get_32k_tick
0000037c l     F .ram_code	00000090 pm_stimer_recover
0000040c l     F .ram_code	00000058 plic_exit_critical_sec
00000464 l     F .ram_code	00000060 plic_enter_critical_sec
000004c4 l     F .ram_code	00000180 flash_mspi_read_ram
00001204 l     F .ram_code	00000028 flash_read_uid.constprop.6
0000122c l     F .ram_code	00000028 flash_read_mid
00001254 l     F .ram_code	00000168 flash_read_mid_uid_with_check
00000644 l     F .ram_code	0000014c flash_mspi_read_ram.constprop.7
000013bc l     F .ram_code	00000020 flash_dread
00000790 l     F .ram_code	00000044 analog_write_reg8
000007d4 l     F .ram_code	0000004c analog_read_reg8
00000820 l     F .ram_code	00000140 clock_init_ram.constprop.11
000013dc l     F .ram_code	00000018 clock_init.constprop.10
00001508 l     F .ram_code	00000054 user_calib_freq_offset.constprop.8
00000960 l     F .ram_code	000000b4 pm_wait_bbpll_done
00000a14 l     F .ram_code	00000194 pm_sleep_start
00000ba8 l     F .ram_code	00000120 dr_putchar
00001560 l     F .ram_code	00000018 gpio_input_dis
00000cc8 l     F .ram_code	0000030c pm_sleep_wakeup_ram.constprop.3
000013f4 l     F .ram_code	00000016 pm_sleep_wakeup.constprop.2
000881fc l     O .data	00000c00 image_data
0008b054 l     O .bss	0000a000 scratch_buffer
00089d54 l     O .bss	00001300 rgb_wt_buffer
000890c8 l     O .bss	00000c80 col_buffer
00080020 l     O .data	00000960 conv1_wt
00080990 l     O .data	00003200 conv2_wt
00083bb0 l     O .data	00003200 conv3_wt
00086dbc l     O .data	00001400 ip1_wt
00089d48 l     O .bss	0000000a output_data
00080000 l     O .data	00000020 conv1_bias
00080980 l     O .data	00000010 conv2_bias
00083b90 l     O .data	00000020 conv3_bias
00086db0 l     O .data	0000000a ip1_bias
00000158 l     O .retention_data	00000004 flash_read_page
0000015c l     O .retention_data	00000001 g_pm_long_suspend
00000160 l     O .retention_data	00000029 pmcd
0000018c l     O .retention_data	00000004 g_pm_tick_32k_calib
00000190 l     O .retention_data	00000004 g_pm_tick_cur
00000194 l     O .retention_data	00000001 g_plic_preempt_en
00000198 l     O .retention_data	00000002 s_flash_preempt_config
0000019a l     O .retention_data	00000001 g_pm_suspend_power_cfg
0000019c l     O .retention_data	00000008 g_pm_early_wakeup_time_us
000001a4 l     O .retention_data	00000004 g_pm_tick_32k_cur
000001a8 l     O .retention_data	00000001 g_pm_tick_update_en
000001ac l     O .retention_data	00000004 g_pm_r_delay_cycle
000001b0 l     O .retention_data	00000008 g_pm_longsleep_early_wakeup_time_us
000881d4 l     O .data	00000028 cifar10_label
000890a0 l     O .sbss	00000004 exception_mcause
000890a4 l     O .sbss	00000004 exception_mdcause
000890a8 l     O .sbss	00000004 exception_mepc
000890ac l     O .sbss	00000004 exception_mstatus
000890b0 l     O .sbss	00000004 exception_mtval
000890b4 l     O .sbss	00000004 g_chip_version
000890b8 l     O .sbss	00000004 g_pm_status_info
00089090 l     O .data	00000001 init_flag.4915
00089094 l     O .data	00000006 sys_clk
00095058 l     O .sdk_version	00000022 sdk_version
00000000 l    df *ABS*	00000000 riscv_nn_relu_s8.c
00000000 l    df *ABS*	00000000 riscv_nn_conv_HWC_s8_s8_s8_RGB_sft_bias_fast.c
00000000 l    df *ABS*	00000000 riscv_nn_conv_HWC_s8_s8_s8_sft_bias_fast.c
00000000 l    df *ABS*	00000000 riscv_nn_fc_s8_s8_s8_sft_bias_fast.c
00000000 l    df *ABS*	00000000 riscv_nn_maxpool_HWC_s8.c
00000000 l    df *ABS*	00000000 riscv_nn_softmax_s8_fast.c
00000000 l    df *ABS*	00000000 extendsfdf2.c
00000000 l    df *ABS*	00000000 printf.c
00000000 l    df *ABS*	00000000 puts.c
00000000 l    df *ABS*	00000000 vprintf.c
00002a1a l     F .ram_code	0000003a __vprintf_help
000890bc l     O .sbss	00000004 __vprintf_buf_len
000890c0 l     O .sbss	00000004 __vprintf_buf
00000000 l    df *ABS*	00000000 printf_impl.c
00000000 l    df *ABS*	00000000 printf_impl_float.c
00000000 l    df *ABS*	00000000 strnlen.c
00000000 l    df *ABS*	00000000 libgcc2.c
00000000 l    df *ABS*	00000000 libgcc2.c
00000000 l    df *ABS*	00000000 printf_data.c
00001de0  w      .ram_code	00000000 entry_irq55
00001de0  w      .ram_code	00000000 entry_irq13
000033e8 g     F .ram_code	00000036 strcpy
00001de0  w      .ram_code	00000000 entry_irq15
000034f0 g     F .ram_code	0000002e .hidden __ashldi3
00001de0  w      .ram_code	00000000 entry_irq27
00001de0  w      .ram_code	00000000 entry_irq60
00001de0  w      .ram_code	00000000 entry_irq1
00001de0  w      .ram_code	00000000 entry_irq52
00001de0  w      .ram_code	00000000 entry_irq50
00001de0  w      .ram_code	00000000 entry_irq62
0000299c g     F .ram_code	0000001e printf
00080800 g       .data	00000000 __global_pointer$
00003528 g       .ram_code	00000000 .hidden __riscv_save_8
00001de0  w      .ram_code	00000000 entry_irq58
00003574 g       .ram_code	00000000 .hidden __riscv_restore_3
000001bc g       .retention_data	00000000 _RETENTION_DATA_VMA_END
00003560 g       .ram_code	00000000 .hidden __riscv_restore_10
00003528 g       .ram_code	00000000 .hidden __riscv_save_11
00002a9c g     F .ram_code	00000048 __print_integral
00002ae4 g     F .ram_code	00000460 __printf_impl_lite
00000000 g       .retention_reset	00000000 _RETENTION_RESET_VMA_START
00001de0  w      .ram_code	00000000 entry_irq10
00001de0  w      .ram_code	00000000 entry_irq21
00000158 g       .retention_data	00000000 _AES_VMA_START
00001de0  w      .ram_code	00000000 entry_irq48
00003574 g       .ram_code	00000000 .hidden __riscv_restore_2
00001de0  w      .ram_code	00000000 entry_irq8
00001de0  w      .ram_code	00000000 entry_irq33
00095058 g       .bss	00000000 _BSS_VMA_END
20000190 g       *ABS*	00000000 _RETENTION_RESET_LMA_START
00002ae4 g     F .ram_code	00000460 __printf_impl
00001fe8 g     F .ram_code	000001dc riscv_nn_conv_HWC_s8_s8_s8_sft_bias_fast
00001de0  w      .ram_code	00000000 entry_irq12
000029ba g     F .ram_code	00000034 puts
00001de0  w      .ram_code	00000000 entry_irq14
00003520 g       .ram_code	00000000 .hidden __riscv_save_12
00001de0  w      .ram_code	00000000 entry_irq2
00001de0  w      .ram_code	00000000 entry_irq51
00003560 g       .ram_code	00000000 .hidden __riscv_restore_11
0000253c g     F .ram_code	00000256 riscv_nn_maxpool_HWC_s8
00001de0  w      .ram_code	00000000 entry_irq28
00001de0  w      .ram_code	00000000 entry_irq43
00003550 g       .ram_code	00000000 .hidden __riscv_save_1
00003574 g       .ram_code	00000000 .hidden __riscv_restore_0
00001de0  w      .ram_code	00000000 entry_irq20
00003536 g       .ram_code	00000000 .hidden __riscv_save_7
000890a0 g       .sbss	00000000 _BSS_VMA_START
00001de0  w      .ram_code	00000000 entry_irq63
0008909a g       .data	00000000 _DATA_VMA_END
0000288c g     F .ram_code	00000110 .hidden __extendsfdf2
00001de0  w      .ram_code	00000000 entry_irq46
00001de0  w      .ram_code	00000000 entry_irq31
00001de0  w      .ram_code	00000000 entry_irq16
00100000 g       *ABS*	00000000 FLASH_SIZE
0000356a g       .ram_code	00000000 .hidden __riscv_restore_5
00080000 g       .data	00000000 _DATA_VMA_START
00001de0  w      .ram_code	00000000 entry_irq53
00001de0  w      .ram_code	00000000 entry_irq11
00000154 g       .retention_reset	00000000 _RETENTION_RESET_VMA_END
0000341e g     F .ram_code	00000018 strnlen
0000356a g       .ram_code	00000000 .hidden __riscv_restore_6
000021c4 g     F .ram_code	00000378 riscv_nn_fc_s8_s8_s8_sft_bias_fast
00001de0  w      .ram_code	00000000 entry_irq5
00001de0  w      .ram_code	00000000 entry_irq23
00001de2  w      .ram_code	00000000 trap_handler
00001de0  w      .ram_code	00000000 entry_irq34
00001de8 g     F .ram_code	0000001a riscv_nn_relu_s8
000034c0 g     F .ram_code	0000002e .hidden __lshrdi3
00001de0  w      .ram_code	00000000 entry_irq36
00003528 g       .ram_code	00000000 .hidden __riscv_save_9
00001de0  w      .ram_code	00000000 entry_irq44
00002a54 g     F .ram_code	00000048 vprintf
00001de0  w      .ram_code	00000000 entry_irq45
00001de0  w      .ram_code	00000000 entry_irq26
00003536 g       .ram_code	00000000 .hidden __riscv_save_4
00001de0  w      .ram_code	00000000 entry_irq41
00001de0  w      .ram_code	00000000 entry_irq61
20000000 g       .vectors	00000000 BIN_BEGIN
00003550 g       .ram_code	00000000 .hidden __riscv_save_3
00001de0  w      .ram_code	00000000 entry_irq38
00001100 g       .ram_code	00000000 __vectors
0000c884 g       *ABS*	00000000 BIN_SIZE
00088ff4 g     O .data	00000010 __digits
20000350 g       *ABS*	00000000 _RAMCODE_LMA_START
000890c4 g     O .sbss	00000004 __printf_count
00001de0  w      .ram_code	00000000 entry_irq59
00001de0  w      .ram_code	00000000 entry_irq6
00003528 g       .ram_code	00000000 .hidden __riscv_save_10
200037c8 g       *ABS*	00000000 _DATA_LMA_START
00002f66 g     F .ram_code	00000086 __print_integral_poly
20000000 g       *ABS*	00000000 NDS_SAG_LMA_FLASH
0000356a g       .ram_code	00000000 .hidden __riscv_restore_4
00003560 g       .ram_code	00000000 .hidden __riscv_restore_8
00003536 g       .ram_code	00000000 .hidden __riscv_save_6
20000000  w      .vectors	00000000 _RELAX_END_
00002794 g     F .ram_code	000000f6 riscv_nn_softmax_s8_fast
00003438 g     F .ram_code	00000086 memset
00002fec g     F .ram_code	000003fa __printf_float_impl
00003560 g       .ram_code	00000000 .hidden __riscv_restore_9
0000356a g       .ram_code	00000000 .hidden __riscv_restore_7
000015c4 g     F .ram_code	0000081a main
00001de0 g       .ram_code	00000000 default_irq_entry
00001de0  w      .ram_code	00000000 entry_irq3
00000fd4 g     F .ram_code	00000100 trap_entry
00000158 g       .retention_data	00000000 _AES_VMA_END
00001de0  w      .ram_code	00000000 entry_irq39
00001de0  w      .ram_code	00000000 entry_irq49
00001de0  w      .ram_code	00000000 entry_irq57
00001de0  w      .ram_code	00000000 entry_irq47
200002e8 g       *ABS*	00000000 _RETENTION_DATA_LMA_START
20000000 g     F .vectors	00000000 _RESET_ENTRY
0000299c g     F .ram_code	0000001e iprintf
00000158 g       .retention_data	00000000 _RETENTION_DATA_VMA_START
00001de0  w      .ram_code	00000000 entry_irq4
000a0000 g       *ABS*	00000000 _STACK_TOP
00001de0  w      .ram_code	00000000 entry_irq22
00001de0  w      .ram_code	00000000 entry_irq30
00001e04 g     F .ram_code	000001e2 riscv_nn_conv_HWC_s8_s8_s8_RGB_sft_bias_fast
00001de0  w      .ram_code	00000000 entry_irq42
00001de0  w      .ram_code	00000000 entry_irq24
00003550 g       .ram_code	00000000 .hidden __riscv_save_2
00003678 g       .ram_code	00000000 _RAMCODE_VMA_END
00000000  w      *ABS*	00000000 _ITB_BASE_
00003536 g       .ram_code	00000000 .hidden __riscv_save_5
00001de0  w      .ram_code	00000000 entry_irq19
0000157c g     F .ram_code	00000048 _write
00095080 g       .sdk_version	00000000 _end
00001de0  w      .ram_code	00000000 entry_irq17
00001de0  w      .ram_code	00000000 entry_irq9
00001de0  w      .ram_code	00000000 entry_irq56
00001de0  w      .ram_code	00000000 entry_irq35
00001de0  w      .ram_code	00000000 entry_irq37
000001b8 g     O .retention_data	00000004 g_pm_mspi_cfg
00001de0  w      .ram_code	00000000 entry_irq54
00001de0  w      .ram_code	00000000 entry_irq40
0000355c g       .ram_code	00000000 .hidden __riscv_restore_12
00000200 g       .ram_code	00000000 _RAMCODE_VMA_START
00003550 g       .ram_code	00000000 .hidden __riscv_save_0
000029f0 g     F .ram_code	00000028 strlen
00001de0  w      .ram_code	00000000 entry_irq29
00003574 g       .ram_code	00000000 .hidden __riscv_restore_1
00001de0  w      .ram_code	00000000 entry_irq7
00001de0  w      .ram_code	00000000 entry_irq32
00000000 g     F .retention_reset	00000000 _IRESET_ENTRY
00001de0  w      .ram_code	00000000 entry_irq18
00002a54 g     F .ram_code	00000048 viprintf
00002f44 g     F .ram_code	00000022 __int_to_poly
00001de0  w      .ram_code	00000000 entry_irq25



Disassembly of section .vectors:

20000000 <_RESET_ENTRY>:
20000000:	a025                	c.j	20000028 <_START>
	...
20000016:	0000                	unimp
20000018:	c884                	c.sw	s1,16(s1)
2000001a:	0000                	unimp
2000001c:	0000                	unimp
2000001e:	0000                	unimp
20000020:	544c4e4b          	fnmsub.h	ft8,fs8,ft4,fa0,rmm
20000024:	0000                	unimp
20000026:	          	sllw	a4,zero,zero

20000028 <_START>:
20000028:	e0080197          	auipc	gp,0xe0080
2000002c:	7d818193          	addi	gp,gp,2008 # 80800 <__global_pointer$>
20000030:	801002b7          	lui	t0,0x80100
20000034:	70028293          	addi	t0,t0,1792 # 80100700 <_DATA_LMA_START+0x600fcf38>
20000038:	04000313          	li	t1,64
2000003c:	506280a3          	sb	t1,1281(t0)
20000040:	e00a0297          	auipc	t0,0xe00a0
20000044:	fc028293          	addi	t0,t0,-64 # a0000 <_STACK_TOP>
20000048:	8116                	c.mv	sp,t0
2000004a:	e0000297          	auipc	t0,0xe0000
2000004e:	fb628293          	addi	t0,t0,-74 # 0 <_ITB_BASE_>
20000052:	80029073          	csrw	uitb,t0
20000056:	6299                	c.lui	t0,0x6
20000058:	3002a2f3          	csrrs	t0,mstatus,t0
2000005c:	00301073          	fssr	zero
20000060:	e0001297          	auipc	t0,0xe0001
20000064:	0a028293          	addi	t0,t0,160 # 1100 <__vectors>
20000068:	30529073          	csrw	mtvec,t0
2000006c:	7d016073          	csrsi	mmisc_ctl,2
20000070:	e40002b7          	lui	t0,0xe4000
20000074:	4309                	c.li	t1,2
20000076:	0062a023          	sw	t1,0(t0) # e4000000 <_DATA_LMA_START+0xc3ffc838>
2000007a:	7ca022f3          	csrr	t0,mcache_ctl
2000007e:	0012e293          	ori	t0,t0,1
20000082:	0022e293          	ori	t0,t0,2
20000086:	7ca29073          	csrw	mcache_ctl,t0
2000008a:	0000100f          	fence.i

2000008e <_RETENTION_RESET_INIT>:
2000008e:	00000317          	auipc	t1,0x0
20000092:	10230313          	addi	t1,t1,258 # 20000190 <_RETENTION_RESET_LMA_START>
20000096:	e0000397          	auipc	t2,0xe0000
2000009a:	f6a38393          	addi	t2,t2,-150 # 0 <_ITB_BASE_>
2000009e:	e0000e17          	auipc	t3,0xe0000
200000a2:	0b6e0e13          	addi	t3,t3,182 # 154 <_RETENTION_RESET_VMA_END>

200000a6 <_RETENTION_RESET_BEGIN>:
200000a6:	01c3f963          	bgeu	t2,t3,200000b8 <_RETENTION_DATA_INIT>
200000aa:	00032283          	lw	t0,0(t1)
200000ae:	0053a023          	sw	t0,0(t2)
200000b2:	0311                	c.addi	t1,4
200000b4:	0391                	c.addi	t2,4
200000b6:	bfc5                	c.j	200000a6 <_RETENTION_RESET_BEGIN>

200000b8 <_RETENTION_DATA_INIT>:
200000b8:	00000317          	auipc	t1,0x0
200000bc:	23030313          	addi	t1,t1,560 # 200002e8 <_RETENTION_DATA_LMA_START>
200000c0:	15800393          	li	t2,344
200000c4:	e0000e17          	auipc	t3,0xe0000
200000c8:	0f8e0e13          	addi	t3,t3,248 # 1bc <_RETENTION_DATA_VMA_END>

200000cc <_RETENTION_DATA_INIT_BEGIN>:
200000cc:	01c3f963          	bgeu	t2,t3,200000de <_RAMCODE_INIT>
200000d0:	00032283          	lw	t0,0(t1)
200000d4:	0053a023          	sw	t0,0(t2)
200000d8:	0311                	c.addi	t1,4
200000da:	0391                	c.addi	t2,4
200000dc:	bfc5                	c.j	200000cc <_RETENTION_DATA_INIT_BEGIN>

200000de <_RAMCODE_INIT>:
200000de:	00000317          	auipc	t1,0x0
200000e2:	27230313          	addi	t1,t1,626 # 20000350 <_RAMCODE_LMA_START>
200000e6:	e0000397          	auipc	t2,0xe0000
200000ea:	11a38393          	addi	t2,t2,282 # 200 <delay_ms.constprop.12>
200000ee:	e0003e17          	auipc	t3,0xe0003
200000f2:	58ae0e13          	addi	t3,t3,1418 # 3678 <_RAMCODE_VMA_END>

200000f6 <_RAMCODE_INIT_BEGIN>:
200000f6:	01c3f963          	bgeu	t2,t3,20000108 <_DATA_INIT>
200000fa:	00032283          	lw	t0,0(t1)
200000fe:	0053a023          	sw	t0,0(t2)
20000102:	0311                	c.addi	t1,4
20000104:	0391                	c.addi	t2,4
20000106:	bfc5                	c.j	200000f6 <_RAMCODE_INIT_BEGIN>

20000108 <_DATA_INIT>:
20000108:	00003317          	auipc	t1,0x3
2000010c:	6c030313          	addi	t1,t1,1728 # 200037c8 <_DATA_LMA_START>
20000110:	e0080397          	auipc	t2,0xe0080
20000114:	ef038393          	addi	t2,t2,-272 # 80000 <_DATA_VMA_START>
20000118:	e0089e17          	auipc	t3,0xe0089
2000011c:	f82e0e13          	addi	t3,t3,-126 # 8909a <_DATA_VMA_END>

20000120 <_DATA_INIT_BEGIN>:
20000120:	01c3f963          	bgeu	t2,t3,20000132 <_ZERO_BSS>
20000124:	00032283          	lw	t0,0(t1)
20000128:	0053a023          	sw	t0,0(t2)
2000012c:	0311                	c.addi	t1,4
2000012e:	0391                	c.addi	t2,4
20000130:	bfc5                	c.j	20000120 <_DATA_INIT_BEGIN>

20000132 <_ZERO_BSS>:
20000132:	000002b7          	lui	t0,0x0
20000136:	e0089397          	auipc	t2,0xe0089
2000013a:	f6a38393          	addi	t2,t2,-150 # 890a0 <_BSS_VMA_START>
2000013e:	e0095e17          	auipc	t3,0xe0095
20000142:	f1ae0e13          	addi	t3,t3,-230 # 95058 <_BSS_VMA_END>

20000146 <_ZERO_BSS_BEGIN>:
20000146:	01c3f663          	bgeu	t2,t3,20000152 <_ZERO_AES>
2000014a:	0053a023          	sw	t0,0(t2)
2000014e:	0391                	c.addi	t2,4
20000150:	bfdd                	c.j	20000146 <_ZERO_BSS_BEGIN>

20000152 <_ZERO_AES>:
20000152:	000002b7          	lui	t0,0x0
20000156:	e0000397          	auipc	t2,0xe0000
2000015a:	00238393          	addi	t2,t2,2 # 158 <_AES_VMA_END>
2000015e:	e0000e17          	auipc	t3,0xe0000
20000162:	ffae0e13          	addi	t3,t3,-6 # 158 <_AES_VMA_END>

20000166 <_ZERO_AES_BEGIN>:
20000166:	01c3f663          	bgeu	t2,t3,20000172 <_FILL_STK>
2000016a:	0053a023          	sw	t0,0(t2)
2000016e:	0391                	c.addi	t2,4
20000170:	bfdd                	c.j	20000166 <_ZERO_AES_BEGIN>

20000172 <_FILL_STK>:
20000172:	0001                	c.nop
20000174:	e0001297          	auipc	t0,0xe0001
20000178:	45028293          	addi	t0,t0,1104 # 15c4 <main>
2000017c:	9282                	c.jalr	t0
2000017e:	0001                	c.nop
20000180:	0001                	c.nop
20000182:	0001                	c.nop
20000184:	0001                	c.nop
20000186:	0001                	c.nop

20000188 <_END>:
20000188:	a001                	c.j	20000188 <_END>

Disassembly of section .retention_reset:

00000000 <_IRESET_ENTRY>:
   0:	a00d                	c.j	22 <_ISTART>
	...

00000022 <_ISTART>:
  22:	00080197          	auipc	gp,0x80
  26:	7de18193          	addi	gp,gp,2014 # 80800 <__global_pointer$>

0000002a <_ISWS_USB_DIS>:
  2a:	801002b7          	lui	t0,0x80100
  2e:	70028293          	addi	t0,t0,1792 # 80100700 <_DATA_LMA_START+0x600fcf38>
  32:	04000313          	li	t1,64
  36:	506280a3          	sb	t1,1281(t0)
  3a:	000a0297          	auipc	t0,0xa0
  3e:	fc628293          	addi	t0,t0,-58 # a0000 <_STACK_TOP>
  42:	8116                	c.mv	sp,t0
  44:	00000297          	auipc	t0,0x0
  48:	fbc28293          	addi	t0,t0,-68 # 0 <_IRESET_ENTRY>
  4c:	80029073          	csrw	uitb,t0
  50:	6299                	c.lui	t0,0x6
  52:	3002a2f3          	csrrs	t0,mstatus,t0
  56:	00301073          	fssr	zero
  5a:	00001297          	auipc	t0,0x1
  5e:	0a628293          	addi	t0,t0,166 # 1100 <__vectors>
  62:	30529073          	csrw	mtvec,t0
  66:	7d016073          	csrsi	mmisc_ctl,2
  6a:	e40002b7          	lui	t0,0xe4000
  6e:	4309                	c.li	t1,2
  70:	0062a023          	sw	t1,0(t0) # e4000000 <_DATA_LMA_START+0xc3ffc838>
  74:	7ca022f3          	csrr	t0,mcache_ctl
  78:	0012e293          	ori	t0,t0,1
  7c:	0022e293          	ori	t0,t0,2
  80:	7ca29073          	csrw	mcache_ctl,t0
  84:	0000100f          	fence.i

00000088 <_WAKEUP_FLASH>:
  88:	801402b7          	lui	t0,0x80140
  8c:	0ff00313          	li	t1,255
  90:	4381                	c.li	t2,0
  92:	0ab00e13          	li	t3,171
  96:	326284a3          	sb	t1,809(t0) # 80140329 <_DATA_LMA_START+0x6013cb61>
  9a:	107280a3          	sb	t2,257(t0)
  9e:	11c28023          	sb	t3,256(t0)

000000a2 <_MSPI_WAIT>:
  a2:	801402b7          	lui	t0,0x80140
  a6:	10228383          	lb	t2,258(t0) # 80140102 <_DATA_LMA_START+0x6013c93a>
  aa:	4e05                	c.li	t3,1
  ac:	4ec1                	c.li	t4,16
  ae:	fe7e0ae3          	beq	t3,t2,a2 <_MSPI_WAIT>
  b2:	11d280a3          	sb	t4,257(t0)
  b6:	4281                	c.li	t0,0
  b8:	14000313          	li	t1,320

000000bc <_WAIT_EFUSE_LOAD_AND_FLASH_WAKEUP_FINISH>:
  bc:	0285                	c.addi	t0,1
  be:	fe537fe3          	bgeu	t1,t0,bc <_WAIT_EFUSE_LOAD_AND_FLASH_WAKEUP_FINISH>

000000c2 <_MULTI_ADDRESS_BEGIN>:
  c2:	801402b7          	lui	t0,0x80140
  c6:	1b800313          	li	t1,440
  ca:	00032383          	lw	t2,0(t1)
  ce:	1072a223          	sw	t2,260(t0) # 80140104 <_DATA_LMA_START+0x6013c93c>

000000d2 <_IZERO_BSS>:
  d2:	000002b7          	lui	t0,0x0
  d6:	00089397          	auipc	t2,0x89
  da:	fca38393          	addi	t2,t2,-54 # 890a0 <_BSS_VMA_START>
  de:	00095e17          	auipc	t3,0x95
  e2:	f7ae0e13          	addi	t3,t3,-134 # 95058 <_BSS_VMA_END>

000000e6 <_IZERO_BSS_BEGIN>:
  e6:	01c3f663          	bgeu	t2,t3,f2 <_IZERO_AES>
  ea:	0053a023          	sw	t0,0(t2)
  ee:	0391                	c.addi	t2,4
  f0:	bfdd                	c.j	e6 <_IZERO_BSS_BEGIN>

000000f2 <_IZERO_AES>:
  f2:	000002b7          	lui	t0,0x0
  f6:	00000397          	auipc	t2,0x0
  fa:	06238393          	addi	t2,t2,98 # 158 <_AES_VMA_END>
  fe:	00000e17          	auipc	t3,0x0
 102:	05ae0e13          	addi	t3,t3,90 # 158 <_AES_VMA_END>

00000106 <_IZERO_AES_BEGIN>:
 106:	01c3f663          	bgeu	t2,t3,112 <_IDATA_INIT>
 10a:	0053a023          	sw	t0,0(t2)
 10e:	0391                	c.addi	t2,4
 110:	bfdd                	c.j	106 <_IZERO_AES_BEGIN>

00000112 <_IDATA_INIT>:
 112:	20003317          	auipc	t1,0x20003
 116:	6b630313          	addi	t1,t1,1718 # 200037c8 <_DATA_LMA_START>
 11a:	00080397          	auipc	t2,0x80
 11e:	ee638393          	addi	t2,t2,-282 # 80000 <_DATA_VMA_START>
 122:	00089e17          	auipc	t3,0x89
 126:	f78e0e13          	addi	t3,t3,-136 # 8909a <_DATA_VMA_END>

0000012a <_IDATA_INIT_BEGIN>:
 12a:	01c3f963          	bgeu	t2,t3,13c <_IMAIN_FUNC>
 12e:	00032283          	lw	t0,0(t1)
 132:	0053a023          	sw	t0,0(t2)
 136:	0311                	c.addi	t1,4
 138:	0391                	c.addi	t2,4
 13a:	bfc5                	c.j	12a <_IDATA_INIT_BEGIN>

0000013c <_IMAIN_FUNC>:
 13c:	0001                	c.nop
 13e:	00001297          	auipc	t0,0x1
 142:	48628293          	addi	t0,t0,1158 # 15c4 <main>
 146:	9282                	c.jalr	t0
 148:	0001                	c.nop
 14a:	0001                	c.nop
 14c:	0001                	c.nop
 14e:	0001                	c.nop
 150:	0001                	c.nop

00000152 <_IEND>:
 152:	a001                	c.j	152 <_IEND>

Disassembly of section .ram_code:

00000200 <delay_ms.constprop.12>:
     200:	801407b7          	lui	a5,0x80140
     204:	0004e737          	lui	a4,0x4e
     208:	2007a603          	lw	a2,512(a5) # 80140200 <_DATA_LMA_START+0x6013ca38>
     20c:	801406b7          	lui	a3,0x80140
     210:	20070713          	addi	a4,a4,512 # 4e200 <BIN_SIZE+0x4197c>
     214:	2006a783          	lw	a5,512(a3) # 80140200 <_DATA_LMA_START+0x6013ca38>
     218:	8f91                	c.sub	a5,a2
     21a:	fef77de3          	bgeu	a4,a5,214 <delay_ms.constprop.12+0x14>
     21e:	8082                	c.jr	ra

00000220 <flash_send_addr>:
     220:	5d05275b          	bfoz	a4,a0,23,16
     224:	801407b7          	lui	a5,0x80140
     228:	801406b7          	lui	a3,0x80140
     22c:	10e78023          	sb	a4,256(a5) # 80140100 <_DATA_LMA_START+0x6013c938>
     230:	10268783          	lb	a5,258(a3) # 80140102 <_DATA_LMA_START+0x6013c93a>
     234:	fe07fe5b          	bbs	a5,0,230 <flash_send_addr+0x10>
     238:	3c8527db          	bfoz	a5,a0,15,8
     23c:	80140737          	lui	a4,0x80140
     240:	10f68023          	sb	a5,256(a3)
     244:	10270783          	lb	a5,258(a4) # 80140102 <_DATA_LMA_START+0x6013c93a>
     248:	fe07fe5b          	bbs	a5,0,244 <flash_send_addr+0x24>
     24c:	0ff57513          	andi	a0,a0,255
     250:	801406b7          	lui	a3,0x80140
     254:	10a70023          	sb	a0,256(a4)
     258:	10268783          	lb	a5,258(a3) # 80140102 <_DATA_LMA_START+0x6013c93a>
     25c:	fe07fe5b          	bbs	a5,0,258 <flash_send_addr+0x38>
     260:	00008067          	ret

00000264 <flash_send_cmd>:
     264:	801407b7          	lui	a5,0x80140
     268:	10178703          	lb	a4,257(a5) # 80140101 <_DATA_LMA_START+0x6013c939>
     26c:	0ff77713          	andi	a4,a4,255
     270:	01076713          	ori	a4,a4,16
     274:	10e780a3          	sb	a4,257(a5)
     278:	0001                	c.nop
     27a:	0001                	c.nop
     27c:	0001                	c.nop
     27e:	0001                	c.nop
     280:	0001                	c.nop
     282:	0001                	c.nop
     284:	0001                	c.nop
     286:	0001                	c.nop
     288:	0001                	c.nop
     28a:	0001                	c.nop
     28c:	10178683          	lb	a3,257(a5)
     290:	80140737          	lui	a4,0x80140
     294:	0ef6f693          	andi	a3,a3,239
     298:	10d780a3          	sb	a3,257(a5)
     29c:	10a78023          	sb	a0,256(a5)
     2a0:	10270783          	lb	a5,258(a4) # 80140102 <_DATA_LMA_START+0x6013c93a>
     2a4:	fe07fe5b          	bbs	a5,0,2a0 <flash_send_cmd+0x3c>
     2a8:	00008067          	ret

000002ac <clock_set_32k_tick>:
     2ac:	801406b7          	lui	a3,0x80140
     2b0:	20a68783          	lb	a5,522(a3) # 8014020a <_DATA_LMA_START+0x6013ca42>
     2b4:	80140737          	lui	a4,0x80140
     2b8:	0ff7f793          	andi	a5,a5,255
     2bc:	0017e793          	ori	a5,a5,1
     2c0:	20f68523          	sb	a5,522(a3)
     2c4:	20b70683          	lb	a3,523(a4) # 8014020b <_DATA_LMA_START+0x6013ca43>
     2c8:	20b70793          	addi	a5,a4,523
     2cc:	fe66fc5b          	bbs	a3,6,2c4 <clock_set_32k_tick+0x18>
     2d0:	20a72623          	sw	a0,524(a4)
     2d4:	4721                	c.li	a4,8
     2d6:	00e78023          	sb	a4,0(a5)
     2da:	0001                	c.nop
     2dc:	0001                	c.nop
     2de:	0001                	c.nop
     2e0:	0001                	c.nop
     2e2:	0001                	c.nop
     2e4:	0001                	c.nop
     2e6:	0001                	c.nop
     2e8:	0001                	c.nop
     2ea:	0001                	c.nop
     2ec:	0001                	c.nop
     2ee:	0001                	c.nop
     2f0:	0001                	c.nop
     2f2:	0001                	c.nop
     2f4:	0001                	c.nop
     2f6:	0001                	c.nop
     2f8:	00000013          	nop
     2fc:	801407b7          	lui	a5,0x80140
     300:	20b78703          	lb	a4,523(a5) # 8014020b <_DATA_LMA_START+0x6013ca43>
     304:	fe377e5b          	bbs	a4,3,300 <clock_set_32k_tick+0x54>
     308:	00008067          	ret

0000030c <analog_read_reg32.constprop.4>:
     30c:	300027f3          	csrr	a5,mstatus
     310:	8ba1                	c.andi	a5,8
     312:	c789                	c.beqz	a5,31c <analog_read_reg32.constprop.4+0x10>
     314:	30047773          	csrrci	a4,mstatus,8
     318:	0ff0000f          	fence
     31c:	80140737          	lui	a4,0x80140
     320:	00400693          	li	a3,4
     324:	18d701a3          	sb	a3,387(a4) # 80140183 <_DATA_LMA_START+0x6013c9bb>
     328:	06000693          	li	a3,96
     32c:	18d70023          	sb	a3,384(a4)
     330:	04000613          	li	a2,64
     334:	801406b7          	lui	a3,0x80140
     338:	18c70123          	sb	a2,386(a4)
     33c:	18268703          	lb	a4,386(a3) # 80140182 <_DATA_LMA_START+0x6013c9ba>
     340:	fe777e5b          	bbs	a4,7,33c <analog_read_reg32.constprop.4+0x30>
     344:	1846a503          	lw	a0,388(a3)
     348:	00078663          	beqz	a5,354 <analog_read_reg32.constprop.4+0x48>
     34c:	3007a7f3          	csrrs	a5,mstatus,a5
     350:	0ff0000f          	fence
     354:	00008067          	ret

00000358 <clock_get_32k_tick>:
     358:	1141                	c.addi	sp,-16
     35a:	c422                	c.swsp	s0,8(sp)
     35c:	c606                	c.swsp	ra,12(sp)
     35e:	377d                	c.jal	30c <analog_read_reg32.constprop.4>
     360:	00a00433          	add	s0,zero,a0
     364:	fa9ff0ef          	jal	ra,30c <analog_read_reg32.constprop.4>
     368:	40850733          	sub	a4,a0,s0
     36c:	842a                	c.mv	s0,a0
     36e:	be176b5b          	bnec	a4,1,364 <clock_get_32k_tick+0xc>
     372:	40b2                	c.lwsp	ra,12(sp)
     374:	4422                	c.lwsp	s0,8(sp)
     376:	0141                	c.addi	sp,16
     378:	00008067          	ret

0000037c <pm_stimer_recover>:
     37c:	1141                	c.addi	sp,-16
     37e:	80140737          	lui	a4,0x80140
     382:	c606                	c.swsp	ra,12(sp)
     384:	4789                	c.li	a5,2
     386:	20f70c23          	sb	a5,536(a4) # 80140218 <_DATA_LMA_START+0x6013ca50>
     38a:	20a70783          	lb	a5,522(a4)
     38e:	0ff7f793          	andi	a5,a5,255
     392:	00c7e793          	ori	a5,a5,12
     396:	20f70523          	sb	a5,522(a4)
     39a:	3f7d                	c.jal	358 <clock_get_32k_tick>
     39c:	00000737          	lui	a4,0x0
     3a0:	15870793          	addi	a5,a4,344 # 158 <_AES_VMA_END>
     3a4:	0047c783          	lbu	a5,4(a5)
     3a8:	15870713          	addi	a4,a4,344
     3ac:	cf81                	c.beqz	a5,3c4 <pm_stimer_recover+0x48>
     3ae:	4754                	c.lw	a3,12(a4)
     3b0:	5b50                	c.lw	a2,52(a4)
     3b2:	40d506b3          	sub	a3,a0,a3
     3b6:	471c                	c.lw	a5,8(a4)
     3b8:	0685                	c.addi	a3,1
     3ba:	8295                	c.srli	a3,0x5
     3bc:	c4c697ff          	maddr32	a5,a3,a2
     3c0:	0180006f          	j	3d8 <pm_stimer_recover+0x5c>
     3c4:	475c                	c.lw	a5,12(a4)
     3c6:	5b54                	c.lw	a3,52(a4)
     3c8:	40f507b3          	sub	a5,a0,a5
     3cc:	0785                	c.addi	a5,1
     3ce:	02d787b3          	mul	a5,a5,a3
     3d2:	4714                	c.lw	a3,8(a4)
     3d4:	8395                	c.srli	a5,0x5
     3d6:	97b6                	c.add	a5,a3
     3d8:	4754                	c.lw	a3,12(a4)
     3da:	00150593          	addi	a1,a0,1
     3de:	8d15                	c.sub	a0,a3
     3e0:	0505                	c.addi	a0,1
     3e2:	00178613          	addi	a2,a5,1
     3e6:	df1c                	c.sw	a5,56(a4)
     3e8:	d34c                	c.sw	a1,36(a4)
     3ea:	d308                	c.sw	a0,32(a4)
     3ec:	801407b7          	lui	a5,0x80140
     3f0:	801406b7          	lui	a3,0x80140
     3f4:	20c7a023          	sw	a2,512(a5) # 80140200 <_DATA_LMA_START+0x6013ca38>
     3f8:	20b68783          	lb	a5,523(a3) # 8014020b <_DATA_LMA_START+0x6013ca43>
     3fc:	be77fe5b          	bbc	a5,7,3f8 <pm_stimer_recover+0x7c>
     400:	20068c23          	sb	zero,536(a3)
     404:	40b2                	c.lwsp	ra,12(sp)
     406:	0141                	c.addi	sp,16
     408:	00008067          	ret

0000040c <plic_exit_critical_sec>:
     40c:	000007b7          	lui	a5,0x0
     410:	15878793          	addi	a5,a5,344 # 158 <_AES_VMA_END>
     414:	03c78783          	lb	a5,60(a5)
     418:	0ff7f793          	andi	a5,a5,255
     41c:	c795                	c.beqz	a5,448 <plic_exit_critical_sec+0x3c>
     41e:	c50d                	c.beqz	a0,448 <plic_exit_critical_sec+0x3c>
     420:	300027f3          	csrr	a5,mstatus
     424:	8ba1                	c.andi	a5,8
     426:	0ff5f593          	andi	a1,a1,255
     42a:	c78d                	c.beqz	a5,454 <plic_exit_critical_sec+0x48>
     42c:	30047773          	csrrci	a4,mstatus,8
     430:	0ff0000f          	fence
     434:	e4200737          	lui	a4,0xe4200
     438:	c30c                	c.sw	a1,0(a4)
     43a:	0ff0000f          	fence
     43e:	3007a7f3          	csrrs	a5,mstatus,a5
     442:	0ff0000f          	fence
     446:	8082                	c.jr	ra
     448:	cd81                	c.beqz	a1,460 <plic_exit_critical_sec+0x54>
     44a:	3005a5f3          	csrrs	a1,mstatus,a1
     44e:	0ff0000f          	fence
     452:	8082                	c.jr	ra
     454:	e42007b7          	lui	a5,0xe4200
     458:	00b7a023          	sw	a1,0(a5) # e4200000 <_DATA_LMA_START+0xc41fc838>
     45c:	0ff0000f          	fence
     460:	00008067          	ret

00000464 <plic_enter_critical_sec>:
     464:	000007b7          	lui	a5,0x0
     468:	15878793          	addi	a5,a5,344 # 158 <_AES_VMA_END>
     46c:	03c78783          	lb	a5,60(a5)
     470:	0ff7f793          	andi	a5,a5,255
     474:	cb85                	c.beqz	a5,4a4 <plic_enter_critical_sec+0x40>
     476:	c51d                	c.beqz	a0,4a4 <plic_enter_critical_sec+0x40>
     478:	e4200737          	lui	a4,0xe4200
     47c:	4308                	c.lw	a0,0(a4)
     47e:	04b57163          	bgeu	a0,a1,4c0 <plic_enter_critical_sec+0x5c>
     482:	300027f3          	csrr	a5,mstatus
     486:	8ba1                	c.andi	a5,8
     488:	cb85                	c.beqz	a5,4b8 <plic_enter_critical_sec+0x54>
     48a:	300476f3          	csrrci	a3,mstatus,8
     48e:	0ff0000f          	fence
     492:	c30c                	c.sw	a1,0(a4)
     494:	0ff0000f          	fence
     498:	3007a7f3          	csrrs	a5,mstatus,a5
     49c:	0ff0000f          	fence
     4a0:	00008067          	ret
     4a4:	30002573          	csrr	a0,mstatus
     4a8:	8921                	c.andi	a0,8
     4aa:	c919                	c.beqz	a0,4c0 <plic_enter_critical_sec+0x5c>
     4ac:	300477f3          	csrrci	a5,mstatus,8
     4b0:	0ff0000f          	fence
     4b4:	00008067          	ret
     4b8:	00b72023          	sw	a1,0(a4) # e4200000 <_DATA_LMA_START+0xc41fc838>
     4bc:	0ff0000f          	fence
     4c0:	00008067          	ret

000004c4 <flash_mspi_read_ram>:
     4c4:	7179                	c.addi16sp	sp,-48
     4c6:	d226                	c.swsp	s1,36(sp)
     4c8:	000004b7          	lui	s1,0x0
     4cc:	15848493          	addi	s1,s1,344 # 158 <_AES_VMA_END>
     4d0:	d04a                	c.swsp	s2,32(sp)
     4d2:	c65e                	c.swsp	s7,12(sp)
     4d4:	892a                	c.mv	s2,a0
     4d6:	8bae                	c.mv	s7,a1
     4d8:	0404c503          	lbu	a0,64(s1)
     4dc:	0414c583          	lbu	a1,65(s1)
     4e0:	d422                	c.swsp	s0,40(sp)
     4e2:	ce4e                	c.swsp	s3,28(sp)
     4e4:	cc52                	c.swsp	s4,24(sp)
     4e6:	ca56                	c.swsp	s5,20(sp)
     4e8:	c85a                	c.swsp	s6,16(sp)
     4ea:	d606                	c.swsp	ra,44(sp)
     4ec:	8b32                	c.mv	s6,a2
     4ee:	8ab6                	c.mv	s5,a3
     4f0:	843a                	c.mv	s0,a4
     4f2:	8a3e                	c.mv	s4,a5
     4f4:	f71ff0ef          	jal	ra,464 <plic_enter_critical_sec>
     4f8:	80140637          	lui	a2,0x80140
     4fc:	00a009b3          	add	s3,zero,a0
     500:	10260783          	lb	a5,258(a2) # 80140102 <_DATA_LMA_START+0x6013c93a>
     504:	fe07fe5b          	bbs	a5,0,500 <flash_mspi_read_ram+0x3c>
     508:	10160783          	lb	a5,257(a2)
     50c:	80140737          	lui	a4,0x80140
     510:	0ff7f793          	andi	a5,a5,255
     514:	0107e793          	ori	a5,a5,16
     518:	10f600a3          	sb	a5,257(a2)
     51c:	32870783          	lb	a5,808(a4) # 80140328 <_DATA_LMA_START+0x6013cb60>
     520:	be37fe5b          	bbc	a5,3,51c <flash_mspi_read_ram+0x58>
     524:	10170783          	lb	a5,257(a4)
     528:	854a                	c.mv	a0,s2
     52a:	0fd7f793          	andi	a5,a5,253
     52e:	10f700a3          	sb	a5,257(a4)
     532:	10170783          	lb	a5,257(a4)
     536:	0f37f793          	andi	a5,a5,243
     53a:	10f700a3          	sb	a5,257(a4)
     53e:	331d                	c.jal	264 <flash_send_cmd>
     540:	0e0b1e63          	bnez	s6,63c <flash_mspi_read_ram+0x178>
     544:	020a8063          	beqz	s5,564 <flash_mspi_read_ram+0xa0>
     548:	00000713          	li	a4,0
     54c:	80140637          	lui	a2,0x80140
     550:	10060023          	sb	zero,256(a2) # 80140100 <_DATA_LMA_START+0x6013c938>
     554:	10260783          	lb	a5,258(a2)
     558:	fe07fe5b          	bbs	a5,0,554 <flash_mspi_read_ram+0x90>
     55c:	00170713          	addi	a4,a4,1
     560:	ff5718e3          	bne	a4,s5,550 <flash_mspi_read_ram+0x8c>
     564:	01b96cdb          	bnec	s2,59,57c <flash_mspi_read_ram+0xb8>
     568:	80140737          	lui	a4,0x80140
     56c:	10170783          	lb	a5,257(a4) # 80140101 <_DATA_LMA_START+0x6013c939>
     570:	0f37f793          	andi	a5,a5,243
     574:	0047e793          	ori	a5,a5,4
     578:	10f700a3          	sb	a5,257(a4)
     57c:	801406b7          	lui	a3,0x80140
     580:	10168783          	lb	a5,257(a3) # 80140101 <_DATA_LMA_START+0x6013c939>
     584:	80140737          	lui	a4,0x80140
     588:	0ff7f793          	andi	a5,a5,255
     58c:	0027e793          	ori	a5,a5,2
     590:	10f680a3          	sb	a5,257(a3)
     594:	10068023          	sb	zero,256(a3)
     598:	10270783          	lb	a5,258(a4) # 80140102 <_DATA_LMA_START+0x6013c93a>
     59c:	fe07fe5b          	bbs	a5,0,598 <flash_mspi_read_ram+0xd4>
     5a0:	10170783          	lb	a5,257(a4)
     5a4:	801406b7          	lui	a3,0x80140
     5a8:	0ff7f793          	andi	a5,a5,255
     5ac:	0017e793          	ori	a5,a5,1
     5b0:	10f700a3          	sb	a5,257(a4)
     5b4:	10268783          	lb	a5,258(a3) # 80140102 <_DATA_LMA_START+0x6013c93a>
     5b8:	fe07fe5b          	bbs	a5,0,5b4 <flash_mspi_read_ram+0xf0>
     5bc:	020a0263          	beqz	s4,5e0 <flash_mspi_read_ram+0x11c>
     5c0:	008a0a33          	add	s4,s4,s0
     5c4:	801406b7          	lui	a3,0x80140
     5c8:	10068783          	lb	a5,256(a3) # 80140100 <_DATA_LMA_START+0x6013c938>
     5cc:	00140413          	addi	s0,s0,1
     5d0:	fef40fa3          	sb	a5,-1(s0)
     5d4:	10268783          	lb	a5,258(a3)
     5d8:	fe07fe5b          	bbs	a5,0,5d4 <flash_mspi_read_ram+0x110>
     5dc:	ff4416e3          	bne	s0,s4,5c8 <flash_mspi_read_ram+0x104>
     5e0:	801407b7          	lui	a5,0x80140
     5e4:	10178703          	lb	a4,257(a5) # 80140101 <_DATA_LMA_START+0x6013c939>
     5e8:	0fe77713          	andi	a4,a4,254
     5ec:	10e780a3          	sb	a4,257(a5)
     5f0:	01b968db          	bnec	s2,59,600 <flash_mspi_read_ram+0x13c>
     5f4:	10178703          	lb	a4,257(a5)
     5f8:	0f377713          	andi	a4,a4,243
     5fc:	10e780a3          	sb	a4,257(a5)
     600:	80140737          	lui	a4,0x80140
     604:	10170783          	lb	a5,257(a4) # 80140101 <_DATA_LMA_START+0x6013c939>
     608:	0ff7f793          	andi	a5,a5,255
     60c:	0107e793          	ori	a5,a5,16
     610:	10f700a3          	sb	a5,257(a4)
     614:	0001                	c.nop
     616:	0001                	c.nop
     618:	0001                	c.nop
     61a:	0001                	c.nop
     61c:	0001                	c.nop
     61e:	5422                	c.lwsp	s0,40(sp)
     620:	0404c503          	lbu	a0,64(s1)
     624:	50b2                	c.lwsp	ra,44(sp)
     626:	5492                	c.lwsp	s1,36(sp)
     628:	5902                	c.lwsp	s2,32(sp)
     62a:	4a62                	c.lwsp	s4,24(sp)
     62c:	4ad2                	c.lwsp	s5,20(sp)
     62e:	4b42                	c.lwsp	s6,16(sp)
     630:	4bb2                	c.lwsp	s7,12(sp)
     632:	85ce                	c.mv	a1,s3
     634:	49f2                	c.lwsp	s3,28(sp)
     636:	6145                	c.addi16sp	sp,48
     638:	dd5ff06f          	j	40c <plic_exit_critical_sec>
     63c:	855e                	c.mv	a0,s7
     63e:	36cd                	c.jal	220 <flash_send_addr>
     640:	f05ff06f          	j	544 <flash_mspi_read_ram+0x80>

00000644 <flash_mspi_read_ram.constprop.7>:
     644:	1101                	c.addi	sp,-32
     646:	c64e                	c.swsp	s3,12(sp)
     648:	000009b7          	lui	s3,0x0
     64c:	15898993          	addi	s3,s3,344 # 158 <_AES_VMA_END>
     650:	cc22                	c.swsp	s0,24(sp)
     652:	c256                	c.swsp	s5,4(sp)
     654:	842e                	c.mv	s0,a1
     656:	8aaa                	c.mv	s5,a0
     658:	0419c583          	lbu	a1,65(s3)
     65c:	0409c503          	lbu	a0,64(s3)
     660:	c84a                	c.swsp	s2,16(sp)
     662:	c452                	c.swsp	s4,8(sp)
     664:	ce06                	c.swsp	ra,28(sp)
     666:	ca26                	c.swsp	s1,20(sp)
     668:	8932                	c.mv	s2,a2
     66a:	3bed                	c.jal	464 <plic_enter_critical_sec>
     66c:	80140737          	lui	a4,0x80140
     670:	00a00a33          	add	s4,zero,a0
     674:	10270783          	lb	a5,258(a4) # 80140102 <_DATA_LMA_START+0x6013c93a>
     678:	fe07fe5b          	bbs	a5,0,674 <flash_mspi_read_ram.constprop.7+0x30>
     67c:	10170783          	lb	a5,257(a4)
     680:	801404b7          	lui	s1,0x80140
     684:	0ff7f793          	andi	a5,a5,255
     688:	0107e793          	ori	a5,a5,16
     68c:	10f700a3          	sb	a5,257(a4)
     690:	32848783          	lb	a5,808(s1) # 80140328 <_DATA_LMA_START+0x6013cb60>
     694:	be37fe5b          	bbc	a5,3,690 <flash_mspi_read_ram.constprop.7+0x4c>
     698:	10148783          	lb	a5,257(s1)
     69c:	03b00513          	li	a0,59
     6a0:	0fd7f793          	andi	a5,a5,253
     6a4:	10f480a3          	sb	a5,257(s1)
     6a8:	10148783          	lb	a5,257(s1)
     6ac:	0f37f793          	andi	a5,a5,243
     6b0:	10f480a3          	sb	a5,257(s1)
     6b4:	bb1ff0ef          	jal	ra,264 <flash_send_cmd>
     6b8:	01500533          	add	a0,zero,s5
     6bc:	b65ff0ef          	jal	ra,220 <flash_send_addr>
     6c0:	80140737          	lui	a4,0x80140
     6c4:	10048023          	sb	zero,256(s1)
     6c8:	10270783          	lb	a5,258(a4) # 80140102 <_DATA_LMA_START+0x6013c93a>
     6cc:	fe07fe5b          	bbs	a5,0,6c8 <flash_mspi_read_ram.constprop.7+0x84>
     6d0:	10170783          	lb	a5,257(a4)
     6d4:	801406b7          	lui	a3,0x80140
     6d8:	0f37f793          	andi	a5,a5,243
     6dc:	0047e793          	ori	a5,a5,4
     6e0:	10f700a3          	sb	a5,257(a4)
     6e4:	10170783          	lb	a5,257(a4)
     6e8:	0ff7f793          	andi	a5,a5,255
     6ec:	0027e793          	ori	a5,a5,2
     6f0:	10f700a3          	sb	a5,257(a4)
     6f4:	10070023          	sb	zero,256(a4)
     6f8:	10268783          	lb	a5,258(a3) # 80140102 <_DATA_LMA_START+0x6013c93a>
     6fc:	fe07fe5b          	bbs	a5,0,6f8 <flash_mspi_read_ram.constprop.7+0xb4>
     700:	10168783          	lb	a5,257(a3)
     704:	80140737          	lui	a4,0x80140
     708:	0ff7f793          	andi	a5,a5,255
     70c:	0017e793          	ori	a5,a5,1
     710:	10f680a3          	sb	a5,257(a3)
     714:	10270783          	lb	a5,258(a4) # 80140102 <_DATA_LMA_START+0x6013c93a>
     718:	fe07fe5b          	bbs	a5,0,714 <flash_mspi_read_ram.constprop.7+0xd0>
     71c:	02090263          	beqz	s2,740 <flash_mspi_read_ram.constprop.7+0xfc>
     720:	01240633          	add	a2,s0,s2
     724:	80140737          	lui	a4,0x80140
     728:	10070783          	lb	a5,256(a4) # 80140100 <_DATA_LMA_START+0x6013c938>
     72c:	00140413          	addi	s0,s0,1
     730:	fef40fa3          	sb	a5,-1(s0)
     734:	10270783          	lb	a5,258(a4)
     738:	fe07fe5b          	bbs	a5,0,734 <flash_mspi_read_ram.constprop.7+0xf0>
     73c:	fec416e3          	bne	s0,a2,728 <flash_mspi_read_ram.constprop.7+0xe4>
     740:	801407b7          	lui	a5,0x80140
     744:	10178703          	lb	a4,257(a5) # 80140101 <_DATA_LMA_START+0x6013c939>
     748:	0fe77713          	andi	a4,a4,254
     74c:	10e780a3          	sb	a4,257(a5)
     750:	10178703          	lb	a4,257(a5)
     754:	0f377713          	andi	a4,a4,243
     758:	10e780a3          	sb	a4,257(a5)
     75c:	10178703          	lb	a4,257(a5)
     760:	0ff77713          	andi	a4,a4,255
     764:	01076713          	ori	a4,a4,16
     768:	10e780a3          	sb	a4,257(a5)
     76c:	0001                	c.nop
     76e:	0001                	c.nop
     770:	0001                	c.nop
     772:	0001                	c.nop
     774:	0001                	c.nop
     776:	4462                	c.lwsp	s0,24(sp)
     778:	0409c503          	lbu	a0,64(s3)
     77c:	40f2                	c.lwsp	ra,28(sp)
     77e:	44d2                	c.lwsp	s1,20(sp)
     780:	4942                	c.lwsp	s2,16(sp)
     782:	49b2                	c.lwsp	s3,12(sp)
     784:	4a92                	c.lwsp	s5,4(sp)
     786:	85d2                	c.mv	a1,s4
     788:	4a22                	c.lwsp	s4,8(sp)
     78a:	6105                	c.addi16sp	sp,32
     78c:	c81ff06f          	j	40c <plic_exit_critical_sec>

00000790 <analog_write_reg8>:
     790:	30002673          	csrr	a2,mstatus
     794:	8a21                	c.andi	a2,8
     796:	c609                	c.beqz	a2,7a0 <analog_write_reg8+0x10>
     798:	300477f3          	csrrci	a5,mstatus,8
     79c:	0ff0000f          	fence
     7a0:	80140737          	lui	a4,0x80140
     7a4:	18a70023          	sb	a0,384(a4) # 80140180 <_DATA_LMA_START+0x6013c9b8>
     7a8:	18b70223          	sb	a1,388(a4)
     7ac:	06000693          	li	a3,96
     7b0:	801407b7          	lui	a5,0x80140
     7b4:	18d70123          	sb	a3,386(a4)
     7b8:	18278703          	lb	a4,386(a5) # 80140182 <_DATA_LMA_START+0x6013c9ba>
     7bc:	fe777e5b          	bbs	a4,7,7b8 <analog_write_reg8+0x28>
     7c0:	18078123          	sb	zero,386(a5)
     7c4:	00060663          	beqz	a2,7d0 <analog_write_reg8+0x40>
     7c8:	30062673          	csrrs	a2,mstatus,a2
     7cc:	0ff0000f          	fence
     7d0:	00008067          	ret

000007d4 <analog_read_reg8>:
     7d4:	300026f3          	csrr	a3,mstatus
     7d8:	8aa1                	c.andi	a3,8
     7da:	c689                	c.beqz	a3,7e4 <analog_read_reg8+0x10>
     7dc:	300477f3          	csrrci	a5,mstatus,8
     7e0:	0ff0000f          	fence
     7e4:	801407b7          	lui	a5,0x80140
     7e8:	18a78023          	sb	a0,384(a5) # 80140180 <_DATA_LMA_START+0x6013c9b8>
     7ec:	00100713          	li	a4,1
     7f0:	18e781a3          	sb	a4,387(a5)
     7f4:	04000613          	li	a2,64
     7f8:	80140737          	lui	a4,0x80140
     7fc:	18c78123          	sb	a2,386(a5)
     800:	18270783          	lb	a5,386(a4) # 80140182 <_DATA_LMA_START+0x6013c9ba>
     804:	fe77fe5b          	bbs	a5,7,800 <analog_read_reg8+0x2c>
     808:	18470503          	lb	a0,388(a4)
     80c:	0ff57513          	andi	a0,a0,255
     810:	00068663          	beqz	a3,81c <analog_read_reg8+0x48>
     814:	3006a6f3          	csrrs	a3,mstatus,a3
     818:	0ff0000f          	fence
     81c:	00008067          	ret

00000820 <clock_init_ram.constprop.11>:
     820:	1141                	c.addi	sp,-16
     822:	80140737          	lui	a4,0x80140
     826:	c606                	c.swsp	ra,12(sp)
     828:	c422                	c.swsp	s0,8(sp)
     82a:	c226                	c.swsp	s1,4(sp)
     82c:	10270783          	lb	a5,258(a4) # 80140102 <_DATA_LMA_START+0x6013c93a>
     830:	fe07fe5b          	bbs	a5,0,82c <clock_init_ram.constprop.11+0xc>
     834:	10170783          	lb	a5,257(a4)
     838:	801404b7          	lui	s1,0x80140
     83c:	0ff7f793          	andi	a5,a5,255
     840:	0107e793          	ori	a5,a5,16
     844:	10f700a3          	sb	a5,257(a4)
     848:	32848783          	lb	a5,808(s1) # 80140328 <_DATA_LMA_START+0x6013cb60>
     84c:	be37fe5b          	bbc	a5,3,848 <clock_init_ram.constprop.11+0x28>
     850:	1e848783          	lb	a5,488(s1)
     854:	08000513          	li	a0,128
     858:	8bbd                	c.andi	a5,15
     85a:	1ef48423          	sb	a5,488(s1)
     85e:	3f9d                	c.jal	7d4 <analog_read_reg8>
     860:	0e057593          	andi	a1,a0,224
     864:	0105e593          	ori	a1,a1,16
     868:	08000513          	li	a0,128
     86c:	f25ff0ef          	jal	ra,790 <analog_write_reg8>
     870:	00900513          	li	a0,9
     874:	f61ff0ef          	jal	ra,7d4 <analog_read_reg8>
     878:	0f357593          	andi	a1,a0,243
     87c:	0085e593          	ori	a1,a1,8
     880:	4525                	c.li	a0,9
     882:	3739                	c.jal	790 <analog_write_reg8>
     884:	0c000793          	li	a5,192
     888:	0950940b          	addigp	s0,34964 # 89094 <sys_clk>
     88c:	00f41023          	sh	a5,0(s0)
     890:	08100513          	li	a0,129
     894:	4791                	c.li	a5,4
     896:	1ef48da3          	sb	a5,507(s1)
     89a:	3f2d                	c.jal	7d4 <analog_read_reg8>
     89c:	04056593          	ori	a1,a0,64
     8a0:	0ff5f593          	andi	a1,a1,255
     8a4:	08100513          	li	a0,129
     8a8:	ee9ff0ef          	jal	ra,790 <analog_write_reg8>
     8ac:	08800513          	li	a0,136
     8b0:	f25ff0ef          	jal	ra,7d4 <analog_read_reg8>
     8b4:	be557c5b          	bbc	a0,5,8ac <clock_init_ram.constprop.11+0x8c>
     8b8:	08100513          	li	a0,129
     8bc:	f19ff0ef          	jal	ra,7d4 <analog_read_reg8>
     8c0:	0bf57593          	andi	a1,a0,191
     8c4:	08100513          	li	a0,129
     8c8:	ec9ff0ef          	jal	ra,790 <analog_write_reg8>
     8cc:	801407b7          	lui	a5,0x80140
     8d0:	1e978703          	lb	a4,489(a5) # 801401e9 <_DATA_LMA_START+0x6013ca21>
     8d4:	8b3d                	c.andi	a4,15
     8d6:	04076713          	ori	a4,a4,64
     8da:	1ee784a3          	sb	a4,489(a5)
     8de:	1e878703          	lb	a4,488(a5)
     8e2:	f8076713          	ori	a4,a4,-128
     8e6:	0ff77713          	andi	a4,a4,255
     8ea:	1ee78423          	sb	a4,488(a5)
     8ee:	1e878703          	lb	a4,488(a5)
     8f2:	f8076713          	ori	a4,a4,-128
     8f6:	0ff77713          	andi	a4,a4,255
     8fa:	1ee78423          	sb	a4,488(a5)
     8fe:	1d878703          	lb	a4,472(a5)
     902:	00045683          	lhu	a3,0(s0)
     906:	0fb77713          	andi	a4,a4,251
     90a:	1ce78c23          	sb	a4,472(a5)
     90e:	1d878703          	lb	a4,472(a5)
     912:	8689                	c.srai	a3,0x2
     914:	00d402a3          	sb	a3,5(s0)
     918:	0fc77713          	andi	a4,a4,252
     91c:	1ce78c23          	sb	a4,472(a5)
     920:	1e878703          	lb	a4,488(a5)
     924:	0f077713          	andi	a4,a4,240
     928:	00876713          	ori	a4,a4,8
     92c:	1ee78423          	sb	a4,488(a5)
     930:	1e878703          	lb	a4,488(a5)
     934:	00045683          	lhu	a3,0(s0)
     938:	08f77713          	andi	a4,a4,143
     93c:	868d                	c.srai	a3,0x3
     93e:	00d40123          	sb	a3,2(s0)
     942:	02076713          	ori	a4,a4,32
     946:	1ee78423          	sb	a4,488(a5)
     94a:	0ff6f693          	andi	a3,a3,255
     94e:	00d401a3          	sb	a3,3(s0)
     952:	00d40223          	sb	a3,4(s0)
     956:	40b2                	c.lwsp	ra,12(sp)
     958:	4422                	c.lwsp	s0,8(sp)
     95a:	4492                	c.lwsp	s1,4(sp)
     95c:	0141                	c.addi	sp,16
     95e:	8082                	c.jr	ra

00000960 <pm_wait_bbpll_done>:
     960:	1101                	c.addi	sp,-32
     962:	08100513          	li	a0,129
     966:	cc22                	c.swsp	s0,24(sp)
     968:	ca26                	c.swsp	s1,20(sp)
     96a:	c84a                	c.swsp	s2,16(sp)
     96c:	ce06                	c.swsp	ra,28(sp)
     96e:	359d                	c.jal	7d4 <analog_read_reg8>
     970:	04056593          	ori	a1,a0,64
     974:	892a                	c.mv	s2,a0
     976:	0ff5f593          	andi	a1,a1,255
     97a:	08100513          	li	a0,129
     97e:	0bf97913          	andi	s2,s2,191
     982:	4481                	c.li	s1,0
     984:	4475                	c.li	s0,29
     986:	3529                	c.jal	790 <analog_write_reg8>
     988:	000107a3          	sb	zero,15(sp)
     98c:	00f10783          	lb	a5,15(sp)
     990:	0ff7f793          	andi	a5,a5,255
     994:	02f46063          	bltu	s0,a5,9b4 <pm_wait_bbpll_done+0x54>
     998:	0001                	c.nop
     99a:	00f10783          	lb	a5,15(sp)
     99e:	0785                	c.addi	a5,1
     9a0:	0ff7f793          	andi	a5,a5,255
     9a4:	00f107a3          	sb	a5,15(sp)
     9a8:	00f10783          	lb	a5,15(sp)
     9ac:	0ff7f793          	andi	a5,a5,255
     9b0:	fef474e3          	bgeu	s0,a5,998 <pm_wait_bbpll_done+0x38>
     9b4:	08800513          	li	a0,136
     9b8:	e1dff0ef          	jal	ra,7d4 <analog_read_reg8>
     9bc:	4255765b          	bbs	a0,5,9e8 <pm_wait_bbpll_done+0x88>
     9c0:	cc95                	c.beqz	s1,9fc <pm_wait_bbpll_done+0x9c>
     9c2:	0414d35b          	beqc	s1,1,a08 <pm_wait_bbpll_done+0xa8>
     9c6:	85ca                	c.mv	a1,s2
     9c8:	08100513          	li	a0,129
     9cc:	dc5ff0ef          	jal	ra,790 <analog_write_reg8>
     9d0:	0024d65b          	beqc	s1,2,9dc <pm_wait_bbpll_done+0x7c>
     9d4:	0485                	c.addi	s1,1
     9d6:	0ff4f493          	andi	s1,s1,255
     9da:	b77d                	c.j	988 <pm_wait_bbpll_done+0x28>
     9dc:	40f2                	c.lwsp	ra,28(sp)
     9de:	4462                	c.lwsp	s0,24(sp)
     9e0:	44d2                	c.lwsp	s1,20(sp)
     9e2:	4942                	c.lwsp	s2,16(sp)
     9e4:	6105                	c.addi16sp	sp,32
     9e6:	8082                	c.jr	ra
     9e8:	4462                	c.lwsp	s0,24(sp)
     9ea:	40f2                	c.lwsp	ra,28(sp)
     9ec:	44d2                	c.lwsp	s1,20(sp)
     9ee:	85ca                	c.mv	a1,s2
     9f0:	4942                	c.lwsp	s2,16(sp)
     9f2:	08100513          	li	a0,129
     9f6:	6105                	c.addi16sp	sp,32
     9f8:	d99ff06f          	j	790 <analog_write_reg8>
     9fc:	04600593          	li	a1,70
     a00:	4505                	c.li	a0,1
     a02:	3379                	c.jal	790 <analog_write_reg8>
     a04:	fd1ff06f          	j	9d4 <pm_wait_bbpll_done+0x74>
     a08:	04300593          	li	a1,67
     a0c:	4505                	c.li	a0,1
     a0e:	3349                	c.jal	790 <analog_write_reg8>
     a10:	fc5ff06f          	j	9d4 <pm_wait_bbpll_done+0x74>

00000a14 <pm_sleep_start>:
     a14:	1101                	c.addi	sp,-32
     a16:	0b50a72b          	lwgp	a4,34996 # 890b4 <g_chip_version>
     a1a:	000006b7          	lui	a3,0x0
     a1e:	ce06                	c.swsp	ra,28(sp)
     a20:	cc22                	c.swsp	s0,24(sp)
     a22:	ca26                	c.swsp	s1,20(sp)
     a24:	0ff00793          	li	a5,255
     a28:	19a6c583          	lbu	a1,410(a3) # 19a <g_pm_suspend_power_cfg>
     a2c:	00f71a63          	bne	a4,a5,a40 <pm_sleep_start+0x2c>
     a30:	0fe5f593          	andi	a1,a1,254
     a34:	07d00513          	li	a0,125
     a38:	d59ff0ef          	jal	ra,790 <analog_write_reg8>
     a3c:	00c0006f          	j	a48 <pm_sleep_start+0x34>
     a40:	07d00513          	li	a0,125
     a44:	d4dff0ef          	jal	ra,790 <analog_write_reg8>
     a48:	801406b7          	lui	a3,0x80140
     a4c:	10268783          	lb	a5,258(a3) # 80140102 <_DATA_LMA_START+0x6013c93a>
     a50:	fe07fe5b          	bbs	a5,0,a4c <pm_sleep_start+0x38>
     a54:	10168703          	lb	a4,257(a3)
     a58:	801407b7          	lui	a5,0x80140
     a5c:	0ff77713          	andi	a4,a4,255
     a60:	01076713          	ori	a4,a4,16
     a64:	10e680a3          	sb	a4,257(a3)
     a68:	32878703          	lb	a4,808(a5) # 80140328 <_DATA_LMA_START+0x6013cb60>
     a6c:	be377e5b          	bbc	a4,3,a68 <pm_sleep_start+0x54>
     a70:	10178703          	lb	a4,257(a5)
     a74:	80140437          	lui	s0,0x80140
     a78:	0fd77713          	andi	a4,a4,253
     a7c:	10e780a3          	sb	a4,257(a5)
     a80:	10178703          	lb	a4,257(a5)
     a84:	0ef77713          	andi	a4,a4,239
     a88:	10e780a3          	sb	a4,257(a5)
     a8c:	fb900713          	li	a4,-71
     a90:	10e78023          	sb	a4,256(a5)
     a94:	10240783          	lb	a5,258(s0) # 80140102 <_DATA_LMA_START+0x6013c93a>
     a98:	fe07fe5b          	bbs	a5,0,a94 <pm_sleep_start+0x80>
     a9c:	10140783          	lb	a5,257(s0)
     aa0:	452d                	c.li	a0,11
     aa2:	0ff7f793          	andi	a5,a5,255
     aa6:	0107e793          	ori	a5,a5,16
     aaa:	10f400a3          	sb	a5,257(s0)
     aae:	320404a3          	sb	zero,809(s0)
     ab2:	330d                	c.jal	7d4 <analog_read_reg8>
     ab4:	0fc57593          	andi	a1,a0,252
     ab8:	452d                	c.li	a0,11
     aba:	39d9                	c.jal	790 <analog_write_reg8>
     abc:	08100513          	li	a0,129
     ac0:	d15ff0ef          	jal	ra,7d4 <analog_read_reg8>
     ac4:	f8056593          	ori	a1,a0,-128
     ac8:	0ff5f593          	andi	a1,a1,255
     acc:	08100513          	li	a0,129
     ad0:	cc1ff0ef          	jal	ra,790 <analog_write_reg8>
     ad4:	f8000793          	li	a5,-128
     ad8:	1ef407a3          	sb	a5,495(s0)
     adc:	03f00493          	li	s1,63
     ae0:	00012423          	sw	zero,8(sp)
     ae4:	47a2                	c.lwsp	a5,8(sp)
     ae6:	00f4e763          	bltu	s1,a5,af4 <pm_sleep_start+0xe0>
     aea:	0001                	c.nop
     aec:	47a2                	c.lwsp	a5,8(sp)
     aee:	0785                	c.addi	a5,1
     af0:	c43e                	c.swsp	a5,8(sp)
     af2:	bfcd                	c.j	ae4 <pm_sleep_start+0xd0>
     af4:	08100513          	li	a0,129
     af8:	cddff0ef          	jal	ra,7d4 <analog_read_reg8>
     afc:	07f57593          	andi	a1,a0,127
     b00:	08100513          	li	a0,129
     b04:	c8dff0ef          	jal	ra,790 <analog_write_reg8>
     b08:	00b00513          	li	a0,11
     b0c:	cc9ff0ef          	jal	ra,7d4 <analog_read_reg8>
     b10:	00356593          	ori	a1,a0,3
     b14:	0ff5f593          	andi	a1,a1,255
     b18:	452d                	c.li	a0,11
     b1a:	399d                	c.jal	790 <analog_write_reg8>
     b1c:	08000593          	li	a1,128
     b20:	07d00513          	li	a0,125
     b24:	c6dff0ef          	jal	ra,790 <analog_write_reg8>
     b28:	801407b7          	lui	a5,0x80140
     b2c:	329784a3          	sb	s1,809(a5) # 80140329 <_DATA_LMA_START+0x6013cb61>
     b30:	10178683          	lb	a3,257(a5)
     b34:	80140737          	lui	a4,0x80140
     b38:	0ef6f693          	andi	a3,a3,239
     b3c:	10d780a3          	sb	a3,257(a5)
     b40:	fab00693          	li	a3,-85
     b44:	10d78023          	sb	a3,256(a5)
     b48:	10270783          	lb	a5,258(a4) # 80140102 <_DATA_LMA_START+0x6013c93a>
     b4c:	fe07fe5b          	bbs	a5,0,b48 <pm_sleep_start+0x134>
     b50:	10170783          	lb	a5,257(a4)
     b54:	12b00693          	li	a3,299
     b58:	0ff7f793          	andi	a5,a5,255
     b5c:	0107e793          	ori	a5,a5,16
     b60:	10f700a3          	sb	a5,257(a4)
     b64:	00012623          	sw	zero,12(sp)
     b68:	47b2                	c.lwsp	a5,12(sp)
     b6a:	00f6e763          	bltu	a3,a5,b78 <pm_sleep_start+0x164>
     b6e:	0001                	c.nop
     b70:	47b2                	c.lwsp	a5,12(sp)
     b72:	0785                	c.addi	a5,1
     b74:	c63e                	c.swsp	a5,12(sp)
     b76:	bfcd                	c.j	b68 <pm_sleep_start+0x154>
     b78:	08800513          	li	a0,136
     b7c:	c59ff0ef          	jal	ra,7d4 <analog_read_reg8>
     b80:	be757c5b          	bbc	a0,7,b78 <pm_sleep_start+0x164>
     b84:	08800513          	li	a0,136
     b88:	c4dff0ef          	jal	ra,7d4 <analog_read_reg8>
     b8c:	be757c5b          	bbc	a0,7,b84 <pm_sleep_start+0x170>
     b90:	08800513          	li	a0,136
     b94:	c41ff0ef          	jal	ra,7d4 <analog_read_reg8>
     b98:	be757c5b          	bbc	a0,7,b90 <pm_sleep_start+0x17c>
     b9c:	4462                	c.lwsp	s0,24(sp)
     b9e:	40f2                	c.lwsp	ra,28(sp)
     ba0:	44d2                	c.lwsp	s1,20(sp)
     ba2:	6105                	c.addi16sp	sp,32
     ba4:	dbdff06f          	j	960 <pm_wait_bbpll_done>

00000ba8 <dr_putchar>:
     ba8:	1101                	c.addi	sp,-32
     baa:	ca26                	c.swsp	s1,20(sp)
     bac:	cc22                	c.swsp	s0,24(sp)
     bae:	ce06                	c.swsp	ra,28(sp)
     bb0:	c84a                	c.swsp	s2,16(sp)
     bb2:	0910948b          	addigp	s1,34960 # 89090 <init_flag.4915>
     bb6:	842a                	c.mv	s0,a0
     bb8:	0004c783          	lbu	a5,0(s1)
     bbc:	0c17d25b          	beqc	a5,1,c80 <dr_putchar+0xd8>
     bc0:	801407b7          	lui	a5,0x80140
     bc4:	30378703          	lb	a4,771(a5) # 80140303 <_DATA_LMA_START+0x6013cb3b>
     bc8:	30378783          	lb	a5,771(a5)
     bcc:	0fe77713          	andi	a4,a4,254
     bd0:	0ff7f793          	andi	a5,a5,255
     bd4:	0017e793          	ori	a5,a5,1
     bd8:	00e10223          	sb	a4,4(sp)
     bdc:	86be                	c.mv	a3,a5
     bde:	4004735b          	bbs	s0,0,be4 <dr_putchar+0x3c>
     be2:	86ba                	c.mv	a3,a4
     be4:	00d102a3          	sb	a3,5(sp)
     be8:	86be                	c.mv	a3,a5
     bea:	4014735b          	bbs	s0,1,bf0 <dr_putchar+0x48>
     bee:	86ba                	c.mv	a3,a4
     bf0:	00d10323          	sb	a3,6(sp)
     bf4:	86be                	c.mv	a3,a5
     bf6:	4024735b          	bbs	s0,2,bfc <dr_putchar+0x54>
     bfa:	86ba                	c.mv	a3,a4
     bfc:	00d103a3          	sb	a3,7(sp)
     c00:	86be                	c.mv	a3,a5
     c02:	4034735b          	bbs	s0,3,c08 <dr_putchar+0x60>
     c06:	86ba                	c.mv	a3,a4
     c08:	00d10423          	sb	a3,8(sp)
     c0c:	86be                	c.mv	a3,a5
     c0e:	4044735b          	bbs	s0,4,c14 <dr_putchar+0x6c>
     c12:	86ba                	c.mv	a3,a4
     c14:	00d104a3          	sb	a3,9(sp)
     c18:	86be                	c.mv	a3,a5
     c1a:	4054735b          	bbs	s0,5,c20 <dr_putchar+0x78>
     c1e:	86ba                	c.mv	a3,a4
     c20:	00d10523          	sb	a3,10(sp)
     c24:	86be                	c.mv	a3,a5
     c26:	4064735b          	bbs	s0,6,c2c <dr_putchar+0x84>
     c2a:	86ba                	c.mv	a3,a4
     c2c:	00d105a3          	sb	a3,11(sp)
     c30:	801d                	c.srli	s0,0x7
     c32:	c019                	c.beqz	s0,c38 <dr_putchar+0x90>
     c34:	00f00733          	add	a4,zero,a5
     c38:	00f106a3          	sb	a5,13(sp)
     c3c:	801407b7          	lui	a5,0x80140
     c40:	00e10623          	sb	a4,12(sp)
     c44:	2007a603          	lw	a2,512(a5) # 80140200 <_DATA_LMA_START+0x6013ca38>
     c48:	00410513          	addi	a0,sp,4
     c4c:	00e10813          	addi	a6,sp,14
     c50:	801406b7          	lui	a3,0x80140
     c54:	08900593          	li	a1,137
     c58:	2006a783          	lw	a5,512(a3) # 80140200 <_DATA_LMA_START+0x6013ca38>
     c5c:	40c78733          	sub	a4,a5,a2
     c60:	fee5fce3          	bgeu	a1,a4,c58 <dr_putchar+0xb0>
     c64:	00054703          	lbu	a4,0(a0)
     c68:	0505                	c.addi	a0,1
     c6a:	30e681a3          	sb	a4,771(a3)
     c6e:	863e                	c.mv	a2,a5
     c70:	ff0514e3          	bne	a0,a6,c58 <dr_putchar+0xb0>
     c74:	40f2                	c.lwsp	ra,28(sp)
     c76:	4462                	c.lwsp	s0,24(sp)
     c78:	44d2                	c.lwsp	s1,20(sp)
     c7a:	4942                	c.lwsp	s2,16(sp)
     c7c:	6105                	c.addi16sp	sp,32
     c7e:	8082                	c.jr	ra
     c80:	80140937          	lui	s2,0x80140
     c84:	30690783          	lb	a5,774(s2) # 80140306 <_DATA_LMA_START+0x6013cb3e>
     c88:	4539                	c.li	a0,14
     c8a:	0ff7f793          	andi	a5,a5,255
     c8e:	0017e793          	ori	a5,a5,1
     c92:	30f90323          	sb	a5,774(s2)
     c96:	3e3d                	c.jal	7d4 <analog_read_reg8>
     c98:	0fc57593          	andi	a1,a0,252
     c9c:	0015e593          	ori	a1,a1,1
     ca0:	4539                	c.li	a0,14
     ca2:	34fd                	c.jal	790 <analog_write_reg8>
     ca4:	30290783          	lb	a5,770(s2)
     ca8:	0fe7f793          	andi	a5,a5,254
     cac:	30f90123          	sb	a5,770(s2)
     cb0:	30390783          	lb	a5,771(s2)
     cb4:	0ff7f793          	andi	a5,a5,255
     cb8:	0017e793          	ori	a5,a5,1
     cbc:	30f901a3          	sb	a5,771(s2)
     cc0:	00048023          	sb	zero,0(s1)
     cc4:	efdff06f          	j	bc0 <dr_putchar+0x18>

00000cc8 <pm_sleep_wakeup_ram.constprop.3>:
     cc8:	1101                	c.addi	sp,-32
     cca:	c452                	c.swsp	s4,8(sp)
     ccc:	8a2a                	c.mv	s4,a0
     cce:	ce06                	c.swsp	ra,28(sp)
     cd0:	cc22                	c.swsp	s0,24(sp)
     cd2:	ca26                	c.swsp	s1,20(sp)
     cd4:	c84a                	c.swsp	s2,16(sp)
     cd6:	c64e                	c.swsp	s3,12(sp)
     cd8:	c256                	c.swsp	s5,4(sp)
     cda:	c05a                	c.swsp	s6,0(sp)
     cdc:	300029f3          	csrr	s3,mstatus
     ce0:	0089f993          	andi	s3,s3,8
     ce4:	00098663          	beqz	s3,cf0 <pm_sleep_wakeup_ram.constprop.3+0x28>
     ce8:	300477f3          	csrrci	a5,mstatus,8
     cec:	0ff0000f          	fence
     cf0:	801407b7          	lui	a5,0x80140
     cf4:	2147a683          	lw	a3,532(a5) # 80140214 <_DATA_LMA_START+0x6013ca4c>
     cf8:	def5                	c.beqz	a3,cf4 <pm_sleep_wakeup_ram.constprop.3+0x2c>
     cfa:	00000437          	lui	s0,0x0
     cfe:	15840693          	addi	a3,s0,344 # 158 <_AES_VMA_END>
     d02:	2147a783          	lw	a5,532(a5)
     d06:	4ed8                	c.lw	a4,28(a3)
     d08:	d6dc                	c.sw	a5,44(a3)
     d0a:	15840413          	addi	s0,s0,344
     d0e:	0792                	c.slli	a5,0x4
     d10:	cb11                	c.beqz	a4,d24 <pm_sleep_wakeup_ram.constprop.3+0x5c>
     d12:	03044603          	lbu	a2,48(s0)
     d16:	4691                	c.li	a3,4
     d18:	8f99                	c.sub	a5,a4
     d1a:	8e91                	c.sub	a3,a2
     d1c:	40d7d7b3          	sra	a5,a5,a3
     d20:	00e787b3          	add	a5,a5,a4
     d24:	4818                	c.lw	a4,16(s0)
     d26:	4047d493          	srai	s1,a5,0x4
     d2a:	02e48733          	mul	a4,s1,a4
     d2e:	80140937          	lui	s2,0x80140
     d32:	20092a83          	lw	s5,512(s2) # 80140200 <_DATA_LMA_START+0x6013ca38>
     d36:	cc5c                	c.sw	a5,28(s0)
     d38:	415a0ab3          	sub	s5,s4,s5
     d3c:	e00006b7          	lui	a3,0xe0000
     d40:	41275793          	srai	a5,a4,0x12
     d44:	94be                	c.add	s1,a5
     d46:	0486                	c.slli	s1,0x1
     d48:	02942a23          	sw	s1,52(s0)
     d4c:	0356f063          	bgeu	a3,s5,d6c <pm_sleep_wakeup_ram.constprop.3+0xa4>
     d50:	00098663          	beqz	s3,d5c <pm_sleep_wakeup_ram.constprop.3+0x94>
     d54:	3009a9f3          	csrrs	s3,mstatus,s3
     d58:	0ff0000f          	fence
     d5c:	06400513          	li	a0,100
     d60:	a75ff0ef          	jal	ra,7d4 <analog_read_reg8>
     d64:	01f57513          	andi	a0,a0,31
     d68:	2580006f          	j	fc0 <pm_sleep_wakeup_ram.constprop.3+0x2f8>
     d6c:	04a41783          	lh	a5,74(s0)
     d70:	1137a7db          	bfoz	a5,a5,4,19
     d74:	02fafe63          	bgeu	s5,a5,db0 <pm_sleep_wakeup_ram.constprop.3+0xe8>
     d78:	45fd                	c.li	a1,31
     d7a:	06400513          	li	a0,100
     d7e:	801404b7          	lui	s1,0x80140
     d82:	20092403          	lw	s0,512(s2)
     d86:	3429                	c.jal	790 <analog_write_reg8>
     d88:	06400513          	li	a0,100
     d8c:	a49ff0ef          	jal	ra,7d4 <analog_read_reg8>
     d90:	2004a783          	lw	a5,512(s1) # 80140200 <_DATA_LMA_START+0x6013ca38>
     d94:	897d                	c.andi	a0,31
     d96:	8f81                	c.sub	a5,s0
     d98:	0157f463          	bgeu	a5,s5,da0 <pm_sleep_wakeup_ram.constprop.3+0xd8>
     d9c:	fe0506e3          	beqz	a0,d88 <pm_sleep_wakeup_ram.constprop.3+0xc0>
     da0:	22098063          	beqz	s3,fc0 <pm_sleep_wakeup_ram.constprop.3+0x2f8>
     da4:	3009a9f3          	csrrs	s3,mstatus,s3
     da8:	0ff0000f          	fence
     dac:	2140006f          	j	fc0 <pm_sleep_wakeup_ram.constprop.3+0x2f8>
     db0:	1e890a83          	lb	s5,488(s2)
     db4:	00faf793          	andi	a5,s5,15
     db8:	1ef90423          	sb	a5,488(s2)
     dbc:	1d890b03          	lb	s6,472(s2)
     dc0:	0f8b7793          	andi	a5,s6,248
     dc4:	1cf90c23          	sb	a5,472(s2)
     dc8:	00100793          	li	a5,1
     dcc:	20f90c23          	sb	a5,536(s2)
     dd0:	20a90783          	lb	a5,522(s2)
     dd4:	0f77f793          	andi	a5,a5,247
     dd8:	20f90523          	sb	a5,522(s2)
     ddc:	d7cff0ef          	jal	ra,358 <clock_get_32k_tick>
     de0:	20092703          	lw	a4,512(s2)
     de4:	20b90783          	lb	a5,523(s2)
     de8:	5054                	c.lw	a3,36(s0)
     dea:	0ff7f793          	andi	a5,a5,255
     dee:	0027e793          	ori	a5,a5,2
     df2:	c468                	c.sw	a0,76(s0)
     df4:	dc18                	c.sw	a4,56(s0)
     df6:	03044603          	lbu	a2,48(s0)
     dfa:	40d506b3          	sub	a3,a0,a3
     dfe:	20f905a3          	sb	a5,523(s2)
     e02:	d414                	c.sw	a3,40(s0)
     e04:	e215                	c.bnez	a2,e28 <pm_sleep_wakeup_ram.constprop.3+0x160>
     e06:	441c                	c.lw	a5,8(s0)
     e08:	c385                	c.beqz	a5,e28 <pm_sleep_wakeup_ram.constprop.3+0x160>
     e0a:	05044783          	lbu	a5,80(s0)
     e0e:	ef89                	c.bnez	a5,e28 <pm_sleep_wakeup_ram.constprop.3+0x160>
     e10:	00c42783          	lw	a5,12(s0)
     e14:	000276b7          	lui	a3,0x27
     e18:	40f507b3          	sub	a5,a0,a5
     e1c:	6c07a7db          	bfoz	a5,a5,27,0
     e20:	10068693          	addi	a3,a3,256 # 27100 <BIN_SIZE+0x1a87c>
     e24:	00f6f863          	bgeu	a3,a5,e34 <pm_sleep_wakeup_ram.constprop.3+0x16c>
     e28:	00176713          	ori	a4,a4,1
     e2c:	02040823          	sb	zero,48(s0)
     e30:	c448                	c.sw	a0,12(s0)
     e32:	c418                	c.sw	a4,8(s0)
     e34:	02000593          	li	a1,32
     e38:	04b00513          	li	a0,75
     e3c:	955ff0ef          	jal	ra,790 <analog_write_reg8>
     e40:	45fd                	c.li	a1,31
     e42:	06400513          	li	a0,100
     e46:	32a9                	c.jal	790 <analog_write_reg8>
     e48:	03000593          	li	a1,48
     e4c:	07e00513          	li	a0,126
     e50:	941ff0ef          	jal	ra,790 <analog_write_reg8>
     e54:	0f900593          	li	a1,249
     e58:	04d00513          	li	a0,77
     e5c:	935ff0ef          	jal	ra,790 <analog_write_reg8>
     e60:	4585                	c.li	a1,1
     e62:	07f00513          	li	a0,127
     e66:	322d                	c.jal	790 <analog_write_reg8>
     e68:	04841783          	lh	a5,72(s0)
     e6c:	0ee00593          	li	a1,238
     e70:	1137a7db          	bfoz	a5,a5,4,19
     e74:	04c00513          	li	a0,76
     e78:	40fa0933          	sub	s2,s4,a5
     e7c:	915ff0ef          	jal	ra,790 <analog_write_reg8>
     e80:	05441583          	lh	a1,84(s0)
     e84:	04000513          	li	a0,64
     e88:	0ff5f593          	andi	a1,a1,255
     e8c:	905ff0ef          	jal	ra,790 <analog_write_reg8>
     e90:	441c                	c.lw	a5,8(s0)
     e92:	07ff06b7          	lui	a3,0x7ff0
     e96:	40f907b3          	sub	a5,s2,a5
     e9a:	00168713          	addi	a4,a3,1 # 7ff0001 <FLASH_SIZE+0x7ef0001>
     e9e:	00e7b733          	sltu	a4,a5,a4
     ea2:	00174713          	xori	a4,a4,1
     ea6:	00e40223          	sb	a4,4(s0)
     eaa:	00f6f963          	bgeu	a3,a5,ebc <pm_sleep_wakeup_ram.constprop.3+0x1f4>
     eae:	5858                	c.lw	a4,52(s0)
     eb0:	4448                	c.lw	a0,12(s0)
     eb2:	02e7d7b3          	divu	a5,a5,a4
     eb6:	0796                	c.slli	a5,0x5
     eb8:	953e                	c.add	a0,a5
     eba:	a809                	c.j	ecc <pm_sleep_wakeup_ram.constprop.3+0x204>
     ebc:	5848                	c.lw	a0,52(s0)
     ebe:	8085                	c.srli	s1,0x1
     ec0:	0796                	c.slli	a5,0x5
     ec2:	97a6                	c.add	a5,s1
     ec4:	02a7d7b3          	divu	a5,a5,a0
     ec8:	4448                	c.lw	a0,12(s0)
     eca:	953e                	c.add	a0,a5
     ecc:	be0ff0ef          	jal	ra,2ac <clock_set_32k_tick>
     ed0:	06400513          	li	a0,100
     ed4:	901ff0ef          	jal	ra,7d4 <analog_read_reg8>
     ed8:	01f57513          	andi	a0,a0,31
     edc:	e901                	c.bnez	a0,eec <pm_sleep_wakeup_ram.constprop.3+0x224>
     ede:	3e1d                	c.jal	a14 <pm_sleep_start>
     ee0:	00100593          	li	a1,1
     ee4:	07f00513          	li	a0,127
     ee8:	8a9ff0ef          	jal	ra,790 <analog_write_reg8>
     eec:	80140737          	lui	a4,0x80140
     ef0:	02000793          	li	a5,32
     ef4:	1ef707a3          	sb	a5,495(a4) # 801401ef <_DATA_LMA_START+0x6013ca27>
     ef8:	00200793          	li	a5,2
     efc:	20f70c23          	sb	a5,536(a4)
     f00:	20a70783          	lb	a5,522(a4)
     f04:	0ff7f793          	andi	a5,a5,255
     f08:	00c7e793          	ori	a5,a5,12
     f0c:	20f70523          	sb	a5,522(a4)
     f10:	c48ff0ef          	jal	ra,358 <clock_get_32k_tick>
     f14:	00444783          	lbu	a5,4(s0)
     f18:	cf81                	c.beqz	a5,f30 <pm_sleep_wakeup_ram.constprop.3+0x268>
     f1a:	4458                	c.lw	a4,12(s0)
     f1c:	5854                	c.lw	a3,52(s0)
     f1e:	40e50733          	sub	a4,a0,a4
     f22:	441c                	c.lw	a5,8(s0)
     f24:	0705                	c.addi	a4,1
     f26:	8315                	c.srli	a4,0x5
     f28:	c4d717ff          	maddr32	a5,a4,a3
     f2c:	0180006f          	j	f44 <pm_sleep_wakeup_ram.constprop.3+0x27c>
     f30:	445c                	c.lw	a5,12(s0)
     f32:	5858                	c.lw	a4,52(s0)
     f34:	40f507b3          	sub	a5,a0,a5
     f38:	0785                	c.addi	a5,1
     f3a:	02e787b3          	mul	a5,a5,a4
     f3e:	4418                	c.lw	a4,8(s0)
     f40:	8395                	c.srli	a5,0x5
     f42:	97ba                	c.add	a5,a4
     f44:	4458                	c.lw	a4,12(s0)
     f46:	00150613          	addi	a2,a0,1
     f4a:	8d19                	c.sub	a0,a4
     f4c:	0505                	c.addi	a0,1
     f4e:	00178693          	addi	a3,a5,1
     f52:	dc1c                	c.sw	a5,56(s0)
     f54:	d050                	c.sw	a2,36(s0)
     f56:	d008                	c.sw	a0,32(s0)
     f58:	801407b7          	lui	a5,0x80140
     f5c:	80140737          	lui	a4,0x80140
     f60:	20d7a023          	sw	a3,512(a5) # 80140200 <_DATA_LMA_START+0x6013ca38>
     f64:	20b70783          	lb	a5,523(a4) # 8014020b <_DATA_LMA_START+0x6013ca43>
     f68:	be77fe5b          	bbc	a5,7,f64 <pm_sleep_wakeup_ram.constprop.3+0x29c>
     f6c:	20070c23          	sb	zero,536(a4)
     f70:	1d670c23          	sb	s6,472(a4)
     f74:	06400513          	li	a0,100
     f78:	1f570423          	sb	s5,488(a4)
     f7c:	859ff0ef          	jal	ra,7d4 <analog_read_reg8>
     f80:	0b90970b          	addigp	a4,35000 # 890b8 <g_pm_status_info>
     f84:	00a700a3          	sb	a0,1(a4)
     f88:	0b90978b          	addigp	a5,35000 # 890b8 <g_pm_status_info>
     f8c:	00157c5b          	bbc	a0,1,fa4 <pm_sleep_wakeup_ram.constprop.3+0x2dc>
     f90:	80140637          	lui	a2,0x80140
     f94:	400006b7          	lui	a3,0x40000
     f98:	20062703          	lw	a4,512(a2) # 80140200 <_DATA_LMA_START+0x6013ca38>
     f9c:	41470733          	sub	a4,a4,s4
     fa0:	fee6ece3          	bltu	a3,a4,f98 <pm_sleep_wakeup_ram.constprop.3+0x2d0>
     fa4:	00098663          	beqz	s3,fb0 <pm_sleep_wakeup_ram.constprop.3+0x2e8>
     fa8:	3009a9f3          	csrrs	s3,mstatus,s3
     fac:	0ff0000f          	fence
     fb0:	0017c783          	lbu	a5,1(a5)
     fb4:	10000513          	li	a0,256
     fb8:	c781                	c.beqz	a5,fc0 <pm_sleep_wakeup_ram.constprop.3+0x2f8>
     fba:	40000537          	lui	a0,0x40000
     fbe:	8d5d                	c.or	a0,a5
     fc0:	40f2                	c.lwsp	ra,28(sp)
     fc2:	4462                	c.lwsp	s0,24(sp)
     fc4:	44d2                	c.lwsp	s1,20(sp)
     fc6:	4942                	c.lwsp	s2,16(sp)
     fc8:	49b2                	c.lwsp	s3,12(sp)
     fca:	4a22                	c.lwsp	s4,8(sp)
     fcc:	4a92                	c.lwsp	s5,4(sp)
     fce:	4b02                	c.lwsp	s6,0(sp)
     fd0:	6105                	c.addi16sp	sp,32
     fd2:	8082                	c.jr	ra

00000fd4 <trap_entry>:
     fd4:	1101                	c.addi	sp,-32
     fd6:	ce2a                	c.swsp	a0,28(sp)
     fd8:	cc2e                	c.swsp	a1,24(sp)
     fda:	ca32                	c.swsp	a2,20(sp)
     fdc:	c836                	c.swsp	a3,16(sp)
     fde:	c63a                	c.swsp	a4,12(sp)
     fe0:	c43e                	c.swsp	a5,8(sp)
     fe2:	34202773          	csrr	a4,mcause
     fe6:	000007b7          	lui	a5,0x0
     fea:	15878793          	addi	a5,a5,344 # 158 <_AES_VMA_END>
     fee:	03c78683          	lb	a3,60(a5)
     ff2:	0ff6f693          	andi	a3,a3,255
     ff6:	c2dd                	c.beqz	a3,109c <trap_entry+0xc8>
     ff8:	34102673          	csrr	a2,mepc
     ffc:	300025f3          	csrr	a1,mstatus
    1000:	7c4026f3          	csrr	a3,mxstatus
    1004:	02074a63          	bltz	a4,1038 <trap_entry+0x64>
    1008:	34302773          	csrr	a4,mtval
    100c:	0ae0c8ab          	swgp	a4,34992 # 890b0 <exception_mtval>
    1010:	34102773          	csrr	a4,mepc
    1014:	0ae0c4ab          	swgp	a4,34984 # 890a8 <exception_mepc>
    1018:	30002773          	csrr	a4,mstatus
    101c:	0ae0c6ab          	swgp	a4,34988 # 890ac <exception_mstatus>
    1020:	34202773          	csrr	a4,mcause
    1024:	0ae0c0ab          	swgp	a4,34976 # 890a0 <_BSS_VMA_START>
    1028:	7c902773          	csrr	a4,mdcause
    102c:	0ae0c2ab          	swgp	a4,34980 # 890a4 <exception_mdcause>
    1030:	0001                	c.nop
    1032:	0001                	c.nop
    1034:	ffdff06f          	j	1030 <trap_entry+0x5c>
    1038:	7807275b          	bfoz	a4,a4,30,0
    103c:	0677545b          	beqc	a4,7,10a4 <trap_entry+0xd0>
    1040:	bc37645b          	bnec	a4,3,1008 <trap_entry+0x34>
    1044:	e6600737          	lui	a4,0xe6600
    1048:	4358                	c.lw	a4,4(a4)
    104a:	03c78703          	lb	a4,60(a5)
    104e:	0ff77713          	andi	a4,a4,255
    1052:	c319                	c.beqz	a4,1058 <trap_entry+0x84>
    1054:	30046773          	csrrsi	a4,mstatus,8
    1058:	03c78703          	lb	a4,60(a5)
    105c:	0ff77713          	andi	a4,a4,255
    1060:	00070463          	beqz	a4,1068 <trap_entry+0x94>
    1064:	30047773          	csrrci	a4,mstatus,8
    1068:	e6600737          	lui	a4,0xe6600
    106c:	4505                	c.li	a0,1
    106e:	c348                	c.sw	a0,4(a4)
    1070:	03c78783          	lb	a5,60(a5)
    1074:	0ff7f793          	andi	a5,a5,255
    1078:	00078863          	beqz	a5,1088 <trap_entry+0xb4>
    107c:	30059073          	csrw	mstatus,a1
    1080:	34161073          	csrw	mepc,a2
    1084:	7c469073          	csrw	mxstatus,a3
    1088:	4572                	c.lwsp	a0,28(sp)
    108a:	45e2                	c.lwsp	a1,24(sp)
    108c:	4652                	c.lwsp	a2,20(sp)
    108e:	46c2                	c.lwsp	a3,16(sp)
    1090:	4732                	c.lwsp	a4,12(sp)
    1092:	47a2                	c.lwsp	a5,8(sp)
    1094:	02010113          	addi	sp,sp,32
    1098:	30200073          	mret
    109c:	4681                	c.li	a3,0
    109e:	4581                	c.li	a1,0
    10a0:	4601                	c.li	a2,0
    10a2:	b78d                	c.j	1004 <trap_entry+0x30>
    10a4:	03c78703          	lb	a4,60(a5)
    10a8:	0ff77713          	andi	a4,a4,255
    10ac:	00070863          	beqz	a4,10bc <trap_entry+0xe8>
    10b0:	08000713          	li	a4,128
    10b4:	30473773          	csrrc	a4,mie,a4
    10b8:	30046773          	csrrsi	a4,mstatus,8
    10bc:	03c78703          	lb	a4,60(a5)
    10c0:	0ff77713          	andi	a4,a4,255
    10c4:	d755                	c.beqz	a4,1070 <trap_entry+0x9c>
    10c6:	30047773          	csrrci	a4,mstatus,8
    10ca:	08000713          	li	a4,128
    10ce:	30472773          	csrrs	a4,mie,a4
    10d2:	bf79                	c.j	1070 <trap_entry+0x9c>
    10d4:	0001                	c.nop
	...

00001100 <__vectors>:
    1100:	0fd4                	c.addi4spn	a3,sp,980
    1102:	0000                	unimp
    1104:	1de0                	c.addi4spn	s0,sp,764
    1106:	0000                	unimp
    1108:	1de0                	c.addi4spn	s0,sp,764
    110a:	0000                	unimp
    110c:	1de0                	c.addi4spn	s0,sp,764
    110e:	0000                	unimp
    1110:	1de0                	c.addi4spn	s0,sp,764
    1112:	0000                	unimp
    1114:	1de0                	c.addi4spn	s0,sp,764
    1116:	0000                	unimp
    1118:	1de0                	c.addi4spn	s0,sp,764
    111a:	0000                	unimp
    111c:	1de0                	c.addi4spn	s0,sp,764
    111e:	0000                	unimp
    1120:	1de0                	c.addi4spn	s0,sp,764
    1122:	0000                	unimp
    1124:	1de0                	c.addi4spn	s0,sp,764
    1126:	0000                	unimp
    1128:	1de0                	c.addi4spn	s0,sp,764
    112a:	0000                	unimp
    112c:	1de0                	c.addi4spn	s0,sp,764
    112e:	0000                	unimp
    1130:	1de0                	c.addi4spn	s0,sp,764
    1132:	0000                	unimp
    1134:	1de0                	c.addi4spn	s0,sp,764
    1136:	0000                	unimp
    1138:	1de0                	c.addi4spn	s0,sp,764
    113a:	0000                	unimp
    113c:	1de0                	c.addi4spn	s0,sp,764
    113e:	0000                	unimp
    1140:	1de0                	c.addi4spn	s0,sp,764
    1142:	0000                	unimp
    1144:	1de0                	c.addi4spn	s0,sp,764
    1146:	0000                	unimp
    1148:	1de0                	c.addi4spn	s0,sp,764
    114a:	0000                	unimp
    114c:	1de0                	c.addi4spn	s0,sp,764
    114e:	0000                	unimp
    1150:	1de0                	c.addi4spn	s0,sp,764
    1152:	0000                	unimp
    1154:	1de0                	c.addi4spn	s0,sp,764
    1156:	0000                	unimp
    1158:	1de0                	c.addi4spn	s0,sp,764
    115a:	0000                	unimp
    115c:	1de0                	c.addi4spn	s0,sp,764
    115e:	0000                	unimp
    1160:	1de0                	c.addi4spn	s0,sp,764
    1162:	0000                	unimp
    1164:	1de0                	c.addi4spn	s0,sp,764
    1166:	0000                	unimp
    1168:	1de0                	c.addi4spn	s0,sp,764
    116a:	0000                	unimp
    116c:	1de0                	c.addi4spn	s0,sp,764
    116e:	0000                	unimp
    1170:	1de0                	c.addi4spn	s0,sp,764
    1172:	0000                	unimp
    1174:	1de0                	c.addi4spn	s0,sp,764
    1176:	0000                	unimp
    1178:	1de0                	c.addi4spn	s0,sp,764
    117a:	0000                	unimp
    117c:	1de0                	c.addi4spn	s0,sp,764
    117e:	0000                	unimp
    1180:	1de0                	c.addi4spn	s0,sp,764
    1182:	0000                	unimp
    1184:	1de0                	c.addi4spn	s0,sp,764
    1186:	0000                	unimp
    1188:	1de0                	c.addi4spn	s0,sp,764
    118a:	0000                	unimp
    118c:	1de0                	c.addi4spn	s0,sp,764
    118e:	0000                	unimp
    1190:	1de0                	c.addi4spn	s0,sp,764
    1192:	0000                	unimp
    1194:	1de0                	c.addi4spn	s0,sp,764
    1196:	0000                	unimp
    1198:	1de0                	c.addi4spn	s0,sp,764
    119a:	0000                	unimp
    119c:	1de0                	c.addi4spn	s0,sp,764
    119e:	0000                	unimp
    11a0:	1de0                	c.addi4spn	s0,sp,764
    11a2:	0000                	unimp
    11a4:	1de0                	c.addi4spn	s0,sp,764
    11a6:	0000                	unimp
    11a8:	1de0                	c.addi4spn	s0,sp,764
    11aa:	0000                	unimp
    11ac:	1de0                	c.addi4spn	s0,sp,764
    11ae:	0000                	unimp
    11b0:	1de0                	c.addi4spn	s0,sp,764
    11b2:	0000                	unimp
    11b4:	1de0                	c.addi4spn	s0,sp,764
    11b6:	0000                	unimp
    11b8:	1de0                	c.addi4spn	s0,sp,764
    11ba:	0000                	unimp
    11bc:	1de0                	c.addi4spn	s0,sp,764
    11be:	0000                	unimp
    11c0:	1de0                	c.addi4spn	s0,sp,764
    11c2:	0000                	unimp
    11c4:	1de0                	c.addi4spn	s0,sp,764
    11c6:	0000                	unimp
    11c8:	1de0                	c.addi4spn	s0,sp,764
    11ca:	0000                	unimp
    11cc:	1de0                	c.addi4spn	s0,sp,764
    11ce:	0000                	unimp
    11d0:	1de0                	c.addi4spn	s0,sp,764
    11d2:	0000                	unimp
    11d4:	1de0                	c.addi4spn	s0,sp,764
    11d6:	0000                	unimp
    11d8:	1de0                	c.addi4spn	s0,sp,764
    11da:	0000                	unimp
    11dc:	1de0                	c.addi4spn	s0,sp,764
    11de:	0000                	unimp
    11e0:	1de0                	c.addi4spn	s0,sp,764
    11e2:	0000                	unimp
    11e4:	1de0                	c.addi4spn	s0,sp,764
    11e6:	0000                	unimp
    11e8:	1de0                	c.addi4spn	s0,sp,764
    11ea:	0000                	unimp
    11ec:	1de0                	c.addi4spn	s0,sp,764
    11ee:	0000                	unimp
    11f0:	1de0                	c.addi4spn	s0,sp,764
    11f2:	0000                	unimp
    11f4:	1de0                	c.addi4spn	s0,sp,764
    11f6:	0000                	unimp
    11f8:	1de0                	c.addi4spn	s0,sp,764
    11fa:	0000                	unimp
    11fc:	1de0                	c.addi4spn	s0,sp,764
    11fe:	0000                	unimp
    1200:	0001                	c.nop
	...

00001204 <flash_read_uid.constprop.6>:
    1204:	1141                	c.addi	sp,-16
    1206:	c606                	c.swsp	ra,12(sp)
    1208:	872a                	c.mv	a4,a0
    120a:	7d047073          	csrci	mmisc_ctl,8
    120e:	47c1                	c.li	a5,16
    1210:	4691                	c.li	a3,4
    1212:	4601                	c.li	a2,0
    1214:	00000593          	li	a1,0
    1218:	04b00513          	li	a0,75
    121c:	aa8ff0ef          	jal	ra,4c4 <flash_mspi_read_ram>
    1220:	7d046073          	csrsi	mmisc_ctl,8
    1224:	40b2                	c.lwsp	ra,12(sp)
    1226:	0141                	c.addi	sp,16
    1228:	00008067          	ret

0000122c <flash_read_mid>:
    122c:	1101                	c.addi	sp,-32
    122e:	ce06                	c.swsp	ra,28(sp)
    1230:	c602                	c.swsp	zero,12(sp)
    1232:	7d047073          	csrci	mmisc_ctl,8
    1236:	478d                	c.li	a5,3
    1238:	0078                	c.addi4spn	a4,sp,12
    123a:	4681                	c.li	a3,0
    123c:	4601                	c.li	a2,0
    123e:	4581                	c.li	a1,0
    1240:	09f00513          	li	a0,159
    1244:	a80ff0ef          	jal	ra,4c4 <flash_mspi_read_ram>
    1248:	7d046073          	csrsi	mmisc_ctl,8
    124c:	40f2                	c.lwsp	ra,28(sp)
    124e:	4532                	c.lwsp	a0,12(sp)
    1250:	6105                	c.addi16sp	sp,32
    1252:	8082                	c.jr	ra

00001254 <flash_read_mid_uid_with_check>:
    1254:	1c5e178b          	addigp	a5,31172 # 881c4 <ip1_wt+0x1408>
    1258:	4798                	c.lw	a4,8(a5)
    125a:	4390                	c.lw	a2,0(a5)
    125c:	43d4                	c.lw	a3,4(a5)
    125e:	47dc                	c.lw	a5,12(a5)
    1260:	1101                	c.addi	sp,-32
    1262:	cc22                	c.swsp	s0,24(sp)
    1264:	ca26                	c.swsp	s1,20(sp)
    1266:	842a                	c.mv	s0,a0
    1268:	c43a                	c.swsp	a4,8(sp)
    126a:	c63e                	c.swsp	a5,12(sp)
    126c:	ce06                	c.swsp	ra,28(sp)
    126e:	84ae                	c.mv	s1,a1
    1270:	c032                	c.swsp	a2,0(sp)
    1272:	c236                	c.swsp	a3,4(sp)
    1274:	fb9ff0ef          	jal	ra,122c <flash_read_mid>
    1278:	77c1                	c.lui	a5,0xffff0
    127a:	17fd                	c.addi	a5,-1
    127c:	00146737          	lui	a4,0x146
    1280:	c008                	c.sw	a0,0(s0)
    1282:	8fe9                	c.and	a5,a0
    1284:	08570713          	addi	a4,a4,133 # 146085 <FLASH_SIZE+0x46085>
    1288:	02e78063          	beq	a5,a4,12a8 <flash_read_mid_uid_with_check+0x54>
    128c:	00166737          	lui	a4,0x166
    1290:	08570713          	addi	a4,a4,133 # 166085 <FLASH_SIZE+0x66085>
    1294:	4781                	c.li	a5,0
    1296:	00e50963          	beq	a0,a4,12a8 <flash_read_mid_uid_with_check+0x54>
    129a:	40f2                	c.lwsp	ra,28(sp)
    129c:	4462                	c.lwsp	s0,24(sp)
    129e:	44d2                	c.lwsp	s1,20(sp)
    12a0:	853e                	c.mv	a0,a5
    12a2:	6105                	c.addi16sp	sp,32
    12a4:	00008067          	ret
    12a8:	8526                	c.mv	a0,s1
    12aa:	3fa9                	c.jal	1204 <flash_read_uid.constprop.6>
    12ac:	0004c783          	lbu	a5,0(s1)
    12b0:	00014603          	lbu	a2,0(sp)
    12b4:	0014c683          	lbu	a3,1(s1)
    12b8:	00114703          	lbu	a4,1(sp)
    12bc:	8f91                	c.sub	a5,a2
    12be:	0017b793          	seqz	a5,a5
    12c2:	00e69363          	bne	a3,a4,12c8 <flash_read_mid_uid_with_check+0x74>
    12c6:	0785                	c.addi	a5,1
    12c8:	0024c683          	lbu	a3,2(s1)
    12cc:	00214703          	lbu	a4,2(sp)
    12d0:	00e69463          	bne	a3,a4,12d8 <flash_read_mid_uid_with_check+0x84>
    12d4:	00178793          	addi	a5,a5,1 # ffff0001 <_DATA_LMA_START+0xdffec839>
    12d8:	0034c683          	lbu	a3,3(s1)
    12dc:	00314703          	lbu	a4,3(sp)
    12e0:	00e69463          	bne	a3,a4,12e8 <flash_read_mid_uid_with_check+0x94>
    12e4:	00178793          	addi	a5,a5,1
    12e8:	0044c683          	lbu	a3,4(s1)
    12ec:	00414703          	lbu	a4,4(sp)
    12f0:	00e69463          	bne	a3,a4,12f8 <flash_read_mid_uid_with_check+0xa4>
    12f4:	00178793          	addi	a5,a5,1
    12f8:	0054c683          	lbu	a3,5(s1)
    12fc:	00514703          	lbu	a4,5(sp)
    1300:	00e69463          	bne	a3,a4,1308 <flash_read_mid_uid_with_check+0xb4>
    1304:	00178793          	addi	a5,a5,1
    1308:	0064c683          	lbu	a3,6(s1)
    130c:	00614703          	lbu	a4,6(sp)
    1310:	00e69463          	bne	a3,a4,1318 <flash_read_mid_uid_with_check+0xc4>
    1314:	00178793          	addi	a5,a5,1
    1318:	0074c683          	lbu	a3,7(s1)
    131c:	00714703          	lbu	a4,7(sp)
    1320:	00e69463          	bne	a3,a4,1328 <flash_read_mid_uid_with_check+0xd4>
    1324:	00178793          	addi	a5,a5,1
    1328:	0084c683          	lbu	a3,8(s1)
    132c:	00814703          	lbu	a4,8(sp)
    1330:	00e69463          	bne	a3,a4,1338 <flash_read_mid_uid_with_check+0xe4>
    1334:	00178793          	addi	a5,a5,1
    1338:	0094c683          	lbu	a3,9(s1)
    133c:	00914703          	lbu	a4,9(sp)
    1340:	00e69463          	bne	a3,a4,1348 <flash_read_mid_uid_with_check+0xf4>
    1344:	00178793          	addi	a5,a5,1
    1348:	00a4c683          	lbu	a3,10(s1)
    134c:	00a14703          	lbu	a4,10(sp)
    1350:	00e69463          	bne	a3,a4,1358 <flash_read_mid_uid_with_check+0x104>
    1354:	00178793          	addi	a5,a5,1
    1358:	00b4c683          	lbu	a3,11(s1)
    135c:	00b14703          	lbu	a4,11(sp)
    1360:	00e69463          	bne	a3,a4,1368 <flash_read_mid_uid_with_check+0x114>
    1364:	00178793          	addi	a5,a5,1
    1368:	00c4c683          	lbu	a3,12(s1)
    136c:	00c14703          	lbu	a4,12(sp)
    1370:	00e69463          	bne	a3,a4,1378 <flash_read_mid_uid_with_check+0x124>
    1374:	00178793          	addi	a5,a5,1
    1378:	00d4c683          	lbu	a3,13(s1)
    137c:	00d14703          	lbu	a4,13(sp)
    1380:	00e69463          	bne	a3,a4,1388 <flash_read_mid_uid_with_check+0x134>
    1384:	00178793          	addi	a5,a5,1
    1388:	00e4c683          	lbu	a3,14(s1)
    138c:	00e14703          	lbu	a4,14(sp)
    1390:	00e69463          	bne	a3,a4,1398 <flash_read_mid_uid_with_check+0x144>
    1394:	00178793          	addi	a5,a5,1
    1398:	00f14683          	lbu	a3,15(sp)
    139c:	00f4c703          	lbu	a4,15(s1)
    13a0:	00e69463          	bne	a3,a4,13a8 <flash_read_mid_uid_with_check+0x154>
    13a4:	00178793          	addi	a5,a5,1
    13a8:	40f2                	c.lwsp	ra,28(sp)
    13aa:	4462                	c.lwsp	s0,24(sp)
    13ac:	17c1                	c.addi	a5,-16
    13ae:	00f037b3          	snez	a5,a5
    13b2:	44d2                	c.lwsp	s1,20(sp)
    13b4:	853e                	c.mv	a0,a5
    13b6:	6105                	c.addi16sp	sp,32
    13b8:	00008067          	ret

000013bc <flash_dread>:
    13bc:	1141                	c.addi	sp,-16
    13be:	c606                	c.swsp	ra,12(sp)
    13c0:	87b2                	c.mv	a5,a2
    13c2:	7d047073          	csrci	mmisc_ctl,8
    13c6:	862e                	c.mv	a2,a1
    13c8:	00f005b3          	add	a1,zero,a5
    13cc:	a78ff0ef          	jal	ra,644 <flash_mspi_read_ram.constprop.7>
    13d0:	7d046073          	csrsi	mmisc_ctl,8
    13d4:	40b2                	c.lwsp	ra,12(sp)
    13d6:	0141                	c.addi	sp,16
    13d8:	00008067          	ret

000013dc <clock_init.constprop.10>:
    13dc:	1141                	c.addi	sp,-16
    13de:	c606                	c.swsp	ra,12(sp)
    13e0:	7d047073          	csrci	mmisc_ctl,8
    13e4:	c3cff0ef          	jal	ra,820 <clock_init_ram.constprop.11>
    13e8:	7d046073          	csrsi	mmisc_ctl,8
    13ec:	40b2                	c.lwsp	ra,12(sp)
    13ee:	0141                	c.addi	sp,16
    13f0:	00008067          	ret

000013f4 <pm_sleep_wakeup.constprop.2>:
    13f4:	1141                	c.addi	sp,-16
    13f6:	c606                	c.swsp	ra,12(sp)
    13f8:	7d047073          	csrci	mmisc_ctl,8
    13fc:	8cdff0ef          	jal	ra,cc8 <pm_sleep_wakeup_ram.constprop.3>
    1400:	7d046073          	csrsi	mmisc_ctl,8
    1404:	40b2                	c.lwsp	ra,12(sp)
    1406:	0141                	c.addi	sp,16
    1408:	8082                	c.jr	ra
    140a:	0001                	c.nop

0000140c <user_calib_adc_vref.constprop.9>:
    140c:	1101                	c.addi	sp,-32
    140e:	ce06                	c.swsp	ra,28(sp)
    1410:	c402                	c.swsp	zero,8(sp)
    1412:	00011623          	sh	zero,12(sp)
    1416:	00010723          	sb	zero,14(sp)
    141a:	c54d                	c.beqz	a0,14c4 <user_calib_adc_vref.constprop.9+0xb8>
    141c:	000007b7          	lui	a5,0x0
    1420:	1587a783          	lw	a5,344(a5) # 158 <_AES_VMA_END>
    1424:	0030                	c.addi4spn	a2,sp,8
    1426:	459d                	c.li	a1,7
    1428:	9782                	c.jalr	a5
    142a:	00c14783          	lbu	a5,12(sp)
    142e:	1c07b75b          	bfos	a4,a5,7,0
    1432:	04074163          	bltz	a4,1474 <user_calib_adc_vref.constprop.9+0x68>
    1436:	00e14703          	lbu	a4,14(sp)
    143a:	00d14603          	lbu	a2,13(sp)
    143e:	0722                	c.slli	a4,0x8
    1440:	66c1                	c.lui	a3,0x10
    1442:	00c705b3          	add	a1,a4,a2
    1446:	16fd                	c.addi	a3,-1
    1448:	02d58663          	beq	a1,a3,1474 <user_calib_adc_vref.constprop.9+0x68>
    144c:	fd060613          	addi	a2,a2,-48
    1450:	9732                	c.add	a4,a2
    1452:	3c07275b          	bfoz	a4,a4,15,0
    1456:	0fb00693          	li	a3,251
    145a:	08e6e563          	bltu	a3,a4,14e4 <user_calib_adc_vref.constprop.9+0xd8>
    145e:	17b1                	c.addi	a5,-20
    1460:	1c07b7db          	bfos	a5,a5,7,0
    1464:	5731                	c.li	a4,-20
    1466:	06e78f63          	beq	a5,a4,14e4 <user_calib_adc_vref.constprop.9+0xd8>
    146a:	f9578513          	addi	a0,a5,-107
    146e:	00a03533          	snez	a0,a0
    1472:	a89d                	c.j	14e8 <user_calib_adc_vref.constprop.9+0xdc>
    1474:	801407b7          	lui	a5,0x80140
    1478:	06500713          	li	a4,101
    147c:	1ee78a23          	sb	a4,500(a5) # 801401f4 <_DATA_LMA_START+0x6013ca2c>
    1480:	1c87a703          	lw	a4,456(a5)
    1484:	1e078a23          	sb	zero,500(a5)
    1488:	4c47275b          	bfoz	a4,a4,19,4
    148c:	380727db          	bfoz	a5,a4,14,0
    1490:	06078063          	beqz	a5,14f0 <user_calib_adc_vref.constprop.9+0xe4>
    1494:	1ff77713          	andi	a4,a4,511
    1498:	f9b70713          	addi	a4,a4,-101
    149c:	3c07275b          	bfoz	a4,a4,15,0
    14a0:	0c600693          	li	a3,198
    14a4:	04e6e063          	bltu	a3,a4,14e4 <user_calib_adc_vref.constprop.9+0xd8>
    14a8:	0097d513          	srli	a0,a5,0x9
    14ac:	1531                	c.addi	a0,-20
    14ae:	1c05355b          	bfos	a0,a0,7,0
    14b2:	57b1                	c.li	a5,-20
    14b4:	02f50863          	beq	a0,a5,14e4 <user_calib_adc_vref.constprop.9+0xd8>
    14b8:	fd550513          	addi	a0,a0,-43 # 3fffffd5 <_DATA_LMA_START+0x1fffc80d>
    14bc:	00a03533          	snez	a0,a0
    14c0:	0280006f          	j	14e8 <user_calib_adc_vref.constprop.9+0xdc>
    14c4:	801407b7          	lui	a5,0x80140
    14c8:	06500713          	li	a4,101
    14cc:	1ee78a23          	sb	a4,500(a5) # 801401f4 <_DATA_LMA_START+0x6013ca2c>
    14d0:	1c87a703          	lw	a4,456(a5)
    14d4:	1e078a23          	sb	zero,500(a5)
    14d8:	4c47275b          	bfoz	a4,a4,19,4
    14dc:	380727db          	bfoz	a5,a4,14,0
    14e0:	fa079ae3          	bnez	a5,1494 <user_calib_adc_vref.constprop.9+0x88>
    14e4:	00000513          	li	a0,0
    14e8:	40f2                	c.lwsp	ra,28(sp)
    14ea:	6105                	c.addi16sp	sp,32
    14ec:	00008067          	ret
    14f0:	00814503          	lbu	a0,8(sp)
    14f4:	00914783          	lbu	a5,9(sp)
    14f8:	953e                	c.add	a0,a5
    14fa:	f8050513          	addi	a0,a0,-128
    14fe:	3c05255b          	bfoz	a0,a0,15,0
    1502:	0fc53513          	sltiu	a0,a0,252
    1506:	b7cd                	c.j	14e8 <user_calib_adc_vref.constprop.9+0xdc>

00001508 <user_calib_freq_offset.constprop.8>:
    1508:	000007b7          	lui	a5,0x0
    150c:	1101                	c.addi	sp,-32
    150e:	1587a783          	lw	a5,344(a5) # 158 <_AES_VMA_END>
    1512:	577d                	c.li	a4,-1
    1514:	00f10613          	addi	a2,sp,15
    1518:	4585                	c.li	a1,1
    151a:	cc22                	c.swsp	s0,24(sp)
    151c:	ce06                	c.swsp	ra,28(sp)
    151e:	00e107a3          	sb	a4,15(sp)
    1522:	9782                	c.jalr	a5
    1524:	00f14403          	lbu	s0,15(sp)
    1528:	0ff00793          	li	a5,255
    152c:	00000513          	li	a0,0
    1530:	02f40263          	beq	s0,a5,1554 <user_calib_freq_offset.constprop.8+0x4c>
    1534:	08a00513          	li	a0,138
    1538:	a9cff0ef          	jal	ra,7d4 <analog_read_reg8>
    153c:	03f47413          	andi	s0,s0,63
    1540:	04057593          	andi	a1,a0,64
    1544:	0085e5b3          	or	a1,a1,s0
    1548:	08a00513          	li	a0,138
    154c:	a44ff0ef          	jal	ra,790 <analog_write_reg8>
    1550:	00100513          	li	a0,1
    1554:	40f2                	c.lwsp	ra,28(sp)
    1556:	4462                	c.lwsp	s0,24(sp)
    1558:	6105                	c.addi16sp	sp,32
    155a:	8082                	c.jr	ra
    155c:	0001                	c.nop
	...

00001560 <gpio_input_dis>:
    1560:	801407b7          	lui	a5,0x80140
    1564:	30978703          	lb	a4,777(a5) # 80140309 <_DATA_LMA_START+0x6013cb41>
    1568:	fff54513          	not	a0,a0
    156c:	8d79                	c.and	a0,a4
    156e:	0ff57513          	andi	a0,a0,255
    1572:	30a784a3          	sb	a0,777(a5)
    1576:	8082                	c.jr	ra
    1578:	0001                	c.nop
	...

0000157c <_write>:
    157c:	1141                	c.addi	sp,-16
    157e:	c606                	c.swsp	ra,12(sp)
    1580:	c422                	c.swsp	s0,8(sp)
    1582:	c226                	c.swsp	s1,4(sp)
    1584:	c04a                	c.swsp	s2,0(sp)
    1586:	02c05763          	blez	a2,15b4 <_write+0x38>
    158a:	8932                	c.mv	s2,a2
    158c:	00b00433          	add	s0,zero,a1
    1590:	00c584b3          	add	s1,a1,a2
    1594:	00044503          	lbu	a0,0(s0)
    1598:	00140413          	addi	s0,s0,1
    159c:	e0cff0ef          	jal	ra,ba8 <dr_putchar>
    15a0:	fe941ae3          	bne	s0,s1,1594 <_write+0x18>
    15a4:	40b2                	c.lwsp	ra,12(sp)
    15a6:	4422                	c.lwsp	s0,8(sp)
    15a8:	854a                	c.mv	a0,s2
    15aa:	4492                	c.lwsp	s1,4(sp)
    15ac:	4902                	c.lwsp	s2,0(sp)
    15ae:	0141                	c.addi	sp,16
    15b0:	00008067          	ret
    15b4:	40b2                	c.lwsp	ra,12(sp)
    15b6:	4422                	c.lwsp	s0,8(sp)
    15b8:	4901                	c.li	s2,0
    15ba:	854a                	c.mv	a0,s2
    15bc:	4492                	c.lwsp	s1,4(sp)
    15be:	4902                	c.lwsp	s2,0(sp)
    15c0:	0141                	c.addi	sp,16
    15c2:	8082                	c.jr	ra

000015c4 <main>:
    15c4:	7119                	c.addi16sp	sp,-128
    15c6:	ffbc07b7          	lui	a5,0xffbc0
    15ca:	de86                	c.swsp	ra,124(sp)
    15cc:	17fd                	c.addi	a5,-1
    15ce:	80140737          	lui	a4,0x80140
    15d2:	dca2                	c.swsp	s0,120(sp)
    15d4:	daa6                	c.swsp	s1,116(sp)
    15d6:	d8ca                	c.swsp	s2,112(sp)
    15d8:	d6ce                	c.swsp	s3,108(sp)
    15da:	d4d2                	c.swsp	s4,104(sp)
    15dc:	d2d6                	c.swsp	s5,100(sp)
    15de:	d0da                	c.swsp	s6,96(sp)
    15e0:	cede                	c.swsp	s7,92(sp)
    15e2:	e6a2                	c.fswsp	fs0,76(sp)
    15e4:	e4a6                	c.fswsp	fs1,72(sp)
    15e6:	1ef72023          	sw	a5,480(a4) # 801401e0 <_DATA_LMA_START+0x6013ca18>
    15ea:	4589                	c.li	a1,2
    15ec:	08c00513          	li	a0,140
    15f0:	1ef72223          	sw	a5,484(a4)
    15f4:	99cff0ef          	jal	ra,790 <analog_write_reg8>
    15f8:	4581                	c.li	a1,0
    15fa:	4529                	c.li	a0,10
    15fc:	994ff0ef          	jal	ra,790 <analog_write_reg8>
    1600:	03b00593          	li	a1,59
    1604:	00b00513          	li	a0,11
    1608:	988ff0ef          	jal	ra,790 <analog_write_reg8>
    160c:	00500513          	li	a0,5
    1610:	9c4ff0ef          	jal	ra,7d4 <analog_read_reg8>
    1614:	0f757593          	andi	a1,a0,247
    1618:	00500513          	li	a0,5
    161c:	974ff0ef          	jal	ra,790 <analog_write_reg8>
    1620:	00600513          	li	a0,6
    1624:	9b0ff0ef          	jal	ra,7d4 <analog_read_reg8>
    1628:	03e57593          	andi	a1,a0,62
    162c:	00600513          	li	a0,6
    1630:	960ff0ef          	jal	ra,790 <analog_write_reg8>
    1634:	04500593          	li	a1,69
    1638:	00100513          	li	a0,1
    163c:	954ff0ef          	jal	ra,790 <analog_write_reg8>
    1640:	04c00593          	li	a1,76
    1644:	01c00513          	li	a0,28
    1648:	948ff0ef          	jal	ra,790 <analog_write_reg8>
    164c:	801007b7          	lui	a5,0x80100
    1650:	44478703          	lb	a4,1092(a5) # 80100444 <_DATA_LMA_START+0x600fcc7c>
    1654:	801016b7          	lui	a3,0x80101
    1658:	0ff77713          	andi	a4,a4,255
    165c:	00e76713          	ori	a4,a4,14
    1660:	44e78223          	sb	a4,1092(a5)
    1664:	45878703          	lb	a4,1112(a5)
    1668:	03800513          	li	a0,56
    166c:	0ff77713          	andi	a4,a4,255
    1670:	00e76713          	ori	a4,a4,14
    1674:	44e78c23          	sb	a4,1112(a5)
    1678:	46c78703          	lb	a4,1132(a5)
    167c:	0ff77713          	andi	a4,a4,255
    1680:	00e76713          	ori	a4,a4,14
    1684:	46e78623          	sb	a4,1132(a5)
    1688:	48078703          	lb	a4,1152(a5)
    168c:	0ff77713          	andi	a4,a4,255
    1690:	00e76713          	ori	a4,a4,14
    1694:	48e78023          	sb	a4,1152(a5)
    1698:	49478703          	lb	a4,1172(a5)
    169c:	0ff77713          	andi	a4,a4,255
    16a0:	00e76713          	ori	a4,a4,14
    16a4:	48e78a23          	sb	a4,1172(a5)
    16a8:	4a878703          	lb	a4,1192(a5)
    16ac:	0ff77713          	andi	a4,a4,255
    16b0:	00e76713          	ori	a4,a4,14
    16b4:	4ae78423          	sb	a4,1192(a5)
    16b8:	4bc78703          	lb	a4,1212(a5)
    16bc:	0ff77713          	andi	a4,a4,255
    16c0:	00e76713          	ori	a4,a4,14
    16c4:	4ae78e23          	sb	a4,1212(a5)
    16c8:	4d078703          	lb	a4,1232(a5)
    16cc:	0ff77713          	andi	a4,a4,255
    16d0:	00e76713          	ori	a4,a4,14
    16d4:	4ce78823          	sb	a4,1232(a5)
    16d8:	83a68783          	lb	a5,-1990(a3) # 8010083a <_DATA_LMA_START+0x600fd072>
    16dc:	82068d23          	sb	zero,-1990(a3)
    16e0:	8f4ff0ef          	jal	ra,7d4 <analog_read_reg8>
    16e4:	00a00433          	add	s0,zero,a0
    16e8:	03900513          	li	a0,57
    16ec:	8e8ff0ef          	jal	ra,7d4 <analog_read_reg8>
    16f0:	84aa                	c.mv	s1,a0
    16f2:	4004745b          	bbs	s0,0,16fa <main+0x136>
    16f6:	61a0006f          	j	1d10 <main+0x74c>
    16fa:	0fe47593          	andi	a1,s0,254
    16fe:	0b90940b          	addigp	s0,35000 # 890b8 <g_pm_status_info>
    1702:	03800513          	li	a0,56
    1706:	4004f45b          	bbs	s1,0,170e <main+0x14a>
    170a:	5e60006f          	j	1cf0 <main+0x72c>
    170e:	4791                	c.li	a5,4
    1710:	00f40123          	sb	a5,2(s0)
    1714:	87cff0ef          	jal	ra,790 <analog_write_reg8>
    1718:	00100593          	li	a1,1
    171c:	07f00513          	li	a0,127
    1720:	870ff0ef          	jal	ra,790 <analog_write_reg8>
    1724:	06400513          	li	a0,100
    1728:	8acff0ef          	jal	ra,7d4 <analog_read_reg8>
    172c:	0c3527db          	bfoz	a5,a0,3,3
    1730:	00a400a3          	sb	a0,1(s0)
    1734:	00f40023          	sb	a5,0(s0)
    1738:	08800513          	li	a0,136
    173c:	898ff0ef          	jal	ra,7d4 <analog_read_reg8>
    1740:	be757c5b          	bbc	a0,7,1738 <main+0x174>
    1744:	a1cff0ef          	jal	ra,960 <pm_wait_bbpll_done>
    1748:	00244783          	lbu	a5,2(s0)
    174c:	0a87dc5b          	beqc	a5,8,1804 <main+0x240>
    1750:	80140737          	lui	a4,0x80140
    1754:	20a70783          	lb	a5,522(a4) # 8014020a <_DATA_LMA_START+0x6013ca42>
    1758:	0ff7f793          	andi	a5,a5,255
    175c:	00c7e793          	ori	a5,a5,12
    1760:	20f70523          	sb	a5,522(a4)
    1764:	00100793          	li	a5,1
    1768:	20f72023          	sw	a5,512(a4)
    176c:	801404b7          	lui	s1,0x80140
    1770:	1fd48783          	lb	a5,509(s1) # 801401fd <_DATA_LMA_START+0x6013ca35>
    1774:	0ff7f793          	andi	a5,a5,255
    1778:	0af0caab          	swgp	a5,34996 # 890b4 <g_chip_version>
    177c:	00244703          	lbu	a4,2(s0)
    1780:	04475c5b          	beqc	a4,4,17d8 <main+0x214>
    1784:	0ff00693          	li	a3,255
    1788:	04d78063          	beq	a5,a3,17c8 <main+0x204>
    178c:	08000593          	li	a1,128
    1790:	07d00513          	li	a0,125
    1794:	ffdfe0ef          	jal	ra,790 <analog_write_reg8>
    1798:	80140737          	lui	a4,0x80140
    179c:	06500793          	li	a5,101
    17a0:	1ef70a23          	sb	a5,500(a4) # 801401f4 <_DATA_LMA_START+0x6013ca2c>
    17a4:	1c872783          	lw	a5,456(a4)
    17a8:	1e070a23          	sb	zero,500(a4)
    17ac:	8bbd                	c.andi	a5,15
    17ae:	0037d55b          	beqc	a5,3,17b8 <main+0x1f4>
    17b2:	4725                	c.li	a4,9
    17b4:	04f77c63          	bgeu	a4,a5,180c <main+0x248>
    17b8:	801407b7          	lui	a5,0x80140
    17bc:	02000713          	li	a4,32
    17c0:	1ee787a3          	sb	a4,495(a5) # 801401ef <_DATA_LMA_START+0x6013ca27>
    17c4:	0000006f          	j	17c4 <main+0x200>
    17c8:	bc17625b          	bnec	a4,1,178c <main+0x1c8>
    17cc:	07d00513          	li	a0,125
    17d0:	08000593          	li	a1,128
    17d4:	0180006f          	j	17ec <main+0x228>
    17d8:	03900513          	li	a0,57
    17dc:	ff9fe0ef          	jal	ra,7d4 <analog_read_reg8>
    17e0:	00256593          	ori	a1,a0,2
    17e4:	0ff5f593          	andi	a1,a1,255
    17e8:	03900513          	li	a0,57
    17ec:	fa5fe0ef          	jal	ra,790 <analog_write_reg8>
    17f0:	2004a503          	lw	a0,512(s1)
    17f4:	001877b7          	lui	a5,0x187
    17f8:	a0078793          	addi	a5,a5,-1536 # 186a00 <FLASH_SIZE+0x86a00>
    17fc:	953e                	c.add	a0,a5
    17fe:	3edd                	c.jal	13f4 <pm_sleep_wakeup.constprop.2>
    1800:	f8dff06f          	j	178c <main+0x1c8>
    1804:	b79fe0ef          	jal	ra,37c <pm_stimer_recover>
    1808:	f65ff06f          	j	176c <main+0x1a8>
    180c:	00f00513          	li	a0,15
    1810:	fc5fe0ef          	jal	ra,7d4 <analog_read_reg8>
    1814:	03f57593          	andi	a1,a0,63
    1818:	0405e593          	ori	a1,a1,64
    181c:	00f00513          	li	a0,15
    1820:	f71fe0ef          	jal	ra,790 <analog_write_reg8>
    1824:	180c                	c.addi4spn	a1,sp,48
    1826:	1068                	c.addi4spn	a0,sp,44
    1828:	a2dff0ef          	jal	ra,1254 <flash_read_mid_uid_with_check>
    182c:	0ff57513          	andi	a0,a0,255
    1830:	0015545b          	beqc	a0,1,1838 <main+0x274>
    1834:	5880006f          	j	1dbc <main+0x7f8>
    1838:	02e14783          	lbu	a5,46(sp)
    183c:	474d                	c.li	a4,19
    183e:	0137e45b          	bnec	a5,19,1846 <main+0x282>
    1842:	5620006f          	j	1da4 <main+0x7e0>
    1846:	52f77f63          	bgeu	a4,a5,1d84 <main+0x7c0>
    184a:	4755                	c.li	a4,21
    184c:	0157e45b          	bnec	a5,21,1854 <main+0x290>
    1850:	51c0006f          	j	1d6c <main+0x7a8>
    1854:	4ce7ee63          	bltu	a5,a4,1d30 <main+0x76c>
    1858:	0167d45b          	beqc	a5,22,1860 <main+0x29c>
    185c:	5600006f          	j	1dbc <main+0x7f8>
    1860:	003fe537          	lui	a0,0x3fe
    1864:	0c050513          	addi	a0,a0,192 # 3fe0c0 <FLASH_SIZE+0x2fe0c0>
    1868:	ba5ff0ef          	jal	ra,140c <user_calib_adc_vref.constprop.9>
    186c:	003fe537          	lui	a0,0x3fe
    1870:	c99ff0ef          	jal	ra,1508 <user_calib_freq_offset.constprop.8>
    1874:	80140437          	lui	s0,0x80140
    1878:	b65ff0ef          	jal	ra,13dc <clock_init.constprop.10>
    187c:	30e40783          	lb	a5,782(s0) # 8014030e <_DATA_LMA_START+0x6013cb46>
    1880:	11000513          	li	a0,272
    1884:	0ff7f793          	andi	a5,a5,255
    1888:	0107e793          	ori	a5,a5,16
    188c:	30f40723          	sb	a5,782(s0)
    1890:	30a40783          	lb	a5,778(s0)
    1894:	0ef7f793          	andi	a5,a5,239
    1898:	30f40523          	sb	a5,778(s0)
    189c:	cc5ff0ef          	jal	ra,1560 <gpio_input_dis>
    18a0:	30e40783          	lb	a5,782(s0)
    18a4:	12000513          	li	a0,288
    18a8:	0ff7f793          	andi	a5,a5,255
    18ac:	0207e793          	ori	a5,a5,32
    18b0:	30f40723          	sb	a5,782(s0)
    18b4:	30a40783          	lb	a5,778(s0)
    18b8:	0df7f793          	andi	a5,a5,223
    18bc:	30f40523          	sb	a5,778(s0)
    18c0:	ca1ff0ef          	jal	ra,1560 <gpio_input_dis>
    18c4:	30e40783          	lb	a5,782(s0)
    18c8:	14000513          	li	a0,320
    18cc:	0ff7f793          	andi	a5,a5,255
    18d0:	0407e793          	ori	a5,a5,64
    18d4:	30f40723          	sb	a5,782(s0)
    18d8:	30a40783          	lb	a5,778(s0)
    18dc:	0bf7f793          	andi	a5,a5,191
    18e0:	30f40523          	sb	a5,778(s0)
    18e4:	c7dff0ef          	jal	ra,1560 <gpio_input_dis>
    18e8:	30e40783          	lb	a5,782(s0)
    18ec:	18000513          	li	a0,384
    18f0:	f807e793          	ori	a5,a5,-128
    18f4:	0ff7f793          	andi	a5,a5,255
    18f8:	30f40723          	sb	a5,782(s0)
    18fc:	30a40783          	lb	a5,778(s0)
    1900:	07f7f793          	andi	a5,a5,127
    1904:	30f40523          	sb	a5,778(s0)
    1908:	c59ff0ef          	jal	ra,1560 <gpio_input_dis>
    190c:	00089537          	lui	a0,0x89
    1910:	dfc50513          	addi	a0,a0,-516 # 88dfc <image_data+0xc00>
    1914:	0a6010ef          	jal	ra,29ba <puts>
    1918:	65a9                	c.lui	a1,0xa
    191a:	00089537          	lui	a0,0x89
    191e:	0585                	c.addi	a1,1
    1920:	e0050513          	addi	a0,a0,-512 # 88e00 <image_data+0xc04>
    1924:	078010ef          	jal	ra,299c <iprintf>
    1928:	00089537          	lui	a0,0x89
    192c:	7e400593          	li	a1,2020
    1930:	e1850513          	addi	a0,a0,-488 # 88e18 <image_data+0xc1c>
    1934:	068010ef          	jal	ra,299c <iprintf>
    1938:	000895b7          	lui	a1,0x89
    193c:	00089537          	lui	a0,0x89
    1940:	e3058593          	addi	a1,a1,-464 # 88e30 <image_data+0xc34>
    1944:	e3c50513          	addi	a0,a0,-452 # 88e3c <image_data+0xc40>
    1948:	054010ef          	jal	ra,299c <iprintf>
    194c:	000895b7          	lui	a1,0x89
    1950:	00089537          	lui	a0,0x89
    1954:	e6458593          	addi	a1,a1,-412 # 88e64 <image_data+0xc68>
    1958:	e6c50513          	addi	a0,a0,-404 # 88e6c <image_data+0xc70>
    195c:	040010ef          	jal	ra,299c <iprintf>
    1960:	8a1fe0ef          	jal	ra,200 <delay_ms.constprop.12>
    1964:	b0005073          	csrwi	mcycle,0
    1968:	b00025f3          	csrr	a1,mcycle
    196c:	6805                	c.lui	a6,0x1
    196e:	1fde160b          	addigp	a2,31228 # 881fc <image_data>
    1972:	c0080813          	addi	a6,a6,-1024 # c00 <dr_putchar+0x58>
    1976:	0555148b          	addigp	s1,75860 # 93054 <scratch_buffer+0x8000>
    197a:	0555150b          	addigp	a0,75860 # 93054 <scratch_buffer+0x8000>
    197e:	9832                	c.add	a6,a2
    1980:	00064683          	lbu	a3,0(a2)
    1984:	00164703          	lbu	a4,1(a2)
    1988:	00264783          	lbu	a5,2(a2)
    198c:	f8368693          	addi	a3,a3,-125
    1990:	f8570713          	addi	a4,a4,-123
    1994:	f8e78793          	addi	a5,a5,-114
    1998:	069e                	c.slli	a3,0x7
    199a:	071e                	c.slli	a4,0x7
    199c:	079e                	c.slli	a5,0x7
    199e:	08068693          	addi	a3,a3,128
    19a2:	08070713          	addi	a4,a4,128
    19a6:	08078793          	addi	a5,a5,128
    19aa:	86a1                	c.srai	a3,0x8
    19ac:	8721                	c.srai	a4,0x8
    19ae:	87a1                	c.srai	a5,0x8
    19b0:	00d50023          	sb	a3,0(a0)
    19b4:	00e500a3          	sb	a4,1(a0)
    19b8:	00f50123          	sb	a5,2(a0)
    19bc:	060d                	c.addi	a2,3
    19be:	050d                	c.addi	a0,3
    19c0:	fd0610e3          	bne	a2,a6,1980 <main+0x3bc>
    19c4:	b00027f3          	csrr	a5,mcycle
    19c8:	00089537          	lui	a0,0x89
    19cc:	40b785b3          	sub	a1,a5,a1
    19d0:	ea050513          	addi	a0,a0,-352 # 88ea0 <image_data+0xca4>
    19d4:	7c9000ef          	jal	ra,299c <iprintf>
    19d8:	829fe0ef          	jal	ra,200 <delay_ms.constprop.12>
    19dc:	b0005073          	csrwi	mcycle,0
    19e0:	b0002bf3          	csrr	s7,mcycle
    19e4:	5542930b          	addigp	t1,38228 # 89d54 <rgb_wt_buffer>
    19e8:	ca1a                	c.swsp	t1,20(sp)
    19ea:	02000313          	li	t1,32
    19ee:	c61a                	c.swsp	t1,12(sp)
    19f0:	0c909a8b          	addigp	s5,35016 # 890c8 <col_buffer>
    19f4:	4319                	c.li	t1,6
    19f6:	0554998b          	addigp	s3,43092 # 8b054 <scratch_buffer>
    19fa:	4b25                	c.li	s6,9
    19fc:	801f988b          	addigp	a7,-2048 # 80000 <_DATA_VMA_START>
    1a00:	4805                	c.li	a6,1
    1a02:	4789                	c.li	a5,2
    1a04:	4715                	c.li	a4,5
    1a06:	02000693          	li	a3,32
    1a0a:	821f960b          	addigp	a2,-2016 # 80020 <conv1_wt>
    1a0e:	02000593          	li	a1,32
    1a12:	0555150b          	addigp	a0,75860 # 93054 <scratch_buffer+0x8000>
    1a16:	c856                	c.swsp	s5,16(sp)
    1a18:	c44e                	c.swsp	s3,8(sp)
    1a1a:	c25a                	c.swsp	s6,4(sp)
    1a1c:	c01a                	c.swsp	t1,0(sp)
    1a1e:	26dd                	c.jal	1e04 <riscv_nn_conv_HWC_s8_s8_s8_RGB_sft_bias_fast>
    1a20:	b00025f3          	csrr	a1,mcycle
    1a24:	00089537          	lui	a0,0x89
    1a28:	417585b3          	sub	a1,a1,s7
    1a2c:	eb850513          	addi	a0,a0,-328 # 88eb8 <image_data+0xcbc>
    1a30:	76d000ef          	jal	ra,299c <iprintf>
    1a34:	fccfe0ef          	jal	ra,200 <delay_ms.constprop.12>
    1a38:	b0005073          	csrwi	mcycle,0
    1a3c:	b0002bf3          	csrr	s7,mcycle
    1a40:	65a1                	c.lui	a1,0x8
    1a42:	0554950b          	addigp	a0,43092 # 8b054 <scratch_buffer>
    1a46:	264d                	c.jal	1de8 <riscv_nn_relu_s8>
    1a48:	b00025f3          	csrr	a1,mcycle
    1a4c:	00089537          	lui	a0,0x89
    1a50:	417585b3          	sub	a1,a1,s7
    1a54:	ecc50513          	addi	a0,a0,-308 # 88ecc <image_data+0xcd0>
    1a58:	745000ef          	jal	ra,299c <iprintf>
    1a5c:	fa4fe0ef          	jal	ra,200 <delay_ms.constprop.12>
    1a60:	b0005073          	csrwi	mcycle,0
    1a64:	b0002bf3          	csrr	s7,mcycle
    1a68:	4881                	c.li	a7,0
    1a6a:	4841                	c.li	a6,16
    1a6c:	4789                	c.li	a5,2
    1a6e:	4701                	c.li	a4,0
    1a70:	468d                	c.li	a3,3
    1a72:	02000613          	li	a2,32
    1a76:	02000593          	li	a1,32
    1a7a:	0554950b          	addigp	a0,43092 # 8b054 <scratch_buffer>
    1a7e:	c026                	c.swsp	s1,0(sp)
    1a80:	2bd000ef          	jal	ra,253c <riscv_nn_maxpool_HWC_s8>
    1a84:	b00025f3          	csrr	a1,mcycle
    1a88:	00089537          	lui	a0,0x89
    1a8c:	417585b3          	sub	a1,a1,s7
    1a90:	ee050513          	addi	a0,a0,-288 # 88ee0 <image_data+0xce4>
    1a94:	709000ef          	jal	ra,299c <iprintf>
    1a98:	f68fe0ef          	jal	ra,200 <delay_ms.constprop.12>
    1a9c:	b0005073          	csrwi	mcycle,0
    1aa0:	b0002bf3          	csrr	s7,mcycle
    1aa4:	4341                	c.li	t1,16
    1aa6:	c81a                	c.swsp	t1,16(sp)
    1aa8:	4311                	c.li	t1,4
    1aaa:	c21a                	c.swsp	t1,4(sp)
    1aac:	1800130b          	addigp	t1,384 # 80980 <conv2_bias>
    1ab0:	4885                	c.li	a7,1
    1ab2:	4809                	c.li	a6,2
    1ab4:	4795                	c.li	a5,5
    1ab6:	4741                	c.li	a4,16
    1ab8:	1900168b          	addigp	a3,400 # 80990 <conv2_wt>
    1abc:	02000613          	li	a2,32
    1ac0:	45c1                	c.li	a1,16
    1ac2:	0555150b          	addigp	a0,75860 # 93054 <scratch_buffer+0x8000>
    1ac6:	cc02                	c.swsp	zero,24(sp)
    1ac8:	ca56                	c.swsp	s5,20(sp)
    1aca:	c64e                	c.swsp	s3,12(sp)
    1acc:	c45a                	c.swsp	s6,8(sp)
    1ace:	c01a                	c.swsp	t1,0(sp)
    1ad0:	518000ef          	jal	ra,1fe8 <riscv_nn_conv_HWC_s8_s8_s8_sft_bias_fast>
    1ad4:	b00025f3          	csrr	a1,mcycle
    1ad8:	00089537          	lui	a0,0x89
    1adc:	417585b3          	sub	a1,a1,s7
    1ae0:	ef450513          	addi	a0,a0,-268 # 88ef4 <image_data+0xcf8>
    1ae4:	6b9000ef          	jal	ra,299c <iprintf>
    1ae8:	f18fe0ef          	jal	ra,200 <delay_ms.constprop.12>
    1aec:	b0005073          	csrwi	mcycle,0
    1af0:	b0002b73          	csrr	s6,mcycle
    1af4:	6585                	c.lui	a1,0x1
    1af6:	0554950b          	addigp	a0,43092 # 8b054 <scratch_buffer>
    1afa:	24fd                	c.jal	1de8 <riscv_nn_relu_s8>
    1afc:	b00025f3          	csrr	a1,mcycle
    1b00:	00089537          	lui	a0,0x89
    1b04:	416585b3          	sub	a1,a1,s6
    1b08:	f0850513          	addi	a0,a0,-248 # 88f08 <image_data+0xd0c>
    1b0c:	691000ef          	jal	ra,299c <iprintf>
    1b10:	ef0fe0ef          	jal	ra,200 <delay_ms.constprop.12>
    1b14:	b0005073          	csrwi	mcycle,0
    1b18:	b0002b73          	csrr	s6,mcycle
    1b1c:	0c90988b          	addigp	a7,35016 # 890c8 <col_buffer>
    1b20:	4821                	c.li	a6,8
    1b22:	4789                	c.li	a5,2
    1b24:	4701                	c.li	a4,0
    1b26:	468d                	c.li	a3,3
    1b28:	4641                	c.li	a2,16
    1b2a:	45c1                	c.li	a1,16
    1b2c:	0554950b          	addigp	a0,43092 # 8b054 <scratch_buffer>
    1b30:	00912023          	sw	s1,0(sp)
    1b34:	209000ef          	jal	ra,253c <riscv_nn_maxpool_HWC_s8>
    1b38:	b00025f3          	csrr	a1,mcycle
    1b3c:	00089537          	lui	a0,0x89
    1b40:	416585b3          	sub	a1,a1,s6
    1b44:	f1c50513          	addi	a0,a0,-228 # 88f1c <image_data+0xd20>
    1b48:	655000ef          	jal	ra,299c <iprintf>
    1b4c:	eb4fe0ef          	jal	ra,200 <delay_ms.constprop.12>
    1b50:	b0005073          	csrwi	mcycle,0
    1b54:	b0002b73          	csrr	s6,mcycle
    1b58:	4321                	c.li	t1,8
    1b5a:	c81a                	c.swsp	t1,16(sp)
    1b5c:	431d                	c.li	t1,7
    1b5e:	c41a                	c.swsp	t1,8(sp)
    1b60:	4305                	c.li	t1,1
    1b62:	c21a                	c.swsp	t1,4(sp)
    1b64:	3906130b          	addigp	t1,13200 # 83b90 <conv3_bias>
    1b68:	4885                	c.li	a7,1
    1b6a:	4809                	c.li	a6,2
    1b6c:	4795                	c.li	a5,5
    1b6e:	02000713          	li	a4,32
    1b72:	3b06168b          	addigp	a3,13232 # 83bb0 <conv3_wt>
    1b76:	4641                	c.li	a2,16
    1b78:	45a1                	c.li	a1,8
    1b7a:	0555150b          	addigp	a0,75860 # 93054 <scratch_buffer+0x8000>
    1b7e:	cc02                	c.swsp	zero,24(sp)
    1b80:	ca56                	c.swsp	s5,20(sp)
    1b82:	c64e                	c.swsp	s3,12(sp)
    1b84:	c01a                	c.swsp	t1,0(sp)
    1b86:	218d                	c.jal	1fe8 <riscv_nn_conv_HWC_s8_s8_s8_sft_bias_fast>
    1b88:	b00025f3          	csrr	a1,mcycle
    1b8c:	00089537          	lui	a0,0x89
    1b90:	416585b3          	sub	a1,a1,s6
    1b94:	f3050513          	addi	a0,a0,-208 # 88f30 <image_data+0xd34>
    1b98:	605000ef          	jal	ra,299c <iprintf>
    1b9c:	e64fe0ef          	jal	ra,200 <delay_ms.constprop.12>
    1ba0:	b0005073          	csrwi	mcycle,0
    1ba4:	b0002af3          	csrr	s5,mcycle
    1ba8:	6585                	c.lui	a1,0x1
    1baa:	80058593          	addi	a1,a1,-2048 # 800 <analog_read_reg8+0x2c>
    1bae:	0554950b          	addigp	a0,43092 # 8b054 <scratch_buffer>
    1bb2:	2c1d                	c.jal	1de8 <riscv_nn_relu_s8>
    1bb4:	b00025f3          	csrr	a1,mcycle
    1bb8:	00089537          	lui	a0,0x89
    1bbc:	415585b3          	sub	a1,a1,s5
    1bc0:	f4450513          	addi	a0,a0,-188 # 88f44 <image_data+0xd48>
    1bc4:	5d9000ef          	jal	ra,299c <iprintf>
    1bc8:	e38fe0ef          	jal	ra,200 <delay_ms.constprop.12>
    1bcc:	b0005073          	csrwi	mcycle,0
    1bd0:	b0002af3          	csrr	s5,mcycle
    1bd4:	0c90988b          	addigp	a7,35016 # 890c8 <col_buffer>
    1bd8:	4811                	c.li	a6,4
    1bda:	4789                	c.li	a5,2
    1bdc:	4701                	c.li	a4,0
    1bde:	468d                	c.li	a3,3
    1be0:	02000613          	li	a2,32
    1be4:	45a1                	c.li	a1,8
    1be6:	0554950b          	addigp	a0,43092 # 8b054 <scratch_buffer>
    1bea:	c026                	c.swsp	s1,0(sp)
    1bec:	151000ef          	jal	ra,253c <riscv_nn_maxpool_HWC_s8>
    1bf0:	b00025f3          	csrr	a1,mcycle
    1bf4:	00089537          	lui	a0,0x89
    1bf8:	415585b3          	sub	a1,a1,s5
    1bfc:	f5850513          	addi	a0,a0,-168 # 88f58 <image_data+0xd5c>
    1c00:	59d000ef          	jal	ra,299c <iprintf>
    1c04:	dfcfe0ef          	jal	ra,200 <delay_ms.constprop.12>
    1c08:	b0005073          	csrwi	mcycle,0
    1c0c:	b0002973          	csrr	s2,mcycle
    1c10:	5482988b          	addigp	a7,38216 # 89d48 <output_data>
    1c14:	5b0c180b          	addigp	a6,26032 # 86db0 <ip1_bias>
    1c18:	47a1                	c.li	a5,8
    1c1a:	4705                	c.li	a4,1
    1c1c:	46a9                	c.li	a3,10
    1c1e:	20000613          	li	a2,512
    1c22:	5bcc158b          	addigp	a1,26044 # 86dbc <ip1_wt>
    1c26:	0555150b          	addigp	a0,75860 # 93054 <scratch_buffer+0x8000>
    1c2a:	c04e                	c.swsp	s3,0(sp)
    1c2c:	598000ef          	jal	ra,21c4 <riscv_nn_fc_s8_s8_s8_sft_bias_fast>
    1c30:	b00025f3          	csrr	a1,mcycle
    1c34:	00089537          	lui	a0,0x89
    1c38:	412585b3          	sub	a1,a1,s2
    1c3c:	f6c50513          	addi	a0,a0,-148 # 88f6c <image_data+0xd70>
    1c40:	55d000ef          	jal	ra,299c <iprintf>
    1c44:	dbcfe0ef          	jal	ra,200 <delay_ms.constprop.12>
    1c48:	b0005073          	csrwi	mcycle,0
    1c4c:	b0002473          	csrr	s0,mcycle
    1c50:	5482960b          	addigp	a2,38216 # 89d48 <output_data>
    1c54:	00a00593          	li	a1,10
    1c58:	5482950b          	addigp	a0,38216 # 89d48 <output_data>
    1c5c:	339000ef          	jal	ra,2794 <riscv_nn_softmax_s8_fast>
    1c60:	b00025f3          	csrr	a1,mcycle
    1c64:	00089537          	lui	a0,0x89
    1c68:	408585b3          	sub	a1,a1,s0
    1c6c:	f7c50513          	addi	a0,a0,-132 # 88f7c <image_data+0xd80>
    1c70:	52d000ef          	jal	ra,299c <iprintf>
    1c74:	d8cfe0ef          	jal	ra,200 <delay_ms.constprop.12>
    1c78:	000887b7          	lui	a5,0x88
    1c7c:	1bc7a407          	flw	fs0,444(a5) # 881bc <ip1_wt+0x1400>
    1c80:	000887b7          	lui	a5,0x88
    1c84:	1c07a487          	flw	fs1,448(a5) # 881c0 <ip1_wt+0x1404>
    1c88:	5482990b          	addigp	s2,38216 # 89d48 <output_data>
    1c8c:	1d5e140b          	addigp	s0,31188 # 881d4 <cifar10_label>
    1c90:	00a90a93          	addi	s5,s2,10
    1c94:	5482948b          	addigp	s1,38216 # 89d48 <output_data>
    1c98:	00089a37          	lui	s4,0x89
    1c9c:	00048983          	lb	s3,0(s1)
    1ca0:	00440413          	addi	s0,s0,4
    1ca4:	d009f553          	fcvt.s.w	fa0,s3
    1ca8:	18857553          	fdiv.s	fa0,fa0,fs0
    1cac:	10957553          	fmul.s	fa0,fa0,fs1
    1cb0:	3dd000ef          	jal	ra,288c <__extendsfdf2>
    1cb4:	ffc42683          	lw	a3,-4(s0)
    1cb8:	872a                	c.mv	a4,a0
    1cba:	87ae                	c.mv	a5,a1
    1cbc:	864e                	c.mv	a2,s3
    1cbe:	412485b3          	sub	a1,s1,s2
    1cc2:	f94a0513          	addi	a0,s4,-108 # 88f94 <image_data+0xd98>
    1cc6:	0485                	c.addi	s1,1
    1cc8:	4d5000ef          	jal	ra,299c <iprintf>
    1ccc:	d34fe0ef          	jal	ra,200 <delay_ms.constprop.12>
    1cd0:	fc9a96e3          	bne	s5,s1,1c9c <main+0x6d8>
    1cd4:	50f6                	c.lwsp	ra,124(sp)
    1cd6:	5466                	c.lwsp	s0,120(sp)
    1cd8:	54d6                	c.lwsp	s1,116(sp)
    1cda:	5946                	c.lwsp	s2,112(sp)
    1cdc:	59b6                	c.lwsp	s3,108(sp)
    1cde:	5a26                	c.lwsp	s4,104(sp)
    1ce0:	5a96                	c.lwsp	s5,100(sp)
    1ce2:	5b06                	c.lwsp	s6,96(sp)
    1ce4:	4bf6                	c.lwsp	s7,92(sp)
    1ce6:	6436                	c.flwsp	fs0,76(sp)
    1ce8:	64a6                	c.flwsp	fs1,72(sp)
    1cea:	4501                	c.li	a0,0
    1cec:	6109                	c.addi16sp	sp,128
    1cee:	8082                	c.jr	ra
    1cf0:	00100793          	li	a5,1
    1cf4:	00f40123          	sb	a5,2(s0)
    1cf8:	a99fe0ef          	jal	ra,790 <analog_write_reg8>
    1cfc:	0014e593          	ori	a1,s1,1
    1d00:	0ff5f593          	andi	a1,a1,255
    1d04:	03900513          	li	a0,57
    1d08:	a89fe0ef          	jal	ra,790 <analog_write_reg8>
    1d0c:	a0dff06f          	j	1718 <main+0x154>
    1d10:	07f00513          	li	a0,127
    1d14:	ac1fe0ef          	jal	ra,7d4 <analog_read_reg8>
    1d18:	0b90940b          	addigp	s0,35000 # 890b8 <g_pm_status_info>
    1d1c:	0405725b          	bbc	a0,0,1d60 <main+0x79c>
    1d20:	4214f45b          	bbs	s1,1,1d48 <main+0x784>
    1d24:	01000793          	li	a5,16
    1d28:	00f40123          	sb	a5,2(s0)
    1d2c:	9edff06f          	j	1718 <main+0x154>
    1d30:	000fe537          	lui	a0,0xfe
    1d34:	0c050513          	addi	a0,a0,192 # fe0c0 <_STACK_TOP+0x5e0c0>
    1d38:	ed4ff0ef          	jal	ra,140c <user_calib_adc_vref.constprop.9>
    1d3c:	000fe537          	lui	a0,0xfe
    1d40:	fc8ff0ef          	jal	ra,1508 <user_calib_freq_offset.constprop.8>
    1d44:	b31ff06f          	j	1874 <main+0x2b0>
    1d48:	02000793          	li	a5,32
    1d4c:	0fd4f593          	andi	a1,s1,253
    1d50:	03900513          	li	a0,57
    1d54:	00f40123          	sb	a5,2(s0)
    1d58:	a39fe0ef          	jal	ra,790 <analog_write_reg8>
    1d5c:	9bdff06f          	j	1718 <main+0x154>
    1d60:	00800793          	li	a5,8
    1d64:	00f40123          	sb	a5,2(s0)
    1d68:	9b1ff06f          	j	1718 <main+0x154>
    1d6c:	001fe537          	lui	a0,0x1fe
    1d70:	0c050513          	addi	a0,a0,192 # 1fe0c0 <FLASH_SIZE+0xfe0c0>
    1d74:	e98ff0ef          	jal	ra,140c <user_calib_adc_vref.constprop.9>
    1d78:	001fe537          	lui	a0,0x1fe
    1d7c:	f8cff0ef          	jal	ra,1508 <user_calib_freq_offset.constprop.8>
    1d80:	af5ff06f          	j	1874 <main+0x2b0>
    1d84:	0507d25b          	beqc	a5,16,1dc8 <main+0x804>
    1d88:	0317ea5b          	bnec	a5,17,1dbc <main+0x7f8>
    1d8c:	0001e537          	lui	a0,0x1e
    1d90:	0c050513          	addi	a0,a0,192 # 1e0c0 <BIN_SIZE+0x1183c>
    1d94:	e78ff0ef          	jal	ra,140c <user_calib_adc_vref.constprop.9>
    1d98:	0001e537          	lui	a0,0x1e
    1d9c:	f6cff0ef          	jal	ra,1508 <user_calib_freq_offset.constprop.8>
    1da0:	ad5ff06f          	j	1874 <main+0x2b0>
    1da4:	0007e537          	lui	a0,0x7e
    1da8:	0c050513          	addi	a0,a0,192 # 7e0c0 <BIN_SIZE+0x7183c>
    1dac:	e60ff0ef          	jal	ra,140c <user_calib_adc_vref.constprop.9>
    1db0:	0007e537          	lui	a0,0x7e
    1db4:	f54ff0ef          	jal	ra,1508 <user_calib_freq_offset.constprop.8>
    1db8:	abdff06f          	j	1874 <main+0x2b0>
    1dbc:	00000513          	li	a0,0
    1dc0:	e4cff0ef          	jal	ra,140c <user_calib_adc_vref.constprop.9>
    1dc4:	ab1ff06f          	j	1874 <main+0x2b0>
    1dc8:	0000e537          	lui	a0,0xe
    1dcc:	0c050513          	addi	a0,a0,192 # e0c0 <BIN_SIZE+0x183c>
    1dd0:	e3cff0ef          	jal	ra,140c <user_calib_adc_vref.constprop.9>
    1dd4:	0000e537          	lui	a0,0xe
    1dd8:	f30ff0ef          	jal	ra,1508 <user_calib_freq_offset.constprop.8>
    1ddc:	bc61                	c.j	1874 <main+0x2b0>
    1dde:	0001                	c.nop

00001de0 <default_irq_entry>:
    1de0:	a001                	c.j	1de0 <default_irq_entry>

00001de2 <trap_handler>:
    1de2:	a001                	c.j	1de2 <trap_handler>
    1de4:	0001                	c.nop
	...

00001de8 <riscv_nn_relu_s8>:
    1de8:	cd81                	c.beqz	a1,1e00 <riscv_nn_relu_s8+0x18>
    1dea:	95aa                	c.add	a1,a0
    1dec:	00050783          	lb	a5,0(a0) # e000 <BIN_SIZE+0x177c>
    1df0:	0007d463          	bgez	a5,1df8 <riscv_nn_relu_s8+0x10>
    1df4:	00050023          	sb	zero,0(a0)
    1df8:	00150513          	addi	a0,a0,1
    1dfc:	feb518e3          	bne	a0,a1,1dec <riscv_nn_relu_s8+0x4>
    1e00:	8082                	c.jr	ra
	...

00001e04 <riscv_nn_conv_HWC_s8_s8_s8_RGB_sft_bias_fast>:
    1e04:	7119                	c.addi16sp	sp,-128
    1e06:	dca6                	c.swsp	s1,120(sp)
    1e08:	08015483          	lhu	s1,128(sp)
    1e0c:	c8ee                	c.swsp	s11,80(sp)
    1e0e:	cc26                	c.swsp	s1,24(sp)
    1e10:	08415483          	lhu	s1,132(sp)
    1e14:	dea2                	c.swsp	s0,124(sp)
    1e16:	daca                	c.swsp	s2,116(sp)
    1e18:	d8ce                	c.swsp	s3,112(sp)
    1e1a:	d6d2                	c.swsp	s4,108(sp)
    1e1c:	d4d6                	c.swsp	s5,104(sp)
    1e1e:	d2da                	c.swsp	s6,100(sp)
    1e20:	d0de                	c.swsp	s7,96(sp)
    1e22:	cee2                	c.swsp	s8,92(sp)
    1e24:	cce6                	c.swsp	s9,88(sp)
    1e26:	caea                	c.swsp	s10,84(sp)
    1e28:	ce26                	c.swsp	s1,28(sp)
    1e2a:	c4c6                	c.swsp	a7,72(sp)
    1e2c:	08c15d83          	lhu	s11,140(sp)
    1e30:	18068c63          	beqz	a3,1fc8 <riscv_nn_conv_HWC_s8_s8_s8_RGB_sft_bias_fast+0x1c4>
    1e34:	8e2e                	c.mv	t3,a1
    1e36:	8c3a                	c.mv	s8,a4
    1e38:	4585                	c.li	a1,1
    1e3a:	873e                	c.mv	a4,a5
    1e3c:	fff48793          	addi	a5,s1,-1
    1e40:	00f594b3          	sll	s1,a1,a5
    1e44:	c826                	c.swsp	s1,16(sp)
    1e46:	180d8163          	beqz	s11,1fc8 <riscv_nn_conv_HWC_s8_s8_s8_RGB_sft_bias_fast+0x1c4>
    1e4a:	89c2                	c.mv	s3,a6
    1e4c:	0bce0edb          	lea.h	t4,t3,t3
    1e50:	033e84b3          	mul	s1,t4,s3
    1e54:	03c707b3          	mul	a5,a4,t3
    1e58:	038c0833          	mul	a6,s8,s8
    1e5c:	8cb6                	c.mv	s9,a3
    1e5e:	16fd                	c.addi	a3,-1
    1e60:	8d46                	c.mv	s10,a7
    1e62:	40f007b3          	neg	a5,a5
    1e66:	3c06a6db          	bfoz	a3,a3,15,0
    1e6a:	0885                	c.addi	a7,1
    1e6c:	c2a6                	c.swsp	s1,68(sp)
    1e6e:	0b0804db          	lea.h	s1,a6,a6
    1e72:	8f99                	c.sub	a5,a4
    1e74:	da26                	c.swsp	s1,52(sp)
    1e76:	011684b3          	add	s1,a3,a7
    1e7a:	0af787db          	lea.h	a5,a5,a5
    1e7e:	de26                	c.swsp	s1,60(sp)
    1e80:	40e004b3          	neg	s1,a4
    1e84:	8332                	c.mv	t1,a2
    1e86:	dc26                	c.swsp	s1,56(sp)
    1e88:	fffc0613          	addi	a2,s8,-1
    1e8c:	00f504b3          	add	s1,a0,a5
    1e90:	3c06265b          	bfoz	a2,a2,15,0
    1e94:	8d99                	c.sub	a1,a4
    1e96:	c0a6                	c.swsp	s1,64(sp)
    1e98:	0b3984db          	lea.h	s1,s3,s3
    1e9c:	ca26                	c.swsp	s1,20(sp)
    1e9e:	00c584b3          	add	s1,a1,a2
    1ea2:	d826                	c.swsp	s1,48(sp)
    1ea4:	0b8c0f5b          	lea.h	t5,s8,s8
    1ea8:	fff64493          	not	s1,a2
    1eac:	c61a                	c.swsp	t1,12(sp)
    1eae:	d026                	c.swsp	s1,32(sp)
    1eb0:	4486                	c.lwsp	s1,64(sp)
    1eb2:	5342                	c.lwsp	t1,48(sp)
    1eb4:	d426                	c.swsp	s1,40(sp)
    1eb6:	44a6                	c.lwsp	s1,72(sp)
    1eb8:	5922                	c.lwsp	s2,40(sp)
    1eba:	409d04b3          	sub	s1,s10,s1
    1ebe:	d202                	c.swsp	zero,36(sp)
    1ec0:	d602                	c.swsp	zero,44(sp)
    1ec2:	c6a6                	c.swsp	s1,76(sp)
    1ec4:	5492                	c.lwsp	s1,36(sp)
    1ec6:	4536                	c.lwsp	a0,76(sp)
    1ec8:	039484b3          	mul	s1,s1,s9
    1ecc:	53e2                	c.lwsp	t2,56(sp)
    1ece:	55c2                	c.lwsp	a1,48(sp)
    1ed0:	94aa                	c.add	s1,a0
    1ed2:	452a                	c.lwsp	a0,136(sp)
    1ed4:	4a01                	c.li	s4,0
    1ed6:	94aa                	c.add	s1,a0
    1ed8:	000d0883          	lb	a7,0(s10)
    1edc:	4462                	c.lwsp	s0,24(sp)
    1ede:	008898b3          	sll	a7,a7,s0
    1ee2:	4442                	c.lwsp	s0,16(sp)
    1ee4:	98a2                	c.add	a7,s0
    1ee6:	020c0f63          	beqz	s8,1f24 <riscv_nn_conv_HWC_s8_s8_s8_RGB_sft_bias_fast+0x120>
    1eea:	5402                	c.lwsp	s0,32(sp)
    1eec:	4832                	c.lwsp	a6,12(sp)
    1eee:	00640633          	add	a2,s0,t1
    1ef2:	854a                	c.mv	a0,s2
    1ef4:	02064263          	bltz	a2,1f18 <riscv_nn_conv_HWC_s8_s8_s8_RGB_sft_bias_fast+0x114>
    1ef8:	03c65063          	bge	a2,t3,1f18 <riscv_nn_conv_HWC_s8_s8_s8_RGB_sft_bias_fast+0x114>
    1efc:	86c2                	c.mv	a3,a6
    1efe:	872a                	c.mv	a4,a0
    1f00:	007007b3          	add	a5,zero,t2
    1f04:	0007c463          	bltz	a5,1f0c <riscv_nn_conv_HWC_s8_s8_s8_RGB_sft_bias_fast+0x108>
    1f08:	05c7ce63          	blt	a5,t3,1f64 <riscv_nn_conv_HWC_s8_s8_s8_RGB_sft_bias_fast+0x160>
    1f0c:	0785                	c.addi	a5,1
    1f0e:	070d                	c.addi	a4,3
    1f10:	00368693          	addi	a3,a3,3
    1f14:	feb798e3          	bne	a5,a1,1f04 <riscv_nn_conv_HWC_s8_s8_s8_RGB_sft_bias_fast+0x100>
    1f18:	0605                	c.addi	a2,1
    1f1a:	9576                	c.add	a0,t4
    1f1c:	01e80833          	add	a6,a6,t5
    1f20:	fc661ae3          	bne	a2,t1,1ef4 <riscv_nn_conv_HWC_s8_s8_s8_RGB_sft_bias_fast+0xf0>
    1f24:	01c12403          	lw	s0,28(sp)
    1f28:	4088d8b3          	sra	a7,a7,s0
    1f2c:	f8000413          	li	s0,-128
    1f30:	0088d463          	bge	a7,s0,1f38 <riscv_nn_conv_HWC_s8_s8_s8_RGB_sft_bias_fast+0x134>
    1f34:	f8000893          	li	a7,-128
    1f38:	07f00413          	li	s0,127
    1f3c:	01145463          	bge	s0,a7,1f44 <riscv_nn_conv_HWC_s8_s8_s8_RGB_sft_bias_fast+0x140>
    1f40:	07f00893          	li	a7,127
    1f44:	4552                	c.lwsp	a0,20(sp)
    1f46:	001a0793          	addi	a5,s4,1
    1f4a:	01148023          	sb	a7,0(s1)
    1f4e:	3c07a7db          	bfoz	a5,a5,15,0
    1f52:	94e6                	c.add	s1,s9
    1f54:	992a                	c.add	s2,a0
    1f56:	95ce                	c.add	a1,s3
    1f58:	93ce                	c.add	t2,s3
    1f5a:	02fd8d63          	beq	s11,a5,1f94 <riscv_nn_conv_HWC_s8_s8_s8_RGB_sft_bias_fast+0x190>
    1f5e:	8a3e                	c.mv	s4,a5
    1f60:	f79ff06f          	j	1ed8 <riscv_nn_conv_HWC_s8_s8_s8_RGB_sft_bias_fast+0xd4>
    1f64:	00070283          	lb	t0,0(a4)
    1f68:	00068b83          	lb	s7,0(a3)
    1f6c:	00170f83          	lb	t6,1(a4)
    1f70:	00168b03          	lb	s6,1(a3)
    1f74:	00270403          	lb	s0,2(a4)
    1f78:	00268a83          	lb	s5,2(a3)
    1f7c:	037282b3          	mul	t0,t0,s7
    1f80:	036f8fb3          	mul	t6,t6,s6
    1f84:	03540433          	mul	s0,s0,s5
    1f88:	92c6                	c.add	t0,a7
    1f8a:	005f88b3          	add	a7,t6,t0
    1f8e:	98a2                	c.add	a7,s0
    1f90:	f7dff06f          	j	1f0c <riscv_nn_conv_HWC_s8_s8_s8_RGB_sft_bias_fast+0x108>
    1f94:	5512                	c.lwsp	a0,36(sp)
    1f96:	4416                	c.lwsp	s0,68(sp)
    1f98:	956e                	c.add	a0,s11
    1f9a:	d22a                	c.swsp	a0,36(sp)
    1f9c:	5522                	c.lwsp	a0,40(sp)
    1f9e:	54b2                	c.lwsp	s1,44(sp)
    1fa0:	9522                	c.add	a0,s0
    1fa2:	00148793          	addi	a5,s1,1
    1fa6:	d42a                	c.swsp	a0,40(sp)
    1fa8:	3c07a7db          	bfoz	a5,a5,15,0
    1fac:	934e                	c.add	t1,s3
    1fae:	009a0563          	beq	s4,s1,1fb8 <riscv_nn_conv_HWC_s8_s8_s8_RGB_sft_bias_fast+0x1b4>
    1fb2:	892a                	c.mv	s2,a0
    1fb4:	d63e                	c.swsp	a5,44(sp)
    1fb6:	b739                	c.j	1ec4 <riscv_nn_conv_HWC_s8_s8_s8_RGB_sft_bias_fast+0xc0>
    1fb8:	44b2                	c.lwsp	s1,12(sp)
    1fba:	5552                	c.lwsp	a0,52(sp)
    1fbc:	0d05                	c.addi	s10,1
    1fbe:	94aa                	c.add	s1,a0
    1fc0:	c626                	c.swsp	s1,12(sp)
    1fc2:	54f2                	c.lwsp	s1,60(sp)
    1fc4:	ee9d16e3          	bne	s10,s1,1eb0 <riscv_nn_conv_HWC_s8_s8_s8_RGB_sft_bias_fast+0xac>
    1fc8:	5476                	c.lwsp	s0,124(sp)
    1fca:	54e6                	c.lwsp	s1,120(sp)
    1fcc:	5956                	c.lwsp	s2,116(sp)
    1fce:	59c6                	c.lwsp	s3,112(sp)
    1fd0:	5a36                	c.lwsp	s4,108(sp)
    1fd2:	5aa6                	c.lwsp	s5,104(sp)
    1fd4:	5b16                	c.lwsp	s6,100(sp)
    1fd6:	5b86                	c.lwsp	s7,96(sp)
    1fd8:	4c76                	c.lwsp	s8,92(sp)
    1fda:	4ce6                	c.lwsp	s9,88(sp)
    1fdc:	4d56                	c.lwsp	s10,84(sp)
    1fde:	4dc6                	c.lwsp	s11,80(sp)
    1fe0:	4501                	c.li	a0,0
    1fe2:	6109                	c.addi16sp	sp,128
    1fe4:	8082                	c.jr	ra
	...

00001fe8 <riscv_nn_conv_HWC_s8_s8_s8_sft_bias_fast>:
    1fe8:	7159                	c.addi16sp	sp,-112
    1fea:	d4a6                	c.swsp	s1,104(sp)
    1fec:	07415483          	lhu	s1,116(sp)
    1ff0:	8332                	c.mv	t1,a2
    1ff2:	ccd6                	c.swsp	s5,88(sp)
    1ff4:	8a0d                	c.andi	a2,3
    1ff6:	8aba                	c.mv	s5,a4
    1ff8:	8b05                	c.andi	a4,1
    1ffa:	c2ea                	c.swsp	s10,68(sp)
    1ffc:	c0ee                	c.swsp	s11,64(sp)
    1ffe:	8e59                	c.or	a2,a4
    2000:	d6a2                	c.swsp	s0,108(sp)
    2002:	d2ca                	c.swsp	s2,100(sp)
    2004:	d0ce                	c.swsp	s3,96(sp)
    2006:	ced2                	c.swsp	s4,92(sp)
    2008:	cada                	c.swsp	s6,84(sp)
    200a:	c8de                	c.swsp	s7,80(sp)
    200c:	c6e2                	c.swsp	s8,76(sp)
    200e:	c4e6                	c.swsp	s9,72(sp)
    2010:	c826                	c.swsp	s1,16(sp)
    2012:	07815d83          	lhu	s11,120(sp)
    2016:	08015d03          	lhu	s10,128(sp)
    201a:	1a061363          	bnez	a2,21c0 <riscv_nn_conv_HWC_s8_s8_s8_sft_bias_fast+0x1d8>
    201e:	180a8163          	beqz	s5,21a0 <riscv_nn_conv_HWC_s8_s8_s8_sft_bias_fast+0x1b8>
    2022:	8c3e                	c.mv	s8,a5
    2024:	4605                	c.li	a2,1
    2026:	fffd8793          	addi	a5,s11,-1
    202a:	00f614b3          	sll	s1,a2,a5
    202e:	c426                	c.swsp	s1,8(sp)
    2030:	160d0863          	beqz	s10,21a0 <riscv_nn_conv_HWC_s8_s8_s8_sft_bias_fast+0x1b8>
    2034:	8742                	c.mv	a4,a6
    2036:	02b807b3          	mul	a5,a6,a1
    203a:	038c0833          	mul	a6,s8,s8
    203e:	8f2e                	c.mv	t5,a1
    2040:	02b885b3          	mul	a1,a7,a1
    2044:	026804b3          	mul	s1,a6,t1
    2048:	40f007b3          	neg	a5,a5
    204c:	8f99                	c.sub	a5,a4
    204e:	d826                	c.swsp	s1,48(sp)
    2050:	026584b3          	mul	s1,a1,t1
    2054:	026787b3          	mul	a5,a5,t1
    2058:	40e00433          	neg	s0,a4
    205c:	de26                	c.swsp	s1,60(sp)
    205e:	031304b3          	mul	s1,t1,a7
    2062:	8cb6                	c.mv	s9,a3
    2064:	fffc0693          	addi	a3,s8,-1
    2068:	3c06a6db          	bfoz	a3,a3,15,0
    206c:	8e19                	c.sub	a2,a4
    206e:	c626                	c.swsp	s1,12(sp)
    2070:	da22                	c.swsp	s0,52(sp)
    2072:	03e30933          	mul	s2,t1,t5
    2076:	00f50433          	add	s0,a0,a5
    207a:	026c04b3          	mul	s1,s8,t1
    207e:	dc22                	c.swsp	s0,56(sp)
    2080:	00d60433          	add	s0,a2,a3
    2084:	d422                	c.swsp	s0,40(sp)
    2086:	8b46                	c.mv	s6,a7
    2088:	fff6c413          	not	s0,a3
    208c:	ce02                	c.swsp	zero,28(sp)
    208e:	cc22                	c.swsp	s0,24(sp)
    2090:	5662                	c.lwsp	a2,56(sp)
    2092:	4572                	c.lwsp	a0,28(sp)
    2094:	d032                	c.swsp	a2,32(sp)
    2096:	5646                	c.lwsp	a2,112(sp)
    2098:	5422                	c.lwsp	s0,40(sp)
    209a:	5a02                	c.lwsp	s4,32(sp)
    209c:	962a                	c.add	a2,a0
    209e:	d602                	c.swsp	zero,44(sp)
    20a0:	d202                	c.swsp	zero,36(sp)
    20a2:	ca32                	c.swsp	a2,20(sp)
    20a4:	5612                	c.lwsp	a2,36(sp)
    20a6:	53d2                	c.lwsp	t2,52(sp)
    20a8:	035609b3          	mul	s3,a2,s5
    20ac:	4672                	c.lwsp	a2,28(sp)
    20ae:	58a2                	c.lwsp	a7,40(sp)
    20b0:	99b2                	c.add	s3,a2
    20b2:	5676                	c.lwsp	a2,124(sp)
    20b4:	4b81                	c.li	s7,0
    20b6:	99b2                	c.add	s3,a2
    20b8:	4652                	c.lwsp	a2,20(sp)
    20ba:	00060e03          	lb	t3,0(a2)
    20be:	4642                	c.lwsp	a2,16(sp)
    20c0:	00ce1e33          	sll	t3,t3,a2
    20c4:	4622                	c.lwsp	a2,8(sp)
    20c6:	9e32                	c.add	t3,a2
    20c8:	040c0063          	beqz	s8,2108 <riscv_nn_conv_HWC_s8_s8_s8_sft_bias_fast+0x120>
    20cc:	4662                	c.lwsp	a2,24(sp)
    20ce:	82e6                	c.mv	t0,s9
    20d0:	008605b3          	add	a1,a2,s0
    20d4:	01400fb3          	add	t6,zero,s4
    20d8:	8616                	c.mv	a2,t0
    20da:	877e                	c.mv	a4,t6
    20dc:	007007b3          	add	a5,zero,t2
    20e0:	00e306b3          	add	a3,t1,a4
    20e4:	0005c863          	bltz	a1,20f4 <riscv_nn_conv_HWC_s8_s8_s8_sft_bias_fast+0x10c>
    20e8:	0007c663          	bltz	a5,20f4 <riscv_nn_conv_HWC_s8_s8_s8_sft_bias_fast+0x10c>
    20ec:	01e5d463          	bge	a1,t5,20f4 <riscv_nn_conv_HWC_s8_s8_s8_sft_bias_fast+0x10c>
    20f0:	05e7ca63          	blt	a5,t5,2144 <riscv_nn_conv_HWC_s8_s8_s8_sft_bias_fast+0x15c>
    20f4:	0785                	c.addi	a5,1
    20f6:	8736                	c.mv	a4,a3
    20f8:	961a                	c.add	a2,t1
    20fa:	fef893e3          	bne	a7,a5,20e0 <riscv_nn_conv_HWC_s8_s8_s8_sft_bias_fast+0xf8>
    20fe:	0585                	c.addi	a1,1
    2100:	9fca                	c.add	t6,s2
    2102:	92a6                	c.add	t0,s1
    2104:	fc859ae3          	bne	a1,s0,20d8 <riscv_nn_conv_HWC_s8_s8_s8_sft_bias_fast+0xf0>
    2108:	41be5e33          	sra	t3,t3,s11
    210c:	f8000613          	li	a2,-128
    2110:	00ce5463          	bge	t3,a2,2118 <riscv_nn_conv_HWC_s8_s8_s8_sft_bias_fast+0x130>
    2114:	f8000e13          	li	t3,-128
    2118:	07f00613          	li	a2,127
    211c:	01c65463          	bge	a2,t3,2124 <riscv_nn_conv_HWC_s8_s8_s8_sft_bias_fast+0x13c>
    2120:	07f00e13          	li	t3,127
    2124:	4632                	c.lwsp	a2,12(sp)
    2126:	001b8793          	addi	a5,s7,1
    212a:	01c98023          	sb	t3,0(s3)
    212e:	3c07a7db          	bfoz	a5,a5,15,0
    2132:	99d6                	c.add	s3,s5
    2134:	98da                	c.add	a7,s6
    2136:	93da                	c.add	t2,s6
    2138:	9a32                	c.add	s4,a2
    213a:	02fd0763          	beq	s10,a5,2168 <riscv_nn_conv_HWC_s8_s8_s8_sft_bias_fast+0x180>
    213e:	8bbe                	c.mv	s7,a5
    2140:	f79ff06f          	j	20b8 <riscv_nn_conv_HWC_s8_s8_s8_sft_bias_fast+0xd0>
    2144:	00c00833          	add	a6,zero,a2
    2148:	00030e63          	beqz	t1,2164 <riscv_nn_conv_HWC_s8_s8_s8_sft_bias_fast+0x17c>
    214c:	00070503          	lb	a0,0(a4)
    2150:	00080e83          	lb	t4,0(a6)
    2154:	0705                	c.addi	a4,1
    2156:	0805                	c.addi	a6,1
    2158:	03d50533          	mul	a0,a0,t4
    215c:	9e2a                	c.add	t3,a0
    215e:	fee697e3          	bne	a3,a4,214c <riscv_nn_conv_HWC_s8_s8_s8_sft_bias_fast+0x164>
    2162:	bf49                	c.j	20f4 <riscv_nn_conv_HWC_s8_s8_s8_sft_bias_fast+0x10c>
    2164:	86ba                	c.mv	a3,a4
    2166:	b779                	c.j	20f4 <riscv_nn_conv_HWC_s8_s8_s8_sft_bias_fast+0x10c>
    2168:	5512                	c.lwsp	a0,36(sp)
    216a:	55f2                	c.lwsp	a1,60(sp)
    216c:	956a                	c.add	a0,s10
    216e:	d22a                	c.swsp	a0,36(sp)
    2170:	5502                	c.lwsp	a0,32(sp)
    2172:	5632                	c.lwsp	a2,44(sp)
    2174:	952e                	c.add	a0,a1
    2176:	00160793          	addi	a5,a2,1
    217a:	d02a                	c.swsp	a0,32(sp)
    217c:	3c07a7db          	bfoz	a5,a5,15,0
    2180:	945a                	c.add	s0,s6
    2182:	01760563          	beq	a2,s7,218c <riscv_nn_conv_HWC_s8_s8_s8_sft_bias_fast+0x1a4>
    2186:	8a2a                	c.mv	s4,a0
    2188:	d63e                	c.swsp	a5,44(sp)
    218a:	bf29                	c.j	20a4 <riscv_nn_conv_HWC_s8_s8_s8_sft_bias_fast+0xbc>
    218c:	4472                	c.lwsp	s0,28(sp)
    218e:	0405                	c.addi	s0,1
    2190:	3c0427db          	bfoz	a5,s0,15,0
    2194:	ce22                	c.swsp	s0,28(sp)
    2196:	5442                	c.lwsp	s0,48(sp)
    2198:	008c8cb3          	add	s9,s9,s0
    219c:	ef57eae3          	bltu	a5,s5,2090 <riscv_nn_conv_HWC_s8_s8_s8_sft_bias_fast+0xa8>
    21a0:	00000513          	li	a0,0
    21a4:	5436                	c.lwsp	s0,108(sp)
    21a6:	54a6                	c.lwsp	s1,104(sp)
    21a8:	5916                	c.lwsp	s2,100(sp)
    21aa:	5986                	c.lwsp	s3,96(sp)
    21ac:	4a76                	c.lwsp	s4,92(sp)
    21ae:	4ae6                	c.lwsp	s5,88(sp)
    21b0:	4b56                	c.lwsp	s6,84(sp)
    21b2:	4bc6                	c.lwsp	s7,80(sp)
    21b4:	4c36                	c.lwsp	s8,76(sp)
    21b6:	4ca6                	c.lwsp	s9,72(sp)
    21b8:	4d16                	c.lwsp	s10,68(sp)
    21ba:	4d86                	c.lwsp	s11,64(sp)
    21bc:	6165                	c.addi16sp	sp,112
    21be:	8082                	c.jr	ra
    21c0:	557d                	c.li	a0,-1
    21c2:	b7cd                	c.j	21a4 <riscv_nn_conv_HWC_s8_s8_s8_sft_bias_fast+0x1bc>

000021c4 <riscv_nn_fc_s8_s8_s8_sft_bias_fast>:
    21c4:	7119                	c.addi16sp	sp,-128
    21c6:	c4b6                	c.swsp	a3,72(sp)
    21c8:	dea2                	c.swsp	s0,124(sp)
    21ca:	8289                	c.srli	a3,0x2
    21cc:	dca6                	c.swsp	s1,120(sp)
    21ce:	daca                	c.swsp	s2,116(sp)
    21d0:	d8ce                	c.swsp	s3,112(sp)
    21d2:	d6d2                	c.swsp	s4,108(sp)
    21d4:	d4d6                	c.swsp	s5,104(sp)
    21d6:	d2da                	c.swsp	s6,100(sp)
    21d8:	d0de                	c.swsp	s7,96(sp)
    21da:	cee2                	c.swsp	s8,92(sp)
    21dc:	cce6                	c.swsp	s9,88(sp)
    21de:	caea                	c.swsp	s10,84(sp)
    21e0:	c8ee                	c.swsp	s11,80(sp)
    21e2:	ce2a                	c.swsp	a0,28(sp)
    21e4:	c2b2                	c.swsp	a2,68(sp)
    21e6:	cc3a                	c.swsp	a4,24(sp)
    21e8:	c83e                	c.swsp	a5,16(sp)
    21ea:	d842                	c.swsp	a6,48(sp)
    21ec:	c646                	c.swsp	a7,12(sp)
    21ee:	28068d63          	beqz	a3,2488 <riscv_nn_fc_s8_s8_s8_sft_bias_fast+0x2c4>
    21f2:	00265713          	srli	a4,a2,0x2
    21f6:	84aa                	c.mv	s1,a0
    21f8:	00367513          	andi	a0,a2,3
    21fc:	843e                	c.mv	s0,a5
    21fe:	d23a                	c.swsp	a4,36(sp)
    2200:	fff70793          	addi	a5,a4,-1
    2204:	fff50713          	addi	a4,a0,-1
    2208:	3c07275b          	bfoz	a4,a4,15,0
    220c:	fff40613          	addi	a2,s0,-1
    2210:	3c07a7db          	bfoz	a5,a5,15,0
    2214:	d42a                	c.swsp	a0,40(sp)
    2216:	4505                	c.li	a0,1
    2218:	0785                	c.addi	a5,1
    221a:	00c51533          	sll	a0,a0,a2
    221e:	00269413          	slli	s0,a3,0x2
    2222:	de3a                	c.swsp	a4,60(sp)
    2224:	0cd886db          	lea.w	a3,a7,a3
    2228:	0705                	c.addi	a4,1
    222a:	070a                	c.slli	a4,0x2
    222c:	d02a                	c.swsp	a0,32(sp)
    222e:	d636                	c.swsp	a3,44(sp)
    2230:	00479513          	slli	a0,a5,0x4
    2234:	0cf486db          	lea.w	a3,s1,a5
    2238:	c6a2                	c.swsp	s0,76(sp)
    223a:	da2a                	c.swsp	a0,52(sp)
    223c:	dc36                	c.swsp	a3,56(sp)
    223e:	c0ba                	c.swsp	a4,64(sp)
    2240:	01012a23          	sw	a6,20(sp)
    2244:	4452                	c.lwsp	s0,20(sp)
    2246:	44e2                	c.lwsp	s1,24(sp)
    2248:	00040c83          	lb	s9,0(s0)
    224c:	00140c03          	lb	s8,1(s0)
    2250:	00240b83          	lb	s7,2(s0)
    2254:	00340b03          	lb	s6,3(s0)
    2258:	009c9cb3          	sll	s9,s9,s1
    225c:	009c1c33          	sll	s8,s8,s1
    2260:	009b9bb3          	sll	s7,s7,s1
    2264:	009b1b33          	sll	s6,s6,s1
    2268:	00440513          	addi	a0,s0,4
    226c:	5482                	c.lwsp	s1,32(sp)
    226e:	5712                	c.lwsp	a4,36(sp)
    2270:	ca2a                	c.swsp	a0,20(sp)
    2272:	9ca6                	c.add	s9,s1
    2274:	9c26                	c.add	s8,s1
    2276:	9ba6                	c.add	s7,s1
    2278:	9b26                	c.add	s6,s1
    227a:	2a070d63          	beqz	a4,2534 <riscv_nn_fc_s8_s8_s8_sft_bias_fast+0x370>
    227e:	5652                	c.lwsp	a2,52(sp)
    2280:	01c12803          	lw	a6,28(sp)
    2284:	00c58db3          	add	s11,a1,a2
    2288:	00080283          	lb	t0,0(a6)
    228c:	00280503          	lb	a0,2(a6)
    2290:	00058603          	lb	a2,0(a1)
    2294:	00258a83          	lb	s5,2(a1)
    2298:	00158683          	lb	a3,1(a1)
    229c:	00358a03          	lb	s4,3(a1)
    22a0:	00458703          	lb	a4,4(a1)
    22a4:	00658983          	lb	s3,6(a1)
    22a8:	00558783          	lb	a5,5(a1)
    22ac:	00758d03          	lb	s10,7(a1)
    22b0:	00180f03          	lb	t5,1(a6)
    22b4:	00380f83          	lb	t6,3(a6)
    22b8:	00858903          	lb	s2,8(a1)
    22bc:	00a58e83          	lb	t4,10(a1)
    22c0:	00958483          	lb	s1,9(a1)
    22c4:	00b58e03          	lb	t3,11(a1)
    22c8:	00c58403          	lb	s0,12(a1)
    22cc:	00d58383          	lb	t2,13(a1)
    22d0:	00e58303          	lb	t1,14(a1)
    22d4:	00f58883          	lb	a7,15(a1)
    22d8:	02aa8ab3          	mul	s5,s5,a0
    22dc:	02aa0a33          	mul	s4,s4,a0
    22e0:	02a989b3          	mul	s3,s3,a0
    22e4:	02560633          	mul	a2,a2,t0
    22e8:	025686b3          	mul	a3,a3,t0
    22ec:	02570733          	mul	a4,a4,t0
    22f0:	025787b3          	mul	a5,a5,t0
    22f4:	02ad0533          	mul	a0,s10,a0
    22f8:	03e90933          	mul	s2,s2,t5
    22fc:	03e484b3          	mul	s1,s1,t5
    2300:	03e40433          	mul	s0,s0,t5
    2304:	03fe8eb3          	mul	t4,t4,t6
    2308:	03fe0e33          	mul	t3,t3,t6
    230c:	03f30333          	mul	t1,t1,t6
    2310:	03f888b3          	mul	a7,a7,t6
    2314:	03e38f33          	mul	t5,t2,t5
    2318:	9656                	c.add	a2,s5
    231a:	96d2                	c.add	a3,s4
    231c:	974e                	c.add	a4,s3
    231e:	97aa                	c.add	a5,a0
    2320:	9666                	c.add	a2,s9
    2322:	96e2                	c.add	a3,s8
    2324:	975e                	c.add	a4,s7
    2326:	97da                	c.add	a5,s6
    2328:	9976                	c.add	s2,t4
    232a:	94f2                	c.add	s1,t3
    232c:	941a                	c.add	s0,t1
    232e:	98fa                	c.add	a7,t5
    2330:	05c1                	c.addi	a1,16
    2332:	0811                	c.addi	a6,4
    2334:	00c90cb3          	add	s9,s2,a2
    2338:	00d48c33          	add	s8,s1,a3
    233c:	00e40bb3          	add	s7,s0,a4
    2340:	00f88b33          	add	s6,a7,a5
    2344:	f4bd92e3          	bne	s11,a1,2288 <riscv_nn_fc_s8_s8_s8_sft_bias_fast+0xc4>
    2348:	03812803          	lw	a6,56(sp)
    234c:	5422                	c.lwsp	s0,40(sp)
    234e:	c849                	c.beqz	s0,23e0 <riscv_nn_fc_s8_s8_s8_sft_bias_fast+0x21c>
    2350:	00080783          	lb	a5,0(a6)
    2354:	00058503          	lb	a0,0(a1)
    2358:	00158603          	lb	a2,1(a1)
    235c:	00258683          	lb	a3,2(a1)
    2360:	00358703          	lb	a4,3(a1)
    2364:	02f50533          	mul	a0,a0,a5
    2368:	02f60633          	mul	a2,a2,a5
    236c:	02f686b3          	mul	a3,a3,a5
    2370:	02f707b3          	mul	a5,a4,a5
    2374:	54f2                	c.lwsp	s1,60(sp)
    2376:	9caa                	c.add	s9,a0
    2378:	9c32                	c.add	s8,a2
    237a:	9bb6                	c.add	s7,a3
    237c:	9b3e                	c.add	s6,a5
    237e:	ccb9                	c.beqz	s1,23dc <riscv_nn_fc_s8_s8_s8_sft_bias_fast+0x218>
    2380:	00180783          	lb	a5,1(a6)
    2384:	00458503          	lb	a0,4(a1)
    2388:	00558603          	lb	a2,5(a1)
    238c:	00658683          	lb	a3,6(a1)
    2390:	00758703          	lb	a4,7(a1)
    2394:	02f50533          	mul	a0,a0,a5
    2398:	02f60633          	mul	a2,a2,a5
    239c:	02f686b3          	mul	a3,a3,a5
    23a0:	02f707b3          	mul	a5,a4,a5
    23a4:	9caa                	c.add	s9,a0
    23a6:	9c32                	c.add	s8,a2
    23a8:	9bb6                	c.add	s7,a3
    23aa:	9b3e                	c.add	s6,a5
    23ac:	0224585b          	beqc	s0,2,23dc <riscv_nn_fc_s8_s8_s8_sft_bias_fast+0x218>
    23b0:	00280783          	lb	a5,2(a6)
    23b4:	00858503          	lb	a0,8(a1)
    23b8:	00958603          	lb	a2,9(a1)
    23bc:	00a58683          	lb	a3,10(a1)
    23c0:	00b58703          	lb	a4,11(a1)
    23c4:	02f50533          	mul	a0,a0,a5
    23c8:	02f60633          	mul	a2,a2,a5
    23cc:	02f686b3          	mul	a3,a3,a5
    23d0:	02f707b3          	mul	a5,a4,a5
    23d4:	9caa                	c.add	s9,a0
    23d6:	9c32                	c.add	s8,a2
    23d8:	9bb6                	c.add	s7,a3
    23da:	9b3e                	c.add	s6,a5
    23dc:	4686                	c.lwsp	a3,64(sp)
    23de:	95b6                	c.add	a1,a3
    23e0:	01012503          	lw	a0,16(sp)
    23e4:	f8000713          	li	a4,-128
    23e8:	40acdcb3          	sra	s9,s9,a0
    23ec:	00ecd463          	bge	s9,a4,23f4 <riscv_nn_fc_s8_s8_s8_sft_bias_fast+0x230>
    23f0:	f8000c93          	li	s9,-128
    23f4:	07f00613          	li	a2,127
    23f8:	01965463          	bge	a2,s9,2400 <riscv_nn_fc_s8_s8_s8_sft_bias_fast+0x23c>
    23fc:	07f00c93          	li	s9,127
    2400:	46c2                	c.lwsp	a3,16(sp)
    2402:	4532                	c.lwsp	a0,12(sp)
    2404:	40dc5c33          	sra	s8,s8,a3
    2408:	f8000713          	li	a4,-128
    240c:	01950023          	sb	s9,0(a0)
    2410:	00ec5463          	bge	s8,a4,2418 <riscv_nn_fc_s8_s8_s8_sft_bias_fast+0x254>
    2414:	f8000c13          	li	s8,-128
    2418:	07f00613          	li	a2,127
    241c:	01865463          	bge	a2,s8,2424 <riscv_nn_fc_s8_s8_s8_sft_bias_fast+0x260>
    2420:	07f00c13          	li	s8,127
    2424:	46c2                	c.lwsp	a3,16(sp)
    2426:	4532                	c.lwsp	a0,12(sp)
    2428:	40dbdbb3          	sra	s7,s7,a3
    242c:	f8000713          	li	a4,-128
    2430:	018500a3          	sb	s8,1(a0)
    2434:	00ebd463          	bge	s7,a4,243c <riscv_nn_fc_s8_s8_s8_sft_bias_fast+0x278>
    2438:	f8000b93          	li	s7,-128
    243c:	07f00613          	li	a2,127
    2440:	01765463          	bge	a2,s7,2448 <riscv_nn_fc_s8_s8_s8_sft_bias_fast+0x284>
    2444:	07f00b93          	li	s7,127
    2448:	4532                	c.lwsp	a0,12(sp)
    244a:	44c2                	c.lwsp	s1,16(sp)
    244c:	00450693          	addi	a3,a0,4
    2450:	01750123          	sb	s7,2(a0)
    2454:	409b5b33          	sra	s6,s6,s1
    2458:	f8000513          	li	a0,-128
    245c:	00d12623          	sw	a3,12(sp)
    2460:	00ab5463          	bge	s6,a0,2468 <riscv_nn_fc_s8_s8_s8_sft_bias_fast+0x2a4>
    2464:	f8000b13          	li	s6,-128
    2468:	07f00413          	li	s0,127
    246c:	01645463          	bge	s0,s6,2474 <riscv_nn_fc_s8_s8_s8_sft_bias_fast+0x2b0>
    2470:	07f00b13          	li	s6,127
    2474:	4432                	c.lwsp	s0,12(sp)
    2476:	5732                	c.lwsp	a4,44(sp)
    2478:	ff640fa3          	sb	s6,-1(s0)
    247c:	dc8714e3          	bne	a4,s0,2244 <riscv_nn_fc_s8_s8_s8_sft_bias_fast+0x80>
    2480:	5742                	c.lwsp	a4,48(sp)
    2482:	4436                	c.lwsp	s0,76(sp)
    2484:	9722                	c.add	a4,s0
    2486:	d83a                	c.swsp	a4,48(sp)
    2488:	4726                	c.lwsp	a4,72(sp)
    248a:	00377813          	andi	a6,a4,3
    248e:	08080363          	beqz	a6,2514 <riscv_nn_fc_s8_s8_s8_sft_bias_fast+0x350>
    2492:	4742                	c.lwsp	a4,16(sp)
    2494:	4885                	c.li	a7,1
    2496:	fff70793          	addi	a5,a4,-1
    249a:	4732                	c.lwsp	a4,12(sp)
    249c:	00f898b3          	sll	a7,a7,a5
    24a0:	00e80833          	add	a6,a6,a4
    24a4:	f8000e13          	li	t3,-128
    24a8:	07f00313          	li	t1,127
    24ac:	5542                	c.lwsp	a0,48(sp)
    24ae:	46e2                	c.lwsp	a3,24(sp)
    24b0:	00050703          	lb	a4,0(a0)
    24b4:	00150493          	addi	s1,a0,1
    24b8:	4616                	c.lwsp	a2,68(sp)
    24ba:	00d71733          	sll	a4,a4,a3
    24be:	d826                	c.swsp	s1,48(sp)
    24c0:	9746                	c.add	a4,a7
    24c2:	ca3d                	c.beqz	a2,2538 <riscv_nn_fc_s8_s8_s8_sft_bias_fast+0x374>
    24c4:	01c12683          	lw	a3,28(sp)
    24c8:	00c58533          	add	a0,a1,a2
    24cc:	00068783          	lb	a5,0(a3)
    24d0:	00058603          	lb	a2,0(a1)
    24d4:	0585                	c.addi	a1,1
    24d6:	0685                	c.addi	a3,1
    24d8:	02c787b3          	mul	a5,a5,a2
    24dc:	00f70733          	add	a4,a4,a5
    24e0:	fea596e3          	bne	a1,a0,24cc <riscv_nn_fc_s8_s8_s8_sft_bias_fast+0x308>
    24e4:	44c2                	c.lwsp	s1,16(sp)
    24e6:	40975733          	sra	a4,a4,s1
    24ea:	44b2                	c.lwsp	s1,12(sp)
    24ec:	00148693          	addi	a3,s1,1
    24f0:	00d12623          	sw	a3,12(sp)
    24f4:	01c75463          	bge	a4,t3,24fc <riscv_nn_fc_s8_s8_s8_sft_bias_fast+0x338>
    24f8:	f8000713          	li	a4,-128
    24fc:	00e35463          	bge	t1,a4,2504 <riscv_nn_fc_s8_s8_s8_sft_bias_fast+0x340>
    2500:	07f00713          	li	a4,127
    2504:	4432                	c.lwsp	s0,12(sp)
    2506:	fee40fa3          	sb	a4,-1(s0)
    250a:	01040563          	beq	s0,a6,2514 <riscv_nn_fc_s8_s8_s8_sft_bias_fast+0x350>
    250e:	85aa                	c.mv	a1,a0
    2510:	f9dff06f          	j	24ac <riscv_nn_fc_s8_s8_s8_sft_bias_fast+0x2e8>
    2514:	5476                	c.lwsp	s0,124(sp)
    2516:	54e6                	c.lwsp	s1,120(sp)
    2518:	5956                	c.lwsp	s2,116(sp)
    251a:	59c6                	c.lwsp	s3,112(sp)
    251c:	5a36                	c.lwsp	s4,108(sp)
    251e:	5aa6                	c.lwsp	s5,104(sp)
    2520:	5b16                	c.lwsp	s6,100(sp)
    2522:	5b86                	c.lwsp	s7,96(sp)
    2524:	4c76                	c.lwsp	s8,92(sp)
    2526:	4ce6                	c.lwsp	s9,88(sp)
    2528:	4d56                	c.lwsp	s10,84(sp)
    252a:	4dc6                	c.lwsp	s11,80(sp)
    252c:	4501                	c.li	a0,0
    252e:	6109                	c.addi16sp	sp,128
    2530:	00008067          	ret
    2534:	4872                	c.lwsp	a6,28(sp)
    2536:	bd19                	c.j	234c <riscv_nn_fc_s8_s8_s8_sft_bias_fast+0x188>
    2538:	852e                	c.mv	a0,a1
    253a:	b76d                	c.j	24e4 <riscv_nn_fc_s8_s8_s8_sft_bias_fast+0x320>

0000253c <riscv_nn_maxpool_HWC_s8>:
    253c:	7139                	c.addi16sp	sp,-64
    253e:	d84e                	c.swsp	s3,48(sp)
    2540:	de22                	c.swsp	s0,60(sp)
    2542:	dc26                	c.swsp	s1,56(sp)
    2544:	da4a                	c.swsp	s2,52(sp)
    2546:	d652                	c.swsp	s4,44(sp)
    2548:	d456                	c.swsp	s5,40(sp)
    254a:	d25a                	c.swsp	s6,36(sp)
    254c:	d05e                	c.swsp	s7,32(sp)
    254e:	ce62                	c.swsp	s8,28(sp)
    2550:	cc66                	c.swsp	s9,24(sp)
    2552:	ca6a                	c.swsp	s10,20(sp)
    2554:	c86e                	c.swsp	s11,16(sp)
    2556:	4986                	c.lwsp	s3,64(sp)
    2558:	83b2                	c.mv	t2,a2
    255a:	ce4d                	c.beqz	a2,2614 <riscv_nn_maxpool_HWC_s8+0xd8>
    255c:	8f42                	c.mv	t5,a6
    255e:	0a080b63          	beqz	a6,2614 <riscv_nn_maxpool_HWC_s8+0xd8>
    2562:	88aa                	c.mv	a7,a0
    2564:	862e                	c.mv	a2,a1
    2566:	8436                	c.mv	s0,a3
    2568:	82ba                	c.mv	t0,a4
    256a:	833e                	c.mv	t1,a5
    256c:	1213e05b          	bnec	t2,1,268c <riscv_nn_maxpool_HWC_s8+0x150>
    2570:	40e00b33          	neg	s6,a4
    2574:	3c0b2b5b          	bfoz	s6,s6,15,0
    2578:	8ada                	c.mv	s5,s6
    257a:	4a01                	c.li	s4,0
    257c:	00000913          	li	s2,0
    2580:	02690833          	mul	a6,s2,t1
    2584:	03e90933          	mul	s2,s2,t5
    2588:	3c0ab4db          	bfos	s1,s5,15,0
    258c:	40580833          	sub	a6,a6,t0
    2590:	9822                	c.add	a6,s0
    2592:	83da                	c.mv	t2,s6
    2594:	4f81                	c.li	t6,0
    2596:	4e01                	c.li	t3,0
    2598:	0f04d663          	bge	s1,a6,2684 <riscv_nn_maxpool_HWC_s8+0x148>
    259c:	026e0733          	mul	a4,t3,t1
    25a0:	3c03b55b          	bfos	a0,t2,15,0
    25a4:	86a6                	c.mv	a3,s1
    25a6:	40570733          	sub	a4,a4,t0
    25aa:	9722                	c.add	a4,s0
    25ac:	009007b3          	add	a5,zero,s1
    25b0:	f7f00e93          	li	t4,-129
    25b4:	02e55063          	bge	a0,a4,25d4 <riscv_nn_maxpool_HWC_s8+0x98>
    25b8:	02f60c33          	mul	s8,a2,a5
    25bc:	0606ca63          	bltz	a3,2630 <riscv_nn_maxpool_HWC_s8+0xf4>
    25c0:	08c7c663          	blt	a5,a2,264c <riscv_nn_maxpool_HWC_s8+0x110>
    25c4:	00a007b3          	add	a5,zero,a0
    25c8:	00178793          	addi	a5,a5,1
    25cc:	3c07b7db          	bfos	a5,a5,15,0
    25d0:	fee7cce3          	blt	a5,a4,25c8 <riscv_nn_maxpool_HWC_s8+0x8c>
    25d4:	0685                	c.addi	a3,1
    25d6:	3c06b6db          	bfos	a3,a3,15,0
    25da:	87b6                	c.mv	a5,a3
    25dc:	fd06cce3          	blt	a3,a6,25b4 <riscv_nn_maxpool_HWC_s8+0x78>
    25e0:	1c0ebedb          	bfos	t4,t4,7,0
    25e4:	01c987b3          	add	a5,s3,t3
    25e8:	97ca                	c.add	a5,s2
    25ea:	0f85                	c.addi	t6,1
    25ec:	3c0fbfdb          	bfos	t6,t6,15,0
    25f0:	939a                	c.add	t2,t1
    25f2:	01d78023          	sb	t4,0(a5)
    25f6:	8e7e                	c.mv	t3,t6
    25f8:	3c03a3db          	bfoz	t2,t2,15,0
    25fc:	f9efcee3          	blt	t6,t5,2598 <riscv_nn_maxpool_HWC_s8+0x5c>
    2600:	0a05                	c.addi	s4,1
    2602:	3c0a3a5b          	bfos	s4,s4,15,0
    2606:	9a9a                	c.add	s5,t1
    2608:	01400933          	add	s2,zero,s4
    260c:	3c0aaadb          	bfoz	s5,s5,15,0
    2610:	f7ea48e3          	blt	s4,t5,2580 <riscv_nn_maxpool_HWC_s8+0x44>
    2614:	5472                	c.lwsp	s0,60(sp)
    2616:	54e2                	c.lwsp	s1,56(sp)
    2618:	5952                	c.lwsp	s2,52(sp)
    261a:	59c2                	c.lwsp	s3,48(sp)
    261c:	5a32                	c.lwsp	s4,44(sp)
    261e:	5aa2                	c.lwsp	s5,40(sp)
    2620:	5b12                	c.lwsp	s6,36(sp)
    2622:	5b82                	c.lwsp	s7,32(sp)
    2624:	4c72                	c.lwsp	s8,28(sp)
    2626:	4ce2                	c.lwsp	s9,24(sp)
    2628:	4d52                	c.lwsp	s10,20(sp)
    262a:	4dc2                	c.lwsp	s11,16(sp)
    262c:	6121                	c.addi16sp	sp,64
    262e:	8082                	c.jr	ra
    2630:	00a007b3          	add	a5,zero,a0
    2634:	0785                	c.addi	a5,1
    2636:	3c07b7db          	bfos	a5,a5,15,0
    263a:	fee7cde3          	blt	a5,a4,2634 <riscv_nn_maxpool_HWC_s8+0xf8>
    263e:	0685                	c.addi	a3,1
    2640:	3c06b6db          	bfos	a3,a3,15,0
    2644:	87b6                	c.mv	a5,a3
    2646:	f706c7e3          	blt	a3,a6,25b4 <riscv_nn_maxpool_HWC_s8+0x78>
    264a:	bf59                	c.j	25e0 <riscv_nn_maxpool_HWC_s8+0xa4>
    264c:	87aa                	c.mv	a5,a0
    264e:	85aa                	c.mv	a1,a0
    2650:	0007cc63          	bltz	a5,2668 <riscv_nn_maxpool_HWC_s8+0x12c>
    2654:	00b88bb3          	add	s7,a7,a1
    2658:	9be2                	c.add	s7,s8
    265a:	00c5d763          	bge	a1,a2,2668 <riscv_nn_maxpool_HWC_s8+0x12c>
    265e:	000b8583          	lb	a1,0(s7)
    2662:	00bed363          	bge	t4,a1,2668 <riscv_nn_maxpool_HWC_s8+0x12c>
    2666:	8eae                	c.mv	t4,a1
    2668:	0785                	c.addi	a5,1
    266a:	3c07b7db          	bfos	a5,a5,15,0
    266e:	85be                	c.mv	a1,a5
    2670:	fee7c0e3          	blt	a5,a4,2650 <riscv_nn_maxpool_HWC_s8+0x114>
    2674:	0685                	c.addi	a3,1
    2676:	3c06b6db          	bfos	a3,a3,15,0
    267a:	87b6                	c.mv	a5,a3
    267c:	f306cce3          	blt	a3,a6,25b4 <riscv_nn_maxpool_HWC_s8+0x78>
    2680:	f61ff06f          	j	25e0 <riscv_nn_maxpool_HWC_s8+0xa4>
    2684:	07f00e93          	li	t4,127
    2688:	f5dff06f          	j	25e4 <riscv_nn_maxpool_HWC_s8+0xa8>
    268c:	40e007b3          	neg	a5,a4
    2690:	3c07a4db          	bfoz	s1,a5,15,0
    2694:	4b01                	c.li	s6,0
    2696:	4a81                	c.li	s5,0
    2698:	00912623          	sw	s1,12(sp)
    269c:	4d32                	c.lwsp	s10,12(sp)
    269e:	01598db3          	add	s11,s3,s5
    26a2:	4c01                	c.li	s8,0
    26a4:	4b81                	c.li	s7,0
    26a6:	9ac6                	c.add	s5,a7
    26a8:	03730e33          	mul	t3,t1,s7
    26ac:	037f0bb3          	mul	s7,t5,s7
    26b0:	4a32                	c.lwsp	s4,12(sp)
    26b2:	405e0e33          	sub	t3,t3,t0
    26b6:	3c0d3cdb          	bfos	s9,s10,15,0
    26ba:	9e22                	c.add	t3,s0
    26bc:	4901                	c.li	s2,0
    26be:	4f81                	c.li	t6,0
    26c0:	0dccd663          	bge	s9,t3,278c <riscv_nn_maxpool_HWC_s8+0x250>
    26c4:	03f30733          	mul	a4,t1,t6
    26c8:	3c0a385b          	bfos	a6,s4,15,0
    26cc:	86e6                	c.mv	a3,s9
    26ce:	40570733          	sub	a4,a4,t0
    26d2:	9722                	c.add	a4,s0
    26d4:	019007b3          	add	a5,zero,s9
    26d8:	f7f00493          	li	s1,-129
    26dc:	02e85063          	bge	a6,a4,26fc <riscv_nn_maxpool_HWC_s8+0x1c0>
    26e0:	02c78eb3          	mul	t4,a5,a2
    26e4:	0606c463          	bltz	a3,274c <riscv_nn_maxpool_HWC_s8+0x210>
    26e8:	06c7ca63          	blt	a5,a2,275c <riscv_nn_maxpool_HWC_s8+0x220>
    26ec:	010007b3          	add	a5,zero,a6
    26f0:	00178793          	addi	a5,a5,1
    26f4:	3c07b7db          	bfos	a5,a5,15,0
    26f8:	fee7cce3          	blt	a5,a4,26f0 <riscv_nn_maxpool_HWC_s8+0x1b4>
    26fc:	0685                	c.addi	a3,1
    26fe:	3c06b6db          	bfos	a3,a3,15,0
    2702:	87b6                	c.mv	a5,a3
    2704:	fdc6cce3          	blt	a3,t3,26dc <riscv_nn_maxpool_HWC_s8+0x1a0>
    2708:	1c04b4db          	bfos	s1,s1,7,0
    270c:	01fb87b3          	add	a5,s7,t6
    2710:	027787b3          	mul	a5,a5,t2
    2714:	0905                	c.addi	s2,1
    2716:	3c09395b          	bfos	s2,s2,15,0
    271a:	97ee                	c.add	a5,s11
    271c:	9a1a                	c.add	s4,t1
    271e:	00978023          	sb	s1,0(a5)
    2722:	8fca                	c.mv	t6,s2
    2724:	3c0a2a5b          	bfoz	s4,s4,15,0
    2728:	f9e94ce3          	blt	s2,t5,26c0 <riscv_nn_maxpool_HWC_s8+0x184>
    272c:	0c05                	c.addi	s8,1
    272e:	3c0c3c5b          	bfos	s8,s8,15,0
    2732:	9d1a                	c.add	s10,t1
    2734:	8be2                	c.mv	s7,s8
    2736:	3c0d2d5b          	bfoz	s10,s10,15,0
    273a:	f7ec47e3          	blt	s8,t5,26a8 <riscv_nn_maxpool_HWC_s8+0x16c>
    273e:	0b05                	c.addi	s6,1
    2740:	3c0b3b5b          	bfos	s6,s6,15,0
    2744:	8ada                	c.mv	s5,s6
    2746:	f47b4be3          	blt	s6,t2,269c <riscv_nn_maxpool_HWC_s8+0x160>
    274a:	b5e9                	c.j	2614 <riscv_nn_maxpool_HWC_s8+0xd8>
    274c:	010007b3          	add	a5,zero,a6
    2750:	0785                	c.addi	a5,1
    2752:	3c07b7db          	bfos	a5,a5,15,0
    2756:	fee7cde3          	blt	a5,a4,2750 <riscv_nn_maxpool_HWC_s8+0x214>
    275a:	b74d                	c.j	26fc <riscv_nn_maxpool_HWC_s8+0x1c0>
    275c:	87c2                	c.mv	a5,a6
    275e:	8542                	c.mv	a0,a6
    2760:	00178593          	addi	a1,a5,1
    2764:	0007ce63          	bltz	a5,2780 <riscv_nn_maxpool_HWC_s8+0x244>
    2768:	00ae87b3          	add	a5,t4,a0
    276c:	027787b3          	mul	a5,a5,t2
    2770:	00c55863          	bge	a0,a2,2780 <riscv_nn_maxpool_HWC_s8+0x244>
    2774:	97d6                	c.add	a5,s5
    2776:	00078783          	lb	a5,0(a5)
    277a:	00f4d363          	bge	s1,a5,2780 <riscv_nn_maxpool_HWC_s8+0x244>
    277e:	84be                	c.mv	s1,a5
    2780:	3c05b7db          	bfos	a5,a1,15,0
    2784:	853e                	c.mv	a0,a5
    2786:	fce7cde3          	blt	a5,a4,2760 <riscv_nn_maxpool_HWC_s8+0x224>
    278a:	bf8d                	c.j	26fc <riscv_nn_maxpool_HWC_s8+0x1c0>
    278c:	07f00493          	li	s1,127
    2790:	bfb5                	c.j	270c <riscv_nn_maxpool_HWC_s8+0x1d0>
    2792:	0001                	c.nop

00002794 <riscv_nn_softmax_s8_fast>:
    2794:	0e058a63          	beqz	a1,2888 <riscv_nn_softmax_s8_fast+0xf4>
    2798:	00000793          	li	a5,0
    279c:	eff00713          	li	a4,-257
    27a0:	00f506b3          	add	a3,a0,a5
    27a4:	00068803          	lb	a6,0(a3)
    27a8:	86c2                	c.mv	a3,a6
    27aa:	00e85363          	bge	a6,a4,27b0 <riscv_nn_softmax_s8_fast+0x1c>
    27ae:	86ba                	c.mv	a3,a4
    27b0:	0785                	c.addi	a5,1
    27b2:	3c07b7db          	bfos	a5,a5,15,0
    27b6:	3c06b75b          	bfos	a4,a3,15,0
    27ba:	feb7c3e3          	blt	a5,a1,27a0 <riscv_nn_softmax_s8_fast+0xc>
    27be:	3c0726db          	bfoz	a3,a4,15,0
    27c2:	ff868813          	addi	a6,a3,-8
    27c6:	3c08385b          	bfos	a6,a6,15,0
    27ca:	4701                	c.li	a4,0
    27cc:	4301                	c.li	t1,0
    27ce:	03f00e93          	li	t4,63
    27d2:	4e05                	c.li	t3,1
    27d4:	01c0006f          	j	27f0 <riscv_nn_softmax_s8_fast+0x5c>
    27d8:	03f00793          	li	a5,63
    27dc:	00fe17b3          	sll	a5,t3,a5
    27e0:	00f30333          	add	t1,t1,a5
    27e4:	00170713          	addi	a4,a4,1
    27e8:	3c07375b          	bfos	a4,a4,15,0
    27ec:	02b75463          	bge	a4,a1,2814 <riscv_nn_softmax_s8_fast+0x80>
    27f0:	00e507b3          	add	a5,a0,a4
    27f4:	00078783          	lb	a5,0(a5)
    27f8:	fef856e3          	bge	a6,a5,27e4 <riscv_nn_softmax_s8_fast+0x50>
    27fc:	410787b3          	sub	a5,a5,a6
    2800:	fcfecce3          	blt	t4,a5,27d8 <riscv_nn_softmax_s8_fast+0x44>
    2804:	fff7c893          	not	a7,a5
    2808:	41f8d893          	srai	a7,a7,0x1f
    280c:	0117f7b3          	and	a5,a5,a7
    2810:	fcdff06f          	j	27dc <riscv_nn_softmax_s8_fast+0x48>
    2814:	00100e37          	lui	t3,0x100
    2818:	026e4e33          	div	t3,t3,t1
    281c:	0695                	c.addi	a3,5
    281e:	4701                	c.li	a4,0
    2820:	3c06b6db          	bfos	a3,a3,15,0
    2824:	03f00f93          	li	t6,63
    2828:	f8000f13          	li	t5,-128
    282c:	07f00e93          	li	t4,127
    2830:	00e507b3          	add	a5,a0,a4
    2834:	00078783          	lb	a5,0(a5)
    2838:	00e608b3          	add	a7,a2,a4
    283c:	04f85263          	bge	a6,a5,2880 <riscv_nn_softmax_s8_fast+0xec>
    2840:	40f687b3          	sub	a5,a3,a5
    2844:	02ffd663          	bge	t6,a5,2870 <riscv_nn_softmax_s8_fast+0xdc>
    2848:	03f00793          	li	a5,63
    284c:	40fe57b3          	sra	a5,t3,a5
    2850:	01e7d463          	bge	a5,t5,2858 <riscv_nn_softmax_s8_fast+0xc4>
    2854:	f8000793          	li	a5,-128
    2858:	00fed463          	bge	t4,a5,2860 <riscv_nn_softmax_s8_fast+0xcc>
    285c:	07f00793          	li	a5,127
    2860:	00f88023          	sb	a5,0(a7)
    2864:	0705                	c.addi	a4,1
    2866:	3c07375b          	bfos	a4,a4,15,0
    286a:	fcb743e3          	blt	a4,a1,2830 <riscv_nn_softmax_s8_fast+0x9c>
    286e:	8082                	c.jr	ra
    2870:	fff7c313          	not	t1,a5
    2874:	41f35313          	srai	t1,t1,0x1f
    2878:	0067f7b3          	and	a5,a5,t1
    287c:	fd1ff06f          	j	284c <riscv_nn_softmax_s8_fast+0xb8>
    2880:	00088023          	sb	zero,0(a7)
    2884:	fe1ff06f          	j	2864 <riscv_nn_softmax_s8_fast+0xd0>
    2888:	9002                	c.ebreak
	...

0000288c <__extendsfdf2>:
    288c:	e0050753          	fmv.x.w	a4,fa0
    2890:	002027f3          	frrm	a5
    2894:	797727db          	bfoz	a5,a4,30,23
    2898:	00178593          	addi	a1,a5,1
    289c:	0ff5f593          	andi	a1,a1,255
    28a0:	4505                	c.li	a0,1
    28a2:	580726db          	bfoz	a3,a4,22,0
    28a6:	01f75613          	srli	a2,a4,0x1f
    28aa:	02b55d63          	bge	a0,a1,28e4 <__extendsfdf2+0x58>
    28ae:	0036d713          	srli	a4,a3,0x3
    28b2:	38078793          	addi	a5,a5,896
    28b6:	06f6                	c.slli	a3,0x1d
    28b8:	4581                	c.li	a1,0
    28ba:	8536                	c.mv	a0,a3
    28bc:	fff006b7          	lui	a3,0xfff00
    28c0:	8eed                	c.and	a3,a1
    28c2:	4c07275b          	bfoz	a4,a4,19,0
    28c6:	8ed9                	c.or	a3,a4
    28c8:	51e7a75b          	bfoz	a4,a5,20,30
    28cc:	801007b7          	lui	a5,0x80100
    28d0:	17fd                	c.addi	a5,-1
    28d2:	8ff5                	c.and	a5,a3
    28d4:	8fd9                	c.or	a5,a4
    28d6:	7807a7db          	bfoz	a5,a5,30,0
    28da:	01f61713          	slli	a4,a2,0x1f
    28de:	00e7e5b3          	or	a1,a5,a4
    28e2:	8082                	c.jr	ra
    28e4:	e785                	c.bnez	a5,290c <__extendsfdf2+0x80>
    28e6:	cabd                	c.beqz	a3,295c <__extendsfdf2+0xd0>
    28e8:	af9685ff          	clz32	a1,a3
    28ec:	47a9                	c.li	a5,10
    28ee:	06b7db63          	bge	a5,a1,2964 <__extendsfdf2+0xd8>
    28f2:	ff558713          	addi	a4,a1,-11
    28f6:	00e69733          	sll	a4,a3,a4
    28fa:	4681                	c.li	a3,0
    28fc:	38900793          	li	a5,905
    2900:	8f8d                	c.sub	a5,a1
    2902:	4c07275b          	bfoz	a4,a4,19,0
    2906:	7ff7f793          	andi	a5,a5,2047
    290a:	b77d                	c.j	28b8 <__extendsfdf2+0x2c>
    290c:	c6a1                	c.beqz	a3,2954 <__extendsfdf2+0xc8>
    290e:	00080737          	lui	a4,0x80
    2912:	0036d793          	srli	a5,a3,0x3
    2916:	00100837          	lui	a6,0x100
    291a:	8fd9                	c.or	a5,a4
    291c:	187d                	c.addi	a6,-1
    291e:	01d69713          	slli	a4,a3,0x1d
    2922:	0107f7b3          	and	a5,a5,a6
    2926:	4566f95b          	bbs	a3,22,2978 <__extendsfdf2+0xec>
    292a:	4581                	c.li	a1,0
    292c:	853a                	c.mv	a0,a4
    292e:	fff00737          	lui	a4,0xfff00
    2932:	8f6d                	c.and	a4,a1
    2934:	0107f7b3          	and	a5,a5,a6
    2938:	8fd9                	c.or	a5,a4
    293a:	7ff006b7          	lui	a3,0x7ff00
    293e:	8edd                	c.or	a3,a5
    2940:	01f61713          	slli	a4,a2,0x1f
    2944:	7806a6db          	bfoz	a3,a3,30,0
    2948:	00e6e5b3          	or	a1,a3,a4
    294c:	00186073          	csrsi	fflags,16
    2950:	00008067          	ret
    2954:	7ff00793          	li	a5,2047
    2958:	4701                	c.li	a4,0
    295a:	bfb9                	c.j	28b8 <__extendsfdf2+0x2c>
    295c:	4781                	c.li	a5,0
    295e:	4701                	c.li	a4,0
    2960:	f59ff06f          	j	28b8 <__extendsfdf2+0x2c>
    2964:	472d                	c.li	a4,11
    2966:	8f0d                	c.sub	a4,a1
    2968:	01558793          	addi	a5,a1,21
    296c:	00e6d733          	srl	a4,a3,a4
    2970:	00f696b3          	sll	a3,a3,a5
    2974:	f89ff06f          	j	28fc <__extendsfdf2+0x70>
    2978:	4581                	c.li	a1,0
    297a:	853a                	c.mv	a0,a4
    297c:	fff00737          	lui	a4,0xfff00
    2980:	8f6d                	c.and	a4,a1
    2982:	0107f7b3          	and	a5,a5,a6
    2986:	8fd9                	c.or	a5,a4
    2988:	7ff006b7          	lui	a3,0x7ff00
    298c:	8edd                	c.or	a3,a5
    298e:	01f61713          	slli	a4,a2,0x1f
    2992:	7806a6db          	bfoz	a3,a3,30,0
    2996:	00e6e5b3          	or	a1,a3,a4
    299a:	8082                	c.jr	ra

0000299c <iprintf>:
    299c:	7139                	c.addi16sp	sp,-64
    299e:	d22e                	c.swsp	a1,36(sp)
    29a0:	104c                	c.addi4spn	a1,sp,36
    29a2:	ce06                	c.swsp	ra,28(sp)
    29a4:	d432                	c.swsp	a2,40(sp)
    29a6:	d636                	c.swsp	a3,44(sp)
    29a8:	d83a                	c.swsp	a4,48(sp)
    29aa:	da3e                	c.swsp	a5,52(sp)
    29ac:	dc42                	c.swsp	a6,56(sp)
    29ae:	de46                	c.swsp	a7,60(sp)
    29b0:	c62e                	c.swsp	a1,12(sp)
    29b2:	204d                	c.jal	2a54 <viprintf>
    29b4:	40f2                	c.lwsp	ra,28(sp)
    29b6:	6121                	c.addi16sp	sp,64
    29b8:	8082                	c.jr	ra

000029ba <puts>:
    29ba:	397002ef          	jal	t0,3550 <__riscv_save_0>
    29be:	1101                	c.addi	sp,-32
    29c0:	c62a                	c.swsp	a0,12(sp)
    29c2:	203d                	c.jal	29f0 <strlen>
    29c4:	45b2                	c.lwsp	a1,12(sp)
    29c6:	862a                	c.mv	a2,a0
    29c8:	4505                	c.li	a0,1
    29ca:	bb3fe0ef          	jal	ra,157c <_write>
    29ce:	00054e63          	bltz	a0,29ea <puts+0x30>
    29d2:	47a9                	c.li	a5,10
    29d4:	4605                	c.li	a2,1
    29d6:	01f10593          	addi	a1,sp,31
    29da:	4505                	c.li	a0,1
    29dc:	00f10fa3          	sb	a5,31(sp)
    29e0:	b9dfe0ef          	jal	ra,157c <_write>
    29e4:	6105                	c.addi16sp	sp,32
    29e6:	38f0006f          	j	3574 <__riscv_restore_0>
    29ea:	557d                	c.li	a0,-1
    29ec:	bfe5                	c.j	29e4 <puts+0x2a>
	...

000029f0 <strlen>:
    29f0:	87aa                	c.mv	a5,a0
    29f2:	00350693          	addi	a3,a0,3
    29f6:	9af1                	c.andi	a3,-4
    29f8:	00d50863          	beq	a0,a3,2a08 <strlen+0x18>
    29fc:	00054583          	lbu	a1,0(a0)
    2a00:	c991                	c.beqz	a1,2a14 <strlen+0x24>
    2a02:	0505                	c.addi	a0,1
    2a04:	fed51ce3          	bne	a0,a3,29fc <strlen+0xc>
    2a08:	410c                	c.lw	a1,0(a0)
    2a0a:	200585db          	ffb	a1,a1,zero
    2a0e:	0511                	c.addi	a0,4
    2a10:	dde5                	c.beqz	a1,2a08 <strlen+0x18>
    2a12:	952e                	c.add	a0,a1
    2a14:	8d1d                	c.sub	a0,a5
    2a16:	8082                	c.jr	ra
    2a18:	0001                	c.nop

00002a1a <__vprintf_help>:
    2a1a:	337002ef          	jal	t0,3550 <__riscv_save_0>
    2a1e:	0c50a7ab          	lwgp	a5,35012 # 890c4 <__printf_count>
    2a22:	0785                	c.addi	a5,1
    2a24:	0cf0c2ab          	swgp	a5,35012 # 890c4 <__printf_count>
    2a28:	0c10a5ab          	lwgp	a1,35008 # 890c0 <__vprintf_buf>
    2a2c:	0bd0a7ab          	lwgp	a5,35004 # 890bc <__vprintf_buf_len>
    2a30:	00178713          	addi	a4,a5,1 # 80100001 <_DATA_LMA_START+0x600fc839>
    2a34:	97ae                	c.add	a5,a1
    2a36:	0ae0ceab          	swgp	a4,35004 # 890bc <__vprintf_buf_len>
    2a3a:	00a78023          	sb	a0,0(a5)
    2a3e:	4007695b          	bnec	a4,64,2a50 <__vprintf_help+0x36>
    2a42:	04000613          	li	a2,64
    2a46:	4505                	c.li	a0,1
    2a48:	b35fe0ef          	jal	ra,157c <_write>
    2a4c:	0a00ceab          	swgp	zero,35004 # 890bc <__vprintf_buf_len>
    2a50:	3250006f          	j	3574 <__riscv_restore_0>

00002a54 <viprintf>:
    2a54:	1141                	c.addi	sp,-16
    2a56:	c606                	c.swsp	ra,12(sp)
    2a58:	c422                	c.swsp	s0,8(sp)
    2a5a:	c226                	c.swsp	s1,4(sp)
    2a5c:	0800                	c.addi4spn	s0,sp,16
    2a5e:	c04a                	c.swsp	s2,0(sp)
    2a60:	715d                	c.addi16sp	sp,-80
    2a62:	00f10793          	addi	a5,sp,15
    2a66:	00003637          	lui	a2,0x3
    2a6a:	9bc1                	c.andi	a5,-16
    2a6c:	a1a60613          	addi	a2,a2,-1510 # 2a1a <__vprintf_help>
    2a70:	0cf0c0ab          	swgp	a5,35008 # 890c0 <__vprintf_buf>
    2a74:	0a00ceab          	swgp	zero,35004 # 890bc <__vprintf_buf_len>
    2a78:	20b5                	c.jal	2ae4 <__printf_impl>
    2a7a:	0bd0a62b          	lwgp	a2,35004 # 890bc <__vprintf_buf_len>
    2a7e:	0c10a5ab          	lwgp	a1,35008 # 890c0 <__vprintf_buf>
    2a82:	4505                	c.li	a0,1
    2a84:	af9fe0ef          	jal	ra,157c <_write>
    2a88:	0c50a52b          	lwgp	a0,35012 # 890c4 <__printf_count>
    2a8c:	ff040113          	addi	sp,s0,-16
    2a90:	40b2                	c.lwsp	ra,12(sp)
    2a92:	4422                	c.lwsp	s0,8(sp)
    2a94:	4492                	c.lwsp	s1,4(sp)
    2a96:	4902                	c.lwsp	s2,0(sp)
    2a98:	0141                	c.addi	sp,16
    2a9a:	8082                	c.jr	ra

00002a9c <__print_integral>:
    2a9c:	2b5002ef          	jal	t0,3550 <__riscv_save_0>
    2aa0:	1101                	c.addi	sp,-32
    2aa2:	842a                	c.mv	s0,a0
    2aa4:	84ae                	c.mv	s1,a1
    2aa6:	8932                	c.mv	s2,a2
    2aa8:	c636                	c.swsp	a3,12(sp)
    2aaa:	853a                	c.mv	a0,a4
    2aac:	85be                	c.mv	a1,a5
    2aae:	0830                	c.addi4spn	a2,sp,24
    2ab0:	ca3e                	c.swsp	a5,20(sp)
    2ab2:	2949                	c.jal	2f44 <__int_to_poly>
    2ab4:	46b2                	c.lwsp	a3,12(sp)
    2ab6:	882a                	c.mv	a6,a0
    2ab8:	083c                	c.addi4spn	a5,sp,24
    2aba:	0858                	c.addi4spn	a4,sp,20
    2abc:	864a                	c.mv	a2,s2
    2abe:	85a6                	c.mv	a1,s1
    2ac0:	8522                	c.mv	a0,s0
    2ac2:	2155                	c.jal	2f66 <__print_integral_poly>
    2ac4:	7f40978b          	addigp	a5,34804 # 88ff4 <__digits>
    2ac8:	00a46563          	bltu	s0,a0,2ad2 <__print_integral+0x36>
    2acc:	6105                	c.addi16sp	sp,32
    2ace:	2a70006f          	j	3574 <__riscv_restore_0>
    2ad2:	00044703          	lbu	a4,0(s0)
    2ad6:	0405                	c.addi	s0,1
    2ad8:	973e                	c.add	a4,a5
    2ada:	00074703          	lbu	a4,0(a4) # fff00000 <_DATA_LMA_START+0xdfefc838>
    2ade:	fee40fa3          	sb	a4,-1(s0)
    2ae2:	b7dd                	c.j	2ac8 <__print_integral+0x2c>

00002ae4 <__printf_impl>:
    2ae4:	23d002ef          	jal	t0,3520 <__riscv_save_12>
    2ae8:	a6010113          	addi	sp,sp,-1440
    2aec:	6b85                	c.lui	s7,0x1
    2aee:	842e                	c.mv	s0,a1
    2af0:	0050958b          	addigp	a1,34820 # 89004 <__digits+0x10>
    2af4:	892a                	c.mv	s2,a0
    2af6:	8a32                	c.mv	s4,a2
    2af8:	01c10a93          	addi	s5,sp,28
    2afc:	800b8b93          	addi	s7,s7,-2048 # 800 <analog_read_reg8+0x2c>
    2b00:	0c00c2ab          	swgp	zero,35012 # 890c4 <__printf_count>
    2b04:	c42e                	c.swsp	a1,8(sp)
    2b06:	00094503          	lbu	a0,0(s2)
    2b0a:	e509                	c.bnez	a0,2b14 <__printf_impl+0x30>
    2b0c:	5a010113          	addi	sp,sp,1440
    2b10:	24d0006f          	j	355c <__riscv_restore_12>
    2b14:	00190493          	addi	s1,s2,1
    2b18:	005555db          	beqc	a0,37,2b22 <__printf_impl+0x3e>
    2b1c:	9a02                	c.jalr	s4
    2b1e:	8926                	c.mv	s2,s1
    2b20:	b7dd                	c.j	2b06 <__printf_impl+0x22>
    2b22:	00194783          	lbu	a5,1(s2)
    2b26:	0057e8db          	bnec	a5,37,2b36 <__printf_impl+0x52>
    2b2a:	02500513          	li	a0,37
    2b2e:	00290493          	addi	s1,s2,2
    2b32:	9a02                	c.jalr	s4
    2b34:	b7ed                	c.j	2b1e <__printf_impl+0x3a>
    2b36:	4681                	c.li	a3,0
    2b38:	4701                	c.li	a4,0
    2b3a:	d002                	c.swsp	zero,32(sp)
    2b3c:	0004c783          	lbu	a5,0(s1)
    2b40:	0007e7db          	bnec	a5,32,2b4e <__printf_impl+0x6a>
    2b44:	00276713          	ori	a4,a4,2
    2b48:	0485                	c.addi	s1,1
    2b4a:	4685                	c.li	a3,1
    2b4c:	bfc5                	c.j	2b3c <__printf_impl+0x58>
    2b4e:	00d7e5db          	bnec	a5,45,2b58 <__printf_impl+0x74>
    2b52:	00476713          	ori	a4,a4,4
    2b56:	bfcd                	c.j	2b48 <__printf_impl+0x64>
    2b58:	00b7e5db          	bnec	a5,43,2b62 <__printf_impl+0x7e>
    2b5c:	00876713          	ori	a4,a4,8
    2b60:	b7e5                	c.j	2b48 <__printf_impl+0x64>
    2b62:	0037e5db          	bnec	a5,35,2b6c <__printf_impl+0x88>
    2b66:	01076713          	ori	a4,a4,16
    2b6a:	bff9                	c.j	2b48 <__printf_impl+0x64>
    2b6c:	0107e5db          	bnec	a5,48,2b76 <__printf_impl+0x92>
    2b70:	02076713          	ori	a4,a4,32
    2b74:	bfd1                	c.j	2b48 <__printf_impl+0x64>
    2b76:	c291                	c.beqz	a3,2b7a <__printf_impl+0x96>
    2b78:	d03a                	c.swsp	a4,32(sp)
    2b7a:	04a7eadb          	bnec	a5,42,2bce <__printf_impl+0xea>
    2b7e:	00042983          	lw	s3,0(s0)
    2b82:	00440713          	addi	a4,s0,4
    2b86:	0009d863          	bgez	s3,2b96 <__printf_impl+0xb2>
    2b8a:	5782                	c.lwsp	a5,32(sp)
    2b8c:	413009b3          	neg	s3,s3
    2b90:	0047e793          	ori	a5,a5,4
    2b94:	d03e                	c.swsp	a5,32(sp)
    2b96:	0485                	c.addi	s1,1
    2b98:	843a                	c.mv	s0,a4
    2b9a:	0004c783          	lbu	a5,0(s1)
    2b9e:	5d7d                	c.li	s10,-1
    2ba0:	06e7e8db          	bnec	a5,46,2c10 <__printf_impl+0x12c>
    2ba4:	0014c783          	lbu	a5,1(s1)
    2ba8:	04a7dbdb          	beqc	a5,42,2bfe <__printf_impl+0x11a>
    2bac:	0485                	c.addi	s1,1
    2bae:	4d01                	c.li	s10,0
    2bb0:	4725                	c.li	a4,9
    2bb2:	4629                	c.li	a2,10
    2bb4:	0004c783          	lbu	a5,0(s1)
    2bb8:	fd078793          	addi	a5,a5,-48
    2bbc:	0ff7f693          	andi	a3,a5,255
    2bc0:	04d76863          	bltu	a4,a3,2c10 <__printf_impl+0x12c>
    2bc4:	02cd0d33          	mul	s10,s10,a2
    2bc8:	0485                	c.addi	s1,1
    2bca:	9d3e                	c.add	s10,a5
    2bcc:	b7e5                	c.j	2bb4 <__printf_impl+0xd0>
    2bce:	fd078793          	addi	a5,a5,-48
    2bd2:	0ff7f793          	andi	a5,a5,255
    2bd6:	4725                	c.li	a4,9
    2bd8:	4981                	c.li	s3,0
    2bda:	fcf760e3          	bltu	a4,a5,2b9a <__printf_impl+0xb6>
    2bde:	4725                	c.li	a4,9
    2be0:	4629                	c.li	a2,10
    2be2:	a029                	c.j	2bec <__printf_impl+0x108>
    2be4:	02c989b3          	mul	s3,s3,a2
    2be8:	0485                	c.addi	s1,1
    2bea:	99be                	c.add	s3,a5
    2bec:	0004c783          	lbu	a5,0(s1)
    2bf0:	fd078793          	addi	a5,a5,-48
    2bf4:	0ff7f693          	andi	a3,a5,255
    2bf8:	fed776e3          	bgeu	a4,a3,2be4 <__printf_impl+0x100>
    2bfc:	bf79                	c.j	2b9a <__printf_impl+0xb6>
    2bfe:	00042d03          	lw	s10,0(s0)
    2c02:	00440793          	addi	a5,s0,4
    2c06:	000d5363          	bgez	s10,2c0c <__printf_impl+0x128>
    2c0a:	5d7d                	c.li	s10,-1
    2c0c:	0489                	c.addi	s1,2
    2c0e:	843e                	c.mv	s0,a5
    2c10:	43200793          	li	a5,1074
    2c14:	866a                	c.mv	a2,s10
    2c16:	01a7d463          	bge	a5,s10,2c1e <__printf_impl+0x13a>
    2c1a:	43200613          	li	a2,1074
    2c1e:	0004c783          	lbu	a5,0(s1)
    2c22:	4687e4db          	bnec	a5,104,2c8a <__printf_impl+0x1a6>
    2c26:	5782                	c.lwsp	a5,32(sp)
    2c28:	0014c703          	lbu	a4,1(s1)
    2c2c:	448769db          	bnec	a4,104,2c7e <__printf_impl+0x19a>
    2c30:	0407e793          	ori	a5,a5,64
    2c34:	00248913          	addi	s2,s1,2
    2c38:	d03e                	c.swsp	a5,32(sp)
    2c3a:	00094683          	lbu	a3,0(s2)
    2c3e:	07800793          	li	a5,120
    2c42:	22d7ed63          	bltu	a5,a3,2e7c <__printf_impl+0x398>
    2c46:	05700793          	li	a5,87
    2c4a:	06d7ea63          	bltu	a5,a3,2cbe <__printf_impl+0x1da>
    2c4e:	4016d95b          	beqc	a3,65,2c60 <__printf_impl+0x17c>
    2c52:	fbb68793          	addi	a5,a3,-69 # 7fefffbb <_DATA_LMA_START+0x5fefc7f3>
    2c56:	0ff7f793          	andi	a5,a5,255
    2c5a:	4709                	c.li	a4,2
    2c5c:	22f76063          	bltu	a4,a5,2e7c <__printf_impl+0x398>
    2c60:	00740593          	addi	a1,s0,7
    2c64:	99e1                	c.andi	a1,-8
    2c66:	41d8                	c.lw	a4,4(a1)
    2c68:	87b6                	c.mv	a5,a3
    2c6a:	0206fc93          	andi	s9,a3,32
    2c6e:	4194                	c.lw	a3,0(a1)
    2c70:	00858413          	addi	s0,a1,8
    2c74:	1048                	c.addi4spn	a0,sp,36
    2c76:	100c                	c.addi4spn	a1,sp,32
    2c78:	2e95                	c.jal	2fec <__printf_float_impl>
    2c7a:	84aa                	c.mv	s1,a0
    2c7c:	a8bd                	c.j	2cfa <__printf_impl+0x216>
    2c7e:	0807e793          	ori	a5,a5,128
    2c82:	00148913          	addi	s2,s1,1
    2c86:	d03e                	c.swsp	a5,32(sp)
    2c88:	bf4d                	c.j	2c3a <__printf_impl+0x156>
    2c8a:	40c7eddb          	bnec	a5,108,2ca4 <__printf_impl+0x1c0>
    2c8e:	5782                	c.lwsp	a5,32(sp)
    2c90:	0014c703          	lbu	a4,1(s1)
    2c94:	40c765db          	bnec	a4,108,2c9e <__printf_impl+0x1ba>
    2c98:	2007e793          	ori	a5,a5,512
    2c9c:	bf61                	c.j	2c34 <__printf_impl+0x150>
    2c9e:	1007e793          	ori	a5,a5,256
    2ca2:	b7c5                	c.j	2c82 <__printf_impl+0x19e>
    2ca4:	00148913          	addi	s2,s1,1
    2ca8:	41a7e7db          	bnec	a5,122,2cb6 <__printf_impl+0x1d2>
    2cac:	5782                	c.lwsp	a5,32(sp)
    2cae:	1007e793          	ori	a5,a5,256
    2cb2:	d03e                	c.swsp	a5,32(sp)
    2cb4:	b759                	c.j	2c3a <__printf_impl+0x156>
    2cb6:	ff47dbdb          	beqc	a5,116,2cac <__printf_impl+0x1c8>
    2cba:	8926                	c.mv	s2,s1
    2cbc:	bfbd                	c.j	2c3a <__printf_impl+0x156>
    2cbe:	fa868793          	addi	a5,a3,-88
    2cc2:	0ff7f793          	andi	a5,a5,255
    2cc6:	02000713          	li	a4,32
    2cca:	1af76963          	bltu	a4,a5,2e7c <__printf_impl+0x398>
    2cce:	45a2                	c.lwsp	a1,8(sp)
    2cd0:	0cf587db          	lea.w	a5,a1,a5
    2cd4:	439c                	c.lw	a5,0(a5)
    2cd6:	8782                	c.jr	a5
    2cd8:	45a9                	c.li	a1,10
    2cda:	5782                	c.lwsp	a5,32(sp)
    2cdc:	1267f35b          	bbc	a5,6,2e02 <__printf_impl+0x31e>
    2ce0:	00044703          	lbu	a4,0(s0)
    2ce4:	00440d93          	addi	s11,s0,4
    2ce8:	4781                	c.li	a5,0
    2cea:	a289                	c.j	2e2c <__printf_impl+0x348>
    2cec:	401c                	c.lw	a5,0(s0)
    2cee:	4c81                	c.li	s9,0
    2cf0:	0411                	c.addi	s0,4
    2cf2:	02510493          	addi	s1,sp,37
    2cf6:	02f10223          	sb	a5,36(sp)
    2cfa:	02410c13          	addi	s8,sp,36
    2cfe:	a025                	c.j	2d26 <__printf_impl+0x242>
    2d00:	00042c03          	lw	s8,0(s0)
    2d04:	85b2                	c.mv	a1,a2
    2d06:	8562                	c.mv	a0,s8
    2d08:	c632                	c.swsp	a2,12(sp)
    2d0a:	2f11                	c.jal	341e <strnlen>
    2d0c:	57fd                	c.li	a5,-1
    2d0e:	00440c93          	addi	s9,s0,4
    2d12:	00fd0663          	beq	s10,a5,2d1e <__printf_impl+0x23a>
    2d16:	4632                	c.lwsp	a2,12(sp)
    2d18:	00a65363          	bge	a2,a0,2d1e <__printf_impl+0x23a>
    2d1c:	8532                	c.mv	a0,a2
    2d1e:	8466                	c.mv	s0,s9
    2d20:	00ac04b3          	add	s1,s8,a0
    2d24:	4c81                	c.li	s9,0
    2d26:	5782                	c.lwsp	a5,32(sp)
    2d28:	02d00693          	li	a3,45
    2d2c:	40a7fb5b          	bbs	a5,10,2d42 <__printf_impl+0x25e>
    2d30:	02b00693          	li	a3,43
    2d34:	4037f75b          	bbs	a5,3,2d42 <__printf_impl+0x25e>
    2d38:	8d56                	c.mv	s10,s5
    2d3a:	0017f85b          	bbc	a5,1,2d4a <__printf_impl+0x266>
    2d3e:	02000693          	li	a3,32
    2d42:	01d10d13          	addi	s10,sp,29
    2d46:	00d10e23          	sb	a3,28(sp)
    2d4a:	0177f6b3          	and	a3,a5,s7
    2d4e:	ca91                	c.beqz	a3,2d62 <__printf_impl+0x27e>
    2d50:	03000693          	li	a3,48
    2d54:	00dd0023          	sb	a3,0(s10)
    2d58:	05800693          	li	a3,88
    2d5c:	00dd00a3          	sb	a3,1(s10)
    2d60:	0d09                	c.addi	s10,2
    2d62:	5627f75b          	bbs	a5,2,2ed0 <__printf_impl+0x3ec>
    2d66:	41848db3          	sub	s11,s1,s8
    2d6a:	4057f95b          	bbs	a5,5,2d7c <__printf_impl+0x298>
    2d6e:	41b987b3          	sub	a5,s3,s11
    2d72:	415d06b3          	sub	a3,s10,s5
    2d76:	8f95                	c.sub	a5,a3
    2d78:	16f04a63          	bgtz	a5,2eec <__printf_impl+0x408>
    2d7c:	87d6                	c.mv	a5,s5
    2d7e:	a271                	c.j	2f0a <__printf_impl+0x426>
    2d80:	5682                	c.lwsp	a3,32(sp)
    2d82:	0266f55b          	bbc	a3,6,2dac <__printf_impl+0x2c8>
    2d86:	00040703          	lb	a4,0(s0)
    2d8a:	00440d93          	addi	s11,s0,4
    2d8e:	41f75793          	srai	a5,a4,0x1f
    2d92:	0407d463          	bgez	a5,2dda <__printf_impl+0x2f6>
    2d96:	00e035b3          	snez	a1,a4
    2d9a:	40f007b3          	neg	a5,a5
    2d9e:	40e00733          	neg	a4,a4
    2da2:	8f8d                	c.sub	a5,a1
    2da4:	4006e693          	ori	a3,a3,1024
    2da8:	d036                	c.swsp	a3,32(sp)
    2daa:	a805                	c.j	2dda <__printf_impl+0x2f6>
    2dac:	0076f75b          	bbc	a3,7,2dba <__printf_impl+0x2d6>
    2db0:	00041703          	lh	a4,0(s0)
    2db4:	00440d93          	addi	s11,s0,4
    2db8:	bfd9                	c.j	2d8e <__printf_impl+0x2aa>
    2dba:	0086f65b          	bbc	a3,8,2dc6 <__printf_impl+0x2e2>
    2dbe:	4018                	c.lw	a4,0(s0)
    2dc0:	00440d93          	addi	s11,s0,4
    2dc4:	b7e9                	c.j	2d8e <__printf_impl+0x2aa>
    2dc6:	be96fc5b          	bbc	a3,9,2dbe <__printf_impl+0x2da>
    2dca:	041d                	c.addi	s0,7
    2dcc:	9861                	c.andi	s0,-8
    2dce:	405c                	c.lw	a5,4(s0)
    2dd0:	4018                	c.lw	a4,0(s0)
    2dd2:	00840d93          	addi	s11,s0,8
    2dd6:	0007c963          	bltz	a5,2de8 <__printf_impl+0x304>
    2dda:	56fd                	c.li	a3,-1
    2ddc:	45a9                	c.li	a1,10
    2dde:	4c81                	c.li	s9,0
    2de0:	04dd1b63          	bne	s10,a3,2e36 <__printf_impl+0x352>
    2de4:	4605                	c.li	a2,1
    2de6:	a0bd                	c.j	2e54 <__printf_impl+0x370>
    2de8:	f75d                	c.bnez	a4,2d96 <__printf_impl+0x2b2>
    2dea:	800005b7          	lui	a1,0x80000
    2dee:	fab794e3          	bne	a5,a1,2d96 <__printf_impl+0x2b2>
    2df2:	4701                	c.li	a4,0
    2df4:	800007b7          	lui	a5,0x80000
    2df8:	b775                	c.j	2da4 <__printf_impl+0x2c0>
    2dfa:	45c1                	c.li	a1,16
    2dfc:	bdf9                	c.j	2cda <__printf_impl+0x1f6>
    2dfe:	45a1                	c.li	a1,8
    2e00:	bde9                	c.j	2cda <__printf_impl+0x1f6>
    2e02:	0077f75b          	bbc	a5,7,2e10 <__printf_impl+0x32c>
    2e06:	00045703          	lhu	a4,0(s0)
    2e0a:	00440d93          	addi	s11,s0,4
    2e0e:	bde9                	c.j	2ce8 <__printf_impl+0x204>
    2e10:	0087f65b          	bbc	a5,8,2e1c <__printf_impl+0x338>
    2e14:	4018                	c.lw	a4,0(s0)
    2e16:	00440d93          	addi	s11,s0,4
    2e1a:	b5f9                	c.j	2ce8 <__printf_impl+0x204>
    2e1c:	be97fc5b          	bbc	a5,9,2e14 <__printf_impl+0x330>
    2e20:	041d                	c.addi	s0,7
    2e22:	9861                	c.andi	s0,-8
    2e24:	4018                	c.lw	a4,0(s0)
    2e26:	405c                	c.lw	a5,4(s0)
    2e28:	00840d93          	addi	s11,s0,8
    2e2c:	0206fc93          	andi	s9,a3,32
    2e30:	56fd                	c.li	a3,-1
    2e32:	02dd0863          	beq	s10,a3,2e62 <__printf_impl+0x37e>
    2e36:	5682                	c.lwsp	a3,32(sp)
    2e38:	fdf6f693          	andi	a3,a3,-33
    2e3c:	d036                	c.swsp	a3,32(sp)
    2e3e:	0105eb5b          	bnec	a1,16,2e54 <__printf_impl+0x370>
    2e42:	5682                	c.lwsp	a3,32(sp)
    2e44:	0046f85b          	bbc	a3,4,2e54 <__printf_impl+0x370>
    2e48:	00f76533          	or	a0,a4,a5
    2e4c:	c501                	c.beqz	a0,2e54 <__printf_impl+0x370>
    2e4e:	0176e6b3          	or	a3,a3,s7
    2e52:	d036                	c.swsp	a3,32(sp)
    2e54:	86b2                	c.mv	a3,a2
    2e56:	5602                	c.lwsp	a2,32(sp)
    2e58:	1048                	c.addi4spn	a0,sp,36
    2e5a:	3189                	c.jal	2a9c <__print_integral>
    2e5c:	846e                	c.mv	s0,s11
    2e5e:	84aa                	c.mv	s1,a0
    2e60:	bd69                	c.j	2cfa <__printf_impl+0x216>
    2e62:	4605                	c.li	a2,1
    2e64:	bfe9                	c.j	2e3e <__printf_impl+0x35a>
    2e66:	5602                	c.lwsp	a2,32(sp)
    2e68:	0c50a7ab          	lwgp	a5,35012 # 890c4 <__printf_count>
    2e6c:	4018                	c.lw	a4,0(s0)
    2e6e:	00440693          	addi	a3,s0,4
    2e72:	0066795b          	bbc	a2,6,2e84 <__printf_impl+0x3a0>
    2e76:	00f70023          	sb	a5,0(a4)
    2e7a:	8436                	c.mv	s0,a3
    2e7c:	1044                	c.addi4spn	s1,sp,36
    2e7e:	4c81                	c.li	s9,0
    2e80:	8c26                	c.mv	s8,s1
    2e82:	b555                	c.j	2d26 <__printf_impl+0x242>
    2e84:	0076755b          	bbc	a2,7,2e8e <__printf_impl+0x3aa>
    2e88:	00f71023          	sh	a5,0(a4)
    2e8c:	b7fd                	c.j	2e7a <__printf_impl+0x396>
    2e8e:	c31c                	c.sw	a5,0(a4)
    2e90:	fe86755b          	bbs	a2,8,2e7a <__printf_impl+0x396>
    2e94:	be96735b          	bbc	a2,9,2e7a <__printf_impl+0x396>
    2e98:	87fd                	c.srai	a5,0x1f
    2e9a:	c35c                	c.sw	a5,4(a4)
    2e9c:	bff9                	c.j	2e7a <__printf_impl+0x396>
    2e9e:	000dc503          	lbu	a0,0(s11)
    2ea2:	0d85                	c.addi	s11,1
    2ea4:	00ace533          	or	a0,s9,a0
    2ea8:	9a02                	c.jalr	s4
    2eaa:	ffadeae3          	bltu	s11,s10,2e9e <__printf_impl+0x3ba>
    2eae:	4781                	c.li	a5,0
    2eb0:	015d6463          	bltu	s10,s5,2eb8 <__printf_impl+0x3d4>
    2eb4:	41aa87b3          	sub	a5,s5,s10
    2eb8:	99be                	c.add	s3,a5
    2eba:	8d62                	c.mv	s10,s8
    2ebc:	01a49c63          	bne	s1,s10,2ed4 <__printf_impl+0x3f0>
    2ec0:	418484b3          	sub	s1,s1,s8
    2ec4:	409984b3          	sub	s1,s3,s1
    2ec8:	00904d63          	bgtz	s1,2ee2 <__printf_impl+0x3fe>
    2ecc:	0905                	c.addi	s2,1
    2ece:	b925                	c.j	2b06 <__printf_impl+0x22>
    2ed0:	8dd6                	c.mv	s11,s5
    2ed2:	bfe1                	c.j	2eaa <__printf_impl+0x3c6>
    2ed4:	000d4503          	lbu	a0,0(s10)
    2ed8:	0d05                	c.addi	s10,1
    2eda:	00ace533          	or	a0,s9,a0
    2ede:	9a02                	c.jalr	s4
    2ee0:	bff1                	c.j	2ebc <__printf_impl+0x3d8>
    2ee2:	02000513          	li	a0,32
    2ee6:	14fd                	c.addi	s1,-1
    2ee8:	9a02                	c.jalr	s4
    2eea:	bff9                	c.j	2ec8 <__printf_impl+0x3e4>
    2eec:	02000513          	li	a0,32
    2ef0:	c63e                	c.swsp	a5,12(sp)
    2ef2:	9a02                	c.jalr	s4
    2ef4:	47b2                	c.lwsp	a5,12(sp)
    2ef6:	17fd                	c.addi	a5,-1
    2ef8:	b541                	c.j	2d78 <__printf_impl+0x294>
    2efa:	0007c503          	lbu	a0,0(a5) # 80000000 <_DATA_LMA_START+0x5fffc838>
    2efe:	c63e                	c.swsp	a5,12(sp)
    2f00:	00ace533          	or	a0,s9,a0
    2f04:	9a02                	c.jalr	s4
    2f06:	47b2                	c.lwsp	a5,12(sp)
    2f08:	0785                	c.addi	a5,1
    2f0a:	ffa7e8e3          	bltu	a5,s10,2efa <__printf_impl+0x416>
    2f0e:	4781                	c.li	a5,0
    2f10:	015d6463          	bltu	s10,s5,2f18 <__printf_impl+0x434>
    2f14:	41aa87b3          	sub	a5,s5,s10
    2f18:	99be                	c.add	s3,a5
    2f1a:	5782                	c.lwsp	a5,32(sp)
    2f1c:	0057f65b          	bbc	a5,5,2f28 <__printf_impl+0x444>
    2f20:	41b989b3          	sub	s3,s3,s11
    2f24:	01304b63          	bgtz	s3,2f3a <__printf_impl+0x456>
    2f28:	fb8482e3          	beq	s1,s8,2ecc <__printf_impl+0x3e8>
    2f2c:	000c4503          	lbu	a0,0(s8)
    2f30:	0c05                	c.addi	s8,1
    2f32:	00ace533          	or	a0,s9,a0
    2f36:	9a02                	c.jalr	s4
    2f38:	bfc5                	c.j	2f28 <__printf_impl+0x444>
    2f3a:	03000513          	li	a0,48
    2f3e:	19fd                	c.addi	s3,-1
    2f40:	9a02                	c.jalr	s4
    2f42:	b7cd                	c.j	2f24 <__printf_impl+0x440>

00002f44 <__int_to_poly>:
    2f44:	87aa                	c.mv	a5,a0
    2f46:	4501                	c.li	a0,0
    2f48:	00b7e733          	or	a4,a5,a1
    2f4c:	e311                	c.bnez	a4,2f50 <__int_to_poly+0xc>
    2f4e:	8082                	c.jr	ra
    2f50:	0aa6075b          	lea.h	a4,a2,a0
    2f54:	00f71023          	sh	a5,0(a4)
    2f58:	01059713          	slli	a4,a1,0x10
    2f5c:	83c1                	c.srli	a5,0x10
    2f5e:	8fd9                	c.or	a5,a4
    2f60:	81c1                	c.srli	a1,0x10
    2f62:	0505                	c.addi	a0,1
    2f64:	b7d5                	c.j	2f48 <__int_to_poly+0x4>

00002f66 <__print_integral_poly>:
    2f66:	5ea002ef          	jal	t0,3550 <__riscv_save_0>
    2f6a:	84ba                	c.mv	s1,a4
    2f6c:	fff80893          	addi	a7,a6,-1 # fffff <_STACK_TOP+0x5ffff>
    2f70:	0b07875b          	lea.h	a4,a5,a6
    2f74:	8346                	c.mv	t1,a7
    2f76:	4401                	c.li	s0,0
    2f78:	8e3a                	c.mv	t3,a4
    2f7a:	1779                	c.addi	a4,-2
    2f7c:	02035563          	bgez	t1,2fa6 <__print_integral_poly+0x40>
    2f80:	03005f63          	blez	a6,2fbe <__print_integral_poly+0x58>
    2f84:	ffee5703          	lhu	a4,-2(t3) # ffffe <_STACK_TOP+0x5fffe>
    2f88:	e701                	c.bnez	a4,2f90 <__print_integral_poly+0x2a>
    2f8a:	03105a63          	blez	a7,2fbe <__print_integral_poly+0x58>
    2f8e:	8846                	c.mv	a6,a7
    2f90:	8726                	c.mv	a4,s1
    2f92:	16fd                	c.addi	a3,-1
    2f94:	3fc9                	c.jal	2f66 <__print_integral_poly>
    2f96:	87aa                	c.mv	a5,a0
    2f98:	0505                	c.addi	a0,1
    2f9a:	00878023          	sb	s0,0(a5)
    2f9e:	409c                	c.lw	a5,0(s1)
    2fa0:	0785                	c.addi	a5,1
    2fa2:	c09c                	c.sw	a5,0(s1)
    2fa4:	abc1                	c.j	3574 <__riscv_restore_0>
    2fa6:	00075e83          	lhu	t4,0(a4)
    2faa:	0442                	c.slli	s0,0x10
    2fac:	9476                	c.add	s0,t4
    2fae:	02b45eb3          	divu	t4,s0,a1
    2fb2:	137d                	c.addi	t1,-1
    2fb4:	02b47433          	remu	s0,s0,a1
    2fb8:	01d71023          	sh	t4,0(a4)
    2fbc:	bf7d                	c.j	2f7a <__print_integral_poly+0x14>
    2fbe:	c011                	c.beqz	s0,2fc2 <__print_integral_poly+0x5c>
    2fc0:	16fd                	c.addi	a3,-1
    2fc2:	00d04763          	bgtz	a3,2fd0 <__print_integral_poly+0x6a>
    2fc6:	0085ee5b          	bnec	a1,8,2fe2 <__print_integral_poly+0x7c>
    2fca:	00467c5b          	bbc	a2,4,2fe2 <__print_integral_poly+0x7c>
    2fce:	4685                	c.li	a3,1
    2fd0:	4781                	c.li	a5,0
    2fd2:	00f50733          	add	a4,a0,a5
    2fd6:	00070023          	sb	zero,0(a4)
    2fda:	0785                	c.addi	a5,1
    2fdc:	fed7cbe3          	blt	a5,a3,2fd2 <__print_integral_poly+0x6c>
    2fe0:	9536                	c.add	a0,a3
    2fe2:	dc55                	c.beqz	s0,2f9e <__print_integral_poly+0x38>
    2fe4:	00850023          	sb	s0,0(a0)
    2fe8:	0505                	c.addi	a0,1
    2fea:	bf55                	c.j	2f9e <__print_integral_poly+0x38>

00002fec <__printf_float_impl>:
    2fec:	534002ef          	jal	t0,3520 <__riscv_save_12>
    2ff0:	0df7fc93          	andi	s9,a5,223
    2ff4:	7169                	c.addi16sp	sp,-304
    2ff6:	8b2a                	c.mv	s6,a0
    2ff8:	892e                	c.mv	s2,a1
    2ffa:	84b2                	c.mv	s1,a2
    2ffc:	89b6                	c.mv	s3,a3
    2ffe:	8abe                	c.mv	s5,a5
    3000:	467cec5b          	bnec	s9,71,3078 <__printf_float_impl+0x8c>
    3004:	0005aa03          	lw	s4,0(a1) # 80000000 <_DATA_LMA_START+0x5fffc838>
    3008:	010a4a13          	xori	s4,s4,16
    300c:	104a2a5b          	bfoz	s4,s4,4,4
    3010:	0604da63          	bgez	s1,3084 <__printf_float_impl+0x98>
    3014:	44b5                	c.li	s1,13
    3016:	401cd35b          	beqc	s9,65,301c <__printf_float_impl+0x30>
    301a:	4499                	c.li	s1,6
    301c:	c24e                	c.swsp	s3,4(sp)
    301e:	7947245b          	bfoz	s0,a4,30,20
    3022:	4c072ddb          	bfoz	s11,a4,19,0
    3026:	00075863          	bgez	a4,3036 <__printf_float_impl+0x4a>
    302a:	00092783          	lw	a5,0(s2)
    302e:	4007e793          	ori	a5,a5,1024
    3032:	00f92023          	sw	a5,0(s2)
    3036:	401cea5b          	bnec	s9,65,304a <__printf_float_impl+0x5e>
    303a:	00092783          	lw	a5,0(s2)
    303e:	6705                	c.lui	a4,0x1
    3040:	80070713          	addi	a4,a4,-2048 # 800 <analog_read_reg8+0x2c>
    3044:	8fd9                	c.or	a5,a4
    3046:	00f92023          	sw	a5,0(s2)
    304a:	7ff00793          	li	a5,2047
    304e:	04f41663          	bne	s0,a5,309a <__printf_float_impl+0xae>
    3052:	00092783          	lw	a5,0(s2)
    3056:	013de9b3          	or	s3,s11,s3
    305a:	fdf7f793          	andi	a5,a5,-33
    305e:	00f92023          	sw	a5,0(s2)
    3062:	02098763          	beqz	s3,3090 <__printf_float_impl+0xa4>
    3066:	000895b7          	lui	a1,0x89
    306a:	08858593          	addi	a1,a1,136 # 89088 <__digits+0x94>
    306e:	855a                	c.mv	a0,s6
    3070:	2ea5                	c.jal	33e8 <strcpy>
    3072:	050d                	c.addi	a0,3
    3074:	6155                	c.addi16sp	sp,304
    3076:	a1dd                	c.j	355c <__riscv_restore_12>
    3078:	4a01                	c.li	s4,0
    307a:	f81ceb5b          	bnec	s9,65,3010 <__printf_float_impl+0x24>
    307e:	01f65a13          	srli	s4,a2,0x1f
    3082:	b779                	c.j	3010 <__printf_float_impl+0x24>
    3084:	fcc1                	c.bnez	s1,301c <__printf_float_impl+0x30>
    3086:	fb9c8493          	addi	s1,s9,-71
    308a:	0014b493          	seqz	s1,s1
    308e:	b779                	c.j	301c <__printf_float_impl+0x30>
    3090:	000895b7          	lui	a1,0x89
    3094:	08c58593          	addi	a1,a1,140 # 8908c <__digits+0x98>
    3098:	bfd9                	c.j	306e <__printf_float_impl+0x82>
    309a:	e811                	c.bnez	s0,30ae <__printf_float_impl+0xc2>
    309c:	013de7b3          	or	a5,s11,s3
    30a0:	c0300413          	li	s0,-1021
    30a4:	18079263          	bnez	a5,3228 <__printf_float_impl+0x23c>
    30a8:	03500413          	li	s0,53
    30ac:	a819                	c.j	30c2 <__printf_float_impl+0xd6>
    30ae:	001007b7          	lui	a5,0x100
    30b2:	01b7edb3          	or	s11,a5,s11
    30b6:	c0240413          	addi	s0,s0,-1022
    30ba:	03400793          	li	a5,52
    30be:	1687d363          	bge	a5,s0,3224 <__printf_float_impl+0x238>
    30c2:	fcb40413          	addi	s0,s0,-53
    30c6:	00445c13          	srli	s8,s0,0x4
    30ca:	001c1b93          	slli	s7,s8,0x1
    30ce:	865e                	c.mv	a2,s7
    30d0:	4581                	c.li	a1,0
    30d2:	1008                	c.addi4spn	a0,sp,32
    30d4:	2695                	c.jal	3438 <memset>
    30d6:	883d                	c.andi	s0,15
    30d8:	1a0c                	c.addi4spn	a1,sp,304
    30da:	9bae                	c.add	s7,a1
    30dc:	8622                	c.mv	a2,s0
    30de:	854e                	c.mv	a0,s3
    30e0:	85ee                	c.mv	a1,s11
    30e2:	2139                	c.jal	34f0 <__ashldi3>
    30e4:	0c05                	c.addi	s8,1
    30e6:	100c                	c.addi4spn	a1,sp,32
    30e8:	4641                	c.li	a2,16
    30ea:	eeab9823          	sh	a0,-272(s7)
    30ee:	8e01                	c.sub	a2,s0
    30f0:	0b858bdb          	lea.h	s7,a1,s8
    30f4:	854e                	c.mv	a0,s3
    30f6:	85ee                	c.mv	a1,s11
    30f8:	26e1                	c.jal	34c0 <__lshrdi3>
    30fa:	865e                	c.mv	a2,s7
    30fc:	35a1                	c.jal	2f44 <__int_to_poly>
    30fe:	4d01                	c.li	s10,0
    3100:	9c2a                	c.add	s8,a0
    3102:	57fd                	c.li	a5,-1
    3104:	ce3e                	c.swsp	a5,28(sp)
    3106:	4441                	c.li	s0,16
    3108:	401cd35b          	beqc	s9,65,310e <__printf_float_impl+0x122>
    310c:	4429                	c.li	s0,10
    310e:	8862                	c.mv	a6,s8
    3110:	101c                	c.addi4spn	a5,sp,32
    3112:	4685                	c.li	a3,1
    3114:	0878                	c.addi4spn	a4,sp,28
    3116:	4601                	c.li	a2,0
    3118:	85a2                	c.mv	a1,s0
    311a:	855a                	c.mv	a0,s6
    311c:	35a9                	c.jal	2f66 <__print_integral_poly>
    311e:	02e00793          	li	a5,46
    3122:	001c3c13          	seqz	s8,s8
    3126:	00f50023          	sb	a5,0(a0)
    312a:	0dbafa93          	andi	s5,s5,219
    312e:	00150693          	addi	a3,a0,1
    3132:	87e2                	c.mv	a5,s8
    3134:	401ad35b          	beqc	s5,65,313a <__printf_float_impl+0x14e>
    3138:	4781                	c.li	a5,0
    313a:	00148713          	addi	a4,s1,1
    313e:	973e                	c.add	a4,a5
    3140:	fffd0313          	addi	t1,s10,-1
    3144:	1130                	c.addi4spn	a2,sp,168
    3146:	001d1593          	slli	a1,s10,0x1
    314a:	0ba6065b          	lea.h	a2,a2,s10
    314e:	881a                	c.mv	a6,t1
    3150:	4781                	c.li	a5,0
    3152:	1679                	c.addi	a2,-2
    3154:	16085c63          	bgez	a6,32cc <__printf_float_impl+0x2e0>
    3158:	01a05863          	blez	s10,3168 <__printf_float_impl+0x17c>
    315c:	1a10                	c.addi4spn	a2,sp,304
    315e:	962e                	c.add	a2,a1
    3160:	f7665603          	lhu	a2,-138(a2)
    3164:	e211                	c.bnez	a2,3168 <__printf_float_impl+0x17c>
    3166:	8d1a                	c.mv	s10,t1
    3168:	160c0c63          	beqz	s8,32e0 <__printf_float_impl+0x2f4>
    316c:	4672                	c.lwsp	a2,28(sp)
    316e:	0017bc13          	seqz	s8,a5
    3172:	167d                	c.addi	a2,-1
    3174:	ce32                	c.swsp	a2,28(sp)
    3176:	00f68023          	sb	a5,0(a3)
    317a:	0685                	c.addi	a3,1
    317c:	f371                	c.bnez	a4,3140 <__printf_float_impl+0x154>
    317e:	567ce45b          	bnec	s9,71,32e6 <__printf_float_impl+0x2fa>
    3182:	47f2                	c.lwsp	a5,28(sp)
    3184:	fff48713          	addi	a4,s1,-1
    3188:	1897d163          	bge	a5,s1,330a <__printf_float_impl+0x31e>
    318c:	5671                	c.li	a2,-4
    318e:	16c7ce63          	blt	a5,a2,330a <__printf_float_impl+0x31e>
    3192:	40f704b3          	sub	s1,a4,a5
    3196:	04600c93          	li	s9,70
    319a:	0489                	c.addi	s1,2
    319c:	9526                	c.add	a0,s1
    319e:	fff54683          	lbu	a3,-1(a0)
    31a2:	40145713          	srai	a4,s0,0x1
    31a6:	fff50793          	addi	a5,a0,-1
    31aa:	00e6a6b3          	slt	a3,a3,a4
    31ae:	0016c693          	xori	a3,a3,1
    31b2:	863e                	c.mv	a2,a5
    31b4:	1acb7663          	bgeu	s6,a2,3360 <__printf_float_impl+0x374>
    31b8:	18069263          	bnez	a3,333c <__printf_float_impl+0x350>
    31bc:	17fd                	c.addi	a5,-1
    31be:	00178513          	addi	a0,a5,1 # 100001 <FLASH_SIZE+0x1>
    31c2:	00fb7763          	bgeu	s6,a5,31d0 <__printf_float_impl+0x1e4>
    31c6:	000a0563          	beqz	s4,31d0 <__printf_float_impl+0x1e4>
    31ca:	0007c703          	lbu	a4,0(a5)
    31ce:	d77d                	c.beqz	a4,31bc <__printf_float_impl+0x1d0>
    31d0:	fff54783          	lbu	a5,-1(a0)
    31d4:	00e7e7db          	bnec	a5,46,31e2 <__printf_float_impl+0x1f6>
    31d8:	00092783          	lw	a5,0(s2)
    31dc:	4047f35b          	bbs	a5,4,31e2 <__printf_float_impl+0x1f6>
    31e0:	157d                	c.addi	a0,-1
    31e2:	46bd                	c.li	a3,15
    31e4:	7f40970b          	addigp	a4,34804 # 88ff4 <__digits>
    31e8:	1aab6a63          	bltu	s6,a0,339c <__printf_float_impl+0x3b0>
    31ec:	5c5ce35b          	bnec	s9,69,33b2 <__printf_float_impl+0x3c6>
    31f0:	01950023          	sb	s9,0(a0)
    31f4:	4772                	c.lwsp	a4,28(sp)
    31f6:	02b00793          	li	a5,43
    31fa:	00075463          	bgez	a4,3202 <__printf_float_impl+0x216>
    31fe:	02d00793          	li	a5,45
    3202:	00f500a3          	sb	a5,1(a0)
    3206:	47f2                	c.lwsp	a5,28(sp)
    3208:	4689                	c.li	a3,2
    320a:	41f7d713          	srai	a4,a5,0x1f
    320e:	8fb9                	c.xor	a5,a4
    3210:	40e78733          	sub	a4,a5,a4
    3214:	41f75793          	srai	a5,a4,0x1f
    3218:	4601                	c.li	a2,0
    321a:	45a9                	c.li	a1,10
    321c:	0509                	c.addi	a0,2
    321e:	87fff0ef          	jal	ra,2a9c <__print_integral>
    3222:	bd89                	c.j	3074 <__printf_float_impl+0x88>
    3224:	06804063          	bgtz	s0,3284 <__printf_float_impl+0x298>
    3228:	40800433          	neg	s0,s0
    322c:	00445c13          	srli	s8,s0,0x4
    3230:	001c1b93          	slli	s7,s8,0x1
    3234:	865e                	c.mv	a2,s7
    3236:	4581                	c.li	a1,0
    3238:	1128                	c.addi4spn	a0,sp,168
    323a:	2afd                	c.jal	3438 <memset>
    323c:	1134                	c.addi4spn	a3,sp,168
    323e:	883d                	c.andi	s0,15
    3240:	9bb6                	c.add	s7,a3
    3242:	02540413          	addi	s0,s0,37
    3246:	86de                	c.mv	a3,s7
    3248:	4781                	c.li	a5,0
    324a:	4512                	c.lwsp	a0,4(sp)
    324c:	8622                	c.mv	a2,s0
    324e:	8d3e                	c.mv	s10,a5
    3250:	85ee                	c.mv	a1,s11
    3252:	0785                	c.addi	a5,1
    3254:	c636                	c.swsp	a3,12(sp)
    3256:	c43e                	c.swsp	a5,8(sp)
    3258:	24a5                	c.jal	34c0 <__lshrdi3>
    325a:	46b2                	c.lwsp	a3,12(sp)
    325c:	1441                	c.addi	s0,-16
    325e:	00a69023          	sh	a0,0(a3)
    3262:	47a2                	c.lwsp	a5,8(sp)
    3264:	0689                	c.addi	a3,2
    3266:	fe0452e3          	bgez	s0,324a <__printf_float_impl+0x25e>
    326a:	0afb8bdb          	lea.h	s7,s7,a5
    326e:	40800633          	neg	a2,s0
    3272:	854e                	c.mv	a0,s3
    3274:	85ee                	c.mv	a1,s11
    3276:	0d09                	c.addi	s10,2
    3278:	9d62                	c.add	s10,s8
    327a:	2c9d                	c.jal	34f0 <__ashldi3>
    327c:	4c01                	c.li	s8,0
    327e:	00ab9023          	sh	a0,0(s7)
    3282:	b541                	c.j	3102 <__printf_float_impl+0x116>
    3284:	03500613          	li	a2,53
    3288:	8e01                	c.sub	a2,s0
    328a:	854e                	c.mv	a0,s3
    328c:	85ee                	c.mv	a1,s11
    328e:	2c0d                	c.jal	34c0 <__lshrdi3>
    3290:	1010                	c.addi4spn	a2,sp,32
    3292:	394d                	c.jal	2f44 <__int_to_poly>
    3294:	02500613          	li	a2,37
    3298:	8c2a                	c.mv	s8,a0
    329a:	40860433          	sub	s0,a2,s0
    329e:	0a810b93          	addi	s7,sp,168
    32a2:	4d01                	c.li	s10,0
    32a4:	0d05                	c.addi	s10,1
    32a6:	00045a63          	bgez	s0,32ba <__printf_float_impl+0x2ce>
    32aa:	40800633          	neg	a2,s0
    32ae:	854e                	c.mv	a0,s3
    32b0:	85ee                	c.mv	a1,s11
    32b2:	2c3d                	c.jal	34f0 <__ashldi3>
    32b4:	00ab9023          	sh	a0,0(s7)
    32b8:	b5a9                	c.j	3102 <__printf_float_impl+0x116>
    32ba:	4512                	c.lwsp	a0,4(sp)
    32bc:	8622                	c.mv	a2,s0
    32be:	85ee                	c.mv	a1,s11
    32c0:	2401                	c.jal	34c0 <__lshrdi3>
    32c2:	1441                	c.addi	s0,-16
    32c4:	00ab9023          	sh	a0,0(s7)
    32c8:	0b89                	c.addi	s7,2
    32ca:	bfe9                	c.j	32a4 <__printf_float_impl+0x2b8>
    32cc:	00065883          	lhu	a7,0(a2)
    32d0:	187d                	c.addi	a6,-1
    32d2:	028888b3          	mul	a7,a7,s0
    32d6:	97c6                	c.add	a5,a7
    32d8:	00f61023          	sh	a5,0(a2)
    32dc:	83c1                	c.srli	a5,0x10
    32de:	bd95                	c.j	3152 <__printf_float_impl+0x166>
    32e0:	177d                	c.addi	a4,-1
    32e2:	4c01                	c.li	s8,0
    32e4:	bd49                	c.j	3176 <__printf_float_impl+0x18a>
    32e6:	8726                	c.mv	a4,s1
    32e8:	ea6cd95b          	beqc	s9,70,319a <__printf_float_impl+0x1ae>
    32ec:	47f2                	c.lwsp	a5,28(sp)
    32ee:	001b0613          	addi	a2,s6,1
    32f2:	02f04463          	bgtz	a5,331a <__printf_float_impl+0x32e>
    32f6:	c785                	c.beqz	a5,331e <__printf_float_impl+0x332>
    32f8:	40f507b3          	sub	a5,a0,a5
    32fc:	02d7e963          	bltu	a5,a3,332e <__printf_float_impl+0x342>
    3300:	001b4783          	lbu	a5,1(s6)
    3304:	00fb0023          	sb	a5,0(s6)
    3308:	a819                	c.j	331e <__printf_float_impl+0x332>
    330a:	04500c93          	li	s9,69
    330e:	bff9                	c.j	32ec <__printf_float_impl+0x300>
    3310:	fff54783          	lbu	a5,-1(a0)
    3314:	157d                	c.addi	a0,-1
    3316:	00f500a3          	sb	a5,1(a0)
    331a:	fec51be3          	bne	a0,a2,3310 <__printf_float_impl+0x324>
    331e:	02e00793          	li	a5,46
    3322:	001b0513          	addi	a0,s6,1
    3326:	84ba                	c.mv	s1,a4
    3328:	00fb00a3          	sb	a5,1(s6)
    332c:	b5bd                	c.j	319a <__printf_float_impl+0x1ae>
    332e:	0007c603          	lbu	a2,0(a5)
    3332:	0785                	c.addi	a5,1
    3334:	0505                	c.addi	a0,1
    3336:	fec50fa3          	sb	a2,-1(a0)
    333a:	b7c9                	c.j	32fc <__printf_float_impl+0x310>
    333c:	167d                	c.addi	a2,-1
    333e:	00064703          	lbu	a4,0(a2)
    3342:	a6e759db          	beqc	a4,46,31b4 <__printf_float_impl+0x1c8>
    3346:	0705                	c.addi	a4,1
    3348:	0ff77713          	andi	a4,a4,255
    334c:	00875663          	bge	a4,s0,3358 <__printf_float_impl+0x36c>
    3350:	4681                	c.li	a3,0
    3352:	00e60023          	sb	a4,0(a2)
    3356:	bdb9                	c.j	31b4 <__printf_float_impl+0x1c8>
    3358:	8f01                	c.sub	a4,s0
    335a:	00e60023          	sb	a4,0(a2)
    335e:	bd99                	c.j	31b4 <__printf_float_impl+0x1c8>
    3360:	873e                	c.mv	a4,a5
    3362:	e4068de3          	beqz	a3,31bc <__printf_float_impl+0x1d0>
    3366:	02eb6363          	bltu	s6,a4,338c <__printf_float_impl+0x3a0>
    336a:	4705                	c.li	a4,1
    336c:	00eb0023          	sb	a4,0(s6)
    3370:	4772                	c.lwsp	a4,28(sp)
    3372:	0705                	c.addi	a4,1
    3374:	ce3a                	c.swsp	a4,28(sp)
    3376:	426cd15b          	beqc	s9,70,3398 <__printf_float_impl+0x3ac>
    337a:	001b4703          	lbu	a4,1(s6)
    337e:	00eb0123          	sb	a4,2(s6)
    3382:	02e00713          	li	a4,46
    3386:	00eb00a3          	sb	a4,1(s6)
    338a:	bd0d                	c.j	31bc <__printf_float_impl+0x1d0>
    338c:	fff74683          	lbu	a3,-1(a4)
    3390:	177d                	c.addi	a4,-1
    3392:	00d700a3          	sb	a3,1(a4)
    3396:	bfc1                	c.j	3366 <__printf_float_impl+0x37a>
    3398:	87aa                	c.mv	a5,a0
    339a:	b50d                	c.j	31bc <__printf_float_impl+0x1d0>
    339c:	000b4783          	lbu	a5,0(s6)
    33a0:	00f6e763          	bltu	a3,a5,33ae <__printf_float_impl+0x3c2>
    33a4:	97ba                	c.add	a5,a4
    33a6:	0007c783          	lbu	a5,0(a5)
    33aa:	00fb0023          	sb	a5,0(s6)
    33ae:	0b05                	c.addi	s6,1
    33b0:	bd25                	c.j	31e8 <__printf_float_impl+0x1fc>
    33b2:	cc1ce15b          	bnec	s9,65,3074 <__printf_float_impl+0x88>
    33b6:	05000793          	li	a5,80
    33ba:	00f50023          	sb	a5,0(a0)
    33be:	4772                	c.lwsp	a4,28(sp)
    33c0:	02b00793          	li	a5,43
    33c4:	00075463          	bgez	a4,33cc <__printf_float_impl+0x3e0>
    33c8:	02d00793          	li	a5,45
    33cc:	00f500a3          	sb	a5,1(a0)
    33d0:	47f2                	c.lwsp	a5,28(sp)
    33d2:	4685                	c.li	a3,1
    33d4:	41f7d713          	srai	a4,a5,0x1f
    33d8:	8fb9                	c.xor	a5,a4
    33da:	8f99                	c.sub	a5,a4
    33dc:	00279713          	slli	a4,a5,0x2
    33e0:	75d7b7db          	bfos	a5,a5,29,29
    33e4:	bd15                	c.j	3218 <__printf_float_impl+0x22c>
	...

000033e8 <strcpy>:
    33e8:	832a                	c.mv	t1,a0
    33ea:	00b566b3          	or	a3,a0,a1
    33ee:	8a8d                	c.andi	a3,3
    33f0:	ee91                	c.bnez	a3,340c <strcpy+0x24>
    33f2:	419c                	c.lw	a5,0(a1)
    33f4:	2007875b          	ffb	a4,a5,zero
    33f8:	00071a63          	bnez	a4,340c <strcpy+0x24>
    33fc:	0591                	c.addi	a1,4
    33fe:	c11c                	c.sw	a5,0(a0)
    3400:	0511                	c.addi	a0,4
    3402:	419c                	c.lw	a5,0(a1)
    3404:	2007875b          	ffb	a4,a5,zero
    3408:	fe070ae3          	beqz	a4,33fc <strcpy+0x14>
    340c:	0005c683          	lbu	a3,0(a1)
    3410:	0585                	c.addi	a1,1
    3412:	00d50023          	sb	a3,0(a0)
    3416:	0505                	c.addi	a0,1
    3418:	faf5                	c.bnez	a3,340c <strcpy+0x24>
    341a:	851a                	c.mv	a0,t1
    341c:	8082                	c.jr	ra

0000341e <strnlen>:
    341e:	95aa                	c.add	a1,a0
    3420:	87aa                	c.mv	a5,a0
    3422:	00b78563          	beq	a5,a1,342c <strnlen+0xe>
    3426:	0007c703          	lbu	a4,0(a5)
    342a:	e701                	c.bnez	a4,3432 <strnlen+0x14>
    342c:	40a78533          	sub	a0,a5,a0
    3430:	8082                	c.jr	ra
    3432:	0785                	c.addi	a5,1
    3434:	b7fd                	c.j	3422 <strnlen+0x4>
	...

00003438 <memset>:
    3438:	832a                	c.mv	t1,a0
    343a:	00c503b3          	add	t2,a0,a2
    343e:	00357693          	andi	a3,a0,3
    3442:	ce81                	c.beqz	a3,345a <memset+0x22>
    3444:	ffc68693          	addi	a3,a3,-4
    3448:	40d507b3          	sub	a5,a0,a3
    344c:	06f3e463          	bltu	t2,a5,34b4 <memset+0x7c>
    3450:	00b50023          	sb	a1,0(a0)
    3454:	0505                	c.addi	a0,1
    3456:	fea79de3          	bne	a5,a0,3450 <memset+0x18>
    345a:	04750d63          	beq	a0,t2,34b4 <memset+0x7c>
    345e:	05e2                	c.slli	a1,0x18
    3460:	0085d793          	srli	a5,a1,0x8
    3464:	95be                	c.add	a1,a5
    3466:	0105d793          	srli	a5,a1,0x10
    346a:	95be                	c.add	a1,a5
    346c:	40a38633          	sub	a2,t2,a0
    3470:	02000713          	li	a4,32
    3474:	fe067693          	andi	a3,a2,-32
    3478:	00a687b3          	add	a5,a3,a0
    347c:	e285                	c.bnez	a3,349c <memset+0x64>
    347e:	ffc67693          	andi	a3,a2,-4
    3482:	ca8d                	c.beqz	a3,34b4 <memset+0x7c>
    3484:	40d70633          	sub	a2,a4,a3
    3488:	00a687b3          	add	a5,a3,a0
    348c:	8736                	c.mv	a4,a3
    348e:	8205                	c.srli	a2,0x1
    3490:	00000697          	auipc	a3,0x0
    3494:	00c686b3          	add	a3,a3,a2
    3498:	00c68067          	jr	12(a3) # 349c <memset+0x64>
    349c:	cd4c                	c.sw	a1,28(a0)
    349e:	cd0c                	c.sw	a1,24(a0)
    34a0:	c94c                	c.sw	a1,20(a0)
    34a2:	c90c                	c.sw	a1,16(a0)
    34a4:	c54c                	c.sw	a1,12(a0)
    34a6:	c50c                	c.sw	a1,8(a0)
    34a8:	c14c                	c.sw	a1,4(a0)
    34aa:	c10c                	c.sw	a1,0(a0)
    34ac:	953a                	c.add	a0,a4
    34ae:	fef517e3          	bne	a0,a5,349c <memset+0x64>
    34b2:	bf6d                	c.j	346c <memset+0x34>
    34b4:	879e                	c.mv	a5,t2
    34b6:	f8751de3          	bne	a0,t2,3450 <memset+0x18>
    34ba:	851a                	c.mv	a0,t1
    34bc:	8082                	c.jr	ra
	...

000034c0 <__lshrdi3>:
    34c0:	ce11                	c.beqz	a2,34dc <__lshrdi3+0x1c>
    34c2:	02000793          	li	a5,32
    34c6:	8f91                	c.sub	a5,a2
    34c8:	00f05c63          	blez	a5,34e0 <__lshrdi3+0x20>
    34cc:	00c55533          	srl	a0,a0,a2
    34d0:	00f597b3          	sll	a5,a1,a5
    34d4:	00c5d633          	srl	a2,a1,a2
    34d8:	8d5d                	c.or	a0,a5
    34da:	85b2                	c.mv	a1,a2
    34dc:	00008067          	ret
    34e0:	40f00533          	neg	a0,a5
    34e4:	4601                	c.li	a2,0
    34e6:	00a5d533          	srl	a0,a1,a0
    34ea:	85b2                	c.mv	a1,a2
    34ec:	bfc5                	c.j	34dc <__lshrdi3+0x1c>
    34ee:	0001                	c.nop

000034f0 <__ashldi3>:
    34f0:	ce11                	c.beqz	a2,350c <__ashldi3+0x1c>
    34f2:	02000793          	li	a5,32
    34f6:	8f91                	c.sub	a5,a2
    34f8:	00f05c63          	blez	a5,3510 <__ashldi3+0x20>
    34fc:	00c595b3          	sll	a1,a1,a2
    3500:	00f557b3          	srl	a5,a0,a5
    3504:	00c51633          	sll	a2,a0,a2
    3508:	8ddd                	c.or	a1,a5
    350a:	8532                	c.mv	a0,a2
    350c:	00008067          	ret
    3510:	40f005b3          	neg	a1,a5
    3514:	4601                	c.li	a2,0
    3516:	00b515b3          	sll	a1,a0,a1
    351a:	8532                	c.mv	a0,a2
    351c:	bfc5                	c.j	350c <__ashldi3+0x1c>
    351e:	0001                	c.nop

00003520 <__riscv_save_12>:
    3520:	7139                	c.addi16sp	sp,-64
    3522:	4301                	c.li	t1,0
    3524:	c66e                	c.swsp	s11,12(sp)
    3526:	a019                	c.j	352c <__riscv_save_10+0x4>

00003528 <__riscv_save_10>:
    3528:	7139                	c.addi16sp	sp,-64
    352a:	5341                	c.li	t1,-16
    352c:	c86a                	c.swsp	s10,16(sp)
    352e:	ca66                	c.swsp	s9,20(sp)
    3530:	cc62                	c.swsp	s8,24(sp)
    3532:	ce5e                	c.swsp	s7,28(sp)
    3534:	a019                	c.j	353a <__riscv_save_4+0x4>

00003536 <__riscv_save_4>:
    3536:	7139                	c.addi16sp	sp,-64
    3538:	5301                	c.li	t1,-32
    353a:	d05a                	c.swsp	s6,32(sp)
    353c:	d256                	c.swsp	s5,36(sp)
    353e:	d452                	c.swsp	s4,40(sp)
    3540:	d64e                	c.swsp	s3,44(sp)
    3542:	d84a                	c.swsp	s2,48(sp)
    3544:	da26                	c.swsp	s1,52(sp)
    3546:	dc22                	c.swsp	s0,56(sp)
    3548:	de06                	c.swsp	ra,60(sp)
    354a:	40610133          	sub	sp,sp,t1
    354e:	8282                	c.jr	t0

00003550 <__riscv_save_0>:
    3550:	1141                	c.addi	sp,-16
    3552:	c04a                	c.swsp	s2,0(sp)
    3554:	c226                	c.swsp	s1,4(sp)
    3556:	c422                	c.swsp	s0,8(sp)
    3558:	c606                	c.swsp	ra,12(sp)
    355a:	8282                	c.jr	t0

0000355c <__riscv_restore_12>:
    355c:	4db2                	c.lwsp	s11,12(sp)
    355e:	0141                	c.addi	sp,16

00003560 <__riscv_restore_10>:
    3560:	4d02                	c.lwsp	s10,0(sp)
    3562:	4c92                	c.lwsp	s9,4(sp)
    3564:	4c22                	c.lwsp	s8,8(sp)
    3566:	4bb2                	c.lwsp	s7,12(sp)
    3568:	0141                	c.addi	sp,16

0000356a <__riscv_restore_4>:
    356a:	4b02                	c.lwsp	s6,0(sp)
    356c:	4a92                	c.lwsp	s5,4(sp)
    356e:	4a22                	c.lwsp	s4,8(sp)
    3570:	49b2                	c.lwsp	s3,12(sp)
    3572:	0141                	c.addi	sp,16

00003574 <__riscv_restore_0>:
    3574:	4902                	c.lwsp	s2,0(sp)
    3576:	4492                	c.lwsp	s1,4(sp)
    3578:	4422                	c.lwsp	s0,8(sp)
    357a:	40b2                	c.lwsp	ra,12(sp)
    357c:	0141                	c.addi	sp,16
    357e:	8082                	c.jr	ra
    3580:	0010                	0x10
    3582:	0000                	unimp
    3584:	0000                	unimp
    3586:	0000                	unimp
    3588:	7a01                	c.lui	s4,0xfffe0
    358a:	0052                	c.slli	zero,0x14
    358c:	7c01                	c.lui	s8,0xfffe0
    358e:	0105                	c.addi	sp,1
    3590:	00020d1b          	sext.w	s10,tp
    3594:	0048                	c.addi4spn	a0,sp,4
    3596:	0000                	unimp
    3598:	0018                	0x18
    359a:	0000                	unimp
    359c:	ff84                	c.fsw	fs1,56(a5)
    359e:	0030ffff          	0x30ffff
    35a2:	0000                	unimp
    35a4:	4200                	c.lw	s0,0(a2)
    35a6:	400e                	0x400e
    35a8:	9b44                	exec.it	#876     !
    35aa:	420d                	c.li	tp,3
    35ac:	400e42db          	0x400e42db
    35b0:	9a44                	exec.it	#364     !
    35b2:	420c                	c.lw	a1,0(a2)
    35b4:	0b99                	c.addi	s7,6
    35b6:	9842                	c.add	a6,a6
    35b8:	420a                	c.lwsp	tp,128(sp)
    35ba:	d7420997          	auipc	s3,0xd7420
    35be:	d9d8                	c.sw	a4,52(a1)
    35c0:	dbda                	c.swsp	s6,244(sp)
    35c2:	0e42                	c.slli	t3,0x10
    35c4:	4440                	c.lw	s0,12(s0)
    35c6:	0896                	c.slli	a7,0x5
    35c8:	9542                	c.add	a0,a6
    35ca:	06944207          	flq	ft4,105(s0)
    35ce:	9342                	c.add	t1,a6
    35d0:	4205                	c.li	tp,1
    35d2:	0492                	c.slli	s1,0x4
    35d4:	8942                	c.mv	s2,a6
    35d6:	02884203          	lbu	tp,40(a6)
    35da:	8142                	c.mv	sp,a6
    35dc:	0001                	c.nop
    35de:	0000                	unimp
    35e0:	001c                	0x1c
    35e2:	0000                	unimp
    35e4:	0064                	c.addi4spn	s1,sp,12
    35e6:	0000                	unimp
    35e8:	ff68                	c.fsw	fa0,124(a4)
    35ea:	000cffff          	0xcffff
    35ee:	0000                	unimp
    35f0:	4200                	c.lw	s0,0(a2)
    35f2:	100e                	c.slli	zero,0x23
    35f4:	8944                	exec.it	#556     !
    35f6:	4204                	c.lw	s1,0(a2)
    35f8:	0288                	c.addi4spn	a0,sp,320
    35fa:	8142                	c.mv	sp,a6
    35fc:	0001                	c.nop
    35fe:	0000                	unimp
    3600:	002c                	c.addi4spn	a1,sp,8
    3602:	0000                	unimp
    3604:	0000                	unimp
    3606:	0000                	unimp
    3608:	7a01                	c.lui	s4,0xfffe0
    360a:	0052                	c.slli	zero,0x14
    360c:	7c01                	c.lui	s8,0xfffe0
    360e:	0101                	c.addi	sp,0
    3610:	0e020d1b          	addiw	s10,tp,224
    3614:	9b40                	exec.it	#868     !
    3616:	9a0d                	c.andi	a2,-29
    3618:	990c                	exec.it	#908     !
    361a:	970a980b          	addigp	a6,-77456 # 6d970 <BIN_SIZE+0x610ec>
    361e:	9609                	c.srai	a2,0x22
    3620:	9508                	exec.it	#898     !
    3622:	93069407          	flh	fs0,-1744(a3)
    3626:	9205                	c.srli	a2,0x21
    3628:	8904                	exec.it	#524     !
    362a:	81028803          	lb	a6,-2032(t0)
    362e:	0001                	c.nop
    3630:	0044                	c.addi4spn	s1,sp,4
    3632:	0000                	unimp
    3634:	0034                	c.addi4spn	a3,sp,8
    3636:	0000                	unimp
    3638:	ff24                	c.fsw	fs1,120(a4)
    363a:	0024ffff          	0x24ffff
    363e:	0000                	unimp
    3640:	4200                	c.lw	s0,0(a2)
    3642:	0edb42db          	0xedb42db
    3646:	4230                	c.lw	a2,64(a2)
    3648:	42da                	c.lwsp	t0,148(sp)
    364a:	42d9                	c.li	t0,22
    364c:	42d8                	c.lw	a4,4(a3)
    364e:	d8d742d7          	0xd8d742d7
    3652:	dad9                	c.beqz	a3,35e8 <__riscv_restore_0+0x74>
    3654:	42200edb          	0x42200edb
    3658:	42d6                	c.lwsp	t0,84(sp)
    365a:	42d5                	c.li	t0,21
    365c:	42d4                	c.lw	a3,4(a3)
    365e:	d4d342d3          	0xd4d342d3
    3662:	d6d5                	c.beqz	a3,360e <__riscv_restore_0+0x9a>
    3664:	d9d8                	c.sw	a4,52(a1)
    3666:	dbda                	c.swsp	s6,244(sp)
    3668:	100e                	c.slli	zero,0x23
    366a:	d242                	c.swsp	a6,36(sp)
    366c:	c942                	c.swsp	a6,144(sp)
    366e:	c842                	c.swsp	a6,16(sp)
    3670:	c142                	c.swsp	a6,128(sp)
    3672:	0e42                	c.slli	t3,0x10
    3674:	0000                	unimp
	...
