Archive member included to satisfy reference by file (symbol)

/cygdrive/C/Users/SwaminathanK/Desktop/Thesis/DSP Library/NMSIS-master/NMSIS-master/NMSIS/Library/DSP/GCC/libnmsis_dsp_rv32imfcp.a(riscv_cmplx_mag_f32.c.o)
                              ./Debug_Demo/test_nmsis_cfft_f32.o (symbol from plugin) (riscv_cmplx_mag_f32)
/cygdrive/C/Users/SwaminathanK/Desktop/Thesis/DSP Library/NMSIS-master/NMSIS-master/NMSIS/Library/DSP/GCC/libnmsis_dsp_rv32imfcp.a(riscv_cmplx_mag_q15.c.o)
                              ./Debug_Demo/test_nmsis_cfft_q15.o (symbol from plugin) (riscv_cmplx_mag_q15)
/cygdrive/C/Users/SwaminathanK/Desktop/Thesis/DSP Library/NMSIS-master/NMSIS-master/NMSIS/Library/DSP/GCC/libnmsis_dsp_rv32imfcp.a(riscv_sqrt_q31.c.o)
                              /cygdrive/C/Users/SwaminathanK/Desktop/Thesis/DSP Library/NMSIS-master/NMSIS-master/NMSIS/Library/DSP/GCC/libnmsis_dsp_rv32imfcp.a(riscv_cmplx_mag_q15.c.o) (riscv_sqrt_q31)
/cygdrive/C/Users/SwaminathanK/Desktop/Thesis/DSP Library/NMSIS-master/NMSIS-master/NMSIS/Library/DSP/GCC/libnmsis_dsp_rv32imfcp.a(riscv_common_tables.c.o)
                              /cygdrive/C/Users/SwaminathanK/Desktop/Thesis/DSP Library/NMSIS-master/NMSIS-master/NMSIS/Library/DSP/GCC/libnmsis_dsp_rv32imfcp.a(riscv_sqrt_q31.c.o) (sqrt_initial_lut_q31)
/cygdrive/C/Users/SwaminathanK/Desktop/Thesis/DSP Library/NMSIS-master/NMSIS-master/NMSIS/Library/DSP/GCC/libnmsis_dsp_rv32imfcp.a(riscv_cfft_q15.c.o)
                              ./Debug_Demo/test_nmsis_cfft_q15.o (symbol from plugin) (riscv_cfft_q15)
/cygdrive/C/Users/SwaminathanK/Desktop/Thesis/DSP Library/NMSIS-master/NMSIS-master/NMSIS/Library/DSP/GCC/libnmsis_dsp_rv32imfcp.a(riscv_cfft_radix4_q15.c.o)
                              /cygdrive/C/Users/SwaminathanK/Desktop/Thesis/DSP Library/NMSIS-master/NMSIS-master/NMSIS/Library/DSP/GCC/libnmsis_dsp_rv32imfcp.a(riscv_cfft_q15.c.o) (riscv_radix4_butterfly_q15)
/cygdrive/C/Users/SwaminathanK/Desktop/Thesis/DSP Library/NMSIS-master/NMSIS-master/NMSIS/Library/DSP/GCC/libnmsis_dsp_rv32imfcp.a(riscv_cfft_init_f32.c.o)
                              ./Debug_Demo/test_nmsis_cfft_f32.o (symbol from plugin) (riscv_cfft_init_f32)
/cygdrive/C/Users/SwaminathanK/Desktop/Thesis/DSP Library/NMSIS-master/NMSIS-master/NMSIS/Library/DSP/GCC/libnmsis_dsp_rv32imfcp.a(riscv_cfft_init_q15.c.o)
                              ./Debug_Demo/test_nmsis_cfft_q15.o (symbol from plugin) (riscv_cfft_init_q15)
/cygdrive/C/Users/SwaminathanK/Desktop/Thesis/DSP Library/NMSIS-master/NMSIS-master/NMSIS/Library/DSP/GCC/libnmsis_dsp_rv32imfcp.a(riscv_bitreversal2.c.o)
                              /cygdrive/C/Users/SwaminathanK/Desktop/Thesis/DSP Library/NMSIS-master/NMSIS-master/NMSIS/Library/DSP/GCC/libnmsis_dsp_rv32imfcp.a(riscv_cfft_q15.c.o) (riscv_bitreversal_16)
/cygdrive/C/Users/SwaminathanK/Desktop/Thesis/DSP Library/NMSIS-master/NMSIS-master/NMSIS/Library/DSP/GCC/libnmsis_dsp_rv32imfcp.a(riscv_cfft_f32.c.o)
                              ./Debug_Demo/test_nmsis_cfft_f32.o (symbol from plugin) (riscv_cfft_f32)
/cygdrive/C/Users/SwaminathanK/Desktop/Thesis/DSP Library/NMSIS-master/NMSIS-master/NMSIS/Library/DSP/GCC/libnmsis_dsp_rv32imfcp.a(riscv_const_structs.c.o)
                              /cygdrive/C/Users/SwaminathanK/Desktop/Thesis/DSP Library/NMSIS-master/NMSIS-master/NMSIS/Library/DSP/GCC/libnmsis_dsp_rv32imfcp.a(riscv_cfft_init_q15.c.o) (riscv_cfft_sR_q15_len4096)
/cygdrive/C/Users/SwaminathanK/Desktop/Thesis/DSP Library/NMSIS-master/NMSIS-master/NMSIS/Library/DSP/GCC/libnmsis_dsp_rv32imfcp.a(riscv_cfft_radix8_f32.c.o)
                              /cygdrive/C/Users/SwaminathanK/Desktop/Thesis/DSP Library/NMSIS-master/NMSIS-master/NMSIS/Library/DSP/GCC/libnmsis_dsp_rv32imfcp.a(riscv_cfft_f32.c.o) (riscv_radix8_butterfly_f32)
/cygdrive/C/Users/SwaminathanK/Workspace-Ande3/NMSIS_DSP_FFT_Benchmark/drivers/lib/libdriver.a(pm.o)
                              ./boot/cstartup_flash.o (g_pm_mspi_cfg)
/cygdrive/C/Users/SwaminathanK/Workspace-Ande3/NMSIS_DSP_FFT_Benchmark/drivers/lib/libdriver.a(rf.o)
                              ./drivers/emi.o (symbol from plugin) (rf_set_chn)
/cygdrive/C/Users/SwaminathanK/Workspace-Ande3/NMSIS_DSP_FFT_Benchmark/drivers/lib/libdriver.a(sys.o)
                              ./vendor/common/common.o (symbol from plugin) (sys_init)
/cygdrive/C/Users/SwaminathanK/Workspace-Ande3/NMSIS_DSP_FFT_Benchmark/drivers/lib/libdriver.a(plic.o)
                              ./drivers/flash.o (symbol from plugin) (plic_enter_critical_sec)
/cygdrive/c/Users/SwaminathanK/Downloads/Telink_IDE/toolchains/nds32le-elf-mculib-v5f/bin/../lib/gcc/riscv32-elf/7.4.0/../../../../riscv32-elf/lib/mext-dsp/libm.a(lib_a-sinf.o)
                              /cygdrive/c/Users/SWAMIN~1/AppData/Local/Temp/cckzFaHM.ltrans0.ltrans.o (sinf)
/cygdrive/c/Users/SwaminathanK/Downloads/Telink_IDE/toolchains/nds32le-elf-mculib-v5f/bin/../lib/gcc/riscv32-elf/7.4.0/../../../../riscv32-elf/lib/mext-dsp/libm.a(lib_a-wf_sqrt.o)
                              /cygdrive/C/Users/SwaminathanK/Desktop/Thesis/DSP Library/NMSIS-master/NMSIS-master/NMSIS/Library/DSP/GCC/libnmsis_dsp_rv32imfcp.a(riscv_cmplx_mag_f32.c.o) (sqrtf)
/cygdrive/c/Users/SwaminathanK/Downloads/Telink_IDE/toolchains/nds32le-elf-mculib-v5f/bin/../lib/gcc/riscv32-elf/7.4.0/../../../../riscv32-elf/lib/mext-dsp/libm.a(lib_a-ef_sqrt.o)
                              /cygdrive/c/Users/SwaminathanK/Downloads/Telink_IDE/toolchains/nds32le-elf-mculib-v5f/bin/../lib/gcc/riscv32-elf/7.4.0/../../../../riscv32-elf/lib/mext-dsp/libm.a(lib_a-wf_sqrt.o) (__ieee754_sqrtf)
/cygdrive/c/Users/SwaminathanK/Downloads/Telink_IDE/toolchains/nds32le-elf-mculib-v5f/bin/../lib/gcc/riscv32-elf/7.4.0/../../../../riscv32-elf/lib/mext-dsp/libm.a(lib_a-ref_rredf.o)
                              /cygdrive/c/Users/SwaminathanK/Downloads/Telink_IDE/toolchains/nds32le-elf-mculib-v5f/bin/../lib/gcc/riscv32-elf/7.4.0/../../../../riscv32-elf/lib/mext-dsp/libm.a(lib_a-sinf.o) (ref__mathlib_rredf2)
/cygdrive/c/Users/SwaminathanK/Downloads/Telink_IDE/toolchains/nds32le-elf-mculib-v5f/bin/../lib/gcc/riscv32-elf/7.4.0/../../../../riscv32-elf/lib/mext-dsp/libm.a(lib_a-s_lib_ver.o)
                              /cygdrive/c/Users/SwaminathanK/Downloads/Telink_IDE/toolchains/nds32le-elf-mculib-v5f/bin/../lib/gcc/riscv32-elf/7.4.0/../../../../riscv32-elf/lib/mext-dsp/libm.a(lib_a-wf_sqrt.o) (__fdlib_version)
/cygdrive/c/Users/SwaminathanK/Downloads/Telink_IDE/toolchains/nds32le-elf-mculib-v5f/bin/../lib/gcc/riscv32-elf/7.4.0/../../../../riscv32-elf/lib/mext-dsp/libm.a(lib_a-s_matherr.o)
                              /cygdrive/c/Users/SwaminathanK/Downloads/Telink_IDE/toolchains/nds32le-elf-mculib-v5f/bin/../lib/gcc/riscv32-elf/7.4.0/../../../../riscv32-elf/lib/mext-dsp/libm.a(lib_a-wf_sqrt.o) (matherr)
/cygdrive/c/Users/SwaminathanK/Downloads/Telink_IDE/toolchains/nds32le-elf-mculib-v5f/bin/../lib/gcc/riscv32-elf/7.4.0/mext-dsp/libgcc.a(divdf3.o)
                              /cygdrive/c/Users/SwaminathanK/Downloads/Telink_IDE/toolchains/nds32le-elf-mculib-v5f/bin/../lib/gcc/riscv32-elf/7.4.0/../../../../riscv32-elf/lib/mext-dsp/libm.a(lib_a-wf_sqrt.o) (__divdf3)
/cygdrive/c/Users/SwaminathanK/Downloads/Telink_IDE/toolchains/nds32le-elf-mculib-v5f/bin/../lib/gcc/riscv32-elf/7.4.0/mext-dsp/libgcc.a(gedf2.o)
                              /cygdrive/c/Users/SWAMIN~1/AppData/Local/Temp/cckzFaHM.ltrans0.ltrans.o (__gtdf2)
/cygdrive/c/Users/SwaminathanK/Downloads/Telink_IDE/toolchains/nds32le-elf-mculib-v5f/bin/../lib/gcc/riscv32-elf/7.4.0/mext-dsp/libgcc.a(muldf3.o)
                              /cygdrive/c/Users/SWAMIN~1/AppData/Local/Temp/cckzFaHM.ltrans0.ltrans.o (__muldf3)
/cygdrive/c/Users/SwaminathanK/Downloads/Telink_IDE/toolchains/nds32le-elf-mculib-v5f/bin/../lib/gcc/riscv32-elf/7.4.0/mext-dsp/libgcc.a(fixunsdfsi.o)
                              /cygdrive/c/Users/SWAMIN~1/AppData/Local/Temp/cckzFaHM.ltrans0.ltrans.o (__fixunsdfsi)
/cygdrive/c/Users/SwaminathanK/Downloads/Telink_IDE/toolchains/nds32le-elf-mculib-v5f/bin/../lib/gcc/riscv32-elf/7.4.0/mext-dsp/libgcc.a(floatsidf.o)
                              /cygdrive/c/Users/SWAMIN~1/AppData/Local/Temp/cckzFaHM.ltrans0.ltrans.o (__floatsidf)
/cygdrive/c/Users/SwaminathanK/Downloads/Telink_IDE/toolchains/nds32le-elf-mculib-v5f/bin/../lib/gcc/riscv32-elf/7.4.0/mext-dsp/libgcc.a(extendsfdf2.o)
                              /cygdrive/c/Users/SWAMIN~1/AppData/Local/Temp/cckzFaHM.ltrans0.ltrans.o (__extendsfdf2)
/cygdrive/c/Users/SwaminathanK/Downloads/Telink_IDE/toolchains/nds32le-elf-mculib-v5f/bin/../lib/gcc/riscv32-elf/7.4.0/mext-dsp/libgcc.a(truncdfsf2.o)
                              /cygdrive/c/Users/SWAMIN~1/AppData/Local/Temp/cckzFaHM.ltrans0.ltrans.o (__truncdfsf2)
/cygdrive/c/Users/SwaminathanK/Downloads/Telink_IDE/toolchains/nds32le-elf-mculib-v5f/bin/../lib/gcc/riscv32-elf/7.4.0/../../../../riscv32-elf/lib/mext-dsp/libc.a(lib_a-errno.o)
                              /cygdrive/c/Users/SwaminathanK/Downloads/Telink_IDE/toolchains/nds32le-elf-mculib-v5f/bin/../lib/gcc/riscv32-elf/7.4.0/../../../../riscv32-elf/lib/mext-dsp/libm.a(lib_a-sinf.o) (__mculib_REENT_errno)
/cygdrive/c/Users/SwaminathanK/Downloads/Telink_IDE/toolchains/nds32le-elf-mculib-v5f/bin/../lib/gcc/riscv32-elf/7.4.0/../../../../riscv32-elf/lib/mext-dsp/libc.a(lib_a-malloc.o)
                              /cygdrive/c/Users/SWAMIN~1/AppData/Local/Temp/cckzFaHM.ltrans0.ltrans.o (malloc)
/cygdrive/c/Users/SwaminathanK/Downloads/Telink_IDE/toolchains/nds32le-elf-mculib-v5f/bin/../lib/gcc/riscv32-elf/7.4.0/../../../../riscv32-elf/lib/mext-dsp/libc.a(lib_a-memcpy.o)
                              /cygdrive/c/Users/SWAMIN~1/AppData/Local/Temp/cckzFaHM.ltrans0.ltrans.o (memcpy)
/cygdrive/c/Users/SwaminathanK/Downloads/Telink_IDE/toolchains/nds32le-elf-mculib-v5f/bin/../lib/gcc/riscv32-elf/7.4.0/../../../../riscv32-elf/lib/mext-dsp/libc.a(lib_a-memset.o)
                              /cygdrive/c/Users/SWAMIN~1/AppData/Local/Temp/cckzFaHM.ltrans0.ltrans.o (memset)
/cygdrive/c/Users/SwaminathanK/Downloads/Telink_IDE/toolchains/nds32le-elf-mculib-v5f/bin/../lib/gcc/riscv32-elf/7.4.0/../../../../riscv32-elf/lib/mext-dsp/libc.a(lib_a-nano-freer.o)
                              /cygdrive/c/Users/SwaminathanK/Downloads/Telink_IDE/toolchains/nds32le-elf-mculib-v5f/bin/../lib/gcc/riscv32-elf/7.4.0/../../../../riscv32-elf/lib/mext-dsp/libc.a(lib_a-malloc.o) (_free_r)
/cygdrive/c/Users/SwaminathanK/Downloads/Telink_IDE/toolchains/nds32le-elf-mculib-v5f/bin/../lib/gcc/riscv32-elf/7.4.0/../../../../riscv32-elf/lib/mext-dsp/libc.a(lib_a-nano-mallocr.o)
                              /cygdrive/c/Users/SwaminathanK/Downloads/Telink_IDE/toolchains/nds32le-elf-mculib-v5f/bin/../lib/gcc/riscv32-elf/7.4.0/../../../../riscv32-elf/lib/mext-dsp/libc.a(lib_a-malloc.o) (_malloc_r)
/cygdrive/c/Users/SwaminathanK/Downloads/Telink_IDE/toolchains/nds32le-elf-mculib-v5f/bin/../lib/gcc/riscv32-elf/7.4.0/../../../../riscv32-elf/lib/mext-dsp/libc.a(lib_a-printf.o)
                              /cygdrive/c/Users/SWAMIN~1/AppData/Local/Temp/cckzFaHM.ltrans0.ltrans.o (printf)
/cygdrive/c/Users/SwaminathanK/Downloads/Telink_IDE/toolchains/nds32le-elf-mculib-v5f/bin/../lib/gcc/riscv32-elf/7.4.0/../../../../riscv32-elf/lib/mext-dsp/libc.a(lib_a-puts.o)
                              /cygdrive/c/Users/SWAMIN~1/AppData/Local/Temp/cckzFaHM.ltrans0.ltrans.o (puts)
/cygdrive/c/Users/SwaminathanK/Downloads/Telink_IDE/toolchains/nds32le-elf-mculib-v5f/bin/../lib/gcc/riscv32-elf/7.4.0/../../../../riscv32-elf/lib/mext-dsp/libc.a(lib_a-strlen.o)
                              /cygdrive/c/Users/SwaminathanK/Downloads/Telink_IDE/toolchains/nds32le-elf-mculib-v5f/bin/../lib/gcc/riscv32-elf/7.4.0/../../../../riscv32-elf/lib/mext-dsp/libc.a(lib_a-puts.o) (strlen)
/cygdrive/c/Users/SwaminathanK/Downloads/Telink_IDE/toolchains/nds32le-elf-mculib-v5f/bin/../lib/gcc/riscv32-elf/7.4.0/../../../../riscv32-elf/lib/mext-dsp/libc.a(lib_a-vprintf.o)
                              /cygdrive/c/Users/SwaminathanK/Downloads/Telink_IDE/toolchains/nds32le-elf-mculib-v5f/bin/../lib/gcc/riscv32-elf/7.4.0/../../../../riscv32-elf/lib/mext-dsp/libc.a(lib_a-printf.o) (vprintf)
/cygdrive/c/Users/SwaminathanK/Downloads/Telink_IDE/toolchains/nds32le-elf-mculib-v5f/bin/../lib/gcc/riscv32-elf/7.4.0/../../../../riscv32-elf/lib/mext-dsp/libc.a(lib_a-impure.o)
                              /cygdrive/c/Users/SwaminathanK/Downloads/Telink_IDE/toolchains/nds32le-elf-mculib-v5f/bin/../lib/gcc/riscv32-elf/7.4.0/../../../../riscv32-elf/lib/mext-dsp/libc.a(lib_a-malloc.o) (_impure_ptr)
/cygdrive/c/Users/SwaminathanK/Downloads/Telink_IDE/toolchains/nds32le-elf-mculib-v5f/bin/../lib/gcc/riscv32-elf/7.4.0/../../../../riscv32-elf/lib/mext-dsp/libc.a(lib_a-printf_data.o)
                              /cygdrive/c/Users/SwaminathanK/Downloads/Telink_IDE/toolchains/nds32le-elf-mculib-v5f/bin/../lib/gcc/riscv32-elf/7.4.0/../../../../riscv32-elf/lib/mext-dsp/libc.a(lib_a-vprintf.o) (__printf_count)
/cygdrive/c/Users/SwaminathanK/Downloads/Telink_IDE/toolchains/nds32le-elf-mculib-v5f/bin/../lib/gcc/riscv32-elf/7.4.0/../../../../riscv32-elf/lib/mext-dsp/libc.a(lib_a-printf_impl.o)
                              /cygdrive/c/Users/SwaminathanK/Downloads/Telink_IDE/toolchains/nds32le-elf-mculib-v5f/bin/../lib/gcc/riscv32-elf/7.4.0/../../../../riscv32-elf/lib/mext-dsp/libc.a(lib_a-vprintf.o) (__printf_impl)
/cygdrive/c/Users/SwaminathanK/Downloads/Telink_IDE/toolchains/nds32le-elf-mculib-v5f/bin/../lib/gcc/riscv32-elf/7.4.0/../../../../riscv32-elf/lib/mext-dsp/libc.a(lib_a-printf_impl_float.o)
                              /cygdrive/c/Users/SwaminathanK/Downloads/Telink_IDE/toolchains/nds32le-elf-mculib-v5f/bin/../lib/gcc/riscv32-elf/7.4.0/../../../../riscv32-elf/lib/mext-dsp/libc.a(lib_a-printf_impl.o) (__int_to_poly)
/cygdrive/c/Users/SwaminathanK/Downloads/Telink_IDE/toolchains/nds32le-elf-mculib-v5f/bin/../lib/gcc/riscv32-elf/7.4.0/../../../../riscv32-elf/lib/mext-dsp/libc.a(lib_a-strcpy.o)
                              /cygdrive/c/Users/SwaminathanK/Downloads/Telink_IDE/toolchains/nds32le-elf-mculib-v5f/bin/../lib/gcc/riscv32-elf/7.4.0/../../../../riscv32-elf/lib/mext-dsp/libc.a(lib_a-printf_impl_float.o) (strcpy)
/cygdrive/c/Users/SwaminathanK/Downloads/Telink_IDE/toolchains/nds32le-elf-mculib-v5f/bin/../lib/gcc/riscv32-elf/7.4.0/../../../../riscv32-elf/lib/mext-dsp/libc.a(lib_a-strnlen.o)
                              /cygdrive/c/Users/SwaminathanK/Downloads/Telink_IDE/toolchains/nds32le-elf-mculib-v5f/bin/../lib/gcc/riscv32-elf/7.4.0/../../../../riscv32-elf/lib/mext-dsp/libc.a(lib_a-printf_impl.o) (strnlen)
/cygdrive/c/Users/SwaminathanK/Downloads/Telink_IDE/toolchains/nds32le-elf-mculib-v5f/bin/../lib/gcc/riscv32-elf/7.4.0/../../../../riscv32-elf/lib/mext-dsp/libgloss.a(_sbrk.o)
                              /cygdrive/c/Users/SwaminathanK/Downloads/Telink_IDE/toolchains/nds32le-elf-mculib-v5f/bin/../lib/gcc/riscv32-elf/7.4.0/../../../../riscv32-elf/lib/mext-dsp/libc.a(lib_a-nano-mallocr.o) (_sbrk)
/cygdrive/c/Users/SwaminathanK/Downloads/Telink_IDE/toolchains/nds32le-elf-mculib-v5f/bin/../lib/gcc/riscv32-elf/7.4.0/mext-dsp/libgcc.a(_lshrdi3.o)
                              /cygdrive/c/Users/SwaminathanK/Downloads/Telink_IDE/toolchains/nds32le-elf-mculib-v5f/bin/../lib/gcc/riscv32-elf/7.4.0/../../../../riscv32-elf/lib/mext-dsp/libc.a(lib_a-printf_impl_float.o) (__lshrdi3)
/cygdrive/c/Users/SwaminathanK/Downloads/Telink_IDE/toolchains/nds32le-elf-mculib-v5f/bin/../lib/gcc/riscv32-elf/7.4.0/mext-dsp/libgcc.a(_ashldi3.o)
                              /cygdrive/c/Users/SwaminathanK/Downloads/Telink_IDE/toolchains/nds32le-elf-mculib-v5f/bin/../lib/gcc/riscv32-elf/7.4.0/../../../../riscv32-elf/lib/mext-dsp/libc.a(lib_a-printf_impl_float.o) (__ashldi3)
/cygdrive/c/Users/SwaminathanK/Downloads/Telink_IDE/toolchains/nds32le-elf-mculib-v5f/bin/../lib/gcc/riscv32-elf/7.4.0/mext-dsp/libgcc.a(save-restore.o)
                              /cygdrive/c/Users/SwaminathanK/Downloads/Telink_IDE/toolchains/nds32le-elf-mculib-v5f/bin/../lib/gcc/riscv32-elf/7.4.0/../../../../riscv32-elf/lib/mext-dsp/libc.a(lib_a-printf_impl.o) (__riscv_save_12)

Allocating common symbols
Common symbol       size              file

s7816_vcc_pin       0x4               ./drivers/s7816.o (symbol from plugin)
audio_rx_dma_chn    0x1               ./drivers/audio.o (symbol from plugin)
g_pm_status_info    0x4               pm.o (symbol from plugin)
para_buff           0x40              ./vendor/common/auto_test/pc_interface.o (symbol from plugin)
g_adc_pre_scale     0x1               ./drivers/adc.o (symbol from plugin)
buff                0x140             ./common/usb_dbg/myudb_usb.o (symbol from plugin)
g_rfmode            0x2               rf.o (symbol from plugin)
g_clk_32k_src       0x1               ./drivers/clock.o (symbol from plugin)
command_buff        0x100             ./vendor/common/auto_test/pc_interface.o (symbol from plugin)
audio_tx_dma_chn    0x1               ./drivers/audio.o (symbol from plugin)
myudb_txfifo_b      0x1180            ./common/usb_dbg/myudb_usb.o (symbol from plugin)
par_addr            0x14              ./vendor/common/auto_test/pc_interface.o (symbol from plugin)
s7816_rst_time      0x4               ./drivers/s7816.o (symbol from plugin)
g_adc_vbat_divider  0x1               ./drivers/adc.o (symbol from plugin)
g_audio_tx_dma_list_cfg
                    0x14              ./drivers/audio.o (symbol from plugin)
g_audio_rx_dma_list_cfg
                    0x14              ./drivers/audio.o (symbol from plugin)
result_buff         0x100             ./vendor/common/auto_test/pc_interface.o (symbol from plugin)
s7816_rtx_pin       0x4               ./drivers/s7816.o (symbol from plugin)
s7816_rst_pin       0x4               ./drivers/s7816.o (symbol from plugin)
s7816_clock         0x1               ./drivers/s7816.o (symbol from plugin)
adc_dma_chn         0x1               ./drivers/adc.o (symbol from plugin)

Discarded input sections

 .data          0x0000000000000000        0x0 /cygdrive/c/Users/SWAMIN~1/AppData/Local/Temp/cckzFaHM.ltrans0.ltrans.o
 .bss           0x0000000000000000        0x0 /cygdrive/c/Users/SWAMIN~1/AppData/Local/Temp/cckzFaHM.ltrans0.ltrans.o
 .bss.par_addr  0x0000000000000000       0x14 /cygdrive/c/Users/SWAMIN~1/AppData/Local/Temp/cckzFaHM.ltrans0.ltrans.o
 .sbss.g_adc_pre_scale
                0x0000000000000000        0x1 /cygdrive/c/Users/SWAMIN~1/AppData/Local/Temp/cckzFaHM.ltrans0.ltrans.o
 .sbss.g_adc_vbat_divider
                0x0000000000000000        0x1 /cygdrive/c/Users/SWAMIN~1/AppData/Local/Temp/cckzFaHM.ltrans0.ltrans.o
 .sbss.g_single_tong_freqoffset
                0x0000000000000000        0x1 /cygdrive/c/Users/SWAMIN~1/AppData/Local/Temp/cckzFaHM.ltrans0.ltrans.o
 .sbss.s7816_clock
                0x0000000000000000        0x1 /cygdrive/c/Users/SWAMIN~1/AppData/Local/Temp/cckzFaHM.ltrans0.ltrans.o
 .sbss.s7816_rst_pin
                0x0000000000000000        0x4 /cygdrive/c/Users/SWAMIN~1/AppData/Local/Temp/cckzFaHM.ltrans0.ltrans.o
 .sbss.s7816_rst_time
                0x0000000000000000        0x4 /cygdrive/c/Users/SWAMIN~1/AppData/Local/Temp/cckzFaHM.ltrans0.ltrans.o
 .sbss.s7816_rtx_pin
                0x0000000000000000        0x4 /cygdrive/c/Users/SWAMIN~1/AppData/Local/Temp/cckzFaHM.ltrans0.ltrans.o
 .sbss.s7816_vcc_pin
                0x0000000000000000        0x4 /cygdrive/c/Users/SWAMIN~1/AppData/Local/Temp/cckzFaHM.ltrans0.ltrans.o
 .sdata.mtime_clock_source
                0x0000000000000000        0x4 /cygdrive/c/Users/SWAMIN~1/AppData/Local/Temp/cckzFaHM.ltrans0.ltrans.o
 .data          0x0000000000000000        0x0 ./boot/cstartup_flash.o
 .bss           0x0000000000000000        0x0 ./boot/cstartup_flash.o
 .text          0x0000000000000000        0x0 ./boot/cstartup_ram.o
 .data          0x0000000000000000        0x0 ./boot/cstartup_ram.o
 .bss           0x0000000000000000        0x0 ./boot/cstartup_ram.o
 .riscv.attributes
                0x0000000000000000       0x39 ./boot/cstartup_ram.o
 .text          0x0000000000000000        0x0 /cygdrive/C/Users/SwaminathanK/Desktop/Thesis/DSP Library/NMSIS-master/NMSIS-master/NMSIS/Library/DSP/GCC/libnmsis_dsp_rv32imfcp.a(riscv_cmplx_mag_f32.c.o)
 .data          0x0000000000000000        0x0 /cygdrive/C/Users/SwaminathanK/Desktop/Thesis/DSP Library/NMSIS-master/NMSIS-master/NMSIS/Library/DSP/GCC/libnmsis_dsp_rv32imfcp.a(riscv_cmplx_mag_f32.c.o)
 .bss           0x0000000000000000        0x0 /cygdrive/C/Users/SwaminathanK/Desktop/Thesis/DSP Library/NMSIS-master/NMSIS-master/NMSIS/Library/DSP/GCC/libnmsis_dsp_rv32imfcp.a(riscv_cmplx_mag_f32.c.o)
 .text.riscv_cmplx_mag_f32
                0x0000000000000000      0x218 /cygdrive/C/Users/SwaminathanK/Desktop/Thesis/DSP Library/NMSIS-master/NMSIS-master/NMSIS/Library/DSP/GCC/libnmsis_dsp_rv32imfcp.a(riscv_cmplx_mag_f32.c.o)
 .debug_info    0x0000000000000000      0x2a2 /cygdrive/C/Users/SwaminathanK/Desktop/Thesis/DSP Library/NMSIS-master/NMSIS-master/NMSIS/Library/DSP/GCC/libnmsis_dsp_rv32imfcp.a(riscv_cmplx_mag_f32.c.o)
 .debug_abbrev  0x0000000000000000      0x149 /cygdrive/C/Users/SwaminathanK/Desktop/Thesis/DSP Library/NMSIS-master/NMSIS-master/NMSIS/Library/DSP/GCC/libnmsis_dsp_rv32imfcp.a(riscv_cmplx_mag_f32.c.o)
 .debug_loc     0x0000000000000000      0x5a7 /cygdrive/C/Users/SwaminathanK/Desktop/Thesis/DSP Library/NMSIS-master/NMSIS-master/NMSIS/Library/DSP/GCC/libnmsis_dsp_rv32imfcp.a(riscv_cmplx_mag_f32.c.o)
 .debug_aranges
                0x0000000000000000       0x20 /cygdrive/C/Users/SwaminathanK/Desktop/Thesis/DSP Library/NMSIS-master/NMSIS-master/NMSIS/Library/DSP/GCC/libnmsis_dsp_rv32imfcp.a(riscv_cmplx_mag_f32.c.o)
 .debug_ranges  0x0000000000000000       0xd8 /cygdrive/C/Users/SwaminathanK/Desktop/Thesis/DSP Library/NMSIS-master/NMSIS-master/NMSIS/Library/DSP/GCC/libnmsis_dsp_rv32imfcp.a(riscv_cmplx_mag_f32.c.o)
 .debug_line    0x0000000000000000      0x666 /cygdrive/C/Users/SwaminathanK/Desktop/Thesis/DSP Library/NMSIS-master/NMSIS-master/NMSIS/Library/DSP/GCC/libnmsis_dsp_rv32imfcp.a(riscv_cmplx_mag_f32.c.o)
 .debug_str     0x0000000000000000      0x330 /cygdrive/C/Users/SwaminathanK/Desktop/Thesis/DSP Library/NMSIS-master/NMSIS-master/NMSIS/Library/DSP/GCC/libnmsis_dsp_rv32imfcp.a(riscv_cmplx_mag_f32.c.o)
 .comment       0x0000000000000000       0x13 /cygdrive/C/Users/SwaminathanK/Desktop/Thesis/DSP Library/NMSIS-master/NMSIS-master/NMSIS/Library/DSP/GCC/libnmsis_dsp_rv32imfcp.a(riscv_cmplx_mag_f32.c.o)
 .debug_frame   0x0000000000000000       0x48 /cygdrive/C/Users/SwaminathanK/Desktop/Thesis/DSP Library/NMSIS-master/NMSIS-master/NMSIS/Library/DSP/GCC/libnmsis_dsp_rv32imfcp.a(riscv_cmplx_mag_f32.c.o)
 .riscv.attributes
                0x0000000000000000       0x32 /cygdrive/C/Users/SwaminathanK/Desktop/Thesis/DSP Library/NMSIS-master/NMSIS-master/NMSIS/Library/DSP/GCC/libnmsis_dsp_rv32imfcp.a(riscv_cmplx_mag_f32.c.o)
 .text          0x0000000000000000        0x0 /cygdrive/C/Users/SwaminathanK/Desktop/Thesis/DSP Library/NMSIS-master/NMSIS-master/NMSIS/Library/DSP/GCC/libnmsis_dsp_rv32imfcp.a(riscv_cmplx_mag_q15.c.o)
 .data          0x0000000000000000        0x0 /cygdrive/C/Users/SwaminathanK/Desktop/Thesis/DSP Library/NMSIS-master/NMSIS-master/NMSIS/Library/DSP/GCC/libnmsis_dsp_rv32imfcp.a(riscv_cmplx_mag_q15.c.o)
 .bss           0x0000000000000000        0x0 /cygdrive/C/Users/SwaminathanK/Desktop/Thesis/DSP Library/NMSIS-master/NMSIS-master/NMSIS/Library/DSP/GCC/libnmsis_dsp_rv32imfcp.a(riscv_cmplx_mag_q15.c.o)
 .text.riscv_cmplx_mag_q15
                0x0000000000000000      0x11c /cygdrive/C/Users/SwaminathanK/Desktop/Thesis/DSP Library/NMSIS-master/NMSIS-master/NMSIS/Library/DSP/GCC/libnmsis_dsp_rv32imfcp.a(riscv_cmplx_mag_q15.c.o)
 .debug_info    0x0000000000000000      0x70f /cygdrive/C/Users/SwaminathanK/Desktop/Thesis/DSP Library/NMSIS-master/NMSIS-master/NMSIS/Library/DSP/GCC/libnmsis_dsp_rv32imfcp.a(riscv_cmplx_mag_q15.c.o)
 .debug_abbrev  0x0000000000000000      0x210 /cygdrive/C/Users/SwaminathanK/Desktop/Thesis/DSP Library/NMSIS-master/NMSIS-master/NMSIS/Library/DSP/GCC/libnmsis_dsp_rv32imfcp.a(riscv_cmplx_mag_q15.c.o)
 .debug_loc     0x0000000000000000      0x33b /cygdrive/C/Users/SwaminathanK/Desktop/Thesis/DSP Library/NMSIS-master/NMSIS-master/NMSIS/Library/DSP/GCC/libnmsis_dsp_rv32imfcp.a(riscv_cmplx_mag_q15.c.o)
 .debug_aranges
                0x0000000000000000       0x20 /cygdrive/C/Users/SwaminathanK/Desktop/Thesis/DSP Library/NMSIS-master/NMSIS-master/NMSIS/Library/DSP/GCC/libnmsis_dsp_rv32imfcp.a(riscv_cmplx_mag_q15.c.o)
 .debug_ranges  0x0000000000000000       0x78 /cygdrive/C/Users/SwaminathanK/Desktop/Thesis/DSP Library/NMSIS-master/NMSIS-master/NMSIS/Library/DSP/GCC/libnmsis_dsp_rv32imfcp.a(riscv_cmplx_mag_q15.c.o)
 .debug_line    0x0000000000000000      0x6c8 /cygdrive/C/Users/SwaminathanK/Desktop/Thesis/DSP Library/NMSIS-master/NMSIS-master/NMSIS/Library/DSP/GCC/libnmsis_dsp_rv32imfcp.a(riscv_cmplx_mag_q15.c.o)
 .debug_str     0x0000000000000000      0x39d /cygdrive/C/Users/SwaminathanK/Desktop/Thesis/DSP Library/NMSIS-master/NMSIS-master/NMSIS/Library/DSP/GCC/libnmsis_dsp_rv32imfcp.a(riscv_cmplx_mag_q15.c.o)
 .comment       0x0000000000000000       0x13 /cygdrive/C/Users/SwaminathanK/Desktop/Thesis/DSP Library/NMSIS-master/NMSIS-master/NMSIS/Library/DSP/GCC/libnmsis_dsp_rv32imfcp.a(riscv_cmplx_mag_q15.c.o)
 .debug_frame   0x0000000000000000       0x50 /cygdrive/C/Users/SwaminathanK/Desktop/Thesis/DSP Library/NMSIS-master/NMSIS-master/NMSIS/Library/DSP/GCC/libnmsis_dsp_rv32imfcp.a(riscv_cmplx_mag_q15.c.o)
 .riscv.attributes
                0x0000000000000000       0x32 /cygdrive/C/Users/SwaminathanK/Desktop/Thesis/DSP Library/NMSIS-master/NMSIS-master/NMSIS/Library/DSP/GCC/libnmsis_dsp_rv32imfcp.a(riscv_cmplx_mag_q15.c.o)
 .text          0x0000000000000000        0x0 /cygdrive/C/Users/SwaminathanK/Desktop/Thesis/DSP Library/NMSIS-master/NMSIS-master/NMSIS/Library/DSP/GCC/libnmsis_dsp_rv32imfcp.a(riscv_sqrt_q31.c.o)
 .data          0x0000000000000000        0x0 /cygdrive/C/Users/SwaminathanK/Desktop/Thesis/DSP Library/NMSIS-master/NMSIS-master/NMSIS/Library/DSP/GCC/libnmsis_dsp_rv32imfcp.a(riscv_sqrt_q31.c.o)
 .bss           0x0000000000000000        0x0 /cygdrive/C/Users/SwaminathanK/Desktop/Thesis/DSP Library/NMSIS-master/NMSIS-master/NMSIS/Library/DSP/GCC/libnmsis_dsp_rv32imfcp.a(riscv_sqrt_q31.c.o)
 .text.riscv_sqrt_q31
                0x0000000000000000       0xd8 /cygdrive/C/Users/SwaminathanK/Desktop/Thesis/DSP Library/NMSIS-master/NMSIS-master/NMSIS/Library/DSP/GCC/libnmsis_dsp_rv32imfcp.a(riscv_sqrt_q31.c.o)
 .debug_info    0x0000000000000000      0x206 /cygdrive/C/Users/SwaminathanK/Desktop/Thesis/DSP Library/NMSIS-master/NMSIS-master/NMSIS/Library/DSP/GCC/libnmsis_dsp_rv32imfcp.a(riscv_sqrt_q31.c.o)
 .debug_abbrev  0x0000000000000000      0x156 /cygdrive/C/Users/SwaminathanK/Desktop/Thesis/DSP Library/NMSIS-master/NMSIS-master/NMSIS/Library/DSP/GCC/libnmsis_dsp_rv32imfcp.a(riscv_sqrt_q31.c.o)
 .debug_loc     0x0000000000000000      0x2ad /cygdrive/C/Users/SwaminathanK/Desktop/Thesis/DSP Library/NMSIS-master/NMSIS-master/NMSIS/Library/DSP/GCC/libnmsis_dsp_rv32imfcp.a(riscv_sqrt_q31.c.o)
 .debug_aranges
                0x0000000000000000       0x20 /cygdrive/C/Users/SwaminathanK/Desktop/Thesis/DSP Library/NMSIS-master/NMSIS-master/NMSIS/Library/DSP/GCC/libnmsis_dsp_rv32imfcp.a(riscv_sqrt_q31.c.o)
 .debug_ranges  0x0000000000000000       0x10 /cygdrive/C/Users/SwaminathanK/Desktop/Thesis/DSP Library/NMSIS-master/NMSIS-master/NMSIS/Library/DSP/GCC/libnmsis_dsp_rv32imfcp.a(riscv_sqrt_q31.c.o)
 .debug_line    0x0000000000000000      0x454 /cygdrive/C/Users/SwaminathanK/Desktop/Thesis/DSP Library/NMSIS-master/NMSIS-master/NMSIS/Library/DSP/GCC/libnmsis_dsp_rv32imfcp.a(riscv_sqrt_q31.c.o)
 .debug_str     0x0000000000000000      0x33c /cygdrive/C/Users/SwaminathanK/Desktop/Thesis/DSP Library/NMSIS-master/NMSIS-master/NMSIS/Library/DSP/GCC/libnmsis_dsp_rv32imfcp.a(riscv_sqrt_q31.c.o)
 .comment       0x0000000000000000       0x13 /cygdrive/C/Users/SwaminathanK/Desktop/Thesis/DSP Library/NMSIS-master/NMSIS-master/NMSIS/Library/DSP/GCC/libnmsis_dsp_rv32imfcp.a(riscv_sqrt_q31.c.o)
 .debug_frame   0x0000000000000000       0x20 /cygdrive/C/Users/SwaminathanK/Desktop/Thesis/DSP Library/NMSIS-master/NMSIS-master/NMSIS/Library/DSP/GCC/libnmsis_dsp_rv32imfcp.a(riscv_sqrt_q31.c.o)
 .riscv.attributes
                0x0000000000000000       0x32 /cygdrive/C/Users/SwaminathanK/Desktop/Thesis/DSP Library/NMSIS-master/NMSIS-master/NMSIS/Library/DSP/GCC/libnmsis_dsp_rv32imfcp.a(riscv_sqrt_q31.c.o)
 .text          0x0000000000000000        0x0 /cygdrive/C/Users/SwaminathanK/Desktop/Thesis/DSP Library/NMSIS-master/NMSIS-master/NMSIS/Library/DSP/GCC/libnmsis_dsp_rv32imfcp.a(riscv_common_tables.c.o)
 .data          0x0000000000000000        0x0 /cygdrive/C/Users/SwaminathanK/Desktop/Thesis/DSP Library/NMSIS-master/NMSIS-master/NMSIS/Library/DSP/GCC/libnmsis_dsp_rv32imfcp.a(riscv_common_tables.c.o)
 .bss           0x0000000000000000        0x0 /cygdrive/C/Users/SwaminathanK/Desktop/Thesis/DSP Library/NMSIS-master/NMSIS-master/NMSIS/Library/DSP/GCC/libnmsis_dsp_rv32imfcp.a(riscv_common_tables.c.o)
 .rodata.sqrt_initial_lut_q15
                0x0000000000000000       0x20 /cygdrive/C/Users/SwaminathanK/Desktop/Thesis/DSP Library/NMSIS-master/NMSIS-master/NMSIS/Library/DSP/GCC/libnmsis_dsp_rv32imfcp.a(riscv_common_tables.c.o)
 .rodata.sqrt_initial_lut_q31
                0x0000000000000000       0x80 /cygdrive/C/Users/SwaminathanK/Desktop/Thesis/DSP Library/NMSIS-master/NMSIS-master/NMSIS/Library/DSP/GCC/libnmsis_dsp_rv32imfcp.a(riscv_common_tables.c.o)
 .rodata.sinTable_q15
                0x0000000000000000      0x402 /cygdrive/C/Users/SwaminathanK/Desktop/Thesis/DSP Library/NMSIS-master/NMSIS-master/NMSIS/Library/DSP/GCC/libnmsis_dsp_rv32imfcp.a(riscv_common_tables.c.o)
 .rodata.sinTable_q31
                0x0000000000000000      0x804 /cygdrive/C/Users/SwaminathanK/Desktop/Thesis/DSP Library/NMSIS-master/NMSIS-master/NMSIS/Library/DSP/GCC/libnmsis_dsp_rv32imfcp.a(riscv_common_tables.c.o)
 .rodata.sinTable_f32
                0x0000000000000000      0x804 /cygdrive/C/Users/SwaminathanK/Desktop/Thesis/DSP Library/NMSIS-master/NMSIS-master/NMSIS/Library/DSP/GCC/libnmsis_dsp_rv32imfcp.a(riscv_common_tables.c.o)
 .rodata.riscvRecipTableQ31
                0x0000000000000000      0x100 /cygdrive/C/Users/SwaminathanK/Desktop/Thesis/DSP Library/NMSIS-master/NMSIS-master/NMSIS/Library/DSP/GCC/libnmsis_dsp_rv32imfcp.a(riscv_common_tables.c.o)
 .rodata.riscvRecipTableQ15
                0x0000000000000000       0x80 /cygdrive/C/Users/SwaminathanK/Desktop/Thesis/DSP Library/NMSIS-master/NMSIS-master/NMSIS/Library/DSP/GCC/libnmsis_dsp_rv32imfcp.a(riscv_common_tables.c.o)
 .rodata.cos_factorsQ31_8192
                0x0000000000000000     0x8000 /cygdrive/C/Users/SwaminathanK/Desktop/Thesis/DSP Library/NMSIS-master/NMSIS-master/NMSIS/Library/DSP/GCC/libnmsis_dsp_rv32imfcp.a(riscv_common_tables.c.o)
 .rodata.WeightsQ31_8192
                0x0000000000000000    0x10000 /cygdrive/C/Users/SwaminathanK/Desktop/Thesis/DSP Library/NMSIS-master/NMSIS-master/NMSIS/Library/DSP/GCC/libnmsis_dsp_rv32imfcp.a(riscv_common_tables.c.o)
 .rodata.cos_factorsQ31_2048
                0x0000000000000000     0x2000 /cygdrive/C/Users/SwaminathanK/Desktop/Thesis/DSP Library/NMSIS-master/NMSIS-master/NMSIS/Library/DSP/GCC/libnmsis_dsp_rv32imfcp.a(riscv_common_tables.c.o)
 .rodata.WeightsQ31_2048
                0x0000000000000000     0x4000 /cygdrive/C/Users/SwaminathanK/Desktop/Thesis/DSP Library/NMSIS-master/NMSIS-master/NMSIS/Library/DSP/GCC/libnmsis_dsp_rv32imfcp.a(riscv_common_tables.c.o)
 .rodata.cos_factorsQ31_512
                0x0000000000000000      0x800 /cygdrive/C/Users/SwaminathanK/Desktop/Thesis/DSP Library/NMSIS-master/NMSIS-master/NMSIS/Library/DSP/GCC/libnmsis_dsp_rv32imfcp.a(riscv_common_tables.c.o)
 .rodata.WeightsQ31_512
                0x0000000000000000     0x1000 /cygdrive/C/Users/SwaminathanK/Desktop/Thesis/DSP Library/NMSIS-master/NMSIS-master/NMSIS/Library/DSP/GCC/libnmsis_dsp_rv32imfcp.a(riscv_common_tables.c.o)
 .rodata.cos_factorsQ31_128
                0x0000000000000000      0x200 /cygdrive/C/Users/SwaminathanK/Desktop/Thesis/DSP Library/NMSIS-master/NMSIS-master/NMSIS/Library/DSP/GCC/libnmsis_dsp_rv32imfcp.a(riscv_common_tables.c.o)
 .rodata.WeightsQ31_128
                0x0000000000000000      0x400 /cygdrive/C/Users/SwaminathanK/Desktop/Thesis/DSP Library/NMSIS-master/NMSIS-master/NMSIS/Library/DSP/GCC/libnmsis_dsp_rv32imfcp.a(riscv_common_tables.c.o)
 .rodata.cos_factorsQ15_8192
                0x0000000000000000     0x4000 /cygdrive/C/Users/SwaminathanK/Desktop/Thesis/DSP Library/NMSIS-master/NMSIS-master/NMSIS/Library/DSP/GCC/libnmsis_dsp_rv32imfcp.a(riscv_common_tables.c.o)
 .rodata.WeightsQ15_8192
                0x0000000000000000     0x8000 /cygdrive/C/Users/SwaminathanK/Desktop/Thesis/DSP Library/NMSIS-master/NMSIS-master/NMSIS/Library/DSP/GCC/libnmsis_dsp_rv32imfcp.a(riscv_common_tables.c.o)
 .rodata.cos_factorsQ15_2048
                0x0000000000000000     0x1000 /cygdrive/C/Users/SwaminathanK/Desktop/Thesis/DSP Library/NMSIS-master/NMSIS-master/NMSIS/Library/DSP/GCC/libnmsis_dsp_rv32imfcp.a(riscv_common_tables.c.o)
 .rodata.WeightsQ15_2048
                0x0000000000000000     0x2000 /cygdrive/C/Users/SwaminathanK/Desktop/Thesis/DSP Library/NMSIS-master/NMSIS-master/NMSIS/Library/DSP/GCC/libnmsis_dsp_rv32imfcp.a(riscv_common_tables.c.o)
 .rodata.cos_factorsQ15_512
                0x0000000000000000      0x400 /cygdrive/C/Users/SwaminathanK/Desktop/Thesis/DSP Library/NMSIS-master/NMSIS-master/NMSIS/Library/DSP/GCC/libnmsis_dsp_rv32imfcp.a(riscv_common_tables.c.o)
 .rodata.WeightsQ15_512
                0x0000000000000000      0x800 /cygdrive/C/Users/SwaminathanK/Desktop/Thesis/DSP Library/NMSIS-master/NMSIS-master/NMSIS/Library/DSP/GCC/libnmsis_dsp_rv32imfcp.a(riscv_common_tables.c.o)
 .rodata.cos_factorsQ15_128
                0x0000000000000000      0x100 /cygdrive/C/Users/SwaminathanK/Desktop/Thesis/DSP Library/NMSIS-master/NMSIS-master/NMSIS/Library/DSP/GCC/libnmsis_dsp_rv32imfcp.a(riscv_common_tables.c.o)
 .rodata.WeightsQ15_128
                0x0000000000000000      0x200 /cygdrive/C/Users/SwaminathanK/Desktop/Thesis/DSP Library/NMSIS-master/NMSIS-master/NMSIS/Library/DSP/GCC/libnmsis_dsp_rv32imfcp.a(riscv_common_tables.c.o)
 .rodata.cos_factors_8192
                0x0000000000000000     0x8000 /cygdrive/C/Users/SwaminathanK/Desktop/Thesis/DSP Library/NMSIS-master/NMSIS-master/NMSIS/Library/DSP/GCC/libnmsis_dsp_rv32imfcp.a(riscv_common_tables.c.o)
 .rodata.Weights_8192
                0x0000000000000000    0x10000 /cygdrive/C/Users/SwaminathanK/Desktop/Thesis/DSP Library/NMSIS-master/NMSIS-master/NMSIS/Library/DSP/GCC/libnmsis_dsp_rv32imfcp.a(riscv_common_tables.c.o)
 .rodata.cos_factors_2048
                0x0000000000000000     0x2000 /cygdrive/C/Users/SwaminathanK/Desktop/Thesis/DSP Library/NMSIS-master/NMSIS-master/NMSIS/Library/DSP/GCC/libnmsis_dsp_rv32imfcp.a(riscv_common_tables.c.o)
 .rodata.Weights_2048
                0x0000000000000000     0x4000 /cygdrive/C/Users/SwaminathanK/Desktop/Thesis/DSP Library/NMSIS-master/NMSIS-master/NMSIS/Library/DSP/GCC/libnmsis_dsp_rv32imfcp.a(riscv_common_tables.c.o)
 .rodata.cos_factors_512
                0x0000000000000000      0x800 /cygdrive/C/Users/SwaminathanK/Desktop/Thesis/DSP Library/NMSIS-master/NMSIS-master/NMSIS/Library/DSP/GCC/libnmsis_dsp_rv32imfcp.a(riscv_common_tables.c.o)
 .rodata.Weights_512
                0x0000000000000000     0x1000 /cygdrive/C/Users/SwaminathanK/Desktop/Thesis/DSP Library/NMSIS-master/NMSIS-master/NMSIS/Library/DSP/GCC/libnmsis_dsp_rv32imfcp.a(riscv_common_tables.c.o)
 .rodata.cos_factors_128
                0x0000000000000000      0x200 /cygdrive/C/Users/SwaminathanK/Desktop/Thesis/DSP Library/NMSIS-master/NMSIS-master/NMSIS/Library/DSP/GCC/libnmsis_dsp_rv32imfcp.a(riscv_common_tables.c.o)
 .rodata.Weights_128
                0x0000000000000000      0x400 /cygdrive/C/Users/SwaminathanK/Desktop/Thesis/DSP Library/NMSIS-master/NMSIS-master/NMSIS/Library/DSP/GCC/libnmsis_dsp_rv32imfcp.a(riscv_common_tables.c.o)
 .rodata.realCoefBQ15
                0x0000000000000000     0x4000 /cygdrive/C/Users/SwaminathanK/Desktop/Thesis/DSP Library/NMSIS-master/NMSIS-master/NMSIS/Library/DSP/GCC/libnmsis_dsp_rv32imfcp.a(riscv_common_tables.c.o)
 .rodata.realCoefAQ15
                0x0000000000000000     0x4000 /cygdrive/C/Users/SwaminathanK/Desktop/Thesis/DSP Library/NMSIS-master/NMSIS-master/NMSIS/Library/DSP/GCC/libnmsis_dsp_rv32imfcp.a(riscv_common_tables.c.o)
 .rodata.realCoefBQ31
                0x0000000000000000     0x8000 /cygdrive/C/Users/SwaminathanK/Desktop/Thesis/DSP Library/NMSIS-master/NMSIS-master/NMSIS/Library/DSP/GCC/libnmsis_dsp_rv32imfcp.a(riscv_common_tables.c.o)
 .rodata.realCoefAQ31
                0x0000000000000000     0x8000 /cygdrive/C/Users/SwaminathanK/Desktop/Thesis/DSP Library/NMSIS-master/NMSIS-master/NMSIS/Library/DSP/GCC/libnmsis_dsp_rv32imfcp.a(riscv_common_tables.c.o)
 .rodata.realCoefB
                0x0000000000000000     0x8000 /cygdrive/C/Users/SwaminathanK/Desktop/Thesis/DSP Library/NMSIS-master/NMSIS-master/NMSIS/Library/DSP/GCC/libnmsis_dsp_rv32imfcp.a(riscv_common_tables.c.o)
 .rodata.realCoefA
                0x0000000000000000     0x8000 /cygdrive/C/Users/SwaminathanK/Desktop/Thesis/DSP Library/NMSIS-master/NMSIS-master/NMSIS/Library/DSP/GCC/libnmsis_dsp_rv32imfcp.a(riscv_common_tables.c.o)
 .rodata.twiddleCoef_rfft_4096
                0x0000000000000000     0x4000 /cygdrive/C/Users/SwaminathanK/Desktop/Thesis/DSP Library/NMSIS-master/NMSIS-master/NMSIS/Library/DSP/GCC/libnmsis_dsp_rv32imfcp.a(riscv_common_tables.c.o)
 .rodata.twiddleCoef_rfft_2048
                0x0000000000000000     0x2000 /cygdrive/C/Users/SwaminathanK/Desktop/Thesis/DSP Library/NMSIS-master/NMSIS-master/NMSIS/Library/DSP/GCC/libnmsis_dsp_rv32imfcp.a(riscv_common_tables.c.o)
 .rodata.twiddleCoef_rfft_1024
                0x0000000000000000     0x1000 /cygdrive/C/Users/SwaminathanK/Desktop/Thesis/DSP Library/NMSIS-master/NMSIS-master/NMSIS/Library/DSP/GCC/libnmsis_dsp_rv32imfcp.a(riscv_common_tables.c.o)
 .rodata.twiddleCoef_rfft_512
                0x0000000000000000      0x800 /cygdrive/C/Users/SwaminathanK/Desktop/Thesis/DSP Library/NMSIS-master/NMSIS-master/NMSIS/Library/DSP/GCC/libnmsis_dsp_rv32imfcp.a(riscv_common_tables.c.o)
 .rodata.twiddleCoef_rfft_256
                0x0000000000000000      0x400 /cygdrive/C/Users/SwaminathanK/Desktop/Thesis/DSP Library/NMSIS-master/NMSIS-master/NMSIS/Library/DSP/GCC/libnmsis_dsp_rv32imfcp.a(riscv_common_tables.c.o)
 .rodata.twiddleCoef_rfft_128
                0x0000000000000000      0x200 /cygdrive/C/Users/SwaminathanK/Desktop/Thesis/DSP Library/NMSIS-master/NMSIS-master/NMSIS/Library/DSP/GCC/libnmsis_dsp_rv32imfcp.a(riscv_common_tables.c.o)
 .rodata.twiddleCoef_rfft_64
                0x0000000000000000      0x100 /cygdrive/C/Users/SwaminathanK/Desktop/Thesis/DSP Library/NMSIS-master/NMSIS-master/NMSIS/Library/DSP/GCC/libnmsis_dsp_rv32imfcp.a(riscv_common_tables.c.o)
 .rodata.twiddleCoef_rfft_32
                0x0000000000000000       0x80 /cygdrive/C/Users/SwaminathanK/Desktop/Thesis/DSP Library/NMSIS-master/NMSIS-master/NMSIS/Library/DSP/GCC/libnmsis_dsp_rv32imfcp.a(riscv_common_tables.c.o)
 .rodata.twiddleCoefF64_rfft_4096
                0x0000000000000000     0x8000 /cygdrive/C/Users/SwaminathanK/Desktop/Thesis/DSP Library/NMSIS-master/NMSIS-master/NMSIS/Library/DSP/GCC/libnmsis_dsp_rv32imfcp.a(riscv_common_tables.c.o)
 .rodata.twiddleCoefF64_rfft_2048
                0x0000000000000000     0x4000 /cygdrive/C/Users/SwaminathanK/Desktop/Thesis/DSP Library/NMSIS-master/NMSIS-master/NMSIS/Library/DSP/GCC/libnmsis_dsp_rv32imfcp.a(riscv_common_tables.c.o)
 .rodata.twiddleCoefF64_rfft_1024
                0x0000000000000000     0x2000 /cygdrive/C/Users/SwaminathanK/Desktop/Thesis/DSP Library/NMSIS-master/NMSIS-master/NMSIS/Library/DSP/GCC/libnmsis_dsp_rv32imfcp.a(riscv_common_tables.c.o)
 .rodata.twiddleCoefF64_rfft_512
                0x0000000000000000     0x1000 /cygdrive/C/Users/SwaminathanK/Desktop/Thesis/DSP Library/NMSIS-master/NMSIS-master/NMSIS/Library/DSP/GCC/libnmsis_dsp_rv32imfcp.a(riscv_common_tables.c.o)
 .rodata.twiddleCoefF64_rfft_256
                0x0000000000000000      0x800 /cygdrive/C/Users/SwaminathanK/Desktop/Thesis/DSP Library/NMSIS-master/NMSIS-master/NMSIS/Library/DSP/GCC/libnmsis_dsp_rv32imfcp.a(riscv_common_tables.c.o)
 .rodata.twiddleCoefF64_rfft_128
                0x0000000000000000      0x400 /cygdrive/C/Users/SwaminathanK/Desktop/Thesis/DSP Library/NMSIS-master/NMSIS-master/NMSIS/Library/DSP/GCC/libnmsis_dsp_rv32imfcp.a(riscv_common_tables.c.o)
 .rodata.twiddleCoefF64_rfft_64
                0x0000000000000000      0x200 /cygdrive/C/Users/SwaminathanK/Desktop/Thesis/DSP Library/NMSIS-master/NMSIS-master/NMSIS/Library/DSP/GCC/libnmsis_dsp_rv32imfcp.a(riscv_common_tables.c.o)
 .rodata.twiddleCoefF64_rfft_32
                0x0000000000000000      0x100 /cygdrive/C/Users/SwaminathanK/Desktop/Thesis/DSP Library/NMSIS-master/NMSIS-master/NMSIS/Library/DSP/GCC/libnmsis_dsp_rv32imfcp.a(riscv_common_tables.c.o)
 .rodata.riscvBitRevIndexTable_fixed_4096
                0x0000000000000000     0x1f80 /cygdrive/C/Users/SwaminathanK/Desktop/Thesis/DSP Library/NMSIS-master/NMSIS-master/NMSIS/Library/DSP/GCC/libnmsis_dsp_rv32imfcp.a(riscv_common_tables.c.o)
 .rodata.riscvBitRevIndexTable_fixed_2048
                0x0000000000000000      0xf80 /cygdrive/C/Users/SwaminathanK/Desktop/Thesis/DSP Library/NMSIS-master/NMSIS-master/NMSIS/Library/DSP/GCC/libnmsis_dsp_rv32imfcp.a(riscv_common_tables.c.o)
 .rodata.riscvBitRevIndexTable_fixed_1024
                0x0000000000000000      0x7c0 /cygdrive/C/Users/SwaminathanK/Desktop/Thesis/DSP Library/NMSIS-master/NMSIS-master/NMSIS/Library/DSP/GCC/libnmsis_dsp_rv32imfcp.a(riscv_common_tables.c.o)
 .rodata.riscvBitRevIndexTable_fixed_512
                0x0000000000000000      0x3c0 /cygdrive/C/Users/SwaminathanK/Desktop/Thesis/DSP Library/NMSIS-master/NMSIS-master/NMSIS/Library/DSP/GCC/libnmsis_dsp_rv32imfcp.a(riscv_common_tables.c.o)
 .rodata.riscvBitRevIndexTable_fixed_256
                0x0000000000000000      0x1e0 /cygdrive/C/Users/SwaminathanK/Desktop/Thesis/DSP Library/NMSIS-master/NMSIS-master/NMSIS/Library/DSP/GCC/libnmsis_dsp_rv32imfcp.a(riscv_common_tables.c.o)
 .rodata.riscvBitRevIndexTable_fixed_128
                0x0000000000000000       0xe0 /cygdrive/C/Users/SwaminathanK/Desktop/Thesis/DSP Library/NMSIS-master/NMSIS-master/NMSIS/Library/DSP/GCC/libnmsis_dsp_rv32imfcp.a(riscv_common_tables.c.o)
 .rodata.riscvBitRevIndexTable_fixed_64
                0x0000000000000000       0x70 /cygdrive/C/Users/SwaminathanK/Desktop/Thesis/DSP Library/NMSIS-master/NMSIS-master/NMSIS/Library/DSP/GCC/libnmsis_dsp_rv32imfcp.a(riscv_common_tables.c.o)
 .rodata.riscvBitRevIndexTable_fixed_32
                0x0000000000000000       0x30 /cygdrive/C/Users/SwaminathanK/Desktop/Thesis/DSP Library/NMSIS-master/NMSIS-master/NMSIS/Library/DSP/GCC/libnmsis_dsp_rv32imfcp.a(riscv_common_tables.c.o)
 .rodata.riscvBitRevIndexTable_fixed_16
                0x0000000000000000       0x18 /cygdrive/C/Users/SwaminathanK/Desktop/Thesis/DSP Library/NMSIS-master/NMSIS-master/NMSIS/Library/DSP/GCC/libnmsis_dsp_rv32imfcp.a(riscv_common_tables.c.o)
 .rodata.riscvBitRevIndexTableF64_4096
                0x0000000000000000     0x1f80 /cygdrive/C/Users/SwaminathanK/Desktop/Thesis/DSP Library/NMSIS-master/NMSIS-master/NMSIS/Library/DSP/GCC/libnmsis_dsp_rv32imfcp.a(riscv_common_tables.c.o)
 .rodata.riscvBitRevIndexTableF64_2048
                0x0000000000000000      0xf80 /cygdrive/C/Users/SwaminathanK/Desktop/Thesis/DSP Library/NMSIS-master/NMSIS-master/NMSIS/Library/DSP/GCC/libnmsis_dsp_rv32imfcp.a(riscv_common_tables.c.o)
 .rodata.riscvBitRevIndexTableF64_1024
                0x0000000000000000      0x7c0 /cygdrive/C/Users/SwaminathanK/Desktop/Thesis/DSP Library/NMSIS-master/NMSIS-master/NMSIS/Library/DSP/GCC/libnmsis_dsp_rv32imfcp.a(riscv_common_tables.c.o)
 .rodata.riscvBitRevIndexTableF64_512
                0x0000000000000000      0x3c0 /cygdrive/C/Users/SwaminathanK/Desktop/Thesis/DSP Library/NMSIS-master/NMSIS-master/NMSIS/Library/DSP/GCC/libnmsis_dsp_rv32imfcp.a(riscv_common_tables.c.o)
 .rodata.riscvBitRevIndexTableF64_256
                0x0000000000000000      0x1e0 /cygdrive/C/Users/SwaminathanK/Desktop/Thesis/DSP Library/NMSIS-master/NMSIS-master/NMSIS/Library/DSP/GCC/libnmsis_dsp_rv32imfcp.a(riscv_common_tables.c.o)
 .rodata.riscvBitRevIndexTableF64_128
                0x0000000000000000       0xe0 /cygdrive/C/Users/SwaminathanK/Desktop/Thesis/DSP Library/NMSIS-master/NMSIS-master/NMSIS/Library/DSP/GCC/libnmsis_dsp_rv32imfcp.a(riscv_common_tables.c.o)
 .rodata.riscvBitRevIndexTableF64_64
                0x0000000000000000       0x70 /cygdrive/C/Users/SwaminathanK/Desktop/Thesis/DSP Library/NMSIS-master/NMSIS-master/NMSIS/Library/DSP/GCC/libnmsis_dsp_rv32imfcp.a(riscv_common_tables.c.o)
 .rodata.riscvBitRevIndexTableF64_32
                0x0000000000000000       0x30 /cygdrive/C/Users/SwaminathanK/Desktop/Thesis/DSP Library/NMSIS-master/NMSIS-master/NMSIS/Library/DSP/GCC/libnmsis_dsp_rv32imfcp.a(riscv_common_tables.c.o)
 .rodata.riscvBitRevIndexTableF64_16
                0x0000000000000000       0x18 /cygdrive/C/Users/SwaminathanK/Desktop/Thesis/DSP Library/NMSIS-master/NMSIS-master/NMSIS/Library/DSP/GCC/libnmsis_dsp_rv32imfcp.a(riscv_common_tables.c.o)
 .rodata.twiddleCoef_4096_q15
                0x0000000000000000     0x3000 /cygdrive/C/Users/SwaminathanK/Desktop/Thesis/DSP Library/NMSIS-master/NMSIS-master/NMSIS/Library/DSP/GCC/libnmsis_dsp_rv32imfcp.a(riscv_common_tables.c.o)
 .rodata.twiddleCoef_2048_q15
                0x0000000000000000     0x1800 /cygdrive/C/Users/SwaminathanK/Desktop/Thesis/DSP Library/NMSIS-master/NMSIS-master/NMSIS/Library/DSP/GCC/libnmsis_dsp_rv32imfcp.a(riscv_common_tables.c.o)
 .rodata.twiddleCoef_1024_q15
                0x0000000000000000      0xc00 /cygdrive/C/Users/SwaminathanK/Desktop/Thesis/DSP Library/NMSIS-master/NMSIS-master/NMSIS/Library/DSP/GCC/libnmsis_dsp_rv32imfcp.a(riscv_common_tables.c.o)
 .rodata.twiddleCoef_512_q15
                0x0000000000000000      0x600 /cygdrive/C/Users/SwaminathanK/Desktop/Thesis/DSP Library/NMSIS-master/NMSIS-master/NMSIS/Library/DSP/GCC/libnmsis_dsp_rv32imfcp.a(riscv_common_tables.c.o)
 .rodata.twiddleCoef_256_q15
                0x0000000000000000      0x300 /cygdrive/C/Users/SwaminathanK/Desktop/Thesis/DSP Library/NMSIS-master/NMSIS-master/NMSIS/Library/DSP/GCC/libnmsis_dsp_rv32imfcp.a(riscv_common_tables.c.o)
 .rodata.twiddleCoef_128_q15
                0x0000000000000000      0x180 /cygdrive/C/Users/SwaminathanK/Desktop/Thesis/DSP Library/NMSIS-master/NMSIS-master/NMSIS/Library/DSP/GCC/libnmsis_dsp_rv32imfcp.a(riscv_common_tables.c.o)
 .rodata.twiddleCoef_64_q15
                0x0000000000000000       0xc0 /cygdrive/C/Users/SwaminathanK/Desktop/Thesis/DSP Library/NMSIS-master/NMSIS-master/NMSIS/Library/DSP/GCC/libnmsis_dsp_rv32imfcp.a(riscv_common_tables.c.o)
 .rodata.twiddleCoef_32_q15
                0x0000000000000000       0x60 /cygdrive/C/Users/SwaminathanK/Desktop/Thesis/DSP Library/NMSIS-master/NMSIS-master/NMSIS/Library/DSP/GCC/libnmsis_dsp_rv32imfcp.a(riscv_common_tables.c.o)
 .rodata.twiddleCoef_16_q15
                0x0000000000000000       0x30 /cygdrive/C/Users/SwaminathanK/Desktop/Thesis/DSP Library/NMSIS-master/NMSIS-master/NMSIS/Library/DSP/GCC/libnmsis_dsp_rv32imfcp.a(riscv_common_tables.c.o)
 .rodata.twiddleCoef_4096_q31
                0x0000000000000000     0x6000 /cygdrive/C/Users/SwaminathanK/Desktop/Thesis/DSP Library/NMSIS-master/NMSIS-master/NMSIS/Library/DSP/GCC/libnmsis_dsp_rv32imfcp.a(riscv_common_tables.c.o)
 .rodata.twiddleCoef_2048_q31
                0x0000000000000000     0x3000 /cygdrive/C/Users/SwaminathanK/Desktop/Thesis/DSP Library/NMSIS-master/NMSIS-master/NMSIS/Library/DSP/GCC/libnmsis_dsp_rv32imfcp.a(riscv_common_tables.c.o)
 .rodata.twiddleCoef_1024_q31
                0x0000000000000000     0x1800 /cygdrive/C/Users/SwaminathanK/Desktop/Thesis/DSP Library/NMSIS-master/NMSIS-master/NMSIS/Library/DSP/GCC/libnmsis_dsp_rv32imfcp.a(riscv_common_tables.c.o)
 .rodata.twiddleCoef_512_q31
                0x0000000000000000      0xc00 /cygdrive/C/Users/SwaminathanK/Desktop/Thesis/DSP Library/NMSIS-master/NMSIS-master/NMSIS/Library/DSP/GCC/libnmsis_dsp_rv32imfcp.a(riscv_common_tables.c.o)
 .rodata.twiddleCoef_256_q31
                0x0000000000000000      0x600 /cygdrive/C/Users/SwaminathanK/Desktop/Thesis/DSP Library/NMSIS-master/NMSIS-master/NMSIS/Library/DSP/GCC/libnmsis_dsp_rv32imfcp.a(riscv_common_tables.c.o)
 .rodata.twiddleCoef_128_q31
                0x0000000000000000      0x300 /cygdrive/C/Users/SwaminathanK/Desktop/Thesis/DSP Library/NMSIS-master/NMSIS-master/NMSIS/Library/DSP/GCC/libnmsis_dsp_rv32imfcp.a(riscv_common_tables.c.o)
 .rodata.twiddleCoef_64_q31
                0x0000000000000000      0x180 /cygdrive/C/Users/SwaminathanK/Desktop/Thesis/DSP Library/NMSIS-master/NMSIS-master/NMSIS/Library/DSP/GCC/libnmsis_dsp_rv32imfcp.a(riscv_common_tables.c.o)
 .rodata.twiddleCoef_32_q31
                0x0000000000000000       0xc0 /cygdrive/C/Users/SwaminathanK/Desktop/Thesis/DSP Library/NMSIS-master/NMSIS-master/NMSIS/Library/DSP/GCC/libnmsis_dsp_rv32imfcp.a(riscv_common_tables.c.o)
 .rodata.twiddleCoef_16_q31
                0x0000000000000000       0x60 /cygdrive/C/Users/SwaminathanK/Desktop/Thesis/DSP Library/NMSIS-master/NMSIS-master/NMSIS/Library/DSP/GCC/libnmsis_dsp_rv32imfcp.a(riscv_common_tables.c.o)
 .rodata.twiddleCoefF64_4096
                0x0000000000000000    0x10000 /cygdrive/C/Users/SwaminathanK/Desktop/Thesis/DSP Library/NMSIS-master/NMSIS-master/NMSIS/Library/DSP/GCC/libnmsis_dsp_rv32imfcp.a(riscv_common_tables.c.o)
 .rodata.twiddleCoefF64_2048
                0x0000000000000000     0x8000 /cygdrive/C/Users/SwaminathanK/Desktop/Thesis/DSP Library/NMSIS-master/NMSIS-master/NMSIS/Library/DSP/GCC/libnmsis_dsp_rv32imfcp.a(riscv_common_tables.c.o)
 .rodata.twiddleCoefF64_1024
                0x0000000000000000     0x4000 /cygdrive/C/Users/SwaminathanK/Desktop/Thesis/DSP Library/NMSIS-master/NMSIS-master/NMSIS/Library/DSP/GCC/libnmsis_dsp_rv32imfcp.a(riscv_common_tables.c.o)
 .rodata.twiddleCoefF64_512
                0x0000000000000000     0x2000 /cygdrive/C/Users/SwaminathanK/Desktop/Thesis/DSP Library/NMSIS-master/NMSIS-master/NMSIS/Library/DSP/GCC/libnmsis_dsp_rv32imfcp.a(riscv_common_tables.c.o)
 .rodata.twiddleCoefF64_256
                0x0000000000000000     0x1000 /cygdrive/C/Users/SwaminathanK/Desktop/Thesis/DSP Library/NMSIS-master/NMSIS-master/NMSIS/Library/DSP/GCC/libnmsis_dsp_rv32imfcp.a(riscv_common_tables.c.o)
 .rodata.twiddleCoefF64_128
                0x0000000000000000      0x800 /cygdrive/C/Users/SwaminathanK/Desktop/Thesis/DSP Library/NMSIS-master/NMSIS-master/NMSIS/Library/DSP/GCC/libnmsis_dsp_rv32imfcp.a(riscv_common_tables.c.o)
 .rodata.twiddleCoefF64_64
                0x0000000000000000      0x400 /cygdrive/C/Users/SwaminathanK/Desktop/Thesis/DSP Library/NMSIS-master/NMSIS-master/NMSIS/Library/DSP/GCC/libnmsis_dsp_rv32imfcp.a(riscv_common_tables.c.o)
 .rodata.twiddleCoefF64_32
                0x0000000000000000      0x200 /cygdrive/C/Users/SwaminathanK/Desktop/Thesis/DSP Library/NMSIS-master/NMSIS-master/NMSIS/Library/DSP/GCC/libnmsis_dsp_rv32imfcp.a(riscv_common_tables.c.o)
 .rodata.twiddleCoefF64_16
                0x0000000000000000      0x100 /cygdrive/C/Users/SwaminathanK/Desktop/Thesis/DSP Library/NMSIS-master/NMSIS-master/NMSIS/Library/DSP/GCC/libnmsis_dsp_rv32imfcp.a(riscv_common_tables.c.o)
 .rodata.riscvBitRevTable
                0x0000000000000000      0x800 /cygdrive/C/Users/SwaminathanK/Desktop/Thesis/DSP Library/NMSIS-master/NMSIS-master/NMSIS/Library/DSP/GCC/libnmsis_dsp_rv32imfcp.a(riscv_common_tables.c.o)
 .text          0x0000000000000000        0x0 /cygdrive/C/Users/SwaminathanK/Desktop/Thesis/DSP Library/NMSIS-master/NMSIS-master/NMSIS/Library/DSP/GCC/libnmsis_dsp_rv32imfcp.a(riscv_cfft_q15.c.o)
 .data          0x0000000000000000        0x0 /cygdrive/C/Users/SwaminathanK/Desktop/Thesis/DSP Library/NMSIS-master/NMSIS-master/NMSIS/Library/DSP/GCC/libnmsis_dsp_rv32imfcp.a(riscv_cfft_q15.c.o)
 .bss           0x0000000000000000        0x0 /cygdrive/C/Users/SwaminathanK/Desktop/Thesis/DSP Library/NMSIS-master/NMSIS-master/NMSIS/Library/DSP/GCC/libnmsis_dsp_rv32imfcp.a(riscv_cfft_q15.c.o)
 .text.riscv_cfft_radix4by2_q15
                0x0000000000000000      0x102 /cygdrive/C/Users/SwaminathanK/Desktop/Thesis/DSP Library/NMSIS-master/NMSIS-master/NMSIS/Library/DSP/GCC/libnmsis_dsp_rv32imfcp.a(riscv_cfft_q15.c.o)
 .text.riscv_cfft_radix4by2_inverse_q15
                0x0000000000000000      0x102 /cygdrive/C/Users/SwaminathanK/Desktop/Thesis/DSP Library/NMSIS-master/NMSIS-master/NMSIS/Library/DSP/GCC/libnmsis_dsp_rv32imfcp.a(riscv_cfft_q15.c.o)
 .text.riscv_cfft_q15
                0x0000000000000000      0x162 /cygdrive/C/Users/SwaminathanK/Desktop/Thesis/DSP Library/NMSIS-master/NMSIS-master/NMSIS/Library/DSP/GCC/libnmsis_dsp_rv32imfcp.a(riscv_cfft_q15.c.o)
 .debug_info    0x0000000000000000      0xfb1 /cygdrive/C/Users/SwaminathanK/Desktop/Thesis/DSP Library/NMSIS-master/NMSIS-master/NMSIS/Library/DSP/GCC/libnmsis_dsp_rv32imfcp.a(riscv_cfft_q15.c.o)
 .debug_abbrev  0x0000000000000000      0x2b7 /cygdrive/C/Users/SwaminathanK/Desktop/Thesis/DSP Library/NMSIS-master/NMSIS-master/NMSIS/Library/DSP/GCC/libnmsis_dsp_rv32imfcp.a(riscv_cfft_q15.c.o)
 .debug_loc     0x0000000000000000      0xcf2 /cygdrive/C/Users/SwaminathanK/Desktop/Thesis/DSP Library/NMSIS-master/NMSIS-master/NMSIS/Library/DSP/GCC/libnmsis_dsp_rv32imfcp.a(riscv_cfft_q15.c.o)
 .debug_aranges
                0x0000000000000000       0x30 /cygdrive/C/Users/SwaminathanK/Desktop/Thesis/DSP Library/NMSIS-master/NMSIS-master/NMSIS/Library/DSP/GCC/libnmsis_dsp_rv32imfcp.a(riscv_cfft_q15.c.o)
 .debug_ranges  0x0000000000000000       0xb0 /cygdrive/C/Users/SwaminathanK/Desktop/Thesis/DSP Library/NMSIS-master/NMSIS-master/NMSIS/Library/DSP/GCC/libnmsis_dsp_rv32imfcp.a(riscv_cfft_q15.c.o)
 .debug_line    0x0000000000000000      0xce4 /cygdrive/C/Users/SwaminathanK/Desktop/Thesis/DSP Library/NMSIS-master/NMSIS-master/NMSIS/Library/DSP/GCC/libnmsis_dsp_rv32imfcp.a(riscv_cfft_q15.c.o)
 .debug_str     0x0000000000000000      0x425 /cygdrive/C/Users/SwaminathanK/Desktop/Thesis/DSP Library/NMSIS-master/NMSIS-master/NMSIS/Library/DSP/GCC/libnmsis_dsp_rv32imfcp.a(riscv_cfft_q15.c.o)
 .comment       0x0000000000000000       0x13 /cygdrive/C/Users/SwaminathanK/Desktop/Thesis/DSP Library/NMSIS-master/NMSIS-master/NMSIS/Library/DSP/GCC/libnmsis_dsp_rv32imfcp.a(riscv_cfft_q15.c.o)
 .debug_frame   0x0000000000000000       0xc8 /cygdrive/C/Users/SwaminathanK/Desktop/Thesis/DSP Library/NMSIS-master/NMSIS-master/NMSIS/Library/DSP/GCC/libnmsis_dsp_rv32imfcp.a(riscv_cfft_q15.c.o)
 .riscv.attributes
                0x0000000000000000       0x32 /cygdrive/C/Users/SwaminathanK/Desktop/Thesis/DSP Library/NMSIS-master/NMSIS-master/NMSIS/Library/DSP/GCC/libnmsis_dsp_rv32imfcp.a(riscv_cfft_q15.c.o)
 .text          0x0000000000000000        0x0 /cygdrive/C/Users/SwaminathanK/Desktop/Thesis/DSP Library/NMSIS-master/NMSIS-master/NMSIS/Library/DSP/GCC/libnmsis_dsp_rv32imfcp.a(riscv_cfft_radix4_q15.c.o)
 .data          0x0000000000000000        0x0 /cygdrive/C/Users/SwaminathanK/Desktop/Thesis/DSP Library/NMSIS-master/NMSIS-master/NMSIS/Library/DSP/GCC/libnmsis_dsp_rv32imfcp.a(riscv_cfft_radix4_q15.c.o)
 .bss           0x0000000000000000        0x0 /cygdrive/C/Users/SwaminathanK/Desktop/Thesis/DSP Library/NMSIS-master/NMSIS-master/NMSIS/Library/DSP/GCC/libnmsis_dsp_rv32imfcp.a(riscv_cfft_radix4_q15.c.o)
 .text.riscv_radix4_butterfly_q15
                0x0000000000000000      0x28e /cygdrive/C/Users/SwaminathanK/Desktop/Thesis/DSP Library/NMSIS-master/NMSIS-master/NMSIS/Library/DSP/GCC/libnmsis_dsp_rv32imfcp.a(riscv_cfft_radix4_q15.c.o)
 .text.riscv_radix4_butterfly_inverse_q15
                0x0000000000000000      0x292 /cygdrive/C/Users/SwaminathanK/Desktop/Thesis/DSP Library/NMSIS-master/NMSIS-master/NMSIS/Library/DSP/GCC/libnmsis_dsp_rv32imfcp.a(riscv_cfft_radix4_q15.c.o)
 .text.riscv_cfft_radix4_q15
                0x0000000000000000       0x80 /cygdrive/C/Users/SwaminathanK/Desktop/Thesis/DSP Library/NMSIS-master/NMSIS-master/NMSIS/Library/DSP/GCC/libnmsis_dsp_rv32imfcp.a(riscv_cfft_radix4_q15.c.o)
 .debug_info    0x0000000000000000     0x367c /cygdrive/C/Users/SwaminathanK/Desktop/Thesis/DSP Library/NMSIS-master/NMSIS-master/NMSIS/Library/DSP/GCC/libnmsis_dsp_rv32imfcp.a(riscv_cfft_radix4_q15.c.o)
 .debug_abbrev  0x0000000000000000      0x2b2 /cygdrive/C/Users/SwaminathanK/Desktop/Thesis/DSP Library/NMSIS-master/NMSIS-master/NMSIS/Library/DSP/GCC/libnmsis_dsp_rv32imfcp.a(riscv_cfft_radix4_q15.c.o)
 .debug_loc     0x0000000000000000     0x279a /cygdrive/C/Users/SwaminathanK/Desktop/Thesis/DSP Library/NMSIS-master/NMSIS-master/NMSIS/Library/DSP/GCC/libnmsis_dsp_rv32imfcp.a(riscv_cfft_radix4_q15.c.o)
 .debug_aranges
                0x0000000000000000       0x30 /cygdrive/C/Users/SwaminathanK/Desktop/Thesis/DSP Library/NMSIS-master/NMSIS-master/NMSIS/Library/DSP/GCC/libnmsis_dsp_rv32imfcp.a(riscv_cfft_radix4_q15.c.o)
 .debug_ranges  0x0000000000000000      0x200 /cygdrive/C/Users/SwaminathanK/Desktop/Thesis/DSP Library/NMSIS-master/NMSIS-master/NMSIS/Library/DSP/GCC/libnmsis_dsp_rv32imfcp.a(riscv_cfft_radix4_q15.c.o)
 .debug_line    0x0000000000000000     0x363c /cygdrive/C/Users/SwaminathanK/Desktop/Thesis/DSP Library/NMSIS-master/NMSIS-master/NMSIS/Library/DSP/GCC/libnmsis_dsp_rv32imfcp.a(riscv_cfft_radix4_q15.c.o)
 .debug_str     0x0000000000000000      0x48e /cygdrive/C/Users/SwaminathanK/Desktop/Thesis/DSP Library/NMSIS-master/NMSIS-master/NMSIS/Library/DSP/GCC/libnmsis_dsp_rv32imfcp.a(riscv_cfft_radix4_q15.c.o)
 .comment       0x0000000000000000       0x13 /cygdrive/C/Users/SwaminathanK/Desktop/Thesis/DSP Library/NMSIS-master/NMSIS-master/NMSIS/Library/DSP/GCC/libnmsis_dsp_rv32imfcp.a(riscv_cfft_radix4_q15.c.o)
 .debug_frame   0x0000000000000000       0xd8 /cygdrive/C/Users/SwaminathanK/Desktop/Thesis/DSP Library/NMSIS-master/NMSIS-master/NMSIS/Library/DSP/GCC/libnmsis_dsp_rv32imfcp.a(riscv_cfft_radix4_q15.c.o)
 .riscv.attributes
                0x0000000000000000       0x32 /cygdrive/C/Users/SwaminathanK/Desktop/Thesis/DSP Library/NMSIS-master/NMSIS-master/NMSIS/Library/DSP/GCC/libnmsis_dsp_rv32imfcp.a(riscv_cfft_radix4_q15.c.o)
 .text          0x0000000000000000        0x0 /cygdrive/C/Users/SwaminathanK/Desktop/Thesis/DSP Library/NMSIS-master/NMSIS-master/NMSIS/Library/DSP/GCC/libnmsis_dsp_rv32imfcp.a(riscv_cfft_init_f32.c.o)
 .data          0x0000000000000000        0x0 /cygdrive/C/Users/SwaminathanK/Desktop/Thesis/DSP Library/NMSIS-master/NMSIS-master/NMSIS/Library/DSP/GCC/libnmsis_dsp_rv32imfcp.a(riscv_cfft_init_f32.c.o)
 .bss           0x0000000000000000        0x0 /cygdrive/C/Users/SwaminathanK/Desktop/Thesis/DSP Library/NMSIS-master/NMSIS-master/NMSIS/Library/DSP/GCC/libnmsis_dsp_rv32imfcp.a(riscv_cfft_init_f32.c.o)
 .text          0x0000000000000000        0x0 /cygdrive/C/Users/SwaminathanK/Desktop/Thesis/DSP Library/NMSIS-master/NMSIS-master/NMSIS/Library/DSP/GCC/libnmsis_dsp_rv32imfcp.a(riscv_cfft_init_q15.c.o)
 .data          0x0000000000000000        0x0 /cygdrive/C/Users/SwaminathanK/Desktop/Thesis/DSP Library/NMSIS-master/NMSIS-master/NMSIS/Library/DSP/GCC/libnmsis_dsp_rv32imfcp.a(riscv_cfft_init_q15.c.o)
 .bss           0x0000000000000000        0x0 /cygdrive/C/Users/SwaminathanK/Desktop/Thesis/DSP Library/NMSIS-master/NMSIS-master/NMSIS/Library/DSP/GCC/libnmsis_dsp_rv32imfcp.a(riscv_cfft_init_q15.c.o)
 .text.riscv_cfft_init_4096_q15
                0x0000000000000000       0x24 /cygdrive/C/Users/SwaminathanK/Desktop/Thesis/DSP Library/NMSIS-master/NMSIS-master/NMSIS/Library/DSP/GCC/libnmsis_dsp_rv32imfcp.a(riscv_cfft_init_q15.c.o)
 .text.riscv_cfft_init_2048_q15
                0x0000000000000000       0x28 /cygdrive/C/Users/SwaminathanK/Desktop/Thesis/DSP Library/NMSIS-master/NMSIS-master/NMSIS/Library/DSP/GCC/libnmsis_dsp_rv32imfcp.a(riscv_cfft_init_q15.c.o)
 .text.riscv_cfft_init_1024_q15
                0x0000000000000000       0x26 /cygdrive/C/Users/SwaminathanK/Desktop/Thesis/DSP Library/NMSIS-master/NMSIS-master/NMSIS/Library/DSP/GCC/libnmsis_dsp_rv32imfcp.a(riscv_cfft_init_q15.c.o)
 .text.riscv_cfft_init_512_q15
                0x0000000000000000       0x26 /cygdrive/C/Users/SwaminathanK/Desktop/Thesis/DSP Library/NMSIS-master/NMSIS-master/NMSIS/Library/DSP/GCC/libnmsis_dsp_rv32imfcp.a(riscv_cfft_init_q15.c.o)
 .text.riscv_cfft_init_256_q15
                0x0000000000000000       0x26 /cygdrive/C/Users/SwaminathanK/Desktop/Thesis/DSP Library/NMSIS-master/NMSIS-master/NMSIS/Library/DSP/GCC/libnmsis_dsp_rv32imfcp.a(riscv_cfft_init_q15.c.o)
 .text.riscv_cfft_init_128_q15
                0x0000000000000000       0x26 /cygdrive/C/Users/SwaminathanK/Desktop/Thesis/DSP Library/NMSIS-master/NMSIS-master/NMSIS/Library/DSP/GCC/libnmsis_dsp_rv32imfcp.a(riscv_cfft_init_q15.c.o)
 .text.riscv_cfft_init_64_q15
                0x0000000000000000       0x26 /cygdrive/C/Users/SwaminathanK/Desktop/Thesis/DSP Library/NMSIS-master/NMSIS-master/NMSIS/Library/DSP/GCC/libnmsis_dsp_rv32imfcp.a(riscv_cfft_init_q15.c.o)
 .text.riscv_cfft_init_32_q15
                0x0000000000000000       0x26 /cygdrive/C/Users/SwaminathanK/Desktop/Thesis/DSP Library/NMSIS-master/NMSIS-master/NMSIS/Library/DSP/GCC/libnmsis_dsp_rv32imfcp.a(riscv_cfft_init_q15.c.o)
 .text.riscv_cfft_init_16_q15
                0x0000000000000000       0x24 /cygdrive/C/Users/SwaminathanK/Desktop/Thesis/DSP Library/NMSIS-master/NMSIS-master/NMSIS/Library/DSP/GCC/libnmsis_dsp_rv32imfcp.a(riscv_cfft_init_q15.c.o)
 .text.riscv_cfft_init_q15
                0x0000000000000000       0xb4 /cygdrive/C/Users/SwaminathanK/Desktop/Thesis/DSP Library/NMSIS-master/NMSIS-master/NMSIS/Library/DSP/GCC/libnmsis_dsp_rv32imfcp.a(riscv_cfft_init_q15.c.o)
 .debug_info    0x0000000000000000      0x46d /cygdrive/C/Users/SwaminathanK/Desktop/Thesis/DSP Library/NMSIS-master/NMSIS-master/NMSIS/Library/DSP/GCC/libnmsis_dsp_rv32imfcp.a(riscv_cfft_init_q15.c.o)
 .debug_abbrev  0x0000000000000000      0x147 /cygdrive/C/Users/SwaminathanK/Desktop/Thesis/DSP Library/NMSIS-master/NMSIS-master/NMSIS/Library/DSP/GCC/libnmsis_dsp_rv32imfcp.a(riscv_cfft_init_q15.c.o)
 .debug_loc     0x0000000000000000      0x314 /cygdrive/C/Users/SwaminathanK/Desktop/Thesis/DSP Library/NMSIS-master/NMSIS-master/NMSIS/Library/DSP/GCC/libnmsis_dsp_rv32imfcp.a(riscv_cfft_init_q15.c.o)
 .debug_aranges
                0x0000000000000000       0x68 /cygdrive/C/Users/SwaminathanK/Desktop/Thesis/DSP Library/NMSIS-master/NMSIS-master/NMSIS/Library/DSP/GCC/libnmsis_dsp_rv32imfcp.a(riscv_cfft_init_q15.c.o)
 .debug_ranges  0x0000000000000000       0x58 /cygdrive/C/Users/SwaminathanK/Desktop/Thesis/DSP Library/NMSIS-master/NMSIS-master/NMSIS/Library/DSP/GCC/libnmsis_dsp_rv32imfcp.a(riscv_cfft_init_q15.c.o)
 .debug_line    0x0000000000000000      0x503 /cygdrive/C/Users/SwaminathanK/Desktop/Thesis/DSP Library/NMSIS-master/NMSIS-master/NMSIS/Library/DSP/GCC/libnmsis_dsp_rv32imfcp.a(riscv_cfft_init_q15.c.o)
 .debug_str     0x0000000000000000      0x4fe /cygdrive/C/Users/SwaminathanK/Desktop/Thesis/DSP Library/NMSIS-master/NMSIS-master/NMSIS/Library/DSP/GCC/libnmsis_dsp_rv32imfcp.a(riscv_cfft_init_q15.c.o)
 .comment       0x0000000000000000       0x13 /cygdrive/C/Users/SwaminathanK/Desktop/Thesis/DSP Library/NMSIS-master/NMSIS-master/NMSIS/Library/DSP/GCC/libnmsis_dsp_rv32imfcp.a(riscv_cfft_init_q15.c.o)
 .debug_frame   0x0000000000000000       0xb0 /cygdrive/C/Users/SwaminathanK/Desktop/Thesis/DSP Library/NMSIS-master/NMSIS-master/NMSIS/Library/DSP/GCC/libnmsis_dsp_rv32imfcp.a(riscv_cfft_init_q15.c.o)
 .riscv.attributes
                0x0000000000000000       0x32 /cygdrive/C/Users/SwaminathanK/Desktop/Thesis/DSP Library/NMSIS-master/NMSIS-master/NMSIS/Library/DSP/GCC/libnmsis_dsp_rv32imfcp.a(riscv_cfft_init_q15.c.o)
 .text          0x0000000000000000        0x0 /cygdrive/C/Users/SwaminathanK/Desktop/Thesis/DSP Library/NMSIS-master/NMSIS-master/NMSIS/Library/DSP/GCC/libnmsis_dsp_rv32imfcp.a(riscv_bitreversal2.c.o)
 .data          0x0000000000000000        0x0 /cygdrive/C/Users/SwaminathanK/Desktop/Thesis/DSP Library/NMSIS-master/NMSIS-master/NMSIS/Library/DSP/GCC/libnmsis_dsp_rv32imfcp.a(riscv_bitreversal2.c.o)
 .bss           0x0000000000000000        0x0 /cygdrive/C/Users/SwaminathanK/Desktop/Thesis/DSP Library/NMSIS-master/NMSIS-master/NMSIS/Library/DSP/GCC/libnmsis_dsp_rv32imfcp.a(riscv_bitreversal2.c.o)
 .text.riscv_bitreversal_64
                0x0000000000000000       0x7e /cygdrive/C/Users/SwaminathanK/Desktop/Thesis/DSP Library/NMSIS-master/NMSIS-master/NMSIS/Library/DSP/GCC/libnmsis_dsp_rv32imfcp.a(riscv_bitreversal2.c.o)
 .text.riscv_bitreversal_16
                0x0000000000000000       0x5e /cygdrive/C/Users/SwaminathanK/Desktop/Thesis/DSP Library/NMSIS-master/NMSIS-master/NMSIS/Library/DSP/GCC/libnmsis_dsp_rv32imfcp.a(riscv_bitreversal2.c.o)
 .text          0x0000000000000000        0x0 /cygdrive/C/Users/SwaminathanK/Desktop/Thesis/DSP Library/NMSIS-master/NMSIS-master/NMSIS/Library/DSP/GCC/libnmsis_dsp_rv32imfcp.a(riscv_cfft_f32.c.o)
 .data          0x0000000000000000        0x0 /cygdrive/C/Users/SwaminathanK/Desktop/Thesis/DSP Library/NMSIS-master/NMSIS-master/NMSIS/Library/DSP/GCC/libnmsis_dsp_rv32imfcp.a(riscv_cfft_f32.c.o)
 .bss           0x0000000000000000        0x0 /cygdrive/C/Users/SwaminathanK/Desktop/Thesis/DSP Library/NMSIS-master/NMSIS-master/NMSIS/Library/DSP/GCC/libnmsis_dsp_rv32imfcp.a(riscv_cfft_f32.c.o)
 .text          0x0000000000000000        0x0 /cygdrive/C/Users/SwaminathanK/Desktop/Thesis/DSP Library/NMSIS-master/NMSIS-master/NMSIS/Library/DSP/GCC/libnmsis_dsp_rv32imfcp.a(riscv_const_structs.c.o)
 .data          0x0000000000000000        0x0 /cygdrive/C/Users/SwaminathanK/Desktop/Thesis/DSP Library/NMSIS-master/NMSIS-master/NMSIS/Library/DSP/GCC/libnmsis_dsp_rv32imfcp.a(riscv_const_structs.c.o)
 .bss           0x0000000000000000        0x0 /cygdrive/C/Users/SwaminathanK/Desktop/Thesis/DSP Library/NMSIS-master/NMSIS-master/NMSIS/Library/DSP/GCC/libnmsis_dsp_rv32imfcp.a(riscv_const_structs.c.o)
 .rodata.riscv_rfft_sR_q15_len8192
                0x0000000000000000       0x18 /cygdrive/C/Users/SwaminathanK/Desktop/Thesis/DSP Library/NMSIS-master/NMSIS-master/NMSIS/Library/DSP/GCC/libnmsis_dsp_rv32imfcp.a(riscv_const_structs.c.o)
 .rodata.riscv_rfft_sR_q15_len4096
                0x0000000000000000       0x18 /cygdrive/C/Users/SwaminathanK/Desktop/Thesis/DSP Library/NMSIS-master/NMSIS-master/NMSIS/Library/DSP/GCC/libnmsis_dsp_rv32imfcp.a(riscv_const_structs.c.o)
 .rodata.riscv_rfft_sR_q15_len2048
                0x0000000000000000       0x18 /cygdrive/C/Users/SwaminathanK/Desktop/Thesis/DSP Library/NMSIS-master/NMSIS-master/NMSIS/Library/DSP/GCC/libnmsis_dsp_rv32imfcp.a(riscv_const_structs.c.o)
 .rodata.riscv_rfft_sR_q15_len1024
                0x0000000000000000       0x18 /cygdrive/C/Users/SwaminathanK/Desktop/Thesis/DSP Library/NMSIS-master/NMSIS-master/NMSIS/Library/DSP/GCC/libnmsis_dsp_rv32imfcp.a(riscv_const_structs.c.o)
 .rodata.riscv_rfft_sR_q15_len512
                0x0000000000000000       0x18 /cygdrive/C/Users/SwaminathanK/Desktop/Thesis/DSP Library/NMSIS-master/NMSIS-master/NMSIS/Library/DSP/GCC/libnmsis_dsp_rv32imfcp.a(riscv_const_structs.c.o)
 .rodata.riscv_rfft_sR_q15_len256
                0x0000000000000000       0x18 /cygdrive/C/Users/SwaminathanK/Desktop/Thesis/DSP Library/NMSIS-master/NMSIS-master/NMSIS/Library/DSP/GCC/libnmsis_dsp_rv32imfcp.a(riscv_const_structs.c.o)
 .rodata.riscv_rfft_sR_q15_len128
                0x0000000000000000       0x18 /cygdrive/C/Users/SwaminathanK/Desktop/Thesis/DSP Library/NMSIS-master/NMSIS-master/NMSIS/Library/DSP/GCC/libnmsis_dsp_rv32imfcp.a(riscv_const_structs.c.o)
 .rodata.riscv_rfft_sR_q15_len64
                0x0000000000000000       0x18 /cygdrive/C/Users/SwaminathanK/Desktop/Thesis/DSP Library/NMSIS-master/NMSIS-master/NMSIS/Library/DSP/GCC/libnmsis_dsp_rv32imfcp.a(riscv_const_structs.c.o)
 .rodata.riscv_rfft_sR_q15_len32
                0x0000000000000000       0x18 /cygdrive/C/Users/SwaminathanK/Desktop/Thesis/DSP Library/NMSIS-master/NMSIS-master/NMSIS/Library/DSP/GCC/libnmsis_dsp_rv32imfcp.a(riscv_const_structs.c.o)
 .rodata.riscv_rfft_sR_q31_len8192
                0x0000000000000000       0x18 /cygdrive/C/Users/SwaminathanK/Desktop/Thesis/DSP Library/NMSIS-master/NMSIS-master/NMSIS/Library/DSP/GCC/libnmsis_dsp_rv32imfcp.a(riscv_const_structs.c.o)
 .rodata.riscv_rfft_sR_q31_len4096
                0x0000000000000000       0x18 /cygdrive/C/Users/SwaminathanK/Desktop/Thesis/DSP Library/NMSIS-master/NMSIS-master/NMSIS/Library/DSP/GCC/libnmsis_dsp_rv32imfcp.a(riscv_const_structs.c.o)
 .rodata.riscv_rfft_sR_q31_len2048
                0x0000000000000000       0x18 /cygdrive/C/Users/SwaminathanK/Desktop/Thesis/DSP Library/NMSIS-master/NMSIS-master/NMSIS/Library/DSP/GCC/libnmsis_dsp_rv32imfcp.a(riscv_const_structs.c.o)
 .rodata.riscv_rfft_sR_q31_len1024
                0x0000000000000000       0x18 /cygdrive/C/Users/SwaminathanK/Desktop/Thesis/DSP Library/NMSIS-master/NMSIS-master/NMSIS/Library/DSP/GCC/libnmsis_dsp_rv32imfcp.a(riscv_const_structs.c.o)
 .rodata.riscv_rfft_sR_q31_len512
                0x0000000000000000       0x18 /cygdrive/C/Users/SwaminathanK/Desktop/Thesis/DSP Library/NMSIS-master/NMSIS-master/NMSIS/Library/DSP/GCC/libnmsis_dsp_rv32imfcp.a(riscv_const_structs.c.o)
 .rodata.riscv_rfft_sR_q31_len256
                0x0000000000000000       0x18 /cygdrive/C/Users/SwaminathanK/Desktop/Thesis/DSP Library/NMSIS-master/NMSIS-master/NMSIS/Library/DSP/GCC/libnmsis_dsp_rv32imfcp.a(riscv_const_structs.c.o)
 .rodata.riscv_rfft_sR_q31_len128
                0x0000000000000000       0x18 /cygdrive/C/Users/SwaminathanK/Desktop/Thesis/DSP Library/NMSIS-master/NMSIS-master/NMSIS/Library/DSP/GCC/libnmsis_dsp_rv32imfcp.a(riscv_const_structs.c.o)
 .rodata.riscv_rfft_sR_q31_len64
                0x0000000000000000       0x18 /cygdrive/C/Users/SwaminathanK/Desktop/Thesis/DSP Library/NMSIS-master/NMSIS-master/NMSIS/Library/DSP/GCC/libnmsis_dsp_rv32imfcp.a(riscv_const_structs.c.o)
 .rodata.riscv_rfft_sR_q31_len32
                0x0000000000000000       0x18 /cygdrive/C/Users/SwaminathanK/Desktop/Thesis/DSP Library/NMSIS-master/NMSIS-master/NMSIS/Library/DSP/GCC/libnmsis_dsp_rv32imfcp.a(riscv_const_structs.c.o)
 .rodata.riscv_rfft_fast_sR_f32_len4096
                0x0000000000000000       0x18 /cygdrive/C/Users/SwaminathanK/Desktop/Thesis/DSP Library/NMSIS-master/NMSIS-master/NMSIS/Library/DSP/GCC/libnmsis_dsp_rv32imfcp.a(riscv_const_structs.c.o)
 .rodata.riscv_rfft_fast_sR_f32_len2048
                0x0000000000000000       0x18 /cygdrive/C/Users/SwaminathanK/Desktop/Thesis/DSP Library/NMSIS-master/NMSIS-master/NMSIS/Library/DSP/GCC/libnmsis_dsp_rv32imfcp.a(riscv_const_structs.c.o)
 .rodata.riscv_rfft_fast_sR_f32_len1024
                0x0000000000000000       0x18 /cygdrive/C/Users/SwaminathanK/Desktop/Thesis/DSP Library/NMSIS-master/NMSIS-master/NMSIS/Library/DSP/GCC/libnmsis_dsp_rv32imfcp.a(riscv_const_structs.c.o)
 .rodata.riscv_rfft_fast_sR_f32_len512
                0x0000000000000000       0x18 /cygdrive/C/Users/SwaminathanK/Desktop/Thesis/DSP Library/NMSIS-master/NMSIS-master/NMSIS/Library/DSP/GCC/libnmsis_dsp_rv32imfcp.a(riscv_const_structs.c.o)
 .rodata.riscv_rfft_fast_sR_f32_len256
                0x0000000000000000       0x18 /cygdrive/C/Users/SwaminathanK/Desktop/Thesis/DSP Library/NMSIS-master/NMSIS-master/NMSIS/Library/DSP/GCC/libnmsis_dsp_rv32imfcp.a(riscv_const_structs.c.o)
 .rodata.riscv_rfft_fast_sR_f32_len128
                0x0000000000000000       0x18 /cygdrive/C/Users/SwaminathanK/Desktop/Thesis/DSP Library/NMSIS-master/NMSIS-master/NMSIS/Library/DSP/GCC/libnmsis_dsp_rv32imfcp.a(riscv_const_structs.c.o)
 .rodata.riscv_rfft_fast_sR_f32_len64
                0x0000000000000000       0x18 /cygdrive/C/Users/SwaminathanK/Desktop/Thesis/DSP Library/NMSIS-master/NMSIS-master/NMSIS/Library/DSP/GCC/libnmsis_dsp_rv32imfcp.a(riscv_const_structs.c.o)
 .rodata.riscv_rfft_fast_sR_f32_len32
                0x0000000000000000       0x18 /cygdrive/C/Users/SwaminathanK/Desktop/Thesis/DSP Library/NMSIS-master/NMSIS-master/NMSIS/Library/DSP/GCC/libnmsis_dsp_rv32imfcp.a(riscv_const_structs.c.o)
 .rodata.riscv_rfft_fast_sR_f64_len4096
                0x0000000000000000       0x18 /cygdrive/C/Users/SwaminathanK/Desktop/Thesis/DSP Library/NMSIS-master/NMSIS-master/NMSIS/Library/DSP/GCC/libnmsis_dsp_rv32imfcp.a(riscv_const_structs.c.o)
 .rodata.riscv_rfft_fast_sR_f64_len2048
                0x0000000000000000       0x18 /cygdrive/C/Users/SwaminathanK/Desktop/Thesis/DSP Library/NMSIS-master/NMSIS-master/NMSIS/Library/DSP/GCC/libnmsis_dsp_rv32imfcp.a(riscv_const_structs.c.o)
 .rodata.riscv_rfft_fast_sR_f64_len1024
                0x0000000000000000       0x18 /cygdrive/C/Users/SwaminathanK/Desktop/Thesis/DSP Library/NMSIS-master/NMSIS-master/NMSIS/Library/DSP/GCC/libnmsis_dsp_rv32imfcp.a(riscv_const_structs.c.o)
 .rodata.riscv_rfft_fast_sR_f64_len512
                0x0000000000000000       0x18 /cygdrive/C/Users/SwaminathanK/Desktop/Thesis/DSP Library/NMSIS-master/NMSIS-master/NMSIS/Library/DSP/GCC/libnmsis_dsp_rv32imfcp.a(riscv_const_structs.c.o)
 .rodata.riscv_rfft_fast_sR_f64_len256
                0x0000000000000000       0x18 /cygdrive/C/Users/SwaminathanK/Desktop/Thesis/DSP Library/NMSIS-master/NMSIS-master/NMSIS/Library/DSP/GCC/libnmsis_dsp_rv32imfcp.a(riscv_const_structs.c.o)
 .rodata.riscv_rfft_fast_sR_f64_len128
                0x0000000000000000       0x18 /cygdrive/C/Users/SwaminathanK/Desktop/Thesis/DSP Library/NMSIS-master/NMSIS-master/NMSIS/Library/DSP/GCC/libnmsis_dsp_rv32imfcp.a(riscv_const_structs.c.o)
 .rodata.riscv_rfft_fast_sR_f64_len64
                0x0000000000000000       0x18 /cygdrive/C/Users/SwaminathanK/Desktop/Thesis/DSP Library/NMSIS-master/NMSIS-master/NMSIS/Library/DSP/GCC/libnmsis_dsp_rv32imfcp.a(riscv_const_structs.c.o)
 .rodata.riscv_rfft_fast_sR_f64_len32
                0x0000000000000000       0x18 /cygdrive/C/Users/SwaminathanK/Desktop/Thesis/DSP Library/NMSIS-master/NMSIS-master/NMSIS/Library/DSP/GCC/libnmsis_dsp_rv32imfcp.a(riscv_const_structs.c.o)
 .rodata.riscv_cfft_sR_q15_len4096
                0x0000000000000000       0x10 /cygdrive/C/Users/SwaminathanK/Desktop/Thesis/DSP Library/NMSIS-master/NMSIS-master/NMSIS/Library/DSP/GCC/libnmsis_dsp_rv32imfcp.a(riscv_const_structs.c.o)
 .rodata.riscv_cfft_sR_q15_len2048
                0x0000000000000000       0x10 /cygdrive/C/Users/SwaminathanK/Desktop/Thesis/DSP Library/NMSIS-master/NMSIS-master/NMSIS/Library/DSP/GCC/libnmsis_dsp_rv32imfcp.a(riscv_const_structs.c.o)
 .rodata.riscv_cfft_sR_q15_len1024
                0x0000000000000000       0x10 /cygdrive/C/Users/SwaminathanK/Desktop/Thesis/DSP Library/NMSIS-master/NMSIS-master/NMSIS/Library/DSP/GCC/libnmsis_dsp_rv32imfcp.a(riscv_const_structs.c.o)
 .rodata.riscv_cfft_sR_q15_len512
                0x0000000000000000       0x10 /cygdrive/C/Users/SwaminathanK/Desktop/Thesis/DSP Library/NMSIS-master/NMSIS-master/NMSIS/Library/DSP/GCC/libnmsis_dsp_rv32imfcp.a(riscv_const_structs.c.o)
 .rodata.riscv_cfft_sR_q15_len256
                0x0000000000000000       0x10 /cygdrive/C/Users/SwaminathanK/Desktop/Thesis/DSP Library/NMSIS-master/NMSIS-master/NMSIS/Library/DSP/GCC/libnmsis_dsp_rv32imfcp.a(riscv_const_structs.c.o)
 .rodata.riscv_cfft_sR_q15_len128
                0x0000000000000000       0x10 /cygdrive/C/Users/SwaminathanK/Desktop/Thesis/DSP Library/NMSIS-master/NMSIS-master/NMSIS/Library/DSP/GCC/libnmsis_dsp_rv32imfcp.a(riscv_const_structs.c.o)
 .rodata.riscv_cfft_sR_q15_len64
                0x0000000000000000       0x10 /cygdrive/C/Users/SwaminathanK/Desktop/Thesis/DSP Library/NMSIS-master/NMSIS-master/NMSIS/Library/DSP/GCC/libnmsis_dsp_rv32imfcp.a(riscv_const_structs.c.o)
 .rodata.riscv_cfft_sR_q15_len32
                0x0000000000000000       0x10 /cygdrive/C/Users/SwaminathanK/Desktop/Thesis/DSP Library/NMSIS-master/NMSIS-master/NMSIS/Library/DSP/GCC/libnmsis_dsp_rv32imfcp.a(riscv_const_structs.c.o)
 .rodata.riscv_cfft_sR_q15_len16
                0x0000000000000000       0x10 /cygdrive/C/Users/SwaminathanK/Desktop/Thesis/DSP Library/NMSIS-master/NMSIS-master/NMSIS/Library/DSP/GCC/libnmsis_dsp_rv32imfcp.a(riscv_const_structs.c.o)
 .rodata.riscv_cfft_sR_q31_len4096
                0x0000000000000000       0x10 /cygdrive/C/Users/SwaminathanK/Desktop/Thesis/DSP Library/NMSIS-master/NMSIS-master/NMSIS/Library/DSP/GCC/libnmsis_dsp_rv32imfcp.a(riscv_const_structs.c.o)
 .rodata.riscv_cfft_sR_q31_len2048
                0x0000000000000000       0x10 /cygdrive/C/Users/SwaminathanK/Desktop/Thesis/DSP Library/NMSIS-master/NMSIS-master/NMSIS/Library/DSP/GCC/libnmsis_dsp_rv32imfcp.a(riscv_const_structs.c.o)
 .rodata.riscv_cfft_sR_q31_len1024
                0x0000000000000000       0x10 /cygdrive/C/Users/SwaminathanK/Desktop/Thesis/DSP Library/NMSIS-master/NMSIS-master/NMSIS/Library/DSP/GCC/libnmsis_dsp_rv32imfcp.a(riscv_const_structs.c.o)
 .rodata.riscv_cfft_sR_q31_len512
                0x0000000000000000       0x10 /cygdrive/C/Users/SwaminathanK/Desktop/Thesis/DSP Library/NMSIS-master/NMSIS-master/NMSIS/Library/DSP/GCC/libnmsis_dsp_rv32imfcp.a(riscv_const_structs.c.o)
 .rodata.riscv_cfft_sR_q31_len256
                0x0000000000000000       0x10 /cygdrive/C/Users/SwaminathanK/Desktop/Thesis/DSP Library/NMSIS-master/NMSIS-master/NMSIS/Library/DSP/GCC/libnmsis_dsp_rv32imfcp.a(riscv_const_structs.c.o)
 .rodata.riscv_cfft_sR_q31_len128
                0x0000000000000000       0x10 /cygdrive/C/Users/SwaminathanK/Desktop/Thesis/DSP Library/NMSIS-master/NMSIS-master/NMSIS/Library/DSP/GCC/libnmsis_dsp_rv32imfcp.a(riscv_const_structs.c.o)
 .rodata.riscv_cfft_sR_q31_len64
                0x0000000000000000       0x10 /cygdrive/C/Users/SwaminathanK/Desktop/Thesis/DSP Library/NMSIS-master/NMSIS-master/NMSIS/Library/DSP/GCC/libnmsis_dsp_rv32imfcp.a(riscv_const_structs.c.o)
 .rodata.riscv_cfft_sR_q31_len32
                0x0000000000000000       0x10 /cygdrive/C/Users/SwaminathanK/Desktop/Thesis/DSP Library/NMSIS-master/NMSIS-master/NMSIS/Library/DSP/GCC/libnmsis_dsp_rv32imfcp.a(riscv_const_structs.c.o)
 .rodata.riscv_cfft_sR_q31_len16
                0x0000000000000000       0x10 /cygdrive/C/Users/SwaminathanK/Desktop/Thesis/DSP Library/NMSIS-master/NMSIS-master/NMSIS/Library/DSP/GCC/libnmsis_dsp_rv32imfcp.a(riscv_const_structs.c.o)
 .rodata.riscv_cfft_sR_f64_len4096
                0x0000000000000000       0x10 /cygdrive/C/Users/SwaminathanK/Desktop/Thesis/DSP Library/NMSIS-master/NMSIS-master/NMSIS/Library/DSP/GCC/libnmsis_dsp_rv32imfcp.a(riscv_const_structs.c.o)
 .rodata.riscv_cfft_sR_f64_len2048
                0x0000000000000000       0x10 /cygdrive/C/Users/SwaminathanK/Desktop/Thesis/DSP Library/NMSIS-master/NMSIS-master/NMSIS/Library/DSP/GCC/libnmsis_dsp_rv32imfcp.a(riscv_const_structs.c.o)
 .rodata.riscv_cfft_sR_f64_len1024
                0x0000000000000000       0x10 /cygdrive/C/Users/SwaminathanK/Desktop/Thesis/DSP Library/NMSIS-master/NMSIS-master/NMSIS/Library/DSP/GCC/libnmsis_dsp_rv32imfcp.a(riscv_const_structs.c.o)
 .rodata.riscv_cfft_sR_f64_len512
                0x0000000000000000       0x10 /cygdrive/C/Users/SwaminathanK/Desktop/Thesis/DSP Library/NMSIS-master/NMSIS-master/NMSIS/Library/DSP/GCC/libnmsis_dsp_rv32imfcp.a(riscv_const_structs.c.o)
 .rodata.riscv_cfft_sR_f64_len256
                0x0000000000000000       0x10 /cygdrive/C/Users/SwaminathanK/Desktop/Thesis/DSP Library/NMSIS-master/NMSIS-master/NMSIS/Library/DSP/GCC/libnmsis_dsp_rv32imfcp.a(riscv_const_structs.c.o)
 .rodata.riscv_cfft_sR_f64_len128
                0x0000000000000000       0x10 /cygdrive/C/Users/SwaminathanK/Desktop/Thesis/DSP Library/NMSIS-master/NMSIS-master/NMSIS/Library/DSP/GCC/libnmsis_dsp_rv32imfcp.a(riscv_const_structs.c.o)
 .rodata.riscv_cfft_sR_f64_len64
                0x0000000000000000       0x10 /cygdrive/C/Users/SwaminathanK/Desktop/Thesis/DSP Library/NMSIS-master/NMSIS-master/NMSIS/Library/DSP/GCC/libnmsis_dsp_rv32imfcp.a(riscv_const_structs.c.o)
 .rodata.riscv_cfft_sR_f64_len32
                0x0000000000000000       0x10 /cygdrive/C/Users/SwaminathanK/Desktop/Thesis/DSP Library/NMSIS-master/NMSIS-master/NMSIS/Library/DSP/GCC/libnmsis_dsp_rv32imfcp.a(riscv_const_structs.c.o)
 .rodata.riscv_cfft_sR_f64_len16
                0x0000000000000000       0x10 /cygdrive/C/Users/SwaminathanK/Desktop/Thesis/DSP Library/NMSIS-master/NMSIS-master/NMSIS/Library/DSP/GCC/libnmsis_dsp_rv32imfcp.a(riscv_const_structs.c.o)
 .text          0x0000000000000000        0x0 /cygdrive/C/Users/SwaminathanK/Desktop/Thesis/DSP Library/NMSIS-master/NMSIS-master/NMSIS/Library/DSP/GCC/libnmsis_dsp_rv32imfcp.a(riscv_cfft_radix8_f32.c.o)
 .data          0x0000000000000000        0x0 /cygdrive/C/Users/SwaminathanK/Desktop/Thesis/DSP Library/NMSIS-master/NMSIS-master/NMSIS/Library/DSP/GCC/libnmsis_dsp_rv32imfcp.a(riscv_cfft_radix8_f32.c.o)
 .bss           0x0000000000000000        0x0 /cygdrive/C/Users/SwaminathanK/Desktop/Thesis/DSP Library/NMSIS-master/NMSIS-master/NMSIS/Library/DSP/GCC/libnmsis_dsp_rv32imfcp.a(riscv_cfft_radix8_f32.c.o)
 .text          0x0000000000000000        0x0 /cygdrive/c/Users/SwaminathanK/Downloads/Telink_IDE/toolchains/nds32le-elf-mculib-v5f/bin/../lib/gcc/riscv32-elf/7.4.0/../../../../riscv32-elf/lib/mext-dsp/libm.a(lib_a-sinf.o)
 .data          0x0000000000000000        0x0 /cygdrive/c/Users/SwaminathanK/Downloads/Telink_IDE/toolchains/nds32le-elf-mculib-v5f/bin/../lib/gcc/riscv32-elf/7.4.0/../../../../riscv32-elf/lib/mext-dsp/libm.a(lib_a-sinf.o)
 .bss           0x0000000000000000        0x0 /cygdrive/c/Users/SwaminathanK/Downloads/Telink_IDE/toolchains/nds32le-elf-mculib-v5f/bin/../lib/gcc/riscv32-elf/7.4.0/../../../../riscv32-elf/lib/mext-dsp/libm.a(lib_a-sinf.o)
 .text          0x0000000000000000        0x0 /cygdrive/c/Users/SwaminathanK/Downloads/Telink_IDE/toolchains/nds32le-elf-mculib-v5f/bin/../lib/gcc/riscv32-elf/7.4.0/../../../../riscv32-elf/lib/mext-dsp/libm.a(lib_a-wf_sqrt.o)
 .data          0x0000000000000000        0x0 /cygdrive/c/Users/SwaminathanK/Downloads/Telink_IDE/toolchains/nds32le-elf-mculib-v5f/bin/../lib/gcc/riscv32-elf/7.4.0/../../../../riscv32-elf/lib/mext-dsp/libm.a(lib_a-wf_sqrt.o)
 .bss           0x0000000000000000        0x0 /cygdrive/c/Users/SwaminathanK/Downloads/Telink_IDE/toolchains/nds32le-elf-mculib-v5f/bin/../lib/gcc/riscv32-elf/7.4.0/../../../../riscv32-elf/lib/mext-dsp/libm.a(lib_a-wf_sqrt.o)
 .text.sqrtf    0x0000000000000000       0xd8 /cygdrive/c/Users/SwaminathanK/Downloads/Telink_IDE/toolchains/nds32le-elf-mculib-v5f/bin/../lib/gcc/riscv32-elf/7.4.0/../../../../riscv32-elf/lib/mext-dsp/libm.a(lib_a-wf_sqrt.o)
 .rodata.sqrtf.str1.4
                0x0000000000000000        0x6 /cygdrive/c/Users/SwaminathanK/Downloads/Telink_IDE/toolchains/nds32le-elf-mculib-v5f/bin/../lib/gcc/riscv32-elf/7.4.0/../../../../riscv32-elf/lib/mext-dsp/libm.a(lib_a-wf_sqrt.o)
 .comment       0x0000000000000000       0x38 /cygdrive/c/Users/SwaminathanK/Downloads/Telink_IDE/toolchains/nds32le-elf-mculib-v5f/bin/../lib/gcc/riscv32-elf/7.4.0/../../../../riscv32-elf/lib/mext-dsp/libm.a(lib_a-wf_sqrt.o)
 .riscv.attributes
                0x0000000000000000       0x3b /cygdrive/c/Users/SwaminathanK/Downloads/Telink_IDE/toolchains/nds32le-elf-mculib-v5f/bin/../lib/gcc/riscv32-elf/7.4.0/../../../../riscv32-elf/lib/mext-dsp/libm.a(lib_a-wf_sqrt.o)
 .text          0x0000000000000000        0x0 /cygdrive/c/Users/SwaminathanK/Downloads/Telink_IDE/toolchains/nds32le-elf-mculib-v5f/bin/../lib/gcc/riscv32-elf/7.4.0/../../../../riscv32-elf/lib/mext-dsp/libm.a(lib_a-ef_sqrt.o)
 .data          0x0000000000000000        0x0 /cygdrive/c/Users/SwaminathanK/Downloads/Telink_IDE/toolchains/nds32le-elf-mculib-v5f/bin/../lib/gcc/riscv32-elf/7.4.0/../../../../riscv32-elf/lib/mext-dsp/libm.a(lib_a-ef_sqrt.o)
 .bss           0x0000000000000000        0x0 /cygdrive/c/Users/SwaminathanK/Downloads/Telink_IDE/toolchains/nds32le-elf-mculib-v5f/bin/../lib/gcc/riscv32-elf/7.4.0/../../../../riscv32-elf/lib/mext-dsp/libm.a(lib_a-ef_sqrt.o)
 .text.__ieee754_sqrtf
                0x0000000000000000       0xd8 /cygdrive/c/Users/SwaminathanK/Downloads/Telink_IDE/toolchains/nds32le-elf-mculib-v5f/bin/../lib/gcc/riscv32-elf/7.4.0/../../../../riscv32-elf/lib/mext-dsp/libm.a(lib_a-ef_sqrt.o)
 .comment       0x0000000000000000       0x38 /cygdrive/c/Users/SwaminathanK/Downloads/Telink_IDE/toolchains/nds32le-elf-mculib-v5f/bin/../lib/gcc/riscv32-elf/7.4.0/../../../../riscv32-elf/lib/mext-dsp/libm.a(lib_a-ef_sqrt.o)
 .riscv.attributes
                0x0000000000000000       0x3b /cygdrive/c/Users/SwaminathanK/Downloads/Telink_IDE/toolchains/nds32le-elf-mculib-v5f/bin/../lib/gcc/riscv32-elf/7.4.0/../../../../riscv32-elf/lib/mext-dsp/libm.a(lib_a-ef_sqrt.o)
 .text          0x0000000000000000        0x0 /cygdrive/c/Users/SwaminathanK/Downloads/Telink_IDE/toolchains/nds32le-elf-mculib-v5f/bin/../lib/gcc/riscv32-elf/7.4.0/../../../../riscv32-elf/lib/mext-dsp/libm.a(lib_a-ref_rredf.o)
 .data          0x0000000000000000        0x0 /cygdrive/c/Users/SwaminathanK/Downloads/Telink_IDE/toolchains/nds32le-elf-mculib-v5f/bin/../lib/gcc/riscv32-elf/7.4.0/../../../../riscv32-elf/lib/mext-dsp/libm.a(lib_a-ref_rredf.o)
 .bss           0x0000000000000000        0x0 /cygdrive/c/Users/SwaminathanK/Downloads/Telink_IDE/toolchains/nds32le-elf-mculib-v5f/bin/../lib/gcc/riscv32-elf/7.4.0/../../../../riscv32-elf/lib/mext-dsp/libm.a(lib_a-ref_rredf.o)
 .text          0x0000000000000000        0x0 /cygdrive/c/Users/SwaminathanK/Downloads/Telink_IDE/toolchains/nds32le-elf-mculib-v5f/bin/../lib/gcc/riscv32-elf/7.4.0/../../../../riscv32-elf/lib/mext-dsp/libm.a(lib_a-s_lib_ver.o)
 .data          0x0000000000000000        0x0 /cygdrive/c/Users/SwaminathanK/Downloads/Telink_IDE/toolchains/nds32le-elf-mculib-v5f/bin/../lib/gcc/riscv32-elf/7.4.0/../../../../riscv32-elf/lib/mext-dsp/libm.a(lib_a-s_lib_ver.o)
 .bss           0x0000000000000000        0x0 /cygdrive/c/Users/SwaminathanK/Downloads/Telink_IDE/toolchains/nds32le-elf-mculib-v5f/bin/../lib/gcc/riscv32-elf/7.4.0/../../../../riscv32-elf/lib/mext-dsp/libm.a(lib_a-s_lib_ver.o)
 .sdata.__fdlib_version
                0x0000000000000000        0x4 /cygdrive/c/Users/SwaminathanK/Downloads/Telink_IDE/toolchains/nds32le-elf-mculib-v5f/bin/../lib/gcc/riscv32-elf/7.4.0/../../../../riscv32-elf/lib/mext-dsp/libm.a(lib_a-s_lib_ver.o)
 .comment       0x0000000000000000       0x38 /cygdrive/c/Users/SwaminathanK/Downloads/Telink_IDE/toolchains/nds32le-elf-mculib-v5f/bin/../lib/gcc/riscv32-elf/7.4.0/../../../../riscv32-elf/lib/mext-dsp/libm.a(lib_a-s_lib_ver.o)
 .riscv.attributes
                0x0000000000000000       0x3b /cygdrive/c/Users/SwaminathanK/Downloads/Telink_IDE/toolchains/nds32le-elf-mculib-v5f/bin/../lib/gcc/riscv32-elf/7.4.0/../../../../riscv32-elf/lib/mext-dsp/libm.a(lib_a-s_lib_ver.o)
 .text          0x0000000000000000        0x0 /cygdrive/c/Users/SwaminathanK/Downloads/Telink_IDE/toolchains/nds32le-elf-mculib-v5f/bin/../lib/gcc/riscv32-elf/7.4.0/../../../../riscv32-elf/lib/mext-dsp/libm.a(lib_a-s_matherr.o)
 .data          0x0000000000000000        0x0 /cygdrive/c/Users/SwaminathanK/Downloads/Telink_IDE/toolchains/nds32le-elf-mculib-v5f/bin/../lib/gcc/riscv32-elf/7.4.0/../../../../riscv32-elf/lib/mext-dsp/libm.a(lib_a-s_matherr.o)
 .bss           0x0000000000000000        0x0 /cygdrive/c/Users/SwaminathanK/Downloads/Telink_IDE/toolchains/nds32le-elf-mculib-v5f/bin/../lib/gcc/riscv32-elf/7.4.0/../../../../riscv32-elf/lib/mext-dsp/libm.a(lib_a-s_matherr.o)
 .text.matherr  0x0000000000000000        0x4 /cygdrive/c/Users/SwaminathanK/Downloads/Telink_IDE/toolchains/nds32le-elf-mculib-v5f/bin/../lib/gcc/riscv32-elf/7.4.0/../../../../riscv32-elf/lib/mext-dsp/libm.a(lib_a-s_matherr.o)
 .comment       0x0000000000000000       0x38 /cygdrive/c/Users/SwaminathanK/Downloads/Telink_IDE/toolchains/nds32le-elf-mculib-v5f/bin/../lib/gcc/riscv32-elf/7.4.0/../../../../riscv32-elf/lib/mext-dsp/libm.a(lib_a-s_matherr.o)
 .riscv.attributes
                0x0000000000000000       0x3b /cygdrive/c/Users/SwaminathanK/Downloads/Telink_IDE/toolchains/nds32le-elf-mculib-v5f/bin/../lib/gcc/riscv32-elf/7.4.0/../../../../riscv32-elf/lib/mext-dsp/libm.a(lib_a-s_matherr.o)
 .text          0x0000000000000000      0x868 /cygdrive/c/Users/SwaminathanK/Downloads/Telink_IDE/toolchains/nds32le-elf-mculib-v5f/bin/../lib/gcc/riscv32-elf/7.4.0/mext-dsp/libgcc.a(divdf3.o)
 .data          0x0000000000000000        0x0 /cygdrive/c/Users/SwaminathanK/Downloads/Telink_IDE/toolchains/nds32le-elf-mculib-v5f/bin/../lib/gcc/riscv32-elf/7.4.0/mext-dsp/libgcc.a(divdf3.o)
 .bss           0x0000000000000000        0x0 /cygdrive/c/Users/SwaminathanK/Downloads/Telink_IDE/toolchains/nds32le-elf-mculib-v5f/bin/../lib/gcc/riscv32-elf/7.4.0/mext-dsp/libgcc.a(divdf3.o)
 .rodata        0x0000000000000000       0x40 /cygdrive/c/Users/SwaminathanK/Downloads/Telink_IDE/toolchains/nds32le-elf-mculib-v5f/bin/../lib/gcc/riscv32-elf/7.4.0/mext-dsp/libgcc.a(divdf3.o)
 .debug_info    0x0000000000000000      0x733 /cygdrive/c/Users/SwaminathanK/Downloads/Telink_IDE/toolchains/nds32le-elf-mculib-v5f/bin/../lib/gcc/riscv32-elf/7.4.0/mext-dsp/libgcc.a(divdf3.o)
 .debug_abbrev  0x0000000000000000      0x170 /cygdrive/c/Users/SwaminathanK/Downloads/Telink_IDE/toolchains/nds32le-elf-mculib-v5f/bin/../lib/gcc/riscv32-elf/7.4.0/mext-dsp/libgcc.a(divdf3.o)
 .debug_loc     0x0000000000000000     0x295b /cygdrive/c/Users/SwaminathanK/Downloads/Telink_IDE/toolchains/nds32le-elf-mculib-v5f/bin/../lib/gcc/riscv32-elf/7.4.0/mext-dsp/libgcc.a(divdf3.o)
 .debug_aranges
                0x0000000000000000       0x20 /cygdrive/c/Users/SwaminathanK/Downloads/Telink_IDE/toolchains/nds32le-elf-mculib-v5f/bin/../lib/gcc/riscv32-elf/7.4.0/mext-dsp/libgcc.a(divdf3.o)
 .debug_ranges  0x0000000000000000      0x250 /cygdrive/c/Users/SwaminathanK/Downloads/Telink_IDE/toolchains/nds32le-elf-mculib-v5f/bin/../lib/gcc/riscv32-elf/7.4.0/mext-dsp/libgcc.a(divdf3.o)
 .debug_line    0x0000000000000000      0x745 /cygdrive/c/Users/SwaminathanK/Downloads/Telink_IDE/toolchains/nds32le-elf-mculib-v5f/bin/../lib/gcc/riscv32-elf/7.4.0/mext-dsp/libgcc.a(divdf3.o)
 .debug_str     0x0000000000000000      0x4ad /cygdrive/c/Users/SwaminathanK/Downloads/Telink_IDE/toolchains/nds32le-elf-mculib-v5f/bin/../lib/gcc/riscv32-elf/7.4.0/mext-dsp/libgcc.a(divdf3.o)
 .comment       0x0000000000000000       0x38 /cygdrive/c/Users/SwaminathanK/Downloads/Telink_IDE/toolchains/nds32le-elf-mculib-v5f/bin/../lib/gcc/riscv32-elf/7.4.0/mext-dsp/libgcc.a(divdf3.o)
 .debug_frame   0x0000000000000000       0x50 /cygdrive/c/Users/SwaminathanK/Downloads/Telink_IDE/toolchains/nds32le-elf-mculib-v5f/bin/../lib/gcc/riscv32-elf/7.4.0/mext-dsp/libgcc.a(divdf3.o)
 .riscv.attributes
                0x0000000000000000       0x3b /cygdrive/c/Users/SwaminathanK/Downloads/Telink_IDE/toolchains/nds32le-elf-mculib-v5f/bin/../lib/gcc/riscv32-elf/7.4.0/mext-dsp/libgcc.a(divdf3.o)
 .data          0x0000000000000000        0x0 /cygdrive/c/Users/SwaminathanK/Downloads/Telink_IDE/toolchains/nds32le-elf-mculib-v5f/bin/../lib/gcc/riscv32-elf/7.4.0/mext-dsp/libgcc.a(gedf2.o)
 .bss           0x0000000000000000        0x0 /cygdrive/c/Users/SwaminathanK/Downloads/Telink_IDE/toolchains/nds32le-elf-mculib-v5f/bin/../lib/gcc/riscv32-elf/7.4.0/mext-dsp/libgcc.a(gedf2.o)
 .data          0x0000000000000000        0x0 /cygdrive/c/Users/SwaminathanK/Downloads/Telink_IDE/toolchains/nds32le-elf-mculib-v5f/bin/../lib/gcc/riscv32-elf/7.4.0/mext-dsp/libgcc.a(muldf3.o)
 .bss           0x0000000000000000        0x0 /cygdrive/c/Users/SwaminathanK/Downloads/Telink_IDE/toolchains/nds32le-elf-mculib-v5f/bin/../lib/gcc/riscv32-elf/7.4.0/mext-dsp/libgcc.a(muldf3.o)
 .data          0x0000000000000000        0x0 /cygdrive/c/Users/SwaminathanK/Downloads/Telink_IDE/toolchains/nds32le-elf-mculib-v5f/bin/../lib/gcc/riscv32-elf/7.4.0/mext-dsp/libgcc.a(fixunsdfsi.o)
 .bss           0x0000000000000000        0x0 /cygdrive/c/Users/SwaminathanK/Downloads/Telink_IDE/toolchains/nds32le-elf-mculib-v5f/bin/../lib/gcc/riscv32-elf/7.4.0/mext-dsp/libgcc.a(fixunsdfsi.o)
 .data          0x0000000000000000        0x0 /cygdrive/c/Users/SwaminathanK/Downloads/Telink_IDE/toolchains/nds32le-elf-mculib-v5f/bin/../lib/gcc/riscv32-elf/7.4.0/mext-dsp/libgcc.a(floatsidf.o)
 .bss           0x0000000000000000        0x0 /cygdrive/c/Users/SwaminathanK/Downloads/Telink_IDE/toolchains/nds32le-elf-mculib-v5f/bin/../lib/gcc/riscv32-elf/7.4.0/mext-dsp/libgcc.a(floatsidf.o)
 .data          0x0000000000000000        0x0 /cygdrive/c/Users/SwaminathanK/Downloads/Telink_IDE/toolchains/nds32le-elf-mculib-v5f/bin/../lib/gcc/riscv32-elf/7.4.0/mext-dsp/libgcc.a(extendsfdf2.o)
 .bss           0x0000000000000000        0x0 /cygdrive/c/Users/SwaminathanK/Downloads/Telink_IDE/toolchains/nds32le-elf-mculib-v5f/bin/../lib/gcc/riscv32-elf/7.4.0/mext-dsp/libgcc.a(extendsfdf2.o)
 .data          0x0000000000000000        0x0 /cygdrive/c/Users/SwaminathanK/Downloads/Telink_IDE/toolchains/nds32le-elf-mculib-v5f/bin/../lib/gcc/riscv32-elf/7.4.0/mext-dsp/libgcc.a(truncdfsf2.o)
 .bss           0x0000000000000000        0x0 /cygdrive/c/Users/SwaminathanK/Downloads/Telink_IDE/toolchains/nds32le-elf-mculib-v5f/bin/../lib/gcc/riscv32-elf/7.4.0/mext-dsp/libgcc.a(truncdfsf2.o)
 .text          0x0000000000000000        0x0 /cygdrive/c/Users/SwaminathanK/Downloads/Telink_IDE/toolchains/nds32le-elf-mculib-v5f/bin/../lib/gcc/riscv32-elf/7.4.0/../../../../riscv32-elf/lib/mext-dsp/libc.a(lib_a-errno.o)
 .data          0x0000000000000000        0x0 /cygdrive/c/Users/SwaminathanK/Downloads/Telink_IDE/toolchains/nds32le-elf-mculib-v5f/bin/../lib/gcc/riscv32-elf/7.4.0/../../../../riscv32-elf/lib/mext-dsp/libc.a(lib_a-errno.o)
 .bss           0x0000000000000000        0x0 /cygdrive/c/Users/SwaminathanK/Downloads/Telink_IDE/toolchains/nds32le-elf-mculib-v5f/bin/../lib/gcc/riscv32-elf/7.4.0/../../../../riscv32-elf/lib/mext-dsp/libc.a(lib_a-errno.o)
 .text.__errno  0x0000000000000000        0xa /cygdrive/c/Users/SwaminathanK/Downloads/Telink_IDE/toolchains/nds32le-elf-mculib-v5f/bin/../lib/gcc/riscv32-elf/7.4.0/../../../../riscv32-elf/lib/mext-dsp/libc.a(lib_a-errno.o)
 .text          0x0000000000000000        0x0 /cygdrive/c/Users/SwaminathanK/Downloads/Telink_IDE/toolchains/nds32le-elf-mculib-v5f/bin/../lib/gcc/riscv32-elf/7.4.0/../../../../riscv32-elf/lib/mext-dsp/libc.a(lib_a-malloc.o)
 .data          0x0000000000000000        0x0 /cygdrive/c/Users/SwaminathanK/Downloads/Telink_IDE/toolchains/nds32le-elf-mculib-v5f/bin/../lib/gcc/riscv32-elf/7.4.0/../../../../riscv32-elf/lib/mext-dsp/libc.a(lib_a-malloc.o)
 .bss           0x0000000000000000        0x0 /cygdrive/c/Users/SwaminathanK/Downloads/Telink_IDE/toolchains/nds32le-elf-mculib-v5f/bin/../lib/gcc/riscv32-elf/7.4.0/../../../../riscv32-elf/lib/mext-dsp/libc.a(lib_a-malloc.o)
 .text          0x0000000000000000        0x0 /cygdrive/c/Users/SwaminathanK/Downloads/Telink_IDE/toolchains/nds32le-elf-mculib-v5f/bin/../lib/gcc/riscv32-elf/7.4.0/../../../../riscv32-elf/lib/mext-dsp/libc.a(lib_a-memcpy.o)
 .data          0x0000000000000000        0x0 /cygdrive/c/Users/SwaminathanK/Downloads/Telink_IDE/toolchains/nds32le-elf-mculib-v5f/bin/../lib/gcc/riscv32-elf/7.4.0/../../../../riscv32-elf/lib/mext-dsp/libc.a(lib_a-memcpy.o)
 .bss           0x0000000000000000        0x0 /cygdrive/c/Users/SwaminathanK/Downloads/Telink_IDE/toolchains/nds32le-elf-mculib-v5f/bin/../lib/gcc/riscv32-elf/7.4.0/../../../../riscv32-elf/lib/mext-dsp/libc.a(lib_a-memcpy.o)
 .data          0x0000000000000000        0x0 /cygdrive/c/Users/SwaminathanK/Downloads/Telink_IDE/toolchains/nds32le-elf-mculib-v5f/bin/../lib/gcc/riscv32-elf/7.4.0/../../../../riscv32-elf/lib/mext-dsp/libc.a(lib_a-memset.o)
 .bss           0x0000000000000000        0x0 /cygdrive/c/Users/SwaminathanK/Downloads/Telink_IDE/toolchains/nds32le-elf-mculib-v5f/bin/../lib/gcc/riscv32-elf/7.4.0/../../../../riscv32-elf/lib/mext-dsp/libc.a(lib_a-memset.o)
 .text          0x0000000000000000        0x0 /cygdrive/c/Users/SwaminathanK/Downloads/Telink_IDE/toolchains/nds32le-elf-mculib-v5f/bin/../lib/gcc/riscv32-elf/7.4.0/../../../../riscv32-elf/lib/mext-dsp/libc.a(lib_a-nano-freer.o)
 .data          0x0000000000000000        0x0 /cygdrive/c/Users/SwaminathanK/Downloads/Telink_IDE/toolchains/nds32le-elf-mculib-v5f/bin/../lib/gcc/riscv32-elf/7.4.0/../../../../riscv32-elf/lib/mext-dsp/libc.a(lib_a-nano-freer.o)
 .bss           0x0000000000000000        0x0 /cygdrive/c/Users/SwaminathanK/Downloads/Telink_IDE/toolchains/nds32le-elf-mculib-v5f/bin/../lib/gcc/riscv32-elf/7.4.0/../../../../riscv32-elf/lib/mext-dsp/libc.a(lib_a-nano-freer.o)
 .text          0x0000000000000000        0x0 /cygdrive/c/Users/SwaminathanK/Downloads/Telink_IDE/toolchains/nds32le-elf-mculib-v5f/bin/../lib/gcc/riscv32-elf/7.4.0/../../../../riscv32-elf/lib/mext-dsp/libc.a(lib_a-nano-mallocr.o)
 .data          0x0000000000000000        0x0 /cygdrive/c/Users/SwaminathanK/Downloads/Telink_IDE/toolchains/nds32le-elf-mculib-v5f/bin/../lib/gcc/riscv32-elf/7.4.0/../../../../riscv32-elf/lib/mext-dsp/libc.a(lib_a-nano-mallocr.o)
 .bss           0x0000000000000000        0x0 /cygdrive/c/Users/SwaminathanK/Downloads/Telink_IDE/toolchains/nds32le-elf-mculib-v5f/bin/../lib/gcc/riscv32-elf/7.4.0/../../../../riscv32-elf/lib/mext-dsp/libc.a(lib_a-nano-mallocr.o)
 .text          0x0000000000000000        0x0 /cygdrive/c/Users/SwaminathanK/Downloads/Telink_IDE/toolchains/nds32le-elf-mculib-v5f/bin/../lib/gcc/riscv32-elf/7.4.0/../../../../riscv32-elf/lib/mext-dsp/libc.a(lib_a-printf.o)
 .data          0x0000000000000000        0x0 /cygdrive/c/Users/SwaminathanK/Downloads/Telink_IDE/toolchains/nds32le-elf-mculib-v5f/bin/../lib/gcc/riscv32-elf/7.4.0/../../../../riscv32-elf/lib/mext-dsp/libc.a(lib_a-printf.o)
 .bss           0x0000000000000000        0x0 /cygdrive/c/Users/SwaminathanK/Downloads/Telink_IDE/toolchains/nds32le-elf-mculib-v5f/bin/../lib/gcc/riscv32-elf/7.4.0/../../../../riscv32-elf/lib/mext-dsp/libc.a(lib_a-printf.o)
 .text          0x0000000000000000        0x0 /cygdrive/c/Users/SwaminathanK/Downloads/Telink_IDE/toolchains/nds32le-elf-mculib-v5f/bin/../lib/gcc/riscv32-elf/7.4.0/../../../../riscv32-elf/lib/mext-dsp/libc.a(lib_a-puts.o)
 .data          0x0000000000000000        0x0 /cygdrive/c/Users/SwaminathanK/Downloads/Telink_IDE/toolchains/nds32le-elf-mculib-v5f/bin/../lib/gcc/riscv32-elf/7.4.0/../../../../riscv32-elf/lib/mext-dsp/libc.a(lib_a-puts.o)
 .bss           0x0000000000000000        0x0 /cygdrive/c/Users/SwaminathanK/Downloads/Telink_IDE/toolchains/nds32le-elf-mculib-v5f/bin/../lib/gcc/riscv32-elf/7.4.0/../../../../riscv32-elf/lib/mext-dsp/libc.a(lib_a-puts.o)
 .text          0x0000000000000000        0x0 /cygdrive/c/Users/SwaminathanK/Downloads/Telink_IDE/toolchains/nds32le-elf-mculib-v5f/bin/../lib/gcc/riscv32-elf/7.4.0/../../../../riscv32-elf/lib/mext-dsp/libc.a(lib_a-strlen.o)
 .data          0x0000000000000000        0x0 /cygdrive/c/Users/SwaminathanK/Downloads/Telink_IDE/toolchains/nds32le-elf-mculib-v5f/bin/../lib/gcc/riscv32-elf/7.4.0/../../../../riscv32-elf/lib/mext-dsp/libc.a(lib_a-strlen.o)
 .bss           0x0000000000000000        0x0 /cygdrive/c/Users/SwaminathanK/Downloads/Telink_IDE/toolchains/nds32le-elf-mculib-v5f/bin/../lib/gcc/riscv32-elf/7.4.0/../../../../riscv32-elf/lib/mext-dsp/libc.a(lib_a-strlen.o)
 .text          0x0000000000000000        0x0 /cygdrive/c/Users/SwaminathanK/Downloads/Telink_IDE/toolchains/nds32le-elf-mculib-v5f/bin/../lib/gcc/riscv32-elf/7.4.0/../../../../riscv32-elf/lib/mext-dsp/libc.a(lib_a-vprintf.o)
 .data          0x0000000000000000        0x0 /cygdrive/c/Users/SwaminathanK/Downloads/Telink_IDE/toolchains/nds32le-elf-mculib-v5f/bin/../lib/gcc/riscv32-elf/7.4.0/../../../../riscv32-elf/lib/mext-dsp/libc.a(lib_a-vprintf.o)
 .bss           0x0000000000000000        0x0 /cygdrive/c/Users/SwaminathanK/Downloads/Telink_IDE/toolchains/nds32le-elf-mculib-v5f/bin/../lib/gcc/riscv32-elf/7.4.0/../../../../riscv32-elf/lib/mext-dsp/libc.a(lib_a-vprintf.o)
 COMMON         0x0000000000000000        0x0 /cygdrive/c/Users/SwaminathanK/Downloads/Telink_IDE/toolchains/nds32le-elf-mculib-v5f/bin/../lib/gcc/riscv32-elf/7.4.0/../../../../riscv32-elf/lib/mext-dsp/libc.a(lib_a-vprintf.o)
 .text          0x0000000000000000        0x0 /cygdrive/c/Users/SwaminathanK/Downloads/Telink_IDE/toolchains/nds32le-elf-mculib-v5f/bin/../lib/gcc/riscv32-elf/7.4.0/../../../../riscv32-elf/lib/mext-dsp/libc.a(lib_a-impure.o)
 .data          0x0000000000000000        0x0 /cygdrive/c/Users/SwaminathanK/Downloads/Telink_IDE/toolchains/nds32le-elf-mculib-v5f/bin/../lib/gcc/riscv32-elf/7.4.0/../../../../riscv32-elf/lib/mext-dsp/libc.a(lib_a-impure.o)
 .bss           0x0000000000000000        0x0 /cygdrive/c/Users/SwaminathanK/Downloads/Telink_IDE/toolchains/nds32le-elf-mculib-v5f/bin/../lib/gcc/riscv32-elf/7.4.0/../../../../riscv32-elf/lib/mext-dsp/libc.a(lib_a-impure.o)
 .sdata2._global_impure_ptr
                0x0000000000000000        0x4 /cygdrive/c/Users/SwaminathanK/Downloads/Telink_IDE/toolchains/nds32le-elf-mculib-v5f/bin/../lib/gcc/riscv32-elf/7.4.0/../../../../riscv32-elf/lib/mext-dsp/libc.a(lib_a-impure.o)
 .text          0x0000000000000000        0x0 /cygdrive/c/Users/SwaminathanK/Downloads/Telink_IDE/toolchains/nds32le-elf-mculib-v5f/bin/../lib/gcc/riscv32-elf/7.4.0/../../../../riscv32-elf/lib/mext-dsp/libc.a(lib_a-printf_data.o)
 .data          0x0000000000000000        0x0 /cygdrive/c/Users/SwaminathanK/Downloads/Telink_IDE/toolchains/nds32le-elf-mculib-v5f/bin/../lib/gcc/riscv32-elf/7.4.0/../../../../riscv32-elf/lib/mext-dsp/libc.a(lib_a-printf_data.o)
 .bss           0x0000000000000000        0x0 /cygdrive/c/Users/SwaminathanK/Downloads/Telink_IDE/toolchains/nds32le-elf-mculib-v5f/bin/../lib/gcc/riscv32-elf/7.4.0/../../../../riscv32-elf/lib/mext-dsp/libc.a(lib_a-printf_data.o)
 .text          0x0000000000000000        0x0 /cygdrive/c/Users/SwaminathanK/Downloads/Telink_IDE/toolchains/nds32le-elf-mculib-v5f/bin/../lib/gcc/riscv32-elf/7.4.0/../../../../riscv32-elf/lib/mext-dsp/libc.a(lib_a-printf_impl.o)
 .data          0x0000000000000000        0x0 /cygdrive/c/Users/SwaminathanK/Downloads/Telink_IDE/toolchains/nds32le-elf-mculib-v5f/bin/../lib/gcc/riscv32-elf/7.4.0/../../../../riscv32-elf/lib/mext-dsp/libc.a(lib_a-printf_impl.o)
 .bss           0x0000000000000000        0x0 /cygdrive/c/Users/SwaminathanK/Downloads/Telink_IDE/toolchains/nds32le-elf-mculib-v5f/bin/../lib/gcc/riscv32-elf/7.4.0/../../../../riscv32-elf/lib/mext-dsp/libc.a(lib_a-printf_impl.o)
 .text          0x0000000000000000        0x0 /cygdrive/c/Users/SwaminathanK/Downloads/Telink_IDE/toolchains/nds32le-elf-mculib-v5f/bin/../lib/gcc/riscv32-elf/7.4.0/../../../../riscv32-elf/lib/mext-dsp/libc.a(lib_a-printf_impl_float.o)
 .data          0x0000000000000000        0x0 /cygdrive/c/Users/SwaminathanK/Downloads/Telink_IDE/toolchains/nds32le-elf-mculib-v5f/bin/../lib/gcc/riscv32-elf/7.4.0/../../../../riscv32-elf/lib/mext-dsp/libc.a(lib_a-printf_impl_float.o)
 .bss           0x0000000000000000        0x0 /cygdrive/c/Users/SwaminathanK/Downloads/Telink_IDE/toolchains/nds32le-elf-mculib-v5f/bin/../lib/gcc/riscv32-elf/7.4.0/../../../../riscv32-elf/lib/mext-dsp/libc.a(lib_a-printf_impl_float.o)
 .text          0x0000000000000000        0x0 /cygdrive/c/Users/SwaminathanK/Downloads/Telink_IDE/toolchains/nds32le-elf-mculib-v5f/bin/../lib/gcc/riscv32-elf/7.4.0/../../../../riscv32-elf/lib/mext-dsp/libc.a(lib_a-strcpy.o)
 .data          0x0000000000000000        0x0 /cygdrive/c/Users/SwaminathanK/Downloads/Telink_IDE/toolchains/nds32le-elf-mculib-v5f/bin/../lib/gcc/riscv32-elf/7.4.0/../../../../riscv32-elf/lib/mext-dsp/libc.a(lib_a-strcpy.o)
 .bss           0x0000000000000000        0x0 /cygdrive/c/Users/SwaminathanK/Downloads/Telink_IDE/toolchains/nds32le-elf-mculib-v5f/bin/../lib/gcc/riscv32-elf/7.4.0/../../../../riscv32-elf/lib/mext-dsp/libc.a(lib_a-strcpy.o)
 .text          0x0000000000000000        0x0 /cygdrive/c/Users/SwaminathanK/Downloads/Telink_IDE/toolchains/nds32le-elf-mculib-v5f/bin/../lib/gcc/riscv32-elf/7.4.0/../../../../riscv32-elf/lib/mext-dsp/libc.a(lib_a-strnlen.o)
 .data          0x0000000000000000        0x0 /cygdrive/c/Users/SwaminathanK/Downloads/Telink_IDE/toolchains/nds32le-elf-mculib-v5f/bin/../lib/gcc/riscv32-elf/7.4.0/../../../../riscv32-elf/lib/mext-dsp/libc.a(lib_a-strnlen.o)
 .bss           0x0000000000000000        0x0 /cygdrive/c/Users/SwaminathanK/Downloads/Telink_IDE/toolchains/nds32le-elf-mculib-v5f/bin/../lib/gcc/riscv32-elf/7.4.0/../../../../riscv32-elf/lib/mext-dsp/libc.a(lib_a-strnlen.o)
 .text          0x0000000000000000        0x0 /cygdrive/c/Users/SwaminathanK/Downloads/Telink_IDE/toolchains/nds32le-elf-mculib-v5f/bin/../lib/gcc/riscv32-elf/7.4.0/../../../../riscv32-elf/lib/mext-dsp/libgloss.a(_sbrk.o)
 .data          0x0000000000000000        0x0 /cygdrive/c/Users/SwaminathanK/Downloads/Telink_IDE/toolchains/nds32le-elf-mculib-v5f/bin/../lib/gcc/riscv32-elf/7.4.0/../../../../riscv32-elf/lib/mext-dsp/libgloss.a(_sbrk.o)
 .bss           0x0000000000000000        0x0 /cygdrive/c/Users/SwaminathanK/Downloads/Telink_IDE/toolchains/nds32le-elf-mculib-v5f/bin/../lib/gcc/riscv32-elf/7.4.0/../../../../riscv32-elf/lib/mext-dsp/libgloss.a(_sbrk.o)
 .text.sbrk     0x0000000000000000       0x18 /cygdrive/c/Users/SwaminathanK/Downloads/Telink_IDE/toolchains/nds32le-elf-mculib-v5f/bin/../lib/gcc/riscv32-elf/7.4.0/../../../../riscv32-elf/lib/mext-dsp/libgloss.a(_sbrk.o)
 .data          0x0000000000000000        0x0 /cygdrive/c/Users/SwaminathanK/Downloads/Telink_IDE/toolchains/nds32le-elf-mculib-v5f/bin/../lib/gcc/riscv32-elf/7.4.0/mext-dsp/libgcc.a(_lshrdi3.o)
 .bss           0x0000000000000000        0x0 /cygdrive/c/Users/SwaminathanK/Downloads/Telink_IDE/toolchains/nds32le-elf-mculib-v5f/bin/../lib/gcc/riscv32-elf/7.4.0/mext-dsp/libgcc.a(_lshrdi3.o)
 .data          0x0000000000000000        0x0 /cygdrive/c/Users/SwaminathanK/Downloads/Telink_IDE/toolchains/nds32le-elf-mculib-v5f/bin/../lib/gcc/riscv32-elf/7.4.0/mext-dsp/libgcc.a(_ashldi3.o)
 .bss           0x0000000000000000        0x0 /cygdrive/c/Users/SwaminathanK/Downloads/Telink_IDE/toolchains/nds32le-elf-mculib-v5f/bin/../lib/gcc/riscv32-elf/7.4.0/mext-dsp/libgcc.a(_ashldi3.o)
 .data          0x0000000000000000        0x0 /cygdrive/c/Users/SwaminathanK/Downloads/Telink_IDE/toolchains/nds32le-elf-mculib-v5f/bin/../lib/gcc/riscv32-elf/7.4.0/mext-dsp/libgcc.a(save-restore.o)
 .bss           0x0000000000000000        0x0 /cygdrive/c/Users/SwaminathanK/Downloads/Telink_IDE/toolchains/nds32le-elf-mculib-v5f/bin/../lib/gcc/riscv32-elf/7.4.0/mext-dsp/libgcc.a(save-restore.o)

Memory Configuration

Name             Origin             Length             Attributes
*default*        0x0000000000000000 0xffffffffffffffff

Linker script and memory map

LOAD /cygdrive/c/Users/SwaminathanK/Downloads/Telink_IDE/toolchains/nds32le-elf-mculib-v5f/bin/../lib/gcc/riscv32-elf/7.4.0/../../../../riscv32-elf/lib/mext-dsp/libdsp.a
LOAD /cygdrive/c/Users/SwaminathanK/Downloads/Telink_IDE/toolchains/nds32le-elf-mculib-v5f/bin/../lib/gcc/riscv32-elf/7.4.0/../../../../riscv32-elf/lib/mext-dsp/libm.a
LOAD /cygdrive/c/Users/SWAMIN~1/AppData/Local/Temp/cckzFaHM.ltrans0.ltrans.o
LOAD ./boot/cstartup_flash.o
LOAD ./boot/cstartup_ram.o
LOAD /cygdrive/c/Users/SwaminathanK/Downloads/Telink_IDE/toolchains/nds32le-elf-mculib-v5f/bin/../lib/gcc/riscv32-elf/7.4.0/../../../../riscv32-elf/lib/mext-dsp/libm.a
LOAD /cygdrive/C/Users/SwaminathanK/Desktop/Thesis/DSP Library/NMSIS-master/NMSIS-master/NMSIS/Library/DSP/GCC/libnmsis_dsp_rv32imfcp.a
LOAD /cygdrive/C/Users/SwaminathanK/Workspace-Ande3/NMSIS_DSP_FFT_Benchmark/drivers/lib/libdriver.a
LOAD /cygdrive/C/Users/SwaminathanK/Workspace-Ande3/NMSIS_DSP_FFT_Benchmark/drivers/lib/libaxon_driver_lib.a
LOAD /cygdrive/c/Users/SwaminathanK/Downloads/Telink_IDE/toolchains/nds32le-elf-mculib-v5f/bin/../lib/gcc/riscv32-elf/7.4.0/mext-dsp/libgcc.a
START GROUP
LOAD /cygdrive/c/Users/SwaminathanK/Downloads/Telink_IDE/toolchains/nds32le-elf-mculib-v5f/bin/../lib/gcc/riscv32-elf/7.4.0/../../../../riscv32-elf/lib/mext-dsp/libc.a
LOAD /cygdrive/c/Users/SwaminathanK/Downloads/Telink_IDE/toolchains/nds32le-elf-mculib-v5f/bin/../lib/gcc/riscv32-elf/7.4.0/../../../../riscv32-elf/lib/mext-dsp/libgloss.a
END GROUP
LOAD /cygdrive/c/Users/SwaminathanK/Downloads/Telink_IDE/toolchains/nds32le-elf-mculib-v5f/bin/../lib/gcc/riscv32-elf/7.4.0/mext-dsp/libgcc.a
                0x0000000020000000                NDS_SAG_LMA_FLASH = 0x20000000
                0x0000000020000000                . = 0x20000000
                0x0000000020000000                PROVIDE (BIN_BEGIN = .)

.vectors        0x0000000020000000      0x18a
 *(.vectors)
 .vectors       0x0000000020000000      0x18a ./boot/cstartup_flash.o
                0x0000000020000000                _RESET_ENTRY
                0x0000000000000000                . = 0x0

.retention_reset
                0x0000000000000000      0x154 load address 0x0000000020000190
 *(.retention_reset)
 .retention_reset
                0x0000000000000000      0x154 ./boot/cstartup_flash.o
                0x0000000000000000                _IRESET_ENTRY
                0x0000000000000000                PROVIDE (_RETENTION_RESET_VMA_START = ADDR (.retention_reset))
                0x0000000020000190                PROVIDE (_RETENTION_RESET_LMA_START = LOADADDR (.retention_reset))
                0x0000000000000154                PROVIDE (_RETENTION_RESET_VMA_END = .)
                0x0000000000000158                . = ALIGN (0x8)
                0x0000000000000158                PROVIDE (_AES_VMA_START = .)

.aes_data
 *(.aes_data)
                0x0000000000000158                PROVIDE (_AES_VMA_END = .)
                0x0000000000000158                . = ALIGN (0x8)

.retention_data
                0x0000000000000158       0x64 load address 0x00000000200002e8
 *(.retention_data)
 .retention_data
                0x0000000000000158       0x64 /cygdrive/c/Users/SWAMIN~1/AppData/Local/Temp/cckzFaHM.ltrans0.ltrans.o
                0x00000000000001b8                g_pm_mspi_cfg
                0x0000000000000158                PROVIDE (_RETENTION_DATA_VMA_START = ADDR (.retention_data))
                0x00000000200002e8                PROVIDE (_RETENTION_DATA_LMA_START = LOADADDR (.retention_data))
                0x00000000000001bc                PROVIDE (_RETENTION_DATA_VMA_END = .)
                0x00000000000001c0                . = ALIGN (0x8)

.ram_code       0x0000000000000200     0x4ae0 load address 0x0000000020000350
 *(.ram_code)
 .ram_code      0x0000000000000200      0xed6 /cygdrive/c/Users/SWAMIN~1/AppData/Local/Temp/cckzFaHM.ltrans0.ltrans.o
                0x0000000000000fd4                trap_entry
 *fill*         0x00000000000010d6       0x2a 
 .ram_code      0x0000000000001100      0x102 ./boot/cstartup_flash.o
                0x0000000000001100                __vectors
 *(.text .stub .text.* .gnu.linkonce.t.*)
 *fill*         0x0000000000001202        0x2 
 .text          0x0000000000001204      0x208 /cygdrive/c/Users/SWAMIN~1/AppData/Local/Temp/cckzFaHM.ltrans0.ltrans.o
 .text.user_calib_adc_vref.constprop.9
                0x000000000000140c       0xfc /cygdrive/c/Users/SWAMIN~1/AppData/Local/Temp/cckzFaHM.ltrans0.ltrans.o
 .text.user_calib_freq_offset.constprop.8
                0x0000000000001508       0x56 /cygdrive/c/Users/SWAMIN~1/AppData/Local/Temp/cckzFaHM.ltrans0.ltrans.o
 *fill*         0x000000000000155e        0x2 
 .text.gpio_input_dis
                0x0000000000001560       0x1a /cygdrive/c/Users/SWAMIN~1/AppData/Local/Temp/cckzFaHM.ltrans0.ltrans.o
 *fill*         0x000000000000157a        0x2 
 .text._write   0x000000000000157c       0x48 /cygdrive/c/Users/SWAMIN~1/AppData/Local/Temp/cckzFaHM.ltrans0.ltrans.o
                0x000000000000157c                _write
 .text.startup.main
                0x00000000000015c4      0x98e /cygdrive/c/Users/SWAMIN~1/AppData/Local/Temp/cckzFaHM.ltrans0.ltrans.o
                0x00000000000015c4                main
 *fill*         0x0000000000001f52        0x2 
 .text          0x0000000000001f54        0x6 ./boot/cstartup_flash.o
                0x0000000000001f54                entry_irq25
                0x0000000000001f54                entry_irq13
                0x0000000000001f54                entry_irq15
                0x0000000000001f54                entry_irq27
                0x0000000000001f54                entry_irq60
                0x0000000000001f54                entry_irq1
                0x0000000000001f54                entry_irq52
                0x0000000000001f54                entry_irq50
                0x0000000000001f54                entry_irq62
                0x0000000000001f54                entry_irq58
                0x0000000000001f54                entry_irq10
                0x0000000000001f54                entry_irq21
                0x0000000000001f54                entry_irq48
                0x0000000000001f54                entry_irq8
                0x0000000000001f54                entry_irq33
                0x0000000000001f54                entry_irq12
                0x0000000000001f54                entry_irq14
                0x0000000000001f54                entry_irq2
                0x0000000000001f54                entry_irq51
                0x0000000000001f54                entry_irq28
                0x0000000000001f54                entry_irq43
                0x0000000000001f54                entry_irq20
                0x0000000000001f54                entry_irq63
                0x0000000000001f54                entry_irq46
                0x0000000000001f54                entry_irq31
                0x0000000000001f54                entry_irq16
                0x0000000000001f54                entry_irq53
                0x0000000000001f54                entry_irq11
                0x0000000000001f54                entry_irq5
                0x0000000000001f54                entry_irq23
                0x0000000000001f54                entry_irq55
                0x0000000000001f54                entry_irq34
                0x0000000000001f54                entry_irq36
                0x0000000000001f54                entry_irq44
                0x0000000000001f54                entry_irq45
                0x0000000000001f54                entry_irq26
                0x0000000000001f54                entry_irq41
                0x0000000000001f54                entry_irq61
                0x0000000000001f54                entry_irq38
                0x0000000000001f54                entry_irq59
                0x0000000000001f54                entry_irq6
                0x0000000000001f54                default_irq_entry
                0x0000000000001f54                entry_irq3
                0x0000000000001f54                entry_irq39
                0x0000000000001f54                entry_irq49
                0x0000000000001f54                entry_irq57
                0x0000000000001f54                entry_irq47
                0x0000000000001f54                entry_irq4
                0x0000000000001f54                entry_irq22
                0x0000000000001f54                entry_irq30
                0x0000000000001f54                entry_irq42
                0x0000000000001f54                entry_irq24
                0x0000000000001f54                entry_irq19
                0x0000000000001f54                entry_irq17
                0x0000000000001f54                entry_irq9
                0x0000000000001f54                entry_irq56
                0x0000000000001f54                entry_irq35
                0x0000000000001f54                entry_irq37
                0x0000000000001f54                entry_irq54
                0x0000000000001f54                entry_irq40
                0x0000000000001f54                entry_irq29
                0x0000000000001f54                entry_irq7
                0x0000000000001f54                entry_irq32
                0x0000000000001f54                entry_irq18
                0x0000000000001f56                trap_handler
 *fill*         0x0000000000001f5a        0x2 
 .text.riscv_cfft_init_4096_f32
                0x0000000000001f5c       0x22 /cygdrive/C/Users/SwaminathanK/Desktop/Thesis/DSP Library/NMSIS-master/NMSIS-master/NMSIS/Library/DSP/GCC/libnmsis_dsp_rv32imfcp.a(riscv_cfft_init_f32.c.o)
                0x0000000000001f5c                riscv_cfft_init_4096_f32
 *fill*         0x0000000000001f7e        0x2 
 .text.riscv_cfft_init_2048_f32
                0x0000000000001f80       0x26 /cygdrive/C/Users/SwaminathanK/Desktop/Thesis/DSP Library/NMSIS-master/NMSIS-master/NMSIS/Library/DSP/GCC/libnmsis_dsp_rv32imfcp.a(riscv_cfft_init_f32.c.o)
                0x0000000000001f80                riscv_cfft_init_2048_f32
 *fill*         0x0000000000001fa6        0x2 
 .text.riscv_cfft_init_1024_f32
                0x0000000000001fa8       0x24 /cygdrive/C/Users/SwaminathanK/Desktop/Thesis/DSP Library/NMSIS-master/NMSIS-master/NMSIS/Library/DSP/GCC/libnmsis_dsp_rv32imfcp.a(riscv_cfft_init_f32.c.o)
                0x0000000000001fa8                riscv_cfft_init_1024_f32
 *fill*         0x0000000000001fcc        0x0 
 .text.riscv_cfft_init_512_f32
                0x0000000000001fcc       0x24 /cygdrive/C/Users/SwaminathanK/Desktop/Thesis/DSP Library/NMSIS-master/NMSIS-master/NMSIS/Library/DSP/GCC/libnmsis_dsp_rv32imfcp.a(riscv_cfft_init_f32.c.o)
                0x0000000000001fcc                riscv_cfft_init_512_f32
 *fill*         0x0000000000001ff0        0x0 
 .text.riscv_cfft_init_256_f32
                0x0000000000001ff0       0x24 /cygdrive/C/Users/SwaminathanK/Desktop/Thesis/DSP Library/NMSIS-master/NMSIS-master/NMSIS/Library/DSP/GCC/libnmsis_dsp_rv32imfcp.a(riscv_cfft_init_f32.c.o)
                0x0000000000001ff0                riscv_cfft_init_256_f32
 *fill*         0x0000000000002014        0x0 
 .text.riscv_cfft_init_128_f32
                0x0000000000002014       0x24 /cygdrive/C/Users/SwaminathanK/Desktop/Thesis/DSP Library/NMSIS-master/NMSIS-master/NMSIS/Library/DSP/GCC/libnmsis_dsp_rv32imfcp.a(riscv_cfft_init_f32.c.o)
                0x0000000000002014                riscv_cfft_init_128_f32
 *fill*         0x0000000000002038        0x0 
 .text.riscv_cfft_init_64_f32
                0x0000000000002038       0x24 /cygdrive/C/Users/SwaminathanK/Desktop/Thesis/DSP Library/NMSIS-master/NMSIS-master/NMSIS/Library/DSP/GCC/libnmsis_dsp_rv32imfcp.a(riscv_cfft_init_f32.c.o)
                0x0000000000002038                riscv_cfft_init_64_f32
 *fill*         0x000000000000205c        0x0 
 .text.riscv_cfft_init_32_f32
                0x000000000000205c       0x24 /cygdrive/C/Users/SwaminathanK/Desktop/Thesis/DSP Library/NMSIS-master/NMSIS-master/NMSIS/Library/DSP/GCC/libnmsis_dsp_rv32imfcp.a(riscv_cfft_init_f32.c.o)
                0x000000000000205c                riscv_cfft_init_32_f32
 *fill*         0x0000000000002080        0x0 
 .text.riscv_cfft_init_16_f32
                0x0000000000002080       0x22 /cygdrive/C/Users/SwaminathanK/Desktop/Thesis/DSP Library/NMSIS-master/NMSIS-master/NMSIS/Library/DSP/GCC/libnmsis_dsp_rv32imfcp.a(riscv_cfft_init_f32.c.o)
                0x0000000000002080                riscv_cfft_init_16_f32
 *fill*         0x00000000000020a2        0x2 
 .text.riscv_cfft_init_f32
                0x00000000000020a4       0x76 /cygdrive/C/Users/SwaminathanK/Desktop/Thesis/DSP Library/NMSIS-master/NMSIS-master/NMSIS/Library/DSP/GCC/libnmsis_dsp_rv32imfcp.a(riscv_cfft_init_f32.c.o)
                0x00000000000020a4                riscv_cfft_init_f32
 *fill*         0x000000000000211a        0x2 
 .text.riscv_bitreversal_32
                0x000000000000211c       0x52 /cygdrive/C/Users/SwaminathanK/Desktop/Thesis/DSP Library/NMSIS-master/NMSIS-master/NMSIS/Library/DSP/GCC/libnmsis_dsp_rv32imfcp.a(riscv_bitreversal2.c.o)
                0x000000000000211c                riscv_bitreversal_32
 *fill*         0x000000000000216e        0x2 
 .text.riscv_cfft_f32
                0x0000000000002170      0x6ac /cygdrive/C/Users/SwaminathanK/Desktop/Thesis/DSP Library/NMSIS-master/NMSIS-master/NMSIS/Library/DSP/GCC/libnmsis_dsp_rv32imfcp.a(riscv_cfft_f32.c.o)
                0x0000000000002170                riscv_cfft_f32
 *fill*         0x000000000000281c        0x0 
 .text.riscv_radix8_butterfly_f32
                0x000000000000281c      0x5d8 /cygdrive/C/Users/SwaminathanK/Desktop/Thesis/DSP Library/NMSIS-master/NMSIS-master/NMSIS/Library/DSP/GCC/libnmsis_dsp_rv32imfcp.a(riscv_cfft_radix8_f32.c.o)
                0x000000000000281c                riscv_radix8_butterfly_f32
 .text.sinf     0x0000000000002df4      0x15c /cygdrive/c/Users/SwaminathanK/Downloads/Telink_IDE/toolchains/nds32le-elf-mculib-v5f/bin/../lib/gcc/riscv32-elf/7.4.0/../../../../riscv32-elf/lib/mext-dsp/libm.a(lib_a-sinf.o)
                0x0000000000002df4                sinf
 *fill*         0x0000000000002f50        0x0 
 .text.ref__mathlib_rredf2
                0x0000000000002f50      0x13c /cygdrive/c/Users/SwaminathanK/Downloads/Telink_IDE/toolchains/nds32le-elf-mculib-v5f/bin/../lib/gcc/riscv32-elf/7.4.0/../../../../riscv32-elf/lib/mext-dsp/libm.a(lib_a-ref_rredf.o)
                0x0000000000002f50                ref__mathlib_rredf2
 .text          0x000000000000308c       0xc6 /cygdrive/c/Users/SwaminathanK/Downloads/Telink_IDE/toolchains/nds32le-elf-mculib-v5f/bin/../lib/gcc/riscv32-elf/7.4.0/mext-dsp/libgcc.a(gedf2.o)
                0x000000000000308c                __gtdf2
                0x000000000000308c                __gedf2
 *fill*         0x0000000000003152        0x2 
 .text          0x0000000000003154      0x64a /cygdrive/c/Users/SwaminathanK/Downloads/Telink_IDE/toolchains/nds32le-elf-mculib-v5f/bin/../lib/gcc/riscv32-elf/7.4.0/mext-dsp/libgcc.a(muldf3.o)
                0x0000000000003154                __muldf3
 *fill*         0x000000000000379e        0x2 
 .text          0x00000000000037a0       0x98 /cygdrive/c/Users/SwaminathanK/Downloads/Telink_IDE/toolchains/nds32le-elf-mculib-v5f/bin/../lib/gcc/riscv32-elf/7.4.0/mext-dsp/libgcc.a(fixunsdfsi.o)
                0x00000000000037a0                __fixunsdfsi
 .text          0x0000000000003838       0x7a /cygdrive/c/Users/SwaminathanK/Downloads/Telink_IDE/toolchains/nds32le-elf-mculib-v5f/bin/../lib/gcc/riscv32-elf/7.4.0/mext-dsp/libgcc.a(floatsidf.o)
                0x0000000000003838                __floatsidf
 *fill*         0x00000000000038b2        0x2 
 .text          0x00000000000038b4      0x110 /cygdrive/c/Users/SwaminathanK/Downloads/Telink_IDE/toolchains/nds32le-elf-mculib-v5f/bin/../lib/gcc/riscv32-elf/7.4.0/mext-dsp/libgcc.a(extendsfdf2.o)
                0x00000000000038b4                __extendsfdf2
 .text          0x00000000000039c4      0x300 /cygdrive/c/Users/SwaminathanK/Downloads/Telink_IDE/toolchains/nds32le-elf-mculib-v5f/bin/../lib/gcc/riscv32-elf/7.4.0/mext-dsp/libgcc.a(truncdfsf2.o)
                0x00000000000039c4                __truncdfsf2
 .text.malloc   0x0000000000003cc4       0x10 /cygdrive/c/Users/SwaminathanK/Downloads/Telink_IDE/toolchains/nds32le-elf-mculib-v5f/bin/../lib/gcc/riscv32-elf/7.4.0/../../../../riscv32-elf/lib/mext-dsp/libc.a(lib_a-malloc.o)
                0x0000000000003cc4                malloc
 .text.free     0x0000000000003cd4       0x10 /cygdrive/c/Users/SwaminathanK/Downloads/Telink_IDE/toolchains/nds32le-elf-mculib-v5f/bin/../lib/gcc/riscv32-elf/7.4.0/../../../../riscv32-elf/lib/mext-dsp/libc.a(lib_a-malloc.o)
                0x0000000000003cd4                free
 .text.memcpy   0x0000000000003ce4       0xfa /cygdrive/c/Users/SwaminathanK/Downloads/Telink_IDE/toolchains/nds32le-elf-mculib-v5f/bin/../lib/gcc/riscv32-elf/7.4.0/../../../../riscv32-elf/lib/mext-dsp/libc.a(lib_a-memcpy.o)
                0x0000000000003ce4                memcpy
 .text          0x0000000000003dde       0xaa /cygdrive/c/Users/SwaminathanK/Downloads/Telink_IDE/toolchains/nds32le-elf-mculib-v5f/bin/../lib/gcc/riscv32-elf/7.4.0/../../../../riscv32-elf/lib/mext-dsp/libc.a(lib_a-memset.o)
                0x0000000000003dde                memset
 .text._free_r  0x0000000000003e88       0x90 /cygdrive/c/Users/SwaminathanK/Downloads/Telink_IDE/toolchains/nds32le-elf-mculib-v5f/bin/../lib/gcc/riscv32-elf/7.4.0/../../../../riscv32-elf/lib/mext-dsp/libc.a(lib_a-nano-freer.o)
                0x0000000000003e88                _free_r
 .text._malloc_r
                0x0000000000003f18       0xb0 /cygdrive/c/Users/SwaminathanK/Downloads/Telink_IDE/toolchains/nds32le-elf-mculib-v5f/bin/../lib/gcc/riscv32-elf/7.4.0/../../../../riscv32-elf/lib/mext-dsp/libc.a(lib_a-nano-mallocr.o)
                0x0000000000003f18                _malloc_r
 .text.printf   0x0000000000003fc8       0x1e /cygdrive/c/Users/SwaminathanK/Downloads/Telink_IDE/toolchains/nds32le-elf-mculib-v5f/bin/../lib/gcc/riscv32-elf/7.4.0/../../../../riscv32-elf/lib/mext-dsp/libc.a(lib_a-printf.o)
                0x0000000000003fc8                printf
 .text.puts     0x0000000000003fe6       0x34 /cygdrive/c/Users/SwaminathanK/Downloads/Telink_IDE/toolchains/nds32le-elf-mculib-v5f/bin/../lib/gcc/riscv32-elf/7.4.0/../../../../riscv32-elf/lib/mext-dsp/libc.a(lib_a-puts.o)
                0x0000000000003fe6                puts
 *fill*         0x000000000000401a        0x2 
 .text.strlen   0x000000000000401c       0x60 /cygdrive/c/Users/SwaminathanK/Downloads/Telink_IDE/toolchains/nds32le-elf-mculib-v5f/bin/../lib/gcc/riscv32-elf/7.4.0/../../../../riscv32-elf/lib/mext-dsp/libc.a(lib_a-strlen.o)
                0x000000000000401c                strlen
 .text.__vprintf_help
                0x000000000000407c       0x3a /cygdrive/c/Users/SwaminathanK/Downloads/Telink_IDE/toolchains/nds32le-elf-mculib-v5f/bin/../lib/gcc/riscv32-elf/7.4.0/../../../../riscv32-elf/lib/mext-dsp/libc.a(lib_a-vprintf.o)
 .text.vprintf  0x00000000000040b6       0x4c /cygdrive/c/Users/SwaminathanK/Downloads/Telink_IDE/toolchains/nds32le-elf-mculib-v5f/bin/../lib/gcc/riscv32-elf/7.4.0/../../../../riscv32-elf/lib/mext-dsp/libc.a(lib_a-vprintf.o)
                0x00000000000040b6                vprintf
 .text.__print_integral
                0x0000000000004102       0x48 /cygdrive/c/Users/SwaminathanK/Downloads/Telink_IDE/toolchains/nds32le-elf-mculib-v5f/bin/../lib/gcc/riscv32-elf/7.4.0/../../../../riscv32-elf/lib/mext-dsp/libc.a(lib_a-printf_impl.o)
                0x0000000000004102                __print_integral
 .text.__printf_impl
                0x000000000000414a      0x470 /cygdrive/c/Users/SwaminathanK/Downloads/Telink_IDE/toolchains/nds32le-elf-mculib-v5f/bin/../lib/gcc/riscv32-elf/7.4.0/../../../../riscv32-elf/lib/mext-dsp/libc.a(lib_a-printf_impl.o)
                0x000000000000414a                __printf_impl
 .text.__int_to_poly
                0x00000000000045ba       0x1e /cygdrive/c/Users/SwaminathanK/Downloads/Telink_IDE/toolchains/nds32le-elf-mculib-v5f/bin/../lib/gcc/riscv32-elf/7.4.0/../../../../riscv32-elf/lib/mext-dsp/libc.a(lib_a-printf_impl_float.o)
                0x00000000000045ba                __int_to_poly
 .text.__print_integral_poly
                0x00000000000045d8       0x90 /cygdrive/c/Users/SwaminathanK/Downloads/Telink_IDE/toolchains/nds32le-elf-mculib-v5f/bin/../lib/gcc/riscv32-elf/7.4.0/../../../../riscv32-elf/lib/mext-dsp/libc.a(lib_a-printf_impl_float.o)
                0x00000000000045d8                __print_integral_poly
 .text.__printf_float_impl
                0x0000000000004668      0x3fe /cygdrive/c/Users/SwaminathanK/Downloads/Telink_IDE/toolchains/nds32le-elf-mculib-v5f/bin/../lib/gcc/riscv32-elf/7.4.0/../../../../riscv32-elf/lib/mext-dsp/libc.a(lib_a-printf_impl_float.o)
                0x0000000000004668                __printf_float_impl
 *fill*         0x0000000000004a66        0x2 
 .text.strcpy   0x0000000000004a68       0x7e /cygdrive/c/Users/SwaminathanK/Downloads/Telink_IDE/toolchains/nds32le-elf-mculib-v5f/bin/../lib/gcc/riscv32-elf/7.4.0/../../../../riscv32-elf/lib/mext-dsp/libc.a(lib_a-strcpy.o)
                0x0000000000004a68                strcpy
 .text.strnlen  0x0000000000004ae6       0x18 /cygdrive/c/Users/SwaminathanK/Downloads/Telink_IDE/toolchains/nds32le-elf-mculib-v5f/bin/../lib/gcc/riscv32-elf/7.4.0/../../../../riscv32-elf/lib/mext-dsp/libc.a(lib_a-strnlen.o)
                0x0000000000004ae6                strnlen
 .text._sbrk    0x0000000000004afe       0x28 /cygdrive/c/Users/SwaminathanK/Downloads/Telink_IDE/toolchains/nds32le-elf-mculib-v5f/bin/../lib/gcc/riscv32-elf/7.4.0/../../../../riscv32-elf/lib/mext-dsp/libgloss.a(_sbrk.o)
                0x0000000000004afe                _sbrk
 *fill*         0x0000000000004b26        0x2 
 .text          0x0000000000004b28       0x30 /cygdrive/c/Users/SwaminathanK/Downloads/Telink_IDE/toolchains/nds32le-elf-mculib-v5f/bin/../lib/gcc/riscv32-elf/7.4.0/mext-dsp/libgcc.a(_lshrdi3.o)
                0x0000000000004b28                __lshrdi3
 .text          0x0000000000004b58       0x30 /cygdrive/c/Users/SwaminathanK/Downloads/Telink_IDE/toolchains/nds32le-elf-mculib-v5f/bin/../lib/gcc/riscv32-elf/7.4.0/mext-dsp/libgcc.a(_ashldi3.o)
                0x0000000000004b58                __ashldi3
 .text          0x0000000000004b88       0x60 /cygdrive/c/Users/SwaminathanK/Downloads/Telink_IDE/toolchains/nds32le-elf-mculib-v5f/bin/../lib/gcc/riscv32-elf/7.4.0/mext-dsp/libgcc.a(save-restore.o)
                0x0000000000004b88                __riscv_save_12
                0x0000000000004b90                __riscv_save_10
                0x0000000000004b90                __riscv_save_8
                0x0000000000004b90                __riscv_save_11
                0x0000000000004b90                __riscv_save_9
                0x0000000000004b9e                __riscv_save_4
                0x0000000000004b9e                __riscv_save_7
                0x0000000000004b9e                __riscv_save_6
                0x0000000000004b9e                __riscv_save_5
                0x0000000000004bb8                __riscv_save_3
                0x0000000000004bb8                __riscv_save_2
                0x0000000000004bb8                __riscv_save_0
                0x0000000000004bb8                __riscv_save_1
                0x0000000000004bc4                __riscv_restore_12
                0x0000000000004bc8                __riscv_restore_8
                0x0000000000004bc8                __riscv_restore_10
                0x0000000000004bc8                __riscv_restore_9
                0x0000000000004bc8                __riscv_restore_11
                0x0000000000004bd2                __riscv_restore_5
                0x0000000000004bd2                __riscv_restore_7
                0x0000000000004bd2                __riscv_restore_4
                0x0000000000004bd2                __riscv_restore_6
                0x0000000000004bdc                __riscv_restore_3
                0x0000000000004bdc                __riscv_restore_1
                0x0000000000004bdc                __riscv_restore_0
                0x0000000000004bdc                __riscv_restore_2
 *(.text.*personality*)
 *(.gnu.warning)
 *(.eh_frame)
 .eh_frame      0x0000000000004be8       0xf8 /cygdrive/c/Users/SwaminathanK/Downloads/Telink_IDE/toolchains/nds32le-elf-mculib-v5f/bin/../lib/gcc/riscv32-elf/7.4.0/mext-dsp/libgcc.a(save-restore.o)
 *(.eh_frame_hdr)
 *(.exec.itable)
                0x0000000000004ce0                PROVIDE (_RAMCODE_VMA_END = .)
                0x0000000000000200                PROVIDE (_RAMCODE_VMA_START = ADDR (.ram_code))
                0x0000000020000350                PROVIDE (_RAMCODE_LMA_START = LOADADDR (.ram_code))
                [!provide]                        PROVIDE (_RAMCODE_SIZE = SIZEOF (.ram_code))

.rela.dyn       0x0000000000004ce0        0x0 load address 0x0000000020004e30
 .rela.vectors  0x0000000000004ce0        0x0 ./boot/cstartup_flash.o
 .rela.retention_reset
                0x0000000000004ce0        0x0 ./boot/cstartup_flash.o
 .rela.ram_code
                0x0000000000004ce0        0x0 ./boot/cstartup_flash.o
 .rela.text.riscv_cfft_init_f32
                0x0000000000004ce0        0x0 ./boot/cstartup_flash.o
 .rela.text.riscv_cfft_f32
                0x0000000000004ce0        0x0 ./boot/cstartup_flash.o
 .rela.text.startup.main
                0x0000000000004ce0        0x0 ./boot/cstartup_flash.o
 .rela.text._malloc_r
                0x0000000000004ce0        0x0 ./boot/cstartup_flash.o
 .rela.text._sbrk
                0x0000000000004ce0        0x0 ./boot/cstartup_flash.o
                0x0000000000080000                . = 0x80000
                0x0000000000080800                PROVIDE (__global_pointer$ = (. + 0x800))

.data           0x0000000000080000    0x1596c load address 0x0000000020004e30
 *(.data .data.* .gnu.linkonce.d.*)
 .data.cst_libm_sincosf
                0x0000000000080000       0x1c /cygdrive/c/Users/SwaminathanK/Downloads/Telink_IDE/toolchains/nds32le-elf-mculib-v5f/bin/../lib/gcc/riscv32-elf/7.4.0/../../../../riscv32-elf/lib/mext-dsp/libm.a(lib_a-sinf.o)
                0x0000000000080000                cst_libm_sincosf
 *(.gnu.linkonce.d.*personality*)
 *(.rodata .rodata.* .gnu.linkonce.r.*)
 *fill*         0x000000000008001c        0x4 
 .rodata.main.cst8
                0x0000000000080020       0x20 /cygdrive/c/Users/SWAMIN~1/AppData/Local/Temp/cckzFaHM.ltrans0.ltrans.o
 .rodata.main.cst4
                0x0000000000080040        0x8 /cygdrive/c/Users/SWAMIN~1/AppData/Local/Temp/cckzFaHM.ltrans0.ltrans.o
 .rodata.main   0x0000000000080048       0x1c /cygdrive/c/Users/SWAMIN~1/AppData/Local/Temp/cckzFaHM.ltrans0.ltrans.o
 .rodata        0x0000000000080064       0x10 /cygdrive/c/Users/SWAMIN~1/AppData/Local/Temp/cckzFaHM.ltrans0.ltrans.o
 .rodata.FFT_SIZES
                0x0000000000080074       0x18 /cygdrive/c/Users/SWAMIN~1/AppData/Local/Temp/cckzFaHM.ltrans0.ltrans.o
 .rodata.main.str1.4
                0x000000000008008c      0x335 /cygdrive/c/Users/SWAMIN~1/AppData/Local/Temp/cckzFaHM.ltrans0.ltrans.o
                                        0x339 (size before relaxing)
 *fill*         0x00000000000803c1        0x3 
 .rodata.riscvBitRevIndexTable4096
                0x00000000000803c4     0x1f80 /cygdrive/C/Users/SwaminathanK/Desktop/Thesis/DSP Library/NMSIS-master/NMSIS-master/NMSIS/Library/DSP/GCC/libnmsis_dsp_rv32imfcp.a(riscv_common_tables.c.o)
                0x00000000000803c4                riscvBitRevIndexTable4096
 .rodata.riscvBitRevIndexTable2048
                0x0000000000082344     0x1dc0 /cygdrive/C/Users/SwaminathanK/Desktop/Thesis/DSP Library/NMSIS-master/NMSIS-master/NMSIS/Library/DSP/GCC/libnmsis_dsp_rv32imfcp.a(riscv_common_tables.c.o)
                0x0000000000082344                riscvBitRevIndexTable2048
 .rodata.riscvBitRevIndexTable1024
                0x0000000000084104      0xe10 /cygdrive/C/Users/SwaminathanK/Desktop/Thesis/DSP Library/NMSIS-master/NMSIS-master/NMSIS/Library/DSP/GCC/libnmsis_dsp_rv32imfcp.a(riscv_common_tables.c.o)
                0x0000000000084104                riscvBitRevIndexTable1024
 .rodata.riscvBitRevIndexTable512
                0x0000000000084f14      0x380 /cygdrive/C/Users/SwaminathanK/Desktop/Thesis/DSP Library/NMSIS-master/NMSIS-master/NMSIS/Library/DSP/GCC/libnmsis_dsp_rv32imfcp.a(riscv_common_tables.c.o)
                0x0000000000084f14                riscvBitRevIndexTable512
 .rodata.riscvBitRevIndexTable256
                0x0000000000085294      0x370 /cygdrive/C/Users/SwaminathanK/Desktop/Thesis/DSP Library/NMSIS-master/NMSIS-master/NMSIS/Library/DSP/GCC/libnmsis_dsp_rv32imfcp.a(riscv_common_tables.c.o)
                0x0000000000085294                riscvBitRevIndexTable256
 .rodata.riscvBitRevIndexTable128
                0x0000000000085604      0x1a0 /cygdrive/C/Users/SwaminathanK/Desktop/Thesis/DSP Library/NMSIS-master/NMSIS-master/NMSIS/Library/DSP/GCC/libnmsis_dsp_rv32imfcp.a(riscv_common_tables.c.o)
                0x0000000000085604                riscvBitRevIndexTable128
 .rodata.riscvBitRevIndexTable64
                0x00000000000857a4       0x70 /cygdrive/C/Users/SwaminathanK/Desktop/Thesis/DSP Library/NMSIS-master/NMSIS-master/NMSIS/Library/DSP/GCC/libnmsis_dsp_rv32imfcp.a(riscv_common_tables.c.o)
                0x00000000000857a4                riscvBitRevIndexTable64
 .rodata.riscvBitRevIndexTable32
                0x0000000000085814       0x60 /cygdrive/C/Users/SwaminathanK/Desktop/Thesis/DSP Library/NMSIS-master/NMSIS-master/NMSIS/Library/DSP/GCC/libnmsis_dsp_rv32imfcp.a(riscv_common_tables.c.o)
                0x0000000000085814                riscvBitRevIndexTable32
 .rodata.riscvBitRevIndexTable16
                0x0000000000085874       0x28 /cygdrive/C/Users/SwaminathanK/Desktop/Thesis/DSP Library/NMSIS-master/NMSIS-master/NMSIS/Library/DSP/GCC/libnmsis_dsp_rv32imfcp.a(riscv_common_tables.c.o)
                0x0000000000085874                riscvBitRevIndexTable16
 .rodata.twiddleCoef_4096
                0x000000000008589c     0x8000 /cygdrive/C/Users/SwaminathanK/Desktop/Thesis/DSP Library/NMSIS-master/NMSIS-master/NMSIS/Library/DSP/GCC/libnmsis_dsp_rv32imfcp.a(riscv_common_tables.c.o)
                0x000000000008589c                twiddleCoef_4096
 .rodata.twiddleCoef_2048
                0x000000000008d89c     0x4000 /cygdrive/C/Users/SwaminathanK/Desktop/Thesis/DSP Library/NMSIS-master/NMSIS-master/NMSIS/Library/DSP/GCC/libnmsis_dsp_rv32imfcp.a(riscv_common_tables.c.o)
                0x000000000008d89c                twiddleCoef_2048
 .rodata.twiddleCoef_1024
                0x000000000009189c     0x2000 /cygdrive/C/Users/SwaminathanK/Desktop/Thesis/DSP Library/NMSIS-master/NMSIS-master/NMSIS/Library/DSP/GCC/libnmsis_dsp_rv32imfcp.a(riscv_common_tables.c.o)
                0x000000000009189c                twiddleCoef_1024
 .rodata.twiddleCoef_512
                0x000000000009389c     0x1000 /cygdrive/C/Users/SwaminathanK/Desktop/Thesis/DSP Library/NMSIS-master/NMSIS-master/NMSIS/Library/DSP/GCC/libnmsis_dsp_rv32imfcp.a(riscv_common_tables.c.o)
                0x000000000009389c                twiddleCoef_512
 .rodata.twiddleCoef_256
                0x000000000009489c      0x800 /cygdrive/C/Users/SwaminathanK/Desktop/Thesis/DSP Library/NMSIS-master/NMSIS-master/NMSIS/Library/DSP/GCC/libnmsis_dsp_rv32imfcp.a(riscv_common_tables.c.o)
                0x000000000009489c                twiddleCoef_256
 .rodata.twiddleCoef_128
                0x000000000009509c      0x400 /cygdrive/C/Users/SwaminathanK/Desktop/Thesis/DSP Library/NMSIS-master/NMSIS-master/NMSIS/Library/DSP/GCC/libnmsis_dsp_rv32imfcp.a(riscv_common_tables.c.o)
                0x000000000009509c                twiddleCoef_128
 .rodata.twiddleCoef_64
                0x000000000009549c      0x200 /cygdrive/C/Users/SwaminathanK/Desktop/Thesis/DSP Library/NMSIS-master/NMSIS-master/NMSIS/Library/DSP/GCC/libnmsis_dsp_rv32imfcp.a(riscv_common_tables.c.o)
                0x000000000009549c                twiddleCoef_64
 .rodata.twiddleCoef_32
                0x000000000009569c      0x100 /cygdrive/C/Users/SwaminathanK/Desktop/Thesis/DSP Library/NMSIS-master/NMSIS-master/NMSIS/Library/DSP/GCC/libnmsis_dsp_rv32imfcp.a(riscv_common_tables.c.o)
                0x000000000009569c                twiddleCoef_32
 .rodata.twiddleCoef_16
                0x000000000009579c       0x80 /cygdrive/C/Users/SwaminathanK/Desktop/Thesis/DSP Library/NMSIS-master/NMSIS-master/NMSIS/Library/DSP/GCC/libnmsis_dsp_rv32imfcp.a(riscv_common_tables.c.o)
                0x000000000009579c                twiddleCoef_16
 .rodata.riscv_cfft_f32.cst4
                0x000000000009581c        0x4 /cygdrive/C/Users/SwaminathanK/Desktop/Thesis/DSP Library/NMSIS-master/NMSIS-master/NMSIS/Library/DSP/GCC/libnmsis_dsp_rv32imfcp.a(riscv_cfft_f32.c.o)
 .rodata.riscv_cfft_sR_f32_len4096
                0x0000000000095820       0x10 /cygdrive/C/Users/SwaminathanK/Desktop/Thesis/DSP Library/NMSIS-master/NMSIS-master/NMSIS/Library/DSP/GCC/libnmsis_dsp_rv32imfcp.a(riscv_const_structs.c.o)
                0x0000000000095820                riscv_cfft_sR_f32_len4096
 .rodata.riscv_cfft_sR_f32_len2048
                0x0000000000095830       0x10 /cygdrive/C/Users/SwaminathanK/Desktop/Thesis/DSP Library/NMSIS-master/NMSIS-master/NMSIS/Library/DSP/GCC/libnmsis_dsp_rv32imfcp.a(riscv_const_structs.c.o)
                0x0000000000095830                riscv_cfft_sR_f32_len2048
 .rodata.riscv_cfft_sR_f32_len1024
                0x0000000000095840       0x10 /cygdrive/C/Users/SwaminathanK/Desktop/Thesis/DSP Library/NMSIS-master/NMSIS-master/NMSIS/Library/DSP/GCC/libnmsis_dsp_rv32imfcp.a(riscv_const_structs.c.o)
                0x0000000000095840                riscv_cfft_sR_f32_len1024
 .rodata.riscv_cfft_sR_f32_len512
                0x0000000000095850       0x10 /cygdrive/C/Users/SwaminathanK/Desktop/Thesis/DSP Library/NMSIS-master/NMSIS-master/NMSIS/Library/DSP/GCC/libnmsis_dsp_rv32imfcp.a(riscv_const_structs.c.o)
                0x0000000000095850                riscv_cfft_sR_f32_len512
 .rodata.riscv_cfft_sR_f32_len256
                0x0000000000095860       0x10 /cygdrive/C/Users/SwaminathanK/Desktop/Thesis/DSP Library/NMSIS-master/NMSIS-master/NMSIS/Library/DSP/GCC/libnmsis_dsp_rv32imfcp.a(riscv_const_structs.c.o)
                0x0000000000095860                riscv_cfft_sR_f32_len256
 .rodata.riscv_cfft_sR_f32_len128
                0x0000000000095870       0x10 /cygdrive/C/Users/SwaminathanK/Desktop/Thesis/DSP Library/NMSIS-master/NMSIS-master/NMSIS/Library/DSP/GCC/libnmsis_dsp_rv32imfcp.a(riscv_const_structs.c.o)
                0x0000000000095870                riscv_cfft_sR_f32_len128
 .rodata.riscv_cfft_sR_f32_len64
                0x0000000000095880       0x10 /cygdrive/C/Users/SwaminathanK/Desktop/Thesis/DSP Library/NMSIS-master/NMSIS-master/NMSIS/Library/DSP/GCC/libnmsis_dsp_rv32imfcp.a(riscv_const_structs.c.o)
                0x0000000000095880                riscv_cfft_sR_f32_len64
 .rodata.riscv_cfft_sR_f32_len32
                0x0000000000095890       0x10 /cygdrive/C/Users/SwaminathanK/Desktop/Thesis/DSP Library/NMSIS-master/NMSIS-master/NMSIS/Library/DSP/GCC/libnmsis_dsp_rv32imfcp.a(riscv_const_structs.c.o)
                0x0000000000095890                riscv_cfft_sR_f32_len32
 .rodata.riscv_cfft_sR_f32_len16
                0x00000000000958a0       0x10 /cygdrive/C/Users/SwaminathanK/Desktop/Thesis/DSP Library/NMSIS-master/NMSIS-master/NMSIS/Library/DSP/GCC/libnmsis_dsp_rv32imfcp.a(riscv_const_structs.c.o)
                0x00000000000958a0                riscv_cfft_sR_f32_len16
 .rodata.riscv_radix8_butterfly_f32.cst4
                0x00000000000958b0        0x4 /cygdrive/C/Users/SwaminathanK/Desktop/Thesis/DSP Library/NMSIS-master/NMSIS-master/NMSIS/Library/DSP/GCC/libnmsis_dsp_rv32imfcp.a(riscv_cfft_radix8_f32.c.o)
 .rodata.sinf.cst4
                0x00000000000958b4        0x4 /cygdrive/c/Users/SwaminathanK/Downloads/Telink_IDE/toolchains/nds32le-elf-mculib-v5f/bin/../lib/gcc/riscv32-elf/7.4.0/../../../../riscv32-elf/lib/mext-dsp/libm.a(lib_a-sinf.o)
 .rodata.ref__mathlib_rredf2.cst4
                0x00000000000958b8       0x14 /cygdrive/c/Users/SwaminathanK/Downloads/Telink_IDE/toolchains/nds32le-elf-mculib-v5f/bin/../lib/gcc/riscv32-elf/7.4.0/../../../../riscv32-elf/lib/mext-dsp/libm.a(lib_a-ref_rredf.o)
 .rodata.cst_libm_rredf
                0x00000000000958cc       0x18 /cygdrive/c/Users/SwaminathanK/Downloads/Telink_IDE/toolchains/nds32le-elf-mculib-v5f/bin/../lib/gcc/riscv32-elf/7.4.0/../../../../riscv32-elf/lib/mext-dsp/libm.a(lib_a-ref_rredf.o)
                0x00000000000958cc                cst_libm_rredf
 .rodata.twooverpi.2618
                0x00000000000958e4       0x20 /cygdrive/c/Users/SwaminathanK/Downloads/Telink_IDE/toolchains/nds32le-elf-mculib-v5f/bin/../lib/gcc/riscv32-elf/7.4.0/../../../../riscv32-elf/lib/mext-dsp/libm.a(lib_a-ref_rredf.o)
 .rodata        0x0000000000095904       0x40 /cygdrive/c/Users/SwaminathanK/Downloads/Telink_IDE/toolchains/nds32le-elf-mculib-v5f/bin/../lib/gcc/riscv32-elf/7.4.0/mext-dsp/libgcc.a(muldf3.o)
 .rodata.__digits
                0x0000000000095944       0x10 /cygdrive/c/Users/SwaminathanK/Downloads/Telink_IDE/toolchains/nds32le-elf-mculib-v5f/bin/../lib/gcc/riscv32-elf/7.4.0/../../../../riscv32-elf/lib/mext-dsp/libc.a(lib_a-printf_data.o)
                0x0000000000095944                __digits
 .rodata.__printf_float_impl.str1.4
                0x0000000000095954        0x8 /cygdrive/c/Users/SwaminathanK/Downloads/Telink_IDE/toolchains/nds32le-elf-mculib-v5f/bin/../lib/gcc/riscv32-elf/7.4.0/../../../../riscv32-elf/lib/mext-dsp/libc.a(lib_a-printf_impl_float.o)
 *(.srodata.cst16)
 *(.srodata.cst8)
 *(.srodata.cst4)
 *(.srodata.cst2)
 *(.srodata .srodata.*)
 *(.sdata .sdata.* .gnu.linkonce.s.*)
 .sdata.init_flag.5287
                0x000000000009595c        0x1 /cygdrive/c/Users/SWAMIN~1/AppData/Local/Temp/cckzFaHM.ltrans0.ltrans.o
 *fill*         0x000000000009595d        0x3 
 .sdata.sys_clk
                0x0000000000095960        0x6 /cygdrive/c/Users/SWAMIN~1/AppData/Local/Temp/cckzFaHM.ltrans0.ltrans.o
 *fill*         0x0000000000095966        0x2 
 .sdata._impure_ptr
                0x0000000000095968        0x4 /cygdrive/c/Users/SwaminathanK/Downloads/Telink_IDE/toolchains/nds32le-elf-mculib-v5f/bin/../lib/gcc/riscv32-elf/7.4.0/../../../../riscv32-elf/lib/mext-dsp/libc.a(lib_a-impure.o)
                0x0000000000095968                _impure_ptr
 *(.sdata2 .sdata2.* .gnu.linkonce.s.*)
                0x000000000009596c                PROVIDE (_DATA_VMA_END = .)
                0x0000000000080000                PROVIDE (_DATA_VMA_START = ADDR (.data))
                0x0000000020004e30                PROVIDE (_DATA_LMA_START = LOADADDR (.data))
                0x0000000000095970                . = ALIGN (0x8)
                0x0000000000095970                PROVIDE (_BSS_VMA_START = .)

.sbss           0x0000000000095970       0x3c load address 0x000000002001a7a0
 *(.dynsbss)
 *(.sbss .sbss.* .gnu.linkonce.sb.*)
 .sbss.clkFastfreq
                0x0000000000095970        0x4 /cygdrive/c/Users/SWAMIN~1/AppData/Local/Temp/cckzFaHM.ltrans0.ltrans.o
 .sbss.exception_mcause
                0x0000000000095974        0x4 /cygdrive/c/Users/SWAMIN~1/AppData/Local/Temp/cckzFaHM.ltrans0.ltrans.o
 .sbss.exception_mdcause
                0x0000000000095978        0x4 /cygdrive/c/Users/SWAMIN~1/AppData/Local/Temp/cckzFaHM.ltrans0.ltrans.o
 .sbss.exception_mepc
                0x000000000009597c        0x4 /cygdrive/c/Users/SWAMIN~1/AppData/Local/Temp/cckzFaHM.ltrans0.ltrans.o
 .sbss.exception_mstatus
                0x0000000000095980        0x4 /cygdrive/c/Users/SWAMIN~1/AppData/Local/Temp/cckzFaHM.ltrans0.ltrans.o
 .sbss.exception_mtval
                0x0000000000095984        0x4 /cygdrive/c/Users/SWAMIN~1/AppData/Local/Temp/cckzFaHM.ltrans0.ltrans.o
 .sbss.g_chip_version
                0x0000000000095988        0x4 /cygdrive/c/Users/SWAMIN~1/AppData/Local/Temp/cckzFaHM.ltrans0.ltrans.o
 .sbss.g_pm_status_info
                0x000000000009598c        0x4 /cygdrive/c/Users/SWAMIN~1/AppData/Local/Temp/cckzFaHM.ltrans0.ltrans.o
 .sbss.__mculib_REENT_errno
                0x0000000000095990        0x4 /cygdrive/c/Users/SwaminathanK/Downloads/Telink_IDE/toolchains/nds32le-elf-mculib-v5f/bin/../lib/gcc/riscv32-elf/7.4.0/../../../../riscv32-elf/lib/mext-dsp/libc.a(lib_a-errno.o)
                0x0000000000095990                __mculib_REENT_errno
 .sbss.__malloc_free_list
                0x0000000000095994        0x4 /cygdrive/c/Users/SwaminathanK/Downloads/Telink_IDE/toolchains/nds32le-elf-mculib-v5f/bin/../lib/gcc/riscv32-elf/7.4.0/../../../../riscv32-elf/lib/mext-dsp/libc.a(lib_a-nano-mallocr.o)
                0x0000000000095994                __malloc_free_list
 .sbss.__malloc_sbrk_start
                0x0000000000095998        0x4 /cygdrive/c/Users/SwaminathanK/Downloads/Telink_IDE/toolchains/nds32le-elf-mculib-v5f/bin/../lib/gcc/riscv32-elf/7.4.0/../../../../riscv32-elf/lib/mext-dsp/libc.a(lib_a-nano-mallocr.o)
                0x0000000000095998                __malloc_sbrk_start
 .sbss.__vprintf_buf
                0x000000000009599c        0x4 /cygdrive/c/Users/SwaminathanK/Downloads/Telink_IDE/toolchains/nds32le-elf-mculib-v5f/bin/../lib/gcc/riscv32-elf/7.4.0/../../../../riscv32-elf/lib/mext-dsp/libc.a(lib_a-vprintf.o)
 .sbss.__vprintf_buf_len
                0x00000000000959a0        0x4 /cygdrive/c/Users/SwaminathanK/Downloads/Telink_IDE/toolchains/nds32le-elf-mculib-v5f/bin/../lib/gcc/riscv32-elf/7.4.0/../../../../riscv32-elf/lib/mext-dsp/libc.a(lib_a-vprintf.o)
 .sbss.__printf_count
                0x00000000000959a4        0x4 /cygdrive/c/Users/SwaminathanK/Downloads/Telink_IDE/toolchains/nds32le-elf-mculib-v5f/bin/../lib/gcc/riscv32-elf/7.4.0/../../../../riscv32-elf/lib/mext-dsp/libc.a(lib_a-printf_data.o)
                0x00000000000959a4                __printf_count
 .sbss.heap_end.2408
                0x00000000000959a8        0x4 /cygdrive/c/Users/SwaminathanK/Downloads/Telink_IDE/toolchains/nds32le-elf-mculib-v5f/bin/../lib/gcc/riscv32-elf/7.4.0/../../../../riscv32-elf/lib/mext-dsp/libgloss.a(_sbrk.o)
 *(.scommon .scommon.*)

.bss            0x00000000000959ac        0x4 load address 0x000000002001a7dc
 *(.dynbss)
 *(.bss .bss.* .gnu.linkonce.b.*)
 .bss.impure_data
                0x00000000000959ac        0x0 /cygdrive/c/Users/SwaminathanK/Downloads/Telink_IDE/toolchains/nds32le-elf-mculib-v5f/bin/../lib/gcc/riscv32-elf/7.4.0/../../../../riscv32-elf/lib/mext-dsp/libc.a(lib_a-impure.o)
 *(COMMON)
                0x00000000000959b0                . = ALIGN (0x8)
 *fill*         0x00000000000959ac        0x4 
                0x00000000000959b0                PROVIDE (_BSS_VMA_END = .)

.sdk_version    0x00000000000959b0       0x22 load address 0x000000002001a79c
 *(.sdk_version)
 .sdk_version   0x00000000000959b0       0x22 /cygdrive/c/Users/SWAMIN~1/AppData/Local/Temp/cckzFaHM.ltrans0.ltrans.o
                0x000000000001a7be                PROVIDE (BIN_SIZE = ((LOADADDR (.sdk_version) + SIZEOF (.sdk_version)) - BIN_BEGIN))
                0x00000000000959d8                . = ALIGN (0x8)
                0x00000000000959d8                _end = .
                [!provide]                        PROVIDE (end = .)
                0x00000000000a0000                PROVIDE (_STACK_TOP = 0xa0000)
                0x0000000000100000                PROVIDE (FLASH_SIZE = 0x100000)
                0x0000000000000001                ASSERT ((BIN_SIZE <= FLASH_SIZE), BIN FILE OVERFLOW)
OUTPUT(NMSIS_DSP_FFT_Benchmark.adx elf32-littleriscv)

.comment        0x0000000000000000       0x49
 .comment       0x0000000000000000       0x37 /cygdrive/c/Users/SWAMIN~1/AppData/Local/Temp/cckzFaHM.ltrans0.ltrans.o
                                         0x38 (size before relaxing)
 .comment       0x0000000000000037       0x12 /cygdrive/C/Users/SwaminathanK/Desktop/Thesis/DSP Library/NMSIS-master/NMSIS-master/NMSIS/Library/DSP/GCC/libnmsis_dsp_rv32imfcp.a(riscv_common_tables.c.o)
                                         0x13 (size before relaxing)
 .comment       0x0000000000000049       0x13 /cygdrive/C/Users/SwaminathanK/Desktop/Thesis/DSP Library/NMSIS-master/NMSIS-master/NMSIS/Library/DSP/GCC/libnmsis_dsp_rv32imfcp.a(riscv_cfft_init_f32.c.o)
 .comment       0x0000000000000049       0x13 /cygdrive/C/Users/SwaminathanK/Desktop/Thesis/DSP Library/NMSIS-master/NMSIS-master/NMSIS/Library/DSP/GCC/libnmsis_dsp_rv32imfcp.a(riscv_bitreversal2.c.o)
 .comment       0x0000000000000049       0x13 /cygdrive/C/Users/SwaminathanK/Desktop/Thesis/DSP Library/NMSIS-master/NMSIS-master/NMSIS/Library/DSP/GCC/libnmsis_dsp_rv32imfcp.a(riscv_cfft_f32.c.o)
 .comment       0x0000000000000049       0x13 /cygdrive/C/Users/SwaminathanK/Desktop/Thesis/DSP Library/NMSIS-master/NMSIS-master/NMSIS/Library/DSP/GCC/libnmsis_dsp_rv32imfcp.a(riscv_const_structs.c.o)
 .comment       0x0000000000000049       0x13 /cygdrive/C/Users/SwaminathanK/Desktop/Thesis/DSP Library/NMSIS-master/NMSIS-master/NMSIS/Library/DSP/GCC/libnmsis_dsp_rv32imfcp.a(riscv_cfft_radix8_f32.c.o)
 .comment       0x0000000000000049       0x38 /cygdrive/c/Users/SwaminathanK/Downloads/Telink_IDE/toolchains/nds32le-elf-mculib-v5f/bin/../lib/gcc/riscv32-elf/7.4.0/../../../../riscv32-elf/lib/mext-dsp/libm.a(lib_a-sinf.o)
 .comment       0x0000000000000049       0x38 /cygdrive/c/Users/SwaminathanK/Downloads/Telink_IDE/toolchains/nds32le-elf-mculib-v5f/bin/../lib/gcc/riscv32-elf/7.4.0/../../../../riscv32-elf/lib/mext-dsp/libm.a(lib_a-ref_rredf.o)
 .comment       0x0000000000000049       0x38 /cygdrive/c/Users/SwaminathanK/Downloads/Telink_IDE/toolchains/nds32le-elf-mculib-v5f/bin/../lib/gcc/riscv32-elf/7.4.0/mext-dsp/libgcc.a(gedf2.o)
 .comment       0x0000000000000049       0x38 /cygdrive/c/Users/SwaminathanK/Downloads/Telink_IDE/toolchains/nds32le-elf-mculib-v5f/bin/../lib/gcc/riscv32-elf/7.4.0/mext-dsp/libgcc.a(muldf3.o)
 .comment       0x0000000000000049       0x38 /cygdrive/c/Users/SwaminathanK/Downloads/Telink_IDE/toolchains/nds32le-elf-mculib-v5f/bin/../lib/gcc/riscv32-elf/7.4.0/mext-dsp/libgcc.a(fixunsdfsi.o)
 .comment       0x0000000000000049       0x38 /cygdrive/c/Users/SwaminathanK/Downloads/Telink_IDE/toolchains/nds32le-elf-mculib-v5f/bin/../lib/gcc/riscv32-elf/7.4.0/mext-dsp/libgcc.a(floatsidf.o)
 .comment       0x0000000000000049       0x38 /cygdrive/c/Users/SwaminathanK/Downloads/Telink_IDE/toolchains/nds32le-elf-mculib-v5f/bin/../lib/gcc/riscv32-elf/7.4.0/mext-dsp/libgcc.a(extendsfdf2.o)
 .comment       0x0000000000000049       0x38 /cygdrive/c/Users/SwaminathanK/Downloads/Telink_IDE/toolchains/nds32le-elf-mculib-v5f/bin/../lib/gcc/riscv32-elf/7.4.0/mext-dsp/libgcc.a(truncdfsf2.o)
 .comment       0x0000000000000049       0x38 /cygdrive/c/Users/SwaminathanK/Downloads/Telink_IDE/toolchains/nds32le-elf-mculib-v5f/bin/../lib/gcc/riscv32-elf/7.4.0/../../../../riscv32-elf/lib/mext-dsp/libc.a(lib_a-errno.o)
 .comment       0x0000000000000049       0x38 /cygdrive/c/Users/SwaminathanK/Downloads/Telink_IDE/toolchains/nds32le-elf-mculib-v5f/bin/../lib/gcc/riscv32-elf/7.4.0/../../../../riscv32-elf/lib/mext-dsp/libc.a(lib_a-malloc.o)
 .comment       0x0000000000000049       0x38 /cygdrive/c/Users/SwaminathanK/Downloads/Telink_IDE/toolchains/nds32le-elf-mculib-v5f/bin/../lib/gcc/riscv32-elf/7.4.0/../../../../riscv32-elf/lib/mext-dsp/libc.a(lib_a-memcpy.o)
 .comment       0x0000000000000049       0x38 /cygdrive/c/Users/SwaminathanK/Downloads/Telink_IDE/toolchains/nds32le-elf-mculib-v5f/bin/../lib/gcc/riscv32-elf/7.4.0/../../../../riscv32-elf/lib/mext-dsp/libc.a(lib_a-nano-freer.o)
 .comment       0x0000000000000049       0x38 /cygdrive/c/Users/SwaminathanK/Downloads/Telink_IDE/toolchains/nds32le-elf-mculib-v5f/bin/../lib/gcc/riscv32-elf/7.4.0/../../../../riscv32-elf/lib/mext-dsp/libc.a(lib_a-nano-mallocr.o)
 .comment       0x0000000000000049       0x38 /cygdrive/c/Users/SwaminathanK/Downloads/Telink_IDE/toolchains/nds32le-elf-mculib-v5f/bin/../lib/gcc/riscv32-elf/7.4.0/../../../../riscv32-elf/lib/mext-dsp/libc.a(lib_a-printf.o)
 .comment       0x0000000000000049       0x38 /cygdrive/c/Users/SwaminathanK/Downloads/Telink_IDE/toolchains/nds32le-elf-mculib-v5f/bin/../lib/gcc/riscv32-elf/7.4.0/../../../../riscv32-elf/lib/mext-dsp/libc.a(lib_a-puts.o)
 .comment       0x0000000000000049       0x38 /cygdrive/c/Users/SwaminathanK/Downloads/Telink_IDE/toolchains/nds32le-elf-mculib-v5f/bin/../lib/gcc/riscv32-elf/7.4.0/../../../../riscv32-elf/lib/mext-dsp/libc.a(lib_a-strlen.o)
 .comment       0x0000000000000049       0x38 /cygdrive/c/Users/SwaminathanK/Downloads/Telink_IDE/toolchains/nds32le-elf-mculib-v5f/bin/../lib/gcc/riscv32-elf/7.4.0/../../../../riscv32-elf/lib/mext-dsp/libc.a(lib_a-vprintf.o)
 .comment       0x0000000000000049       0x38 /cygdrive/c/Users/SwaminathanK/Downloads/Telink_IDE/toolchains/nds32le-elf-mculib-v5f/bin/../lib/gcc/riscv32-elf/7.4.0/../../../../riscv32-elf/lib/mext-dsp/libc.a(lib_a-impure.o)
 .comment       0x0000000000000049       0x38 /cygdrive/c/Users/SwaminathanK/Downloads/Telink_IDE/toolchains/nds32le-elf-mculib-v5f/bin/../lib/gcc/riscv32-elf/7.4.0/../../../../riscv32-elf/lib/mext-dsp/libc.a(lib_a-printf_data.o)
 .comment       0x0000000000000049       0x38 /cygdrive/c/Users/SwaminathanK/Downloads/Telink_IDE/toolchains/nds32le-elf-mculib-v5f/bin/../lib/gcc/riscv32-elf/7.4.0/../../../../riscv32-elf/lib/mext-dsp/libc.a(lib_a-printf_impl.o)
 .comment       0x0000000000000049       0x38 /cygdrive/c/Users/SwaminathanK/Downloads/Telink_IDE/toolchains/nds32le-elf-mculib-v5f/bin/../lib/gcc/riscv32-elf/7.4.0/../../../../riscv32-elf/lib/mext-dsp/libc.a(lib_a-printf_impl_float.o)
 .comment       0x0000000000000049       0x38 /cygdrive/c/Users/SwaminathanK/Downloads/Telink_IDE/toolchains/nds32le-elf-mculib-v5f/bin/../lib/gcc/riscv32-elf/7.4.0/../../../../riscv32-elf/lib/mext-dsp/libc.a(lib_a-strcpy.o)
 .comment       0x0000000000000049       0x38 /cygdrive/c/Users/SwaminathanK/Downloads/Telink_IDE/toolchains/nds32le-elf-mculib-v5f/bin/../lib/gcc/riscv32-elf/7.4.0/../../../../riscv32-elf/lib/mext-dsp/libc.a(lib_a-strnlen.o)
 .comment       0x0000000000000049       0x38 /cygdrive/c/Users/SwaminathanK/Downloads/Telink_IDE/toolchains/nds32le-elf-mculib-v5f/bin/../lib/gcc/riscv32-elf/7.4.0/../../../../riscv32-elf/lib/mext-dsp/libgloss.a(_sbrk.o)
 .comment       0x0000000000000049       0x38 /cygdrive/c/Users/SwaminathanK/Downloads/Telink_IDE/toolchains/nds32le-elf-mculib-v5f/bin/../lib/gcc/riscv32-elf/7.4.0/mext-dsp/libgcc.a(_lshrdi3.o)
 .comment       0x0000000000000049       0x38 /cygdrive/c/Users/SwaminathanK/Downloads/Telink_IDE/toolchains/nds32le-elf-mculib-v5f/bin/../lib/gcc/riscv32-elf/7.4.0/mext-dsp/libgcc.a(_ashldi3.o)

.riscv.attributes
                0x0000000000000000       0x40
 .riscv.attributes
                0x0000000000000000       0x3d /cygdrive/c/Users/SWAMIN~1/AppData/Local/Temp/cckzFaHM.ltrans0.ltrans.o
 .riscv.attributes
                0x000000000000003d       0x39 ./boot/cstartup_flash.o
 .riscv.attributes
                0x0000000000000076       0x32 /cygdrive/C/Users/SwaminathanK/Desktop/Thesis/DSP Library/NMSIS-master/NMSIS-master/NMSIS/Library/DSP/GCC/libnmsis_dsp_rv32imfcp.a(riscv_common_tables.c.o)
 .riscv.attributes
                0x00000000000000a8       0x32 /cygdrive/C/Users/SwaminathanK/Desktop/Thesis/DSP Library/NMSIS-master/NMSIS-master/NMSIS/Library/DSP/GCC/libnmsis_dsp_rv32imfcp.a(riscv_cfft_init_f32.c.o)
 .riscv.attributes
                0x00000000000000da       0x32 /cygdrive/C/Users/SwaminathanK/Desktop/Thesis/DSP Library/NMSIS-master/NMSIS-master/NMSIS/Library/DSP/GCC/libnmsis_dsp_rv32imfcp.a(riscv_bitreversal2.c.o)
 .riscv.attributes
                0x000000000000010c       0x32 /cygdrive/C/Users/SwaminathanK/Desktop/Thesis/DSP Library/NMSIS-master/NMSIS-master/NMSIS/Library/DSP/GCC/libnmsis_dsp_rv32imfcp.a(riscv_cfft_f32.c.o)
 .riscv.attributes
                0x000000000000013e       0x32 /cygdrive/C/Users/SwaminathanK/Desktop/Thesis/DSP Library/NMSIS-master/NMSIS-master/NMSIS/Library/DSP/GCC/libnmsis_dsp_rv32imfcp.a(riscv_const_structs.c.o)
 .riscv.attributes
                0x0000000000000170       0x32 /cygdrive/C/Users/SwaminathanK/Desktop/Thesis/DSP Library/NMSIS-master/NMSIS-master/NMSIS/Library/DSP/GCC/libnmsis_dsp_rv32imfcp.a(riscv_cfft_radix8_f32.c.o)
 .riscv.attributes
                0x00000000000001a2       0x3b /cygdrive/c/Users/SwaminathanK/Downloads/Telink_IDE/toolchains/nds32le-elf-mculib-v5f/bin/../lib/gcc/riscv32-elf/7.4.0/../../../../riscv32-elf/lib/mext-dsp/libm.a(lib_a-sinf.o)
 .riscv.attributes
                0x00000000000001dd       0x3b /cygdrive/c/Users/SwaminathanK/Downloads/Telink_IDE/toolchains/nds32le-elf-mculib-v5f/bin/../lib/gcc/riscv32-elf/7.4.0/../../../../riscv32-elf/lib/mext-dsp/libm.a(lib_a-ref_rredf.o)
 .riscv.attributes
                0x0000000000000218       0x3b /cygdrive/c/Users/SwaminathanK/Downloads/Telink_IDE/toolchains/nds32le-elf-mculib-v5f/bin/../lib/gcc/riscv32-elf/7.4.0/mext-dsp/libgcc.a(gedf2.o)
 .riscv.attributes
                0x0000000000000253       0x3b /cygdrive/c/Users/SwaminathanK/Downloads/Telink_IDE/toolchains/nds32le-elf-mculib-v5f/bin/../lib/gcc/riscv32-elf/7.4.0/mext-dsp/libgcc.a(muldf3.o)
 .riscv.attributes
                0x000000000000028e       0x3b /cygdrive/c/Users/SwaminathanK/Downloads/Telink_IDE/toolchains/nds32le-elf-mculib-v5f/bin/../lib/gcc/riscv32-elf/7.4.0/mext-dsp/libgcc.a(fixunsdfsi.o)
 .riscv.attributes
                0x00000000000002c9       0x3b /cygdrive/c/Users/SwaminathanK/Downloads/Telink_IDE/toolchains/nds32le-elf-mculib-v5f/bin/../lib/gcc/riscv32-elf/7.4.0/mext-dsp/libgcc.a(floatsidf.o)
 .riscv.attributes
                0x0000000000000304       0x3b /cygdrive/c/Users/SwaminathanK/Downloads/Telink_IDE/toolchains/nds32le-elf-mculib-v5f/bin/../lib/gcc/riscv32-elf/7.4.0/mext-dsp/libgcc.a(extendsfdf2.o)
 .riscv.attributes
                0x000000000000033f       0x3b /cygdrive/c/Users/SwaminathanK/Downloads/Telink_IDE/toolchains/nds32le-elf-mculib-v5f/bin/../lib/gcc/riscv32-elf/7.4.0/mext-dsp/libgcc.a(truncdfsf2.o)
 .riscv.attributes
                0x000000000000037a       0x3b /cygdrive/c/Users/SwaminathanK/Downloads/Telink_IDE/toolchains/nds32le-elf-mculib-v5f/bin/../lib/gcc/riscv32-elf/7.4.0/../../../../riscv32-elf/lib/mext-dsp/libc.a(lib_a-errno.o)
 .riscv.attributes
                0x00000000000003b5       0x3b /cygdrive/c/Users/SwaminathanK/Downloads/Telink_IDE/toolchains/nds32le-elf-mculib-v5f/bin/../lib/gcc/riscv32-elf/7.4.0/../../../../riscv32-elf/lib/mext-dsp/libc.a(lib_a-malloc.o)
 .riscv.attributes
                0x00000000000003f0       0x3b /cygdrive/c/Users/SwaminathanK/Downloads/Telink_IDE/toolchains/nds32le-elf-mculib-v5f/bin/../lib/gcc/riscv32-elf/7.4.0/../../../../riscv32-elf/lib/mext-dsp/libc.a(lib_a-memcpy.o)
 .riscv.attributes
                0x000000000000042b       0x39 /cygdrive/c/Users/SwaminathanK/Downloads/Telink_IDE/toolchains/nds32le-elf-mculib-v5f/bin/../lib/gcc/riscv32-elf/7.4.0/../../../../riscv32-elf/lib/mext-dsp/libc.a(lib_a-memset.o)
 .riscv.attributes
                0x0000000000000464       0x3b /cygdrive/c/Users/SwaminathanK/Downloads/Telink_IDE/toolchains/nds32le-elf-mculib-v5f/bin/../lib/gcc/riscv32-elf/7.4.0/../../../../riscv32-elf/lib/mext-dsp/libc.a(lib_a-nano-freer.o)
 .riscv.attributes
                0x000000000000049f       0x3b /cygdrive/c/Users/SwaminathanK/Downloads/Telink_IDE/toolchains/nds32le-elf-mculib-v5f/bin/../lib/gcc/riscv32-elf/7.4.0/../../../../riscv32-elf/lib/mext-dsp/libc.a(lib_a-nano-mallocr.o)
 .riscv.attributes
                0x00000000000004da       0x3b /cygdrive/c/Users/SwaminathanK/Downloads/Telink_IDE/toolchains/nds32le-elf-mculib-v5f/bin/../lib/gcc/riscv32-elf/7.4.0/../../../../riscv32-elf/lib/mext-dsp/libc.a(lib_a-printf.o)
 .riscv.attributes
                0x0000000000000515       0x3b /cygdrive/c/Users/SwaminathanK/Downloads/Telink_IDE/toolchains/nds32le-elf-mculib-v5f/bin/../lib/gcc/riscv32-elf/7.4.0/../../../../riscv32-elf/lib/mext-dsp/libc.a(lib_a-puts.o)
 .riscv.attributes
                0x0000000000000550       0x3b /cygdrive/c/Users/SwaminathanK/Downloads/Telink_IDE/toolchains/nds32le-elf-mculib-v5f/bin/../lib/gcc/riscv32-elf/7.4.0/../../../../riscv32-elf/lib/mext-dsp/libc.a(lib_a-strlen.o)
 .riscv.attributes
                0x000000000000058b       0x3b /cygdrive/c/Users/SwaminathanK/Downloads/Telink_IDE/toolchains/nds32le-elf-mculib-v5f/bin/../lib/gcc/riscv32-elf/7.4.0/../../../../riscv32-elf/lib/mext-dsp/libc.a(lib_a-vprintf.o)
 .riscv.attributes
                0x00000000000005c6       0x3b /cygdrive/c/Users/SwaminathanK/Downloads/Telink_IDE/toolchains/nds32le-elf-mculib-v5f/bin/../lib/gcc/riscv32-elf/7.4.0/../../../../riscv32-elf/lib/mext-dsp/libc.a(lib_a-impure.o)
 .riscv.attributes
                0x0000000000000601       0x3b /cygdrive/c/Users/SwaminathanK/Downloads/Telink_IDE/toolchains/nds32le-elf-mculib-v5f/bin/../lib/gcc/riscv32-elf/7.4.0/../../../../riscv32-elf/lib/mext-dsp/libc.a(lib_a-printf_data.o)
 .riscv.attributes
                0x000000000000063c       0x3b /cygdrive/c/Users/SwaminathanK/Downloads/Telink_IDE/toolchains/nds32le-elf-mculib-v5f/bin/../lib/gcc/riscv32-elf/7.4.0/../../../../riscv32-elf/lib/mext-dsp/libc.a(lib_a-printf_impl.o)
 .riscv.attributes
                0x0000000000000677       0x3b /cygdrive/c/Users/SwaminathanK/Downloads/Telink_IDE/toolchains/nds32le-elf-mculib-v5f/bin/../lib/gcc/riscv32-elf/7.4.0/../../../../riscv32-elf/lib/mext-dsp/libc.a(lib_a-printf_impl_float.o)
 .riscv.attributes
                0x00000000000006b2       0x3b /cygdrive/c/Users/SwaminathanK/Downloads/Telink_IDE/toolchains/nds32le-elf-mculib-v5f/bin/../lib/gcc/riscv32-elf/7.4.0/../../../../riscv32-elf/lib/mext-dsp/libc.a(lib_a-strcpy.o)
 .riscv.attributes
                0x00000000000006ed       0x3b /cygdrive/c/Users/SwaminathanK/Downloads/Telink_IDE/toolchains/nds32le-elf-mculib-v5f/bin/../lib/gcc/riscv32-elf/7.4.0/../../../../riscv32-elf/lib/mext-dsp/libc.a(lib_a-strnlen.o)
 .riscv.attributes
                0x0000000000000728       0x3b /cygdrive/c/Users/SwaminathanK/Downloads/Telink_IDE/toolchains/nds32le-elf-mculib-v5f/bin/../lib/gcc/riscv32-elf/7.4.0/../../../../riscv32-elf/lib/mext-dsp/libgloss.a(_sbrk.o)
 .riscv.attributes
                0x0000000000000763       0x3b /cygdrive/c/Users/SwaminathanK/Downloads/Telink_IDE/toolchains/nds32le-elf-mculib-v5f/bin/../lib/gcc/riscv32-elf/7.4.0/mext-dsp/libgcc.a(_lshrdi3.o)
 .riscv.attributes
                0x000000000000079e       0x3b /cygdrive/c/Users/SwaminathanK/Downloads/Telink_IDE/toolchains/nds32le-elf-mculib-v5f/bin/../lib/gcc/riscv32-elf/7.4.0/mext-dsp/libgcc.a(_ashldi3.o)
 .riscv.attributes
                0x00000000000007d9       0x39 /cygdrive/c/Users/SwaminathanK/Downloads/Telink_IDE/toolchains/nds32le-elf-mculib-v5f/bin/../lib/gcc/riscv32-elf/7.4.0/mext-dsp/libgcc.a(save-restore.o)

.debug_info     0x0000000000000000     0x64d0
 .debug_info    0x0000000000000000     0x1424 /cygdrive/C/Users/SwaminathanK/Desktop/Thesis/DSP Library/NMSIS-master/NMSIS-master/NMSIS/Library/DSP/GCC/libnmsis_dsp_rv32imfcp.a(riscv_common_tables.c.o)
 .debug_info    0x0000000000001424      0x45c /cygdrive/C/Users/SwaminathanK/Desktop/Thesis/DSP Library/NMSIS-master/NMSIS-master/NMSIS/Library/DSP/GCC/libnmsis_dsp_rv32imfcp.a(riscv_cfft_init_f32.c.o)
 .debug_info    0x0000000000001880      0x26a /cygdrive/C/Users/SwaminathanK/Desktop/Thesis/DSP Library/NMSIS-master/NMSIS-master/NMSIS/Library/DSP/GCC/libnmsis_dsp_rv32imfcp.a(riscv_bitreversal2.c.o)
 .debug_info    0x0000000000001aea      0x7d4 /cygdrive/C/Users/SwaminathanK/Desktop/Thesis/DSP Library/NMSIS-master/NMSIS-master/NMSIS/Library/DSP/GCC/libnmsis_dsp_rv32imfcp.a(riscv_cfft_f32.c.o)
 .debug_info    0x00000000000022be     0x12f1 /cygdrive/C/Users/SwaminathanK/Desktop/Thesis/DSP Library/NMSIS-master/NMSIS-master/NMSIS/Library/DSP/GCC/libnmsis_dsp_rv32imfcp.a(riscv_const_structs.c.o)
 .debug_info    0x00000000000035af      0x487 /cygdrive/C/Users/SwaminathanK/Desktop/Thesis/DSP Library/NMSIS-master/NMSIS-master/NMSIS/Library/DSP/GCC/libnmsis_dsp_rv32imfcp.a(riscv_cfft_radix8_f32.c.o)
 .debug_info    0x0000000000003a36      0x260 /cygdrive/c/Users/SwaminathanK/Downloads/Telink_IDE/toolchains/nds32le-elf-mculib-v5f/bin/../lib/gcc/riscv32-elf/7.4.0/mext-dsp/libgcc.a(gedf2.o)
 .debug_info    0x0000000000003c96      0x74a /cygdrive/c/Users/SwaminathanK/Downloads/Telink_IDE/toolchains/nds32le-elf-mculib-v5f/bin/../lib/gcc/riscv32-elf/7.4.0/mext-dsp/libgcc.a(muldf3.o)
 .debug_info    0x00000000000043e0      0x1ed /cygdrive/c/Users/SwaminathanK/Downloads/Telink_IDE/toolchains/nds32le-elf-mculib-v5f/bin/../lib/gcc/riscv32-elf/7.4.0/mext-dsp/libgcc.a(fixunsdfsi.o)
 .debug_info    0x00000000000045cd      0x2a7 /cygdrive/c/Users/SwaminathanK/Downloads/Telink_IDE/toolchains/nds32le-elf-mculib-v5f/bin/../lib/gcc/riscv32-elf/7.4.0/mext-dsp/libgcc.a(floatsidf.o)
 .debug_info    0x0000000000004874      0x299 /cygdrive/c/Users/SwaminathanK/Downloads/Telink_IDE/toolchains/nds32le-elf-mculib-v5f/bin/../lib/gcc/riscv32-elf/7.4.0/mext-dsp/libgcc.a(extendsfdf2.o)
 .debug_info    0x0000000000004b0d      0x2c7 /cygdrive/c/Users/SwaminathanK/Downloads/Telink_IDE/toolchains/nds32le-elf-mculib-v5f/bin/../lib/gcc/riscv32-elf/7.4.0/mext-dsp/libgcc.a(truncdfsf2.o)
 .debug_info    0x0000000000004dd4      0xb6b /cygdrive/c/Users/SwaminathanK/Downloads/Telink_IDE/toolchains/nds32le-elf-mculib-v5f/bin/../lib/gcc/riscv32-elf/7.4.0/mext-dsp/libgcc.a(_lshrdi3.o)
 .debug_info    0x000000000000593f      0xb6b /cygdrive/c/Users/SwaminathanK/Downloads/Telink_IDE/toolchains/nds32le-elf-mculib-v5f/bin/../lib/gcc/riscv32-elf/7.4.0/mext-dsp/libgcc.a(_ashldi3.o)
 .debug_info    0x00000000000064aa       0x26 /cygdrive/c/Users/SwaminathanK/Downloads/Telink_IDE/toolchains/nds32le-elf-mculib-v5f/bin/../lib/gcc/riscv32-elf/7.4.0/mext-dsp/libgcc.a(save-restore.o)

.debug_abbrev   0x0000000000000000     0x12ab
 .debug_abbrev  0x0000000000000000       0xb9 /cygdrive/C/Users/SwaminathanK/Desktop/Thesis/DSP Library/NMSIS-master/NMSIS-master/NMSIS/Library/DSP/GCC/libnmsis_dsp_rv32imfcp.a(riscv_common_tables.c.o)
 .debug_abbrev  0x00000000000000b9      0x147 /cygdrive/C/Users/SwaminathanK/Desktop/Thesis/DSP Library/NMSIS-master/NMSIS-master/NMSIS/Library/DSP/GCC/libnmsis_dsp_rv32imfcp.a(riscv_cfft_init_f32.c.o)
 .debug_abbrev  0x0000000000000200       0x98 /cygdrive/C/Users/SwaminathanK/Desktop/Thesis/DSP Library/NMSIS-master/NMSIS-master/NMSIS/Library/DSP/GCC/libnmsis_dsp_rv32imfcp.a(riscv_bitreversal2.c.o)
 .debug_abbrev  0x0000000000000298      0x1d4 /cygdrive/C/Users/SwaminathanK/Desktop/Thesis/DSP Library/NMSIS-master/NMSIS-master/NMSIS/Library/DSP/GCC/libnmsis_dsp_rv32imfcp.a(riscv_cfft_f32.c.o)
 .debug_abbrev  0x000000000000046c      0x104 /cygdrive/C/Users/SwaminathanK/Desktop/Thesis/DSP Library/NMSIS-master/NMSIS-master/NMSIS/Library/DSP/GCC/libnmsis_dsp_rv32imfcp.a(riscv_const_structs.c.o)
 .debug_abbrev  0x0000000000000570       0xb6 /cygdrive/C/Users/SwaminathanK/Desktop/Thesis/DSP Library/NMSIS-master/NMSIS-master/NMSIS/Library/DSP/GCC/libnmsis_dsp_rv32imfcp.a(riscv_cfft_radix8_f32.c.o)
 .debug_abbrev  0x0000000000000626      0x184 /cygdrive/c/Users/SwaminathanK/Downloads/Telink_IDE/toolchains/nds32le-elf-mculib-v5f/bin/../lib/gcc/riscv32-elf/7.4.0/mext-dsp/libgcc.a(gedf2.o)
 .debug_abbrev  0x00000000000007aa      0x177 /cygdrive/c/Users/SwaminathanK/Downloads/Telink_IDE/toolchains/nds32le-elf-mculib-v5f/bin/../lib/gcc/riscv32-elf/7.4.0/mext-dsp/libgcc.a(muldf3.o)
 .debug_abbrev  0x0000000000000921      0x159 /cygdrive/c/Users/SwaminathanK/Downloads/Telink_IDE/toolchains/nds32le-elf-mculib-v5f/bin/../lib/gcc/riscv32-elf/7.4.0/mext-dsp/libgcc.a(fixunsdfsi.o)
 .debug_abbrev  0x0000000000000a7a      0x16c /cygdrive/c/Users/SwaminathanK/Downloads/Telink_IDE/toolchains/nds32le-elf-mculib-v5f/bin/../lib/gcc/riscv32-elf/7.4.0/mext-dsp/libgcc.a(floatsidf.o)
 .debug_abbrev  0x0000000000000be6      0x15b /cygdrive/c/Users/SwaminathanK/Downloads/Telink_IDE/toolchains/nds32le-elf-mculib-v5f/bin/../lib/gcc/riscv32-elf/7.4.0/mext-dsp/libgcc.a(extendsfdf2.o)
 .debug_abbrev  0x0000000000000d41      0x150 /cygdrive/c/Users/SwaminathanK/Downloads/Telink_IDE/toolchains/nds32le-elf-mculib-v5f/bin/../lib/gcc/riscv32-elf/7.4.0/mext-dsp/libgcc.a(truncdfsf2.o)
 .debug_abbrev  0x0000000000000e91      0x203 /cygdrive/c/Users/SwaminathanK/Downloads/Telink_IDE/toolchains/nds32le-elf-mculib-v5f/bin/../lib/gcc/riscv32-elf/7.4.0/mext-dsp/libgcc.a(_lshrdi3.o)
 .debug_abbrev  0x0000000000001094      0x203 /cygdrive/c/Users/SwaminathanK/Downloads/Telink_IDE/toolchains/nds32le-elf-mculib-v5f/bin/../lib/gcc/riscv32-elf/7.4.0/mext-dsp/libgcc.a(_ashldi3.o)
 .debug_abbrev  0x0000000000001297       0x14 /cygdrive/c/Users/SwaminathanK/Downloads/Telink_IDE/toolchains/nds32le-elf-mculib-v5f/bin/../lib/gcc/riscv32-elf/7.4.0/mext-dsp/libgcc.a(save-restore.o)

.debug_aranges  0x0000000000000000      0x228
 .debug_aranges
                0x0000000000000000       0x18 /cygdrive/C/Users/SwaminathanK/Desktop/Thesis/DSP Library/NMSIS-master/NMSIS-master/NMSIS/Library/DSP/GCC/libnmsis_dsp_rv32imfcp.a(riscv_common_tables.c.o)
 .debug_aranges
                0x0000000000000018       0x68 /cygdrive/C/Users/SwaminathanK/Desktop/Thesis/DSP Library/NMSIS-master/NMSIS-master/NMSIS/Library/DSP/GCC/libnmsis_dsp_rv32imfcp.a(riscv_cfft_init_f32.c.o)
 .debug_aranges
                0x0000000000000080       0x30 /cygdrive/C/Users/SwaminathanK/Desktop/Thesis/DSP Library/NMSIS-master/NMSIS-master/NMSIS/Library/DSP/GCC/libnmsis_dsp_rv32imfcp.a(riscv_bitreversal2.c.o)
 .debug_aranges
                0x00000000000000b0       0x20 /cygdrive/C/Users/SwaminathanK/Desktop/Thesis/DSP Library/NMSIS-master/NMSIS-master/NMSIS/Library/DSP/GCC/libnmsis_dsp_rv32imfcp.a(riscv_cfft_f32.c.o)
 .debug_aranges
                0x00000000000000d0       0x18 /cygdrive/C/Users/SwaminathanK/Desktop/Thesis/DSP Library/NMSIS-master/NMSIS-master/NMSIS/Library/DSP/GCC/libnmsis_dsp_rv32imfcp.a(riscv_const_structs.c.o)
 .debug_aranges
                0x00000000000000e8       0x20 /cygdrive/C/Users/SwaminathanK/Desktop/Thesis/DSP Library/NMSIS-master/NMSIS-master/NMSIS/Library/DSP/GCC/libnmsis_dsp_rv32imfcp.a(riscv_cfft_radix8_f32.c.o)
 .debug_aranges
                0x0000000000000108       0x20 /cygdrive/c/Users/SwaminathanK/Downloads/Telink_IDE/toolchains/nds32le-elf-mculib-v5f/bin/../lib/gcc/riscv32-elf/7.4.0/mext-dsp/libgcc.a(gedf2.o)
 .debug_aranges
                0x0000000000000128       0x20 /cygdrive/c/Users/SwaminathanK/Downloads/Telink_IDE/toolchains/nds32le-elf-mculib-v5f/bin/../lib/gcc/riscv32-elf/7.4.0/mext-dsp/libgcc.a(muldf3.o)
 .debug_aranges
                0x0000000000000148       0x20 /cygdrive/c/Users/SwaminathanK/Downloads/Telink_IDE/toolchains/nds32le-elf-mculib-v5f/bin/../lib/gcc/riscv32-elf/7.4.0/mext-dsp/libgcc.a(fixunsdfsi.o)
 .debug_aranges
                0x0000000000000168       0x20 /cygdrive/c/Users/SwaminathanK/Downloads/Telink_IDE/toolchains/nds32le-elf-mculib-v5f/bin/../lib/gcc/riscv32-elf/7.4.0/mext-dsp/libgcc.a(floatsidf.o)
 .debug_aranges
                0x0000000000000188       0x20 /cygdrive/c/Users/SwaminathanK/Downloads/Telink_IDE/toolchains/nds32le-elf-mculib-v5f/bin/../lib/gcc/riscv32-elf/7.4.0/mext-dsp/libgcc.a(extendsfdf2.o)
 .debug_aranges
                0x00000000000001a8       0x20 /cygdrive/c/Users/SwaminathanK/Downloads/Telink_IDE/toolchains/nds32le-elf-mculib-v5f/bin/../lib/gcc/riscv32-elf/7.4.0/mext-dsp/libgcc.a(truncdfsf2.o)
 .debug_aranges
                0x00000000000001c8       0x20 /cygdrive/c/Users/SwaminathanK/Downloads/Telink_IDE/toolchains/nds32le-elf-mculib-v5f/bin/../lib/gcc/riscv32-elf/7.4.0/mext-dsp/libgcc.a(_lshrdi3.o)
 .debug_aranges
                0x00000000000001e8       0x20 /cygdrive/c/Users/SwaminathanK/Downloads/Telink_IDE/toolchains/nds32le-elf-mculib-v5f/bin/../lib/gcc/riscv32-elf/7.4.0/mext-dsp/libgcc.a(_ashldi3.o)
 .debug_aranges
                0x0000000000000208       0x20 /cygdrive/c/Users/SwaminathanK/Downloads/Telink_IDE/toolchains/nds32le-elf-mculib-v5f/bin/../lib/gcc/riscv32-elf/7.4.0/mext-dsp/libgcc.a(save-restore.o)

.debug_line     0x0000000000000000     0x51db
 .debug_line    0x0000000000000000      0x17f /cygdrive/C/Users/SwaminathanK/Desktop/Thesis/DSP Library/NMSIS-master/NMSIS-master/NMSIS/Library/DSP/GCC/libnmsis_dsp_rv32imfcp.a(riscv_common_tables.c.o)
 .debug_line    0x000000000000017f      0x503 /cygdrive/C/Users/SwaminathanK/Desktop/Thesis/DSP Library/NMSIS-master/NMSIS-master/NMSIS/Library/DSP/GCC/libnmsis_dsp_rv32imfcp.a(riscv_cfft_init_f32.c.o)
 .debug_line    0x0000000000000682      0x4bc /cygdrive/C/Users/SwaminathanK/Desktop/Thesis/DSP Library/NMSIS-master/NMSIS-master/NMSIS/Library/DSP/GCC/libnmsis_dsp_rv32imfcp.a(riscv_bitreversal2.c.o)
 .debug_line    0x0000000000000b3e     0x1559 /cygdrive/C/Users/SwaminathanK/Desktop/Thesis/DSP Library/NMSIS-master/NMSIS-master/NMSIS/Library/DSP/GCC/libnmsis_dsp_rv32imfcp.a(riscv_cfft_f32.c.o)
 .debug_line    0x0000000000002097      0x1d9 /cygdrive/C/Users/SwaminathanK/Desktop/Thesis/DSP Library/NMSIS-master/NMSIS-master/NMSIS/Library/DSP/GCC/libnmsis_dsp_rv32imfcp.a(riscv_const_structs.c.o)
 .debug_line    0x0000000000002270     0x14a5 /cygdrive/C/Users/SwaminathanK/Desktop/Thesis/DSP Library/NMSIS-master/NMSIS-master/NMSIS/Library/DSP/GCC/libnmsis_dsp_rv32imfcp.a(riscv_cfft_radix8_f32.c.o)
 .debug_line    0x0000000000003715      0x26e /cygdrive/c/Users/SwaminathanK/Downloads/Telink_IDE/toolchains/nds32le-elf-mculib-v5f/bin/../lib/gcc/riscv32-elf/7.4.0/mext-dsp/libgcc.a(gedf2.o)
 .debug_line    0x0000000000003983      0x554 /cygdrive/c/Users/SwaminathanK/Downloads/Telink_IDE/toolchains/nds32le-elf-mculib-v5f/bin/../lib/gcc/riscv32-elf/7.4.0/mext-dsp/libgcc.a(muldf3.o)
 .debug_line    0x0000000000003ed7      0x1f0 /cygdrive/c/Users/SwaminathanK/Downloads/Telink_IDE/toolchains/nds32le-elf-mculib-v5f/bin/../lib/gcc/riscv32-elf/7.4.0/mext-dsp/libgcc.a(fixunsdfsi.o)
 .debug_line    0x00000000000040c7      0x171 /cygdrive/c/Users/SwaminathanK/Downloads/Telink_IDE/toolchains/nds32le-elf-mculib-v5f/bin/../lib/gcc/riscv32-elf/7.4.0/mext-dsp/libgcc.a(floatsidf.o)
 .debug_line    0x0000000000004238      0x1e0 /cygdrive/c/Users/SwaminathanK/Downloads/Telink_IDE/toolchains/nds32le-elf-mculib-v5f/bin/../lib/gcc/riscv32-elf/7.4.0/mext-dsp/libgcc.a(extendsfdf2.o)
 .debug_line    0x0000000000004418      0x468 /cygdrive/c/Users/SwaminathanK/Downloads/Telink_IDE/toolchains/nds32le-elf-mculib-v5f/bin/../lib/gcc/riscv32-elf/7.4.0/mext-dsp/libgcc.a(truncdfsf2.o)
 .debug_line    0x0000000000004880      0x3ca /cygdrive/c/Users/SwaminathanK/Downloads/Telink_IDE/toolchains/nds32le-elf-mculib-v5f/bin/../lib/gcc/riscv32-elf/7.4.0/mext-dsp/libgcc.a(_lshrdi3.o)
 .debug_line    0x0000000000004c4a      0x3ca /cygdrive/c/Users/SwaminathanK/Downloads/Telink_IDE/toolchains/nds32le-elf-mculib-v5f/bin/../lib/gcc/riscv32-elf/7.4.0/mext-dsp/libgcc.a(_ashldi3.o)
 .debug_line    0x0000000000005014      0x1c7 /cygdrive/c/Users/SwaminathanK/Downloads/Telink_IDE/toolchains/nds32le-elf-mculib-v5f/bin/../lib/gcc/riscv32-elf/7.4.0/mext-dsp/libgcc.a(save-restore.o)

.debug_str      0x0000000000000000     0x2a97
 .debug_str     0x0000000000000000      0xb49 /cygdrive/C/Users/SwaminathanK/Desktop/Thesis/DSP Library/NMSIS-master/NMSIS-master/NMSIS/Library/DSP/GCC/libnmsis_dsp_rv32imfcp.a(riscv_common_tables.c.o)
                                        0xbbd (size before relaxing)
 .debug_str     0x0000000000000b49      0x325 /cygdrive/C/Users/SwaminathanK/Desktop/Thesis/DSP Library/NMSIS-master/NMSIS-master/NMSIS/Library/DSP/GCC/libnmsis_dsp_rv32imfcp.a(riscv_cfft_init_f32.c.o)
                                        0x4f0 (size before relaxing)
 .debug_str     0x0000000000000e6e       0xaf /cygdrive/C/Users/SwaminathanK/Desktop/Thesis/DSP Library/NMSIS-master/NMSIS-master/NMSIS/Library/DSP/GCC/libnmsis_dsp_rv32imfcp.a(riscv_bitreversal2.c.o)
                                        0x286 (size before relaxing)
 .debug_str     0x0000000000000f1d      0x13b /cygdrive/C/Users/SwaminathanK/Desktop/Thesis/DSP Library/NMSIS-master/NMSIS-master/NMSIS/Library/DSP/GCC/libnmsis_dsp_rv32imfcp.a(riscv_cfft_f32.c.o)
                                        0x377 (size before relaxing)
 .debug_str     0x0000000000001058      0x7c3 /cygdrive/C/Users/SwaminathanK/Desktop/Thesis/DSP Library/NMSIS-master/NMSIS-master/NMSIS/Library/DSP/GCC/libnmsis_dsp_rv32imfcp.a(riscv_const_structs.c.o)
                                       0x125b (size before relaxing)
 .debug_str     0x000000000000181b       0x65 /cygdrive/C/Users/SwaminathanK/Desktop/Thesis/DSP Library/NMSIS-master/NMSIS-master/NMSIS/Library/DSP/GCC/libnmsis_dsp_rv32imfcp.a(riscv_cfft_radix8_f32.c.o)
                                        0x264 (size before relaxing)
 .debug_str     0x0000000000001880      0x2a3 /cygdrive/c/Users/SwaminathanK/Downloads/Telink_IDE/toolchains/nds32le-elf-mculib-v5f/bin/../lib/gcc/riscv32-elf/7.4.0/mext-dsp/libgcc.a(gedf2.o)
                                        0x329 (size before relaxing)
 .debug_str     0x0000000000001b23      0x29d /cygdrive/c/Users/SwaminathanK/Downloads/Telink_IDE/toolchains/nds32le-elf-mculib-v5f/bin/../lib/gcc/riscv32-elf/7.4.0/mext-dsp/libgcc.a(muldf3.o)
                                        0x505 (size before relaxing)
 .debug_str     0x0000000000001dc0       0xa3 /cygdrive/c/Users/SwaminathanK/Downloads/Telink_IDE/toolchains/nds32le-elf-mculib-v5f/bin/../lib/gcc/riscv32-elf/7.4.0/mext-dsp/libgcc.a(fixunsdfsi.o)
                                        0x301 (size before relaxing)
 .debug_str     0x0000000000001e63      0x137 /cygdrive/c/Users/SwaminathanK/Downloads/Telink_IDE/toolchains/nds32le-elf-mculib-v5f/bin/../lib/gcc/riscv32-elf/7.4.0/mext-dsp/libgcc.a(floatsidf.o)
                                        0x398 (size before relaxing)
 .debug_str     0x0000000000001f9a       0xc4 /cygdrive/c/Users/SwaminathanK/Downloads/Telink_IDE/toolchains/nds32le-elf-mculib-v5f/bin/../lib/gcc/riscv32-elf/7.4.0/mext-dsp/libgcc.a(extendsfdf2.o)
                                        0x326 (size before relaxing)
 .debug_str     0x000000000000205e       0xb0 /cygdrive/c/Users/SwaminathanK/Downloads/Telink_IDE/toolchains/nds32le-elf-mculib-v5f/bin/../lib/gcc/riscv32-elf/7.4.0/mext-dsp/libgcc.a(truncdfsf2.o)
                                        0x384 (size before relaxing)
 .debug_str     0x000000000000210e      0x8ef /cygdrive/c/Users/SwaminathanK/Downloads/Telink_IDE/toolchains/nds32le-elf-mculib-v5f/bin/../lib/gcc/riscv32-elf/7.4.0/mext-dsp/libgcc.a(_lshrdi3.o)
                                        0xb55 (size before relaxing)
 .debug_str     0x00000000000029fd        0xa /cygdrive/c/Users/SwaminathanK/Downloads/Telink_IDE/toolchains/nds32le-elf-mculib-v5f/bin/../lib/gcc/riscv32-elf/7.4.0/mext-dsp/libgcc.a(_ashldi3.o)
                                        0xb55 (size before relaxing)
 .debug_str     0x0000000000002a07       0x90 /cygdrive/c/Users/SwaminathanK/Downloads/Telink_IDE/toolchains/nds32le-elf-mculib-v5f/bin/../lib/gcc/riscv32-elf/7.4.0/mext-dsp/libgcc.a(save-restore.o)
                                        0x12a (size before relaxing)

.debug_loc      0x0000000000000000     0x4607
 .debug_loc     0x0000000000000000      0x314 /cygdrive/C/Users/SwaminathanK/Desktop/Thesis/DSP Library/NMSIS-master/NMSIS-master/NMSIS/Library/DSP/GCC/libnmsis_dsp_rv32imfcp.a(riscv_cfft_init_f32.c.o)
 .debug_loc     0x0000000000000314      0x29a /cygdrive/C/Users/SwaminathanK/Desktop/Thesis/DSP Library/NMSIS-master/NMSIS-master/NMSIS/Library/DSP/GCC/libnmsis_dsp_rv32imfcp.a(riscv_bitreversal2.c.o)
 .debug_loc     0x00000000000005ae      0xb7a /cygdrive/C/Users/SwaminathanK/Desktop/Thesis/DSP Library/NMSIS-master/NMSIS-master/NMSIS/Library/DSP/GCC/libnmsis_dsp_rv32imfcp.a(riscv_cfft_f32.c.o)
 .debug_loc     0x0000000000001128      0xb44 /cygdrive/C/Users/SwaminathanK/Desktop/Thesis/DSP Library/NMSIS-master/NMSIS-master/NMSIS/Library/DSP/GCC/libnmsis_dsp_rv32imfcp.a(riscv_cfft_radix8_f32.c.o)
 .debug_loc     0x0000000000001c6c      0x10b /cygdrive/c/Users/SwaminathanK/Downloads/Telink_IDE/toolchains/nds32le-elf-mculib-v5f/bin/../lib/gcc/riscv32-elf/7.4.0/mext-dsp/libgcc.a(gedf2.o)
 .debug_loc     0x0000000000001d77     0x139b /cygdrive/c/Users/SwaminathanK/Downloads/Telink_IDE/toolchains/nds32le-elf-mculib-v5f/bin/../lib/gcc/riscv32-elf/7.4.0/mext-dsp/libgcc.a(muldf3.o)
 .debug_loc     0x0000000000003112      0x218 /cygdrive/c/Users/SwaminathanK/Downloads/Telink_IDE/toolchains/nds32le-elf-mculib-v5f/bin/../lib/gcc/riscv32-elf/7.4.0/mext-dsp/libgcc.a(fixunsdfsi.o)
 .debug_loc     0x000000000000332a      0x286 /cygdrive/c/Users/SwaminathanK/Downloads/Telink_IDE/toolchains/nds32le-elf-mculib-v5f/bin/../lib/gcc/riscv32-elf/7.4.0/mext-dsp/libgcc.a(floatsidf.o)
 .debug_loc     0x00000000000035b0      0x30a /cygdrive/c/Users/SwaminathanK/Downloads/Telink_IDE/toolchains/nds32le-elf-mculib-v5f/bin/../lib/gcc/riscv32-elf/7.4.0/mext-dsp/libgcc.a(extendsfdf2.o)
 .debug_loc     0x00000000000038ba      0xb85 /cygdrive/c/Users/SwaminathanK/Downloads/Telink_IDE/toolchains/nds32le-elf-mculib-v5f/bin/../lib/gcc/riscv32-elf/7.4.0/mext-dsp/libgcc.a(truncdfsf2.o)
 .debug_loc     0x000000000000443f       0xe4 /cygdrive/c/Users/SwaminathanK/Downloads/Telink_IDE/toolchains/nds32le-elf-mculib-v5f/bin/../lib/gcc/riscv32-elf/7.4.0/mext-dsp/libgcc.a(_lshrdi3.o)
 .debug_loc     0x0000000000004523       0xe4 /cygdrive/c/Users/SwaminathanK/Downloads/Telink_IDE/toolchains/nds32le-elf-mculib-v5f/bin/../lib/gcc/riscv32-elf/7.4.0/mext-dsp/libgcc.a(_ashldi3.o)

.debug_ranges   0x0000000000000000      0x518
 .debug_ranges  0x0000000000000000       0x58 /cygdrive/C/Users/SwaminathanK/Desktop/Thesis/DSP Library/NMSIS-master/NMSIS-master/NMSIS/Library/DSP/GCC/libnmsis_dsp_rv32imfcp.a(riscv_cfft_init_f32.c.o)
 .debug_ranges  0x0000000000000058       0x20 /cygdrive/C/Users/SwaminathanK/Desktop/Thesis/DSP Library/NMSIS-master/NMSIS-master/NMSIS/Library/DSP/GCC/libnmsis_dsp_rv32imfcp.a(riscv_bitreversal2.c.o)
 .debug_ranges  0x0000000000000078       0x10 /cygdrive/C/Users/SwaminathanK/Desktop/Thesis/DSP Library/NMSIS-master/NMSIS-master/NMSIS/Library/DSP/GCC/libnmsis_dsp_rv32imfcp.a(riscv_cfft_f32.c.o)
 .debug_ranges  0x0000000000000088       0x10 /cygdrive/C/Users/SwaminathanK/Desktop/Thesis/DSP Library/NMSIS-master/NMSIS-master/NMSIS/Library/DSP/GCC/libnmsis_dsp_rv32imfcp.a(riscv_cfft_radix8_f32.c.o)
 .debug_ranges  0x0000000000000098       0x60 /cygdrive/c/Users/SwaminathanK/Downloads/Telink_IDE/toolchains/nds32le-elf-mculib-v5f/bin/../lib/gcc/riscv32-elf/7.4.0/mext-dsp/libgcc.a(gedf2.o)
 .debug_ranges  0x00000000000000f8      0x240 /cygdrive/c/Users/SwaminathanK/Downloads/Telink_IDE/toolchains/nds32le-elf-mculib-v5f/bin/../lib/gcc/riscv32-elf/7.4.0/mext-dsp/libgcc.a(muldf3.o)
 .debug_ranges  0x0000000000000338       0x18 /cygdrive/c/Users/SwaminathanK/Downloads/Telink_IDE/toolchains/nds32le-elf-mculib-v5f/bin/../lib/gcc/riscv32-elf/7.4.0/mext-dsp/libgcc.a(fixunsdfsi.o)
 .debug_ranges  0x0000000000000350       0x30 /cygdrive/c/Users/SwaminathanK/Downloads/Telink_IDE/toolchains/nds32le-elf-mculib-v5f/bin/../lib/gcc/riscv32-elf/7.4.0/mext-dsp/libgcc.a(floatsidf.o)
 .debug_ranges  0x0000000000000380       0x38 /cygdrive/c/Users/SwaminathanK/Downloads/Telink_IDE/toolchains/nds32le-elf-mculib-v5f/bin/../lib/gcc/riscv32-elf/7.4.0/mext-dsp/libgcc.a(extendsfdf2.o)
 .debug_ranges  0x00000000000003b8      0x160 /cygdrive/c/Users/SwaminathanK/Downloads/Telink_IDE/toolchains/nds32le-elf-mculib-v5f/bin/../lib/gcc/riscv32-elf/7.4.0/mext-dsp/libgcc.a(truncdfsf2.o)

.debug_frame    0x0000000000000000      0x31c
 .debug_frame   0x0000000000000000       0xb0 /cygdrive/C/Users/SwaminathanK/Desktop/Thesis/DSP Library/NMSIS-master/NMSIS-master/NMSIS/Library/DSP/GCC/libnmsis_dsp_rv32imfcp.a(riscv_cfft_init_f32.c.o)
 .debug_frame   0x00000000000000b0       0x40 /cygdrive/C/Users/SwaminathanK/Desktop/Thesis/DSP Library/NMSIS-master/NMSIS-master/NMSIS/Library/DSP/GCC/libnmsis_dsp_rv32imfcp.a(riscv_bitreversal2.c.o)
 .debug_frame   0x00000000000000f0       0x78 /cygdrive/C/Users/SwaminathanK/Desktop/Thesis/DSP Library/NMSIS-master/NMSIS-master/NMSIS/Library/DSP/GCC/libnmsis_dsp_rv32imfcp.a(riscv_cfft_f32.c.o)
 .debug_frame   0x0000000000000168       0x8c /cygdrive/C/Users/SwaminathanK/Desktop/Thesis/DSP Library/NMSIS-master/NMSIS-master/NMSIS/Library/DSP/GCC/libnmsis_dsp_rv32imfcp.a(riscv_cfft_radix8_f32.c.o)
 .debug_frame   0x00000000000001f4       0x20 /cygdrive/c/Users/SwaminathanK/Downloads/Telink_IDE/toolchains/nds32le-elf-mculib-v5f/bin/../lib/gcc/riscv32-elf/7.4.0/mext-dsp/libgcc.a(gedf2.o)
 .debug_frame   0x0000000000000214       0x48 /cygdrive/c/Users/SwaminathanK/Downloads/Telink_IDE/toolchains/nds32le-elf-mculib-v5f/bin/../lib/gcc/riscv32-elf/7.4.0/mext-dsp/libgcc.a(muldf3.o)
 .debug_frame   0x000000000000025c       0x20 /cygdrive/c/Users/SwaminathanK/Downloads/Telink_IDE/toolchains/nds32le-elf-mculib-v5f/bin/../lib/gcc/riscv32-elf/7.4.0/mext-dsp/libgcc.a(fixunsdfsi.o)
 .debug_frame   0x000000000000027c       0x20 /cygdrive/c/Users/SwaminathanK/Downloads/Telink_IDE/toolchains/nds32le-elf-mculib-v5f/bin/../lib/gcc/riscv32-elf/7.4.0/mext-dsp/libgcc.a(floatsidf.o)
 .debug_frame   0x000000000000029c       0x20 /cygdrive/c/Users/SwaminathanK/Downloads/Telink_IDE/toolchains/nds32le-elf-mculib-v5f/bin/../lib/gcc/riscv32-elf/7.4.0/mext-dsp/libgcc.a(extendsfdf2.o)
 .debug_frame   0x00000000000002bc       0x20 /cygdrive/c/Users/SwaminathanK/Downloads/Telink_IDE/toolchains/nds32le-elf-mculib-v5f/bin/../lib/gcc/riscv32-elf/7.4.0/mext-dsp/libgcc.a(truncdfsf2.o)
 .debug_frame   0x00000000000002dc       0x20 /cygdrive/c/Users/SwaminathanK/Downloads/Telink_IDE/toolchains/nds32le-elf-mculib-v5f/bin/../lib/gcc/riscv32-elf/7.4.0/mext-dsp/libgcc.a(_lshrdi3.o)
 .debug_frame   0x00000000000002fc       0x20 /cygdrive/c/Users/SwaminathanK/Downloads/Telink_IDE/toolchains/nds32le-elf-mculib-v5f/bin/../lib/gcc/riscv32-elf/7.4.0/mext-dsp/libgcc.a(_ashldi3.o)
