
RV_NN_Activation_Benchmark.adx:     file format elf32-littleriscv
RV_NN_Activation_Benchmark.adx
architecture: riscv:rv32, flags 0x00000112:
EXEC_P, HAS_SYMS, D_PAGED
start address 0x20000000

Program Header:
    LOAD off    0x00001000 vaddr 0x20000000 paddr 0x20000000 align 2**12
         filesz 0x0000018a memsz 0x0000018a flags r-x
    LOAD off    0x00002000 vaddr 0x00000000 paddr 0x20000190 align 2**12
         filesz 0x000001bc memsz 0x000001bc flags rwx
    LOAD off    0x00002200 vaddr 0x00000200 paddr 0x20000350 align 2**12
         filesz 0x00002f68 memsz 0x00002f68 flags r-x
    LOAD off    0x00006000 vaddr 0x00080000 paddr 0x200032b8 align 2**12
         filesz 0x000004c4 memsz 0x000004c4 flags rw-
    LOAD off    0x00006508 vaddr 0x00080508 paddr 0x2000377c align 2**12
         filesz 0x00000022 memsz 0x00000022 flags rw-
    LOAD off    0x000074c8 vaddr 0x000804c8 paddr 0x20003780 align 2**12
         filesz 0x00000000 memsz 0x00000040 flags rw-
0x70000000 off    0x00006573 vaddr 0x00000000 paddr 0x00000000 align 2**0
         filesz 0x00000040 memsz 0x00000000 flags r--

Sections:
Idx Name          Size      VMA       LMA       File off  Algn
  0 .vectors      0000018a  20000000  20000000  00001000  2**2
                  CONTENTS, ALLOC, LOAD, READONLY, CODE
  1 .retention_reset 00000154  00000000  20000190  00002000  2**2
                  CONTENTS, ALLOC, LOAD, READONLY, CODE
  2 .retention_data 00000064  00000158  200002e8  00002158  2**2
                  CONTENTS, ALLOC, LOAD, DATA
  3 .ram_code     00002f68  00000200  20000350  00002200  2**8
                  CONTENTS, ALLOC, LOAD, READONLY, CODE
  4 .data         000004c4  00080000  200032b8  00006000  2**3
                  CONTENTS, ALLOC, LOAD, DATA
  5 .sbss         0000003c  000804c8  20003780  000074c8  2**2
                  ALLOC
  6 .bss          00000004  00080504  200037bc  000074c8  2**2
                  ALLOC
  7 .sdk_version  00000022  00080508  2000377c  00006508  2**2
                  CONTENTS, ALLOC, LOAD, DATA
  8 .comment      00000049  00000000  00000000  0000652a  2**0
                  CONTENTS, READONLY
  9 .riscv.attributes 00000040  00000000  00000000  00006573  2**0
                  CONTENTS, READONLY
 10 .debug_info   00002573  00000000  00000000  000065b3  2**0
                  CONTENTS, READONLY, DEBUGGING
 11 .debug_abbrev 000009b1  00000000  00000000  00008b26  2**0
                  CONTENTS, READONLY, DEBUGGING
 12 .debug_loc    00001d0b  00000000  00000000  000094d7  2**0
                  CONTENTS, READONLY, DEBUGGING
 13 .debug_aranges 000000e0  00000000  00000000  0000b1e8  2**3
                  CONTENTS, READONLY, DEBUGGING
 14 .debug_ranges 000002c0  00000000  00000000  0000b2c8  2**0
                  CONTENTS, READONLY, DEBUGGING
 15 .debug_line   000013f0  00000000  00000000  0000b588  2**0
                  CONTENTS, READONLY, DEBUGGING
 16 .debug_str    000010f6  00000000  00000000  0000c978  2**0
                  CONTENTS, READONLY, DEBUGGING
 17 .debug_frame  000000e8  00000000  00000000  0000da70  2**2
                  CONTENTS, READONLY, DEBUGGING
SYMBOL TABLE:
20000000 l    d  .vectors	00000000 .vectors
00000000 l    d  .retention_reset	00000000 .retention_reset
00000158 l    d  .retention_data	00000000 .retention_data
00000200 l    d  .ram_code	00000000 .ram_code
00080000 l    d  .data	00000000 .data
000804c8 l    d  .sbss	00000000 .sbss
00080504 l    d  .bss	00000000 .bss
00080508 l    d  .sdk_version	00000000 .sdk_version
00000000 l    d  .comment	00000000 .comment
00000000 l    d  .riscv.attributes	00000000 .riscv.attributes
00000000 l    d  .debug_info	00000000 .debug_info
00000000 l    d  .debug_abbrev	00000000 .debug_abbrev
00000000 l    d  .debug_loc	00000000 .debug_loc
00000000 l    d  .debug_aranges	00000000 .debug_aranges
00000000 l    d  .debug_ranges	00000000 .debug_ranges
00000000 l    d  .debug_line	00000000 .debug_line
00000000 l    d  .debug_str	00000000 .debug_str
00000000 l    d  .debug_frame	00000000 .debug_frame
00000000 l    df *ABS*	00000000 ./boot/cstartup_flash.o
20000028 l       .vectors	00000000 _START
2000008e l       .vectors	00000000 _RETENTION_RESET_INIT
200000a6 l       .vectors	00000000 _RETENTION_RESET_BEGIN
200000b8 l       .vectors	00000000 _RETENTION_DATA_INIT
200000cc l       .vectors	00000000 _RETENTION_DATA_INIT_BEGIN
200000de l       .vectors	00000000 _RAMCODE_INIT
200000f6 l       .vectors	00000000 _RAMCODE_INIT_BEGIN
20000108 l       .vectors	00000000 _DATA_INIT
20000120 l       .vectors	00000000 _DATA_INIT_BEGIN
20000132 l       .vectors	00000000 _ZERO_BSS
20000146 l       .vectors	00000000 _ZERO_BSS_BEGIN
20000152 l       .vectors	00000000 _ZERO_AES
20000166 l       .vectors	00000000 _ZERO_AES_BEGIN
20000172 l       .vectors	00000000 _FILL_STK
20000172 l       .vectors	00000000 _MAIN_FUNC
20000188 l       .vectors	00000000 _END
00000022 l       .retention_reset	00000000 _ISTART
0000002a l       .retention_reset	00000000 _ISWS_USB_DIS
00000088 l       .retention_reset	00000000 _WAKEUP_FLASH
000000a2 l       .retention_reset	00000000 _MSPI_WAIT
000000bc l       .retention_reset	00000000 _WAIT_EFUSE_LOAD_AND_FLASH_WAKEUP_FINISH
000000c2 l       .retention_reset	00000000 _MULTI_ADDRESS_BEGIN
000000d2 l       .retention_reset	00000000 _IZERO_BSS
000000e6 l       .retention_reset	00000000 _IZERO_BSS_BEGIN
000000f2 l       .retention_reset	00000000 _IZERO_AES
00000106 l       .retention_reset	00000000 _IZERO_AES_BEGIN
00000112 l       .retention_reset	00000000 _IFILL_STK
00000112 l       .retention_reset	00000000 _IDATA_INIT
0000012a l       .retention_reset	00000000 _IDATA_INIT_BEGIN
0000013c l       .retention_reset	00000000 _IMAIN_FUNC
00000152 l       .retention_reset	00000000 _IEND
00000040 l       *ABS*	00000000 irqno
00000000 l    df *ABS*	00000000 
00000200 l     F .ram_code	0000001a delay_ms.constprop.12
00000edc l     F .ram_code	000000d4 user_calib_adc_vref.constprop.9
0000021a l     F .ram_code	00000010 mspi_fm_data_line
0000022a l     F .ram_code	0000000c mspi_wait.lto_priv.15
0000022a l     F .ram_code	0000000c mspi_wait.lto_priv.16
00000236 l     F .ram_code	00000018 mspi_stop_xip.lto_priv.13
00000236 l     F .ram_code	00000018 mspi_stop_xip.lto_priv.14
0000024e l     F .ram_code	0000002a flash_send_addr
00000278 l     F .ram_code	00000030 flash_send_cmd
000002a8 l     F .ram_code	00000050 clock_set_32k_tick
00000fb0 l     F .ram_code	00000022 measure_stack_usage
000002f8 l     F .ram_code	00000044 plic_exit_critical_sec
0000033c l     F .ram_code	00000046 plic_enter_critical_sec
00000382 l     F .ram_code	000000ce flash_mspi_read_ram
00000e04 l     F .ram_code	00000018 flash_read_uid.constprop.7
00000e1c l     F .ram_code	00000020 flash_read_mid
00000e3c l     F .ram_code	0000006c flash_read_mid_uid_with_check
00000ea8 l     F .ram_code	0000001a flash_dread
00000fd2 l     F .ram_code	0000000e core_interrupt_disable.lto_priv.17
00000fd2 l     F .ram_code	0000000e core_interrupt_disable.lto_priv.18
00000450 l     F .ram_code	00000032 analog_read_reg32.constprop.5
00000482 l     F .ram_code	0000001a clock_get_32k_tick
0000049c l     F .ram_code	00000076 pm_stimer_recover
00000512 l     F .ram_code	0000003a analog_write_reg8
0000054c l     F .ram_code	00000038 analog_read_reg8
00000584 l     F .ram_code	000000e0 clock_init_ram.constprop.11
00000ec2 l     F .ram_code	0000000e clock_init.constprop.10
00000fe0 l     F .ram_code	00000046 user_calib_freq_offset.constprop.8
00000664 l     F .ram_code	00000084 pm_wait_bbpll_done
000006e8 l     F .ram_code	0000013c pm_sleep_start
00000824 l     F .ram_code	00000100 dr_putchar
00001026 l     F .ram_code	00000016 gpio_input_dis
00000924 l     F .ram_code	00000298 pm_sleep_wakeup_ram.constprop.4
00000ed0 l     F .ram_code	0000000c pm_sleep_wakeup.constprop.3
0000103c l     F .ram_code	000001b0 sys_init.constprop.2
00000158 l     O .retention_data	00000004 flash_read_page
0000015c l     O .retention_data	00000001 g_plic_preempt_en
00000160 l     O .retention_data	00000002 s_flash_preempt_config
00000162 l     O .retention_data	00000001 g_pm_long_suspend
00000164 l     O .retention_data	00000004 g_pm_tick_cur
00000168 l     O .retention_data	00000029 pmcd
00000194 l     O .retention_data	00000004 g_pm_tick_32k_calib
00000198 l     O .retention_data	00000001 g_pm_suspend_power_cfg
0000019c l     O .retention_data	00000008 g_pm_early_wakeup_time_us
000001a4 l     O .retention_data	00000004 g_pm_tick_32k_cur
000001a8 l     O .retention_data	00000001 g_pm_tick_update_en
000001ac l     O .retention_data	00000004 g_pm_r_delay_cycle
000001b0 l     O .retention_data	00000008 g_pm_longsleep_early_wakeup_time_us
000804c8 l     O .sbss	00000004 clkFastfreq
000804cc l     O .sbss	00000004 exception_mcause
000804d0 l     O .sbss	00000004 exception_mdcause
000804d4 l     O .sbss	00000004 exception_mepc
000804d8 l     O .sbss	00000004 exception_mstatus
000804dc l     O .sbss	00000004 exception_mtval
000804e0 l     O .sbss	00000004 g_chip_version
000804e4 l     O .sbss	00000004 g_pm_status_info
000804ac l     O .data	00000001 init_flag.5287
000804b0 l     O .data	00000006 sys_clk
00080508 l     O .sdk_version	00000022 sdk_version
00000000 l    df *ABS*	00000000 riscv_nn_activation_s16.c.o
00001648 l       .ram_code	00000000 $x
00000000 l    df *ABS*	00000000 riscv_relu6_s8.c.o
000017b0 l       .ram_code	00000000 $x
00000000 l    df *ABS*	00000000 rand.c
00000000 l    df *ABS*	00000000 malloc.c
00000000 l    df *ABS*	00000000 memcpy.c
00000000 l    df *ABS*	00000000 nano-mallocr.c
00000000 l    df *ABS*	00000000 nano-mallocr.c
00000000 l    df *ABS*	00000000 printf.c
00000000 l    df *ABS*	00000000 puts.c
00000000 l    df *ABS*	00000000 strlen.c
00000000 l    df *ABS*	00000000 vprintf.c
00001bac l     F .ram_code	00000038 __vprintf_help
000804f0 l     O .sbss	00000004 __vprintf_buf
000804f4 l     O .sbss	00000004 __vprintf_buf_len
00000000 l    df *ABS*	00000000 printf_impl.c
00000000 l    df *ABS*	00000000 printf_impl_float.c
00000000 l    df *ABS*	00000000 strcpy.c
00000000 l    df *ABS*	00000000 strnlen.c
00000000 l    df *ABS*	00000000 muldf3.c
00000000 l    df *ABS*	00000000 fixunsdfsi.c
00000000 l    df *ABS*	00000000 floatsidf.c
00000000 l    df *ABS*	00000000 extendsfdf2.c
00000000 l    df *ABS*	00000000 _sbrk.c
00080500 l     O .sbss	00000004 heap_end.2408
00000000 l    df *ABS*	00000000 libgcc2.c
00000000 l    df *ABS*	00000000 libgcc2.c
00000000 l    df *ABS*	00000000 printf_data.c
00000000 l    df *ABS*	00000000 impure.c
00080504 l     O .bss	00000000 impure_data
00000000 l    df *ABS*	00000000 
00003020 l       .ram_code	00000000 _EXECIT_BASE_
00001640  w      .ram_code	00000000 entry_irq55
00001640  w      .ram_code	00000000 entry_irq13
0000253c g     F .ram_code	00000078 strcpy
00001640  w      .ram_code	00000000 entry_irq15
00002ef8 g     F .ram_code	0000002e .hidden __ashldi3
00001640  w      .ram_code	00000000 entry_irq27
00001640  w      .ram_code	00000000 entry_irq60
00001640  w      .ram_code	00000000 entry_irq1
00001640  w      .ram_code	00000000 entry_irq52
00001640  w      .ram_code	00000000 entry_irq50
00001640  w      .ram_code	00000000 entry_irq62
00001b00 g     F .ram_code	0000001e printf
00080800 g       .data	00000000 __global_pointer$
00002e48 g       .ram_code	00000000 .hidden __riscv_save_8
00001640  w      .ram_code	00000000 entry_irq58
00002e94 g       .ram_code	00000000 .hidden __riscv_restore_3
000001bc g       .retention_data	00000000 _RETENTION_DATA_VMA_END
00002e80 g       .ram_code	00000000 .hidden __riscv_restore_10
00002e48 g       .ram_code	00000000 .hidden __riscv_save_11
00001648 g     F .ram_code	00000168 riscv_nn_activation_s16
00001c2e g     F .ram_code	00000048 __print_integral
00000000 g       .retention_reset	00000000 _RETENTION_RESET_VMA_START
00001640  w      .ram_code	00000000 entry_irq10
00001640  w      .ram_code	00000000 entry_irq21
00000158 g       .retention_data	00000000 _AES_VMA_START
00001640  w      .ram_code	00000000 entry_irq48
00002e94 g       .ram_code	00000000 .hidden __riscv_restore_2
00001640  w      .ram_code	00000000 entry_irq8
00001640  w      .ram_code	00000000 entry_irq33
00080508 g       .bss	00000000 _BSS_VMA_END
00001834 g     F .ram_code	000000ee memcpy
20000190 g       *ABS*	00000000 _RETENTION_RESET_LMA_START
00002cb4 g     F .ram_code	0000007a .hidden __floatsidf
000804b8 g     O .data	00000008 __mculib_REENT_rand_next
00001c76 g     F .ram_code	00000434 __printf_impl
00001640  w      .ram_code	00000000 entry_irq12
00001b1e g     F .ram_code	0000002c puts
0000181a g     F .ram_code	0000000c malloc
00001640  w      .ram_code	00000000 entry_irq14
00002e40 g       .ram_code	00000000 .hidden __riscv_save_12
00002c1c g     F .ram_code	00000096 .hidden __fixunsdfsi
00001640  w      .ram_code	00000000 entry_irq2
00001640  w      .ram_code	00000000 entry_irq51
00002e80 g       .ram_code	00000000 .hidden __riscv_restore_11
00001640  w      .ram_code	00000000 entry_irq28
00001640  w      .ram_code	00000000 entry_irq43
00002e70 g       .ram_code	00000000 .hidden __riscv_save_1
00002e94 g       .ram_code	00000000 .hidden __riscv_restore_0
00001640  w      .ram_code	00000000 entry_irq20
00002e56 g       .ram_code	00000000 .hidden __riscv_save_7
000804c8 g       .sbss	00000000 _BSS_VMA_START
00001640  w      .ram_code	00000000 entry_irq63
000804c4 g       .data	00000000 _DATA_VMA_END
00002d30 g     F .ram_code	00000110 .hidden __extendsfdf2
00001640  w      .ram_code	00000000 entry_irq46
00001640  w      .ram_code	00000000 entry_irq31
00001640  w      .ram_code	00000000 entry_irq16
00100000 g       *ABS*	00000000 FLASH_SIZE
00002e8a g       .ram_code	00000000 .hidden __riscv_restore_5
00080000 g       .data	00000000 _DATA_VMA_START
00002ea0  w    F .ram_code	00000026 _sbrk
00001640  w      .ram_code	00000000 entry_irq53
00001640  w      .ram_code	00000000 entry_irq11
00000154 g       .retention_reset	00000000 _RETENTION_RESET_VMA_END
000025b6 g     F .ram_code	00000018 strnlen
00002e8a g       .ram_code	00000000 .hidden __riscv_restore_6
00001640  w      .ram_code	00000000 entry_irq5
00001640  w      .ram_code	00000000 entry_irq23
00001642  w      .ram_code	00000000 trap_handler
00001640  w      .ram_code	00000000 entry_irq34
00002ec8 g     F .ram_code	0000002e .hidden __lshrdi3
00001640  w      .ram_code	00000000 entry_irq36
00002e48 g       .ram_code	00000000 .hidden __riscv_save_9
00001640  w      .ram_code	00000000 entry_irq44
00001be4 g     F .ram_code	0000004a vprintf
00001640  w      .ram_code	00000000 entry_irq45
00001640  w      .ram_code	00000000 entry_irq26
00002e56 g       .ram_code	00000000 .hidden __riscv_save_4
00001640  w      .ram_code	00000000 entry_irq41
00001640  w      .ram_code	00000000 entry_irq61
20000000 g       .vectors	00000000 BIN_BEGIN
000019cc g     F .ram_code	0000008e _free_r
00002e70 g       .ram_code	00000000 .hidden __riscv_save_3
00001640  w      .ram_code	00000000 entry_irq38
000017de g     F .ram_code	0000003c rand
00000d00 g       .ram_code	00000000 __vectors
0000379e g       *ABS*	00000000 BIN_SIZE
00080454 g     O .data	00000010 __digits
20000350 g       *ABS*	00000000 _RAMCODE_LMA_START
000804fc g     O .sbss	00000004 __printf_count
00001640  w      .ram_code	00000000 entry_irq59
00001640  w      .ram_code	00000000 entry_irq6
000025d0 g     F .ram_code	00000648 .hidden __muldf3
00002e48 g       .ram_code	00000000 .hidden __riscv_save_10
000804f8 g     O .sbss	00000004 __mculib_REENT_errno
200032b8 g       *ABS*	00000000 _DATA_LMA_START
000020c8 g     F .ram_code	00000092 __print_integral_poly
20000000 g       *ABS*	00000000 NDS_SAG_LMA_FLASH
00002e8a g       .ram_code	00000000 .hidden __riscv_restore_4
00002e80 g       .ram_code	00000000 .hidden __riscv_restore_8
00002e56 g       .ram_code	00000000 .hidden __riscv_save_6
20000000  w      .vectors	00000000 _RELAX_END_
00080254 g     O .data	00000200 sigmoid_table_uint16
0000215a g     F .ram_code	000003e0 __printf_float_impl
00001922 g     F .ram_code	000000aa memset
00002e80 g       .ram_code	00000000 .hidden __riscv_restore_9
00002e8a g       .ram_code	00000000 .hidden __riscv_restore_7
0000121e g     F .ram_code	00000420 main
00001640 g       .ram_code	00000000 default_irq_entry
00001640  w      .ram_code	00000000 entry_irq3
00000bbc g     F .ram_code	000000dc trap_entry
00000158 g       .retention_data	00000000 _AES_VMA_END
000017d2 g     F .ram_code	0000000c srand
000017b0 g     F .ram_code	00000022 riscv_relu6_s8
00001640  w      .ram_code	00000000 entry_irq39
00001640  w      .ram_code	00000000 entry_irq49
00001a5a g     F .ram_code	000000a6 _malloc_r
00001640  w      .ram_code	00000000 entry_irq57
00001640  w      .ram_code	00000000 entry_irq47
200002e8 g       *ABS*	00000000 _RETENTION_DATA_LMA_START
20000000 g     F .vectors	00000000 _RESET_ENTRY
00000158 g       .retention_data	00000000 _RETENTION_DATA_VMA_START
00001640  w      .ram_code	00000000 entry_irq4
000a0000 g       *ABS*	00000000 _STACK_TOP
00001640  w      .ram_code	00000000 entry_irq22
00001640  w      .ram_code	00000000 entry_irq30
000804c0 g     O .data	00000004 _impure_ptr
00001640  w      .ram_code	00000000 entry_irq42
00001640  w      .ram_code	00000000 entry_irq24
00002e70 g       .ram_code	00000000 .hidden __riscv_save_2
00003168 g       .ram_code	00000000 _RAMCODE_VMA_END
00003020  w      .ram_code	00000000 _ITB_BASE_
00002e56 g       .ram_code	00000000 .hidden __riscv_save_5
00001640  w      .ram_code	00000000 entry_irq19
000011ee g     F .ram_code	00000030 _write
00080530 g       .sdk_version	00000000 _end
00001640  w      .ram_code	00000000 entry_irq17
00001640  w      .ram_code	00000000 entry_irq9
00001640  w      .ram_code	00000000 entry_irq56
00001640  w      .ram_code	00000000 entry_irq35
00001640  w      .ram_code	00000000 entry_irq37
000001b8 g     O .retention_data	00000004 g_pm_mspi_cfg
00001640  w      .ram_code	00000000 entry_irq54
00001640  w      .ram_code	00000000 entry_irq40
00002e7c g       .ram_code	00000000 .hidden __riscv_restore_12
00000200 g       .ram_code	00000000 _RAMCODE_VMA_START
00002e70 g       .ram_code	00000000 .hidden __riscv_save_0
00001b4c g     F .ram_code	0000005e strlen
00001640  w      .ram_code	00000000 entry_irq29
000804ec g     O .sbss	00000004 __malloc_sbrk_start
000804e8 g     O .sbss	00000004 __malloc_free_list
00002e94 g       .ram_code	00000000 .hidden __riscv_restore_1
00001640  w      .ram_code	00000000 entry_irq7
00001640  w      .ram_code	00000000 entry_irq32
00000000 g     F .retention_reset	00000000 _IRESET_ENTRY
00001640  w      .ram_code	00000000 entry_irq18
000020aa g     F .ram_code	0000001e __int_to_poly
00001826 g     F .ram_code	0000000c free
00001640  w      .ram_code	00000000 entry_irq25



Disassembly of section .vectors:

20000000 <_RESET_ENTRY>:
20000000:	a025                	c.j	20000028 <_START>
	...
20000016:	0000                	unimp
20000018:	379e                	c.fldsp	fa5,480(sp)
2000001a:	0000                	unimp
2000001c:	0000                	unimp
2000001e:	0000                	unimp
20000020:	544c4e4b          	fnmsub.h	ft8,fs8,ft4,fa0,rmm
20000024:	0000                	unimp
20000026:	          	sllw	a4,zero,zero

20000028 <_START>:
20000028:	e0080197          	auipc	gp,0xe0080
2000002c:	7d818193          	addi	gp,gp,2008 # 80800 <__global_pointer$>
20000030:	801002b7          	lui	t0,0x80100
20000034:	70028293          	addi	t0,t0,1792 # 80100700 <_DATA_LMA_START+0x600fd448>
20000038:	04000313          	li	t1,64
2000003c:	506280a3          	sb	t1,1281(t0)
20000040:	e00a0297          	auipc	t0,0xe00a0
20000044:	fc028293          	addi	t0,t0,-64 # a0000 <_STACK_TOP>
20000048:	8116                	c.mv	sp,t0
2000004a:	e0003297          	auipc	t0,0xe0003
2000004e:	fd628293          	addi	t0,t0,-42 # 3020 <_ITB_BASE_>
20000052:	80029073          	csrw	uitb,t0
20000056:	6299                	c.lui	t0,0x6
20000058:	3002a2f3          	csrrs	t0,mstatus,t0
2000005c:	00301073          	fssr	zero
20000060:	e0001297          	auipc	t0,0xe0001
20000064:	ca028293          	addi	t0,t0,-864 # d00 <__vectors>
20000068:	30529073          	csrw	mtvec,t0
2000006c:	7d016073          	csrsi	mmisc_ctl,2
20000070:	e40002b7          	lui	t0,0xe4000
20000074:	4309                	c.li	t1,2
20000076:	0062a023          	sw	t1,0(t0) # e4000000 <_DATA_LMA_START+0xc3ffcd48>
2000007a:	7ca022f3          	csrr	t0,mcache_ctl
2000007e:	0012e293          	ori	t0,t0,1
20000082:	0022e293          	ori	t0,t0,2
20000086:	7ca29073          	csrw	mcache_ctl,t0
2000008a:	0000100f          	fence.i

2000008e <_RETENTION_RESET_INIT>:
2000008e:	00000317          	auipc	t1,0x0
20000092:	10230313          	addi	t1,t1,258 # 20000190 <_RETENTION_RESET_LMA_START>
20000096:	e0000397          	auipc	t2,0xe0000
2000009a:	f6a38393          	addi	t2,t2,-150 # 0 <_IRESET_ENTRY>
2000009e:	e0000e17          	auipc	t3,0xe0000
200000a2:	0b6e0e13          	addi	t3,t3,182 # 154 <_RETENTION_RESET_VMA_END>

200000a6 <_RETENTION_RESET_BEGIN>:
200000a6:	01c3f963          	bgeu	t2,t3,200000b8 <_RETENTION_DATA_INIT>
200000aa:	00032283          	lw	t0,0(t1)
200000ae:	0053a023          	sw	t0,0(t2)
200000b2:	0311                	c.addi	t1,4
200000b4:	0391                	c.addi	t2,4
200000b6:	bfc5                	c.j	200000a6 <_RETENTION_RESET_BEGIN>

200000b8 <_RETENTION_DATA_INIT>:
200000b8:	00000317          	auipc	t1,0x0
200000bc:	23030313          	addi	t1,t1,560 # 200002e8 <_RETENTION_DATA_LMA_START>
200000c0:	15800393          	li	t2,344
200000c4:	e0000e17          	auipc	t3,0xe0000
200000c8:	0f8e0e13          	addi	t3,t3,248 # 1bc <_RETENTION_DATA_VMA_END>

200000cc <_RETENTION_DATA_INIT_BEGIN>:
200000cc:	01c3f963          	bgeu	t2,t3,200000de <_RAMCODE_INIT>
200000d0:	00032283          	lw	t0,0(t1)
200000d4:	0053a023          	sw	t0,0(t2)
200000d8:	0311                	c.addi	t1,4
200000da:	0391                	c.addi	t2,4
200000dc:	bfc5                	c.j	200000cc <_RETENTION_DATA_INIT_BEGIN>

200000de <_RAMCODE_INIT>:
200000de:	00000317          	auipc	t1,0x0
200000e2:	27230313          	addi	t1,t1,626 # 20000350 <_RAMCODE_LMA_START>
200000e6:	e0000397          	auipc	t2,0xe0000
200000ea:	11a38393          	addi	t2,t2,282 # 200 <delay_ms.constprop.12>
200000ee:	e0003e17          	auipc	t3,0xe0003
200000f2:	07ae0e13          	addi	t3,t3,122 # 3168 <_RAMCODE_VMA_END>

200000f6 <_RAMCODE_INIT_BEGIN>:
200000f6:	01c3f963          	bgeu	t2,t3,20000108 <_DATA_INIT>
200000fa:	00032283          	lw	t0,0(t1)
200000fe:	0053a023          	sw	t0,0(t2)
20000102:	0311                	c.addi	t1,4
20000104:	0391                	c.addi	t2,4
20000106:	bfc5                	c.j	200000f6 <_RAMCODE_INIT_BEGIN>

20000108 <_DATA_INIT>:
20000108:	00003317          	auipc	t1,0x3
2000010c:	1b030313          	addi	t1,t1,432 # 200032b8 <_DATA_LMA_START>
20000110:	e0080397          	auipc	t2,0xe0080
20000114:	ef038393          	addi	t2,t2,-272 # 80000 <_DATA_VMA_START>
20000118:	e0080e17          	auipc	t3,0xe0080
2000011c:	3ace0e13          	addi	t3,t3,940 # 804c4 <_DATA_VMA_END>

20000120 <_DATA_INIT_BEGIN>:
20000120:	01c3f963          	bgeu	t2,t3,20000132 <_ZERO_BSS>
20000124:	00032283          	lw	t0,0(t1)
20000128:	0053a023          	sw	t0,0(t2)
2000012c:	0311                	c.addi	t1,4
2000012e:	0391                	c.addi	t2,4
20000130:	bfc5                	c.j	20000120 <_DATA_INIT_BEGIN>

20000132 <_ZERO_BSS>:
20000132:	000002b7          	lui	t0,0x0
20000136:	e0080397          	auipc	t2,0xe0080
2000013a:	39238393          	addi	t2,t2,914 # 804c8 <_BSS_VMA_START>
2000013e:	e0080e17          	auipc	t3,0xe0080
20000142:	3cae0e13          	addi	t3,t3,970 # 80508 <_BSS_VMA_END>

20000146 <_ZERO_BSS_BEGIN>:
20000146:	01c3f663          	bgeu	t2,t3,20000152 <_ZERO_AES>
2000014a:	0053a023          	sw	t0,0(t2)
2000014e:	0391                	c.addi	t2,4
20000150:	bfdd                	c.j	20000146 <_ZERO_BSS_BEGIN>

20000152 <_ZERO_AES>:
20000152:	000002b7          	lui	t0,0x0
20000156:	e0000397          	auipc	t2,0xe0000
2000015a:	00238393          	addi	t2,t2,2 # 158 <_AES_VMA_END>
2000015e:	e0000e17          	auipc	t3,0xe0000
20000162:	ffae0e13          	addi	t3,t3,-6 # 158 <_AES_VMA_END>

20000166 <_ZERO_AES_BEGIN>:
20000166:	01c3f663          	bgeu	t2,t3,20000172 <_FILL_STK>
2000016a:	0053a023          	sw	t0,0(t2)
2000016e:	0391                	c.addi	t2,4
20000170:	bfdd                	c.j	20000166 <_ZERO_AES_BEGIN>

20000172 <_FILL_STK>:
20000172:	0001                	c.nop
20000174:	e0001297          	auipc	t0,0xe0001
20000178:	0aa28293          	addi	t0,t0,170 # 121e <main>
2000017c:	9282                	c.jalr	t0
2000017e:	0001                	c.nop
20000180:	0001                	c.nop
20000182:	0001                	c.nop
20000184:	0001                	c.nop
20000186:	0001                	c.nop

20000188 <_END>:
20000188:	a001                	c.j	20000188 <_END>

Disassembly of section .retention_reset:

00000000 <_IRESET_ENTRY>:
   0:	a00d                	c.j	22 <_ISTART>
	...

00000022 <_ISTART>:
  22:	00080197          	auipc	gp,0x80
  26:	7de18193          	addi	gp,gp,2014 # 80800 <__global_pointer$>

0000002a <_ISWS_USB_DIS>:
  2a:	801002b7          	lui	t0,0x80100
  2e:	70028293          	addi	t0,t0,1792 # 80100700 <_DATA_LMA_START+0x600fd448>
  32:	04000313          	li	t1,64
  36:	506280a3          	sb	t1,1281(t0)
  3a:	000a0297          	auipc	t0,0xa0
  3e:	fc628293          	addi	t0,t0,-58 # a0000 <_STACK_TOP>
  42:	8116                	c.mv	sp,t0
  44:	00003297          	auipc	t0,0x3
  48:	fdc28293          	addi	t0,t0,-36 # 3020 <_ITB_BASE_>
  4c:	80029073          	csrw	uitb,t0
  50:	6299                	c.lui	t0,0x6
  52:	3002a2f3          	csrrs	t0,mstatus,t0
  56:	00301073          	fssr	zero
  5a:	00001297          	auipc	t0,0x1
  5e:	ca628293          	addi	t0,t0,-858 # d00 <__vectors>
  62:	30529073          	csrw	mtvec,t0
  66:	7d016073          	csrsi	mmisc_ctl,2
  6a:	e40002b7          	lui	t0,0xe4000
  6e:	4309                	c.li	t1,2
  70:	0062a023          	sw	t1,0(t0) # e4000000 <_DATA_LMA_START+0xc3ffcd48>
  74:	7ca022f3          	csrr	t0,mcache_ctl
  78:	0012e293          	ori	t0,t0,1
  7c:	0022e293          	ori	t0,t0,2
  80:	7ca29073          	csrw	mcache_ctl,t0
  84:	0000100f          	fence.i

00000088 <_WAKEUP_FLASH>:
  88:	801402b7          	lui	t0,0x80140
  8c:	0ff00313          	li	t1,255
  90:	4381                	c.li	t2,0
  92:	0ab00e13          	li	t3,171
  96:	326284a3          	sb	t1,809(t0) # 80140329 <_DATA_LMA_START+0x6013d071>
  9a:	107280a3          	sb	t2,257(t0)
  9e:	11c28023          	sb	t3,256(t0)

000000a2 <_MSPI_WAIT>:
  a2:	801402b7          	lui	t0,0x80140
  a6:	10228383          	lb	t2,258(t0) # 80140102 <_DATA_LMA_START+0x6013ce4a>
  aa:	4e05                	c.li	t3,1
  ac:	4ec1                	c.li	t4,16
  ae:	fe7e0ae3          	beq	t3,t2,a2 <_MSPI_WAIT>
  b2:	11d280a3          	sb	t4,257(t0)
  b6:	4281                	c.li	t0,0
  b8:	14000313          	li	t1,320

000000bc <_WAIT_EFUSE_LOAD_AND_FLASH_WAKEUP_FINISH>:
  bc:	0285                	c.addi	t0,1
  be:	fe537fe3          	bgeu	t1,t0,bc <_WAIT_EFUSE_LOAD_AND_FLASH_WAKEUP_FINISH>

000000c2 <_MULTI_ADDRESS_BEGIN>:
  c2:	801402b7          	lui	t0,0x80140
  c6:	1b800313          	li	t1,440
  ca:	00032383          	lw	t2,0(t1)
  ce:	1072a223          	sw	t2,260(t0) # 80140104 <_DATA_LMA_START+0x6013ce4c>

000000d2 <_IZERO_BSS>:
  d2:	000002b7          	lui	t0,0x0
  d6:	00080397          	auipc	t2,0x80
  da:	3f238393          	addi	t2,t2,1010 # 804c8 <_BSS_VMA_START>
  de:	00080e17          	auipc	t3,0x80
  e2:	42ae0e13          	addi	t3,t3,1066 # 80508 <_BSS_VMA_END>

000000e6 <_IZERO_BSS_BEGIN>:
  e6:	01c3f663          	bgeu	t2,t3,f2 <_IZERO_AES>
  ea:	0053a023          	sw	t0,0(t2)
  ee:	0391                	c.addi	t2,4
  f0:	bfdd                	c.j	e6 <_IZERO_BSS_BEGIN>

000000f2 <_IZERO_AES>:
  f2:	000002b7          	lui	t0,0x0
  f6:	00000397          	auipc	t2,0x0
  fa:	06238393          	addi	t2,t2,98 # 158 <_AES_VMA_END>
  fe:	00000e17          	auipc	t3,0x0
 102:	05ae0e13          	addi	t3,t3,90 # 158 <_AES_VMA_END>

00000106 <_IZERO_AES_BEGIN>:
 106:	01c3f663          	bgeu	t2,t3,112 <_IDATA_INIT>
 10a:	0053a023          	sw	t0,0(t2)
 10e:	0391                	c.addi	t2,4
 110:	bfdd                	c.j	106 <_IZERO_AES_BEGIN>

00000112 <_IDATA_INIT>:
 112:	20003317          	auipc	t1,0x20003
 116:	1a630313          	addi	t1,t1,422 # 200032b8 <_DATA_LMA_START>
 11a:	00080397          	auipc	t2,0x80
 11e:	ee638393          	addi	t2,t2,-282 # 80000 <_DATA_VMA_START>
 122:	00080e17          	auipc	t3,0x80
 126:	3a2e0e13          	addi	t3,t3,930 # 804c4 <_DATA_VMA_END>

0000012a <_IDATA_INIT_BEGIN>:
 12a:	01c3f963          	bgeu	t2,t3,13c <_IMAIN_FUNC>
 12e:	00032283          	lw	t0,0(t1)
 132:	0053a023          	sw	t0,0(t2)
 136:	0311                	c.addi	t1,4
 138:	0391                	c.addi	t2,4
 13a:	bfc5                	c.j	12a <_IDATA_INIT_BEGIN>

0000013c <_IMAIN_FUNC>:
 13c:	0001                	c.nop
 13e:	00001297          	auipc	t0,0x1
 142:	0e028293          	addi	t0,t0,224 # 121e <main>
 146:	9282                	c.jalr	t0
 148:	0001                	c.nop
 14a:	0001                	c.nop
 14c:	0001                	c.nop
 14e:	0001                	c.nop
 150:	0001                	c.nop

00000152 <_IEND>:
 152:	a001                	c.j	152 <_IEND>

Disassembly of section .ram_code:

00000200 <delay_ms.constprop.12>:
     200:	8c00                	exec.it	#6     !
     202:	2007a683          	lw	a3,512(a5)
     206:	0004e7b7          	lui	a5,0x4e
     20a:	8040                	exec.it	#32     !
     20c:	20078793          	addi	a5,a5,512 # 4e200 <BIN_SIZE+0x4aa62>
     210:	8210                	exec.it	#65     !
     212:	8f15                	c.sub	a4,a3
     214:	fee7fee3          	bgeu	a5,a4,210 <delay_ms.constprop.12+0x10>
     218:	8082                	c.jr	ra

0000021a <mspi_fm_data_line>:
     21a:	8410                	exec.it	#3     !
     21c:	8430                	exec.it	#19     !
     21e:	0f37f793          	andi	a5,a5,243
     222:	8d5d                	c.or	a0,a5
     224:	10a700a3          	sb	a0,257(a4)
     228:	8082                	c.jr	ra

0000022a <mspi_wait.lto_priv.15>:
     22a:	8410                	exec.it	#3     !
     22c:	10270783          	lb	a5,258(a4)
     230:	fe07fe5b          	bbs	a5,0,22c <mspi_wait.lto_priv.15+0x2>
     234:	8082                	c.jr	ra

00000236 <mspi_stop_xip.lto_priv.13>:
     236:	8004                	exec.it	#8     !
     238:	3fcd                	c.jal	22a <mspi_wait.lto_priv.15>
     23a:	8410                	exec.it	#3     !
     23c:	8430                	exec.it	#19     !
     23e:	8000                	exec.it	#0     !
     240:	8824                	exec.it	#28     !
     242:	8024                	exec.it	#24     !
     244:	32870783          	lb	a5,808(a4)
     248:	be37fe5b          	bbc	a5,3,244 <mspi_stop_xip.lto_priv.13+0xe>
     24c:	8014                	exec.it	#9     !

0000024e <flash_send_addr>:
     24e:	423022ef          	jal	t0,2e70 <__riscv_save_0>
     252:	5d0527db          	bfoz	a5,a0,23,16
     256:	8020                	exec.it	#16     !
     258:	842a                	c.mv	s0,a0
     25a:	10f48023          	sb	a5,256(s1)
     25e:	37f1                	c.jal	22a <mspi_wait.lto_priv.15>
     260:	3c8427db          	bfoz	a5,s0,15,8
     264:	0ff47413          	andi	s0,s0,255
     268:	10f48023          	sb	a5,256(s1)
     26c:	3f7d                	c.jal	22a <mspi_wait.lto_priv.15>
     26e:	10848023          	sb	s0,256(s1)
     272:	3f65                	c.jal	22a <mspi_wait.lto_priv.15>
     274:	4210206f          	j	2e94 <__riscv_restore_0>

00000278 <flash_send_cmd>:
     278:	8004                	exec.it	#8     !
     27a:	8c00                	exec.it	#6     !
     27c:	8060                	exec.it	#48     !
     27e:	8804                	exec.it	#12     !
     280:	8204                	exec.it	#72     !
     282:	8044                	exec.it	#40     !
     284:	0001                	c.nop
     286:	0001                	c.nop
     288:	0001                	c.nop
     28a:	0001                	c.nop
     28c:	0001                	c.nop
     28e:	0001                	c.nop
     290:	0001                	c.nop
     292:	0001                	c.nop
     294:	0001                	c.nop
     296:	0001                	c.nop
     298:	8060                	exec.it	#48     !
     29a:	0ef77713          	andi	a4,a4,239
     29e:	8044                	exec.it	#40     !
     2a0:	10a78023          	sb	a0,256(a5)
     2a4:	3759                	c.jal	22a <mspi_wait.lto_priv.15>
     2a6:	8014                	exec.it	#9     !

000002a8 <clock_set_32k_tick>:
     2a8:	8410                	exec.it	#3     !
     2aa:	8c34                	exec.it	#31     !
     2ac:	8000                	exec.it	#0     !
     2ae:	8034                	exec.it	#25     !
     2b0:	8050                	exec.it	#33     !
     2b2:	8c00                	exec.it	#6     !
     2b4:	20b78683          	lb	a3,523(a5)
     2b8:	20b78713          	addi	a4,a5,523
     2bc:	fe66fc5b          	bbs	a3,6,2b4 <clock_set_32k_tick+0xc>
     2c0:	20a7a623          	sw	a0,524(a5)
     2c4:	47a1                	c.li	a5,8
     2c6:	00f70023          	sb	a5,0(a4)
     2ca:	0001                	c.nop
     2cc:	0001                	c.nop
     2ce:	0001                	c.nop
     2d0:	0001                	c.nop
     2d2:	0001                	c.nop
     2d4:	0001                	c.nop
     2d6:	0001                	c.nop
     2d8:	0001                	c.nop
     2da:	0001                	c.nop
     2dc:	0001                	c.nop
     2de:	0001                	c.nop
     2e0:	0001                	c.nop
     2e2:	0001                	c.nop
     2e4:	0001                	c.nop
     2e6:	0001                	c.nop
     2e8:	0001                	c.nop
     2ea:	8410                	exec.it	#3     !
     2ec:	20b70783          	lb	a5,523(a4)
     2f0:	fe37fe5b          	bbs	a5,3,2ec <clock_set_32k_tick+0x44>
     2f4:	00008067          	ret

000002f8 <plic_exit_critical_sec>:
     2f8:	8c20                	exec.it	#22     !
     2fa:	8070                	exec.it	#49     !
     2fc:	8a00                	exec.it	#68     !
     2fe:	8000                	exec.it	#0     !
     300:	c395                	c.beqz	a5,324 <plic_exit_critical_sec+0x2c>
     302:	c10d                	c.beqz	a0,324 <plic_exit_critical_sec+0x2c>
     304:	300027f3          	csrr	a5,mstatus
     308:	8ba1                	c.andi	a5,8
     30a:	8814                	exec.it	#13     !
     30c:	c395                	c.beqz	a5,330 <plic_exit_critical_sec+0x38>
     30e:	8610                	exec.it	#67     !
     310:	8400                	exec.it	#2     !
     312:	e4200737          	lui	a4,0xe4200
     316:	00b72023          	sw	a1,0(a4) # e4200000 <_DATA_LMA_START+0xc41fcd48>
     31a:	8400                	exec.it	#2     !
     31c:	8074                	exec.it	#57     !
     31e:	8400                	exec.it	#2     !
     320:	00008067          	ret
     324:	ddf5                	c.beqz	a1,320 <plic_exit_critical_sec+0x28>
     326:	3005a5f3          	csrrs	a1,mstatus,a1
     32a:	0ff0000f          	fence
     32e:	bfcd                	c.j	320 <plic_exit_critical_sec+0x28>
     330:	e42007b7          	lui	a5,0xe4200
     334:	c38c                	c.sw	a1,0(a5)
     336:	0ff0000f          	fence
     33a:	b7dd                	c.j	320 <plic_exit_critical_sec+0x28>

0000033c <plic_enter_critical_sec>:
     33c:	8c20                	exec.it	#22     !
     33e:	8070                	exec.it	#49     !
     340:	8a00                	exec.it	#68     !
     342:	8000                	exec.it	#0     !
     344:	c785                	c.beqz	a5,36c <plic_enter_critical_sec+0x30>
     346:	c11d                	c.beqz	a0,36c <plic_enter_critical_sec+0x30>
     348:	e4200737          	lui	a4,0xe4200
     34c:	4308                	c.lw	a0,0(a4)
     34e:	00b57d63          	bgeu	a0,a1,368 <plic_enter_critical_sec+0x2c>
     352:	300027f3          	csrr	a5,mstatus
     356:	8ba1                	c.andi	a5,8
     358:	c395                	c.beqz	a5,37c <plic_enter_critical_sec+0x40>
     35a:	300476f3          	csrrci	a3,mstatus,8
     35e:	8400                	exec.it	#2     !
     360:	c30c                	c.sw	a1,0(a4)
     362:	8400                	exec.it	#2     !
     364:	8074                	exec.it	#57     !
     366:	8400                	exec.it	#2     !
     368:	00008067          	ret
     36c:	30002573          	csrr	a0,mstatus
     370:	8921                	c.andi	a0,8
     372:	d97d                	c.beqz	a0,368 <plic_enter_critical_sec+0x2c>
     374:	8874                	exec.it	#61     !
     376:	8400                	exec.it	#2     !
     378:	ff1ff06f          	j	368 <plic_enter_critical_sec+0x2c>
     37c:	c30c                	c.sw	a1,0(a4)
     37e:	8400                	exec.it	#2     !
     380:	b7e5                	c.j	368 <plic_enter_critical_sec+0x2c>

00000382 <flash_mspi_read_ram>:
     382:	2c7022ef          	jal	t0,2e48 <__riscv_save_10>
     386:	00000937          	lui	s2,0x0
     38a:	8abe                	c.mv	s5,a5
     38c:	15890793          	addi	a5,s2,344 # 158 <_AES_VMA_END>
     390:	8a2a                	c.mv	s4,a0
     392:	84ae                	c.mv	s1,a1
     394:	0087c503          	lbu	a0,8(a5) # e4200008 <_DATA_LMA_START+0xc41fcd50>
     398:	0097c583          	lbu	a1,9(a5)
     39c:	1141                	c.addi	sp,-16
     39e:	c632                	c.swsp	a2,12(sp)
     3a0:	8b36                	c.mv	s6,a3
     3a2:	843a                	c.mv	s0,a4
     3a4:	3f61                	c.jal	33c <plic_enter_critical_sec>
     3a6:	89aa                	c.mv	s3,a0
     3a8:	3579                	c.jal	236 <mspi_stop_xip.lto_priv.13>
     3aa:	8410                	exec.it	#3     !
     3ac:	8430                	exec.it	#19     !
     3ae:	4501                	c.li	a0,0
     3b0:	0fd7f793          	andi	a5,a5,253
     3b4:	8024                	exec.it	#24     !
     3b6:	3595                	c.jal	21a <mspi_fm_data_line>
     3b8:	8552                	c.mv	a0,s4
     3ba:	3d7d                	c.jal	278 <flash_send_cmd>
     3bc:	4632                	c.lwsp	a2,12(sp)
     3be:	15890913          	addi	s2,s2,344
     3c2:	c219                	c.beqz	a2,3c8 <flash_mspi_read_ram+0x46>
     3c4:	8526                	c.mv	a0,s1
     3c6:	3561                	c.jal	24e <flash_send_addr>
     3c8:	4481                	c.li	s1,0
     3ca:	80140bb7          	lui	s7,0x80140
     3ce:	0764e563          	bltu	s1,s6,438 <flash_mspi_read_ram+0xb6>
     3d2:	01ba64db          	bnec	s4,59,3da <flash_mspi_read_ram+0x58>
     3d6:	4511                	c.li	a0,4
     3d8:	3589                	c.jal	21a <mspi_fm_data_line>
     3da:	8020                	exec.it	#16     !
     3dc:	10148783          	lb	a5,257(s1)
     3e0:	9aa2                	c.add	s5,s0
     3e2:	8000                	exec.it	#0     !
     3e4:	0027e793          	ori	a5,a5,2
     3e8:	10f480a3          	sb	a5,257(s1)
     3ec:	10048023          	sb	zero,256(s1)
     3f0:	3d2d                	c.jal	22a <mspi_wait.lto_priv.15>
     3f2:	10148783          	lb	a5,257(s1)
     3f6:	8000                	exec.it	#0     !
     3f8:	8034                	exec.it	#25     !
     3fa:	10f480a3          	sb	a5,257(s1)
     3fe:	3535                	c.jal	22a <mspi_wait.lto_priv.15>
     400:	05541163          	bne	s0,s5,442 <flash_mspi_read_ram+0xc0>
     404:	8410                	exec.it	#3     !
     406:	8430                	exec.it	#19     !
     408:	0fe7f793          	andi	a5,a5,254
     40c:	8024                	exec.it	#24     !
     40e:	01ba64db          	bnec	s4,59,416 <flash_mspi_read_ram+0x94>
     412:	4501                	c.li	a0,0
     414:	3519                	c.jal	21a <mspi_fm_data_line>
     416:	8410                	exec.it	#3     !
     418:	8430                	exec.it	#19     !
     41a:	8000                	exec.it	#0     !
     41c:	8824                	exec.it	#28     !
     41e:	8024                	exec.it	#24     !
     420:	0001                	c.nop
     422:	0001                	c.nop
     424:	0001                	c.nop
     426:	0001                	c.nop
     428:	0001                	c.nop
     42a:	00894503          	lbu	a0,8(s2)
     42e:	85ce                	c.mv	a1,s3
     430:	35e1                	c.jal	2f8 <plic_exit_critical_sec>
     432:	0141                	c.addi	sp,16
     434:	24d0206f          	j	2e80 <__riscv_restore_10>
     438:	100b8023          	sb	zero,256(s7) # 80140100 <_DATA_LMA_START+0x6013ce48>
     43c:	0485                	c.addi	s1,1
     43e:	33f5                	c.jal	22a <mspi_wait.lto_priv.15>
     440:	b779                	c.j	3ce <flash_mspi_read_ram+0x4c>
     442:	10048783          	lb	a5,256(s1)
     446:	0405                	c.addi	s0,1
     448:	fef40fa3          	sb	a5,-1(s0)
     44c:	3bf9                	c.jal	22a <mspi_wait.lto_priv.15>
     44e:	bf4d                	c.j	400 <flash_mspi_read_ram+0x7e>

00000450 <analog_read_reg32.constprop.5>:
     450:	8004                	exec.it	#8     !
     452:	8c60                	exec.it	#54     !
     454:	8410                	exec.it	#3     !
     456:	4691                	c.li	a3,4
     458:	18d701a3          	sb	a3,387(a4) # e4200183 <_DATA_LMA_START+0xc41fcecb>
     45c:	06000693          	li	a3,96
     460:	18d70023          	sb	a3,384(a4)
     464:	87aa                	c.mv	a5,a0
     466:	04000693          	li	a3,64
     46a:	18d70123          	sb	a3,386(a4)
     46e:	18270683          	lb	a3,386(a4)
     472:	fe76fe5b          	bbs	a3,7,46e <analog_read_reg32.constprop.5+0x1e>
     476:	18472503          	lw	a0,388(a4)
     47a:	c399                	c.beqz	a5,480 <analog_read_reg32.constprop.5+0x30>
     47c:	8074                	exec.it	#57     !
     47e:	8400                	exec.it	#2     !
     480:	8014                	exec.it	#9     !

00000482 <clock_get_32k_tick>:
     482:	1ef022ef          	jal	t0,2e70 <__riscv_save_0>
     486:	37e9                	c.jal	450 <analog_read_reg32.constprop.5>
     488:	842a                	c.mv	s0,a0
     48a:	37d9                	c.jal	450 <analog_read_reg32.constprop.5>
     48c:	40850733          	sub	a4,a0,s0
     490:	00a00433          	add	s0,zero,a0
     494:	be176b5b          	bnec	a4,1,48a <clock_get_32k_tick+0x8>
     498:	1fd0206f          	j	2e94 <__riscv_restore_0>

0000049c <pm_stimer_recover>:
     49c:	8004                	exec.it	#8     !
     49e:	8410                	exec.it	#3     !
     4a0:	4789                	c.li	a5,2
     4a2:	20f70c23          	sb	a5,536(a4)
     4a6:	8c34                	exec.it	#31     !
     4a8:	8000                	exec.it	#0     !
     4aa:	8e04                	exec.it	#78     !
     4ac:	8050                	exec.it	#33     !
     4ae:	3fd1                	c.jal	482 <clock_get_32k_tick>
     4b0:	8c20                	exec.it	#22     !
     4b2:	15878713          	addi	a4,a5,344
     4b6:	00a74703          	lbu	a4,10(a4)
     4ba:	8070                	exec.it	#49     !
     4bc:	cf01                	c.beqz	a4,4d4 <pm_stimer_recover+0x38>
     4be:	4bd8                	c.lw	a4,20(a5)
     4c0:	5fd0                	c.lw	a2,60(a5)
     4c2:	40e50733          	sub	a4,a0,a4
     4c6:	4b94                	c.lw	a3,16(a5)
     4c8:	0705                	c.addi	a4,1
     4ca:	8315                	c.srli	a4,0x5
     4cc:	c4c716ff          	maddr32	a3,a4,a2
     4d0:	8736                	c.mv	a4,a3
     4d2:	a819                	c.j	4e8 <pm_stimer_recover+0x4c>
     4d4:	4bd8                	c.lw	a4,20(a5)
     4d6:	5fd4                	c.lw	a3,60(a5)
     4d8:	40e50733          	sub	a4,a0,a4
     4dc:	0705                	c.addi	a4,1
     4de:	02d70733          	mul	a4,a4,a3
     4e2:	4b94                	c.lw	a3,16(a5)
     4e4:	8315                	c.srli	a4,0x5
     4e6:	9736                	c.add	a4,a3
     4e8:	c7d8                	c.sw	a4,12(a5)
     4ea:	4bd8                	c.lw	a4,20(a5)
     4ec:	47d4                	c.lw	a3,12(a5)
     4ee:	8c50                	exec.it	#39     !
     4f0:	0705                	c.addi	a4,1
     4f2:	0505                	c.addi	a0,1
     4f4:	0685                	c.addi	a3,1
     4f6:	d7c8                	c.sw	a0,44(a5)
     4f8:	d798                	c.sw	a4,40(a5)
     4fa:	8040                	exec.it	#32     !
     4fc:	801407b7          	lui	a5,0x80140
     500:	20d7a023          	sw	a3,512(a5) # 80140200 <_DATA_LMA_START+0x6013cf48>
     504:	20b60783          	lb	a5,523(a2)
     508:	be77fe5b          	bbc	a5,7,504 <pm_stimer_recover+0x68>
     50c:	20060c23          	sb	zero,536(a2)
     510:	8014                	exec.it	#9     !

00000512 <analog_write_reg8>:
     512:	15f022ef          	jal	t0,2e70 <__riscv_save_0>
     516:	1141                	c.addi	sp,-16
     518:	842a                	c.mv	s0,a0
     51a:	c62e                	c.swsp	a1,12(sp)
     51c:	8c60                	exec.it	#54     !
     51e:	8c00                	exec.it	#6     !
     520:	18878023          	sb	s0,384(a5)
     524:	45b2                	c.lwsp	a1,12(sp)
     526:	06000713          	li	a4,96
     52a:	18b78223          	sb	a1,388(a5)
     52e:	18e78123          	sb	a4,386(a5)
     532:	18278683          	lb	a3,386(a5)
     536:	fe76fe5b          	bbs	a3,7,532 <analog_write_reg8+0x20>
     53a:	18078123          	sb	zero,386(a5)
     53e:	c501                	c.beqz	a0,546 <analog_write_reg8+0x34>
     540:	30052573          	csrrs	a0,mstatus,a0
     544:	8400                	exec.it	#2     !
     546:	0141                	c.addi	sp,16
     548:	14d0206f          	j	2e94 <__riscv_restore_0>

0000054c <analog_read_reg8>:
     54c:	125022ef          	jal	t0,2e70 <__riscv_save_0>
     550:	842a                	c.mv	s0,a0
     552:	8c60                	exec.it	#54     !
     554:	8c00                	exec.it	#6     !
     556:	18878023          	sb	s0,384(a5)
     55a:	4705                	c.li	a4,1
     55c:	18e781a3          	sb	a4,387(a5)
     560:	04000713          	li	a4,64
     564:	18e78123          	sb	a4,386(a5)
     568:	18278703          	lb	a4,386(a5)
     56c:	fe777e5b          	bbs	a4,7,568 <analog_read_reg8+0x1c>
     570:	18478783          	lb	a5,388(a5)
     574:	8000                	exec.it	#0     !
     576:	c501                	c.beqz	a0,57e <analog_read_reg8+0x32>
     578:	30052573          	csrrs	a0,mstatus,a0
     57c:	8400                	exec.it	#2     !
     57e:	853e                	c.mv	a0,a5
     580:	1150206f          	j	2e94 <__riscv_restore_0>

00000584 <clock_init_ram.constprop.11>:
     584:	0ed022ef          	jal	t0,2e70 <__riscv_save_0>
     588:	317d                	c.jal	236 <mspi_stop_xip.lto_priv.13>
     58a:	8020                	exec.it	#16     !
     58c:	1e848783          	lb	a5,488(s1)
     590:	08000513          	li	a0,128
     594:	8bbd                	c.andi	a5,15
     596:	1ef48423          	sb	a5,488(s1)
     59a:	3f4d                	c.jal	54c <analog_read_reg8>
     59c:	0e057593          	andi	a1,a0,224
     5a0:	0105e593          	ori	a1,a1,16
     5a4:	08000513          	li	a0,128
     5a8:	37ad                	c.jal	512 <analog_write_reg8>
     5aa:	4525                	c.li	a0,9
     5ac:	3745                	c.jal	54c <analog_read_reg8>
     5ae:	0f357593          	andi	a1,a0,243
     5b2:	0085e593          	ori	a1,a1,8
     5b6:	4525                	c.li	a0,9
     5b8:	3fa9                	c.jal	512 <analog_write_reg8>
     5ba:	0c000793          	li	a5,192
     5be:	caff88ab          	shgp	a5,-848 # 804b0 <sys_clk>
     5c2:	8404                	exec.it	#10     !
     5c4:	4791                	c.li	a5,4
     5c6:	1ef48da3          	sb	a5,507(s1)
     5ca:	3749                	c.jal	54c <analog_read_reg8>
     5cc:	04056593          	ori	a1,a0,64
     5d0:	8814                	exec.it	#13     !
     5d2:	8404                	exec.it	#10     !
     5d4:	cb1f940b          	addigp	s0,-848 # 804b0 <sys_clk>
     5d8:	3f2d                	c.jal	512 <analog_write_reg8>
     5da:	8830                	exec.it	#21     !
     5dc:	3f85                	c.jal	54c <analog_read_reg8>
     5de:	be557e5b          	bbc	a0,5,5da <clock_init_ram.constprop.11+0x56>
     5e2:	8404                	exec.it	#10     !
     5e4:	37a5                	c.jal	54c <analog_read_reg8>
     5e6:	0bf57593          	andi	a1,a0,191
     5ea:	8404                	exec.it	#10     !
     5ec:	371d                	c.jal	512 <analog_write_reg8>
     5ee:	8c00                	exec.it	#6     !
     5f0:	1e978703          	lb	a4,489(a5)
     5f4:	8b3d                	c.andi	a4,15
     5f6:	04076713          	ori	a4,a4,64
     5fa:	1ee784a3          	sb	a4,489(a5)
     5fe:	8460                	exec.it	#50     !
     600:	f8076713          	ori	a4,a4,-128
     604:	8804                	exec.it	#12     !
     606:	8c40                	exec.it	#38     !
     608:	8460                	exec.it	#50     !
     60a:	f8076713          	ori	a4,a4,-128
     60e:	8804                	exec.it	#12     !
     610:	8c40                	exec.it	#38     !
     612:	8e10                	exec.it	#71     !
     614:	8709                	c.srai	a4,0x2
     616:	00e402a3          	sb	a4,5(s0)
     61a:	1d878703          	lb	a4,472(a5)
     61e:	0fb77713          	andi	a4,a4,251
     622:	1ce78c23          	sb	a4,472(a5)
     626:	1d878703          	lb	a4,472(a5)
     62a:	0fc77713          	andi	a4,a4,252
     62e:	1ce78c23          	sb	a4,472(a5)
     632:	8460                	exec.it	#50     !
     634:	0f077713          	andi	a4,a4,240
     638:	00876713          	ori	a4,a4,8
     63c:	8c40                	exec.it	#38     !
     63e:	8e10                	exec.it	#71     !
     640:	40375713          	srai	a4,a4,0x3
     644:	00e40123          	sb	a4,2(s0)
     648:	8460                	exec.it	#50     !
     64a:	08f77713          	andi	a4,a4,143
     64e:	02076713          	ori	a4,a4,32
     652:	8c40                	exec.it	#38     !
     654:	00244783          	lbu	a5,2(s0)
     658:	00f401a3          	sb	a5,3(s0)
     65c:	00f40223          	sb	a5,4(s0)
     660:	0350206f          	j	2e94 <__riscv_restore_0>

00000664 <pm_wait_bbpll_done>:
     664:	00d022ef          	jal	t0,2e70 <__riscv_save_0>
     668:	1141                	c.addi	sp,-16
     66a:	8404                	exec.it	#10     !
     66c:	35c5                	c.jal	54c <analog_read_reg8>
     66e:	04056593          	ori	a1,a0,64
     672:	892a                	c.mv	s2,a0
     674:	8814                	exec.it	#13     !
     676:	08100513          	li	a0,129
     67a:	0bf97913          	andi	s2,s2,191
     67e:	4481                	c.li	s1,0
     680:	4475                	c.li	s0,29
     682:	3d41                	c.jal	512 <analog_write_reg8>
     684:	000107a3          	sb	zero,15(sp)
     688:	0140006f          	j	69c <pm_wait_bbpll_done+0x38>
     68c:	0001                	c.nop
     68e:	00f10783          	lb	a5,15(sp)
     692:	0785                	c.addi	a5,1
     694:	0ff7f793          	andi	a5,a5,255
     698:	00f107a3          	sb	a5,15(sp)
     69c:	00f10783          	lb	a5,15(sp)
     6a0:	8000                	exec.it	#0     !
     6a2:	fef475e3          	bgeu	s0,a5,68c <pm_wait_bbpll_done+0x28>
     6a6:	8830                	exec.it	#21     !
     6a8:	3555                	c.jal	54c <analog_read_reg8>
     6aa:	4255715b          	bbs	a0,5,6cc <pm_wait_bbpll_done+0x68>
     6ae:	04600593          	li	a1,70
     6b2:	c49d                	c.beqz	s1,6e0 <pm_wait_bbpll_done+0x7c>
     6b4:	0214d45b          	beqc	s1,1,6dc <pm_wait_bbpll_done+0x78>
     6b8:	85ca                	c.mv	a1,s2
     6ba:	08100513          	li	a0,129
     6be:	3d91                	c.jal	512 <analog_write_reg8>
     6c0:	0024da5b          	beqc	s1,2,6d4 <pm_wait_bbpll_done+0x70>
     6c4:	0485                	c.addi	s1,1
     6c6:	0ff4f493          	andi	s1,s1,255
     6ca:	bf6d                	c.j	684 <pm_wait_bbpll_done+0x20>
     6cc:	85ca                	c.mv	a1,s2
     6ce:	08100513          	li	a0,129
     6d2:	3581                	c.jal	512 <analog_write_reg8>
     6d4:	01010113          	addi	sp,sp,16
     6d8:	7bc0206f          	j	2e94 <__riscv_restore_0>
     6dc:	04300593          	li	a1,67
     6e0:	4505                	c.li	a0,1
     6e2:	3d05                	c.jal	512 <analog_write_reg8>
     6e4:	fe1ff06f          	j	6c4 <pm_wait_bbpll_done+0x60>

000006e8 <pm_sleep_start>:
     6e8:	788022ef          	jal	t0,2e70 <__riscv_save_0>
     6ec:	ce3fa72b          	lwgp	a4,-800 # 804e0 <g_chip_version>
     6f0:	000006b7          	lui	a3,0x0
     6f4:	0ff00793          	li	a5,255
     6f8:	ff010113          	addi	sp,sp,-16
     6fc:	1986c583          	lbu	a1,408(a3) # 198 <g_pm_suspend_power_cfg>
     700:	00f71463          	bne	a4,a5,708 <pm_sleep_start+0x20>
     704:	0fe5f593          	andi	a1,a1,254
     708:	8c44                	exec.it	#46     !
     70a:	8800                	exec.it	#4     !
     70c:	801406b7          	lui	a3,0x80140
     710:	10268783          	lb	a5,258(a3) # 80140102 <_DATA_LMA_START+0x6013ce4a>
     714:	fe07fe5b          	bbs	a5,0,710 <pm_sleep_start+0x28>
     718:	10168703          	lb	a4,257(a3)
     71c:	8c00                	exec.it	#6     !
     71e:	8804                	exec.it	#12     !
     720:	01076713          	ori	a4,a4,16
     724:	10e680a3          	sb	a4,257(a3)
     728:	32878703          	lb	a4,808(a5)
     72c:	be377e5b          	bbc	a4,3,728 <pm_sleep_start+0x40>
     730:	8060                	exec.it	#48     !
     732:	80140437          	lui	s0,0x80140
     736:	0fd77713          	andi	a4,a4,253
     73a:	8044                	exec.it	#40     !
     73c:	8060                	exec.it	#48     !
     73e:	0ef77713          	andi	a4,a4,239
     742:	8044                	exec.it	#40     !
     744:	fb900713          	li	a4,-71
     748:	10e78023          	sb	a4,256(a5)
     74c:	10240783          	lb	a5,258(s0) # 80140102 <_DATA_LMA_START+0x6013ce4a>
     750:	fe07fe5b          	bbs	a5,0,74c <pm_sleep_start+0x64>
     754:	10140783          	lb	a5,257(s0)
     758:	452d                	c.li	a0,11
     75a:	8000                	exec.it	#0     !
     75c:	8824                	exec.it	#28     !
     75e:	10f400a3          	sb	a5,257(s0)
     762:	320404a3          	sb	zero,809(s0)
     766:	33dd                	c.jal	54c <analog_read_reg8>
     768:	0fc57593          	andi	a1,a0,252
     76c:	452d                	c.li	a0,11
     76e:	3355                	c.jal	512 <analog_write_reg8>
     770:	8404                	exec.it	#10     !
     772:	3be9                	c.jal	54c <analog_read_reg8>
     774:	f8056593          	ori	a1,a0,-128
     778:	8814                	exec.it	#13     !
     77a:	08100513          	li	a0,129
     77e:	3b51                	c.jal	512 <analog_write_reg8>
     780:	f8000793          	li	a5,-128
     784:	1ef407a3          	sb	a5,495(s0)
     788:	03f00493          	li	s1,63
     78c:	00012423          	sw	zero,8(sp)
     790:	47a2                	c.lwsp	a5,8(sp)
     792:	00f4e763          	bltu	s1,a5,7a0 <pm_sleep_start+0xb8>
     796:	0001                	c.nop
     798:	47a2                	c.lwsp	a5,8(sp)
     79a:	0785                	c.addi	a5,1
     79c:	c43e                	c.swsp	a5,8(sp)
     79e:	bfcd                	c.j	790 <pm_sleep_start+0xa8>
     7a0:	8404                	exec.it	#10     !
     7a2:	336d                	c.jal	54c <analog_read_reg8>
     7a4:	07f57593          	andi	a1,a0,127
     7a8:	8404                	exec.it	#10     !
     7aa:	33a5                	c.jal	512 <analog_write_reg8>
     7ac:	452d                	c.li	a0,11
     7ae:	3b79                	c.jal	54c <analog_read_reg8>
     7b0:	00356593          	ori	a1,a0,3
     7b4:	8814                	exec.it	#13     !
     7b6:	452d                	c.li	a0,11
     7b8:	3ba9                	c.jal	512 <analog_write_reg8>
     7ba:	8c74                	exec.it	#63     !
     7bc:	8c44                	exec.it	#46     !
     7be:	8800                	exec.it	#4     !
     7c0:	8c00                	exec.it	#6     !
     7c2:	329784a3          	sb	s1,809(a5)
     7c6:	10178683          	lb	a3,257(a5)
     7ca:	8410                	exec.it	#3     !
     7cc:	0ef6f693          	andi	a3,a3,239
     7d0:	10d780a3          	sb	a3,257(a5)
     7d4:	fab00693          	li	a3,-85
     7d8:	10d78023          	sb	a3,256(a5)
     7dc:	10270783          	lb	a5,258(a4)
     7e0:	fe07fe5b          	bbs	a5,0,7dc <pm_sleep_start+0xf4>
     7e4:	8430                	exec.it	#19     !
     7e6:	12b00693          	li	a3,299
     7ea:	8000                	exec.it	#0     !
     7ec:	8824                	exec.it	#28     !
     7ee:	8024                	exec.it	#24     !
     7f0:	00012623          	sw	zero,12(sp)
     7f4:	47b2                	c.lwsp	a5,12(sp)
     7f6:	00f6e763          	bltu	a3,a5,804 <pm_sleep_start+0x11c>
     7fa:	0001                	c.nop
     7fc:	47b2                	c.lwsp	a5,12(sp)
     7fe:	0785                	c.addi	a5,1
     800:	c63e                	c.swsp	a5,12(sp)
     802:	bfcd                	c.j	7f4 <pm_sleep_start+0x10c>
     804:	8830                	exec.it	#21     !
     806:	8c10                	exec.it	#7     !
     808:	be757e5b          	bbc	a0,7,804 <pm_sleep_start+0x11c>
     80c:	8830                	exec.it	#21     !
     80e:	8c10                	exec.it	#7     !
     810:	be757e5b          	bbc	a0,7,80c <pm_sleep_start+0x124>
     814:	8830                	exec.it	#21     !
     816:	3b1d                	c.jal	54c <analog_read_reg8>
     818:	be757e5b          	bbc	a0,7,814 <pm_sleep_start+0x12c>
     81c:	35a1                	c.jal	664 <pm_wait_bbpll_done>
     81e:	0141                	c.addi	sp,16
     820:	6740206f          	j	2e94 <__riscv_restore_0>

00000824 <dr_putchar>:
     824:	64c022ef          	jal	t0,2e70 <__riscv_save_0>
     828:	cadf990b          	addigp	s2,-852 # 804ac <init_flag.5287>
     82c:	1141                	c.addi	sp,-16
     82e:	842a                	c.mv	s0,a0
     830:	00094783          	lbu	a5,0(s2)
     834:	0217ef5b          	bnec	a5,1,872 <dr_putchar+0x4e>
     838:	8020                	exec.it	#16     !
     83a:	30648783          	lb	a5,774(s1)
     83e:	4539                	c.li	a0,14
     840:	8000                	exec.it	#0     !
     842:	8034                	exec.it	#25     !
     844:	30f48323          	sb	a5,774(s1)
     848:	3311                	c.jal	54c <analog_read_reg8>
     84a:	0fc57593          	andi	a1,a0,252
     84e:	0015e593          	ori	a1,a1,1
     852:	4539                	c.li	a0,14
     854:	397d                	c.jal	512 <analog_write_reg8>
     856:	30248783          	lb	a5,770(s1)
     85a:	0fe7f793          	andi	a5,a5,254
     85e:	30f48123          	sb	a5,770(s1)
     862:	30348783          	lb	a5,771(s1)
     866:	8000                	exec.it	#0     !
     868:	8034                	exec.it	#25     !
     86a:	30f481a3          	sb	a5,771(s1)
     86e:	00090023          	sb	zero,0(s2)
     872:	8c00                	exec.it	#6     !
     874:	30378703          	lb	a4,771(a5)
     878:	30378783          	lb	a5,771(a5)
     87c:	0fe77713          	andi	a4,a4,254
     880:	8000                	exec.it	#0     !
     882:	8034                	exec.it	#25     !
     884:	00e10223          	sb	a4,4(sp)
     888:	86be                	c.mv	a3,a5
     88a:	4004735b          	bbs	s0,0,890 <dr_putchar+0x6c>
     88e:	86ba                	c.mv	a3,a4
     890:	00d102a3          	sb	a3,5(sp)
     894:	86be                	c.mv	a3,a5
     896:	4014735b          	bbs	s0,1,89c <dr_putchar+0x78>
     89a:	86ba                	c.mv	a3,a4
     89c:	00d10323          	sb	a3,6(sp)
     8a0:	86be                	c.mv	a3,a5
     8a2:	4024735b          	bbs	s0,2,8a8 <dr_putchar+0x84>
     8a6:	86ba                	c.mv	a3,a4
     8a8:	00d103a3          	sb	a3,7(sp)
     8ac:	86be                	c.mv	a3,a5
     8ae:	4034735b          	bbs	s0,3,8b4 <dr_putchar+0x90>
     8b2:	86ba                	c.mv	a3,a4
     8b4:	00d10423          	sb	a3,8(sp)
     8b8:	86be                	c.mv	a3,a5
     8ba:	4044735b          	bbs	s0,4,8c0 <dr_putchar+0x9c>
     8be:	86ba                	c.mv	a3,a4
     8c0:	00d104a3          	sb	a3,9(sp)
     8c4:	86be                	c.mv	a3,a5
     8c6:	4054735b          	bbs	s0,5,8cc <dr_putchar+0xa8>
     8ca:	86ba                	c.mv	a3,a4
     8cc:	00d10523          	sb	a3,10(sp)
     8d0:	86be                	c.mv	a3,a5
     8d2:	4064735b          	bbs	s0,6,8d8 <dr_putchar+0xb4>
     8d6:	86ba                	c.mv	a3,a4
     8d8:	00d105a3          	sb	a3,11(sp)
     8dc:	801d                	c.srli	s0,0x7
     8de:	c011                	c.beqz	s0,8e2 <dr_putchar+0xbe>
     8e0:	873e                	c.mv	a4,a5
     8e2:	00f106a3          	sb	a5,13(sp)
     8e6:	8c00                	exec.it	#6     !
     8e8:	00e10623          	sb	a4,12(sp)
     8ec:	08900593          	li	a1,137
     8f0:	2007a683          	lw	a3,512(a5)
     8f4:	8040                	exec.it	#32     !
     8f6:	4781                	c.li	a5,0
     8f8:	8736                	c.mv	a4,a3
     8fa:	a011                	c.j	8fe <dr_putchar+0xda>
     8fc:	8210                	exec.it	#65     !
     8fe:	40d70533          	sub	a0,a4,a3
     902:	fea5fde3          	bgeu	a1,a0,8fc <dr_putchar+0xd8>
     906:	0048                	c.addi4spn	a0,sp,4
     908:	00f506b3          	add	a3,a0,a5
     90c:	0006c683          	lbu	a3,0(a3)
     910:	0785                	c.addi	a5,1
     912:	30d601a3          	sb	a3,771(a2)
     916:	00a7d45b          	beqc	a5,10,91e <dr_putchar+0xfa>
     91a:	86ba                	c.mv	a3,a4
     91c:	bff1                	c.j	8f8 <dr_putchar+0xd4>
     91e:	0141                	c.addi	sp,16
     920:	5740206f          	j	2e94 <__riscv_restore_0>

00000924 <pm_sleep_wakeup_ram.constprop.4>:
     924:	532022ef          	jal	t0,2e56 <__riscv_save_4>
     928:	00a00a33          	add	s4,zero,a0
     92c:	300029f3          	csrr	s3,mstatus
     930:	0089f993          	andi	s3,s3,8
     934:	00098463          	beqz	s3,93c <pm_sleep_wakeup_ram.constprop.4+0x18>
     938:	8874                	exec.it	#61     !
     93a:	8400                	exec.it	#2     !
     93c:	801407b7          	lui	a5,0x80140
     940:	2147a683          	lw	a3,532(a5) # 80140214 <_DATA_LMA_START+0x6013cf5c>
     944:	def5                	c.beqz	a3,940 <pm_sleep_wakeup_ram.constprop.4+0x1c>
     946:	00000437          	lui	s0,0x0
     94a:	15840693          	addi	a3,s0,344 # 158 <_AES_VMA_END>
     94e:	2147a783          	lw	a5,532(a5)
     952:	52d8                	c.lw	a4,36(a3)
     954:	dadc                	c.sw	a5,52(a3)
     956:	15840413          	addi	s0,s0,344
     95a:	0792                	c.slli	a5,0x4
     95c:	cb11                	c.beqz	a4,970 <pm_sleep_wakeup_ram.constprop.4+0x4c>
     95e:	03844603          	lbu	a2,56(s0)
     962:	4691                	c.li	a3,4
     964:	8f99                	c.sub	a5,a4
     966:	8e91                	c.sub	a3,a2
     968:	40d7d7b3          	sra	a5,a5,a3
     96c:	00e787b3          	add	a5,a5,a4
     970:	d05c                	c.sw	a5,36(s0)
     972:	5044                	c.lw	s1,36(s0)
     974:	4c1c                	c.lw	a5,24(s0)
     976:	8491                	c.srai	s1,0x4
     978:	02f487b3          	mul	a5,s1,a5
     97c:	80140937          	lui	s2,0x80140
     980:	20092a83          	lw	s5,512(s2) # 80140200 <_DATA_LMA_START+0x6013cf48>
     984:	e0000737          	lui	a4,0xe0000
     988:	415a0ab3          	sub	s5,s4,s5
     98c:	87c9                	c.srai	a5,0x12
     98e:	94be                	c.add	s1,a5
     990:	0486                	c.slli	s1,0x1
     992:	dc44                	c.sw	s1,60(s0)
     994:	01577c63          	bgeu	a4,s5,9ac <pm_sleep_wakeup_ram.constprop.4+0x88>
     998:	00098463          	beqz	s3,9a0 <pm_sleep_wakeup_ram.constprop.4+0x7c>
     99c:	8464                	exec.it	#58     !
     99e:	8400                	exec.it	#2     !
     9a0:	06400513          	li	a0,100
     9a4:	3665                	c.jal	54c <analog_read_reg8>
     9a6:	897d                	c.andi	a0,31
     9a8:	2100006f          	j	bb8 <pm_sleep_wakeup_ram.constprop.4+0x294>
     9ac:	04a41783          	lh	a5,74(s0)
     9b0:	1137a7db          	bfoz	a5,a5,4,19
     9b4:	02faf863          	bgeu	s5,a5,9e4 <pm_sleep_wakeup_ram.constprop.4+0xc0>
     9b8:	45fd                	c.li	a1,31
     9ba:	8c04                	exec.it	#14     !
     9bc:	8020                	exec.it	#16     !
     9be:	20092403          	lw	s0,512(s2)
     9c2:	3e81                	c.jal	512 <analog_write_reg8>
     9c4:	06400513          	li	a0,100
     9c8:	3651                	c.jal	54c <analog_read_reg8>
     9ca:	2004a783          	lw	a5,512(s1)
     9ce:	897d                	c.andi	a0,31
     9d0:	8f81                	c.sub	a5,s0
     9d2:	0157f363          	bgeu	a5,s5,9d8 <pm_sleep_wakeup_ram.constprop.4+0xb4>
     9d6:	d57d                	c.beqz	a0,9c4 <pm_sleep_wakeup_ram.constprop.4+0xa0>
     9d8:	1e098063          	beqz	s3,bb8 <pm_sleep_wakeup_ram.constprop.4+0x294>
     9dc:	8464                	exec.it	#58     !
     9de:	8400                	exec.it	#2     !
     9e0:	1d80006f          	j	bb8 <pm_sleep_wakeup_ram.constprop.4+0x294>
     9e4:	1e890a83          	lb	s5,488(s2)
     9e8:	00faf793          	andi	a5,s5,15
     9ec:	1ef90423          	sb	a5,488(s2)
     9f0:	1d890b03          	lb	s6,472(s2)
     9f4:	0f8b7793          	andi	a5,s6,248
     9f8:	1cf90c23          	sb	a5,472(s2)
     9fc:	4785                	c.li	a5,1
     9fe:	20f90c23          	sb	a5,536(s2)
     a02:	20a90783          	lb	a5,522(s2)
     a06:	0f77f793          	andi	a5,a5,247
     a0a:	20f90523          	sb	a5,522(s2)
     a0e:	3c95                	c.jal	482 <clock_get_32k_tick>
     a10:	20092703          	lw	a4,512(s2)
     a14:	20b90783          	lb	a5,523(s2)
     a18:	5454                	c.lw	a3,44(s0)
     a1a:	8000                	exec.it	#0     !
     a1c:	0027e793          	ori	a5,a5,2
     a20:	c468                	c.sw	a0,76(s0)
     a22:	c458                	c.sw	a4,12(s0)
     a24:	03844603          	lbu	a2,56(s0)
     a28:	40d506b3          	sub	a3,a0,a3
     a2c:	20f905a3          	sb	a5,523(s2)
     a30:	d814                	c.sw	a3,48(s0)
     a32:	e20d                	c.bnez	a2,a54 <pm_sleep_wakeup_ram.constprop.4+0x130>
     a34:	481c                	c.lw	a5,16(s0)
     a36:	cf99                	c.beqz	a5,a54 <pm_sleep_wakeup_ram.constprop.4+0x130>
     a38:	05044783          	lbu	a5,80(s0)
     a3c:	ef81                	c.bnez	a5,a54 <pm_sleep_wakeup_ram.constprop.4+0x130>
     a3e:	01442783          	lw	a5,20(s0)
     a42:	000276b7          	lui	a3,0x27
     a46:	8420                	exec.it	#18     !
     a48:	6c07a7db          	bfoz	a5,a5,27,0
     a4c:	10068693          	addi	a3,a3,256 # 27100 <BIN_SIZE+0x23962>
     a50:	00f6f863          	bgeu	a3,a5,a60 <pm_sleep_wakeup_ram.constprop.4+0x13c>
     a54:	00176713          	ori	a4,a4,1
     a58:	02040c23          	sb	zero,56(s0)
     a5c:	c848                	c.sw	a0,20(s0)
     a5e:	c818                	c.sw	a4,16(s0)
     a60:	02000593          	li	a1,32
     a64:	04b00513          	li	a0,75
     a68:	346d                	c.jal	512 <analog_write_reg8>
     a6a:	45fd                	c.li	a1,31
     a6c:	8c04                	exec.it	#14     !
     a6e:	3455                	c.jal	512 <analog_write_reg8>
     a70:	03000593          	li	a1,48
     a74:	07e00513          	li	a0,126
     a78:	3c69                	c.jal	512 <analog_write_reg8>
     a7a:	0f900593          	li	a1,249
     a7e:	04d00513          	li	a0,77
     a82:	3c41                	c.jal	512 <analog_write_reg8>
     a84:	4585                	c.li	a1,1
     a86:	8844                	exec.it	#44     !
     a88:	3469                	c.jal	512 <analog_write_reg8>
     a8a:	04841783          	lh	a5,72(s0)
     a8e:	0ee00593          	li	a1,238
     a92:	1137a7db          	bfoz	a5,a5,4,19
     a96:	04c00513          	li	a0,76
     a9a:	40fa0933          	sub	s2,s4,a5
     a9e:	3c95                	c.jal	512 <analog_write_reg8>
     aa0:	05441583          	lh	a1,84(s0)
     aa4:	04000513          	li	a0,64
     aa8:	0ff5f593          	andi	a1,a1,255
     aac:	349d                	c.jal	512 <analog_write_reg8>
     aae:	481c                	c.lw	a5,16(s0)
     ab0:	07ff0737          	lui	a4,0x7ff0
     ab4:	40f907b3          	sub	a5,s2,a5
     ab8:	00f77663          	bgeu	a4,a5,ac4 <pm_sleep_wakeup_ram.constprop.4+0x1a0>
     abc:	4705                	c.li	a4,1
     abe:	00e40523          	sb	a4,10(s0)
     ac2:	a019                	c.j	ac8 <pm_sleep_wakeup_ram.constprop.4+0x1a4>
     ac4:	00040523          	sb	zero,10(s0)
     ac8:	00a44683          	lbu	a3,10(s0)
     acc:	4848                	c.lw	a0,20(s0)
     ace:	5c58                	c.lw	a4,60(s0)
     ad0:	c691                	c.beqz	a3,adc <pm_sleep_wakeup_ram.constprop.4+0x1b8>
     ad2:	02e7d7b3          	divu	a5,a5,a4
     ad6:	0796                	c.slli	a5,0x5
     ad8:	0100006f          	j	ae8 <pm_sleep_wakeup_ram.constprop.4+0x1c4>
     adc:	8085                	c.srli	s1,0x1
     ade:	0796                	c.slli	a5,0x5
     ae0:	009787b3          	add	a5,a5,s1
     ae4:	02e7d7b3          	divu	a5,a5,a4
     ae8:	953e                	c.add	a0,a5
     aea:	fbeff0ef          	jal	ra,2a8 <clock_set_32k_tick>
     aee:	8c04                	exec.it	#14     !
     af0:	3cb1                	c.jal	54c <analog_read_reg8>
     af2:	897d                	c.andi	a0,31
     af4:	e511                	c.bnez	a0,b00 <pm_sleep_wakeup_ram.constprop.4+0x1dc>
     af6:	3ecd                	c.jal	6e8 <pm_sleep_start>
     af8:	4585                	c.li	a1,1
     afa:	8844                	exec.it	#44     !
     afc:	a17ff0ef          	jal	ra,512 <analog_write_reg8>
     b00:	8410                	exec.it	#3     !
     b02:	02000793          	li	a5,32
     b06:	1ef707a3          	sb	a5,495(a4) # 7ff01ef <FLASH_SIZE+0x7ef01ef>
     b0a:	4789                	c.li	a5,2
     b0c:	20f70c23          	sb	a5,536(a4)
     b10:	8c34                	exec.it	#31     !
     b12:	8000                	exec.it	#0     !
     b14:	8e04                	exec.it	#78     !
     b16:	8050                	exec.it	#33     !
     b18:	32ad                	c.jal	482 <clock_get_32k_tick>
     b1a:	00a44783          	lbu	a5,10(s0)
     b1e:	cb99                	c.beqz	a5,b34 <pm_sleep_wakeup_ram.constprop.4+0x210>
     b20:	485c                	c.lw	a5,20(s0)
     b22:	5c54                	c.lw	a3,60(s0)
     b24:	8420                	exec.it	#18     !
     b26:	4818                	c.lw	a4,16(s0)
     b28:	0785                	c.addi	a5,1
     b2a:	8395                	c.srli	a5,0x5
     b2c:	c4d7977f          	maddr32	a4,a5,a3
     b30:	87ba                	c.mv	a5,a4
     b32:	a819                	c.j	b48 <pm_sleep_wakeup_ram.constprop.4+0x224>
     b34:	485c                	c.lw	a5,20(s0)
     b36:	5c58                	c.lw	a4,60(s0)
     b38:	40f507b3          	sub	a5,a0,a5
     b3c:	0785                	c.addi	a5,1
     b3e:	02e787b3          	mul	a5,a5,a4
     b42:	4818                	c.lw	a4,16(s0)
     b44:	8395                	c.srli	a5,0x5
     b46:	97ba                	c.add	a5,a4
     b48:	c45c                	c.sw	a5,12(s0)
     b4a:	485c                	c.lw	a5,20(s0)
     b4c:	4454                	c.lw	a3,12(s0)
     b4e:	8420                	exec.it	#18     !
     b50:	0785                	c.addi	a5,1
     b52:	0505                	c.addi	a0,1
     b54:	d41c                	c.sw	a5,40(s0)
     b56:	0685                	c.addi	a3,1
     b58:	d448                	c.sw	a0,44(s0)
     b5a:	8c00                	exec.it	#6     !
     b5c:	80140737          	lui	a4,0x80140
     b60:	20d7a023          	sw	a3,512(a5)
     b64:	20b70783          	lb	a5,523(a4) # 8014020b <_DATA_LMA_START+0x6013cf53>
     b68:	be77fe5b          	bbc	a5,7,b64 <pm_sleep_wakeup_ram.constprop.4+0x240>
     b6c:	20070c23          	sb	zero,536(a4)
     b70:	1d670c23          	sb	s6,472(a4)
     b74:	8c04                	exec.it	#14     !
     b76:	1f570423          	sb	s5,488(a4)
     b7a:	8c10                	exec.it	#7     !
     b7c:	ce5f970b          	addigp	a4,-796 # 804e4 <g_pm_status_info>
     b80:	00a700a3          	sb	a0,1(a4)
     b84:	ce5f978b          	addigp	a5,-796 # 804e4 <g_pm_status_info>
     b88:	00157c5b          	bbc	a0,1,ba0 <pm_sleep_wakeup_ram.constprop.4+0x27c>
     b8c:	80140637          	lui	a2,0x80140
     b90:	400006b7          	lui	a3,0x40000
     b94:	20062703          	lw	a4,512(a2) # 80140200 <_DATA_LMA_START+0x6013cf48>
     b98:	41470733          	sub	a4,a4,s4
     b9c:	fee6ece3          	bltu	a3,a4,b94 <pm_sleep_wakeup_ram.constprop.4+0x270>
     ba0:	00098463          	beqz	s3,ba8 <pm_sleep_wakeup_ram.constprop.4+0x284>
     ba4:	8464                	exec.it	#58     !
     ba6:	8400                	exec.it	#2     !
     ba8:	0017c783          	lbu	a5,1(a5)
     bac:	10000513          	li	a0,256
     bb0:	c781                	c.beqz	a5,bb8 <pm_sleep_wakeup_ram.constprop.4+0x294>
     bb2:	40000537          	lui	a0,0x40000
     bb6:	8d5d                	c.or	a0,a5
     bb8:	2d20206f          	j	2e8a <__riscv_restore_4>

00000bbc <trap_entry>:
     bbc:	1101                	c.addi	sp,-32
     bbe:	ce2a                	c.swsp	a0,28(sp)
     bc0:	cc2e                	c.swsp	a1,24(sp)
     bc2:	ca32                	c.swsp	a2,20(sp)
     bc4:	c836                	c.swsp	a3,16(sp)
     bc6:	c63a                	c.swsp	a4,12(sp)
     bc8:	c43e                	c.swsp	a5,8(sp)
     bca:	34202773          	csrr	a4,mcause
     bce:	8c20                	exec.it	#22     !
     bd0:	15878693          	addi	a3,a5,344
     bd4:	00468683          	lb	a3,4(a3) # 40000004 <_DATA_LMA_START+0x1fffcd4c>
     bd8:	8070                	exec.it	#49     !
     bda:	0ff6f693          	andi	a3,a3,255
     bde:	c2a5                	c.beqz	a3,c3e <trap_entry+0x82>
     be0:	34102673          	csrr	a2,mepc
     be4:	300025f3          	csrr	a1,mstatus
     be8:	7c4026f3          	csrr	a3,mxstatus
     bec:	08075063          	bgez	a4,c6c <trap_entry+0xb0>
     bf0:	7807275b          	bfoz	a4,a4,30,0
     bf4:	0477695b          	bnec	a4,7,c46 <trap_entry+0x8a>
     bf8:	8840                	exec.it	#36     !
     bfa:	8804                	exec.it	#12     !
     bfc:	c719                	c.beqz	a4,c0a <trap_entry+0x4e>
     bfe:	08000713          	li	a4,128
     c02:	30473773          	csrrc	a4,mie,a4
     c06:	30046773          	csrrsi	a4,mstatus,8
     c0a:	8840                	exec.it	#36     !
     c0c:	8804                	exec.it	#12     !
     c0e:	c711                	c.beqz	a4,c1a <trap_entry+0x5e>
     c10:	8610                	exec.it	#67     !
     c12:	08000713          	li	a4,128
     c16:	30472773          	csrrs	a4,mie,a4
     c1a:	8a00                	exec.it	#68     !
     c1c:	8000                	exec.it	#0     !
     c1e:	c799                	c.beqz	a5,c2c <trap_entry+0x70>
     c20:	30059073          	csrw	mstatus,a1
     c24:	34161073          	csrw	mepc,a2
     c28:	7c469073          	csrw	mxstatus,a3
     c2c:	4572                	c.lwsp	a0,28(sp)
     c2e:	45e2                	c.lwsp	a1,24(sp)
     c30:	4652                	c.lwsp	a2,20(sp)
     c32:	46c2                	c.lwsp	a3,16(sp)
     c34:	4732                	c.lwsp	a4,12(sp)
     c36:	47a2                	c.lwsp	a5,8(sp)
     c38:	6105                	c.addi16sp	sp,32
     c3a:	30200073          	mret
     c3e:	4681                	c.li	a3,0
     c40:	4581                	c.li	a1,0
     c42:	4601                	c.li	a2,0
     c44:	b765                	c.j	bec <trap_entry+0x30>
     c46:	0237635b          	bnec	a4,3,c6c <trap_entry+0xb0>
     c4a:	e6600737          	lui	a4,0xe6600
     c4e:	4358                	c.lw	a4,4(a4)
     c50:	8840                	exec.it	#36     !
     c52:	8804                	exec.it	#12     !
     c54:	c319                	c.beqz	a4,c5a <trap_entry+0x9e>
     c56:	30046773          	csrrsi	a4,mstatus,8
     c5a:	8840                	exec.it	#36     !
     c5c:	8804                	exec.it	#12     !
     c5e:	c311                	c.beqz	a4,c62 <trap_entry+0xa6>
     c60:	8610                	exec.it	#67     !
     c62:	e6600737          	lui	a4,0xe6600
     c66:	4505                	c.li	a0,1
     c68:	c348                	c.sw	a0,4(a4)
     c6a:	bf45                	c.j	c1a <trap_entry+0x5e>
     c6c:	34302773          	csrr	a4,mtval
     c70:	ccefcfab          	swgp	a4,-804 # 804dc <exception_mtval>
     c74:	34102773          	csrr	a4,mepc
     c78:	ccefcbab          	swgp	a4,-812 # 804d4 <exception_mepc>
     c7c:	30002773          	csrr	a4,mstatus
     c80:	ccefcdab          	swgp	a4,-808 # 804d8 <exception_mstatus>
     c84:	34202773          	csrr	a4,mcause
     c88:	ccefc7ab          	swgp	a4,-820 # 804cc <exception_mcause>
     c8c:	7c902773          	csrr	a4,mdcause
     c90:	ccefc9ab          	swgp	a4,-816 # 804d0 <exception_mdcause>
     c94:	0001                	c.nop
     c96:	bffd                	c.j	c94 <trap_entry+0xd8>
     c98:	0001                	c.nop
	...

00000d00 <__vectors>:
     d00:	0bbc                	c.addi4spn	a5,sp,472
     d02:	0000                	unimp
     d04:	1640                	c.addi4spn	s0,sp,804
     d06:	0000                	unimp
     d08:	1640                	c.addi4spn	s0,sp,804
     d0a:	0000                	unimp
     d0c:	1640                	c.addi4spn	s0,sp,804
     d0e:	0000                	unimp
     d10:	1640                	c.addi4spn	s0,sp,804
     d12:	0000                	unimp
     d14:	1640                	c.addi4spn	s0,sp,804
     d16:	0000                	unimp
     d18:	1640                	c.addi4spn	s0,sp,804
     d1a:	0000                	unimp
     d1c:	1640                	c.addi4spn	s0,sp,804
     d1e:	0000                	unimp
     d20:	1640                	c.addi4spn	s0,sp,804
     d22:	0000                	unimp
     d24:	1640                	c.addi4spn	s0,sp,804
     d26:	0000                	unimp
     d28:	1640                	c.addi4spn	s0,sp,804
     d2a:	0000                	unimp
     d2c:	1640                	c.addi4spn	s0,sp,804
     d2e:	0000                	unimp
     d30:	1640                	c.addi4spn	s0,sp,804
     d32:	0000                	unimp
     d34:	1640                	c.addi4spn	s0,sp,804
     d36:	0000                	unimp
     d38:	1640                	c.addi4spn	s0,sp,804
     d3a:	0000                	unimp
     d3c:	1640                	c.addi4spn	s0,sp,804
     d3e:	0000                	unimp
     d40:	1640                	c.addi4spn	s0,sp,804
     d42:	0000                	unimp
     d44:	1640                	c.addi4spn	s0,sp,804
     d46:	0000                	unimp
     d48:	1640                	c.addi4spn	s0,sp,804
     d4a:	0000                	unimp
     d4c:	1640                	c.addi4spn	s0,sp,804
     d4e:	0000                	unimp
     d50:	1640                	c.addi4spn	s0,sp,804
     d52:	0000                	unimp
     d54:	1640                	c.addi4spn	s0,sp,804
     d56:	0000                	unimp
     d58:	1640                	c.addi4spn	s0,sp,804
     d5a:	0000                	unimp
     d5c:	1640                	c.addi4spn	s0,sp,804
     d5e:	0000                	unimp
     d60:	1640                	c.addi4spn	s0,sp,804
     d62:	0000                	unimp
     d64:	1640                	c.addi4spn	s0,sp,804
     d66:	0000                	unimp
     d68:	1640                	c.addi4spn	s0,sp,804
     d6a:	0000                	unimp
     d6c:	1640                	c.addi4spn	s0,sp,804
     d6e:	0000                	unimp
     d70:	1640                	c.addi4spn	s0,sp,804
     d72:	0000                	unimp
     d74:	1640                	c.addi4spn	s0,sp,804
     d76:	0000                	unimp
     d78:	1640                	c.addi4spn	s0,sp,804
     d7a:	0000                	unimp
     d7c:	1640                	c.addi4spn	s0,sp,804
     d7e:	0000                	unimp
     d80:	1640                	c.addi4spn	s0,sp,804
     d82:	0000                	unimp
     d84:	1640                	c.addi4spn	s0,sp,804
     d86:	0000                	unimp
     d88:	1640                	c.addi4spn	s0,sp,804
     d8a:	0000                	unimp
     d8c:	1640                	c.addi4spn	s0,sp,804
     d8e:	0000                	unimp
     d90:	1640                	c.addi4spn	s0,sp,804
     d92:	0000                	unimp
     d94:	1640                	c.addi4spn	s0,sp,804
     d96:	0000                	unimp
     d98:	1640                	c.addi4spn	s0,sp,804
     d9a:	0000                	unimp
     d9c:	1640                	c.addi4spn	s0,sp,804
     d9e:	0000                	unimp
     da0:	1640                	c.addi4spn	s0,sp,804
     da2:	0000                	unimp
     da4:	1640                	c.addi4spn	s0,sp,804
     da6:	0000                	unimp
     da8:	1640                	c.addi4spn	s0,sp,804
     daa:	0000                	unimp
     dac:	1640                	c.addi4spn	s0,sp,804
     dae:	0000                	unimp
     db0:	1640                	c.addi4spn	s0,sp,804
     db2:	0000                	unimp
     db4:	1640                	c.addi4spn	s0,sp,804
     db6:	0000                	unimp
     db8:	1640                	c.addi4spn	s0,sp,804
     dba:	0000                	unimp
     dbc:	1640                	c.addi4spn	s0,sp,804
     dbe:	0000                	unimp
     dc0:	1640                	c.addi4spn	s0,sp,804
     dc2:	0000                	unimp
     dc4:	1640                	c.addi4spn	s0,sp,804
     dc6:	0000                	unimp
     dc8:	1640                	c.addi4spn	s0,sp,804
     dca:	0000                	unimp
     dcc:	1640                	c.addi4spn	s0,sp,804
     dce:	0000                	unimp
     dd0:	1640                	c.addi4spn	s0,sp,804
     dd2:	0000                	unimp
     dd4:	1640                	c.addi4spn	s0,sp,804
     dd6:	0000                	unimp
     dd8:	1640                	c.addi4spn	s0,sp,804
     dda:	0000                	unimp
     ddc:	1640                	c.addi4spn	s0,sp,804
     dde:	0000                	unimp
     de0:	1640                	c.addi4spn	s0,sp,804
     de2:	0000                	unimp
     de4:	1640                	c.addi4spn	s0,sp,804
     de6:	0000                	unimp
     de8:	1640                	c.addi4spn	s0,sp,804
     dea:	0000                	unimp
     dec:	1640                	c.addi4spn	s0,sp,804
     dee:	0000                	unimp
     df0:	1640                	c.addi4spn	s0,sp,804
     df2:	0000                	unimp
     df4:	1640                	c.addi4spn	s0,sp,804
     df6:	0000                	unimp
     df8:	1640                	c.addi4spn	s0,sp,804
     dfa:	0000                	unimp
     dfc:	1640                	c.addi4spn	s0,sp,804
     dfe:	0000                	unimp
     e00:	0001                	c.nop
	...

00000e04 <flash_read_uid.constprop.7>:
     e04:	8004                	exec.it	#8     !
     e06:	872a                	c.mv	a4,a0
     e08:	8834                	exec.it	#29     !
     e0a:	47c1                	c.li	a5,16
     e0c:	4691                	c.li	a3,4
     e0e:	4601                	c.li	a2,0
     e10:	4581                	c.li	a1,0
     e12:	04b00513          	li	a0,75
     e16:	8614                	exec.it	#75     !
     e18:	8434                	exec.it	#27     !
     e1a:	8014                	exec.it	#9     !

00000e1c <flash_read_mid>:
     e1c:	8004                	exec.it	#8     !
     e1e:	1141                	c.addi	sp,-16
     e20:	c602                	c.swsp	zero,12(sp)
     e22:	8834                	exec.it	#29     !
     e24:	478d                	c.li	a5,3
     e26:	0078                	c.addi4spn	a4,sp,12
     e28:	4681                	c.li	a3,0
     e2a:	4601                	c.li	a2,0
     e2c:	4581                	c.li	a1,0
     e2e:	09f00513          	li	a0,159
     e32:	8614                	exec.it	#75     !
     e34:	8434                	exec.it	#27     !
     e36:	4532                	c.lwsp	a0,12(sp)
     e38:	0141                	c.addi	sp,16
     e3a:	8014                	exec.it	#9     !

00000e3c <flash_read_mid_uid_with_check>:
     e3c:	034022ef          	jal	t0,2e70 <__riscv_save_0>
     e40:	1141                	c.addi	sp,-16
     e42:	842e                	c.mv	s0,a1
     e44:	84aa                	c.mv	s1,a0
     e46:	4641                	c.li	a2,16
     e48:	829f958b          	addigp	a1,-2008 # 80028 <_DATA_VMA_START+0x28>
     e4c:	850a                	c.mv	a0,sp
     e4e:	1e7000ef          	jal	ra,1834 <memcpy>
     e52:	37e9                	c.jal	e1c <flash_read_mid>
     e54:	77c1                	c.lui	a5,0xffff0
     e56:	17fd                	c.addi	a5,-1
     e58:	00146737          	lui	a4,0x146
     e5c:	c088                	c.sw	a0,0(s1)
     e5e:	8fe9                	c.and	a5,a0
     e60:	08570713          	addi	a4,a4,133 # 146085 <FLASH_SIZE+0x46085>
     e64:	00e78963          	beq	a5,a4,e76 <flash_read_mid_uid_with_check+0x3a>
     e68:	00166737          	lui	a4,0x166
     e6c:	08570713          	addi	a4,a4,133 # 166085 <FLASH_SIZE+0x66085>
     e70:	4781                	c.li	a5,0
     e72:	02e51763          	bne	a0,a4,ea0 <flash_read_mid_uid_with_check+0x64>
     e76:	8522                	c.mv	a0,s0
     e78:	3771                	c.jal	e04 <flash_read_uid.constprop.7>
     e7a:	85a2                	c.mv	a1,s0
     e7c:	870a                	c.mv	a4,sp
     e7e:	01040693          	addi	a3,s0,16
     e82:	4781                	c.li	a5,0
     e84:	0005c503          	lbu	a0,0(a1)
     e88:	00074603          	lbu	a2,0(a4)
     e8c:	00c51363          	bne	a0,a2,e92 <flash_read_mid_uid_with_check+0x56>
     e90:	0785                	c.addi	a5,1
     e92:	0585                	c.addi	a1,1
     e94:	0705                	c.addi	a4,1
     e96:	fed597e3          	bne	a1,a3,e84 <flash_read_mid_uid_with_check+0x48>
     e9a:	17c1                	c.addi	a5,-16
     e9c:	00f037b3          	snez	a5,a5
     ea0:	853e                	c.mv	a0,a5
     ea2:	0141                	c.addi	sp,16
     ea4:	7f10106f          	j	2e94 <__riscv_restore_0>

00000ea8 <flash_dread>:
     ea8:	8004                	exec.it	#8     !
     eaa:	87ae                	c.mv	a5,a1
     eac:	8732                	c.mv	a4,a2
     eae:	8834                	exec.it	#29     !
     eb0:	4685                	c.li	a3,1
     eb2:	85aa                	c.mv	a1,a0
     eb4:	00100613          	li	a2,1
     eb8:	03b00513          	li	a0,59
     ebc:	8614                	exec.it	#75     !
     ebe:	8434                	exec.it	#27     !
     ec0:	8014                	exec.it	#9     !

00000ec2 <clock_init.constprop.10>:
     ec2:	8004                	exec.it	#8     !
     ec4:	8834                	exec.it	#29     !
     ec6:	ebeff0ef          	jal	ra,584 <clock_init_ram.constprop.11>
     eca:	8434                	exec.it	#27     !
     ecc:	7c90106f          	j	2e94 <__riscv_restore_0>

00000ed0 <pm_sleep_wakeup.constprop.3>:
     ed0:	8004                	exec.it	#8     !
     ed2:	8834                	exec.it	#29     !
     ed4:	a51ff0ef          	jal	ra,924 <pm_sleep_wakeup_ram.constprop.4>
     ed8:	8434                	exec.it	#27     !
     eda:	8014                	exec.it	#9     !

00000edc <user_calib_adc_vref.constprop.9>:
     edc:	8004                	exec.it	#8     !
     ede:	1141                	c.addi	sp,-16
     ee0:	c402                	c.swsp	zero,8(sp)
     ee2:	00011623          	sh	zero,12(sp)
     ee6:	00010723          	sb	zero,14(sp)
     eea:	ed11                	c.bnez	a0,f06 <user_calib_adc_vref.constprop.9+0x2a>
     eec:	8410                	exec.it	#3     !
     eee:	8470                	exec.it	#51     !
     ef0:	8600                	exec.it	#66     !
     ef2:	8200                	exec.it	#64     !
     ef4:	8064                	exec.it	#56     !
     ef6:	4c47a7db          	bfoz	a5,a5,19,4
     efa:	3807a55b          	bfoz	a0,a5,14,0
     efe:	e92d                	c.bnez	a0,f70 <user_calib_adc_vref.constprop.9+0x94>
     f00:	4501                	c.li	a0,0
     f02:	0141                	c.addi	sp,16
     f04:	8014                	exec.it	#9     !
     f06:	8c20                	exec.it	#22     !
     f08:	1587a783          	lw	a5,344(a5) # ffff0158 <_DATA_LMA_START+0xdffecea0>
     f0c:	0030                	c.addi4spn	a2,sp,8
     f0e:	459d                	c.li	a1,7
     f10:	9782                	c.jalr	a5
     f12:	00c14503          	lbu	a0,12(sp)
     f16:	1c0537db          	bfos	a5,a0,7,0
     f1a:	0407c163          	bltz	a5,f5c <user_calib_adc_vref.constprop.9+0x80>
     f1e:	00e14783          	lbu	a5,14(sp)
     f22:	00d14703          	lbu	a4,13(sp)
     f26:	07a2                	c.slli	a5,0x8
     f28:	66c1                	c.lui	a3,0x10
     f2a:	00e78633          	add	a2,a5,a4
     f2e:	16fd                	c.addi	a3,-1
     f30:	02d60663          	beq	a2,a3,f5c <user_calib_adc_vref.constprop.9+0x80>
     f34:	fd070713          	addi	a4,a4,-48
     f38:	97ba                	c.add	a5,a4
     f3a:	3c07a7db          	bfoz	a5,a5,15,0
     f3e:	0fb00713          	li	a4,251
     f42:	faf76fe3          	bltu	a4,a5,f00 <user_calib_adc_vref.constprop.9+0x24>
     f46:	1531                	c.addi	a0,-20
     f48:	1c05355b          	bfos	a0,a0,7,0
     f4c:	57b1                	c.li	a5,-20
     f4e:	faf509e3          	beq	a0,a5,f00 <user_calib_adc_vref.constprop.9+0x24>
     f52:	f9550513          	addi	a0,a0,-107 # 3fffff95 <_DATA_LMA_START+0x1fffccdd>
     f56:	00a03533          	snez	a0,a0
     f5a:	b765                	c.j	f02 <user_calib_adc_vref.constprop.9+0x26>
     f5c:	8410                	exec.it	#3     !
     f5e:	8470                	exec.it	#51     !
     f60:	8600                	exec.it	#66     !
     f62:	8200                	exec.it	#64     !
     f64:	8064                	exec.it	#56     !
     f66:	4c47a7db          	bfoz	a5,a5,19,4
     f6a:	3807a55b          	bfoz	a0,a5,14,0
     f6e:	c50d                	c.beqz	a0,f98 <user_calib_adc_vref.constprop.9+0xbc>
     f70:	1ff7f793          	andi	a5,a5,511
     f74:	f9b78793          	addi	a5,a5,-101
     f78:	3c07a7db          	bfoz	a5,a5,15,0
     f7c:	0c600713          	li	a4,198
     f80:	f8f760e3          	bltu	a4,a5,f00 <user_calib_adc_vref.constprop.9+0x24>
     f84:	8125                	c.srli	a0,0x9
     f86:	1531                	c.addi	a0,-20
     f88:	1c05355b          	bfos	a0,a0,7,0
     f8c:	57b1                	c.li	a5,-20
     f8e:	f6f509e3          	beq	a0,a5,f00 <user_calib_adc_vref.constprop.9+0x24>
     f92:	fd550513          	addi	a0,a0,-43
     f96:	b7c1                	c.j	f56 <user_calib_adc_vref.constprop.9+0x7a>
     f98:	00814503          	lbu	a0,8(sp)
     f9c:	00914783          	lbu	a5,9(sp)
     fa0:	953e                	c.add	a0,a5
     fa2:	f8050513          	addi	a0,a0,-128
     fa6:	3c05255b          	bfoz	a0,a0,15,0
     faa:	0fc53513          	sltiu	a0,a0,252
     fae:	bf91                	c.j	f02 <user_calib_adc_vref.constprop.9+0x26>

00000fb0 <measure_stack_usage>:
     fb0:	878a                	c.mv	a5,sp
     fb2:	aaaab737          	lui	a4,0xaaaab
     fb6:	0009f537          	lui	a0,0x9f
     fba:	aaa70713          	addi	a4,a4,-1366 # aaaaaaaa <_DATA_LMA_START+0x8aaa77f2>
     fbe:	00f56563          	bltu	a0,a5,fc8 <measure_stack_usage+0x18>
     fc2:	40a78533          	sub	a0,a5,a0
     fc6:	8082                	c.jr	ra
     fc8:	4114                	c.lw	a3,0(a0)
     fca:	fee69ce3          	bne	a3,a4,fc2 <measure_stack_usage+0x12>
     fce:	0511                	c.addi	a0,4
     fd0:	b7fd                	c.j	fbe <measure_stack_usage+0xe>

00000fd2 <core_interrupt_disable.lto_priv.17>:
     fd2:	30002573          	csrr	a0,mstatus
     fd6:	8921                	c.andi	a0,8
     fd8:	c119                	c.beqz	a0,fde <core_interrupt_disable.lto_priv.17+0xc>
     fda:	8874                	exec.it	#61     !
     fdc:	8400                	exec.it	#2     !
     fde:	8082                	c.jr	ra

00000fe0 <user_calib_freq_offset.constprop.8>:
     fe0:	691012ef          	jal	t0,2e70 <__riscv_save_0>
     fe4:	1141                	c.addi	sp,-16
     fe6:	57fd                	c.li	a5,-1
     fe8:	00f107a3          	sb	a5,15(sp)
     fec:	8c20                	exec.it	#22     !
     fee:	1587a783          	lw	a5,344(a5)
     ff2:	00f10613          	addi	a2,sp,15
     ff6:	4585                	c.li	a1,1
     ff8:	9782                	c.jalr	a5
     ffa:	00f14403          	lbu	s0,15(sp)
     ffe:	0ff00793          	li	a5,255
    1002:	4501                	c.li	a0,0
    1004:	00f40e63          	beq	s0,a5,1020 <user_calib_freq_offset.constprop.8+0x40>
    1008:	08a00513          	li	a0,138
    100c:	8c10                	exec.it	#7     !
    100e:	03f47413          	andi	s0,s0,63
    1012:	04057593          	andi	a1,a0,64
    1016:	8dc1                	c.or	a1,s0
    1018:	08a00513          	li	a0,138
    101c:	8800                	exec.it	#4     !
    101e:	4505                	c.li	a0,1
    1020:	0141                	c.addi	sp,16
    1022:	6730106f          	j	2e94 <__riscv_restore_0>

00001026 <gpio_input_dis>:
    1026:	8c00                	exec.it	#6     !
    1028:	30978703          	lb	a4,777(a5)
    102c:	fff54513          	not	a0,a0
    1030:	8d79                	c.and	a0,a4
    1032:	0ff57513          	andi	a0,a0,255
    1036:	30a784a3          	sb	a0,777(a5)
    103a:	8082                	c.jr	ra

0000103c <sys_init.constprop.2>:
    103c:	635012ef          	jal	t0,2e70 <__riscv_save_0>
    1040:	ffbc07b7          	lui	a5,0xffbc0
    1044:	17fd                	c.addi	a5,-1
    1046:	8410                	exec.it	#3     !
    1048:	1ef72023          	sw	a5,480(a4)
    104c:	4589                	c.li	a1,2
    104e:	08c00513          	li	a0,140
    1052:	1ef72223          	sw	a5,484(a4)
    1056:	8800                	exec.it	#4     !
    1058:	4581                	c.li	a1,0
    105a:	4529                	c.li	a0,10
    105c:	8800                	exec.it	#4     !
    105e:	03b00593          	li	a1,59
    1062:	452d                	c.li	a0,11
    1064:	8800                	exec.it	#4     !
    1066:	4515                	c.li	a0,5
    1068:	8c10                	exec.it	#7     !
    106a:	0f757593          	andi	a1,a0,247
    106e:	4515                	c.li	a0,5
    1070:	8800                	exec.it	#4     !
    1072:	4519                	c.li	a0,6
    1074:	8c10                	exec.it	#7     !
    1076:	03e57593          	andi	a1,a0,62
    107a:	4519                	c.li	a0,6
    107c:	8800                	exec.it	#4     !
    107e:	04500593          	li	a1,69
    1082:	4505                	c.li	a0,1
    1084:	8800                	exec.it	#4     !
    1086:	04c00593          	li	a1,76
    108a:	01c00513          	li	a0,28
    108e:	8800                	exec.it	#4     !
    1090:	001007b7          	lui	a5,0x100
    1094:	44478693          	addi	a3,a5,1092 # 100444 <FLASH_SIZE+0x444>
    1098:	800005b7          	lui	a1,0x80000
    109c:	4e478713          	addi	a4,a5,1252
    10a0:	00b6e633          	or	a2,a3,a1
    10a4:	00060783          	lb	a5,0(a2)
    10a8:	06d1                	c.addi	a3,20
    10aa:	8000                	exec.it	#0     !
    10ac:	00e7e793          	ori	a5,a5,14
    10b0:	00f60023          	sb	a5,0(a2)
    10b4:	fee696e3          	bne	a3,a4,10a0 <sys_init.constprop.2+0x64>
    10b8:	801017b7          	lui	a5,0x80101
    10bc:	83a78703          	lb	a4,-1990(a5) # 8010083a <_DATA_LMA_START+0x600fd582>
    10c0:	03800513          	li	a0,56
    10c4:	82078d23          	sb	zero,-1990(a5)
    10c8:	8c10                	exec.it	#7     !
    10ca:	842a                	c.mv	s0,a0
    10cc:	8424                	exec.it	#26     !
    10ce:	8c10                	exec.it	#7     !
    10d0:	84aa                	c.mv	s1,a0
    10d2:	0e04795b          	bbc	s0,0,11c4 <sys_init.constprop.2+0x188>
    10d6:	0fe47593          	andi	a1,s0,254
    10da:	ce5f940b          	addigp	s0,-796 # 804e4 <g_pm_status_info>
    10de:	03800513          	li	a0,56
    10e2:	0c04f95b          	bbc	s1,0,11b4 <sys_init.constprop.2+0x178>
    10e6:	4791                	c.li	a5,4
    10e8:	00f40123          	sb	a5,2(s0)
    10ec:	c26ff0ef          	jal	ra,512 <analog_write_reg8>
    10f0:	00100593          	li	a1,1
    10f4:	8844                	exec.it	#44     !
    10f6:	8800                	exec.it	#4     !
    10f8:	8c04                	exec.it	#14     !
    10fa:	8c10                	exec.it	#7     !
    10fc:	0c3527db          	bfoz	a5,a0,3,3
    1100:	00a400a3          	sb	a0,1(s0)
    1104:	00f40023          	sb	a5,0(s0)
    1108:	8830                	exec.it	#21     !
    110a:	8c10                	exec.it	#7     !
    110c:	be757e5b          	bbc	a0,7,1108 <sys_init.constprop.2+0xcc>
    1110:	d54ff0ef          	jal	ra,664 <pm_wait_bbpll_done>
    1114:	00244783          	lbu	a5,2(s0)
    1118:	0887d85b          	beqc	a5,8,11a8 <sys_init.constprop.2+0x16c>
    111c:	8410                	exec.it	#3     !
    111e:	8c34                	exec.it	#31     !
    1120:	8000                	exec.it	#0     !
    1122:	8e04                	exec.it	#78     !
    1124:	20f70523          	sb	a5,522(a4)
    1128:	00100793          	li	a5,1
    112c:	20f72023          	sw	a5,512(a4)
    1130:	8020                	exec.it	#16     !
    1132:	1fd48783          	lb	a5,509(s1)
    1136:	8000                	exec.it	#0     !
    1138:	ceffc1ab          	swgp	a5,-800 # 804e0 <g_chip_version>
    113c:	00244703          	lbu	a4,2(s0)
    1140:	0447525b          	beqc	a4,4,1184 <sys_init.constprop.2+0x148>
    1144:	0ff00693          	li	a3,255
    1148:	02d78863          	beq	a5,a3,1178 <sys_init.constprop.2+0x13c>
    114c:	8c74                	exec.it	#63     !
    114e:	8c44                	exec.it	#46     !
    1150:	8800                	exec.it	#4     !
    1152:	8410                	exec.it	#3     !
    1154:	8470                	exec.it	#51     !
    1156:	8600                	exec.it	#66     !
    1158:	8200                	exec.it	#64     !
    115a:	8064                	exec.it	#56     !
    115c:	8bbd                	c.andi	a5,15
    115e:	0037d55b          	beqc	a5,3,1168 <sys_init.constprop.2+0x12c>
    1162:	4725                	c.li	a4,9
    1164:	04f77663          	bgeu	a4,a5,11b0 <sys_init.constprop.2+0x174>
    1168:	801407b7          	lui	a5,0x80140
    116c:	02000713          	li	a4,32
    1170:	1ee787a3          	sb	a4,495(a5) # 801401ef <_DATA_LMA_START+0x6013cf37>
    1174:	0000006f          	j	1174 <sys_init.constprop.2+0x138>
    1178:	bc176a5b          	bnec	a4,1,114c <sys_init.constprop.2+0x110>
    117c:	8c44                	exec.it	#46     !
    117e:	8c74                	exec.it	#63     !
    1180:	0100006f          	j	1190 <sys_init.constprop.2+0x154>
    1184:	8424                	exec.it	#26     !
    1186:	8c10                	exec.it	#7     !
    1188:	00256593          	ori	a1,a0,2
    118c:	8814                	exec.it	#13     !
    118e:	8424                	exec.it	#26     !
    1190:	b82ff0ef          	jal	ra,512 <analog_write_reg8>
    1194:	2004a503          	lw	a0,512(s1)
    1198:	001877b7          	lui	a5,0x187
    119c:	a0078793          	addi	a5,a5,-1536 # 186a00 <FLASH_SIZE+0x86a00>
    11a0:	953e                	c.add	a0,a5
    11a2:	333d                	c.jal	ed0 <pm_sleep_wakeup.constprop.3>
    11a4:	fa9ff06f          	j	114c <sys_init.constprop.2+0x110>
    11a8:	af4ff0ef          	jal	ra,49c <pm_stimer_recover>
    11ac:	f85ff06f          	j	1130 <sys_init.constprop.2+0xf4>
    11b0:	4e50106f          	j	2e94 <__riscv_restore_0>
    11b4:	4785                	c.li	a5,1
    11b6:	8a04                	exec.it	#76     !
    11b8:	8800                	exec.it	#4     !
    11ba:	0014e593          	ori	a1,s1,1
    11be:	8814                	exec.it	#13     !
    11c0:	8424                	exec.it	#26     !
    11c2:	b72d                	c.j	10ec <sys_init.constprop.2+0xb0>
    11c4:	8844                	exec.it	#44     !
    11c6:	8c10                	exec.it	#7     !
    11c8:	ce5f940b          	addigp	s0,-796 # 804e4 <g_pm_status_info>
    11cc:	47a1                	c.li	a5,8
    11ce:	0005755b          	bbc	a0,0,11d8 <sys_init.constprop.2+0x19c>
    11d2:	47c1                	c.li	a5,16
    11d4:	4014f65b          	bbs	s1,1,11e0 <sys_init.constprop.2+0x1a4>
    11d8:	00f40123          	sb	a5,2(s0)
    11dc:	f15ff06f          	j	10f0 <sys_init.constprop.2+0xb4>
    11e0:	0fd4f593          	andi	a1,s1,253
    11e4:	8424                	exec.it	#26     !
    11e6:	02000793          	li	a5,32
    11ea:	bdfd                	c.j	10e8 <sys_init.constprop.2+0xac>
    11ec:	0001                	c.nop

000011ee <_write>:
    11ee:	483012ef          	jal	t0,2e70 <__riscv_save_0>
    11f2:	1141                	c.addi	sp,-16
    11f4:	842e                	c.mv	s0,a1
    11f6:	40b407b3          	sub	a5,s0,a1
    11fa:	00c7c863          	blt	a5,a2,120a <_write+0x1c>
    11fe:	4501                	c.li	a0,0
    1200:	f2a6057f          	maxw	a0,a2,a0
    1204:	0141                	c.addi	sp,16
    1206:	48f0106f          	j	2e94 <__riscv_restore_0>
    120a:	00044503          	lbu	a0,0(s0)
    120e:	c632                	c.swsp	a2,12(sp)
    1210:	c42e                	c.swsp	a1,8(sp)
    1212:	e12ff0ef          	jal	ra,824 <dr_putchar>
    1216:	0405                	c.addi	s0,1
    1218:	4632                	c.lwsp	a2,12(sp)
    121a:	45a2                	c.lwsp	a1,8(sp)
    121c:	bfe9                	c.j	11f6 <_write+0x8>

0000121e <main>:
    121e:	8a10                	exec.it	#69     !
    1220:	7139                	c.addi16sp	sp,-64
    1222:	fe22                	c.fswsp	fs0,60(sp)
    1224:	3d21                	c.jal	103c <sys_init.constprop.2>
    1226:	453d                	c.li	a0,15
    1228:	8c10                	exec.it	#7     !
    122a:	03f57593          	andi	a1,a0,63
    122e:	0405e593          	ori	a1,a1,64
    1232:	453d                	c.li	a0,15
    1234:	8800                	exec.it	#4     !
    1236:	100c                	c.addi4spn	a1,sp,32
    1238:	0868                	c.addi4spn	a0,sp,28
    123a:	3109                	c.jal	e3c <flash_read_mid_uid_with_check>
    123c:	0ff57513          	andi	a0,a0,255
    1240:	26156b5b          	bnec	a0,1,14b6 <main+0x298>
    1244:	01e10783          	lb	a5,30(sp)
    1248:	4719                	c.li	a4,6
    124a:	17c1                	c.addi	a5,-16
    124c:	8000                	exec.it	#0     !
    124e:	26f76463          	bltu	a4,a5,14b6 <main+0x298>
    1252:	80df970b          	addigp	a4,-2036 # 8000c <_DATA_VMA_START+0xc>
    1256:	0cf707db          	lea.w	a5,a4,a5
    125a:	439c                	c.lw	a5,0(a5)
    125c:	8782                	c.jr	a5
    125e:	6539                	c.lui	a0,0xe
    1260:	8820                	exec.it	#20     !
    1262:	39ad                	c.jal	edc <user_calib_adc_vref.constprop.9>
    1264:	6539                	c.lui	a0,0xe
    1266:	3bad                	c.jal	fe0 <user_calib_freq_offset.constprop.8>
    1268:	80140437          	lui	s0,0x80140
    126c:	3999                	c.jal	ec2 <clock_init.constprop.10>
    126e:	8c24                	exec.it	#30     !
    1270:	11000513          	li	a0,272
    1274:	8000                	exec.it	#0     !
    1276:	8824                	exec.it	#28     !
    1278:	8860                	exec.it	#52     !
    127a:	8c54                	exec.it	#47     !
    127c:	0ef7f793          	andi	a5,a5,239
    1280:	8054                	exec.it	#41     !
    1282:	3355                	c.jal	1026 <gpio_input_dis>
    1284:	8c24                	exec.it	#30     !
    1286:	12000513          	li	a0,288
    128a:	8000                	exec.it	#0     !
    128c:	0207e793          	ori	a5,a5,32
    1290:	8860                	exec.it	#52     !
    1292:	8c54                	exec.it	#47     !
    1294:	00080a37          	lui	s4,0x80
    1298:	0df7f793          	andi	a5,a5,223
    129c:	8054                	exec.it	#41     !
    129e:	3361                	c.jal	1026 <gpio_input_dis>
    12a0:	8c24                	exec.it	#30     !
    12a2:	14000513          	li	a0,320
    12a6:	8000                	exec.it	#0     !
    12a8:	0407e793          	ori	a5,a5,64
    12ac:	8860                	exec.it	#52     !
    12ae:	8c54                	exec.it	#47     !
    12b0:	0bf7f793          	andi	a5,a5,191
    12b4:	8054                	exec.it	#41     !
    12b6:	3b85                	c.jal	1026 <gpio_input_dis>
    12b8:	8c24                	exec.it	#30     !
    12ba:	18000513          	li	a0,384
    12be:	f807e793          	ori	a5,a5,-128
    12c2:	8000                	exec.it	#0     !
    12c4:	8860                	exec.it	#52     !
    12c6:	8c54                	exec.it	#47     !
    12c8:	cc9f990b          	addigp	s2,-824 # 804c8 <_BSS_VMA_START>
    12cc:	07f7f793          	andi	a5,a5,127
    12d0:	8054                	exec.it	#41     !
    12d2:	3b91                	c.jal	1026 <gpio_input_dis>
    12d4:	00080537          	lui	a0,0x80
    12d8:	03850513          	addi	a0,a0,56 # 80038 <_DATA_VMA_START+0x38>
    12dc:	043000ef          	jal	ra,1b1e <puts>
    12e0:	65a9                	c.lui	a1,0xa
    12e2:	00080537          	lui	a0,0x80
    12e6:	0585                	c.addi	a1,1
    12e8:	03c50513          	addi	a0,a0,60 # 8003c <_DATA_VMA_START+0x3c>
    12ec:	8810                	exec.it	#5     !
    12ee:	00080537          	lui	a0,0x80
    12f2:	7e400593          	li	a1,2020
    12f6:	05450513          	addi	a0,a0,84 # 80054 <_DATA_VMA_START+0x54>
    12fa:	8810                	exec.it	#5     !
    12fc:	000805b7          	lui	a1,0x80
    1300:	00080537          	lui	a0,0x80
    1304:	06c58593          	addi	a1,a1,108 # 8006c <_DATA_VMA_START+0x6c>
    1308:	07850513          	addi	a0,a0,120 # 80078 <_DATA_VMA_START+0x78>
    130c:	8810                	exec.it	#5     !
    130e:	8a14                	exec.it	#77     !
    1310:	31c9                	c.jal	fd2 <core_interrupt_disable.lto_priv.17>
    1312:	cb1f978b          	addigp	a5,-848 # 804b0 <sys_clk>
    1316:	0027c503          	lbu	a0,2(a5)
    131a:	00080437          	lui	s0,0x80
    131e:	197010ef          	jal	ra,2cb4 <__floatsidf>
    1322:	000a0793          	mv	a5,s4
    1326:	4390                	c.lw	a2,0(a5)
    1328:	43d4                	c.lw	a3,4(a5)
    132a:	80000cb7          	lui	s9,0x80000
    132e:	2a2010ef          	jal	ra,25d0 <__muldf3>
    1332:	0eb010ef          	jal	ra,2c1c <__fixunsdfsi>
    1336:	00a92023          	sw	a0,0(s2)
    133a:	8444                	exec.it	#42     !
    133c:	8810                	exec.it	#5     !
    133e:	00080537          	lui	a0,0x80
    1342:	0a050513          	addi	a0,a0,160 # 800a0 <_DATA_VMA_START+0xa0>
    1346:	8810                	exec.it	#5     !
    1348:	8444                	exec.it	#42     !
    134a:	8810                	exec.it	#5     !
    134c:	8444                	exec.it	#42     !
    134e:	8810                	exec.it	#5     !
    1350:	00080537          	lui	a0,0x80
    1354:	0dc50513          	addi	a0,a0,220 # 800dc <_DATA_VMA_START+0xdc>
    1358:	8810                	exec.it	#5     !
    135a:	00092583          	lw	a1,0(s2)
    135e:	00080537          	lui	a0,0x80
    1362:	0f850513          	addi	a0,a0,248 # 800f8 <_DATA_VMA_START+0xf8>
    1366:	8810                	exec.it	#5     !
    1368:	040007b7          	lui	a5,0x4000
    136c:	20078793          	addi	a5,a5,512 # 4000200 <FLASH_SIZE+0x3f00200>
    1370:	d03e                	c.swsp	a5,32(sp)
    1372:	6785                	c.lui	a5,0x1
    1374:	80078793          	addi	a5,a5,-2048 # 800 <pm_sleep_start+0x118>
    1378:	02f11223          	sh	a5,36(sp)
    137c:	000807b7          	lui	a5,0x80
    1380:	0087a407          	flw	fs0,8(a5) # 80008 <_DATA_VMA_START+0x8>
    1384:	aaaabd37          	lui	s10,0xaaaab
    1388:	02010c13          	addi	s8,sp,32
    138c:	4b81                	c.li	s7,0
    138e:	cc9f948b          	addigp	s1,-824 # 804c8 <_BSS_VMA_START>
    1392:	cb1f9a8b          	addigp	s5,-848 # 804b0 <sys_clk>
    1396:	000a0a13          	mv	s4,s4
    139a:	fffccc93          	not	s9,s9
    139e:	aaad0d13          	addi	s10,s10,-1366 # aaaaaaaa <_DATA_LMA_START+0x8aaa77f2>
    13a2:	000c5983          	lhu	s3,0(s8)
    13a6:	854e                	c.mv	a0,s3
    13a8:	298d                	c.jal	181a <malloc>
    13aa:	892a                	c.mv	s2,a0
    13ac:	10051863          	bnez	a0,14bc <main+0x29e>
    13b0:	00080537          	lui	a0,0x80
    13b4:	85ce                	c.mv	a1,s3
    13b6:	11850513          	addi	a0,a0,280 # 80118 <_DATA_VMA_START+0x118>
    13ba:	8810                	exec.it	#5     !
    13bc:	0b85                	c.addi	s7,1
    13be:	0c09                	c.addi	s8,2
    13c0:	be3be15b          	bnec	s7,3,13a2 <main+0x184>
    13c4:	8444                	exec.it	#42     !
    13c6:	8810                	exec.it	#5     !
    13c8:	00080537          	lui	a0,0x80
    13cc:	1c450513          	addi	a0,a0,452 # 801c4 <_DATA_VMA_START+0x1c4>
    13d0:	8810                	exec.it	#5     !
    13d2:	20000793          	li	a5,512
    13d6:	d03e                	c.swsp	a5,32(sp)
    13d8:	40000793          	li	a5,1024
    13dc:	d23e                	c.swsp	a5,36(sp)
    13de:	002ac503          	lbu	a0,2(s5)
    13e2:	6785                	c.lui	a5,0x1
    13e4:	80078793          	addi	a5,a5,-2048 # 800 <pm_sleep_start+0x118>
    13e8:	d43e                	c.swsp	a5,40(sp)
    13ea:	0cb010ef          	jal	ra,2cb4 <__floatsidf>
    13ee:	000a2603          	lw	a2,0(s4) # 80000 <_DATA_VMA_START>
    13f2:	004a2683          	lw	a3,4(s4)
    13f6:	80000bb7          	lui	s7,0x80000
    13fa:	1d6010ef          	jal	ra,25d0 <__muldf3>
    13fe:	01f010ef          	jal	ra,2c1c <__fixunsdfsi>
    1402:	000807b7          	lui	a5,0x80
    1406:	0087a407          	flw	fs0,8(a5) # 80008 <_DATA_VMA_START+0x8>
    140a:	aaaabc37          	lui	s8,0xaaaab
    140e:	1000                	c.addi4spn	s0,sp,32
    1410:	4b01                	c.li	s6,0
    1412:	fffbcb93          	not	s7,s7
    1416:	aaac0c13          	addi	s8,s8,-1366 # aaaaaaaa <_DATA_LMA_START+0x8aaa77f2>
    141a:	c088                	c.sw	a0,0(s1)
    141c:	00042a03          	lw	s4,0(s0) # 80000 <_DATA_VMA_START>
    1420:	001a1a93          	slli	s5,s4,0x1
    1424:	8556                	c.mv	a0,s5
    1426:	2ed5                	c.jal	181a <malloc>
    1428:	89aa                	c.mv	s3,a0
    142a:	8556                	c.mv	a0,s5
    142c:	26fd                	c.jal	181a <malloc>
    142e:	892a                	c.mv	s2,a0
    1430:	00098463          	beqz	s3,1438 <main+0x21a>
    1434:	14051463          	bnez	a0,157c <main+0x35e>
    1438:	00080537          	lui	a0,0x80
    143c:	85d2                	c.mv	a1,s4
    143e:	1e450513          	addi	a0,a0,484 # 801e4 <_DATA_VMA_START+0x1e4>
    1442:	8810                	exec.it	#5     !
    1444:	854e                	c.mv	a0,s3
    1446:	26c5                	c.jal	1826 <free>
    1448:	854a                	c.mv	a0,s2
    144a:	0b05                	c.addi	s6,1
    144c:	2ee9                	c.jal	1826 <free>
    144e:	0411                	c.addi	s0,4
    1450:	bc3b665b          	bnec	s6,3,141c <main+0x1fe>
    1454:	00080537          	lui	a0,0x80
    1458:	21450513          	addi	a0,a0,532 # 80214 <_DATA_VMA_START+0x214>
    145c:	8810                	exec.it	#5     !
    145e:	8a14                	exec.it	#77     !
    1460:	00080537          	lui	a0,0x80
    1464:	22c50513          	addi	a0,a0,556 # 8022c <_DATA_VMA_START+0x22c>
    1468:	8810                	exec.it	#5     !
    146a:	8a14                	exec.it	#77     !
    146c:	7472                	c.flwsp	fs0,60(sp)
    146e:	4501                	c.li	a0,0
    1470:	6121                	c.addi16sp	sp,64
    1472:	8214                	exec.it	#73     !
    1474:	6579                	c.lui	a0,0x1e
    1476:	8820                	exec.it	#20     !
    1478:	8030                	exec.it	#17     !
    147a:	6579                	c.lui	a0,0x1e
    147c:	b3ed                	c.j	1266 <main+0x48>
    147e:	0007e537          	lui	a0,0x7e
    1482:	8820                	exec.it	#20     !
    1484:	8030                	exec.it	#17     !
    1486:	0007e537          	lui	a0,0x7e
    148a:	bbf1                	c.j	1266 <main+0x48>
    148c:	000fe537          	lui	a0,0xfe
    1490:	8820                	exec.it	#20     !
    1492:	8030                	exec.it	#17     !
    1494:	000fe537          	lui	a0,0xfe
    1498:	b3f9                	c.j	1266 <main+0x48>
    149a:	001fe537          	lui	a0,0x1fe
    149e:	8820                	exec.it	#20     !
    14a0:	8030                	exec.it	#17     !
    14a2:	001fe537          	lui	a0,0x1fe
    14a6:	b3c1                	c.j	1266 <main+0x48>
    14a8:	003fe537          	lui	a0,0x3fe
    14ac:	8820                	exec.it	#20     !
    14ae:	8030                	exec.it	#17     !
    14b0:	003fe537          	lui	a0,0x3fe
    14b4:	bb4d                	c.j	1266 <main+0x48>
    14b6:	4501                	c.li	a0,0
    14b8:	8030                	exec.it	#17     !
    14ba:	b37d                	c.j	1268 <main+0x4a>
    14bc:	b0002573          	csrr	a0,mcycle
    14c0:	8b4a                	c.mv	s6,s2
    14c2:	2e01                	c.jal	17d2 <srand>
    14c4:	412b07b3          	sub	a5,s6,s2
    14c8:	0937ce63          	blt	a5,s3,1564 <main+0x346>
    14cc:	b0005073          	csrwi	mcycle,0
    14d0:	b0205073          	csrwi	minstret,0
    14d4:	870a                	c.mv	a4,sp
    14d6:	0009f7b7          	lui	a5,0x9f
    14da:	08e7ed63          	bltu	a5,a4,1574 <main+0x356>
    14de:	b0002b73          	csrr	s6,mcycle
    14e2:	b02027f3          	csrr	a5,minstret
    14e6:	85ce                	c.mv	a1,s3
    14e8:	854a                	c.mv	a0,s2
    14ea:	c43e                	c.swsp	a5,8(sp)
    14ec:	24d1                	c.jal	17b0 <riscv_relu6_s8>
    14ee:	b0002773          	csrr	a4,mcycle
    14f2:	b0202df3          	csrr	s11,minstret
    14f6:	47a2                	c.lwsp	a5,8(sp)
    14f8:	41670b33          	sub	s6,a4,s6
    14fc:	40fd8db3          	sub	s11,s11,a5
    1500:	ab1ff0ef          	jal	ra,fb0 <measure_stack_usage>
    1504:	409c                	c.lw	a5,0(s1)
    1506:	d01b7553          	fcvt.s.wu	fa0,s6
    150a:	c62a                	c.swsp	a0,12(sp)
    150c:	00080537          	lui	a0,0x80
    1510:	d017f7d3          	fcvt.s.wu	fa5,a5
    1514:	85ce                	c.mv	a1,s3
    1516:	14050513          	addi	a0,a0,320 # 80140 <_DATA_VMA_START+0x140>
    151a:	18f57553          	fdiv.s	fa0,fa0,fa5
    151e:	10857553          	fmul.s	fa0,fa0,fs0
    1522:	e42a                	c.fswsp	fa0,8(sp)
    1524:	2bf1                	c.jal	1b00 <printf>
    1526:	00080537          	lui	a0,0x80
    152a:	85da                	c.mv	a1,s6
    152c:	15450513          	addi	a0,a0,340 # 80154 <_DATA_VMA_START+0x154>
    1530:	2bc1                	c.jal	1b00 <printf>
    1532:	00080537          	lui	a0,0x80
    1536:	85ee                	c.mv	a1,s11
    1538:	16850513          	addi	a0,a0,360 # 80168 <_DATA_VMA_START+0x168>
    153c:	23d1                	c.jal	1b00 <printf>
    153e:	6522                	c.flwsp	fa0,8(sp)
    1540:	7f0010ef          	jal	ra,2d30 <__extendsfdf2>
    1544:	862a                	c.mv	a2,a0
    1546:	00080537          	lui	a0,0x80
    154a:	86ae                	c.mv	a3,a1
    154c:	18450513          	addi	a0,a0,388 # 80184 <_DATA_VMA_START+0x184>
    1550:	2b45                	c.jal	1b00 <printf>
    1552:	4732                	c.lwsp	a4,12(sp)
    1554:	8010                	exec.it	#1     !
    1556:	85ba                	c.mv	a1,a4
    1558:	1a850513          	addi	a0,a0,424
    155c:	2355                	c.jal	1b00 <printf>
    155e:	854a                	c.mv	a0,s2
    1560:	24d9                	c.jal	1826 <free>
    1562:	bda9                	c.j	13bc <main+0x19e>
    1564:	2cad                	c.jal	17de <rand>
    1566:	03956533          	rem	a0,a0,s9
    156a:	0b05                	c.addi	s6,1
    156c:	0505                	c.addi	a0,1
    156e:	feab0fa3          	sb	a0,-1(s6)
    1572:	bf89                	c.j	14c4 <main+0x2a6>
    1574:	01a7a023          	sw	s10,0(a5) # 9f000 <__global_pointer$+0x1e800>
    1578:	0791                	c.addi	a5,4
    157a:	b785                	c.j	14da <main+0x2bc>
    157c:	b0002573          	csrr	a0,mcycle
    1580:	4c81                	c.li	s9,0
    1582:	8d4e                	c.mv	s10,s3
    1584:	24b9                	c.jal	17d2 <srand>
    1586:	094ccf63          	blt	s9,s4,1624 <main+0x406>
    158a:	8656                	c.mv	a2,s5
    158c:	4581                	c.li	a1,0
    158e:	854a                	c.mv	a0,s2
    1590:	2e49                	c.jal	1922 <memset>
    1592:	b0005073          	csrwi	mcycle,0
    1596:	b0205073          	csrwi	minstret,0
    159a:	870a                	c.mv	a4,sp
    159c:	0009f7b7          	lui	a5,0x9f
    15a0:	08e7eb63          	bltu	a5,a4,1636 <main+0x418>
    15a4:	b0002af3          	csrr	s5,mcycle
    15a8:	b0202d73          	csrr	s10,minstret
    15ac:	4701                	c.li	a4,0
    15ae:	46a1                	c.li	a3,8
    15b0:	8652                	c.mv	a2,s4
    15b2:	85ca                	c.mv	a1,s2
    15b4:	854e                	c.mv	a0,s3
    15b6:	2849                	c.jal	1648 <riscv_nn_activation_s16>
    15b8:	b00027f3          	csrr	a5,mcycle
    15bc:	b0202cf3          	csrr	s9,minstret
    15c0:	41578ab3          	sub	s5,a5,s5
    15c4:	9edff0ef          	jal	ra,fb0 <measure_stack_usage>
    15c8:	409c                	c.lw	a5,0(s1)
    15ca:	d01af553          	fcvt.s.wu	fa0,s5
    15ce:	41ac8cb3          	sub	s9,s9,s10
    15d2:	8d2a                	c.mv	s10,a0
    15d4:	d017f7d3          	fcvt.s.wu	fa5,a5
    15d8:	00080537          	lui	a0,0x80
    15dc:	85d2                	c.mv	a1,s4
    15de:	14050513          	addi	a0,a0,320 # 80140 <_DATA_VMA_START+0x140>
    15e2:	18f57553          	fdiv.s	fa0,fa0,fa5
    15e6:	10857553          	fmul.s	fa0,fa0,fs0
    15ea:	e42a                	c.fswsp	fa0,8(sp)
    15ec:	2b11                	c.jal	1b00 <printf>
    15ee:	00080537          	lui	a0,0x80
    15f2:	85d6                	c.mv	a1,s5
    15f4:	15450513          	addi	a0,a0,340 # 80154 <_DATA_VMA_START+0x154>
    15f8:	2321                	c.jal	1b00 <printf>
    15fa:	00080537          	lui	a0,0x80
    15fe:	85e6                	c.mv	a1,s9
    1600:	16850513          	addi	a0,a0,360 # 80168 <_DATA_VMA_START+0x168>
    1604:	29f5                	c.jal	1b00 <printf>
    1606:	6522                	c.flwsp	fa0,8(sp)
    1608:	728010ef          	jal	ra,2d30 <__extendsfdf2>
    160c:	862a                	c.mv	a2,a0
    160e:	00080537          	lui	a0,0x80
    1612:	86ae                	c.mv	a3,a1
    1614:	18450513          	addi	a0,a0,388 # 80184 <_DATA_VMA_START+0x184>
    1618:	21e5                	c.jal	1b00 <printf>
    161a:	8010                	exec.it	#1     !
    161c:	85ea                	c.mv	a1,s10
    161e:	1a850513          	addi	a0,a0,424
    1622:	b505                	c.j	1442 <main+0x224>
    1624:	2a6d                	c.jal	17de <rand>
    1626:	03756533          	rem	a0,a0,s7
    162a:	0c85                	c.addi	s9,1
    162c:	0d09                	c.addi	s10,2
    162e:	0505                	c.addi	a0,1
    1630:	fead1f23          	sh	a0,-2(s10)
    1634:	bf89                	c.j	1586 <main+0x368>
    1636:	0187a023          	sw	s8,0(a5) # 9f000 <__global_pointer$+0x1e800>
    163a:	0791                	c.addi	a5,4
    163c:	b795                	c.j	15a0 <main+0x382>
	...

00001640 <default_irq_entry>:
    1640:	a001                	c.j	1640 <default_irq_entry>

00001642 <trap_handler>:
    1642:	a001                	c.j	1642 <trap_handler>
    1644:	0001                	c.nop
	...

00001648 <riscv_nn_activation_s16>:
    1648:	cf55                	c.beqz	a4,1704 <riscv_nn_activation_s16+0xbc>
    164a:	01000eb7          	lui	t4,0x1000
    164e:	f00e8e93          	addi	t4,t4,-256 # ffff00 <FLASH_SIZE+0xefff00>
    1652:	48a1                	c.li	a7,8
    1654:	0c06c063          	bltz	a3,1714 <riscv_nn_activation_s16+0xcc>
    1658:	478d                	c.li	a5,3
    165a:	00d796b3          	sll	a3,a5,a3
    165e:	4301                	c.li	t1,0
    1660:	00000e13          	li	t3,0
    1664:	0cc05263          	blez	a2,1728 <riscv_nn_activation_s16+0xe0>
    1668:	1141                	c.addi	sp,-16
    166a:	c622                	c.swsp	s0,12(sp)
    166c:	c426                	c.swsp	s1,8(sp)
    166e:	c24a                	c.swsp	s2,4(sp)
    1670:	0606                	c.slli	a2,0x1
    1672:	cf4d                	c.beqz	a4,172c <riscv_nn_activation_s16+0xe4>
    1674:	ff8004b7          	lui	s1,0xff800
    1678:	00800937          	lui	s2,0x800
    167c:	00c582b3          	add	t0,a1,a2
    1680:	0fe00413          	li	s0,254
    1684:	0007f397          	auipc	t2,0x7f
    1688:	bd038393          	addi	t2,t2,-1072 # 80254 <sigmoid_table_uint16>
    168c:	08048493          	addi	s1,s1,128 # ff800080 <_DATA_LMA_START+0xdf7fcdc8>
    1690:	07f90913          	addi	s2,s2,127 # 80007f <FLASH_SIZE+0x70007f>
    1694:	00051783          	lh	a5,0(a0)
    1698:	8672                	c.mv	a2,t3
    169a:	8ff6                	c.mv	t6,t4
    169c:	c4d7967f          	maddr32	a2,a5,a3
    16a0:	40665633          	sra	a2,a2,t1
    16a4:	40c007b3          	neg	a5,a2
    16a8:	f2f607ff          	maxw	a5,a2,a5
    16ac:	0117d833          	srl	a6,a5,a7
    16b0:	00180713          	addi	a4,a6,1
    16b4:	00181f13          	slli	t5,a6,0x1
    16b8:	0706                	c.slli	a4,0x1
    16ba:	9f1e                	c.add	t5,t2
    16bc:	00770733          	add	a4,a4,t2
    16c0:	0ff7f793          	andi	a5,a5,255
    16c4:	01046c63          	bltu	s0,a6,16dc <riscv_nn_activation_s16+0x94>
    16c8:	000f5803          	lhu	a6,0(t5)
    16cc:	00075703          	lhu	a4,0(a4)
    16d0:	01181fb3          	sll	t6,a6,a7
    16d4:	41070733          	sub	a4,a4,a6
    16d8:	c4f71fff          	maddr32	t6,a4,a5
    16dc:	009f87b3          	add	a5,t6,s1
    16e0:	00065463          	bgez	a2,16e8 <riscv_nn_activation_s16+0xa0>
    16e4:	41f907b3          	sub	a5,s2,t6
    16e8:	83a1                	c.srli	a5,0x8
    16ea:	00f59023          	sh	a5,0(a1)
    16ee:	0589                	c.addi	a1,2
    16f0:	0509                	c.addi	a0,2
    16f2:	fa5591e3          	bne	a1,t0,1694 <riscv_nn_activation_s16+0x4c>
    16f6:	4432                	c.lwsp	s0,12(sp)
    16f8:	44a2                	c.lwsp	s1,8(sp)
    16fa:	4912                	c.lwsp	s2,4(sp)
    16fc:	4501                	c.li	a0,0
    16fe:	0141                	c.addi	sp,16
    1700:	00008067          	ret
    1704:	02000eb7          	lui	t4,0x2000
    1708:	c00e8e93          	addi	t4,t4,-1024 # 1fffc00 <FLASH_SIZE+0x1effc00>
    170c:	00900893          	li	a7,9
    1710:	f406d4e3          	bgez	a3,1658 <riscv_nn_activation_s16+0x10>
    1714:	fff6c793          	not	a5,a3
    1718:	4e05                	c.li	t3,1
    171a:	40d00333          	neg	t1,a3
    171e:	00fe1e33          	sll	t3,t3,a5
    1722:	468d                	c.li	a3,3
    1724:	f4c042e3          	bgtz	a2,1668 <riscv_nn_activation_s16+0x20>
    1728:	4501                	c.li	a0,0
    172a:	8082                	c.jr	ra
    172c:	02000437          	lui	s0,0x2000
    1730:	00c50fb3          	add	t6,a0,a2
    1734:	0fe00393          	li	t2,254
    1738:	0007f297          	auipc	t0,0x7f
    173c:	b1c28293          	addi	t0,t0,-1252 # 80254 <sigmoid_table_uint16>
    1740:	1ff40413          	addi	s0,s0,511 # 20001ff <FLASH_SIZE+0x1f001ff>
    1744:	00051783          	lh	a5,0(a0)
    1748:	8772                	c.mv	a4,t3
    174a:	0509                	c.addi	a0,2
    174c:	c4d7977f          	maddr32	a4,a5,a3
    1750:	8f76                	c.mv	t5,t4
    1752:	40675733          	sra	a4,a4,t1
    1756:	40e007b3          	neg	a5,a4
    175a:	f2f707ff          	maxw	a5,a4,a5
    175e:	1ff7f493          	andi	s1,a5,511
    1762:	0117d7b3          	srl	a5,a5,a7
    1766:	00178613          	addi	a2,a5,1
    176a:	00179813          	slli	a6,a5,0x1
    176e:	0606                	c.slli	a2,0x1
    1770:	9816                	c.add	a6,t0
    1772:	9616                	c.add	a2,t0
    1774:	00f3ec63          	bltu	t2,a5,178c <riscv_nn_activation_s16+0x144>
    1778:	00085803          	lhu	a6,0(a6)
    177c:	00065783          	lhu	a5,0(a2)
    1780:	01181f33          	sll	t5,a6,a7
    1784:	410787b3          	sub	a5,a5,a6
    1788:	c4979f7f          	maddr32	t5,a5,s1
    178c:	41e407b3          	sub	a5,s0,t5
    1790:	00074463          	bltz	a4,1798 <riscv_nn_activation_s16+0x150>
    1794:	200f0793          	addi	a5,t5,512
    1798:	83a9                	c.srli	a5,0xa
    179a:	00f59023          	sh	a5,0(a1)
    179e:	0589                	c.addi	a1,2
    17a0:	fbf512e3          	bne	a0,t6,1744 <riscv_nn_activation_s16+0xfc>
    17a4:	4432                	c.lwsp	s0,12(sp)
    17a6:	44a2                	c.lwsp	s1,8(sp)
    17a8:	4912                	c.lwsp	s2,4(sp)
    17aa:	4501                	c.li	a0,0
    17ac:	0141                	c.addi	sp,16
    17ae:	8082                	c.jr	ra

000017b0 <riscv_relu6_s8>:
    17b0:	c185                	c.beqz	a1,17d0 <riscv_relu6_s8+0x20>
    17b2:	95aa                	c.add	a1,a0
    17b4:	4681                	c.li	a3,0
    17b6:	4719                	c.li	a4,6
    17b8:	00050783          	lb	a5,0(a0)
    17bc:	00150513          	addi	a0,a0,1
    17c0:	f2d787ff          	maxw	a5,a5,a3
    17c4:	f0e787ff          	minw	a5,a5,a4
    17c8:	fef50fa3          	sb	a5,-1(a0)
    17cc:	fea596e3          	bne	a1,a0,17b8 <riscv_relu6_s8+0x8>
    17d0:	8082                	c.jr	ra

000017d2 <srand>:
    17d2:	cb9f978b          	addigp	a5,-840 # 804b8 <__mculib_REENT_rand_next>
    17d6:	c388                	c.sw	a0,0(a5)
    17d8:	0007a223          	sw	zero,4(a5)
    17dc:	8082                	c.jr	ra

000017de <rand>:
    17de:	cb9f968b          	addigp	a3,-840 # 804b8 <__mculib_REENT_rand_next>
    17e2:	429c                	c.lw	a5,0(a3)
    17e4:	5851f737          	lui	a4,0x5851f
    17e8:	42d70713          	addi	a4,a4,1069 # 5851f42d <_DATA_LMA_START+0x3851c175>
    17ec:	02e78733          	mul	a4,a5,a4
    17f0:	42d0                	c.lw	a2,4(a3)
    17f2:	4c958537          	lui	a0,0x4c958
    17f6:	f2d50513          	addi	a0,a0,-211 # 4c957f2d <_DATA_LMA_START+0x2c954c75>
    17fa:	c4a6177f          	maddr32	a4,a2,a0
    17fe:	f0a7957f          	mulr64	a0,a5,a0
    1802:	00b707b3          	add	a5,a4,a1
    1806:	00150713          	addi	a4,a0,1
    180a:	00a73533          	sltu	a0,a4,a0
    180e:	953e                	c.add	a0,a5
    1810:	c2c8                	c.sw	a0,4(a3)
    1812:	c298                	c.sw	a4,0(a3)
    1814:	7805255b          	bfoz	a0,a0,30,0
    1818:	8082                	c.jr	ra

0000181a <malloc>:
    181a:	8004                	exec.it	#8     !
    181c:	85aa                	c.mv	a1,a0
    181e:	cc3fa52b          	lwgp	a0,-832 # 804c0 <_impure_ptr>
    1822:	2c25                	c.jal	1a5a <_malloc_r>
    1824:	8014                	exec.it	#9     !

00001826 <free>:
    1826:	8004                	exec.it	#8     !
    1828:	85aa                	c.mv	a1,a0
    182a:	cc3fa52b          	lwgp	a0,-832 # 804c0 <_impure_ptr>
    182e:	2a79                	c.jal	19cc <_free_r>
    1830:	8014                	exec.it	#9     !
	...

00001834 <memcpy>:
    1834:	00a5c7b3          	xor	a5,a1,a0
    1838:	8b8d                	c.andi	a5,3
    183a:	00c508b3          	add	a7,a0,a2
    183e:	ebb9                	c.bnez	a5,1894 <memcpy+0x60>
    1840:	478d                	c.li	a5,3
    1842:	04c7f963          	bgeu	a5,a2,1894 <memcpy+0x60>
    1846:	00357713          	andi	a4,a0,3
    184a:	87aa                	c.mv	a5,a0
    184c:	06071063          	bnez	a4,18ac <memcpy+0x78>
    1850:	ffc8f813          	andi	a6,a7,-4
    1854:	40f806b3          	sub	a3,a6,a5
    1858:	02000713          	li	a4,32
    185c:	02000393          	li	t2,32
    1860:	06d74663          	blt	a4,a3,18cc <memcpy+0x98>
    1864:	0307f463          	bgeu	a5,a6,188c <memcpy+0x58>
    1868:	86ae                	c.mv	a3,a1
    186a:	873e                	c.mv	a4,a5
    186c:	4290                	c.lw	a2,0(a3)
    186e:	0711                	c.addi	a4,4
    1870:	fec72e23          	sw	a2,-4(a4)
    1874:	0691                	c.addi	a3,4
    1876:	ff076be3          	bltu	a4,a6,186c <memcpy+0x38>
    187a:	fff7c713          	not	a4,a5
    187e:	983a                	c.add	a6,a4
    1880:	ffc87813          	andi	a6,a6,-4
    1884:	0811                	c.addi	a6,4
    1886:	97c2                	c.add	a5,a6
    1888:	010585b3          	add	a1,a1,a6
    188c:	0117e863          	bltu	a5,a7,189c <memcpy+0x68>
    1890:	00008067          	ret
    1894:	ff157ee3          	bgeu	a0,a7,1890 <memcpy+0x5c>
    1898:	00a007b3          	add	a5,zero,a0
    189c:	8c14                	exec.it	#15     !
    189e:	0785                	c.addi	a5,1
    18a0:	8450                	exec.it	#35     !
    18a2:	0585                	c.addi	a1,1
    18a4:	ff17ece3          	bltu	a5,a7,189c <memcpy+0x68>
    18a8:	00008067          	ret
    18ac:	8c14                	exec.it	#15     !
    18ae:	0785                	c.addi	a5,1
    18b0:	8450                	exec.it	#35     !
    18b2:	0037f713          	andi	a4,a5,3
    18b6:	0585                	c.addi	a1,1
    18b8:	df41                	c.beqz	a4,1850 <memcpy+0x1c>
    18ba:	8c14                	exec.it	#15     !
    18bc:	0785                	c.addi	a5,1
    18be:	8450                	exec.it	#35     !
    18c0:	0037f713          	andi	a4,a5,3
    18c4:	0585                	c.addi	a1,1
    18c6:	f37d                	c.bnez	a4,18ac <memcpy+0x78>
    18c8:	f89ff06f          	j	1850 <memcpy+0x1c>
    18cc:	4dd8                	c.lw	a4,28(a1)
    18ce:	0005a283          	lw	t0,0(a1)
    18d2:	0045af83          	lw	t6,4(a1)
    18d6:	0085af03          	lw	t5,8(a1)
    18da:	00c5ae83          	lw	t4,12(a1)
    18de:	0105ae03          	lw	t3,16(a1)
    18e2:	0145a303          	lw	t1,20(a1)
    18e6:	4d90                	c.lw	a2,24(a1)
    18e8:	02458593          	addi	a1,a1,36
    18ec:	ffc5a683          	lw	a3,-4(a1)
    18f0:	02478793          	addi	a5,a5,36
    18f4:	fee7ac23          	sw	a4,-8(a5)
    18f8:	fc57ae23          	sw	t0,-36(a5)
    18fc:	fff7a023          	sw	t6,-32(a5)
    1900:	ffe7a223          	sw	t5,-28(a5)
    1904:	ffd7a423          	sw	t4,-24(a5)
    1908:	ffc7a623          	sw	t3,-20(a5)
    190c:	fe67a823          	sw	t1,-16(a5)
    1910:	fec7aa23          	sw	a2,-12(a5)
    1914:	40f80733          	sub	a4,a6,a5
    1918:	fed7ae23          	sw	a3,-4(a5)
    191c:	fae3c8e3          	blt	t2,a4,18cc <memcpy+0x98>
    1920:	b791                	c.j	1864 <memcpy+0x30>

00001922 <memset>:
    1922:	433d                	c.li	t1,15
    1924:	872a                	c.mv	a4,a0
    1926:	02c37363          	bgeu	t1,a2,194c <memset+0x2a>
    192a:	00f77793          	andi	a5,a4,15
    192e:	e3c1                	c.bnez	a5,19ae <memset+0x8c>
    1930:	e5b5                	c.bnez	a1,199c <memset+0x7a>
    1932:	ff067693          	andi	a3,a2,-16
    1936:	8a3d                	c.andi	a2,15
    1938:	96ba                	c.add	a3,a4
    193a:	c30c                	c.sw	a1,0(a4)
    193c:	c34c                	c.sw	a1,4(a4)
    193e:	c70c                	c.sw	a1,8(a4)
    1940:	c74c                	c.sw	a1,12(a4)
    1942:	0741                	c.addi	a4,16
    1944:	fed76be3          	bltu	a4,a3,193a <memset+0x18>
    1948:	e211                	c.bnez	a2,194c <memset+0x2a>
    194a:	8082                	c.jr	ra
    194c:	40c306b3          	sub	a3,t1,a2
    1950:	068a                	c.slli	a3,0x2
    1952:	00000297          	auipc	t0,0x0
    1956:	005686b3          	add	a3,a3,t0
    195a:	00c68067          	jr	12(a3) # 1000c <BIN_SIZE+0xc86e>
    195e:	00b70723          	sb	a1,14(a4)
    1962:	00b706a3          	sb	a1,13(a4)
    1966:	00b70623          	sb	a1,12(a4)
    196a:	00b705a3          	sb	a1,11(a4)
    196e:	00b70523          	sb	a1,10(a4)
    1972:	00b704a3          	sb	a1,9(a4)
    1976:	00b70423          	sb	a1,8(a4)
    197a:	00b703a3          	sb	a1,7(a4)
    197e:	00b70323          	sb	a1,6(a4)
    1982:	00b702a3          	sb	a1,5(a4)
    1986:	00b70223          	sb	a1,4(a4)
    198a:	00b701a3          	sb	a1,3(a4)
    198e:	00b70123          	sb	a1,2(a4)
    1992:	00b700a3          	sb	a1,1(a4)
    1996:	00b70023          	sb	a1,0(a4)
    199a:	8082                	c.jr	ra
    199c:	0ff5f593          	andi	a1,a1,255
    19a0:	00859693          	slli	a3,a1,0x8
    19a4:	8dd5                	c.or	a1,a3
    19a6:	01059693          	slli	a3,a1,0x10
    19aa:	8dd5                	c.or	a1,a3
    19ac:	b759                	c.j	1932 <memset+0x10>
    19ae:	00279693          	slli	a3,a5,0x2
    19b2:	00000297          	auipc	t0,0x0
    19b6:	9696                	c.add	a3,t0
    19b8:	8286                	c.mv	t0,ra
    19ba:	fa8680e7          	jalr	-88(a3)
    19be:	8096                	c.mv	ra,t0
    19c0:	17c1                	c.addi	a5,-16
    19c2:	8f1d                	c.sub	a4,a5
    19c4:	963e                	c.add	a2,a5
    19c6:	f8c373e3          	bgeu	t1,a2,194c <memset+0x2a>
    19ca:	b79d                	c.j	1930 <memset+0xe>

000019cc <_free_r>:
    19cc:	c5b5                	c.beqz	a1,1a38 <_free_r+0x6c>
    19ce:	ffc5a703          	lw	a4,-4(a1)
    19d2:	ffc58793          	addi	a5,a1,-4
    19d6:	00075363          	bgez	a4,19dc <_free_r+0x10>
    19da:	97ba                	c.add	a5,a4
    19dc:	cebfa72b          	lwgp	a4,-792 # 804e8 <__malloc_free_list>
    19e0:	85b6                	c.mv	a1,a3
    19e2:	e711                	c.bnez	a4,19ee <_free_r+0x22>
    19e4:	0007a223          	sw	zero,4(a5)
    19e8:	ceffc5ab          	swgp	a5,-792 # 804e8 <__malloc_free_list>
    19ec:	8082                	c.jr	ra
    19ee:	02e7f063          	bgeu	a5,a4,1a0e <_free_r+0x42>
    19f2:	4390                	c.lw	a2,0(a5)
    19f4:	00c786b3          	add	a3,a5,a2
    19f8:	00d71663          	bne	a4,a3,1a04 <_free_r+0x38>
    19fc:	4314                	c.lw	a3,0(a4)
    19fe:	4358                	c.lw	a4,4(a4)
    1a00:	96b2                	c.add	a3,a2
    1a02:	c394                	c.sw	a3,0(a5)
    1a04:	c3d8                	c.sw	a4,4(a5)
    1a06:	ceffc5ab          	swgp	a5,-792 # 804e8 <__malloc_free_list>
    1a0a:	8082                	c.jr	ra
    1a0c:	8736                	c.mv	a4,a3
    1a0e:	4354                	c.lw	a3,4(a4)
    1a10:	c299                	c.beqz	a3,1a16 <_free_r+0x4a>
    1a12:	fed7fde3          	bgeu	a5,a3,1a0c <_free_r+0x40>
    1a16:	4310                	c.lw	a2,0(a4)
    1a18:	00c705b3          	add	a1,a4,a2
    1a1c:	00f59f63          	bne	a1,a5,1a3a <_free_r+0x6e>
    1a20:	439c                	c.lw	a5,0(a5)
    1a22:	97b2                	c.add	a5,a2
    1a24:	c31c                	c.sw	a5,0(a4)
    1a26:	00f70633          	add	a2,a4,a5
    1a2a:	00c69763          	bne	a3,a2,1a38 <_free_r+0x6c>
    1a2e:	4290                	c.lw	a2,0(a3)
    1a30:	97b2                	c.add	a5,a2
    1a32:	c31c                	c.sw	a5,0(a4)
    1a34:	42dc                	c.lw	a5,4(a3)
    1a36:	c35c                	c.sw	a5,4(a4)
    1a38:	8082                	c.jr	ra
    1a3a:	00b7f563          	bgeu	a5,a1,1a44 <_free_r+0x78>
    1a3e:	4731                	c.li	a4,12
    1a40:	8c70                	exec.it	#55     !
    1a42:	8082                	c.jr	ra
    1a44:	438c                	c.lw	a1,0(a5)
    1a46:	00b78633          	add	a2,a5,a1
    1a4a:	00c69663          	bne	a3,a2,1a56 <_free_r+0x8a>
    1a4e:	4290                	c.lw	a2,0(a3)
    1a50:	42d4                	c.lw	a3,4(a3)
    1a52:	962e                	c.add	a2,a1
    1a54:	c390                	c.sw	a2,0(a5)
    1a56:	c3d4                	c.sw	a3,4(a5)
    1a58:	bff9                	c.j	1a36 <_free_r+0x6a>

00001a5a <_malloc_r>:
    1a5a:	416012ef          	jal	t0,2e70 <__riscv_save_0>
    1a5e:	00358493          	addi	s1,a1,3
    1a62:	98f1                	c.andi	s1,-4
    1a64:	04a1                	c.addi	s1,8
    1a66:	47b1                	c.li	a5,12
    1a68:	04f4ff63          	bgeu	s1,a5,1ac6 <_malloc_r+0x6c>
    1a6c:	44b1                	c.li	s1,12
    1a6e:	04b4ee63          	bltu	s1,a1,1aca <_malloc_r+0x70>
    1a72:	cebfa42b          	lwgp	s0,-792 # 804e8 <__malloc_free_list>
    1a76:	ce9f968b          	addigp	a3,-792 # 804e8 <__malloc_free_list>
    1a7a:	87a2                	c.mv	a5,s0
    1a7c:	cf89                	c.beqz	a5,1a96 <_malloc_r+0x3c>
    1a7e:	4398                	c.lw	a4,0(a5)
    1a80:	8f05                	c.sub	a4,s1
    1a82:	06074c63          	bltz	a4,1afa <_malloc_r+0xa0>
    1a86:	462d                	c.li	a2,11
    1a88:	04e67663          	bgeu	a2,a4,1ad4 <_malloc_r+0x7a>
    1a8c:	c398                	c.sw	a4,0(a5)
    1a8e:	00e78433          	add	s0,a5,a4
    1a92:	c004                	c.sw	s1,0(s0)
    1a94:	e421                	c.bnez	s0,1adc <_malloc_r+0x82>
    1a96:	cedf940b          	addigp	s0,-788 # 804ec <__malloc_sbrk_start>
    1a9a:	401c                	c.lw	a5,0(s0)
    1a9c:	e781                	c.bnez	a5,1aa4 <_malloc_r+0x4a>
    1a9e:	4501                	c.li	a0,0
    1aa0:	8c64                	exec.it	#62     !
    1aa2:	c008                	c.sw	a0,0(s0)
    1aa4:	8526                	c.mv	a0,s1
    1aa6:	597d                	c.li	s2,-1
    1aa8:	8c64                	exec.it	#62     !
    1aaa:	03250063          	beq	a0,s2,1aca <_malloc_r+0x70>
    1aae:	00350413          	addi	s0,a0,3
    1ab2:	9871                	c.andi	s0,-4
    1ab4:	00a40763          	beq	s0,a0,1ac2 <_malloc_r+0x68>
    1ab8:	40a40533          	sub	a0,s0,a0
    1abc:	8c64                	exec.it	#62     !
    1abe:	01250663          	beq	a0,s2,1aca <_malloc_r+0x70>
    1ac2:	c004                	c.sw	s1,0(s0)
    1ac4:	a821                	c.j	1adc <_malloc_r+0x82>
    1ac6:	fa04d4e3          	bgez	s1,1a6e <_malloc_r+0x14>
    1aca:	4731                	c.li	a4,12
    1acc:	4501                	c.li	a0,0
    1ace:	8c70                	exec.it	#55     !
    1ad0:	3c40106f          	j	2e94 <__riscv_restore_0>
    1ad4:	43d8                	c.lw	a4,4(a5)
    1ad6:	00f41f63          	bne	s0,a5,1af4 <_malloc_r+0x9a>
    1ada:	c298                	c.sw	a4,0(a3)
    1adc:	00b40513          	addi	a0,s0,11
    1ae0:	00440793          	addi	a5,s0,4
    1ae4:	9961                	c.andi	a0,-8
    1ae6:	8420                	exec.it	#18     !
    1ae8:	d7e5                	c.beqz	a5,1ad0 <_malloc_r+0x76>
    1aea:	943e                	c.add	s0,a5
    1aec:	40f007b3          	neg	a5,a5
    1af0:	c01c                	c.sw	a5,0(s0)
    1af2:	bff9                	c.j	1ad0 <_malloc_r+0x76>
    1af4:	c058                	c.sw	a4,4(s0)
    1af6:	843e                	c.mv	s0,a5
    1af8:	b7d5                	c.j	1adc <_malloc_r+0x82>
    1afa:	843e                	c.mv	s0,a5
    1afc:	43dc                	c.lw	a5,4(a5)
    1afe:	bfbd                	c.j	1a7c <_malloc_r+0x22>

00001b00 <printf>:
    1b00:	7139                	c.addi16sp	sp,-64
    1b02:	d22e                	c.swsp	a1,36(sp)
    1b04:	104c                	c.addi4spn	a1,sp,36
    1b06:	ce06                	c.swsp	ra,28(sp)
    1b08:	d432                	c.swsp	a2,40(sp)
    1b0a:	d636                	c.swsp	a3,44(sp)
    1b0c:	d83a                	c.swsp	a4,48(sp)
    1b0e:	da3e                	c.swsp	a5,52(sp)
    1b10:	dc42                	c.swsp	a6,56(sp)
    1b12:	de46                	c.swsp	a7,60(sp)
    1b14:	c62e                	c.swsp	a1,12(sp)
    1b16:	20f9                	c.jal	1be4 <vprintf>
    1b18:	40f2                	c.lwsp	ra,28(sp)
    1b1a:	6121                	c.addi16sp	sp,64
    1b1c:	8082                	c.jr	ra

00001b1e <puts>:
    1b1e:	8004                	exec.it	#8     !
    1b20:	1101                	c.addi	sp,-32
    1b22:	c62a                	c.swsp	a0,12(sp)
    1b24:	2025                	c.jal	1b4c <strlen>
    1b26:	45b2                	c.lwsp	a1,12(sp)
    1b28:	862a                	c.mv	a2,a0
    1b2a:	4505                	c.li	a0,1
    1b2c:	8454                	exec.it	#43     !
    1b2e:	00054c63          	bltz	a0,1b46 <puts+0x28>
    1b32:	47a9                	c.li	a5,10
    1b34:	4605                	c.li	a2,1
    1b36:	01f10593          	addi	a1,sp,31
    1b3a:	4505                	c.li	a0,1
    1b3c:	00f10fa3          	sb	a5,31(sp)
    1b40:	8454                	exec.it	#43     !
    1b42:	6105                	c.addi16sp	sp,32
    1b44:	8014                	exec.it	#9     !
    1b46:	557d                	c.li	a0,-1
    1b48:	bfed                	c.j	1b42 <puts+0x24>
	...

00001b4c <strlen>:
    1b4c:	00357793          	andi	a5,a0,3
    1b50:	872a                	c.mv	a4,a0
    1b52:	e79d                	c.bnez	a5,1b80 <strlen+0x34>
    1b54:	0511                	c.addi	a0,4
    1b56:	ffc52783          	lw	a5,-4(a0)
    1b5a:	200787db          	ffb	a5,a5,zero
    1b5e:	dbfd                	c.beqz	a5,1b54 <strlen+0x8>
    1b60:	ffc54783          	lbu	a5,-4(a0)
    1b64:	40e50733          	sub	a4,a0,a4
    1b68:	ffd54683          	lbu	a3,-3(a0)
    1b6c:	ffe54603          	lbu	a2,-2(a0)
    1b70:	c795                	c.beqz	a5,1b9c <strlen+0x50>
    1b72:	c28d                	c.beqz	a3,1b94 <strlen+0x48>
    1b74:	ca05                	c.beqz	a2,1ba4 <strlen+0x58>
    1b76:	fff70513          	addi	a0,a4,-1
    1b7a:	8082                	c.jr	ra
    1b7c:	fc068ce3          	beqz	a3,1b54 <strlen+0x8>
    1b80:	00054783          	lbu	a5,0(a0)
    1b84:	0505                	c.addi	a0,1
    1b86:	00357693          	andi	a3,a0,3
    1b8a:	fbed                	c.bnez	a5,1b7c <strlen+0x30>
    1b8c:	8d19                	c.sub	a0,a4
    1b8e:	157d                	c.addi	a0,-1
    1b90:	00008067          	ret
    1b94:	ffd70513          	addi	a0,a4,-3
    1b98:	00008067          	ret
    1b9c:	ffc70513          	addi	a0,a4,-4
    1ba0:	00008067          	ret
    1ba4:	ffe70513          	addi	a0,a4,-2
    1ba8:	8082                	c.jr	ra
    1baa:	0001                	c.nop

00001bac <__vprintf_help>:
    1bac:	2c4012ef          	jal	t0,2e70 <__riscv_save_0>
    1bb0:	cfffa7ab          	lwgp	a5,-772 # 804fc <__printf_count>
    1bb4:	0785                	c.addi	a5,1
    1bb6:	ceffcfab          	swgp	a5,-772 # 804fc <__printf_count>
    1bba:	cf5f940b          	addigp	s0,-780 # 804f4 <__vprintf_buf_len>
    1bbe:	cf3fa5ab          	lwgp	a1,-784 # 804f0 <__vprintf_buf>
    1bc2:	401c                	c.lw	a5,0(s0)
    1bc4:	00178713          	addi	a4,a5,1
    1bc8:	97ae                	c.add	a5,a1
    1bca:	c018                	c.sw	a4,0(s0)
    1bcc:	00a78023          	sb	a0,0(a5)
    1bd0:	4007685b          	bnec	a4,64,1be0 <__vprintf_help+0x34>
    1bd4:	04000613          	li	a2,64
    1bd8:	4505                	c.li	a0,1
    1bda:	8454                	exec.it	#43     !
    1bdc:	00042023          	sw	zero,0(s0)
    1be0:	2b40106f          	j	2e94 <__riscv_restore_0>

00001be4 <vprintf>:
    1be4:	1141                	c.addi	sp,-16
    1be6:	c606                	c.swsp	ra,12(sp)
    1be8:	c422                	c.swsp	s0,8(sp)
    1bea:	c226                	c.swsp	s1,4(sp)
    1bec:	c04a                	c.swsp	s2,0(sp)
    1bee:	0800                	c.addi4spn	s0,sp,16
    1bf0:	715d                	c.addi16sp	sp,-80
    1bf2:	00f10793          	addi	a5,sp,15
    1bf6:	00002637          	lui	a2,0x2
    1bfa:	9bc1                	c.andi	a5,-16
    1bfc:	cf1f948b          	addigp	s1,-784 # 804f0 <__vprintf_buf>
    1c00:	cf5f990b          	addigp	s2,-780 # 804f4 <__vprintf_buf_len>
    1c04:	bac60613          	addi	a2,a2,-1108 # 1bac <__vprintf_help>
    1c08:	c09c                	c.sw	a5,0(s1)
    1c0a:	00092023          	sw	zero,0(s2)
    1c0e:	20a5                	c.jal	1c76 <__printf_impl>
    1c10:	00092603          	lw	a2,0(s2)
    1c14:	408c                	c.lw	a1,0(s1)
    1c16:	4505                	c.li	a0,1
    1c18:	8454                	exec.it	#43     !
    1c1a:	cfffa52b          	lwgp	a0,-772 # 804fc <__printf_count>
    1c1e:	ff040113          	addi	sp,s0,-16
    1c22:	40b2                	c.lwsp	ra,12(sp)
    1c24:	4422                	c.lwsp	s0,8(sp)
    1c26:	4492                	c.lwsp	s1,4(sp)
    1c28:	4902                	c.lwsp	s2,0(sp)
    1c2a:	0141                	c.addi	sp,16
    1c2c:	8082                	c.jr	ra

00001c2e <__print_integral>:
    1c2e:	242012ef          	jal	t0,2e70 <__riscv_save_0>
    1c32:	1101                	c.addi	sp,-32
    1c34:	842a                	c.mv	s0,a0
    1c36:	84ae                	c.mv	s1,a1
    1c38:	8932                	c.mv	s2,a2
    1c3a:	c636                	c.swsp	a3,12(sp)
    1c3c:	85be                	c.mv	a1,a5
    1c3e:	ca32                	c.swsp	a2,20(sp)
    1c40:	853a                	c.mv	a0,a4
    1c42:	0830                	c.addi4spn	a2,sp,24
    1c44:	219d                	c.jal	20aa <__int_to_poly>
    1c46:	46b2                	c.lwsp	a3,12(sp)
    1c48:	882a                	c.mv	a6,a0
    1c4a:	083c                	c.addi4spn	a5,sp,24
    1c4c:	0858                	c.addi4spn	a4,sp,20
    1c4e:	864a                	c.mv	a2,s2
    1c50:	85a6                	c.mv	a1,s1
    1c52:	8522                	c.mv	a0,s0
    1c54:	2995                	c.jal	20c8 <__print_integral_poly>
    1c56:	c55f978b          	addigp	a5,-940 # 80454 <__digits>
    1c5a:	00a46563          	bltu	s0,a0,1c64 <__print_integral+0x36>
    1c5e:	6105                	c.addi16sp	sp,32
    1c60:	2340106f          	j	2e94 <__riscv_restore_0>
    1c64:	00044703          	lbu	a4,0(s0)
    1c68:	0405                	c.addi	s0,1
    1c6a:	973e                	c.add	a4,a5
    1c6c:	00070703          	lb	a4,0(a4)
    1c70:	fee40fa3          	sb	a4,-1(s0)
    1c74:	b7dd                	c.j	1c5a <__print_integral+0x2c>

00001c76 <__printf_impl>:
    1c76:	8a10                	exec.it	#69     !
    1c78:	a6010113          	addi	sp,sp,-1440
    1c7c:	6b05                	c.lui	s6,0x1
    1c7e:	892a                	c.mv	s2,a0
    1c80:	842e                	c.mv	s0,a1
    1c82:	89b2                	c.mv	s3,a2
    1c84:	01c10a13          	addi	s4,sp,28
    1c88:	800b0b13          	addi	s6,s6,-2048 # 800 <pm_sleep_start+0x118>
    1c8c:	ce0fcfab          	swgp	zero,-772 # 804fc <__printf_count>
    1c90:	c456                	c.swsp	s5,8(sp)
    1c92:	00094503          	lbu	a0,0(s2)
    1c96:	e501                	c.bnez	a0,1c9e <__printf_impl+0x28>
    1c98:	5a010113          	addi	sp,sp,1440
    1c9c:	8214                	exec.it	#73     !
    1c9e:	00190493          	addi	s1,s2,1
    1ca2:	005555db          	beqc	a0,37,1cac <__printf_impl+0x36>
    1ca6:	9982                	c.jalr	s3
    1ca8:	8926                	c.mv	s2,s1
    1caa:	b7e5                	c.j	1c92 <__printf_impl+0x1c>
    1cac:	00194783          	lbu	a5,1(s2)
    1cb0:	0057e8db          	bnec	a5,37,1cc0 <__printf_impl+0x4a>
    1cb4:	02500513          	li	a0,37
    1cb8:	9982                	c.jalr	s3
    1cba:	00290493          	addi	s1,s2,2
    1cbe:	b7ed                	c.j	1ca8 <__printf_impl+0x32>
    1cc0:	4681                	c.li	a3,0
    1cc2:	4701                	c.li	a4,0
    1cc4:	d002                	c.swsp	zero,32(sp)
    1cc6:	8c30                	exec.it	#23     !
    1cc8:	0007e7db          	bnec	a5,32,1cd6 <__printf_impl+0x60>
    1ccc:	00276713          	ori	a4,a4,2
    1cd0:	0485                	c.addi	s1,1
    1cd2:	4685                	c.li	a3,1
    1cd4:	bfcd                	c.j	1cc6 <__printf_impl+0x50>
    1cd6:	00d7e5db          	bnec	a5,45,1ce0 <__printf_impl+0x6a>
    1cda:	00476713          	ori	a4,a4,4
    1cde:	bfcd                	c.j	1cd0 <__printf_impl+0x5a>
    1ce0:	00b7e5db          	bnec	a5,43,1cea <__printf_impl+0x74>
    1ce4:	00876713          	ori	a4,a4,8
    1ce8:	b7e5                	c.j	1cd0 <__printf_impl+0x5a>
    1cea:	0037e4db          	bnec	a5,35,1cf2 <__printf_impl+0x7c>
    1cee:	8204                	exec.it	#72     !
    1cf0:	b7c5                	c.j	1cd0 <__printf_impl+0x5a>
    1cf2:	0107e5db          	bnec	a5,48,1cfc <__printf_impl+0x86>
    1cf6:	02076713          	ori	a4,a4,32
    1cfa:	bfd9                	c.j	1cd0 <__printf_impl+0x5a>
    1cfc:	c291                	c.beqz	a3,1d00 <__printf_impl+0x8a>
    1cfe:	d03a                	c.swsp	a4,32(sp)
    1d00:	04a7e7db          	bnec	a5,42,1d4e <__printf_impl+0xd8>
    1d04:	00042c03          	lw	s8,0(s0)
    1d08:	00440713          	addi	a4,s0,4
    1d0c:	000c5863          	bgez	s8,1d1c <__printf_impl+0xa6>
    1d10:	5782                	c.lwsp	a5,32(sp)
    1d12:	41800c33          	neg	s8,s8
    1d16:	0047e793          	ori	a5,a5,4
    1d1a:	d03e                	c.swsp	a5,32(sp)
    1d1c:	0485                	c.addi	s1,1
    1d1e:	843a                	c.mv	s0,a4
    1d20:	8c30                	exec.it	#23     !
    1d22:	5cfd                	c.li	s9,-1
    1d24:	04e7eedb          	bnec	a5,46,1d80 <__printf_impl+0x10a>
    1d28:	0014c783          	lbu	a5,1(s1)
    1d2c:	04a7d5db          	beqc	a5,42,1d76 <__printf_impl+0x100>
    1d30:	0485                	c.addi	s1,1
    1d32:	4c81                	c.li	s9,0
    1d34:	4725                	c.li	a4,9
    1d36:	4629                	c.li	a2,10
    1d38:	8c30                	exec.it	#23     !
    1d3a:	8864                	exec.it	#60     !
    1d3c:	0ff7f693          	andi	a3,a5,255
    1d40:	04d76063          	bltu	a4,a3,1d80 <__printf_impl+0x10a>
    1d44:	c4cc97ff          	maddr32	a5,s9,a2
    1d48:	0485                	c.addi	s1,1
    1d4a:	8cbe                	c.mv	s9,a5
    1d4c:	b7f5                	c.j	1d38 <__printf_impl+0xc2>
    1d4e:	8864                	exec.it	#60     !
    1d50:	8000                	exec.it	#0     !
    1d52:	4725                	c.li	a4,9
    1d54:	4c01                	c.li	s8,0
    1d56:	fcf765e3          	bltu	a4,a5,1d20 <__printf_impl+0xaa>
    1d5a:	4725                	c.li	a4,9
    1d5c:	4629                	c.li	a2,10
    1d5e:	a029                	c.j	1d68 <__printf_impl+0xf2>
    1d60:	c4cc17ff          	maddr32	a5,s8,a2
    1d64:	0485                	c.addi	s1,1
    1d66:	8c3e                	c.mv	s8,a5
    1d68:	8c30                	exec.it	#23     !
    1d6a:	8864                	exec.it	#60     !
    1d6c:	0ff7f693          	andi	a3,a5,255
    1d70:	fed778e3          	bgeu	a4,a3,1d60 <__printf_impl+0xea>
    1d74:	b775                	c.j	1d20 <__printf_impl+0xaa>
    1d76:	401c                	c.lw	a5,0(s0)
    1d78:	0489                	c.addi	s1,2
    1d7a:	0411                	c.addi	s0,4
    1d7c:	f2fc8cff          	maxw	s9,s9,a5
    1d80:	43200613          	li	a2,1074
    1d84:	f0cc867f          	minw	a2,s9,a2
    1d88:	8c30                	exec.it	#23     !
    1d8a:	4487eedb          	bnec	a5,104,1de6 <__printf_impl+0x170>
    1d8e:	5782                	c.lwsp	a5,32(sp)
    1d90:	0014c703          	lbu	a4,1(s1)
    1d94:	448763db          	bnec	a4,104,1dda <__printf_impl+0x164>
    1d98:	0407e793          	ori	a5,a5,64
    1d9c:	00248913          	addi	s2,s1,2
    1da0:	d03e                	c.swsp	a5,32(sp)
    1da2:	00094503          	lbu	a0,0(s2)
    1da6:	06700793          	li	a5,103
    1daa:	0aa7e063          	bltu	a5,a0,1e4a <__printf_impl+0x1d4>
    1dae:	8470                	exec.it	#51     !
    1db0:	06f57d63          	bgeu	a0,a5,1e2a <__printf_impl+0x1b4>
    1db4:	05800793          	li	a5,88
    1db8:	5785515b          	beqc	a0,88,1f1a <__printf_impl+0x2a4>
    1dbc:	04a7ef63          	bltu	a5,a0,1e1a <__printf_impl+0x1a4>
    1dc0:	04100793          	li	a5,65
    1dc4:	4615535b          	beqc	a0,65,1e2a <__printf_impl+0x1b4>
    1dc8:	00f56763          	bltu	a0,a5,1dd6 <__printf_impl+0x160>
    1dcc:	fbb50793          	addi	a5,a0,-69
    1dd0:	4709                	c.li	a4,2
    1dd2:	04f77c63          	bgeu	a4,a5,1e2a <__printf_impl+0x1b4>
    1dd6:	84a2                	c.mv	s1,s0
    1dd8:	a41d                	c.j	1ffe <__printf_impl+0x388>
    1dda:	0807e793          	ori	a5,a5,128
    1dde:	d03e                	c.swsp	a5,32(sp)
    1de0:	00148913          	addi	s2,s1,1
    1de4:	bf7d                	c.j	1da2 <__printf_impl+0x12c>
    1de6:	40c7eddb          	bnec	a5,108,1e00 <__printf_impl+0x18a>
    1dea:	5782                	c.lwsp	a5,32(sp)
    1dec:	0014c703          	lbu	a4,1(s1)
    1df0:	40c765db          	bnec	a4,108,1dfa <__printf_impl+0x184>
    1df4:	2007e793          	ori	a5,a5,512
    1df8:	b755                	c.j	1d9c <__printf_impl+0x126>
    1dfa:	1007e793          	ori	a5,a5,256
    1dfe:	b7c5                	c.j	1dde <__printf_impl+0x168>
    1e00:	00148913          	addi	s2,s1,1
    1e04:	41a7e7db          	bnec	a5,122,1e12 <__printf_impl+0x19c>
    1e08:	5782                	c.lwsp	a5,32(sp)
    1e0a:	1007e793          	ori	a5,a5,256
    1e0e:	d03e                	c.swsp	a5,32(sp)
    1e10:	bf49                	c.j	1da2 <__printf_impl+0x12c>
    1e12:	ff47dbdb          	beqc	a5,116,1e08 <__printf_impl+0x192>
    1e16:	8926                	c.mv	s2,s1
    1e18:	b769                	c.j	1da2 <__printf_impl+0x12c>
    1e1a:	06300793          	li	a5,99
    1e1e:	503557db          	beqc	a0,99,1f2c <__printf_impl+0x2b6>
    1e22:	04a7e363          	bltu	a5,a0,1e68 <__printf_impl+0x1f2>
    1e26:	fa1568db          	bnec	a0,97,1dd6 <__printf_impl+0x160>
    1e2a:	041d                	c.addi	s0,7
    1e2c:	9861                	c.andi	s0,-8
    1e2e:	00042803          	lw	a6,0(s0)
    1e32:	00442883          	lw	a7,4(s0)
    1e36:	02057b93          	andi	s7,a0,32
    1e3a:	87aa                	c.mv	a5,a0
    1e3c:	86c2                	c.mv	a3,a6
    1e3e:	8746                	c.mv	a4,a7
    1e40:	100c                	c.addi4spn	a1,sp,32
    1e42:	1048                	c.addi4spn	a0,sp,36
    1e44:	8604                	exec.it	#74     !
    1e46:	2e11                	c.jal	215a <__printf_float_impl>
    1e48:	aa69                	c.j	1fe2 <__printf_impl+0x36c>
    1e4a:	07000793          	li	a5,112
    1e4e:	4d0556db          	beqc	a0,112,1f1a <__printf_impl+0x2a4>
    1e52:	02a7ef63          	bltu	a5,a0,1e90 <__printf_impl+0x21a>
    1e56:	06e00793          	li	a5,110
    1e5a:	58e558db          	beqc	a0,110,1fea <__printf_impl+0x374>
    1e5e:	45a1                	c.li	a1,8
    1e60:	0aa7ee63          	bltu	a5,a0,1f1c <__printf_impl+0x2a6>
    1e64:	f69569db          	bnec	a0,105,1dd6 <__printf_impl+0x160>
    1e68:	5682                	c.lwsp	a3,32(sp)
    1e6a:	0c66fb5b          	bbc	a3,6,1f40 <__printf_impl+0x2ca>
    1e6e:	00040703          	lb	a4,0(s0)
    1e72:	8414                	exec.it	#11     !
    1e74:	8474                	exec.it	#59     !
    1e76:	0e07d963          	bgez	a5,1f68 <__printf_impl+0x2f2>
    1e7a:	40e00733          	neg	a4,a4
    1e7e:	00e035b3          	snez	a1,a4
    1e82:	40f007b3          	neg	a5,a5
    1e86:	8f8d                	c.sub	a5,a1
    1e88:	4006e693          	ori	a3,a3,1024
    1e8c:	d036                	c.swsp	a3,32(sp)
    1e8e:	a8e9                	c.j	1f68 <__printf_impl+0x2f2>
    1e90:	4f555ddb          	beqc	a0,117,1f8a <__printf_impl+0x314>
    1e94:	498553db          	beqc	a0,120,1f1a <__printf_impl+0x2a4>
    1e98:	f3356fdb          	bnec	a0,115,1dd6 <__printf_impl+0x160>
    1e9c:	00042a83          	lw	s5,0(s0)
    1ea0:	85b2                	c.mv	a1,a2
    1ea2:	8556                	c.mv	a0,s5
    1ea4:	c632                	c.swsp	a2,12(sp)
    1ea6:	2f01                	c.jal	25b6 <strnlen>
    1ea8:	57fd                	c.li	a5,-1
    1eaa:	8414                	exec.it	#11     !
    1eac:	00fc8563          	beq	s9,a5,1eb6 <__printf_impl+0x240>
    1eb0:	4632                	c.lwsp	a2,12(sp)
    1eb2:	f0c5057f          	minw	a0,a0,a2
    1eb6:	00aa8433          	add	s0,s5,a0
    1eba:	4b81                	c.li	s7,0
    1ebc:	5782                	c.lwsp	a5,32(sp)
    1ebe:	02d00693          	li	a3,45
    1ec2:	40a7fb5b          	bbs	a5,10,1ed8 <__printf_impl+0x262>
    1ec6:	02b00693          	li	a3,43
    1eca:	4037f75b          	bbs	a5,3,1ed8 <__printf_impl+0x262>
    1ece:	8cd2                	c.mv	s9,s4
    1ed0:	0017f85b          	bbc	a5,1,1ee0 <__printf_impl+0x26a>
    1ed4:	02000693          	li	a3,32
    1ed8:	01d10c93          	addi	s9,sp,29
    1edc:	00d10e23          	sb	a3,28(sp)
    1ee0:	0167f6b3          	and	a3,a5,s6
    1ee4:	ca91                	c.beqz	a3,1ef8 <__printf_impl+0x282>
    1ee6:	03000693          	li	a3,48
    1eea:	00dc8023          	sb	a3,0(s9) # 80000000 <_DATA_LMA_START+0x5fffcd48>
    1eee:	05800693          	li	a3,88
    1ef2:	00dc80a3          	sb	a3,1(s9)
    1ef6:	0c89                	c.addi	s9,2
    1ef8:	5427f95b          	bbs	a5,2,204a <__printf_impl+0x3d4>
    1efc:	41540db3          	sub	s11,s0,s5
    1f00:	4057fa5b          	bbs	a5,5,1f14 <__printf_impl+0x29e>
    1f04:	41bc0d33          	sub	s10,s8,s11
    1f08:	414c87b3          	sub	a5,s9,s4
    1f0c:	40fd0d33          	sub	s10,s10,a5
    1f10:	15a04b63          	bgtz	s10,2066 <__printf_impl+0x3f0>
    1f14:	8d52                	c.mv	s10,s4
    1f16:	9c52                	c.add	s8,s4
    1f18:	a28d                	c.j	207a <__printf_impl+0x404>
    1f1a:	45c1                	c.li	a1,16
    1f1c:	5782                	c.lwsp	a5,32(sp)
    1f1e:	0667f85b          	bbc	a5,6,1f8e <__printf_impl+0x318>
    1f22:	00044703          	lbu	a4,0(s0)
    1f26:	8414                	exec.it	#11     !
    1f28:	4781                	c.li	a5,0
    1f2a:	a059                	c.j	1fb0 <__printf_impl+0x33a>
    1f2c:	401c                	c.lw	a5,0(s0)
    1f2e:	8414                	exec.it	#11     !
    1f30:	4b81                	c.li	s7,0
    1f32:	02510413          	addi	s0,sp,37
    1f36:	02f10223          	sb	a5,36(sp)
    1f3a:	02410a93          	addi	s5,sp,36
    1f3e:	bfbd                	c.j	1ebc <__printf_impl+0x246>
    1f40:	0076f65b          	bbc	a3,7,1f4c <__printf_impl+0x2d6>
    1f44:	8414                	exec.it	#11     !
    1f46:	00041703          	lh	a4,0(s0)
    1f4a:	b72d                	c.j	1e74 <__printf_impl+0x1fe>
    1f4c:	0086f55b          	bbc	a3,8,1f56 <__printf_impl+0x2e0>
    1f50:	8414                	exec.it	#11     !
    1f52:	4018                	c.lw	a4,0(s0)
    1f54:	b705                	c.j	1e74 <__printf_impl+0x1fe>
    1f56:	be96fd5b          	bbc	a3,9,1f50 <__printf_impl+0x2da>
    1f5a:	041d                	c.addi	s0,7
    1f5c:	9861                	c.andi	s0,-8
    1f5e:	405c                	c.lw	a5,4(s0)
    1f60:	8604                	exec.it	#74     !
    1f62:	4018                	c.lw	a4,0(s0)
    1f64:	0007c963          	bltz	a5,1f76 <__printf_impl+0x300>
    1f68:	56fd                	c.li	a3,-1
    1f6a:	45a9                	c.li	a1,10
    1f6c:	4b81                	c.li	s7,0
    1f6e:	04dc9663          	bne	s9,a3,1fba <__printf_impl+0x344>
    1f72:	4605                	c.li	a2,1
    1f74:	a095                	c.j	1fd8 <__printf_impl+0x362>
    1f76:	f00712e3          	bnez	a4,1e7a <__printf_impl+0x204>
    1f7a:	800005b7          	lui	a1,0x80000
    1f7e:	eeb79ee3          	bne	a5,a1,1e7a <__printf_impl+0x204>
    1f82:	4701                	c.li	a4,0
    1f84:	800007b7          	lui	a5,0x80000
    1f88:	b701                	c.j	1e88 <__printf_impl+0x212>
    1f8a:	45a9                	c.li	a1,10
    1f8c:	bf41                	c.j	1f1c <__printf_impl+0x2a6>
    1f8e:	0077f55b          	bbc	a5,7,1f98 <__printf_impl+0x322>
    1f92:	8414                	exec.it	#11     !
    1f94:	8e10                	exec.it	#71     !
    1f96:	bf49                	c.j	1f28 <__printf_impl+0x2b2>
    1f98:	0087f55b          	bbc	a5,8,1fa2 <__printf_impl+0x32c>
    1f9c:	8414                	exec.it	#11     !
    1f9e:	4018                	c.lw	a4,0(s0)
    1fa0:	b761                	c.j	1f28 <__printf_impl+0x2b2>
    1fa2:	be97fd5b          	bbc	a5,9,1f9c <__printf_impl+0x326>
    1fa6:	041d                	c.addi	s0,7
    1fa8:	9861                	c.andi	s0,-8
    1faa:	4018                	c.lw	a4,0(s0)
    1fac:	405c                	c.lw	a5,4(s0)
    1fae:	8604                	exec.it	#74     !
    1fb0:	56fd                	c.li	a3,-1
    1fb2:	02057b93          	andi	s7,a0,32
    1fb6:	02dc8863          	beq	s9,a3,1fe6 <__printf_impl+0x370>
    1fba:	5682                	c.lwsp	a3,32(sp)
    1fbc:	fdf6f693          	andi	a3,a3,-33
    1fc0:	d036                	c.swsp	a3,32(sp)
    1fc2:	0105eb5b          	bnec	a1,16,1fd8 <__printf_impl+0x362>
    1fc6:	5682                	c.lwsp	a3,32(sp)
    1fc8:	0046f85b          	bbc	a3,4,1fd8 <__printf_impl+0x362>
    1fcc:	00f76533          	or	a0,a4,a5
    1fd0:	c501                	c.beqz	a0,1fd8 <__printf_impl+0x362>
    1fd2:	0166e6b3          	or	a3,a3,s6
    1fd6:	d036                	c.swsp	a3,32(sp)
    1fd8:	86b2                	c.mv	a3,a2
    1fda:	5602                	c.lwsp	a2,32(sp)
    1fdc:	1048                	c.addi4spn	a0,sp,36
    1fde:	c51ff0ef          	jal	ra,1c2e <__print_integral>
    1fe2:	842a                	c.mv	s0,a0
    1fe4:	bf99                	c.j	1f3a <__printf_impl+0x2c4>
    1fe6:	4605                	c.li	a2,1
    1fe8:	bfe9                	c.j	1fc2 <__printf_impl+0x34c>
    1fea:	45a2                	c.lwsp	a1,8(sp)
    1fec:	5682                	c.lwsp	a3,32(sp)
    1fee:	8414                	exec.it	#11     !
    1ff0:	cfffa7ab          	lwgp	a5,-772 # 804fc <__printf_count>
    1ff4:	4018                	c.lw	a4,0(s0)
    1ff6:	0066f85b          	bbc	a3,6,2006 <__printf_impl+0x390>
    1ffa:	00f70023          	sb	a5,0(a4)
    1ffe:	1040                	c.addi4spn	s0,sp,36
    2000:	4b81                	c.li	s7,0
    2002:	8aa2                	c.mv	s5,s0
    2004:	bd65                	c.j	1ebc <__printf_impl+0x246>
    2006:	0076f55b          	bbc	a3,7,2010 <__printf_impl+0x39a>
    200a:	00f71023          	sh	a5,0(a4)
    200e:	bfc5                	c.j	1ffe <__printf_impl+0x388>
    2010:	c31c                	c.sw	a5,0(a4)
    2012:	fe86f65b          	bbs	a3,8,1ffe <__printf_impl+0x388>
    2016:	be96f45b          	bbc	a3,9,1ffe <__printf_impl+0x388>
    201a:	87fd                	c.srai	a5,0x1f
    201c:	c35c                	c.sw	a5,4(a4)
    201e:	b7c5                	c.j	1ffe <__printf_impl+0x388>
    2020:	000dc503          	lbu	a0,0(s11)
    2024:	0d85                	c.addi	s11,1
    2026:	8854                	exec.it	#45     !
    2028:	9982                	c.jalr	s3
    202a:	41bc0d33          	sub	s10,s8,s11
    202e:	ff9de9e3          	bltu	s11,s9,2020 <__printf_impl+0x3aa>
    2032:	8c56                	c.mv	s8,s5
    2034:	01841e63          	bne	s0,s8,2050 <__printf_impl+0x3da>
    2038:	41540433          	sub	s0,s0,s5
    203c:	408d0433          	sub	s0,s10,s0
    2040:	00804e63          	bgtz	s0,205c <__printf_impl+0x3e6>
    2044:	0905                	c.addi	s2,1
    2046:	8426                	c.mv	s0,s1
    2048:	b1a9                	c.j	1c92 <__printf_impl+0x1c>
    204a:	8dd2                	c.mv	s11,s4
    204c:	9c52                	c.add	s8,s4
    204e:	bff1                	c.j	202a <__printf_impl+0x3b4>
    2050:	000c4503          	lbu	a0,0(s8)
    2054:	0c05                	c.addi	s8,1
    2056:	8854                	exec.it	#45     !
    2058:	9982                	c.jalr	s3
    205a:	bfe9                	c.j	2034 <__printf_impl+0x3be>
    205c:	02000513          	li	a0,32
    2060:	9982                	c.jalr	s3
    2062:	147d                	c.addi	s0,-1
    2064:	bff1                	c.j	2040 <__printf_impl+0x3ca>
    2066:	02000513          	li	a0,32
    206a:	9982                	c.jalr	s3
    206c:	1d7d                	c.addi	s10,-1
    206e:	b54d                	c.j	1f10 <__printf_impl+0x29a>
    2070:	000d4503          	lbu	a0,0(s10)
    2074:	0d05                	c.addi	s10,1
    2076:	8854                	exec.it	#45     !
    2078:	9982                	c.jalr	s3
    207a:	41ac07b3          	sub	a5,s8,s10
    207e:	ff9d69e3          	bltu	s10,s9,2070 <__printf_impl+0x3fa>
    2082:	5682                	c.lwsp	a3,32(sp)
    2084:	0056f65b          	bbc	a3,5,2090 <__printf_impl+0x41a>
    2088:	41b78db3          	sub	s11,a5,s11
    208c:	01b04a63          	bgtz	s11,20a0 <__printf_impl+0x42a>
    2090:	fb540ae3          	beq	s0,s5,2044 <__printf_impl+0x3ce>
    2094:	000ac503          	lbu	a0,0(s5)
    2098:	0a85                	c.addi	s5,1
    209a:	8854                	exec.it	#45     !
    209c:	9982                	c.jalr	s3
    209e:	bfcd                	c.j	2090 <__printf_impl+0x41a>
    20a0:	03000513          	li	a0,48
    20a4:	9982                	c.jalr	s3
    20a6:	1dfd                	c.addi	s11,-1
    20a8:	b7d5                	c.j	208c <__printf_impl+0x416>

000020aa <__int_to_poly>:
    20aa:	872a                	c.mv	a4,a0
    20ac:	87ae                	c.mv	a5,a1
    20ae:	4501                	c.li	a0,0
    20b0:	00f766b3          	or	a3,a4,a5
    20b4:	e291                	c.bnez	a3,20b8 <__int_to_poly+0xe>
    20b6:	8082                	c.jr	ra
    20b8:	00e61023          	sh	a4,0(a2)
    20bc:	0505                	c.addi	a0,1
    20be:	df07077f          	wexti	a4,a4,16
    20c2:	0609                	c.addi	a2,2
    20c4:	83c1                	c.srli	a5,0x10
    20c6:	b7ed                	c.j	20b0 <__int_to_poly+0x6>

000020c8 <__print_integral_poly>:
    20c8:	5a9002ef          	jal	t0,2e70 <__riscv_save_0>
    20cc:	88c2                	c.mv	a7,a6
    20ce:	84ba                	c.mv	s1,a4
    20d0:	187d                	c.addi	a6,-1
    20d2:	0b17875b          	lea.h	a4,a5,a7
    20d6:	8342                	c.mv	t1,a6
    20d8:	4401                	c.li	s0,0
    20da:	8e3a                	c.mv	t3,a4
    20dc:	1779                	c.addi	a4,-2
    20de:	02035563          	bgez	t1,2108 <__print_integral_poly+0x40>
    20e2:	05105163          	blez	a7,2124 <__print_integral_poly+0x5c>
    20e6:	ffee5703          	lhu	a4,-2(t3)
    20ea:	eb1d                	c.bnez	a4,2120 <__print_integral_poly+0x58>
    20ec:	03005c63          	blez	a6,2124 <__print_integral_poly+0x5c>
    20f0:	8726                	c.mv	a4,s1
    20f2:	16fd                	c.addi	a3,-1
    20f4:	3fd1                	c.jal	20c8 <__print_integral_poly>
    20f6:	87aa                	c.mv	a5,a0
    20f8:	0505                	c.addi	a0,1
    20fa:	00878023          	sb	s0,0(a5) # 80000000 <_DATA_LMA_START+0x5fffcd48>
    20fe:	409c                	c.lw	a5,0(s1)
    2100:	0785                	c.addi	a5,1
    2102:	c09c                	c.sw	a5,0(s1)
    2104:	5910006f          	j	2e94 <__riscv_restore_0>
    2108:	00075e83          	lhu	t4,0(a4)
    210c:	0442                	c.slli	s0,0x10
    210e:	9476                	c.add	s0,t4
    2110:	02b45eb3          	divu	t4,s0,a1
    2114:	137d                	c.addi	t1,-1
    2116:	02b47433          	remu	s0,s0,a1
    211a:	01d71023          	sh	t4,0(a4)
    211e:	bf7d                	c.j	20dc <__print_integral_poly+0x14>
    2120:	8846                	c.mv	a6,a7
    2122:	b7f9                	c.j	20f0 <__print_integral_poly+0x28>
    2124:	c011                	c.beqz	s0,2128 <__print_integral_poly+0x60>
    2126:	16fd                	c.addi	a3,-1
    2128:	00d04763          	bgtz	a3,2136 <__print_integral_poly+0x6e>
    212c:	0085ee5b          	bnec	a1,8,2148 <__print_integral_poly+0x80>
    2130:	00467c5b          	bbc	a2,4,2148 <__print_integral_poly+0x80>
    2134:	4685                	c.li	a3,1
    2136:	87aa                	c.mv	a5,a0
    2138:	40a78733          	sub	a4,a5,a0
    213c:	00d74b63          	blt	a4,a3,2152 <__print_integral_poly+0x8a>
    2140:	4781                	c.li	a5,0
    2142:	f2f686ff          	maxw	a3,a3,a5
    2146:	9536                	c.add	a0,a3
    2148:	d85d                	c.beqz	s0,20fe <__print_integral_poly+0x36>
    214a:	00850023          	sb	s0,0(a0)
    214e:	0505                	c.addi	a0,1
    2150:	b77d                	c.j	20fe <__print_integral_poly+0x36>
    2152:	0785                	c.addi	a5,1
    2154:	fe078fa3          	sb	zero,-1(a5)
    2158:	b7c5                	c.j	2138 <__print_integral_poly+0x70>

0000215a <__printf_float_impl>:
    215a:	8a10                	exec.it	#69     !
    215c:	0df7fc13          	andi	s8,a5,223
    2160:	8b2a                	c.mv	s6,a0
    2162:	892e                	c.mv	s2,a1
    2164:	7169                	c.addi16sp	sp,-304
    2166:	84b2                	c.mv	s1,a2
    2168:	8536                	c.mv	a0,a3
    216a:	85ba                	c.mv	a1,a4
    216c:	8a3e                	c.mv	s4,a5
    216e:	467c665b          	bnec	s8,71,21da <__printf_float_impl+0x80>
    2172:	00092983          	lw	s3,0(s2)
    2176:	0109c993          	xori	s3,s3,16
    217a:	1049a9db          	bfoz	s3,s3,4,4
    217e:	0604d463          	bgez	s1,21e6 <__printf_float_impl+0x8c>
    2182:	4499                	c.li	s1,6
    2184:	401c635b          	bnec	s8,65,218a <__printf_float_impl+0x30>
    2188:	44b5                	c.li	s1,13
    218a:	dff5047f          	wexti	s0,a0,31
    218e:	8055                	c.srli	s0,0x15
    2190:	8aaa                	c.mv	s5,a0
    2192:	4c05ad5b          	bfoz	s10,a1,19,0
    2196:	0005d663          	bgez	a1,21a2 <__printf_float_impl+0x48>
    219a:	8850                	exec.it	#37     !
    219c:	4007e793          	ori	a5,a5,1024
    21a0:	8220                	exec.it	#80     !
    21a2:	401c685b          	bnec	s8,65,21b2 <__printf_float_impl+0x58>
    21a6:	8850                	exec.it	#37     !
    21a8:	6705                	c.lui	a4,0x1
    21aa:	80070713          	addi	a4,a4,-2048 # 800 <pm_sleep_start+0x118>
    21ae:	8fd9                	c.or	a5,a4
    21b0:	8220                	exec.it	#80     !
    21b2:	7ff00793          	li	a5,2047
    21b6:	04f41263          	bne	s0,a5,21fa <__printf_float_impl+0xa0>
    21ba:	8850                	exec.it	#37     !
    21bc:	00ad66b3          	or	a3,s10,a0
    21c0:	fdf7f793          	andi	a5,a5,-33
    21c4:	8220                	exec.it	#80     !
    21c6:	c695                	c.beqz	a3,21f2 <__printf_float_impl+0x98>
    21c8:	000805b7          	lui	a1,0x80
    21cc:	46458593          	addi	a1,a1,1124 # 80464 <__digits+0x10>
    21d0:	855a                	c.mv	a0,s6
    21d2:	26ad                	c.jal	253c <strcpy>
    21d4:	050d                	c.addi	a0,3
    21d6:	6155                	c.addi16sp	sp,304
    21d8:	8214                	exec.it	#73     !
    21da:	4981                	c.li	s3,0
    21dc:	fa1c615b          	bnec	s8,65,217e <__printf_float_impl+0x24>
    21e0:	01f65993          	srli	s3,a2,0x1f
    21e4:	bf69                	c.j	217e <__printf_float_impl+0x24>
    21e6:	f0d5                	c.bnez	s1,218a <__printf_float_impl+0x30>
    21e8:	fb9c0493          	addi	s1,s8,-71
    21ec:	0014b493          	seqz	s1,s1
    21f0:	bf69                	c.j	218a <__printf_float_impl+0x30>
    21f2:	8e14                	exec.it	#79     !
    21f4:	46858593          	addi	a1,a1,1128
    21f8:	bfe1                	c.j	21d0 <__printf_float_impl+0x76>
    21fa:	e811                	c.bnez	s0,220e <__printf_float_impl+0xb4>
    21fc:	00ad66b3          	or	a3,s10,a0
    2200:	c0300413          	li	s0,-1021
    2204:	18069063          	bnez	a3,2384 <__printf_float_impl+0x22a>
    2208:	03500413          	li	s0,53
    220c:	a829                	c.j	2226 <__printf_float_impl+0xcc>
    220e:	00100db7          	lui	s11,0x100
    2212:	01adedb3          	or	s11,s11,s10
    2216:	c0240413          	addi	s0,s0,-1022
    221a:	03400793          	li	a5,52
    221e:	8aaa                	c.mv	s5,a0
    2220:	8d6e                	c.mv	s10,s11
    2222:	1487df63          	bge	a5,s0,2380 <__printf_float_impl+0x226>
    2226:	fcb40413          	addi	s0,s0,-53
    222a:	00445b93          	srli	s7,s0,0x4
    222e:	001b9c93          	slli	s9,s7,0x1
    2232:	8666                	c.mv	a2,s9
    2234:	4581                	c.li	a1,0
    2236:	1008                	c.addi4spn	a0,sp,32
    2238:	eeaff0ef          	jal	ra,1922 <memset>
    223c:	883d                	c.andi	s0,15
    223e:	1a0c                	c.addi4spn	a1,sp,304
    2240:	9cae                	c.add	s9,a1
    2242:	8622                	c.mv	a2,s0
    2244:	8556                	c.mv	a0,s5
    2246:	85ea                	c.mv	a1,s10
    2248:	8e00                	exec.it	#70     !
    224a:	4641                	c.li	a2,16
    224c:	eeac9823          	sh	a0,-272(s9)
    2250:	1014                	c.addi4spn	a3,sp,32
    2252:	0b85                	c.addi	s7,1
    2254:	8e01                	c.sub	a2,s0
    2256:	8556                	c.mv	a0,s5
    2258:	85ea                	c.mv	a1,s10
    225a:	0b768cdb          	lea.h	s9,a3,s7
    225e:	8440                	exec.it	#34     !
    2260:	8666                	c.mv	a2,s9
    2262:	35a1                	c.jal	20aa <__int_to_poly>
    2264:	4c81                	c.li	s9,0
    2266:	9baa                	c.add	s7,a0
    2268:	57fd                	c.li	a5,-1
    226a:	ce3e                	c.swsp	a5,28(sp)
    226c:	4429                	c.li	s0,10
    226e:	401c635b          	bnec	s8,65,2274 <__printf_float_impl+0x11a>
    2272:	4441                	c.li	s0,16
    2274:	885e                	c.mv	a6,s7
    2276:	101c                	c.addi4spn	a5,sp,32
    2278:	4685                	c.li	a3,1
    227a:	0878                	c.addi4spn	a4,sp,28
    227c:	4601                	c.li	a2,0
    227e:	85a2                	c.mv	a1,s0
    2280:	855a                	c.mv	a0,s6
    2282:	3599                	c.jal	20c8 <__print_integral_poly>
    2284:	02e00793          	li	a5,46
    2288:	00f50023          	sb	a5,0(a0)
    228c:	001bbb93          	seqz	s7,s7
    2290:	0dba7a13          	andi	s4,s4,219
    2294:	00150693          	addi	a3,a0,1
    2298:	87de                	c.mv	a5,s7
    229a:	401a535b          	beqc	s4,65,22a0 <__printf_float_impl+0x146>
    229e:	4781                	c.li	a5,0
    22a0:	00148713          	addi	a4,s1,1
    22a4:	973e                	c.add	a4,a5
    22a6:	fffc8893          	addi	a7,s9,-1
    22aa:	001c9613          	slli	a2,s9,0x1
    22ae:	112c                	c.addi4spn	a1,sp,168
    22b0:	95b2                	c.add	a1,a2
    22b2:	8846                	c.mv	a6,a7
    22b4:	4781                	c.li	a5,0
    22b6:	15f9                	c.addi	a1,-2
    22b8:	16085b63          	bgez	a6,242e <__printf_float_impl+0x2d4>
    22bc:	01905863          	blez	s9,22cc <__printf_float_impl+0x172>
    22c0:	1a0c                	c.addi4spn	a1,sp,304
    22c2:	962e                	c.add	a2,a1
    22c4:	f7665603          	lhu	a2,-138(a2)
    22c8:	e211                	c.bnez	a2,22cc <__printf_float_impl+0x172>
    22ca:	8cc6                	c.mv	s9,a7
    22cc:	160b8a63          	beqz	s7,2440 <__printf_float_impl+0x2e6>
    22d0:	4672                	c.lwsp	a2,28(sp)
    22d2:	0017bb93          	seqz	s7,a5
    22d6:	167d                	c.addi	a2,-1
    22d8:	ce32                	c.swsp	a2,28(sp)
    22da:	0685                	c.addi	a3,1
    22dc:	fef68fa3          	sb	a5,-1(a3)
    22e0:	f379                	c.bnez	a4,22a6 <__printf_float_impl+0x14c>
    22e2:	567c625b          	bnec	s8,71,2446 <__printf_float_impl+0x2ec>
    22e6:	47f2                	c.lwsp	a5,28(sp)
    22e8:	fff48713          	addi	a4,s1,-1
    22ec:	1697de63          	bge	a5,s1,2468 <__printf_float_impl+0x30e>
    22f0:	5671                	c.li	a2,-4
    22f2:	16c7cb63          	blt	a5,a2,2468 <__printf_float_impl+0x30e>
    22f6:	40f704b3          	sub	s1,a4,a5
    22fa:	04600c13          	li	s8,70
    22fe:	0489                	c.addi	s1,2
    2300:	9526                	c.add	a0,s1
    2302:	fff54683          	lbu	a3,-1(a0)
    2306:	40145713          	srai	a4,s0,0x1
    230a:	fff50793          	addi	a5,a0,-1
    230e:	00e6a6b3          	slt	a3,a3,a4
    2312:	0016c693          	xori	a3,a3,1
    2316:	863e                	c.mv	a2,a5
    2318:	1acb7163          	bgeu	s6,a2,24ba <__printf_float_impl+0x360>
    231c:	16069e63          	bnez	a3,2498 <__printf_float_impl+0x33e>
    2320:	17fd                	c.addi	a5,-1
    2322:	00178513          	addi	a0,a5,1
    2326:	00fb7763          	bgeu	s6,a5,2334 <__printf_float_impl+0x1da>
    232a:	00098563          	beqz	s3,2334 <__printf_float_impl+0x1da>
    232e:	0007c703          	lbu	a4,0(a5)
    2332:	d77d                	c.beqz	a4,2320 <__printf_float_impl+0x1c6>
    2334:	fff54783          	lbu	a5,-1(a0)
    2338:	00e7e6db          	bnec	a5,46,2344 <__printf_float_impl+0x1ea>
    233c:	8850                	exec.it	#37     !
    233e:	4047f35b          	bbs	a5,4,2344 <__printf_float_impl+0x1ea>
    2342:	157d                	c.addi	a0,-1
    2344:	46bd                	c.li	a3,15
    2346:	c55f970b          	addigp	a4,-940 # 80454 <__digits>
    234a:	1aab6663          	bltu	s6,a0,24f6 <__printf_float_impl+0x39c>
    234e:	5a5c6f5b          	bnec	s8,69,250c <__printf_float_impl+0x3b2>
    2352:	01850023          	sb	s8,0(a0)
    2356:	4772                	c.lwsp	a4,28(sp)
    2358:	02d00793          	li	a5,45
    235c:	00074463          	bltz	a4,2364 <__printf_float_impl+0x20a>
    2360:	02b00793          	li	a5,43
    2364:	8870                	exec.it	#53     !
    2366:	47f2                	c.lwsp	a5,28(sp)
    2368:	4689                	c.li	a3,2
    236a:	40f00733          	neg	a4,a5
    236e:	f2f7077f          	maxw	a4,a4,a5
    2372:	8474                	exec.it	#59     !
    2374:	4601                	c.li	a2,0
    2376:	45a9                	c.li	a1,10
    2378:	0509                	c.addi	a0,2
    237a:	8b5ff0ef          	jal	ra,1c2e <__print_integral>
    237e:	bda1                	c.j	21d6 <__printf_float_impl+0x7c>
    2380:	06804363          	bgtz	s0,23e6 <__printf_float_impl+0x28c>
    2384:	40800433          	neg	s0,s0
    2388:	00445b93          	srli	s7,s0,0x4
    238c:	001b9d93          	slli	s11,s7,0x1
    2390:	866e                	c.mv	a2,s11
    2392:	4581                	c.li	a1,0
    2394:	1128                	c.addi4spn	a0,sp,168
    2396:	d8cff0ef          	jal	ra,1922 <memset>
    239a:	112c                	c.addi4spn	a1,sp,168
    239c:	883d                	c.andi	s0,15
    239e:	9dae                	c.add	s11,a1
    23a0:	02540413          	addi	s0,s0,37
    23a4:	876e                	c.mv	a4,s11
    23a6:	4c81                	c.li	s9,0
    23a8:	001c8793          	addi	a5,s9,1
    23ac:	8622                	c.mv	a2,s0
    23ae:	8556                	c.mv	a0,s5
    23b0:	85ea                	c.mv	a1,s10
    23b2:	c63a                	c.swsp	a4,12(sp)
    23b4:	c43e                	c.swsp	a5,8(sp)
    23b6:	8440                	exec.it	#34     !
    23b8:	4732                	c.lwsp	a4,12(sp)
    23ba:	1441                	c.addi	s0,-16
    23bc:	00a71023          	sh	a0,0(a4)
    23c0:	47a2                	c.lwsp	a5,8(sp)
    23c2:	0709                	c.addi	a4,2
    23c4:	00045f63          	bgez	s0,23e2 <__printf_float_impl+0x288>
    23c8:	0afd8ddb          	lea.h	s11,s11,a5
    23cc:	40800633          	neg	a2,s0
    23d0:	8556                	c.mv	a0,s5
    23d2:	85ea                	c.mv	a1,s10
    23d4:	0c89                	c.addi	s9,2
    23d6:	8e00                	exec.it	#70     !
    23d8:	9cde                	c.add	s9,s7
    23da:	00ad9023          	sh	a0,0(s11) # 100000 <FLASH_SIZE>
    23de:	4b81                	c.li	s7,0
    23e0:	b561                	c.j	2268 <__printf_float_impl+0x10e>
    23e2:	8cbe                	c.mv	s9,a5
    23e4:	b7d1                	c.j	23a8 <__printf_float_impl+0x24e>
    23e6:	03500613          	li	a2,53
    23ea:	8e01                	c.sub	a2,s0
    23ec:	85ee                	c.mv	a1,s11
    23ee:	8440                	exec.it	#34     !
    23f0:	1010                	c.addi4spn	a2,sp,32
    23f2:	cb9ff0ef          	jal	ra,20aa <__int_to_poly>
    23f6:	02500793          	li	a5,37
    23fa:	8baa                	c.mv	s7,a0
    23fc:	40878433          	sub	s0,a5,s0
    2400:	0a810d13          	addi	s10,sp,168
    2404:	4c81                	c.li	s9,0
    2406:	0c85                	c.addi	s9,1
    2408:	00045a63          	bgez	s0,241c <__printf_float_impl+0x2c2>
    240c:	40800633          	neg	a2,s0
    2410:	8556                	c.mv	a0,s5
    2412:	85ee                	c.mv	a1,s11
    2414:	8e00                	exec.it	#70     !
    2416:	00ad1023          	sh	a0,0(s10)
    241a:	b5b9                	c.j	2268 <__printf_float_impl+0x10e>
    241c:	8622                	c.mv	a2,s0
    241e:	8556                	c.mv	a0,s5
    2420:	85ee                	c.mv	a1,s11
    2422:	8440                	exec.it	#34     !
    2424:	1441                	c.addi	s0,-16
    2426:	00ad1023          	sh	a0,0(s10)
    242a:	0d09                	c.addi	s10,2
    242c:	bfe9                	c.j	2406 <__printf_float_impl+0x2ac>
    242e:	0005d303          	lhu	t1,0(a1)
    2432:	187d                	c.addi	a6,-1
    2434:	c48317ff          	maddr32	a5,t1,s0
    2438:	00f59023          	sh	a5,0(a1)
    243c:	83c1                	c.srli	a5,0x10
    243e:	bda5                	c.j	22b6 <__printf_float_impl+0x15c>
    2440:	177d                	c.addi	a4,-1
    2442:	4b81                	c.li	s7,0
    2444:	bd59                	c.j	22da <__printf_float_impl+0x180>
    2446:	8726                	c.mv	a4,s1
    2448:	ea6c5b5b          	beqc	s8,70,22fe <__printf_float_impl+0x1a4>
    244c:	47f2                	c.lwsp	a5,28(sp)
    244e:	001b0613          	addi	a2,s6,1
    2452:	02f04263          	bgtz	a5,2476 <__printf_float_impl+0x31c>
    2456:	c395                	c.beqz	a5,247a <__printf_float_impl+0x320>
    2458:	8420                	exec.it	#18     !
    245a:	02d7e863          	bltu	a5,a3,248a <__printf_float_impl+0x330>
    245e:	001b0783          	lb	a5,1(s6)
    2462:	00fb0023          	sb	a5,0(s6)
    2466:	a811                	c.j	247a <__printf_float_impl+0x320>
    2468:	04500c13          	li	s8,69
    246c:	b7c5                	c.j	244c <__printf_float_impl+0x2f2>
    246e:	fff50783          	lb	a5,-1(a0)
    2472:	157d                	c.addi	a0,-1
    2474:	8870                	exec.it	#53     !
    2476:	fec51ce3          	bne	a0,a2,246e <__printf_float_impl+0x314>
    247a:	02e00793          	li	a5,46
    247e:	001b0513          	addi	a0,s6,1
    2482:	00fb00a3          	sb	a5,1(s6)
    2486:	84ba                	c.mv	s1,a4
    2488:	bd9d                	c.j	22fe <__printf_float_impl+0x1a4>
    248a:	0785                	c.addi	a5,1
    248c:	fff7c603          	lbu	a2,-1(a5)
    2490:	0505                	c.addi	a0,1
    2492:	fec50fa3          	sb	a2,-1(a0)
    2496:	b7d1                	c.j	245a <__printf_float_impl+0x300>
    2498:	167d                	c.addi	a2,-1
    249a:	00064703          	lbu	a4,0(a2)
    249e:	a6e75ddb          	beqc	a4,46,2318 <__printf_float_impl+0x1be>
    24a2:	0705                	c.addi	a4,1
    24a4:	8804                	exec.it	#12     !
    24a6:	00875663          	bge	a4,s0,24b2 <__printf_float_impl+0x358>
    24aa:	00e60023          	sb	a4,0(a2)
    24ae:	4681                	c.li	a3,0
    24b0:	b5a5                	c.j	2318 <__printf_float_impl+0x1be>
    24b2:	8f01                	c.sub	a4,s0
    24b4:	00e60023          	sb	a4,0(a2)
    24b8:	b585                	c.j	2318 <__printf_float_impl+0x1be>
    24ba:	873e                	c.mv	a4,a5
    24bc:	e60682e3          	beqz	a3,2320 <__printf_float_impl+0x1c6>
    24c0:	02eb6363          	bltu	s6,a4,24e6 <__printf_float_impl+0x38c>
    24c4:	4705                	c.li	a4,1
    24c6:	00eb0023          	sb	a4,0(s6)
    24ca:	4772                	c.lwsp	a4,28(sp)
    24cc:	0705                	c.addi	a4,1
    24ce:	ce3a                	c.swsp	a4,28(sp)
    24d0:	426c515b          	beqc	s8,70,24f2 <__printf_float_impl+0x398>
    24d4:	001b0703          	lb	a4,1(s6)
    24d8:	00eb0123          	sb	a4,2(s6)
    24dc:	02e00713          	li	a4,46
    24e0:	00eb00a3          	sb	a4,1(s6)
    24e4:	bd35                	c.j	2320 <__printf_float_impl+0x1c6>
    24e6:	fff70683          	lb	a3,-1(a4)
    24ea:	177d                	c.addi	a4,-1
    24ec:	00d700a3          	sb	a3,1(a4)
    24f0:	bfc1                	c.j	24c0 <__printf_float_impl+0x366>
    24f2:	87aa                	c.mv	a5,a0
    24f4:	b535                	c.j	2320 <__printf_float_impl+0x1c6>
    24f6:	000b4783          	lbu	a5,0(s6)
    24fa:	00f6e763          	bltu	a3,a5,2508 <__printf_float_impl+0x3ae>
    24fe:	97ba                	c.add	a5,a4
    2500:	00078783          	lb	a5,0(a5)
    2504:	00fb0023          	sb	a5,0(s6)
    2508:	0b05                	c.addi	s6,1
    250a:	b581                	c.j	234a <__printf_float_impl+0x1f0>
    250c:	cc1c655b          	bnec	s8,65,21d6 <__printf_float_impl+0x7c>
    2510:	05000793          	li	a5,80
    2514:	00f50023          	sb	a5,0(a0)
    2518:	4772                	c.lwsp	a4,28(sp)
    251a:	02d00793          	li	a5,45
    251e:	00074463          	bltz	a4,2526 <__printf_float_impl+0x3cc>
    2522:	02b00793          	li	a5,43
    2526:	8870                	exec.it	#53     !
    2528:	47f2                	c.lwsp	a5,28(sp)
    252a:	4685                	c.li	a3,1
    252c:	40f00733          	neg	a4,a5
    2530:	f2f7077f          	maxw	a4,a4,a5
    2534:	070a                	c.slli	a4,0x2
    2536:	8474                	exec.it	#59     !
    2538:	bd35                	c.j	2374 <__printf_float_impl+0x21a>
	...

0000253c <strcpy>:
    253c:	00b567b3          	or	a5,a0,a1
    2540:	8b8d                	c.andi	a5,3
    2542:	e3ad                	c.bnez	a5,25a4 <strcpy+0x68>
    2544:	4198                	c.lw	a4,0(a1)
    2546:	200707db          	ffb	a5,a4,zero
    254a:	e3a9                	c.bnez	a5,258c <strcpy+0x50>
    254c:	00a007b3          	add	a5,zero,a0
    2550:	0591                	c.addi	a1,4
    2552:	0791                	c.addi	a5,4
    2554:	fee7ae23          	sw	a4,-4(a5)
    2558:	4198                	c.lw	a4,0(a1)
    255a:	200706db          	ffb	a3,a4,zero
    255e:	daed                	c.beqz	a3,2550 <strcpy+0x14>
    2560:	0005c703          	lbu	a4,0(a1)
    2564:	0015c683          	lbu	a3,1(a1)
    2568:	0025c603          	lbu	a2,2(a1)
    256c:	00e78023          	sb	a4,0(a5)
    2570:	00070863          	beqz	a4,2580 <strcpy+0x44>
    2574:	00d780a3          	sb	a3,1(a5)
    2578:	c681                	c.beqz	a3,2580 <strcpy+0x44>
    257a:	00c78123          	sb	a2,2(a5)
    257e:	e219                	c.bnez	a2,2584 <strcpy+0x48>
    2580:	00008067          	ret
    2584:	000781a3          	sb	zero,3(a5)
    2588:	00008067          	ret
    258c:	0005c703          	lbu	a4,0(a1)
    2590:	87aa                	c.mv	a5,a0
    2592:	0015c683          	lbu	a3,1(a1)
    2596:	0025c603          	lbu	a2,2(a1)
    259a:	00e78023          	sb	a4,0(a5)
    259e:	fb79                	c.bnez	a4,2574 <strcpy+0x38>
    25a0:	fe1ff06f          	j	2580 <strcpy+0x44>
    25a4:	00a007b3          	add	a5,zero,a0
    25a8:	8c14                	exec.it	#15     !
    25aa:	0785                	c.addi	a5,1
    25ac:	8450                	exec.it	#35     !
    25ae:	0585                	c.addi	a1,1
    25b0:	ff65                	c.bnez	a4,25a8 <strcpy+0x6c>
    25b2:	8082                	c.jr	ra
    25b4:	0001                	c.nop

000025b6 <strnlen>:
    25b6:	95aa                	c.add	a1,a0
    25b8:	87aa                	c.mv	a5,a0
    25ba:	00b78563          	beq	a5,a1,25c4 <strnlen+0xe>
    25be:	0007c703          	lbu	a4,0(a5)
    25c2:	e701                	c.bnez	a4,25ca <strnlen+0x14>
    25c4:	40a78533          	sub	a0,a5,a0
    25c8:	8082                	c.jr	ra
    25ca:	0785                	c.addi	a5,1
    25cc:	b7fd                	c.j	25ba <strnlen+0x4>
	...

000025d0 <__muldf3>:
    25d0:	1101                	c.addi	sp,-32
    25d2:	ce22                	c.swsp	s0,28(sp)
    25d4:	cc26                	c.swsp	s1,24(sp)
    25d6:	ca4a                	c.swsp	s2,20(sp)
    25d8:	c84e                	c.swsp	s3,16(sp)
    25da:	c652                	c.swsp	s4,12(sp)
    25dc:	c456                	c.swsp	s5,8(sp)
    25de:	c25a                	c.swsp	s6,4(sp)
    25e0:	00202373          	frrm	t1
    25e4:	7945a75b          	bfoz	a4,a1,30,20
    25e8:	4c05a7db          	bfoz	a5,a1,19,0
    25ec:	81fd                	c.srli	a1,0x1f
    25ee:	10070963          	beqz	a4,2700 <__muldf3+0x130>
    25f2:	7ff00813          	li	a6,2047
    25f6:	07070963          	beq	a4,a6,2668 <__muldf3+0x98>
    25fa:	00800837          	lui	a6,0x800
    25fe:	078e                	c.slli	a5,0x3
    2600:	01d55293          	srli	t0,a0,0x1d
    2604:	0107e7b3          	or	a5,a5,a6
    2608:	c0170e13          	addi	t3,a4,-1023
    260c:	00f2e2b3          	or	t0,t0,a5
    2610:	050e                	c.slli	a0,0x3
    2612:	4701                	c.li	a4,0
    2614:	4381                	c.li	t2,0
    2616:	4801                	c.li	a6,0
    2618:	7946a8db          	bfoz	a7,a3,30,20
    261c:	4c06a7db          	bfoz	a5,a3,19,0
    2620:	01f6d693          	srli	a3,a3,0x1f
    2624:	12088a63          	beqz	a7,2758 <__muldf3+0x188>
    2628:	7ff00e93          	li	t4,2047
    262c:	17d88a63          	beq	a7,t4,27a0 <__muldf3+0x1d0>
    2630:	00800f37          	lui	t5,0x800
    2634:	078e                	c.slli	a5,0x3
    2636:	01d65e93          	srli	t4,a2,0x1d
    263a:	01e7e7b3          	or	a5,a5,t5
    263e:	c0188893          	addi	a7,a7,-1023
    2642:	00fee7b3          	or	a5,t4,a5
    2646:	060e                	c.slli	a2,0x3
    2648:	9e46                	c.add	t3,a7
    264a:	4f01                	c.li	t5,0
    264c:	48bd                	c.li	a7,15
    264e:	00d5ceb3          	xor	t4,a1,a3
    2652:	001e0f93          	addi	t6,t3,1
    2656:	16e8e363          	bltu	a7,a4,27bc <__muldf3+0x1ec>
    265a:	c6df988b          	addigp	a7,-916 # 8046c <__digits+0x18>
    265e:	0ce8875b          	lea.w	a4,a7,a4
    2662:	4318                	c.lw	a4,0(a4)
    2664:	00070067          	jr	a4
    2668:	00a7e2b3          	or	t0,a5,a0
    266c:	32028263          	beqz	t0,2990 <__muldf3+0x3c0>
    2670:	0137d713          	srli	a4,a5,0x13
    2674:	82be                	c.mv	t0,a5
    2676:	46070563          	beqz	a4,2ae0 <__muldf3+0x510>
    267a:	4731                	c.li	a4,12
    267c:	7ff00e13          	li	t3,2047
    2680:	438d                	c.li	t2,3
    2682:	4801                	c.li	a6,0
    2684:	f95ff06f          	j	2618 <__muldf3+0x48>
    2688:	00d00eb3          	add	t4,zero,a3
    268c:	062f605b          	bnec	t5,2,26ec <__muldf3+0x11c>
    2690:	88f6                	c.mv	a7,t4
    2692:	7ff00713          	li	a4,2047
    2696:	4781                	c.li	a5,0
    2698:	00000613          	li	a2,0
    269c:	4581                	c.li	a1,0
    269e:	fff006b7          	lui	a3,0xfff00
    26a2:	8eed                	c.and	a3,a1
    26a4:	4c07a7db          	bfoz	a5,a5,19,0
    26a8:	8fd5                	c.or	a5,a3
    26aa:	01471693          	slli	a3,a4,0x14
    26ae:	80100737          	lui	a4,0x80100
    26b2:	177d                	c.addi	a4,-1
    26b4:	8f7d                	c.and	a4,a5
    26b6:	8f55                	c.or	a4,a3
    26b8:	08fe                	c.slli	a7,0x1f
    26ba:	7807275b          	bfoz	a4,a4,30,0
    26be:	8532                	c.mv	a0,a2
    26c0:	011765b3          	or	a1,a4,a7
    26c4:	3e081e63          	bnez	a6,2ac0 <__muldf3+0x4f0>
    26c8:	4472                	c.lwsp	s0,28(sp)
    26ca:	44e2                	c.lwsp	s1,24(sp)
    26cc:	4952                	c.lwsp	s2,20(sp)
    26ce:	49c2                	c.lwsp	s3,16(sp)
    26d0:	4a32                	c.lwsp	s4,12(sp)
    26d2:	4aa2                	c.lwsp	s5,8(sp)
    26d4:	4b12                	c.lwsp	s6,4(sp)
    26d6:	6105                	c.addi16sp	sp,32
    26d8:	00008067          	ret
    26dc:	00b00eb3          	add	t4,zero,a1
    26e0:	8f1e                	c.mv	t5,t2
    26e2:	8796                	c.mv	a5,t0
    26e4:	00a00633          	add	a2,zero,a0
    26e8:	ba2f545b          	beqc	t5,2,2690 <__muldf3+0xc0>
    26ec:	363f525b          	beqc	t5,3,2a50 <__muldf3+0x480>
    26f0:	221f685b          	bnec	t5,1,2920 <__muldf3+0x350>
    26f4:	88f6                	c.mv	a7,t4
    26f6:	4701                	c.li	a4,0
    26f8:	4781                	c.li	a5,0
    26fa:	4601                	c.li	a2,0
    26fc:	fa1ff06f          	j	269c <__muldf3+0xcc>
    2700:	00a7e2b3          	or	t0,a5,a0
    2704:	28028063          	beqz	t0,2984 <__muldf3+0x3b4>
    2708:	af97877f          	clz32	a4,a5
    270c:	00079663          	bnez	a5,2718 <__muldf3+0x148>
    2710:	af95077f          	clz32	a4,a0
    2714:	02070713          	addi	a4,a4,32 # 80100020 <_DATA_LMA_START+0x600fcd68>
    2718:	ff570893          	addi	a7,a4,-11
    271c:	4871                	c.li	a6,28
    271e:	3b184b63          	blt	a6,a7,2ad4 <__muldf3+0x504>
    2722:	42f5                	c.li	t0,29
    2724:	ff870813          	addi	a6,a4,-8
    2728:	411282b3          	sub	t0,t0,a7
    272c:	005552b3          	srl	t0,a0,t0
    2730:	010797b3          	sll	a5,a5,a6
    2734:	00f2e2b3          	or	t0,t0,a5
    2738:	01051533          	sll	a0,a0,a6
    273c:	c0d00e13          	li	t3,-1011
    2740:	7946a8db          	bfoz	a7,a3,30,20
    2744:	40ee0e33          	sub	t3,t3,a4
    2748:	4c06a7db          	bfoz	a5,a3,19,0
    274c:	4701                	c.li	a4,0
    274e:	4381                	c.li	t2,0
    2750:	4801                	c.li	a6,0
    2752:	82fd                	c.srli	a3,0x1f
    2754:	ec089ae3          	bnez	a7,2628 <__muldf3+0x58>
    2758:	00c7e8b3          	or	a7,a5,a2
    275c:	24088263          	beqz	a7,29a0 <__muldf3+0x3d0>
    2760:	af9788ff          	clz32	a7,a5
    2764:	00079663          	bnez	a5,2770 <__muldf3+0x1a0>
    2768:	af9608ff          	clz32	a7,a2
    276c:	02088893          	addi	a7,a7,32
    2770:	ff588f93          	addi	t6,a7,-11
    2774:	4ef1                	c.li	t4,28
    2776:	35fec963          	blt	t4,t6,2ac8 <__muldf3+0x4f8>
    277a:	4ef5                	c.li	t4,29
    277c:	ff888f13          	addi	t5,a7,-8
    2780:	41fe8eb3          	sub	t4,t4,t6
    2784:	01d65eb3          	srl	t4,a2,t4
    2788:	01e797b3          	sll	a5,a5,t5
    278c:	00fee7b3          	or	a5,t4,a5
    2790:	01e61633          	sll	a2,a2,t5
    2794:	411e0e33          	sub	t3,t3,a7
    2798:	c0de0e13          	addi	t3,t3,-1011
    279c:	4f01                	c.li	t5,0
    279e:	b57d                	c.j	264c <__muldf3+0x7c>
    27a0:	00c7e8b3          	or	a7,a5,a2
    27a4:	7ffe0e13          	addi	t3,t3,2047
    27a8:	20088263          	beqz	a7,29ac <__muldf3+0x3dc>
    27ac:	00376713          	ori	a4,a4,3
    27b0:	4f0d                	c.li	t5,3
    27b2:	e937fd5b          	bbs	a5,19,264c <__muldf3+0x7c>
    27b6:	4841                	c.li	a6,16
    27b8:	e95ff06f          	j	264c <__muldf3+0x7c>
    27bc:	6f41                	c.lui	t5,0x10
    27be:	ffff0713          	addi	a4,t5,-1 # ffff <BIN_SIZE+0xc861>
    27c2:	00e678b3          	and	a7,a2,a4
    27c6:	01055393          	srli	t2,a0,0x10
    27ca:	031385b3          	mul	a1,t2,a7
    27ce:	8d79                	c.and	a0,a4
    27d0:	01065913          	srli	s2,a2,0x10
    27d4:	02a886b3          	mul	a3,a7,a0
    27d8:	862e                	c.mv	a2,a1
    27da:	c4a9167f          	maddr32	a2,s2,a0
    27de:	03238733          	mul	a4,t2,s2
    27e2:	0106d413          	srli	s0,a3,0x10
    27e6:	9432                	c.add	s0,a2
    27e8:	00b47463          	bgeu	s0,a1,27f0 <__muldf3+0x220>
    27ec:	01e70733          	add	a4,a4,t5
    27f0:	6b41                	c.lui	s6,0x10
    27f2:	fffb0f13          	addi	t5,s6,-1 # ffff <BIN_SIZE+0xc861>
    27f6:	01e7f5b3          	and	a1,a5,t5
    27fa:	02b38a33          	mul	s4,t2,a1
    27fe:	0107d993          	srli	s3,a5,0x10
    2802:	01e47633          	and	a2,s0,t5
    2806:	01e6f6b3          	and	a3,a3,t5
    280a:	0642                	c.slli	a2,0x10
    280c:	00d60f33          	add	t5,a2,a3
    2810:	02b50ab3          	mul	s5,a0,a1
    2814:	01045493          	srli	s1,s0,0x10
    2818:	87d2                	c.mv	a5,s4
    281a:	c4a997ff          	maddr32	a5,s3,a0
    281e:	033383b3          	mul	t2,t2,s3
    2822:	010ad693          	srli	a3,s5,0x10
    2826:	96be                	c.add	a3,a5
    2828:	0146f463          	bgeu	a3,s4,2830 <__muldf3+0x260>
    282c:	016383b3          	add	t2,t2,s6
    2830:	6b41                	c.lui	s6,0x10
    2832:	fffb0413          	addi	s0,s6,-1 # ffff <BIN_SIZE+0xc861>
    2836:	0102da13          	srli	s4,t0,0x10
    283a:	0082f7b3          	and	a5,t0,s0
    283e:	031a02b3          	mul	t0,s4,a7
    2842:	0086f633          	and	a2,a3,s0
    2846:	82c1                	c.srli	a3,0x10
    2848:	93b6                	c.add	t2,a3
    284a:	0642                	c.slli	a2,0x10
    284c:	008afab3          	and	s5,s5,s0
    2850:	02f888b3          	mul	a7,a7,a5
    2854:	01560433          	add	s0,a2,s5
    2858:	94a2                	c.add	s1,s0
    285a:	8696                	c.mv	a3,t0
    285c:	c4f916ff          	maddr32	a3,s2,a5
    2860:	03490633          	mul	a2,s2,s4
    2864:	0108d513          	srli	a0,a7,0x10
    2868:	9536                	c.add	a0,a3
    286a:	00557363          	bgeu	a0,t0,2870 <__muldf3+0x2a0>
    286e:	965a                	c.add	a2,s6
    2870:	02ba0ab3          	mul	s5,s4,a1
    2874:	6b41                	c.lui	s6,0x10
    2876:	fffb0293          	addi	t0,s6,-1 # ffff <BIN_SIZE+0xc861>
    287a:	005576b3          	and	a3,a0,t0
    287e:	06c2                	c.slli	a3,0x10
    2880:	0058f8b3          	and	a7,a7,t0
    2884:	02b78933          	mul	s2,a5,a1
    2888:	98b6                	c.add	a7,a3
    288a:	8141                	c.srli	a0,0x10
    288c:	9532                	c.add	a0,a2
    288e:	85d6                	c.mv	a1,s5
    2890:	c4f995ff          	maddr32	a1,s3,a5
    2894:	034982b3          	mul	t0,s3,s4
    2898:	01095693          	srli	a3,s2,0x10
    289c:	00b687b3          	add	a5,a3,a1
    28a0:	0157f463          	bgeu	a5,s5,28a8 <__muldf3+0x2d8>
    28a4:	016282b3          	add	t0,t0,s6
    28a8:	65c1                	c.lui	a1,0x10
    28aa:	15fd                	c.addi	a1,-1
    28ac:	00b7f6b3          	and	a3,a5,a1
    28b0:	06c2                	c.slli	a3,0x10
    28b2:	00b975b3          	and	a1,s2,a1
    28b6:	9726                	c.add	a4,s1
    28b8:	96ae                	c.add	a3,a1
    28ba:	00873633          	sltu	a2,a4,s0
    28be:	969e                	c.add	a3,t2
    28c0:	9746                	c.add	a4,a7
    28c2:	00c684b3          	add	s1,a3,a2
    28c6:	011735b3          	sltu	a1,a4,a7
    28ca:	00a488b3          	add	a7,s1,a0
    28ce:	00b88433          	add	s0,a7,a1
    28d2:	00c4b633          	sltu	a2,s1,a2
    28d6:	0076b6b3          	sltu	a3,a3,t2
    28da:	8ed1                	c.or	a3,a2
    28dc:	00b435b3          	sltu	a1,s0,a1
    28e0:	83c1                	c.srli	a5,0x10
    28e2:	00a8b533          	sltu	a0,a7,a0
    28e6:	97b6                	c.add	a5,a3
    28e8:	8dc9                	c.or	a1,a0
    28ea:	00971613          	slli	a2,a4,0x9
    28ee:	97ae                	c.add	a5,a1
    28f0:	9796                	c.add	a5,t0
    28f2:	01e66633          	or	a2,a2,t5
    28f6:	01745693          	srli	a3,s0,0x17
    28fa:	07a6                	c.slli	a5,0x9
    28fc:	00c03633          	snez	a2,a2
    2900:	835d                	c.srli	a4,0x17
    2902:	8e59                	c.or	a2,a4
    2904:	0426                	c.slli	s0,0x9
    2906:	8fd5                	c.or	a5,a3
    2908:	8e41                	c.or	a2,s0
    290a:	1f87f15b          	bbc	a5,24,2aec <__muldf3+0x51c>
    290e:	00165713          	srli	a4,a2,0x1
    2912:	8a05                	c.andi	a2,1
    2914:	01f79693          	slli	a3,a5,0x1f
    2918:	8e59                	c.or	a2,a4
    291a:	8e55                	c.or	a2,a3
    291c:	0017d793          	srli	a5,a5,0x1
    2920:	3fff8713          	addi	a4,t6,1023
    2924:	0ae05263          	blez	a4,29c8 <__muldf3+0x3f8>
    2928:	00767693          	andi	a3,a2,7
    292c:	c685                	c.beqz	a3,2954 <__muldf3+0x384>
    292e:	00186813          	ori	a6,a6,1
    2932:	1c235f5b          	beqc	t1,2,2b10 <__muldf3+0x540>
    2936:	2633535b          	beqc	t1,3,2b9c <__muldf3+0x5cc>
    293a:	00031d63          	bnez	t1,2954 <__muldf3+0x384>
    293e:	00f67693          	andi	a3,a2,15
    2942:	0046d95b          	beqc	a3,4,2954 <__muldf3+0x384>
    2946:	00460693          	addi	a3,a2,4
    294a:	00c6b633          	sltu	a2,a3,a2
    294e:	97b2                	c.add	a5,a2
    2950:	00d00633          	add	a2,zero,a3
    2954:	0187f85b          	bbc	a5,24,2964 <__muldf3+0x394>
    2958:	ff000737          	lui	a4,0xff000
    295c:	177d                	c.addi	a4,-1
    295e:	8ff9                	c.and	a5,a4
    2960:	400f8713          	addi	a4,t6,1024
    2964:	7fe00693          	li	a3,2046
    2968:	88f6                	c.mv	a7,t4
    296a:	18e6c363          	blt	a3,a4,2af0 <__muldf3+0x520>
    296e:	00365693          	srli	a3,a2,0x3
    2972:	01d79613          	slli	a2,a5,0x1d
    2976:	8e55                	c.or	a2,a3
    2978:	5837a7db          	bfoz	a5,a5,22,3
    297c:	7ff77713          	andi	a4,a4,2047
    2980:	d1dff06f          	j	269c <__muldf3+0xcc>
    2984:	4711                	c.li	a4,4
    2986:	4501                	c.li	a0,0
    2988:	4e01                	c.li	t3,0
    298a:	4385                	c.li	t2,1
    298c:	4801                	c.li	a6,0
    298e:	b169                	c.j	2618 <__muldf3+0x48>
    2990:	4721                	c.li	a4,8
    2992:	4501                	c.li	a0,0
    2994:	7ff00e13          	li	t3,2047
    2998:	4389                	c.li	t2,2
    299a:	4801                	c.li	a6,0
    299c:	c7dff06f          	j	2618 <__muldf3+0x48>
    29a0:	00176713          	ori	a4,a4,1
    29a4:	4781                	c.li	a5,0
    29a6:	4601                	c.li	a2,0
    29a8:	4f05                	c.li	t5,1
    29aa:	b14d                	c.j	264c <__muldf3+0x7c>
    29ac:	00276713          	ori	a4,a4,2
    29b0:	4781                	c.li	a5,0
    29b2:	4601                	c.li	a2,0
    29b4:	4f09                	c.li	t5,2
    29b6:	b959                	c.j	264c <__muldf3+0x7c>
    29b8:	4881                	c.li	a7,0
    29ba:	7ff00713          	li	a4,2047
    29be:	000807b7          	lui	a5,0x80
    29c2:	4601                	c.li	a2,0
    29c4:	4841                	c.li	a6,16
    29c6:	b9d9                	c.j	269c <__muldf3+0xcc>
    29c8:	4685                	c.li	a3,1
    29ca:	8e99                	c.sub	a3,a4
    29cc:	eb51                	c.bnez	a4,2a60 <__muldf3+0x490>
    29ce:	00767593          	andi	a1,a2,7
    29d2:	873e                	c.mv	a4,a5
    29d4:	00058a63          	beqz	a1,29e8 <__muldf3+0x418>
    29d8:	00186813          	ori	a6,a6,1
    29dc:	1e23565b          	beqc	t1,2,2bc8 <__muldf3+0x5f8>
    29e0:	1c335c5b          	beqc	t1,3,2bb8 <__muldf3+0x5e8>
    29e4:	1e030663          	beqz	t1,2bd0 <__muldf3+0x600>
    29e8:	01875593          	srli	a1,a4,0x18
    29ec:	0015c593          	xori	a1,a1,1
    29f0:	0015f593          	andi	a1,a1,1
    29f4:	41ef8f93          	addi	t6,t6,1054
    29f8:	01f61733          	sll	a4,a2,t6
    29fc:	00d65533          	srl	a0,a2,a3
    2a00:	01f79fb3          	sll	t6,a5,t6
    2a04:	00e03633          	snez	a2,a4
    2a08:	00afefb3          	or	t6,t6,a0
    2a0c:	01f66633          	or	a2,a2,t6
    2a10:	00767713          	andi	a4,a2,7
    2a14:	00d7d7b3          	srl	a5,a5,a3
    2a18:	00070a63          	beqz	a4,2a2c <__muldf3+0x45c>
    2a1c:	00186813          	ori	a6,a6,1
    2a20:	1c23545b          	beqc	t1,2,2be8 <__muldf3+0x618>
    2a24:	1c335e5b          	beqc	t1,3,2c00 <__muldf3+0x630>
    2a28:	14030a63          	beqz	t1,2b7c <__muldf3+0x5ac>
    2a2c:	1777fc5b          	bbc	a5,23,2ba4 <__muldf3+0x5d4>
    2a30:	00186813          	ori	a6,a6,1
    2a34:	4705                	c.li	a4,1
    2a36:	4781                	c.li	a5,0
    2a38:	00000613          	li	a2,0
    2a3c:	01d008b3          	add	a7,zero,t4
    2a40:	c4058ee3          	beqz	a1,269c <__muldf3+0xcc>
    2a44:	84087c5b          	bbc	a6,0,269c <__muldf3+0xcc>
    2a48:	00286813          	ori	a6,a6,2
    2a4c:	04c0006f          	j	2a98 <__muldf3+0x4c8>
    2a50:	4881                	c.li	a7,0
    2a52:	7ff00713          	li	a4,2047
    2a56:	000807b7          	lui	a5,0x80
    2a5a:	4601                	c.li	a2,0
    2a5c:	c41ff06f          	j	269c <__muldf3+0xcc>
    2a60:	03800593          	li	a1,56
    2a64:	0cd5da63          	bge	a1,a3,2b38 <__muldf3+0x568>
    2a68:	8e5d                	c.or	a2,a5
    2a6a:	c20d                	c.beqz	a2,2a8c <__muldf3+0x4bc>
    2a6c:	00186813          	ori	a6,a6,1
    2a70:	01d03633          	snez	a2,t4
    2a74:	00235c5b          	beqc	t1,2,2a8c <__muldf3+0x4bc>
    2a78:	ffd30793          	addi	a5,t1,-3
    2a7c:	0017b793          	seqz	a5,a5
    2a80:	001eb613          	seqz	a2,t4
    2a84:	40f007b3          	neg	a5,a5
    2a88:	00f67633          	and	a2,a2,a5
    2a8c:	00286813          	ori	a6,a6,2
    2a90:	88f6                	c.mv	a7,t4
    2a92:	4701                	c.li	a4,0
    2a94:	00000793          	li	a5,0
    2a98:	4581                	c.li	a1,0
    2a9a:	fff006b7          	lui	a3,0xfff00
    2a9e:	8eed                	c.and	a3,a1
    2aa0:	4c07a7db          	bfoz	a5,a5,19,0
    2aa4:	8fd5                	c.or	a5,a3
    2aa6:	801006b7          	lui	a3,0x80100
    2aaa:	16fd                	c.addi	a3,-1
    2aac:	0752                	c.slli	a4,0x14
    2aae:	8efd                	c.and	a3,a5
    2ab0:	8f55                	c.or	a4,a3
    2ab2:	08fe                	c.slli	a7,0x1f
    2ab4:	7807275b          	bfoz	a4,a4,30,0
    2ab8:	00c00533          	add	a0,zero,a2
    2abc:	011765b3          	or	a1,a4,a7
    2ac0:	00182073          	csrs	fflags,a6
    2ac4:	c05ff06f          	j	26c8 <__muldf3+0xf8>
    2ac8:	fd888793          	addi	a5,a7,-40
    2acc:	00f617b3          	sll	a5,a2,a5
    2ad0:	4601                	c.li	a2,0
    2ad2:	b1c9                	c.j	2794 <__muldf3+0x1c4>
    2ad4:	fd870793          	addi	a5,a4,-40 # feffffd8 <_DATA_LMA_START+0xdeffcd20>
    2ad8:	00f512b3          	sll	t0,a0,a5
    2adc:	4501                	c.li	a0,0
    2ade:	b9b9                	c.j	273c <__muldf3+0x16c>
    2ae0:	4731                	c.li	a4,12
    2ae2:	7ff00e13          	li	t3,2047
    2ae6:	438d                	c.li	t2,3
    2ae8:	4841                	c.li	a6,16
    2aea:	b63d                	c.j	2618 <__muldf3+0x48>
    2aec:	8ff2                	c.mv	t6,t3
    2aee:	bd0d                	c.j	2920 <__muldf3+0x350>
    2af0:	02235a5b          	beqc	t1,2,2b24 <__muldf3+0x554>
    2af4:	0a33505b          	beqc	t1,3,2b94 <__muldf3+0x5c4>
    2af8:	02030863          	beqz	t1,2b28 <__muldf3+0x558>
    2afc:	001007b7          	lui	a5,0x100
    2b00:	7fe00713          	li	a4,2046
    2b04:	17fd                	c.addi	a5,-1
    2b06:	567d                	c.li	a2,-1
    2b08:	00586813          	ori	a6,a6,5
    2b0c:	f8dff06f          	j	2a98 <__muldf3+0x4c8>
    2b10:	e40e82e3          	beqz	t4,2954 <__muldf3+0x384>
    2b14:	00860693          	addi	a3,a2,8
    2b18:	00c6b633          	sltu	a2,a3,a2
    2b1c:	97b2                	c.add	a5,a2
    2b1e:	8636                	c.mv	a2,a3
    2b20:	e35ff06f          	j	2954 <__muldf3+0x384>
    2b24:	fc0e8ce3          	beqz	t4,2afc <__muldf3+0x52c>
    2b28:	7ff00713          	li	a4,2047
    2b2c:	4781                	c.li	a5,0
    2b2e:	4601                	c.li	a2,0
    2b30:	00586813          	ori	a6,a6,5
    2b34:	f65ff06f          	j	2a98 <__muldf3+0x4c8>
    2b38:	45fd                	c.li	a1,31
    2b3a:	0cd5dd63          	bge	a1,a3,2c14 <__muldf3+0x644>
    2b3e:	5585                	c.li	a1,-31
    2b40:	40e58733          	sub	a4,a1,a4
    2b44:	00e7d733          	srl	a4,a5,a4
    2b48:	0006d8db          	beqc	a3,32,2b58 <__muldf3+0x588>
    2b4c:	43ef8f93          	addi	t6,t6,1086
    2b50:	01f797b3          	sll	a5,a5,t6
    2b54:	00f66633          	or	a2,a2,a5
    2b58:	00c03633          	snez	a2,a2
    2b5c:	8e59                	c.or	a2,a4
    2b5e:	00767793          	andi	a5,a2,7
    2b62:	c3dd                	c.beqz	a5,2c08 <__muldf3+0x638>
    2b64:	00186813          	ori	a6,a6,1
    2b68:	06235e5b          	beqc	t1,2,2be4 <__muldf3+0x614>
    2b6c:	0833585b          	beqc	t1,3,2bfc <__muldf3+0x62c>
    2b70:	4585                	c.li	a1,1
    2b72:	4781                	c.li	a5,0
    2b74:	02031863          	bnez	t1,2ba4 <__muldf3+0x5d4>
    2b78:	4781                	c.li	a5,0
    2b7a:	4585                	c.li	a1,1
    2b7c:	00f67713          	andi	a4,a2,15
    2b80:	aa47565b          	beqc	a4,4,2a2c <__muldf3+0x45c>
    2b84:	00460713          	addi	a4,a2,4
    2b88:	00c73633          	sltu	a2,a4,a2
    2b8c:	97b2                	c.add	a5,a2
    2b8e:	863a                	c.mv	a2,a4
    2b90:	e9dff06f          	j	2a2c <__muldf3+0x45c>
    2b94:	f80e8ae3          	beqz	t4,2b28 <__muldf3+0x558>
    2b98:	f65ff06f          	j	2afc <__muldf3+0x52c>
    2b9c:	da0e9ce3          	bnez	t4,2954 <__muldf3+0x384>
    2ba0:	f75ff06f          	j	2b14 <__muldf3+0x544>
    2ba4:	00365713          	srli	a4,a2,0x3
    2ba8:	01d79613          	slli	a2,a5,0x1d
    2bac:	8e59                	c.or	a2,a4
    2bae:	5837a7db          	bfoz	a5,a5,22,3
    2bb2:	4701                	c.li	a4,0
    2bb4:	e89ff06f          	j	2a3c <__muldf3+0x46c>
    2bb8:	e20e98e3          	bnez	t4,29e8 <__muldf3+0x418>
    2bbc:	ff863713          	sltiu	a4,a2,-8
    2bc0:	00174713          	xori	a4,a4,1
    2bc4:	973e                	c.add	a4,a5
    2bc6:	b50d                	c.j	29e8 <__muldf3+0x418>
    2bc8:	e20e80e3          	beqz	t4,29e8 <__muldf3+0x418>
    2bcc:	ff1ff06f          	j	2bbc <__muldf3+0x5ec>
    2bd0:	00f67593          	andi	a1,a2,15
    2bd4:	a045da5b          	beqc	a1,4,29e8 <__muldf3+0x418>
    2bd8:	ffc63713          	sltiu	a4,a2,-4
    2bdc:	00174713          	xori	a4,a4,1
    2be0:	973e                	c.add	a4,a5
    2be2:	b519                	c.j	29e8 <__muldf3+0x418>
    2be4:	4781                	c.li	a5,0
    2be6:	4585                	c.li	a1,1
    2be8:	e40e82e3          	beqz	t4,2a2c <__muldf3+0x45c>
    2bec:	00860713          	addi	a4,a2,8
    2bf0:	00c73633          	sltu	a2,a4,a2
    2bf4:	97b2                	c.add	a5,a2
    2bf6:	863a                	c.mv	a2,a4
    2bf8:	e35ff06f          	j	2a2c <__muldf3+0x45c>
    2bfc:	4781                	c.li	a5,0
    2bfe:	4585                	c.li	a1,1
    2c00:	e20e96e3          	bnez	t4,2a2c <__muldf3+0x45c>
    2c04:	fe9ff06f          	j	2bec <__muldf3+0x61c>
    2c08:	820d                	c.srli	a2,0x3
    2c0a:	88f6                	c.mv	a7,t4
    2c0c:	4701                	c.li	a4,0
    2c0e:	4781                	c.li	a5,0
    2c10:	e35ff06f          	j	2a44 <__muldf3+0x474>
    2c14:	4585                	c.li	a1,1
    2c16:	bbf9                	c.j	29f4 <__muldf3+0x424>
    2c18:	0001                	c.nop
	...

00002c1c <__fixunsdfsi>:
    2c1c:	002027f3          	frrm	a5
    2c20:	3fe00713          	li	a4,1022
    2c24:	7945a6db          	bfoz	a3,a1,30,20
    2c28:	4c05a7db          	bfoz	a5,a1,19,0
    2c2c:	81fd                	c.srli	a1,0x1f
    2c2e:	00d74963          	blt	a4,a3,2c40 <__fixunsdfsi+0x24>
    2c32:	ce89                	c.beqz	a3,2c4c <__fixunsdfsi+0x30>
    2c34:	4501                	c.li	a0,0
    2c36:	4785                	c.li	a5,1
    2c38:	0017a073          	csrs	fflags,a5
    2c3c:	00008067          	ret
    2c40:	c991                	c.beqz	a1,2c54 <__fixunsdfsi+0x38>
    2c42:	4501                	c.li	a0,0
    2c44:	47c1                	c.li	a5,16
    2c46:	0017a073          	csrs	fflags,a5
    2c4a:	8082                	c.jr	ra
    2c4c:	8d5d                	c.or	a0,a5
    2c4e:	f17d                	c.bnez	a0,2c34 <__fixunsdfsi+0x18>
    2c50:	00008067          	ret
    2c54:	41e00713          	li	a4,1054
    2c58:	02d74863          	blt	a4,a3,2c88 <__fixunsdfsi+0x6c>
    2c5c:	43300613          	li	a2,1075
    2c60:	00100737          	lui	a4,0x100
    2c64:	8e15                	c.sub	a2,a3
    2c66:	45fd                	c.li	a1,31
    2c68:	8f5d                	c.or	a4,a5
    2c6a:	02c5c363          	blt	a1,a2,2c90 <__fixunsdfsi+0x74>
    2c6e:	bed68693          	addi	a3,a3,-1043 # 800ffbed <_DATA_LMA_START+0x600fc935>
    2c72:	00d517b3          	sll	a5,a0,a3
    2c76:	00d71733          	sll	a4,a4,a3
    2c7a:	00c55533          	srl	a0,a0,a2
    2c7e:	00f037b3          	snez	a5,a5
    2c82:	8d59                	c.or	a0,a4
    2c84:	fbd5                	c.bnez	a5,2c38 <__fixunsdfsi+0x1c>
    2c86:	8082                	c.jr	ra
    2c88:	557d                	c.li	a0,-1
    2c8a:	47c1                	c.li	a5,16
    2c8c:	fadff06f          	j	2c38 <__fixunsdfsi+0x1c>
    2c90:	000658db          	beqc	a2,32,2ca0 <__fixunsdfsi+0x84>
    2c94:	c0d68793          	addi	a5,a3,-1011
    2c98:	00f717b3          	sll	a5,a4,a5
    2c9c:	00f56533          	or	a0,a0,a5
    2ca0:	41300793          	li	a5,1043
    2ca4:	40d786b3          	sub	a3,a5,a3
    2ca8:	00a037b3          	snez	a5,a0
    2cac:	00d75533          	srl	a0,a4,a3
    2cb0:	bfd1                	c.j	2c84 <__fixunsdfsi+0x68>
    2cb2:	0001                	c.nop

00002cb4 <__floatsidf>:
    2cb4:	c925                	c.beqz	a0,2d24 <__floatsidf+0x70>
    2cb6:	40a007b3          	neg	a5,a0
    2cba:	01f55613          	srli	a2,a0,0x1f
    2cbe:	f2f5057f          	maxw	a0,a0,a5
    2cc2:	af95077f          	clz32	a4,a0
    2cc6:	41e00793          	li	a5,1054
    2cca:	8f99                	c.sub	a5,a4
    2ccc:	46a9                	c.li	a3,10
    2cce:	7ff7f793          	andi	a5,a5,2047
    2cd2:	02e6df63          	bge	a3,a4,2d10 <__floatsidf+0x5c>
    2cd6:	1755                	c.addi	a4,-11
    2cd8:	00e516b3          	sll	a3,a0,a4
    2cdc:	4c06a6db          	bfoz	a3,a3,19,0
    2ce0:	00000713          	li	a4,0
    2ce4:	4581                	c.li	a1,0
    2ce6:	853a                	c.mv	a0,a4
    2ce8:	fff00737          	lui	a4,0xfff00
    2cec:	8f6d                	c.and	a4,a1
    2cee:	4c06a6db          	bfoz	a3,a3,19,0
    2cf2:	8ed9                	c.or	a3,a4
    2cf4:	01479713          	slli	a4,a5,0x14
    2cf8:	801007b7          	lui	a5,0x80100
    2cfc:	17fd                	c.addi	a5,-1
    2cfe:	8ff5                	c.and	a5,a3
    2d00:	8fd9                	c.or	a5,a4
    2d02:	7807a7db          	bfoz	a5,a5,30,0
    2d06:	01f61713          	slli	a4,a2,0x1f
    2d0a:	00e7e5b3          	or	a1,a5,a4
    2d0e:	8082                	c.jr	ra
    2d10:	46ad                	c.li	a3,11
    2d12:	8e99                	c.sub	a3,a4
    2d14:	00d556b3          	srl	a3,a0,a3
    2d18:	0755                	c.addi	a4,21
    2d1a:	00e51733          	sll	a4,a0,a4
    2d1e:	4c06a6db          	bfoz	a3,a3,19,0
    2d22:	b7c9                	c.j	2ce4 <__floatsidf+0x30>
    2d24:	4601                	c.li	a2,0
    2d26:	4781                	c.li	a5,0
    2d28:	4681                	c.li	a3,0
    2d2a:	4701                	c.li	a4,0
    2d2c:	bf65                	c.j	2ce4 <__floatsidf+0x30>
	...

00002d30 <__extendsfdf2>:
    2d30:	e0050753          	fmv.x.w	a4,fa0
    2d34:	002027f3          	frrm	a5
    2d38:	797727db          	bfoz	a5,a4,30,23
    2d3c:	00178593          	addi	a1,a5,1 # 80100001 <_DATA_LMA_START+0x600fcd49>
    2d40:	0ff5f593          	andi	a1,a1,255
    2d44:	4505                	c.li	a0,1
    2d46:	580726db          	bfoz	a3,a4,22,0
    2d4a:	01f75613          	srli	a2,a4,0x1f
    2d4e:	02b55d63          	bge	a0,a1,2d88 <__extendsfdf2+0x58>
    2d52:	0036d713          	srli	a4,a3,0x3
    2d56:	38078793          	addi	a5,a5,896
    2d5a:	06f6                	c.slli	a3,0x1d
    2d5c:	4581                	c.li	a1,0
    2d5e:	8536                	c.mv	a0,a3
    2d60:	fff006b7          	lui	a3,0xfff00
    2d64:	8eed                	c.and	a3,a1
    2d66:	4c07275b          	bfoz	a4,a4,19,0
    2d6a:	8ed9                	c.or	a3,a4
    2d6c:	51e7a75b          	bfoz	a4,a5,20,30
    2d70:	801007b7          	lui	a5,0x80100
    2d74:	17fd                	c.addi	a5,-1
    2d76:	8ff5                	c.and	a5,a3
    2d78:	8fd9                	c.or	a5,a4
    2d7a:	7807a7db          	bfoz	a5,a5,30,0
    2d7e:	01f61713          	slli	a4,a2,0x1f
    2d82:	00e7e5b3          	or	a1,a5,a4
    2d86:	8082                	c.jr	ra
    2d88:	e785                	c.bnez	a5,2db0 <__extendsfdf2+0x80>
    2d8a:	cabd                	c.beqz	a3,2e00 <__extendsfdf2+0xd0>
    2d8c:	af9685ff          	clz32	a1,a3
    2d90:	47a9                	c.li	a5,10
    2d92:	06b7db63          	bge	a5,a1,2e08 <__extendsfdf2+0xd8>
    2d96:	ff558713          	addi	a4,a1,-11 # fff5 <BIN_SIZE+0xc857>
    2d9a:	00e69733          	sll	a4,a3,a4
    2d9e:	4681                	c.li	a3,0
    2da0:	38900793          	li	a5,905
    2da4:	8f8d                	c.sub	a5,a1
    2da6:	4c07275b          	bfoz	a4,a4,19,0
    2daa:	7ff7f793          	andi	a5,a5,2047
    2dae:	b77d                	c.j	2d5c <__extendsfdf2+0x2c>
    2db0:	c6a1                	c.beqz	a3,2df8 <__extendsfdf2+0xc8>
    2db2:	00080737          	lui	a4,0x80
    2db6:	0036d793          	srli	a5,a3,0x3
    2dba:	00100837          	lui	a6,0x100
    2dbe:	8fd9                	c.or	a5,a4
    2dc0:	187d                	c.addi	a6,-1
    2dc2:	01d69713          	slli	a4,a3,0x1d
    2dc6:	0107f7b3          	and	a5,a5,a6
    2dca:	4566f95b          	bbs	a3,22,2e1c <__extendsfdf2+0xec>
    2dce:	4581                	c.li	a1,0
    2dd0:	853a                	c.mv	a0,a4
    2dd2:	fff00737          	lui	a4,0xfff00
    2dd6:	8f6d                	c.and	a4,a1
    2dd8:	0107f7b3          	and	a5,a5,a6
    2ddc:	8fd9                	c.or	a5,a4
    2dde:	7ff006b7          	lui	a3,0x7ff00
    2de2:	8edd                	c.or	a3,a5
    2de4:	01f61713          	slli	a4,a2,0x1f
    2de8:	7806a6db          	bfoz	a3,a3,30,0
    2dec:	00e6e5b3          	or	a1,a3,a4
    2df0:	00186073          	csrsi	fflags,16
    2df4:	00008067          	ret
    2df8:	7ff00793          	li	a5,2047
    2dfc:	4701                	c.li	a4,0
    2dfe:	bfb9                	c.j	2d5c <__extendsfdf2+0x2c>
    2e00:	4781                	c.li	a5,0
    2e02:	4701                	c.li	a4,0
    2e04:	f59ff06f          	j	2d5c <__extendsfdf2+0x2c>
    2e08:	472d                	c.li	a4,11
    2e0a:	8f0d                	c.sub	a4,a1
    2e0c:	01558793          	addi	a5,a1,21
    2e10:	00e6d733          	srl	a4,a3,a4
    2e14:	00f696b3          	sll	a3,a3,a5
    2e18:	f89ff06f          	j	2da0 <__extendsfdf2+0x70>
    2e1c:	4581                	c.li	a1,0
    2e1e:	853a                	c.mv	a0,a4
    2e20:	fff00737          	lui	a4,0xfff00
    2e24:	8f6d                	c.and	a4,a1
    2e26:	0107f7b3          	and	a5,a5,a6
    2e2a:	8fd9                	c.or	a5,a4
    2e2c:	7ff006b7          	lui	a3,0x7ff00
    2e30:	8edd                	c.or	a3,a5
    2e32:	01f61713          	slli	a4,a2,0x1f
    2e36:	7806a6db          	bfoz	a3,a3,30,0
    2e3a:	00e6e5b3          	or	a1,a3,a4
    2e3e:	8082                	c.jr	ra

00002e40 <__riscv_save_12>:
    2e40:	7139                	c.addi16sp	sp,-64
    2e42:	4301                	c.li	t1,0
    2e44:	c66e                	c.swsp	s11,12(sp)
    2e46:	a019                	c.j	2e4c <__riscv_save_10+0x4>

00002e48 <__riscv_save_10>:
    2e48:	7139                	c.addi16sp	sp,-64
    2e4a:	5341                	c.li	t1,-16
    2e4c:	c86a                	c.swsp	s10,16(sp)
    2e4e:	ca66                	c.swsp	s9,20(sp)
    2e50:	cc62                	c.swsp	s8,24(sp)
    2e52:	ce5e                	c.swsp	s7,28(sp)
    2e54:	a019                	c.j	2e5a <__riscv_save_4+0x4>

00002e56 <__riscv_save_4>:
    2e56:	7139                	c.addi16sp	sp,-64
    2e58:	5301                	c.li	t1,-32
    2e5a:	d05a                	c.swsp	s6,32(sp)
    2e5c:	d256                	c.swsp	s5,36(sp)
    2e5e:	d452                	c.swsp	s4,40(sp)
    2e60:	d64e                	c.swsp	s3,44(sp)
    2e62:	d84a                	c.swsp	s2,48(sp)
    2e64:	da26                	c.swsp	s1,52(sp)
    2e66:	dc22                	c.swsp	s0,56(sp)
    2e68:	de06                	c.swsp	ra,60(sp)
    2e6a:	40610133          	sub	sp,sp,t1
    2e6e:	8282                	c.jr	t0

00002e70 <__riscv_save_0>:
    2e70:	1141                	c.addi	sp,-16
    2e72:	c04a                	c.swsp	s2,0(sp)
    2e74:	c226                	c.swsp	s1,4(sp)
    2e76:	c422                	c.swsp	s0,8(sp)
    2e78:	c606                	c.swsp	ra,12(sp)
    2e7a:	8282                	c.jr	t0

00002e7c <__riscv_restore_12>:
    2e7c:	4db2                	c.lwsp	s11,12(sp)
    2e7e:	0141                	c.addi	sp,16

00002e80 <__riscv_restore_10>:
    2e80:	4d02                	c.lwsp	s10,0(sp)
    2e82:	4c92                	c.lwsp	s9,4(sp)
    2e84:	4c22                	c.lwsp	s8,8(sp)
    2e86:	4bb2                	c.lwsp	s7,12(sp)
    2e88:	0141                	c.addi	sp,16

00002e8a <__riscv_restore_4>:
    2e8a:	4b02                	c.lwsp	s6,0(sp)
    2e8c:	4a92                	c.lwsp	s5,4(sp)
    2e8e:	4a22                	c.lwsp	s4,8(sp)
    2e90:	49b2                	c.lwsp	s3,12(sp)
    2e92:	0141                	c.addi	sp,16

00002e94 <__riscv_restore_0>:
    2e94:	4902                	c.lwsp	s2,0(sp)
    2e96:	4492                	c.lwsp	s1,4(sp)
    2e98:	4422                	c.lwsp	s0,8(sp)
    2e9a:	40b2                	c.lwsp	ra,12(sp)
    2e9c:	0141                	c.addi	sp,16
    2e9e:	8082                	c.jr	ra

00002ea0 <_sbrk>:
    2ea0:	d03fa72b          	lwgp	a4,-768 # 80500 <heap_end.2408>
    2ea4:	d01f978b          	addigp	a5,-768 # 80500 <heap_end.2408>
    2ea8:	e701                	c.bnez	a4,2eb0 <_sbrk+0x10>
    2eaa:	d31f970b          	addigp	a4,-720 # 80530 <_end>
    2eae:	c398                	c.sw	a4,0(a5)
    2eb0:	4398                	c.lw	a4,0(a5)
    2eb2:	953a                	c.add	a0,a4
    2eb4:	00a17663          	bgeu	sp,a0,2ec0 <_sbrk+0x20>
    2eb8:	4731                	c.li	a4,12
    2eba:	8c70                	exec.it	#55     !
    2ebc:	557d                	c.li	a0,-1
    2ebe:	8082                	c.jr	ra
    2ec0:	c388                	c.sw	a0,0(a5)
    2ec2:	853a                	c.mv	a0,a4
    2ec4:	8082                	c.jr	ra
	...

00002ec8 <__lshrdi3>:
    2ec8:	ce11                	c.beqz	a2,2ee4 <__lshrdi3+0x1c>
    2eca:	02000793          	li	a5,32
    2ece:	8f91                	c.sub	a5,a2
    2ed0:	00f05c63          	blez	a5,2ee8 <__lshrdi3+0x20>
    2ed4:	00c55533          	srl	a0,a0,a2
    2ed8:	00f597b3          	sll	a5,a1,a5
    2edc:	00c5d633          	srl	a2,a1,a2
    2ee0:	8d5d                	c.or	a0,a5
    2ee2:	85b2                	c.mv	a1,a2
    2ee4:	00008067          	ret
    2ee8:	40f00533          	neg	a0,a5
    2eec:	4601                	c.li	a2,0
    2eee:	00a5d533          	srl	a0,a1,a0
    2ef2:	85b2                	c.mv	a1,a2
    2ef4:	bfc5                	c.j	2ee4 <__lshrdi3+0x1c>
    2ef6:	0001                	c.nop

00002ef8 <__ashldi3>:
    2ef8:	ce11                	c.beqz	a2,2f14 <__ashldi3+0x1c>
    2efa:	02000793          	li	a5,32
    2efe:	8f91                	c.sub	a5,a2
    2f00:	00f05c63          	blez	a5,2f18 <__ashldi3+0x20>
    2f04:	00c595b3          	sll	a1,a1,a2
    2f08:	00f557b3          	srl	a5,a0,a5
    2f0c:	00c51633          	sll	a2,a0,a2
    2f10:	8ddd                	c.or	a1,a5
    2f12:	8532                	c.mv	a0,a2
    2f14:	00008067          	ret
    2f18:	40f005b3          	neg	a1,a5
    2f1c:	4601                	c.li	a2,0
    2f1e:	00b515b3          	sll	a1,a0,a1
    2f22:	8532                	c.mv	a0,a2
    2f24:	bfc5                	c.j	2f14 <__ashldi3+0x1c>
    2f26:	0001                	c.nop
    2f28:	0010                	0x10
    2f2a:	0000                	unimp
    2f2c:	0000                	unimp
    2f2e:	0000                	unimp
    2f30:	7a01                	c.lui	s4,0xfffe0
    2f32:	0052                	c.slli	zero,0x14
    2f34:	7c01                	c.lui	s8,0xfffe0
    2f36:	0105                	c.addi	sp,1
    2f38:	00020d1b          	sext.w	s10,tp
    2f3c:	0048                	c.addi4spn	a0,sp,4
    2f3e:	0000                	unimp
    2f40:	0018                	0x18
    2f42:	0000                	unimp
    2f44:	fefc                	c.fsw	fa5,124(a3)
    2f46:	0030ffff          	0x30ffff
    2f4a:	0000                	unimp
    2f4c:	4200                	c.lw	s0,0(a2)
    2f4e:	400e                	0x400e
    2f50:	9b44                	exec.it	#876     !
    2f52:	420d                	c.li	tp,3
    2f54:	400e42db          	0x400e42db
    2f58:	9a44                	exec.it	#364     !
    2f5a:	420c                	c.lw	a1,0(a2)
    2f5c:	0b99                	c.addi	s7,6
    2f5e:	9842                	c.add	a6,a6
    2f60:	420a                	c.lwsp	tp,128(sp)
    2f62:	d7420997          	auipc	s3,0xd7420
    2f66:	d9d8                	c.sw	a4,52(a1)
    2f68:	dbda                	c.swsp	s6,244(sp)
    2f6a:	0e42                	c.slli	t3,0x10
    2f6c:	4440                	c.lw	s0,12(s0)
    2f6e:	0896                	c.slli	a7,0x5
    2f70:	9542                	c.add	a0,a6
    2f72:	06944207          	flq	ft4,105(s0)
    2f76:	9342                	c.add	t1,a6
    2f78:	4205                	c.li	tp,1
    2f7a:	0492                	c.slli	s1,0x4
    2f7c:	8942                	c.mv	s2,a6
    2f7e:	02884203          	lbu	tp,40(a6) # 100028 <FLASH_SIZE+0x28>
    2f82:	8142                	c.mv	sp,a6
    2f84:	0001                	c.nop
    2f86:	0000                	unimp
    2f88:	001c                	0x1c
    2f8a:	0000                	unimp
    2f8c:	0064                	c.addi4spn	s1,sp,12
    2f8e:	0000                	unimp
    2f90:	fee0                	c.fsw	fs0,124(a3)
    2f92:	000cffff          	0xcffff
    2f96:	0000                	unimp
    2f98:	4200                	c.lw	s0,0(a2)
    2f9a:	100e                	c.slli	zero,0x23
    2f9c:	8944                	exec.it	#556     !
    2f9e:	4204                	c.lw	s1,0(a2)
    2fa0:	0288                	c.addi4spn	a0,sp,320
    2fa2:	8142                	c.mv	sp,a6
    2fa4:	0001                	c.nop
    2fa6:	0000                	unimp
    2fa8:	002c                	c.addi4spn	a1,sp,8
    2faa:	0000                	unimp
    2fac:	0000                	unimp
    2fae:	0000                	unimp
    2fb0:	7a01                	c.lui	s4,0xfffe0
    2fb2:	0052                	c.slli	zero,0x14
    2fb4:	7c01                	c.lui	s8,0xfffe0
    2fb6:	0101                	c.addi	sp,0
    2fb8:	0e020d1b          	addiw	s10,tp,224
    2fbc:	9b40                	exec.it	#868     !
    2fbe:	9a0d                	c.andi	a2,-29
    2fc0:	990c                	exec.it	#908     !
    2fc2:	970a980b          	addigp	a6,-77456 # 6d970 <BIN_SIZE+0x6a1d2>
    2fc6:	9609                	c.srai	a2,0x22
    2fc8:	9508                	exec.it	#898     !
    2fca:	93069407          	flh	fs0,-1744(a3) # 7feff930 <_DATA_LMA_START+0x5fefc678>
    2fce:	9205                	c.srli	a2,0x21
    2fd0:	8904                	exec.it	#524     !
    2fd2:	81028803          	lb	a6,-2032(t0) # 11c2 <sys_init.constprop.2+0x186>
    2fd6:	0001                	c.nop
    2fd8:	0044                	c.addi4spn	s1,sp,4
    2fda:	0000                	unimp
    2fdc:	0034                	c.addi4spn	a3,sp,8
    2fde:	0000                	unimp
    2fe0:	fe9c                	c.fsw	fa5,56(a3)
    2fe2:	0024ffff          	0x24ffff
    2fe6:	0000                	unimp
    2fe8:	4200                	c.lw	s0,0(a2)
    2fea:	0edb42db          	0xedb42db
    2fee:	4230                	c.lw	a2,64(a2)
    2ff0:	42da                	c.lwsp	t0,148(sp)
    2ff2:	42d9                	c.li	t0,22
    2ff4:	42d8                	c.lw	a4,4(a3)
    2ff6:	d8d742d7          	0xd8d742d7
    2ffa:	dad9                	c.beqz	a3,2f90 <__ashldi3+0x98>
    2ffc:	42200edb          	0x42200edb
    3000:	42d6                	c.lwsp	t0,84(sp)
    3002:	42d5                	c.li	t0,21
    3004:	42d4                	c.lw	a3,4(a3)
    3006:	d4d342d3          	0xd4d342d3
    300a:	d6d5                	c.beqz	a3,2fb6 <__ashldi3+0xbe>
    300c:	d9d8                	c.sw	a4,52(a1)
    300e:	dbda                	c.swsp	s6,244(sp)
    3010:	100e                	c.slli	zero,0x23
    3012:	d242                	c.swsp	a6,36(sp)
    3014:	c942                	c.swsp	a6,144(sp)
    3016:	c842                	c.swsp	a6,16(sp)
    3018:	c142                	c.swsp	a6,128(sp)
    301a:	0e42                	c.slli	t3,0x10
    301c:	0000                	unimp
	...

00003020 <_ITB_BASE_>:
    3020:	0ff7f793          	andi	a5,a5,255
    3024:	00080537          	lui	a0,0x80
    3028:	0ff0000f          	fence
    302c:	80140737          	lui	a4,0x80140
    3030:	512000ef          	jal	ra,3542 <_RAMCODE_VMA_END+0x3da>
    3034:	301010ef          	jal	ra,4b34 <BIN_SIZE+0x1396>
    3038:	801407b7          	lui	a5,0x80140
    303c:	54c000ef          	jal	ra,3588 <_RAMCODE_VMA_END+0x420>
    3040:	671022ef          	jal	t0,5eb0 <BIN_SIZE+0x2712>
    3044:	6950206f          	j	5ed8 <BIN_SIZE+0x273a>
    3048:	08100513          	li	a0,129
    304c:	00440493          	addi	s1,s0,4
    3050:	0ff77713          	andi	a4,a4,255
    3054:	0ff5f593          	andi	a1,a1,255
    3058:	06400513          	li	a0,100
    305c:	0005c703          	lbu	a4,0(a1)
    3060:	801404b7          	lui	s1,0x80140
    3064:	6dd000ef          	jal	ra,3f40 <BIN_SIZE+0x7a2>
    3068:	40f507b3          	sub	a5,a0,a5
    306c:	10170783          	lb	a5,257(a4) # 80140101 <_DATA_LMA_START+0x6013ce49>
    3070:	0c050513          	addi	a0,a0,192 # 800c0 <_DATA_VMA_START+0xc0>
    3074:	08800513          	li	a0,136
    3078:	000007b7          	lui	a5,0x0
    307c:	0004c783          	lbu	a5,0(s1) # 80140000 <_DATA_LMA_START+0x6013cd48>
    3080:	10f700a3          	sb	a5,257(a4)
    3084:	0017e793          	ori	a5,a5,1
    3088:	03900513          	li	a0,57
    308c:	7d046073          	csrsi	mmisc_ctl,8
    3090:	0107e793          	ori	a5,a5,16
    3094:	7d047073          	csrci	mmisc_ctl,8
    3098:	30e40783          	lb	a5,782(s0)
    309c:	20a70783          	lb	a5,522(a4)
    30a0:	80140637          	lui	a2,0x80140
    30a4:	20f70523          	sb	a5,522(a4)
    30a8:	6c9020ef          	jal	ra,5f70 <BIN_SIZE+0x27d2>
    30ac:	fee78fa3          	sb	a4,-1(a5)
    30b0:	00478703          	lb	a4,4(a5)
    30b4:	00092783          	lw	a5,0(s2)
    30b8:	1ee78423          	sb	a4,488(a5)
    30bc:	40e50733          	sub	a4,a0,a4
    30c0:	10e780a3          	sb	a4,257(a5)
    30c4:	30f40523          	sb	a5,778(s0)
    30c8:	13c40513          	addi	a0,s0,316
    30cc:	1ee010ef          	jal	ra,42ba <BIN_SIZE+0xb1c>
    30d0:	07f00513          	li	a0,127
    30d4:	01756533          	or	a0,a0,s7
    30d8:	07d00513          	li	a0,125
    30dc:	30a40783          	lb	a5,778(s0)
    30e0:	10178703          	lb	a4,257(a5)
    30e4:	15878793          	addi	a5,a5,344
    30e8:	1e878703          	lb	a4,488(a5)
    30ec:	06500793          	li	a5,101
    30f0:	30f40723          	sb	a5,782(s0)
    30f4:	00f500a3          	sb	a5,1(a0)
    30f8:	7d3000ef          	jal	ra,40ca <BIN_SIZE+0x92c>
    30fc:	ceefcdab          	swgp	a4,-776 # 804f8 <__mculib_REENT_errno>
    3100:	1e070a23          	sb	zero,500(a4)
    3104:	3007a7f3          	csrrs	a5,mstatus,a5
    3108:	3009a9f3          	csrrs	s3,mstatus,s3
    310c:	41f75793          	srai	a5,a4,0x1f
    3110:	fd078793          	addi	a5,a5,-48
    3114:	300477f3          	csrrci	a5,mstatus,8
    3118:	6a1020ef          	jal	ra,5fb8 <BIN_SIZE+0x281a>
    311c:	08000593          	li	a1,128
    3120:	1c872783          	lw	a5,456(a4)
    3124:	20062703          	lw	a4,512(a2) # 80140200 <_DATA_LMA_START+0x6013cf48>
    3128:	1ef70a23          	sb	a5,500(a4)
    312c:	30047773          	csrrci	a4,mstatus,8
    3130:	00478783          	lb	a5,4(a5)
    3134:	641022ef          	jal	t0,5f74 <BIN_SIZE+0x27d6>
    3138:	6f9020ef          	jal	ra,6030 <BIN_SIZE+0x2892>
    313c:	00045703          	lhu	a4,0(s0)
    3140:	01076713          	ori	a4,a4,16
    3144:	67d0206f          	j	5fc0 <BIN_SIZE+0x2822>
    3148:	00840493          	addi	s1,s0,8
    314c:	382000ef          	jal	ra,34ce <_RAMCODE_VMA_END+0x366>
    3150:	00f40123          	sb	a5,2(s0)
    3154:	200000ef          	jal	ra,3354 <_RAMCODE_VMA_END+0x1ec>
    3158:	00c7e793          	ori	a5,a5,12
    315c:	000805b7          	lui	a1,0x80
    3160:	00f92023          	sw	a5,0(s2)
    3164:	00a007b3          	add	a5,zero,a0
