
Andes_DSP_Mag_benchmark.adx:     file format elf32-littleriscv
Andes_DSP_Mag_benchmark.adx
architecture: riscv:rv32, flags 0x00000112:
EXEC_P, HAS_SYMS, D_PAGED
start address 0x20000000

Program Header:
    LOAD off    0x00001000 vaddr 0x20000000 paddr 0x20000000 align 2**12
         filesz 0x0000018a memsz 0x0000018a flags r-x
    LOAD off    0x00002000 vaddr 0x00000000 paddr 0x20000190 align 2**12
         filesz 0x000001bc memsz 0x000001bc flags rwx
    LOAD off    0x00002200 vaddr 0x00000200 paddr 0x20000350 align 2**12
         filesz 0x00007a0c memsz 0x00007a0c flags r-x
    LOAD off    0x0000a000 vaddr 0x00080000 paddr 0x20007d60 align 2**12
         filesz 0x00001c54 memsz 0x00001c54 flags rw-
    LOAD off    0x0000bc98 vaddr 0x00081c98 paddr 0x200099b4 align 2**12
         filesz 0x00000022 memsz 0x00000022 flags rw-
    LOAD off    0x0000cc58 vaddr 0x00081c58 paddr 0x200099b8 align 2**12
         filesz 0x00000000 memsz 0x00000040 flags rw-
0x70000000 off    0x0000bd2d vaddr 0x00000000 paddr 0x00000000 align 2**0
         filesz 0x0000004a memsz 0x00000000 flags r--

Sections:
Idx Name          Size      VMA       LMA       File off  Algn
  0 .vectors      0000018a  20000000  20000000  00001000  2**2
                  CONTENTS, ALLOC, LOAD, READONLY, CODE
  1 .retention_reset 00000154  00000000  20000190  00002000  2**2
                  CONTENTS, ALLOC, LOAD, READONLY, CODE
  2 .retention_data 00000064  00000158  200002e8  00002158  2**2
                  CONTENTS, ALLOC, LOAD, DATA
  3 .ram_code     00007a0c  00000200  20000350  00002200  2**8
                  CONTENTS, ALLOC, LOAD, READONLY, CODE
  4 .data         00001c54  00080000  20007d60  0000a000  2**3
                  CONTENTS, ALLOC, LOAD, DATA
  5 .sbss         0000003c  00081c58  200099b8  0000cc58  2**2
                  ALLOC
  6 .bss          00000004  00081c94  200099f4  0000cc58  2**2
                  ALLOC
  7 .sdk_version  00000022  00081c98  200099b4  0000bc98  2**2
                  CONTENTS, ALLOC, LOAD, DATA
  8 .comment      00000073  00000000  00000000  0000bcba  2**0
                  CONTENTS, READONLY
  9 .riscv.attributes 0000004a  00000000  00000000  0000bd2d  2**0
                  CONTENTS, READONLY
 10 .debug_info   000041a8  00000000  00000000  0000bd77  2**0
                  CONTENTS, READONLY, DEBUGGING
 11 .debug_abbrev 000013c0  00000000  00000000  0000ff1f  2**0
                  CONTENTS, READONLY, DEBUGGING
 12 .debug_loc    000091e1  00000000  00000000  000112df  2**0
                  CONTENTS, READONLY, DEBUGGING
 13 .debug_aranges 000001c0  00000000  00000000  0001a4c0  2**3
                  CONTENTS, READONLY, DEBUGGING
 14 .debug_ranges 00000cf8  00000000  00000000  0001a680  2**0
                  CONTENTS, READONLY, DEBUGGING
 15 .debug_line   00003ac7  00000000  00000000  0001b378  2**0
                  CONTENTS, READONLY, DEBUGGING
 16 .debug_str    0000161c  00000000  00000000  0001ee3f  2**0
                  CONTENTS, READONLY, DEBUGGING
 17 .debug_frame  000001f8  00000000  00000000  0002045c  2**2
                  CONTENTS, READONLY, DEBUGGING
SYMBOL TABLE:
20000000 l    d  .vectors	00000000 .vectors
00000000 l    d  .retention_reset	00000000 .retention_reset
00000158 l    d  .retention_data	00000000 .retention_data
00000200 l    d  .ram_code	00000000 .ram_code
00080000 l    d  .data	00000000 .data
00081c58 l    d  .sbss	00000000 .sbss
00081c94 l    d  .bss	00000000 .bss
00081c98 l    d  .sdk_version	00000000 .sdk_version
00000000 l    d  .comment	00000000 .comment
00000000 l    d  .riscv.attributes	00000000 .riscv.attributes
00000000 l    d  .debug_info	00000000 .debug_info
00000000 l    d  .debug_abbrev	00000000 .debug_abbrev
00000000 l    d  .debug_loc	00000000 .debug_loc
00000000 l    d  .debug_aranges	00000000 .debug_aranges
00000000 l    d  .debug_ranges	00000000 .debug_ranges
00000000 l    d  .debug_line	00000000 .debug_line
00000000 l    d  .debug_str	00000000 .debug_str
00000000 l    d  .debug_frame	00000000 .debug_frame
00000000 l    df *ABS*	00000000 ./boot/cstartup_flash.o
20000028 l       .vectors	00000000 _START
2000008e l       .vectors	00000000 _RETENTION_RESET_INIT
200000a6 l       .vectors	00000000 _RETENTION_RESET_BEGIN
200000b8 l       .vectors	00000000 _RETENTION_DATA_INIT
200000cc l       .vectors	00000000 _RETENTION_DATA_INIT_BEGIN
200000de l       .vectors	00000000 _RAMCODE_INIT
200000f6 l       .vectors	00000000 _RAMCODE_INIT_BEGIN
20000108 l       .vectors	00000000 _DATA_INIT
20000120 l       .vectors	00000000 _DATA_INIT_BEGIN
20000132 l       .vectors	00000000 _ZERO_BSS
20000146 l       .vectors	00000000 _ZERO_BSS_BEGIN
20000152 l       .vectors	00000000 _ZERO_AES
20000166 l       .vectors	00000000 _ZERO_AES_BEGIN
20000172 l       .vectors	00000000 _FILL_STK
20000172 l       .vectors	00000000 _MAIN_FUNC
20000188 l       .vectors	00000000 _END
00000022 l       .retention_reset	00000000 _ISTART
0000002a l       .retention_reset	00000000 _ISWS_USB_DIS
00000088 l       .retention_reset	00000000 _WAKEUP_FLASH
000000a2 l       .retention_reset	00000000 _MSPI_WAIT
000000bc l       .retention_reset	00000000 _WAIT_EFUSE_LOAD_AND_FLASH_WAKEUP_FINISH
000000c2 l       .retention_reset	00000000 _MULTI_ADDRESS_BEGIN
000000d2 l       .retention_reset	00000000 _IZERO_BSS
000000e6 l       .retention_reset	00000000 _IZERO_BSS_BEGIN
000000f2 l       .retention_reset	00000000 _IZERO_AES
00000106 l       .retention_reset	00000000 _IZERO_AES_BEGIN
00000112 l       .retention_reset	00000000 _IFILL_STK
00000112 l       .retention_reset	00000000 _IDATA_INIT
0000012a l       .retention_reset	00000000 _IDATA_INIT_BEGIN
0000013c l       .retention_reset	00000000 _IMAIN_FUNC
00000152 l       .retention_reset	00000000 _IEND
00000040 l       *ABS*	00000000 irqno
00000000 l    df *ABS*	00000000 
00000200 l     F .ram_code	00000020 delay_ms.constprop.12
0000140c l     F .ram_code	000000fc user_calib_adc_vref.constprop.9
00000220 l     F .ram_code	00000044 flash_send_addr
00000264 l     F .ram_code	00000048 flash_send_cmd
000002ac l     F .ram_code	00000060 clock_set_32k_tick
0000030c l     F .ram_code	0000004c analog_read_reg32.constprop.4
00000358 l     F .ram_code	00000024 clock_get_32k_tick
0000037c l     F .ram_code	00000090 pm_stimer_recover
0000040c l     F .ram_code	00000058 plic_exit_critical_sec
00000464 l     F .ram_code	00000060 plic_enter_critical_sec
000004c4 l     F .ram_code	00000180 flash_mspi_read_ram
00001204 l     F .ram_code	00000028 flash_read_uid.constprop.6
0000122c l     F .ram_code	00000028 flash_read_mid
00001254 l     F .ram_code	00000168 flash_read_mid_uid_with_check
00000644 l     F .ram_code	0000014c flash_mspi_read_ram.constprop.7
000013bc l     F .ram_code	00000020 flash_dread
00000790 l     F .ram_code	00000044 analog_write_reg8
000007d4 l     F .ram_code	0000004c analog_read_reg8
00000820 l     F .ram_code	00000140 clock_init_ram.constprop.11
000013dc l     F .ram_code	00000018 clock_init.constprop.10
00001508 l     F .ram_code	00000054 user_calib_freq_offset.constprop.8
00000960 l     F .ram_code	000000b4 pm_wait_bbpll_done
00000a14 l     F .ram_code	00000194 pm_sleep_start
00000ba8 l     F .ram_code	00000120 dr_putchar
00001560 l     F .ram_code	00000018 gpio_input_dis
00000cc8 l     F .ram_code	0000030c pm_sleep_wakeup_ram.constprop.3
000013f4 l     F .ram_code	00000016 pm_sleep_wakeup.constprop.2
00000158 l     O .retention_data	00000004 flash_read_page
0000015c l     O .retention_data	00000001 g_pm_long_suspend
00000160 l     O .retention_data	00000029 pmcd
0000018c l     O .retention_data	00000004 g_pm_tick_32k_calib
00000190 l     O .retention_data	00000004 g_pm_tick_cur
00000194 l     O .retention_data	00000001 g_plic_preempt_en
00000198 l     O .retention_data	00000002 s_flash_preempt_config
0000019a l     O .retention_data	00000001 g_pm_suspend_power_cfg
0000019c l     O .retention_data	00000008 g_pm_early_wakeup_time_us
000001a4 l     O .retention_data	00000004 g_pm_tick_32k_cur
000001a8 l     O .retention_data	00000001 g_pm_tick_update_en
000001ac l     O .retention_data	00000004 g_pm_r_delay_cycle
000001b0 l     O .retention_data	00000008 g_pm_longsleep_early_wakeup_time_us
00080080 l     O .data	00000018 FFT_SIZES
00081c58 l     O .sbss	00000004 clkFastfreq
00081c5c l     O .sbss	00000004 exception_mcause
00081c60 l     O .sbss	00000004 exception_mdcause
00081c64 l     O .sbss	00000004 exception_mepc
00081c68 l     O .sbss	00000004 exception_mstatus
00081c6c l     O .sbss	00000004 exception_mtval
00081c70 l     O .sbss	00000004 g_chip_version
00081c74 l     O .sbss	00000004 g_pm_status_info
00081c44 l     O .data	00000001 init_flag.5287
00081c48 l     O .data	00000006 sys_clk
00081c98 l     O .sdk_version	00000022 sdk_version
00000000 l    df *ABS*	00000000 riscv_dsp_cfft_f32.c
00000000 l    df *ABS*	00000000 riscv_dsp_cfft_q15.c
00000000 l    df *ABS*	00000000 riscv_dsp_cfft_rd2_f32.c
00000000 l    df *ABS*	00000000 riscv_dsp_cfft_rd2_q15.c
00000000 l    df *ABS*	00000000 riscv_dsp_cfft_rd4_f32.c
00000000 l    df *ABS*	00000000 riscv_dsp_cfft_rd4_q15.c
00000000 l    df *ABS*	00000000 riscv_dsp_cmag_f32.c
00000000 l    df *ABS*	00000000 riscv_dsp_cmag_q15.c
00000000 l    df *ABS*	00000000 riscv_dsp_sqrt_q15.c
00000000 l    df *ABS*	00000000 log.c
00000000 l    df *ABS*	00000000 math_err.c
000040b4 l     F .ram_code	00000006 with_errno
00000000 l    df *ABS*	00000000 sinf.c
00000000 l    df *ABS*	00000000 ref_rredf.c
00081b08 l     O .data	00000020 twooverpi.0
00000000 l    df *ABS*	00000000 adddf3.c
00000000 l    df *ABS*	00000000 divdf3.c
00000000 l    df *ABS*	00000000 gedf2.c
00000000 l    df *ABS*	00000000 muldf3.c
00000000 l    df *ABS*	00000000 subdf3.c
00000000 l    df *ABS*	00000000 unorddf2.c
00000000 l    df *ABS*	00000000 fixdfsi.c
00000000 l    df *ABS*	00000000 fixunsdfsi.c
00000000 l    df *ABS*	00000000 floatsidf.c
00000000 l    df *ABS*	00000000 extendsfdf2.c
00000000 l    df *ABS*	00000000 truncdfsf2.c
00000000 l    df *ABS*	00000000 malloc.c
00000000 l    df *ABS*	00000000 nano-mallocr.c
00000000 l    df *ABS*	00000000 nano-mallocr.c
00000000 l    df *ABS*	00000000 printf.c
00000000 l    df *ABS*	00000000 puts.c
00000000 l    df *ABS*	00000000 vprintf.c
0000706a l     F .ram_code	0000003a __vprintf_help
00081c84 l     O .sbss	00000004 __vprintf_buf_len
00081c88 l     O .sbss	00000004 __vprintf_buf
00000000 l    df *ABS*	00000000 printf_impl.c
00000000 l    df *ABS*	00000000 printf_impl_float.c
00000000 l    df *ABS*	00000000 strnlen.c
00000000 l    df *ABS*	00000000 _sbrk.c
00081c90 l     O .sbss	00000004 heap_end.0
00000000 l    df *ABS*	00000000 libgcc2.c
00000000 l    df *ABS*	00000000 libgcc2.c
00000000 l    df *ABS*	00000000 riscv_dsp_cos_table_f32_1024.c
00000000 l    df *ABS*	00000000 riscv_dsp_cos_table_q15_1024.c
00000000 l    df *ABS*	00000000 log_data.c
00000000 l    df *ABS*	00000000 printf_data.c
00000000 l    df *ABS*	00000000 impure.c
00081c94 l     O .bss	00000000 impure_data
00002324  w      .ram_code	00000000 entry_irq55
00002324  w      .ram_code	00000000 entry_irq13
00007a38 g     F .ram_code	00000036 strcpy
00002324  w      .ram_code	00000000 entry_irq15
00007ae4 g     F .ram_code	0000002e .hidden __ashldi3
00002324  w      .ram_code	00000000 entry_irq27
00003c54 g     F .ram_code	0000045e log
00002324  w      .ram_code	00000000 entry_irq60
00002324  w      .ram_code	00000000 entry_irq1
00002324  w      .ram_code	00000000 entry_irq52
00002324  w      .ram_code	00000000 entry_irq50
00002324  w      .ram_code	00000000 entry_irq62
00006fee g     F .ram_code	0000001e printf
00080800 g       .data	00000000 __global_pointer$
00006d54 g       .ram_code	00000000 .hidden __riscv_save_8
00002324  w      .ram_code	00000000 entry_irq58
00006da0 g       .ram_code	00000000 .hidden __riscv_restore_3
000040ba g     F .ram_code	0000003e .hidden __math_divzero
000001bc g       .retention_data	00000000 _RETENTION_DATA_VMA_END
00006d8c g       .ram_code	00000000 .hidden __riscv_restore_10
00002794 g     F .ram_code	00000382 riscv_dsp_cfft_rd2_q15
00006d54 g       .ram_code	00000000 .hidden __riscv_save_11
000055d8 g     F .ram_code	000000c6 .hidden __gtdf2
00003b08 g     F .ram_code	0000009e riscv_dsp_cmag_q15
000070ec g     F .ram_code	00000048 __print_integral
00007134 g     F .ram_code	0000045a __printf_impl_lite
00000000 g       .retention_reset	00000000 _RETENTION_RESET_VMA_START
00002324  w      .ram_code	00000000 entry_irq10
00003324 g     F .ram_code	000006ea riscv_dsp_cfft_rd4_q15
00002324  w      .ram_code	00000000 entry_irq21
00000158 g       .retention_data	00000000 _AES_VMA_START
000042c0 g     F .ram_code	00000146 ref__mathlib_rredf2
00002324  w      .ram_code	00000000 entry_irq48
00006da0 g       .ram_code	00000000 .hidden __riscv_restore_2
00002324  w      .ram_code	00000000 entry_irq8
00002324  w      .ram_code	00000000 entry_irq33
00081c98 g       .bss	00000000 _BSS_VMA_END
00006dbc g     F .ram_code	00000070 memcpy
20000190 g       *ABS*	00000000 _RETENTION_RESET_LMA_START
000040f8 g     F .ram_code	00000040 .hidden __math_invalid
000068c0 g     F .ram_code	0000007a .hidden __floatsidf
00080000 g     O .data	0000001c cst_libm_sincosf
00007134 g     F .ram_code	0000045a __printf_impl
00002324  w      .ram_code	00000000 entry_irq12
0000700c g     F .ram_code	00000032 puts
00006dac g     F .ram_code	00000008 malloc
00002324  w      .ram_code	00000000 entry_irq14
0008081c g     O .data	0000020a riscv_dsp_cos_table_q15_1024
00006d4c g       .ram_code	00000000 .hidden __riscv_save_12
00006828 g     F .ram_code	00000096 .hidden __fixunsdfsi
00002324  w      .ram_code	00000000 entry_irq2
00002324  w      .ram_code	00000000 entry_irq51
00006d8c g       .ram_code	00000000 .hidden __riscv_restore_11
00002324  w      .ram_code	00000000 entry_irq28
00002324  w      .ram_code	00000000 entry_irq43
00006d7c g       .ram_code	00000000 .hidden __riscv_save_1
00006da0 g       .ram_code	00000000 .hidden __riscv_restore_0
00002324  w      .ram_code	00000000 entry_irq20
00006d62 g       .ram_code	00000000 .hidden __riscv_save_7
00081c58 g       .sbss	00000000 _BSS_VMA_START
00002324  w      .ram_code	00000000 entry_irq63
00081c54 g       .data	00000000 _DATA_VMA_END
0000693c g     F .ram_code	00000110 .hidden __extendsfdf2
00002324  w      .ram_code	00000000 entry_irq46
00004408 g     F .ram_code	000009e4 .hidden __adddf3
00002324  w      .ram_code	00000000 entry_irq31
00002324  w      .ram_code	00000000 entry_irq16
00100000 g       *ABS*	00000000 FLASH_SIZE
00006d96 g       .ram_code	00000000 .hidden __riscv_restore_5
00080000 g       .data	00000000 _DATA_VMA_START
00007a86  w    F .ram_code	0000002c _sbrk
00002324  w      .ram_code	00000000 entry_irq53
00002324  w      .ram_code	00000000 entry_irq11
00081af0 g     O .data	00000018 cst_libm_rredf
00000154 g       .retention_reset	00000000 _RETENTION_RESET_VMA_END
00007a6e g     F .ram_code	00000018 strnlen
00006d96 g       .ram_code	00000000 .hidden __riscv_restore_6
00002b18 g     F .ram_code	0000080a riscv_dsp_cfft_rd4_f32
00080a40 g     O .data	00001090 .hidden __log_data
00002324  w      .ram_code	00000000 entry_irq5
00006760 g     F .ram_code	000000c8 .hidden __fixdfsi
00002324  w      .ram_code	00000000 entry_irq23
00002326  w      .ram_code	00000000 trap_handler
00002324  w      .ram_code	00000000 entry_irq34
00007ab4 g     F .ram_code	0000002e .hidden __lshrdi3
00002324  w      .ram_code	00000000 entry_irq36
00006d54 g       .ram_code	00000000 .hidden __riscv_save_9
00002324  w      .ram_code	00000000 entry_irq44
000070a4 g     F .ram_code	00000048 vprintf
00002324  w      .ram_code	00000000 entry_irq45
00002324  w      .ram_code	00000000 entry_irq26
00006d62 g       .ram_code	00000000 .hidden __riscv_save_4
00002324  w      .ram_code	00000000 entry_irq41
00002324  w      .ram_code	00000000 entry_irq61
20000000 g       .vectors	00000000 BIN_BEGIN
00006eb6 g     F .ram_code	00000090 _free_r
00006d7c g       .ram_code	00000000 .hidden __riscv_save_3
00002324  w      .ram_code	00000000 entry_irq38
00001100 g       .ram_code	00000000 __vectors
000099d6 g       *ABS*	00000000 BIN_SIZE
00081ba8 g     O .data	00000010 __digits
0000232c g     F .ram_code	0000001e riscv_dsp_cfft_f32
20000350 g       *ABS*	00000000 _RAMCODE_LMA_START
00081c8c g     O .sbss	00000004 __printf_count
00002324  w      .ram_code	00000000 entry_irq59
00004dec g     F .ram_code	000007ea .hidden __divdf3
00002324  w      .ram_code	00000000 entry_irq6
000056a0 g     F .ram_code	00000648 .hidden __muldf3
00006d54 g       .ram_code	00000000 .hidden __riscv_save_10
00081c78 g     O .sbss	00000004 __mculib_REENT_errno
20007d60 g       *ABS*	00000000 _DATA_LMA_START
000075ae g     F .ram_code	00000088 __print_integral_poly
20000000 g       *ABS*	00000000 NDS_SAG_LMA_FLASH
00006d96 g       .ram_code	00000000 .hidden __riscv_restore_4
00006d8c g       .ram_code	00000000 .hidden __riscv_restore_8
00006d62 g       .ram_code	00000000 .hidden __riscv_save_6
20000000  w      .vectors	00000000 _RELAX_END_
00007636 g     F .ram_code	00000402 __printf_float_impl
00006e30 g     F .ram_code	00000086 memset
00006d8c g       .ram_code	00000000 .hidden __riscv_restore_9
00006d96 g       .ram_code	00000000 .hidden __riscv_restore_7
000015c4 g     F .ram_code	00000d60 main
00002324 g       .ram_code	00000000 default_irq_entry
00003a10 g     F .ram_code	000000f6 riscv_dsp_cmag_f32
00002324  w      .ram_code	00000000 entry_irq3
00000fd4 g     F .ram_code	00000100 trap_entry
00000158 g       .retention_data	00000000 _AES_VMA_END
00006a4c g     F .ram_code	00000300 .hidden __truncdfsf2
00002324  w      .ram_code	00000000 entry_irq39
00002324  w      .ram_code	00000000 entry_irq49
00006f46 g     F .ram_code	000000a8 _malloc_r
00002324  w      .ram_code	00000000 entry_irq57
00002324  w      .ram_code	00000000 entry_irq47
200002e8 g       *ABS*	00000000 _RETENTION_DATA_LMA_START
20000000 g     F .vectors	00000000 _RESET_ENTRY
00006fee g     F .ram_code	0000001e iprintf
00000158 g       .retention_data	00000000 _RETENTION_DATA_VMA_START
00002324  w      .ram_code	00000000 entry_irq4
000a0000 g       *ABS*	00000000 _STACK_TOP
00002324  w      .ram_code	00000000 entry_irq22
00002324  w      .ram_code	00000000 entry_irq30
00081c50 g     O .data	00000004 _impure_ptr
00002324  w      .ram_code	00000000 entry_irq42
00002324  w      .ram_code	00000000 entry_irq24
00004138 g     F .ram_code	00000188 sinf
00006d7c g       .ram_code	00000000 .hidden __riscv_save_2
00007c0c g       .ram_code	00000000 _RAMCODE_VMA_END
00080408 g     O .data	00000414 riscv_dsp_cos_table_f32_1024
00000000  w      *ABS*	00000000 _ITB_BASE_
00006d62 g       .ram_code	00000000 .hidden __riscv_save_5
00002324  w      .ram_code	00000000 entry_irq19
00003ba8 g     F .ram_code	000000aa riscv_dsp_sqrt_q15
0000157c g     F .ram_code	00000048 _write
00081cc0 g       .sdk_version	00000000 _end
00002324  w      .ram_code	00000000 entry_irq17
0000236c g     F .ram_code	00000424 riscv_dsp_cfft_rd2_f32
00002324  w      .ram_code	00000000 entry_irq9
00002324  w      .ram_code	00000000 entry_irq56
00002324  w      .ram_code	00000000 entry_irq35
00002324  w      .ram_code	00000000 entry_irq37
000001b8 g     O .retention_data	00000004 g_pm_mspi_cfg
00002324  w      .ram_code	00000000 entry_irq54
00002324  w      .ram_code	00000000 entry_irq40
0000234c g     F .ram_code	0000001e riscv_dsp_cfft_q15
00006d88 g       .ram_code	00000000 .hidden __riscv_restore_12
00000200 g       .ram_code	00000000 _RAMCODE_VMA_START
000066f4 g     F .ram_code	0000006a .hidden __unorddf2
00006d7c g       .ram_code	00000000 .hidden __riscv_save_0
00007040 g     F .ram_code	00000028 strlen
000055d8 g     F .ram_code	000000c6 .hidden __gedf2
00002324  w      .ram_code	00000000 entry_irq29
00081c7c g     O .sbss	00000004 __malloc_sbrk_start
00081c80 g     O .sbss	00000004 __malloc_free_list
00006da0 g       .ram_code	00000000 .hidden __riscv_restore_1
00005cec g     F .ram_code	00000a08 .hidden __subdf3
00002324  w      .ram_code	00000000 entry_irq7
00002324  w      .ram_code	00000000 entry_irq32
00000000 g     F .retention_reset	00000000 _IRESET_ENTRY
00002324  w      .ram_code	00000000 entry_irq18
000070a4 g     F .ram_code	00000048 viprintf
0000758e g     F .ram_code	00000020 __int_to_poly
00006db4 g     F .ram_code	00000008 free
00002324  w      .ram_code	00000000 entry_irq25



Disassembly of section .vectors:

20000000 <_RESET_ENTRY>:
20000000:	a025                	c.j	20000028 <_START>
	...
20000016:	0000                	unimp
20000018:	99d6                	c.add	s3,s5
2000001a:	0000                	unimp
2000001c:	0000                	unimp
2000001e:	0000                	unimp
20000020:	544c4e4b          	fnmsub.h	ft8,fs8,ft4,fa0,rmm
20000024:	0000                	unimp
20000026:	          	sllw	a4,zero,zero

20000028 <_START>:
20000028:	e0080197          	auipc	gp,0xe0080
2000002c:	7d818193          	addi	gp,gp,2008 # 80800 <__global_pointer$>
20000030:	801002b7          	lui	t0,0x80100
20000034:	70028293          	addi	t0,t0,1792 # 80100700 <_DATA_LMA_START+0x600f89a0>
20000038:	04000313          	li	t1,64
2000003c:	506280a3          	sb	t1,1281(t0)
20000040:	e00a0297          	auipc	t0,0xe00a0
20000044:	fc028293          	addi	t0,t0,-64 # a0000 <_STACK_TOP>
20000048:	8116                	c.mv	sp,t0
2000004a:	e0000297          	auipc	t0,0xe0000
2000004e:	fb628293          	addi	t0,t0,-74 # 0 <_ITB_BASE_>
20000052:	80029073          	csrw	uitb,t0
20000056:	6299                	c.lui	t0,0x6
20000058:	3002a2f3          	csrrs	t0,mstatus,t0
2000005c:	00301073          	fssr	zero
20000060:	e0001297          	auipc	t0,0xe0001
20000064:	0a028293          	addi	t0,t0,160 # 1100 <__vectors>
20000068:	30529073          	csrw	mtvec,t0
2000006c:	7d016073          	csrsi	mmisc_ctl,2
20000070:	e40002b7          	lui	t0,0xe4000
20000074:	4309                	c.li	t1,2
20000076:	0062a023          	sw	t1,0(t0) # e4000000 <_DATA_LMA_START+0xc3ff82a0>
2000007a:	7ca022f3          	csrr	t0,mcache_ctl
2000007e:	0012e293          	ori	t0,t0,1
20000082:	0022e293          	ori	t0,t0,2
20000086:	7ca29073          	csrw	mcache_ctl,t0
2000008a:	0000100f          	fence.i

2000008e <_RETENTION_RESET_INIT>:
2000008e:	00000317          	auipc	t1,0x0
20000092:	10230313          	addi	t1,t1,258 # 20000190 <_RETENTION_RESET_LMA_START>
20000096:	e0000397          	auipc	t2,0xe0000
2000009a:	f6a38393          	addi	t2,t2,-150 # 0 <_ITB_BASE_>
2000009e:	e0000e17          	auipc	t3,0xe0000
200000a2:	0b6e0e13          	addi	t3,t3,182 # 154 <_RETENTION_RESET_VMA_END>

200000a6 <_RETENTION_RESET_BEGIN>:
200000a6:	01c3f963          	bgeu	t2,t3,200000b8 <_RETENTION_DATA_INIT>
200000aa:	00032283          	lw	t0,0(t1)
200000ae:	0053a023          	sw	t0,0(t2)
200000b2:	0311                	c.addi	t1,4
200000b4:	0391                	c.addi	t2,4
200000b6:	bfc5                	c.j	200000a6 <_RETENTION_RESET_BEGIN>

200000b8 <_RETENTION_DATA_INIT>:
200000b8:	00000317          	auipc	t1,0x0
200000bc:	23030313          	addi	t1,t1,560 # 200002e8 <_RETENTION_DATA_LMA_START>
200000c0:	15800393          	li	t2,344
200000c4:	e0000e17          	auipc	t3,0xe0000
200000c8:	0f8e0e13          	addi	t3,t3,248 # 1bc <_RETENTION_DATA_VMA_END>

200000cc <_RETENTION_DATA_INIT_BEGIN>:
200000cc:	01c3f963          	bgeu	t2,t3,200000de <_RAMCODE_INIT>
200000d0:	00032283          	lw	t0,0(t1)
200000d4:	0053a023          	sw	t0,0(t2)
200000d8:	0311                	c.addi	t1,4
200000da:	0391                	c.addi	t2,4
200000dc:	bfc5                	c.j	200000cc <_RETENTION_DATA_INIT_BEGIN>

200000de <_RAMCODE_INIT>:
200000de:	00000317          	auipc	t1,0x0
200000e2:	27230313          	addi	t1,t1,626 # 20000350 <_RAMCODE_LMA_START>
200000e6:	e0000397          	auipc	t2,0xe0000
200000ea:	11a38393          	addi	t2,t2,282 # 200 <delay_ms.constprop.12>
200000ee:	e0008e17          	auipc	t3,0xe0008
200000f2:	b1ee0e13          	addi	t3,t3,-1250 # 7c0c <_RAMCODE_VMA_END>

200000f6 <_RAMCODE_INIT_BEGIN>:
200000f6:	01c3f963          	bgeu	t2,t3,20000108 <_DATA_INIT>
200000fa:	00032283          	lw	t0,0(t1)
200000fe:	0053a023          	sw	t0,0(t2)
20000102:	0311                	c.addi	t1,4
20000104:	0391                	c.addi	t2,4
20000106:	bfc5                	c.j	200000f6 <_RAMCODE_INIT_BEGIN>

20000108 <_DATA_INIT>:
20000108:	00008317          	auipc	t1,0x8
2000010c:	c5830313          	addi	t1,t1,-936 # 20007d60 <_DATA_LMA_START>
20000110:	e0080397          	auipc	t2,0xe0080
20000114:	ef038393          	addi	t2,t2,-272 # 80000 <cst_libm_sincosf>
20000118:	e0082e17          	auipc	t3,0xe0082
2000011c:	b3ce0e13          	addi	t3,t3,-1220 # 81c54 <_DATA_VMA_END>

20000120 <_DATA_INIT_BEGIN>:
20000120:	01c3f963          	bgeu	t2,t3,20000132 <_ZERO_BSS>
20000124:	00032283          	lw	t0,0(t1)
20000128:	0053a023          	sw	t0,0(t2)
2000012c:	0311                	c.addi	t1,4
2000012e:	0391                	c.addi	t2,4
20000130:	bfc5                	c.j	20000120 <_DATA_INIT_BEGIN>

20000132 <_ZERO_BSS>:
20000132:	000002b7          	lui	t0,0x0
20000136:	e0082397          	auipc	t2,0xe0082
2000013a:	b2238393          	addi	t2,t2,-1246 # 81c58 <_BSS_VMA_START>
2000013e:	e0082e17          	auipc	t3,0xe0082
20000142:	b5ae0e13          	addi	t3,t3,-1190 # 81c98 <_BSS_VMA_END>

20000146 <_ZERO_BSS_BEGIN>:
20000146:	01c3f663          	bgeu	t2,t3,20000152 <_ZERO_AES>
2000014a:	0053a023          	sw	t0,0(t2)
2000014e:	0391                	c.addi	t2,4
20000150:	bfdd                	c.j	20000146 <_ZERO_BSS_BEGIN>

20000152 <_ZERO_AES>:
20000152:	000002b7          	lui	t0,0x0
20000156:	e0000397          	auipc	t2,0xe0000
2000015a:	00238393          	addi	t2,t2,2 # 158 <_AES_VMA_END>
2000015e:	e0000e17          	auipc	t3,0xe0000
20000162:	ffae0e13          	addi	t3,t3,-6 # 158 <_AES_VMA_END>

20000166 <_ZERO_AES_BEGIN>:
20000166:	01c3f663          	bgeu	t2,t3,20000172 <_FILL_STK>
2000016a:	0053a023          	sw	t0,0(t2)
2000016e:	0391                	c.addi	t2,4
20000170:	bfdd                	c.j	20000166 <_ZERO_AES_BEGIN>

20000172 <_FILL_STK>:
20000172:	0001                	c.nop
20000174:	e0001297          	auipc	t0,0xe0001
20000178:	45028293          	addi	t0,t0,1104 # 15c4 <main>
2000017c:	9282                	c.jalr	t0
2000017e:	0001                	c.nop
20000180:	0001                	c.nop
20000182:	0001                	c.nop
20000184:	0001                	c.nop
20000186:	0001                	c.nop

20000188 <_END>:
20000188:	a001                	c.j	20000188 <_END>

Disassembly of section .retention_reset:

00000000 <_IRESET_ENTRY>:
   0:	a00d                	c.j	22 <_ISTART>
	...

00000022 <_ISTART>:
  22:	00080197          	auipc	gp,0x80
  26:	7de18193          	addi	gp,gp,2014 # 80800 <__global_pointer$>

0000002a <_ISWS_USB_DIS>:
  2a:	801002b7          	lui	t0,0x80100
  2e:	70028293          	addi	t0,t0,1792 # 80100700 <_DATA_LMA_START+0x600f89a0>
  32:	04000313          	li	t1,64
  36:	506280a3          	sb	t1,1281(t0)
  3a:	000a0297          	auipc	t0,0xa0
  3e:	fc628293          	addi	t0,t0,-58 # a0000 <_STACK_TOP>
  42:	8116                	c.mv	sp,t0
  44:	00000297          	auipc	t0,0x0
  48:	fbc28293          	addi	t0,t0,-68 # 0 <_IRESET_ENTRY>
  4c:	80029073          	csrw	uitb,t0
  50:	6299                	c.lui	t0,0x6
  52:	3002a2f3          	csrrs	t0,mstatus,t0
  56:	00301073          	fssr	zero
  5a:	00001297          	auipc	t0,0x1
  5e:	0a628293          	addi	t0,t0,166 # 1100 <__vectors>
  62:	30529073          	csrw	mtvec,t0
  66:	7d016073          	csrsi	mmisc_ctl,2
  6a:	e40002b7          	lui	t0,0xe4000
  6e:	4309                	c.li	t1,2
  70:	0062a023          	sw	t1,0(t0) # e4000000 <_DATA_LMA_START+0xc3ff82a0>
  74:	7ca022f3          	csrr	t0,mcache_ctl
  78:	0012e293          	ori	t0,t0,1
  7c:	0022e293          	ori	t0,t0,2
  80:	7ca29073          	csrw	mcache_ctl,t0
  84:	0000100f          	fence.i

00000088 <_WAKEUP_FLASH>:
  88:	801402b7          	lui	t0,0x80140
  8c:	0ff00313          	li	t1,255
  90:	4381                	c.li	t2,0
  92:	0ab00e13          	li	t3,171
  96:	326284a3          	sb	t1,809(t0) # 80140329 <_DATA_LMA_START+0x601385c9>
  9a:	107280a3          	sb	t2,257(t0)
  9e:	11c28023          	sb	t3,256(t0)

000000a2 <_MSPI_WAIT>:
  a2:	801402b7          	lui	t0,0x80140
  a6:	10228383          	lb	t2,258(t0) # 80140102 <_DATA_LMA_START+0x601383a2>
  aa:	4e05                	c.li	t3,1
  ac:	4ec1                	c.li	t4,16
  ae:	fe7e0ae3          	beq	t3,t2,a2 <_MSPI_WAIT>
  b2:	11d280a3          	sb	t4,257(t0)
  b6:	4281                	c.li	t0,0
  b8:	14000313          	li	t1,320

000000bc <_WAIT_EFUSE_LOAD_AND_FLASH_WAKEUP_FINISH>:
  bc:	0285                	c.addi	t0,1
  be:	fe537fe3          	bgeu	t1,t0,bc <_WAIT_EFUSE_LOAD_AND_FLASH_WAKEUP_FINISH>

000000c2 <_MULTI_ADDRESS_BEGIN>:
  c2:	801402b7          	lui	t0,0x80140
  c6:	1b800313          	li	t1,440
  ca:	00032383          	lw	t2,0(t1)
  ce:	1072a223          	sw	t2,260(t0) # 80140104 <_DATA_LMA_START+0x601383a4>

000000d2 <_IZERO_BSS>:
  d2:	000002b7          	lui	t0,0x0
  d6:	00082397          	auipc	t2,0x82
  da:	b8238393          	addi	t2,t2,-1150 # 81c58 <_BSS_VMA_START>
  de:	00082e17          	auipc	t3,0x82
  e2:	bbae0e13          	addi	t3,t3,-1094 # 81c98 <_BSS_VMA_END>

000000e6 <_IZERO_BSS_BEGIN>:
  e6:	01c3f663          	bgeu	t2,t3,f2 <_IZERO_AES>
  ea:	0053a023          	sw	t0,0(t2)
  ee:	0391                	c.addi	t2,4
  f0:	bfdd                	c.j	e6 <_IZERO_BSS_BEGIN>

000000f2 <_IZERO_AES>:
  f2:	000002b7          	lui	t0,0x0
  f6:	00000397          	auipc	t2,0x0
  fa:	06238393          	addi	t2,t2,98 # 158 <_AES_VMA_END>
  fe:	00000e17          	auipc	t3,0x0
 102:	05ae0e13          	addi	t3,t3,90 # 158 <_AES_VMA_END>

00000106 <_IZERO_AES_BEGIN>:
 106:	01c3f663          	bgeu	t2,t3,112 <_IDATA_INIT>
 10a:	0053a023          	sw	t0,0(t2)
 10e:	0391                	c.addi	t2,4
 110:	bfdd                	c.j	106 <_IZERO_AES_BEGIN>

00000112 <_IDATA_INIT>:
 112:	20008317          	auipc	t1,0x20008
 116:	c4e30313          	addi	t1,t1,-946 # 20007d60 <_DATA_LMA_START>
 11a:	00080397          	auipc	t2,0x80
 11e:	ee638393          	addi	t2,t2,-282 # 80000 <cst_libm_sincosf>
 122:	00082e17          	auipc	t3,0x82
 126:	b32e0e13          	addi	t3,t3,-1230 # 81c54 <_DATA_VMA_END>

0000012a <_IDATA_INIT_BEGIN>:
 12a:	01c3f963          	bgeu	t2,t3,13c <_IMAIN_FUNC>
 12e:	00032283          	lw	t0,0(t1)
 132:	0053a023          	sw	t0,0(t2)
 136:	0311                	c.addi	t1,4
 138:	0391                	c.addi	t2,4
 13a:	bfc5                	c.j	12a <_IDATA_INIT_BEGIN>

0000013c <_IMAIN_FUNC>:
 13c:	0001                	c.nop
 13e:	00001297          	auipc	t0,0x1
 142:	48628293          	addi	t0,t0,1158 # 15c4 <main>
 146:	9282                	c.jalr	t0
 148:	0001                	c.nop
 14a:	0001                	c.nop
 14c:	0001                	c.nop
 14e:	0001                	c.nop
 150:	0001                	c.nop

00000152 <_IEND>:
 152:	a001                	c.j	152 <_IEND>

Disassembly of section .ram_code:

00000200 <delay_ms.constprop.12>:
     200:	801407b7          	lui	a5,0x80140
     204:	0004e737          	lui	a4,0x4e
     208:	2007a603          	lw	a2,512(a5) # 80140200 <_DATA_LMA_START+0x601384a0>
     20c:	801406b7          	lui	a3,0x80140
     210:	20070713          	addi	a4,a4,512 # 4e200 <BIN_SIZE+0x4482a>
     214:	2006a783          	lw	a5,512(a3) # 80140200 <_DATA_LMA_START+0x601384a0>
     218:	8f91                	c.sub	a5,a2
     21a:	fef77de3          	bgeu	a4,a5,214 <delay_ms.constprop.12+0x14>
     21e:	8082                	c.jr	ra

00000220 <flash_send_addr>:
     220:	5d05275b          	bfoz	a4,a0,23,16
     224:	801407b7          	lui	a5,0x80140
     228:	801406b7          	lui	a3,0x80140
     22c:	10e78023          	sb	a4,256(a5) # 80140100 <_DATA_LMA_START+0x601383a0>
     230:	10268783          	lb	a5,258(a3) # 80140102 <_DATA_LMA_START+0x601383a2>
     234:	fe07fe5b          	bbs	a5,0,230 <flash_send_addr+0x10>
     238:	3c8527db          	bfoz	a5,a0,15,8
     23c:	80140737          	lui	a4,0x80140
     240:	10f68023          	sb	a5,256(a3)
     244:	10270783          	lb	a5,258(a4) # 80140102 <_DATA_LMA_START+0x601383a2>
     248:	fe07fe5b          	bbs	a5,0,244 <flash_send_addr+0x24>
     24c:	0ff57513          	andi	a0,a0,255
     250:	801406b7          	lui	a3,0x80140
     254:	10a70023          	sb	a0,256(a4)
     258:	10268783          	lb	a5,258(a3) # 80140102 <_DATA_LMA_START+0x601383a2>
     25c:	fe07fe5b          	bbs	a5,0,258 <flash_send_addr+0x38>
     260:	00008067          	ret

00000264 <flash_send_cmd>:
     264:	801407b7          	lui	a5,0x80140
     268:	10178703          	lb	a4,257(a5) # 80140101 <_DATA_LMA_START+0x601383a1>
     26c:	0ff77713          	andi	a4,a4,255
     270:	01076713          	ori	a4,a4,16
     274:	10e780a3          	sb	a4,257(a5)
     278:	0001                	c.nop
     27a:	0001                	c.nop
     27c:	0001                	c.nop
     27e:	0001                	c.nop
     280:	0001                	c.nop
     282:	0001                	c.nop
     284:	0001                	c.nop
     286:	0001                	c.nop
     288:	0001                	c.nop
     28a:	0001                	c.nop
     28c:	10178683          	lb	a3,257(a5)
     290:	80140737          	lui	a4,0x80140
     294:	0ef6f693          	andi	a3,a3,239
     298:	10d780a3          	sb	a3,257(a5)
     29c:	10a78023          	sb	a0,256(a5)
     2a0:	10270783          	lb	a5,258(a4) # 80140102 <_DATA_LMA_START+0x601383a2>
     2a4:	fe07fe5b          	bbs	a5,0,2a0 <flash_send_cmd+0x3c>
     2a8:	00008067          	ret

000002ac <clock_set_32k_tick>:
     2ac:	801406b7          	lui	a3,0x80140
     2b0:	20a68783          	lb	a5,522(a3) # 8014020a <_DATA_LMA_START+0x601384aa>
     2b4:	80140737          	lui	a4,0x80140
     2b8:	0ff7f793          	andi	a5,a5,255
     2bc:	0017e793          	ori	a5,a5,1
     2c0:	20f68523          	sb	a5,522(a3)
     2c4:	20b70683          	lb	a3,523(a4) # 8014020b <_DATA_LMA_START+0x601384ab>
     2c8:	20b70793          	addi	a5,a4,523
     2cc:	fe66fc5b          	bbs	a3,6,2c4 <clock_set_32k_tick+0x18>
     2d0:	20a72623          	sw	a0,524(a4)
     2d4:	4721                	c.li	a4,8
     2d6:	00e78023          	sb	a4,0(a5)
     2da:	0001                	c.nop
     2dc:	0001                	c.nop
     2de:	0001                	c.nop
     2e0:	0001                	c.nop
     2e2:	0001                	c.nop
     2e4:	0001                	c.nop
     2e6:	0001                	c.nop
     2e8:	0001                	c.nop
     2ea:	0001                	c.nop
     2ec:	0001                	c.nop
     2ee:	0001                	c.nop
     2f0:	0001                	c.nop
     2f2:	0001                	c.nop
     2f4:	0001                	c.nop
     2f6:	0001                	c.nop
     2f8:	00000013          	nop
     2fc:	801407b7          	lui	a5,0x80140
     300:	20b78703          	lb	a4,523(a5) # 8014020b <_DATA_LMA_START+0x601384ab>
     304:	fe377e5b          	bbs	a4,3,300 <clock_set_32k_tick+0x54>
     308:	00008067          	ret

0000030c <analog_read_reg32.constprop.4>:
     30c:	300027f3          	csrr	a5,mstatus
     310:	8ba1                	c.andi	a5,8
     312:	c789                	c.beqz	a5,31c <analog_read_reg32.constprop.4+0x10>
     314:	30047773          	csrrci	a4,mstatus,8
     318:	0ff0000f          	fence
     31c:	80140737          	lui	a4,0x80140
     320:	00400693          	li	a3,4
     324:	18d701a3          	sb	a3,387(a4) # 80140183 <_DATA_LMA_START+0x60138423>
     328:	06000693          	li	a3,96
     32c:	18d70023          	sb	a3,384(a4)
     330:	04000613          	li	a2,64
     334:	801406b7          	lui	a3,0x80140
     338:	18c70123          	sb	a2,386(a4)
     33c:	18268703          	lb	a4,386(a3) # 80140182 <_DATA_LMA_START+0x60138422>
     340:	fe777e5b          	bbs	a4,7,33c <analog_read_reg32.constprop.4+0x30>
     344:	1846a503          	lw	a0,388(a3)
     348:	00078663          	beqz	a5,354 <analog_read_reg32.constprop.4+0x48>
     34c:	3007a7f3          	csrrs	a5,mstatus,a5
     350:	0ff0000f          	fence
     354:	00008067          	ret

00000358 <clock_get_32k_tick>:
     358:	1141                	c.addi	sp,-16
     35a:	c422                	c.swsp	s0,8(sp)
     35c:	c606                	c.swsp	ra,12(sp)
     35e:	377d                	c.jal	30c <analog_read_reg32.constprop.4>
     360:	00a00433          	add	s0,zero,a0
     364:	fa9ff0ef          	jal	ra,30c <analog_read_reg32.constprop.4>
     368:	40850733          	sub	a4,a0,s0
     36c:	842a                	c.mv	s0,a0
     36e:	be176b5b          	bnec	a4,1,364 <clock_get_32k_tick+0xc>
     372:	40b2                	c.lwsp	ra,12(sp)
     374:	4422                	c.lwsp	s0,8(sp)
     376:	0141                	c.addi	sp,16
     378:	00008067          	ret

0000037c <pm_stimer_recover>:
     37c:	1141                	c.addi	sp,-16
     37e:	80140737          	lui	a4,0x80140
     382:	c606                	c.swsp	ra,12(sp)
     384:	4789                	c.li	a5,2
     386:	20f70c23          	sb	a5,536(a4) # 80140218 <_DATA_LMA_START+0x601384b8>
     38a:	20a70783          	lb	a5,522(a4)
     38e:	0ff7f793          	andi	a5,a5,255
     392:	00c7e793          	ori	a5,a5,12
     396:	20f70523          	sb	a5,522(a4)
     39a:	3f7d                	c.jal	358 <clock_get_32k_tick>
     39c:	00000737          	lui	a4,0x0
     3a0:	15870793          	addi	a5,a4,344 # 158 <_AES_VMA_END>
     3a4:	0047c783          	lbu	a5,4(a5)
     3a8:	15870713          	addi	a4,a4,344
     3ac:	cf81                	c.beqz	a5,3c4 <pm_stimer_recover+0x48>
     3ae:	4754                	c.lw	a3,12(a4)
     3b0:	5b50                	c.lw	a2,52(a4)
     3b2:	40d506b3          	sub	a3,a0,a3
     3b6:	471c                	c.lw	a5,8(a4)
     3b8:	0685                	c.addi	a3,1
     3ba:	8295                	c.srli	a3,0x5
     3bc:	c4c697ff          	maddr32	a5,a3,a2
     3c0:	0180006f          	j	3d8 <pm_stimer_recover+0x5c>
     3c4:	475c                	c.lw	a5,12(a4)
     3c6:	5b54                	c.lw	a3,52(a4)
     3c8:	40f507b3          	sub	a5,a0,a5
     3cc:	0785                	c.addi	a5,1
     3ce:	02d787b3          	mul	a5,a5,a3
     3d2:	4714                	c.lw	a3,8(a4)
     3d4:	8395                	c.srli	a5,0x5
     3d6:	97b6                	c.add	a5,a3
     3d8:	4754                	c.lw	a3,12(a4)
     3da:	00150593          	addi	a1,a0,1
     3de:	8d15                	c.sub	a0,a3
     3e0:	0505                	c.addi	a0,1
     3e2:	00178613          	addi	a2,a5,1
     3e6:	df1c                	c.sw	a5,56(a4)
     3e8:	d34c                	c.sw	a1,36(a4)
     3ea:	d308                	c.sw	a0,32(a4)
     3ec:	801407b7          	lui	a5,0x80140
     3f0:	801406b7          	lui	a3,0x80140
     3f4:	20c7a023          	sw	a2,512(a5) # 80140200 <_DATA_LMA_START+0x601384a0>
     3f8:	20b68783          	lb	a5,523(a3) # 8014020b <_DATA_LMA_START+0x601384ab>
     3fc:	be77fe5b          	bbc	a5,7,3f8 <pm_stimer_recover+0x7c>
     400:	20068c23          	sb	zero,536(a3)
     404:	40b2                	c.lwsp	ra,12(sp)
     406:	0141                	c.addi	sp,16
     408:	00008067          	ret

0000040c <plic_exit_critical_sec>:
     40c:	000007b7          	lui	a5,0x0
     410:	15878793          	addi	a5,a5,344 # 158 <_AES_VMA_END>
     414:	03c78783          	lb	a5,60(a5)
     418:	0ff7f793          	andi	a5,a5,255
     41c:	c795                	c.beqz	a5,448 <plic_exit_critical_sec+0x3c>
     41e:	c50d                	c.beqz	a0,448 <plic_exit_critical_sec+0x3c>
     420:	300027f3          	csrr	a5,mstatus
     424:	8ba1                	c.andi	a5,8
     426:	0ff5f593          	andi	a1,a1,255
     42a:	c78d                	c.beqz	a5,454 <plic_exit_critical_sec+0x48>
     42c:	30047773          	csrrci	a4,mstatus,8
     430:	0ff0000f          	fence
     434:	e4200737          	lui	a4,0xe4200
     438:	c30c                	c.sw	a1,0(a4)
     43a:	0ff0000f          	fence
     43e:	3007a7f3          	csrrs	a5,mstatus,a5
     442:	0ff0000f          	fence
     446:	8082                	c.jr	ra
     448:	cd81                	c.beqz	a1,460 <plic_exit_critical_sec+0x54>
     44a:	3005a5f3          	csrrs	a1,mstatus,a1
     44e:	0ff0000f          	fence
     452:	8082                	c.jr	ra
     454:	e42007b7          	lui	a5,0xe4200
     458:	00b7a023          	sw	a1,0(a5) # e4200000 <_DATA_LMA_START+0xc41f82a0>
     45c:	0ff0000f          	fence
     460:	00008067          	ret

00000464 <plic_enter_critical_sec>:
     464:	000007b7          	lui	a5,0x0
     468:	15878793          	addi	a5,a5,344 # 158 <_AES_VMA_END>
     46c:	03c78783          	lb	a5,60(a5)
     470:	0ff7f793          	andi	a5,a5,255
     474:	cb85                	c.beqz	a5,4a4 <plic_enter_critical_sec+0x40>
     476:	c51d                	c.beqz	a0,4a4 <plic_enter_critical_sec+0x40>
     478:	e4200737          	lui	a4,0xe4200
     47c:	4308                	c.lw	a0,0(a4)
     47e:	04b57163          	bgeu	a0,a1,4c0 <plic_enter_critical_sec+0x5c>
     482:	300027f3          	csrr	a5,mstatus
     486:	8ba1                	c.andi	a5,8
     488:	cb85                	c.beqz	a5,4b8 <plic_enter_critical_sec+0x54>
     48a:	300476f3          	csrrci	a3,mstatus,8
     48e:	0ff0000f          	fence
     492:	c30c                	c.sw	a1,0(a4)
     494:	0ff0000f          	fence
     498:	3007a7f3          	csrrs	a5,mstatus,a5
     49c:	0ff0000f          	fence
     4a0:	00008067          	ret
     4a4:	30002573          	csrr	a0,mstatus
     4a8:	8921                	c.andi	a0,8
     4aa:	c919                	c.beqz	a0,4c0 <plic_enter_critical_sec+0x5c>
     4ac:	300477f3          	csrrci	a5,mstatus,8
     4b0:	0ff0000f          	fence
     4b4:	00008067          	ret
     4b8:	00b72023          	sw	a1,0(a4) # e4200000 <_DATA_LMA_START+0xc41f82a0>
     4bc:	0ff0000f          	fence
     4c0:	00008067          	ret

000004c4 <flash_mspi_read_ram>:
     4c4:	7179                	c.addi16sp	sp,-48
     4c6:	d226                	c.swsp	s1,36(sp)
     4c8:	000004b7          	lui	s1,0x0
     4cc:	15848493          	addi	s1,s1,344 # 158 <_AES_VMA_END>
     4d0:	d04a                	c.swsp	s2,32(sp)
     4d2:	c65e                	c.swsp	s7,12(sp)
     4d4:	892a                	c.mv	s2,a0
     4d6:	8bae                	c.mv	s7,a1
     4d8:	0404c503          	lbu	a0,64(s1)
     4dc:	0414c583          	lbu	a1,65(s1)
     4e0:	d422                	c.swsp	s0,40(sp)
     4e2:	ce4e                	c.swsp	s3,28(sp)
     4e4:	cc52                	c.swsp	s4,24(sp)
     4e6:	ca56                	c.swsp	s5,20(sp)
     4e8:	c85a                	c.swsp	s6,16(sp)
     4ea:	d606                	c.swsp	ra,44(sp)
     4ec:	8b32                	c.mv	s6,a2
     4ee:	8ab6                	c.mv	s5,a3
     4f0:	843a                	c.mv	s0,a4
     4f2:	8a3e                	c.mv	s4,a5
     4f4:	f71ff0ef          	jal	ra,464 <plic_enter_critical_sec>
     4f8:	80140637          	lui	a2,0x80140
     4fc:	00a009b3          	add	s3,zero,a0
     500:	10260783          	lb	a5,258(a2) # 80140102 <_DATA_LMA_START+0x601383a2>
     504:	fe07fe5b          	bbs	a5,0,500 <flash_mspi_read_ram+0x3c>
     508:	10160783          	lb	a5,257(a2)
     50c:	80140737          	lui	a4,0x80140
     510:	0ff7f793          	andi	a5,a5,255
     514:	0107e793          	ori	a5,a5,16
     518:	10f600a3          	sb	a5,257(a2)
     51c:	32870783          	lb	a5,808(a4) # 80140328 <_DATA_LMA_START+0x601385c8>
     520:	be37fe5b          	bbc	a5,3,51c <flash_mspi_read_ram+0x58>
     524:	10170783          	lb	a5,257(a4)
     528:	854a                	c.mv	a0,s2
     52a:	0fd7f793          	andi	a5,a5,253
     52e:	10f700a3          	sb	a5,257(a4)
     532:	10170783          	lb	a5,257(a4)
     536:	0f37f793          	andi	a5,a5,243
     53a:	10f700a3          	sb	a5,257(a4)
     53e:	331d                	c.jal	264 <flash_send_cmd>
     540:	0e0b1e63          	bnez	s6,63c <flash_mspi_read_ram+0x178>
     544:	020a8063          	beqz	s5,564 <flash_mspi_read_ram+0xa0>
     548:	00000713          	li	a4,0
     54c:	80140637          	lui	a2,0x80140
     550:	10060023          	sb	zero,256(a2) # 80140100 <_DATA_LMA_START+0x601383a0>
     554:	10260783          	lb	a5,258(a2)
     558:	fe07fe5b          	bbs	a5,0,554 <flash_mspi_read_ram+0x90>
     55c:	00170713          	addi	a4,a4,1
     560:	ff5718e3          	bne	a4,s5,550 <flash_mspi_read_ram+0x8c>
     564:	01b96cdb          	bnec	s2,59,57c <flash_mspi_read_ram+0xb8>
     568:	80140737          	lui	a4,0x80140
     56c:	10170783          	lb	a5,257(a4) # 80140101 <_DATA_LMA_START+0x601383a1>
     570:	0f37f793          	andi	a5,a5,243
     574:	0047e793          	ori	a5,a5,4
     578:	10f700a3          	sb	a5,257(a4)
     57c:	801406b7          	lui	a3,0x80140
     580:	10168783          	lb	a5,257(a3) # 80140101 <_DATA_LMA_START+0x601383a1>
     584:	80140737          	lui	a4,0x80140
     588:	0ff7f793          	andi	a5,a5,255
     58c:	0027e793          	ori	a5,a5,2
     590:	10f680a3          	sb	a5,257(a3)
     594:	10068023          	sb	zero,256(a3)
     598:	10270783          	lb	a5,258(a4) # 80140102 <_DATA_LMA_START+0x601383a2>
     59c:	fe07fe5b          	bbs	a5,0,598 <flash_mspi_read_ram+0xd4>
     5a0:	10170783          	lb	a5,257(a4)
     5a4:	801406b7          	lui	a3,0x80140
     5a8:	0ff7f793          	andi	a5,a5,255
     5ac:	0017e793          	ori	a5,a5,1
     5b0:	10f700a3          	sb	a5,257(a4)
     5b4:	10268783          	lb	a5,258(a3) # 80140102 <_DATA_LMA_START+0x601383a2>
     5b8:	fe07fe5b          	bbs	a5,0,5b4 <flash_mspi_read_ram+0xf0>
     5bc:	020a0263          	beqz	s4,5e0 <flash_mspi_read_ram+0x11c>
     5c0:	008a0a33          	add	s4,s4,s0
     5c4:	801406b7          	lui	a3,0x80140
     5c8:	10068783          	lb	a5,256(a3) # 80140100 <_DATA_LMA_START+0x601383a0>
     5cc:	00140413          	addi	s0,s0,1
     5d0:	fef40fa3          	sb	a5,-1(s0)
     5d4:	10268783          	lb	a5,258(a3)
     5d8:	fe07fe5b          	bbs	a5,0,5d4 <flash_mspi_read_ram+0x110>
     5dc:	ff4416e3          	bne	s0,s4,5c8 <flash_mspi_read_ram+0x104>
     5e0:	801407b7          	lui	a5,0x80140
     5e4:	10178703          	lb	a4,257(a5) # 80140101 <_DATA_LMA_START+0x601383a1>
     5e8:	0fe77713          	andi	a4,a4,254
     5ec:	10e780a3          	sb	a4,257(a5)
     5f0:	01b968db          	bnec	s2,59,600 <flash_mspi_read_ram+0x13c>
     5f4:	10178703          	lb	a4,257(a5)
     5f8:	0f377713          	andi	a4,a4,243
     5fc:	10e780a3          	sb	a4,257(a5)
     600:	80140737          	lui	a4,0x80140
     604:	10170783          	lb	a5,257(a4) # 80140101 <_DATA_LMA_START+0x601383a1>
     608:	0ff7f793          	andi	a5,a5,255
     60c:	0107e793          	ori	a5,a5,16
     610:	10f700a3          	sb	a5,257(a4)
     614:	0001                	c.nop
     616:	0001                	c.nop
     618:	0001                	c.nop
     61a:	0001                	c.nop
     61c:	0001                	c.nop
     61e:	5422                	c.lwsp	s0,40(sp)
     620:	0404c503          	lbu	a0,64(s1)
     624:	50b2                	c.lwsp	ra,44(sp)
     626:	5492                	c.lwsp	s1,36(sp)
     628:	5902                	c.lwsp	s2,32(sp)
     62a:	4a62                	c.lwsp	s4,24(sp)
     62c:	4ad2                	c.lwsp	s5,20(sp)
     62e:	4b42                	c.lwsp	s6,16(sp)
     630:	4bb2                	c.lwsp	s7,12(sp)
     632:	85ce                	c.mv	a1,s3
     634:	49f2                	c.lwsp	s3,28(sp)
     636:	6145                	c.addi16sp	sp,48
     638:	dd5ff06f          	j	40c <plic_exit_critical_sec>
     63c:	855e                	c.mv	a0,s7
     63e:	36cd                	c.jal	220 <flash_send_addr>
     640:	f05ff06f          	j	544 <flash_mspi_read_ram+0x80>

00000644 <flash_mspi_read_ram.constprop.7>:
     644:	1101                	c.addi	sp,-32
     646:	c64e                	c.swsp	s3,12(sp)
     648:	000009b7          	lui	s3,0x0
     64c:	15898993          	addi	s3,s3,344 # 158 <_AES_VMA_END>
     650:	cc22                	c.swsp	s0,24(sp)
     652:	c256                	c.swsp	s5,4(sp)
     654:	842e                	c.mv	s0,a1
     656:	8aaa                	c.mv	s5,a0
     658:	0419c583          	lbu	a1,65(s3)
     65c:	0409c503          	lbu	a0,64(s3)
     660:	c84a                	c.swsp	s2,16(sp)
     662:	c452                	c.swsp	s4,8(sp)
     664:	ce06                	c.swsp	ra,28(sp)
     666:	ca26                	c.swsp	s1,20(sp)
     668:	8932                	c.mv	s2,a2
     66a:	3bed                	c.jal	464 <plic_enter_critical_sec>
     66c:	80140737          	lui	a4,0x80140
     670:	00a00a33          	add	s4,zero,a0
     674:	10270783          	lb	a5,258(a4) # 80140102 <_DATA_LMA_START+0x601383a2>
     678:	fe07fe5b          	bbs	a5,0,674 <flash_mspi_read_ram.constprop.7+0x30>
     67c:	10170783          	lb	a5,257(a4)
     680:	801404b7          	lui	s1,0x80140
     684:	0ff7f793          	andi	a5,a5,255
     688:	0107e793          	ori	a5,a5,16
     68c:	10f700a3          	sb	a5,257(a4)
     690:	32848783          	lb	a5,808(s1) # 80140328 <_DATA_LMA_START+0x601385c8>
     694:	be37fe5b          	bbc	a5,3,690 <flash_mspi_read_ram.constprop.7+0x4c>
     698:	10148783          	lb	a5,257(s1)
     69c:	03b00513          	li	a0,59
     6a0:	0fd7f793          	andi	a5,a5,253
     6a4:	10f480a3          	sb	a5,257(s1)
     6a8:	10148783          	lb	a5,257(s1)
     6ac:	0f37f793          	andi	a5,a5,243
     6b0:	10f480a3          	sb	a5,257(s1)
     6b4:	bb1ff0ef          	jal	ra,264 <flash_send_cmd>
     6b8:	01500533          	add	a0,zero,s5
     6bc:	b65ff0ef          	jal	ra,220 <flash_send_addr>
     6c0:	80140737          	lui	a4,0x80140
     6c4:	10048023          	sb	zero,256(s1)
     6c8:	10270783          	lb	a5,258(a4) # 80140102 <_DATA_LMA_START+0x601383a2>
     6cc:	fe07fe5b          	bbs	a5,0,6c8 <flash_mspi_read_ram.constprop.7+0x84>
     6d0:	10170783          	lb	a5,257(a4)
     6d4:	801406b7          	lui	a3,0x80140
     6d8:	0f37f793          	andi	a5,a5,243
     6dc:	0047e793          	ori	a5,a5,4
     6e0:	10f700a3          	sb	a5,257(a4)
     6e4:	10170783          	lb	a5,257(a4)
     6e8:	0ff7f793          	andi	a5,a5,255
     6ec:	0027e793          	ori	a5,a5,2
     6f0:	10f700a3          	sb	a5,257(a4)
     6f4:	10070023          	sb	zero,256(a4)
     6f8:	10268783          	lb	a5,258(a3) # 80140102 <_DATA_LMA_START+0x601383a2>
     6fc:	fe07fe5b          	bbs	a5,0,6f8 <flash_mspi_read_ram.constprop.7+0xb4>
     700:	10168783          	lb	a5,257(a3)
     704:	80140737          	lui	a4,0x80140
     708:	0ff7f793          	andi	a5,a5,255
     70c:	0017e793          	ori	a5,a5,1
     710:	10f680a3          	sb	a5,257(a3)
     714:	10270783          	lb	a5,258(a4) # 80140102 <_DATA_LMA_START+0x601383a2>
     718:	fe07fe5b          	bbs	a5,0,714 <flash_mspi_read_ram.constprop.7+0xd0>
     71c:	02090263          	beqz	s2,740 <flash_mspi_read_ram.constprop.7+0xfc>
     720:	01240633          	add	a2,s0,s2
     724:	80140737          	lui	a4,0x80140
     728:	10070783          	lb	a5,256(a4) # 80140100 <_DATA_LMA_START+0x601383a0>
     72c:	00140413          	addi	s0,s0,1
     730:	fef40fa3          	sb	a5,-1(s0)
     734:	10270783          	lb	a5,258(a4)
     738:	fe07fe5b          	bbs	a5,0,734 <flash_mspi_read_ram.constprop.7+0xf0>
     73c:	fec416e3          	bne	s0,a2,728 <flash_mspi_read_ram.constprop.7+0xe4>
     740:	801407b7          	lui	a5,0x80140
     744:	10178703          	lb	a4,257(a5) # 80140101 <_DATA_LMA_START+0x601383a1>
     748:	0fe77713          	andi	a4,a4,254
     74c:	10e780a3          	sb	a4,257(a5)
     750:	10178703          	lb	a4,257(a5)
     754:	0f377713          	andi	a4,a4,243
     758:	10e780a3          	sb	a4,257(a5)
     75c:	10178703          	lb	a4,257(a5)
     760:	0ff77713          	andi	a4,a4,255
     764:	01076713          	ori	a4,a4,16
     768:	10e780a3          	sb	a4,257(a5)
     76c:	0001                	c.nop
     76e:	0001                	c.nop
     770:	0001                	c.nop
     772:	0001                	c.nop
     774:	0001                	c.nop
     776:	4462                	c.lwsp	s0,24(sp)
     778:	0409c503          	lbu	a0,64(s3)
     77c:	40f2                	c.lwsp	ra,28(sp)
     77e:	44d2                	c.lwsp	s1,20(sp)
     780:	4942                	c.lwsp	s2,16(sp)
     782:	49b2                	c.lwsp	s3,12(sp)
     784:	4a92                	c.lwsp	s5,4(sp)
     786:	85d2                	c.mv	a1,s4
     788:	4a22                	c.lwsp	s4,8(sp)
     78a:	6105                	c.addi16sp	sp,32
     78c:	c81ff06f          	j	40c <plic_exit_critical_sec>

00000790 <analog_write_reg8>:
     790:	30002673          	csrr	a2,mstatus
     794:	8a21                	c.andi	a2,8
     796:	c609                	c.beqz	a2,7a0 <analog_write_reg8+0x10>
     798:	300477f3          	csrrci	a5,mstatus,8
     79c:	0ff0000f          	fence
     7a0:	80140737          	lui	a4,0x80140
     7a4:	18a70023          	sb	a0,384(a4) # 80140180 <_DATA_LMA_START+0x60138420>
     7a8:	18b70223          	sb	a1,388(a4)
     7ac:	06000693          	li	a3,96
     7b0:	801407b7          	lui	a5,0x80140
     7b4:	18d70123          	sb	a3,386(a4)
     7b8:	18278703          	lb	a4,386(a5) # 80140182 <_DATA_LMA_START+0x60138422>
     7bc:	fe777e5b          	bbs	a4,7,7b8 <analog_write_reg8+0x28>
     7c0:	18078123          	sb	zero,386(a5)
     7c4:	00060663          	beqz	a2,7d0 <analog_write_reg8+0x40>
     7c8:	30062673          	csrrs	a2,mstatus,a2
     7cc:	0ff0000f          	fence
     7d0:	00008067          	ret

000007d4 <analog_read_reg8>:
     7d4:	300026f3          	csrr	a3,mstatus
     7d8:	8aa1                	c.andi	a3,8
     7da:	c689                	c.beqz	a3,7e4 <analog_read_reg8+0x10>
     7dc:	300477f3          	csrrci	a5,mstatus,8
     7e0:	0ff0000f          	fence
     7e4:	801407b7          	lui	a5,0x80140
     7e8:	18a78023          	sb	a0,384(a5) # 80140180 <_DATA_LMA_START+0x60138420>
     7ec:	00100713          	li	a4,1
     7f0:	18e781a3          	sb	a4,387(a5)
     7f4:	04000613          	li	a2,64
     7f8:	80140737          	lui	a4,0x80140
     7fc:	18c78123          	sb	a2,386(a5)
     800:	18270783          	lb	a5,386(a4) # 80140182 <_DATA_LMA_START+0x60138422>
     804:	fe77fe5b          	bbs	a5,7,800 <analog_read_reg8+0x2c>
     808:	18470503          	lb	a0,388(a4)
     80c:	0ff57513          	andi	a0,a0,255
     810:	00068663          	beqz	a3,81c <analog_read_reg8+0x48>
     814:	3006a6f3          	csrrs	a3,mstatus,a3
     818:	0ff0000f          	fence
     81c:	00008067          	ret

00000820 <clock_init_ram.constprop.11>:
     820:	1141                	c.addi	sp,-16
     822:	80140737          	lui	a4,0x80140
     826:	c606                	c.swsp	ra,12(sp)
     828:	c422                	c.swsp	s0,8(sp)
     82a:	c226                	c.swsp	s1,4(sp)
     82c:	10270783          	lb	a5,258(a4) # 80140102 <_DATA_LMA_START+0x601383a2>
     830:	fe07fe5b          	bbs	a5,0,82c <clock_init_ram.constprop.11+0xc>
     834:	10170783          	lb	a5,257(a4)
     838:	801404b7          	lui	s1,0x80140
     83c:	0ff7f793          	andi	a5,a5,255
     840:	0107e793          	ori	a5,a5,16
     844:	10f700a3          	sb	a5,257(a4)
     848:	32848783          	lb	a5,808(s1) # 80140328 <_DATA_LMA_START+0x601385c8>
     84c:	be37fe5b          	bbc	a5,3,848 <clock_init_ram.constprop.11+0x28>
     850:	1e848783          	lb	a5,488(s1)
     854:	08000513          	li	a0,128
     858:	8bbd                	c.andi	a5,15
     85a:	1ef48423          	sb	a5,488(s1)
     85e:	3f9d                	c.jal	7d4 <analog_read_reg8>
     860:	0e057593          	andi	a1,a0,224
     864:	0105e593          	ori	a1,a1,16
     868:	08000513          	li	a0,128
     86c:	f25ff0ef          	jal	ra,790 <analog_write_reg8>
     870:	00900513          	li	a0,9
     874:	f61ff0ef          	jal	ra,7d4 <analog_read_reg8>
     878:	0f357593          	andi	a1,a0,243
     87c:	0085e593          	ori	a1,a1,8
     880:	4525                	c.li	a0,9
     882:	3739                	c.jal	790 <analog_write_reg8>
     884:	0c000793          	li	a5,192
     888:	4482140b          	addigp	s0,5192 # 81c48 <sys_clk>
     88c:	00f41023          	sh	a5,0(s0)
     890:	08100513          	li	a0,129
     894:	4791                	c.li	a5,4
     896:	1ef48da3          	sb	a5,507(s1)
     89a:	3f2d                	c.jal	7d4 <analog_read_reg8>
     89c:	04056593          	ori	a1,a0,64
     8a0:	0ff5f593          	andi	a1,a1,255
     8a4:	08100513          	li	a0,129
     8a8:	ee9ff0ef          	jal	ra,790 <analog_write_reg8>
     8ac:	08800513          	li	a0,136
     8b0:	f25ff0ef          	jal	ra,7d4 <analog_read_reg8>
     8b4:	be557c5b          	bbc	a0,5,8ac <clock_init_ram.constprop.11+0x8c>
     8b8:	08100513          	li	a0,129
     8bc:	f19ff0ef          	jal	ra,7d4 <analog_read_reg8>
     8c0:	0bf57593          	andi	a1,a0,191
     8c4:	08100513          	li	a0,129
     8c8:	ec9ff0ef          	jal	ra,790 <analog_write_reg8>
     8cc:	801407b7          	lui	a5,0x80140
     8d0:	1e978703          	lb	a4,489(a5) # 801401e9 <_DATA_LMA_START+0x60138489>
     8d4:	8b3d                	c.andi	a4,15
     8d6:	04076713          	ori	a4,a4,64
     8da:	1ee784a3          	sb	a4,489(a5)
     8de:	1e878703          	lb	a4,488(a5)
     8e2:	f8076713          	ori	a4,a4,-128
     8e6:	0ff77713          	andi	a4,a4,255
     8ea:	1ee78423          	sb	a4,488(a5)
     8ee:	1e878703          	lb	a4,488(a5)
     8f2:	f8076713          	ori	a4,a4,-128
     8f6:	0ff77713          	andi	a4,a4,255
     8fa:	1ee78423          	sb	a4,488(a5)
     8fe:	1d878703          	lb	a4,472(a5)
     902:	00045683          	lhu	a3,0(s0)
     906:	0fb77713          	andi	a4,a4,251
     90a:	1ce78c23          	sb	a4,472(a5)
     90e:	1d878703          	lb	a4,472(a5)
     912:	8689                	c.srai	a3,0x2
     914:	00d402a3          	sb	a3,5(s0)
     918:	0fc77713          	andi	a4,a4,252
     91c:	1ce78c23          	sb	a4,472(a5)
     920:	1e878703          	lb	a4,488(a5)
     924:	0f077713          	andi	a4,a4,240
     928:	00876713          	ori	a4,a4,8
     92c:	1ee78423          	sb	a4,488(a5)
     930:	1e878703          	lb	a4,488(a5)
     934:	00045683          	lhu	a3,0(s0)
     938:	08f77713          	andi	a4,a4,143
     93c:	868d                	c.srai	a3,0x3
     93e:	00d40123          	sb	a3,2(s0)
     942:	02076713          	ori	a4,a4,32
     946:	1ee78423          	sb	a4,488(a5)
     94a:	0ff6f693          	andi	a3,a3,255
     94e:	00d401a3          	sb	a3,3(s0)
     952:	00d40223          	sb	a3,4(s0)
     956:	40b2                	c.lwsp	ra,12(sp)
     958:	4422                	c.lwsp	s0,8(sp)
     95a:	4492                	c.lwsp	s1,4(sp)
     95c:	0141                	c.addi	sp,16
     95e:	8082                	c.jr	ra

00000960 <pm_wait_bbpll_done>:
     960:	1101                	c.addi	sp,-32
     962:	08100513          	li	a0,129
     966:	cc22                	c.swsp	s0,24(sp)
     968:	ca26                	c.swsp	s1,20(sp)
     96a:	c84a                	c.swsp	s2,16(sp)
     96c:	ce06                	c.swsp	ra,28(sp)
     96e:	359d                	c.jal	7d4 <analog_read_reg8>
     970:	04056593          	ori	a1,a0,64
     974:	892a                	c.mv	s2,a0
     976:	0ff5f593          	andi	a1,a1,255
     97a:	08100513          	li	a0,129
     97e:	0bf97913          	andi	s2,s2,191
     982:	4481                	c.li	s1,0
     984:	4475                	c.li	s0,29
     986:	3529                	c.jal	790 <analog_write_reg8>
     988:	000107a3          	sb	zero,15(sp)
     98c:	00f10783          	lb	a5,15(sp)
     990:	0ff7f793          	andi	a5,a5,255
     994:	02f46063          	bltu	s0,a5,9b4 <pm_wait_bbpll_done+0x54>
     998:	0001                	c.nop
     99a:	00f10783          	lb	a5,15(sp)
     99e:	0785                	c.addi	a5,1
     9a0:	0ff7f793          	andi	a5,a5,255
     9a4:	00f107a3          	sb	a5,15(sp)
     9a8:	00f10783          	lb	a5,15(sp)
     9ac:	0ff7f793          	andi	a5,a5,255
     9b0:	fef474e3          	bgeu	s0,a5,998 <pm_wait_bbpll_done+0x38>
     9b4:	08800513          	li	a0,136
     9b8:	e1dff0ef          	jal	ra,7d4 <analog_read_reg8>
     9bc:	4255765b          	bbs	a0,5,9e8 <pm_wait_bbpll_done+0x88>
     9c0:	cc95                	c.beqz	s1,9fc <pm_wait_bbpll_done+0x9c>
     9c2:	0414d35b          	beqc	s1,1,a08 <pm_wait_bbpll_done+0xa8>
     9c6:	85ca                	c.mv	a1,s2
     9c8:	08100513          	li	a0,129
     9cc:	dc5ff0ef          	jal	ra,790 <analog_write_reg8>
     9d0:	0024d65b          	beqc	s1,2,9dc <pm_wait_bbpll_done+0x7c>
     9d4:	0485                	c.addi	s1,1
     9d6:	0ff4f493          	andi	s1,s1,255
     9da:	b77d                	c.j	988 <pm_wait_bbpll_done+0x28>
     9dc:	40f2                	c.lwsp	ra,28(sp)
     9de:	4462                	c.lwsp	s0,24(sp)
     9e0:	44d2                	c.lwsp	s1,20(sp)
     9e2:	4942                	c.lwsp	s2,16(sp)
     9e4:	6105                	c.addi16sp	sp,32
     9e6:	8082                	c.jr	ra
     9e8:	4462                	c.lwsp	s0,24(sp)
     9ea:	40f2                	c.lwsp	ra,28(sp)
     9ec:	44d2                	c.lwsp	s1,20(sp)
     9ee:	85ca                	c.mv	a1,s2
     9f0:	4942                	c.lwsp	s2,16(sp)
     9f2:	08100513          	li	a0,129
     9f6:	6105                	c.addi16sp	sp,32
     9f8:	d99ff06f          	j	790 <analog_write_reg8>
     9fc:	04600593          	li	a1,70
     a00:	4505                	c.li	a0,1
     a02:	3379                	c.jal	790 <analog_write_reg8>
     a04:	fd1ff06f          	j	9d4 <pm_wait_bbpll_done+0x74>
     a08:	04300593          	li	a1,67
     a0c:	4505                	c.li	a0,1
     a0e:	3349                	c.jal	790 <analog_write_reg8>
     a10:	fc5ff06f          	j	9d4 <pm_wait_bbpll_done+0x74>

00000a14 <pm_sleep_start>:
     a14:	1101                	c.addi	sp,-32
     a16:	4702272b          	lwgp	a4,5232 # 81c70 <g_chip_version>
     a1a:	000006b7          	lui	a3,0x0
     a1e:	ce06                	c.swsp	ra,28(sp)
     a20:	cc22                	c.swsp	s0,24(sp)
     a22:	ca26                	c.swsp	s1,20(sp)
     a24:	0ff00793          	li	a5,255
     a28:	19a6c583          	lbu	a1,410(a3) # 19a <g_pm_suspend_power_cfg>
     a2c:	00f71a63          	bne	a4,a5,a40 <pm_sleep_start+0x2c>
     a30:	0fe5f593          	andi	a1,a1,254
     a34:	07d00513          	li	a0,125
     a38:	d59ff0ef          	jal	ra,790 <analog_write_reg8>
     a3c:	00c0006f          	j	a48 <pm_sleep_start+0x34>
     a40:	07d00513          	li	a0,125
     a44:	d4dff0ef          	jal	ra,790 <analog_write_reg8>
     a48:	801406b7          	lui	a3,0x80140
     a4c:	10268783          	lb	a5,258(a3) # 80140102 <_DATA_LMA_START+0x601383a2>
     a50:	fe07fe5b          	bbs	a5,0,a4c <pm_sleep_start+0x38>
     a54:	10168703          	lb	a4,257(a3)
     a58:	801407b7          	lui	a5,0x80140
     a5c:	0ff77713          	andi	a4,a4,255
     a60:	01076713          	ori	a4,a4,16
     a64:	10e680a3          	sb	a4,257(a3)
     a68:	32878703          	lb	a4,808(a5) # 80140328 <_DATA_LMA_START+0x601385c8>
     a6c:	be377e5b          	bbc	a4,3,a68 <pm_sleep_start+0x54>
     a70:	10178703          	lb	a4,257(a5)
     a74:	80140437          	lui	s0,0x80140
     a78:	0fd77713          	andi	a4,a4,253
     a7c:	10e780a3          	sb	a4,257(a5)
     a80:	10178703          	lb	a4,257(a5)
     a84:	0ef77713          	andi	a4,a4,239
     a88:	10e780a3          	sb	a4,257(a5)
     a8c:	fb900713          	li	a4,-71
     a90:	10e78023          	sb	a4,256(a5)
     a94:	10240783          	lb	a5,258(s0) # 80140102 <_DATA_LMA_START+0x601383a2>
     a98:	fe07fe5b          	bbs	a5,0,a94 <pm_sleep_start+0x80>
     a9c:	10140783          	lb	a5,257(s0)
     aa0:	452d                	c.li	a0,11
     aa2:	0ff7f793          	andi	a5,a5,255
     aa6:	0107e793          	ori	a5,a5,16
     aaa:	10f400a3          	sb	a5,257(s0)
     aae:	320404a3          	sb	zero,809(s0)
     ab2:	330d                	c.jal	7d4 <analog_read_reg8>
     ab4:	0fc57593          	andi	a1,a0,252
     ab8:	452d                	c.li	a0,11
     aba:	39d9                	c.jal	790 <analog_write_reg8>
     abc:	08100513          	li	a0,129
     ac0:	d15ff0ef          	jal	ra,7d4 <analog_read_reg8>
     ac4:	f8056593          	ori	a1,a0,-128
     ac8:	0ff5f593          	andi	a1,a1,255
     acc:	08100513          	li	a0,129
     ad0:	cc1ff0ef          	jal	ra,790 <analog_write_reg8>
     ad4:	f8000793          	li	a5,-128
     ad8:	1ef407a3          	sb	a5,495(s0)
     adc:	03f00493          	li	s1,63
     ae0:	00012423          	sw	zero,8(sp)
     ae4:	47a2                	c.lwsp	a5,8(sp)
     ae6:	00f4e763          	bltu	s1,a5,af4 <pm_sleep_start+0xe0>
     aea:	0001                	c.nop
     aec:	47a2                	c.lwsp	a5,8(sp)
     aee:	0785                	c.addi	a5,1
     af0:	c43e                	c.swsp	a5,8(sp)
     af2:	bfcd                	c.j	ae4 <pm_sleep_start+0xd0>
     af4:	08100513          	li	a0,129
     af8:	cddff0ef          	jal	ra,7d4 <analog_read_reg8>
     afc:	07f57593          	andi	a1,a0,127
     b00:	08100513          	li	a0,129
     b04:	c8dff0ef          	jal	ra,790 <analog_write_reg8>
     b08:	00b00513          	li	a0,11
     b0c:	cc9ff0ef          	jal	ra,7d4 <analog_read_reg8>
     b10:	00356593          	ori	a1,a0,3
     b14:	0ff5f593          	andi	a1,a1,255
     b18:	452d                	c.li	a0,11
     b1a:	399d                	c.jal	790 <analog_write_reg8>
     b1c:	08000593          	li	a1,128
     b20:	07d00513          	li	a0,125
     b24:	c6dff0ef          	jal	ra,790 <analog_write_reg8>
     b28:	801407b7          	lui	a5,0x80140
     b2c:	329784a3          	sb	s1,809(a5) # 80140329 <_DATA_LMA_START+0x601385c9>
     b30:	10178683          	lb	a3,257(a5)
     b34:	80140737          	lui	a4,0x80140
     b38:	0ef6f693          	andi	a3,a3,239
     b3c:	10d780a3          	sb	a3,257(a5)
     b40:	fab00693          	li	a3,-85
     b44:	10d78023          	sb	a3,256(a5)
     b48:	10270783          	lb	a5,258(a4) # 80140102 <_DATA_LMA_START+0x601383a2>
     b4c:	fe07fe5b          	bbs	a5,0,b48 <pm_sleep_start+0x134>
     b50:	10170783          	lb	a5,257(a4)
     b54:	12b00693          	li	a3,299
     b58:	0ff7f793          	andi	a5,a5,255
     b5c:	0107e793          	ori	a5,a5,16
     b60:	10f700a3          	sb	a5,257(a4)
     b64:	00012623          	sw	zero,12(sp)
     b68:	47b2                	c.lwsp	a5,12(sp)
     b6a:	00f6e763          	bltu	a3,a5,b78 <pm_sleep_start+0x164>
     b6e:	0001                	c.nop
     b70:	47b2                	c.lwsp	a5,12(sp)
     b72:	0785                	c.addi	a5,1
     b74:	c63e                	c.swsp	a5,12(sp)
     b76:	bfcd                	c.j	b68 <pm_sleep_start+0x154>
     b78:	08800513          	li	a0,136
     b7c:	c59ff0ef          	jal	ra,7d4 <analog_read_reg8>
     b80:	be757c5b          	bbc	a0,7,b78 <pm_sleep_start+0x164>
     b84:	08800513          	li	a0,136
     b88:	c4dff0ef          	jal	ra,7d4 <analog_read_reg8>
     b8c:	be757c5b          	bbc	a0,7,b84 <pm_sleep_start+0x170>
     b90:	08800513          	li	a0,136
     b94:	c41ff0ef          	jal	ra,7d4 <analog_read_reg8>
     b98:	be757c5b          	bbc	a0,7,b90 <pm_sleep_start+0x17c>
     b9c:	4462                	c.lwsp	s0,24(sp)
     b9e:	40f2                	c.lwsp	ra,28(sp)
     ba0:	44d2                	c.lwsp	s1,20(sp)
     ba2:	6105                	c.addi16sp	sp,32
     ba4:	dbdff06f          	j	960 <pm_wait_bbpll_done>

00000ba8 <dr_putchar>:
     ba8:	1101                	c.addi	sp,-32
     baa:	ca26                	c.swsp	s1,20(sp)
     bac:	cc22                	c.swsp	s0,24(sp)
     bae:	ce06                	c.swsp	ra,28(sp)
     bb0:	c84a                	c.swsp	s2,16(sp)
     bb2:	4442148b          	addigp	s1,5188 # 81c44 <init_flag.5287>
     bb6:	842a                	c.mv	s0,a0
     bb8:	0004c783          	lbu	a5,0(s1)
     bbc:	0c17d25b          	beqc	a5,1,c80 <dr_putchar+0xd8>
     bc0:	801407b7          	lui	a5,0x80140
     bc4:	30378703          	lb	a4,771(a5) # 80140303 <_DATA_LMA_START+0x601385a3>
     bc8:	30378783          	lb	a5,771(a5)
     bcc:	0fe77713          	andi	a4,a4,254
     bd0:	0ff7f793          	andi	a5,a5,255
     bd4:	0017e793          	ori	a5,a5,1
     bd8:	00e10223          	sb	a4,4(sp)
     bdc:	86be                	c.mv	a3,a5
     bde:	4004735b          	bbs	s0,0,be4 <dr_putchar+0x3c>
     be2:	86ba                	c.mv	a3,a4
     be4:	00d102a3          	sb	a3,5(sp)
     be8:	86be                	c.mv	a3,a5
     bea:	4014735b          	bbs	s0,1,bf0 <dr_putchar+0x48>
     bee:	86ba                	c.mv	a3,a4
     bf0:	00d10323          	sb	a3,6(sp)
     bf4:	86be                	c.mv	a3,a5
     bf6:	4024735b          	bbs	s0,2,bfc <dr_putchar+0x54>
     bfa:	86ba                	c.mv	a3,a4
     bfc:	00d103a3          	sb	a3,7(sp)
     c00:	86be                	c.mv	a3,a5
     c02:	4034735b          	bbs	s0,3,c08 <dr_putchar+0x60>
     c06:	86ba                	c.mv	a3,a4
     c08:	00d10423          	sb	a3,8(sp)
     c0c:	86be                	c.mv	a3,a5
     c0e:	4044735b          	bbs	s0,4,c14 <dr_putchar+0x6c>
     c12:	86ba                	c.mv	a3,a4
     c14:	00d104a3          	sb	a3,9(sp)
     c18:	86be                	c.mv	a3,a5
     c1a:	4054735b          	bbs	s0,5,c20 <dr_putchar+0x78>
     c1e:	86ba                	c.mv	a3,a4
     c20:	00d10523          	sb	a3,10(sp)
     c24:	86be                	c.mv	a3,a5
     c26:	4064735b          	bbs	s0,6,c2c <dr_putchar+0x84>
     c2a:	86ba                	c.mv	a3,a4
     c2c:	00d105a3          	sb	a3,11(sp)
     c30:	801d                	c.srli	s0,0x7
     c32:	c019                	c.beqz	s0,c38 <dr_putchar+0x90>
     c34:	00f00733          	add	a4,zero,a5
     c38:	00f106a3          	sb	a5,13(sp)
     c3c:	801407b7          	lui	a5,0x80140
     c40:	00e10623          	sb	a4,12(sp)
     c44:	2007a603          	lw	a2,512(a5) # 80140200 <_DATA_LMA_START+0x601384a0>
     c48:	00410513          	addi	a0,sp,4
     c4c:	00e10813          	addi	a6,sp,14
     c50:	801406b7          	lui	a3,0x80140
     c54:	08900593          	li	a1,137
     c58:	2006a783          	lw	a5,512(a3) # 80140200 <_DATA_LMA_START+0x601384a0>
     c5c:	40c78733          	sub	a4,a5,a2
     c60:	fee5fce3          	bgeu	a1,a4,c58 <dr_putchar+0xb0>
     c64:	00054703          	lbu	a4,0(a0)
     c68:	0505                	c.addi	a0,1
     c6a:	30e681a3          	sb	a4,771(a3)
     c6e:	863e                	c.mv	a2,a5
     c70:	ff0514e3          	bne	a0,a6,c58 <dr_putchar+0xb0>
     c74:	40f2                	c.lwsp	ra,28(sp)
     c76:	4462                	c.lwsp	s0,24(sp)
     c78:	44d2                	c.lwsp	s1,20(sp)
     c7a:	4942                	c.lwsp	s2,16(sp)
     c7c:	6105                	c.addi16sp	sp,32
     c7e:	8082                	c.jr	ra
     c80:	80140937          	lui	s2,0x80140
     c84:	30690783          	lb	a5,774(s2) # 80140306 <_DATA_LMA_START+0x601385a6>
     c88:	4539                	c.li	a0,14
     c8a:	0ff7f793          	andi	a5,a5,255
     c8e:	0017e793          	ori	a5,a5,1
     c92:	30f90323          	sb	a5,774(s2)
     c96:	3e3d                	c.jal	7d4 <analog_read_reg8>
     c98:	0fc57593          	andi	a1,a0,252
     c9c:	0015e593          	ori	a1,a1,1
     ca0:	4539                	c.li	a0,14
     ca2:	34fd                	c.jal	790 <analog_write_reg8>
     ca4:	30290783          	lb	a5,770(s2)
     ca8:	0fe7f793          	andi	a5,a5,254
     cac:	30f90123          	sb	a5,770(s2)
     cb0:	30390783          	lb	a5,771(s2)
     cb4:	0ff7f793          	andi	a5,a5,255
     cb8:	0017e793          	ori	a5,a5,1
     cbc:	30f901a3          	sb	a5,771(s2)
     cc0:	00048023          	sb	zero,0(s1)
     cc4:	efdff06f          	j	bc0 <dr_putchar+0x18>

00000cc8 <pm_sleep_wakeup_ram.constprop.3>:
     cc8:	1101                	c.addi	sp,-32
     cca:	c452                	c.swsp	s4,8(sp)
     ccc:	8a2a                	c.mv	s4,a0
     cce:	ce06                	c.swsp	ra,28(sp)
     cd0:	cc22                	c.swsp	s0,24(sp)
     cd2:	ca26                	c.swsp	s1,20(sp)
     cd4:	c84a                	c.swsp	s2,16(sp)
     cd6:	c64e                	c.swsp	s3,12(sp)
     cd8:	c256                	c.swsp	s5,4(sp)
     cda:	c05a                	c.swsp	s6,0(sp)
     cdc:	300029f3          	csrr	s3,mstatus
     ce0:	0089f993          	andi	s3,s3,8
     ce4:	00098663          	beqz	s3,cf0 <pm_sleep_wakeup_ram.constprop.3+0x28>
     ce8:	300477f3          	csrrci	a5,mstatus,8
     cec:	0ff0000f          	fence
     cf0:	801407b7          	lui	a5,0x80140
     cf4:	2147a683          	lw	a3,532(a5) # 80140214 <_DATA_LMA_START+0x601384b4>
     cf8:	def5                	c.beqz	a3,cf4 <pm_sleep_wakeup_ram.constprop.3+0x2c>
     cfa:	00000437          	lui	s0,0x0
     cfe:	15840693          	addi	a3,s0,344 # 158 <_AES_VMA_END>
     d02:	2147a783          	lw	a5,532(a5)
     d06:	4ed8                	c.lw	a4,28(a3)
     d08:	d6dc                	c.sw	a5,44(a3)
     d0a:	15840413          	addi	s0,s0,344
     d0e:	0792                	c.slli	a5,0x4
     d10:	cb11                	c.beqz	a4,d24 <pm_sleep_wakeup_ram.constprop.3+0x5c>
     d12:	03044603          	lbu	a2,48(s0)
     d16:	4691                	c.li	a3,4
     d18:	8f99                	c.sub	a5,a4
     d1a:	8e91                	c.sub	a3,a2
     d1c:	40d7d7b3          	sra	a5,a5,a3
     d20:	00e787b3          	add	a5,a5,a4
     d24:	4818                	c.lw	a4,16(s0)
     d26:	4047d493          	srai	s1,a5,0x4
     d2a:	02e48733          	mul	a4,s1,a4
     d2e:	80140937          	lui	s2,0x80140
     d32:	20092a83          	lw	s5,512(s2) # 80140200 <_DATA_LMA_START+0x601384a0>
     d36:	cc5c                	c.sw	a5,28(s0)
     d38:	415a0ab3          	sub	s5,s4,s5
     d3c:	e00006b7          	lui	a3,0xe0000
     d40:	41275793          	srai	a5,a4,0x12
     d44:	94be                	c.add	s1,a5
     d46:	0486                	c.slli	s1,0x1
     d48:	02942a23          	sw	s1,52(s0)
     d4c:	0356f063          	bgeu	a3,s5,d6c <pm_sleep_wakeup_ram.constprop.3+0xa4>
     d50:	00098663          	beqz	s3,d5c <pm_sleep_wakeup_ram.constprop.3+0x94>
     d54:	3009a9f3          	csrrs	s3,mstatus,s3
     d58:	0ff0000f          	fence
     d5c:	06400513          	li	a0,100
     d60:	a75ff0ef          	jal	ra,7d4 <analog_read_reg8>
     d64:	01f57513          	andi	a0,a0,31
     d68:	2580006f          	j	fc0 <pm_sleep_wakeup_ram.constprop.3+0x2f8>
     d6c:	04a41783          	lh	a5,74(s0)
     d70:	1137a7db          	bfoz	a5,a5,4,19
     d74:	02fafe63          	bgeu	s5,a5,db0 <pm_sleep_wakeup_ram.constprop.3+0xe8>
     d78:	45fd                	c.li	a1,31
     d7a:	06400513          	li	a0,100
     d7e:	801404b7          	lui	s1,0x80140
     d82:	20092403          	lw	s0,512(s2)
     d86:	3429                	c.jal	790 <analog_write_reg8>
     d88:	06400513          	li	a0,100
     d8c:	a49ff0ef          	jal	ra,7d4 <analog_read_reg8>
     d90:	2004a783          	lw	a5,512(s1) # 80140200 <_DATA_LMA_START+0x601384a0>
     d94:	897d                	c.andi	a0,31
     d96:	8f81                	c.sub	a5,s0
     d98:	0157f463          	bgeu	a5,s5,da0 <pm_sleep_wakeup_ram.constprop.3+0xd8>
     d9c:	fe0506e3          	beqz	a0,d88 <pm_sleep_wakeup_ram.constprop.3+0xc0>
     da0:	22098063          	beqz	s3,fc0 <pm_sleep_wakeup_ram.constprop.3+0x2f8>
     da4:	3009a9f3          	csrrs	s3,mstatus,s3
     da8:	0ff0000f          	fence
     dac:	2140006f          	j	fc0 <pm_sleep_wakeup_ram.constprop.3+0x2f8>
     db0:	1e890a83          	lb	s5,488(s2)
     db4:	00faf793          	andi	a5,s5,15
     db8:	1ef90423          	sb	a5,488(s2)
     dbc:	1d890b03          	lb	s6,472(s2)
     dc0:	0f8b7793          	andi	a5,s6,248
     dc4:	1cf90c23          	sb	a5,472(s2)
     dc8:	00100793          	li	a5,1
     dcc:	20f90c23          	sb	a5,536(s2)
     dd0:	20a90783          	lb	a5,522(s2)
     dd4:	0f77f793          	andi	a5,a5,247
     dd8:	20f90523          	sb	a5,522(s2)
     ddc:	d7cff0ef          	jal	ra,358 <clock_get_32k_tick>
     de0:	20092703          	lw	a4,512(s2)
     de4:	20b90783          	lb	a5,523(s2)
     de8:	5054                	c.lw	a3,36(s0)
     dea:	0ff7f793          	andi	a5,a5,255
     dee:	0027e793          	ori	a5,a5,2
     df2:	c468                	c.sw	a0,76(s0)
     df4:	dc18                	c.sw	a4,56(s0)
     df6:	03044603          	lbu	a2,48(s0)
     dfa:	40d506b3          	sub	a3,a0,a3
     dfe:	20f905a3          	sb	a5,523(s2)
     e02:	d414                	c.sw	a3,40(s0)
     e04:	e215                	c.bnez	a2,e28 <pm_sleep_wakeup_ram.constprop.3+0x160>
     e06:	441c                	c.lw	a5,8(s0)
     e08:	c385                	c.beqz	a5,e28 <pm_sleep_wakeup_ram.constprop.3+0x160>
     e0a:	05044783          	lbu	a5,80(s0)
     e0e:	ef89                	c.bnez	a5,e28 <pm_sleep_wakeup_ram.constprop.3+0x160>
     e10:	00c42783          	lw	a5,12(s0)
     e14:	000276b7          	lui	a3,0x27
     e18:	40f507b3          	sub	a5,a0,a5
     e1c:	6c07a7db          	bfoz	a5,a5,27,0
     e20:	10068693          	addi	a3,a3,256 # 27100 <BIN_SIZE+0x1d72a>
     e24:	00f6f863          	bgeu	a3,a5,e34 <pm_sleep_wakeup_ram.constprop.3+0x16c>
     e28:	00176713          	ori	a4,a4,1
     e2c:	02040823          	sb	zero,48(s0)
     e30:	c448                	c.sw	a0,12(s0)
     e32:	c418                	c.sw	a4,8(s0)
     e34:	02000593          	li	a1,32
     e38:	04b00513          	li	a0,75
     e3c:	955ff0ef          	jal	ra,790 <analog_write_reg8>
     e40:	45fd                	c.li	a1,31
     e42:	06400513          	li	a0,100
     e46:	32a9                	c.jal	790 <analog_write_reg8>
     e48:	03000593          	li	a1,48
     e4c:	07e00513          	li	a0,126
     e50:	941ff0ef          	jal	ra,790 <analog_write_reg8>
     e54:	0f900593          	li	a1,249
     e58:	04d00513          	li	a0,77
     e5c:	935ff0ef          	jal	ra,790 <analog_write_reg8>
     e60:	4585                	c.li	a1,1
     e62:	07f00513          	li	a0,127
     e66:	322d                	c.jal	790 <analog_write_reg8>
     e68:	04841783          	lh	a5,72(s0)
     e6c:	0ee00593          	li	a1,238
     e70:	1137a7db          	bfoz	a5,a5,4,19
     e74:	04c00513          	li	a0,76
     e78:	40fa0933          	sub	s2,s4,a5
     e7c:	915ff0ef          	jal	ra,790 <analog_write_reg8>
     e80:	05441583          	lh	a1,84(s0)
     e84:	04000513          	li	a0,64
     e88:	0ff5f593          	andi	a1,a1,255
     e8c:	905ff0ef          	jal	ra,790 <analog_write_reg8>
     e90:	441c                	c.lw	a5,8(s0)
     e92:	07ff06b7          	lui	a3,0x7ff0
     e96:	40f907b3          	sub	a5,s2,a5
     e9a:	00168713          	addi	a4,a3,1 # 7ff0001 <FLASH_SIZE+0x7ef0001>
     e9e:	00e7b733          	sltu	a4,a5,a4
     ea2:	00174713          	xori	a4,a4,1
     ea6:	00e40223          	sb	a4,4(s0)
     eaa:	00f6f963          	bgeu	a3,a5,ebc <pm_sleep_wakeup_ram.constprop.3+0x1f4>
     eae:	5858                	c.lw	a4,52(s0)
     eb0:	4448                	c.lw	a0,12(s0)
     eb2:	02e7d7b3          	divu	a5,a5,a4
     eb6:	0796                	c.slli	a5,0x5
     eb8:	953e                	c.add	a0,a5
     eba:	a809                	c.j	ecc <pm_sleep_wakeup_ram.constprop.3+0x204>
     ebc:	5848                	c.lw	a0,52(s0)
     ebe:	8085                	c.srli	s1,0x1
     ec0:	0796                	c.slli	a5,0x5
     ec2:	97a6                	c.add	a5,s1
     ec4:	02a7d7b3          	divu	a5,a5,a0
     ec8:	4448                	c.lw	a0,12(s0)
     eca:	953e                	c.add	a0,a5
     ecc:	be0ff0ef          	jal	ra,2ac <clock_set_32k_tick>
     ed0:	06400513          	li	a0,100
     ed4:	901ff0ef          	jal	ra,7d4 <analog_read_reg8>
     ed8:	01f57513          	andi	a0,a0,31
     edc:	e901                	c.bnez	a0,eec <pm_sleep_wakeup_ram.constprop.3+0x224>
     ede:	3e1d                	c.jal	a14 <pm_sleep_start>
     ee0:	00100593          	li	a1,1
     ee4:	07f00513          	li	a0,127
     ee8:	8a9ff0ef          	jal	ra,790 <analog_write_reg8>
     eec:	80140737          	lui	a4,0x80140
     ef0:	02000793          	li	a5,32
     ef4:	1ef707a3          	sb	a5,495(a4) # 801401ef <_DATA_LMA_START+0x6013848f>
     ef8:	00200793          	li	a5,2
     efc:	20f70c23          	sb	a5,536(a4)
     f00:	20a70783          	lb	a5,522(a4)
     f04:	0ff7f793          	andi	a5,a5,255
     f08:	00c7e793          	ori	a5,a5,12
     f0c:	20f70523          	sb	a5,522(a4)
     f10:	c48ff0ef          	jal	ra,358 <clock_get_32k_tick>
     f14:	00444783          	lbu	a5,4(s0)
     f18:	cf81                	c.beqz	a5,f30 <pm_sleep_wakeup_ram.constprop.3+0x268>
     f1a:	4458                	c.lw	a4,12(s0)
     f1c:	5854                	c.lw	a3,52(s0)
     f1e:	40e50733          	sub	a4,a0,a4
     f22:	441c                	c.lw	a5,8(s0)
     f24:	0705                	c.addi	a4,1
     f26:	8315                	c.srli	a4,0x5
     f28:	c4d717ff          	maddr32	a5,a4,a3
     f2c:	0180006f          	j	f44 <pm_sleep_wakeup_ram.constprop.3+0x27c>
     f30:	445c                	c.lw	a5,12(s0)
     f32:	5858                	c.lw	a4,52(s0)
     f34:	40f507b3          	sub	a5,a0,a5
     f38:	0785                	c.addi	a5,1
     f3a:	02e787b3          	mul	a5,a5,a4
     f3e:	4418                	c.lw	a4,8(s0)
     f40:	8395                	c.srli	a5,0x5
     f42:	97ba                	c.add	a5,a4
     f44:	4458                	c.lw	a4,12(s0)
     f46:	00150613          	addi	a2,a0,1
     f4a:	8d19                	c.sub	a0,a4
     f4c:	0505                	c.addi	a0,1
     f4e:	00178693          	addi	a3,a5,1
     f52:	dc1c                	c.sw	a5,56(s0)
     f54:	d050                	c.sw	a2,36(s0)
     f56:	d008                	c.sw	a0,32(s0)
     f58:	801407b7          	lui	a5,0x80140
     f5c:	80140737          	lui	a4,0x80140
     f60:	20d7a023          	sw	a3,512(a5) # 80140200 <_DATA_LMA_START+0x601384a0>
     f64:	20b70783          	lb	a5,523(a4) # 8014020b <_DATA_LMA_START+0x601384ab>
     f68:	be77fe5b          	bbc	a5,7,f64 <pm_sleep_wakeup_ram.constprop.3+0x29c>
     f6c:	20070c23          	sb	zero,536(a4)
     f70:	1d670c23          	sb	s6,472(a4)
     f74:	06400513          	li	a0,100
     f78:	1f570423          	sb	s5,488(a4)
     f7c:	859ff0ef          	jal	ra,7d4 <analog_read_reg8>
     f80:	4742170b          	addigp	a4,5236 # 81c74 <g_pm_status_info>
     f84:	00a700a3          	sb	a0,1(a4)
     f88:	4742178b          	addigp	a5,5236 # 81c74 <g_pm_status_info>
     f8c:	00157c5b          	bbc	a0,1,fa4 <pm_sleep_wakeup_ram.constprop.3+0x2dc>
     f90:	80140637          	lui	a2,0x80140
     f94:	400006b7          	lui	a3,0x40000
     f98:	20062703          	lw	a4,512(a2) # 80140200 <_DATA_LMA_START+0x601384a0>
     f9c:	41470733          	sub	a4,a4,s4
     fa0:	fee6ece3          	bltu	a3,a4,f98 <pm_sleep_wakeup_ram.constprop.3+0x2d0>
     fa4:	00098663          	beqz	s3,fb0 <pm_sleep_wakeup_ram.constprop.3+0x2e8>
     fa8:	3009a9f3          	csrrs	s3,mstatus,s3
     fac:	0ff0000f          	fence
     fb0:	0017c783          	lbu	a5,1(a5)
     fb4:	10000513          	li	a0,256
     fb8:	c781                	c.beqz	a5,fc0 <pm_sleep_wakeup_ram.constprop.3+0x2f8>
     fba:	40000537          	lui	a0,0x40000
     fbe:	8d5d                	c.or	a0,a5
     fc0:	40f2                	c.lwsp	ra,28(sp)
     fc2:	4462                	c.lwsp	s0,24(sp)
     fc4:	44d2                	c.lwsp	s1,20(sp)
     fc6:	4942                	c.lwsp	s2,16(sp)
     fc8:	49b2                	c.lwsp	s3,12(sp)
     fca:	4a22                	c.lwsp	s4,8(sp)
     fcc:	4a92                	c.lwsp	s5,4(sp)
     fce:	4b02                	c.lwsp	s6,0(sp)
     fd0:	6105                	c.addi16sp	sp,32
     fd2:	8082                	c.jr	ra

00000fd4 <trap_entry>:
     fd4:	1101                	c.addi	sp,-32
     fd6:	ce2a                	c.swsp	a0,28(sp)
     fd8:	cc2e                	c.swsp	a1,24(sp)
     fda:	ca32                	c.swsp	a2,20(sp)
     fdc:	c836                	c.swsp	a3,16(sp)
     fde:	c63a                	c.swsp	a4,12(sp)
     fe0:	c43e                	c.swsp	a5,8(sp)
     fe2:	34202773          	csrr	a4,mcause
     fe6:	000007b7          	lui	a5,0x0
     fea:	15878793          	addi	a5,a5,344 # 158 <_AES_VMA_END>
     fee:	03c78683          	lb	a3,60(a5)
     ff2:	0ff6f693          	andi	a3,a3,255
     ff6:	c2dd                	c.beqz	a3,109c <trap_entry+0xc8>
     ff8:	34102673          	csrr	a2,mepc
     ffc:	300025f3          	csrr	a1,mstatus
    1000:	7c4026f3          	csrr	a3,mxstatus
    1004:	02074a63          	bltz	a4,1038 <trap_entry+0x64>
    1008:	34302773          	csrr	a4,mtval
    100c:	46e2462b          	swgp	a4,5228 # 81c6c <exception_mtval>
    1010:	34102773          	csrr	a4,mepc
    1014:	46e2422b          	swgp	a4,5220 # 81c64 <exception_mepc>
    1018:	30002773          	csrr	a4,mstatus
    101c:	46e2442b          	swgp	a4,5224 # 81c68 <exception_mstatus>
    1020:	34202773          	csrr	a4,mcause
    1024:	44e24e2b          	swgp	a4,5212 # 81c5c <exception_mcause>
    1028:	7c902773          	csrr	a4,mdcause
    102c:	46e2402b          	swgp	a4,5216 # 81c60 <exception_mdcause>
    1030:	0001                	c.nop
    1032:	0001                	c.nop
    1034:	ffdff06f          	j	1030 <trap_entry+0x5c>
    1038:	7807275b          	bfoz	a4,a4,30,0
    103c:	0677545b          	beqc	a4,7,10a4 <trap_entry+0xd0>
    1040:	bc37645b          	bnec	a4,3,1008 <trap_entry+0x34>
    1044:	e6600737          	lui	a4,0xe6600
    1048:	4358                	c.lw	a4,4(a4)
    104a:	03c78703          	lb	a4,60(a5)
    104e:	0ff77713          	andi	a4,a4,255
    1052:	c319                	c.beqz	a4,1058 <trap_entry+0x84>
    1054:	30046773          	csrrsi	a4,mstatus,8
    1058:	03c78703          	lb	a4,60(a5)
    105c:	0ff77713          	andi	a4,a4,255
    1060:	00070463          	beqz	a4,1068 <trap_entry+0x94>
    1064:	30047773          	csrrci	a4,mstatus,8
    1068:	e6600737          	lui	a4,0xe6600
    106c:	4505                	c.li	a0,1
    106e:	c348                	c.sw	a0,4(a4)
    1070:	03c78783          	lb	a5,60(a5)
    1074:	0ff7f793          	andi	a5,a5,255
    1078:	00078863          	beqz	a5,1088 <trap_entry+0xb4>
    107c:	30059073          	csrw	mstatus,a1
    1080:	34161073          	csrw	mepc,a2
    1084:	7c469073          	csrw	mxstatus,a3
    1088:	4572                	c.lwsp	a0,28(sp)
    108a:	45e2                	c.lwsp	a1,24(sp)
    108c:	4652                	c.lwsp	a2,20(sp)
    108e:	46c2                	c.lwsp	a3,16(sp)
    1090:	4732                	c.lwsp	a4,12(sp)
    1092:	47a2                	c.lwsp	a5,8(sp)
    1094:	02010113          	addi	sp,sp,32
    1098:	30200073          	mret
    109c:	4681                	c.li	a3,0
    109e:	4581                	c.li	a1,0
    10a0:	4601                	c.li	a2,0
    10a2:	b78d                	c.j	1004 <trap_entry+0x30>
    10a4:	03c78703          	lb	a4,60(a5)
    10a8:	0ff77713          	andi	a4,a4,255
    10ac:	00070863          	beqz	a4,10bc <trap_entry+0xe8>
    10b0:	08000713          	li	a4,128
    10b4:	30473773          	csrrc	a4,mie,a4
    10b8:	30046773          	csrrsi	a4,mstatus,8
    10bc:	03c78703          	lb	a4,60(a5)
    10c0:	0ff77713          	andi	a4,a4,255
    10c4:	d755                	c.beqz	a4,1070 <trap_entry+0x9c>
    10c6:	30047773          	csrrci	a4,mstatus,8
    10ca:	08000713          	li	a4,128
    10ce:	30472773          	csrrs	a4,mie,a4
    10d2:	bf79                	c.j	1070 <trap_entry+0x9c>
    10d4:	0001                	c.nop
	...

00001100 <__vectors>:
    1100:	0fd4                	c.addi4spn	a3,sp,980
    1102:	0000                	unimp
    1104:	2324                	c.fld	fs1,64(a4)
    1106:	0000                	unimp
    1108:	2324                	c.fld	fs1,64(a4)
    110a:	0000                	unimp
    110c:	2324                	c.fld	fs1,64(a4)
    110e:	0000                	unimp
    1110:	2324                	c.fld	fs1,64(a4)
    1112:	0000                	unimp
    1114:	2324                	c.fld	fs1,64(a4)
    1116:	0000                	unimp
    1118:	2324                	c.fld	fs1,64(a4)
    111a:	0000                	unimp
    111c:	2324                	c.fld	fs1,64(a4)
    111e:	0000                	unimp
    1120:	2324                	c.fld	fs1,64(a4)
    1122:	0000                	unimp
    1124:	2324                	c.fld	fs1,64(a4)
    1126:	0000                	unimp
    1128:	2324                	c.fld	fs1,64(a4)
    112a:	0000                	unimp
    112c:	2324                	c.fld	fs1,64(a4)
    112e:	0000                	unimp
    1130:	2324                	c.fld	fs1,64(a4)
    1132:	0000                	unimp
    1134:	2324                	c.fld	fs1,64(a4)
    1136:	0000                	unimp
    1138:	2324                	c.fld	fs1,64(a4)
    113a:	0000                	unimp
    113c:	2324                	c.fld	fs1,64(a4)
    113e:	0000                	unimp
    1140:	2324                	c.fld	fs1,64(a4)
    1142:	0000                	unimp
    1144:	2324                	c.fld	fs1,64(a4)
    1146:	0000                	unimp
    1148:	2324                	c.fld	fs1,64(a4)
    114a:	0000                	unimp
    114c:	2324                	c.fld	fs1,64(a4)
    114e:	0000                	unimp
    1150:	2324                	c.fld	fs1,64(a4)
    1152:	0000                	unimp
    1154:	2324                	c.fld	fs1,64(a4)
    1156:	0000                	unimp
    1158:	2324                	c.fld	fs1,64(a4)
    115a:	0000                	unimp
    115c:	2324                	c.fld	fs1,64(a4)
    115e:	0000                	unimp
    1160:	2324                	c.fld	fs1,64(a4)
    1162:	0000                	unimp
    1164:	2324                	c.fld	fs1,64(a4)
    1166:	0000                	unimp
    1168:	2324                	c.fld	fs1,64(a4)
    116a:	0000                	unimp
    116c:	2324                	c.fld	fs1,64(a4)
    116e:	0000                	unimp
    1170:	2324                	c.fld	fs1,64(a4)
    1172:	0000                	unimp
    1174:	2324                	c.fld	fs1,64(a4)
    1176:	0000                	unimp
    1178:	2324                	c.fld	fs1,64(a4)
    117a:	0000                	unimp
    117c:	2324                	c.fld	fs1,64(a4)
    117e:	0000                	unimp
    1180:	2324                	c.fld	fs1,64(a4)
    1182:	0000                	unimp
    1184:	2324                	c.fld	fs1,64(a4)
    1186:	0000                	unimp
    1188:	2324                	c.fld	fs1,64(a4)
    118a:	0000                	unimp
    118c:	2324                	c.fld	fs1,64(a4)
    118e:	0000                	unimp
    1190:	2324                	c.fld	fs1,64(a4)
    1192:	0000                	unimp
    1194:	2324                	c.fld	fs1,64(a4)
    1196:	0000                	unimp
    1198:	2324                	c.fld	fs1,64(a4)
    119a:	0000                	unimp
    119c:	2324                	c.fld	fs1,64(a4)
    119e:	0000                	unimp
    11a0:	2324                	c.fld	fs1,64(a4)
    11a2:	0000                	unimp
    11a4:	2324                	c.fld	fs1,64(a4)
    11a6:	0000                	unimp
    11a8:	2324                	c.fld	fs1,64(a4)
    11aa:	0000                	unimp
    11ac:	2324                	c.fld	fs1,64(a4)
    11ae:	0000                	unimp
    11b0:	2324                	c.fld	fs1,64(a4)
    11b2:	0000                	unimp
    11b4:	2324                	c.fld	fs1,64(a4)
    11b6:	0000                	unimp
    11b8:	2324                	c.fld	fs1,64(a4)
    11ba:	0000                	unimp
    11bc:	2324                	c.fld	fs1,64(a4)
    11be:	0000                	unimp
    11c0:	2324                	c.fld	fs1,64(a4)
    11c2:	0000                	unimp
    11c4:	2324                	c.fld	fs1,64(a4)
    11c6:	0000                	unimp
    11c8:	2324                	c.fld	fs1,64(a4)
    11ca:	0000                	unimp
    11cc:	2324                	c.fld	fs1,64(a4)
    11ce:	0000                	unimp
    11d0:	2324                	c.fld	fs1,64(a4)
    11d2:	0000                	unimp
    11d4:	2324                	c.fld	fs1,64(a4)
    11d6:	0000                	unimp
    11d8:	2324                	c.fld	fs1,64(a4)
    11da:	0000                	unimp
    11dc:	2324                	c.fld	fs1,64(a4)
    11de:	0000                	unimp
    11e0:	2324                	c.fld	fs1,64(a4)
    11e2:	0000                	unimp
    11e4:	2324                	c.fld	fs1,64(a4)
    11e6:	0000                	unimp
    11e8:	2324                	c.fld	fs1,64(a4)
    11ea:	0000                	unimp
    11ec:	2324                	c.fld	fs1,64(a4)
    11ee:	0000                	unimp
    11f0:	2324                	c.fld	fs1,64(a4)
    11f2:	0000                	unimp
    11f4:	2324                	c.fld	fs1,64(a4)
    11f6:	0000                	unimp
    11f8:	2324                	c.fld	fs1,64(a4)
    11fa:	0000                	unimp
    11fc:	2324                	c.fld	fs1,64(a4)
    11fe:	0000                	unimp
    1200:	0001                	c.nop
	...

00001204 <flash_read_uid.constprop.6>:
    1204:	1141                	c.addi	sp,-16
    1206:	c606                	c.swsp	ra,12(sp)
    1208:	872a                	c.mv	a4,a0
    120a:	7d047073          	csrci	mmisc_ctl,8
    120e:	47c1                	c.li	a5,16
    1210:	4691                	c.li	a3,4
    1212:	4601                	c.li	a2,0
    1214:	00000593          	li	a1,0
    1218:	04b00513          	li	a0,75
    121c:	aa8ff0ef          	jal	ra,4c4 <flash_mspi_read_ram>
    1220:	7d046073          	csrsi	mmisc_ctl,8
    1224:	40b2                	c.lwsp	ra,12(sp)
    1226:	0141                	c.addi	sp,16
    1228:	00008067          	ret

0000122c <flash_read_mid>:
    122c:	1101                	c.addi	sp,-32
    122e:	ce06                	c.swsp	ra,28(sp)
    1230:	c602                	c.swsp	zero,12(sp)
    1232:	7d047073          	csrci	mmisc_ctl,8
    1236:	478d                	c.li	a5,3
    1238:	0078                	c.addi4spn	a4,sp,12
    123a:	4681                	c.li	a3,0
    123c:	4601                	c.li	a2,0
    123e:	4581                	c.li	a1,0
    1240:	09f00513          	li	a0,159
    1244:	a80ff0ef          	jal	ra,4c4 <flash_mspi_read_ram>
    1248:	7d046073          	csrsi	mmisc_ctl,8
    124c:	40f2                	c.lwsp	ra,28(sp)
    124e:	4532                	c.lwsp	a0,12(sp)
    1250:	6105                	c.addi16sp	sp,32
    1252:	8082                	c.jr	ra

00001254 <flash_read_mid_uid_with_check>:
    1254:	871f978b          	addigp	a5,-1936 # 80070 <cst_libm_sincosf+0x70>
    1258:	4798                	c.lw	a4,8(a5)
    125a:	4390                	c.lw	a2,0(a5)
    125c:	43d4                	c.lw	a3,4(a5)
    125e:	47dc                	c.lw	a5,12(a5)
    1260:	1101                	c.addi	sp,-32
    1262:	cc22                	c.swsp	s0,24(sp)
    1264:	ca26                	c.swsp	s1,20(sp)
    1266:	842a                	c.mv	s0,a0
    1268:	c43a                	c.swsp	a4,8(sp)
    126a:	c63e                	c.swsp	a5,12(sp)
    126c:	ce06                	c.swsp	ra,28(sp)
    126e:	84ae                	c.mv	s1,a1
    1270:	c032                	c.swsp	a2,0(sp)
    1272:	c236                	c.swsp	a3,4(sp)
    1274:	fb9ff0ef          	jal	ra,122c <flash_read_mid>
    1278:	77c1                	c.lui	a5,0xffff0
    127a:	17fd                	c.addi	a5,-1
    127c:	00146737          	lui	a4,0x146
    1280:	c008                	c.sw	a0,0(s0)
    1282:	8fe9                	c.and	a5,a0
    1284:	08570713          	addi	a4,a4,133 # 146085 <FLASH_SIZE+0x46085>
    1288:	02e78063          	beq	a5,a4,12a8 <flash_read_mid_uid_with_check+0x54>
    128c:	00166737          	lui	a4,0x166
    1290:	08570713          	addi	a4,a4,133 # 166085 <FLASH_SIZE+0x66085>
    1294:	4781                	c.li	a5,0
    1296:	00e50963          	beq	a0,a4,12a8 <flash_read_mid_uid_with_check+0x54>
    129a:	40f2                	c.lwsp	ra,28(sp)
    129c:	4462                	c.lwsp	s0,24(sp)
    129e:	44d2                	c.lwsp	s1,20(sp)
    12a0:	853e                	c.mv	a0,a5
    12a2:	6105                	c.addi16sp	sp,32
    12a4:	00008067          	ret
    12a8:	8526                	c.mv	a0,s1
    12aa:	3fa9                	c.jal	1204 <flash_read_uid.constprop.6>
    12ac:	0004c783          	lbu	a5,0(s1)
    12b0:	00014603          	lbu	a2,0(sp)
    12b4:	0014c683          	lbu	a3,1(s1)
    12b8:	00114703          	lbu	a4,1(sp)
    12bc:	8f91                	c.sub	a5,a2
    12be:	0017b793          	seqz	a5,a5
    12c2:	00e69363          	bne	a3,a4,12c8 <flash_read_mid_uid_with_check+0x74>
    12c6:	0785                	c.addi	a5,1
    12c8:	0024c683          	lbu	a3,2(s1)
    12cc:	00214703          	lbu	a4,2(sp)
    12d0:	00e69463          	bne	a3,a4,12d8 <flash_read_mid_uid_with_check+0x84>
    12d4:	00178793          	addi	a5,a5,1 # ffff0001 <_DATA_LMA_START+0xdffe82a1>
    12d8:	0034c683          	lbu	a3,3(s1)
    12dc:	00314703          	lbu	a4,3(sp)
    12e0:	00e69463          	bne	a3,a4,12e8 <flash_read_mid_uid_with_check+0x94>
    12e4:	00178793          	addi	a5,a5,1
    12e8:	0044c683          	lbu	a3,4(s1)
    12ec:	00414703          	lbu	a4,4(sp)
    12f0:	00e69463          	bne	a3,a4,12f8 <flash_read_mid_uid_with_check+0xa4>
    12f4:	00178793          	addi	a5,a5,1
    12f8:	0054c683          	lbu	a3,5(s1)
    12fc:	00514703          	lbu	a4,5(sp)
    1300:	00e69463          	bne	a3,a4,1308 <flash_read_mid_uid_with_check+0xb4>
    1304:	00178793          	addi	a5,a5,1
    1308:	0064c683          	lbu	a3,6(s1)
    130c:	00614703          	lbu	a4,6(sp)
    1310:	00e69463          	bne	a3,a4,1318 <flash_read_mid_uid_with_check+0xc4>
    1314:	00178793          	addi	a5,a5,1
    1318:	0074c683          	lbu	a3,7(s1)
    131c:	00714703          	lbu	a4,7(sp)
    1320:	00e69463          	bne	a3,a4,1328 <flash_read_mid_uid_with_check+0xd4>
    1324:	00178793          	addi	a5,a5,1
    1328:	0084c683          	lbu	a3,8(s1)
    132c:	00814703          	lbu	a4,8(sp)
    1330:	00e69463          	bne	a3,a4,1338 <flash_read_mid_uid_with_check+0xe4>
    1334:	00178793          	addi	a5,a5,1
    1338:	0094c683          	lbu	a3,9(s1)
    133c:	00914703          	lbu	a4,9(sp)
    1340:	00e69463          	bne	a3,a4,1348 <flash_read_mid_uid_with_check+0xf4>
    1344:	00178793          	addi	a5,a5,1
    1348:	00a4c683          	lbu	a3,10(s1)
    134c:	00a14703          	lbu	a4,10(sp)
    1350:	00e69463          	bne	a3,a4,1358 <flash_read_mid_uid_with_check+0x104>
    1354:	00178793          	addi	a5,a5,1
    1358:	00b4c683          	lbu	a3,11(s1)
    135c:	00b14703          	lbu	a4,11(sp)
    1360:	00e69463          	bne	a3,a4,1368 <flash_read_mid_uid_with_check+0x114>
    1364:	00178793          	addi	a5,a5,1
    1368:	00c4c683          	lbu	a3,12(s1)
    136c:	00c14703          	lbu	a4,12(sp)
    1370:	00e69463          	bne	a3,a4,1378 <flash_read_mid_uid_with_check+0x124>
    1374:	00178793          	addi	a5,a5,1
    1378:	00d4c683          	lbu	a3,13(s1)
    137c:	00d14703          	lbu	a4,13(sp)
    1380:	00e69463          	bne	a3,a4,1388 <flash_read_mid_uid_with_check+0x134>
    1384:	00178793          	addi	a5,a5,1
    1388:	00e4c683          	lbu	a3,14(s1)
    138c:	00e14703          	lbu	a4,14(sp)
    1390:	00e69463          	bne	a3,a4,1398 <flash_read_mid_uid_with_check+0x144>
    1394:	00178793          	addi	a5,a5,1
    1398:	00f14683          	lbu	a3,15(sp)
    139c:	00f4c703          	lbu	a4,15(s1)
    13a0:	00e69463          	bne	a3,a4,13a8 <flash_read_mid_uid_with_check+0x154>
    13a4:	00178793          	addi	a5,a5,1
    13a8:	40f2                	c.lwsp	ra,28(sp)
    13aa:	4462                	c.lwsp	s0,24(sp)
    13ac:	17c1                	c.addi	a5,-16
    13ae:	00f037b3          	snez	a5,a5
    13b2:	44d2                	c.lwsp	s1,20(sp)
    13b4:	853e                	c.mv	a0,a5
    13b6:	6105                	c.addi16sp	sp,32
    13b8:	00008067          	ret

000013bc <flash_dread>:
    13bc:	1141                	c.addi	sp,-16
    13be:	c606                	c.swsp	ra,12(sp)
    13c0:	87b2                	c.mv	a5,a2
    13c2:	7d047073          	csrci	mmisc_ctl,8
    13c6:	862e                	c.mv	a2,a1
    13c8:	00f005b3          	add	a1,zero,a5
    13cc:	a78ff0ef          	jal	ra,644 <flash_mspi_read_ram.constprop.7>
    13d0:	7d046073          	csrsi	mmisc_ctl,8
    13d4:	40b2                	c.lwsp	ra,12(sp)
    13d6:	0141                	c.addi	sp,16
    13d8:	00008067          	ret

000013dc <clock_init.constprop.10>:
    13dc:	1141                	c.addi	sp,-16
    13de:	c606                	c.swsp	ra,12(sp)
    13e0:	7d047073          	csrci	mmisc_ctl,8
    13e4:	c3cff0ef          	jal	ra,820 <clock_init_ram.constprop.11>
    13e8:	7d046073          	csrsi	mmisc_ctl,8
    13ec:	40b2                	c.lwsp	ra,12(sp)
    13ee:	0141                	c.addi	sp,16
    13f0:	00008067          	ret

000013f4 <pm_sleep_wakeup.constprop.2>:
    13f4:	1141                	c.addi	sp,-16
    13f6:	c606                	c.swsp	ra,12(sp)
    13f8:	7d047073          	csrci	mmisc_ctl,8
    13fc:	8cdff0ef          	jal	ra,cc8 <pm_sleep_wakeup_ram.constprop.3>
    1400:	7d046073          	csrsi	mmisc_ctl,8
    1404:	40b2                	c.lwsp	ra,12(sp)
    1406:	0141                	c.addi	sp,16
    1408:	8082                	c.jr	ra
    140a:	0001                	c.nop

0000140c <user_calib_adc_vref.constprop.9>:
    140c:	1101                	c.addi	sp,-32
    140e:	ce06                	c.swsp	ra,28(sp)
    1410:	c402                	c.swsp	zero,8(sp)
    1412:	00011623          	sh	zero,12(sp)
    1416:	00010723          	sb	zero,14(sp)
    141a:	c54d                	c.beqz	a0,14c4 <user_calib_adc_vref.constprop.9+0xb8>
    141c:	000007b7          	lui	a5,0x0
    1420:	1587a783          	lw	a5,344(a5) # 158 <_AES_VMA_END>
    1424:	0030                	c.addi4spn	a2,sp,8
    1426:	459d                	c.li	a1,7
    1428:	9782                	c.jalr	a5
    142a:	00c14783          	lbu	a5,12(sp)
    142e:	1c07b75b          	bfos	a4,a5,7,0
    1432:	04074163          	bltz	a4,1474 <user_calib_adc_vref.constprop.9+0x68>
    1436:	00e14703          	lbu	a4,14(sp)
    143a:	00d14603          	lbu	a2,13(sp)
    143e:	0722                	c.slli	a4,0x8
    1440:	66c1                	c.lui	a3,0x10
    1442:	00c705b3          	add	a1,a4,a2
    1446:	16fd                	c.addi	a3,-1
    1448:	02d58663          	beq	a1,a3,1474 <user_calib_adc_vref.constprop.9+0x68>
    144c:	fd060613          	addi	a2,a2,-48
    1450:	9732                	c.add	a4,a2
    1452:	3c07275b          	bfoz	a4,a4,15,0
    1456:	0fb00693          	li	a3,251
    145a:	08e6e563          	bltu	a3,a4,14e4 <user_calib_adc_vref.constprop.9+0xd8>
    145e:	17b1                	c.addi	a5,-20
    1460:	1c07b7db          	bfos	a5,a5,7,0
    1464:	5731                	c.li	a4,-20
    1466:	06e78f63          	beq	a5,a4,14e4 <user_calib_adc_vref.constprop.9+0xd8>
    146a:	f9578513          	addi	a0,a5,-107
    146e:	00a03533          	snez	a0,a0
    1472:	a89d                	c.j	14e8 <user_calib_adc_vref.constprop.9+0xdc>
    1474:	801407b7          	lui	a5,0x80140
    1478:	06500713          	li	a4,101
    147c:	1ee78a23          	sb	a4,500(a5) # 801401f4 <_DATA_LMA_START+0x60138494>
    1480:	1c87a703          	lw	a4,456(a5)
    1484:	1e078a23          	sb	zero,500(a5)
    1488:	4c47275b          	bfoz	a4,a4,19,4
    148c:	380727db          	bfoz	a5,a4,14,0
    1490:	06078063          	beqz	a5,14f0 <user_calib_adc_vref.constprop.9+0xe4>
    1494:	1ff77713          	andi	a4,a4,511
    1498:	f9b70713          	addi	a4,a4,-101
    149c:	3c07275b          	bfoz	a4,a4,15,0
    14a0:	0c600693          	li	a3,198
    14a4:	04e6e063          	bltu	a3,a4,14e4 <user_calib_adc_vref.constprop.9+0xd8>
    14a8:	0097d513          	srli	a0,a5,0x9
    14ac:	1531                	c.addi	a0,-20
    14ae:	1c05355b          	bfos	a0,a0,7,0
    14b2:	57b1                	c.li	a5,-20
    14b4:	02f50863          	beq	a0,a5,14e4 <user_calib_adc_vref.constprop.9+0xd8>
    14b8:	fd550513          	addi	a0,a0,-43 # 3fffffd5 <_DATA_LMA_START+0x1fff8275>
    14bc:	00a03533          	snez	a0,a0
    14c0:	0280006f          	j	14e8 <user_calib_adc_vref.constprop.9+0xdc>
    14c4:	801407b7          	lui	a5,0x80140
    14c8:	06500713          	li	a4,101
    14cc:	1ee78a23          	sb	a4,500(a5) # 801401f4 <_DATA_LMA_START+0x60138494>
    14d0:	1c87a703          	lw	a4,456(a5)
    14d4:	1e078a23          	sb	zero,500(a5)
    14d8:	4c47275b          	bfoz	a4,a4,19,4
    14dc:	380727db          	bfoz	a5,a4,14,0
    14e0:	fa079ae3          	bnez	a5,1494 <user_calib_adc_vref.constprop.9+0x88>
    14e4:	00000513          	li	a0,0
    14e8:	40f2                	c.lwsp	ra,28(sp)
    14ea:	6105                	c.addi16sp	sp,32
    14ec:	00008067          	ret
    14f0:	00814503          	lbu	a0,8(sp)
    14f4:	00914783          	lbu	a5,9(sp)
    14f8:	953e                	c.add	a0,a5
    14fa:	f8050513          	addi	a0,a0,-128
    14fe:	3c05255b          	bfoz	a0,a0,15,0
    1502:	0fc53513          	sltiu	a0,a0,252
    1506:	b7cd                	c.j	14e8 <user_calib_adc_vref.constprop.9+0xdc>

00001508 <user_calib_freq_offset.constprop.8>:
    1508:	000007b7          	lui	a5,0x0
    150c:	1101                	c.addi	sp,-32
    150e:	1587a783          	lw	a5,344(a5) # 158 <_AES_VMA_END>
    1512:	577d                	c.li	a4,-1
    1514:	00f10613          	addi	a2,sp,15
    1518:	4585                	c.li	a1,1
    151a:	cc22                	c.swsp	s0,24(sp)
    151c:	ce06                	c.swsp	ra,28(sp)
    151e:	00e107a3          	sb	a4,15(sp)
    1522:	9782                	c.jalr	a5
    1524:	00f14403          	lbu	s0,15(sp)
    1528:	0ff00793          	li	a5,255
    152c:	00000513          	li	a0,0
    1530:	02f40263          	beq	s0,a5,1554 <user_calib_freq_offset.constprop.8+0x4c>
    1534:	08a00513          	li	a0,138
    1538:	a9cff0ef          	jal	ra,7d4 <analog_read_reg8>
    153c:	03f47413          	andi	s0,s0,63
    1540:	04057593          	andi	a1,a0,64
    1544:	0085e5b3          	or	a1,a1,s0
    1548:	08a00513          	li	a0,138
    154c:	a44ff0ef          	jal	ra,790 <analog_write_reg8>
    1550:	00100513          	li	a0,1
    1554:	40f2                	c.lwsp	ra,28(sp)
    1556:	4462                	c.lwsp	s0,24(sp)
    1558:	6105                	c.addi16sp	sp,32
    155a:	8082                	c.jr	ra
    155c:	0001                	c.nop
	...

00001560 <gpio_input_dis>:
    1560:	801407b7          	lui	a5,0x80140
    1564:	30978703          	lb	a4,777(a5) # 80140309 <_DATA_LMA_START+0x601385a9>
    1568:	fff54513          	not	a0,a0
    156c:	8d79                	c.and	a0,a4
    156e:	0ff57513          	andi	a0,a0,255
    1572:	30a784a3          	sb	a0,777(a5)
    1576:	8082                	c.jr	ra
    1578:	0001                	c.nop
	...

0000157c <_write>:
    157c:	1141                	c.addi	sp,-16
    157e:	c606                	c.swsp	ra,12(sp)
    1580:	c422                	c.swsp	s0,8(sp)
    1582:	c226                	c.swsp	s1,4(sp)
    1584:	c04a                	c.swsp	s2,0(sp)
    1586:	02c05763          	blez	a2,15b4 <_write+0x38>
    158a:	8932                	c.mv	s2,a2
    158c:	00b00433          	add	s0,zero,a1
    1590:	00c584b3          	add	s1,a1,a2
    1594:	00044503          	lbu	a0,0(s0)
    1598:	00140413          	addi	s0,s0,1
    159c:	e0cff0ef          	jal	ra,ba8 <dr_putchar>
    15a0:	fe941ae3          	bne	s0,s1,1594 <_write+0x18>
    15a4:	40b2                	c.lwsp	ra,12(sp)
    15a6:	4422                	c.lwsp	s0,8(sp)
    15a8:	854a                	c.mv	a0,s2
    15aa:	4492                	c.lwsp	s1,4(sp)
    15ac:	4902                	c.lwsp	s2,0(sp)
    15ae:	0141                	c.addi	sp,16
    15b0:	00008067          	ret
    15b4:	40b2                	c.lwsp	ra,12(sp)
    15b6:	4422                	c.lwsp	s0,8(sp)
    15b8:	4901                	c.li	s2,0
    15ba:	854a                	c.mv	a0,s2
    15bc:	4492                	c.lwsp	s1,4(sp)
    15be:	4902                	c.lwsp	s2,0(sp)
    15c0:	0141                	c.addi	sp,16
    15c2:	8082                	c.jr	ra

000015c4 <main>:
    15c4:	712d                	c.addi16sp	sp,-288
    15c6:	ffbc07b7          	lui	a5,0xffbc0
    15ca:	10112e23          	sw	ra,284(sp)
    15ce:	17fd                	c.addi	a5,-1
    15d0:	80140737          	lui	a4,0x80140
    15d4:	10812c23          	sw	s0,280(sp)
    15d8:	10912a23          	sw	s1,276(sp)
    15dc:	11212823          	sw	s2,272(sp)
    15e0:	11312623          	sw	s3,268(sp)
    15e4:	11412423          	sw	s4,264(sp)
    15e8:	11512223          	sw	s5,260(sp)
    15ec:	11612023          	sw	s6,256(sp)
    15f0:	dfde                	c.swsp	s7,252(sp)
    15f2:	dde2                	c.swsp	s8,248(sp)
    15f4:	dbe6                	c.swsp	s9,244(sp)
    15f6:	d9ea                	c.swsp	s10,240(sp)
    15f8:	d7ee                	c.swsp	s11,236(sp)
    15fa:	efa2                	c.fswsp	fs0,220(sp)
    15fc:	eda6                	c.fswsp	fs1,216(sp)
    15fe:	ebca                	c.fswsp	fs2,212(sp)
    1600:	e9ce                	c.fswsp	fs3,208(sp)
    1602:	1ef72023          	sw	a5,480(a4) # 801401e0 <_DATA_LMA_START+0x60138480>
    1606:	4589                	c.li	a1,2
    1608:	08c00513          	li	a0,140
    160c:	1ef72223          	sw	a5,484(a4)
    1610:	980ff0ef          	jal	ra,790 <analog_write_reg8>
    1614:	4581                	c.li	a1,0
    1616:	4529                	c.li	a0,10
    1618:	978ff0ef          	jal	ra,790 <analog_write_reg8>
    161c:	03b00593          	li	a1,59
    1620:	00b00513          	li	a0,11
    1624:	96cff0ef          	jal	ra,790 <analog_write_reg8>
    1628:	00500513          	li	a0,5
    162c:	9a8ff0ef          	jal	ra,7d4 <analog_read_reg8>
    1630:	0f757593          	andi	a1,a0,247
    1634:	00500513          	li	a0,5
    1638:	958ff0ef          	jal	ra,790 <analog_write_reg8>
    163c:	00600513          	li	a0,6
    1640:	994ff0ef          	jal	ra,7d4 <analog_read_reg8>
    1644:	03e57593          	andi	a1,a0,62
    1648:	00600513          	li	a0,6
    164c:	944ff0ef          	jal	ra,790 <analog_write_reg8>
    1650:	04500593          	li	a1,69
    1654:	00100513          	li	a0,1
    1658:	938ff0ef          	jal	ra,790 <analog_write_reg8>
    165c:	04c00593          	li	a1,76
    1660:	01c00513          	li	a0,28
    1664:	92cff0ef          	jal	ra,790 <analog_write_reg8>
    1668:	801007b7          	lui	a5,0x80100
    166c:	44478703          	lb	a4,1092(a5) # 80100444 <_DATA_LMA_START+0x600f86e4>
    1670:	801016b7          	lui	a3,0x80101
    1674:	0ff77713          	andi	a4,a4,255
    1678:	00e76713          	ori	a4,a4,14
    167c:	44e78223          	sb	a4,1092(a5)
    1680:	45878703          	lb	a4,1112(a5)
    1684:	03800513          	li	a0,56
    1688:	0ff77713          	andi	a4,a4,255
    168c:	00e76713          	ori	a4,a4,14
    1690:	44e78c23          	sb	a4,1112(a5)
    1694:	46c78703          	lb	a4,1132(a5)
    1698:	0ff77713          	andi	a4,a4,255
    169c:	00e76713          	ori	a4,a4,14
    16a0:	46e78623          	sb	a4,1132(a5)
    16a4:	48078703          	lb	a4,1152(a5)
    16a8:	0ff77713          	andi	a4,a4,255
    16ac:	00e76713          	ori	a4,a4,14
    16b0:	48e78023          	sb	a4,1152(a5)
    16b4:	49478703          	lb	a4,1172(a5)
    16b8:	0ff77713          	andi	a4,a4,255
    16bc:	00e76713          	ori	a4,a4,14
    16c0:	48e78a23          	sb	a4,1172(a5)
    16c4:	4a878703          	lb	a4,1192(a5)
    16c8:	0ff77713          	andi	a4,a4,255
    16cc:	00e76713          	ori	a4,a4,14
    16d0:	4ae78423          	sb	a4,1192(a5)
    16d4:	4bc78703          	lb	a4,1212(a5)
    16d8:	0ff77713          	andi	a4,a4,255
    16dc:	00e76713          	ori	a4,a4,14
    16e0:	4ae78e23          	sb	a4,1212(a5)
    16e4:	4d078703          	lb	a4,1232(a5)
    16e8:	0ff77713          	andi	a4,a4,255
    16ec:	00e76713          	ori	a4,a4,14
    16f0:	4ce78823          	sb	a4,1232(a5)
    16f4:	83a68783          	lb	a5,-1990(a3) # 8010083a <_DATA_LMA_START+0x600f8ada>
    16f8:	82068d23          	sb	zero,-1990(a3)
    16fc:	8d8ff0ef          	jal	ra,7d4 <analog_read_reg8>
    1700:	00a00433          	add	s0,zero,a0
    1704:	03900513          	li	a0,57
    1708:	8ccff0ef          	jal	ra,7d4 <analog_read_reg8>
    170c:	84aa                	c.mv	s1,a0
    170e:	1804715b          	bbc	s0,0,1890 <main+0x2cc>
    1712:	0fe47593          	andi	a1,s0,254
    1716:	1405795b          	bbc	a0,0,1868 <main+0x2a4>
    171a:	4742140b          	addigp	s0,5236 # 81c74 <g_pm_status_info>
    171e:	4791                	c.li	a5,4
    1720:	03800513          	li	a0,56
    1724:	00f40123          	sb	a5,2(s0)
    1728:	868ff0ef          	jal	ra,790 <analog_write_reg8>
    172c:	00100593          	li	a1,1
    1730:	07f00513          	li	a0,127
    1734:	85cff0ef          	jal	ra,790 <analog_write_reg8>
    1738:	06400513          	li	a0,100
    173c:	898ff0ef          	jal	ra,7d4 <analog_read_reg8>
    1740:	0c3527db          	bfoz	a5,a0,3,3
    1744:	00a400a3          	sb	a0,1(s0)
    1748:	00f40023          	sb	a5,0(s0)
    174c:	08800513          	li	a0,136
    1750:	884ff0ef          	jal	ra,7d4 <analog_read_reg8>
    1754:	be757c5b          	bbc	a0,7,174c <main+0x188>
    1758:	a08ff0ef          	jal	ra,960 <pm_wait_bbpll_done>
    175c:	00244783          	lbu	a5,2(s0)
    1760:	0a87dc5b          	beqc	a5,8,1818 <main+0x254>
    1764:	80140737          	lui	a4,0x80140
    1768:	20a70783          	lb	a5,522(a4) # 8014020a <_DATA_LMA_START+0x601384aa>
    176c:	0ff7f793          	andi	a5,a5,255
    1770:	00c7e793          	ori	a5,a5,12
    1774:	20f70523          	sb	a5,522(a4)
    1778:	00100793          	li	a5,1
    177c:	20f72023          	sw	a5,512(a4)
    1780:	801404b7          	lui	s1,0x80140
    1784:	1fd48783          	lb	a5,509(s1) # 801401fd <_DATA_LMA_START+0x6013849d>
    1788:	0ff7f793          	andi	a5,a5,255
    178c:	46f2482b          	swgp	a5,5232 # 81c70 <g_chip_version>
    1790:	00244703          	lbu	a4,2(s0)
    1794:	04475c5b          	beqc	a4,4,17ec <main+0x228>
    1798:	0ff00693          	li	a3,255
    179c:	04d78063          	beq	a5,a3,17dc <main+0x218>
    17a0:	08000593          	li	a1,128
    17a4:	07d00513          	li	a0,125
    17a8:	fe9fe0ef          	jal	ra,790 <analog_write_reg8>
    17ac:	80140737          	lui	a4,0x80140
    17b0:	06500793          	li	a5,101
    17b4:	1ef70a23          	sb	a5,500(a4) # 801401f4 <_DATA_LMA_START+0x60138494>
    17b8:	1c872783          	lw	a5,456(a4)
    17bc:	1e070a23          	sb	zero,500(a4)
    17c0:	8bbd                	c.andi	a5,15
    17c2:	0037d55b          	beqc	a5,3,17cc <main+0x208>
    17c6:	4725                	c.li	a4,9
    17c8:	04f77c63          	bgeu	a4,a5,1820 <main+0x25c>
    17cc:	801407b7          	lui	a5,0x80140
    17d0:	02000713          	li	a4,32
    17d4:	1ee787a3          	sb	a4,495(a5) # 801401ef <_DATA_LMA_START+0x6013848f>
    17d8:	0000006f          	j	17d8 <main+0x214>
    17dc:	bc17625b          	bnec	a4,1,17a0 <main+0x1dc>
    17e0:	07d00513          	li	a0,125
    17e4:	08000593          	li	a1,128
    17e8:	0180006f          	j	1800 <main+0x23c>
    17ec:	03900513          	li	a0,57
    17f0:	fe5fe0ef          	jal	ra,7d4 <analog_read_reg8>
    17f4:	00256593          	ori	a1,a0,2
    17f8:	0ff5f593          	andi	a1,a1,255
    17fc:	03900513          	li	a0,57
    1800:	f91fe0ef          	jal	ra,790 <analog_write_reg8>
    1804:	2004a503          	lw	a0,512(s1)
    1808:	001877b7          	lui	a5,0x187
    180c:	a0078793          	addi	a5,a5,-1536 # 186a00 <FLASH_SIZE+0x86a00>
    1810:	953e                	c.add	a0,a5
    1812:	36cd                	c.jal	13f4 <pm_sleep_wakeup.constprop.2>
    1814:	f8dff06f          	j	17a0 <main+0x1dc>
    1818:	b65fe0ef          	jal	ra,37c <pm_stimer_recover>
    181c:	f65ff06f          	j	1780 <main+0x1bc>
    1820:	00f00513          	li	a0,15
    1824:	fb1fe0ef          	jal	ra,7d4 <analog_read_reg8>
    1828:	03f57593          	andi	a1,a0,63
    182c:	0405e593          	ori	a1,a1,64
    1830:	00f00513          	li	a0,15
    1834:	f5dfe0ef          	jal	ra,790 <analog_write_reg8>
    1838:	112c                	c.addi4spn	a1,sp,168
    183a:	0108                	c.addi4spn	a0,sp,128
    183c:	a19ff0ef          	jal	ra,1254 <flash_read_mid_uid_with_check>
    1840:	0ff57513          	andi	a0,a0,255
    1844:	0015545b          	beqc	a0,1,184c <main+0x288>
    1848:	2d10006f          	j	2318 <main+0xd54>
    184c:	08210783          	lb	a5,130(sp)
    1850:	4719                	c.li	a4,6
    1852:	17c1                	c.addi	a5,-16
    1854:	0ff7f793          	andi	a5,a5,255
    1858:	2cf760e3          	bltu	a4,a5,2318 <main+0xd54>
    185c:	855f970b          	addigp	a4,-1964 # 80054 <cst_libm_sincosf+0x54>
    1860:	0cf707db          	lea.w	a5,a4,a5
    1864:	439c                	c.lw	a5,0(a5)
    1866:	8782                	c.jr	a5
    1868:	00100793          	li	a5,1
    186c:	4742140b          	addigp	s0,5236 # 81c74 <g_pm_status_info>
    1870:	03800513          	li	a0,56
    1874:	00f40123          	sb	a5,2(s0)
    1878:	f19fe0ef          	jal	ra,790 <analog_write_reg8>
    187c:	0014e593          	ori	a1,s1,1
    1880:	0ff5f593          	andi	a1,a1,255
    1884:	03900513          	li	a0,57
    1888:	f09fe0ef          	jal	ra,790 <analog_write_reg8>
    188c:	ea1ff06f          	j	172c <main+0x168>
    1890:	07f00513          	li	a0,127
    1894:	f41fe0ef          	jal	ra,7d4 <analog_read_reg8>
    1898:	4005745b          	bbs	a0,0,18a0 <main+0x2dc>
    189c:	1f50006f          	j	2290 <main+0xccc>
    18a0:	0014f45b          	bbc	s1,1,18a8 <main+0x2e4>
    18a4:	1d10006f          	j	2274 <main+0xcb0>
    18a8:	4742140b          	addigp	s0,5236 # 81c74 <g_pm_status_info>
    18ac:	47c1                	c.li	a5,16
    18ae:	00f40123          	sb	a5,2(s0)
    18b2:	bdad                	c.j	172c <main+0x168>
    18b4:	003fe537          	lui	a0,0x3fe
    18b8:	0c050513          	addi	a0,a0,192 # 3fe0c0 <FLASH_SIZE+0x2fe0c0>
    18bc:	b51ff0ef          	jal	ra,140c <user_calib_adc_vref.constprop.9>
    18c0:	003fe537          	lui	a0,0x3fe
    18c4:	c45ff0ef          	jal	ra,1508 <user_calib_freq_offset.constprop.8>
    18c8:	80140437          	lui	s0,0x80140
    18cc:	b11ff0ef          	jal	ra,13dc <clock_init.constprop.10>
    18d0:	30e40783          	lb	a5,782(s0) # 8014030e <_DATA_LMA_START+0x601385ae>
    18d4:	11000513          	li	a0,272
    18d8:	0ff7f793          	andi	a5,a5,255
    18dc:	0107e793          	ori	a5,a5,16
    18e0:	30f40723          	sb	a5,782(s0)
    18e4:	30a40783          	lb	a5,778(s0)
    18e8:	0ef7f793          	andi	a5,a5,239
    18ec:	30f40523          	sb	a5,778(s0)
    18f0:	c71ff0ef          	jal	ra,1560 <gpio_input_dis>
    18f4:	30e40783          	lb	a5,782(s0)
    18f8:	12000513          	li	a0,288
    18fc:	0ff7f793          	andi	a5,a5,255
    1900:	0207e793          	ori	a5,a5,32
    1904:	30f40723          	sb	a5,782(s0)
    1908:	30a40783          	lb	a5,778(s0)
    190c:	0df7f793          	andi	a5,a5,223
    1910:	30f40523          	sb	a5,778(s0)
    1914:	c4dff0ef          	jal	ra,1560 <gpio_input_dis>
    1918:	30e40783          	lb	a5,782(s0)
    191c:	14000513          	li	a0,320
    1920:	0ff7f793          	andi	a5,a5,255
    1924:	0407e793          	ori	a5,a5,64
    1928:	30f40723          	sb	a5,782(s0)
    192c:	30a40783          	lb	a5,778(s0)
    1930:	0bf7f793          	andi	a5,a5,191
    1934:	30f40523          	sb	a5,778(s0)
    1938:	c29ff0ef          	jal	ra,1560 <gpio_input_dis>
    193c:	30e40783          	lb	a5,782(s0)
    1940:	18000513          	li	a0,384
    1944:	f807e793          	ori	a5,a5,-128
    1948:	0ff7f793          	andi	a5,a5,255
    194c:	30f40723          	sb	a5,782(s0)
    1950:	30a40783          	lb	a5,778(s0)
    1954:	07f7f793          	andi	a5,a5,127
    1958:	30f40523          	sb	a5,778(s0)
    195c:	c05ff0ef          	jal	ra,1560 <gpio_input_dis>
    1960:	00080537          	lui	a0,0x80
    1964:	09850513          	addi	a0,a0,152 # 80098 <FFT_SIZES+0x18>
    1968:	6a4050ef          	jal	ra,700c <puts>
    196c:	65a9                	c.lui	a1,0xa
    196e:	00080537          	lui	a0,0x80
    1972:	0585                	c.addi	a1,1
    1974:	09c50513          	addi	a0,a0,156 # 8009c <FFT_SIZES+0x1c>
    1978:	676050ef          	jal	ra,6fee <iprintf>
    197c:	00080537          	lui	a0,0x80
    1980:	7e400593          	li	a1,2020
    1984:	0b450513          	addi	a0,a0,180 # 800b4 <FFT_SIZES+0x34>
    1988:	666050ef          	jal	ra,6fee <iprintf>
    198c:	000805b7          	lui	a1,0x80
    1990:	00080537          	lui	a0,0x80
    1994:	0cc58593          	addi	a1,a1,204 # 800cc <FFT_SIZES+0x4c>
    1998:	0d850513          	addi	a0,a0,216 # 800d8 <FFT_SIZES+0x58>
    199c:	652050ef          	jal	ra,6fee <iprintf>
    19a0:	861fe0ef          	jal	ra,200 <delay_ms.constprop.12>
    19a4:	300027f3          	csrr	a5,mstatus
    19a8:	0037f65b          	bbc	a5,3,19b4 <main+0x3f0>
    19ac:	300477f3          	csrrci	a5,mstatus,8
    19b0:	0ff0000f          	fence
    19b4:	44a2250b          	lbugp	a0,5194 # 81c4a <sys_clk+0x2>
    19b8:	709040ef          	jal	ra,68c0 <__floatsidf>
    19bc:	000807b7          	lui	a5,0x80
    19c0:	02078793          	addi	a5,a5,32 # 80020 <cst_libm_sincosf+0x20>
    19c4:	43d4                	c.lw	a3,4(a5)
    19c6:	4390                	c.lw	a2,0(a5)
    19c8:	000804b7          	lui	s1,0x80
    19cc:	4d5030ef          	jal	ra,56a0 <__muldf3>
    19d0:	45821a8b          	addigp	s5,5208 # 81c58 <_BSS_VMA_START>
    19d4:	655040ef          	jal	ra,6828 <__fixunsdfsi>
    19d8:	00aaa023          	sw	a0,0(s5)
    19dc:	2ec48513          	addi	a0,s1,748 # 802ec <FFT_SIZES+0x26c>
    19e0:	60e050ef          	jal	ra,6fee <iprintf>
    19e4:	00080537          	lui	a0,0x80
    19e8:	10050513          	addi	a0,a0,256 # 80100 <FFT_SIZES+0x80>
    19ec:	602050ef          	jal	ra,6fee <iprintf>
    19f0:	2ec48513          	addi	a0,s1,748
    19f4:	5fa050ef          	jal	ra,6fee <iprintf>
    19f8:	000aa583          	lw	a1,0(s5)
    19fc:	00080537          	lui	a0,0x80
    1a00:	12c50513          	addi	a0,a0,300 # 8012c <FFT_SIZES+0xac>
    1a04:	5ea050ef          	jal	ra,6fee <iprintf>
    1a08:	2ec48513          	addi	a0,s1,748
    1a0c:	5e2050ef          	jal	ra,6fee <iprintf>
    1a10:	00080537          	lui	a0,0x80
    1a14:	14c50513          	addi	a0,a0,332 # 8014c <FFT_SIZES+0xcc>
    1a18:	5d6050ef          	jal	ra,6fee <iprintf>
    1a1c:	000804b7          	lui	s1,0x80
    1a20:	0484a487          	flw	fs1,72(s1) # 80048 <cst_libm_sincosf+0x48>
    1a24:	000804b7          	lui	s1,0x80
    1a28:	04c4a907          	flw	fs2,76(s1) # 8004c <cst_libm_sincosf+0x4c>
    1a2c:	881f948b          	addigp	s1,-1920 # 80080 <FFT_SIZES>
    1a30:	000807b7          	lui	a5,0x80
    1a34:	c826                	c.swsp	s1,16(sp)
    1a36:	c426                	c.swsp	s1,8(sp)
    1a38:	02878493          	addi	s1,a5,40 # 80028 <cst_libm_sincosf+0x28>
    1a3c:	000807b7          	lui	a5,0x80
    1a40:	d026                	c.swsp	s1,32(sp)
    1a42:	03078493          	addi	s1,a5,48 # 80030 <cst_libm_sincosf+0x30>
    1a46:	000807b7          	lui	a5,0x80
    1a4a:	03878693          	addi	a3,a5,56 # 80038 <cst_libm_sincosf+0x38>
    1a4e:	d426                	c.swsp	s1,40(sp)
    1a50:	02d12623          	sw	a3,44(sp)
    1a54:	44a2                	c.lwsp	s1,8(sp)
    1a56:	4080                	c.lw	s0,0(s1)
    1a58:	00800533          	add	a0,zero,s0
    1a5c:	665040ef          	jal	ra,68c0 <__floatsidf>
    1a60:	1f4020ef          	jal	ra,3c54 <log>
    1a64:	5682                	c.lwsp	a3,32(sp)
    1a66:	00341493          	slli	s1,s0,0x3
    1a6a:	4290                	c.lw	a2,0(a3)
    1a6c:	42d4                	c.lw	a3,4(a3)
    1a6e:	cc26                	c.swsp	s1,24(sp)
    1a70:	37c030ef          	jal	ra,4dec <__divdf3>
    1a74:	4ed040ef          	jal	ra,6760 <__fixdfsi>
    1a78:	ca2a                	c.swsp	a0,20(sp)
    1a7a:	8526                	c.mv	a0,s1
    1a7c:	330050ef          	jal	ra,6dac <malloc>
    1a80:	8b2a                	c.mv	s6,a0
    1a82:	8526                	c.mv	a0,s1
    1a84:	328050ef          	jal	ra,6dac <malloc>
    1a88:	00241493          	slli	s1,s0,0x2
    1a8c:	c22a                	c.swsp	a0,4(sp)
    1a8e:	8caa                	c.mv	s9,a0
    1a90:	8526                	c.mv	a0,s1
    1a92:	d226                	c.swsp	s1,36(sp)
    1a94:	318050ef          	jal	ra,6dac <malloc>
    1a98:	8a2a                	c.mv	s4,a0
    1a9a:	8526                	c.mv	a0,s1
    1a9c:	310050ef          	jal	ra,6dac <malloc>
    1aa0:	00a00bb3          	add	s7,zero,a0
    1aa4:	580b0663          	beqz	s6,2030 <main+0xa6c>
    1aa8:	580c8463          	beqz	s9,2030 <main+0xa6c>
    1aac:	580a0263          	beqz	s4,2030 <main+0xa6c>
    1ab0:	58050063          	beqz	a0,2030 <main+0xa6c>
    1ab4:	04805463          	blez	s0,1afc <main+0x538>
    1ab8:	4912                	c.lwsp	s2,4(sp)
    1aba:	f0000553          	fmv.w.x	fa0,zero
    1abe:	4481                	c.li	s1,0
    1ac0:	02c0006f          	j	1aec <main+0x528>
    1ac4:	00900533          	add	a0,zero,s1
    1ac8:	5f9040ef          	jal	ra,68c0 <__floatsidf>
    1acc:	56a2                	c.lwsp	a3,40(sp)
    1ace:	4290                	c.lw	a2,0(a3)
    1ad0:	0046a683          	lw	a3,4(a3)
    1ad4:	3cd030ef          	jal	ra,56a0 <__muldf3>
    1ad8:	56b2                	c.lwsp	a3,44(sp)
    1ada:	4290                	c.lw	a2,0(a3)
    1adc:	0046a683          	lw	a3,4(a3)
    1ae0:	3c1030ef          	jal	ra,56a0 <__muldf3>
    1ae4:	769040ef          	jal	ra,6a4c <__truncdfsf2>
    1ae8:	650020ef          	jal	ra,4138 <sinf>
    1aec:	00a92027          	fsw	fa0,0(s2)
    1af0:	00092223          	sw	zero,4(s2)
    1af4:	0485                	c.addi	s1,1
    1af6:	0921                	c.addi	s2,8
    1af8:	fc9416e3          	bne	s0,s1,1ac4 <main+0x500>
    1afc:	000804b7          	lui	s1,0x80
    1b00:	1a448513          	addi	a0,s1,420 # 801a4 <FFT_SIZES+0x124>
    1b04:	85a2                	c.mv	a1,s0
    1b06:	1124                	c.addi4spn	s1,sp,168
    1b08:	4e6050ef          	jal	ra,6fee <iprintf>
    1b0c:	c026                	c.swsp	s1,0(sp)
    1b0e:	4485                	c.li	s1,1
    1b10:	c626                	c.swsp	s1,12(sp)
    1b12:	fff617b7          	lui	a5,0xfff61
    1b16:	aaaab937          	lui	s2,0xaaaab
    1b1a:	000804b7          	lui	s1,0x80
    1b1e:	fff78693          	addi	a3,a5,-1 # fff60fff <_DATA_LMA_START+0xdff5929f>
    1b22:	08010c93          	addi	s9,sp,128
    1b26:	4981                	c.li	s3,0
    1b28:	aaa90913          	addi	s2,s2,-1366 # aaaaaaaa <_DATA_LMA_START+0x8aaa2d4a>
    1b2c:	04048493          	addi	s1,s1,64 # 80040 <cst_libm_sincosf+0x40>
    1b30:	00d12e23          	sw	a3,28(sp)
    1b34:	4662                	c.lwsp	a2,24(sp)
    1b36:	4592                	c.lwsp	a1,4(sp)
    1b38:	01600533          	add	a0,zero,s6
    1b3c:	280050ef          	jal	ra,6dbc <memcpy>
    1b40:	45d2                	c.lwsp	a1,20(sp)
    1b42:	855a                	c.mv	a0,s6
    1b44:	7e8000ef          	jal	ra,232c <riscv_dsp_cfft_f32>
    1b48:	878a                	c.mv	a5,sp
    1b4a:	0009f737          	lui	a4,0x9f
    1b4e:	00f77d63          	bgeu	a4,a5,1b68 <main+0x5a4>
    1b52:	46f2                	c.lwsp	a3,28(sp)
    1b54:	0aa00593          	li	a1,170
    1b58:	97b6                	c.add	a5,a3
    1b5a:	ffc7f613          	andi	a2,a5,-4
    1b5e:	0611                	c.addi	a2,4
    1b60:	0009f537          	lui	a0,0x9f
    1b64:	2cc050ef          	jal	ra,6e30 <memset>
    1b68:	b0005073          	csrwi	mcycle,0
    1b6c:	b0205073          	csrwi	minstret,0
    1b70:	b0002d73          	csrr	s10,mcycle
    1b74:	b0202c73          	csrr	s8,minstret
    1b78:	8622                	c.mv	a2,s0
    1b7a:	85d2                	c.mv	a1,s4
    1b7c:	01600533          	add	a0,zero,s6
    1b80:	691010ef          	jal	ra,3a10 <riscv_dsp_cmag_f32>
    1b84:	b00025f3          	csrr	a1,mcycle
    1b88:	b0202573          	csrr	a0,minstret
    1b8c:	41a585b3          	sub	a1,a1,s10
    1b90:	41850533          	sub	a0,a0,s8
    1b94:	868a                	c.mv	a3,sp
    1b96:	0009f7b7          	lui	a5,0x9f
    1b9a:	48d7f763          	bgeu	a5,a3,2028 <main+0xa64>
    1b9e:	439c                	c.lw	a5,0(a5)
    1ba0:	49279463          	bne	a5,s2,2028 <main+0xa64>
    1ba4:	0009f7b7          	lui	a5,0x9f
    1ba8:	00c0006f          	j	1bb4 <main+0x5f0>
    1bac:	0007a703          	lw	a4,0(a5) # 9f000 <_end+0x1d340>
    1bb0:	01271663          	bne	a4,s2,1bbc <main+0x5f8>
    1bb4:	00478793          	addi	a5,a5,4
    1bb8:	fed7eae3          	bltu	a5,a3,1bac <main+0x5e8>
    1bbc:	000aa603          	lw	a2,0(s5)
    1bc0:	d015f7d3          	fcvt.s.wu	fa5,a1
    1bc4:	00299713          	slli	a4,s3,0x2
    1bc8:	40f687b3          	sub	a5,a3,a5
    1bcc:	d0167753          	fcvt.s.wu	fa4,a2
    1bd0:	03010e13          	addi	t3,sp,48
    1bd4:	08b0                	c.addi4spn	a2,sp,88
    1bd6:	4682                	c.lwsp	a3,0(sp)
    1bd8:	00ee0833          	add	a6,t3,a4
    1bdc:	9732                	c.add	a4,a2
    1bde:	18e7f7d3          	fdiv.s	fa5,fa5,fa4
    1be2:	00b82023          	sw	a1,0(a6)
    1be6:	c308                	c.sw	a0,0(a4)
    1be8:	00fca023          	sw	a5,0(s9)
    1bec:	0985                	c.addi	s3,1
    1bee:	1097f7d3          	fmul.s	fa5,fa5,fs1
    1bf2:	e29c                	c.fsw	fa5,0(a3)
    1bf4:	0019e45b          	bnec	s3,1,1bfc <main+0x638>
    1bf8:	44c0006f          	j	2044 <main+0xa80>
    1bfc:	04805e63          	blez	s0,1c58 <main+0x694>
    1c00:	000ba707          	flw	fa4,0(s7)
    1c04:	000a2787          	flw	fa5,0(s4)
    1c08:	08e7f7d3          	fsub.s	fa5,fa5,fa4
    1c0c:	20f7a553          	fabs.s	fa0,fa5
    1c10:	52d040ef          	jal	ra,693c <__extendsfdf2>
    1c14:	4090                	c.lw	a2,0(s1)
    1c16:	40d4                	c.lw	a3,4(s1)
    1c18:	1c1030ef          	jal	ra,55d8 <__gedf2>
    1c1c:	04a04663          	bgtz	a0,1c68 <main+0x6a4>
    1c20:	004a0c13          	addi	s8,s4,4
    1c24:	004b8d93          	addi	s11,s7,4
    1c28:	4d01                	c.li	s10,0
    1c2a:	a01d                	c.j	1c50 <main+0x68c>
    1c2c:	000da787          	flw	fa5,0(s11)
    1c30:	000c2507          	flw	fa0,0(s8)
    1c34:	0d91                	c.addi	s11,4
    1c36:	0c11                	c.addi	s8,4
    1c38:	08f57553          	fsub.s	fa0,fa0,fa5
    1c3c:	20a52553          	fabs.s	fa0,fa0
    1c40:	4fd040ef          	jal	ra,693c <__extendsfdf2>
    1c44:	4090                	c.lw	a2,0(s1)
    1c46:	40d4                	c.lw	a3,4(s1)
    1c48:	191030ef          	jal	ra,55d8 <__gedf2>
    1c4c:	00a04e63          	bgtz	a0,1c68 <main+0x6a4>
    1c50:	001d0d13          	addi	s10,s10,1
    1c54:	fda41ce3          	bne	s0,s10,1c2c <main+0x668>
    1c58:	00a9dc5b          	beqc	s3,10,1c70 <main+0x6ac>
    1c5c:	4682                	c.lwsp	a3,0(sp)
    1c5e:	0c91                	c.addi	s9,4
    1c60:	0691                	c.addi	a3,4
    1c62:	c036                	c.swsp	a3,0(sp)
    1c64:	ed1ff06f          	j	1b34 <main+0x570>
    1c68:	00012623          	sw	zero,12(sp)
    1c6c:	bea9e85b          	bnec	s3,10,1c5c <main+0x698>
    1c70:	44b2                	c.lwsp	s1,12(sp)
    1c72:	85a2                	c.mv	a1,s0
    1c74:	3e048063          	beqz	s1,2054 <main+0xa90>
    1c78:	00080537          	lui	a0,0x80
    1c7c:	1b450513          	addi	a0,a0,436 # 801b4 <FFT_SIZES+0x134>
    1c80:	36e050ef          	jal	ra,6fee <iprintf>
    1c84:	57d2                	c.lwsp	a5,52(sp)
    1c86:	5942                	c.lwsp	s2,48(sp)
    1c88:	77aa                	c.flwsp	fa5,168(sp)
    1c8a:	993e                	c.add	s2,a5
    1c8c:	44e6                	c.lwsp	s1,88(sp)
    1c8e:	47f6                	c.lwsp	a5,92(sp)
    1c90:	440a                	c.lwsp	s0,128(sp)
    1c92:	94be                	c.add	s1,a5
    1c94:	f0000453          	fmv.w.x	fs0,zero
    1c98:	479a                	c.lwsp	a5,132(sp)
    1c9a:	00f47453          	fadd.s	fs0,fs0,fa5
    1c9e:	943e                	c.add	s0,a5
    1ca0:	57e2                	c.lwsp	a5,56(sp)
    1ca2:	77ba                	c.flwsp	fa5,172(sp)
    1ca4:	993e                	c.add	s2,a5
    1ca6:	5786                	c.lwsp	a5,96(sp)
    1ca8:	00f47453          	fadd.s	fs0,fs0,fa5
    1cac:	94be                	c.add	s1,a5
    1cae:	47aa                	c.lwsp	a5,136(sp)
    1cb0:	77ca                	c.flwsp	fa5,176(sp)
    1cb2:	943e                	c.add	s0,a5
    1cb4:	57f2                	c.lwsp	a5,60(sp)
    1cb6:	00f47453          	fadd.s	fs0,fs0,fa5
    1cba:	993e                	c.add	s2,a5
    1cbc:	5796                	c.lwsp	a5,100(sp)
    1cbe:	77da                	c.flwsp	fa5,180(sp)
    1cc0:	94be                	c.add	s1,a5
    1cc2:	47ba                	c.lwsp	a5,140(sp)
    1cc4:	00f47453          	fadd.s	fs0,fs0,fa5
    1cc8:	943e                	c.add	s0,a5
    1cca:	4786                	c.lwsp	a5,64(sp)
    1ccc:	77ea                	c.flwsp	fa5,184(sp)
    1cce:	993e                	c.add	s2,a5
    1cd0:	57a6                	c.lwsp	a5,104(sp)
    1cd2:	00f47453          	fadd.s	fs0,fs0,fa5
    1cd6:	94be                	c.add	s1,a5
    1cd8:	47ca                	c.lwsp	a5,144(sp)
    1cda:	77fa                	c.flwsp	fa5,188(sp)
    1cdc:	943e                	c.add	s0,a5
    1cde:	4796                	c.lwsp	a5,68(sp)
    1ce0:	00f47453          	fadd.s	fs0,fs0,fa5
    1ce4:	993e                	c.add	s2,a5
    1ce6:	57b6                	c.lwsp	a5,108(sp)
    1ce8:	678e                	c.flwsp	fa5,192(sp)
    1cea:	94be                	c.add	s1,a5
    1cec:	47da                	c.lwsp	a5,148(sp)
    1cee:	00f47453          	fadd.s	fs0,fs0,fa5
    1cf2:	943e                	c.add	s0,a5
    1cf4:	47a6                	c.lwsp	a5,72(sp)
    1cf6:	679e                	c.flwsp	fa5,196(sp)
    1cf8:	993e                	c.add	s2,a5
    1cfa:	57c6                	c.lwsp	a5,112(sp)
    1cfc:	00f47453          	fadd.s	fs0,fs0,fa5
    1d00:	94be                	c.add	s1,a5
    1d02:	47ea                	c.lwsp	a5,152(sp)
    1d04:	67ae                	c.flwsp	fa5,200(sp)
    1d06:	943e                	c.add	s0,a5
    1d08:	47b6                	c.lwsp	a5,76(sp)
    1d0a:	00f47453          	fadd.s	fs0,fs0,fa5
    1d0e:	993e                	c.add	s2,a5
    1d10:	57d6                	c.lwsp	a5,116(sp)
    1d12:	000806b7          	lui	a3,0x80
    1d16:	94be                	c.add	s1,a5
    1d18:	47fa                	c.lwsp	a5,156(sp)
    1d1a:	67be                	c.flwsp	fa5,204(sp)
    1d1c:	943e                	c.add	s0,a5
    1d1e:	47c6                	c.lwsp	a5,80(sp)
    1d20:	45a9                	c.li	a1,10
    1d22:	993e                	c.add	s2,a5
    1d24:	57e6                	c.lwsp	a5,120(sp)
    1d26:	23468513          	addi	a0,a3,564 # 80234 <FFT_SIZES+0x1b4>
    1d2a:	94be                	c.add	s1,a5
    1d2c:	578a                	c.lwsp	a5,160(sp)
    1d2e:	00f47453          	fadd.s	fs0,fs0,fa5
    1d32:	943e                	c.add	s0,a5
    1d34:	47d6                	c.lwsp	a5,84(sp)
    1d36:	993e                	c.add	s2,a5
    1d38:	57f6                	c.lwsp	a5,124(sp)
    1d3a:	94be                	c.add	s1,a5
    1d3c:	579a                	c.lwsp	a5,164(sp)
    1d3e:	943e                	c.add	s0,a5
    1d40:	2ae050ef          	jal	ra,6fee <iprintf>
    1d44:	ccccd5b7          	lui	a1,0xccccd
    1d48:	ccd58993          	addi	s3,a1,-819 # cccccccd <_DATA_LMA_START+0xaccc4f6d>
    1d4c:	033935b3          	mulhu	a1,s2,s3
    1d50:	000806b7          	lui	a3,0x80
    1d54:	25868513          	addi	a0,a3,600 # 80258 <FFT_SIZES+0x1d8>
    1d58:	46a2                	c.lwsp	a3,8(sp)
    1d5a:	00468c93          	addi	s9,a3,4
    1d5e:	c466                	c.swsp	s9,8(sp)
    1d60:	0035d593          	srli	a1,a1,0x3
    1d64:	28a050ef          	jal	ra,6fee <iprintf>
    1d68:	0334b5b3          	mulhu	a1,s1,s3
    1d6c:	000804b7          	lui	s1,0x80
    1d70:	26c48513          	addi	a0,s1,620 # 8026c <FFT_SIZES+0x1ec>
    1d74:	000804b7          	lui	s1,0x80
    1d78:	0035d593          	srli	a1,a1,0x3
    1d7c:	272050ef          	jal	ra,6fee <iprintf>
    1d80:	19247553          	fdiv.s	fa0,fs0,fs2
    1d84:	3b9040ef          	jal	ra,693c <__extendsfdf2>
    1d88:	86ae                	c.mv	a3,a1
    1d8a:	000805b7          	lui	a1,0x80
    1d8e:	862a                	c.mv	a2,a0
    1d90:	28c58513          	addi	a0,a1,652 # 8028c <FFT_SIZES+0x20c>
    1d94:	25a050ef          	jal	ra,6fee <iprintf>
    1d98:	033435b3          	mulhu	a1,s0,s3
    1d9c:	2a848513          	addi	a0,s1,680 # 802a8 <FFT_SIZES+0x228>
    1da0:	0035d593          	srli	a1,a1,0x3
    1da4:	24a050ef          	jal	ra,6fee <iprintf>
    1da8:	01600533          	add	a0,zero,s6
    1dac:	008050ef          	jal	ra,6db4 <free>
    1db0:	00412503          	lw	a0,4(sp)
    1db4:	000050ef          	jal	ra,6db4 <free>
    1db8:	01400533          	add	a0,zero,s4
    1dbc:	7f9040ef          	jal	ra,6db4 <free>
    1dc0:	01700533          	add	a0,zero,s7
    1dc4:	7f1040ef          	jal	ra,6db4 <free>
    1dc8:	899f958b          	addigp	a1,-1896 # 80098 <FFT_SIZES+0x18>
    1dcc:	c99594e3          	bne	a1,s9,1a54 <main+0x490>
    1dd0:	00080537          	lui	a0,0x80
    1dd4:	2c450513          	addi	a0,a0,708 # 802c4 <FFT_SIZES+0x244>
    1dd8:	216050ef          	jal	ra,6fee <iprintf>
    1ddc:	000805b7          	lui	a1,0x80
    1de0:	2ec58513          	addi	a0,a1,748 # 802ec <FFT_SIZES+0x26c>
    1de4:	20a050ef          	jal	ra,6fee <iprintf>
    1de8:	00080537          	lui	a0,0x80
    1dec:	2f050513          	addi	a0,a0,752 # 802f0 <FFT_SIZES+0x270>
    1df0:	1fe050ef          	jal	ra,6fee <iprintf>
    1df4:	000804b7          	lui	s1,0x80
    1df8:	000806b7          	lui	a3,0x80
    1dfc:	000807b7          	lui	a5,0x80
    1e00:	0484a407          	flw	fs0,72(s1) # 80048 <cst_libm_sincosf+0x48>
    1e04:	04c6a487          	flw	fs1,76(a3) # 8004c <cst_libm_sincosf+0x4c>
    1e08:	0507a907          	flw	fs2,80(a5) # 80050 <cst_libm_sincosf+0x50>
    1e0c:	000807b7          	lui	a5,0x80
    1e10:	03078613          	addi	a2,a5,48 # 80030 <cst_libm_sincosf+0x30>
    1e14:	02c12423          	sw	a2,40(sp)
    1e18:	45c2                	c.lwsp	a1,16(sp)
    1e1a:	4180                	c.lw	s0,0(a1)
    1e1c:	00800533          	add	a0,zero,s0
    1e20:	2a1040ef          	jal	ra,68c0 <__floatsidf>
    1e24:	631010ef          	jal	ra,3c54 <log>
    1e28:	5482                	c.lwsp	s1,32(sp)
    1e2a:	00241d13          	slli	s10,s0,0x2
    1e2e:	4090                	c.lw	a2,0(s1)
    1e30:	0044a683          	lw	a3,4(s1)
    1e34:	00141493          	slli	s1,s0,0x1
    1e38:	7b5020ef          	jal	ra,4dec <__divdf3>
    1e3c:	125040ef          	jal	ra,6760 <__fixdfsi>
    1e40:	cc2a                	c.swsp	a0,24(sp)
    1e42:	856a                	c.mv	a0,s10
    1e44:	769040ef          	jal	ra,6dac <malloc>
    1e48:	89aa                	c.mv	s3,a0
    1e4a:	856a                	c.mv	a0,s10
    1e4c:	761040ef          	jal	ra,6dac <malloc>
    1e50:	c02a                	c.swsp	a0,0(sp)
    1e52:	8caa                	c.mv	s9,a0
    1e54:	8526                	c.mv	a0,s1
    1e56:	8a26                	c.mv	s4,s1
    1e58:	00912e23          	sw	s1,28(sp)
    1e5c:	751040ef          	jal	ra,6dac <malloc>
    1e60:	84aa                	c.mv	s1,a0
    1e62:	8552                	c.mv	a0,s4
    1e64:	749040ef          	jal	ra,6dac <malloc>
    1e68:	00a00a33          	add	s4,zero,a0
    1e6c:	3c098463          	beqz	s3,2234 <main+0xc70>
    1e70:	3c0c8263          	beqz	s9,2234 <main+0xc70>
    1e74:	3c048063          	beqz	s1,2234 <main+0xc70>
    1e78:	3a050e63          	beqz	a0,2234 <main+0xc70>
    1e7c:	04805c63          	blez	s0,1ed4 <main+0x910>
    1e80:	00080937          	lui	s2,0x80
    1e84:	4b82                	c.lwsp	s7,0(sp)
    1e86:	f0000553          	fmv.w.x	fa0,zero
    1e8a:	4b01                	c.li	s6,0
    1e8c:	03890913          	addi	s2,s2,56 # 80038 <cst_libm_sincosf+0x38>
    1e90:	02c0006f          	j	1ebc <main+0x8f8>
    1e94:	01600533          	add	a0,zero,s6
    1e98:	229040ef          	jal	ra,68c0 <__floatsidf>
    1e9c:	5622                	c.lwsp	a2,40(sp)
    1e9e:	4254                	c.lw	a3,4(a2)
    1ea0:	00062603          	lw	a2,0(a2)
    1ea4:	7fc030ef          	jal	ra,56a0 <__muldf3>
    1ea8:	00092603          	lw	a2,0(s2)
    1eac:	00492683          	lw	a3,4(s2)
    1eb0:	7f0030ef          	jal	ra,56a0 <__muldf3>
    1eb4:	399040ef          	jal	ra,6a4c <__truncdfsf2>
    1eb8:	280020ef          	jal	ra,4138 <sinf>
    1ebc:	11257553          	fmul.s	fa0,fa0,fs2
    1ec0:	000b9123          	sh	zero,2(s7)
    1ec4:	0b91                	c.addi	s7,4
    1ec6:	0b05                	c.addi	s6,1
    1ec8:	c00517d3          	fcvt.w.s	a5,fa0,rtz
    1ecc:	fefb9e23          	sh	a5,-4(s7)
    1ed0:	fd6412e3          	bne	s0,s6,1e94 <main+0x8d0>
    1ed4:	000806b7          	lui	a3,0x80
    1ed8:	008005b3          	add	a1,zero,s0
    1edc:	1a468513          	addi	a0,a3,420 # 801a4 <FFT_SIZES+0x124>
    1ee0:	10e050ef          	jal	ra,6fee <iprintf>
    1ee4:	45f2                	c.lwsp	a1,28(sp)
    1ee6:	fff617b7          	lui	a5,0xfff61
    1eea:	aaaab837          	lui	a6,0xaaaab
    1eee:	00b48cb3          	add	s9,s1,a1
    1ef2:	4605                	c.li	a2,1
    1ef4:	fff78593          	addi	a1,a5,-1 # fff60fff <_DATA_LMA_START+0xdff5929f>
    1ef8:	08010c13          	addi	s8,sp,128
    1efc:	0a810b93          	addi	s7,sp,168
    1f00:	4901                	c.li	s2,0
    1f02:	0009fb37          	lui	s6,0x9f
    1f06:	aaa80d93          	addi	s11,a6,-1366 # aaaaaaaa <_DATA_LMA_START+0x8aaa2d4a>
    1f0a:	c232                	c.swsp	a2,4(sp)
    1f0c:	02b12223          	sw	a1,36(sp)
    1f10:	4582                	c.lwsp	a1,0(sp)
    1f12:	866a                	c.mv	a2,s10
    1f14:	01300533          	add	a0,zero,s3
    1f18:	6a5040ef          	jal	ra,6dbc <memcpy>
    1f1c:	45e2                	c.lwsp	a1,24(sp)
    1f1e:	854e                	c.mv	a0,s3
    1f20:	42c000ef          	jal	ra,234c <riscv_dsp_cfft_q15>
    1f24:	878a                	c.mv	a5,sp
    1f26:	00fb7d63          	bgeu	s6,a5,1f40 <main+0x97c>
    1f2a:	5692                	c.lwsp	a3,36(sp)
    1f2c:	0aa00593          	li	a1,170
    1f30:	97b6                	c.add	a5,a3
    1f32:	ffc7f613          	andi	a2,a5,-4
    1f36:	0611                	c.addi	a2,4
    1f38:	0009f537          	lui	a0,0x9f
    1f3c:	6f5040ef          	jal	ra,6e30 <memset>
    1f40:	b0005073          	csrwi	mcycle,0
    1f44:	b0205073          	csrwi	minstret,0
    1f48:	b0002773          	csrr	a4,mcycle
    1f4c:	ca3a                	c.swsp	a4,20(sp)
    1f4e:	b02027f3          	csrr	a5,minstret
    1f52:	8622                	c.mv	a2,s0
    1f54:	85a6                	c.mv	a1,s1
    1f56:	854e                	c.mv	a0,s3
    1f58:	00f12623          	sw	a5,12(sp)
    1f5c:	3ad010ef          	jal	ra,3b08 <riscv_dsp_cmag_q15>
    1f60:	b0002673          	csrr	a2,mcycle
    1f64:	b0202573          	csrr	a0,minstret
    1f68:	4752                	c.lwsp	a4,20(sp)
    1f6a:	47b2                	c.lwsp	a5,12(sp)
    1f6c:	8e19                	c.sub	a2,a4
    1f6e:	8d1d                	c.sub	a0,a5
    1f70:	868a                	c.mv	a3,sp
    1f72:	0edb7963          	bgeu	s6,a3,2064 <main+0xaa0>
    1f76:	000b2783          	lw	a5,0(s6) # 9f000 <_end+0x1d340>
    1f7a:	0fb79563          	bne	a5,s11,2064 <main+0xaa0>
    1f7e:	0009f7b7          	lui	a5,0x9f
    1f82:	a029                	c.j	1f8c <main+0x9c8>
    1f84:	0007a703          	lw	a4,0(a5) # 9f000 <_end+0x1d340>
    1f88:	01b71663          	bne	a4,s11,1f94 <main+0x9d0>
    1f8c:	00478793          	addi	a5,a5,4
    1f90:	fed7eae3          	bltu	a5,a3,1f84 <main+0x9c0>
    1f94:	000aa583          	lw	a1,0(s5)
    1f98:	d01677d3          	fcvt.s.wu	fa5,a2
    1f9c:	00291713          	slli	a4,s2,0x2
    1fa0:	03010893          	addi	a7,sp,48
    1fa4:	d015f753          	fcvt.s.wu	fa4,a1
    1fa8:	08ac                	c.addi4spn	a1,sp,88
    1faa:	00e88333          	add	t1,a7,a4
    1fae:	40f687b3          	sub	a5,a3,a5
    1fb2:	972e                	c.add	a4,a1
    1fb4:	c308                	c.sw	a0,0(a4)
    1fb6:	18e7f7d3          	fdiv.s	fa5,fa5,fa4
    1fba:	00c32023          	sw	a2,0(t1)
    1fbe:	00fc2023          	sw	a5,0(s8)
    1fc2:	0905                	c.addi	s2,1
    1fc4:	4705                	c.li	a4,1
    1fc6:	1087f7d3          	fmul.s	fa5,fa5,fs0
    1fca:	00fba027          	fsw	fa5,0(s7)
    1fce:	26195d5b          	beqc	s2,1,2248 <main+0xc84>
    1fd2:	04805563          	blez	s0,201c <main+0xa58>
    1fd6:	000a1683          	lh	a3,0(s4)
    1fda:	00049783          	lh	a5,0(s1)
    1fde:	8f95                	c.sub	a5,a3
    1fe0:	40f006b3          	neg	a3,a5
    1fe4:	f2d787ff          	maxw	a5,a5,a3
    1fe8:	02f74863          	blt	a4,a5,2018 <main+0xa54>
    1fec:	00248713          	addi	a4,s1,2
    1ff0:	002a0693          	addi	a3,s4,2
    1ff4:	00100593          	li	a1,1
    1ff8:	02ec8263          	beq	s9,a4,201c <main+0xa58>
    1ffc:	00069603          	lh	a2,0(a3)
    2000:	00071783          	lh	a5,0(a4) # 9f000 <_end+0x1d340>
    2004:	0689                	c.addi	a3,2
    2006:	8f91                	c.sub	a5,a2
    2008:	40f00633          	neg	a2,a5
    200c:	f2c787ff          	maxw	a5,a5,a2
    2010:	00270713          	addi	a4,a4,2
    2014:	fef5d2e3          	bge	a1,a5,1ff8 <main+0xa34>
    2018:	00012223          	sw	zero,4(sp)
    201c:	04a9585b          	beqc	s2,10,206c <main+0xaa8>
    2020:	0c11                	c.addi	s8,4
    2022:	0b91                	c.addi	s7,4
    2024:	eedff06f          	j	1f10 <main+0x94c>
    2028:	0009f7b7          	lui	a5,0x9f
    202c:	b91ff06f          	j	1bbc <main+0x5f8>
    2030:	00080537          	lui	a0,0x80
    2034:	008005b3          	add	a1,zero,s0
    2038:	17450513          	addi	a0,a0,372 # 80174 <FFT_SIZES+0xf4>
    203c:	7b3040ef          	jal	ra,6fee <iprintf>
    2040:	a75ff06f          	j	1ab4 <main+0x4f0>
    2044:	5612                	c.lwsp	a2,36(sp)
    2046:	85d2                	c.mv	a1,s4
    2048:	01700533          	add	a0,zero,s7
    204c:	571040ef          	jal	ra,6dbc <memcpy>
    2050:	c0dff06f          	j	1c5c <main+0x698>
    2054:	00080537          	lui	a0,0x80
    2058:	1fc50513          	addi	a0,a0,508 # 801fc <FFT_SIZES+0x17c>
    205c:	793040ef          	jal	ra,6fee <iprintf>
    2060:	c25ff06f          	j	1c84 <main+0x6c0>
    2064:	0009f7b7          	lui	a5,0x9f
    2068:	f2dff06f          	j	1f94 <main+0x9d0>
    206c:	4612                	c.lwsp	a2,4(sp)
    206e:	85a2                	c.mv	a1,s0
    2070:	1e060a63          	beqz	a2,2264 <main+0xca0>
    2074:	00080537          	lui	a0,0x80
    2078:	1b450513          	addi	a0,a0,436 # 801b4 <FFT_SIZES+0x134>
    207c:	773040ef          	jal	ra,6fee <iprintf>
    2080:	57d2                	c.lwsp	a5,52(sp)
    2082:	5bc2                	c.lwsp	s7,48(sp)
    2084:	772a                	c.flwsp	fa4,168(sp)
    2086:	9bbe                	c.add	s7,a5
    2088:	4b66                	c.lwsp	s6,88(sp)
    208a:	47f6                	c.lwsp	a5,92(sp)
    208c:	440a                	c.lwsp	s0,128(sp)
    208e:	9b3e                	c.add	s6,a5
    2090:	f00007d3          	fmv.w.x	fa5,zero
    2094:	479a                	c.lwsp	a5,132(sp)
    2096:	00e7f7d3          	fadd.s	fa5,fa5,fa4
    209a:	943e                	c.add	s0,a5
    209c:	57e2                	c.lwsp	a5,56(sp)
    209e:	773a                	c.flwsp	fa4,172(sp)
    20a0:	9bbe                	c.add	s7,a5
    20a2:	5786                	c.lwsp	a5,96(sp)
    20a4:	00e7f7d3          	fadd.s	fa5,fa5,fa4
    20a8:	9b3e                	c.add	s6,a5
    20aa:	47aa                	c.lwsp	a5,136(sp)
    20ac:	774a                	c.flwsp	fa4,176(sp)
    20ae:	943e                	c.add	s0,a5
    20b0:	57f2                	c.lwsp	a5,60(sp)
    20b2:	00e7f7d3          	fadd.s	fa5,fa5,fa4
    20b6:	9bbe                	c.add	s7,a5
    20b8:	5796                	c.lwsp	a5,100(sp)
    20ba:	775a                	c.flwsp	fa4,180(sp)
    20bc:	9b3e                	c.add	s6,a5
    20be:	47ba                	c.lwsp	a5,140(sp)
    20c0:	00e7f7d3          	fadd.s	fa5,fa5,fa4
    20c4:	943e                	c.add	s0,a5
    20c6:	4786                	c.lwsp	a5,64(sp)
    20c8:	776a                	c.flwsp	fa4,184(sp)
    20ca:	9bbe                	c.add	s7,a5
    20cc:	57a6                	c.lwsp	a5,104(sp)
    20ce:	00e7f7d3          	fadd.s	fa5,fa5,fa4
    20d2:	9b3e                	c.add	s6,a5
    20d4:	47ca                	c.lwsp	a5,144(sp)
    20d6:	777a                	c.flwsp	fa4,188(sp)
    20d8:	943e                	c.add	s0,a5
    20da:	4796                	c.lwsp	a5,68(sp)
    20dc:	00e7f7d3          	fadd.s	fa5,fa5,fa4
    20e0:	9bbe                	c.add	s7,a5
    20e2:	57b6                	c.lwsp	a5,108(sp)
    20e4:	670e                	c.flwsp	fa4,192(sp)
    20e6:	9b3e                	c.add	s6,a5
    20e8:	47da                	c.lwsp	a5,148(sp)
    20ea:	00e7f7d3          	fadd.s	fa5,fa5,fa4
    20ee:	943e                	c.add	s0,a5
    20f0:	47a6                	c.lwsp	a5,72(sp)
    20f2:	671e                	c.flwsp	fa4,196(sp)
    20f4:	9bbe                	c.add	s7,a5
    20f6:	57c6                	c.lwsp	a5,112(sp)
    20f8:	00e7f7d3          	fadd.s	fa5,fa5,fa4
    20fc:	9b3e                	c.add	s6,a5
    20fe:	47ea                	c.lwsp	a5,152(sp)
    2100:	672e                	c.flwsp	fa4,200(sp)
    2102:	943e                	c.add	s0,a5
    2104:	47b6                	c.lwsp	a5,76(sp)
    2106:	00e7f7d3          	fadd.s	fa5,fa5,fa4
    210a:	9bbe                	c.add	s7,a5
    210c:	57d6                	c.lwsp	a5,116(sp)
    210e:	000806b7          	lui	a3,0x80
    2112:	9b3e                	c.add	s6,a5
    2114:	47fa                	c.lwsp	a5,156(sp)
    2116:	673e                	c.flwsp	fa4,204(sp)
    2118:	943e                	c.add	s0,a5
    211a:	47c6                	c.lwsp	a5,80(sp)
    211c:	45a9                	c.li	a1,10
    211e:	9bbe                	c.add	s7,a5
    2120:	57e6                	c.lwsp	a5,120(sp)
    2122:	23468513          	addi	a0,a3,564 # 80234 <FFT_SIZES+0x1b4>
    2126:	9b3e                	c.add	s6,a5
    2128:	578a                	c.lwsp	a5,160(sp)
    212a:	ccccdc37          	lui	s8,0xccccd
    212e:	943e                	c.add	s0,a5
    2130:	47d6                	c.lwsp	a5,84(sp)
    2132:	00e7f9d3          	fadd.s	fs3,fa5,fa4
    2136:	9bbe                	c.add	s7,a5
    2138:	57f6                	c.lwsp	a5,124(sp)
    213a:	ccdc0c13          	addi	s8,s8,-819 # cccccccd <_DATA_LMA_START+0xaccc4f6d>
    213e:	9b3e                	c.add	s6,a5
    2140:	579a                	c.lwsp	a5,164(sp)
    2142:	943e                	c.add	s0,a5
    2144:	6ab040ef          	jal	ra,6fee <iprintf>
    2148:	038bb5b3          	mulhu	a1,s7,s8
    214c:	46c2                	c.lwsp	a3,16(sp)
    214e:	00080637          	lui	a2,0x80
    2152:	00468b93          	addi	s7,a3,4
    2156:	25860513          	addi	a0,a2,600 # 80258 <FFT_SIZES+0x1d8>
    215a:	c85e                	c.swsp	s7,16(sp)
    215c:	0035d593          	srli	a1,a1,0x3
    2160:	68f040ef          	jal	ra,6fee <iprintf>
    2164:	038b35b3          	mulhu	a1,s6,s8
    2168:	00080637          	lui	a2,0x80
    216c:	26c60513          	addi	a0,a2,620 # 8026c <FFT_SIZES+0x1ec>
    2170:	0035d593          	srli	a1,a1,0x3
    2174:	67b040ef          	jal	ra,6fee <iprintf>
    2178:	1899f553          	fdiv.s	fa0,fs3,fs1
    217c:	7c0040ef          	jal	ra,693c <__extendsfdf2>
    2180:	86ae                	c.mv	a3,a1
    2182:	000805b7          	lui	a1,0x80
    2186:	862a                	c.mv	a2,a0
    2188:	28c58513          	addi	a0,a1,652 # 8028c <FFT_SIZES+0x20c>
    218c:	663040ef          	jal	ra,6fee <iprintf>
    2190:	038435b3          	mulhu	a1,s0,s8
    2194:	00080437          	lui	s0,0x80
    2198:	2a840513          	addi	a0,s0,680 # 802a8 <FFT_SIZES+0x228>
    219c:	0035d593          	srli	a1,a1,0x3
    21a0:	64f040ef          	jal	ra,6fee <iprintf>
    21a4:	01300533          	add	a0,zero,s3
    21a8:	40d040ef          	jal	ra,6db4 <free>
    21ac:	00012503          	lw	a0,0(sp)
    21b0:	405040ef          	jal	ra,6db4 <free>
    21b4:	00900533          	add	a0,zero,s1
    21b8:	3fd040ef          	jal	ra,6db4 <free>
    21bc:	01400533          	add	a0,zero,s4
    21c0:	3f5040ef          	jal	ra,6db4 <free>
    21c4:	00812483          	lw	s1,8(sp)
    21c8:	c49b98e3          	bne	s7,s1,1e18 <main+0x854>
    21cc:	00080537          	lui	a0,0x80
    21d0:	34850513          	addi	a0,a0,840 # 80348 <FFT_SIZES+0x2c8>
    21d4:	61b040ef          	jal	ra,6fee <iprintf>
    21d8:	000804b7          	lui	s1,0x80
    21dc:	2ec48513          	addi	a0,s1,748 # 802ec <FFT_SIZES+0x26c>
    21e0:	60f040ef          	jal	ra,6fee <iprintf>
    21e4:	00080537          	lui	a0,0x80
    21e8:	37450513          	addi	a0,a0,884 # 80374 <FFT_SIZES+0x2f4>
    21ec:	603040ef          	jal	ra,6fee <iprintf>
    21f0:	00080537          	lui	a0,0x80
    21f4:	39050513          	addi	a0,a0,912 # 80390 <FFT_SIZES+0x310>
    21f8:	5f7040ef          	jal	ra,6fee <iprintf>
    21fc:	11c12083          	lw	ra,284(sp)
    2200:	11812403          	lw	s0,280(sp)
    2204:	11412483          	lw	s1,276(sp)
    2208:	11012903          	lw	s2,272(sp)
    220c:	10c12983          	lw	s3,268(sp)
    2210:	10812a03          	lw	s4,264(sp)
    2214:	10412a83          	lw	s5,260(sp)
    2218:	10012b03          	lw	s6,256(sp)
    221c:	5bfe                	c.lwsp	s7,252(sp)
    221e:	5c6e                	c.lwsp	s8,248(sp)
    2220:	5cde                	c.lwsp	s9,244(sp)
    2222:	5d4e                	c.lwsp	s10,240(sp)
    2224:	5dbe                	c.lwsp	s11,236(sp)
    2226:	647e                	c.flwsp	fs0,220(sp)
    2228:	64ee                	c.flwsp	fs1,216(sp)
    222a:	695e                	c.flwsp	fs2,212(sp)
    222c:	69ce                	c.flwsp	fs3,208(sp)
    222e:	4501                	c.li	a0,0
    2230:	6115                	c.addi16sp	sp,288
    2232:	8082                	c.jr	ra
    2234:	000806b7          	lui	a3,0x80
    2238:	008005b3          	add	a1,zero,s0
    223c:	17468513          	addi	a0,a3,372 # 80174 <FFT_SIZES+0xf4>
    2240:	5af040ef          	jal	ra,6fee <iprintf>
    2244:	c39ff06f          	j	1e7c <main+0x8b8>
    2248:	4672                	c.lwsp	a2,28(sp)
    224a:	85a6                	c.mv	a1,s1
    224c:	01400533          	add	a0,zero,s4
    2250:	36d040ef          	jal	ra,6dbc <memcpy>
    2254:	000806b7          	lui	a3,0x80
    2258:	31868513          	addi	a0,a3,792 # 80318 <FFT_SIZES+0x298>
    225c:	593040ef          	jal	ra,6fee <iprintf>
    2260:	dc1ff06f          	j	2020 <main+0xa5c>
    2264:	00080537          	lui	a0,0x80
    2268:	1fc50513          	addi	a0,a0,508 # 801fc <FFT_SIZES+0x17c>
    226c:	583040ef          	jal	ra,6fee <iprintf>
    2270:	e11ff06f          	j	2080 <main+0xabc>
    2274:	4742140b          	addigp	s0,5236 # 81c74 <g_pm_status_info>
    2278:	02000793          	li	a5,32
    227c:	0fd4f593          	andi	a1,s1,253
    2280:	03900513          	li	a0,57
    2284:	00f40123          	sb	a5,2(s0)
    2288:	d08fe0ef          	jal	ra,790 <analog_write_reg8>
    228c:	ca0ff06f          	j	172c <main+0x168>
    2290:	4742140b          	addigp	s0,5236 # 81c74 <g_pm_status_info>
    2294:	00800793          	li	a5,8
    2298:	00f40123          	sb	a5,2(s0)
    229c:	c90ff06f          	j	172c <main+0x168>
    22a0:	001fe537          	lui	a0,0x1fe
    22a4:	0c050513          	addi	a0,a0,192 # 1fe0c0 <FLASH_SIZE+0xfe0c0>
    22a8:	964ff0ef          	jal	ra,140c <user_calib_adc_vref.constprop.9>
    22ac:	001fe537          	lui	a0,0x1fe
    22b0:	a58ff0ef          	jal	ra,1508 <user_calib_freq_offset.constprop.8>
    22b4:	e14ff06f          	j	18c8 <main+0x304>
    22b8:	000fe537          	lui	a0,0xfe
    22bc:	0c050513          	addi	a0,a0,192 # fe0c0 <_STACK_TOP+0x5e0c0>
    22c0:	94cff0ef          	jal	ra,140c <user_calib_adc_vref.constprop.9>
    22c4:	000fe537          	lui	a0,0xfe
    22c8:	a40ff0ef          	jal	ra,1508 <user_calib_freq_offset.constprop.8>
    22cc:	dfcff06f          	j	18c8 <main+0x304>
    22d0:	0007e537          	lui	a0,0x7e
    22d4:	0c050513          	addi	a0,a0,192 # 7e0c0 <BIN_SIZE+0x746ea>
    22d8:	934ff0ef          	jal	ra,140c <user_calib_adc_vref.constprop.9>
    22dc:	0007e537          	lui	a0,0x7e
    22e0:	a28ff0ef          	jal	ra,1508 <user_calib_freq_offset.constprop.8>
    22e4:	de4ff06f          	j	18c8 <main+0x304>
    22e8:	0001e537          	lui	a0,0x1e
    22ec:	0c050513          	addi	a0,a0,192 # 1e0c0 <BIN_SIZE+0x146ea>
    22f0:	91cff0ef          	jal	ra,140c <user_calib_adc_vref.constprop.9>
    22f4:	0001e537          	lui	a0,0x1e
    22f8:	a10ff0ef          	jal	ra,1508 <user_calib_freq_offset.constprop.8>
    22fc:	dccff06f          	j	18c8 <main+0x304>
    2300:	0000e537          	lui	a0,0xe
    2304:	0c050513          	addi	a0,a0,192 # e0c0 <BIN_SIZE+0x46ea>
    2308:	904ff0ef          	jal	ra,140c <user_calib_adc_vref.constprop.9>
    230c:	0000e537          	lui	a0,0xe
    2310:	9f8ff0ef          	jal	ra,1508 <user_calib_freq_offset.constprop.8>
    2314:	db4ff06f          	j	18c8 <main+0x304>
    2318:	00000513          	li	a0,0
    231c:	8f0ff0ef          	jal	ra,140c <user_calib_adc_vref.constprop.9>
    2320:	da8ff06f          	j	18c8 <main+0x304>

00002324 <default_irq_entry>:
    2324:	a001                	c.j	2324 <default_irq_entry>

00002326 <trap_handler>:
    2326:	a001                	c.j	2326 <trap_handler>
    2328:	0001                	c.nop
	...

0000232c <riscv_dsp_cfft_f32>:
    232c:	ffc58793          	addi	a5,a1,-4
    2330:	4729                	c.li	a4,10
    2332:	00f76b63          	bltu	a4,a5,2348 <riscv_dsp_cfft_f32+0x1c>
    2336:	bb1f970b          	addigp	a4,-1104 # 803b0 <FFT_SIZES+0x330>
    233a:	0cf707db          	lea.w	a5,a4,a5
    233e:	439c                	c.lw	a5,0(a5)
    2340:	00078067          	jr	a5 # 9f000 <_end+0x1d340>
    2344:	7d40006f          	j	2b18 <riscv_dsp_cfft_rd4_f32>
    2348:	a015                	c.j	236c <riscv_dsp_cfft_rd2_f32>
	...

0000234c <riscv_dsp_cfft_q15>:
    234c:	ffc58793          	addi	a5,a1,-4
    2350:	4729                	c.li	a4,10
    2352:	00f76b63          	bltu	a4,a5,2368 <riscv_dsp_cfft_q15+0x1c>
    2356:	bddf970b          	addigp	a4,-1060 # 803dc <FFT_SIZES+0x35c>
    235a:	0cf707db          	lea.w	a5,a4,a5
    235e:	439c                	c.lw	a5,0(a5)
    2360:	00078067          	jr	a5
    2364:	7c10006f          	j	3324 <riscv_dsp_cfft_rd4_q15>
    2368:	a135                	c.j	2794 <riscv_dsp_cfft_rd2_q15>
	...

0000236c <riscv_dsp_cfft_rd2_f32>:
    236c:	4791                	c.li	a5,4
    236e:	00b797b3          	sll	a5,a5,a1
    2372:	00f50833          	add	a6,a0,a5
    2376:	6118                	c.flw	fa4,0(a0)
    2378:	615c                	c.flw	fa5,4(a0)
    237a:	00082607          	flw	fa2,0(a6)
    237e:	00482687          	flw	fa3,4(a6)
    2382:	1141                	c.addi	sp,-16
    2384:	00c77553          	fadd.s	fa0,fa4,fa2
    2388:	c622                	c.swsp	s0,12(sp)
    238a:	00d7f5d3          	fadd.s	fa1,fa5,fa3
    238e:	c426                	c.swsp	s1,8(sp)
    2390:	08c77753          	fsub.s	fa4,fa4,fa2
    2394:	c24a                	c.swsp	s2,4(sp)
    2396:	08d7f7d3          	fsub.s	fa5,fa5,fa3
    239a:	e108                	c.fsw	fa0,0(a0)
    239c:	e14c                	c.fsw	fa1,4(a0)
    239e:	4405                	c.li	s0,1
    23a0:	00850913          	addi	s2,a0,8 # e008 <BIN_SIZE+0x4632>
    23a4:	00e82027          	fsw	fa4,0(a6)
    23a8:	00f82227          	fsw	fa5,4(a6)
    23ac:	84ae                	c.mv	s1,a1
    23ae:	8eaa                	c.mv	t4,a0
    23b0:	00b41433          	sll	s0,s0,a1
    23b4:	0d280e63          	beq	a6,s2,2490 <riscv_dsp_cfft_rd2_f32+0x124>
    23b8:	07a1                	c.addi	a5,8
    23ba:	48a9                	c.li	a7,10
    23bc:	00f50733          	add	a4,a0,a5
    23c0:	40b888b3          	sub	a7,a7,a1
    23c4:	87ca                	c.mv	a5,s2
    23c6:	4581                	c.li	a1,0
    23c8:	c11f960b          	addigp	a2,-1008 # 80410 <riscv_dsp_cos_table_f32_1024+0x8>
    23cc:	10000513          	li	a0,256
    23d0:	0580006f          	j	2428 <riscv_dsp_cfft_rd2_f32+0xbc>
    23d4:	0002a507          	flw	fa0,0(t0)
    23d8:	000fa007          	flw	ft0,0(t6)
    23dc:	630c                	c.flw	fa1,0(a4)
    23de:	6390                	c.flw	fa2,0(a5)
    23e0:	63d8                	c.flw	fa4,4(a5)
    23e2:	00472087          	flw	ft1,4(a4)
    23e6:	08b676d3          	fsub.s	fa3,fa2,fa1
    23ea:	07a1                	c.addi	a5,8
    23ec:	081777d3          	fsub.s	fa5,fa4,ft1
    23f0:	00870713          	addi	a4,a4,8
    23f4:	00b67653          	fadd.s	fa2,fa2,fa1
    23f8:	10a6f5d3          	fmul.s	fa1,fa3,fa0
    23fc:	1007f153          	fmul.s	ft2,fa5,ft0
    2400:	fec7ac27          	fsw	fa2,-8(a5)
    2404:	10a7f7d3          	fmul.s	fa5,fa5,fa0
    2408:	1006f6d3          	fmul.s	fa3,fa3,ft0
    240c:	00177753          	fadd.s	fa4,fa4,ft1
    2410:	0025f5d3          	fadd.s	fa1,fa1,ft2
    2414:	08d7f7d3          	fsub.s	fa5,fa5,fa3
    2418:	fee7ae27          	fsw	fa4,-4(a5)
    241c:	feb72c27          	fsw	fa1,-8(a4)
    2420:	fef72e27          	fsw	fa5,-4(a4)
    2424:	06f80663          	beq	a6,a5,2490 <riscv_dsp_cfft_rd2_f32+0x124>
    2428:	0585                	c.addi	a1,1
    242a:	011596b3          	sll	a3,a1,a7
    242e:	f0068313          	addi	t1,a3,-256
    2432:	40d50e33          	sub	t3,a0,a3
    2436:	0cd602db          	lea.w	t0,a2,a3
    243a:	0dc60fdb          	lea.w	t6,a2,t3
    243e:	40650f33          	sub	t5,a0,t1
    2442:	f9c049e3          	bgtz	t3,23d4 <riscv_dsp_cfft_rd2_f32+0x68>
    2446:	e0068693          	addi	a3,a3,-512
    244a:	0cd602db          	lea.w	t0,a2,a3
    244e:	40d506b3          	sub	a3,a0,a3
    2452:	0de60e5b          	lea.w	t3,a2,t5
    2456:	0c66035b          	lea.w	t1,a2,t1
    245a:	0cd60fdb          	lea.w	t6,a2,a3
    245e:	01e05963          	blez	t5,2470 <riscv_dsp_cfft_rd2_f32+0x104>
    2462:	000e2507          	flw	fa0,0(t3)
    2466:	00032007          	flw	ft0,0(t1)
    246a:	20a51553          	fneg.s	fa0,fa0
    246e:	b7bd                	c.j	23dc <riscv_dsp_cfft_rd2_f32+0x70>
    2470:	0002a007          	flw	ft0,0(t0)
    2474:	000fa507          	flw	fa0,0(t6)
    2478:	20001053          	fneg.s	ft0,ft0
    247c:	20a517d3          	fneg.s	fa5,fa0
    2480:	f4d05ee3          	blez	a3,23dc <riscv_dsp_cfft_rd2_f32+0x70>
    2484:	20000553          	fmv.s	fa0,ft0
    2488:	20f78053          	fmv.s	ft0,fa5
    248c:	f51ff06f          	j	23dc <riscv_dsp_cfft_rd2_f32+0x70>
    2490:	ffe48393          	addi	t2,s1,-2
    2494:	82a2                	c.mv	t0,s0
    2496:	4509                	c.li	a0,2
    2498:	0c038e63          	beqz	t2,2574 <riscv_dsp_cfft_rd2_f32+0x208>
    249c:	00a00f93          	li	t6,10
    24a0:	409f8fb3          	sub	t6,t6,s1
    24a4:	c11f988b          	addigp	a7,-1008 # 80410 <riscv_dsp_cos_table_f32_1024+0x8>
    24a8:	10000313          	li	t1,256
    24ac:	0012d293          	srli	t0,t0,0x1
    24b0:	00229f13          	slli	t5,t0,0x2
    24b4:	0c5e8e5b          	lea.w	t3,t4,t0
    24b8:	c915                	c.beqz	a0,24ec <riscv_dsp_cfft_rd2_f32+0x180>
    24ba:	00329613          	slli	a2,t0,0x3
    24be:	8772                	c.mv	a4,t3
    24c0:	87f6                	c.mv	a5,t4
    24c2:	86aa                	c.mv	a3,a0
    24c4:	6398                	c.flw	fa4,0(a5)
    24c6:	63dc                	c.flw	fa5,4(a5)
    24c8:	6310                	c.flw	fa2,0(a4)
    24ca:	6354                	c.flw	fa3,4(a4)
    24cc:	16fd                	c.addi	a3,-1
    24ce:	00c77553          	fadd.s	fa0,fa4,fa2
    24d2:	00d7f5d3          	fadd.s	fa1,fa5,fa3
    24d6:	08c77753          	fsub.s	fa4,fa4,fa2
    24da:	e388                	c.fsw	fa0,0(a5)
    24dc:	08d7f7d3          	fsub.s	fa5,fa5,fa3
    24e0:	e3cc                	c.fsw	fa1,4(a5)
    24e2:	97b2                	c.add	a5,a2
    24e4:	e318                	c.fsw	fa4,0(a4)
    24e6:	e35c                	c.fsw	fa5,4(a4)
    24e8:	9732                	c.add	a4,a2
    24ea:	fee9                	c.bnez	a3,24c4 <riscv_dsp_cfft_rd2_f32+0x158>
    24ec:	00329613          	slli	a2,t0,0x3
    24f0:	85ca                	c.mv	a1,s2
    24f2:	4801                	c.li	a6,0
    24f4:	07c90c63          	beq	s2,t3,256c <riscv_dsp_cfft_rd2_f32+0x200>
    24f8:	00a80833          	add	a6,a6,a0
    24fc:	01f817b3          	sll	a5,a6,t6
    2500:	40f30733          	sub	a4,t1,a5
    2504:	22e05663          	blez	a4,2730 <riscv_dsp_cfft_rd2_f32+0x3c4>
    2508:	0cf887db          	lea.w	a5,a7,a5
    250c:	0ce8875b          	lea.w	a4,a7,a4
    2510:	0007a007          	flw	ft0,0(a5)
    2514:	00072087          	flw	ft1,0(a4)
    2518:	01e58733          	add	a4,a1,t5
    251c:	87ae                	c.mv	a5,a1
    251e:	86aa                	c.mv	a3,a0
    2520:	04050263          	beqz	a0,2564 <riscv_dsp_cfft_rd2_f32+0x1f8>
    2524:	630c                	c.flw	fa1,0(a4)
    2526:	6390                	c.flw	fa2,0(a5)
    2528:	63d8                	c.flw	fa4,4(a5)
    252a:	6348                	c.flw	fa0,4(a4)
    252c:	08b676d3          	fsub.s	fa3,fa2,fa1
    2530:	16fd                	c.addi	a3,-1
    2532:	08a777d3          	fsub.s	fa5,fa4,fa0
    2536:	00b67653          	fadd.s	fa2,fa2,fa1
    253a:	1006f5d3          	fmul.s	fa1,fa3,ft0
    253e:	1017f153          	fmul.s	ft2,fa5,ft1
    2542:	e390                	c.fsw	fa2,0(a5)
    2544:	1007f7d3          	fmul.s	fa5,fa5,ft0
    2548:	1016f6d3          	fmul.s	fa3,fa3,ft1
    254c:	00a77753          	fadd.s	fa4,fa4,fa0
    2550:	0025f5d3          	fadd.s	fa1,fa1,ft2
    2554:	08d7f7d3          	fsub.s	fa5,fa5,fa3
    2558:	e3d8                	c.fsw	fa4,4(a5)
    255a:	97b2                	c.add	a5,a2
    255c:	e30c                	c.fsw	fa1,0(a4)
    255e:	e35c                	c.fsw	fa5,4(a4)
    2560:	9732                	c.add	a4,a2
    2562:	f2e9                	c.bnez	a3,2524 <riscv_dsp_cfft_rd2_f32+0x1b8>
    2564:	00858593          	addi	a1,a1,8
    2568:	f8be18e3          	bne	t3,a1,24f8 <riscv_dsp_cfft_rd2_f32+0x18c>
    256c:	13fd                	c.addi	t2,-1
    256e:	0506                	c.slli	a0,0x1
    2570:	f2039ee3          	bnez	t2,24ac <riscv_dsp_cfft_rd2_f32+0x140>
    2574:	46a1                	c.li	a3,8
    2576:	009696b3          	sll	a3,a3,s1
    257a:	00de8733          	add	a4,t4,a3
    257e:	87f6                	c.mv	a5,t4
    2580:	06ee8063          	beq	t4,a4,25e0 <riscv_dsp_cfft_rd2_f32+0x274>
    2584:	6390                	c.flw	fa2,0(a5)
    2586:	0087a087          	flw	ft1,8(a5)
    258a:	00c7a007          	flw	ft0,12(a5)
    258e:	63d4                	c.flw	fa3,4(a5)
    2590:	001671d3          	fadd.s	ft3,fa2,ft1
    2594:	6b98                	c.flw	fa4,16(a5)
    2596:	08167653          	fsub.s	fa2,fa2,ft1
    259a:	6bdc                	c.flw	fa5,20(a5)
    259c:	6f88                	c.flw	fa0,24(a5)
    259e:	6fcc                	c.flw	fa1,28(a5)
    25a0:	0006f153          	fadd.s	ft2,fa3,ft0
    25a4:	02078793          	addi	a5,a5,32
    25a8:	0806f6d3          	fsub.s	fa3,fa3,ft0
    25ac:	fec7a427          	fsw	fa2,-24(a5)
    25b0:	00a77053          	fadd.s	ft0,fa4,fa0
    25b4:	fe37a027          	fsw	ft3,-32(a5)
    25b8:	00b7f653          	fadd.s	fa2,fa5,fa1
    25bc:	fed7a627          	fsw	fa3,-20(a5)
    25c0:	08a77753          	fsub.s	fa4,fa4,fa0
    25c4:	fe07a827          	fsw	ft0,-16(a5)
    25c8:	08b7f7d3          	fsub.s	fa5,fa5,fa1
    25cc:	fec7aa27          	fsw	fa2,-12(a5)
    25d0:	fe27a227          	fsw	ft2,-28(a5)
    25d4:	fee7ac27          	fsw	fa4,-8(a5)
    25d8:	fef7ae27          	fsw	fa5,-4(a5)
    25dc:	faf714e3          	bne	a4,a5,2584 <riscv_dsp_cfft_rd2_f32+0x218>
    25e0:	00145813          	srli	a6,s0,0x1
    25e4:	0f0e87db          	lea.d	a5,t4,a6
    25e8:	438c                	c.lw	a1,0(a5)
    25ea:	008ea603          	lw	a2,8(t4)
    25ee:	16f1                	c.addi	a3,-4
    25f0:	00bea423          	sw	a1,8(t4)
    25f4:	c390                	c.sw	a2,0(a5)
    25f6:	873e                	c.mv	a4,a5
    25f8:	00de88b3          	add	a7,t4,a3
    25fc:	43dc                	c.lw	a5,4(a5)
    25fe:	8009                	c.srli	s0,0x2
    2600:	00ceae03          	lw	t3,12(t4)
    2604:	00884333          	xor	t1,a6,s0
    2608:	00fea623          	sw	a5,12(t4)
    260c:	010e8613          	addi	a2,t4,16
    2610:	fdc88513          	addi	a0,a7,-36
    2614:	87c2                	c.mv	a5,a6
    2616:	4591                	c.li	a1,4
    2618:	fff48493          	addi	s1,s1,-1
    261c:	01c72223          	sw	t3,4(a4)
    2620:	0067c7b3          	xor	a5,a5,t1
    2624:	00f47733          	and	a4,s0,a5
    2628:	eb01                	c.bnez	a4,2638 <riscv_dsp_cfft_rd2_f32+0x2cc>
    262a:	8722                	c.mv	a4,s0
    262c:	8305                	c.srli	a4,0x1
    262e:	8fb9                	c.xor	a5,a4
    2630:	00f776b3          	and	a3,a4,a5
    2634:	fe068ce3          	beqz	a3,262c <riscv_dsp_cfft_rd2_f32+0x2c0>
    2638:	ffe58713          	addi	a4,a1,-2
    263c:	04f77863          	bgeu	a4,a5,268c <riscv_dsp_cfft_rd2_f32+0x320>
    2640:	0efe875b          	lea.d	a4,t4,a5
    2644:	00072f03          	lw	t5,0(a4)
    2648:	00062e03          	lw	t3,0(a2)
    264c:	01e62023          	sw	t5,0(a2)
    2650:	01c72023          	sw	t3,0(a4)
    2654:	86ba                	c.mv	a3,a4
    2656:	00472e03          	lw	t3,4(a4)
    265a:	00462f03          	lw	t5,4(a2)
    265e:	40f00733          	neg	a4,a5
    2662:	01c62223          	sw	t3,4(a2)
    2666:	01e6a223          	sw	t5,4(a3)
    266a:	0ee88e5b          	lea.d	t3,a7,a4
    266e:	000e2f03          	lw	t5,0(t3)
    2672:	4954                	c.lw	a3,20(a0)
    2674:	01e52a23          	sw	t5,20(a0)
    2678:	00de2023          	sw	a3,0(t3)
    267c:	8772                	c.mv	a4,t3
    267e:	4914                	c.lw	a3,16(a0)
    2680:	ffce2e03          	lw	t3,-4(t3)
    2684:	01c52823          	sw	t3,16(a0)
    2688:	fed72e23          	sw	a3,-4(a4)
    268c:	97c2                	c.add	a5,a6
    268e:	0efe875b          	lea.d	a4,t4,a5
    2692:	00072e03          	lw	t3,0(a4)
    2696:	4614                	c.lw	a3,8(a2)
    2698:	01c62423          	sw	t3,8(a2)
    269c:	c314                	c.sw	a3,0(a4)
    269e:	87ba                	c.mv	a5,a4
    26a0:	4354                	c.lw	a3,4(a4)
    26a2:	4658                	c.lw	a4,12(a2)
    26a4:	c654                	c.sw	a3,12(a2)
    26a6:	c3d8                	c.sw	a4,4(a5)
    26a8:	0d05fe63          	bgeu	a1,a6,2784 <riscv_dsp_cfft_rd2_f32+0x418>
    26ac:	e69587ff          	bitrev	a5,a1,s1
    26b0:	04f5f863          	bgeu	a1,a5,2700 <riscv_dsp_cfft_rd2_f32+0x394>
    26b4:	0efe875b          	lea.d	a4,t4,a5
    26b8:	00072f03          	lw	t5,0(a4)
    26bc:	01062e03          	lw	t3,16(a2)
    26c0:	01e62823          	sw	t5,16(a2)
    26c4:	01c72023          	sw	t3,0(a4)
    26c8:	86ba                	c.mv	a3,a4
    26ca:	00472e03          	lw	t3,4(a4)
    26ce:	01462f03          	lw	t5,20(a2)
    26d2:	40f00733          	neg	a4,a5
    26d6:	01c62a23          	sw	t3,20(a2)
    26da:	01e6a223          	sw	t5,4(a3)
    26de:	0ee88e5b          	lea.d	t3,a7,a4
    26e2:	000e2f03          	lw	t5,0(t3)
    26e6:	4154                	c.lw	a3,4(a0)
    26e8:	01e52223          	sw	t5,4(a0)
    26ec:	00de2023          	sw	a3,0(t3)
    26f0:	8772                	c.mv	a4,t3
    26f2:	4114                	c.lw	a3,0(a0)
    26f4:	ffce2e03          	lw	t3,-4(t3)
    26f8:	01c52023          	sw	t3,0(a0)
    26fc:	fed72e23          	sw	a3,-4(a4)
    2700:	97c2                	c.add	a5,a6
    2702:	0efe86db          	lea.d	a3,t4,a5
    2706:	0006af03          	lw	t5,0(a3)
    270a:	01862e03          	lw	t3,24(a2)
    270e:	01e62c23          	sw	t5,24(a2)
    2712:	01c6a023          	sw	t3,0(a3)
    2716:	8736                	c.mv	a4,a3
    2718:	0046ae03          	lw	t3,4(a3)
    271c:	4e54                	c.lw	a3,28(a2)
    271e:	01c62e23          	sw	t3,28(a2)
    2722:	1501                	c.addi	a0,-32
    2724:	0591                	c.addi	a1,4
    2726:	02060613          	addi	a2,a2,32
    272a:	c354                	c.sw	a3,4(a4)
    272c:	ef5ff06f          	j	2620 <riscv_dsp_cfft_rd2_f32+0x2b4>
    2730:	f0078713          	addi	a4,a5,-256
    2734:	40e306b3          	sub	a3,t1,a4
    2738:	00d05e63          	blez	a3,2754 <riscv_dsp_cfft_rd2_f32+0x3e8>
    273c:	0cd886db          	lea.w	a3,a7,a3
    2740:	0006a007          	flw	ft0,0(a3)
    2744:	0ce8875b          	lea.w	a4,a7,a4
    2748:	00072087          	flw	ft1,0(a4)
    274c:	20001053          	fneg.s	ft0,ft0
    2750:	dc9ff06f          	j	2518 <riscv_dsp_cfft_rd2_f32+0x1ac>
    2754:	e0078793          	addi	a5,a5,-512
    2758:	0cf8875b          	lea.w	a4,a7,a5
    275c:	00072087          	flw	ft1,0(a4)
    2760:	40f307b3          	sub	a5,t1,a5
    2764:	0cf8875b          	lea.w	a4,a7,a5
    2768:	00072007          	flw	ft0,0(a4)
    276c:	201090d3          	fneg.s	ft1,ft1
    2770:	daf054e3          	blez	a5,2518 <riscv_dsp_cfft_rd2_f32+0x1ac>
    2774:	200017d3          	fneg.s	fa5,ft0
    2778:	20108053          	fmv.s	ft0,ft1
    277c:	20f780d3          	fmv.s	ft1,fa5
    2780:	d99ff06f          	j	2518 <riscv_dsp_cfft_rd2_f32+0x1ac>
    2784:	4432                	c.lwsp	s0,12(sp)
    2786:	44a2                	c.lwsp	s1,8(sp)
    2788:	4912                	c.lwsp	s2,4(sp)
    278a:	4501                	c.li	a0,0
    278c:	0141                	c.addi	sp,16
    278e:	8082                	c.jr	ra
    2790:	0001                	c.nop
	...

00002794 <riscv_dsp_cfft_rd2_q15>:
    2794:	4789                	c.li	a5,2
    2796:	00b797b3          	sll	a5,a5,a1
    279a:	00f50e33          	add	t3,a0,a5
    279e:	000e2603          	lw	a2,0(t3)
    27a2:	4114                	c.lw	a3,0(a0)
    27a4:	7179                	c.addi16sp	sp,-48
    27a6:	7016067f          	srai16	a2,a2,1
    27aa:	701686ff          	srai16	a3,a3,1
    27ae:	d24a                	c.swsp	s2,36(sp)
    27b0:	cc56                	c.swsp	s5,24(sp)
    27b2:	ca5a                	c.swsp	s6,20(sp)
    27b4:	c85e                	c.swsp	s7,16(sp)
    27b6:	00c6877f          	radd16	a4,a3,a2
    27ba:	d622                	c.swsp	s0,44(sp)
    27bc:	d426                	c.swsp	s1,40(sp)
    27be:	d04e                	c.swsp	s3,32(sp)
    27c0:	ce52                	c.swsp	s4,28(sp)
    27c2:	c662                	c.swsp	s8,12(sp)
    27c4:	c466                	c.swsp	s9,8(sp)
    27c6:	02c686ff          	rsub16	a3,a3,a2
    27ca:	c118                	c.sw	a4,0(a0)
    27cc:	4a85                	c.li	s5,1
    27ce:	00450b93          	addi	s7,a0,4
    27d2:	00de2023          	sw	a3,0(t3)
    27d6:	8b2e                	c.mv	s6,a1
    27d8:	892a                	c.mv	s2,a0
    27da:	00ba9ab3          	sll	s5,s5,a1
    27de:	0d7e0d63          	beq	t3,s7,28b8 <riscv_dsp_cfft_rd2_q15+0x124>
    27e2:	0791                	c.addi	a5,4
    27e4:	4f29                	c.li	t5,10
    27e6:	6ec1                	c.lui	t4,0x10
    27e8:	40bf0f33          	sub	t5,t5,a1
    27ec:	953e                	c.add	a0,a5
    27ee:	85de                	c.mv	a1,s7
    27f0:	4881                	c.li	a7,0
    27f2:	0200180b          	addigp	a6,32 # 80820 <riscv_dsp_cos_table_q15_1024+0x4>
    27f6:	10000313          	li	t1,256
    27fa:	1efd                	c.addi	t4,-1
    27fc:	0500006f          	j	284c <riscv_dsp_cfft_rd2_q15+0xb8>
    2800:	00039283          	lh	t0,0(t2)
    2804:	000f9783          	lh	a5,0(t6)
    2808:	00052f83          	lw	t6,0(a0)
    280c:	4190                	c.lw	a2,0(a1)
    280e:	86be                	c.mv	a3,a5
    2810:	701f8fff          	srai16	t6,t6,1
    2814:	7016067f          	srai16	a2,a2,1
    2818:	43f607ff          	sub16	a5,a2,t6
    281c:	0e5696ff          	pkbb16	a3,a3,t0
    2820:	38f692ff          	kmda	t0,a3,a5
    2824:	78d797ff          	smxds	a5,a5,a3
    2828:	0102d693          	srli	a3,t0,0x10
    282c:	3ed7177f          	pktb16	a4,a4,a3
    2830:	83c1                	c.srli	a5,0x10
    2832:	01f6067f          	radd16	a2,a2,t6
    2836:	07c2                	c.slli	a5,0x10
    2838:	01d77733          	and	a4,a4,t4
    283c:	c190                	c.sw	a2,0(a1)
    283e:	8f5d                	c.or	a4,a5
    2840:	c118                	c.sw	a4,0(a0)
    2842:	0591                	c.addi	a1,4
    2844:	00450513          	addi	a0,a0,4
    2848:	06be0863          	beq	t3,a1,28b8 <riscv_dsp_cfft_rd2_q15+0x124>
    284c:	0885                	c.addi	a7,1
    284e:	01e897b3          	sll	a5,a7,t5
    2852:	f0078693          	addi	a3,a5,-256
    2856:	40f30633          	sub	a2,t1,a5
    285a:	0af803db          	lea.h	t2,a6,a5
    285e:	0ac80fdb          	lea.h	t6,a6,a2
    2862:	40d302b3          	sub	t0,t1,a3
    2866:	f8c04de3          	bgtz	a2,2800 <riscv_dsp_cfft_rd2_q15+0x6c>
    286a:	e0078793          	addi	a5,a5,-512
    286e:	40f30fb3          	sub	t6,t1,a5
    2872:	0af803db          	lea.h	t2,a6,a5
    2876:	0a58065b          	lea.h	a2,a6,t0
    287a:	0ad806db          	lea.h	a3,a6,a3
    287e:	0bf807db          	lea.h	a5,a6,t6
    2882:	00505b63          	blez	t0,2898 <riscv_dsp_cfft_rd2_q15+0x104>
    2886:	00065283          	lhu	t0,0(a2)
    288a:	00069783          	lh	a5,0(a3)
    288e:	405002b3          	neg	t0,t0
    2892:	3c02b2db          	bfos	t0,t0,15,0
    2896:	bf8d                	c.j	2808 <riscv_dsp_cfft_rd2_q15+0x74>
    2898:	00079283          	lh	t0,0(a5)
    289c:	0003d603          	lhu	a2,0(t2)
    28a0:	40c00633          	neg	a2,a2
    28a4:	405006b3          	neg	a3,t0
    28a8:	3c0637db          	bfos	a5,a2,15,0
    28ac:	f5f05ee3          	blez	t6,2808 <riscv_dsp_cfft_rd2_q15+0x74>
    28b0:	82be                	c.mv	t0,a5
    28b2:	3c06b7db          	bfos	a5,a3,15,0
    28b6:	bf89                	c.j	2808 <riscv_dsp_cfft_rd2_q15+0x74>
    28b8:	ffeb0a13          	addi	s4,s6,-2
    28bc:	89d6                	c.mv	s3,s5
    28be:	4e89                	c.li	t4,2
    28c0:	0c0a0863          	beqz	s4,2990 <riscv_dsp_cfft_rd2_q15+0x1fc>
    28c4:	44a9                	c.li	s1,10
    28c6:	6341                	c.lui	t1,0x10
    28c8:	416484b3          	sub	s1,s1,s6
    28cc:	02001f8b          	addigp	t6,32 # 80820 <riscv_dsp_cos_table_q15_1024+0x4>
    28d0:	10000293          	li	t0,256
    28d4:	fff30313          	addi	t1,t1,-1 # ffff <BIN_SIZE+0x6629>
    28d8:	0019d993          	srli	s3,s3,0x1
    28dc:	00199413          	slli	s0,s3,0x1
    28e0:	0b3903db          	lea.h	t2,s2,s3
    28e4:	020e8463          	beqz	t4,290c <riscv_dsp_cfft_rd2_q15+0x178>
    28e8:	00299813          	slli	a6,s3,0x2
    28ec:	861e                	c.mv	a2,t2
    28ee:	86ca                	c.mv	a3,s2
    28f0:	01d005b3          	add	a1,zero,t4
    28f4:	429c                	c.lw	a5,0(a3)
    28f6:	4208                	c.lw	a0,0(a2)
    28f8:	15fd                	c.addi	a1,-1
    28fa:	00a7877f          	radd16	a4,a5,a0
    28fe:	c298                	c.sw	a4,0(a3)
    2900:	02a787ff          	rsub16	a5,a5,a0
    2904:	c21c                	c.sw	a5,0(a2)
    2906:	96c2                	c.add	a3,a6
    2908:	9642                	c.add	a2,a6
    290a:	f5ed                	c.bnez	a1,28f4 <riscv_dsp_cfft_rd2_q15+0x160>
    290c:	00299893          	slli	a7,s3,0x2
    2910:	8e5e                	c.mv	t3,s7
    2912:	4f01                	c.li	t5,0
    2914:	067b8a63          	beq	s7,t2,2988 <riscv_dsp_cfft_rd2_q15+0x1f4>
    2918:	01df0f33          	add	t5,t5,t4
    291c:	009f17b3          	sll	a5,t5,s1
    2920:	40f286b3          	sub	a3,t0,a5
    2924:	18d05063          	blez	a3,2aa4 <riscv_dsp_cfft_rd2_q15+0x310>
    2928:	0adf865b          	lea.h	a2,t6,a3
    292c:	0aff87db          	lea.h	a5,t6,a5
    2930:	00079683          	lh	a3,0(a5)
    2934:	00061603          	lh	a2,0(a2)
    2938:	008e0533          	add	a0,t3,s0
    293c:	85f2                	c.mv	a1,t3
    293e:	8876                	c.mv	a6,t4
    2940:	040e8063          	beqz	t4,2980 <riscv_dsp_cfft_rd2_q15+0x1ec>
    2944:	0ed6167f          	pkbb16	a2,a2,a3
    2948:	4194                	c.lw	a3,0(a1)
    294a:	00052c83          	lw	s9,0(a0)
    294e:	187d                	c.addi	a6,-1
    2950:	439687ff          	sub16	a5,a3,s9
    2954:	38f61c7f          	kmda	s8,a2,a5
    2958:	78c797ff          	smxds	a5,a5,a2
    295c:	010c5c13          	srli	s8,s8,0x10
    2960:	3f87177f          	pktb16	a4,a4,s8
    2964:	83c1                	c.srli	a5,0x10
    2966:	019686ff          	radd16	a3,a3,s9
    296a:	07c2                	c.slli	a5,0x10
    296c:	00677733          	and	a4,a4,t1
    2970:	c194                	c.sw	a3,0(a1)
    2972:	8f5d                	c.or	a4,a5
    2974:	c118                	c.sw	a4,0(a0)
    2976:	95c6                	c.add	a1,a7
    2978:	01150533          	add	a0,a0,a7
    297c:	fc0816e3          	bnez	a6,2948 <riscv_dsp_cfft_rd2_q15+0x1b4>
    2980:	004e0e13          	addi	t3,t3,4
    2984:	f9c39ae3          	bne	t2,t3,2918 <riscv_dsp_cfft_rd2_q15+0x184>
    2988:	1a7d                	c.addi	s4,-1
    298a:	0e86                	c.slli	t4,0x1
    298c:	f40a16e3          	bnez	s4,28d8 <riscv_dsp_cfft_rd2_q15+0x144>
    2990:	4891                	c.li	a7,4
    2992:	016898b3          	sll	a7,a7,s6
    2996:	01190833          	add	a6,s2,a7
    299a:	87ca                	c.mv	a5,s2
    299c:	03090663          	beq	s2,a6,29c8 <riscv_dsp_cfft_rd2_q15+0x234>
    29a0:	43cc                	c.lw	a1,4(a5)
    29a2:	4394                	c.lw	a3,0(a5)
    29a4:	4798                	c.lw	a4,8(a5)
    29a6:	47d0                	c.lw	a2,12(a5)
    29a8:	00b6857f          	radd16	a0,a3,a1
    29ac:	02b686ff          	rsub16	a3,a3,a1
    29b0:	00c705ff          	radd16	a1,a4,a2
    29b4:	02c7077f          	rsub16	a4,a4,a2
    29b8:	c388                	c.sw	a0,0(a5)
    29ba:	c3d4                	c.sw	a3,4(a5)
    29bc:	c78c                	c.sw	a1,8(a5)
    29be:	c7d8                	c.sw	a4,12(a5)
    29c0:	01078793          	addi	a5,a5,16
    29c4:	fcf81ee3          	bne	a6,a5,29a0 <riscv_dsp_cfft_rd2_q15+0x20c>
    29c8:	001ad813          	srli	a6,s5,0x1
    29cc:	0d09075b          	lea.w	a4,s2,a6
    29d0:	431c                	c.lw	a5,0(a4)
    29d2:	18f9                	c.addi	a7,-2
    29d4:	00492683          	lw	a3,4(s2)
    29d8:	98ca                	c.add	a7,s2
    29da:	002ada93          	srli	s5,s5,0x2
    29de:	00f92223          	sw	a5,4(s2)
    29e2:	01584333          	xor	t1,a6,s5
    29e6:	00890613          	addi	a2,s2,8
    29ea:	fee88513          	addi	a0,a7,-18
    29ee:	87c2                	c.mv	a5,a6
    29f0:	4591                	c.li	a1,4
    29f2:	1b7d                	c.addi	s6,-1
    29f4:	00d72023          	sw	a3,0(a4)
    29f8:	0067c7b3          	xor	a5,a5,t1
    29fc:	00faf733          	and	a4,s5,a5
    2a00:	eb01                	c.bnez	a4,2a10 <riscv_dsp_cfft_rd2_q15+0x27c>
    2a02:	8756                	c.mv	a4,s5
    2a04:	8305                	c.srli	a4,0x1
    2a06:	8fb9                	c.xor	a5,a4
    2a08:	00f776b3          	and	a3,a4,a5
    2a0c:	fe068ce3          	beqz	a3,2a04 <riscv_dsp_cfft_rd2_q15+0x270>
    2a10:	ffe58713          	addi	a4,a1,-2
    2a14:	02f77863          	bgeu	a4,a5,2a44 <riscv_dsp_cfft_rd2_q15+0x2b0>
    2a18:	0cf906db          	lea.w	a3,s2,a5
    2a1c:	0006ae83          	lw	t4,0(a3)
    2a20:	00062e03          	lw	t3,0(a2)
    2a24:	40f00733          	neg	a4,a5
    2a28:	01d62023          	sw	t4,0(a2)
    2a2c:	0ce8875b          	lea.w	a4,a7,a4
    2a30:	01c6a023          	sw	t3,0(a3)
    2a34:	ffe72e03          	lw	t3,-2(a4)
    2a38:	00852683          	lw	a3,8(a0)
    2a3c:	01c52423          	sw	t3,8(a0)
    2a40:	fed72f23          	sw	a3,-2(a4)
    2a44:	97c2                	c.add	a5,a6
    2a46:	0cf907db          	lea.w	a5,s2,a5
    2a4a:	4394                	c.lw	a3,0(a5)
    2a4c:	4258                	c.lw	a4,4(a2)
    2a4e:	c254                	c.sw	a3,4(a2)
    2a50:	c398                	c.sw	a4,0(a5)
    2a52:	0b05f563          	bgeu	a1,a6,2afc <riscv_dsp_cfft_rd2_q15+0x368>
    2a56:	e76587ff          	bitrev	a5,a1,s6
    2a5a:	02f5f763          	bgeu	a1,a5,2a88 <riscv_dsp_cfft_rd2_q15+0x2f4>
    2a5e:	0cf906db          	lea.w	a3,s2,a5
    2a62:	0006ae83          	lw	t4,0(a3)
    2a66:	00862e03          	lw	t3,8(a2)
    2a6a:	40f00733          	neg	a4,a5
    2a6e:	01d62423          	sw	t4,8(a2)
    2a72:	0ce8875b          	lea.w	a4,a7,a4
    2a76:	01c6a023          	sw	t3,0(a3)
    2a7a:	ffe72e03          	lw	t3,-2(a4)
    2a7e:	4114                	c.lw	a3,0(a0)
    2a80:	01c52023          	sw	t3,0(a0)
    2a84:	fed72f23          	sw	a3,-2(a4)
    2a88:	97c2                	c.add	a5,a6
    2a8a:	0cf9075b          	lea.w	a4,s2,a5
    2a8e:	00072e03          	lw	t3,0(a4)
    2a92:	4654                	c.lw	a3,12(a2)
    2a94:	01c62623          	sw	t3,12(a2)
    2a98:	1541                	c.addi	a0,-16
    2a9a:	0641                	c.addi	a2,16
    2a9c:	0591                	c.addi	a1,4
    2a9e:	c314                	c.sw	a3,0(a4)
    2aa0:	f59ff06f          	j	29f8 <riscv_dsp_cfft_rd2_q15+0x264>
    2aa4:	f0078613          	addi	a2,a5,-256
    2aa8:	40c286b3          	sub	a3,t0,a2
    2aac:	02d05063          	blez	a3,2acc <riscv_dsp_cfft_rd2_q15+0x338>
    2ab0:	0adf86db          	lea.h	a3,t6,a3
    2ab4:	0006d683          	lhu	a3,0(a3)
    2ab8:	0acf865b          	lea.h	a2,t6,a2
    2abc:	40d006b3          	neg	a3,a3
    2ac0:	00061603          	lh	a2,0(a2)
    2ac4:	3c06b6db          	bfos	a3,a3,15,0
    2ac8:	e71ff06f          	j	2938 <riscv_dsp_cfft_rd2_q15+0x1a4>
    2acc:	e0078793          	addi	a5,a5,-512
    2ad0:	0aff86db          	lea.h	a3,t6,a5
    2ad4:	0006d603          	lhu	a2,0(a3)
    2ad8:	40f287b3          	sub	a5,t0,a5
    2adc:	0aff86db          	lea.h	a3,t6,a5
    2ae0:	40c00633          	neg	a2,a2
    2ae4:	00069683          	lh	a3,0(a3)
    2ae8:	3c06365b          	bfos	a2,a2,15,0
    2aec:	e4f056e3          	blez	a5,2938 <riscv_dsp_cfft_rd2_q15+0x1a4>
    2af0:	40d007b3          	neg	a5,a3
    2af4:	86b2                	c.mv	a3,a2
    2af6:	3c07b65b          	bfos	a2,a5,15,0
    2afa:	bd3d                	c.j	2938 <riscv_dsp_cfft_rd2_q15+0x1a4>
    2afc:	5432                	c.lwsp	s0,44(sp)
    2afe:	54a2                	c.lwsp	s1,40(sp)
    2b00:	5912                	c.lwsp	s2,36(sp)
    2b02:	5982                	c.lwsp	s3,32(sp)
    2b04:	4a72                	c.lwsp	s4,28(sp)
    2b06:	4ae2                	c.lwsp	s5,24(sp)
    2b08:	4b52                	c.lwsp	s6,20(sp)
    2b0a:	4bc2                	c.lwsp	s7,16(sp)
    2b0c:	4c32                	c.lwsp	s8,12(sp)
    2b0e:	4ca2                	c.lwsp	s9,8(sp)
    2b10:	4501                	c.li	a0,0
    2b12:	6145                	c.addi16sp	sp,48
    2b14:	8082                	c.jr	ra
    2b16:	0001                	c.nop

00002b18 <riscv_dsp_cfft_rd4_f32>:
    2b18:	7179                	c.addi16sp	sp,-48
    2b1a:	cc56                	c.swsp	s5,24(sp)
    2b1c:	4a85                	c.li	s5,1
    2b1e:	00ba9ab3          	sll	s5,s5,a1
    2b22:	d04e                	c.swsp	s3,32(sp)
    2b24:	001ad993          	srli	s3,s5,0x1
    2b28:	c466                	c.swsp	s9,8(sp)
    2b2a:	0f350cdb          	lea.d	s9,a0,s3
    2b2e:	0d350e5b          	lea.w	t3,a0,s3
    2b32:	0d3c87db          	lea.w	a5,s9,s3
    2b36:	000ca007          	flw	ft0,0(s9)
    2b3a:	638c                	c.flw	fa1,0(a5)
    2b3c:	6118                	c.flw	fa4,0(a0)
    2b3e:	000e2787          	flw	fa5,0(t3)
    2b42:	ca5a                	c.swsp	s6,20(sp)
    2b44:	00077653          	fadd.s	fa2,fa4,ft0
    2b48:	c85e                	c.swsp	s7,16(sp)
    2b4a:	00b7f553          	fadd.s	fa0,fa5,fa1
    2b4e:	d622                	c.swsp	s0,44(sp)
    2b50:	08b7f7d3          	fsub.s	fa5,fa5,fa1
    2b54:	d426                	c.swsp	s1,40(sp)
    2b56:	d24a                	c.swsp	s2,36(sp)
    2b58:	00a675d3          	fadd.s	fa1,fa2,fa0
    2b5c:	ce52                	c.swsp	s4,28(sp)
    2b5e:	c662                	c.swsp	s8,12(sp)
    2b60:	6154                	c.flw	fa3,4(a0)
    2b62:	08a67553          	fsub.s	fa0,fa2,fa0
    2b66:	e10c                	c.fsw	fa1,0(a0)
    2b68:	004ca107          	flw	ft2,4(s9)
    2b6c:	0047a087          	flw	ft1,4(a5)
    2b70:	004e2607          	flw	fa2,4(t3)
    2b74:	08077753          	fsub.s	fa4,fa4,ft0
    2b78:	00850b13          	addi	s6,a0,8
    2b7c:	00167053          	fadd.s	ft0,fa2,ft1
    2b80:	8bae                	c.mv	s7,a1
    2b82:	0026f5d3          	fadd.s	fa1,fa3,ft2
    2b86:	82aa                	c.mv	t0,a0
    2b88:	0826f6d3          	fsub.s	fa3,fa3,ft2
    2b8c:	08167653          	fsub.s	fa2,fa2,ft1
    2b90:	0005f153          	fadd.s	ft2,fa1,ft0
    2b94:	0805f5d3          	fsub.s	fa1,fa1,ft0
    2b98:	00c770d3          	fadd.s	ft1,fa4,fa2
    2b9c:	00252227          	fsw	ft2,4(a0)
    2ba0:	08f6f053          	fsub.s	ft0,fa3,fa5
    2ba4:	00ae2027          	fsw	fa0,0(t3)
    2ba8:	08c77753          	fsub.s	fa4,fa4,fa2
    2bac:	00be2227          	fsw	fa1,4(t3)
    2bb0:	00d7f7d3          	fadd.s	fa5,fa5,fa3
    2bb4:	001ca027          	fsw	ft1,0(s9)
    2bb8:	000ca227          	fsw	ft0,4(s9)
    2bbc:	e398                	c.fsw	fa4,0(a5)
    2bbe:	e3dc                	c.fsw	fa5,4(a5)
    2bc0:	256e0863          	beq	t3,s6,2e10 <riscv_dsp_cfft_rd4_f32+0x2f8>
    2bc4:	47b1                	c.li	a5,12
    2bc6:	862a                	c.mv	a2,a0
    2bc8:	c4f9967f          	maddr32	a2,s3,a5
    2bcc:	00299713          	slli	a4,s3,0x2
    2bd0:	0721                	c.addi	a4,8
    2bd2:	48a9                	c.li	a7,10
    2bd4:	40b888b3          	sub	a7,a7,a1
    2bd8:	972a                	c.add	a4,a0
    2bda:	85e6                	c.mv	a1,s9
    2bdc:	0621                	c.addi	a2,8
    2bde:	87da                	c.mv	a5,s6
    2be0:	430d                	c.li	t1,3
    2be2:	4801                	c.li	a6,0
    2be4:	c11f968b          	addigp	a3,-1008 # 80410 <riscv_dsp_cos_table_f32_1024+0x8>
    2be8:	10000513          	li	a0,256
    2bec:	0c80006f          	j	2cb4 <riscv_dsp_cfft_rd4_f32+0x19c>
    2bf0:	0dd68edb          	lea.w	t4,a3,t4
    2bf4:	0de68f5b          	lea.w	t5,a3,t5
    2bf8:	000ea007          	flw	ft0,0(t4) # 10000 <BIN_SIZE+0x662a>
    2bfc:	000f2107          	flw	ft2,0(t5)
    2c00:	100670d3          	fmul.s	ft1,fa2,ft0
    2c04:	01181eb3          	sll	t4,a6,a7
    2c08:	1026f1d3          	fmul.s	ft3,fa3,ft2
    2c0c:	41d50f33          	sub	t5,a0,t4
    2c10:	1006f6d3          	fmul.s	fa3,fa3,ft0
    2c14:	10267653          	fmul.s	fa2,fa2,ft2
    2c18:	0030f0d3          	fadd.s	ft1,ft1,ft3
    2c1c:	00a77053          	fadd.s	ft0,fa4,fa0
    2c20:	08c6f6d3          	fsub.s	fa3,fa3,fa2
    2c24:	00172027          	fsw	ft1,0(a4)
    2c28:	08f5f653          	fsub.s	fa2,fa1,fa5
    2c2c:	08a77753          	fsub.s	fa4,fa4,fa0
    2c30:	e354                	c.fsw	fa3,4(a4)
    2c32:	00b7f7d3          	fadd.s	fa5,fa5,fa1
    2c36:	13e05363          	blez	t5,2d5c <riscv_dsp_cfft_rd4_f32+0x244>
    2c3a:	0dd68edb          	lea.w	t4,a3,t4
    2c3e:	0de68f5b          	lea.w	t5,a3,t5
    2c42:	000ea687          	flw	fa3,0(t4)
    2c46:	000f2507          	flw	fa0,0(t5)
    2c4a:	0001                	c.nop
    2c4c:	10d075d3          	fmul.s	fa1,ft0,fa3
    2c50:	01131eb3          	sll	t4,t1,a7
    2c54:	10a670d3          	fmul.s	ft1,fa2,fa0
    2c58:	41d50f33          	sub	t5,a0,t4
    2c5c:	10d676d3          	fmul.s	fa3,fa2,fa3
    2c60:	10a07053          	fmul.s	ft0,ft0,fa0
    2c64:	0015f5d3          	fadd.s	fa1,fa1,ft1
    2c68:	0806f6d3          	fsub.s	fa3,fa3,ft0
    2c6c:	e58c                	c.fsw	fa1,8(a1)
    2c6e:	e5d4                	c.fsw	fa3,12(a1)
    2c70:	0de05463          	blez	t5,2d38 <riscv_dsp_cfft_rd4_f32+0x220>
    2c74:	0dd68edb          	lea.w	t4,a3,t4
    2c78:	0de68f5b          	lea.w	t5,a3,t5
    2c7c:	000ea607          	flw	fa2,0(t4)
    2c80:	000f2587          	flw	fa1,0(t5)
    2c84:	10c776d3          	fmul.s	fa3,fa4,fa2
    2c88:	0621                	c.addi	a2,8
    2c8a:	10b7f553          	fmul.s	fa0,fa5,fa1
    2c8e:	07a1                	c.addi	a5,8
    2c90:	10c7f7d3          	fmul.s	fa5,fa5,fa2
    2c94:	05a1                	c.addi	a1,8
    2c96:	10b77753          	fmul.s	fa4,fa4,fa1
    2c9a:	0721                	c.addi	a4,8
    2c9c:	00a6f6d3          	fadd.s	fa3,fa3,fa0
    2ca0:	00330313          	addi	t1,t1,3
    2ca4:	08e7f7d3          	fsub.s	fa5,fa5,fa4
    2ca8:	fed62c27          	fsw	fa3,-8(a2)
    2cac:	fef62e27          	fsw	fa5,-4(a2)
    2cb0:	16fe0063          	beq	t3,a5,2e10 <riscv_dsp_cfft_rd4_f32+0x2f8>
    2cb4:	0085a007          	flw	ft0,8(a1)
    2cb8:	6208                	c.flw	fa0,0(a2)
    2cba:	631c                	c.flw	fa5,0(a4)
    2cbc:	6398                	c.flw	fa4,0(a5)
    2cbe:	63cc                	c.flw	fa1,4(a5)
    2cc0:	00a7f6d3          	fadd.s	fa3,fa5,fa0
    2cc4:	0805                	c.addi	a6,1
    2cc6:	00077653          	fadd.s	fa2,fa4,ft0
    2cca:	00181e93          	slli	t4,a6,0x1
    2cce:	08077753          	fsub.s	fa4,fa4,ft0
    2cd2:	011e9eb3          	sll	t4,t4,a7
    2cd6:	08a7f7d3          	fsub.s	fa5,fa5,fa0
    2cda:	41d50f33          	sub	t5,a0,t4
    2cde:	00d67053          	fadd.s	ft0,fa2,fa3
    2ce2:	08d67653          	fsub.s	fa2,fa2,fa3
    2ce6:	0007a027          	fsw	ft0,0(a5)
    2cea:	00462087          	flw	ft1,4(a2)
    2cee:	00c5a107          	flw	ft2,12(a1)
    2cf2:	6348                	c.flw	fa0,4(a4)
    2cf4:	0025f6d3          	fadd.s	fa3,fa1,ft2
    2cf8:	00157053          	fadd.s	ft0,fa0,ft1
    2cfc:	08157553          	fsub.s	fa0,fa0,ft1
    2d00:	0825f5d3          	fsub.s	fa1,fa1,ft2
    2d04:	0006f0d3          	fadd.s	ft1,fa3,ft0
    2d08:	0806f6d3          	fsub.s	fa3,fa3,ft0
    2d0c:	0017a227          	fsw	ft1,4(a5)
    2d10:	efe040e3          	bgtz	t5,2bf0 <riscv_dsp_cfft_rd4_f32+0xd8>
    2d14:	f00e8f13          	addi	t5,t4,-256
    2d18:	41e50fb3          	sub	t6,a0,t5
    2d1c:	07f05263          	blez	t6,2d80 <riscv_dsp_cfft_rd4_f32+0x268>
    2d20:	0df68fdb          	lea.w	t6,a3,t6
    2d24:	000fa007          	flw	ft0,0(t6)
    2d28:	0de68f5b          	lea.w	t5,a3,t5
    2d2c:	000f2107          	flw	ft2,0(t5)
    2d30:	20001053          	fneg.s	ft0,ft0
    2d34:	ecdff06f          	j	2c00 <riscv_dsp_cfft_rd4_f32+0xe8>
    2d38:	f00e8f13          	addi	t5,t4,-256
    2d3c:	41e50fb3          	sub	t6,a0,t5
    2d40:	07f05863          	blez	t6,2db0 <riscv_dsp_cfft_rd4_f32+0x298>
    2d44:	0df68fdb          	lea.w	t6,a3,t6
    2d48:	000fa607          	flw	fa2,0(t6)
    2d4c:	0de68f5b          	lea.w	t5,a3,t5
    2d50:	000f2587          	flw	fa1,0(t5)
    2d54:	20c61653          	fneg.s	fa2,fa2
    2d58:	f2dff06f          	j	2c84 <riscv_dsp_cfft_rd4_f32+0x16c>
    2d5c:	f00e8f13          	addi	t5,t4,-256
    2d60:	41e50fb3          	sub	t6,a0,t5
    2d64:	07f05e63          	blez	t6,2de0 <riscv_dsp_cfft_rd4_f32+0x2c8>
    2d68:	0df68fdb          	lea.w	t6,a3,t6
    2d6c:	000fa687          	flw	fa3,0(t6)
    2d70:	0de68f5b          	lea.w	t5,a3,t5
    2d74:	000f2507          	flw	fa0,0(t5)
    2d78:	20d696d3          	fneg.s	fa3,fa3
    2d7c:	ed1ff06f          	j	2c4c <riscv_dsp_cfft_rd4_f32+0x134>
    2d80:	e00e8e93          	addi	t4,t4,-512
    2d84:	0dd68f5b          	lea.w	t5,a3,t4
    2d88:	000f2107          	flw	ft2,0(t5)
    2d8c:	41d50eb3          	sub	t4,a0,t4
    2d90:	0dd68f5b          	lea.w	t5,a3,t4
    2d94:	000f2007          	flw	ft0,0(t5)
    2d98:	20211153          	fneg.s	ft2,ft2
    2d9c:	e7d052e3          	blez	t4,2c00 <riscv_dsp_cfft_rd4_f32+0xe8>
    2da0:	200010d3          	fneg.s	ft1,ft0
    2da4:	20210053          	fmv.s	ft0,ft2
    2da8:	20108153          	fmv.s	ft2,ft1
    2dac:	e55ff06f          	j	2c00 <riscv_dsp_cfft_rd4_f32+0xe8>
    2db0:	e00e8e93          	addi	t4,t4,-512
    2db4:	0dd68f5b          	lea.w	t5,a3,t4
    2db8:	000f2587          	flw	fa1,0(t5)
    2dbc:	41d50eb3          	sub	t4,a0,t4
    2dc0:	0dd68f5b          	lea.w	t5,a3,t4
    2dc4:	000f2607          	flw	fa2,0(t5)
    2dc8:	20b595d3          	fneg.s	fa1,fa1
    2dcc:	ebd05ce3          	blez	t4,2c84 <riscv_dsp_cfft_rd4_f32+0x16c>
    2dd0:	20c616d3          	fneg.s	fa3,fa2
    2dd4:	20b58653          	fmv.s	fa2,fa1
    2dd8:	20d685d3          	fmv.s	fa1,fa3
    2ddc:	ea9ff06f          	j	2c84 <riscv_dsp_cfft_rd4_f32+0x16c>
    2de0:	e00e8e93          	addi	t4,t4,-512
    2de4:	0dd68f5b          	lea.w	t5,a3,t4
    2de8:	000f2507          	flw	fa0,0(t5)
    2dec:	41d50eb3          	sub	t4,a0,t4
    2df0:	0dd68f5b          	lea.w	t5,a3,t4
    2df4:	000f2687          	flw	fa3,0(t5)
    2df8:	20a51553          	fneg.s	fa0,fa0
    2dfc:	e5d058e3          	blez	t4,2c4c <riscv_dsp_cfft_rd4_f32+0x134>
    2e00:	20d695d3          	fneg.s	fa1,fa3
    2e04:	20a506d3          	fmv.s	fa3,fa0
    2e08:	20b58553          	fmv.s	fa0,fa1
    2e0c:	e41ff06f          	j	2c4c <riscv_dsp_cfft_rd4_f32+0x134>
    2e10:	001bda13          	srli	s4,s7,0x1
    2e14:	1a79                	c.addi	s4,-2
    2e16:	844e                	c.mv	s0,s3
    2e18:	4e91                	c.li	t4,4
    2e1a:	200a0363          	beqz	s4,3020 <riscv_dsp_cfft_rd4_f32+0x508>
    2e1e:	4f29                	c.li	t5,10
    2e20:	417f0f33          	sub	t5,t5,s7
    2e24:	00c00c13          	li	s8,12
    2e28:	c11f988b          	addigp	a7,-1008 # 80410 <riscv_dsp_cos_table_f32_1024+0x8>
    2e2c:	10000e13          	li	t3,256
    2e30:	8009                	c.srli	s0,0x2
    2e32:	00241393          	slli	t2,s0,0x2
    2e36:	0c828fdb          	lea.w	t6,t0,s0
    2e3a:	080e8763          	beqz	t4,2ec8 <riscv_dsp_cfft_rd4_f32+0x3b0>
    2e3e:	00441593          	slli	a1,s0,0x4
    2e42:	007f8633          	add	a2,t6,t2
    2e46:	86fe                	c.mv	a3,t6
    2e48:	0e8f875b          	lea.d	a4,t6,s0
    2e4c:	8796                	c.mv	a5,t0
    2e4e:	8576                	c.mv	a0,t4
    2e50:	00062007          	flw	ft0,0(a2)
    2e54:	630c                	c.flw	fa1,0(a4)
    2e56:	6398                	c.flw	fa4,0(a5)
    2e58:	629c                	c.flw	fa5,0(a3)
    2e5a:	63d4                	c.flw	fa3,4(a5)
    2e5c:	00077653          	fadd.s	fa2,fa4,ft0
    2e60:	157d                	c.addi	a0,-1
    2e62:	00b7f553          	fadd.s	fa0,fa5,fa1
    2e66:	08b7f7d3          	fsub.s	fa5,fa5,fa1
    2e6a:	08077753          	fsub.s	fa4,fa4,ft0
    2e6e:	00a675d3          	fadd.s	fa1,fa2,fa0
    2e72:	08a67553          	fsub.s	fa0,fa2,fa0
    2e76:	e38c                	c.fsw	fa1,0(a5)
    2e78:	00462107          	flw	ft2,4(a2)
    2e7c:	00472087          	flw	ft1,4(a4)
    2e80:	62d0                	c.flw	fa2,4(a3)
    2e82:	0026f5d3          	fadd.s	fa1,fa3,ft2
    2e86:	00167053          	fadd.s	ft0,fa2,ft1
    2e8a:	0826f6d3          	fsub.s	fa3,fa3,ft2
    2e8e:	08167653          	fsub.s	fa2,fa2,ft1
    2e92:	0005f153          	fadd.s	ft2,fa1,ft0
    2e96:	0805f5d3          	fsub.s	fa1,fa1,ft0
    2e9a:	00c770d3          	fadd.s	ft1,fa4,fa2
    2e9e:	0027a227          	fsw	ft2,4(a5)
    2ea2:	08f6f053          	fsub.s	ft0,fa3,fa5
    2ea6:	e288                	c.fsw	fa0,0(a3)
    2ea8:	08c77753          	fsub.s	fa4,fa4,fa2
    2eac:	e2cc                	c.fsw	fa1,4(a3)
    2eae:	00d7f7d3          	fadd.s	fa5,fa5,fa3
    2eb2:	00162027          	fsw	ft1,0(a2)
    2eb6:	00062227          	fsw	ft0,4(a2)
    2eba:	e318                	c.fsw	fa4,0(a4)
    2ebc:	97ae                	c.add	a5,a1
    2ebe:	e35c                	c.fsw	fa5,4(a4)
    2ec0:	962e                	c.add	a2,a1
    2ec2:	96ae                	c.add	a3,a1
    2ec4:	972e                	c.add	a4,a1
    2ec6:	f549                	c.bnez	a0,2e50 <riscv_dsp_cfft_rd4_f32+0x338>
    2ec8:	15fb0863          	beq	s6,t6,3018 <riscv_dsp_cfft_rd4_f32+0x500>
    2ecc:	03840933          	mul	s2,s0,s8
    2ed0:	00441593          	slli	a1,s0,0x4
    2ed4:	00341493          	slli	s1,s0,0x3
    2ed8:	885a                	c.mv	a6,s6
    2eda:	4301                	c.li	t1,0
    2edc:	01d30333          	add	t1,t1,t4
    2ee0:	01e317b3          	sll	a5,t1,t5
    2ee4:	40fe0733          	sub	a4,t3,a5
    2ee8:	36e05663          	blez	a4,3254 <riscv_dsp_cfft_rd4_f32+0x73c>
    2eec:	0cf887db          	lea.w	a5,a7,a5
    2ef0:	0ce8875b          	lea.w	a4,a7,a4
    2ef4:	0007a287          	flw	ft5,0(a5)
    2ef8:	00072807          	flw	fa6,0(a4)
    2efc:	00131793          	slli	a5,t1,0x1
    2f00:	01e79733          	sll	a4,a5,t5
    2f04:	40ee06b3          	sub	a3,t3,a4
    2f08:	2ed05c63          	blez	a3,3200 <riscv_dsp_cfft_rd4_f32+0x6e8>
    2f0c:	0ce8875b          	lea.w	a4,a7,a4
    2f10:	0cd886db          	lea.w	a3,a7,a3
    2f14:	00072207          	flw	ft4,0(a4)
    2f18:	0006a387          	flw	ft7,0(a3)
    2f1c:	006787b3          	add	a5,a5,t1
    2f20:	01e797b3          	sll	a5,a5,t5
    2f24:	40fe0733          	sub	a4,t3,a5
    2f28:	30e05463          	blez	a4,3230 <riscv_dsp_cfft_rd4_f32+0x718>
    2f2c:	0cf887db          	lea.w	a5,a7,a5
    2f30:	0ce8875b          	lea.w	a4,a7,a4
    2f34:	0007a187          	flw	ft3,0(a5)
    2f38:	00072307          	flw	ft6,0(a4)
    2f3c:	0c0e8a63          	beqz	t4,3010 <riscv_dsp_cfft_rd4_f32+0x4f8>
    2f40:	01048633          	add	a2,s1,a6
    2f44:	010386b3          	add	a3,t2,a6
    2f48:	01280733          	add	a4,a6,s2
    2f4c:	87c2                	c.mv	a5,a6
    2f4e:	8576                	c.mv	a0,t4
    2f50:	00062007          	flw	ft0,0(a2)
    2f54:	6308                	c.flw	fa0,0(a4)
    2f56:	6398                	c.flw	fa4,0(a5)
    2f58:	629c                	c.flw	fa5,0(a3)
    2f5a:	63d0                	c.flw	fa2,4(a5)
    2f5c:	000776d3          	fadd.s	fa3,fa4,ft0
    2f60:	157d                	c.addi	a0,-1
    2f62:	00a7f5d3          	fadd.s	fa1,fa5,fa0
    2f66:	08a7f7d3          	fsub.s	fa5,fa5,fa0
    2f6a:	08077753          	fsub.s	fa4,fa4,ft0
    2f6e:	00b6f553          	fadd.s	fa0,fa3,fa1
    2f72:	08b6f6d3          	fsub.s	fa3,fa3,fa1
    2f76:	e388                	c.fsw	fa0,0(a5)
    2f78:	62cc                	c.flw	fa1,4(a3)
    2f7a:	6248                	c.flw	fa0,4(a2)
    2f7c:	00472007          	flw	ft0,4(a4)
    2f80:	1046f8d3          	fmul.s	fa7,fa3,ft4
    2f84:	00a67153          	fadd.s	ft2,fa2,fa0
    2f88:	0005fe53          	fadd.s	ft8,fa1,ft0
    2f8c:	08a67553          	fsub.s	fa0,fa2,fa0
    2f90:	0805f053          	fsub.s	ft0,fa1,ft0
    2f94:	09c175d3          	fsub.s	fa1,ft2,ft8
    2f98:	08f57653          	fsub.s	fa2,fa0,fa5
    2f9c:	000770d3          	fadd.s	ft1,fa4,ft0
    2fa0:	00a7f7d3          	fadd.s	fa5,fa5,fa0
    2fa4:	08077753          	fsub.s	fa4,fa4,ft0
    2fa8:	1075ffd3          	fmul.s	ft11,fa1,ft7
    2fac:	1076f6d3          	fmul.s	fa3,fa3,ft7
    2fb0:	1045f5d3          	fmul.s	fa1,fa1,ft4
    2fb4:	1050f053          	fmul.s	ft0,ft1,ft5
    2fb8:	11067f53          	fmul.s	ft10,fa2,fa6
    2fbc:	1100f0d3          	fmul.s	ft1,ft1,fa6
    2fc0:	10567653          	fmul.s	fa2,fa2,ft5
    2fc4:	10377553          	fmul.s	fa0,fa4,ft3
    2fc8:	1067fed3          	fmul.s	ft9,fa5,ft6
    2fcc:	10677753          	fmul.s	fa4,fa4,ft6
    2fd0:	1037f7d3          	fmul.s	fa5,fa5,ft3
    2fd4:	01c17153          	fadd.s	ft2,ft2,ft8
    2fd8:	01f8f8d3          	fadd.s	fa7,fa7,ft11
    2fdc:	08d5f6d3          	fsub.s	fa3,fa1,fa3
    2fe0:	0027a227          	fsw	ft2,4(a5)
    2fe4:	01e07053          	fadd.s	ft0,ft0,ft10
    2fe8:	0116a027          	fsw	fa7,0(a3)
    2fec:	08167653          	fsub.s	fa2,fa2,ft1
    2ff0:	e2d4                	c.fsw	fa3,4(a3)
    2ff2:	01d57553          	fadd.s	fa0,fa0,ft9
    2ff6:	00062027          	fsw	ft0,0(a2)
    2ffa:	08e7f7d3          	fsub.s	fa5,fa5,fa4
    2ffe:	e250                	c.fsw	fa2,4(a2)
    3000:	97ae                	c.add	a5,a1
    3002:	e308                	c.fsw	fa0,0(a4)
    3004:	962e                	c.add	a2,a1
    3006:	e35c                	c.fsw	fa5,4(a4)
    3008:	96ae                	c.add	a3,a1
    300a:	972e                	c.add	a4,a1
    300c:	f40512e3          	bnez	a0,2f50 <riscv_dsp_cfft_rd4_f32+0x438>
    3010:	00880813          	addi	a6,a6,8
    3014:	ed0f94e3          	bne	t6,a6,2edc <riscv_dsp_cfft_rd4_f32+0x3c4>
    3018:	1a7d                	c.addi	s4,-1
    301a:	0e8a                	c.slli	t4,0x2
    301c:	e00a1ae3          	bnez	s4,2e30 <riscv_dsp_cfft_rd4_f32+0x318>
    3020:	46a1                	c.li	a3,8
    3022:	017696b3          	sll	a3,a3,s7
    3026:	00d28733          	add	a4,t0,a3
    302a:	8796                	c.mv	a5,t0
    302c:	08e28263          	beq	t0,a4,30b0 <riscv_dsp_cfft_rd4_f32+0x598>
    3030:	0107a087          	flw	ft1,16(a5)
    3034:	6f8c                	c.flw	fa1,24(a5)
    3036:	6398                	c.flw	fa4,0(a5)
    3038:	679c                	c.flw	fa5,8(a5)
    303a:	0147a007          	flw	ft0,20(a5)
    303e:	00177553          	fadd.s	fa0,fa4,ft1
    3042:	01c7a107          	flw	ft2,28(a5)
    3046:	08177753          	fsub.s	fa4,fa4,ft1
    304a:	63d4                	c.flw	fa3,4(a5)
    304c:	00b7f0d3          	fadd.s	ft1,fa5,fa1
    3050:	67d0                	c.flw	fa2,12(a5)
    3052:	08b7f7d3          	fsub.s	fa5,fa5,fa1
    3056:	02078793          	addi	a5,a5,32
    305a:	0006f5d3          	fadd.s	fa1,fa3,ft0
    305e:	001571d3          	fadd.s	ft3,fa0,ft1
    3062:	0806f6d3          	fsub.s	fa3,fa3,ft0
    3066:	08157553          	fsub.s	fa0,fa0,ft1
    306a:	fe37a027          	fsw	ft3,-32(a5)
    306e:	00267053          	fadd.s	ft0,fa2,ft2
    3072:	08267653          	fsub.s	fa2,fa2,ft2
    3076:	fea7a427          	fsw	fa0,-24(a5)
    307a:	08f6f553          	fsub.s	fa0,fa3,fa5
    307e:	0005f153          	fadd.s	ft2,fa1,ft0
    3082:	00d7f7d3          	fadd.s	fa5,fa5,fa3
    3086:	fea7aa27          	fsw	fa0,-12(a5)
    308a:	0805f5d3          	fsub.s	fa1,fa1,ft0
    308e:	fe27a227          	fsw	ft2,-28(a5)
    3092:	00c77053          	fadd.s	ft0,fa4,fa2
    3096:	fef7ae27          	fsw	fa5,-4(a5)
    309a:	08c77753          	fsub.s	fa4,fa4,fa2
    309e:	feb7a627          	fsw	fa1,-20(a5)
    30a2:	fe07a827          	fsw	ft0,-16(a5)
    30a6:	fee7ac27          	fsw	fa4,-8(a5)
    30aa:	f8f713e3          	bne	a4,a5,3030 <riscv_dsp_cfft_rd4_f32+0x518>
    30ae:	0001                	c.nop
    30b0:	000ca603          	lw	a2,0(s9)
    30b4:	0082a783          	lw	a5,8(t0)
    30b8:	0f32875b          	lea.d	a4,t0,s3
    30bc:	00c2a423          	sw	a2,8(t0)
    30c0:	16f1                	c.addi	a3,-4
    30c2:	00fca023          	sw	a5,0(s9)
    30c6:	00d28833          	add	a6,t0,a3
    30ca:	435c                	c.lw	a5,4(a4)
    30cc:	002ada93          	srli	s5,s5,0x2
    30d0:	00c2a303          	lw	t1,12(t0)
    30d4:	0159c8b3          	xor	a7,s3,s5
    30d8:	00f2a623          	sw	a5,12(t0)
    30dc:	01028613          	addi	a2,t0,16
    30e0:	fdc80513          	addi	a0,a6,-36
    30e4:	87ce                	c.mv	a5,s3
    30e6:	4591                	c.li	a1,4
    30e8:	fffb8b93          	addi	s7,s7,-1
    30ec:	00672223          	sw	t1,4(a4)
    30f0:	00f8c7b3          	xor	a5,a7,a5
    30f4:	00faf733          	and	a4,s5,a5
    30f8:	eb01                	c.bnez	a4,3108 <riscv_dsp_cfft_rd4_f32+0x5f0>
    30fa:	8756                	c.mv	a4,s5
    30fc:	8305                	c.srli	a4,0x1
    30fe:	8fb9                	c.xor	a5,a4
    3100:	00f776b3          	and	a3,a4,a5
    3104:	fe068ce3          	beqz	a3,30fc <riscv_dsp_cfft_rd4_f32+0x5e4>
    3108:	ffe58713          	addi	a4,a1,-2
    310c:	04f77863          	bgeu	a4,a5,315c <riscv_dsp_cfft_rd4_f32+0x644>
    3110:	0ef2875b          	lea.d	a4,t0,a5
    3114:	00072e03          	lw	t3,0(a4)
    3118:	00062303          	lw	t1,0(a2)
    311c:	01c62023          	sw	t3,0(a2)
    3120:	00672023          	sw	t1,0(a4)
    3124:	86ba                	c.mv	a3,a4
    3126:	00472303          	lw	t1,4(a4)
    312a:	00462e03          	lw	t3,4(a2)
    312e:	40f00733          	neg	a4,a5
    3132:	00662223          	sw	t1,4(a2)
    3136:	01c6a223          	sw	t3,4(a3)
    313a:	0ee8035b          	lea.d	t1,a6,a4
    313e:	00032e03          	lw	t3,0(t1)
    3142:	4954                	c.lw	a3,20(a0)
    3144:	01c52a23          	sw	t3,20(a0)
    3148:	00d32023          	sw	a3,0(t1)
    314c:	871a                	c.mv	a4,t1
    314e:	4914                	c.lw	a3,16(a0)
    3150:	ffc32303          	lw	t1,-4(t1)
    3154:	00652823          	sw	t1,16(a0)
    3158:	fed72e23          	sw	a3,-4(a4)
    315c:	97ce                	c.add	a5,s3
    315e:	0ef2875b          	lea.d	a4,t0,a5
    3162:	00072303          	lw	t1,0(a4)
    3166:	4614                	c.lw	a3,8(a2)
    3168:	00662423          	sw	t1,8(a2)
    316c:	c314                	c.sw	a3,0(a4)
    316e:	87ba                	c.mv	a5,a4
    3170:	4354                	c.lw	a3,4(a4)
    3172:	4658                	c.lw	a4,12(a2)
    3174:	c654                	c.sw	a3,12(a2)
    3176:	c3d8                	c.sw	a4,4(a5)
    3178:	1935f863          	bgeu	a1,s3,3308 <riscv_dsp_cfft_rd4_f32+0x7f0>
    317c:	e77587ff          	bitrev	a5,a1,s7
    3180:	04f5f863          	bgeu	a1,a5,31d0 <riscv_dsp_cfft_rd4_f32+0x6b8>
    3184:	0ef2875b          	lea.d	a4,t0,a5
    3188:	00072e03          	lw	t3,0(a4)
    318c:	01062303          	lw	t1,16(a2)
    3190:	01c62823          	sw	t3,16(a2)
    3194:	00672023          	sw	t1,0(a4)
    3198:	86ba                	c.mv	a3,a4
    319a:	00472303          	lw	t1,4(a4)
    319e:	01462e03          	lw	t3,20(a2)
    31a2:	40f00733          	neg	a4,a5
    31a6:	00662a23          	sw	t1,20(a2)
    31aa:	01c6a223          	sw	t3,4(a3)
    31ae:	0ee8035b          	lea.d	t1,a6,a4
    31b2:	00032e03          	lw	t3,0(t1)
    31b6:	4154                	c.lw	a3,4(a0)
    31b8:	01c52223          	sw	t3,4(a0)
    31bc:	00d32023          	sw	a3,0(t1)
    31c0:	871a                	c.mv	a4,t1
    31c2:	4114                	c.lw	a3,0(a0)
    31c4:	ffc32303          	lw	t1,-4(t1)
    31c8:	00652023          	sw	t1,0(a0)
    31cc:	fed72e23          	sw	a3,-4(a4)
    31d0:	97ce                	c.add	a5,s3
    31d2:	0ef286db          	lea.d	a3,t0,a5
    31d6:	0006ae03          	lw	t3,0(a3)
    31da:	01862303          	lw	t1,24(a2)
    31de:	01c62c23          	sw	t3,24(a2)
    31e2:	0066a023          	sw	t1,0(a3)
    31e6:	8736                	c.mv	a4,a3
    31e8:	0046a303          	lw	t1,4(a3)
    31ec:	4e54                	c.lw	a3,28(a2)
    31ee:	00662e23          	sw	t1,28(a2)
    31f2:	1501                	c.addi	a0,-32
    31f4:	0591                	c.addi	a1,4
    31f6:	02060613          	addi	a2,a2,32
    31fa:	c354                	c.sw	a3,4(a4)
    31fc:	ef5ff06f          	j	30f0 <riscv_dsp_cfft_rd4_f32+0x5d8>
    3200:	f0070693          	addi	a3,a4,-256
    3204:	40de0633          	sub	a2,t3,a3
    3208:	06c05863          	blez	a2,3278 <riscv_dsp_cfft_rd4_f32+0x760>
    320c:	0cc8865b          	lea.w	a2,a7,a2
    3210:	00062207          	flw	ft4,0(a2)
    3214:	006787b3          	add	a5,a5,t1
    3218:	01e797b3          	sll	a5,a5,t5
    321c:	0cd886db          	lea.w	a3,a7,a3
    3220:	40fe0733          	sub	a4,t3,a5
    3224:	0006a387          	flw	ft7,0(a3)
    3228:	20421253          	fneg.s	ft4,ft4
    322c:	d0e040e3          	bgtz	a4,2f2c <riscv_dsp_cfft_rd4_f32+0x414>
    3230:	f0078713          	addi	a4,a5,-256
    3234:	40ee06b3          	sub	a3,t3,a4
    3238:	06d05863          	blez	a3,32a8 <riscv_dsp_cfft_rd4_f32+0x790>
    323c:	0cd886db          	lea.w	a3,a7,a3
    3240:	0006a187          	flw	ft3,0(a3)
    3244:	0ce8875b          	lea.w	a4,a7,a4
    3248:	00072307          	flw	ft6,0(a4)
    324c:	203191d3          	fneg.s	ft3,ft3
    3250:	cedff06f          	j	2f3c <riscv_dsp_cfft_rd4_f32+0x424>
    3254:	f0078713          	addi	a4,a5,-256
    3258:	40ee06b3          	sub	a3,t3,a4
    325c:	06d05e63          	blez	a3,32d8 <riscv_dsp_cfft_rd4_f32+0x7c0>
    3260:	0cd886db          	lea.w	a3,a7,a3
    3264:	0006a287          	flw	ft5,0(a3)
    3268:	0ce8875b          	lea.w	a4,a7,a4
    326c:	00072807          	flw	fa6,0(a4)
    3270:	205292d3          	fneg.s	ft5,ft5
    3274:	c89ff06f          	j	2efc <riscv_dsp_cfft_rd4_f32+0x3e4>
    3278:	e0070713          	addi	a4,a4,-512
    327c:	0ce886db          	lea.w	a3,a7,a4
    3280:	0006a387          	flw	ft7,0(a3)
    3284:	40ee0733          	sub	a4,t3,a4
    3288:	0ce886db          	lea.w	a3,a7,a4
    328c:	0006a207          	flw	ft4,0(a3)
    3290:	207393d3          	fneg.s	ft7,ft7
    3294:	c8e054e3          	blez	a4,2f1c <riscv_dsp_cfft_rd4_f32+0x404>
    3298:	204217d3          	fneg.s	fa5,ft4
    329c:	20738253          	fmv.s	ft4,ft7
    32a0:	20f783d3          	fmv.s	ft7,fa5
    32a4:	c79ff06f          	j	2f1c <riscv_dsp_cfft_rd4_f32+0x404>
    32a8:	e0078793          	addi	a5,a5,-512
    32ac:	0cf8875b          	lea.w	a4,a7,a5
    32b0:	00072307          	flw	ft6,0(a4)
    32b4:	40fe07b3          	sub	a5,t3,a5
    32b8:	0cf8875b          	lea.w	a4,a7,a5
    32bc:	00072187          	flw	ft3,0(a4)
    32c0:	20631353          	fneg.s	ft6,ft6
    32c4:	c6f05ce3          	blez	a5,2f3c <riscv_dsp_cfft_rd4_f32+0x424>
    32c8:	203197d3          	fneg.s	fa5,ft3
    32cc:	206301d3          	fmv.s	ft3,ft6
    32d0:	20f78353          	fmv.s	ft6,fa5
    32d4:	c69ff06f          	j	2f3c <riscv_dsp_cfft_rd4_f32+0x424>
    32d8:	e0078793          	addi	a5,a5,-512
    32dc:	0cf8875b          	lea.w	a4,a7,a5
    32e0:	00072807          	flw	fa6,0(a4)
    32e4:	40fe07b3          	sub	a5,t3,a5
    32e8:	0cf8875b          	lea.w	a4,a7,a5
    32ec:	00072287          	flw	ft5,0(a4)
    32f0:	21081853          	fneg.s	fa6,fa6
    32f4:	c0f054e3          	blez	a5,2efc <riscv_dsp_cfft_rd4_f32+0x3e4>
    32f8:	205297d3          	fneg.s	fa5,ft5
    32fc:	210802d3          	fmv.s	ft5,fa6
    3300:	20f78853          	fmv.s	fa6,fa5
    3304:	bf9ff06f          	j	2efc <riscv_dsp_cfft_rd4_f32+0x3e4>
    3308:	5432                	c.lwsp	s0,44(sp)
    330a:	54a2                	c.lwsp	s1,40(sp)
    330c:	5912                	c.lwsp	s2,36(sp)
    330e:	5982                	c.lwsp	s3,32(sp)
    3310:	4a72                	c.lwsp	s4,28(sp)
    3312:	4ae2                	c.lwsp	s5,24(sp)
    3314:	4b52                	c.lwsp	s6,20(sp)
    3316:	4bc2                	c.lwsp	s7,16(sp)
    3318:	4c32                	c.lwsp	s8,12(sp)
    331a:	4ca2                	c.lwsp	s9,8(sp)
    331c:	4501                	c.li	a0,0
    331e:	6145                	c.addi16sp	sp,48
    3320:	8082                	c.jr	ra
    3322:	0001                	c.nop

00003324 <riscv_dsp_cfft_rd4_q15>:
    3324:	715d                	c.addi16sp	sp,-80
    3326:	4785                	c.li	a5,1
    3328:	d26a                	c.swsp	s10,36(sp)
    332a:	00b79d33          	sll	s10,a5,a1
    332e:	ffed7693          	andi	a3,s10,-2
    3332:	c4a6                	c.swsp	s1,72(sp)
    3334:	0ad504db          	lea.h	s1,a0,a3
    3338:	c6a2                	c.swsp	s0,76(sp)
    333a:	00d50f33          	add	t5,a0,a3
    333e:	842a                	c.mv	s0,a0
    3340:	00d48833          	add	a6,s1,a3
    3344:	401c                	c.lw	a5,0(s0)
    3346:	000f2703          	lw	a4,0(t5)
    334a:	ca2e                	c.swsp	a1,20(sp)
    334c:	c22a                	c.swsp	a0,4(sp)
    334e:	00082583          	lw	a1,0(a6)
    3352:	4088                	c.lw	a0,0(s1)
    3354:	7017077f          	srai16	a4,a4,1
    3358:	701787ff          	srai16	a5,a5,1
    335c:	7015057f          	srai16	a0,a0,1
    3360:	701585ff          	srai16	a1,a1,1
    3364:	00a7867f          	radd16	a2,a5,a0
    3368:	00b708ff          	radd16	a7,a4,a1
    336c:	c2ca                	c.swsp	s2,68(sp)
    336e:	c0ce                	c.swsp	s3,64(sp)
    3370:	de52                	c.swsp	s4,60(sp)
    3372:	dc56                	c.swsp	s5,56(sp)
    3374:	da5a                	c.swsp	s6,52(sp)
    3376:	d85e                	c.swsp	s7,48(sp)
    3378:	d662                	c.swsp	s8,44(sp)
    337a:	d466                	c.swsp	s9,40(sp)
    337c:	d06e                	c.swsp	s11,32(sp)
    337e:	0116037f          	radd16	t1,a2,a7
    3382:	00642023          	sw	t1,0(s0)
    3386:	02a787ff          	rsub16	a5,a5,a0
    338a:	02b7077f          	rsub16	a4,a4,a1
    338e:	0316067f          	rsub16	a2,a2,a7
    3392:	00cf2023          	sw	a2,0(t5)
    3396:	06e7867f          	rcrsa16	a2,a5,a4
    339a:	c090                	c.sw	a2,0(s1)
    339c:	04e787ff          	rcras16	a5,a5,a4
    33a0:	0411                	c.addi	s0,4
    33a2:	ce26                	c.swsp	s1,28(sp)
    33a4:	001d5493          	srli	s1,s10,0x1
    33a8:	cc6a                	c.swsp	s10,24(sp)
    33aa:	c622                	c.swsp	s0,12(sp)
    33ac:	00f82023          	sw	a5,0(a6)
    33b0:	c426                	c.swsp	s1,8(sp)
    33b2:	228f0b63          	beq	t5,s0,35e8 <riscv_dsp_cfft_rd4_q15+0x2c4>
    33b6:	8622                	c.mv	a2,s0
    33b8:	4412                	c.lwsp	s0,4(sp)
    33ba:	4799                	c.li	a5,6
    33bc:	8822                	c.mv	a6,s0
    33be:	c4f4987f          	maddr32	a6,s1,a5
    33c2:	00468893          	addi	a7,a3,4
    33c6:	44d2                	c.lwsp	s1,20(sp)
    33c8:	0689                	c.addi	a3,2
    33ca:	4e29                	c.li	t3,10
    33cc:	0ad4055b          	lea.h	a0,s0,a3
    33d0:	409e0e33          	sub	t3,t3,s1
    33d4:	98a2                	c.add	a7,s0
    33d6:	0811                	c.addi	a6,4
    33d8:	4e8d                	c.li	t4,3
    33da:	4301                	c.li	t1,0
    33dc:	0200168b          	addigp	a3,32 # 80820 <riscv_dsp_cos_table_q15_1024+0x4>
    33e0:	10000593          	li	a1,256
    33e4:	0b00006f          	j	3494 <riscv_dsp_cfft_rd4_q15+0x170>
    33e8:	0a5682db          	lea.h	t0,a3,t0
    33ec:	0a9684db          	lea.h	s1,a3,s1
    33f0:	00029403          	lh	s0,0(t0)
    33f4:	00049283          	lh	t0,0(s1)
    33f8:	0e8292ff          	pkbb16	t0,t0,s0
    33fc:	385713ff          	kmda	t2,a4,t0
    3400:	7857177f          	smxds	a4,a4,t0
    3404:	01075713          	srli	a4,a4,0x10
    3408:	0103d293          	srli	t0,t2,0x10
    340c:	0e57177f          	pkbb16	a4,a4,t0
    3410:	01c312b3          	sll	t0,t1,t3
    3414:	00e8a023          	sw	a4,0(a7)
    3418:	405583b3          	sub	t2,a1,t0
    341c:	17f7877f          	kcrsa16	a4,a5,t6
    3420:	15f787ff          	kcras16	a5,a5,t6
    3424:	10705663          	blez	t2,3530 <riscv_dsp_cfft_rd4_q15+0x20c>
    3428:	0a5682db          	lea.h	t0,a3,t0
    342c:	0a7683db          	lea.h	t2,a3,t2
    3430:	00029403          	lh	s0,0(t0)
    3434:	00039f83          	lh	t6,0(t2)
    3438:	0e8f9fff          	pkbb16	t6,t6,s0
    343c:	39f712ff          	kmda	t0,a4,t6
    3440:	79f7177f          	smxds	a4,a4,t6
    3444:	8341                	c.srli	a4,0x10
    3446:	0102df93          	srli	t6,t0,0x10
    344a:	0ff7177f          	pkbb16	a4,a4,t6
    344e:	01ce9fb3          	sll	t6,t4,t3
    3452:	41f582b3          	sub	t0,a1,t6
    3456:	c118                	c.sw	a4,0(a0)
    3458:	0a505863          	blez	t0,3508 <riscv_dsp_cfft_rd4_q15+0x1e4>
    345c:	0bf68fdb          	lea.h	t6,a3,t6
    3460:	0a5682db          	lea.h	t0,a3,t0
    3464:	000f9383          	lh	t2,0(t6)
    3468:	00029703          	lh	a4,0(t0)
    346c:	0e77177f          	pkbb16	a4,a4,t2
    3470:	38e79fff          	kmda	t6,a5,a4
    3474:	78e797ff          	smxds	a5,a5,a4
    3478:	83c1                	c.srli	a5,0x10
    347a:	010fd713          	srli	a4,t6,0x10
    347e:	0ee797ff          	pkbb16	a5,a5,a4
    3482:	00f82023          	sw	a5,0(a6)
    3486:	0611                	c.addi	a2,4
    3488:	0891                	c.addi	a7,4
    348a:	0511                	c.addi	a0,4
    348c:	0811                	c.addi	a6,4
    348e:	0e8d                	c.addi	t4,3
    3490:	14cf0c63          	beq	t5,a2,35e8 <riscv_dsp_cfft_rd4_q15+0x2c4>
    3494:	0008a403          	lw	s0,0(a7)
    3498:	00052383          	lw	t2,0(a0)
    349c:	00082f83          	lw	t6,0(a6)
    34a0:	421c                	c.lw	a5,0(a2)
    34a2:	7014047f          	srai16	s0,s0,1
    34a6:	701383ff          	srai16	t2,t2,1
    34aa:	701787ff          	srai16	a5,a5,1
    34ae:	701f8fff          	srai16	t6,t6,1
    34b2:	0305                	c.addi	t1,1
    34b4:	0077897f          	radd16	s2,a5,t2
    34b8:	01f4077f          	radd16	a4,s0,t6
    34bc:	00131293          	slli	t0,t1,0x1
    34c0:	00e909ff          	radd16	s3,s2,a4
    34c4:	01c292b3          	sll	t0,t0,t3
    34c8:	405584b3          	sub	s1,a1,t0
    34cc:	01362023          	sw	s3,0(a2)
    34d0:	027787ff          	rsub16	a5,a5,t2
    34d4:	03f40fff          	rsub16	t6,s0,t6
    34d8:	12e9077f          	ksub16	a4,s2,a4
    34dc:	f09046e3          	bgtz	s1,33e8 <riscv_dsp_cfft_rd4_q15+0xc4>
    34e0:	f0028393          	addi	t2,t0,-256
    34e4:	40758433          	sub	s0,a1,t2
    34e8:	06805863          	blez	s0,3558 <riscv_dsp_cfft_rd4_q15+0x234>
    34ec:	0a86845b          	lea.h	s0,a3,s0
    34f0:	00045403          	lhu	s0,0(s0)
    34f4:	0a7683db          	lea.h	t2,a3,t2
    34f8:	40800433          	neg	s0,s0
    34fc:	00039283          	lh	t0,0(t2)
    3500:	3c04345b          	bfos	s0,s0,15,0
    3504:	ef5ff06f          	j	33f8 <riscv_dsp_cfft_rd4_q15+0xd4>
    3508:	f00f8713          	addi	a4,t6,-256
    350c:	40e582b3          	sub	t0,a1,a4
    3510:	06505c63          	blez	t0,3588 <riscv_dsp_cfft_rd4_q15+0x264>
    3514:	0a5682db          	lea.h	t0,a3,t0
    3518:	0002d383          	lhu	t2,0(t0)
    351c:	0ae6875b          	lea.h	a4,a3,a4
    3520:	407003b3          	neg	t2,t2
    3524:	00071703          	lh	a4,0(a4)
    3528:	3c03b3db          	bfos	t2,t2,15,0
    352c:	f41ff06f          	j	346c <riscv_dsp_cfft_rd4_q15+0x148>
    3530:	f0028f93          	addi	t6,t0,-256
    3534:	41f583b3          	sub	t2,a1,t6
    3538:	08705063          	blez	t2,35b8 <riscv_dsp_cfft_rd4_q15+0x294>
    353c:	0a7683db          	lea.h	t2,a3,t2
    3540:	0003d403          	lhu	s0,0(t2)
    3544:	0bf68fdb          	lea.h	t6,a3,t6
    3548:	40800433          	neg	s0,s0
    354c:	000f9f83          	lh	t6,0(t6)
    3550:	3c04345b          	bfos	s0,s0,15,0
    3554:	ee5ff06f          	j	3438 <riscv_dsp_cfft_rd4_q15+0x114>
    3558:	e0028493          	addi	s1,t0,-512
    355c:	0a9682db          	lea.h	t0,a3,s1
    3560:	0002d283          	lhu	t0,0(t0)
    3564:	409584b3          	sub	s1,a1,s1
    3568:	0a96845b          	lea.h	s0,a3,s1
    356c:	405003b3          	neg	t2,t0
    3570:	00041403          	lh	s0,0(s0)
    3574:	3c03b2db          	bfos	t0,t2,15,0
    3578:	e89050e3          	blez	s1,33f8 <riscv_dsp_cfft_rd4_q15+0xd4>
    357c:	408003b3          	neg	t2,s0
    3580:	8416                	c.mv	s0,t0
    3582:	3c03b2db          	bfos	t0,t2,15,0
    3586:	bd8d                	c.j	33f8 <riscv_dsp_cfft_rd4_q15+0xd4>
    3588:	e00f8f93          	addi	t6,t6,-512
    358c:	0bf6875b          	lea.h	a4,a3,t6
    3590:	00075703          	lhu	a4,0(a4)
    3594:	41f582b3          	sub	t0,a1,t6
    3598:	0a5683db          	lea.h	t2,a3,t0
    359c:	40e00fb3          	neg	t6,a4
    35a0:	00039383          	lh	t2,0(t2)
    35a4:	3c0fb75b          	bfos	a4,t6,15,0
    35a8:	ec5052e3          	blez	t0,346c <riscv_dsp_cfft_rd4_q15+0x148>
    35ac:	40700fb3          	neg	t6,t2
    35b0:	83ba                	c.mv	t2,a4
    35b2:	3c0fb75b          	bfos	a4,t6,15,0
    35b6:	bd5d                	c.j	346c <riscv_dsp_cfft_rd4_q15+0x148>
    35b8:	e0028293          	addi	t0,t0,-512
    35bc:	0a568fdb          	lea.h	t6,a3,t0
    35c0:	000fdf83          	lhu	t6,0(t6)
    35c4:	405583b3          	sub	t2,a1,t0
    35c8:	0a76845b          	lea.h	s0,a3,t2
    35cc:	41f002b3          	neg	t0,t6
    35d0:	00041403          	lh	s0,0(s0)
    35d4:	3c02bfdb          	bfos	t6,t0,15,0
    35d8:	e67050e3          	blez	t2,3438 <riscv_dsp_cfft_rd4_q15+0x114>
    35dc:	408002b3          	neg	t0,s0
    35e0:	847e                	c.mv	s0,t6
    35e2:	3c02bfdb          	bfos	t6,t0,15,0
    35e6:	bd89                	c.j	3438 <riscv_dsp_cfft_rd4_q15+0x114>
    35e8:	4452                	c.lwsp	s0,20(sp)
    35ea:	4d22                	c.lwsp	s10,8(sp)
    35ec:	00145793          	srli	a5,s0,0x1
    35f0:	ffe78493          	addi	s1,a5,-2
    35f4:	c826                	c.swsp	s1,16(sp)
    35f6:	4b11                	c.li	s6,4
    35f8:	1a048863          	beqz	s1,37a8 <riscv_dsp_cfft_rd4_q15+0x484>
    35fc:	00a00b93          	li	s7,10
    3600:	408b8bb3          	sub	s7,s7,s0
    3604:	0200198b          	addigp	s3,32 # 80820 <riscv_dsp_cos_table_q15_1024+0x4>
    3608:	10000a93          	li	s5,256
    360c:	4412                	c.lwsp	s0,4(sp)
    360e:	002d5d13          	srli	s10,s10,0x2
    3612:	001d1c93          	slli	s9,s10,0x1
    3616:	0ba40c5b          	lea.h	s8,s0,s10
    361a:	040b0d63          	beqz	s6,3674 <riscv_dsp_cfft_rd4_q15+0x350>
    361e:	8622                	c.mv	a2,s0
    3620:	003d1893          	slli	a7,s10,0x3
    3624:	019c0833          	add	a6,s8,s9
    3628:	8562                	c.mv	a0,s8
    362a:	0dac05db          	lea.w	a1,s8,s10
    362e:	835a                	c.mv	t1,s6
    3630:	4198                	c.lw	a4,0(a1)
    3632:	4114                	c.lw	a3,0(a0)
    3634:	421c                	c.lw	a5,0(a2)
    3636:	00082e83          	lw	t4,0(a6)
    363a:	00e68e7f          	radd16	t3,a3,a4
    363e:	02e686ff          	rsub16	a3,a3,a4
    3642:	01d7877f          	radd16	a4,a5,t4
    3646:	01c70f7f          	radd16	t5,a4,t3
    364a:	01e62023          	sw	t5,0(a2)
    364e:	03d787ff          	rsub16	a5,a5,t4
    3652:	03c7077f          	rsub16	a4,a4,t3
    3656:	c118                	c.sw	a4,0(a0)
    3658:	06d7877f          	rcrsa16	a4,a5,a3
    365c:	00e82023          	sw	a4,0(a6)
    3660:	04d787ff          	rcras16	a5,a5,a3
    3664:	c19c                	c.sw	a5,0(a1)
    3666:	137d                	c.addi	t1,-1
    3668:	9646                	c.add	a2,a7
    366a:	9846                	c.add	a6,a7
    366c:	9546                	c.add	a0,a7
    366e:	95c6                	c.add	a1,a7
    3670:	fc0310e3          	bnez	t1,3630 <riscv_dsp_cfft_rd4_q15+0x30c>
    3674:	4432                	c.lwsp	s0,12(sp)
    3676:	13840363          	beq	s0,s8,379c <riscv_dsp_cfft_rd4_q15+0x478>
    367a:	8922                	c.mv	s2,s0
    367c:	4419                	c.li	s0,6
    367e:	028d0db3          	mul	s11,s10,s0
    3682:	003d1293          	slli	t0,s10,0x3
    3686:	002d1413          	slli	s0,s10,0x2
    368a:	4a01                	c.li	s4,0
    368c:	00812023          	sw	s0,0(sp)
    3690:	016a0a33          	add	s4,s4,s6
    3694:	017a17b3          	sll	a5,s4,s7
    3698:	40fa8733          	sub	a4,s5,a5
    369c:	28e05e63          	blez	a4,3938 <riscv_dsp_cfft_rd4_q15+0x614>
    36a0:	0af987db          	lea.h	a5,s3,a5
    36a4:	0ae9875b          	lea.h	a4,s3,a4
    36a8:	00079603          	lh	a2,0(a5)
    36ac:	00071683          	lh	a3,0(a4)
    36b0:	001a1793          	slli	a5,s4,0x1
    36b4:	01779733          	sll	a4,a5,s7
    36b8:	40ea85b3          	sub	a1,s5,a4
    36bc:	22b05063          	blez	a1,38dc <riscv_dsp_cfft_rd4_q15+0x5b8>
    36c0:	0ae9875b          	lea.h	a4,s3,a4
    36c4:	0ab9855b          	lea.h	a0,s3,a1
    36c8:	00071583          	lh	a1,0(a4)
    36cc:	00051703          	lh	a4,0(a0)
    36d0:	014787b3          	add	a5,a5,s4
    36d4:	017797b3          	sll	a5,a5,s7
    36d8:	40fa8533          	sub	a0,s5,a5
    36dc:	22a05a63          	blez	a0,3910 <riscv_dsp_cfft_rd4_q15+0x5ec>
    36e0:	0af987db          	lea.h	a5,s3,a5
    36e4:	0aa9855b          	lea.h	a0,s3,a0
    36e8:	00079e03          	lh	t3,0(a5)
    36ec:	00051503          	lh	a0,0(a0)
    36f0:	0ec6987f          	pkbb16	a6,a3,a2
    36f4:	0eb718ff          	pkbb16	a7,a4,a1
    36f8:	0fc5137f          	pkbb16	t1,a0,t3
    36fc:	080b0c63          	beqz	s6,3794 <riscv_dsp_cfft_rd4_q15+0x470>
    3700:	4402                	c.lwsp	s0,0(sp)
    3702:	012c8fb3          	add	t6,s9,s2
    3706:	00890f33          	add	t5,s2,s0
    370a:	01b90eb3          	add	t4,s2,s11
    370e:	8e4a                	c.mv	t3,s2
    3710:	01600433          	add	s0,zero,s6
    3714:	000ea683          	lw	a3,0(t4)
    3718:	000f2703          	lw	a4,0(t5)
    371c:	000fa603          	lw	a2,0(t6)
    3720:	000e2783          	lw	a5,0(t3)
    3724:	147d                	c.addi	s0,-1
    3726:	00d604ff          	radd16	s1,a2,a3
    372a:	00e7857f          	radd16	a0,a5,a4
    372e:	02d6067f          	rsub16	a2,a2,a3
    3732:	02e787ff          	rsub16	a5,a5,a4
    3736:	129506ff          	ksub16	a3,a0,s1
    373a:	16c7877f          	kcrsa16	a4,a5,a2
    373e:	391695ff          	kmda	a1,a3,a7
    3742:	14c787ff          	kcras16	a5,a5,a2
    3746:	791696ff          	smxds	a3,a3,a7
    374a:	3907167f          	kmda	a2,a4,a6
    374e:	386793ff          	kmda	t2,a5,t1
    3752:	0095057f          	radd16	a0,a0,s1
    3756:	82c1                	c.srli	a3,0x10
    3758:	81c1                	c.srli	a1,0x10
    375a:	7907177f          	smxds	a4,a4,a6
    375e:	00ae2023          	sw	a0,0(t3)
    3762:	0eb696ff          	pkbb16	a3,a3,a1
    3766:	8341                	c.srli	a4,0x10
    3768:	8241                	c.srli	a2,0x10
    376a:	786797ff          	smxds	a5,a5,t1
    376e:	00dfa023          	sw	a3,0(t6)
    3772:	0ec7177f          	pkbb16	a4,a4,a2
    3776:	83c1                	c.srli	a5,0x10
    3778:	0103d393          	srli	t2,t2,0x10
    377c:	00ef2023          	sw	a4,0(t5)
    3780:	0e7797ff          	pkbb16	a5,a5,t2
    3784:	00fea023          	sw	a5,0(t4)
    3788:	9e16                	c.add	t3,t0
    378a:	9f96                	c.add	t6,t0
    378c:	9f16                	c.add	t5,t0
    378e:	9e96                	c.add	t4,t0
    3790:	f80412e3          	bnez	s0,3714 <riscv_dsp_cfft_rd4_q15+0x3f0>
    3794:	00490913          	addi	s2,s2,4
    3798:	ef2c1ce3          	bne	s8,s2,3690 <riscv_dsp_cfft_rd4_q15+0x36c>
    379c:	4442                	c.lwsp	s0,16(sp)
    379e:	0b0a                	c.slli	s6,0x2
    37a0:	147d                	c.addi	s0,-1
    37a2:	c822                	c.swsp	s0,16(sp)
    37a4:	e60414e3          	bnez	s0,360c <riscv_dsp_cfft_rd4_q15+0x2e8>
    37a8:	4452                	c.lwsp	s0,20(sp)
    37aa:	4891                	c.li	a7,4
    37ac:	008898b3          	sll	a7,a7,s0
    37b0:	4412                	c.lwsp	s0,4(sp)
    37b2:	01140833          	add	a6,s0,a7
    37b6:	87a2                	c.mv	a5,s0
    37b8:	05040263          	beq	s0,a6,37fc <riscv_dsp_cfft_rd4_q15+0x4d8>
    37bc:	47d0                	c.lw	a2,12(a5)
    37be:	4788                	c.lw	a0,8(a5)
    37c0:	43d4                	c.lw	a3,4(a5)
    37c2:	4398                	c.lw	a4,0(a5)
    37c4:	01078793          	addi	a5,a5,16
    37c8:	00c685ff          	radd16	a1,a3,a2
    37cc:	02c686ff          	rsub16	a3,a3,a2
    37d0:	00a7067f          	radd16	a2,a4,a0
    37d4:	02a7077f          	rsub16	a4,a4,a0
    37d8:	00b6057f          	radd16	a0,a2,a1
    37dc:	02b6067f          	rsub16	a2,a2,a1
    37e0:	06d705ff          	rcrsa16	a1,a4,a3
    37e4:	04d7077f          	rcras16	a4,a4,a3
    37e8:	fea7a823          	sw	a0,-16(a5)
    37ec:	fec7aa23          	sw	a2,-12(a5)
    37f0:	feb7ac23          	sw	a1,-8(a5)
    37f4:	fee7ae23          	sw	a4,-4(a5)
    37f8:	fcf812e3          	bne	a6,a5,37bc <riscv_dsp_cfft_rd4_q15+0x498>
    37fc:	44f2                	c.lwsp	s1,28(sp)
    37fe:	4412                	c.lwsp	s0,4(sp)
    3800:	409c                	c.lw	a5,0(s1)
    3802:	45e2                	c.lwsp	a1,24(sp)
    3804:	18f9                	c.addi	a7,-2
    3806:	4058                	c.lw	a4,4(s0)
    3808:	98a2                	c.add	a7,s0
    380a:	c05c                	c.sw	a5,4(s0)
    380c:	00840613          	addi	a2,s0,8
    3810:	47a2                	c.lwsp	a5,8(sp)
    3812:	4452                	c.lwsp	s0,20(sp)
    3814:	0025d813          	srli	a6,a1,0x2
    3818:	0107c333          	xor	t1,a5,a6
    381c:	fee88513          	addi	a0,a7,-18
    3820:	4591                	c.li	a1,4
    3822:	fff40e13          	addi	t3,s0,-1
    3826:	c098                	c.sw	a4,0(s1)
    3828:	00f347b3          	xor	a5,t1,a5
    382c:	00f87733          	and	a4,a6,a5
    3830:	eb01                	c.bnez	a4,3840 <riscv_dsp_cfft_rd4_q15+0x51c>
    3832:	8742                	c.mv	a4,a6
    3834:	8305                	c.srli	a4,0x1
    3836:	8fb9                	c.xor	a5,a4
    3838:	00f776b3          	and	a3,a4,a5
    383c:	fe068ce3          	beqz	a3,3834 <riscv_dsp_cfft_rd4_q15+0x510>
    3840:	ffe58713          	addi	a4,a1,-2
    3844:	02f77863          	bgeu	a4,a5,3874 <riscv_dsp_cfft_rd4_q15+0x550>
    3848:	4412                	c.lwsp	s0,4(sp)
    384a:	00062e83          	lw	t4,0(a2)
    384e:	0cf406db          	lea.w	a3,s0,a5
    3852:	0006af03          	lw	t5,0(a3)
    3856:	40f00733          	neg	a4,a5
    385a:	01e62023          	sw	t5,0(a2)
    385e:	0ce8875b          	lea.w	a4,a7,a4
    3862:	01d6a023          	sw	t4,0(a3)
    3866:	ffe72e83          	lw	t4,-2(a4)
    386a:	4514                	c.lw	a3,8(a0)
    386c:	01d52423          	sw	t4,8(a0)
    3870:	fed72f23          	sw	a3,-2(a4)
    3874:	4422                	c.lwsp	s0,8(sp)
    3876:	4492                	c.lwsp	s1,4(sp)
    3878:	97a2                	c.add	a5,s0
    387a:	0cf487db          	lea.w	a5,s1,a5
    387e:	4394                	c.lw	a3,0(a5)
    3880:	4258                	c.lw	a4,4(a2)
    3882:	c254                	c.sw	a3,4(a2)
    3884:	c398                	c.sw	a4,0(a5)
    3886:	1685f563          	bgeu	a1,s0,39f0 <riscv_dsp_cfft_rd4_q15+0x6cc>
    388a:	e7c587ff          	bitrev	a5,a1,t3
    388e:	02f5f763          	bgeu	a1,a5,38bc <riscv_dsp_cfft_rd4_q15+0x598>
    3892:	0cf486db          	lea.w	a3,s1,a5
    3896:	0006af03          	lw	t5,0(a3)
    389a:	00862e83          	lw	t4,8(a2)
    389e:	40f00733          	neg	a4,a5
    38a2:	01e62423          	sw	t5,8(a2)
    38a6:	0ce8875b          	lea.w	a4,a7,a4
    38aa:	01d6a023          	sw	t4,0(a3)
    38ae:	ffe72e83          	lw	t4,-2(a4)
    38b2:	4114                	c.lw	a3,0(a0)
    38b4:	01d52023          	sw	t4,0(a0)
    38b8:	fed72f23          	sw	a3,-2(a4)
    38bc:	4422                	c.lwsp	s0,8(sp)
    38be:	4654                	c.lw	a3,12(a2)
    38c0:	97a2                	c.add	a5,s0
    38c2:	4412                	c.lwsp	s0,4(sp)
    38c4:	1541                	c.addi	a0,-16
    38c6:	0cf4075b          	lea.w	a4,s0,a5
    38ca:	00072e83          	lw	t4,0(a4)
    38ce:	0641                	c.addi	a2,16
    38d0:	ffd62e23          	sw	t4,-4(a2)
    38d4:	0591                	c.addi	a1,4
    38d6:	c314                	c.sw	a3,0(a4)
    38d8:	f51ff06f          	j	3828 <riscv_dsp_cfft_rd4_q15+0x504>
    38dc:	f0070513          	addi	a0,a4,-256
    38e0:	40aa85b3          	sub	a1,s5,a0
    38e4:	06b05e63          	blez	a1,3960 <riscv_dsp_cfft_rd4_q15+0x63c>
    38e8:	0ab985db          	lea.h	a1,s3,a1
    38ec:	0005d583          	lhu	a1,0(a1)
    38f0:	014787b3          	add	a5,a5,s4
    38f4:	017797b3          	sll	a5,a5,s7
    38f8:	0aa9875b          	lea.h	a4,s3,a0
    38fc:	40b005b3          	neg	a1,a1
    3900:	40fa8533          	sub	a0,s5,a5
    3904:	00071703          	lh	a4,0(a4)
    3908:	3c05b5db          	bfos	a1,a1,15,0
    390c:	dca04ae3          	bgtz	a0,36e0 <riscv_dsp_cfft_rd4_q15+0x3bc>
    3910:	f0078513          	addi	a0,a5,-256
    3914:	40aa8833          	sub	a6,s5,a0
    3918:	07005c63          	blez	a6,3990 <riscv_dsp_cfft_rd4_q15+0x66c>
    391c:	0b09885b          	lea.h	a6,s3,a6
    3920:	00085e03          	lhu	t3,0(a6)
    3924:	0aa9855b          	lea.h	a0,s3,a0
    3928:	41c00e33          	neg	t3,t3
    392c:	00051503          	lh	a0,0(a0)
    3930:	3c0e3e5b          	bfos	t3,t3,15,0
    3934:	dbdff06f          	j	36f0 <riscv_dsp_cfft_rd4_q15+0x3cc>
    3938:	f0078713          	addi	a4,a5,-256
    393c:	40ea86b3          	sub	a3,s5,a4
    3940:	08d05063          	blez	a3,39c0 <riscv_dsp_cfft_rd4_q15+0x69c>
    3944:	0ad986db          	lea.h	a3,s3,a3
    3948:	0006d603          	lhu	a2,0(a3)
    394c:	0ae9875b          	lea.h	a4,s3,a4
    3950:	40c00633          	neg	a2,a2
    3954:	00071683          	lh	a3,0(a4)
    3958:	3c06365b          	bfos	a2,a2,15,0
    395c:	d55ff06f          	j	36b0 <riscv_dsp_cfft_rd4_q15+0x38c>
    3960:	e0070713          	addi	a4,a4,-512
    3964:	0ae985db          	lea.h	a1,s3,a4
    3968:	0005d583          	lhu	a1,0(a1)
    396c:	40ea8533          	sub	a0,s5,a4
    3970:	0aa9885b          	lea.h	a6,s3,a0
    3974:	40b00733          	neg	a4,a1
    3978:	3c07375b          	bfos	a4,a4,15,0
    397c:	00081583          	lh	a1,0(a6)
    3980:	d4a058e3          	blez	a0,36d0 <riscv_dsp_cfft_rd4_q15+0x3ac>
    3984:	40b00533          	neg	a0,a1
    3988:	85ba                	c.mv	a1,a4
    398a:	3c05375b          	bfos	a4,a0,15,0
    398e:	b389                	c.j	36d0 <riscv_dsp_cfft_rd4_q15+0x3ac>
    3990:	e0078793          	addi	a5,a5,-512
    3994:	0af9855b          	lea.h	a0,s3,a5
    3998:	00055503          	lhu	a0,0(a0)
    399c:	40fa87b3          	sub	a5,s5,a5
    39a0:	0af9885b          	lea.h	a6,s3,a5
    39a4:	40a00533          	neg	a0,a0
    39a8:	00081e03          	lh	t3,0(a6)
    39ac:	3c05355b          	bfos	a0,a0,15,0
    39b0:	d4f050e3          	blez	a5,36f0 <riscv_dsp_cfft_rd4_q15+0x3cc>
    39b4:	41c007b3          	neg	a5,t3
    39b8:	8e2a                	c.mv	t3,a0
    39ba:	3c07b55b          	bfos	a0,a5,15,0
    39be:	bb0d                	c.j	36f0 <riscv_dsp_cfft_rd4_q15+0x3cc>
    39c0:	e0078793          	addi	a5,a5,-512
    39c4:	0af9875b          	lea.h	a4,s3,a5
    39c8:	00075683          	lhu	a3,0(a4)
    39cc:	40fa87b3          	sub	a5,s5,a5
    39d0:	0af9875b          	lea.h	a4,s3,a5
    39d4:	40d006b3          	neg	a3,a3
    39d8:	00071603          	lh	a2,0(a4)
    39dc:	3c06b6db          	bfos	a3,a3,15,0
    39e0:	ccf058e3          	blez	a5,36b0 <riscv_dsp_cfft_rd4_q15+0x38c>
    39e4:	40c007b3          	neg	a5,a2
    39e8:	8636                	c.mv	a2,a3
    39ea:	3c07b6db          	bfos	a3,a5,15,0
    39ee:	b1c9                	c.j	36b0 <riscv_dsp_cfft_rd4_q15+0x38c>
    39f0:	4436                	c.lwsp	s0,76(sp)
    39f2:	44a6                	c.lwsp	s1,72(sp)
    39f4:	4916                	c.lwsp	s2,68(sp)
    39f6:	4986                	c.lwsp	s3,64(sp)
    39f8:	5a72                	c.lwsp	s4,60(sp)
    39fa:	5ae2                	c.lwsp	s5,56(sp)
    39fc:	5b52                	c.lwsp	s6,52(sp)
    39fe:	5bc2                	c.lwsp	s7,48(sp)
    3a00:	5c32                	c.lwsp	s8,44(sp)
    3a02:	5ca2                	c.lwsp	s9,40(sp)
    3a04:	5d12                	c.lwsp	s10,36(sp)
    3a06:	5d82                	c.lwsp	s11,32(sp)
    3a08:	4501                	c.li	a0,0
    3a0a:	6161                	c.addi16sp	sp,80
    3a0c:	8082                	c.jr	ra
    3a0e:	0001                	c.nop

00003a10 <riscv_dsp_cmag_f32>:
    3a10:	ca65                	c.beqz	a2,3b00 <riscv_dsp_cmag_f32+0xf0>
    3a12:	00367793          	andi	a5,a2,3
    3a16:	fff60713          	addi	a4,a2,-1
    3a1a:	c7bd                	c.beqz	a5,3a88 <riscv_dsp_cmag_f32+0x78>
    3a1c:	0417d65b          	beqc	a5,1,3a68 <riscv_dsp_cmag_f32+0x58>
    3a20:	0227d25b          	beqc	a5,2,3a44 <riscv_dsp_cmag_f32+0x34>
    3a24:	611c                	c.flw	fa5,0(a0)
    3a26:	6158                	c.flw	fa4,4(a0)
    3a28:	863a                	c.mv	a2,a4
    3a2a:	10f7f053          	fmul.s	ft0,fa5,fa5
    3a2e:	0521                	c.addi	a0,8
    3a30:	10e770d3          	fmul.s	ft1,fa4,fa4
    3a34:	00458593          	addi	a1,a1,4
    3a38:	00107153          	fadd.s	ft2,ft0,ft1
    3a3c:	580171d3          	fsqrt.s	ft3,ft2
    3a40:	fe35ae27          	fsw	ft3,-4(a1)
    3a44:	00052207          	flw	ft4,0(a0)
    3a48:	00452287          	flw	ft5,4(a0)
    3a4c:	167d                	c.addi	a2,-1
    3a4e:	10427353          	fmul.s	ft6,ft4,ft4
    3a52:	0521                	c.addi	a0,8
    3a54:	1052f3d3          	fmul.s	ft7,ft5,ft5
    3a58:	00458593          	addi	a1,a1,4
    3a5c:	00737553          	fadd.s	fa0,ft6,ft7
    3a60:	580575d3          	fsqrt.s	fa1,fa0
    3a64:	feb5ae27          	fsw	fa1,-4(a1)
    3a68:	6110                	c.flw	fa2,0(a0)
    3a6a:	0591                	c.addi	a1,4
    3a6c:	167d                	c.addi	a2,-1
    3a6e:	6154                	c.flw	fa3,4(a0)
    3a70:	10c67853          	fmul.s	fa6,fa2,fa2
    3a74:	0521                	c.addi	a0,8
    3a76:	10d6f8d3          	fmul.s	fa7,fa3,fa3
    3a7a:	01187e53          	fadd.s	ft8,fa6,fa7
    3a7e:	580e7ed3          	fsqrt.s	ft9,ft8
    3a82:	ffd5ae27          	fsw	ft9,-4(a1)
    3a86:	ce3d                	c.beqz	a2,3b04 <riscv_dsp_cmag_f32+0xf4>
    3a88:	00052f07          	flw	ft10,0(a0)
    3a8c:	00452f87          	flw	ft11,4(a0)
    3a90:	00852107          	flw	ft2,8(a0)
    3a94:	00c52007          	flw	ft0,12(a0)
    3a98:	6918                	c.flw	fa4,16(a0)
    3a9a:	01452187          	flw	ft3,20(a0)
    3a9e:	6d1c                	c.flw	fa5,24(a0)
    3aa0:	11ef72d3          	fmul.s	ft5,ft10,ft10
    3aa4:	05c1                	c.addi	a1,16
    3aa6:	01c52207          	flw	ft4,28(a0)
    3aaa:	11fff0d3          	fmul.s	ft1,ft11,ft11
    3aae:	1671                	c.addi	a2,-4
    3ab0:	10217353          	fmul.s	ft6,ft2,ft2
    3ab4:	02050513          	addi	a0,a0,32
    3ab8:	100073d3          	fmul.s	ft7,ft0,ft0
    3abc:	10e77853          	fmul.s	fa6,fa4,fa4
    3ac0:	1031f553          	fmul.s	fa0,ft3,ft3
    3ac4:	10f7f8d3          	fmul.s	fa7,fa5,fa5
    3ac8:	104275d3          	fmul.s	fa1,ft4,ft4
    3acc:	0012f653          	fadd.s	fa2,ft5,ft1
    3ad0:	007376d3          	fadd.s	fa3,ft6,ft7
    3ad4:	00a87e53          	fadd.s	ft8,fa6,fa0
    3ad8:	00b8fed3          	fadd.s	ft9,fa7,fa1
    3adc:	58067f53          	fsqrt.s	ft10,fa2
    3ae0:	5806ffd3          	fsqrt.s	ft11,fa3
    3ae4:	ffe5a827          	fsw	ft10,-16(a1)
    3ae8:	580e7153          	fsqrt.s	ft2,ft8
    3aec:	fff5aa27          	fsw	ft11,-12(a1)
    3af0:	580ef053          	fsqrt.s	ft0,ft9
    3af4:	fe25ac27          	fsw	ft2,-8(a1)
    3af8:	fe05ae27          	fsw	ft0,-4(a1)
    3afc:	f80616e3          	bnez	a2,3a88 <riscv_dsp_cmag_f32+0x78>
    3b00:	00008067          	ret
    3b04:	8082                	c.jr	ra
    3b06:	0001                	c.nop

00003b08 <riscv_dsp_cmag_q15>:
    3b08:	7179                	c.addi16sp	sp,-48
    3b0a:	ce4e                	c.swsp	s3,28(sp)
    3b0c:	cc52                	c.swsp	s4,24(sp)
    3b0e:	ca56                	c.swsp	s5,20(sp)
    3b10:	4785                	c.li	a5,1
    3b12:	d606                	c.swsp	ra,44(sp)
    3b14:	d422                	c.swsp	s0,40(sp)
    3b16:	d226                	c.swsp	s1,36(sp)
    3b18:	d04a                	c.swsp	s2,32(sp)
    3b1a:	c85a                	c.swsp	s6,16(sp)
    3b1c:	c65e                	c.swsp	s7,12(sp)
    3b1e:	c462                	c.swsp	s8,8(sp)
    3b20:	89b2                	c.mv	s3,a2
    3b22:	8aaa                	c.mv	s5,a0
    3b24:	8a2e                	c.mv	s4,a1
    3b26:	04c7f963          	bgeu	a5,a2,3b78 <riscv_dsp_cmag_q15+0x70>
    3b2a:	8c32                	c.mv	s8,a2
    3b2c:	8bae                	c.mv	s7,a1
    3b2e:	8b2a                	c.mv	s6,a0
    3b30:	00100913          	li	s2,1
    3b34:	000b2503          	lw	a0,0(s6)
    3b38:	004b2403          	lw	s0,4(s6)
    3b3c:	1c79                	c.addi	s8,-2
    3b3e:	38a5157f          	kmda	a0,a0,a0
    3b42:	3884147f          	kmda	s0,s0,s0
    3b46:	8545                	c.srai	a0,0x11
    3b48:	060000ef          	jal	ra,3ba8 <riscv_dsp_sqrt_q15>
    3b4c:	84aa                	c.mv	s1,a0
    3b4e:	41145513          	srai	a0,s0,0x11
    3b52:	2899                	c.jal	3ba8 <riscv_dsp_sqrt_q15>
    3b54:	0e9517ff          	pkbb16	a5,a0,s1
    3b58:	00fba023          	sw	a5,0(s7)
    3b5c:	0b21                	c.addi	s6,8
    3b5e:	0b91                	c.addi	s7,4
    3b60:	fd896ae3          	bltu	s2,s8,3b34 <riscv_dsp_cmag_q15+0x2c>
    3b64:	ffe98793          	addi	a5,s3,-2
    3b68:	8385                	c.srli	a5,0x1
    3b6a:	0785                	c.addi	a5,1
    3b6c:	0efa8adb          	lea.d	s5,s5,a5
    3b70:	0cfa0a5b          	lea.w	s4,s4,a5
    3b74:	0019f993          	andi	s3,s3,1
    3b78:	00099e63          	bnez	s3,3b94 <riscv_dsp_cmag_q15+0x8c>
    3b7c:	50b2                	c.lwsp	ra,44(sp)
    3b7e:	5422                	c.lwsp	s0,40(sp)
    3b80:	5492                	c.lwsp	s1,36(sp)
    3b82:	5902                	c.lwsp	s2,32(sp)
    3b84:	49f2                	c.lwsp	s3,28(sp)
    3b86:	4a62                	c.lwsp	s4,24(sp)
    3b88:	4ad2                	c.lwsp	s5,20(sp)
    3b8a:	4b42                	c.lwsp	s6,16(sp)
    3b8c:	4bb2                	c.lwsp	s7,12(sp)
    3b8e:	4c22                	c.lwsp	s8,8(sp)
    3b90:	6145                	c.addi16sp	sp,48
    3b92:	8082                	c.jr	ra
    3b94:	000aa503          	lw	a0,0(s5)
    3b98:	38a5157f          	kmda	a0,a0,a0
    3b9c:	8545                	c.srai	a0,0x11
    3b9e:	2029                	c.jal	3ba8 <riscv_dsp_sqrt_q15>
    3ba0:	00aa1023          	sh	a0,0(s4)
    3ba4:	bfe1                	c.j	3b7c <riscv_dsp_cmag_q15+0x74>
    3ba6:	0001                	c.nop

00003ba8 <riscv_dsp_sqrt_q15>:
    3ba8:	0aa05063          	blez	a0,3c48 <riscv_dsp_sqrt_q15+0xa0>
    3bac:	af9505ff          	clz32	a1,a0
    3bb0:	ff058293          	addi	t0,a1,-16
    3bb4:	ffe2f313          	andi	t1,t0,-2
    3bb8:	00651733          	sll	a4,a0,t1
    3bbc:	66f9                	c.lui	a3,0x1e
    3bbe:	46f7795b          	bbs	a4,15,3c30 <riscv_dsp_sqrt_q15+0x88>
    3bc2:	7ae68793          	addi	a5,a3,1966 # 1e7ae <BIN_SIZE+0x14dd8>
    3bc6:	00171393          	slli	t2,a4,0x1
    3bca:	6611                	c.lui	a2,0x4
    3bcc:	40778833          	sub	a6,a5,t2
    3bd0:	2fa60893          	addi	a7,a2,762 # 42fa <ref__mathlib_rredf2+0x3a>
    3bd4:	03180e33          	mul	t3,a6,a7
    3bd8:	40fe5e93          	srai	t4,t3,0xf
    3bdc:	40175693          	srai	a3,a4,0x1
    3be0:	03d683b3          	mul	t2,a3,t4
    3be4:	67b1                	c.lui	a5,0xc
    3be6:	00135313          	srli	t1,t1,0x1
    3bea:	40f3d613          	srai	a2,t2,0xf
    3bee:	03d60833          	mul	a6,a2,t4
    3bf2:	40f85893          	srai	a7,a6,0xf
    3bf6:	41178e33          	sub	t3,a5,a7
    3bfa:	03de0eb3          	mul	t4,t3,t4
    3bfe:	40fedf13          	srai	t5,t4,0xf
    3c02:	03e68fb3          	mul	t6,a3,t5
    3c06:	40ffd593          	srai	a1,t6,0xf
    3c0a:	03e58533          	mul	a0,a1,t5
    3c0e:	40f55293          	srai	t0,a0,0xf
    3c12:	405786b3          	sub	a3,a5,t0
    3c16:	03e683b3          	mul	t2,a3,t5
    3c1a:	40f3d793          	srai	a5,t2,0xf
    3c1e:	02e78733          	mul	a4,a5,a4
    3c22:	40f75613          	srai	a2,a4,0xf
    3c26:	40665333          	sra	t1,a2,t1
    3c2a:	3c03355b          	bfos	a0,t1,15,0
    3c2e:	8082                	c.jr	ra
    3c30:	7ae68f13          	addi	t5,a3,1966
    3c34:	6f8d                	c.lui	t6,0x3
    3c36:	40ef05b3          	sub	a1,t5,a4
    3c3a:	f5cf8513          	addi	a0,t6,-164 # 2f5c <riscv_dsp_cfft_rd4_f32+0x444>
    3c3e:	02a582b3          	mul	t0,a1,a0
    3c42:	40f2de93          	srai	t4,t0,0xf
    3c46:	bf59                	c.j	3bdc <riscv_dsp_sqrt_q15+0x34>
    3c48:	00a03533          	snez	a0,a0
    3c4c:	40a00533          	neg	a0,a0
    3c50:	8082                	c.jr	ra
    3c52:	0001                	c.nop

00003c54 <log>:
    3c54:	715d                	c.addi16sp	sp,-80
    3c56:	87ae                	c.mv	a5,a1
    3c58:	872a                	c.mv	a4,a0
    3c5a:	4601                	c.li	a2,0
    3c5c:	c01206b7          	lui	a3,0xc0120
    3c60:	000315b7          	lui	a1,0x31
    3c64:	c0e6167f          	add64	a2,a2,a4
    3c68:	8ff58593          	addi	a1,a1,-1793 # 308ff <BIN_SIZE+0x26f29>
    3c6c:	c686                	c.swsp	ra,76(sp)
    3c6e:	c4a2                	c.swsp	s0,72(sp)
    3c70:	c2a6                	c.swsp	s1,68(sp)
    3c72:	c0ca                	c.swsp	s2,64(sp)
    3c74:	de4e                	c.swsp	s3,60(sp)
    3c76:	dc52                	c.swsp	s4,56(sp)
    3c78:	da56                	c.swsp	s5,52(sp)
    3c7a:	d85a                	c.swsp	s6,48(sp)
    3c7c:	d65e                	c.swsp	s7,44(sp)
    3c7e:	d462                	c.swsp	s8,40(sp)
    3c80:	d266                	c.swsp	s9,36(sp)
    3c82:	d06a                	c.swsp	s10,32(sp)
    3c84:	ce6e                	c.swsp	s11,28(sp)
    3c86:	18d5fd63          	bgeu	a1,a3,3e20 <log+0x1cc>
    3c8a:	0107d513          	srli	a0,a5,0x10
    3c8e:	66a1                	c.lui	a3,0x8
    3c90:	ff050613          	addi	a2,a0,-16
    3c94:	fdf68693          	addi	a3,a3,-33 # 7fdf <_RAMCODE_VMA_END+0x3d3>
    3c98:	883a                	c.mv	a6,a4
    3c9a:	88be                	c.mv	a7,a5
    3c9c:	36c6ec63          	bltu	a3,a2,4014 <log+0x3c0>
    3ca0:	4a01                	c.li	s4,0
    3ca2:	c01a0ab7          	lui	s5,0xc01a0
    3ca6:	c1481a7f          	add64	s4,a6,s4
    3caa:	4cdaa9db          	bfoz	s3,s5,19,13
    3cae:	08998913          	addi	s2,s3,137
    3cb2:	2400140b          	addigp	s0,576 # 80a40 <__log_data>
    3cb6:	0912                	c.slli	s2,0x4
    3cb8:	fff007b7          	lui	a5,0xfff00
    3cbc:	9922                	c.add	s2,s0
    3cbe:	0157f5b3          	and	a1,a5,s5
    3cc2:	00092603          	lw	a2,0(s2)
    3cc6:	00492683          	lw	a3,4(s2)
    3cca:	4501                	c.li	a0,0
    3ccc:	c2a8157f          	sub64	a0,a6,a0
    3cd0:	01c020ef          	jal	ra,5cec <__subdf3>
    3cd4:	00892603          	lw	a2,8(s2)
    3cd8:	00c92683          	lw	a3,12(s2)
    3cdc:	09a5                	c.addi	s3,9
    3cde:	0992                	c.slli	s3,0x4
    3ce0:	00c020ef          	jal	ra,5cec <__subdf3>
