
RV_NN_Pooling_Benchmark.adx:     file format elf32-littleriscv
RV_NN_Pooling_Benchmark.adx
architecture: riscv:rv32, flags 0x00000112:
EXEC_P, HAS_SYMS, D_PAGED
start address 0x20000000

Program Header:
    LOAD off    0x00001000 vaddr 0x20000000 paddr 0x20000000 align 2**12
         filesz 0x0000018a memsz 0x0000018a flags r-x
    LOAD off    0x00002000 vaddr 0x00000000 paddr 0x20000190 align 2**12
         filesz 0x000001bc memsz 0x000001bc flags rwx
    LOAD off    0x00002200 vaddr 0x00000200 paddr 0x20000350 align 2**12
         filesz 0x00002ed4 memsz 0x00002ed4 flags r-x
    LOAD off    0x00006000 vaddr 0x00080000 paddr 0x20003228 align 2**12
         filesz 0x00001c68 memsz 0x00001ca0 flags rw-
    LOAD off    0x00007ca0 vaddr 0x00081ca0 paddr 0x20004e90 align 2**12
         filesz 0x00000022 memsz 0x00000022 flags rw-
    LOAD off    0x00008ca0 vaddr 0x00081ca0 paddr 0x20004ec8 align 2**12
         filesz 0x00000000 memsz 0x00000000 flags rw-
0x70000000 off    0x0001423d vaddr 0x00000000 paddr 0x00000000 align 2**0
         filesz 0x00000040 memsz 0x00000000 flags r--

Sections:
Idx Name          Size      VMA       LMA       File off  Algn
  0 .vectors      0000018a  20000000  20000000  00001000  2**2
                  CONTENTS, ALLOC, LOAD, READONLY, CODE
  1 .retention_reset 00000154  00000000  20000190  00002000  2**2
                  CONTENTS, ALLOC, LOAD, READONLY, CODE
  2 .retention_data 00000064  00000158  200002e8  00002158  2**2
                  CONTENTS, ALLOC, LOAD, DATA
  3 .ram_code     00002ed4  00000200  20000350  00002200  2**8
                  CONTENTS, ALLOC, LOAD, READONLY, CODE
  4 .data         00001c68  00080000  20003228  00006000  2**2
                  CONTENTS, ALLOC, LOAD, DATA
  5 .sbss         00000038  00081c68  20004e90  00007c68  2**2
                  ALLOC
  6 .bss          00000000  00081ca0  20004ec8  00008ca0  2**2
                  ALLOC
  7 .sdk_version  00000022  00081ca0  20004e90  00007ca0  2**2
                  CONTENTS, ALLOC, LOAD, DATA
  8 .debug_info   00004b6a  00000000  00000000  00007cc2  2**0
                  CONTENTS, READONLY, DEBUGGING
  9 .debug_abbrev 00000a23  00000000  00000000  0000c82c  2**0
                  CONTENTS, READONLY, DEBUGGING
 10 .debug_loc    000010f0  00000000  00000000  0000d24f  2**0
                  CONTENTS, READONLY, DEBUGGING
 11 .debug_aranges 000001a8  00000000  00000000  0000e340  2**3
                  CONTENTS, READONLY, DEBUGGING
 12 .debug_ranges 000007a0  00000000  00000000  0000e4e8  2**3
                  CONTENTS, READONLY, DEBUGGING
 13 .debug_line   00002d0b  00000000  00000000  0000ec88  2**0
                  CONTENTS, READONLY, DEBUGGING
 14 .debug_str    00002861  00000000  00000000  00011993  2**0
                  CONTENTS, READONLY, DEBUGGING
 15 .comment      00000049  00000000  00000000  000141f4  2**0
                  CONTENTS, READONLY
 16 .riscv.attributes 00000040  00000000  00000000  0001423d  2**0
                  CONTENTS, READONLY
 17 .debug_frame  000004b8  00000000  00000000  00014280  2**2
                  CONTENTS, READONLY, DEBUGGING
SYMBOL TABLE:
20000000 l    d  .vectors	00000000 .vectors
00000000 l    d  .retention_reset	00000000 .retention_reset
00000158 l    d  .retention_data	00000000 .retention_data
00000200 l    d  .ram_code	00000000 .ram_code
00080000 l    d  .data	00000000 .data
00081c68 l    d  .sbss	00000000 .sbss
00081ca0 l    d  .bss	00000000 .bss
00081ca0 l    d  .sdk_version	00000000 .sdk_version
00000000 l    d  .debug_info	00000000 .debug_info
00000000 l    d  .debug_abbrev	00000000 .debug_abbrev
00000000 l    d  .debug_loc	00000000 .debug_loc
00000000 l    d  .debug_aranges	00000000 .debug_aranges
00000000 l    d  .debug_ranges	00000000 .debug_ranges
00000000 l    d  .debug_line	00000000 .debug_line
00000000 l    d  .debug_str	00000000 .debug_str
00000000 l    d  .comment	00000000 .comment
00000000 l    d  .riscv.attributes	00000000 .riscv.attributes
00000000 l    d  .debug_frame	00000000 .debug_frame
00000000 l    df *ABS*	00000000 ./boot/cstartup_flash.o
20000028 l       .vectors	00000000 _START
2000008e l       .vectors	00000000 _RETENTION_RESET_INIT
200000a6 l       .vectors	00000000 _RETENTION_RESET_BEGIN
200000b8 l       .vectors	00000000 _RETENTION_DATA_INIT
200000cc l       .vectors	00000000 _RETENTION_DATA_INIT_BEGIN
200000de l       .vectors	00000000 _RAMCODE_INIT
200000f6 l       .vectors	00000000 _RAMCODE_INIT_BEGIN
20000108 l       .vectors	00000000 _DATA_INIT
20000120 l       .vectors	00000000 _DATA_INIT_BEGIN
20000132 l       .vectors	00000000 _ZERO_BSS
20000146 l       .vectors	00000000 _ZERO_BSS_BEGIN
20000152 l       .vectors	00000000 _ZERO_AES
20000166 l       .vectors	00000000 _ZERO_AES_BEGIN
20000172 l       .vectors	00000000 _FILL_STK
20000172 l       .vectors	00000000 _MAIN_FUNC
20000188 l       .vectors	00000000 _END
00000022 l       .retention_reset	00000000 _ISTART
0000002a l       .retention_reset	00000000 _ISWS_USB_DIS
00000088 l       .retention_reset	00000000 _WAKEUP_FLASH
000000a2 l       .retention_reset	00000000 _MSPI_WAIT
000000bc l       .retention_reset	00000000 _WAIT_EFUSE_LOAD_AND_FLASH_WAKEUP_FINISH
000000c2 l       .retention_reset	00000000 _MULTI_ADDRESS_BEGIN
000000d2 l       .retention_reset	00000000 _IZERO_BSS
000000e6 l       .retention_reset	00000000 _IZERO_BSS_BEGIN
000000f2 l       .retention_reset	00000000 _IZERO_AES
00000106 l       .retention_reset	00000000 _IZERO_AES_BEGIN
00000112 l       .retention_reset	00000000 _IFILL_STK
00000112 l       .retention_reset	00000000 _IDATA_INIT
0000012a l       .retention_reset	00000000 _IDATA_INIT_BEGIN
0000013c l       .retention_reset	00000000 _IMAIN_FUNC
00000152 l       .retention_reset	00000000 _IEND
00000040 l       *ABS*	00000000 irqno
00000000 l    df *ABS*	00000000 
00000200 l     F .ram_code	00000020 delay_ms.constprop.14
0000140c l     F .ram_code	000000fc user_calib_adc_vref.constprop.9
00000220 l     F .ram_code	00000044 flash_send_addr
00000264 l     F .ram_code	00000048 flash_send_cmd
000002ac l     F .ram_code	00000060 clock_set_32k_tick
0000030c l     F .ram_code	0000004c analog_read_reg32.constprop.4
00000358 l     F .ram_code	00000024 clock_get_32k_tick
0000037c l     F .ram_code	00000094 pm_stimer_recover
00000410 l     F .ram_code	00000058 plic_exit_critical_sec
00000468 l     F .ram_code	00000060 plic_enter_critical_sec
000004c8 l     F .ram_code	00000180 flash_mspi_read_ram
00001204 l     F .ram_code	00000028 flash_read_uid.constprop.6
0000122c l     F .ram_code	00000028 flash_read_mid
00001254 l     F .ram_code	00000168 flash_read_mid_uid_with_check
00000648 l     F .ram_code	0000014c flash_mspi_read_ram.constprop.7
000013bc l     F .ram_code	00000020 flash_dread
00000794 l     F .ram_code	00000044 analog_write_reg8
000007d8 l     F .ram_code	0000004c analog_read_reg8
00000824 l     F .ram_code	00000140 clock_init_ram.constprop.11
000013dc l     F .ram_code	00000018 clock_init.constprop.10
00001508 l     F .ram_code	00000054 user_calib_freq_offset.constprop.8
00000964 l     F .ram_code	000000b4 pm_wait_bbpll_done
00000a18 l     F .ram_code	00000194 pm_sleep_start
00000bac l     F .ram_code	00000120 dr_putchar
00001560 l     F .ram_code	00000018 gpio_input_dis
00000ccc l     F .ram_code	0000030c pm_sleep_wakeup_ram.constprop.3
000013f4 l     F .ram_code	00000016 pm_sleep_wakeup.constprop.2
0000157c l     F .ram_code	00000162 avgpooling_riscv_avgpool_s8
00080010 l     O .data	000014a0 avgpooling_input_tensor
000016e0 l     F .ram_code	00000156 avgpooling_int16_riscv_avgpool_s16
00000158 l     O .retention_data	00000004 flash_read_page
0000015c l     O .retention_data	00000001 g_pm_long_suspend
00000160 l     O .retention_data	00000004 g_pm_tick_cur
00000164 l     O .retention_data	00000029 pmcd
00000190 l     O .retention_data	00000004 g_pm_tick_32k_calib
00000194 l     O .retention_data	00000001 g_plic_preempt_en
00000198 l     O .retention_data	00000002 s_flash_preempt_config
0000019a l     O .retention_data	00000001 g_pm_suspend_power_cfg
0000019c l     O .retention_data	00000008 g_pm_early_wakeup_time_us
000001a4 l     O .retention_data	00000004 g_pm_tick_32k_cur
000001a8 l     O .retention_data	00000001 g_pm_tick_update_en
000001ac l     O .retention_data	00000004 g_pm_r_delay_cycle
000001b0 l     O .retention_data	00000008 g_pm_longsleep_early_wakeup_time_us
000814b0 l     O .data	00000330 avgpooling_int16_input_tensor
000817e0 l     O .data	00000198 avgpooling_int16_output
000819fc l     O .data	000000b4 avgpooling_output
00081c68 l     O .sbss	00000004 exception_mcause
00081c6c l     O .sbss	00000004 exception_mdcause
00081c70 l     O .sbss	00000004 exception_mepc
00081c74 l     O .sbss	00000004 exception_mstatus
00081c78 l     O .sbss	00000004 exception_mtval
00081c7c l     O .sbss	00000004 g_chip_version
00081c80 l     O .sbss	00000004 g_pm_status_info
00081c58 l     O .data	00000001 init_flag.4915
00081c5c l     O .data	00000006 sys_clk
00081ca0 l     O .sdk_version	00000022 sdk_version
00000000 l    df *ABS*	00000000 riscv_avgpool_get_buffer_sizes_s16.c.o
00001d28 l       .ram_code	00000000 $x
00000000 l    df *ABS*	00000000 riscv_avgpool_get_buffer_sizes_s8.c.o
00001d30 l       .ram_code	00000000 $x
00000000 l    df *ABS*	00000000 riscv_avgpool_s8.c.o
00001d38 l       .ram_code	00000000 $x
00000000 l    df *ABS*	00000000 riscv_avgpool_s16.c.o
00001f8c l       .ram_code	00000000 $x
00000000 l    df *ABS*	00000000 malloc.c
00000000 l    df *ABS*	00000000 nano-mallocr.c
00000000 l    df *ABS*	00000000 nano-mallocr.c
00000000 l    df *ABS*	00000000 printf.c
00000000 l    df *ABS*	00000000 puts.c
00000000 l    df *ABS*	00000000 strlen.c
00000000 l    df *ABS*	00000000 vprintf.c
00002470 l     F .ram_code	0000003a __vprintf_help
00081c8c l     O .sbss	00000004 __vprintf_buf
00081c90 l     O .sbss	00000004 __vprintf_buf_len
00000000 l    df *ABS*	00000000 printf_impl.c
00000000 l    df *ABS*	00000000 printf_impl_float.c
00000000 l    df *ABS*	00000000 strcpy.c
00000000 l    df *ABS*	00000000 strnlen.c
00000000 l    df *ABS*	00000000 _sbrk.c
00081c9c l     O .sbss	00000004 heap_end.2408
00000000 l    df *ABS*	00000000 libgcc2.c
00000000 l    df *ABS*	00000000 libgcc2.c
00000000 l    df *ABS*	00000000 printf_data.c
00000000 l    df *ABS*	00000000 impure.c
00081ca0 l     O .bss	00000000 impure_data
00001d20  w      .ram_code	00000000 entry_irq55
00001d20  w      .ram_code	00000000 entry_irq13
00002e5c g     F .ram_code	0000007c strcpy
00001d20  w      .ram_code	00000000 entry_irq15
00002f4c g     F .ram_code	0000002e .hidden __ashldi3
00001d20  w      .ram_code	00000000 entry_irq27
00001d20  w      .ram_code	00000000 entry_irq60
00001d20  w      .ram_code	00000000 entry_irq1
00001d20  w      .ram_code	00000000 entry_irq52
00001d20  w      .ram_code	00000000 entry_irq50
00001d20  w      .ram_code	00000000 entry_irq62
000023be g     F .ram_code	0000001e printf
00080800 g       .data	00000000 __global_pointer$
00002f84 g       .ram_code	00000000 .hidden __riscv_save_8
00001d20  w      .ram_code	00000000 entry_irq58
00001f8c g     F .ram_code	0000022a riscv_avgpool_s16
00002fd0 g       .ram_code	00000000 .hidden __riscv_restore_3
000001bc g       .retention_data	00000000 _RETENTION_DATA_VMA_END
00002fbc g       .ram_code	00000000 .hidden __riscv_restore_10
00002f84 g       .ram_code	00000000 .hidden __riscv_save_11
000024f6 g     F .ram_code	00000048 __print_integral
00000000 g       .retention_reset	00000000 _RETENTION_RESET_VMA_START
00001d20  w      .ram_code	00000000 entry_irq10
00001d20  w      .ram_code	00000000 entry_irq21
00000158 g       .retention_data	00000000 _AES_VMA_START
00001d20  w      .ram_code	00000000 entry_irq48
00002fd0 g       .ram_code	00000000 .hidden __riscv_restore_2
00001d20  w      .ram_code	00000000 entry_irq8
00001d20  w      .ram_code	00000000 entry_irq33
00081ca0 g       .bss	00000000 _BSS_VMA_END
20000190 g       *ABS*	00000000 _RETENTION_RESET_LMA_START
0000253e g     F .ram_code	00000470 __printf_impl
00001d20  w      .ram_code	00000000 entry_irq12
000023dc g     F .ram_code	00000034 puts
000021b6 g     F .ram_code	00000010 malloc
00001d20  w      .ram_code	00000000 entry_irq14
00002f7c g       .ram_code	00000000 .hidden __riscv_save_12
00001d20  w      .ram_code	00000000 entry_irq2
00001d20  w      .ram_code	00000000 entry_irq51
00002fbc g       .ram_code	00000000 .hidden __riscv_restore_11
00001d38 g     F .ram_code	00000254 riscv_avgpool_s8
00001d20  w      .ram_code	00000000 entry_irq28
00001d20  w      .ram_code	00000000 entry_irq43
00002fac g       .ram_code	00000000 .hidden __riscv_save_1
00002fd0 g       .ram_code	00000000 .hidden __riscv_restore_0
00001d20  w      .ram_code	00000000 entry_irq20
00002f92 g       .ram_code	00000000 .hidden __riscv_save_7
00081c68 g       .sbss	00000000 _BSS_VMA_START
00001d20  w      .ram_code	00000000 entry_irq63
00081c68 g       .data	00000000 _DATA_VMA_END
00001d20  w      .ram_code	00000000 entry_irq46
00001d20  w      .ram_code	00000000 entry_irq31
00001d20  w      .ram_code	00000000 entry_irq16
00100000 g       *ABS*	00000000 FLASH_SIZE
00002fc6 g       .ram_code	00000000 .hidden __riscv_restore_5
00080000 g       .data	00000000 _DATA_VMA_START
00002ef2  w    F .ram_code	00000028 _sbrk
00001d20  w      .ram_code	00000000 entry_irq53
00001d20  w      .ram_code	00000000 entry_irq11
00000154 g       .retention_reset	00000000 _RETENTION_RESET_VMA_END
00002eda g     F .ram_code	00000018 strnlen
00002fc6 g       .ram_code	00000000 .hidden __riscv_restore_6
00001d20  w      .ram_code	00000000 entry_irq5
00001d20  w      .ram_code	00000000 entry_irq23
00001d22  w      .ram_code	00000000 trap_handler
00001d20  w      .ram_code	00000000 entry_irq34
00002f1c g     F .ram_code	0000002e .hidden __lshrdi3
00001d20  w      .ram_code	00000000 entry_irq36
00002f84 g       .ram_code	00000000 .hidden __riscv_save_9
00001d20  w      .ram_code	00000000 entry_irq44
000024aa g     F .ram_code	0000004c vprintf
00001d20  w      .ram_code	00000000 entry_irq45
00001d20  w      .ram_code	00000000 entry_irq26
00002f92 g       .ram_code	00000000 .hidden __riscv_save_4
00001d20  w      .ram_code	00000000 entry_irq41
00001d20  w      .ram_code	00000000 entry_irq61
20000000 g       .vectors	00000000 BIN_BEGIN
0000227e g     F .ram_code	00000090 _free_r
00002fac g       .ram_code	00000000 .hidden __riscv_save_3
00001d20  w      .ram_code	00000000 entry_irq38
00001100 g       .ram_code	00000000 __vectors
00004eb2 g       *ABS*	00000000 BIN_SIZE
00001d28 g     F .ram_code	00000006 riscv_avgpool_s16_get_buffer_size
00081c40 g     O .data	00000010 __digits
20000350 g       *ABS*	00000000 _RAMCODE_LMA_START
00081c98 g     O .sbss	00000004 __printf_count
00001d20  w      .ram_code	00000000 entry_irq59
00001d20  w      .ram_code	00000000 entry_irq6
00002f84 g       .ram_code	00000000 .hidden __riscv_save_10
00081c94 g     O .sbss	00000004 __mculib_REENT_errno
20003228 g       *ABS*	00000000 _DATA_LMA_START
000029cc g     F .ram_code	00000090 __print_integral_poly
20000000 g       *ABS*	00000000 NDS_SAG_LMA_FLASH
00002fc6 g       .ram_code	00000000 .hidden __riscv_restore_4
00002fbc g       .ram_code	00000000 .hidden __riscv_restore_8
00002f92 g       .ram_code	00000000 .hidden __riscv_save_6
20000000  w      .vectors	00000000 _RELAX_END_
00002a5c g     F .ram_code	000003fe __printf_float_impl
000021d6 g     F .ram_code	000000a8 memset
00002fbc g       .ram_code	00000000 .hidden __riscv_restore_9
00002fc6 g       .ram_code	00000000 .hidden __riscv_restore_7
00001880 g     F .ram_code	0000049e main
00001d20 g       .ram_code	00000000 default_irq_entry
00001d20  w      .ram_code	00000000 entry_irq3
00000fd8 g     F .ram_code	00000100 trap_entry
00000158 g       .retention_data	00000000 _AES_VMA_END
00001d20  w      .ram_code	00000000 entry_irq39
00001d20  w      .ram_code	00000000 entry_irq49
0000230e g     F .ram_code	000000b0 _malloc_r
00001d20  w      .ram_code	00000000 entry_irq57
00001d20  w      .ram_code	00000000 entry_irq47
200002e8 g       *ABS*	00000000 _RETENTION_DATA_LMA_START
20000000 g     F .vectors	00000000 _RESET_ENTRY
00000158 g       .retention_data	00000000 _RETENTION_DATA_VMA_START
00001d20  w      .ram_code	00000000 entry_irq4
000a0000 g       *ABS*	00000000 _STACK_TOP
00001d20  w      .ram_code	00000000 entry_irq22
00001d20  w      .ram_code	00000000 entry_irq30
00081c64 g     O .data	00000004 _impure_ptr
00001d30 g     F .ram_code	00000006 riscv_avgpool_s8_get_buffer_size
00001d20  w      .ram_code	00000000 entry_irq42
00001d20  w      .ram_code	00000000 entry_irq24
00002fac g       .ram_code	00000000 .hidden __riscv_save_2
000030d4 g       .ram_code	00000000 _RAMCODE_VMA_END
00000000  w      *ABS*	00000000 _ITB_BASE_
00002f92 g       .ram_code	00000000 .hidden __riscv_save_5
00001d20  w      .ram_code	00000000 entry_irq19
00001838 g     F .ram_code	00000048 _write
00081cc8 g       .sdk_version	00000000 _end
00001d20  w      .ram_code	00000000 entry_irq17
00001d20  w      .ram_code	00000000 entry_irq9
00001d20  w      .ram_code	00000000 entry_irq56
00001d20  w      .ram_code	00000000 entry_irq35
00001d20  w      .ram_code	00000000 entry_irq37
000001b8 g     O .retention_data	00000004 g_pm_mspi_cfg
00001d20  w      .ram_code	00000000 entry_irq54
00001d20  w      .ram_code	00000000 entry_irq40
00002fb8 g       .ram_code	00000000 .hidden __riscv_restore_12
00000200 g       .ram_code	00000000 _RAMCODE_VMA_START
00002fac g       .ram_code	00000000 .hidden __riscv_save_0
00002410 g     F .ram_code	0000005e strlen
00001d20  w      .ram_code	00000000 entry_irq29
00081c88 g     O .sbss	00000004 __malloc_sbrk_start
00081c84 g     O .sbss	00000004 __malloc_free_list
00002fd0 g       .ram_code	00000000 .hidden __riscv_restore_1
00001d20  w      .ram_code	00000000 entry_irq7
00001d20  w      .ram_code	00000000 entry_irq32
00000000 g     F .retention_reset	00000000 _IRESET_ENTRY
00001d20  w      .ram_code	00000000 entry_irq18
000029ae g     F .ram_code	0000001e __int_to_poly
000021c6 g     F .ram_code	00000010 free
00001d20  w      .ram_code	00000000 entry_irq25



Disassembly of section .vectors:

20000000 <_RESET_ENTRY>:
20000000:	a025                	c.j	20000028 <_START>
	...
20000016:	0000                	unimp
20000018:	4eb2                	c.lwsp	t4,12(sp)
2000001a:	0000                	unimp
2000001c:	0000                	unimp
2000001e:	0000                	unimp
20000020:	544c4e4b          	fnmsub.h	ft8,fs8,ft4,fa0,rmm
20000024:	0000                	unimp
20000026:	          	sllw	a4,zero,zero

20000028 <_START>:
20000028:	e0080197          	auipc	gp,0xe0080
2000002c:	7d818193          	addi	gp,gp,2008 # 80800 <__global_pointer$>
20000030:	801002b7          	lui	t0,0x80100
20000034:	70028293          	addi	t0,t0,1792 # 80100700 <_DATA_LMA_START+0x600fd4d8>
20000038:	04000313          	li	t1,64
2000003c:	506280a3          	sb	t1,1281(t0)
20000040:	e00a0297          	auipc	t0,0xe00a0
20000044:	fc028293          	addi	t0,t0,-64 # a0000 <_STACK_TOP>
20000048:	8116                	c.mv	sp,t0
2000004a:	e0000297          	auipc	t0,0xe0000
2000004e:	fb628293          	addi	t0,t0,-74 # 0 <_ITB_BASE_>
20000052:	80029073          	csrw	uitb,t0
20000056:	6299                	c.lui	t0,0x6
20000058:	3002a2f3          	csrrs	t0,mstatus,t0
2000005c:	00301073          	fssr	zero
20000060:	e0001297          	auipc	t0,0xe0001
20000064:	0a028293          	addi	t0,t0,160 # 1100 <__vectors>
20000068:	30529073          	csrw	mtvec,t0
2000006c:	7d016073          	csrsi	mmisc_ctl,2
20000070:	e40002b7          	lui	t0,0xe4000
20000074:	4309                	c.li	t1,2
20000076:	0062a023          	sw	t1,0(t0) # e4000000 <_DATA_LMA_START+0xc3ffcdd8>
2000007a:	7ca022f3          	csrr	t0,mcache_ctl
2000007e:	0012e293          	ori	t0,t0,1
20000082:	0022e293          	ori	t0,t0,2
20000086:	7ca29073          	csrw	mcache_ctl,t0
2000008a:	0000100f          	fence.i

2000008e <_RETENTION_RESET_INIT>:
2000008e:	00000317          	auipc	t1,0x0
20000092:	10230313          	addi	t1,t1,258 # 20000190 <_RETENTION_RESET_LMA_START>
20000096:	e0000397          	auipc	t2,0xe0000
2000009a:	f6a38393          	addi	t2,t2,-150 # 0 <_ITB_BASE_>
2000009e:	e0000e17          	auipc	t3,0xe0000
200000a2:	0b6e0e13          	addi	t3,t3,182 # 154 <_RETENTION_RESET_VMA_END>

200000a6 <_RETENTION_RESET_BEGIN>:
200000a6:	01c3f963          	bgeu	t2,t3,200000b8 <_RETENTION_DATA_INIT>
200000aa:	00032283          	lw	t0,0(t1)
200000ae:	0053a023          	sw	t0,0(t2)
200000b2:	0311                	c.addi	t1,4
200000b4:	0391                	c.addi	t2,4
200000b6:	bfc5                	c.j	200000a6 <_RETENTION_RESET_BEGIN>

200000b8 <_RETENTION_DATA_INIT>:
200000b8:	00000317          	auipc	t1,0x0
200000bc:	23030313          	addi	t1,t1,560 # 200002e8 <_RETENTION_DATA_LMA_START>
200000c0:	15800393          	li	t2,344
200000c4:	e0000e17          	auipc	t3,0xe0000
200000c8:	0f8e0e13          	addi	t3,t3,248 # 1bc <_RETENTION_DATA_VMA_END>

200000cc <_RETENTION_DATA_INIT_BEGIN>:
200000cc:	01c3f963          	bgeu	t2,t3,200000de <_RAMCODE_INIT>
200000d0:	00032283          	lw	t0,0(t1)
200000d4:	0053a023          	sw	t0,0(t2)
200000d8:	0311                	c.addi	t1,4
200000da:	0391                	c.addi	t2,4
200000dc:	bfc5                	c.j	200000cc <_RETENTION_DATA_INIT_BEGIN>

200000de <_RAMCODE_INIT>:
200000de:	00000317          	auipc	t1,0x0
200000e2:	27230313          	addi	t1,t1,626 # 20000350 <_RAMCODE_LMA_START>
200000e6:	e0000397          	auipc	t2,0xe0000
200000ea:	11a38393          	addi	t2,t2,282 # 200 <delay_ms.constprop.14>
200000ee:	e0003e17          	auipc	t3,0xe0003
200000f2:	fe6e0e13          	addi	t3,t3,-26 # 30d4 <_RAMCODE_VMA_END>

200000f6 <_RAMCODE_INIT_BEGIN>:
200000f6:	01c3f963          	bgeu	t2,t3,20000108 <_DATA_INIT>
200000fa:	00032283          	lw	t0,0(t1)
200000fe:	0053a023          	sw	t0,0(t2)
20000102:	0311                	c.addi	t1,4
20000104:	0391                	c.addi	t2,4
20000106:	bfc5                	c.j	200000f6 <_RAMCODE_INIT_BEGIN>

20000108 <_DATA_INIT>:
20000108:	00003317          	auipc	t1,0x3
2000010c:	12030313          	addi	t1,t1,288 # 20003228 <_DATA_LMA_START>
20000110:	e0080397          	auipc	t2,0xe0080
20000114:	ef038393          	addi	t2,t2,-272 # 80000 <_DATA_VMA_START>
20000118:	e0082e17          	auipc	t3,0xe0082
2000011c:	b50e0e13          	addi	t3,t3,-1200 # 81c68 <_DATA_VMA_END>

20000120 <_DATA_INIT_BEGIN>:
20000120:	01c3f963          	bgeu	t2,t3,20000132 <_ZERO_BSS>
20000124:	00032283          	lw	t0,0(t1)
20000128:	0053a023          	sw	t0,0(t2)
2000012c:	0311                	c.addi	t1,4
2000012e:	0391                	c.addi	t2,4
20000130:	bfc5                	c.j	20000120 <_DATA_INIT_BEGIN>

20000132 <_ZERO_BSS>:
20000132:	000002b7          	lui	t0,0x0
20000136:	e0082397          	auipc	t2,0xe0082
2000013a:	b3238393          	addi	t2,t2,-1230 # 81c68 <_DATA_VMA_END>
2000013e:	e0082e17          	auipc	t3,0xe0082
20000142:	b62e0e13          	addi	t3,t3,-1182 # 81ca0 <_BSS_VMA_END>

20000146 <_ZERO_BSS_BEGIN>:
20000146:	01c3f663          	bgeu	t2,t3,20000152 <_ZERO_AES>
2000014a:	0053a023          	sw	t0,0(t2)
2000014e:	0391                	c.addi	t2,4
20000150:	bfdd                	c.j	20000146 <_ZERO_BSS_BEGIN>

20000152 <_ZERO_AES>:
20000152:	000002b7          	lui	t0,0x0
20000156:	e0000397          	auipc	t2,0xe0000
2000015a:	00238393          	addi	t2,t2,2 # 158 <_AES_VMA_END>
2000015e:	e0000e17          	auipc	t3,0xe0000
20000162:	ffae0e13          	addi	t3,t3,-6 # 158 <_AES_VMA_END>

20000166 <_ZERO_AES_BEGIN>:
20000166:	01c3f663          	bgeu	t2,t3,20000172 <_FILL_STK>
2000016a:	0053a023          	sw	t0,0(t2)
2000016e:	0391                	c.addi	t2,4
20000170:	bfdd                	c.j	20000166 <_ZERO_AES_BEGIN>

20000172 <_FILL_STK>:
20000172:	0001                	c.nop
20000174:	e0001297          	auipc	t0,0xe0001
20000178:	70c28293          	addi	t0,t0,1804 # 1880 <main>
2000017c:	9282                	c.jalr	t0
2000017e:	0001                	c.nop
20000180:	0001                	c.nop
20000182:	0001                	c.nop
20000184:	0001                	c.nop
20000186:	0001                	c.nop

20000188 <_END>:
20000188:	a001                	c.j	20000188 <_END>

Disassembly of section .retention_reset:

00000000 <_IRESET_ENTRY>:
   0:	a00d                	c.j	22 <_ISTART>
	...

00000022 <_ISTART>:
  22:	00080197          	auipc	gp,0x80
  26:	7de18193          	addi	gp,gp,2014 # 80800 <__global_pointer$>

0000002a <_ISWS_USB_DIS>:
  2a:	801002b7          	lui	t0,0x80100
  2e:	70028293          	addi	t0,t0,1792 # 80100700 <_DATA_LMA_START+0x600fd4d8>
  32:	04000313          	li	t1,64
  36:	506280a3          	sb	t1,1281(t0)
  3a:	000a0297          	auipc	t0,0xa0
  3e:	fc628293          	addi	t0,t0,-58 # a0000 <_STACK_TOP>
  42:	8116                	c.mv	sp,t0
  44:	00000297          	auipc	t0,0x0
  48:	fbc28293          	addi	t0,t0,-68 # 0 <_IRESET_ENTRY>
  4c:	80029073          	csrw	uitb,t0
  50:	6299                	c.lui	t0,0x6
  52:	3002a2f3          	csrrs	t0,mstatus,t0
  56:	00301073          	fssr	zero
  5a:	00001297          	auipc	t0,0x1
  5e:	0a628293          	addi	t0,t0,166 # 1100 <__vectors>
  62:	30529073          	csrw	mtvec,t0
  66:	7d016073          	csrsi	mmisc_ctl,2
  6a:	e40002b7          	lui	t0,0xe4000
  6e:	4309                	c.li	t1,2
  70:	0062a023          	sw	t1,0(t0) # e4000000 <_DATA_LMA_START+0xc3ffcdd8>
  74:	7ca022f3          	csrr	t0,mcache_ctl
  78:	0012e293          	ori	t0,t0,1
  7c:	0022e293          	ori	t0,t0,2
  80:	7ca29073          	csrw	mcache_ctl,t0
  84:	0000100f          	fence.i

00000088 <_WAKEUP_FLASH>:
  88:	801402b7          	lui	t0,0x80140
  8c:	0ff00313          	li	t1,255
  90:	4381                	c.li	t2,0
  92:	0ab00e13          	li	t3,171
  96:	326284a3          	sb	t1,809(t0) # 80140329 <_DATA_LMA_START+0x6013d101>
  9a:	107280a3          	sb	t2,257(t0)
  9e:	11c28023          	sb	t3,256(t0)

000000a2 <_MSPI_WAIT>:
  a2:	801402b7          	lui	t0,0x80140
  a6:	10228383          	lb	t2,258(t0) # 80140102 <_DATA_LMA_START+0x6013ceda>
  aa:	4e05                	c.li	t3,1
  ac:	4ec1                	c.li	t4,16
  ae:	fe7e0ae3          	beq	t3,t2,a2 <_MSPI_WAIT>
  b2:	11d280a3          	sb	t4,257(t0)
  b6:	4281                	c.li	t0,0
  b8:	14000313          	li	t1,320

000000bc <_WAIT_EFUSE_LOAD_AND_FLASH_WAKEUP_FINISH>:
  bc:	0285                	c.addi	t0,1
  be:	fe537fe3          	bgeu	t1,t0,bc <_WAIT_EFUSE_LOAD_AND_FLASH_WAKEUP_FINISH>

000000c2 <_MULTI_ADDRESS_BEGIN>:
  c2:	801402b7          	lui	t0,0x80140
  c6:	1b800313          	li	t1,440
  ca:	00032383          	lw	t2,0(t1)
  ce:	1072a223          	sw	t2,260(t0) # 80140104 <_DATA_LMA_START+0x6013cedc>

000000d2 <_IZERO_BSS>:
  d2:	000002b7          	lui	t0,0x0
  d6:	00082397          	auipc	t2,0x82
  da:	b9238393          	addi	t2,t2,-1134 # 81c68 <_DATA_VMA_END>
  de:	00082e17          	auipc	t3,0x82
  e2:	bc2e0e13          	addi	t3,t3,-1086 # 81ca0 <_BSS_VMA_END>

000000e6 <_IZERO_BSS_BEGIN>:
  e6:	01c3f663          	bgeu	t2,t3,f2 <_IZERO_AES>
  ea:	0053a023          	sw	t0,0(t2)
  ee:	0391                	c.addi	t2,4
  f0:	bfdd                	c.j	e6 <_IZERO_BSS_BEGIN>

000000f2 <_IZERO_AES>:
  f2:	000002b7          	lui	t0,0x0
  f6:	00000397          	auipc	t2,0x0
  fa:	06238393          	addi	t2,t2,98 # 158 <_AES_VMA_END>
  fe:	00000e17          	auipc	t3,0x0
 102:	05ae0e13          	addi	t3,t3,90 # 158 <_AES_VMA_END>

00000106 <_IZERO_AES_BEGIN>:
 106:	01c3f663          	bgeu	t2,t3,112 <_IDATA_INIT>
 10a:	0053a023          	sw	t0,0(t2)
 10e:	0391                	c.addi	t2,4
 110:	bfdd                	c.j	106 <_IZERO_AES_BEGIN>

00000112 <_IDATA_INIT>:
 112:	20003317          	auipc	t1,0x20003
 116:	11630313          	addi	t1,t1,278 # 20003228 <_DATA_LMA_START>
 11a:	00080397          	auipc	t2,0x80
 11e:	ee638393          	addi	t2,t2,-282 # 80000 <_DATA_VMA_START>
 122:	00082e17          	auipc	t3,0x82
 126:	b46e0e13          	addi	t3,t3,-1210 # 81c68 <_DATA_VMA_END>

0000012a <_IDATA_INIT_BEGIN>:
 12a:	01c3f963          	bgeu	t2,t3,13c <_IMAIN_FUNC>
 12e:	00032283          	lw	t0,0(t1)
 132:	0053a023          	sw	t0,0(t2)
 136:	0311                	c.addi	t1,4
 138:	0391                	c.addi	t2,4
 13a:	bfc5                	c.j	12a <_IDATA_INIT_BEGIN>

0000013c <_IMAIN_FUNC>:
 13c:	0001                	c.nop
 13e:	00001297          	auipc	t0,0x1
 142:	74228293          	addi	t0,t0,1858 # 1880 <main>
 146:	9282                	c.jalr	t0
 148:	0001                	c.nop
 14a:	0001                	c.nop
 14c:	0001                	c.nop
 14e:	0001                	c.nop
 150:	0001                	c.nop

00000152 <_IEND>:
 152:	a001                	c.j	152 <_IEND>

Disassembly of section .ram_code:

00000200 <delay_ms.constprop.14>:
     200:	801407b7          	lui	a5,0x80140
     204:	0004e737          	lui	a4,0x4e
     208:	2007a603          	lw	a2,512(a5) # 80140200 <_DATA_LMA_START+0x6013cfd8>
     20c:	801406b7          	lui	a3,0x80140
     210:	20070713          	addi	a4,a4,512 # 4e200 <BIN_SIZE+0x4934e>
     214:	2006a783          	lw	a5,512(a3) # 80140200 <_DATA_LMA_START+0x6013cfd8>
     218:	8f91                	c.sub	a5,a2
     21a:	fef77de3          	bgeu	a4,a5,214 <delay_ms.constprop.14+0x14>
     21e:	8082                	c.jr	ra

00000220 <flash_send_addr>:
     220:	5d05275b          	bfoz	a4,a0,23,16
     224:	801407b7          	lui	a5,0x80140
     228:	801406b7          	lui	a3,0x80140
     22c:	10e78023          	sb	a4,256(a5) # 80140100 <_DATA_LMA_START+0x6013ced8>
     230:	10268783          	lb	a5,258(a3) # 80140102 <_DATA_LMA_START+0x6013ceda>
     234:	fe07fe5b          	bbs	a5,0,230 <flash_send_addr+0x10>
     238:	3c8527db          	bfoz	a5,a0,15,8
     23c:	80140737          	lui	a4,0x80140
     240:	10f68023          	sb	a5,256(a3)
     244:	10270783          	lb	a5,258(a4) # 80140102 <_DATA_LMA_START+0x6013ceda>
     248:	fe07fe5b          	bbs	a5,0,244 <flash_send_addr+0x24>
     24c:	0ff57513          	andi	a0,a0,255
     250:	801406b7          	lui	a3,0x80140
     254:	10a70023          	sb	a0,256(a4)
     258:	10268783          	lb	a5,258(a3) # 80140102 <_DATA_LMA_START+0x6013ceda>
     25c:	fe07fe5b          	bbs	a5,0,258 <flash_send_addr+0x38>
     260:	00008067          	ret

00000264 <flash_send_cmd>:
     264:	801407b7          	lui	a5,0x80140
     268:	10178703          	lb	a4,257(a5) # 80140101 <_DATA_LMA_START+0x6013ced9>
     26c:	0ff77713          	andi	a4,a4,255
     270:	01076713          	ori	a4,a4,16
     274:	10e780a3          	sb	a4,257(a5)
     278:	0001                	c.nop
     27a:	0001                	c.nop
     27c:	0001                	c.nop
     27e:	0001                	c.nop
     280:	0001                	c.nop
     282:	0001                	c.nop
     284:	0001                	c.nop
     286:	0001                	c.nop
     288:	0001                	c.nop
     28a:	0001                	c.nop
     28c:	10178683          	lb	a3,257(a5)
     290:	80140737          	lui	a4,0x80140
     294:	0ef6f693          	andi	a3,a3,239
     298:	10d780a3          	sb	a3,257(a5)
     29c:	10a78023          	sb	a0,256(a5)
     2a0:	10270783          	lb	a5,258(a4) # 80140102 <_DATA_LMA_START+0x6013ceda>
     2a4:	fe07fe5b          	bbs	a5,0,2a0 <flash_send_cmd+0x3c>
     2a8:	00008067          	ret

000002ac <clock_set_32k_tick>:
     2ac:	801406b7          	lui	a3,0x80140
     2b0:	20a68783          	lb	a5,522(a3) # 8014020a <_DATA_LMA_START+0x6013cfe2>
     2b4:	80140737          	lui	a4,0x80140
     2b8:	0ff7f793          	andi	a5,a5,255
     2bc:	0017e793          	ori	a5,a5,1
     2c0:	20f68523          	sb	a5,522(a3)
     2c4:	20b70683          	lb	a3,523(a4) # 8014020b <_DATA_LMA_START+0x6013cfe3>
     2c8:	20b70793          	addi	a5,a4,523
     2cc:	fe66fc5b          	bbs	a3,6,2c4 <clock_set_32k_tick+0x18>
     2d0:	20a72623          	sw	a0,524(a4)
     2d4:	4721                	c.li	a4,8
     2d6:	00e78023          	sb	a4,0(a5)
     2da:	0001                	c.nop
     2dc:	0001                	c.nop
     2de:	0001                	c.nop
     2e0:	0001                	c.nop
     2e2:	0001                	c.nop
     2e4:	0001                	c.nop
     2e6:	0001                	c.nop
     2e8:	0001                	c.nop
     2ea:	0001                	c.nop
     2ec:	0001                	c.nop
     2ee:	0001                	c.nop
     2f0:	0001                	c.nop
     2f2:	0001                	c.nop
     2f4:	0001                	c.nop
     2f6:	0001                	c.nop
     2f8:	00000013          	nop
     2fc:	801407b7          	lui	a5,0x80140
     300:	20b78703          	lb	a4,523(a5) # 8014020b <_DATA_LMA_START+0x6013cfe3>
     304:	fe377e5b          	bbs	a4,3,300 <clock_set_32k_tick+0x54>
     308:	00008067          	ret

0000030c <analog_read_reg32.constprop.4>:
     30c:	300027f3          	csrr	a5,mstatus
     310:	8ba1                	c.andi	a5,8
     312:	c789                	c.beqz	a5,31c <analog_read_reg32.constprop.4+0x10>
     314:	30047773          	csrrci	a4,mstatus,8
     318:	0ff0000f          	fence
     31c:	80140737          	lui	a4,0x80140
     320:	00400693          	li	a3,4
     324:	18d701a3          	sb	a3,387(a4) # 80140183 <_DATA_LMA_START+0x6013cf5b>
     328:	06000693          	li	a3,96
     32c:	18d70023          	sb	a3,384(a4)
     330:	04000613          	li	a2,64
     334:	801406b7          	lui	a3,0x80140
     338:	18c70123          	sb	a2,386(a4)
     33c:	18268703          	lb	a4,386(a3) # 80140182 <_DATA_LMA_START+0x6013cf5a>
     340:	fe777e5b          	bbs	a4,7,33c <analog_read_reg32.constprop.4+0x30>
     344:	1846a503          	lw	a0,388(a3)
     348:	00078663          	beqz	a5,354 <analog_read_reg32.constprop.4+0x48>
     34c:	3007a7f3          	csrrs	a5,mstatus,a5
     350:	0ff0000f          	fence
     354:	00008067          	ret

00000358 <clock_get_32k_tick>:
     358:	1141                	c.addi	sp,-16
     35a:	c422                	c.swsp	s0,8(sp)
     35c:	c606                	c.swsp	ra,12(sp)
     35e:	377d                	c.jal	30c <analog_read_reg32.constprop.4>
     360:	00a00433          	add	s0,zero,a0
     364:	fa9ff0ef          	jal	ra,30c <analog_read_reg32.constprop.4>
     368:	40850733          	sub	a4,a0,s0
     36c:	842a                	c.mv	s0,a0
     36e:	be176b5b          	bnec	a4,1,364 <clock_get_32k_tick+0xc>
     372:	40b2                	c.lwsp	ra,12(sp)
     374:	4422                	c.lwsp	s0,8(sp)
     376:	0141                	c.addi	sp,16
     378:	00008067          	ret

0000037c <pm_stimer_recover>:
     37c:	1141                	c.addi	sp,-16
     37e:	80140737          	lui	a4,0x80140
     382:	c606                	c.swsp	ra,12(sp)
     384:	4789                	c.li	a5,2
     386:	20f70c23          	sb	a5,536(a4) # 80140218 <_DATA_LMA_START+0x6013cff0>
     38a:	20a70783          	lb	a5,522(a4)
     38e:	0ff7f793          	andi	a5,a5,255
     392:	00c7e793          	ori	a5,a5,12
     396:	20f70523          	sb	a5,522(a4)
     39a:	3f7d                	c.jal	358 <clock_get_32k_tick>
     39c:	000007b7          	lui	a5,0x0
     3a0:	15878713          	addi	a4,a5,344 # 158 <_AES_VMA_END>
     3a4:	00474703          	lbu	a4,4(a4)
     3a8:	15878793          	addi	a5,a5,344
     3ac:	cf01                	c.beqz	a4,3c4 <pm_stimer_recover+0x48>
     3ae:	4b98                	c.lw	a4,16(a5)
     3b0:	5f90                	c.lw	a2,56(a5)
     3b2:	40e50733          	sub	a4,a0,a4
     3b6:	47d4                	c.lw	a3,12(a5)
     3b8:	0705                	c.addi	a4,1
     3ba:	8315                	c.srli	a4,0x5
     3bc:	c4c716ff          	maddr32	a3,a4,a2
     3c0:	c794                	c.sw	a3,8(a5)
     3c2:	a829                	c.j	3dc <pm_stimer_recover+0x60>
     3c4:	4b98                	c.lw	a4,16(a5)
     3c6:	5f94                	c.lw	a3,56(a5)
     3c8:	40e50733          	sub	a4,a0,a4
     3cc:	0705                	c.addi	a4,1
     3ce:	02d70733          	mul	a4,a4,a3
     3d2:	47d4                	c.lw	a3,12(a5)
     3d4:	8315                	c.srli	a4,0x5
     3d6:	9736                	c.add	a4,a3
     3d8:	00e7a423          	sw	a4,8(a5)
     3dc:	4b98                	c.lw	a4,16(a5)
     3de:	4794                	c.lw	a3,8(a5)
     3e0:	40e50733          	sub	a4,a0,a4
     3e4:	0705                	c.addi	a4,1
     3e6:	0505                	c.addi	a0,1
     3e8:	0685                	c.addi	a3,1
     3ea:	d788                	c.sw	a0,40(a5)
     3ec:	02e7a223          	sw	a4,36(a5)
     3f0:	80140637          	lui	a2,0x80140
     3f4:	801407b7          	lui	a5,0x80140
     3f8:	20d7a023          	sw	a3,512(a5) # 80140200 <_DATA_LMA_START+0x6013cfd8>
     3fc:	20b60783          	lb	a5,523(a2) # 8014020b <_DATA_LMA_START+0x6013cfe3>
     400:	be77fe5b          	bbc	a5,7,3fc <pm_stimer_recover+0x80>
     404:	20060c23          	sb	zero,536(a2)
     408:	40b2                	c.lwsp	ra,12(sp)
     40a:	0141                	c.addi	sp,16
     40c:	00008067          	ret

00000410 <plic_exit_critical_sec>:
     410:	000007b7          	lui	a5,0x0
     414:	15878793          	addi	a5,a5,344 # 158 <_AES_VMA_END>
     418:	03c78783          	lb	a5,60(a5)
     41c:	0ff7f793          	andi	a5,a5,255
     420:	c795                	c.beqz	a5,44c <plic_exit_critical_sec+0x3c>
     422:	c50d                	c.beqz	a0,44c <plic_exit_critical_sec+0x3c>
     424:	300027f3          	csrr	a5,mstatus
     428:	8ba1                	c.andi	a5,8
     42a:	0ff5f593          	andi	a1,a1,255
     42e:	c78d                	c.beqz	a5,458 <plic_exit_critical_sec+0x48>
     430:	30047773          	csrrci	a4,mstatus,8
     434:	0ff0000f          	fence
     438:	e4200737          	lui	a4,0xe4200
     43c:	c30c                	c.sw	a1,0(a4)
     43e:	0ff0000f          	fence
     442:	3007a7f3          	csrrs	a5,mstatus,a5
     446:	0ff0000f          	fence
     44a:	8082                	c.jr	ra
     44c:	cd81                	c.beqz	a1,464 <plic_exit_critical_sec+0x54>
     44e:	3005a5f3          	csrrs	a1,mstatus,a1
     452:	0ff0000f          	fence
     456:	8082                	c.jr	ra
     458:	e42007b7          	lui	a5,0xe4200
     45c:	00b7a023          	sw	a1,0(a5) # e4200000 <_DATA_LMA_START+0xc41fcdd8>
     460:	0ff0000f          	fence
     464:	00008067          	ret

00000468 <plic_enter_critical_sec>:
     468:	000007b7          	lui	a5,0x0
     46c:	15878793          	addi	a5,a5,344 # 158 <_AES_VMA_END>
     470:	03c78783          	lb	a5,60(a5)
     474:	0ff7f793          	andi	a5,a5,255
     478:	cb85                	c.beqz	a5,4a8 <plic_enter_critical_sec+0x40>
     47a:	c51d                	c.beqz	a0,4a8 <plic_enter_critical_sec+0x40>
     47c:	e4200737          	lui	a4,0xe4200
     480:	4308                	c.lw	a0,0(a4)
     482:	04b57163          	bgeu	a0,a1,4c4 <plic_enter_critical_sec+0x5c>
     486:	300027f3          	csrr	a5,mstatus
     48a:	8ba1                	c.andi	a5,8
     48c:	cb85                	c.beqz	a5,4bc <plic_enter_critical_sec+0x54>
     48e:	300476f3          	csrrci	a3,mstatus,8
     492:	0ff0000f          	fence
     496:	c30c                	c.sw	a1,0(a4)
     498:	0ff0000f          	fence
     49c:	3007a7f3          	csrrs	a5,mstatus,a5
     4a0:	0ff0000f          	fence
     4a4:	00008067          	ret
     4a8:	30002573          	csrr	a0,mstatus
     4ac:	8921                	c.andi	a0,8
     4ae:	c919                	c.beqz	a0,4c4 <plic_enter_critical_sec+0x5c>
     4b0:	300477f3          	csrrci	a5,mstatus,8
     4b4:	0ff0000f          	fence
     4b8:	00008067          	ret
     4bc:	00b72023          	sw	a1,0(a4) # e4200000 <_DATA_LMA_START+0xc41fcdd8>
     4c0:	0ff0000f          	fence
     4c4:	00008067          	ret

000004c8 <flash_mspi_read_ram>:
     4c8:	7179                	c.addi16sp	sp,-48
     4ca:	d226                	c.swsp	s1,36(sp)
     4cc:	000004b7          	lui	s1,0x0
     4d0:	15848493          	addi	s1,s1,344 # 158 <_AES_VMA_END>
     4d4:	d04a                	c.swsp	s2,32(sp)
     4d6:	c65e                	c.swsp	s7,12(sp)
     4d8:	892a                	c.mv	s2,a0
     4da:	8bae                	c.mv	s7,a1
     4dc:	0404c503          	lbu	a0,64(s1)
     4e0:	0414c583          	lbu	a1,65(s1)
     4e4:	d422                	c.swsp	s0,40(sp)
     4e6:	ce4e                	c.swsp	s3,28(sp)
     4e8:	cc52                	c.swsp	s4,24(sp)
     4ea:	ca56                	c.swsp	s5,20(sp)
     4ec:	c85a                	c.swsp	s6,16(sp)
     4ee:	d606                	c.swsp	ra,44(sp)
     4f0:	8b32                	c.mv	s6,a2
     4f2:	8ab6                	c.mv	s5,a3
     4f4:	843a                	c.mv	s0,a4
     4f6:	8a3e                	c.mv	s4,a5
     4f8:	f71ff0ef          	jal	ra,468 <plic_enter_critical_sec>
     4fc:	80140637          	lui	a2,0x80140
     500:	00a009b3          	add	s3,zero,a0
     504:	10260783          	lb	a5,258(a2) # 80140102 <_DATA_LMA_START+0x6013ceda>
     508:	fe07fe5b          	bbs	a5,0,504 <flash_mspi_read_ram+0x3c>
     50c:	10160783          	lb	a5,257(a2)
     510:	80140737          	lui	a4,0x80140
     514:	0ff7f793          	andi	a5,a5,255
     518:	0107e793          	ori	a5,a5,16
     51c:	10f600a3          	sb	a5,257(a2)
     520:	32870783          	lb	a5,808(a4) # 80140328 <_DATA_LMA_START+0x6013d100>
     524:	be37fe5b          	bbc	a5,3,520 <flash_mspi_read_ram+0x58>
     528:	10170783          	lb	a5,257(a4)
     52c:	854a                	c.mv	a0,s2
     52e:	0fd7f793          	andi	a5,a5,253
     532:	10f700a3          	sb	a5,257(a4)
     536:	10170783          	lb	a5,257(a4)
     53a:	0f37f793          	andi	a5,a5,243
     53e:	10f700a3          	sb	a5,257(a4)
     542:	330d                	c.jal	264 <flash_send_cmd>
     544:	0e0b1e63          	bnez	s6,640 <flash_mspi_read_ram+0x178>
     548:	020a8063          	beqz	s5,568 <flash_mspi_read_ram+0xa0>
     54c:	00000713          	li	a4,0
     550:	80140637          	lui	a2,0x80140
     554:	10060023          	sb	zero,256(a2) # 80140100 <_DATA_LMA_START+0x6013ced8>
     558:	10260783          	lb	a5,258(a2)
     55c:	fe07fe5b          	bbs	a5,0,558 <flash_mspi_read_ram+0x90>
     560:	00170713          	addi	a4,a4,1
     564:	ff5718e3          	bne	a4,s5,554 <flash_mspi_read_ram+0x8c>
     568:	01b96cdb          	bnec	s2,59,580 <flash_mspi_read_ram+0xb8>
     56c:	80140737          	lui	a4,0x80140
     570:	10170783          	lb	a5,257(a4) # 80140101 <_DATA_LMA_START+0x6013ced9>
     574:	0f37f793          	andi	a5,a5,243
     578:	0047e793          	ori	a5,a5,4
     57c:	10f700a3          	sb	a5,257(a4)
     580:	801406b7          	lui	a3,0x80140
     584:	10168783          	lb	a5,257(a3) # 80140101 <_DATA_LMA_START+0x6013ced9>
     588:	80140737          	lui	a4,0x80140
     58c:	0ff7f793          	andi	a5,a5,255
     590:	0027e793          	ori	a5,a5,2
     594:	10f680a3          	sb	a5,257(a3)
     598:	10068023          	sb	zero,256(a3)
     59c:	10270783          	lb	a5,258(a4) # 80140102 <_DATA_LMA_START+0x6013ceda>
     5a0:	fe07fe5b          	bbs	a5,0,59c <flash_mspi_read_ram+0xd4>
     5a4:	10170783          	lb	a5,257(a4)
     5a8:	801406b7          	lui	a3,0x80140
     5ac:	0ff7f793          	andi	a5,a5,255
     5b0:	0017e793          	ori	a5,a5,1
     5b4:	10f700a3          	sb	a5,257(a4)
     5b8:	10268783          	lb	a5,258(a3) # 80140102 <_DATA_LMA_START+0x6013ceda>
     5bc:	fe07fe5b          	bbs	a5,0,5b8 <flash_mspi_read_ram+0xf0>
     5c0:	020a0263          	beqz	s4,5e4 <flash_mspi_read_ram+0x11c>
     5c4:	008a0a33          	add	s4,s4,s0
     5c8:	801406b7          	lui	a3,0x80140
     5cc:	10068783          	lb	a5,256(a3) # 80140100 <_DATA_LMA_START+0x6013ced8>
     5d0:	00140413          	addi	s0,s0,1
     5d4:	fef40fa3          	sb	a5,-1(s0)
     5d8:	10268783          	lb	a5,258(a3)
     5dc:	fe07fe5b          	bbs	a5,0,5d8 <flash_mspi_read_ram+0x110>
     5e0:	ff4416e3          	bne	s0,s4,5cc <flash_mspi_read_ram+0x104>
     5e4:	801407b7          	lui	a5,0x80140
     5e8:	10178703          	lb	a4,257(a5) # 80140101 <_DATA_LMA_START+0x6013ced9>
     5ec:	0fe77713          	andi	a4,a4,254
     5f0:	10e780a3          	sb	a4,257(a5)
     5f4:	01b968db          	bnec	s2,59,604 <flash_mspi_read_ram+0x13c>
     5f8:	10178703          	lb	a4,257(a5)
     5fc:	0f377713          	andi	a4,a4,243
     600:	10e780a3          	sb	a4,257(a5)
     604:	80140737          	lui	a4,0x80140
     608:	10170783          	lb	a5,257(a4) # 80140101 <_DATA_LMA_START+0x6013ced9>
     60c:	0ff7f793          	andi	a5,a5,255
     610:	0107e793          	ori	a5,a5,16
     614:	10f700a3          	sb	a5,257(a4)
     618:	0001                	c.nop
     61a:	0001                	c.nop
     61c:	0001                	c.nop
     61e:	0001                	c.nop
     620:	0001                	c.nop
     622:	5422                	c.lwsp	s0,40(sp)
     624:	0404c503          	lbu	a0,64(s1)
     628:	50b2                	c.lwsp	ra,44(sp)
     62a:	5492                	c.lwsp	s1,36(sp)
     62c:	5902                	c.lwsp	s2,32(sp)
     62e:	4a62                	c.lwsp	s4,24(sp)
     630:	4ad2                	c.lwsp	s5,20(sp)
     632:	4b42                	c.lwsp	s6,16(sp)
     634:	4bb2                	c.lwsp	s7,12(sp)
     636:	85ce                	c.mv	a1,s3
     638:	49f2                	c.lwsp	s3,28(sp)
     63a:	6145                	c.addi16sp	sp,48
     63c:	dd5ff06f          	j	410 <plic_exit_critical_sec>
     640:	855e                	c.mv	a0,s7
     642:	3ef9                	c.jal	220 <flash_send_addr>
     644:	f05ff06f          	j	548 <flash_mspi_read_ram+0x80>

00000648 <flash_mspi_read_ram.constprop.7>:
     648:	1101                	c.addi	sp,-32
     64a:	c64e                	c.swsp	s3,12(sp)
     64c:	000009b7          	lui	s3,0x0
     650:	15898993          	addi	s3,s3,344 # 158 <_AES_VMA_END>
     654:	cc22                	c.swsp	s0,24(sp)
     656:	c256                	c.swsp	s5,4(sp)
     658:	842e                	c.mv	s0,a1
     65a:	8aaa                	c.mv	s5,a0
     65c:	0419c583          	lbu	a1,65(s3)
     660:	0409c503          	lbu	a0,64(s3)
     664:	c84a                	c.swsp	s2,16(sp)
     666:	c452                	c.swsp	s4,8(sp)
     668:	ce06                	c.swsp	ra,28(sp)
     66a:	ca26                	c.swsp	s1,20(sp)
     66c:	8932                	c.mv	s2,a2
     66e:	3bed                	c.jal	468 <plic_enter_critical_sec>
     670:	80140737          	lui	a4,0x80140
     674:	00a00a33          	add	s4,zero,a0
     678:	10270783          	lb	a5,258(a4) # 80140102 <_DATA_LMA_START+0x6013ceda>
     67c:	fe07fe5b          	bbs	a5,0,678 <flash_mspi_read_ram.constprop.7+0x30>
     680:	10170783          	lb	a5,257(a4)
     684:	801404b7          	lui	s1,0x80140
     688:	0ff7f793          	andi	a5,a5,255
     68c:	0107e793          	ori	a5,a5,16
     690:	10f700a3          	sb	a5,257(a4)
     694:	32848783          	lb	a5,808(s1) # 80140328 <_DATA_LMA_START+0x6013d100>
     698:	be37fe5b          	bbc	a5,3,694 <flash_mspi_read_ram.constprop.7+0x4c>
     69c:	10148783          	lb	a5,257(s1)
     6a0:	03b00513          	li	a0,59
     6a4:	0fd7f793          	andi	a5,a5,253
     6a8:	10f480a3          	sb	a5,257(s1)
     6ac:	10148783          	lb	a5,257(s1)
     6b0:	0f37f793          	andi	a5,a5,243
     6b4:	10f480a3          	sb	a5,257(s1)
     6b8:	badff0ef          	jal	ra,264 <flash_send_cmd>
     6bc:	01500533          	add	a0,zero,s5
     6c0:	b61ff0ef          	jal	ra,220 <flash_send_addr>
     6c4:	80140737          	lui	a4,0x80140
     6c8:	10048023          	sb	zero,256(s1)
     6cc:	10270783          	lb	a5,258(a4) # 80140102 <_DATA_LMA_START+0x6013ceda>
     6d0:	fe07fe5b          	bbs	a5,0,6cc <flash_mspi_read_ram.constprop.7+0x84>
     6d4:	10170783          	lb	a5,257(a4)
     6d8:	801406b7          	lui	a3,0x80140
     6dc:	0f37f793          	andi	a5,a5,243
     6e0:	0047e793          	ori	a5,a5,4
     6e4:	10f700a3          	sb	a5,257(a4)
     6e8:	10170783          	lb	a5,257(a4)
     6ec:	0ff7f793          	andi	a5,a5,255
     6f0:	0027e793          	ori	a5,a5,2
     6f4:	10f700a3          	sb	a5,257(a4)
     6f8:	10070023          	sb	zero,256(a4)
     6fc:	10268783          	lb	a5,258(a3) # 80140102 <_DATA_LMA_START+0x6013ceda>
     700:	fe07fe5b          	bbs	a5,0,6fc <flash_mspi_read_ram.constprop.7+0xb4>
     704:	10168783          	lb	a5,257(a3)
     708:	80140737          	lui	a4,0x80140
     70c:	0ff7f793          	andi	a5,a5,255
     710:	0017e793          	ori	a5,a5,1
     714:	10f680a3          	sb	a5,257(a3)
     718:	10270783          	lb	a5,258(a4) # 80140102 <_DATA_LMA_START+0x6013ceda>
     71c:	fe07fe5b          	bbs	a5,0,718 <flash_mspi_read_ram.constprop.7+0xd0>
     720:	02090263          	beqz	s2,744 <flash_mspi_read_ram.constprop.7+0xfc>
     724:	01240633          	add	a2,s0,s2
     728:	80140737          	lui	a4,0x80140
     72c:	10070783          	lb	a5,256(a4) # 80140100 <_DATA_LMA_START+0x6013ced8>
     730:	00140413          	addi	s0,s0,1
     734:	fef40fa3          	sb	a5,-1(s0)
     738:	10270783          	lb	a5,258(a4)
     73c:	fe07fe5b          	bbs	a5,0,738 <flash_mspi_read_ram.constprop.7+0xf0>
     740:	fec416e3          	bne	s0,a2,72c <flash_mspi_read_ram.constprop.7+0xe4>
     744:	801407b7          	lui	a5,0x80140
     748:	10178703          	lb	a4,257(a5) # 80140101 <_DATA_LMA_START+0x6013ced9>
     74c:	0fe77713          	andi	a4,a4,254
     750:	10e780a3          	sb	a4,257(a5)
     754:	10178703          	lb	a4,257(a5)
     758:	0f377713          	andi	a4,a4,243
     75c:	10e780a3          	sb	a4,257(a5)
     760:	10178703          	lb	a4,257(a5)
     764:	0ff77713          	andi	a4,a4,255
     768:	01076713          	ori	a4,a4,16
     76c:	10e780a3          	sb	a4,257(a5)
     770:	0001                	c.nop
     772:	0001                	c.nop
     774:	0001                	c.nop
     776:	0001                	c.nop
     778:	0001                	c.nop
     77a:	4462                	c.lwsp	s0,24(sp)
     77c:	0409c503          	lbu	a0,64(s3)
     780:	40f2                	c.lwsp	ra,28(sp)
     782:	44d2                	c.lwsp	s1,20(sp)
     784:	4942                	c.lwsp	s2,16(sp)
     786:	49b2                	c.lwsp	s3,12(sp)
     788:	4a92                	c.lwsp	s5,4(sp)
     78a:	85d2                	c.mv	a1,s4
     78c:	4a22                	c.lwsp	s4,8(sp)
     78e:	6105                	c.addi16sp	sp,32
     790:	c81ff06f          	j	410 <plic_exit_critical_sec>

00000794 <analog_write_reg8>:
     794:	30002673          	csrr	a2,mstatus
     798:	8a21                	c.andi	a2,8
     79a:	c609                	c.beqz	a2,7a4 <analog_write_reg8+0x10>
     79c:	300477f3          	csrrci	a5,mstatus,8
     7a0:	0ff0000f          	fence
     7a4:	80140737          	lui	a4,0x80140
     7a8:	18a70023          	sb	a0,384(a4) # 80140180 <_DATA_LMA_START+0x6013cf58>
     7ac:	18b70223          	sb	a1,388(a4)
     7b0:	06000693          	li	a3,96
     7b4:	801407b7          	lui	a5,0x80140
     7b8:	18d70123          	sb	a3,386(a4)
     7bc:	18278703          	lb	a4,386(a5) # 80140182 <_DATA_LMA_START+0x6013cf5a>
     7c0:	fe777e5b          	bbs	a4,7,7bc <analog_write_reg8+0x28>
     7c4:	18078123          	sb	zero,386(a5)
     7c8:	00060663          	beqz	a2,7d4 <analog_write_reg8+0x40>
     7cc:	30062673          	csrrs	a2,mstatus,a2
     7d0:	0ff0000f          	fence
     7d4:	00008067          	ret

000007d8 <analog_read_reg8>:
     7d8:	300026f3          	csrr	a3,mstatus
     7dc:	8aa1                	c.andi	a3,8
     7de:	c689                	c.beqz	a3,7e8 <analog_read_reg8+0x10>
     7e0:	300477f3          	csrrci	a5,mstatus,8
     7e4:	0ff0000f          	fence
     7e8:	801407b7          	lui	a5,0x80140
     7ec:	18a78023          	sb	a0,384(a5) # 80140180 <_DATA_LMA_START+0x6013cf58>
     7f0:	00100713          	li	a4,1
     7f4:	18e781a3          	sb	a4,387(a5)
     7f8:	04000613          	li	a2,64
     7fc:	80140737          	lui	a4,0x80140
     800:	18c78123          	sb	a2,386(a5)
     804:	18270783          	lb	a5,386(a4) # 80140182 <_DATA_LMA_START+0x6013cf5a>
     808:	fe77fe5b          	bbs	a5,7,804 <analog_read_reg8+0x2c>
     80c:	18470503          	lb	a0,388(a4)
     810:	0ff57513          	andi	a0,a0,255
     814:	00068663          	beqz	a3,820 <analog_read_reg8+0x48>
     818:	3006a6f3          	csrrs	a3,mstatus,a3
     81c:	0ff0000f          	fence
     820:	00008067          	ret

00000824 <clock_init_ram.constprop.11>:
     824:	1141                	c.addi	sp,-16
     826:	80140737          	lui	a4,0x80140
     82a:	c606                	c.swsp	ra,12(sp)
     82c:	c422                	c.swsp	s0,8(sp)
     82e:	c226                	c.swsp	s1,4(sp)
     830:	10270783          	lb	a5,258(a4) # 80140102 <_DATA_LMA_START+0x6013ceda>
     834:	fe07fe5b          	bbs	a5,0,830 <clock_init_ram.constprop.11+0xc>
     838:	10170783          	lb	a5,257(a4)
     83c:	801404b7          	lui	s1,0x80140
     840:	0ff7f793          	andi	a5,a5,255
     844:	0107e793          	ori	a5,a5,16
     848:	10f700a3          	sb	a5,257(a4)
     84c:	32848783          	lb	a5,808(s1) # 80140328 <_DATA_LMA_START+0x6013d100>
     850:	be37fe5b          	bbc	a5,3,84c <clock_init_ram.constprop.11+0x28>
     854:	1e848783          	lb	a5,488(s1)
     858:	08000513          	li	a0,128
     85c:	8bbd                	c.andi	a5,15
     85e:	1ef48423          	sb	a5,488(s1)
     862:	3f9d                	c.jal	7d8 <analog_read_reg8>
     864:	0e057593          	andi	a1,a0,224
     868:	0105e593          	ori	a1,a1,16
     86c:	08000513          	li	a0,128
     870:	f25ff0ef          	jal	ra,794 <analog_write_reg8>
     874:	00900513          	li	a0,9
     878:	f61ff0ef          	jal	ra,7d8 <analog_read_reg8>
     87c:	0f357593          	andi	a1,a0,243
     880:	0085e593          	ori	a1,a1,8
     884:	4525                	c.li	a0,9
     886:	3739                	c.jal	794 <analog_write_reg8>
     888:	0c000793          	li	a5,192
     88c:	45c2140b          	addigp	s0,5212 # 81c5c <sys_clk>
     890:	00f41023          	sh	a5,0(s0)
     894:	08100513          	li	a0,129
     898:	4791                	c.li	a5,4
     89a:	1ef48da3          	sb	a5,507(s1)
     89e:	3f2d                	c.jal	7d8 <analog_read_reg8>
     8a0:	04056593          	ori	a1,a0,64
     8a4:	0ff5f593          	andi	a1,a1,255
     8a8:	08100513          	li	a0,129
     8ac:	ee9ff0ef          	jal	ra,794 <analog_write_reg8>
     8b0:	08800513          	li	a0,136
     8b4:	f25ff0ef          	jal	ra,7d8 <analog_read_reg8>
     8b8:	be557c5b          	bbc	a0,5,8b0 <clock_init_ram.constprop.11+0x8c>
     8bc:	08100513          	li	a0,129
     8c0:	f19ff0ef          	jal	ra,7d8 <analog_read_reg8>
     8c4:	0bf57593          	andi	a1,a0,191
     8c8:	08100513          	li	a0,129
     8cc:	ec9ff0ef          	jal	ra,794 <analog_write_reg8>
     8d0:	801407b7          	lui	a5,0x80140
     8d4:	1e978703          	lb	a4,489(a5) # 801401e9 <_DATA_LMA_START+0x6013cfc1>
     8d8:	8b3d                	c.andi	a4,15
     8da:	04076713          	ori	a4,a4,64
     8de:	1ee784a3          	sb	a4,489(a5)
     8e2:	1e878703          	lb	a4,488(a5)
     8e6:	f8076713          	ori	a4,a4,-128
     8ea:	0ff77713          	andi	a4,a4,255
     8ee:	1ee78423          	sb	a4,488(a5)
     8f2:	1e878703          	lb	a4,488(a5)
     8f6:	f8076713          	ori	a4,a4,-128
     8fa:	0ff77713          	andi	a4,a4,255
     8fe:	1ee78423          	sb	a4,488(a5)
     902:	1d878703          	lb	a4,472(a5)
     906:	00045683          	lhu	a3,0(s0)
     90a:	0fb77713          	andi	a4,a4,251
     90e:	1ce78c23          	sb	a4,472(a5)
     912:	1d878703          	lb	a4,472(a5)
     916:	8689                	c.srai	a3,0x2
     918:	00d402a3          	sb	a3,5(s0)
     91c:	0fc77713          	andi	a4,a4,252
     920:	1ce78c23          	sb	a4,472(a5)
     924:	1e878703          	lb	a4,488(a5)
     928:	0f077713          	andi	a4,a4,240
     92c:	00876713          	ori	a4,a4,8
     930:	1ee78423          	sb	a4,488(a5)
     934:	1e878703          	lb	a4,488(a5)
     938:	00045683          	lhu	a3,0(s0)
     93c:	08f77713          	andi	a4,a4,143
     940:	868d                	c.srai	a3,0x3
     942:	00d40123          	sb	a3,2(s0)
     946:	02076713          	ori	a4,a4,32
     94a:	1ee78423          	sb	a4,488(a5)
     94e:	0ff6f693          	andi	a3,a3,255
     952:	00d401a3          	sb	a3,3(s0)
     956:	00d40223          	sb	a3,4(s0)
     95a:	40b2                	c.lwsp	ra,12(sp)
     95c:	4422                	c.lwsp	s0,8(sp)
     95e:	4492                	c.lwsp	s1,4(sp)
     960:	0141                	c.addi	sp,16
     962:	8082                	c.jr	ra

00000964 <pm_wait_bbpll_done>:
     964:	1101                	c.addi	sp,-32
     966:	08100513          	li	a0,129
     96a:	cc22                	c.swsp	s0,24(sp)
     96c:	ca26                	c.swsp	s1,20(sp)
     96e:	c84a                	c.swsp	s2,16(sp)
     970:	ce06                	c.swsp	ra,28(sp)
     972:	359d                	c.jal	7d8 <analog_read_reg8>
     974:	04056593          	ori	a1,a0,64
     978:	892a                	c.mv	s2,a0
     97a:	0ff5f593          	andi	a1,a1,255
     97e:	08100513          	li	a0,129
     982:	0bf97913          	andi	s2,s2,191
     986:	4481                	c.li	s1,0
     988:	4475                	c.li	s0,29
     98a:	3529                	c.jal	794 <analog_write_reg8>
     98c:	000107a3          	sb	zero,15(sp)
     990:	00f10783          	lb	a5,15(sp)
     994:	0ff7f793          	andi	a5,a5,255
     998:	02f46063          	bltu	s0,a5,9b8 <pm_wait_bbpll_done+0x54>
     99c:	0001                	c.nop
     99e:	00f10783          	lb	a5,15(sp)
     9a2:	0785                	c.addi	a5,1
     9a4:	0ff7f793          	andi	a5,a5,255
     9a8:	00f107a3          	sb	a5,15(sp)
     9ac:	00f10783          	lb	a5,15(sp)
     9b0:	0ff7f793          	andi	a5,a5,255
     9b4:	fef474e3          	bgeu	s0,a5,99c <pm_wait_bbpll_done+0x38>
     9b8:	08800513          	li	a0,136
     9bc:	e1dff0ef          	jal	ra,7d8 <analog_read_reg8>
     9c0:	4255765b          	bbs	a0,5,9ec <pm_wait_bbpll_done+0x88>
     9c4:	cc95                	c.beqz	s1,a00 <pm_wait_bbpll_done+0x9c>
     9c6:	0414d35b          	beqc	s1,1,a0c <pm_wait_bbpll_done+0xa8>
     9ca:	85ca                	c.mv	a1,s2
     9cc:	08100513          	li	a0,129
     9d0:	dc5ff0ef          	jal	ra,794 <analog_write_reg8>
     9d4:	0024d65b          	beqc	s1,2,9e0 <pm_wait_bbpll_done+0x7c>
     9d8:	0485                	c.addi	s1,1
     9da:	0ff4f493          	andi	s1,s1,255
     9de:	b77d                	c.j	98c <pm_wait_bbpll_done+0x28>
     9e0:	40f2                	c.lwsp	ra,28(sp)
     9e2:	4462                	c.lwsp	s0,24(sp)
     9e4:	44d2                	c.lwsp	s1,20(sp)
     9e6:	4942                	c.lwsp	s2,16(sp)
     9e8:	6105                	c.addi16sp	sp,32
     9ea:	8082                	c.jr	ra
     9ec:	4462                	c.lwsp	s0,24(sp)
     9ee:	40f2                	c.lwsp	ra,28(sp)
     9f0:	44d2                	c.lwsp	s1,20(sp)
     9f2:	85ca                	c.mv	a1,s2
     9f4:	4942                	c.lwsp	s2,16(sp)
     9f6:	08100513          	li	a0,129
     9fa:	6105                	c.addi16sp	sp,32
     9fc:	d99ff06f          	j	794 <analog_write_reg8>
     a00:	04600593          	li	a1,70
     a04:	4505                	c.li	a0,1
     a06:	3379                	c.jal	794 <analog_write_reg8>
     a08:	fd1ff06f          	j	9d8 <pm_wait_bbpll_done+0x74>
     a0c:	04300593          	li	a1,67
     a10:	4505                	c.li	a0,1
     a12:	3349                	c.jal	794 <analog_write_reg8>
     a14:	fc5ff06f          	j	9d8 <pm_wait_bbpll_done+0x74>

00000a18 <pm_sleep_start>:
     a18:	1101                	c.addi	sp,-32
     a1a:	47c2272b          	lwgp	a4,5244 # 81c7c <g_chip_version>
     a1e:	000006b7          	lui	a3,0x0
     a22:	ce06                	c.swsp	ra,28(sp)
     a24:	cc22                	c.swsp	s0,24(sp)
     a26:	ca26                	c.swsp	s1,20(sp)
     a28:	0ff00793          	li	a5,255
     a2c:	19a6c583          	lbu	a1,410(a3) # 19a <g_pm_suspend_power_cfg>
     a30:	00f71a63          	bne	a4,a5,a44 <pm_sleep_start+0x2c>
     a34:	0fe5f593          	andi	a1,a1,254
     a38:	07d00513          	li	a0,125
     a3c:	d59ff0ef          	jal	ra,794 <analog_write_reg8>
     a40:	00c0006f          	j	a4c <pm_sleep_start+0x34>
     a44:	07d00513          	li	a0,125
     a48:	d4dff0ef          	jal	ra,794 <analog_write_reg8>
     a4c:	801406b7          	lui	a3,0x80140
     a50:	10268783          	lb	a5,258(a3) # 80140102 <_DATA_LMA_START+0x6013ceda>
     a54:	fe07fe5b          	bbs	a5,0,a50 <pm_sleep_start+0x38>
     a58:	10168703          	lb	a4,257(a3)
     a5c:	801407b7          	lui	a5,0x80140
     a60:	0ff77713          	andi	a4,a4,255
     a64:	01076713          	ori	a4,a4,16
     a68:	10e680a3          	sb	a4,257(a3)
     a6c:	32878703          	lb	a4,808(a5) # 80140328 <_DATA_LMA_START+0x6013d100>
     a70:	be377e5b          	bbc	a4,3,a6c <pm_sleep_start+0x54>
     a74:	10178703          	lb	a4,257(a5)
     a78:	80140437          	lui	s0,0x80140
     a7c:	0fd77713          	andi	a4,a4,253
     a80:	10e780a3          	sb	a4,257(a5)
     a84:	10178703          	lb	a4,257(a5)
     a88:	0ef77713          	andi	a4,a4,239
     a8c:	10e780a3          	sb	a4,257(a5)
     a90:	fb900713          	li	a4,-71
     a94:	10e78023          	sb	a4,256(a5)
     a98:	10240783          	lb	a5,258(s0) # 80140102 <_DATA_LMA_START+0x6013ceda>
     a9c:	fe07fe5b          	bbs	a5,0,a98 <pm_sleep_start+0x80>
     aa0:	10140783          	lb	a5,257(s0)
     aa4:	452d                	c.li	a0,11
     aa6:	0ff7f793          	andi	a5,a5,255
     aaa:	0107e793          	ori	a5,a5,16
     aae:	10f400a3          	sb	a5,257(s0)
     ab2:	320404a3          	sb	zero,809(s0)
     ab6:	330d                	c.jal	7d8 <analog_read_reg8>
     ab8:	0fc57593          	andi	a1,a0,252
     abc:	452d                	c.li	a0,11
     abe:	39d9                	c.jal	794 <analog_write_reg8>
     ac0:	08100513          	li	a0,129
     ac4:	d15ff0ef          	jal	ra,7d8 <analog_read_reg8>
     ac8:	f8056593          	ori	a1,a0,-128
     acc:	0ff5f593          	andi	a1,a1,255
     ad0:	08100513          	li	a0,129
     ad4:	cc1ff0ef          	jal	ra,794 <analog_write_reg8>
     ad8:	f8000793          	li	a5,-128
     adc:	1ef407a3          	sb	a5,495(s0)
     ae0:	03f00493          	li	s1,63
     ae4:	00012423          	sw	zero,8(sp)
     ae8:	47a2                	c.lwsp	a5,8(sp)
     aea:	00f4e763          	bltu	s1,a5,af8 <pm_sleep_start+0xe0>
     aee:	0001                	c.nop
     af0:	47a2                	c.lwsp	a5,8(sp)
     af2:	0785                	c.addi	a5,1
     af4:	c43e                	c.swsp	a5,8(sp)
     af6:	bfcd                	c.j	ae8 <pm_sleep_start+0xd0>
     af8:	08100513          	li	a0,129
     afc:	cddff0ef          	jal	ra,7d8 <analog_read_reg8>
     b00:	07f57593          	andi	a1,a0,127
     b04:	08100513          	li	a0,129
     b08:	c8dff0ef          	jal	ra,794 <analog_write_reg8>
     b0c:	00b00513          	li	a0,11
     b10:	cc9ff0ef          	jal	ra,7d8 <analog_read_reg8>
     b14:	00356593          	ori	a1,a0,3
     b18:	0ff5f593          	andi	a1,a1,255
     b1c:	452d                	c.li	a0,11
     b1e:	399d                	c.jal	794 <analog_write_reg8>
     b20:	08000593          	li	a1,128
     b24:	07d00513          	li	a0,125
     b28:	c6dff0ef          	jal	ra,794 <analog_write_reg8>
     b2c:	801407b7          	lui	a5,0x80140
     b30:	329784a3          	sb	s1,809(a5) # 80140329 <_DATA_LMA_START+0x6013d101>
     b34:	10178683          	lb	a3,257(a5)
     b38:	80140737          	lui	a4,0x80140
     b3c:	0ef6f693          	andi	a3,a3,239
     b40:	10d780a3          	sb	a3,257(a5)
     b44:	fab00693          	li	a3,-85
     b48:	10d78023          	sb	a3,256(a5)
     b4c:	10270783          	lb	a5,258(a4) # 80140102 <_DATA_LMA_START+0x6013ceda>
     b50:	fe07fe5b          	bbs	a5,0,b4c <pm_sleep_start+0x134>
     b54:	10170783          	lb	a5,257(a4)
     b58:	12b00693          	li	a3,299
     b5c:	0ff7f793          	andi	a5,a5,255
     b60:	0107e793          	ori	a5,a5,16
     b64:	10f700a3          	sb	a5,257(a4)
     b68:	00012623          	sw	zero,12(sp)
     b6c:	47b2                	c.lwsp	a5,12(sp)
     b6e:	00f6e763          	bltu	a3,a5,b7c <pm_sleep_start+0x164>
     b72:	0001                	c.nop
     b74:	47b2                	c.lwsp	a5,12(sp)
     b76:	0785                	c.addi	a5,1
     b78:	c63e                	c.swsp	a5,12(sp)
     b7a:	bfcd                	c.j	b6c <pm_sleep_start+0x154>
     b7c:	08800513          	li	a0,136
     b80:	c59ff0ef          	jal	ra,7d8 <analog_read_reg8>
     b84:	be757c5b          	bbc	a0,7,b7c <pm_sleep_start+0x164>
     b88:	08800513          	li	a0,136
     b8c:	c4dff0ef          	jal	ra,7d8 <analog_read_reg8>
     b90:	be757c5b          	bbc	a0,7,b88 <pm_sleep_start+0x170>
     b94:	08800513          	li	a0,136
     b98:	c41ff0ef          	jal	ra,7d8 <analog_read_reg8>
     b9c:	be757c5b          	bbc	a0,7,b94 <pm_sleep_start+0x17c>
     ba0:	4462                	c.lwsp	s0,24(sp)
     ba2:	40f2                	c.lwsp	ra,28(sp)
     ba4:	44d2                	c.lwsp	s1,20(sp)
     ba6:	6105                	c.addi16sp	sp,32
     ba8:	dbdff06f          	j	964 <pm_wait_bbpll_done>

00000bac <dr_putchar>:
     bac:	1101                	c.addi	sp,-32
     bae:	ca26                	c.swsp	s1,20(sp)
     bb0:	cc22                	c.swsp	s0,24(sp)
     bb2:	ce06                	c.swsp	ra,28(sp)
     bb4:	c84a                	c.swsp	s2,16(sp)
     bb6:	4582148b          	addigp	s1,5208 # 81c58 <init_flag.4915>
     bba:	842a                	c.mv	s0,a0
     bbc:	0004c783          	lbu	a5,0(s1)
     bc0:	0c17d25b          	beqc	a5,1,c84 <dr_putchar+0xd8>
     bc4:	801407b7          	lui	a5,0x80140
     bc8:	30378703          	lb	a4,771(a5) # 80140303 <_DATA_LMA_START+0x6013d0db>
     bcc:	30378783          	lb	a5,771(a5)
     bd0:	0fe77713          	andi	a4,a4,254
     bd4:	0ff7f793          	andi	a5,a5,255
     bd8:	0017e793          	ori	a5,a5,1
     bdc:	00e10223          	sb	a4,4(sp)
     be0:	86be                	c.mv	a3,a5
     be2:	4004735b          	bbs	s0,0,be8 <dr_putchar+0x3c>
     be6:	86ba                	c.mv	a3,a4
     be8:	00d102a3          	sb	a3,5(sp)
     bec:	86be                	c.mv	a3,a5
     bee:	4014735b          	bbs	s0,1,bf4 <dr_putchar+0x48>
     bf2:	86ba                	c.mv	a3,a4
     bf4:	00d10323          	sb	a3,6(sp)
     bf8:	86be                	c.mv	a3,a5
     bfa:	4024735b          	bbs	s0,2,c00 <dr_putchar+0x54>
     bfe:	86ba                	c.mv	a3,a4
     c00:	00d103a3          	sb	a3,7(sp)
     c04:	86be                	c.mv	a3,a5
     c06:	4034735b          	bbs	s0,3,c0c <dr_putchar+0x60>
     c0a:	86ba                	c.mv	a3,a4
     c0c:	00d10423          	sb	a3,8(sp)
     c10:	86be                	c.mv	a3,a5
     c12:	4044735b          	bbs	s0,4,c18 <dr_putchar+0x6c>
     c16:	86ba                	c.mv	a3,a4
     c18:	00d104a3          	sb	a3,9(sp)
     c1c:	86be                	c.mv	a3,a5
     c1e:	4054735b          	bbs	s0,5,c24 <dr_putchar+0x78>
     c22:	86ba                	c.mv	a3,a4
     c24:	00d10523          	sb	a3,10(sp)
     c28:	86be                	c.mv	a3,a5
     c2a:	4064735b          	bbs	s0,6,c30 <dr_putchar+0x84>
     c2e:	86ba                	c.mv	a3,a4
     c30:	00d105a3          	sb	a3,11(sp)
     c34:	801d                	c.srli	s0,0x7
     c36:	c019                	c.beqz	s0,c3c <dr_putchar+0x90>
     c38:	00f00733          	add	a4,zero,a5
     c3c:	00f106a3          	sb	a5,13(sp)
     c40:	801407b7          	lui	a5,0x80140
     c44:	00e10623          	sb	a4,12(sp)
     c48:	2007a603          	lw	a2,512(a5) # 80140200 <_DATA_LMA_START+0x6013cfd8>
     c4c:	00410513          	addi	a0,sp,4
     c50:	00e10813          	addi	a6,sp,14
     c54:	801406b7          	lui	a3,0x80140
     c58:	08900593          	li	a1,137
     c5c:	2006a783          	lw	a5,512(a3) # 80140200 <_DATA_LMA_START+0x6013cfd8>
     c60:	40c78733          	sub	a4,a5,a2
     c64:	fee5fce3          	bgeu	a1,a4,c5c <dr_putchar+0xb0>
     c68:	00054703          	lbu	a4,0(a0)
     c6c:	0505                	c.addi	a0,1
     c6e:	30e681a3          	sb	a4,771(a3)
     c72:	863e                	c.mv	a2,a5
     c74:	ff0514e3          	bne	a0,a6,c5c <dr_putchar+0xb0>
     c78:	40f2                	c.lwsp	ra,28(sp)
     c7a:	4462                	c.lwsp	s0,24(sp)
     c7c:	44d2                	c.lwsp	s1,20(sp)
     c7e:	4942                	c.lwsp	s2,16(sp)
     c80:	6105                	c.addi16sp	sp,32
     c82:	8082                	c.jr	ra
     c84:	80140937          	lui	s2,0x80140
     c88:	30690783          	lb	a5,774(s2) # 80140306 <_DATA_LMA_START+0x6013d0de>
     c8c:	4539                	c.li	a0,14
     c8e:	0ff7f793          	andi	a5,a5,255
     c92:	0017e793          	ori	a5,a5,1
     c96:	30f90323          	sb	a5,774(s2)
     c9a:	3e3d                	c.jal	7d8 <analog_read_reg8>
     c9c:	0fc57593          	andi	a1,a0,252
     ca0:	0015e593          	ori	a1,a1,1
     ca4:	4539                	c.li	a0,14
     ca6:	34fd                	c.jal	794 <analog_write_reg8>
     ca8:	30290783          	lb	a5,770(s2)
     cac:	0fe7f793          	andi	a5,a5,254
     cb0:	30f90123          	sb	a5,770(s2)
     cb4:	30390783          	lb	a5,771(s2)
     cb8:	0ff7f793          	andi	a5,a5,255
     cbc:	0017e793          	ori	a5,a5,1
     cc0:	30f901a3          	sb	a5,771(s2)
     cc4:	00048023          	sb	zero,0(s1)
     cc8:	efdff06f          	j	bc4 <dr_putchar+0x18>

00000ccc <pm_sleep_wakeup_ram.constprop.3>:
     ccc:	1101                	c.addi	sp,-32
     cce:	c452                	c.swsp	s4,8(sp)
     cd0:	8a2a                	c.mv	s4,a0
     cd2:	ce06                	c.swsp	ra,28(sp)
     cd4:	cc22                	c.swsp	s0,24(sp)
     cd6:	ca26                	c.swsp	s1,20(sp)
     cd8:	c84a                	c.swsp	s2,16(sp)
     cda:	c64e                	c.swsp	s3,12(sp)
     cdc:	c256                	c.swsp	s5,4(sp)
     cde:	c05a                	c.swsp	s6,0(sp)
     ce0:	300029f3          	csrr	s3,mstatus
     ce4:	0089f993          	andi	s3,s3,8
     ce8:	00098663          	beqz	s3,cf4 <pm_sleep_wakeup_ram.constprop.3+0x28>
     cec:	300477f3          	csrrci	a5,mstatus,8
     cf0:	0ff0000f          	fence
     cf4:	801407b7          	lui	a5,0x80140
     cf8:	2147a683          	lw	a3,532(a5) # 80140214 <_DATA_LMA_START+0x6013cfec>
     cfc:	def5                	c.beqz	a3,cf8 <pm_sleep_wakeup_ram.constprop.3+0x2c>
     cfe:	00000437          	lui	s0,0x0
     d02:	15840693          	addi	a3,s0,344 # 158 <_AES_VMA_END>
     d06:	2147a783          	lw	a5,532(a5)
     d0a:	5298                	c.lw	a4,32(a3)
     d0c:	da9c                	c.sw	a5,48(a3)
     d0e:	15840413          	addi	s0,s0,344
     d12:	0792                	c.slli	a5,0x4
     d14:	cb11                	c.beqz	a4,d28 <pm_sleep_wakeup_ram.constprop.3+0x5c>
     d16:	03444603          	lbu	a2,52(s0)
     d1a:	4691                	c.li	a3,4
     d1c:	8f99                	c.sub	a5,a4
     d1e:	8e91                	c.sub	a3,a2
     d20:	40d7d7b3          	sra	a5,a5,a3
     d24:	00e787b3          	add	a5,a5,a4
     d28:	d01c                	c.sw	a5,32(s0)
     d2a:	5004                	c.lw	s1,32(s0)
     d2c:	485c                	c.lw	a5,20(s0)
     d2e:	8491                	c.srai	s1,0x4
     d30:	02f487b3          	mul	a5,s1,a5
     d34:	80140937          	lui	s2,0x80140
     d38:	20092a83          	lw	s5,512(s2) # 80140200 <_DATA_LMA_START+0x6013cfd8>
     d3c:	e0000737          	lui	a4,0xe0000
     d40:	415a0ab3          	sub	s5,s4,s5
     d44:	87c9                	c.srai	a5,0x12
     d46:	94be                	c.add	s1,a5
     d48:	0486                	c.slli	s1,0x1
     d4a:	dc04                	c.sw	s1,56(s0)
     d4c:	03577063          	bgeu	a4,s5,d6c <pm_sleep_wakeup_ram.constprop.3+0xa0>
     d50:	00098663          	beqz	s3,d5c <pm_sleep_wakeup_ram.constprop.3+0x90>
     d54:	3009a9f3          	csrrs	s3,mstatus,s3
     d58:	0ff0000f          	fence
     d5c:	06400513          	li	a0,100
     d60:	a79ff0ef          	jal	ra,7d8 <analog_read_reg8>
     d64:	01f57513          	andi	a0,a0,31
     d68:	25c0006f          	j	fc4 <pm_sleep_wakeup_ram.constprop.3+0x2f8>
     d6c:	04a41783          	lh	a5,74(s0)
     d70:	1137a7db          	bfoz	a5,a5,4,19
     d74:	02fafe63          	bgeu	s5,a5,db0 <pm_sleep_wakeup_ram.constprop.3+0xe4>
     d78:	45fd                	c.li	a1,31
     d7a:	06400513          	li	a0,100
     d7e:	801404b7          	lui	s1,0x80140
     d82:	20092403          	lw	s0,512(s2)
     d86:	3439                	c.jal	794 <analog_write_reg8>
     d88:	06400513          	li	a0,100
     d8c:	a4dff0ef          	jal	ra,7d8 <analog_read_reg8>
     d90:	2004a783          	lw	a5,512(s1) # 80140200 <_DATA_LMA_START+0x6013cfd8>
     d94:	897d                	c.andi	a0,31
     d96:	8f81                	c.sub	a5,s0
     d98:	0157f463          	bgeu	a5,s5,da0 <pm_sleep_wakeup_ram.constprop.3+0xd4>
     d9c:	fe0506e3          	beqz	a0,d88 <pm_sleep_wakeup_ram.constprop.3+0xbc>
     da0:	22098263          	beqz	s3,fc4 <pm_sleep_wakeup_ram.constprop.3+0x2f8>
     da4:	3009a9f3          	csrrs	s3,mstatus,s3
     da8:	0ff0000f          	fence
     dac:	2180006f          	j	fc4 <pm_sleep_wakeup_ram.constprop.3+0x2f8>
     db0:	1e890a83          	lb	s5,488(s2)
     db4:	00faf793          	andi	a5,s5,15
     db8:	1ef90423          	sb	a5,488(s2)
     dbc:	1d890b03          	lb	s6,472(s2)
     dc0:	0f8b7793          	andi	a5,s6,248
     dc4:	1cf90c23          	sb	a5,472(s2)
     dc8:	00100793          	li	a5,1
     dcc:	20f90c23          	sb	a5,536(s2)
     dd0:	20a90783          	lb	a5,522(s2)
     dd4:	0f77f793          	andi	a5,a5,247
     dd8:	20f90523          	sb	a5,522(s2)
     ddc:	d7cff0ef          	jal	ra,358 <clock_get_32k_tick>
     de0:	20092703          	lw	a4,512(s2)
     de4:	20b90783          	lb	a5,523(s2)
     de8:	5414                	c.lw	a3,40(s0)
     dea:	0ff7f793          	andi	a5,a5,255
     dee:	0027e793          	ori	a5,a5,2
     df2:	c468                	c.sw	a0,76(s0)
     df4:	c418                	c.sw	a4,8(s0)
     df6:	03444603          	lbu	a2,52(s0)
     dfa:	40d506b3          	sub	a3,a0,a3
     dfe:	20f905a3          	sb	a5,523(s2)
     e02:	d454                	c.sw	a3,44(s0)
     e04:	e215                	c.bnez	a2,e28 <pm_sleep_wakeup_ram.constprop.3+0x15c>
     e06:	445c                	c.lw	a5,12(s0)
     e08:	c385                	c.beqz	a5,e28 <pm_sleep_wakeup_ram.constprop.3+0x15c>
     e0a:	05044783          	lbu	a5,80(s0)
     e0e:	ef89                	c.bnez	a5,e28 <pm_sleep_wakeup_ram.constprop.3+0x15c>
     e10:	01042783          	lw	a5,16(s0)
     e14:	000276b7          	lui	a3,0x27
     e18:	40f507b3          	sub	a5,a0,a5
     e1c:	6c07a7db          	bfoz	a5,a5,27,0
     e20:	10068693          	addi	a3,a3,256 # 27100 <BIN_SIZE+0x2224e>
     e24:	00f6f863          	bgeu	a3,a5,e34 <pm_sleep_wakeup_ram.constprop.3+0x168>
     e28:	00176713          	ori	a4,a4,1
     e2c:	02040a23          	sb	zero,52(s0)
     e30:	c808                	c.sw	a0,16(s0)
     e32:	c458                	c.sw	a4,12(s0)
     e34:	02000593          	li	a1,32
     e38:	04b00513          	li	a0,75
     e3c:	959ff0ef          	jal	ra,794 <analog_write_reg8>
     e40:	45fd                	c.li	a1,31
     e42:	06400513          	li	a0,100
     e46:	32b9                	c.jal	794 <analog_write_reg8>
     e48:	03000593          	li	a1,48
     e4c:	07e00513          	li	a0,126
     e50:	945ff0ef          	jal	ra,794 <analog_write_reg8>
     e54:	0f900593          	li	a1,249
     e58:	04d00513          	li	a0,77
     e5c:	939ff0ef          	jal	ra,794 <analog_write_reg8>
     e60:	4585                	c.li	a1,1
     e62:	07f00513          	li	a0,127
     e66:	323d                	c.jal	794 <analog_write_reg8>
     e68:	04841783          	lh	a5,72(s0)
     e6c:	0ee00593          	li	a1,238
     e70:	1137a7db          	bfoz	a5,a5,4,19
     e74:	04c00513          	li	a0,76
     e78:	40fa0933          	sub	s2,s4,a5
     e7c:	919ff0ef          	jal	ra,794 <analog_write_reg8>
     e80:	05441583          	lh	a1,84(s0)
     e84:	04000513          	li	a0,64
     e88:	0ff5f593          	andi	a1,a1,255
     e8c:	909ff0ef          	jal	ra,794 <analog_write_reg8>
     e90:	445c                	c.lw	a5,12(s0)
     e92:	07ff0737          	lui	a4,0x7ff0
     e96:	40f907b3          	sub	a5,s2,a5
     e9a:	00f77763          	bgeu	a4,a5,ea8 <pm_sleep_wakeup_ram.constprop.3+0x1dc>
     e9e:	4705                	c.li	a4,1
     ea0:	00e40223          	sb	a4,4(s0)
     ea4:	0080006f          	j	eac <pm_sleep_wakeup_ram.constprop.3+0x1e0>
     ea8:	00040223          	sb	zero,4(s0)
     eac:	00444683          	lbu	a3,4(s0)
     eb0:	4808                	c.lw	a0,16(s0)
     eb2:	5c18                	c.lw	a4,56(s0)
     eb4:	c691                	c.beqz	a3,ec0 <pm_sleep_wakeup_ram.constprop.3+0x1f4>
     eb6:	02e7d7b3          	divu	a5,a5,a4
     eba:	0796                	c.slli	a5,0x5
     ebc:	953e                	c.add	a0,a5
     ebe:	a039                	c.j	ecc <pm_sleep_wakeup_ram.constprop.3+0x200>
     ec0:	8085                	c.srli	s1,0x1
     ec2:	0796                	c.slli	a5,0x5
     ec4:	97a6                	c.add	a5,s1
     ec6:	02e7d7b3          	divu	a5,a5,a4
     eca:	953e                	c.add	a0,a5
     ecc:	be0ff0ef          	jal	ra,2ac <clock_set_32k_tick>
     ed0:	06400513          	li	a0,100
     ed4:	905ff0ef          	jal	ra,7d8 <analog_read_reg8>
     ed8:	01f57513          	andi	a0,a0,31
     edc:	e901                	c.bnez	a0,eec <pm_sleep_wakeup_ram.constprop.3+0x220>
     ede:	3e2d                	c.jal	a18 <pm_sleep_start>
     ee0:	00100593          	li	a1,1
     ee4:	07f00513          	li	a0,127
     ee8:	8adff0ef          	jal	ra,794 <analog_write_reg8>
     eec:	80140737          	lui	a4,0x80140
     ef0:	02000793          	li	a5,32
     ef4:	1ef707a3          	sb	a5,495(a4) # 801401ef <_DATA_LMA_START+0x6013cfc7>
     ef8:	00200793          	li	a5,2
     efc:	20f70c23          	sb	a5,536(a4)
     f00:	20a70783          	lb	a5,522(a4)
     f04:	0ff7f793          	andi	a5,a5,255
     f08:	00c7e793          	ori	a5,a5,12
     f0c:	20f70523          	sb	a5,522(a4)
     f10:	c48ff0ef          	jal	ra,358 <clock_get_32k_tick>
     f14:	00444783          	lbu	a5,4(s0)
     f18:	cf81                	c.beqz	a5,f30 <pm_sleep_wakeup_ram.constprop.3+0x264>
     f1a:	481c                	c.lw	a5,16(s0)
     f1c:	5c14                	c.lw	a3,56(s0)
     f1e:	40f507b3          	sub	a5,a0,a5
     f22:	4458                	c.lw	a4,12(s0)
     f24:	0785                	c.addi	a5,1
     f26:	8395                	c.srli	a5,0x5
     f28:	c4d7977f          	maddr32	a4,a5,a3
     f2c:	c418                	c.sw	a4,8(s0)
     f2e:	a829                	c.j	f48 <pm_sleep_wakeup_ram.constprop.3+0x27c>
     f30:	481c                	c.lw	a5,16(s0)
     f32:	5c18                	c.lw	a4,56(s0)
     f34:	40f507b3          	sub	a5,a0,a5
     f38:	0785                	c.addi	a5,1
     f3a:	02e787b3          	mul	a5,a5,a4
     f3e:	4458                	c.lw	a4,12(s0)
     f40:	8395                	c.srli	a5,0x5
     f42:	97ba                	c.add	a5,a4
     f44:	00f42423          	sw	a5,8(s0)
     f48:	481c                	c.lw	a5,16(s0)
     f4a:	4414                	c.lw	a3,8(s0)
     f4c:	40f507b3          	sub	a5,a0,a5
     f50:	0785                	c.addi	a5,1
     f52:	0505                	c.addi	a0,1
     f54:	d05c                	c.sw	a5,36(s0)
     f56:	0685                	c.addi	a3,1
     f58:	02a42423          	sw	a0,40(s0)
     f5c:	801407b7          	lui	a5,0x80140
     f60:	80140737          	lui	a4,0x80140
     f64:	20d7a023          	sw	a3,512(a5) # 80140200 <_DATA_LMA_START+0x6013cfd8>
     f68:	20b70783          	lb	a5,523(a4) # 8014020b <_DATA_LMA_START+0x6013cfe3>
     f6c:	be77fe5b          	bbc	a5,7,f68 <pm_sleep_wakeup_ram.constprop.3+0x29c>
     f70:	20070c23          	sb	zero,536(a4)
     f74:	1d670c23          	sb	s6,472(a4)
     f78:	06400513          	li	a0,100
     f7c:	1f570423          	sb	s5,488(a4)
     f80:	859ff0ef          	jal	ra,7d8 <analog_read_reg8>
     f84:	4802170b          	addigp	a4,5248 # 81c80 <g_pm_status_info>
     f88:	00a700a3          	sb	a0,1(a4)
     f8c:	4802178b          	addigp	a5,5248 # 81c80 <g_pm_status_info>
     f90:	00157c5b          	bbc	a0,1,fa8 <pm_sleep_wakeup_ram.constprop.3+0x2dc>
     f94:	80140637          	lui	a2,0x80140
     f98:	400006b7          	lui	a3,0x40000
     f9c:	20062703          	lw	a4,512(a2) # 80140200 <_DATA_LMA_START+0x6013cfd8>
     fa0:	41470733          	sub	a4,a4,s4
     fa4:	fee6ece3          	bltu	a3,a4,f9c <pm_sleep_wakeup_ram.constprop.3+0x2d0>
     fa8:	00098663          	beqz	s3,fb4 <pm_sleep_wakeup_ram.constprop.3+0x2e8>
     fac:	3009a9f3          	csrrs	s3,mstatus,s3
     fb0:	0ff0000f          	fence
     fb4:	0017c783          	lbu	a5,1(a5)
     fb8:	10000513          	li	a0,256
     fbc:	c781                	c.beqz	a5,fc4 <pm_sleep_wakeup_ram.constprop.3+0x2f8>
     fbe:	40000537          	lui	a0,0x40000
     fc2:	8d5d                	c.or	a0,a5
     fc4:	40f2                	c.lwsp	ra,28(sp)
     fc6:	4462                	c.lwsp	s0,24(sp)
     fc8:	44d2                	c.lwsp	s1,20(sp)
     fca:	4942                	c.lwsp	s2,16(sp)
     fcc:	49b2                	c.lwsp	s3,12(sp)
     fce:	4a22                	c.lwsp	s4,8(sp)
     fd0:	4a92                	c.lwsp	s5,4(sp)
     fd2:	4b02                	c.lwsp	s6,0(sp)
     fd4:	6105                	c.addi16sp	sp,32
     fd6:	8082                	c.jr	ra

00000fd8 <trap_entry>:
     fd8:	1101                	c.addi	sp,-32
     fda:	ce2a                	c.swsp	a0,28(sp)
     fdc:	cc2e                	c.swsp	a1,24(sp)
     fde:	ca32                	c.swsp	a2,20(sp)
     fe0:	c836                	c.swsp	a3,16(sp)
     fe2:	c63a                	c.swsp	a4,12(sp)
     fe4:	c43e                	c.swsp	a5,8(sp)
     fe6:	34202773          	csrr	a4,mcause
     fea:	000007b7          	lui	a5,0x0
     fee:	15878793          	addi	a5,a5,344 # 158 <_AES_VMA_END>
     ff2:	03c78683          	lb	a3,60(a5)
     ff6:	0ff6f693          	andi	a3,a3,255
     ffa:	c2dd                	c.beqz	a3,10a0 <trap_entry+0xc8>
     ffc:	34102673          	csrr	a2,mepc
    1000:	300025f3          	csrr	a1,mstatus
    1004:	7c4026f3          	csrr	a3,mxstatus
    1008:	02074a63          	bltz	a4,103c <trap_entry+0x64>
    100c:	34302773          	csrr	a4,mtval
    1010:	46e24c2b          	swgp	a4,5240 # 81c78 <exception_mtval>
    1014:	34102773          	csrr	a4,mepc
    1018:	46e2482b          	swgp	a4,5232 # 81c70 <exception_mepc>
    101c:	30002773          	csrr	a4,mstatus
    1020:	46e24a2b          	swgp	a4,5236 # 81c74 <exception_mstatus>
    1024:	34202773          	csrr	a4,mcause
    1028:	46e2442b          	swgp	a4,5224 # 81c68 <_DATA_VMA_END>
    102c:	7c902773          	csrr	a4,mdcause
    1030:	46e2462b          	swgp	a4,5228 # 81c6c <exception_mdcause>
    1034:	0001                	c.nop
    1036:	0001                	c.nop
    1038:	ffdff06f          	j	1034 <trap_entry+0x5c>
    103c:	7807275b          	bfoz	a4,a4,30,0
    1040:	0677545b          	beqc	a4,7,10a8 <trap_entry+0xd0>
    1044:	bc37645b          	bnec	a4,3,100c <trap_entry+0x34>
    1048:	e6600737          	lui	a4,0xe6600
    104c:	4358                	c.lw	a4,4(a4)
    104e:	03c78703          	lb	a4,60(a5)
    1052:	0ff77713          	andi	a4,a4,255
    1056:	c319                	c.beqz	a4,105c <trap_entry+0x84>
    1058:	30046773          	csrrsi	a4,mstatus,8
    105c:	03c78703          	lb	a4,60(a5)
    1060:	0ff77713          	andi	a4,a4,255
    1064:	00070463          	beqz	a4,106c <trap_entry+0x94>
    1068:	30047773          	csrrci	a4,mstatus,8
    106c:	e6600737          	lui	a4,0xe6600
    1070:	4505                	c.li	a0,1
    1072:	c348                	c.sw	a0,4(a4)
    1074:	03c78783          	lb	a5,60(a5)
    1078:	0ff7f793          	andi	a5,a5,255
    107c:	00078863          	beqz	a5,108c <trap_entry+0xb4>
    1080:	30059073          	csrw	mstatus,a1
    1084:	34161073          	csrw	mepc,a2
    1088:	7c469073          	csrw	mxstatus,a3
    108c:	4572                	c.lwsp	a0,28(sp)
    108e:	45e2                	c.lwsp	a1,24(sp)
    1090:	4652                	c.lwsp	a2,20(sp)
    1092:	46c2                	c.lwsp	a3,16(sp)
    1094:	4732                	c.lwsp	a4,12(sp)
    1096:	47a2                	c.lwsp	a5,8(sp)
    1098:	02010113          	addi	sp,sp,32
    109c:	30200073          	mret
    10a0:	4681                	c.li	a3,0
    10a2:	4581                	c.li	a1,0
    10a4:	4601                	c.li	a2,0
    10a6:	b78d                	c.j	1008 <trap_entry+0x30>
    10a8:	03c78703          	lb	a4,60(a5)
    10ac:	0ff77713          	andi	a4,a4,255
    10b0:	00070863          	beqz	a4,10c0 <trap_entry+0xe8>
    10b4:	08000713          	li	a4,128
    10b8:	30473773          	csrrc	a4,mie,a4
    10bc:	30046773          	csrrsi	a4,mstatus,8
    10c0:	03c78703          	lb	a4,60(a5)
    10c4:	0ff77713          	andi	a4,a4,255
    10c8:	d755                	c.beqz	a4,1074 <trap_entry+0x9c>
    10ca:	30047773          	csrrci	a4,mstatus,8
    10ce:	08000713          	li	a4,128
    10d2:	30472773          	csrrs	a4,mie,a4
    10d6:	bf79                	c.j	1074 <trap_entry+0x9c>
    10d8:	0001                	c.nop
	...

00001100 <__vectors>:
    1100:	0fd8                	c.addi4spn	a4,sp,980
    1102:	0000                	unimp
    1104:	1d20                	c.addi4spn	s0,sp,696
    1106:	0000                	unimp
    1108:	1d20                	c.addi4spn	s0,sp,696
    110a:	0000                	unimp
    110c:	1d20                	c.addi4spn	s0,sp,696
    110e:	0000                	unimp
    1110:	1d20                	c.addi4spn	s0,sp,696
    1112:	0000                	unimp
    1114:	1d20                	c.addi4spn	s0,sp,696
    1116:	0000                	unimp
    1118:	1d20                	c.addi4spn	s0,sp,696
    111a:	0000                	unimp
    111c:	1d20                	c.addi4spn	s0,sp,696
    111e:	0000                	unimp
    1120:	1d20                	c.addi4spn	s0,sp,696
    1122:	0000                	unimp
    1124:	1d20                	c.addi4spn	s0,sp,696
    1126:	0000                	unimp
    1128:	1d20                	c.addi4spn	s0,sp,696
    112a:	0000                	unimp
    112c:	1d20                	c.addi4spn	s0,sp,696
    112e:	0000                	unimp
    1130:	1d20                	c.addi4spn	s0,sp,696
    1132:	0000                	unimp
    1134:	1d20                	c.addi4spn	s0,sp,696
    1136:	0000                	unimp
    1138:	1d20                	c.addi4spn	s0,sp,696
    113a:	0000                	unimp
    113c:	1d20                	c.addi4spn	s0,sp,696
    113e:	0000                	unimp
    1140:	1d20                	c.addi4spn	s0,sp,696
    1142:	0000                	unimp
    1144:	1d20                	c.addi4spn	s0,sp,696
    1146:	0000                	unimp
    1148:	1d20                	c.addi4spn	s0,sp,696
    114a:	0000                	unimp
    114c:	1d20                	c.addi4spn	s0,sp,696
    114e:	0000                	unimp
    1150:	1d20                	c.addi4spn	s0,sp,696
    1152:	0000                	unimp
    1154:	1d20                	c.addi4spn	s0,sp,696
    1156:	0000                	unimp
    1158:	1d20                	c.addi4spn	s0,sp,696
    115a:	0000                	unimp
    115c:	1d20                	c.addi4spn	s0,sp,696
    115e:	0000                	unimp
    1160:	1d20                	c.addi4spn	s0,sp,696
    1162:	0000                	unimp
    1164:	1d20                	c.addi4spn	s0,sp,696
    1166:	0000                	unimp
    1168:	1d20                	c.addi4spn	s0,sp,696
    116a:	0000                	unimp
    116c:	1d20                	c.addi4spn	s0,sp,696
    116e:	0000                	unimp
    1170:	1d20                	c.addi4spn	s0,sp,696
    1172:	0000                	unimp
    1174:	1d20                	c.addi4spn	s0,sp,696
    1176:	0000                	unimp
    1178:	1d20                	c.addi4spn	s0,sp,696
    117a:	0000                	unimp
    117c:	1d20                	c.addi4spn	s0,sp,696
    117e:	0000                	unimp
    1180:	1d20                	c.addi4spn	s0,sp,696
    1182:	0000                	unimp
    1184:	1d20                	c.addi4spn	s0,sp,696
    1186:	0000                	unimp
    1188:	1d20                	c.addi4spn	s0,sp,696
    118a:	0000                	unimp
    118c:	1d20                	c.addi4spn	s0,sp,696
    118e:	0000                	unimp
    1190:	1d20                	c.addi4spn	s0,sp,696
    1192:	0000                	unimp
    1194:	1d20                	c.addi4spn	s0,sp,696
    1196:	0000                	unimp
    1198:	1d20                	c.addi4spn	s0,sp,696
    119a:	0000                	unimp
    119c:	1d20                	c.addi4spn	s0,sp,696
    119e:	0000                	unimp
    11a0:	1d20                	c.addi4spn	s0,sp,696
    11a2:	0000                	unimp
    11a4:	1d20                	c.addi4spn	s0,sp,696
    11a6:	0000                	unimp
    11a8:	1d20                	c.addi4spn	s0,sp,696
    11aa:	0000                	unimp
    11ac:	1d20                	c.addi4spn	s0,sp,696
    11ae:	0000                	unimp
    11b0:	1d20                	c.addi4spn	s0,sp,696
    11b2:	0000                	unimp
    11b4:	1d20                	c.addi4spn	s0,sp,696
    11b6:	0000                	unimp
    11b8:	1d20                	c.addi4spn	s0,sp,696
    11ba:	0000                	unimp
    11bc:	1d20                	c.addi4spn	s0,sp,696
    11be:	0000                	unimp
    11c0:	1d20                	c.addi4spn	s0,sp,696
    11c2:	0000                	unimp
    11c4:	1d20                	c.addi4spn	s0,sp,696
    11c6:	0000                	unimp
    11c8:	1d20                	c.addi4spn	s0,sp,696
    11ca:	0000                	unimp
    11cc:	1d20                	c.addi4spn	s0,sp,696
    11ce:	0000                	unimp
    11d0:	1d20                	c.addi4spn	s0,sp,696
    11d2:	0000                	unimp
    11d4:	1d20                	c.addi4spn	s0,sp,696
    11d6:	0000                	unimp
    11d8:	1d20                	c.addi4spn	s0,sp,696
    11da:	0000                	unimp
    11dc:	1d20                	c.addi4spn	s0,sp,696
    11de:	0000                	unimp
    11e0:	1d20                	c.addi4spn	s0,sp,696
    11e2:	0000                	unimp
    11e4:	1d20                	c.addi4spn	s0,sp,696
    11e6:	0000                	unimp
    11e8:	1d20                	c.addi4spn	s0,sp,696
    11ea:	0000                	unimp
    11ec:	1d20                	c.addi4spn	s0,sp,696
    11ee:	0000                	unimp
    11f0:	1d20                	c.addi4spn	s0,sp,696
    11f2:	0000                	unimp
    11f4:	1d20                	c.addi4spn	s0,sp,696
    11f6:	0000                	unimp
    11f8:	1d20                	c.addi4spn	s0,sp,696
    11fa:	0000                	unimp
    11fc:	1d20                	c.addi4spn	s0,sp,696
    11fe:	0000                	unimp
    1200:	0001                	c.nop
	...

00001204 <flash_read_uid.constprop.6>:
    1204:	1141                	c.addi	sp,-16
    1206:	c606                	c.swsp	ra,12(sp)
    1208:	872a                	c.mv	a4,a0
    120a:	7d047073          	csrci	mmisc_ctl,8
    120e:	47c1                	c.li	a5,16
    1210:	4691                	c.li	a3,4
    1212:	4601                	c.li	a2,0
    1214:	00000593          	li	a1,0
    1218:	04b00513          	li	a0,75
    121c:	aacff0ef          	jal	ra,4c8 <flash_mspi_read_ram>
    1220:	7d046073          	csrsi	mmisc_ctl,8
    1224:	40b2                	c.lwsp	ra,12(sp)
    1226:	0141                	c.addi	sp,16
    1228:	00008067          	ret

0000122c <flash_read_mid>:
    122c:	1101                	c.addi	sp,-32
    122e:	ce06                	c.swsp	ra,28(sp)
    1230:	c602                	c.swsp	zero,12(sp)
    1232:	7d047073          	csrci	mmisc_ctl,8
    1236:	478d                	c.li	a5,3
    1238:	0078                	c.addi4spn	a4,sp,12
    123a:	4681                	c.li	a3,0
    123c:	4601                	c.li	a2,0
    123e:	4581                	c.li	a1,0
    1240:	09f00513          	li	a0,159
    1244:	a84ff0ef          	jal	ra,4c8 <flash_mspi_read_ram>
    1248:	7d046073          	csrsi	mmisc_ctl,8
    124c:	40f2                	c.lwsp	ra,28(sp)
    124e:	4532                	c.lwsp	a0,12(sp)
    1250:	6105                	c.addi16sp	sp,32
    1252:	8082                	c.jr	ra

00001254 <flash_read_mid_uid_with_check>:
    1254:	801f978b          	addigp	a5,-2048 # 80000 <_DATA_VMA_START>
    1258:	4798                	c.lw	a4,8(a5)
    125a:	4390                	c.lw	a2,0(a5)
    125c:	43d4                	c.lw	a3,4(a5)
    125e:	47dc                	c.lw	a5,12(a5)
    1260:	1101                	c.addi	sp,-32
    1262:	cc22                	c.swsp	s0,24(sp)
    1264:	ca26                	c.swsp	s1,20(sp)
    1266:	842a                	c.mv	s0,a0
    1268:	c43a                	c.swsp	a4,8(sp)
    126a:	c63e                	c.swsp	a5,12(sp)
    126c:	ce06                	c.swsp	ra,28(sp)
    126e:	84ae                	c.mv	s1,a1
    1270:	c032                	c.swsp	a2,0(sp)
    1272:	c236                	c.swsp	a3,4(sp)
    1274:	fb9ff0ef          	jal	ra,122c <flash_read_mid>
    1278:	77c1                	c.lui	a5,0xffff0
    127a:	17fd                	c.addi	a5,-1
    127c:	00146737          	lui	a4,0x146
    1280:	c008                	c.sw	a0,0(s0)
    1282:	8fe9                	c.and	a5,a0
    1284:	08570713          	addi	a4,a4,133 # 146085 <FLASH_SIZE+0x46085>
    1288:	02e78063          	beq	a5,a4,12a8 <flash_read_mid_uid_with_check+0x54>
    128c:	00166737          	lui	a4,0x166
    1290:	08570713          	addi	a4,a4,133 # 166085 <FLASH_SIZE+0x66085>
    1294:	4781                	c.li	a5,0
    1296:	00e50963          	beq	a0,a4,12a8 <flash_read_mid_uid_with_check+0x54>
    129a:	40f2                	c.lwsp	ra,28(sp)
    129c:	4462                	c.lwsp	s0,24(sp)
    129e:	44d2                	c.lwsp	s1,20(sp)
    12a0:	853e                	c.mv	a0,a5
    12a2:	6105                	c.addi16sp	sp,32
    12a4:	00008067          	ret
    12a8:	8526                	c.mv	a0,s1
    12aa:	3fa9                	c.jal	1204 <flash_read_uid.constprop.6>
    12ac:	0004c783          	lbu	a5,0(s1)
    12b0:	00014603          	lbu	a2,0(sp)
    12b4:	0014c683          	lbu	a3,1(s1)
    12b8:	00114703          	lbu	a4,1(sp)
    12bc:	8f91                	c.sub	a5,a2
    12be:	0017b793          	seqz	a5,a5
    12c2:	00e69363          	bne	a3,a4,12c8 <flash_read_mid_uid_with_check+0x74>
    12c6:	0785                	c.addi	a5,1
    12c8:	0024c683          	lbu	a3,2(s1)
    12cc:	00214703          	lbu	a4,2(sp)
    12d0:	00e69463          	bne	a3,a4,12d8 <flash_read_mid_uid_with_check+0x84>
    12d4:	00178793          	addi	a5,a5,1 # ffff0001 <_DATA_LMA_START+0xdffecdd9>
    12d8:	0034c683          	lbu	a3,3(s1)
    12dc:	00314703          	lbu	a4,3(sp)
    12e0:	00e69463          	bne	a3,a4,12e8 <flash_read_mid_uid_with_check+0x94>
    12e4:	00178793          	addi	a5,a5,1
    12e8:	0044c683          	lbu	a3,4(s1)
    12ec:	00414703          	lbu	a4,4(sp)
    12f0:	00e69463          	bne	a3,a4,12f8 <flash_read_mid_uid_with_check+0xa4>
    12f4:	00178793          	addi	a5,a5,1
    12f8:	0054c683          	lbu	a3,5(s1)
    12fc:	00514703          	lbu	a4,5(sp)
    1300:	00e69463          	bne	a3,a4,1308 <flash_read_mid_uid_with_check+0xb4>
    1304:	00178793          	addi	a5,a5,1
    1308:	0064c683          	lbu	a3,6(s1)
    130c:	00614703          	lbu	a4,6(sp)
    1310:	00e69463          	bne	a3,a4,1318 <flash_read_mid_uid_with_check+0xc4>
    1314:	00178793          	addi	a5,a5,1
    1318:	0074c683          	lbu	a3,7(s1)
    131c:	00714703          	lbu	a4,7(sp)
    1320:	00e69463          	bne	a3,a4,1328 <flash_read_mid_uid_with_check+0xd4>
    1324:	00178793          	addi	a5,a5,1
    1328:	0084c683          	lbu	a3,8(s1)
    132c:	00814703          	lbu	a4,8(sp)
    1330:	00e69463          	bne	a3,a4,1338 <flash_read_mid_uid_with_check+0xe4>
    1334:	00178793          	addi	a5,a5,1
    1338:	0094c683          	lbu	a3,9(s1)
    133c:	00914703          	lbu	a4,9(sp)
    1340:	00e69463          	bne	a3,a4,1348 <flash_read_mid_uid_with_check+0xf4>
    1344:	00178793          	addi	a5,a5,1
    1348:	00a4c683          	lbu	a3,10(s1)
    134c:	00a14703          	lbu	a4,10(sp)
    1350:	00e69463          	bne	a3,a4,1358 <flash_read_mid_uid_with_check+0x104>
    1354:	00178793          	addi	a5,a5,1
    1358:	00b4c683          	lbu	a3,11(s1)
    135c:	00b14703          	lbu	a4,11(sp)
    1360:	00e69463          	bne	a3,a4,1368 <flash_read_mid_uid_with_check+0x114>
    1364:	00178793          	addi	a5,a5,1
    1368:	00c4c683          	lbu	a3,12(s1)
    136c:	00c14703          	lbu	a4,12(sp)
    1370:	00e69463          	bne	a3,a4,1378 <flash_read_mid_uid_with_check+0x124>
    1374:	00178793          	addi	a5,a5,1
    1378:	00d4c683          	lbu	a3,13(s1)
    137c:	00d14703          	lbu	a4,13(sp)
    1380:	00e69463          	bne	a3,a4,1388 <flash_read_mid_uid_with_check+0x134>
    1384:	00178793          	addi	a5,a5,1
    1388:	00e4c683          	lbu	a3,14(s1)
    138c:	00e14703          	lbu	a4,14(sp)
    1390:	00e69463          	bne	a3,a4,1398 <flash_read_mid_uid_with_check+0x144>
    1394:	00178793          	addi	a5,a5,1
    1398:	00f14683          	lbu	a3,15(sp)
    139c:	00f4c703          	lbu	a4,15(s1)
    13a0:	00e69463          	bne	a3,a4,13a8 <flash_read_mid_uid_with_check+0x154>
    13a4:	00178793          	addi	a5,a5,1
    13a8:	40f2                	c.lwsp	ra,28(sp)
    13aa:	4462                	c.lwsp	s0,24(sp)
    13ac:	17c1                	c.addi	a5,-16
    13ae:	00f037b3          	snez	a5,a5
    13b2:	44d2                	c.lwsp	s1,20(sp)
    13b4:	853e                	c.mv	a0,a5
    13b6:	6105                	c.addi16sp	sp,32
    13b8:	00008067          	ret

000013bc <flash_dread>:
    13bc:	1141                	c.addi	sp,-16
    13be:	c606                	c.swsp	ra,12(sp)
    13c0:	87b2                	c.mv	a5,a2
    13c2:	7d047073          	csrci	mmisc_ctl,8
    13c6:	862e                	c.mv	a2,a1
    13c8:	00f005b3          	add	a1,zero,a5
    13cc:	a7cff0ef          	jal	ra,648 <flash_mspi_read_ram.constprop.7>
    13d0:	7d046073          	csrsi	mmisc_ctl,8
    13d4:	40b2                	c.lwsp	ra,12(sp)
    13d6:	0141                	c.addi	sp,16
    13d8:	00008067          	ret

000013dc <clock_init.constprop.10>:
    13dc:	1141                	c.addi	sp,-16
    13de:	c606                	c.swsp	ra,12(sp)
    13e0:	7d047073          	csrci	mmisc_ctl,8
    13e4:	c40ff0ef          	jal	ra,824 <clock_init_ram.constprop.11>
    13e8:	7d046073          	csrsi	mmisc_ctl,8
    13ec:	40b2                	c.lwsp	ra,12(sp)
    13ee:	0141                	c.addi	sp,16
    13f0:	00008067          	ret

000013f4 <pm_sleep_wakeup.constprop.2>:
    13f4:	1141                	c.addi	sp,-16
    13f6:	c606                	c.swsp	ra,12(sp)
    13f8:	7d047073          	csrci	mmisc_ctl,8
    13fc:	8d1ff0ef          	jal	ra,ccc <pm_sleep_wakeup_ram.constprop.3>
    1400:	7d046073          	csrsi	mmisc_ctl,8
    1404:	40b2                	c.lwsp	ra,12(sp)
    1406:	0141                	c.addi	sp,16
    1408:	8082                	c.jr	ra
    140a:	0001                	c.nop

0000140c <user_calib_adc_vref.constprop.9>:
    140c:	1101                	c.addi	sp,-32
    140e:	ce06                	c.swsp	ra,28(sp)
    1410:	c402                	c.swsp	zero,8(sp)
    1412:	00011623          	sh	zero,12(sp)
    1416:	00010723          	sb	zero,14(sp)
    141a:	c54d                	c.beqz	a0,14c4 <user_calib_adc_vref.constprop.9+0xb8>
    141c:	000007b7          	lui	a5,0x0
    1420:	1587a783          	lw	a5,344(a5) # 158 <_AES_VMA_END>
    1424:	0030                	c.addi4spn	a2,sp,8
    1426:	459d                	c.li	a1,7
    1428:	9782                	c.jalr	a5
    142a:	00c14783          	lbu	a5,12(sp)
    142e:	1c07b75b          	bfos	a4,a5,7,0
    1432:	04074163          	bltz	a4,1474 <user_calib_adc_vref.constprop.9+0x68>
    1436:	00e14703          	lbu	a4,14(sp)
    143a:	00d14603          	lbu	a2,13(sp)
    143e:	0722                	c.slli	a4,0x8
    1440:	66c1                	c.lui	a3,0x10
    1442:	00c705b3          	add	a1,a4,a2
    1446:	16fd                	c.addi	a3,-1
    1448:	02d58663          	beq	a1,a3,1474 <user_calib_adc_vref.constprop.9+0x68>
    144c:	fd060613          	addi	a2,a2,-48
    1450:	9732                	c.add	a4,a2
    1452:	3c07275b          	bfoz	a4,a4,15,0
    1456:	0fb00693          	li	a3,251
    145a:	08e6e563          	bltu	a3,a4,14e4 <user_calib_adc_vref.constprop.9+0xd8>
    145e:	17b1                	c.addi	a5,-20
    1460:	1c07b7db          	bfos	a5,a5,7,0
    1464:	5731                	c.li	a4,-20
    1466:	06e78f63          	beq	a5,a4,14e4 <user_calib_adc_vref.constprop.9+0xd8>
    146a:	f9578513          	addi	a0,a5,-107
    146e:	00a03533          	snez	a0,a0
    1472:	a89d                	c.j	14e8 <user_calib_adc_vref.constprop.9+0xdc>
    1474:	801407b7          	lui	a5,0x80140
    1478:	06500713          	li	a4,101
    147c:	1ee78a23          	sb	a4,500(a5) # 801401f4 <_DATA_LMA_START+0x6013cfcc>
    1480:	1c87a703          	lw	a4,456(a5)
    1484:	1e078a23          	sb	zero,500(a5)
    1488:	4c47275b          	bfoz	a4,a4,19,4
    148c:	380727db          	bfoz	a5,a4,14,0
    1490:	06078063          	beqz	a5,14f0 <user_calib_adc_vref.constprop.9+0xe4>
    1494:	1ff77713          	andi	a4,a4,511
    1498:	f9b70713          	addi	a4,a4,-101
    149c:	3c07275b          	bfoz	a4,a4,15,0
    14a0:	0c600693          	li	a3,198
    14a4:	04e6e063          	bltu	a3,a4,14e4 <user_calib_adc_vref.constprop.9+0xd8>
    14a8:	0097d513          	srli	a0,a5,0x9
    14ac:	1531                	c.addi	a0,-20
    14ae:	1c05355b          	bfos	a0,a0,7,0
    14b2:	57b1                	c.li	a5,-20
    14b4:	02f50863          	beq	a0,a5,14e4 <user_calib_adc_vref.constprop.9+0xd8>
    14b8:	fd550513          	addi	a0,a0,-43 # 3fffffd5 <_DATA_LMA_START+0x1fffcdad>
    14bc:	00a03533          	snez	a0,a0
    14c0:	0280006f          	j	14e8 <user_calib_adc_vref.constprop.9+0xdc>
    14c4:	801407b7          	lui	a5,0x80140
    14c8:	06500713          	li	a4,101
    14cc:	1ee78a23          	sb	a4,500(a5) # 801401f4 <_DATA_LMA_START+0x6013cfcc>
    14d0:	1c87a703          	lw	a4,456(a5)
    14d4:	1e078a23          	sb	zero,500(a5)
    14d8:	4c47275b          	bfoz	a4,a4,19,4
    14dc:	380727db          	bfoz	a5,a4,14,0
    14e0:	fa079ae3          	bnez	a5,1494 <user_calib_adc_vref.constprop.9+0x88>
    14e4:	00000513          	li	a0,0
    14e8:	40f2                	c.lwsp	ra,28(sp)
    14ea:	6105                	c.addi16sp	sp,32
    14ec:	00008067          	ret
    14f0:	00814503          	lbu	a0,8(sp)
    14f4:	00914783          	lbu	a5,9(sp)
    14f8:	953e                	c.add	a0,a5
    14fa:	f8050513          	addi	a0,a0,-128
    14fe:	3c05255b          	bfoz	a0,a0,15,0
    1502:	0fc53513          	sltiu	a0,a0,252
    1506:	b7cd                	c.j	14e8 <user_calib_adc_vref.constprop.9+0xdc>

00001508 <user_calib_freq_offset.constprop.8>:
    1508:	000007b7          	lui	a5,0x0
    150c:	1101                	c.addi	sp,-32
    150e:	1587a783          	lw	a5,344(a5) # 158 <_AES_VMA_END>
    1512:	577d                	c.li	a4,-1
    1514:	00f10613          	addi	a2,sp,15
    1518:	4585                	c.li	a1,1
    151a:	cc22                	c.swsp	s0,24(sp)
    151c:	ce06                	c.swsp	ra,28(sp)
    151e:	00e107a3          	sb	a4,15(sp)
    1522:	9782                	c.jalr	a5
    1524:	00f14403          	lbu	s0,15(sp)
    1528:	0ff00793          	li	a5,255
    152c:	00000513          	li	a0,0
    1530:	02f40263          	beq	s0,a5,1554 <user_calib_freq_offset.constprop.8+0x4c>
    1534:	08a00513          	li	a0,138
    1538:	aa0ff0ef          	jal	ra,7d8 <analog_read_reg8>
    153c:	03f47413          	andi	s0,s0,63
    1540:	04057593          	andi	a1,a0,64
    1544:	0085e5b3          	or	a1,a1,s0
    1548:	08a00513          	li	a0,138
    154c:	a48ff0ef          	jal	ra,794 <analog_write_reg8>
    1550:	00100513          	li	a0,1
    1554:	40f2                	c.lwsp	ra,28(sp)
    1556:	4462                	c.lwsp	s0,24(sp)
    1558:	6105                	c.addi16sp	sp,32
    155a:	8082                	c.jr	ra
    155c:	0001                	c.nop
	...

00001560 <gpio_input_dis>:
    1560:	801407b7          	lui	a5,0x80140
    1564:	30978703          	lb	a4,777(a5) # 80140309 <_DATA_LMA_START+0x6013d0e1>
    1568:	fff54513          	not	a0,a0
    156c:	8d79                	c.and	a0,a4
    156e:	0ff57513          	andi	a0,a0,255
    1572:	30a784a3          	sb	a0,777(a5)
    1576:	8082                	c.jr	ra
    1578:	0001                	c.nop
	...

0000157c <avgpooling_riscv_avgpool_s8>:
    157c:	7129                	c.addi16sp	sp,-320
    157e:	13212823          	sw	s2,304(sp)
    1582:	05c10913          	addi	s2,sp,92
    1586:	0b400613          	li	a2,180
    158a:	4581                	c.li	a1,0
    158c:	01200533          	add	a0,zero,s2
    1590:	12112e23          	sw	ra,316(sp)
    1594:	12812c23          	sw	s0,312(sp)
    1598:	12912a23          	sw	s1,308(sp)
    159c:	13312623          	sw	s3,300(sp)
    15a0:	13412423          	sw	s4,296(sp)
    15a4:	13512223          	sw	s5,292(sp)
    15a8:	13612023          	sw	s6,288(sp)
    15ac:	11712e23          	sw	s7,284(sp)
    15b0:	427000ef          	jal	ra,21d6 <memset>
    15b4:	4785                	c.li	a5,1
    15b6:	da3e                	c.swsp	a5,52(sp)
    15b8:	c6be                	c.swsp	a5,76(sp)
    15ba:	c8be                	c.swsp	a5,80(sp)
    15bc:	4859                	c.li	a6,22
    15be:	47a5                	c.li	a5,9
    15c0:	de42                	c.swsp	a6,60(sp)
    15c2:	c2be                	c.swsp	a5,68(sp)
    15c4:	4831                	c.li	a6,12
    15c6:	f8000793          	li	a5,-128
    15ca:	46d1                	c.li	a3,20
    15cc:	4715                	c.li	a4,5
    15ce:	460d                	c.li	a2,3
    15d0:	45d1                	c.li	a1,20
    15d2:	dc42                	c.swsp	a6,56(sp)
    15d4:	cabe                	c.swsp	a5,84(sp)
    15d6:	4819                	c.li	a6,6
    15d8:	07f00793          	li	a5,127
    15dc:	450d                	c.li	a0,3
    15de:	c0b6                	c.swsp	a3,64(sp)
    15e0:	d642                	c.swsp	a6,44(sp)
    15e2:	d43a                	c.swsp	a4,40(sp)
    15e4:	ce32                	c.swsp	a2,28(sp)
    15e6:	cc32                	c.swsp	a2,24(sp)
    15e8:	d036                	c.swsp	a3,32(sp)
    15ea:	c4ba                	c.swsp	a4,72(sp)
    15ec:	04f12c23          	sw	a5,88(sp)
    15f0:	740000ef          	jal	ra,1d30 <riscv_avgpool_s8_get_buffer_size>
    15f4:	00a12823          	sw	a0,16(sp)
    15f8:	3bf000ef          	jal	ra,21b6 <malloc>
    15fc:	c62a                	c.swsp	a0,12(sp)
    15fe:	b0005073          	csrwi	mcycle,0
    1602:	b0002b73          	csrr	s6,mcycle
    1606:	884a                	c.mv	a6,s2
    1608:	085c                	c.addi4spn	a5,sp,20
    160a:	1058                	c.addi4spn	a4,sp,36
    160c:	811f968b          	addigp	a3,-2032 # 80010 <avgpooling_input_tensor>
    1610:	1850                	c.addi4spn	a2,sp,52
    1612:	00cc                	c.addi4spn	a1,sp,68
    1614:	00c10513          	addi	a0,sp,12
    1618:	720000ef          	jal	ra,1d38 <riscv_avgpool_s8>
    161c:	b0002bf3          	csrr	s7,mcycle
    1620:	4532                	c.lwsp	a0,12(sp)
    1622:	c909                	c.beqz	a0,1634 <avgpooling_riscv_avgpool_s8+0xb8>
    1624:	4642                	c.lwsp	a2,16(sp)
    1626:	4581                	c.li	a1,0
    1628:	3af000ef          	jal	ra,21d6 <memset>
    162c:	00c12503          	lw	a0,12(sp)
    1630:	397000ef          	jal	ra,21c6 <free>
    1634:	1fc2148b          	addigp	s1,4604 # 819fc <avgpooling_output>
    1638:	11010a93          	addi	s5,sp,272
    163c:	844a                	c.mv	s0,s2
    163e:	4805                	c.li	a6,1
    1640:	00000993          	li	s3,0
    1644:	00082a37          	lui	s4,0x82
    1648:	00040703          	lb	a4,0(s0)
    164c:	00048783          	lb	a5,0(s1)
    1650:	412405b3          	sub	a1,s0,s2
    1654:	863a                	c.mv	a2,a4
    1656:	86be                	c.mv	a3,a5
    1658:	ab0a0513          	addi	a0,s4,-1360 # 81ab0 <avgpooling_output+0xb4>
    165c:	00140413          	addi	s0,s0,1
    1660:	00f70663          	beq	a4,a5,166c <avgpooling_riscv_avgpool_s8+0xf0>
    1664:	55b000ef          	jal	ra,23be <printf>
    1668:	0985                	c.addi	s3,1
    166a:	4801                	c.li	a6,0
    166c:	00148493          	addi	s1,s1,1
    1670:	fd541ce3          	bne	s0,s5,1648 <avgpooling_riscv_avgpool_s8+0xcc>
    1674:	04080463          	beqz	a6,16bc <avgpooling_riscv_avgpool_s8+0x140>
    1678:	00082537          	lui	a0,0x82
    167c:	b1450513          	addi	a0,a0,-1260 # 81b14 <avgpooling_output+0x118>
    1680:	53f000ef          	jal	ra,23be <printf>
    1684:	00082537          	lui	a0,0x82
    1688:	416b85b3          	sub	a1,s7,s6
    168c:	b4050513          	addi	a0,a0,-1216 # 81b40 <avgpooling_output+0x144>
    1690:	52f000ef          	jal	ra,23be <printf>
    1694:	13c12083          	lw	ra,316(sp)
    1698:	13812403          	lw	s0,312(sp)
    169c:	13412483          	lw	s1,308(sp)
    16a0:	13012903          	lw	s2,304(sp)
    16a4:	12c12983          	lw	s3,300(sp)
    16a8:	12812a03          	lw	s4,296(sp)
    16ac:	12412a83          	lw	s5,292(sp)
    16b0:	12012b03          	lw	s6,288(sp)
    16b4:	11c12b83          	lw	s7,284(sp)
    16b8:	6131                	c.addi16sp	sp,320
    16ba:	8082                	c.jr	ra
    16bc:	00082537          	lui	a0,0x82
    16c0:	0b400613          	li	a2,180
    16c4:	013005b3          	add	a1,zero,s3
    16c8:	ad450513          	addi	a0,a0,-1324 # 81ad4 <avgpooling_output+0xd8>
    16cc:	4f3000ef          	jal	ra,23be <printf>
    16d0:	00082537          	lui	a0,0x82
    16d4:	ae850513          	addi	a0,a0,-1304 # 81ae8 <avgpooling_output+0xec>
    16d8:	4e7000ef          	jal	ra,23be <printf>
    16dc:	bf65                	c.j	1694 <avgpooling_riscv_avgpool_s8+0x118>
	...

000016e0 <avgpooling_int16_riscv_avgpool_s16>:
    16e0:	de010113          	addi	sp,sp,-544
    16e4:	19800613          	li	a2,408
    16e8:	4581                	c.li	a1,0
    16ea:	08a8                	c.addi4spn	a0,sp,88
    16ec:	20112e23          	sw	ra,540(sp)
    16f0:	20812c23          	sw	s0,536(sp)
    16f4:	20912a23          	sw	s1,532(sp)
    16f8:	21212823          	sw	s2,528(sp)
    16fc:	21312623          	sw	s3,524(sp)
    1700:	21412423          	sw	s4,520(sp)
    1704:	21512223          	sw	s5,516(sp)
    1708:	21612023          	sw	s6,512(sp)
    170c:	1f712e23          	sw	s7,508(sp)
    1710:	2c7000ef          	jal	ra,21d6 <memset>
    1714:	4785                	c.li	a5,1
    1716:	d83e                	c.swsp	a5,48(sp)
    1718:	c6be                	c.swsp	a5,76(sp)
    171a:	c2be                	c.swsp	a5,68(sp)
    171c:	77e1                	c.lui	a5,0xffff8
    171e:	c8be                	c.swsp	a5,80(sp)
    1720:	67a1                	c.lui	a5,0x8
    1722:	4611                	c.li	a2,4
    1724:	46c5                	c.li	a3,17
    1726:	4709                	c.li	a4,2
    1728:	480d                	c.li	a6,3
    172a:	4899                	c.li	a7,6
    172c:	17fd                	c.addi	a5,-1
    172e:	45c5                	c.li	a1,17
    1730:	450d                	c.li	a0,3
    1732:	dc46                	c.swsp	a7,56(sp)
    1734:	da32                	c.swsp	a2,52(sp)
    1736:	de36                	c.swsp	a3,60(sp)
    1738:	d43a                	c.swsp	a4,40(sp)
    173a:	d242                	c.swsp	a6,36(sp)
    173c:	cc42                	c.swsp	a6,24(sp)
    173e:	ca32                	c.swsp	a2,20(sp)
    1740:	ce36                	c.swsp	a3,28(sp)
    1742:	c0ba                	c.swsp	a4,64(sp)
    1744:	cabe                	c.swsp	a5,84(sp)
    1746:	c482                	c.swsp	zero,72(sp)
    1748:	5e0000ef          	jal	ra,1d28 <riscv_avgpool_s16_get_buffer_size>
    174c:	00a12623          	sw	a0,12(sp)
    1750:	267000ef          	jal	ra,21b6 <malloc>
    1754:	c42a                	c.swsp	a0,8(sp)
    1756:	b0005073          	csrwi	mcycle,0
    175a:	b0002b73          	csrr	s6,mcycle
    175e:	05810813          	addi	a6,sp,88
    1762:	081c                	c.addi4spn	a5,sp,16
    1764:	1018                	c.addi4spn	a4,sp,32
    1766:	4b10168b          	addigp	a3,3248 # 814b0 <avgpooling_int16_input_tensor>
    176a:	1810                	c.addi4spn	a2,sp,48
    176c:	008c                	c.addi4spn	a1,sp,64
    176e:	0028                	c.addi4spn	a0,sp,8
    1770:	01d000ef          	jal	ra,1f8c <riscv_avgpool_s16>
    1774:	b0002bf3          	csrr	s7,mcycle
    1778:	4522                	c.lwsp	a0,8(sp)
    177a:	c909                	c.beqz	a0,178c <avgpooling_int16_riscv_avgpool_s16+0xac>
    177c:	4632                	c.lwsp	a2,12(sp)
    177e:	4581                	c.li	a1,0
    1780:	257000ef          	jal	ra,21d6 <memset>
    1784:	00812503          	lw	a0,8(sp)
    1788:	23f000ef          	jal	ra,21c6 <free>
    178c:	08a4                	c.addi4spn	s1,sp,88
    178e:	7e10190b          	addigp	s2,4064 # 817e0 <avgpooling_int16_output>
    1792:	4885                	c.li	a7,1
    1794:	4981                	c.li	s3,0
    1796:	4401                	c.li	s0,0
    1798:	00082ab7          	lui	s5,0x82
    179c:	0cc00a13          	li	s4,204
    17a0:	00049803          	lh	a6,0(s1)
    17a4:	00091703          	lh	a4,0(s2)
    17a8:	85a2                	c.mv	a1,s0
    17aa:	86ba                	c.mv	a3,a4
    17ac:	8642                	c.mv	a2,a6
    17ae:	ab0a8513          	addi	a0,s5,-1360 # 81ab0 <avgpooling_output+0xb4>
    17b2:	0405                	c.addi	s0,1
    17b4:	00e80663          	beq	a6,a4,17c0 <avgpooling_int16_riscv_avgpool_s16+0xe0>
    17b8:	407000ef          	jal	ra,23be <printf>
    17bc:	0985                	c.addi	s3,1
    17be:	4881                	c.li	a7,0
    17c0:	0489                	c.addi	s1,2
    17c2:	0909                	c.addi	s2,2
    17c4:	fd441ee3          	bne	s0,s4,17a0 <avgpooling_int16_riscv_avgpool_s16+0xc0>
    17c8:	04088663          	beqz	a7,1814 <avgpooling_int16_riscv_avgpool_s16+0x134>
    17cc:	00082537          	lui	a0,0x82
    17d0:	9a850513          	addi	a0,a0,-1624 # 819a8 <avgpooling_int16_output+0x1c8>
    17d4:	3eb000ef          	jal	ra,23be <printf>
    17d8:	00082537          	lui	a0,0x82
    17dc:	416b85b3          	sub	a1,s7,s6
    17e0:	9d850513          	addi	a0,a0,-1576 # 819d8 <avgpooling_int16_output+0x1f8>
    17e4:	3db000ef          	jal	ra,23be <printf>
    17e8:	21c12083          	lw	ra,540(sp)
    17ec:	21812403          	lw	s0,536(sp)
    17f0:	21412483          	lw	s1,532(sp)
    17f4:	21012903          	lw	s2,528(sp)
    17f8:	20c12983          	lw	s3,524(sp)
    17fc:	20812a03          	lw	s4,520(sp)
    1800:	20412a83          	lw	s5,516(sp)
    1804:	20012b03          	lw	s6,512(sp)
    1808:	1fc12b83          	lw	s7,508(sp)
    180c:	22010113          	addi	sp,sp,544
    1810:	00008067          	ret
    1814:	00082537          	lui	a0,0x82
    1818:	0cc00613          	li	a2,204
    181c:	013005b3          	add	a1,zero,s3
    1820:	ad450513          	addi	a0,a0,-1324 # 81ad4 <avgpooling_output+0xd8>
    1824:	39b000ef          	jal	ra,23be <printf>
    1828:	00082537          	lui	a0,0x82
    182c:	97850513          	addi	a0,a0,-1672 # 81978 <avgpooling_int16_output+0x198>
    1830:	38f000ef          	jal	ra,23be <printf>
    1834:	bf55                	c.j	17e8 <avgpooling_int16_riscv_avgpool_s16+0x108>
    1836:	0001                	c.nop

00001838 <_write>:
    1838:	1141                	c.addi	sp,-16
    183a:	c606                	c.swsp	ra,12(sp)
    183c:	c422                	c.swsp	s0,8(sp)
    183e:	c226                	c.swsp	s1,4(sp)
    1840:	c04a                	c.swsp	s2,0(sp)
    1842:	02c05763          	blez	a2,1870 <_write+0x38>
    1846:	8932                	c.mv	s2,a2
    1848:	00b00433          	add	s0,zero,a1
    184c:	00c584b3          	add	s1,a1,a2
    1850:	00044503          	lbu	a0,0(s0)
    1854:	00140413          	addi	s0,s0,1
    1858:	b54ff0ef          	jal	ra,bac <dr_putchar>
    185c:	fe941ae3          	bne	s0,s1,1850 <_write+0x18>
    1860:	40b2                	c.lwsp	ra,12(sp)
    1862:	4422                	c.lwsp	s0,8(sp)
    1864:	854a                	c.mv	a0,s2
    1866:	4492                	c.lwsp	s1,4(sp)
    1868:	4902                	c.lwsp	s2,0(sp)
    186a:	0141                	c.addi	sp,16
    186c:	00008067          	ret
    1870:	40b2                	c.lwsp	ra,12(sp)
    1872:	4422                	c.lwsp	s0,8(sp)
    1874:	4901                	c.li	s2,0
    1876:	854a                	c.mv	a0,s2
    1878:	4492                	c.lwsp	s1,4(sp)
    187a:	4902                	c.lwsp	s2,0(sp)
    187c:	0141                	c.addi	sp,16
    187e:	8082                	c.jr	ra

00001880 <main>:
    1880:	7179                	c.addi16sp	sp,-48
    1882:	ffbc07b7          	lui	a5,0xffbc0
    1886:	d606                	c.swsp	ra,44(sp)
    1888:	17fd                	c.addi	a5,-1
    188a:	80140737          	lui	a4,0x80140
    188e:	d422                	c.swsp	s0,40(sp)
    1890:	d226                	c.swsp	s1,36(sp)
    1892:	1ef72023          	sw	a5,480(a4) # 801401e0 <_DATA_LMA_START+0x6013cfb8>
    1896:	4589                	c.li	a1,2
    1898:	08c00513          	li	a0,140
    189c:	1ef72223          	sw	a5,484(a4)
    18a0:	ef5fe0ef          	jal	ra,794 <analog_write_reg8>
    18a4:	4581                	c.li	a1,0
    18a6:	4529                	c.li	a0,10
    18a8:	eedfe0ef          	jal	ra,794 <analog_write_reg8>
    18ac:	03b00593          	li	a1,59
    18b0:	00b00513          	li	a0,11
    18b4:	ee1fe0ef          	jal	ra,794 <analog_write_reg8>
    18b8:	00500513          	li	a0,5
    18bc:	f1dfe0ef          	jal	ra,7d8 <analog_read_reg8>
    18c0:	0f757593          	andi	a1,a0,247
    18c4:	00500513          	li	a0,5
    18c8:	ecdfe0ef          	jal	ra,794 <analog_write_reg8>
    18cc:	00600513          	li	a0,6
    18d0:	f09fe0ef          	jal	ra,7d8 <analog_read_reg8>
    18d4:	03e57593          	andi	a1,a0,62
    18d8:	00600513          	li	a0,6
    18dc:	eb9fe0ef          	jal	ra,794 <analog_write_reg8>
    18e0:	04500593          	li	a1,69
    18e4:	00100513          	li	a0,1
    18e8:	eadfe0ef          	jal	ra,794 <analog_write_reg8>
    18ec:	04c00593          	li	a1,76
    18f0:	01c00513          	li	a0,28
    18f4:	ea1fe0ef          	jal	ra,794 <analog_write_reg8>
    18f8:	801007b7          	lui	a5,0x80100
    18fc:	44478703          	lb	a4,1092(a5) # 80100444 <_DATA_LMA_START+0x600fd21c>
    1900:	801016b7          	lui	a3,0x80101
    1904:	0ff77713          	andi	a4,a4,255
    1908:	00e76713          	ori	a4,a4,14
    190c:	44e78223          	sb	a4,1092(a5)
    1910:	45878703          	lb	a4,1112(a5)
    1914:	03800513          	li	a0,56
    1918:	0ff77713          	andi	a4,a4,255
    191c:	00e76713          	ori	a4,a4,14
    1920:	44e78c23          	sb	a4,1112(a5)
    1924:	46c78703          	lb	a4,1132(a5)
    1928:	0ff77713          	andi	a4,a4,255
    192c:	00e76713          	ori	a4,a4,14
    1930:	46e78623          	sb	a4,1132(a5)
    1934:	48078703          	lb	a4,1152(a5)
    1938:	0ff77713          	andi	a4,a4,255
    193c:	00e76713          	ori	a4,a4,14
    1940:	48e78023          	sb	a4,1152(a5)
    1944:	49478703          	lb	a4,1172(a5)
    1948:	0ff77713          	andi	a4,a4,255
    194c:	00e76713          	ori	a4,a4,14
    1950:	48e78a23          	sb	a4,1172(a5)
    1954:	4a878703          	lb	a4,1192(a5)
    1958:	0ff77713          	andi	a4,a4,255
    195c:	00e76713          	ori	a4,a4,14
    1960:	4ae78423          	sb	a4,1192(a5)
    1964:	4bc78703          	lb	a4,1212(a5)
    1968:	0ff77713          	andi	a4,a4,255
    196c:	00e76713          	ori	a4,a4,14
    1970:	4ae78e23          	sb	a4,1212(a5)
    1974:	4d078703          	lb	a4,1232(a5)
    1978:	0ff77713          	andi	a4,a4,255
    197c:	00e76713          	ori	a4,a4,14
    1980:	4ce78823          	sb	a4,1232(a5)
    1984:	83a68783          	lb	a5,-1990(a3) # 8010083a <_DATA_LMA_START+0x600fd612>
    1988:	82068d23          	sb	zero,-1990(a3)
    198c:	e4dfe0ef          	jal	ra,7d8 <analog_read_reg8>
    1990:	00a00433          	add	s0,zero,a0
    1994:	03900513          	li	a0,57
    1998:	e41fe0ef          	jal	ra,7d8 <analog_read_reg8>
    199c:	84aa                	c.mv	s1,a0
    199e:	2a047d5b          	bbc	s0,0,1c58 <main+0x3d8>
    19a2:	0fe47593          	andi	a1,s0,254
    19a6:	4802140b          	addigp	s0,5248 # 81c80 <g_pm_status_info>
    19aa:	03800513          	li	a0,56
    19ae:	2804f55b          	bbc	s1,0,1c38 <main+0x3b8>
    19b2:	4791                	c.li	a5,4
    19b4:	00f40123          	sb	a5,2(s0)
    19b8:	dddfe0ef          	jal	ra,794 <analog_write_reg8>
    19bc:	00100593          	li	a1,1
    19c0:	07f00513          	li	a0,127
    19c4:	dd1fe0ef          	jal	ra,794 <analog_write_reg8>
    19c8:	06400513          	li	a0,100
    19cc:	e0dfe0ef          	jal	ra,7d8 <analog_read_reg8>
    19d0:	0c3527db          	bfoz	a5,a0,3,3
    19d4:	00a400a3          	sb	a0,1(s0)
    19d8:	00f40023          	sb	a5,0(s0)
    19dc:	08800513          	li	a0,136
    19e0:	df9fe0ef          	jal	ra,7d8 <analog_read_reg8>
    19e4:	be757c5b          	bbc	a0,7,19dc <main+0x15c>
    19e8:	f7dfe0ef          	jal	ra,964 <pm_wait_bbpll_done>
    19ec:	00244783          	lbu	a5,2(s0)
    19f0:	0a87de5b          	beqc	a5,8,1aac <main+0x22c>
    19f4:	80140737          	lui	a4,0x80140
    19f8:	20a70783          	lb	a5,522(a4) # 8014020a <_DATA_LMA_START+0x6013cfe2>
    19fc:	0ff7f793          	andi	a5,a5,255
    1a00:	00c7e793          	ori	a5,a5,12
    1a04:	20f70523          	sb	a5,522(a4)
    1a08:	00100793          	li	a5,1
    1a0c:	20f72023          	sw	a5,512(a4)
    1a10:	801404b7          	lui	s1,0x80140
    1a14:	1fd48783          	lb	a5,509(s1) # 801401fd <_DATA_LMA_START+0x6013cfd5>
    1a18:	0ff7f793          	andi	a5,a5,255
    1a1c:	46f24e2b          	swgp	a5,5244 # 81c7c <g_chip_version>
    1a20:	00244703          	lbu	a4,2(s0)
    1a24:	04475c5b          	beqc	a4,4,1a7c <main+0x1fc>
    1a28:	0ff00693          	li	a3,255
    1a2c:	04d78063          	beq	a5,a3,1a6c <main+0x1ec>
    1a30:	08000593          	li	a1,128
    1a34:	07d00513          	li	a0,125
    1a38:	d5dfe0ef          	jal	ra,794 <analog_write_reg8>
    1a3c:	80140737          	lui	a4,0x80140
    1a40:	06500793          	li	a5,101
    1a44:	1ef70a23          	sb	a5,500(a4) # 801401f4 <_DATA_LMA_START+0x6013cfcc>
    1a48:	1c872783          	lw	a5,456(a4)
    1a4c:	1e070a23          	sb	zero,500(a4)
    1a50:	8bbd                	c.andi	a5,15
    1a52:	0037d55b          	beqc	a5,3,1a5c <main+0x1dc>
    1a56:	4725                	c.li	a4,9
    1a58:	04f77e63          	bgeu	a4,a5,1ab4 <main+0x234>
    1a5c:	801407b7          	lui	a5,0x80140
    1a60:	02000713          	li	a4,32
    1a64:	1ee787a3          	sb	a4,495(a5) # 801401ef <_DATA_LMA_START+0x6013cfc7>
    1a68:	0000006f          	j	1a68 <main+0x1e8>
    1a6c:	bc17625b          	bnec	a4,1,1a30 <main+0x1b0>
    1a70:	07d00513          	li	a0,125
    1a74:	08000593          	li	a1,128
    1a78:	0180006f          	j	1a90 <main+0x210>
    1a7c:	03900513          	li	a0,57
    1a80:	d59fe0ef          	jal	ra,7d8 <analog_read_reg8>
    1a84:	00256593          	ori	a1,a0,2
    1a88:	0ff5f593          	andi	a1,a1,255
    1a8c:	03900513          	li	a0,57
    1a90:	d05fe0ef          	jal	ra,794 <analog_write_reg8>
    1a94:	2004a503          	lw	a0,512(s1)
    1a98:	001877b7          	lui	a5,0x187
    1a9c:	a0078793          	addi	a5,a5,-1536 # 186a00 <FLASH_SIZE+0x86a00>
    1aa0:	00f50533          	add	a0,a0,a5
    1aa4:	951ff0ef          	jal	ra,13f4 <pm_sleep_wakeup.constprop.2>
    1aa8:	f89ff06f          	j	1a30 <main+0x1b0>
    1aac:	8d1fe0ef          	jal	ra,37c <pm_stimer_recover>
    1ab0:	f61ff06f          	j	1a10 <main+0x190>
    1ab4:	00f00513          	li	a0,15
    1ab8:	d21fe0ef          	jal	ra,7d8 <analog_read_reg8>
    1abc:	03f57593          	andi	a1,a0,63
    1ac0:	0405e593          	ori	a1,a1,64
    1ac4:	00f00513          	li	a0,15
    1ac8:	ccdfe0ef          	jal	ra,794 <analog_write_reg8>
    1acc:	080c                	c.addi4spn	a1,sp,16
    1ace:	0068                	c.addi4spn	a0,sp,12
    1ad0:	f84ff0ef          	jal	ra,1254 <flash_read_mid_uid_with_check>
    1ad4:	0ff57513          	andi	a0,a0,255
    1ad8:	2215625b          	bnec	a0,1,1cfc <main+0x47c>
    1adc:	00e14783          	lbu	a5,14(sp)
    1ae0:	474d                	c.li	a4,19
    1ae2:	2137d15b          	beqc	a5,19,1ce4 <main+0x464>
    1ae6:	1cf77f63          	bgeu	a4,a5,1cc4 <main+0x444>
    1aea:	4755                	c.li	a4,21
    1aec:	1d57d05b          	beqc	a5,21,1cac <main+0x42c>
    1af0:	18e7e263          	bltu	a5,a4,1c74 <main+0x3f4>
    1af4:	2167e45b          	bnec	a5,22,1cfc <main+0x47c>
    1af8:	003fe537          	lui	a0,0x3fe
    1afc:	0c050513          	addi	a0,a0,192 # 3fe0c0 <FLASH_SIZE+0x2fe0c0>
    1b00:	90dff0ef          	jal	ra,140c <user_calib_adc_vref.constprop.9>
    1b04:	003fe537          	lui	a0,0x3fe
    1b08:	a01ff0ef          	jal	ra,1508 <user_calib_freq_offset.constprop.8>
    1b0c:	80140437          	lui	s0,0x80140
    1b10:	8cdff0ef          	jal	ra,13dc <clock_init.constprop.10>
    1b14:	30e40783          	lb	a5,782(s0) # 8014030e <_DATA_LMA_START+0x6013d0e6>
    1b18:	11000513          	li	a0,272
    1b1c:	0ff7f793          	andi	a5,a5,255
    1b20:	0107e793          	ori	a5,a5,16
    1b24:	30f40723          	sb	a5,782(s0)
    1b28:	30a40783          	lb	a5,778(s0)
    1b2c:	0ef7f793          	andi	a5,a5,239
    1b30:	30f40523          	sb	a5,778(s0)
    1b34:	a2dff0ef          	jal	ra,1560 <gpio_input_dis>
    1b38:	30e40783          	lb	a5,782(s0)
    1b3c:	12000513          	li	a0,288
    1b40:	0ff7f793          	andi	a5,a5,255
    1b44:	0207e793          	ori	a5,a5,32
    1b48:	30f40723          	sb	a5,782(s0)
    1b4c:	30a40783          	lb	a5,778(s0)
    1b50:	0df7f793          	andi	a5,a5,223
    1b54:	30f40523          	sb	a5,778(s0)
    1b58:	a09ff0ef          	jal	ra,1560 <gpio_input_dis>
    1b5c:	30e40783          	lb	a5,782(s0)
    1b60:	14000513          	li	a0,320
    1b64:	0ff7f793          	andi	a5,a5,255
    1b68:	0407e793          	ori	a5,a5,64
    1b6c:	30f40723          	sb	a5,782(s0)
    1b70:	30a40783          	lb	a5,778(s0)
    1b74:	0bf7f793          	andi	a5,a5,191
    1b78:	30f40523          	sb	a5,778(s0)
    1b7c:	9e5ff0ef          	jal	ra,1560 <gpio_input_dis>
    1b80:	30e40783          	lb	a5,782(s0)
    1b84:	18000513          	li	a0,384
    1b88:	f807e793          	ori	a5,a5,-128
    1b8c:	0ff7f793          	andi	a5,a5,255
    1b90:	30f40723          	sb	a5,782(s0)
    1b94:	30a40783          	lb	a5,778(s0)
    1b98:	07f7f793          	andi	a5,a5,127
    1b9c:	30f40523          	sb	a5,778(s0)
    1ba0:	9c1ff0ef          	jal	ra,1560 <gpio_input_dis>
    1ba4:	00082537          	lui	a0,0x82
    1ba8:	b6850513          	addi	a0,a0,-1176 # 81b68 <avgpooling_output+0x16c>
    1bac:	031000ef          	jal	ra,23dc <puts>
    1bb0:	65a9                	c.lui	a1,0xa
    1bb2:	00082537          	lui	a0,0x82
    1bb6:	0585                	c.addi	a1,1
    1bb8:	b6c50513          	addi	a0,a0,-1172 # 81b6c <avgpooling_output+0x170>
    1bbc:	003000ef          	jal	ra,23be <printf>
    1bc0:	00082537          	lui	a0,0x82
    1bc4:	7e400593          	li	a1,2020
    1bc8:	b8450513          	addi	a0,a0,-1148 # 81b84 <avgpooling_output+0x188>
    1bcc:	7f2000ef          	jal	ra,23be <printf>
    1bd0:	000825b7          	lui	a1,0x82
    1bd4:	00082537          	lui	a0,0x82
    1bd8:	b9c58593          	addi	a1,a1,-1124 # 81b9c <avgpooling_output+0x1a0>
    1bdc:	ba850513          	addi	a0,a0,-1112 # 81ba8 <avgpooling_output+0x1ac>
    1be0:	7de000ef          	jal	ra,23be <printf>
    1be4:	e1cfe0ef          	jal	ra,200 <delay_ms.constprop.14>
    1be8:	00082537          	lui	a0,0x82
    1bec:	9f850513          	addi	a0,a0,-1544 # 819f8 <avgpooling_int16_output+0x218>
    1bf0:	7ce000ef          	jal	ra,23be <printf>
    1bf4:	00082537          	lui	a0,0x82
    1bf8:	bd050513          	addi	a0,a0,-1072 # 81bd0 <avgpooling_output+0x1d4>
    1bfc:	7c2000ef          	jal	ra,23be <printf>
    1c00:	e00fe0ef          	jal	ra,200 <delay_ms.constprop.14>
    1c04:	979ff0ef          	jal	ra,157c <avgpooling_riscv_avgpool_s8>
    1c08:	ad9ff0ef          	jal	ra,16e0 <avgpooling_int16_riscv_avgpool_s16>
    1c0c:	00082537          	lui	a0,0x82
    1c10:	c0050513          	addi	a0,a0,-1024 # 81c00 <avgpooling_output+0x204>
    1c14:	7aa000ef          	jal	ra,23be <printf>
    1c18:	de8fe0ef          	jal	ra,200 <delay_ms.constprop.14>
    1c1c:	00082537          	lui	a0,0x82
    1c20:	c1850513          	addi	a0,a0,-1000 # 81c18 <avgpooling_output+0x21c>
    1c24:	79a000ef          	jal	ra,23be <printf>
    1c28:	dd8fe0ef          	jal	ra,200 <delay_ms.constprop.14>
    1c2c:	50b2                	c.lwsp	ra,44(sp)
    1c2e:	5422                	c.lwsp	s0,40(sp)
    1c30:	5492                	c.lwsp	s1,36(sp)
    1c32:	4501                	c.li	a0,0
    1c34:	6145                	c.addi16sp	sp,48
    1c36:	8082                	c.jr	ra
    1c38:	00100793          	li	a5,1
    1c3c:	00f40123          	sb	a5,2(s0)
    1c40:	b55fe0ef          	jal	ra,794 <analog_write_reg8>
    1c44:	0014e593          	ori	a1,s1,1
    1c48:	0ff5f593          	andi	a1,a1,255
    1c4c:	03900513          	li	a0,57
    1c50:	b45fe0ef          	jal	ra,794 <analog_write_reg8>
    1c54:	d69ff06f          	j	19bc <main+0x13c>
    1c58:	07f00513          	li	a0,127
    1c5c:	b7dfe0ef          	jal	ra,7d8 <analog_read_reg8>
    1c60:	4802140b          	addigp	s0,5248 # 81c80 <g_pm_status_info>
    1c64:	0405705b          	bbc	a0,0,1ca4 <main+0x424>
    1c68:	4214f25b          	bbs	s1,1,1c8c <main+0x40c>
    1c6c:	47c1                	c.li	a5,16
    1c6e:	00f40123          	sb	a5,2(s0)
    1c72:	b3a9                	c.j	19bc <main+0x13c>
    1c74:	000fe537          	lui	a0,0xfe
    1c78:	0c050513          	addi	a0,a0,192 # fe0c0 <_STACK_TOP+0x5e0c0>
    1c7c:	f90ff0ef          	jal	ra,140c <user_calib_adc_vref.constprop.9>
    1c80:	000fe537          	lui	a0,0xfe
    1c84:	885ff0ef          	jal	ra,1508 <user_calib_freq_offset.constprop.8>
    1c88:	e85ff06f          	j	1b0c <main+0x28c>
    1c8c:	02000793          	li	a5,32
    1c90:	0fd4f593          	andi	a1,s1,253
    1c94:	03900513          	li	a0,57
    1c98:	00f40123          	sb	a5,2(s0)
    1c9c:	af9fe0ef          	jal	ra,794 <analog_write_reg8>
    1ca0:	d1dff06f          	j	19bc <main+0x13c>
    1ca4:	47a1                	c.li	a5,8
    1ca6:	00f40123          	sb	a5,2(s0)
    1caa:	bb09                	c.j	19bc <main+0x13c>
    1cac:	001fe537          	lui	a0,0x1fe
    1cb0:	0c050513          	addi	a0,a0,192 # 1fe0c0 <FLASH_SIZE+0xfe0c0>
    1cb4:	f58ff0ef          	jal	ra,140c <user_calib_adc_vref.constprop.9>
    1cb8:	001fe537          	lui	a0,0x1fe
    1cbc:	84dff0ef          	jal	ra,1508 <user_calib_freq_offset.constprop.8>
    1cc0:	e4dff06f          	j	1b0c <main+0x28c>
    1cc4:	0507d25b          	beqc	a5,16,1d08 <main+0x488>
    1cc8:	0317ea5b          	bnec	a5,17,1cfc <main+0x47c>
    1ccc:	0001e537          	lui	a0,0x1e
    1cd0:	0c050513          	addi	a0,a0,192 # 1e0c0 <BIN_SIZE+0x1920e>
    1cd4:	f38ff0ef          	jal	ra,140c <user_calib_adc_vref.constprop.9>
    1cd8:	0001e537          	lui	a0,0x1e
    1cdc:	82dff0ef          	jal	ra,1508 <user_calib_freq_offset.constprop.8>
    1ce0:	e2dff06f          	j	1b0c <main+0x28c>
    1ce4:	0007e537          	lui	a0,0x7e
    1ce8:	0c050513          	addi	a0,a0,192 # 7e0c0 <BIN_SIZE+0x7920e>
    1cec:	f20ff0ef          	jal	ra,140c <user_calib_adc_vref.constprop.9>
    1cf0:	0007e537          	lui	a0,0x7e
    1cf4:	815ff0ef          	jal	ra,1508 <user_calib_freq_offset.constprop.8>
    1cf8:	e15ff06f          	j	1b0c <main+0x28c>
    1cfc:	00000513          	li	a0,0
    1d00:	f0cff0ef          	jal	ra,140c <user_calib_adc_vref.constprop.9>
    1d04:	e09ff06f          	j	1b0c <main+0x28c>
    1d08:	0000e537          	lui	a0,0xe
    1d0c:	0c050513          	addi	a0,a0,192 # e0c0 <BIN_SIZE+0x920e>
    1d10:	efcff0ef          	jal	ra,140c <user_calib_adc_vref.constprop.9>
    1d14:	0000e537          	lui	a0,0xe
    1d18:	ff0ff0ef          	jal	ra,1508 <user_calib_freq_offset.constprop.8>
    1d1c:	bbc5                	c.j	1b0c <main+0x28c>
	...

00001d20 <default_irq_entry>:
    1d20:	a001                	c.j	1d20 <default_irq_entry>

00001d22 <trap_handler>:
    1d22:	a001                	c.j	1d22 <trap_handler>
    1d24:	0001                	c.nop
	...

00001d28 <riscv_avgpool_s16_get_buffer_size>:
    1d28:	00259513          	slli	a0,a1,0x2
    1d2c:	8082                	c.jr	ra
	...

00001d30 <riscv_avgpool_s8_get_buffer_size>:
    1d30:	00259513          	slli	a0,a1,0x2
    1d34:	8082                	c.jr	ra
	...

00001d38 <riscv_avgpool_s8>:
    1d38:	7175                	c.addi16sp	sp,-144
    1d3a:	d4e2                	c.swsp	s8,104(sp)
    1d3c:	ceee                	c.swsp	s11,92(sp)
    1d3e:	0087ac03          	lw	s8,8(a5)
    1d42:	0047ad83          	lw	s11,4(a5)
    1d46:	471c                	c.lw	a5,8(a4)
    1d48:	c14a                	c.swsp	s2,128(sp)
    1d4a:	00062903          	lw	s2,0(a2)
    1d4e:	c326                	c.swsp	s1,132(sp)
    1d50:	dece                	c.swsp	s3,124(sp)
    1d52:	dcd2                	c.swsp	s4,120(sp)
    1d54:	dad6                	c.swsp	s5,116(sp)
    1d56:	d6de                	c.swsp	s7,108(sp)
    1d58:	d2e6                	c.swsp	s9,100(sp)
    1d5a:	d0ea                	c.swsp	s10,96(sp)
    1d5c:	c706                	c.swsp	ra,140(sp)
    1d5e:	c522                	c.swsp	s0,136(sp)
    1d60:	d8da                	c.swsp	s6,112(sp)
    1d62:	d23e                	c.swsp	a5,36(sp)
    1d64:	0045ad03          	lw	s10,4(a1)
    1d68:	0005ab83          	lw	s7,0(a1)
    1d6c:	00c5a983          	lw	s3,12(a1)
    1d70:	0085af83          	lw	t6,8(a1)
    1d74:	0105aa03          	lw	s4,16(a1)
    1d78:	49c4                	c.lw	s1,20(a1)
    1d7a:	00462c83          	lw	s9,4(a2)
    1d7e:	00862a83          	lw	s5,8(a2)
    1d82:	00472283          	lw	t0,4(a4)
    1d86:	464c                	c.lw	a1,12(a2)
    1d88:	1b205e63          	blez	s2,1f44 <riscv_avgpool_s8+0x20c>
    1d8c:	00052e03          	lw	t3,0(a0) # e000 <BIN_SIZE+0x914e>
    1d90:	842a                	c.mv	s0,a0
    1d92:	8b42                	c.mv	s6,a6
    1d94:	1c0e0a63          	beqz	t3,1f68 <riscv_avgpool_s8+0x230>
    1d98:	035c87b3          	mul	a5,s9,s5
    1d9c:	02b787b3          	mul	a5,a5,a1
    1da0:	02ba8433          	mul	s0,s5,a1
    1da4:	41300633          	neg	a2,s3
    1da8:	00259813          	slli	a6,a1,0x2
    1dac:	41f00533          	neg	a0,t6
    1db0:	8f7e                	c.mv	t5,t6
    1db2:	da3e                	c.swsp	a5,52(sp)
    1db4:	9872                	c.add	a6,t3
    1db6:	87b2                	c.mv	a5,a2
    1db8:	8faa                	c.mv	t6,a0
    1dba:	8656                	c.mv	a2,s5
    1dbc:	17b05c63          	blez	s11,1f34 <riscv_avgpool_s8+0x1fc>
    1dc0:	d866                	c.swsp	s9,48(sp)
    1dc2:	88ce                	c.mv	a7,s3
    1dc4:	8cb6                	c.mv	s9,a3
    1dc6:	83be                	c.mv	t2,a5
    1dc8:	8abe                	c.mv	s5,a5
    1dca:	86b2                	c.mv	a3,a2
    1dcc:	d402                	c.swsp	zero,40(sp)
    1dce:	dc4e                	c.swsp	s3,56(sp)
    1dd0:	15805463          	blez	s8,1f18 <riscv_avgpool_s8+0x1e0>
    1dd4:	4781                	c.li	a5,0
    1dd6:	f2f88eff          	maxw	t4,a7,a5
    1dda:	007e87b3          	add	a5,t4,t2
    1dde:	02d787b3          	mul	a5,a5,a3
    1de2:	8636                	c.mv	a2,a3
    1de4:	de6e                	c.swsp	s11,60(sp)
    1de6:	d63e                	c.swsp	a5,44(sp)
    1de8:	57c2                	c.lwsp	a5,48(sp)
    1dea:	c296                	c.swsp	t0,68(sp)
    1dec:	011789b3          	add	s3,a5,a7
    1df0:	f05989ff          	minw	s3,s3,t0
    1df4:	87fa                	c.mv	a5,t5
    1df6:	837e                	c.mv	t1,t6
    1df8:	4701                	c.li	a4,0
    1dfa:	86e2                	c.mv	a3,s8
    1dfc:	8dd6                	c.mv	s11,s5
    1dfe:	82c6                	c.mv	t0,a7
    1e00:	854a                	c.mv	a0,s2
    1e02:	c0ea                	c.swsp	s10,64(sp)
    1e04:	c4fa                	c.swsp	t5,72(sp)
    1e06:	c69e                	c.swsp	t2,76(sp)
    1e08:	4881                	c.li	a7,0
    1e0a:	f3178c7f          	maxw	s8,a5,a7
    1e0e:	5892                	c.lwsp	a7,36(sp)
    1e10:	00f60ab3          	add	s5,a2,a5
    1e14:	f11a8aff          	minw	s5,s5,a7
    1e18:	133ed663          	bge	t4,s3,1f44 <riscv_avgpool_s8+0x20c>
    1e1c:	58b2                	c.lwsp	a7,44(sp)
    1e1e:	83e6                	c.mv	t2,s9
    1e20:	989a                	c.add	a7,t1
    1e22:	98e2                	c.add	a7,s8
    1e24:	c4b893ff          	maddr32	t2,a7,a1
    1e28:	cc5e                	c.swsp	s7,24(sp)
    1e2a:	8976                	c.mv	s2,t4
    1e2c:	4881                	c.li	a7,0
    1e2e:	418a8d33          	sub	s10,s5,s8
    1e32:	8bf6                	c.mv	s7,t4
    1e34:	c832                	c.swsp	a2,16(sp)
    1e36:	ca36                	c.swsp	a3,20(sp)
    1e38:	ce52                	c.swsp	s4,28(sp)
    1e3a:	d026                	c.swsp	s1,32(sp)
    1e3c:	075c5463          	bge	s8,s5,1ea4 <riscv_avgpool_s8+0x16c>
    1e40:	00b384b3          	add	s1,t2,a1
    1e44:	011d0a33          	add	s4,s10,a7
    1e48:	0e089c63          	bnez	a7,1f40 <riscv_avgpool_s8+0x208>
    1e4c:	86f2                	c.mv	a3,t3
    1e4e:	861e                	c.mv	a2,t2
    1e50:	00b05a63          	blez	a1,1e64 <riscv_avgpool_s8+0x12c>
    1e54:	00060e83          	lb	t4,0(a2)
    1e58:	0691                	c.addi	a3,4
    1e5a:	0605                	c.addi	a2,1
    1e5c:	ffd6ae23          	sw	t4,-4(a3)
    1e60:	fed81ae3          	bne	a6,a3,1e54 <riscv_avgpool_s8+0x11c>
    1e64:	00700f33          	add	t5,zero,t2
    1e68:	0885                	c.addi	a7,1
    1e6a:	9f2e                	c.add	t5,a1
    1e6c:	00b484b3          	add	s1,s1,a1
    1e70:	03488a63          	beq	a7,s4,1ea4 <riscv_avgpool_s8+0x16c>
    1e74:	8672                	c.mv	a2,t3
    1e76:	86fa                	c.mv	a3,t5
    1e78:	feb058e3          	blez	a1,1e68 <riscv_avgpool_s8+0x130>
    1e7c:	00f12623          	sw	a5,12(sp)
    1e80:	00068e83          	lb	t4,0(a3)
    1e84:	421c                	c.lw	a5,0(a2)
    1e86:	00fe9eff          	kaddw	t4,t4,a5
    1e8a:	01d62023          	sw	t4,0(a2)
    1e8e:	0685                	c.addi	a3,1
    1e90:	0611                	c.addi	a2,4
    1e92:	fe9697e3          	bne	a3,s1,1e80 <riscv_avgpool_s8+0x148>
    1e96:	0885                	c.addi	a7,1
    1e98:	47b2                	c.lwsp	a5,12(sp)
    1e9a:	9f2e                	c.add	t5,a1
    1e9c:	00b484b3          	add	s1,s1,a1
    1ea0:	fd489ae3          	bne	a7,s4,1e74 <riscv_avgpool_s8+0x13c>
    1ea4:	0905                	c.addi	s2,1
    1ea6:	93a2                	c.add	t2,s0
    1ea8:	f9299ae3          	bne	s3,s2,1e3c <riscv_avgpool_s8+0x104>
    1eac:	8ede                	c.mv	t4,s7
    1eae:	4642                	c.lwsp	a2,16(sp)
    1eb0:	46d2                	c.lwsp	a3,20(sp)
    1eb2:	4a72                	c.lwsp	s4,28(sp)
    1eb4:	5482                	c.lwsp	s1,32(sp)
    1eb6:	4be2                	c.lwsp	s7,24(sp)
    1eb8:	08088663          	beqz	a7,1f44 <riscv_avgpool_s8+0x20c>
    1ebc:	4018dc13          	srai	s8,a7,0x1
    1ec0:	8ada                	c.mv	s5,s6
    1ec2:	83f2                	c.mv	t2,t3
    1ec4:	02b05863          	blez	a1,1ef4 <riscv_avgpool_s8+0x1bc>
    1ec8:	0003a903          	lw	s2,0(t2)
    1ecc:	00438393          	addi	t2,t2,4
    1ed0:	41890f33          	sub	t5,s2,s8
    1ed4:	01205463          	blez	s2,1edc <riscv_avgpool_s8+0x1a4>
    1ed8:	012c0f33          	add	t5,s8,s2
    1edc:	031f4f33          	div	t5,t5,a7
    1ee0:	001a8a93          	addi	s5,s5,1
    1ee4:	f3ea0f7f          	maxw	t5,s4,t5
    1ee8:	f1e48f7f          	minw	t5,s1,t5
    1eec:	ffea8fa3          	sb	t5,-1(s5)
    1ef0:	fc781ce3          	bne	a6,t2,1ec8 <riscv_avgpool_s8+0x190>
    1ef4:	0705                	c.addi	a4,1
    1ef6:	9b2e                	c.add	s6,a1
    1ef8:	935e                	c.add	t1,s7
    1efa:	417787b3          	sub	a5,a5,s7
    1efe:	f0e695e3          	bne	a3,a4,1e08 <riscv_avgpool_s8+0xd0>
    1f02:	8aee                	c.mv	s5,s11
    1f04:	8896                	c.mv	a7,t0
    1f06:	4d06                	c.lwsp	s10,64(sp)
    1f08:	4f26                	c.lwsp	t5,72(sp)
    1f0a:	43b6                	c.lwsp	t2,76(sp)
    1f0c:	5df2                	c.lwsp	s11,60(sp)
    1f0e:	4296                	c.lwsp	t0,68(sp)
    1f10:	8c36                	c.mv	s8,a3
    1f12:	892a                	c.mv	s2,a0
    1f14:	00c006b3          	add	a3,zero,a2
    1f18:	57a2                	c.lwsp	a5,40(sp)
    1f1a:	93ea                	c.add	t2,s10
    1f1c:	0785                	c.addi	a5,1
    1f1e:	d43e                	c.swsp	a5,40(sp)
    1f20:	41a888b3          	sub	a7,a7,s10
    1f24:	eafd96e3          	bne	s11,a5,1dd0 <riscv_avgpool_s8+0x98>
    1f28:	8636                	c.mv	a2,a3
    1f2a:	59e2                	c.lwsp	s3,56(sp)
    1f2c:	86e6                	c.mv	a3,s9
    1f2e:	5cc2                	c.lwsp	s9,48(sp)
    1f30:	015007b3          	add	a5,zero,s5
    1f34:	5752                	c.lwsp	a4,52(sp)
    1f36:	197d                	c.addi	s2,-1
    1f38:	96ba                	c.add	a3,a4
    1f3a:	e80911e3          	bnez	s2,1dbc <riscv_avgpool_s8+0x84>
    1f3e:	a029                	c.j	1f48 <riscv_avgpool_s8+0x210>
    1f40:	8f1e                	c.mv	t5,t2
    1f42:	bf0d                	c.j	1e74 <riscv_avgpool_s8+0x13c>
    1f44:	fff00913          	li	s2,-1
    1f48:	40ba                	c.lwsp	ra,140(sp)
    1f4a:	442a                	c.lwsp	s0,136(sp)
    1f4c:	449a                	c.lwsp	s1,132(sp)
    1f4e:	59f6                	c.lwsp	s3,124(sp)
    1f50:	5a66                	c.lwsp	s4,120(sp)
    1f52:	5ad6                	c.lwsp	s5,116(sp)
    1f54:	5b46                	c.lwsp	s6,112(sp)
    1f56:	5bb6                	c.lwsp	s7,108(sp)
    1f58:	5c26                	c.lwsp	s8,104(sp)
    1f5a:	5c96                	c.lwsp	s9,100(sp)
    1f5c:	5d06                	c.lwsp	s10,96(sp)
    1f5e:	4df6                	c.lwsp	s11,92(sp)
    1f60:	854a                	c.mv	a0,s2
    1f62:	490a                	c.lwsp	s2,128(sp)
    1f64:	6149                	c.addi16sp	sp,144
    1f66:	8082                	c.jr	ra
    1f68:	8562                	c.mv	a0,s8
    1f6a:	cc36                	c.swsp	a3,24(sp)
    1f6c:	ca7e                	c.swsp	t6,20(sp)
    1f6e:	c816                	c.swsp	t0,16(sp)
    1f70:	c62e                	c.swsp	a1,12(sp)
    1f72:	3b7d                	c.jal	1d30 <riscv_avgpool_s8_get_buffer_size>
    1f74:	f961                	c.bnez	a0,1f44 <riscv_avgpool_s8+0x20c>
    1f76:	035c87b3          	mul	a5,s9,s5
    1f7a:	45b2                	c.lwsp	a1,12(sp)
    1f7c:	00042e03          	lw	t3,0(s0)
    1f80:	02b787b3          	mul	a5,a5,a1
    1f84:	46e2                	c.lwsp	a3,24(sp)
    1f86:	4fd2                	c.lwsp	t6,20(sp)
    1f88:	42c2                	c.lwsp	t0,16(sp)
    1f8a:	bd19                	c.j	1da0 <riscv_avgpool_s8+0x68>

00001f8c <riscv_avgpool_s16>:
    1f8c:	7119                	c.addi16sp	sp,-128
    1f8e:	cce6                	c.swsp	s9,88(sp)
    1f90:	0047ac83          	lw	s9,4(a5)
    1f94:	479c                	c.lw	a5,8(a5)
    1f96:	cee2                	c.swsp	s8,92(sp)
    1f98:	caea                	c.swsp	s10,84(sp)
    1f9a:	00862c03          	lw	s8,8(a2)
    1f9e:	00462d03          	lw	s10,4(a2)
    1fa2:	c83e                	c.swsp	a5,16(sp)
    1fa4:	435c                	c.lw	a5,4(a4)
    1fa6:	038d08b3          	mul	a7,s10,s8
    1faa:	da3e                	c.swsp	a5,52(sp)
    1fac:	471c                	c.lw	a5,8(a4)
    1fae:	00c62303          	lw	t1,12(a2)
    1fb2:	dea2                	c.swsp	s0,124(sp)
    1fb4:	4200                	c.lw	s0,0(a2)
    1fb6:	d4d6                	c.swsp	s5,104(sp)
    1fb8:	d2da                	c.swsp	s6,100(sp)
    1fba:	c8ee                	c.swsp	s11,80(sp)
    1fbc:	dca6                	c.swsp	s1,120(sp)
    1fbe:	daca                	c.swsp	s2,116(sp)
    1fc0:	d8ce                	c.swsp	s3,112(sp)
    1fc2:	d6d2                	c.swsp	s4,108(sp)
    1fc4:	d0de                	c.swsp	s7,96(sp)
    1fc6:	d23e                	c.swsp	a5,36(sp)
    1fc8:	026882b3          	mul	t0,a7,t1
    1fcc:	0045ae83          	lw	t4,4(a1)
    1fd0:	0005ad83          	lw	s11,0(a1)
    1fd4:	45d8                	c.lw	a4,12(a1)
    1fd6:	4590                	c.lw	a2,8(a1)
    1fd8:	0105ab03          	lw	s6,16(a1)
    1fdc:	0145aa83          	lw	s5,20(a1)
    1fe0:	1a805a63          	blez	s0,2194 <riscv_avgpool_s16+0x208>
    1fe4:	00052a03          	lw	s4,0(a0)
    1fe8:	1a0a0663          	beqz	s4,2194 <riscv_avgpool_s16+0x208>
    1fec:	40e00533          	neg	a0,a4
    1ff0:	8bb6                	c.mv	s7,a3
    1ff2:	dc3a                	c.swsp	a4,56(sp)
    1ff4:	86c2                	c.mv	a3,a6
    1ff6:	872a                	c.mv	a4,a0
    1ff8:	02512e23          	sw	t0,60(sp)
    1ffc:	19905263          	blez	s9,2180 <riscv_avgpool_s16+0x1f4>
    2000:	038302b3          	mul	t0,t1,s8
    2004:	00231793          	slli	a5,t1,0x2
    2008:	5e62                	c.lwsp	t3,56(sp)
    200a:	40c005b3          	neg	a1,a2
    200e:	00131893          	slli	a7,t1,0x1
    2012:	0286                	c.slli	t0,0x1
    2014:	97d2                	c.add	a5,s4
    2016:	8f3a                	c.mv	t5,a4
    2018:	4f81                	c.li	t6,0
    201a:	83f6                	c.mv	t2,t4
    201c:	853a                	c.mv	a0,a4
    201e:	d82e                	c.swsp	a1,48(sp)
    2020:	02c12623          	sw	a2,44(sp)
    2024:	4742                	c.lwsp	a4,16(sp)
    2026:	14e05363          	blez	a4,216c <riscv_avgpool_s16+0x1e0>
    202a:	4701                	c.li	a4,0
    202c:	f2ee05ff          	maxw	a1,t3,a4
    2030:	01e58733          	add	a4,a1,t5
    2034:	03870733          	mul	a4,a4,s8
    2038:	01cd0933          	add	s2,s10,t3
    203c:	5842                	c.lwsp	a6,48(sp)
    203e:	d43a                	c.swsp	a4,40(sp)
    2040:	5752                	c.lwsp	a4,52(sp)
    2042:	8ef2                	c.mv	t4,t3
    2044:	f0e9097f          	minw	s2,s2,a4
    2048:	5732                	c.lwsp	a4,44(sp)
    204a:	c0ea                	c.swsp	s10,64(sp)
    204c:	4601                	c.li	a2,0
    204e:	8d7e                	c.mv	s10,t6
    2050:	8e22                	c.mv	t3,s0
    2052:	8faa                	c.mv	t6,a0
    2054:	8562                	c.mv	a0,s8
    2056:	c2e6                	c.swsp	s9,68(sp)
    2058:	c49e                	c.swsp	t2,72(sp)
    205a:	c6fa                	c.swsp	t5,76(sp)
    205c:	4401                	c.li	s0,0
    205e:	f2870c7f          	maxw	s8,a4,s0
    2062:	5412                	c.lwsp	s0,36(sp)
    2064:	00e509b3          	add	s3,a0,a4
    2068:	f08989ff          	minw	s3,s3,s0
    206c:	1325d463          	bge	a1,s2,2194 <riscv_avgpool_s16+0x208>
    2070:	5422                	c.lwsp	s0,40(sp)
    2072:	8f5e                	c.mv	t5,s7
    2074:	008803b3          	add	t2,a6,s0
    2078:	93e2                	c.add	t2,s8
    207a:	c5139f7f          	maddr32	t5,t2,a7
    207e:	cc6e                	c.swsp	s11,24(sp)
    2080:	84ae                	c.mv	s1,a1
    2082:	9f46                	c.add	t5,a7
    2084:	4381                	c.li	t2,0
    2086:	41898cb3          	sub	s9,s3,s8
    208a:	8dea                	c.mv	s11,s10
    208c:	ca2a                	c.swsp	a0,20(sp)
    208e:	ce5a                	c.swsp	s6,28(sp)
    2090:	03512023          	sw	s5,32(sp)
    2094:	073c5463          	bge	s8,s3,20fc <riscv_avgpool_s16+0x170>
    2098:	007c8b33          	add	s6,s9,t2
    209c:	0e039a63          	bnez	t2,2190 <riscv_avgpool_s16+0x204>
    20a0:	411f0533          	sub	a0,t5,a7
    20a4:	01400433          	add	s0,zero,s4
    20a8:	00605a63          	blez	t1,20bc <riscv_avgpool_s16+0x130>
    20ac:	00051a83          	lh	s5,0(a0)
    20b0:	0509                	c.addi	a0,2
    20b2:	0411                	c.addi	s0,4
    20b4:	ff542e23          	sw	s5,-4(s0)
    20b8:	ffe51ae3          	bne	a0,t5,20ac <riscv_avgpool_s16+0x120>
    20bc:	01e00d33          	add	s10,zero,t5
    20c0:	0385                	c.addi	t2,1
    20c2:	9d46                	c.add	s10,a7
    20c4:	03638c63          	beq	t2,s6,20fc <riscv_avgpool_s16+0x170>
    20c8:	411d0433          	sub	s0,s10,a7
    20cc:	8552                	c.mv	a0,s4
    20ce:	fe6059e3          	blez	t1,20c0 <riscv_avgpool_s16+0x134>
    20d2:	8ac6                	c.mv	s5,a7
    20d4:	00f12623          	sw	a5,12(sp)
    20d8:	00041883          	lh	a7,0(s0)
    20dc:	411c                	c.lw	a5,0(a0)
    20de:	00f898ff          	kaddw	a7,a7,a5
    20e2:	01152023          	sw	a7,0(a0)
    20e6:	0409                	c.addi	s0,2
    20e8:	0511                	c.addi	a0,4
    20ea:	ffa417e3          	bne	s0,s10,20d8 <riscv_avgpool_s16+0x14c>
    20ee:	88d6                	c.mv	a7,s5
    20f0:	0385                	c.addi	t2,1
    20f2:	47b2                	c.lwsp	a5,12(sp)
    20f4:	011d0d33          	add	s10,s10,a7
    20f8:	fd6398e3          	bne	t2,s6,20c8 <riscv_avgpool_s16+0x13c>
    20fc:	0485                	c.addi	s1,1
    20fe:	9f16                	c.add	t5,t0
    2100:	f8991ae3          	bne	s2,s1,2094 <riscv_avgpool_s16+0x108>
    2104:	8d6e                	c.mv	s10,s11
    2106:	4552                	c.lwsp	a0,20(sp)
    2108:	4b72                	c.lwsp	s6,28(sp)
    210a:	5a82                	c.lwsp	s5,32(sp)
    210c:	4de2                	c.lwsp	s11,24(sp)
    210e:	08038363          	beqz	t2,2194 <riscv_avgpool_s16+0x208>
    2112:	4013dc13          	srai	s8,t2,0x1
    2116:	89b6                	c.mv	s3,a3
    2118:	01400433          	add	s0,zero,s4
    211c:	02605663          	blez	t1,2148 <riscv_avgpool_s16+0x1bc>
    2120:	4004                	c.lw	s1,0(s0)
    2122:	0411                	c.addi	s0,4
    2124:	41848f33          	sub	t5,s1,s8
    2128:	00905463          	blez	s1,2130 <riscv_avgpool_s16+0x1a4>
    212c:	009c0f33          	add	t5,s8,s1
    2130:	027f4f33          	div	t5,t5,t2
    2134:	00298993          	addi	s3,s3,2
    2138:	f3eb0f7f          	maxw	t5,s6,t5
    213c:	f1ea8f7f          	minw	t5,s5,t5
    2140:	ffe99f23          	sh	t5,-2(s3)
    2144:	fcf41ee3          	bne	s0,a5,2120 <riscv_avgpool_s16+0x194>
    2148:	4442                	c.lwsp	s0,16(sp)
    214a:	0605                	c.addi	a2,1
    214c:	96c6                	c.add	a3,a7
    214e:	986e                	c.add	a6,s11
    2150:	41b70733          	sub	a4,a4,s11
    2154:	f0c414e3          	bne	s0,a2,205c <riscv_avgpool_s16+0xd0>
    2158:	8c2a                	c.mv	s8,a0
    215a:	4c96                	c.lwsp	s9,68(sp)
    215c:	857e                	c.mv	a0,t6
    215e:	43a6                	c.lwsp	t2,72(sp)
    2160:	8fea                	c.mv	t6,s10
    2162:	4f36                	c.lwsp	t5,76(sp)
    2164:	4d06                	c.lwsp	s10,64(sp)
    2166:	8472                	c.mv	s0,t3
    2168:	01d00e33          	add	t3,zero,t4
    216c:	0f85                	c.addi	t6,1
    216e:	9f1e                	c.add	t5,t2
    2170:	407e0e33          	sub	t3,t3,t2
    2174:	ebfc98e3          	bne	s9,t6,2024 <riscv_avgpool_s16+0x98>
    2178:	5632                	c.lwsp	a2,44(sp)
    217a:	8e9e                	c.mv	t4,t2
    217c:	00a00733          	add	a4,zero,a0
    2180:	57f2                	c.lwsp	a5,60(sp)
    2182:	147d                	c.addi	s0,-1
    2184:	0786                	c.slli	a5,0x1
    2186:	9bbe                	c.add	s7,a5
    2188:	e6041ae3          	bnez	s0,1ffc <riscv_avgpool_s16+0x70>
    218c:	00c0006f          	j	2198 <riscv_avgpool_s16+0x20c>
    2190:	8d7a                	c.mv	s10,t5
    2192:	bf1d                	c.j	20c8 <riscv_avgpool_s16+0x13c>
    2194:	fff00413          	li	s0,-1
    2198:	8522                	c.mv	a0,s0
    219a:	5476                	c.lwsp	s0,124(sp)
    219c:	54e6                	c.lwsp	s1,120(sp)
    219e:	5956                	c.lwsp	s2,116(sp)
    21a0:	59c6                	c.lwsp	s3,112(sp)
    21a2:	5a36                	c.lwsp	s4,108(sp)
    21a4:	5aa6                	c.lwsp	s5,104(sp)
    21a6:	5b16                	c.lwsp	s6,100(sp)
    21a8:	5b86                	c.lwsp	s7,96(sp)
    21aa:	4c76                	c.lwsp	s8,92(sp)
    21ac:	4ce6                	c.lwsp	s9,88(sp)
    21ae:	4d56                	c.lwsp	s10,84(sp)
    21b0:	4dc6                	c.lwsp	s11,80(sp)
    21b2:	6109                	c.addi16sp	sp,128
    21b4:	8082                	c.jr	ra

000021b6 <malloc>:
    21b6:	5f7002ef          	jal	t0,2fac <__riscv_save_0>
    21ba:	85aa                	c.mv	a1,a0
    21bc:	4642252b          	lwgp	a0,5220 # 81c64 <_impure_ptr>
    21c0:	22b9                	c.jal	230e <_malloc_r>
    21c2:	60f0006f          	j	2fd0 <__riscv_restore_0>

000021c6 <free>:
    21c6:	5e7002ef          	jal	t0,2fac <__riscv_save_0>
    21ca:	85aa                	c.mv	a1,a0
    21cc:	4642252b          	lwgp	a0,5220 # 81c64 <_impure_ptr>
    21d0:	207d                	c.jal	227e <_free_r>
    21d2:	5ff0006f          	j	2fd0 <__riscv_restore_0>

000021d6 <memset>:
    21d6:	433d                	c.li	t1,15
    21d8:	872a                	c.mv	a4,a0
    21da:	02c37363          	bgeu	t1,a2,2200 <memset+0x2a>
    21de:	00f77793          	andi	a5,a4,15
    21e2:	efbd                	c.bnez	a5,2260 <memset+0x8a>
    21e4:	e5ad                	c.bnez	a1,224e <memset+0x78>
    21e6:	ff067693          	andi	a3,a2,-16
    21ea:	8a3d                	c.andi	a2,15
    21ec:	96ba                	c.add	a3,a4
    21ee:	c30c                	c.sw	a1,0(a4)
    21f0:	c34c                	c.sw	a1,4(a4)
    21f2:	c70c                	c.sw	a1,8(a4)
    21f4:	c74c                	c.sw	a1,12(a4)
    21f6:	0741                	c.addi	a4,16
    21f8:	fed76be3          	bltu	a4,a3,21ee <memset+0x18>
    21fc:	e211                	c.bnez	a2,2200 <memset+0x2a>
    21fe:	8082                	c.jr	ra
    2200:	40c306b3          	sub	a3,t1,a2
    2204:	068a                	c.slli	a3,0x2
    2206:	00000297          	auipc	t0,0x0
    220a:	9696                	c.add	a3,t0
    220c:	00a68067          	jr	10(a3)
    2210:	00b70723          	sb	a1,14(a4)
    2214:	00b706a3          	sb	a1,13(a4)
    2218:	00b70623          	sb	a1,12(a4)
    221c:	00b705a3          	sb	a1,11(a4)
    2220:	00b70523          	sb	a1,10(a4)
    2224:	00b704a3          	sb	a1,9(a4)
    2228:	00b70423          	sb	a1,8(a4)
    222c:	00b703a3          	sb	a1,7(a4)
    2230:	00b70323          	sb	a1,6(a4)
    2234:	00b702a3          	sb	a1,5(a4)
    2238:	00b70223          	sb	a1,4(a4)
    223c:	00b701a3          	sb	a1,3(a4)
    2240:	00b70123          	sb	a1,2(a4)
    2244:	00b700a3          	sb	a1,1(a4)
    2248:	00b70023          	sb	a1,0(a4)
    224c:	8082                	c.jr	ra
    224e:	0ff5f593          	andi	a1,a1,255
    2252:	00859693          	slli	a3,a1,0x8
    2256:	8dd5                	c.or	a1,a3
    2258:	01059693          	slli	a3,a1,0x10
    225c:	8dd5                	c.or	a1,a3
    225e:	b761                	c.j	21e6 <memset+0x10>
    2260:	00279693          	slli	a3,a5,0x2
    2264:	00000297          	auipc	t0,0x0
    2268:	9696                	c.add	a3,t0
    226a:	8286                	c.mv	t0,ra
    226c:	fa8680e7          	jalr	-88(a3)
    2270:	8096                	c.mv	ra,t0
    2272:	17c1                	c.addi	a5,-16
    2274:	8f1d                	c.sub	a4,a5
    2276:	963e                	c.add	a2,a5
    2278:	f8c374e3          	bgeu	t1,a2,2200 <memset+0x2a>
    227c:	b7a5                	c.j	21e4 <memset+0xe>

0000227e <_free_r>:
    227e:	c5b5                	c.beqz	a1,22ea <_free_r+0x6c>
    2280:	ffc5a703          	lw	a4,-4(a1)
    2284:	ffc58793          	addi	a5,a1,-4
    2288:	00075363          	bgez	a4,228e <_free_r+0x10>
    228c:	97ba                	c.add	a5,a4
    228e:	4842272b          	lwgp	a4,5252 # 81c84 <__malloc_free_list>
    2292:	85b6                	c.mv	a1,a3
    2294:	e711                	c.bnez	a4,22a0 <_free_r+0x22>
    2296:	0007a223          	sw	zero,4(a5)
    229a:	48f2422b          	swgp	a5,5252 # 81c84 <__malloc_free_list>
    229e:	8082                	c.jr	ra
    22a0:	02e7f063          	bgeu	a5,a4,22c0 <_free_r+0x42>
    22a4:	4390                	c.lw	a2,0(a5)
    22a6:	00c786b3          	add	a3,a5,a2
    22aa:	00d71663          	bne	a4,a3,22b6 <_free_r+0x38>
    22ae:	4314                	c.lw	a3,0(a4)
    22b0:	4358                	c.lw	a4,4(a4)
    22b2:	96b2                	c.add	a3,a2
    22b4:	c394                	c.sw	a3,0(a5)
    22b6:	c3d8                	c.sw	a4,4(a5)
    22b8:	48f2422b          	swgp	a5,5252 # 81c84 <__malloc_free_list>
    22bc:	8082                	c.jr	ra
    22be:	8736                	c.mv	a4,a3
    22c0:	4354                	c.lw	a3,4(a4)
    22c2:	c299                	c.beqz	a3,22c8 <_free_r+0x4a>
    22c4:	fed7fde3          	bgeu	a5,a3,22be <_free_r+0x40>
    22c8:	4310                	c.lw	a2,0(a4)
    22ca:	00c705b3          	add	a1,a4,a2
    22ce:	00f59f63          	bne	a1,a5,22ec <_free_r+0x6e>
    22d2:	439c                	c.lw	a5,0(a5)
    22d4:	97b2                	c.add	a5,a2
    22d6:	c31c                	c.sw	a5,0(a4)
    22d8:	00f70633          	add	a2,a4,a5
    22dc:	00c69763          	bne	a3,a2,22ea <_free_r+0x6c>
    22e0:	4290                	c.lw	a2,0(a3)
    22e2:	97b2                	c.add	a5,a2
    22e4:	c31c                	c.sw	a5,0(a4)
    22e6:	42dc                	c.lw	a5,4(a3)
    22e8:	c35c                	c.sw	a5,4(a4)
    22ea:	8082                	c.jr	ra
    22ec:	00b7f663          	bgeu	a5,a1,22f8 <_free_r+0x7a>
    22f0:	4731                	c.li	a4,12
    22f2:	48e24a2b          	swgp	a4,5268 # 81c94 <__mculib_REENT_errno>
    22f6:	8082                	c.jr	ra
    22f8:	438c                	c.lw	a1,0(a5)
    22fa:	00b78633          	add	a2,a5,a1
    22fe:	00c69663          	bne	a3,a2,230a <_free_r+0x8c>
    2302:	4290                	c.lw	a2,0(a3)
    2304:	42d4                	c.lw	a3,4(a3)
    2306:	962e                	c.add	a2,a1
    2308:	c390                	c.sw	a2,0(a5)
    230a:	c3d4                	c.sw	a3,4(a5)
    230c:	bff1                	c.j	22e8 <_free_r+0x6a>

0000230e <_malloc_r>:
    230e:	49f002ef          	jal	t0,2fac <__riscv_save_0>
    2312:	00358493          	addi	s1,a1,3
    2316:	98f1                	c.andi	s1,-4
    2318:	04a1                	c.addi	s1,8
    231a:	47b1                	c.li	a5,12
    231c:	06f4f263          	bgeu	s1,a5,2380 <_malloc_r+0x72>
    2320:	44b1                	c.li	s1,12
    2322:	06b4e163          	bltu	s1,a1,2384 <_malloc_r+0x76>
    2326:	4842242b          	lwgp	s0,5252 # 81c84 <__malloc_free_list>
    232a:	4842168b          	addigp	a3,5252 # 81c84 <__malloc_free_list>
    232e:	87a2                	c.mv	a5,s0
    2330:	cf89                	c.beqz	a5,234a <_malloc_r+0x3c>
    2332:	4398                	c.lw	a4,0(a5)
    2334:	8f05                	c.sub	a4,s1
    2336:	08074163          	bltz	a4,23b8 <_malloc_r+0xaa>
    233a:	462d                	c.li	a2,11
    233c:	04e67a63          	bgeu	a2,a4,2390 <_malloc_r+0x82>
    2340:	c398                	c.sw	a4,0(a5)
    2342:	00e78433          	add	s0,a5,a4
    2346:	c004                	c.sw	s1,0(s0)
    2348:	e821                	c.bnez	s0,2398 <_malloc_r+0x8a>
    234a:	4882140b          	addigp	s0,5256 # 81c88 <__malloc_sbrk_start>
    234e:	401c                	c.lw	a5,0(s0)
    2350:	e789                	c.bnez	a5,235a <_malloc_r+0x4c>
    2352:	4501                	c.li	a0,0
    2354:	39f000ef          	jal	ra,2ef2 <_sbrk>
    2358:	c008                	c.sw	a0,0(s0)
    235a:	8526                	c.mv	a0,s1
    235c:	597d                	c.li	s2,-1
    235e:	395000ef          	jal	ra,2ef2 <_sbrk>
    2362:	03250163          	beq	a0,s2,2384 <_malloc_r+0x76>
    2366:	00350413          	addi	s0,a0,3
    236a:	9871                	c.andi	s0,-4
    236c:	00a40863          	beq	s0,a0,237c <_malloc_r+0x6e>
    2370:	40a40533          	sub	a0,s0,a0
    2374:	37f000ef          	jal	ra,2ef2 <_sbrk>
    2378:	01250663          	beq	a0,s2,2384 <_malloc_r+0x76>
    237c:	c004                	c.sw	s1,0(s0)
    237e:	a829                	c.j	2398 <_malloc_r+0x8a>
    2380:	fa04d1e3          	bgez	s1,2322 <_malloc_r+0x14>
    2384:	4731                	c.li	a4,12
    2386:	4501                	c.li	a0,0
    2388:	48e24a2b          	swgp	a4,5268 # 81c94 <__mculib_REENT_errno>
    238c:	4450006f          	j	2fd0 <__riscv_restore_0>
    2390:	43d8                	c.lw	a4,4(a5)
    2392:	02f41063          	bne	s0,a5,23b2 <_malloc_r+0xa4>
    2396:	c298                	c.sw	a4,0(a3)
    2398:	00b40513          	addi	a0,s0,11
    239c:	00440793          	addi	a5,s0,4
    23a0:	9961                	c.andi	a0,-8
    23a2:	40f507b3          	sub	a5,a0,a5
    23a6:	d3fd                	c.beqz	a5,238c <_malloc_r+0x7e>
    23a8:	943e                	c.add	s0,a5
    23aa:	40f007b3          	neg	a5,a5
    23ae:	c01c                	c.sw	a5,0(s0)
    23b0:	bff1                	c.j	238c <_malloc_r+0x7e>
    23b2:	c058                	c.sw	a4,4(s0)
    23b4:	843e                	c.mv	s0,a5
    23b6:	b7cd                	c.j	2398 <_malloc_r+0x8a>
    23b8:	843e                	c.mv	s0,a5
    23ba:	43dc                	c.lw	a5,4(a5)
    23bc:	bf95                	c.j	2330 <_malloc_r+0x22>

000023be <printf>:
    23be:	7139                	c.addi16sp	sp,-64
    23c0:	d22e                	c.swsp	a1,36(sp)
    23c2:	104c                	c.addi4spn	a1,sp,36
    23c4:	ce06                	c.swsp	ra,28(sp)
    23c6:	d432                	c.swsp	a2,40(sp)
    23c8:	d636                	c.swsp	a3,44(sp)
    23ca:	d83a                	c.swsp	a4,48(sp)
    23cc:	da3e                	c.swsp	a5,52(sp)
    23ce:	dc42                	c.swsp	a6,56(sp)
    23d0:	de46                	c.swsp	a7,60(sp)
    23d2:	c62e                	c.swsp	a1,12(sp)
    23d4:	28d9                	c.jal	24aa <vprintf>
    23d6:	40f2                	c.lwsp	ra,28(sp)
    23d8:	6121                	c.addi16sp	sp,64
    23da:	8082                	c.jr	ra

000023dc <puts>:
    23dc:	3d1002ef          	jal	t0,2fac <__riscv_save_0>
    23e0:	1101                	c.addi	sp,-32
    23e2:	c62a                	c.swsp	a0,12(sp)
    23e4:	2035                	c.jal	2410 <strlen>
    23e6:	45b2                	c.lwsp	a1,12(sp)
    23e8:	862a                	c.mv	a2,a0
    23ea:	4505                	c.li	a0,1
    23ec:	c4cff0ef          	jal	ra,1838 <_write>
    23f0:	00054e63          	bltz	a0,240c <puts+0x30>
    23f4:	47a9                	c.li	a5,10
    23f6:	4605                	c.li	a2,1
    23f8:	01f10593          	addi	a1,sp,31
    23fc:	4505                	c.li	a0,1
    23fe:	00f10fa3          	sb	a5,31(sp)
    2402:	c36ff0ef          	jal	ra,1838 <_write>
    2406:	6105                	c.addi16sp	sp,32
    2408:	3c90006f          	j	2fd0 <__riscv_restore_0>
    240c:	557d                	c.li	a0,-1
    240e:	bfe5                	c.j	2406 <puts+0x2a>

00002410 <strlen>:
    2410:	00357793          	andi	a5,a0,3
    2414:	872a                	c.mv	a4,a0
    2416:	e79d                	c.bnez	a5,2444 <strlen+0x34>
    2418:	0511                	c.addi	a0,4
    241a:	ffc52783          	lw	a5,-4(a0)
    241e:	200787db          	ffb	a5,a5,zero
    2422:	dbfd                	c.beqz	a5,2418 <strlen+0x8>
    2424:	ffc54783          	lbu	a5,-4(a0)
    2428:	40e50733          	sub	a4,a0,a4
    242c:	ffd54683          	lbu	a3,-3(a0)
    2430:	ffe54603          	lbu	a2,-2(a0)
    2434:	c795                	c.beqz	a5,2460 <strlen+0x50>
    2436:	c28d                	c.beqz	a3,2458 <strlen+0x48>
    2438:	ca05                	c.beqz	a2,2468 <strlen+0x58>
    243a:	fff70513          	addi	a0,a4,-1
    243e:	8082                	c.jr	ra
    2440:	fc068ce3          	beqz	a3,2418 <strlen+0x8>
    2444:	00054783          	lbu	a5,0(a0)
    2448:	0505                	c.addi	a0,1
    244a:	00357693          	andi	a3,a0,3
    244e:	fbed                	c.bnez	a5,2440 <strlen+0x30>
    2450:	8d19                	c.sub	a0,a4
    2452:	157d                	c.addi	a0,-1
    2454:	00008067          	ret
    2458:	ffd70513          	addi	a0,a4,-3
    245c:	00008067          	ret
    2460:	ffc70513          	addi	a0,a4,-4
    2464:	00008067          	ret
    2468:	ffe70513          	addi	a0,a4,-2
    246c:	8082                	c.jr	ra
    246e:	0001                	c.nop

00002470 <__vprintf_help>:
    2470:	33d002ef          	jal	t0,2fac <__riscv_save_0>
    2474:	498227ab          	lwgp	a5,5272 # 81c98 <__printf_count>
    2478:	0785                	c.addi	a5,1
    247a:	48f24c2b          	swgp	a5,5272 # 81c98 <__printf_count>
    247e:	4902140b          	addigp	s0,5264 # 81c90 <__vprintf_buf_len>
    2482:	48c225ab          	lwgp	a1,5260 # 81c8c <__vprintf_buf>
    2486:	401c                	c.lw	a5,0(s0)
    2488:	00178713          	addi	a4,a5,1
    248c:	97ae                	c.add	a5,a1
    248e:	c018                	c.sw	a4,0(s0)
    2490:	00a78023          	sb	a0,0(a5)
    2494:	4007695b          	bnec	a4,64,24a6 <__vprintf_help+0x36>
    2498:	04000613          	li	a2,64
    249c:	4505                	c.li	a0,1
    249e:	b9aff0ef          	jal	ra,1838 <_write>
    24a2:	00042023          	sw	zero,0(s0)
    24a6:	32b0006f          	j	2fd0 <__riscv_restore_0>

000024aa <vprintf>:
    24aa:	1141                	c.addi	sp,-16
    24ac:	c606                	c.swsp	ra,12(sp)
    24ae:	c422                	c.swsp	s0,8(sp)
    24b0:	c226                	c.swsp	s1,4(sp)
    24b2:	c04a                	c.swsp	s2,0(sp)
    24b4:	0800                	c.addi4spn	s0,sp,16
    24b6:	715d                	c.addi16sp	sp,-80
    24b8:	00f10793          	addi	a5,sp,15
    24bc:	00002637          	lui	a2,0x2
    24c0:	9bc1                	c.andi	a5,-16
    24c2:	48c2148b          	addigp	s1,5260 # 81c8c <__vprintf_buf>
    24c6:	4902190b          	addigp	s2,5264 # 81c90 <__vprintf_buf_len>
    24ca:	47060613          	addi	a2,a2,1136 # 2470 <__vprintf_help>
    24ce:	c09c                	c.sw	a5,0(s1)
    24d0:	00092023          	sw	zero,0(s2)
    24d4:	20ad                	c.jal	253e <__printf_impl>
    24d6:	00092603          	lw	a2,0(s2)
    24da:	408c                	c.lw	a1,0(s1)
    24dc:	4505                	c.li	a0,1
    24de:	b5aff0ef          	jal	ra,1838 <_write>
    24e2:	4982252b          	lwgp	a0,5272 # 81c98 <__printf_count>
    24e6:	ff040113          	addi	sp,s0,-16
    24ea:	40b2                	c.lwsp	ra,12(sp)
    24ec:	4422                	c.lwsp	s0,8(sp)
    24ee:	4492                	c.lwsp	s1,4(sp)
    24f0:	4902                	c.lwsp	s2,0(sp)
    24f2:	0141                	c.addi	sp,16
    24f4:	8082                	c.jr	ra

000024f6 <__print_integral>:
    24f6:	2b7002ef          	jal	t0,2fac <__riscv_save_0>
    24fa:	1101                	c.addi	sp,-32
    24fc:	842a                	c.mv	s0,a0
    24fe:	84ae                	c.mv	s1,a1
    2500:	8932                	c.mv	s2,a2
    2502:	c636                	c.swsp	a3,12(sp)
    2504:	85be                	c.mv	a1,a5
    2506:	ca32                	c.swsp	a2,20(sp)
    2508:	853a                	c.mv	a0,a4
    250a:	0830                	c.addi4spn	a2,sp,24
    250c:	214d                	c.jal	29ae <__int_to_poly>
    250e:	46b2                	c.lwsp	a3,12(sp)
    2510:	882a                	c.mv	a6,a0
    2512:	083c                	c.addi4spn	a5,sp,24
    2514:	0858                	c.addi4spn	a4,sp,20
    2516:	864a                	c.mv	a2,s2
    2518:	85a6                	c.mv	a1,s1
    251a:	8522                	c.mv	a0,s0
    251c:	2945                	c.jal	29cc <__print_integral_poly>
    251e:	4402178b          	addigp	a5,5184 # 81c40 <__digits>
    2522:	00a46563          	bltu	s0,a0,252c <__print_integral+0x36>
    2526:	6105                	c.addi16sp	sp,32
    2528:	2a90006f          	j	2fd0 <__riscv_restore_0>
    252c:	00044703          	lbu	a4,0(s0)
    2530:	0405                	c.addi	s0,1
    2532:	973e                	c.add	a4,a5
    2534:	00070703          	lb	a4,0(a4)
    2538:	fee40fa3          	sb	a4,-1(s0)
    253c:	b7dd                	c.j	2522 <__print_integral+0x2c>

0000253e <__printf_impl>:
    253e:	23f002ef          	jal	t0,2f7c <__riscv_save_12>
    2542:	a6010113          	addi	sp,sp,-1440
    2546:	6b05                	c.lui	s6,0x1
    2548:	892a                	c.mv	s2,a0
    254a:	842e                	c.mv	s0,a1
    254c:	89b2                	c.mv	s3,a2
    254e:	01c10a13          	addi	s4,sp,28
    2552:	800b0b13          	addi	s6,s6,-2048 # 800 <analog_read_reg8+0x28>
    2556:	48024c2b          	swgp	zero,5272 # 81c98 <__printf_count>
    255a:	c456                	c.swsp	s5,8(sp)
    255c:	00094503          	lbu	a0,0(s2)
    2560:	e509                	c.bnez	a0,256a <__printf_impl+0x2c>
    2562:	5a010113          	addi	sp,sp,1440
    2566:	2530006f          	j	2fb8 <__riscv_restore_12>
    256a:	00190493          	addi	s1,s2,1
    256e:	005555db          	beqc	a0,37,2578 <__printf_impl+0x3a>
    2572:	9982                	c.jalr	s3
    2574:	8926                	c.mv	s2,s1
    2576:	b7dd                	c.j	255c <__printf_impl+0x1e>
    2578:	00194783          	lbu	a5,1(s2)
    257c:	0057e8db          	bnec	a5,37,258c <__printf_impl+0x4e>
    2580:	02500513          	li	a0,37
    2584:	9982                	c.jalr	s3
    2586:	00290493          	addi	s1,s2,2
    258a:	b7ed                	c.j	2574 <__printf_impl+0x36>
    258c:	4681                	c.li	a3,0
    258e:	4701                	c.li	a4,0
    2590:	d002                	c.swsp	zero,32(sp)
    2592:	0004c783          	lbu	a5,0(s1)
    2596:	0007e7db          	bnec	a5,32,25a4 <__printf_impl+0x66>
    259a:	00276713          	ori	a4,a4,2
    259e:	0485                	c.addi	s1,1
    25a0:	4685                	c.li	a3,1
    25a2:	bfc5                	c.j	2592 <__printf_impl+0x54>
    25a4:	00d7e5db          	bnec	a5,45,25ae <__printf_impl+0x70>
    25a8:	00476713          	ori	a4,a4,4
    25ac:	bfcd                	c.j	259e <__printf_impl+0x60>
    25ae:	00b7e5db          	bnec	a5,43,25b8 <__printf_impl+0x7a>
    25b2:	00876713          	ori	a4,a4,8
    25b6:	b7e5                	c.j	259e <__printf_impl+0x60>
    25b8:	0037e5db          	bnec	a5,35,25c2 <__printf_impl+0x84>
    25bc:	01076713          	ori	a4,a4,16
    25c0:	bff9                	c.j	259e <__printf_impl+0x60>
    25c2:	0107e5db          	bnec	a5,48,25cc <__printf_impl+0x8e>
    25c6:	02076713          	ori	a4,a4,32
    25ca:	bfd1                	c.j	259e <__printf_impl+0x60>
    25cc:	c291                	c.beqz	a3,25d0 <__printf_impl+0x92>
    25ce:	d03a                	c.swsp	a4,32(sp)
    25d0:	04a7eadb          	bnec	a5,42,2624 <__printf_impl+0xe6>
    25d4:	00042c03          	lw	s8,0(s0)
    25d8:	00440713          	addi	a4,s0,4
    25dc:	000c5863          	bgez	s8,25ec <__printf_impl+0xae>
    25e0:	5782                	c.lwsp	a5,32(sp)
    25e2:	41800c33          	neg	s8,s8
    25e6:	0047e793          	ori	a5,a5,4
    25ea:	d03e                	c.swsp	a5,32(sp)
    25ec:	0485                	c.addi	s1,1
    25ee:	843a                	c.mv	s0,a4
    25f0:	0004c783          	lbu	a5,0(s1)
    25f4:	5cfd                	c.li	s9,-1
    25f6:	06e7e4db          	bnec	a5,46,265e <__printf_impl+0x120>
    25fa:	0014c783          	lbu	a5,1(s1)
    25fe:	04a7dbdb          	beqc	a5,42,2654 <__printf_impl+0x116>
    2602:	0485                	c.addi	s1,1
    2604:	4c81                	c.li	s9,0
    2606:	4725                	c.li	a4,9
    2608:	4629                	c.li	a2,10
    260a:	0004c783          	lbu	a5,0(s1)
    260e:	fd078793          	addi	a5,a5,-48
    2612:	0ff7f693          	andi	a3,a5,255
    2616:	04d76463          	bltu	a4,a3,265e <__printf_impl+0x120>
    261a:	c4cc97ff          	maddr32	a5,s9,a2
    261e:	0485                	c.addi	s1,1
    2620:	8cbe                	c.mv	s9,a5
    2622:	b7e5                	c.j	260a <__printf_impl+0xcc>
    2624:	fd078793          	addi	a5,a5,-48
    2628:	0ff7f793          	andi	a5,a5,255
    262c:	4725                	c.li	a4,9
    262e:	4c01                	c.li	s8,0
    2630:	fcf760e3          	bltu	a4,a5,25f0 <__printf_impl+0xb2>
    2634:	4725                	c.li	a4,9
    2636:	4629                	c.li	a2,10
    2638:	a029                	c.j	2642 <__printf_impl+0x104>
    263a:	c4cc17ff          	maddr32	a5,s8,a2
    263e:	0485                	c.addi	s1,1
    2640:	8c3e                	c.mv	s8,a5
    2642:	0004c783          	lbu	a5,0(s1)
    2646:	fd078793          	addi	a5,a5,-48
    264a:	0ff7f693          	andi	a3,a5,255
    264e:	fed776e3          	bgeu	a4,a3,263a <__printf_impl+0xfc>
    2652:	bf79                	c.j	25f0 <__printf_impl+0xb2>
    2654:	401c                	c.lw	a5,0(s0)
    2656:	0489                	c.addi	s1,2
    2658:	0411                	c.addi	s0,4
    265a:	f2fc8cff          	maxw	s9,s9,a5
    265e:	43200613          	li	a2,1074
    2662:	f0cc867f          	minw	a2,s9,a2
    2666:	0004c783          	lbu	a5,0(s1)
    266a:	4487efdb          	bnec	a5,104,26c8 <__printf_impl+0x18a>
    266e:	5782                	c.lwsp	a5,32(sp)
    2670:	0014c703          	lbu	a4,1(s1)
    2674:	448764db          	bnec	a4,104,26bc <__printf_impl+0x17e>
    2678:	0407e793          	ori	a5,a5,64
    267c:	00248913          	addi	s2,s1,2
    2680:	d03e                	c.swsp	a5,32(sp)
    2682:	00094503          	lbu	a0,0(s2)
    2686:	06700793          	li	a5,103
    268a:	0aa7e263          	bltu	a5,a0,272e <__printf_impl+0x1f0>
    268e:	06500793          	li	a5,101
    2692:	06f57d63          	bgeu	a0,a5,270c <__printf_impl+0x1ce>
    2696:	05800793          	li	a5,88
    269a:	5785555b          	beqc	a0,88,2804 <__printf_impl+0x2c6>
    269e:	04a7ef63          	bltu	a5,a0,26fc <__printf_impl+0x1be>
    26a2:	04100793          	li	a5,65
    26a6:	4615535b          	beqc	a0,65,270c <__printf_impl+0x1ce>
    26aa:	00f56763          	bltu	a0,a5,26b8 <__printf_impl+0x17a>
    26ae:	fbb50793          	addi	a5,a0,-69
    26b2:	4709                	c.li	a4,2
    26b4:	04f77c63          	bgeu	a4,a5,270c <__printf_impl+0x1ce>
    26b8:	84a2                	c.mv	s1,s0
    26ba:	a481                	c.j	28fa <__printf_impl+0x3bc>
    26bc:	0807e793          	ori	a5,a5,128
    26c0:	d03e                	c.swsp	a5,32(sp)
    26c2:	00148913          	addi	s2,s1,1
    26c6:	bf75                	c.j	2682 <__printf_impl+0x144>
    26c8:	40c7eddb          	bnec	a5,108,26e2 <__printf_impl+0x1a4>
    26cc:	5782                	c.lwsp	a5,32(sp)
    26ce:	0014c703          	lbu	a4,1(s1)
    26d2:	40c765db          	bnec	a4,108,26dc <__printf_impl+0x19e>
    26d6:	2007e793          	ori	a5,a5,512
    26da:	b74d                	c.j	267c <__printf_impl+0x13e>
    26dc:	1007e793          	ori	a5,a5,256
    26e0:	b7c5                	c.j	26c0 <__printf_impl+0x182>
    26e2:	00148913          	addi	s2,s1,1
    26e6:	41a7e7db          	bnec	a5,122,26f4 <__printf_impl+0x1b6>
    26ea:	5782                	c.lwsp	a5,32(sp)
    26ec:	1007e793          	ori	a5,a5,256
    26f0:	d03e                	c.swsp	a5,32(sp)
    26f2:	bf41                	c.j	2682 <__printf_impl+0x144>
    26f4:	ff47dbdb          	beqc	a5,116,26ea <__printf_impl+0x1ac>
    26f8:	8926                	c.mv	s2,s1
    26fa:	b761                	c.j	2682 <__printf_impl+0x144>
    26fc:	06300793          	li	a5,99
    2700:	50355cdb          	beqc	a0,99,2818 <__printf_impl+0x2da>
    2704:	04a7e463          	bltu	a5,a0,274c <__printf_impl+0x20e>
    2708:	fa1568db          	bnec	a0,97,26b8 <__printf_impl+0x17a>
    270c:	041d                	c.addi	s0,7
    270e:	9861                	c.andi	s0,-8
    2710:	00042803          	lw	a6,0(s0)
    2714:	00442883          	lw	a7,4(s0)
    2718:	02057b93          	andi	s7,a0,32
    271c:	87aa                	c.mv	a5,a0
    271e:	86c2                	c.mv	a3,a6
    2720:	8746                	c.mv	a4,a7
    2722:	100c                	c.addi4spn	a1,sp,32
    2724:	1048                	c.addi4spn	a0,sp,36
    2726:	00840493          	addi	s1,s0,8
    272a:	2e0d                	c.jal	2a5c <__printf_float_impl>
    272c:	aa45                	c.j	28dc <__printf_impl+0x39e>
    272e:	07000793          	li	a5,112
    2732:	4d0559db          	beqc	a0,112,2804 <__printf_impl+0x2c6>
    2736:	04a7e163          	bltu	a5,a0,2778 <__printf_impl+0x23a>
    273a:	06e00793          	li	a5,110
    273e:	5ae553db          	beqc	a0,110,28e4 <__printf_impl+0x3a6>
    2742:	45a1                	c.li	a1,8
    2744:	0ca7e163          	bltu	a5,a0,2806 <__printf_impl+0x2c8>
    2748:	f69568db          	bnec	a0,105,26b8 <__printf_impl+0x17a>
    274c:	5682                	c.lwsp	a3,32(sp)
    274e:	0e66f05b          	bbc	a3,6,282e <__printf_impl+0x2f0>
    2752:	00040703          	lb	a4,0(s0)
    2756:	00440493          	addi	s1,s0,4
    275a:	41f75793          	srai	a5,a4,0x1f
    275e:	0e07df63          	bgez	a5,285c <__printf_impl+0x31e>
    2762:	40e00733          	neg	a4,a4
    2766:	00e035b3          	snez	a1,a4
    276a:	40f007b3          	neg	a5,a5
    276e:	8f8d                	c.sub	a5,a1
    2770:	4006e693          	ori	a3,a3,1024
    2774:	d036                	c.swsp	a3,32(sp)
    2776:	a0dd                	c.j	285c <__printf_impl+0x31e>
    2778:	515553db          	beqc	a0,117,287e <__printf_impl+0x340>
    277c:	498554db          	beqc	a0,120,2804 <__printf_impl+0x2c6>
    2780:	f3356cdb          	bnec	a0,115,26b8 <__printf_impl+0x17a>
    2784:	00042a83          	lw	s5,0(s0)
    2788:	85b2                	c.mv	a1,a2
    278a:	8556                	c.mv	a0,s5
    278c:	c632                	c.swsp	a2,12(sp)
    278e:	27b1                	c.jal	2eda <strnlen>
    2790:	57fd                	c.li	a5,-1
    2792:	00440493          	addi	s1,s0,4
    2796:	00fc8563          	beq	s9,a5,27a0 <__printf_impl+0x262>
    279a:	4632                	c.lwsp	a2,12(sp)
    279c:	f0c5057f          	minw	a0,a0,a2
    27a0:	00aa8433          	add	s0,s5,a0
    27a4:	4b81                	c.li	s7,0
    27a6:	5782                	c.lwsp	a5,32(sp)
    27a8:	02d00693          	li	a3,45
    27ac:	40a7fb5b          	bbs	a5,10,27c2 <__printf_impl+0x284>
    27b0:	02b00693          	li	a3,43
    27b4:	4037f75b          	bbs	a5,3,27c2 <__printf_impl+0x284>
    27b8:	8cd2                	c.mv	s9,s4
    27ba:	0017f85b          	bbc	a5,1,27ca <__printf_impl+0x28c>
    27be:	02000693          	li	a3,32
    27c2:	01d10c93          	addi	s9,sp,29
    27c6:	00d10e23          	sb	a3,28(sp)
    27ca:	0167f6b3          	and	a3,a5,s6
    27ce:	ca91                	c.beqz	a3,27e2 <__printf_impl+0x2a4>
    27d0:	03000693          	li	a3,48
    27d4:	00dc8023          	sb	a3,0(s9)
    27d8:	05800693          	li	a3,88
    27dc:	00dc80a3          	sb	a3,1(s9)
    27e0:	0c89                	c.addi	s9,2
    27e2:	5627f35b          	bbs	a5,2,2948 <__printf_impl+0x40a>
    27e6:	41540db3          	sub	s11,s0,s5
    27ea:	4057fa5b          	bbs	a5,5,27fe <__printf_impl+0x2c0>
    27ee:	41bc0d33          	sub	s10,s8,s11
    27f2:	414c87b3          	sub	a5,s9,s4
    27f6:	40fd0d33          	sub	s10,s10,a5
    27fa:	17a04663          	bgtz	s10,2966 <__printf_impl+0x428>
    27fe:	8d52                	c.mv	s10,s4
    2800:	9c52                	c.add	s8,s4
    2802:	aaad                	c.j	297c <__printf_impl+0x43e>
    2804:	45c1                	c.li	a1,16
    2806:	5782                	c.lwsp	a5,32(sp)
    2808:	0667fd5b          	bbc	a5,6,2882 <__printf_impl+0x344>
    280c:	00044703          	lbu	a4,0(s0)
    2810:	00440493          	addi	s1,s0,4
    2814:	4781                	c.li	a5,0
    2816:	a859                	c.j	28ac <__printf_impl+0x36e>
    2818:	401c                	c.lw	a5,0(s0)
    281a:	00440493          	addi	s1,s0,4
    281e:	4b81                	c.li	s7,0
    2820:	02510413          	addi	s0,sp,37
    2824:	02f10223          	sb	a5,36(sp)
    2828:	02410a93          	addi	s5,sp,36
    282c:	bfad                	c.j	27a6 <__printf_impl+0x268>
    282e:	0076f75b          	bbc	a3,7,283c <__printf_impl+0x2fe>
    2832:	00440493          	addi	s1,s0,4
    2836:	00041703          	lh	a4,0(s0)
    283a:	b705                	c.j	275a <__printf_impl+0x21c>
    283c:	0086f65b          	bbc	a3,8,2848 <__printf_impl+0x30a>
    2840:	00440493          	addi	s1,s0,4
    2844:	4018                	c.lw	a4,0(s0)
    2846:	bf11                	c.j	275a <__printf_impl+0x21c>
    2848:	be96fc5b          	bbc	a3,9,2840 <__printf_impl+0x302>
    284c:	041d                	c.addi	s0,7
    284e:	9861                	c.andi	s0,-8
    2850:	405c                	c.lw	a5,4(s0)
    2852:	00840493          	addi	s1,s0,8
    2856:	4018                	c.lw	a4,0(s0)
    2858:	0007c963          	bltz	a5,286a <__printf_impl+0x32c>
    285c:	56fd                	c.li	a3,-1
    285e:	45a9                	c.li	a1,10
    2860:	4b81                	c.li	s7,0
    2862:	04dc9a63          	bne	s9,a3,28b6 <__printf_impl+0x378>
    2866:	4605                	c.li	a2,1
    2868:	a0b5                	c.j	28d4 <__printf_impl+0x396>
    286a:	ee071ce3          	bnez	a4,2762 <__printf_impl+0x224>
    286e:	800005b7          	lui	a1,0x80000
    2872:	eeb798e3          	bne	a5,a1,2762 <__printf_impl+0x224>
    2876:	4701                	c.li	a4,0
    2878:	800007b7          	lui	a5,0x80000
    287c:	bdd5                	c.j	2770 <__printf_impl+0x232>
    287e:	45a9                	c.li	a1,10
    2880:	b759                	c.j	2806 <__printf_impl+0x2c8>
    2882:	0077f75b          	bbc	a5,7,2890 <__printf_impl+0x352>
    2886:	00440493          	addi	s1,s0,4
    288a:	00045703          	lhu	a4,0(s0)
    288e:	b759                	c.j	2814 <__printf_impl+0x2d6>
    2890:	0087f65b          	bbc	a5,8,289c <__printf_impl+0x35e>
    2894:	00440493          	addi	s1,s0,4
    2898:	4018                	c.lw	a4,0(s0)
    289a:	bfad                	c.j	2814 <__printf_impl+0x2d6>
    289c:	be97fc5b          	bbc	a5,9,2894 <__printf_impl+0x356>
    28a0:	041d                	c.addi	s0,7
    28a2:	9861                	c.andi	s0,-8
    28a4:	4018                	c.lw	a4,0(s0)
    28a6:	405c                	c.lw	a5,4(s0)
    28a8:	00840493          	addi	s1,s0,8
    28ac:	56fd                	c.li	a3,-1
    28ae:	02057b93          	andi	s7,a0,32
    28b2:	02dc8763          	beq	s9,a3,28e0 <__printf_impl+0x3a2>
    28b6:	5682                	c.lwsp	a3,32(sp)
    28b8:	fdf6f693          	andi	a3,a3,-33
    28bc:	d036                	c.swsp	a3,32(sp)
    28be:	0105eb5b          	bnec	a1,16,28d4 <__printf_impl+0x396>
    28c2:	5682                	c.lwsp	a3,32(sp)
    28c4:	0046f85b          	bbc	a3,4,28d4 <__printf_impl+0x396>
    28c8:	00f76533          	or	a0,a4,a5
    28cc:	c501                	c.beqz	a0,28d4 <__printf_impl+0x396>
    28ce:	0166e6b3          	or	a3,a3,s6
    28d2:	d036                	c.swsp	a3,32(sp)
    28d4:	86b2                	c.mv	a3,a2
    28d6:	5602                	c.lwsp	a2,32(sp)
    28d8:	1048                	c.addi4spn	a0,sp,36
    28da:	3931                	c.jal	24f6 <__print_integral>
    28dc:	842a                	c.mv	s0,a0
    28de:	b7a9                	c.j	2828 <__printf_impl+0x2ea>
    28e0:	4605                	c.li	a2,1
    28e2:	bff1                	c.j	28be <__printf_impl+0x380>
    28e4:	45a2                	c.lwsp	a1,8(sp)
    28e6:	5682                	c.lwsp	a3,32(sp)
    28e8:	00440493          	addi	s1,s0,4
    28ec:	498227ab          	lwgp	a5,5272 # 81c98 <__printf_count>
    28f0:	4018                	c.lw	a4,0(s0)
    28f2:	0066f85b          	bbc	a3,6,2902 <__printf_impl+0x3c4>
    28f6:	00f70023          	sb	a5,0(a4)
    28fa:	1040                	c.addi4spn	s0,sp,36
    28fc:	4b81                	c.li	s7,0
    28fe:	8aa2                	c.mv	s5,s0
    2900:	b55d                	c.j	27a6 <__printf_impl+0x268>
    2902:	0076f55b          	bbc	a3,7,290c <__printf_impl+0x3ce>
    2906:	00f71023          	sh	a5,0(a4)
    290a:	bfc5                	c.j	28fa <__printf_impl+0x3bc>
    290c:	c31c                	c.sw	a5,0(a4)
    290e:	fe86f65b          	bbs	a3,8,28fa <__printf_impl+0x3bc>
    2912:	be96f45b          	bbc	a3,9,28fa <__printf_impl+0x3bc>
    2916:	87fd                	c.srai	a5,0x1f
    2918:	c35c                	c.sw	a5,4(a4)
    291a:	b7c5                	c.j	28fa <__printf_impl+0x3bc>
    291c:	000dc503          	lbu	a0,0(s11)
    2920:	0d85                	c.addi	s11,1
    2922:	01756533          	or	a0,a0,s7
    2926:	9982                	c.jalr	s3
    2928:	41bc0d33          	sub	s10,s8,s11
    292c:	ff9de8e3          	bltu	s11,s9,291c <__printf_impl+0x3de>
    2930:	8c56                	c.mv	s8,s5
    2932:	01841e63          	bne	s0,s8,294e <__printf_impl+0x410>
    2936:	41540433          	sub	s0,s0,s5
    293a:	408d0433          	sub	s0,s10,s0
    293e:	00804f63          	bgtz	s0,295c <__printf_impl+0x41e>
    2942:	0905                	c.addi	s2,1
    2944:	8426                	c.mv	s0,s1
    2946:	b919                	c.j	255c <__printf_impl+0x1e>
    2948:	8dd2                	c.mv	s11,s4
    294a:	9c52                	c.add	s8,s4
    294c:	bff1                	c.j	2928 <__printf_impl+0x3ea>
    294e:	000c4503          	lbu	a0,0(s8)
    2952:	0c05                	c.addi	s8,1
    2954:	01756533          	or	a0,a0,s7
    2958:	9982                	c.jalr	s3
    295a:	bfe1                	c.j	2932 <__printf_impl+0x3f4>
    295c:	02000513          	li	a0,32
    2960:	9982                	c.jalr	s3
    2962:	147d                	c.addi	s0,-1
    2964:	bfe9                	c.j	293e <__printf_impl+0x400>
    2966:	02000513          	li	a0,32
    296a:	9982                	c.jalr	s3
    296c:	1d7d                	c.addi	s10,-1
    296e:	b571                	c.j	27fa <__printf_impl+0x2bc>
    2970:	000d4503          	lbu	a0,0(s10)
    2974:	0d05                	c.addi	s10,1
    2976:	01756533          	or	a0,a0,s7
    297a:	9982                	c.jalr	s3
    297c:	41ac07b3          	sub	a5,s8,s10
    2980:	ff9d68e3          	bltu	s10,s9,2970 <__printf_impl+0x432>
    2984:	5682                	c.lwsp	a3,32(sp)
    2986:	0056f65b          	bbc	a3,5,2992 <__printf_impl+0x454>
    298a:	41b78db3          	sub	s11,a5,s11
    298e:	01b04b63          	bgtz	s11,29a4 <__printf_impl+0x466>
    2992:	fb5408e3          	beq	s0,s5,2942 <__printf_impl+0x404>
    2996:	000ac503          	lbu	a0,0(s5)
    299a:	0a85                	c.addi	s5,1
    299c:	01756533          	or	a0,a0,s7
    29a0:	9982                	c.jalr	s3
    29a2:	bfc5                	c.j	2992 <__printf_impl+0x454>
    29a4:	03000513          	li	a0,48
    29a8:	9982                	c.jalr	s3
    29aa:	1dfd                	c.addi	s11,-1
    29ac:	b7cd                	c.j	298e <__printf_impl+0x450>

000029ae <__int_to_poly>:
    29ae:	872a                	c.mv	a4,a0
    29b0:	87ae                	c.mv	a5,a1
    29b2:	4501                	c.li	a0,0
    29b4:	00f766b3          	or	a3,a4,a5
    29b8:	e291                	c.bnez	a3,29bc <__int_to_poly+0xe>
    29ba:	8082                	c.jr	ra
    29bc:	00e61023          	sh	a4,0(a2)
    29c0:	0505                	c.addi	a0,1
    29c2:	df07077f          	wexti	a4,a4,16
    29c6:	0609                	c.addi	a2,2
    29c8:	83c1                	c.srli	a5,0x10
    29ca:	b7ed                	c.j	29b4 <__int_to_poly+0x6>

000029cc <__print_integral_poly>:
    29cc:	5e0002ef          	jal	t0,2fac <__riscv_save_0>
    29d0:	88c2                	c.mv	a7,a6
    29d2:	84ba                	c.mv	s1,a4
    29d4:	187d                	c.addi	a6,-1
    29d6:	0b17875b          	lea.h	a4,a5,a7
    29da:	8342                	c.mv	t1,a6
    29dc:	4401                	c.li	s0,0
    29de:	8e3a                	c.mv	t3,a4
    29e0:	1779                	c.addi	a4,-2
    29e2:	02035463          	bgez	t1,2a0a <__print_integral_poly+0x3e>
    29e6:	05105063          	blez	a7,2a26 <__print_integral_poly+0x5a>
    29ea:	ffee5703          	lhu	a4,-2(t3)
    29ee:	eb15                	c.bnez	a4,2a22 <__print_integral_poly+0x56>
    29f0:	03005b63          	blez	a6,2a26 <__print_integral_poly+0x5a>
    29f4:	8726                	c.mv	a4,s1
    29f6:	16fd                	c.addi	a3,-1
    29f8:	3fd1                	c.jal	29cc <__print_integral_poly>
    29fa:	87aa                	c.mv	a5,a0
    29fc:	0505                	c.addi	a0,1
    29fe:	00878023          	sb	s0,0(a5) # 80000000 <_DATA_LMA_START+0x5fffcdd8>
    2a02:	409c                	c.lw	a5,0(s1)
    2a04:	0785                	c.addi	a5,1
    2a06:	c09c                	c.sw	a5,0(s1)
    2a08:	a3e1                	c.j	2fd0 <__riscv_restore_0>
    2a0a:	00075e83          	lhu	t4,0(a4)
    2a0e:	0442                	c.slli	s0,0x10
    2a10:	9476                	c.add	s0,t4
    2a12:	02b45eb3          	divu	t4,s0,a1
    2a16:	137d                	c.addi	t1,-1
    2a18:	02b47433          	remu	s0,s0,a1
    2a1c:	01d71023          	sh	t4,0(a4)
    2a20:	b7c1                	c.j	29e0 <__print_integral_poly+0x14>
    2a22:	8846                	c.mv	a6,a7
    2a24:	bfc1                	c.j	29f4 <__print_integral_poly+0x28>
    2a26:	c011                	c.beqz	s0,2a2a <__print_integral_poly+0x5e>
    2a28:	16fd                	c.addi	a3,-1
    2a2a:	00d04763          	bgtz	a3,2a38 <__print_integral_poly+0x6c>
    2a2e:	0085ee5b          	bnec	a1,8,2a4a <__print_integral_poly+0x7e>
    2a32:	00467c5b          	bbc	a2,4,2a4a <__print_integral_poly+0x7e>
    2a36:	4685                	c.li	a3,1
    2a38:	87aa                	c.mv	a5,a0
    2a3a:	40a78733          	sub	a4,a5,a0
    2a3e:	00d74b63          	blt	a4,a3,2a54 <__print_integral_poly+0x88>
    2a42:	4781                	c.li	a5,0
    2a44:	f2f686ff          	maxw	a3,a3,a5
    2a48:	9536                	c.add	a0,a3
    2a4a:	dc45                	c.beqz	s0,2a02 <__print_integral_poly+0x36>
    2a4c:	00850023          	sb	s0,0(a0)
    2a50:	0505                	c.addi	a0,1
    2a52:	bf45                	c.j	2a02 <__print_integral_poly+0x36>
    2a54:	0785                	c.addi	a5,1
    2a56:	fe078fa3          	sb	zero,-1(a5)
    2a5a:	b7c5                	c.j	2a3a <__print_integral_poly+0x6e>

00002a5c <__printf_float_impl>:
    2a5c:	520002ef          	jal	t0,2f7c <__riscv_save_12>
    2a60:	0df7fc13          	andi	s8,a5,223
    2a64:	8b2a                	c.mv	s6,a0
    2a66:	892e                	c.mv	s2,a1
    2a68:	7169                	c.addi16sp	sp,-304
    2a6a:	84b2                	c.mv	s1,a2
    2a6c:	8536                	c.mv	a0,a3
    2a6e:	85ba                	c.mv	a1,a4
    2a70:	8a3e                	c.mv	s4,a5
    2a72:	467c6c5b          	bnec	s8,71,2aea <__printf_float_impl+0x8e>
    2a76:	00092983          	lw	s3,0(s2)
    2a7a:	0109c993          	xori	s3,s3,16
    2a7e:	1049a9db          	bfoz	s3,s3,4,4
    2a82:	0604da63          	bgez	s1,2af6 <__printf_float_impl+0x9a>
    2a86:	4499                	c.li	s1,6
    2a88:	401c635b          	bnec	s8,65,2a8e <__printf_float_impl+0x32>
    2a8c:	44b5                	c.li	s1,13
    2a8e:	dff5047f          	wexti	s0,a0,31
    2a92:	8055                	c.srli	s0,0x15
    2a94:	8aaa                	c.mv	s5,a0
    2a96:	4c05ad5b          	bfoz	s10,a1,19,0
    2a9a:	0005d863          	bgez	a1,2aaa <__printf_float_impl+0x4e>
    2a9e:	00092783          	lw	a5,0(s2)
    2aa2:	4007e793          	ori	a5,a5,1024
    2aa6:	00f92023          	sw	a5,0(s2)
    2aaa:	401c6a5b          	bnec	s8,65,2abe <__printf_float_impl+0x62>
    2aae:	00092783          	lw	a5,0(s2)
    2ab2:	6705                	c.lui	a4,0x1
    2ab4:	80070713          	addi	a4,a4,-2048 # 800 <analog_read_reg8+0x28>
    2ab8:	8fd9                	c.or	a5,a4
    2aba:	00f92023          	sw	a5,0(s2)
    2abe:	7ff00793          	li	a5,2047
    2ac2:	04f41563          	bne	s0,a5,2b0c <__printf_float_impl+0xb0>
    2ac6:	00092783          	lw	a5,0(s2)
    2aca:	00ad66b3          	or	a3,s10,a0
    2ace:	fdf7f793          	andi	a5,a5,-33
    2ad2:	00f92023          	sw	a5,0(s2)
    2ad6:	c695                	c.beqz	a3,2b02 <__printf_float_impl+0xa6>
    2ad8:	000825b7          	lui	a1,0x82
    2adc:	c5058593          	addi	a1,a1,-944 # 81c50 <__digits+0x10>
    2ae0:	855a                	c.mv	a0,s6
    2ae2:	2ead                	c.jal	2e5c <strcpy>
    2ae4:	050d                	c.addi	a0,3
    2ae6:	6155                	c.addi16sp	sp,304
    2ae8:	a9c1                	c.j	2fb8 <__riscv_restore_12>
    2aea:	4981                	c.li	s3,0
    2aec:	f81c6b5b          	bnec	s8,65,2a82 <__printf_float_impl+0x26>
    2af0:	01f65993          	srli	s3,a2,0x1f
    2af4:	b779                	c.j	2a82 <__printf_float_impl+0x26>
    2af6:	fcc1                	c.bnez	s1,2a8e <__printf_float_impl+0x32>
    2af8:	fb9c0493          	addi	s1,s8,-71
    2afc:	0014b493          	seqz	s1,s1
    2b00:	b779                	c.j	2a8e <__printf_float_impl+0x32>
    2b02:	000825b7          	lui	a1,0x82
    2b06:	c5458593          	addi	a1,a1,-940 # 81c54 <__digits+0x14>
    2b0a:	bfd9                	c.j	2ae0 <__printf_float_impl+0x84>
    2b0c:	e811                	c.bnez	s0,2b20 <__printf_float_impl+0xc4>
    2b0e:	00ad66b3          	or	a3,s10,a0
    2b12:	c0300413          	li	s0,-1021
    2b16:	18069363          	bnez	a3,2c9c <__printf_float_impl+0x240>
    2b1a:	03500413          	li	s0,53
    2b1e:	a829                	c.j	2b38 <__printf_float_impl+0xdc>
    2b20:	00100db7          	lui	s11,0x100
    2b24:	01adedb3          	or	s11,s11,s10
    2b28:	c0240413          	addi	s0,s0,-1022
    2b2c:	03400793          	li	a5,52
    2b30:	8aaa                	c.mv	s5,a0
    2b32:	8d6e                	c.mv	s10,s11
    2b34:	1687d263          	bge	a5,s0,2c98 <__printf_float_impl+0x23c>
    2b38:	fcb40413          	addi	s0,s0,-53
    2b3c:	00445b93          	srli	s7,s0,0x4
    2b40:	001b9c93          	slli	s9,s7,0x1
    2b44:	8666                	c.mv	a2,s9
    2b46:	4581                	c.li	a1,0
    2b48:	1008                	c.addi4spn	a0,sp,32
    2b4a:	e8cff0ef          	jal	ra,21d6 <memset>
    2b4e:	883d                	c.andi	s0,15
    2b50:	1a0c                	c.addi4spn	a1,sp,304
    2b52:	9cae                	c.add	s9,a1
    2b54:	8622                	c.mv	a2,s0
    2b56:	8556                	c.mv	a0,s5
    2b58:	85ea                	c.mv	a1,s10
    2b5a:	2ecd                	c.jal	2f4c <__ashldi3>
    2b5c:	4641                	c.li	a2,16
    2b5e:	eeac9823          	sh	a0,-272(s9)
    2b62:	1014                	c.addi4spn	a3,sp,32
    2b64:	0b85                	c.addi	s7,1
    2b66:	8e01                	c.sub	a2,s0
    2b68:	8556                	c.mv	a0,s5
    2b6a:	85ea                	c.mv	a1,s10
    2b6c:	0b768cdb          	lea.h	s9,a3,s7
    2b70:	2675                	c.jal	2f1c <__lshrdi3>
    2b72:	8666                	c.mv	a2,s9
    2b74:	3d2d                	c.jal	29ae <__int_to_poly>
    2b76:	4c81                	c.li	s9,0
    2b78:	9baa                	c.add	s7,a0
    2b7a:	57fd                	c.li	a5,-1
    2b7c:	ce3e                	c.swsp	a5,28(sp)
    2b7e:	4429                	c.li	s0,10
    2b80:	401c635b          	bnec	s8,65,2b86 <__printf_float_impl+0x12a>
    2b84:	4441                	c.li	s0,16
    2b86:	885e                	c.mv	a6,s7
    2b88:	101c                	c.addi4spn	a5,sp,32
    2b8a:	4685                	c.li	a3,1
    2b8c:	0878                	c.addi4spn	a4,sp,28
    2b8e:	4601                	c.li	a2,0
    2b90:	85a2                	c.mv	a1,s0
    2b92:	855a                	c.mv	a0,s6
    2b94:	3d25                	c.jal	29cc <__print_integral_poly>
    2b96:	02e00793          	li	a5,46
    2b9a:	00f50023          	sb	a5,0(a0)
    2b9e:	001bbb93          	seqz	s7,s7
    2ba2:	0dba7a13          	andi	s4,s4,219
    2ba6:	00150693          	addi	a3,a0,1
    2baa:	87de                	c.mv	a5,s7
    2bac:	401a535b          	beqc	s4,65,2bb2 <__printf_float_impl+0x156>
    2bb0:	4781                	c.li	a5,0
    2bb2:	00148713          	addi	a4,s1,1
    2bb6:	973e                	c.add	a4,a5
    2bb8:	fffc8893          	addi	a7,s9,-1
    2bbc:	001c9613          	slli	a2,s9,0x1
    2bc0:	112c                	c.addi4spn	a1,sp,168
    2bc2:	95b2                	c.add	a1,a2
    2bc4:	8846                	c.mv	a6,a7
    2bc6:	4781                	c.li	a5,0
    2bc8:	15f9                	c.addi	a1,-2
    2bca:	16085d63          	bgez	a6,2d44 <__printf_float_impl+0x2e8>
    2bce:	01905863          	blez	s9,2bde <__printf_float_impl+0x182>
    2bd2:	1a0c                	c.addi4spn	a1,sp,304
    2bd4:	962e                	c.add	a2,a1
    2bd6:	f7665603          	lhu	a2,-138(a2)
    2bda:	e211                	c.bnez	a2,2bde <__printf_float_impl+0x182>
    2bdc:	8cc6                	c.mv	s9,a7
    2bde:	160b8c63          	beqz	s7,2d56 <__printf_float_impl+0x2fa>
    2be2:	4672                	c.lwsp	a2,28(sp)
    2be4:	0017bb93          	seqz	s7,a5
    2be8:	167d                	c.addi	a2,-1
    2bea:	ce32                	c.swsp	a2,28(sp)
    2bec:	0685                	c.addi	a3,1
    2bee:	fef68fa3          	sb	a5,-1(a3)
    2bf2:	f379                	c.bnez	a4,2bb8 <__printf_float_impl+0x15c>
    2bf4:	567c645b          	bnec	s8,71,2d5c <__printf_float_impl+0x300>
    2bf8:	47f2                	c.lwsp	a5,28(sp)
    2bfa:	fff48713          	addi	a4,s1,-1
    2bfe:	1897d163          	bge	a5,s1,2d80 <__printf_float_impl+0x324>
    2c02:	5671                	c.li	a2,-4
    2c04:	16c7ce63          	blt	a5,a2,2d80 <__printf_float_impl+0x324>
    2c08:	40f704b3          	sub	s1,a4,a5
    2c0c:	04600c13          	li	s8,70
    2c10:	0489                	c.addi	s1,2
    2c12:	9526                	c.add	a0,s1
    2c14:	fff54683          	lbu	a3,-1(a0)
    2c18:	40145713          	srai	a4,s0,0x1
    2c1c:	fff50793          	addi	a5,a0,-1
    2c20:	00e6a6b3          	slt	a3,a3,a4
    2c24:	0016c693          	xori	a3,a3,1
    2c28:	863e                	c.mv	a2,a5
    2c2a:	1acb7663          	bgeu	s6,a2,2dd6 <__printf_float_impl+0x37a>
    2c2e:	18069263          	bnez	a3,2db2 <__printf_float_impl+0x356>
    2c32:	17fd                	c.addi	a5,-1
    2c34:	00178513          	addi	a0,a5,1
    2c38:	00fb7763          	bgeu	s6,a5,2c46 <__printf_float_impl+0x1ea>
    2c3c:	00098563          	beqz	s3,2c46 <__printf_float_impl+0x1ea>
    2c40:	0007c703          	lbu	a4,0(a5)
    2c44:	d77d                	c.beqz	a4,2c32 <__printf_float_impl+0x1d6>
    2c46:	fff54783          	lbu	a5,-1(a0)
    2c4a:	00e7e7db          	bnec	a5,46,2c58 <__printf_float_impl+0x1fc>
    2c4e:	00092783          	lw	a5,0(s2)
    2c52:	4047f35b          	bbs	a5,4,2c58 <__printf_float_impl+0x1fc>
    2c56:	157d                	c.addi	a0,-1
    2c58:	46bd                	c.li	a3,15
    2c5a:	4402170b          	addigp	a4,5184 # 81c40 <__digits>
    2c5e:	1aab6a63          	bltu	s6,a0,2e12 <__printf_float_impl+0x3b6>
    2c62:	5c5c635b          	bnec	s8,69,2e28 <__printf_float_impl+0x3cc>
    2c66:	01850023          	sb	s8,0(a0)
    2c6a:	4772                	c.lwsp	a4,28(sp)
    2c6c:	02d00793          	li	a5,45
    2c70:	00074463          	bltz	a4,2c78 <__printf_float_impl+0x21c>
    2c74:	02b00793          	li	a5,43
    2c78:	00f500a3          	sb	a5,1(a0)
    2c7c:	47f2                	c.lwsp	a5,28(sp)
    2c7e:	4689                	c.li	a3,2
    2c80:	40f00733          	neg	a4,a5
    2c84:	f2f7077f          	maxw	a4,a4,a5
    2c88:	41f75793          	srai	a5,a4,0x1f
    2c8c:	4601                	c.li	a2,0
    2c8e:	45a9                	c.li	a1,10
    2c90:	0509                	c.addi	a0,2
    2c92:	865ff0ef          	jal	ra,24f6 <__print_integral>
    2c96:	bd81                	c.j	2ae6 <__printf_float_impl+0x8a>
    2c98:	06804363          	bgtz	s0,2cfe <__printf_float_impl+0x2a2>
    2c9c:	40800433          	neg	s0,s0
    2ca0:	00445b93          	srli	s7,s0,0x4
    2ca4:	001b9d93          	slli	s11,s7,0x1
    2ca8:	866e                	c.mv	a2,s11
    2caa:	4581                	c.li	a1,0
    2cac:	1128                	c.addi4spn	a0,sp,168
    2cae:	d28ff0ef          	jal	ra,21d6 <memset>
    2cb2:	112c                	c.addi4spn	a1,sp,168
    2cb4:	883d                	c.andi	s0,15
    2cb6:	9dae                	c.add	s11,a1
    2cb8:	02540413          	addi	s0,s0,37
    2cbc:	876e                	c.mv	a4,s11
    2cbe:	4c81                	c.li	s9,0
    2cc0:	001c8793          	addi	a5,s9,1
    2cc4:	8622                	c.mv	a2,s0
    2cc6:	8556                	c.mv	a0,s5
    2cc8:	85ea                	c.mv	a1,s10
    2cca:	c63a                	c.swsp	a4,12(sp)
    2ccc:	c43e                	c.swsp	a5,8(sp)
    2cce:	24b9                	c.jal	2f1c <__lshrdi3>
    2cd0:	4732                	c.lwsp	a4,12(sp)
    2cd2:	1441                	c.addi	s0,-16
    2cd4:	00a71023          	sh	a0,0(a4)
    2cd8:	47a2                	c.lwsp	a5,8(sp)
    2cda:	0709                	c.addi	a4,2
    2cdc:	00045f63          	bgez	s0,2cfa <__printf_float_impl+0x29e>
    2ce0:	0afd8ddb          	lea.h	s11,s11,a5
    2ce4:	40800633          	neg	a2,s0
    2ce8:	8556                	c.mv	a0,s5
    2cea:	85ea                	c.mv	a1,s10
    2cec:	0c89                	c.addi	s9,2
    2cee:	2cb9                	c.jal	2f4c <__ashldi3>
    2cf0:	9cde                	c.add	s9,s7
    2cf2:	00ad9023          	sh	a0,0(s11) # 100000 <FLASH_SIZE>
    2cf6:	4b81                	c.li	s7,0
    2cf8:	b549                	c.j	2b7a <__printf_float_impl+0x11e>
    2cfa:	8cbe                	c.mv	s9,a5
    2cfc:	b7d1                	c.j	2cc0 <__printf_float_impl+0x264>
    2cfe:	03500613          	li	a2,53
    2d02:	8e01                	c.sub	a2,s0
    2d04:	85ee                	c.mv	a1,s11
    2d06:	2c19                	c.jal	2f1c <__lshrdi3>
    2d08:	1010                	c.addi4spn	a2,sp,32
    2d0a:	3155                	c.jal	29ae <__int_to_poly>
    2d0c:	02500793          	li	a5,37
    2d10:	8baa                	c.mv	s7,a0
    2d12:	40878433          	sub	s0,a5,s0
    2d16:	0a810d13          	addi	s10,sp,168
    2d1a:	4c81                	c.li	s9,0
    2d1c:	0c85                	c.addi	s9,1
    2d1e:	00045a63          	bgez	s0,2d32 <__printf_float_impl+0x2d6>
    2d22:	40800633          	neg	a2,s0
    2d26:	8556                	c.mv	a0,s5
    2d28:	85ee                	c.mv	a1,s11
    2d2a:	240d                	c.jal	2f4c <__ashldi3>
    2d2c:	00ad1023          	sh	a0,0(s10)
    2d30:	b5a9                	c.j	2b7a <__printf_float_impl+0x11e>
    2d32:	8622                	c.mv	a2,s0
    2d34:	8556                	c.mv	a0,s5
    2d36:	85ee                	c.mv	a1,s11
    2d38:	22d5                	c.jal	2f1c <__lshrdi3>
    2d3a:	1441                	c.addi	s0,-16
    2d3c:	00ad1023          	sh	a0,0(s10)
    2d40:	0d09                	c.addi	s10,2
    2d42:	bfe9                	c.j	2d1c <__printf_float_impl+0x2c0>
    2d44:	0005d303          	lhu	t1,0(a1)
    2d48:	187d                	c.addi	a6,-1
    2d4a:	c48317ff          	maddr32	a5,t1,s0
    2d4e:	00f59023          	sh	a5,0(a1)
    2d52:	83c1                	c.srli	a5,0x10
    2d54:	bd95                	c.j	2bc8 <__printf_float_impl+0x16c>
    2d56:	177d                	c.addi	a4,-1
    2d58:	4b81                	c.li	s7,0
    2d5a:	bd49                	c.j	2bec <__printf_float_impl+0x190>
    2d5c:	8726                	c.mv	a4,s1
    2d5e:	ea6c595b          	beqc	s8,70,2c10 <__printf_float_impl+0x1b4>
    2d62:	47f2                	c.lwsp	a5,28(sp)
    2d64:	001b0613          	addi	a2,s6,1
    2d68:	02f04463          	bgtz	a5,2d90 <__printf_float_impl+0x334>
    2d6c:	c785                	c.beqz	a5,2d94 <__printf_float_impl+0x338>
    2d6e:	40f507b3          	sub	a5,a0,a5
    2d72:	02d7e963          	bltu	a5,a3,2da4 <__printf_float_impl+0x348>
    2d76:	001b0783          	lb	a5,1(s6)
    2d7a:	00fb0023          	sb	a5,0(s6)
    2d7e:	a819                	c.j	2d94 <__printf_float_impl+0x338>
    2d80:	04500c13          	li	s8,69
    2d84:	bff9                	c.j	2d62 <__printf_float_impl+0x306>
    2d86:	fff50783          	lb	a5,-1(a0)
    2d8a:	157d                	c.addi	a0,-1
    2d8c:	00f500a3          	sb	a5,1(a0)
    2d90:	fec51be3          	bne	a0,a2,2d86 <__printf_float_impl+0x32a>
    2d94:	02e00793          	li	a5,46
    2d98:	001b0513          	addi	a0,s6,1
    2d9c:	00fb00a3          	sb	a5,1(s6)
    2da0:	84ba                	c.mv	s1,a4
    2da2:	b5bd                	c.j	2c10 <__printf_float_impl+0x1b4>
    2da4:	0785                	c.addi	a5,1
    2da6:	fff7c603          	lbu	a2,-1(a5)
    2daa:	0505                	c.addi	a0,1
    2dac:	fec50fa3          	sb	a2,-1(a0)
    2db0:	b7c9                	c.j	2d72 <__printf_float_impl+0x316>
    2db2:	167d                	c.addi	a2,-1
    2db4:	00064703          	lbu	a4,0(a2)
    2db8:	a6e759db          	beqc	a4,46,2c2a <__printf_float_impl+0x1ce>
    2dbc:	0705                	c.addi	a4,1
    2dbe:	0ff77713          	andi	a4,a4,255
    2dc2:	00875663          	bge	a4,s0,2dce <__printf_float_impl+0x372>
    2dc6:	00e60023          	sb	a4,0(a2)
    2dca:	4681                	c.li	a3,0
    2dcc:	bdb9                	c.j	2c2a <__printf_float_impl+0x1ce>
    2dce:	8f01                	c.sub	a4,s0
    2dd0:	00e60023          	sb	a4,0(a2)
    2dd4:	bd99                	c.j	2c2a <__printf_float_impl+0x1ce>
    2dd6:	873e                	c.mv	a4,a5
    2dd8:	e4068de3          	beqz	a3,2c32 <__printf_float_impl+0x1d6>
    2ddc:	02eb6363          	bltu	s6,a4,2e02 <__printf_float_impl+0x3a6>
    2de0:	4705                	c.li	a4,1
    2de2:	00eb0023          	sb	a4,0(s6)
    2de6:	4772                	c.lwsp	a4,28(sp)
    2de8:	0705                	c.addi	a4,1
    2dea:	ce3a                	c.swsp	a4,28(sp)
    2dec:	426c515b          	beqc	s8,70,2e0e <__printf_float_impl+0x3b2>
    2df0:	001b0703          	lb	a4,1(s6)
    2df4:	00eb0123          	sb	a4,2(s6)
    2df8:	02e00713          	li	a4,46
    2dfc:	00eb00a3          	sb	a4,1(s6)
    2e00:	bd0d                	c.j	2c32 <__printf_float_impl+0x1d6>
    2e02:	fff70683          	lb	a3,-1(a4)
    2e06:	177d                	c.addi	a4,-1
    2e08:	00d700a3          	sb	a3,1(a4)
    2e0c:	bfc1                	c.j	2ddc <__printf_float_impl+0x380>
    2e0e:	87aa                	c.mv	a5,a0
    2e10:	b50d                	c.j	2c32 <__printf_float_impl+0x1d6>
    2e12:	000b4783          	lbu	a5,0(s6)
    2e16:	00f6e763          	bltu	a3,a5,2e24 <__printf_float_impl+0x3c8>
    2e1a:	97ba                	c.add	a5,a4
    2e1c:	00078783          	lb	a5,0(a5)
    2e20:	00fb0023          	sb	a5,0(s6)
    2e24:	0b05                	c.addi	s6,1
    2e26:	bd25                	c.j	2c5e <__printf_float_impl+0x202>
    2e28:	ca1c6f5b          	bnec	s8,65,2ae6 <__printf_float_impl+0x8a>
    2e2c:	05000793          	li	a5,80
    2e30:	00f50023          	sb	a5,0(a0)
    2e34:	4772                	c.lwsp	a4,28(sp)
    2e36:	02d00793          	li	a5,45
    2e3a:	00074463          	bltz	a4,2e42 <__printf_float_impl+0x3e6>
    2e3e:	02b00793          	li	a5,43
    2e42:	00f500a3          	sb	a5,1(a0)
    2e46:	47f2                	c.lwsp	a5,28(sp)
    2e48:	4685                	c.li	a3,1
    2e4a:	40f00733          	neg	a4,a5
    2e4e:	f2f7077f          	maxw	a4,a4,a5
    2e52:	070a                	c.slli	a4,0x2
    2e54:	41f75793          	srai	a5,a4,0x1f
    2e58:	bd15                	c.j	2c8c <__printf_float_impl+0x230>
	...

00002e5c <strcpy>:
    2e5c:	00b567b3          	or	a5,a0,a1
    2e60:	8b8d                	c.andi	a5,3
    2e62:	e3ad                	c.bnez	a5,2ec4 <strcpy+0x68>
    2e64:	4198                	c.lw	a4,0(a1)
    2e66:	200707db          	ffb	a5,a4,zero
    2e6a:	e3a9                	c.bnez	a5,2eac <strcpy+0x50>
    2e6c:	00a007b3          	add	a5,zero,a0
    2e70:	0591                	c.addi	a1,4
    2e72:	0791                	c.addi	a5,4
    2e74:	fee7ae23          	sw	a4,-4(a5)
    2e78:	4198                	c.lw	a4,0(a1)
    2e7a:	200706db          	ffb	a3,a4,zero
    2e7e:	daed                	c.beqz	a3,2e70 <strcpy+0x14>
    2e80:	0005c703          	lbu	a4,0(a1)
    2e84:	0015c683          	lbu	a3,1(a1)
    2e88:	0025c603          	lbu	a2,2(a1)
    2e8c:	00e78023          	sb	a4,0(a5)
    2e90:	00070863          	beqz	a4,2ea0 <strcpy+0x44>
    2e94:	00d780a3          	sb	a3,1(a5)
    2e98:	c681                	c.beqz	a3,2ea0 <strcpy+0x44>
    2e9a:	00c78123          	sb	a2,2(a5)
    2e9e:	e219                	c.bnez	a2,2ea4 <strcpy+0x48>
    2ea0:	00008067          	ret
    2ea4:	000781a3          	sb	zero,3(a5)
    2ea8:	00008067          	ret
    2eac:	0005c703          	lbu	a4,0(a1)
    2eb0:	87aa                	c.mv	a5,a0
    2eb2:	0015c683          	lbu	a3,1(a1)
    2eb6:	0025c603          	lbu	a2,2(a1)
    2eba:	00e78023          	sb	a4,0(a5)
    2ebe:	fb79                	c.bnez	a4,2e94 <strcpy+0x38>
    2ec0:	fe1ff06f          	j	2ea0 <strcpy+0x44>
    2ec4:	00a007b3          	add	a5,zero,a0
    2ec8:	0005c703          	lbu	a4,0(a1)
    2ecc:	0785                	c.addi	a5,1
    2ece:	fee78fa3          	sb	a4,-1(a5)
    2ed2:	0585                	c.addi	a1,1
    2ed4:	fb75                	c.bnez	a4,2ec8 <strcpy+0x6c>
    2ed6:	8082                	c.jr	ra
    2ed8:	0001                	c.nop

00002eda <strnlen>:
    2eda:	95aa                	c.add	a1,a0
    2edc:	87aa                	c.mv	a5,a0
    2ede:	00b78563          	beq	a5,a1,2ee8 <strnlen+0xe>
    2ee2:	0007c703          	lbu	a4,0(a5)
    2ee6:	e701                	c.bnez	a4,2eee <strnlen+0x14>
    2ee8:	40a78533          	sub	a0,a5,a0
    2eec:	8082                	c.jr	ra
    2eee:	0785                	c.addi	a5,1
    2ef0:	b7fd                	c.j	2ede <strnlen+0x4>

00002ef2 <_sbrk>:
    2ef2:	49c2272b          	lwgp	a4,5276 # 81c9c <heap_end.2408>
    2ef6:	49c2178b          	addigp	a5,5276 # 81c9c <heap_end.2408>
    2efa:	e701                	c.bnez	a4,2f02 <_sbrk+0x10>
    2efc:	4c82170b          	addigp	a4,5320 # 81cc8 <_end>
    2f00:	c398                	c.sw	a4,0(a5)
    2f02:	4398                	c.lw	a4,0(a5)
    2f04:	953a                	c.add	a0,a4
    2f06:	00a17763          	bgeu	sp,a0,2f14 <_sbrk+0x22>
    2f0a:	4731                	c.li	a4,12
    2f0c:	48e24a2b          	swgp	a4,5268 # 81c94 <__mculib_REENT_errno>
    2f10:	557d                	c.li	a0,-1
    2f12:	8082                	c.jr	ra
    2f14:	c388                	c.sw	a0,0(a5)
    2f16:	853a                	c.mv	a0,a4
    2f18:	8082                	c.jr	ra
	...

00002f1c <__lshrdi3>:
    2f1c:	ce11                	c.beqz	a2,2f38 <__lshrdi3+0x1c>
    2f1e:	02000793          	li	a5,32
    2f22:	8f91                	c.sub	a5,a2
    2f24:	00f05c63          	blez	a5,2f3c <__lshrdi3+0x20>
    2f28:	00c55533          	srl	a0,a0,a2
    2f2c:	00f597b3          	sll	a5,a1,a5
    2f30:	00c5d633          	srl	a2,a1,a2
    2f34:	8d5d                	c.or	a0,a5
    2f36:	85b2                	c.mv	a1,a2
    2f38:	00008067          	ret
    2f3c:	40f00533          	neg	a0,a5
    2f40:	4601                	c.li	a2,0
    2f42:	00a5d533          	srl	a0,a1,a0
    2f46:	85b2                	c.mv	a1,a2
    2f48:	bfc5                	c.j	2f38 <__lshrdi3+0x1c>
    2f4a:	0001                	c.nop

00002f4c <__ashldi3>:
    2f4c:	ce11                	c.beqz	a2,2f68 <__ashldi3+0x1c>
    2f4e:	02000793          	li	a5,32
    2f52:	8f91                	c.sub	a5,a2
    2f54:	00f05c63          	blez	a5,2f6c <__ashldi3+0x20>
    2f58:	00c595b3          	sll	a1,a1,a2
    2f5c:	00f557b3          	srl	a5,a0,a5
    2f60:	00c51633          	sll	a2,a0,a2
    2f64:	8ddd                	c.or	a1,a5
    2f66:	8532                	c.mv	a0,a2
    2f68:	00008067          	ret
    2f6c:	40f005b3          	neg	a1,a5
    2f70:	4601                	c.li	a2,0
    2f72:	00b515b3          	sll	a1,a0,a1
    2f76:	8532                	c.mv	a0,a2
    2f78:	bfc5                	c.j	2f68 <__ashldi3+0x1c>
    2f7a:	0001                	c.nop

00002f7c <__riscv_save_12>:
    2f7c:	7139                	c.addi16sp	sp,-64
    2f7e:	4301                	c.li	t1,0
    2f80:	c66e                	c.swsp	s11,12(sp)
    2f82:	a019                	c.j	2f88 <__riscv_save_10+0x4>

00002f84 <__riscv_save_10>:
    2f84:	7139                	c.addi16sp	sp,-64
    2f86:	5341                	c.li	t1,-16
    2f88:	c86a                	c.swsp	s10,16(sp)
    2f8a:	ca66                	c.swsp	s9,20(sp)
    2f8c:	cc62                	c.swsp	s8,24(sp)
    2f8e:	ce5e                	c.swsp	s7,28(sp)
    2f90:	a019                	c.j	2f96 <__riscv_save_4+0x4>

00002f92 <__riscv_save_4>:
    2f92:	7139                	c.addi16sp	sp,-64
    2f94:	5301                	c.li	t1,-32
    2f96:	d05a                	c.swsp	s6,32(sp)
    2f98:	d256                	c.swsp	s5,36(sp)
    2f9a:	d452                	c.swsp	s4,40(sp)
    2f9c:	d64e                	c.swsp	s3,44(sp)
    2f9e:	d84a                	c.swsp	s2,48(sp)
    2fa0:	da26                	c.swsp	s1,52(sp)
    2fa2:	dc22                	c.swsp	s0,56(sp)
    2fa4:	de06                	c.swsp	ra,60(sp)
    2fa6:	40610133          	sub	sp,sp,t1
    2faa:	8282                	c.jr	t0

00002fac <__riscv_save_0>:
    2fac:	1141                	c.addi	sp,-16
    2fae:	c04a                	c.swsp	s2,0(sp)
    2fb0:	c226                	c.swsp	s1,4(sp)
    2fb2:	c422                	c.swsp	s0,8(sp)
    2fb4:	c606                	c.swsp	ra,12(sp)
    2fb6:	8282                	c.jr	t0

00002fb8 <__riscv_restore_12>:
    2fb8:	4db2                	c.lwsp	s11,12(sp)
    2fba:	0141                	c.addi	sp,16

00002fbc <__riscv_restore_10>:
    2fbc:	4d02                	c.lwsp	s10,0(sp)
    2fbe:	4c92                	c.lwsp	s9,4(sp)
    2fc0:	4c22                	c.lwsp	s8,8(sp)
    2fc2:	4bb2                	c.lwsp	s7,12(sp)
    2fc4:	0141                	c.addi	sp,16

00002fc6 <__riscv_restore_4>:
    2fc6:	4b02                	c.lwsp	s6,0(sp)
    2fc8:	4a92                	c.lwsp	s5,4(sp)
    2fca:	4a22                	c.lwsp	s4,8(sp)
    2fcc:	49b2                	c.lwsp	s3,12(sp)
    2fce:	0141                	c.addi	sp,16

00002fd0 <__riscv_restore_0>:
    2fd0:	4902                	c.lwsp	s2,0(sp)
    2fd2:	4492                	c.lwsp	s1,4(sp)
    2fd4:	4422                	c.lwsp	s0,8(sp)
    2fd6:	40b2                	c.lwsp	ra,12(sp)
    2fd8:	0141                	c.addi	sp,16
    2fda:	8082                	c.jr	ra
    2fdc:	0010                	0x10
    2fde:	0000                	unimp
    2fe0:	0000                	unimp
    2fe2:	0000                	unimp
    2fe4:	7a01                	c.lui	s4,0xfffe0
    2fe6:	0052                	c.slli	zero,0x14
    2fe8:	7c01                	c.lui	s8,0xfffe0
    2fea:	0105                	c.addi	sp,1
    2fec:	00020d1b          	sext.w	s10,tp
    2ff0:	0048                	c.addi4spn	a0,sp,4
    2ff2:	0000                	unimp
    2ff4:	0018                	0x18
    2ff6:	0000                	unimp
    2ff8:	ff84                	c.fsw	fs1,56(a5)
    2ffa:	0030ffff          	0x30ffff
    2ffe:	0000                	unimp
    3000:	4200                	c.lw	s0,0(a2)
    3002:	400e                	0x400e
    3004:	9b44                	exec.it	#876     !
    3006:	420d                	c.li	tp,3
    3008:	400e42db          	0x400e42db
    300c:	9a44                	exec.it	#364     !
    300e:	420c                	c.lw	a1,0(a2)
    3010:	0b99                	c.addi	s7,6
    3012:	9842                	c.add	a6,a6
    3014:	420a                	c.lwsp	tp,128(sp)
    3016:	d7420997          	auipc	s3,0xd7420
    301a:	d9d8                	c.sw	a4,52(a1)
    301c:	dbda                	c.swsp	s6,244(sp)
    301e:	0e42                	c.slli	t3,0x10
    3020:	4440                	c.lw	s0,12(s0)
    3022:	0896                	c.slli	a7,0x5
    3024:	9542                	c.add	a0,a6
    3026:	06944207          	flq	ft4,105(s0)
    302a:	9342                	c.add	t1,a6
    302c:	4205                	c.li	tp,1
    302e:	0492                	c.slli	s1,0x4
    3030:	8942                	c.mv	s2,a6
    3032:	02884203          	lbu	tp,40(a6)
    3036:	8142                	c.mv	sp,a6
    3038:	0001                	c.nop
    303a:	0000                	unimp
    303c:	001c                	0x1c
    303e:	0000                	unimp
    3040:	0064                	c.addi4spn	s1,sp,12
    3042:	0000                	unimp
    3044:	ff68                	c.fsw	fa0,124(a4)
    3046:	000cffff          	0xcffff
    304a:	0000                	unimp
    304c:	4200                	c.lw	s0,0(a2)
    304e:	100e                	c.slli	zero,0x23
    3050:	8944                	exec.it	#556     !
    3052:	4204                	c.lw	s1,0(a2)
    3054:	0288                	c.addi4spn	a0,sp,320
    3056:	8142                	c.mv	sp,a6
    3058:	0001                	c.nop
    305a:	0000                	unimp
    305c:	002c                	c.addi4spn	a1,sp,8
    305e:	0000                	unimp
    3060:	0000                	unimp
    3062:	0000                	unimp
    3064:	7a01                	c.lui	s4,0xfffe0
    3066:	0052                	c.slli	zero,0x14
    3068:	7c01                	c.lui	s8,0xfffe0
    306a:	0101                	c.addi	sp,0
    306c:	0e020d1b          	addiw	s10,tp,224
    3070:	9b40                	exec.it	#868     !
    3072:	9a0d                	c.andi	a2,-29
    3074:	990c                	exec.it	#908     !
    3076:	970a980b          	addigp	a6,-77456 # 6d970 <BIN_SIZE+0x68abe>
    307a:	9609                	c.srai	a2,0x22
    307c:	9508                	exec.it	#898     !
    307e:	93069407          	flh	fs0,-1744(a3)
    3082:	9205                	c.srli	a2,0x21
    3084:	8904                	exec.it	#524     !
    3086:	81028803          	lb	a6,-2032(t0) # 1a74 <main+0x1f4>
    308a:	0001                	c.nop
    308c:	0044                	c.addi4spn	s1,sp,4
    308e:	0000                	unimp
    3090:	0034                	c.addi4spn	a3,sp,8
    3092:	0000                	unimp
    3094:	ff24                	c.fsw	fs1,120(a4)
    3096:	0024ffff          	0x24ffff
    309a:	0000                	unimp
    309c:	4200                	c.lw	s0,0(a2)
    309e:	0edb42db          	0xedb42db
    30a2:	4230                	c.lw	a2,64(a2)
    30a4:	42da                	c.lwsp	t0,148(sp)
    30a6:	42d9                	c.li	t0,22
    30a8:	42d8                	c.lw	a4,4(a3)
    30aa:	d8d742d7          	0xd8d742d7
    30ae:	dad9                	c.beqz	a3,3044 <__riscv_restore_0+0x74>
    30b0:	42200edb          	0x42200edb
    30b4:	42d6                	c.lwsp	t0,84(sp)
    30b6:	42d5                	c.li	t0,21
    30b8:	42d4                	c.lw	a3,4(a3)
    30ba:	d4d342d3          	0xd4d342d3
    30be:	d6d5                	c.beqz	a3,306a <__riscv_restore_0+0x9a>
    30c0:	d9d8                	c.sw	a4,52(a1)
    30c2:	dbda                	c.swsp	s6,244(sp)
    30c4:	100e                	c.slli	zero,0x23
    30c6:	d242                	c.swsp	a6,36(sp)
    30c8:	c942                	c.swsp	a6,144(sp)
    30ca:	c842                	c.swsp	a6,16(sp)
    30cc:	c142                	c.swsp	a6,128(sp)
    30ce:	0e42                	c.slli	t3,0x10
    30d0:	0000                	unimp
	...
