
RV_NN_Pooling_Benchmark.adx:     file format elf32-littleriscv
RV_NN_Pooling_Benchmark.adx
architecture: riscv:rv32, flags 0x00000112:
EXEC_P, HAS_SYMS, D_PAGED
start address 0x20000000

Program Header:
    LOAD off    0x00001000 vaddr 0x20000000 paddr 0x20000000 align 2**12
         filesz 0x0000018a memsz 0x0000018a flags r-x
    LOAD off    0x00002000 vaddr 0x00000000 paddr 0x20000190 align 2**12
         filesz 0x000001bc memsz 0x000001bc flags rwx
    LOAD off    0x00002200 vaddr 0x00000200 paddr 0x20000350 align 2**12
         filesz 0x000034f8 memsz 0x000034f8 flags r-x
    LOAD off    0x00006000 vaddr 0x00080000 paddr 0x20003848 align 2**12
         filesz 0x0000239f memsz 0x0000239f flags rw-
    LOAD off    0x000083e0 vaddr 0x000823e0 paddr 0x20005be7 align 2**12
         filesz 0x00000022 memsz 0x00000022 flags rw-
    LOAD off    0x000093a0 vaddr 0x000823a0 paddr 0x20005be8 align 2**12
         filesz 0x00000000 memsz 0x00000040 flags rw-
0x70000000 off    0x000166c4 vaddr 0x00000000 paddr 0x00000000 align 2**0
         filesz 0x00000040 memsz 0x00000000 flags r--

Sections:
Idx Name          Size      VMA       LMA       File off  Algn
  0 .vectors      0000018a  20000000  20000000  00001000  2**2
                  CONTENTS, ALLOC, LOAD, READONLY, CODE
  1 .retention_reset 00000154  00000000  20000190  00002000  2**2
                  CONTENTS, ALLOC, LOAD, READONLY, CODE
  2 .retention_data 00000064  00000158  200002e8  00002158  2**2
                  CONTENTS, ALLOC, LOAD, DATA
  3 .ram_code     000034f8  00000200  20000350  00002200  2**8
                  CONTENTS, ALLOC, LOAD, READONLY, CODE
  4 .data         0000239f  00080000  20003848  00006000  2**2
                  CONTENTS, ALLOC, LOAD, DATA
  5 .sbss         0000003c  000823a0  20005be8  000093a0  2**2
                  ALLOC
  6 .bss          00000004  000823dc  20005c24  000093a0  2**2
                  ALLOC
  7 .sdk_version  00000022  000823e0  20005be7  000083e0  2**2
                  CONTENTS, ALLOC, LOAD, DATA
  8 .debug_info   00005919  00000000  00000000  00008402  2**0
                  CONTENTS, READONLY, DEBUGGING
  9 .debug_abbrev 00000a2c  00000000  00000000  0000dd1b  2**0
                  CONTENTS, READONLY, DEBUGGING
 10 .debug_loc    0000158c  00000000  00000000  0000e747  2**0
                  CONTENTS, READONLY, DEBUGGING
 11 .debug_aranges 000001c0  00000000  00000000  0000fcd8  2**3
                  CONTENTS, READONLY, DEBUGGING
 12 .debug_ranges 000008d8  00000000  00000000  0000fe98  2**3
                  CONTENTS, READONLY, DEBUGGING
 13 .debug_line   000034e1  00000000  00000000  00010770  2**0
                  CONTENTS, READONLY, DEBUGGING
 14 .debug_str    00002a2a  00000000  00000000  00013c51  2**0
                  CONTENTS, READONLY, DEBUGGING
 15 .comment      00000049  00000000  00000000  0001667b  2**0
                  CONTENTS, READONLY
 16 .riscv.attributes 00000040  00000000  00000000  000166c4  2**0
                  CONTENTS, READONLY
 17 .debug_frame  0000055c  00000000  00000000  00016704  2**2
                  CONTENTS, READONLY, DEBUGGING
SYMBOL TABLE:
20000000 l    d  .vectors	00000000 .vectors
00000000 l    d  .retention_reset	00000000 .retention_reset
00000158 l    d  .retention_data	00000000 .retention_data
00000200 l    d  .ram_code	00000000 .ram_code
00080000 l    d  .data	00000000 .data
000823a0 l    d  .sbss	00000000 .sbss
000823dc l    d  .bss	00000000 .bss
000823e0 l    d  .sdk_version	00000000 .sdk_version
00000000 l    d  .debug_info	00000000 .debug_info
00000000 l    d  .debug_abbrev	00000000 .debug_abbrev
00000000 l    d  .debug_loc	00000000 .debug_loc
00000000 l    d  .debug_aranges	00000000 .debug_aranges
00000000 l    d  .debug_ranges	00000000 .debug_ranges
00000000 l    d  .debug_line	00000000 .debug_line
00000000 l    d  .debug_str	00000000 .debug_str
00000000 l    d  .comment	00000000 .comment
00000000 l    d  .riscv.attributes	00000000 .riscv.attributes
00000000 l    d  .debug_frame	00000000 .debug_frame
00000000 l    df *ABS*	00000000 ./boot/cstartup_flash.o
20000028 l       .vectors	00000000 _START
2000008e l       .vectors	00000000 _RETENTION_RESET_INIT
200000a6 l       .vectors	00000000 _RETENTION_RESET_BEGIN
200000b8 l       .vectors	00000000 _RETENTION_DATA_INIT
200000cc l       .vectors	00000000 _RETENTION_DATA_INIT_BEGIN
200000de l       .vectors	00000000 _RAMCODE_INIT
200000f6 l       .vectors	00000000 _RAMCODE_INIT_BEGIN
20000108 l       .vectors	00000000 _DATA_INIT
20000120 l       .vectors	00000000 _DATA_INIT_BEGIN
20000132 l       .vectors	00000000 _ZERO_BSS
20000146 l       .vectors	00000000 _ZERO_BSS_BEGIN
20000152 l       .vectors	00000000 _ZERO_AES
20000166 l       .vectors	00000000 _ZERO_AES_BEGIN
20000172 l       .vectors	00000000 _FILL_STK
20000172 l       .vectors	00000000 _MAIN_FUNC
20000188 l       .vectors	00000000 _END
00000022 l       .retention_reset	00000000 _ISTART
0000002a l       .retention_reset	00000000 _ISWS_USB_DIS
00000088 l       .retention_reset	00000000 _WAKEUP_FLASH
000000a2 l       .retention_reset	00000000 _MSPI_WAIT
000000bc l       .retention_reset	00000000 _WAIT_EFUSE_LOAD_AND_FLASH_WAKEUP_FINISH
000000c2 l       .retention_reset	00000000 _MULTI_ADDRESS_BEGIN
000000d2 l       .retention_reset	00000000 _IZERO_BSS
000000e6 l       .retention_reset	00000000 _IZERO_BSS_BEGIN
000000f2 l       .retention_reset	00000000 _IZERO_AES
00000106 l       .retention_reset	00000000 _IZERO_AES_BEGIN
00000112 l       .retention_reset	00000000 _IFILL_STK
00000112 l       .retention_reset	00000000 _IDATA_INIT
0000012a l       .retention_reset	00000000 _IDATA_INIT_BEGIN
0000013c l       .retention_reset	00000000 _IMAIN_FUNC
00000152 l       .retention_reset	00000000 _IEND
00000040 l       *ABS*	00000000 irqno
00000000 l    df *ABS*	00000000 
00000200 l     F .ram_code	00000020 delay_ms.constprop.12
0000140c l     F .ram_code	000000fc user_calib_adc_vref.constprop.9
00000220 l     F .ram_code	00000044 flash_send_addr
00000264 l     F .ram_code	00000048 flash_send_cmd
000002ac l     F .ram_code	00000060 clock_set_32k_tick
0000030c l     F .ram_code	0000004c analog_read_reg32.constprop.4
00000358 l     F .ram_code	00000024 clock_get_32k_tick
0000037c l     F .ram_code	00000094 pm_stimer_recover
00000410 l     F .ram_code	00000058 plic_exit_critical_sec
00000468 l     F .ram_code	00000060 plic_enter_critical_sec
000004c8 l     F .ram_code	00000180 flash_mspi_read_ram
00001204 l     F .ram_code	00000028 flash_read_uid.constprop.6
0000122c l     F .ram_code	00000028 flash_read_mid
00001254 l     F .ram_code	00000168 flash_read_mid_uid_with_check
00000648 l     F .ram_code	0000014c flash_mspi_read_ram.constprop.7
000013bc l     F .ram_code	00000020 flash_dread
00000794 l     F .ram_code	00000044 analog_write_reg8
000007d8 l     F .ram_code	0000004c analog_read_reg8
00000824 l     F .ram_code	00000140 clock_init_ram.constprop.11
000013dc l     F .ram_code	00000018 clock_init.constprop.10
00001508 l     F .ram_code	00000054 user_calib_freq_offset.constprop.8
00000964 l     F .ram_code	000000b4 pm_wait_bbpll_done
00000a18 l     F .ram_code	00000194 pm_sleep_start
00000bac l     F .ram_code	00000120 dr_putchar
00001560 l     F .ram_code	00000018 gpio_input_dis
00000ccc l     F .ram_code	0000030c pm_sleep_wakeup_ram.constprop.3
000013f4 l     F .ram_code	00000016 pm_sleep_wakeup.constprop.2
0000157c l     F .ram_code	00000076 validate
000015f4 l     F .ram_code	00000076 validate_s16
0000166c l     F .ram_code	0000016e avgpooling_riscv_avgpool_s8
00080110 l     O .data	000014a0 avgpooling_input_tensor
000017dc l     F .ram_code	00000166 avgpooling_int16_2_riscv_avgpool_s16
00001944 l     F .ram_code	0000016a avgpooling_int16_riscv_avgpool_s16
00000158 l     O .retention_data	00000004 flash_read_page
0000015c l     O .retention_data	00000001 g_pm_long_suspend
00000160 l     O .retention_data	00000004 g_pm_tick_cur
00000164 l     O .retention_data	00000029 pmcd
00000190 l     O .retention_data	00000004 g_pm_tick_32k_calib
00000194 l     O .retention_data	00000001 g_plic_preempt_en
00000198 l     O .retention_data	00000002 s_flash_preempt_config
0000019a l     O .retention_data	00000001 g_pm_suspend_power_cfg
0000019c l     O .retention_data	00000008 g_pm_early_wakeup_time_us
000001a4 l     O .retention_data	00000004 g_pm_tick_32k_cur
000001a8 l     O .retention_data	00000001 g_pm_tick_update_en
000001ac l     O .retention_data	00000004 g_pm_r_delay_cycle
000001b0 l     O .retention_data	00000008 g_pm_longsleep_early_wakeup_time_us
00080010 l     O .data	00000087 avgpooling_1_input_tensor
00080098 l     O .data	0000003c avgpooling_2_input_tensor
000800d4 l     O .data	0000003c avgpooling_2_output
000815b0 l     O .data	0000006c avgpooling_int16_1_input_tensor
0008161c l     O .data	0000003c avgpooling_int16_1_output
00081658 l     O .data	00000168 avgpooling_int16_2_input_tensor
000817c0 l     O .data	000000c8 avgpooling_int16_2_output
0008194c l     O .data	00000330 avgpooling_int16_input_tensor
00081c7c l     O .data	00000198 avgpooling_int16_output
00081ec8 l     O .data	000000b4 avgpooling_output
000823a0 l     O .sbss	00000004 exception_mcause
000823a4 l     O .sbss	00000004 exception_mdcause
000823a8 l     O .sbss	00000004 exception_mepc
000823ac l     O .sbss	00000004 exception_mstatus
000823b0 l     O .sbss	00000004 exception_mtval
000823b4 l     O .sbss	00000004 g_chip_version
000823b8 l     O .sbss	00000004 g_pm_status_info
000823bc l     O .sbss	00000004 stack_limit
0008238c l     O .data	00000001 init_flag.4915
00082390 l     O .data	00000006 sys_clk
0008239c l     O .data	00000003 avgpooling_1_output
000823e0 l     O .sdk_version	00000022 sdk_version
00000000 l    df *ABS*	00000000 riscv_avgpool_get_buffer_sizes_s16.c.o
000023a4 l       .ram_code	00000000 $x
00000000 l    df *ABS*	00000000 riscv_avgpool_get_buffer_sizes_s8.c.o
000023ac l       .ram_code	00000000 $x
00000000 l    df *ABS*	00000000 riscv_avgpool_s8.c.o
000023b4 l       .ram_code	00000000 $x
00000000 l    df *ABS*	00000000 riscv_avgpool_s16.c.o
000025b0 l       .ram_code	00000000 $x
00000000 l    df *ABS*	00000000 malloc.c
00000000 l    df *ABS*	00000000 nano-mallocr.c
00000000 l    df *ABS*	00000000 nano-mallocr.c
00000000 l    df *ABS*	00000000 printf.c
00000000 l    df *ABS*	00000000 puts.c
00000000 l    df *ABS*	00000000 strlen.c
00000000 l    df *ABS*	00000000 vprintf.c
00002a94 l     F .ram_code	0000003a __vprintf_help
000823c8 l     O .sbss	00000004 __vprintf_buf
000823cc l     O .sbss	00000004 __vprintf_buf_len
00000000 l    df *ABS*	00000000 printf_impl.c
00000000 l    df *ABS*	00000000 printf_impl_float.c
00000000 l    df *ABS*	00000000 strcpy.c
00000000 l    df *ABS*	00000000 strnlen.c
00000000 l    df *ABS*	00000000 _sbrk.c
000823d8 l     O .sbss	00000004 heap_end.2408
00000000 l    df *ABS*	00000000 libgcc2.c
00000000 l    df *ABS*	00000000 libgcc2.c
00000000 l    df *ABS*	00000000 printf_data.c
00000000 l    df *ABS*	00000000 impure.c
000823dc l     O .bss	00000000 impure_data
0000239c  w      .ram_code	00000000 entry_irq55
0000239c  w      .ram_code	00000000 entry_irq13
00003480 g     F .ram_code	0000007c strcpy
0000239c  w      .ram_code	00000000 entry_irq15
00003570 g     F .ram_code	0000002e .hidden __ashldi3
0000239c  w      .ram_code	00000000 entry_irq27
0000239c  w      .ram_code	00000000 entry_irq60
0000239c  w      .ram_code	00000000 entry_irq1
0000239c  w      .ram_code	00000000 entry_irq52
0000239c  w      .ram_code	00000000 entry_irq50
0000239c  w      .ram_code	00000000 entry_irq62
000029e2 g     F .ram_code	0000001e printf
00080800 g       .data	00000000 __global_pointer$
000035a8 g       .ram_code	00000000 .hidden __riscv_save_8
0000239c  w      .ram_code	00000000 entry_irq58
000025b0 g     F .ram_code	0000022a riscv_avgpool_s16
000035f4 g       .ram_code	00000000 .hidden __riscv_restore_3
000001bc g       .retention_data	00000000 _RETENTION_DATA_VMA_END
000035e0 g       .ram_code	00000000 .hidden __riscv_restore_10
000035a8 g       .ram_code	00000000 .hidden __riscv_save_11
00002b1a g     F .ram_code	00000048 __print_integral
00000000 g       .retention_reset	00000000 _RETENTION_RESET_VMA_START
0000239c  w      .ram_code	00000000 entry_irq10
0000239c  w      .ram_code	00000000 entry_irq21
00000158 g       .retention_data	00000000 _AES_VMA_START
0000239c  w      .ram_code	00000000 entry_irq48
000035f4 g       .ram_code	00000000 .hidden __riscv_restore_2
0000239c  w      .ram_code	00000000 entry_irq8
0000239c  w      .ram_code	00000000 entry_irq33
000823e0 g       .bss	00000000 _BSS_VMA_END
20000190 g       *ABS*	00000000 _RETENTION_RESET_LMA_START
00002b62 g     F .ram_code	00000470 __printf_impl
0000239c  w      .ram_code	00000000 entry_irq12
00002a00 g     F .ram_code	00000034 puts
000027da g     F .ram_code	00000010 malloc
0000239c  w      .ram_code	00000000 entry_irq14
000035a0 g       .ram_code	00000000 .hidden __riscv_save_12
0000239c  w      .ram_code	00000000 entry_irq2
0000239c  w      .ram_code	00000000 entry_irq51
000035e0 g       .ram_code	00000000 .hidden __riscv_restore_11
000023b4 g     F .ram_code	000001fc riscv_avgpool_s8
0000239c  w      .ram_code	00000000 entry_irq28
0000239c  w      .ram_code	00000000 entry_irq43
000035d0 g       .ram_code	00000000 .hidden __riscv_save_1
000035f4 g       .ram_code	00000000 .hidden __riscv_restore_0
0000239c  w      .ram_code	00000000 entry_irq20
000035b6 g       .ram_code	00000000 .hidden __riscv_save_7
000823a0 g       .sbss	00000000 _BSS_VMA_START
0000239c  w      .ram_code	00000000 entry_irq63
0008239f g       .data	00000000 _DATA_VMA_END
0000239c  w      .ram_code	00000000 entry_irq46
0000239c  w      .ram_code	00000000 entry_irq31
0000239c  w      .ram_code	00000000 entry_irq16
00100000 g       *ABS*	00000000 FLASH_SIZE
000035ea g       .ram_code	00000000 .hidden __riscv_restore_5
00080000 g       .data	00000000 _DATA_VMA_START
00003516  w    F .ram_code	00000028 _sbrk
0000239c  w      .ram_code	00000000 entry_irq53
0000239c  w      .ram_code	00000000 entry_irq11
00000154 g       .retention_reset	00000000 _RETENTION_RESET_VMA_END
000034fe g     F .ram_code	00000018 strnlen
000035ea g       .ram_code	00000000 .hidden __riscv_restore_6
0000239c  w      .ram_code	00000000 entry_irq5
0000239c  w      .ram_code	00000000 entry_irq23
0000239e  w      .ram_code	00000000 trap_handler
0000239c  w      .ram_code	00000000 entry_irq34
00003540 g     F .ram_code	0000002e .hidden __lshrdi3
0000239c  w      .ram_code	00000000 entry_irq36
000035a8 g       .ram_code	00000000 .hidden __riscv_save_9
0000239c  w      .ram_code	00000000 entry_irq44
00002ace g     F .ram_code	0000004c vprintf
0000239c  w      .ram_code	00000000 entry_irq45
0000239c  w      .ram_code	00000000 entry_irq26
000035b6 g       .ram_code	00000000 .hidden __riscv_save_4
0000239c  w      .ram_code	00000000 entry_irq41
0000239c  w      .ram_code	00000000 entry_irq61
20000000 g       .vectors	00000000 BIN_BEGIN
000028a2 g     F .ram_code	00000090 _free_r
000035d0 g       .ram_code	00000000 .hidden __riscv_save_3
0000239c  w      .ram_code	00000000 entry_irq38
00001100 g       .ram_code	00000000 __vectors
00005c09 g       *ABS*	00000000 BIN_SIZE
000023a4 g     F .ram_code	00000006 riscv_avgpool_s16_get_buffer_size
00082374 g     O .data	00000010 __digits
20000350 g       *ABS*	00000000 _RAMCODE_LMA_START
000823d4 g     O .sbss	00000004 __printf_count
0000239c  w      .ram_code	00000000 entry_irq59
0000239c  w      .ram_code	00000000 entry_irq6
000035a8 g       .ram_code	00000000 .hidden __riscv_save_10
000823d0 g     O .sbss	00000004 __mculib_REENT_errno
20003848 g       *ABS*	00000000 _DATA_LMA_START
00002ff0 g     F .ram_code	00000090 __print_integral_poly
20000000 g       *ABS*	00000000 NDS_SAG_LMA_FLASH
000035ea g       .ram_code	00000000 .hidden __riscv_restore_4
000035e0 g       .ram_code	00000000 .hidden __riscv_restore_8
000035b6 g       .ram_code	00000000 .hidden __riscv_save_6
20000000  w      .vectors	00000000 _RELAX_END_
00003080 g     F .ram_code	000003fe __printf_float_impl
000027fa g     F .ram_code	000000a8 memset
000035e0 g       .ram_code	00000000 .hidden __riscv_restore_9
000035ea g       .ram_code	00000000 .hidden __riscv_restore_7
00001af8 g     F .ram_code	000008a4 main
0000239c g       .ram_code	00000000 default_irq_entry
0000239c  w      .ram_code	00000000 entry_irq3
00000fd8 g     F .ram_code	00000100 trap_entry
00000158 g       .retention_data	00000000 _AES_VMA_END
0000239c  w      .ram_code	00000000 entry_irq39
0000239c  w      .ram_code	00000000 entry_irq49
00002932 g     F .ram_code	000000b0 _malloc_r
0000239c  w      .ram_code	00000000 entry_irq57
0000239c  w      .ram_code	00000000 entry_irq47
200002e8 g       *ABS*	00000000 _RETENTION_DATA_LMA_START
20000000 g     F .vectors	00000000 _RESET_ENTRY
00000158 g       .retention_data	00000000 _RETENTION_DATA_VMA_START
0000239c  w      .ram_code	00000000 entry_irq4
000a0000 g       *ABS*	00000000 _STACK_TOP
0000239c  w      .ram_code	00000000 entry_irq22
0000239c  w      .ram_code	00000000 entry_irq30
00082398 g     O .data	00000004 _impure_ptr
000023ac g     F .ram_code	00000006 riscv_avgpool_s8_get_buffer_size
0000239c  w      .ram_code	00000000 entry_irq42
0000239c  w      .ram_code	00000000 entry_irq24
000035d0 g       .ram_code	00000000 .hidden __riscv_save_2
000036f8 g       .ram_code	00000000 _RAMCODE_VMA_END
00000000  w      *ABS*	00000000 _ITB_BASE_
000035b6 g       .ram_code	00000000 .hidden __riscv_save_5
0000239c  w      .ram_code	00000000 entry_irq19
00001ab0 g     F .ram_code	00000048 _write
00082408 g       .sdk_version	00000000 _end
0000239c  w      .ram_code	00000000 entry_irq17
0000239c  w      .ram_code	00000000 entry_irq9
0000239c  w      .ram_code	00000000 entry_irq56
0000239c  w      .ram_code	00000000 entry_irq35
0000239c  w      .ram_code	00000000 entry_irq37
000001b8 g     O .retention_data	00000004 g_pm_mspi_cfg
0000239c  w      .ram_code	00000000 entry_irq54
0000239c  w      .ram_code	00000000 entry_irq40
000035dc g       .ram_code	00000000 .hidden __riscv_restore_12
00000200 g       .ram_code	00000000 _RAMCODE_VMA_START
000035d0 g       .ram_code	00000000 .hidden __riscv_save_0
00002a34 g     F .ram_code	0000005e strlen
0000239c  w      .ram_code	00000000 entry_irq29
000823c4 g     O .sbss	00000004 __malloc_sbrk_start
000823c0 g     O .sbss	00000004 __malloc_free_list
000035f4 g       .ram_code	00000000 .hidden __riscv_restore_1
0000239c  w      .ram_code	00000000 entry_irq7
0000239c  w      .ram_code	00000000 entry_irq32
00000000 g     F .retention_reset	00000000 _IRESET_ENTRY
0000239c  w      .ram_code	00000000 entry_irq18
00002fd2 g     F .ram_code	0000001e __int_to_poly
000027ea g     F .ram_code	00000010 free
0000239c  w      .ram_code	00000000 entry_irq25



Disassembly of section .vectors:

20000000 <_RESET_ENTRY>:
20000000:	a025                	c.j	20000028 <_START>
	...
20000016:	0000                	unimp
20000018:	5c09                	c.li	s8,-30
2000001a:	0000                	unimp
2000001c:	0000                	unimp
2000001e:	0000                	unimp
20000020:	544c4e4b          	fnmsub.h	ft8,fs8,ft4,fa0,rmm
20000024:	0000                	unimp
20000026:	          	sllw	a4,zero,zero

20000028 <_START>:
20000028:	e0080197          	auipc	gp,0xe0080
2000002c:	7d818193          	addi	gp,gp,2008 # 80800 <__global_pointer$>
20000030:	801002b7          	lui	t0,0x80100
20000034:	70028293          	addi	t0,t0,1792 # 80100700 <_DATA_LMA_START+0x600fceb8>
20000038:	04000313          	li	t1,64
2000003c:	506280a3          	sb	t1,1281(t0)
20000040:	e00a0297          	auipc	t0,0xe00a0
20000044:	fc028293          	addi	t0,t0,-64 # a0000 <_STACK_TOP>
20000048:	8116                	c.mv	sp,t0
2000004a:	e0000297          	auipc	t0,0xe0000
2000004e:	fb628293          	addi	t0,t0,-74 # 0 <_ITB_BASE_>
20000052:	80029073          	csrw	uitb,t0
20000056:	6299                	c.lui	t0,0x6
20000058:	3002a2f3          	csrrs	t0,mstatus,t0
2000005c:	00301073          	fssr	zero
20000060:	e0001297          	auipc	t0,0xe0001
20000064:	0a028293          	addi	t0,t0,160 # 1100 <__vectors>
20000068:	30529073          	csrw	mtvec,t0
2000006c:	7d016073          	csrsi	mmisc_ctl,2
20000070:	e40002b7          	lui	t0,0xe4000
20000074:	4309                	c.li	t1,2
20000076:	0062a023          	sw	t1,0(t0) # e4000000 <_DATA_LMA_START+0xc3ffc7b8>
2000007a:	7ca022f3          	csrr	t0,mcache_ctl
2000007e:	0012e293          	ori	t0,t0,1
20000082:	0022e293          	ori	t0,t0,2
20000086:	7ca29073          	csrw	mcache_ctl,t0
2000008a:	0000100f          	fence.i

2000008e <_RETENTION_RESET_INIT>:
2000008e:	00000317          	auipc	t1,0x0
20000092:	10230313          	addi	t1,t1,258 # 20000190 <_RETENTION_RESET_LMA_START>
20000096:	e0000397          	auipc	t2,0xe0000
2000009a:	f6a38393          	addi	t2,t2,-150 # 0 <_ITB_BASE_>
2000009e:	e0000e17          	auipc	t3,0xe0000
200000a2:	0b6e0e13          	addi	t3,t3,182 # 154 <_RETENTION_RESET_VMA_END>

200000a6 <_RETENTION_RESET_BEGIN>:
200000a6:	01c3f963          	bgeu	t2,t3,200000b8 <_RETENTION_DATA_INIT>
200000aa:	00032283          	lw	t0,0(t1)
200000ae:	0053a023          	sw	t0,0(t2)
200000b2:	0311                	c.addi	t1,4
200000b4:	0391                	c.addi	t2,4
200000b6:	bfc5                	c.j	200000a6 <_RETENTION_RESET_BEGIN>

200000b8 <_RETENTION_DATA_INIT>:
200000b8:	00000317          	auipc	t1,0x0
200000bc:	23030313          	addi	t1,t1,560 # 200002e8 <_RETENTION_DATA_LMA_START>
200000c0:	15800393          	li	t2,344
200000c4:	e0000e17          	auipc	t3,0xe0000
200000c8:	0f8e0e13          	addi	t3,t3,248 # 1bc <_RETENTION_DATA_VMA_END>

200000cc <_RETENTION_DATA_INIT_BEGIN>:
200000cc:	01c3f963          	bgeu	t2,t3,200000de <_RAMCODE_INIT>
200000d0:	00032283          	lw	t0,0(t1)
200000d4:	0053a023          	sw	t0,0(t2)
200000d8:	0311                	c.addi	t1,4
200000da:	0391                	c.addi	t2,4
200000dc:	bfc5                	c.j	200000cc <_RETENTION_DATA_INIT_BEGIN>

200000de <_RAMCODE_INIT>:
200000de:	00000317          	auipc	t1,0x0
200000e2:	27230313          	addi	t1,t1,626 # 20000350 <_RAMCODE_LMA_START>
200000e6:	e0000397          	auipc	t2,0xe0000
200000ea:	11a38393          	addi	t2,t2,282 # 200 <delay_ms.constprop.12>
200000ee:	e0003e17          	auipc	t3,0xe0003
200000f2:	60ae0e13          	addi	t3,t3,1546 # 36f8 <_RAMCODE_VMA_END>

200000f6 <_RAMCODE_INIT_BEGIN>:
200000f6:	01c3f963          	bgeu	t2,t3,20000108 <_DATA_INIT>
200000fa:	00032283          	lw	t0,0(t1)
200000fe:	0053a023          	sw	t0,0(t2)
20000102:	0311                	c.addi	t1,4
20000104:	0391                	c.addi	t2,4
20000106:	bfc5                	c.j	200000f6 <_RAMCODE_INIT_BEGIN>

20000108 <_DATA_INIT>:
20000108:	00003317          	auipc	t1,0x3
2000010c:	74030313          	addi	t1,t1,1856 # 20003848 <_DATA_LMA_START>
20000110:	e0080397          	auipc	t2,0xe0080
20000114:	ef038393          	addi	t2,t2,-272 # 80000 <_DATA_VMA_START>
20000118:	e0082e17          	auipc	t3,0xe0082
2000011c:	287e0e13          	addi	t3,t3,647 # 8239f <_DATA_VMA_END>

20000120 <_DATA_INIT_BEGIN>:
20000120:	01c3f963          	bgeu	t2,t3,20000132 <_ZERO_BSS>
20000124:	00032283          	lw	t0,0(t1)
20000128:	0053a023          	sw	t0,0(t2)
2000012c:	0311                	c.addi	t1,4
2000012e:	0391                	c.addi	t2,4
20000130:	bfc5                	c.j	20000120 <_DATA_INIT_BEGIN>

20000132 <_ZERO_BSS>:
20000132:	000002b7          	lui	t0,0x0
20000136:	e0082397          	auipc	t2,0xe0082
2000013a:	26a38393          	addi	t2,t2,618 # 823a0 <_BSS_VMA_START>
2000013e:	e0082e17          	auipc	t3,0xe0082
20000142:	2a2e0e13          	addi	t3,t3,674 # 823e0 <_BSS_VMA_END>

20000146 <_ZERO_BSS_BEGIN>:
20000146:	01c3f663          	bgeu	t2,t3,20000152 <_ZERO_AES>
2000014a:	0053a023          	sw	t0,0(t2)
2000014e:	0391                	c.addi	t2,4
20000150:	bfdd                	c.j	20000146 <_ZERO_BSS_BEGIN>

20000152 <_ZERO_AES>:
20000152:	000002b7          	lui	t0,0x0
20000156:	e0000397          	auipc	t2,0xe0000
2000015a:	00238393          	addi	t2,t2,2 # 158 <_AES_VMA_END>
2000015e:	e0000e17          	auipc	t3,0xe0000
20000162:	ffae0e13          	addi	t3,t3,-6 # 158 <_AES_VMA_END>

20000166 <_ZERO_AES_BEGIN>:
20000166:	01c3f663          	bgeu	t2,t3,20000172 <_FILL_STK>
2000016a:	0053a023          	sw	t0,0(t2)
2000016e:	0391                	c.addi	t2,4
20000170:	bfdd                	c.j	20000166 <_ZERO_AES_BEGIN>

20000172 <_FILL_STK>:
20000172:	0001                	c.nop
20000174:	e0002297          	auipc	t0,0xe0002
20000178:	98428293          	addi	t0,t0,-1660 # 1af8 <main>
2000017c:	9282                	c.jalr	t0
2000017e:	0001                	c.nop
20000180:	0001                	c.nop
20000182:	0001                	c.nop
20000184:	0001                	c.nop
20000186:	0001                	c.nop

20000188 <_END>:
20000188:	a001                	c.j	20000188 <_END>

Disassembly of section .retention_reset:

00000000 <_IRESET_ENTRY>:
   0:	a00d                	c.j	22 <_ISTART>
	...

00000022 <_ISTART>:
  22:	00080197          	auipc	gp,0x80
  26:	7de18193          	addi	gp,gp,2014 # 80800 <__global_pointer$>

0000002a <_ISWS_USB_DIS>:
  2a:	801002b7          	lui	t0,0x80100
  2e:	70028293          	addi	t0,t0,1792 # 80100700 <_DATA_LMA_START+0x600fceb8>
  32:	04000313          	li	t1,64
  36:	506280a3          	sb	t1,1281(t0)
  3a:	000a0297          	auipc	t0,0xa0
  3e:	fc628293          	addi	t0,t0,-58 # a0000 <_STACK_TOP>
  42:	8116                	c.mv	sp,t0
  44:	00000297          	auipc	t0,0x0
  48:	fbc28293          	addi	t0,t0,-68 # 0 <_IRESET_ENTRY>
  4c:	80029073          	csrw	uitb,t0
  50:	6299                	c.lui	t0,0x6
  52:	3002a2f3          	csrrs	t0,mstatus,t0
  56:	00301073          	fssr	zero
  5a:	00001297          	auipc	t0,0x1
  5e:	0a628293          	addi	t0,t0,166 # 1100 <__vectors>
  62:	30529073          	csrw	mtvec,t0
  66:	7d016073          	csrsi	mmisc_ctl,2
  6a:	e40002b7          	lui	t0,0xe4000
  6e:	4309                	c.li	t1,2
  70:	0062a023          	sw	t1,0(t0) # e4000000 <_DATA_LMA_START+0xc3ffc7b8>
  74:	7ca022f3          	csrr	t0,mcache_ctl
  78:	0012e293          	ori	t0,t0,1
  7c:	0022e293          	ori	t0,t0,2
  80:	7ca29073          	csrw	mcache_ctl,t0
  84:	0000100f          	fence.i

00000088 <_WAKEUP_FLASH>:
  88:	801402b7          	lui	t0,0x80140
  8c:	0ff00313          	li	t1,255
  90:	4381                	c.li	t2,0
  92:	0ab00e13          	li	t3,171
  96:	326284a3          	sb	t1,809(t0) # 80140329 <_DATA_LMA_START+0x6013cae1>
  9a:	107280a3          	sb	t2,257(t0)
  9e:	11c28023          	sb	t3,256(t0)

000000a2 <_MSPI_WAIT>:
  a2:	801402b7          	lui	t0,0x80140
  a6:	10228383          	lb	t2,258(t0) # 80140102 <_DATA_LMA_START+0x6013c8ba>
  aa:	4e05                	c.li	t3,1
  ac:	4ec1                	c.li	t4,16
  ae:	fe7e0ae3          	beq	t3,t2,a2 <_MSPI_WAIT>
  b2:	11d280a3          	sb	t4,257(t0)
  b6:	4281                	c.li	t0,0
  b8:	14000313          	li	t1,320

000000bc <_WAIT_EFUSE_LOAD_AND_FLASH_WAKEUP_FINISH>:
  bc:	0285                	c.addi	t0,1
  be:	fe537fe3          	bgeu	t1,t0,bc <_WAIT_EFUSE_LOAD_AND_FLASH_WAKEUP_FINISH>

000000c2 <_MULTI_ADDRESS_BEGIN>:
  c2:	801402b7          	lui	t0,0x80140
  c6:	1b800313          	li	t1,440
  ca:	00032383          	lw	t2,0(t1)
  ce:	1072a223          	sw	t2,260(t0) # 80140104 <_DATA_LMA_START+0x6013c8bc>

000000d2 <_IZERO_BSS>:
  d2:	000002b7          	lui	t0,0x0
  d6:	00082397          	auipc	t2,0x82
  da:	2ca38393          	addi	t2,t2,714 # 823a0 <_BSS_VMA_START>
  de:	00082e17          	auipc	t3,0x82
  e2:	302e0e13          	addi	t3,t3,770 # 823e0 <_BSS_VMA_END>

000000e6 <_IZERO_BSS_BEGIN>:
  e6:	01c3f663          	bgeu	t2,t3,f2 <_IZERO_AES>
  ea:	0053a023          	sw	t0,0(t2)
  ee:	0391                	c.addi	t2,4
  f0:	bfdd                	c.j	e6 <_IZERO_BSS_BEGIN>

000000f2 <_IZERO_AES>:
  f2:	000002b7          	lui	t0,0x0
  f6:	00000397          	auipc	t2,0x0
  fa:	06238393          	addi	t2,t2,98 # 158 <_AES_VMA_END>
  fe:	00000e17          	auipc	t3,0x0
 102:	05ae0e13          	addi	t3,t3,90 # 158 <_AES_VMA_END>

00000106 <_IZERO_AES_BEGIN>:
 106:	01c3f663          	bgeu	t2,t3,112 <_IDATA_INIT>
 10a:	0053a023          	sw	t0,0(t2)
 10e:	0391                	c.addi	t2,4
 110:	bfdd                	c.j	106 <_IZERO_AES_BEGIN>

00000112 <_IDATA_INIT>:
 112:	20003317          	auipc	t1,0x20003
 116:	73630313          	addi	t1,t1,1846 # 20003848 <_DATA_LMA_START>
 11a:	00080397          	auipc	t2,0x80
 11e:	ee638393          	addi	t2,t2,-282 # 80000 <_DATA_VMA_START>
 122:	00082e17          	auipc	t3,0x82
 126:	27de0e13          	addi	t3,t3,637 # 8239f <_DATA_VMA_END>

0000012a <_IDATA_INIT_BEGIN>:
 12a:	01c3f963          	bgeu	t2,t3,13c <_IMAIN_FUNC>
 12e:	00032283          	lw	t0,0(t1)
 132:	0053a023          	sw	t0,0(t2)
 136:	0311                	c.addi	t1,4
 138:	0391                	c.addi	t2,4
 13a:	bfc5                	c.j	12a <_IDATA_INIT_BEGIN>

0000013c <_IMAIN_FUNC>:
 13c:	0001                	c.nop
 13e:	00002297          	auipc	t0,0x2
 142:	9ba28293          	addi	t0,t0,-1606 # 1af8 <main>
 146:	9282                	c.jalr	t0
 148:	0001                	c.nop
 14a:	0001                	c.nop
 14c:	0001                	c.nop
 14e:	0001                	c.nop
 150:	0001                	c.nop

00000152 <_IEND>:
 152:	a001                	c.j	152 <_IEND>

Disassembly of section .ram_code:

00000200 <delay_ms.constprop.12>:
     200:	801407b7          	lui	a5,0x80140
     204:	0004e737          	lui	a4,0x4e
     208:	2007a603          	lw	a2,512(a5) # 80140200 <_DATA_LMA_START+0x6013c9b8>
     20c:	801406b7          	lui	a3,0x80140
     210:	20070713          	addi	a4,a4,512 # 4e200 <BIN_SIZE+0x485f7>
     214:	2006a783          	lw	a5,512(a3) # 80140200 <_DATA_LMA_START+0x6013c9b8>
     218:	8f91                	c.sub	a5,a2
     21a:	fef77de3          	bgeu	a4,a5,214 <delay_ms.constprop.12+0x14>
     21e:	8082                	c.jr	ra

00000220 <flash_send_addr>:
     220:	5d05275b          	bfoz	a4,a0,23,16
     224:	801407b7          	lui	a5,0x80140
     228:	801406b7          	lui	a3,0x80140
     22c:	10e78023          	sb	a4,256(a5) # 80140100 <_DATA_LMA_START+0x6013c8b8>
     230:	10268783          	lb	a5,258(a3) # 80140102 <_DATA_LMA_START+0x6013c8ba>
     234:	fe07fe5b          	bbs	a5,0,230 <flash_send_addr+0x10>
     238:	3c8527db          	bfoz	a5,a0,15,8
     23c:	80140737          	lui	a4,0x80140
     240:	10f68023          	sb	a5,256(a3)
     244:	10270783          	lb	a5,258(a4) # 80140102 <_DATA_LMA_START+0x6013c8ba>
     248:	fe07fe5b          	bbs	a5,0,244 <flash_send_addr+0x24>
     24c:	0ff57513          	andi	a0,a0,255
     250:	801406b7          	lui	a3,0x80140
     254:	10a70023          	sb	a0,256(a4)
     258:	10268783          	lb	a5,258(a3) # 80140102 <_DATA_LMA_START+0x6013c8ba>
     25c:	fe07fe5b          	bbs	a5,0,258 <flash_send_addr+0x38>
     260:	00008067          	ret

00000264 <flash_send_cmd>:
     264:	801407b7          	lui	a5,0x80140
     268:	10178703          	lb	a4,257(a5) # 80140101 <_DATA_LMA_START+0x6013c8b9>
     26c:	0ff77713          	andi	a4,a4,255
     270:	01076713          	ori	a4,a4,16
     274:	10e780a3          	sb	a4,257(a5)
     278:	0001                	c.nop
     27a:	0001                	c.nop
     27c:	0001                	c.nop
     27e:	0001                	c.nop
     280:	0001                	c.nop
     282:	0001                	c.nop
     284:	0001                	c.nop
     286:	0001                	c.nop
     288:	0001                	c.nop
     28a:	0001                	c.nop
     28c:	10178683          	lb	a3,257(a5)
     290:	80140737          	lui	a4,0x80140
     294:	0ef6f693          	andi	a3,a3,239
     298:	10d780a3          	sb	a3,257(a5)
     29c:	10a78023          	sb	a0,256(a5)
     2a0:	10270783          	lb	a5,258(a4) # 80140102 <_DATA_LMA_START+0x6013c8ba>
     2a4:	fe07fe5b          	bbs	a5,0,2a0 <flash_send_cmd+0x3c>
     2a8:	00008067          	ret

000002ac <clock_set_32k_tick>:
     2ac:	801406b7          	lui	a3,0x80140
     2b0:	20a68783          	lb	a5,522(a3) # 8014020a <_DATA_LMA_START+0x6013c9c2>
     2b4:	80140737          	lui	a4,0x80140
     2b8:	0ff7f793          	andi	a5,a5,255
     2bc:	0017e793          	ori	a5,a5,1
     2c0:	20f68523          	sb	a5,522(a3)
     2c4:	20b70683          	lb	a3,523(a4) # 8014020b <_DATA_LMA_START+0x6013c9c3>
     2c8:	20b70793          	addi	a5,a4,523
     2cc:	fe66fc5b          	bbs	a3,6,2c4 <clock_set_32k_tick+0x18>
     2d0:	20a72623          	sw	a0,524(a4)
     2d4:	4721                	c.li	a4,8
     2d6:	00e78023          	sb	a4,0(a5)
     2da:	0001                	c.nop
     2dc:	0001                	c.nop
     2de:	0001                	c.nop
     2e0:	0001                	c.nop
     2e2:	0001                	c.nop
     2e4:	0001                	c.nop
     2e6:	0001                	c.nop
     2e8:	0001                	c.nop
     2ea:	0001                	c.nop
     2ec:	0001                	c.nop
     2ee:	0001                	c.nop
     2f0:	0001                	c.nop
     2f2:	0001                	c.nop
     2f4:	0001                	c.nop
     2f6:	0001                	c.nop
     2f8:	00000013          	nop
     2fc:	801407b7          	lui	a5,0x80140
     300:	20b78703          	lb	a4,523(a5) # 8014020b <_DATA_LMA_START+0x6013c9c3>
     304:	fe377e5b          	bbs	a4,3,300 <clock_set_32k_tick+0x54>
     308:	00008067          	ret

0000030c <analog_read_reg32.constprop.4>:
     30c:	300027f3          	csrr	a5,mstatus
     310:	8ba1                	c.andi	a5,8
     312:	c789                	c.beqz	a5,31c <analog_read_reg32.constprop.4+0x10>
     314:	30047773          	csrrci	a4,mstatus,8
     318:	0ff0000f          	fence
     31c:	80140737          	lui	a4,0x80140
     320:	00400693          	li	a3,4
     324:	18d701a3          	sb	a3,387(a4) # 80140183 <_DATA_LMA_START+0x6013c93b>
     328:	06000693          	li	a3,96
     32c:	18d70023          	sb	a3,384(a4)
     330:	04000613          	li	a2,64
     334:	801406b7          	lui	a3,0x80140
     338:	18c70123          	sb	a2,386(a4)
     33c:	18268703          	lb	a4,386(a3) # 80140182 <_DATA_LMA_START+0x6013c93a>
     340:	fe777e5b          	bbs	a4,7,33c <analog_read_reg32.constprop.4+0x30>
     344:	1846a503          	lw	a0,388(a3)
     348:	00078663          	beqz	a5,354 <analog_read_reg32.constprop.4+0x48>
     34c:	3007a7f3          	csrrs	a5,mstatus,a5
     350:	0ff0000f          	fence
     354:	00008067          	ret

00000358 <clock_get_32k_tick>:
     358:	1141                	c.addi	sp,-16
     35a:	c422                	c.swsp	s0,8(sp)
     35c:	c606                	c.swsp	ra,12(sp)
     35e:	377d                	c.jal	30c <analog_read_reg32.constprop.4>
     360:	00a00433          	add	s0,zero,a0
     364:	fa9ff0ef          	jal	ra,30c <analog_read_reg32.constprop.4>
     368:	40850733          	sub	a4,a0,s0
     36c:	842a                	c.mv	s0,a0
     36e:	be176b5b          	bnec	a4,1,364 <clock_get_32k_tick+0xc>
     372:	40b2                	c.lwsp	ra,12(sp)
     374:	4422                	c.lwsp	s0,8(sp)
     376:	0141                	c.addi	sp,16
     378:	00008067          	ret

0000037c <pm_stimer_recover>:
     37c:	1141                	c.addi	sp,-16
     37e:	80140737          	lui	a4,0x80140
     382:	c606                	c.swsp	ra,12(sp)
     384:	4789                	c.li	a5,2
     386:	20f70c23          	sb	a5,536(a4) # 80140218 <_DATA_LMA_START+0x6013c9d0>
     38a:	20a70783          	lb	a5,522(a4)
     38e:	0ff7f793          	andi	a5,a5,255
     392:	00c7e793          	ori	a5,a5,12
     396:	20f70523          	sb	a5,522(a4)
     39a:	3f7d                	c.jal	358 <clock_get_32k_tick>
     39c:	000007b7          	lui	a5,0x0
     3a0:	15878713          	addi	a4,a5,344 # 158 <_AES_VMA_END>
     3a4:	00474703          	lbu	a4,4(a4)
     3a8:	15878793          	addi	a5,a5,344
     3ac:	cf01                	c.beqz	a4,3c4 <pm_stimer_recover+0x48>
     3ae:	4b98                	c.lw	a4,16(a5)
     3b0:	5f90                	c.lw	a2,56(a5)
     3b2:	40e50733          	sub	a4,a0,a4
     3b6:	47d4                	c.lw	a3,12(a5)
     3b8:	0705                	c.addi	a4,1
     3ba:	8315                	c.srli	a4,0x5
     3bc:	c4c716ff          	maddr32	a3,a4,a2
     3c0:	c794                	c.sw	a3,8(a5)
     3c2:	a829                	c.j	3dc <pm_stimer_recover+0x60>
     3c4:	4b98                	c.lw	a4,16(a5)
     3c6:	5f94                	c.lw	a3,56(a5)
     3c8:	40e50733          	sub	a4,a0,a4
     3cc:	0705                	c.addi	a4,1
     3ce:	02d70733          	mul	a4,a4,a3
     3d2:	47d4                	c.lw	a3,12(a5)
     3d4:	8315                	c.srli	a4,0x5
     3d6:	9736                	c.add	a4,a3
     3d8:	00e7a423          	sw	a4,8(a5)
     3dc:	4b98                	c.lw	a4,16(a5)
     3de:	4794                	c.lw	a3,8(a5)
     3e0:	40e50733          	sub	a4,a0,a4
     3e4:	0705                	c.addi	a4,1
     3e6:	0505                	c.addi	a0,1
     3e8:	0685                	c.addi	a3,1
     3ea:	d788                	c.sw	a0,40(a5)
     3ec:	02e7a223          	sw	a4,36(a5)
     3f0:	80140637          	lui	a2,0x80140
     3f4:	801407b7          	lui	a5,0x80140
     3f8:	20d7a023          	sw	a3,512(a5) # 80140200 <_DATA_LMA_START+0x6013c9b8>
     3fc:	20b60783          	lb	a5,523(a2) # 8014020b <_DATA_LMA_START+0x6013c9c3>
     400:	be77fe5b          	bbc	a5,7,3fc <pm_stimer_recover+0x80>
     404:	20060c23          	sb	zero,536(a2)
     408:	40b2                	c.lwsp	ra,12(sp)
     40a:	0141                	c.addi	sp,16
     40c:	00008067          	ret

00000410 <plic_exit_critical_sec>:
     410:	000007b7          	lui	a5,0x0
     414:	15878793          	addi	a5,a5,344 # 158 <_AES_VMA_END>
     418:	03c78783          	lb	a5,60(a5)
     41c:	0ff7f793          	andi	a5,a5,255
     420:	c795                	c.beqz	a5,44c <plic_exit_critical_sec+0x3c>
     422:	c50d                	c.beqz	a0,44c <plic_exit_critical_sec+0x3c>
     424:	300027f3          	csrr	a5,mstatus
     428:	8ba1                	c.andi	a5,8
     42a:	0ff5f593          	andi	a1,a1,255
     42e:	c78d                	c.beqz	a5,458 <plic_exit_critical_sec+0x48>
     430:	30047773          	csrrci	a4,mstatus,8
     434:	0ff0000f          	fence
     438:	e4200737          	lui	a4,0xe4200
     43c:	c30c                	c.sw	a1,0(a4)
     43e:	0ff0000f          	fence
     442:	3007a7f3          	csrrs	a5,mstatus,a5
     446:	0ff0000f          	fence
     44a:	8082                	c.jr	ra
     44c:	cd81                	c.beqz	a1,464 <plic_exit_critical_sec+0x54>
     44e:	3005a5f3          	csrrs	a1,mstatus,a1
     452:	0ff0000f          	fence
     456:	8082                	c.jr	ra
     458:	e42007b7          	lui	a5,0xe4200
     45c:	00b7a023          	sw	a1,0(a5) # e4200000 <_DATA_LMA_START+0xc41fc7b8>
     460:	0ff0000f          	fence
     464:	00008067          	ret

00000468 <plic_enter_critical_sec>:
     468:	000007b7          	lui	a5,0x0
     46c:	15878793          	addi	a5,a5,344 # 158 <_AES_VMA_END>
     470:	03c78783          	lb	a5,60(a5)
     474:	0ff7f793          	andi	a5,a5,255
     478:	cb85                	c.beqz	a5,4a8 <plic_enter_critical_sec+0x40>
     47a:	c51d                	c.beqz	a0,4a8 <plic_enter_critical_sec+0x40>
     47c:	e4200737          	lui	a4,0xe4200
     480:	4308                	c.lw	a0,0(a4)
     482:	04b57163          	bgeu	a0,a1,4c4 <plic_enter_critical_sec+0x5c>
     486:	300027f3          	csrr	a5,mstatus
     48a:	8ba1                	c.andi	a5,8
     48c:	cb85                	c.beqz	a5,4bc <plic_enter_critical_sec+0x54>
     48e:	300476f3          	csrrci	a3,mstatus,8
     492:	0ff0000f          	fence
     496:	c30c                	c.sw	a1,0(a4)
     498:	0ff0000f          	fence
     49c:	3007a7f3          	csrrs	a5,mstatus,a5
     4a0:	0ff0000f          	fence
     4a4:	00008067          	ret
     4a8:	30002573          	csrr	a0,mstatus
     4ac:	8921                	c.andi	a0,8
     4ae:	c919                	c.beqz	a0,4c4 <plic_enter_critical_sec+0x5c>
     4b0:	300477f3          	csrrci	a5,mstatus,8
     4b4:	0ff0000f          	fence
     4b8:	00008067          	ret
     4bc:	00b72023          	sw	a1,0(a4) # e4200000 <_DATA_LMA_START+0xc41fc7b8>
     4c0:	0ff0000f          	fence
     4c4:	00008067          	ret

000004c8 <flash_mspi_read_ram>:
     4c8:	7179                	c.addi16sp	sp,-48
     4ca:	d226                	c.swsp	s1,36(sp)
     4cc:	000004b7          	lui	s1,0x0
     4d0:	15848493          	addi	s1,s1,344 # 158 <_AES_VMA_END>
     4d4:	d04a                	c.swsp	s2,32(sp)
     4d6:	c65e                	c.swsp	s7,12(sp)
     4d8:	892a                	c.mv	s2,a0
     4da:	8bae                	c.mv	s7,a1
     4dc:	0404c503          	lbu	a0,64(s1)
     4e0:	0414c583          	lbu	a1,65(s1)
     4e4:	d422                	c.swsp	s0,40(sp)
     4e6:	ce4e                	c.swsp	s3,28(sp)
     4e8:	cc52                	c.swsp	s4,24(sp)
     4ea:	ca56                	c.swsp	s5,20(sp)
     4ec:	c85a                	c.swsp	s6,16(sp)
     4ee:	d606                	c.swsp	ra,44(sp)
     4f0:	8b32                	c.mv	s6,a2
     4f2:	8ab6                	c.mv	s5,a3
     4f4:	843a                	c.mv	s0,a4
     4f6:	8a3e                	c.mv	s4,a5
     4f8:	f71ff0ef          	jal	ra,468 <plic_enter_critical_sec>
     4fc:	80140637          	lui	a2,0x80140
     500:	00a009b3          	add	s3,zero,a0
     504:	10260783          	lb	a5,258(a2) # 80140102 <_DATA_LMA_START+0x6013c8ba>
     508:	fe07fe5b          	bbs	a5,0,504 <flash_mspi_read_ram+0x3c>
     50c:	10160783          	lb	a5,257(a2)
     510:	80140737          	lui	a4,0x80140
     514:	0ff7f793          	andi	a5,a5,255
     518:	0107e793          	ori	a5,a5,16
     51c:	10f600a3          	sb	a5,257(a2)
     520:	32870783          	lb	a5,808(a4) # 80140328 <_DATA_LMA_START+0x6013cae0>
     524:	be37fe5b          	bbc	a5,3,520 <flash_mspi_read_ram+0x58>
     528:	10170783          	lb	a5,257(a4)
     52c:	854a                	c.mv	a0,s2
     52e:	0fd7f793          	andi	a5,a5,253
     532:	10f700a3          	sb	a5,257(a4)
     536:	10170783          	lb	a5,257(a4)
     53a:	0f37f793          	andi	a5,a5,243
     53e:	10f700a3          	sb	a5,257(a4)
     542:	330d                	c.jal	264 <flash_send_cmd>
     544:	0e0b1e63          	bnez	s6,640 <flash_mspi_read_ram+0x178>
     548:	020a8063          	beqz	s5,568 <flash_mspi_read_ram+0xa0>
     54c:	00000713          	li	a4,0
     550:	80140637          	lui	a2,0x80140
     554:	10060023          	sb	zero,256(a2) # 80140100 <_DATA_LMA_START+0x6013c8b8>
     558:	10260783          	lb	a5,258(a2)
     55c:	fe07fe5b          	bbs	a5,0,558 <flash_mspi_read_ram+0x90>
     560:	00170713          	addi	a4,a4,1
     564:	ff5718e3          	bne	a4,s5,554 <flash_mspi_read_ram+0x8c>
     568:	01b96cdb          	bnec	s2,59,580 <flash_mspi_read_ram+0xb8>
     56c:	80140737          	lui	a4,0x80140
     570:	10170783          	lb	a5,257(a4) # 80140101 <_DATA_LMA_START+0x6013c8b9>
     574:	0f37f793          	andi	a5,a5,243
     578:	0047e793          	ori	a5,a5,4
     57c:	10f700a3          	sb	a5,257(a4)
     580:	801406b7          	lui	a3,0x80140
     584:	10168783          	lb	a5,257(a3) # 80140101 <_DATA_LMA_START+0x6013c8b9>
     588:	80140737          	lui	a4,0x80140
     58c:	0ff7f793          	andi	a5,a5,255
     590:	0027e793          	ori	a5,a5,2
     594:	10f680a3          	sb	a5,257(a3)
     598:	10068023          	sb	zero,256(a3)
     59c:	10270783          	lb	a5,258(a4) # 80140102 <_DATA_LMA_START+0x6013c8ba>
     5a0:	fe07fe5b          	bbs	a5,0,59c <flash_mspi_read_ram+0xd4>
     5a4:	10170783          	lb	a5,257(a4)
     5a8:	801406b7          	lui	a3,0x80140
     5ac:	0ff7f793          	andi	a5,a5,255
     5b0:	0017e793          	ori	a5,a5,1
     5b4:	10f700a3          	sb	a5,257(a4)
     5b8:	10268783          	lb	a5,258(a3) # 80140102 <_DATA_LMA_START+0x6013c8ba>
     5bc:	fe07fe5b          	bbs	a5,0,5b8 <flash_mspi_read_ram+0xf0>
     5c0:	020a0263          	beqz	s4,5e4 <flash_mspi_read_ram+0x11c>
     5c4:	008a0a33          	add	s4,s4,s0
     5c8:	801406b7          	lui	a3,0x80140
     5cc:	10068783          	lb	a5,256(a3) # 80140100 <_DATA_LMA_START+0x6013c8b8>
     5d0:	00140413          	addi	s0,s0,1
     5d4:	fef40fa3          	sb	a5,-1(s0)
     5d8:	10268783          	lb	a5,258(a3)
     5dc:	fe07fe5b          	bbs	a5,0,5d8 <flash_mspi_read_ram+0x110>
     5e0:	ff4416e3          	bne	s0,s4,5cc <flash_mspi_read_ram+0x104>
     5e4:	801407b7          	lui	a5,0x80140
     5e8:	10178703          	lb	a4,257(a5) # 80140101 <_DATA_LMA_START+0x6013c8b9>
     5ec:	0fe77713          	andi	a4,a4,254
     5f0:	10e780a3          	sb	a4,257(a5)
     5f4:	01b968db          	bnec	s2,59,604 <flash_mspi_read_ram+0x13c>
     5f8:	10178703          	lb	a4,257(a5)
     5fc:	0f377713          	andi	a4,a4,243
     600:	10e780a3          	sb	a4,257(a5)
     604:	80140737          	lui	a4,0x80140
     608:	10170783          	lb	a5,257(a4) # 80140101 <_DATA_LMA_START+0x6013c8b9>
     60c:	0ff7f793          	andi	a5,a5,255
     610:	0107e793          	ori	a5,a5,16
     614:	10f700a3          	sb	a5,257(a4)
     618:	0001                	c.nop
     61a:	0001                	c.nop
     61c:	0001                	c.nop
     61e:	0001                	c.nop
     620:	0001                	c.nop
     622:	5422                	c.lwsp	s0,40(sp)
     624:	0404c503          	lbu	a0,64(s1)
     628:	50b2                	c.lwsp	ra,44(sp)
     62a:	5492                	c.lwsp	s1,36(sp)
     62c:	5902                	c.lwsp	s2,32(sp)
     62e:	4a62                	c.lwsp	s4,24(sp)
     630:	4ad2                	c.lwsp	s5,20(sp)
     632:	4b42                	c.lwsp	s6,16(sp)
     634:	4bb2                	c.lwsp	s7,12(sp)
     636:	85ce                	c.mv	a1,s3
     638:	49f2                	c.lwsp	s3,28(sp)
     63a:	6145                	c.addi16sp	sp,48
     63c:	dd5ff06f          	j	410 <plic_exit_critical_sec>
     640:	855e                	c.mv	a0,s7
     642:	3ef9                	c.jal	220 <flash_send_addr>
     644:	f05ff06f          	j	548 <flash_mspi_read_ram+0x80>

00000648 <flash_mspi_read_ram.constprop.7>:
     648:	1101                	c.addi	sp,-32
     64a:	c64e                	c.swsp	s3,12(sp)
     64c:	000009b7          	lui	s3,0x0
     650:	15898993          	addi	s3,s3,344 # 158 <_AES_VMA_END>
     654:	cc22                	c.swsp	s0,24(sp)
     656:	c256                	c.swsp	s5,4(sp)
     658:	842e                	c.mv	s0,a1
     65a:	8aaa                	c.mv	s5,a0
     65c:	0419c583          	lbu	a1,65(s3)
     660:	0409c503          	lbu	a0,64(s3)
     664:	c84a                	c.swsp	s2,16(sp)
     666:	c452                	c.swsp	s4,8(sp)
     668:	ce06                	c.swsp	ra,28(sp)
     66a:	ca26                	c.swsp	s1,20(sp)
     66c:	8932                	c.mv	s2,a2
     66e:	3bed                	c.jal	468 <plic_enter_critical_sec>
     670:	80140737          	lui	a4,0x80140
     674:	00a00a33          	add	s4,zero,a0
     678:	10270783          	lb	a5,258(a4) # 80140102 <_DATA_LMA_START+0x6013c8ba>
     67c:	fe07fe5b          	bbs	a5,0,678 <flash_mspi_read_ram.constprop.7+0x30>
     680:	10170783          	lb	a5,257(a4)
     684:	801404b7          	lui	s1,0x80140
     688:	0ff7f793          	andi	a5,a5,255
     68c:	0107e793          	ori	a5,a5,16
     690:	10f700a3          	sb	a5,257(a4)
     694:	32848783          	lb	a5,808(s1) # 80140328 <_DATA_LMA_START+0x6013cae0>
     698:	be37fe5b          	bbc	a5,3,694 <flash_mspi_read_ram.constprop.7+0x4c>
     69c:	10148783          	lb	a5,257(s1)
     6a0:	03b00513          	li	a0,59
     6a4:	0fd7f793          	andi	a5,a5,253
     6a8:	10f480a3          	sb	a5,257(s1)
     6ac:	10148783          	lb	a5,257(s1)
     6b0:	0f37f793          	andi	a5,a5,243
     6b4:	10f480a3          	sb	a5,257(s1)
     6b8:	badff0ef          	jal	ra,264 <flash_send_cmd>
     6bc:	01500533          	add	a0,zero,s5
     6c0:	b61ff0ef          	jal	ra,220 <flash_send_addr>
     6c4:	80140737          	lui	a4,0x80140
     6c8:	10048023          	sb	zero,256(s1)
     6cc:	10270783          	lb	a5,258(a4) # 80140102 <_DATA_LMA_START+0x6013c8ba>
     6d0:	fe07fe5b          	bbs	a5,0,6cc <flash_mspi_read_ram.constprop.7+0x84>
     6d4:	10170783          	lb	a5,257(a4)
     6d8:	801406b7          	lui	a3,0x80140
     6dc:	0f37f793          	andi	a5,a5,243
     6e0:	0047e793          	ori	a5,a5,4
     6e4:	10f700a3          	sb	a5,257(a4)
     6e8:	10170783          	lb	a5,257(a4)
     6ec:	0ff7f793          	andi	a5,a5,255
     6f0:	0027e793          	ori	a5,a5,2
     6f4:	10f700a3          	sb	a5,257(a4)
     6f8:	10070023          	sb	zero,256(a4)
     6fc:	10268783          	lb	a5,258(a3) # 80140102 <_DATA_LMA_START+0x6013c8ba>
     700:	fe07fe5b          	bbs	a5,0,6fc <flash_mspi_read_ram.constprop.7+0xb4>
     704:	10168783          	lb	a5,257(a3)
     708:	80140737          	lui	a4,0x80140
     70c:	0ff7f793          	andi	a5,a5,255
     710:	0017e793          	ori	a5,a5,1
     714:	10f680a3          	sb	a5,257(a3)
     718:	10270783          	lb	a5,258(a4) # 80140102 <_DATA_LMA_START+0x6013c8ba>
     71c:	fe07fe5b          	bbs	a5,0,718 <flash_mspi_read_ram.constprop.7+0xd0>
     720:	02090263          	beqz	s2,744 <flash_mspi_read_ram.constprop.7+0xfc>
     724:	01240633          	add	a2,s0,s2
     728:	80140737          	lui	a4,0x80140
     72c:	10070783          	lb	a5,256(a4) # 80140100 <_DATA_LMA_START+0x6013c8b8>
     730:	00140413          	addi	s0,s0,1
     734:	fef40fa3          	sb	a5,-1(s0)
     738:	10270783          	lb	a5,258(a4)
     73c:	fe07fe5b          	bbs	a5,0,738 <flash_mspi_read_ram.constprop.7+0xf0>
     740:	fec416e3          	bne	s0,a2,72c <flash_mspi_read_ram.constprop.7+0xe4>
     744:	801407b7          	lui	a5,0x80140
     748:	10178703          	lb	a4,257(a5) # 80140101 <_DATA_LMA_START+0x6013c8b9>
     74c:	0fe77713          	andi	a4,a4,254
     750:	10e780a3          	sb	a4,257(a5)
     754:	10178703          	lb	a4,257(a5)
     758:	0f377713          	andi	a4,a4,243
     75c:	10e780a3          	sb	a4,257(a5)
     760:	10178703          	lb	a4,257(a5)
     764:	0ff77713          	andi	a4,a4,255
     768:	01076713          	ori	a4,a4,16
     76c:	10e780a3          	sb	a4,257(a5)
     770:	0001                	c.nop
     772:	0001                	c.nop
     774:	0001                	c.nop
     776:	0001                	c.nop
     778:	0001                	c.nop
     77a:	4462                	c.lwsp	s0,24(sp)
     77c:	0409c503          	lbu	a0,64(s3)
     780:	40f2                	c.lwsp	ra,28(sp)
     782:	44d2                	c.lwsp	s1,20(sp)
     784:	4942                	c.lwsp	s2,16(sp)
     786:	49b2                	c.lwsp	s3,12(sp)
     788:	4a92                	c.lwsp	s5,4(sp)
     78a:	85d2                	c.mv	a1,s4
     78c:	4a22                	c.lwsp	s4,8(sp)
     78e:	6105                	c.addi16sp	sp,32
     790:	c81ff06f          	j	410 <plic_exit_critical_sec>

00000794 <analog_write_reg8>:
     794:	30002673          	csrr	a2,mstatus
     798:	8a21                	c.andi	a2,8
     79a:	c609                	c.beqz	a2,7a4 <analog_write_reg8+0x10>
     79c:	300477f3          	csrrci	a5,mstatus,8
     7a0:	0ff0000f          	fence
     7a4:	80140737          	lui	a4,0x80140
     7a8:	18a70023          	sb	a0,384(a4) # 80140180 <_DATA_LMA_START+0x6013c938>
     7ac:	18b70223          	sb	a1,388(a4)
     7b0:	06000693          	li	a3,96
     7b4:	801407b7          	lui	a5,0x80140
     7b8:	18d70123          	sb	a3,386(a4)
     7bc:	18278703          	lb	a4,386(a5) # 80140182 <_DATA_LMA_START+0x6013c93a>
     7c0:	fe777e5b          	bbs	a4,7,7bc <analog_write_reg8+0x28>
     7c4:	18078123          	sb	zero,386(a5)
     7c8:	00060663          	beqz	a2,7d4 <analog_write_reg8+0x40>
     7cc:	30062673          	csrrs	a2,mstatus,a2
     7d0:	0ff0000f          	fence
     7d4:	00008067          	ret

000007d8 <analog_read_reg8>:
     7d8:	300026f3          	csrr	a3,mstatus
     7dc:	8aa1                	c.andi	a3,8
     7de:	c689                	c.beqz	a3,7e8 <analog_read_reg8+0x10>
     7e0:	300477f3          	csrrci	a5,mstatus,8
     7e4:	0ff0000f          	fence
     7e8:	801407b7          	lui	a5,0x80140
     7ec:	18a78023          	sb	a0,384(a5) # 80140180 <_DATA_LMA_START+0x6013c938>
     7f0:	00100713          	li	a4,1
     7f4:	18e781a3          	sb	a4,387(a5)
     7f8:	04000613          	li	a2,64
     7fc:	80140737          	lui	a4,0x80140
     800:	18c78123          	sb	a2,386(a5)
     804:	18270783          	lb	a5,386(a4) # 80140182 <_DATA_LMA_START+0x6013c93a>
     808:	fe77fe5b          	bbs	a5,7,804 <analog_read_reg8+0x2c>
     80c:	18470503          	lb	a0,388(a4)
     810:	0ff57513          	andi	a0,a0,255
     814:	00068663          	beqz	a3,820 <analog_read_reg8+0x48>
     818:	3006a6f3          	csrrs	a3,mstatus,a3
     81c:	0ff0000f          	fence
     820:	00008067          	ret

00000824 <clock_init_ram.constprop.11>:
     824:	1141                	c.addi	sp,-16
     826:	80140737          	lui	a4,0x80140
     82a:	c606                	c.swsp	ra,12(sp)
     82c:	c422                	c.swsp	s0,8(sp)
     82e:	c226                	c.swsp	s1,4(sp)
     830:	10270783          	lb	a5,258(a4) # 80140102 <_DATA_LMA_START+0x6013c8ba>
     834:	fe07fe5b          	bbs	a5,0,830 <clock_init_ram.constprop.11+0xc>
     838:	10170783          	lb	a5,257(a4)
     83c:	801404b7          	lui	s1,0x80140
     840:	0ff7f793          	andi	a5,a5,255
     844:	0107e793          	ori	a5,a5,16
     848:	10f700a3          	sb	a5,257(a4)
     84c:	32848783          	lb	a5,808(s1) # 80140328 <_DATA_LMA_START+0x6013cae0>
     850:	be37fe5b          	bbc	a5,3,84c <clock_init_ram.constprop.11+0x28>
     854:	1e848783          	lb	a5,488(s1)
     858:	08000513          	li	a0,128
     85c:	8bbd                	c.andi	a5,15
     85e:	1ef48423          	sb	a5,488(s1)
     862:	3f9d                	c.jal	7d8 <analog_read_reg8>
     864:	0e057593          	andi	a1,a0,224
     868:	0105e593          	ori	a1,a1,16
     86c:	08000513          	li	a0,128
     870:	f25ff0ef          	jal	ra,794 <analog_write_reg8>
     874:	00900513          	li	a0,9
     878:	f61ff0ef          	jal	ra,7d8 <analog_read_reg8>
     87c:	0f357593          	andi	a1,a0,243
     880:	0085e593          	ori	a1,a1,8
     884:	4525                	c.li	a0,9
     886:	3739                	c.jal	794 <analog_write_reg8>
     888:	0c000793          	li	a5,192
     88c:	3912140b          	addigp	s0,7056 # 82390 <sys_clk>
     890:	00f41023          	sh	a5,0(s0)
     894:	08100513          	li	a0,129
     898:	4791                	c.li	a5,4
     89a:	1ef48da3          	sb	a5,507(s1)
     89e:	3f2d                	c.jal	7d8 <analog_read_reg8>
     8a0:	04056593          	ori	a1,a0,64
     8a4:	0ff5f593          	andi	a1,a1,255
     8a8:	08100513          	li	a0,129
     8ac:	ee9ff0ef          	jal	ra,794 <analog_write_reg8>
     8b0:	08800513          	li	a0,136
     8b4:	f25ff0ef          	jal	ra,7d8 <analog_read_reg8>
     8b8:	be557c5b          	bbc	a0,5,8b0 <clock_init_ram.constprop.11+0x8c>
     8bc:	08100513          	li	a0,129
     8c0:	f19ff0ef          	jal	ra,7d8 <analog_read_reg8>
     8c4:	0bf57593          	andi	a1,a0,191
     8c8:	08100513          	li	a0,129
     8cc:	ec9ff0ef          	jal	ra,794 <analog_write_reg8>
     8d0:	801407b7          	lui	a5,0x80140
     8d4:	1e978703          	lb	a4,489(a5) # 801401e9 <_DATA_LMA_START+0x6013c9a1>
     8d8:	8b3d                	c.andi	a4,15
     8da:	04076713          	ori	a4,a4,64
     8de:	1ee784a3          	sb	a4,489(a5)
     8e2:	1e878703          	lb	a4,488(a5)
     8e6:	f8076713          	ori	a4,a4,-128
     8ea:	0ff77713          	andi	a4,a4,255
     8ee:	1ee78423          	sb	a4,488(a5)
     8f2:	1e878703          	lb	a4,488(a5)
     8f6:	f8076713          	ori	a4,a4,-128
     8fa:	0ff77713          	andi	a4,a4,255
     8fe:	1ee78423          	sb	a4,488(a5)
     902:	1d878703          	lb	a4,472(a5)
     906:	00045683          	lhu	a3,0(s0)
     90a:	0fb77713          	andi	a4,a4,251
     90e:	1ce78c23          	sb	a4,472(a5)
     912:	1d878703          	lb	a4,472(a5)
     916:	8689                	c.srai	a3,0x2
     918:	00d402a3          	sb	a3,5(s0)
     91c:	0fc77713          	andi	a4,a4,252
     920:	1ce78c23          	sb	a4,472(a5)
     924:	1e878703          	lb	a4,488(a5)
     928:	0f077713          	andi	a4,a4,240
     92c:	00876713          	ori	a4,a4,8
     930:	1ee78423          	sb	a4,488(a5)
     934:	1e878703          	lb	a4,488(a5)
     938:	00045683          	lhu	a3,0(s0)
     93c:	08f77713          	andi	a4,a4,143
     940:	868d                	c.srai	a3,0x3
     942:	00d40123          	sb	a3,2(s0)
     946:	02076713          	ori	a4,a4,32
     94a:	1ee78423          	sb	a4,488(a5)
     94e:	0ff6f693          	andi	a3,a3,255
     952:	00d401a3          	sb	a3,3(s0)
     956:	00d40223          	sb	a3,4(s0)
     95a:	40b2                	c.lwsp	ra,12(sp)
     95c:	4422                	c.lwsp	s0,8(sp)
     95e:	4492                	c.lwsp	s1,4(sp)
     960:	0141                	c.addi	sp,16
     962:	8082                	c.jr	ra

00000964 <pm_wait_bbpll_done>:
     964:	1101                	c.addi	sp,-32
     966:	08100513          	li	a0,129
     96a:	cc22                	c.swsp	s0,24(sp)
     96c:	ca26                	c.swsp	s1,20(sp)
     96e:	c84a                	c.swsp	s2,16(sp)
     970:	ce06                	c.swsp	ra,28(sp)
     972:	359d                	c.jal	7d8 <analog_read_reg8>
     974:	04056593          	ori	a1,a0,64
     978:	892a                	c.mv	s2,a0
     97a:	0ff5f593          	andi	a1,a1,255
     97e:	08100513          	li	a0,129
     982:	0bf97913          	andi	s2,s2,191
     986:	4481                	c.li	s1,0
     988:	4475                	c.li	s0,29
     98a:	3529                	c.jal	794 <analog_write_reg8>
     98c:	000107a3          	sb	zero,15(sp)
     990:	00f10783          	lb	a5,15(sp)
     994:	0ff7f793          	andi	a5,a5,255
     998:	02f46063          	bltu	s0,a5,9b8 <pm_wait_bbpll_done+0x54>
     99c:	0001                	c.nop
     99e:	00f10783          	lb	a5,15(sp)
     9a2:	0785                	c.addi	a5,1
     9a4:	0ff7f793          	andi	a5,a5,255
     9a8:	00f107a3          	sb	a5,15(sp)
     9ac:	00f10783          	lb	a5,15(sp)
     9b0:	0ff7f793          	andi	a5,a5,255
     9b4:	fef474e3          	bgeu	s0,a5,99c <pm_wait_bbpll_done+0x38>
     9b8:	08800513          	li	a0,136
     9bc:	e1dff0ef          	jal	ra,7d8 <analog_read_reg8>
     9c0:	4255765b          	bbs	a0,5,9ec <pm_wait_bbpll_done+0x88>
     9c4:	cc95                	c.beqz	s1,a00 <pm_wait_bbpll_done+0x9c>
     9c6:	0414d35b          	beqc	s1,1,a0c <pm_wait_bbpll_done+0xa8>
     9ca:	85ca                	c.mv	a1,s2
     9cc:	08100513          	li	a0,129
     9d0:	dc5ff0ef          	jal	ra,794 <analog_write_reg8>
     9d4:	0024d65b          	beqc	s1,2,9e0 <pm_wait_bbpll_done+0x7c>
     9d8:	0485                	c.addi	s1,1
     9da:	0ff4f493          	andi	s1,s1,255
     9de:	b77d                	c.j	98c <pm_wait_bbpll_done+0x28>
     9e0:	40f2                	c.lwsp	ra,28(sp)
     9e2:	4462                	c.lwsp	s0,24(sp)
     9e4:	44d2                	c.lwsp	s1,20(sp)
     9e6:	4942                	c.lwsp	s2,16(sp)
     9e8:	6105                	c.addi16sp	sp,32
     9ea:	8082                	c.jr	ra
     9ec:	4462                	c.lwsp	s0,24(sp)
     9ee:	40f2                	c.lwsp	ra,28(sp)
     9f0:	44d2                	c.lwsp	s1,20(sp)
     9f2:	85ca                	c.mv	a1,s2
     9f4:	4942                	c.lwsp	s2,16(sp)
     9f6:	08100513          	li	a0,129
     9fa:	6105                	c.addi16sp	sp,32
     9fc:	d99ff06f          	j	794 <analog_write_reg8>
     a00:	04600593          	li	a1,70
     a04:	4505                	c.li	a0,1
     a06:	3379                	c.jal	794 <analog_write_reg8>
     a08:	fd1ff06f          	j	9d8 <pm_wait_bbpll_done+0x74>
     a0c:	04300593          	li	a1,67
     a10:	4505                	c.li	a0,1
     a12:	3349                	c.jal	794 <analog_write_reg8>
     a14:	fc5ff06f          	j	9d8 <pm_wait_bbpll_done+0x74>

00000a18 <pm_sleep_start>:
     a18:	1101                	c.addi	sp,-32
     a1a:	3b52272b          	lwgp	a4,7092 # 823b4 <g_chip_version>
     a1e:	000006b7          	lui	a3,0x0
     a22:	ce06                	c.swsp	ra,28(sp)
     a24:	cc22                	c.swsp	s0,24(sp)
     a26:	ca26                	c.swsp	s1,20(sp)
     a28:	0ff00793          	li	a5,255
     a2c:	19a6c583          	lbu	a1,410(a3) # 19a <g_pm_suspend_power_cfg>
     a30:	00f71a63          	bne	a4,a5,a44 <pm_sleep_start+0x2c>
     a34:	0fe5f593          	andi	a1,a1,254
     a38:	07d00513          	li	a0,125
     a3c:	d59ff0ef          	jal	ra,794 <analog_write_reg8>
     a40:	00c0006f          	j	a4c <pm_sleep_start+0x34>
     a44:	07d00513          	li	a0,125
     a48:	d4dff0ef          	jal	ra,794 <analog_write_reg8>
     a4c:	801406b7          	lui	a3,0x80140
     a50:	10268783          	lb	a5,258(a3) # 80140102 <_DATA_LMA_START+0x6013c8ba>
     a54:	fe07fe5b          	bbs	a5,0,a50 <pm_sleep_start+0x38>
     a58:	10168703          	lb	a4,257(a3)
     a5c:	801407b7          	lui	a5,0x80140
     a60:	0ff77713          	andi	a4,a4,255
     a64:	01076713          	ori	a4,a4,16
     a68:	10e680a3          	sb	a4,257(a3)
     a6c:	32878703          	lb	a4,808(a5) # 80140328 <_DATA_LMA_START+0x6013cae0>
     a70:	be377e5b          	bbc	a4,3,a6c <pm_sleep_start+0x54>
     a74:	10178703          	lb	a4,257(a5)
     a78:	80140437          	lui	s0,0x80140
     a7c:	0fd77713          	andi	a4,a4,253
     a80:	10e780a3          	sb	a4,257(a5)
     a84:	10178703          	lb	a4,257(a5)
     a88:	0ef77713          	andi	a4,a4,239
     a8c:	10e780a3          	sb	a4,257(a5)
     a90:	fb900713          	li	a4,-71
     a94:	10e78023          	sb	a4,256(a5)
     a98:	10240783          	lb	a5,258(s0) # 80140102 <_DATA_LMA_START+0x6013c8ba>
     a9c:	fe07fe5b          	bbs	a5,0,a98 <pm_sleep_start+0x80>
     aa0:	10140783          	lb	a5,257(s0)
     aa4:	452d                	c.li	a0,11
     aa6:	0ff7f793          	andi	a5,a5,255
     aaa:	0107e793          	ori	a5,a5,16
     aae:	10f400a3          	sb	a5,257(s0)
     ab2:	320404a3          	sb	zero,809(s0)
     ab6:	330d                	c.jal	7d8 <analog_read_reg8>
     ab8:	0fc57593          	andi	a1,a0,252
     abc:	452d                	c.li	a0,11
     abe:	39d9                	c.jal	794 <analog_write_reg8>
     ac0:	08100513          	li	a0,129
     ac4:	d15ff0ef          	jal	ra,7d8 <analog_read_reg8>
     ac8:	f8056593          	ori	a1,a0,-128
     acc:	0ff5f593          	andi	a1,a1,255
     ad0:	08100513          	li	a0,129
     ad4:	cc1ff0ef          	jal	ra,794 <analog_write_reg8>
     ad8:	f8000793          	li	a5,-128
     adc:	1ef407a3          	sb	a5,495(s0)
     ae0:	03f00493          	li	s1,63
     ae4:	00012423          	sw	zero,8(sp)
     ae8:	47a2                	c.lwsp	a5,8(sp)
     aea:	00f4e763          	bltu	s1,a5,af8 <pm_sleep_start+0xe0>
     aee:	0001                	c.nop
     af0:	47a2                	c.lwsp	a5,8(sp)
     af2:	0785                	c.addi	a5,1
     af4:	c43e                	c.swsp	a5,8(sp)
     af6:	bfcd                	c.j	ae8 <pm_sleep_start+0xd0>
     af8:	08100513          	li	a0,129
     afc:	cddff0ef          	jal	ra,7d8 <analog_read_reg8>
     b00:	07f57593          	andi	a1,a0,127
     b04:	08100513          	li	a0,129
     b08:	c8dff0ef          	jal	ra,794 <analog_write_reg8>
     b0c:	00b00513          	li	a0,11
     b10:	cc9ff0ef          	jal	ra,7d8 <analog_read_reg8>
     b14:	00356593          	ori	a1,a0,3
     b18:	0ff5f593          	andi	a1,a1,255
     b1c:	452d                	c.li	a0,11
     b1e:	399d                	c.jal	794 <analog_write_reg8>
     b20:	08000593          	li	a1,128
     b24:	07d00513          	li	a0,125
     b28:	c6dff0ef          	jal	ra,794 <analog_write_reg8>
     b2c:	801407b7          	lui	a5,0x80140
     b30:	329784a3          	sb	s1,809(a5) # 80140329 <_DATA_LMA_START+0x6013cae1>
     b34:	10178683          	lb	a3,257(a5)
     b38:	80140737          	lui	a4,0x80140
     b3c:	0ef6f693          	andi	a3,a3,239
     b40:	10d780a3          	sb	a3,257(a5)
     b44:	fab00693          	li	a3,-85
     b48:	10d78023          	sb	a3,256(a5)
     b4c:	10270783          	lb	a5,258(a4) # 80140102 <_DATA_LMA_START+0x6013c8ba>
     b50:	fe07fe5b          	bbs	a5,0,b4c <pm_sleep_start+0x134>
     b54:	10170783          	lb	a5,257(a4)
     b58:	12b00693          	li	a3,299
     b5c:	0ff7f793          	andi	a5,a5,255
     b60:	0107e793          	ori	a5,a5,16
     b64:	10f700a3          	sb	a5,257(a4)
     b68:	00012623          	sw	zero,12(sp)
     b6c:	47b2                	c.lwsp	a5,12(sp)
     b6e:	00f6e763          	bltu	a3,a5,b7c <pm_sleep_start+0x164>
     b72:	0001                	c.nop
     b74:	47b2                	c.lwsp	a5,12(sp)
     b76:	0785                	c.addi	a5,1
     b78:	c63e                	c.swsp	a5,12(sp)
     b7a:	bfcd                	c.j	b6c <pm_sleep_start+0x154>
     b7c:	08800513          	li	a0,136
     b80:	c59ff0ef          	jal	ra,7d8 <analog_read_reg8>
     b84:	be757c5b          	bbc	a0,7,b7c <pm_sleep_start+0x164>
     b88:	08800513          	li	a0,136
     b8c:	c4dff0ef          	jal	ra,7d8 <analog_read_reg8>
     b90:	be757c5b          	bbc	a0,7,b88 <pm_sleep_start+0x170>
     b94:	08800513          	li	a0,136
     b98:	c41ff0ef          	jal	ra,7d8 <analog_read_reg8>
     b9c:	be757c5b          	bbc	a0,7,b94 <pm_sleep_start+0x17c>
     ba0:	4462                	c.lwsp	s0,24(sp)
     ba2:	40f2                	c.lwsp	ra,28(sp)
     ba4:	44d2                	c.lwsp	s1,20(sp)
     ba6:	6105                	c.addi16sp	sp,32
     ba8:	dbdff06f          	j	964 <pm_wait_bbpll_done>

00000bac <dr_putchar>:
     bac:	1101                	c.addi	sp,-32
     bae:	ca26                	c.swsp	s1,20(sp)
     bb0:	cc22                	c.swsp	s0,24(sp)
     bb2:	ce06                	c.swsp	ra,28(sp)
     bb4:	c84a                	c.swsp	s2,16(sp)
     bb6:	38d2148b          	addigp	s1,7052 # 8238c <init_flag.4915>
     bba:	842a                	c.mv	s0,a0
     bbc:	0004c783          	lbu	a5,0(s1)
     bc0:	0c17d25b          	beqc	a5,1,c84 <dr_putchar+0xd8>
     bc4:	801407b7          	lui	a5,0x80140
     bc8:	30378703          	lb	a4,771(a5) # 80140303 <_DATA_LMA_START+0x6013cabb>
     bcc:	30378783          	lb	a5,771(a5)
     bd0:	0fe77713          	andi	a4,a4,254
     bd4:	0ff7f793          	andi	a5,a5,255
     bd8:	0017e793          	ori	a5,a5,1
     bdc:	00e10223          	sb	a4,4(sp)
     be0:	86be                	c.mv	a3,a5
     be2:	4004735b          	bbs	s0,0,be8 <dr_putchar+0x3c>
     be6:	86ba                	c.mv	a3,a4
     be8:	00d102a3          	sb	a3,5(sp)
     bec:	86be                	c.mv	a3,a5
     bee:	4014735b          	bbs	s0,1,bf4 <dr_putchar+0x48>
     bf2:	86ba                	c.mv	a3,a4
     bf4:	00d10323          	sb	a3,6(sp)
     bf8:	86be                	c.mv	a3,a5
     bfa:	4024735b          	bbs	s0,2,c00 <dr_putchar+0x54>
     bfe:	86ba                	c.mv	a3,a4
     c00:	00d103a3          	sb	a3,7(sp)
     c04:	86be                	c.mv	a3,a5
     c06:	4034735b          	bbs	s0,3,c0c <dr_putchar+0x60>
     c0a:	86ba                	c.mv	a3,a4
     c0c:	00d10423          	sb	a3,8(sp)
     c10:	86be                	c.mv	a3,a5
     c12:	4044735b          	bbs	s0,4,c18 <dr_putchar+0x6c>
     c16:	86ba                	c.mv	a3,a4
     c18:	00d104a3          	sb	a3,9(sp)
     c1c:	86be                	c.mv	a3,a5
     c1e:	4054735b          	bbs	s0,5,c24 <dr_putchar+0x78>
     c22:	86ba                	c.mv	a3,a4
     c24:	00d10523          	sb	a3,10(sp)
     c28:	86be                	c.mv	a3,a5
     c2a:	4064735b          	bbs	s0,6,c30 <dr_putchar+0x84>
     c2e:	86ba                	c.mv	a3,a4
     c30:	00d105a3          	sb	a3,11(sp)
     c34:	801d                	c.srli	s0,0x7
     c36:	c019                	c.beqz	s0,c3c <dr_putchar+0x90>
     c38:	00f00733          	add	a4,zero,a5
     c3c:	00f106a3          	sb	a5,13(sp)
     c40:	801407b7          	lui	a5,0x80140
     c44:	00e10623          	sb	a4,12(sp)
     c48:	2007a603          	lw	a2,512(a5) # 80140200 <_DATA_LMA_START+0x6013c9b8>
     c4c:	00410513          	addi	a0,sp,4
     c50:	00e10813          	addi	a6,sp,14
     c54:	801406b7          	lui	a3,0x80140
     c58:	08900593          	li	a1,137
     c5c:	2006a783          	lw	a5,512(a3) # 80140200 <_DATA_LMA_START+0x6013c9b8>
     c60:	40c78733          	sub	a4,a5,a2
     c64:	fee5fce3          	bgeu	a1,a4,c5c <dr_putchar+0xb0>
     c68:	00054703          	lbu	a4,0(a0)
     c6c:	0505                	c.addi	a0,1
     c6e:	30e681a3          	sb	a4,771(a3)
     c72:	863e                	c.mv	a2,a5
     c74:	ff0514e3          	bne	a0,a6,c5c <dr_putchar+0xb0>
     c78:	40f2                	c.lwsp	ra,28(sp)
     c7a:	4462                	c.lwsp	s0,24(sp)
     c7c:	44d2                	c.lwsp	s1,20(sp)
     c7e:	4942                	c.lwsp	s2,16(sp)
     c80:	6105                	c.addi16sp	sp,32
     c82:	8082                	c.jr	ra
     c84:	80140937          	lui	s2,0x80140
     c88:	30690783          	lb	a5,774(s2) # 80140306 <_DATA_LMA_START+0x6013cabe>
     c8c:	4539                	c.li	a0,14
     c8e:	0ff7f793          	andi	a5,a5,255
     c92:	0017e793          	ori	a5,a5,1
     c96:	30f90323          	sb	a5,774(s2)
     c9a:	3e3d                	c.jal	7d8 <analog_read_reg8>
     c9c:	0fc57593          	andi	a1,a0,252
     ca0:	0015e593          	ori	a1,a1,1
     ca4:	4539                	c.li	a0,14
     ca6:	34fd                	c.jal	794 <analog_write_reg8>
     ca8:	30290783          	lb	a5,770(s2)
     cac:	0fe7f793          	andi	a5,a5,254
     cb0:	30f90123          	sb	a5,770(s2)
     cb4:	30390783          	lb	a5,771(s2)
     cb8:	0ff7f793          	andi	a5,a5,255
     cbc:	0017e793          	ori	a5,a5,1
     cc0:	30f901a3          	sb	a5,771(s2)
     cc4:	00048023          	sb	zero,0(s1)
     cc8:	efdff06f          	j	bc4 <dr_putchar+0x18>

00000ccc <pm_sleep_wakeup_ram.constprop.3>:
     ccc:	1101                	c.addi	sp,-32
     cce:	c452                	c.swsp	s4,8(sp)
     cd0:	8a2a                	c.mv	s4,a0
     cd2:	ce06                	c.swsp	ra,28(sp)
     cd4:	cc22                	c.swsp	s0,24(sp)
     cd6:	ca26                	c.swsp	s1,20(sp)
     cd8:	c84a                	c.swsp	s2,16(sp)
     cda:	c64e                	c.swsp	s3,12(sp)
     cdc:	c256                	c.swsp	s5,4(sp)
     cde:	c05a                	c.swsp	s6,0(sp)
     ce0:	300029f3          	csrr	s3,mstatus
     ce4:	0089f993          	andi	s3,s3,8
     ce8:	00098663          	beqz	s3,cf4 <pm_sleep_wakeup_ram.constprop.3+0x28>
     cec:	300477f3          	csrrci	a5,mstatus,8
     cf0:	0ff0000f          	fence
     cf4:	801407b7          	lui	a5,0x80140
     cf8:	2147a683          	lw	a3,532(a5) # 80140214 <_DATA_LMA_START+0x6013c9cc>
     cfc:	def5                	c.beqz	a3,cf8 <pm_sleep_wakeup_ram.constprop.3+0x2c>
     cfe:	00000437          	lui	s0,0x0
     d02:	15840693          	addi	a3,s0,344 # 158 <_AES_VMA_END>
     d06:	2147a783          	lw	a5,532(a5)
     d0a:	5298                	c.lw	a4,32(a3)
     d0c:	da9c                	c.sw	a5,48(a3)
     d0e:	15840413          	addi	s0,s0,344
     d12:	0792                	c.slli	a5,0x4
     d14:	cb11                	c.beqz	a4,d28 <pm_sleep_wakeup_ram.constprop.3+0x5c>
     d16:	03444603          	lbu	a2,52(s0)
     d1a:	4691                	c.li	a3,4
     d1c:	8f99                	c.sub	a5,a4
     d1e:	8e91                	c.sub	a3,a2
     d20:	40d7d7b3          	sra	a5,a5,a3
     d24:	00e787b3          	add	a5,a5,a4
     d28:	d01c                	c.sw	a5,32(s0)
     d2a:	5004                	c.lw	s1,32(s0)
     d2c:	485c                	c.lw	a5,20(s0)
     d2e:	8491                	c.srai	s1,0x4
     d30:	02f487b3          	mul	a5,s1,a5
     d34:	80140937          	lui	s2,0x80140
     d38:	20092a83          	lw	s5,512(s2) # 80140200 <_DATA_LMA_START+0x6013c9b8>
     d3c:	e0000737          	lui	a4,0xe0000
     d40:	415a0ab3          	sub	s5,s4,s5
     d44:	87c9                	c.srai	a5,0x12
     d46:	94be                	c.add	s1,a5
     d48:	0486                	c.slli	s1,0x1
     d4a:	dc04                	c.sw	s1,56(s0)
     d4c:	03577063          	bgeu	a4,s5,d6c <pm_sleep_wakeup_ram.constprop.3+0xa0>
     d50:	00098663          	beqz	s3,d5c <pm_sleep_wakeup_ram.constprop.3+0x90>
     d54:	3009a9f3          	csrrs	s3,mstatus,s3
     d58:	0ff0000f          	fence
     d5c:	06400513          	li	a0,100
     d60:	a79ff0ef          	jal	ra,7d8 <analog_read_reg8>
     d64:	01f57513          	andi	a0,a0,31
     d68:	25c0006f          	j	fc4 <pm_sleep_wakeup_ram.constprop.3+0x2f8>
     d6c:	04a41783          	lh	a5,74(s0)
     d70:	1137a7db          	bfoz	a5,a5,4,19
     d74:	02fafe63          	bgeu	s5,a5,db0 <pm_sleep_wakeup_ram.constprop.3+0xe4>
     d78:	45fd                	c.li	a1,31
     d7a:	06400513          	li	a0,100
     d7e:	801404b7          	lui	s1,0x80140
     d82:	20092403          	lw	s0,512(s2)
     d86:	3439                	c.jal	794 <analog_write_reg8>
     d88:	06400513          	li	a0,100
     d8c:	a4dff0ef          	jal	ra,7d8 <analog_read_reg8>
     d90:	2004a783          	lw	a5,512(s1) # 80140200 <_DATA_LMA_START+0x6013c9b8>
     d94:	897d                	c.andi	a0,31
     d96:	8f81                	c.sub	a5,s0
     d98:	0157f463          	bgeu	a5,s5,da0 <pm_sleep_wakeup_ram.constprop.3+0xd4>
     d9c:	fe0506e3          	beqz	a0,d88 <pm_sleep_wakeup_ram.constprop.3+0xbc>
     da0:	22098263          	beqz	s3,fc4 <pm_sleep_wakeup_ram.constprop.3+0x2f8>
     da4:	3009a9f3          	csrrs	s3,mstatus,s3
     da8:	0ff0000f          	fence
     dac:	2180006f          	j	fc4 <pm_sleep_wakeup_ram.constprop.3+0x2f8>
     db0:	1e890a83          	lb	s5,488(s2)
     db4:	00faf793          	andi	a5,s5,15
     db8:	1ef90423          	sb	a5,488(s2)
     dbc:	1d890b03          	lb	s6,472(s2)
     dc0:	0f8b7793          	andi	a5,s6,248
     dc4:	1cf90c23          	sb	a5,472(s2)
     dc8:	00100793          	li	a5,1
     dcc:	20f90c23          	sb	a5,536(s2)
     dd0:	20a90783          	lb	a5,522(s2)
     dd4:	0f77f793          	andi	a5,a5,247
     dd8:	20f90523          	sb	a5,522(s2)
     ddc:	d7cff0ef          	jal	ra,358 <clock_get_32k_tick>
     de0:	20092703          	lw	a4,512(s2)
     de4:	20b90783          	lb	a5,523(s2)
     de8:	5414                	c.lw	a3,40(s0)
     dea:	0ff7f793          	andi	a5,a5,255
     dee:	0027e793          	ori	a5,a5,2
     df2:	c468                	c.sw	a0,76(s0)
     df4:	c418                	c.sw	a4,8(s0)
     df6:	03444603          	lbu	a2,52(s0)
     dfa:	40d506b3          	sub	a3,a0,a3
     dfe:	20f905a3          	sb	a5,523(s2)
     e02:	d454                	c.sw	a3,44(s0)
     e04:	e215                	c.bnez	a2,e28 <pm_sleep_wakeup_ram.constprop.3+0x15c>
     e06:	445c                	c.lw	a5,12(s0)
     e08:	c385                	c.beqz	a5,e28 <pm_sleep_wakeup_ram.constprop.3+0x15c>
     e0a:	05044783          	lbu	a5,80(s0)
     e0e:	ef89                	c.bnez	a5,e28 <pm_sleep_wakeup_ram.constprop.3+0x15c>
     e10:	01042783          	lw	a5,16(s0)
     e14:	000276b7          	lui	a3,0x27
     e18:	40f507b3          	sub	a5,a0,a5
     e1c:	6c07a7db          	bfoz	a5,a5,27,0
     e20:	10068693          	addi	a3,a3,256 # 27100 <BIN_SIZE+0x214f7>
     e24:	00f6f863          	bgeu	a3,a5,e34 <pm_sleep_wakeup_ram.constprop.3+0x168>
     e28:	00176713          	ori	a4,a4,1
     e2c:	02040a23          	sb	zero,52(s0)
     e30:	c808                	c.sw	a0,16(s0)
     e32:	c458                	c.sw	a4,12(s0)
     e34:	02000593          	li	a1,32
     e38:	04b00513          	li	a0,75
     e3c:	959ff0ef          	jal	ra,794 <analog_write_reg8>
     e40:	45fd                	c.li	a1,31
     e42:	06400513          	li	a0,100
     e46:	32b9                	c.jal	794 <analog_write_reg8>
     e48:	03000593          	li	a1,48
     e4c:	07e00513          	li	a0,126
     e50:	945ff0ef          	jal	ra,794 <analog_write_reg8>
     e54:	0f900593          	li	a1,249
     e58:	04d00513          	li	a0,77
     e5c:	939ff0ef          	jal	ra,794 <analog_write_reg8>
     e60:	4585                	c.li	a1,1
     e62:	07f00513          	li	a0,127
     e66:	323d                	c.jal	794 <analog_write_reg8>
     e68:	04841783          	lh	a5,72(s0)
     e6c:	0ee00593          	li	a1,238
     e70:	1137a7db          	bfoz	a5,a5,4,19
     e74:	04c00513          	li	a0,76
     e78:	40fa0933          	sub	s2,s4,a5
     e7c:	919ff0ef          	jal	ra,794 <analog_write_reg8>
     e80:	05441583          	lh	a1,84(s0)
     e84:	04000513          	li	a0,64
     e88:	0ff5f593          	andi	a1,a1,255
     e8c:	909ff0ef          	jal	ra,794 <analog_write_reg8>
     e90:	445c                	c.lw	a5,12(s0)
     e92:	07ff0737          	lui	a4,0x7ff0
     e96:	40f907b3          	sub	a5,s2,a5
     e9a:	00f77763          	bgeu	a4,a5,ea8 <pm_sleep_wakeup_ram.constprop.3+0x1dc>
     e9e:	4705                	c.li	a4,1
     ea0:	00e40223          	sb	a4,4(s0)
     ea4:	0080006f          	j	eac <pm_sleep_wakeup_ram.constprop.3+0x1e0>
     ea8:	00040223          	sb	zero,4(s0)
     eac:	00444683          	lbu	a3,4(s0)
     eb0:	4808                	c.lw	a0,16(s0)
     eb2:	5c18                	c.lw	a4,56(s0)
     eb4:	c691                	c.beqz	a3,ec0 <pm_sleep_wakeup_ram.constprop.3+0x1f4>
     eb6:	02e7d7b3          	divu	a5,a5,a4
     eba:	0796                	c.slli	a5,0x5
     ebc:	953e                	c.add	a0,a5
     ebe:	a039                	c.j	ecc <pm_sleep_wakeup_ram.constprop.3+0x200>
     ec0:	8085                	c.srli	s1,0x1
     ec2:	0796                	c.slli	a5,0x5
     ec4:	97a6                	c.add	a5,s1
     ec6:	02e7d7b3          	divu	a5,a5,a4
     eca:	953e                	c.add	a0,a5
     ecc:	be0ff0ef          	jal	ra,2ac <clock_set_32k_tick>
     ed0:	06400513          	li	a0,100
     ed4:	905ff0ef          	jal	ra,7d8 <analog_read_reg8>
     ed8:	01f57513          	andi	a0,a0,31
     edc:	e901                	c.bnez	a0,eec <pm_sleep_wakeup_ram.constprop.3+0x220>
     ede:	3e2d                	c.jal	a18 <pm_sleep_start>
     ee0:	00100593          	li	a1,1
     ee4:	07f00513          	li	a0,127
     ee8:	8adff0ef          	jal	ra,794 <analog_write_reg8>
     eec:	80140737          	lui	a4,0x80140
     ef0:	02000793          	li	a5,32
     ef4:	1ef707a3          	sb	a5,495(a4) # 801401ef <_DATA_LMA_START+0x6013c9a7>
     ef8:	00200793          	li	a5,2
     efc:	20f70c23          	sb	a5,536(a4)
     f00:	20a70783          	lb	a5,522(a4)
     f04:	0ff7f793          	andi	a5,a5,255
     f08:	00c7e793          	ori	a5,a5,12
     f0c:	20f70523          	sb	a5,522(a4)
     f10:	c48ff0ef          	jal	ra,358 <clock_get_32k_tick>
     f14:	00444783          	lbu	a5,4(s0)
     f18:	cf81                	c.beqz	a5,f30 <pm_sleep_wakeup_ram.constprop.3+0x264>
     f1a:	481c                	c.lw	a5,16(s0)
     f1c:	5c14                	c.lw	a3,56(s0)
     f1e:	40f507b3          	sub	a5,a0,a5
     f22:	4458                	c.lw	a4,12(s0)
     f24:	0785                	c.addi	a5,1
     f26:	8395                	c.srli	a5,0x5
     f28:	c4d7977f          	maddr32	a4,a5,a3
     f2c:	c418                	c.sw	a4,8(s0)
     f2e:	a829                	c.j	f48 <pm_sleep_wakeup_ram.constprop.3+0x27c>
     f30:	481c                	c.lw	a5,16(s0)
     f32:	5c18                	c.lw	a4,56(s0)
     f34:	40f507b3          	sub	a5,a0,a5
     f38:	0785                	c.addi	a5,1
     f3a:	02e787b3          	mul	a5,a5,a4
     f3e:	4458                	c.lw	a4,12(s0)
     f40:	8395                	c.srli	a5,0x5
     f42:	97ba                	c.add	a5,a4
     f44:	00f42423          	sw	a5,8(s0)
     f48:	481c                	c.lw	a5,16(s0)
     f4a:	4414                	c.lw	a3,8(s0)
     f4c:	40f507b3          	sub	a5,a0,a5
     f50:	0785                	c.addi	a5,1
     f52:	0505                	c.addi	a0,1
     f54:	d05c                	c.sw	a5,36(s0)
     f56:	0685                	c.addi	a3,1
     f58:	02a42423          	sw	a0,40(s0)
     f5c:	801407b7          	lui	a5,0x80140
     f60:	80140737          	lui	a4,0x80140
     f64:	20d7a023          	sw	a3,512(a5) # 80140200 <_DATA_LMA_START+0x6013c9b8>
     f68:	20b70783          	lb	a5,523(a4) # 8014020b <_DATA_LMA_START+0x6013c9c3>
     f6c:	be77fe5b          	bbc	a5,7,f68 <pm_sleep_wakeup_ram.constprop.3+0x29c>
     f70:	20070c23          	sb	zero,536(a4)
     f74:	1d670c23          	sb	s6,472(a4)
     f78:	06400513          	li	a0,100
     f7c:	1f570423          	sb	s5,488(a4)
     f80:	859ff0ef          	jal	ra,7d8 <analog_read_reg8>
     f84:	3b92170b          	addigp	a4,7096 # 823b8 <g_pm_status_info>
     f88:	00a700a3          	sb	a0,1(a4)
     f8c:	3b92178b          	addigp	a5,7096 # 823b8 <g_pm_status_info>
     f90:	00157c5b          	bbc	a0,1,fa8 <pm_sleep_wakeup_ram.constprop.3+0x2dc>
     f94:	80140637          	lui	a2,0x80140
     f98:	400006b7          	lui	a3,0x40000
     f9c:	20062703          	lw	a4,512(a2) # 80140200 <_DATA_LMA_START+0x6013c9b8>
     fa0:	41470733          	sub	a4,a4,s4
     fa4:	fee6ece3          	bltu	a3,a4,f9c <pm_sleep_wakeup_ram.constprop.3+0x2d0>
     fa8:	00098663          	beqz	s3,fb4 <pm_sleep_wakeup_ram.constprop.3+0x2e8>
     fac:	3009a9f3          	csrrs	s3,mstatus,s3
     fb0:	0ff0000f          	fence
     fb4:	0017c783          	lbu	a5,1(a5)
     fb8:	10000513          	li	a0,256
     fbc:	c781                	c.beqz	a5,fc4 <pm_sleep_wakeup_ram.constprop.3+0x2f8>
     fbe:	40000537          	lui	a0,0x40000
     fc2:	8d5d                	c.or	a0,a5
     fc4:	40f2                	c.lwsp	ra,28(sp)
     fc6:	4462                	c.lwsp	s0,24(sp)
     fc8:	44d2                	c.lwsp	s1,20(sp)
     fca:	4942                	c.lwsp	s2,16(sp)
     fcc:	49b2                	c.lwsp	s3,12(sp)
     fce:	4a22                	c.lwsp	s4,8(sp)
     fd0:	4a92                	c.lwsp	s5,4(sp)
     fd2:	4b02                	c.lwsp	s6,0(sp)
     fd4:	6105                	c.addi16sp	sp,32
     fd6:	8082                	c.jr	ra

00000fd8 <trap_entry>:
     fd8:	1101                	c.addi	sp,-32
     fda:	ce2a                	c.swsp	a0,28(sp)
     fdc:	cc2e                	c.swsp	a1,24(sp)
     fde:	ca32                	c.swsp	a2,20(sp)
     fe0:	c836                	c.swsp	a3,16(sp)
     fe2:	c63a                	c.swsp	a4,12(sp)
     fe4:	c43e                	c.swsp	a5,8(sp)
     fe6:	34202773          	csrr	a4,mcause
     fea:	000007b7          	lui	a5,0x0
     fee:	15878793          	addi	a5,a5,344 # 158 <_AES_VMA_END>
     ff2:	03c78683          	lb	a3,60(a5)
     ff6:	0ff6f693          	andi	a3,a3,255
     ffa:	c2dd                	c.beqz	a3,10a0 <trap_entry+0xc8>
     ffc:	34102673          	csrr	a2,mepc
    1000:	300025f3          	csrr	a1,mstatus
    1004:	7c4026f3          	csrr	a3,mxstatus
    1008:	02074a63          	bltz	a4,103c <trap_entry+0x64>
    100c:	34302773          	csrr	a4,mtval
    1010:	3ae248ab          	swgp	a4,7088 # 823b0 <exception_mtval>
    1014:	34102773          	csrr	a4,mepc
    1018:	3ae244ab          	swgp	a4,7080 # 823a8 <exception_mepc>
    101c:	30002773          	csrr	a4,mstatus
    1020:	3ae246ab          	swgp	a4,7084 # 823ac <exception_mstatus>
    1024:	34202773          	csrr	a4,mcause
    1028:	3ae240ab          	swgp	a4,7072 # 823a0 <_BSS_VMA_START>
    102c:	7c902773          	csrr	a4,mdcause
    1030:	3ae242ab          	swgp	a4,7076 # 823a4 <exception_mdcause>
    1034:	0001                	c.nop
    1036:	0001                	c.nop
    1038:	ffdff06f          	j	1034 <trap_entry+0x5c>
    103c:	7807275b          	bfoz	a4,a4,30,0
    1040:	0677545b          	beqc	a4,7,10a8 <trap_entry+0xd0>
    1044:	bc37645b          	bnec	a4,3,100c <trap_entry+0x34>
    1048:	e6600737          	lui	a4,0xe6600
    104c:	4358                	c.lw	a4,4(a4)
    104e:	03c78703          	lb	a4,60(a5)
    1052:	0ff77713          	andi	a4,a4,255
    1056:	c319                	c.beqz	a4,105c <trap_entry+0x84>
    1058:	30046773          	csrrsi	a4,mstatus,8
    105c:	03c78703          	lb	a4,60(a5)
    1060:	0ff77713          	andi	a4,a4,255
    1064:	00070463          	beqz	a4,106c <trap_entry+0x94>
    1068:	30047773          	csrrci	a4,mstatus,8
    106c:	e6600737          	lui	a4,0xe6600
    1070:	4505                	c.li	a0,1
    1072:	c348                	c.sw	a0,4(a4)
    1074:	03c78783          	lb	a5,60(a5)
    1078:	0ff7f793          	andi	a5,a5,255
    107c:	00078863          	beqz	a5,108c <trap_entry+0xb4>
    1080:	30059073          	csrw	mstatus,a1
    1084:	34161073          	csrw	mepc,a2
    1088:	7c469073          	csrw	mxstatus,a3
    108c:	4572                	c.lwsp	a0,28(sp)
    108e:	45e2                	c.lwsp	a1,24(sp)
    1090:	4652                	c.lwsp	a2,20(sp)
    1092:	46c2                	c.lwsp	a3,16(sp)
    1094:	4732                	c.lwsp	a4,12(sp)
    1096:	47a2                	c.lwsp	a5,8(sp)
    1098:	02010113          	addi	sp,sp,32
    109c:	30200073          	mret
    10a0:	4681                	c.li	a3,0
    10a2:	4581                	c.li	a1,0
    10a4:	4601                	c.li	a2,0
    10a6:	b78d                	c.j	1008 <trap_entry+0x30>
    10a8:	03c78703          	lb	a4,60(a5)
    10ac:	0ff77713          	andi	a4,a4,255
    10b0:	00070863          	beqz	a4,10c0 <trap_entry+0xe8>
    10b4:	08000713          	li	a4,128
    10b8:	30473773          	csrrc	a4,mie,a4
    10bc:	30046773          	csrrsi	a4,mstatus,8
    10c0:	03c78703          	lb	a4,60(a5)
    10c4:	0ff77713          	andi	a4,a4,255
    10c8:	d755                	c.beqz	a4,1074 <trap_entry+0x9c>
    10ca:	30047773          	csrrci	a4,mstatus,8
    10ce:	08000713          	li	a4,128
    10d2:	30472773          	csrrs	a4,mie,a4
    10d6:	bf79                	c.j	1074 <trap_entry+0x9c>
    10d8:	0001                	c.nop
	...

00001100 <__vectors>:
    1100:	0fd8                	c.addi4spn	a4,sp,980
    1102:	0000                	unimp
    1104:	239c                	c.fld	fa5,0(a5)
    1106:	0000                	unimp
    1108:	239c                	c.fld	fa5,0(a5)
    110a:	0000                	unimp
    110c:	239c                	c.fld	fa5,0(a5)
    110e:	0000                	unimp
    1110:	239c                	c.fld	fa5,0(a5)
    1112:	0000                	unimp
    1114:	239c                	c.fld	fa5,0(a5)
    1116:	0000                	unimp
    1118:	239c                	c.fld	fa5,0(a5)
    111a:	0000                	unimp
    111c:	239c                	c.fld	fa5,0(a5)
    111e:	0000                	unimp
    1120:	239c                	c.fld	fa5,0(a5)
    1122:	0000                	unimp
    1124:	239c                	c.fld	fa5,0(a5)
    1126:	0000                	unimp
    1128:	239c                	c.fld	fa5,0(a5)
    112a:	0000                	unimp
    112c:	239c                	c.fld	fa5,0(a5)
    112e:	0000                	unimp
    1130:	239c                	c.fld	fa5,0(a5)
    1132:	0000                	unimp
    1134:	239c                	c.fld	fa5,0(a5)
    1136:	0000                	unimp
    1138:	239c                	c.fld	fa5,0(a5)
    113a:	0000                	unimp
    113c:	239c                	c.fld	fa5,0(a5)
    113e:	0000                	unimp
    1140:	239c                	c.fld	fa5,0(a5)
    1142:	0000                	unimp
    1144:	239c                	c.fld	fa5,0(a5)
    1146:	0000                	unimp
    1148:	239c                	c.fld	fa5,0(a5)
    114a:	0000                	unimp
    114c:	239c                	c.fld	fa5,0(a5)
    114e:	0000                	unimp
    1150:	239c                	c.fld	fa5,0(a5)
    1152:	0000                	unimp
    1154:	239c                	c.fld	fa5,0(a5)
    1156:	0000                	unimp
    1158:	239c                	c.fld	fa5,0(a5)
    115a:	0000                	unimp
    115c:	239c                	c.fld	fa5,0(a5)
    115e:	0000                	unimp
    1160:	239c                	c.fld	fa5,0(a5)
    1162:	0000                	unimp
    1164:	239c                	c.fld	fa5,0(a5)
    1166:	0000                	unimp
    1168:	239c                	c.fld	fa5,0(a5)
    116a:	0000                	unimp
    116c:	239c                	c.fld	fa5,0(a5)
    116e:	0000                	unimp
    1170:	239c                	c.fld	fa5,0(a5)
    1172:	0000                	unimp
    1174:	239c                	c.fld	fa5,0(a5)
    1176:	0000                	unimp
    1178:	239c                	c.fld	fa5,0(a5)
    117a:	0000                	unimp
    117c:	239c                	c.fld	fa5,0(a5)
    117e:	0000                	unimp
    1180:	239c                	c.fld	fa5,0(a5)
    1182:	0000                	unimp
    1184:	239c                	c.fld	fa5,0(a5)
    1186:	0000                	unimp
    1188:	239c                	c.fld	fa5,0(a5)
    118a:	0000                	unimp
    118c:	239c                	c.fld	fa5,0(a5)
    118e:	0000                	unimp
    1190:	239c                	c.fld	fa5,0(a5)
    1192:	0000                	unimp
    1194:	239c                	c.fld	fa5,0(a5)
    1196:	0000                	unimp
    1198:	239c                	c.fld	fa5,0(a5)
    119a:	0000                	unimp
    119c:	239c                	c.fld	fa5,0(a5)
    119e:	0000                	unimp
    11a0:	239c                	c.fld	fa5,0(a5)
    11a2:	0000                	unimp
    11a4:	239c                	c.fld	fa5,0(a5)
    11a6:	0000                	unimp
    11a8:	239c                	c.fld	fa5,0(a5)
    11aa:	0000                	unimp
    11ac:	239c                	c.fld	fa5,0(a5)
    11ae:	0000                	unimp
    11b0:	239c                	c.fld	fa5,0(a5)
    11b2:	0000                	unimp
    11b4:	239c                	c.fld	fa5,0(a5)
    11b6:	0000                	unimp
    11b8:	239c                	c.fld	fa5,0(a5)
    11ba:	0000                	unimp
    11bc:	239c                	c.fld	fa5,0(a5)
    11be:	0000                	unimp
    11c0:	239c                	c.fld	fa5,0(a5)
    11c2:	0000                	unimp
    11c4:	239c                	c.fld	fa5,0(a5)
    11c6:	0000                	unimp
    11c8:	239c                	c.fld	fa5,0(a5)
    11ca:	0000                	unimp
    11cc:	239c                	c.fld	fa5,0(a5)
    11ce:	0000                	unimp
    11d0:	239c                	c.fld	fa5,0(a5)
    11d2:	0000                	unimp
    11d4:	239c                	c.fld	fa5,0(a5)
    11d6:	0000                	unimp
    11d8:	239c                	c.fld	fa5,0(a5)
    11da:	0000                	unimp
    11dc:	239c                	c.fld	fa5,0(a5)
    11de:	0000                	unimp
    11e0:	239c                	c.fld	fa5,0(a5)
    11e2:	0000                	unimp
    11e4:	239c                	c.fld	fa5,0(a5)
    11e6:	0000                	unimp
    11e8:	239c                	c.fld	fa5,0(a5)
    11ea:	0000                	unimp
    11ec:	239c                	c.fld	fa5,0(a5)
    11ee:	0000                	unimp
    11f0:	239c                	c.fld	fa5,0(a5)
    11f2:	0000                	unimp
    11f4:	239c                	c.fld	fa5,0(a5)
    11f6:	0000                	unimp
    11f8:	239c                	c.fld	fa5,0(a5)
    11fa:	0000                	unimp
    11fc:	239c                	c.fld	fa5,0(a5)
    11fe:	0000                	unimp
    1200:	0001                	c.nop
	...

00001204 <flash_read_uid.constprop.6>:
    1204:	1141                	c.addi	sp,-16
    1206:	c606                	c.swsp	ra,12(sp)
    1208:	872a                	c.mv	a4,a0
    120a:	7d047073          	csrci	mmisc_ctl,8
    120e:	47c1                	c.li	a5,16
    1210:	4691                	c.li	a3,4
    1212:	4601                	c.li	a2,0
    1214:	00000593          	li	a1,0
    1218:	04b00513          	li	a0,75
    121c:	aacff0ef          	jal	ra,4c8 <flash_mspi_read_ram>
    1220:	7d046073          	csrsi	mmisc_ctl,8
    1224:	40b2                	c.lwsp	ra,12(sp)
    1226:	0141                	c.addi	sp,16
    1228:	00008067          	ret

0000122c <flash_read_mid>:
    122c:	1101                	c.addi	sp,-32
    122e:	ce06                	c.swsp	ra,28(sp)
    1230:	c602                	c.swsp	zero,12(sp)
    1232:	7d047073          	csrci	mmisc_ctl,8
    1236:	478d                	c.li	a5,3
    1238:	0078                	c.addi4spn	a4,sp,12
    123a:	4681                	c.li	a3,0
    123c:	4601                	c.li	a2,0
    123e:	4581                	c.li	a1,0
    1240:	09f00513          	li	a0,159
    1244:	a84ff0ef          	jal	ra,4c8 <flash_mspi_read_ram>
    1248:	7d046073          	csrsi	mmisc_ctl,8
    124c:	40f2                	c.lwsp	ra,28(sp)
    124e:	4532                	c.lwsp	a0,12(sp)
    1250:	6105                	c.addi16sp	sp,32
    1252:	8082                	c.jr	ra

00001254 <flash_read_mid_uid_with_check>:
    1254:	801f978b          	addigp	a5,-2048 # 80000 <_DATA_VMA_START>
    1258:	4798                	c.lw	a4,8(a5)
    125a:	4390                	c.lw	a2,0(a5)
    125c:	43d4                	c.lw	a3,4(a5)
    125e:	47dc                	c.lw	a5,12(a5)
    1260:	1101                	c.addi	sp,-32
    1262:	cc22                	c.swsp	s0,24(sp)
    1264:	ca26                	c.swsp	s1,20(sp)
    1266:	842a                	c.mv	s0,a0
    1268:	c43a                	c.swsp	a4,8(sp)
    126a:	c63e                	c.swsp	a5,12(sp)
    126c:	ce06                	c.swsp	ra,28(sp)
    126e:	84ae                	c.mv	s1,a1
    1270:	c032                	c.swsp	a2,0(sp)
    1272:	c236                	c.swsp	a3,4(sp)
    1274:	fb9ff0ef          	jal	ra,122c <flash_read_mid>
    1278:	77c1                	c.lui	a5,0xffff0
    127a:	17fd                	c.addi	a5,-1
    127c:	00146737          	lui	a4,0x146
    1280:	c008                	c.sw	a0,0(s0)
    1282:	8fe9                	c.and	a5,a0
    1284:	08570713          	addi	a4,a4,133 # 146085 <FLASH_SIZE+0x46085>
    1288:	02e78063          	beq	a5,a4,12a8 <flash_read_mid_uid_with_check+0x54>
    128c:	00166737          	lui	a4,0x166
    1290:	08570713          	addi	a4,a4,133 # 166085 <FLASH_SIZE+0x66085>
    1294:	4781                	c.li	a5,0
    1296:	00e50963          	beq	a0,a4,12a8 <flash_read_mid_uid_with_check+0x54>
    129a:	40f2                	c.lwsp	ra,28(sp)
    129c:	4462                	c.lwsp	s0,24(sp)
    129e:	44d2                	c.lwsp	s1,20(sp)
    12a0:	853e                	c.mv	a0,a5
    12a2:	6105                	c.addi16sp	sp,32
    12a4:	00008067          	ret
    12a8:	8526                	c.mv	a0,s1
    12aa:	3fa9                	c.jal	1204 <flash_read_uid.constprop.6>
    12ac:	0004c783          	lbu	a5,0(s1)
    12b0:	00014603          	lbu	a2,0(sp)
    12b4:	0014c683          	lbu	a3,1(s1)
    12b8:	00114703          	lbu	a4,1(sp)
    12bc:	8f91                	c.sub	a5,a2
    12be:	0017b793          	seqz	a5,a5
    12c2:	00e69363          	bne	a3,a4,12c8 <flash_read_mid_uid_with_check+0x74>
    12c6:	0785                	c.addi	a5,1
    12c8:	0024c683          	lbu	a3,2(s1)
    12cc:	00214703          	lbu	a4,2(sp)
    12d0:	00e69463          	bne	a3,a4,12d8 <flash_read_mid_uid_with_check+0x84>
    12d4:	00178793          	addi	a5,a5,1 # ffff0001 <_DATA_LMA_START+0xdffec7b9>
    12d8:	0034c683          	lbu	a3,3(s1)
    12dc:	00314703          	lbu	a4,3(sp)
    12e0:	00e69463          	bne	a3,a4,12e8 <flash_read_mid_uid_with_check+0x94>
    12e4:	00178793          	addi	a5,a5,1
    12e8:	0044c683          	lbu	a3,4(s1)
    12ec:	00414703          	lbu	a4,4(sp)
    12f0:	00e69463          	bne	a3,a4,12f8 <flash_read_mid_uid_with_check+0xa4>
    12f4:	00178793          	addi	a5,a5,1
    12f8:	0054c683          	lbu	a3,5(s1)
    12fc:	00514703          	lbu	a4,5(sp)
    1300:	00e69463          	bne	a3,a4,1308 <flash_read_mid_uid_with_check+0xb4>
    1304:	00178793          	addi	a5,a5,1
    1308:	0064c683          	lbu	a3,6(s1)
    130c:	00614703          	lbu	a4,6(sp)
    1310:	00e69463          	bne	a3,a4,1318 <flash_read_mid_uid_with_check+0xc4>
    1314:	00178793          	addi	a5,a5,1
    1318:	0074c683          	lbu	a3,7(s1)
    131c:	00714703          	lbu	a4,7(sp)
    1320:	00e69463          	bne	a3,a4,1328 <flash_read_mid_uid_with_check+0xd4>
    1324:	00178793          	addi	a5,a5,1
    1328:	0084c683          	lbu	a3,8(s1)
    132c:	00814703          	lbu	a4,8(sp)
    1330:	00e69463          	bne	a3,a4,1338 <flash_read_mid_uid_with_check+0xe4>
    1334:	00178793          	addi	a5,a5,1
    1338:	0094c683          	lbu	a3,9(s1)
    133c:	00914703          	lbu	a4,9(sp)
    1340:	00e69463          	bne	a3,a4,1348 <flash_read_mid_uid_with_check+0xf4>
    1344:	00178793          	addi	a5,a5,1
    1348:	00a4c683          	lbu	a3,10(s1)
    134c:	00a14703          	lbu	a4,10(sp)
    1350:	00e69463          	bne	a3,a4,1358 <flash_read_mid_uid_with_check+0x104>
    1354:	00178793          	addi	a5,a5,1
    1358:	00b4c683          	lbu	a3,11(s1)
    135c:	00b14703          	lbu	a4,11(sp)
    1360:	00e69463          	bne	a3,a4,1368 <flash_read_mid_uid_with_check+0x114>
    1364:	00178793          	addi	a5,a5,1
    1368:	00c4c683          	lbu	a3,12(s1)
    136c:	00c14703          	lbu	a4,12(sp)
    1370:	00e69463          	bne	a3,a4,1378 <flash_read_mid_uid_with_check+0x124>
    1374:	00178793          	addi	a5,a5,1
    1378:	00d4c683          	lbu	a3,13(s1)
    137c:	00d14703          	lbu	a4,13(sp)
    1380:	00e69463          	bne	a3,a4,1388 <flash_read_mid_uid_with_check+0x134>
    1384:	00178793          	addi	a5,a5,1
    1388:	00e4c683          	lbu	a3,14(s1)
    138c:	00e14703          	lbu	a4,14(sp)
    1390:	00e69463          	bne	a3,a4,1398 <flash_read_mid_uid_with_check+0x144>
    1394:	00178793          	addi	a5,a5,1
    1398:	00f14683          	lbu	a3,15(sp)
    139c:	00f4c703          	lbu	a4,15(s1)
    13a0:	00e69463          	bne	a3,a4,13a8 <flash_read_mid_uid_with_check+0x154>
    13a4:	00178793          	addi	a5,a5,1
    13a8:	40f2                	c.lwsp	ra,28(sp)
    13aa:	4462                	c.lwsp	s0,24(sp)
    13ac:	17c1                	c.addi	a5,-16
    13ae:	00f037b3          	snez	a5,a5
    13b2:	44d2                	c.lwsp	s1,20(sp)
    13b4:	853e                	c.mv	a0,a5
    13b6:	6105                	c.addi16sp	sp,32
    13b8:	00008067          	ret

000013bc <flash_dread>:
    13bc:	1141                	c.addi	sp,-16
    13be:	c606                	c.swsp	ra,12(sp)
    13c0:	87b2                	c.mv	a5,a2
    13c2:	7d047073          	csrci	mmisc_ctl,8
    13c6:	862e                	c.mv	a2,a1
    13c8:	00f005b3          	add	a1,zero,a5
    13cc:	a7cff0ef          	jal	ra,648 <flash_mspi_read_ram.constprop.7>
    13d0:	7d046073          	csrsi	mmisc_ctl,8
    13d4:	40b2                	c.lwsp	ra,12(sp)
    13d6:	0141                	c.addi	sp,16
    13d8:	00008067          	ret

000013dc <clock_init.constprop.10>:
    13dc:	1141                	c.addi	sp,-16
    13de:	c606                	c.swsp	ra,12(sp)
    13e0:	7d047073          	csrci	mmisc_ctl,8
    13e4:	c40ff0ef          	jal	ra,824 <clock_init_ram.constprop.11>
    13e8:	7d046073          	csrsi	mmisc_ctl,8
    13ec:	40b2                	c.lwsp	ra,12(sp)
    13ee:	0141                	c.addi	sp,16
    13f0:	00008067          	ret

000013f4 <pm_sleep_wakeup.constprop.2>:
    13f4:	1141                	c.addi	sp,-16
    13f6:	c606                	c.swsp	ra,12(sp)
    13f8:	7d047073          	csrci	mmisc_ctl,8
    13fc:	8d1ff0ef          	jal	ra,ccc <pm_sleep_wakeup_ram.constprop.3>
    1400:	7d046073          	csrsi	mmisc_ctl,8
    1404:	40b2                	c.lwsp	ra,12(sp)
    1406:	0141                	c.addi	sp,16
    1408:	8082                	c.jr	ra
    140a:	0001                	c.nop

0000140c <user_calib_adc_vref.constprop.9>:
    140c:	1101                	c.addi	sp,-32
    140e:	ce06                	c.swsp	ra,28(sp)
    1410:	c402                	c.swsp	zero,8(sp)
    1412:	00011623          	sh	zero,12(sp)
    1416:	00010723          	sb	zero,14(sp)
    141a:	c54d                	c.beqz	a0,14c4 <user_calib_adc_vref.constprop.9+0xb8>
    141c:	000007b7          	lui	a5,0x0
    1420:	1587a783          	lw	a5,344(a5) # 158 <_AES_VMA_END>
    1424:	0030                	c.addi4spn	a2,sp,8
    1426:	459d                	c.li	a1,7
    1428:	9782                	c.jalr	a5
    142a:	00c14783          	lbu	a5,12(sp)
    142e:	1c07b75b          	bfos	a4,a5,7,0
    1432:	04074163          	bltz	a4,1474 <user_calib_adc_vref.constprop.9+0x68>
    1436:	00e14703          	lbu	a4,14(sp)
    143a:	00d14603          	lbu	a2,13(sp)
    143e:	0722                	c.slli	a4,0x8
    1440:	66c1                	c.lui	a3,0x10
    1442:	00c705b3          	add	a1,a4,a2
    1446:	16fd                	c.addi	a3,-1
    1448:	02d58663          	beq	a1,a3,1474 <user_calib_adc_vref.constprop.9+0x68>
    144c:	fd060613          	addi	a2,a2,-48
    1450:	9732                	c.add	a4,a2
    1452:	3c07275b          	bfoz	a4,a4,15,0
    1456:	0fb00693          	li	a3,251
    145a:	08e6e563          	bltu	a3,a4,14e4 <user_calib_adc_vref.constprop.9+0xd8>
    145e:	17b1                	c.addi	a5,-20
    1460:	1c07b7db          	bfos	a5,a5,7,0
    1464:	5731                	c.li	a4,-20
    1466:	06e78f63          	beq	a5,a4,14e4 <user_calib_adc_vref.constprop.9+0xd8>
    146a:	f9578513          	addi	a0,a5,-107
    146e:	00a03533          	snez	a0,a0
    1472:	a89d                	c.j	14e8 <user_calib_adc_vref.constprop.9+0xdc>
    1474:	801407b7          	lui	a5,0x80140
    1478:	06500713          	li	a4,101
    147c:	1ee78a23          	sb	a4,500(a5) # 801401f4 <_DATA_LMA_START+0x6013c9ac>
    1480:	1c87a703          	lw	a4,456(a5)
    1484:	1e078a23          	sb	zero,500(a5)
    1488:	4c47275b          	bfoz	a4,a4,19,4
    148c:	380727db          	bfoz	a5,a4,14,0
    1490:	06078063          	beqz	a5,14f0 <user_calib_adc_vref.constprop.9+0xe4>
    1494:	1ff77713          	andi	a4,a4,511
    1498:	f9b70713          	addi	a4,a4,-101
    149c:	3c07275b          	bfoz	a4,a4,15,0
    14a0:	0c600693          	li	a3,198
    14a4:	04e6e063          	bltu	a3,a4,14e4 <user_calib_adc_vref.constprop.9+0xd8>
    14a8:	0097d513          	srli	a0,a5,0x9
    14ac:	1531                	c.addi	a0,-20
    14ae:	1c05355b          	bfos	a0,a0,7,0
    14b2:	57b1                	c.li	a5,-20
    14b4:	02f50863          	beq	a0,a5,14e4 <user_calib_adc_vref.constprop.9+0xd8>
    14b8:	fd550513          	addi	a0,a0,-43 # 3fffffd5 <_DATA_LMA_START+0x1fffc78d>
    14bc:	00a03533          	snez	a0,a0
    14c0:	0280006f          	j	14e8 <user_calib_adc_vref.constprop.9+0xdc>
    14c4:	801407b7          	lui	a5,0x80140
    14c8:	06500713          	li	a4,101
    14cc:	1ee78a23          	sb	a4,500(a5) # 801401f4 <_DATA_LMA_START+0x6013c9ac>
    14d0:	1c87a703          	lw	a4,456(a5)
    14d4:	1e078a23          	sb	zero,500(a5)
    14d8:	4c47275b          	bfoz	a4,a4,19,4
    14dc:	380727db          	bfoz	a5,a4,14,0
    14e0:	fa079ae3          	bnez	a5,1494 <user_calib_adc_vref.constprop.9+0x88>
    14e4:	00000513          	li	a0,0
    14e8:	40f2                	c.lwsp	ra,28(sp)
    14ea:	6105                	c.addi16sp	sp,32
    14ec:	00008067          	ret
    14f0:	00814503          	lbu	a0,8(sp)
    14f4:	00914783          	lbu	a5,9(sp)
    14f8:	953e                	c.add	a0,a5
    14fa:	f8050513          	addi	a0,a0,-128
    14fe:	3c05255b          	bfoz	a0,a0,15,0
    1502:	0fc53513          	sltiu	a0,a0,252
    1506:	b7cd                	c.j	14e8 <user_calib_adc_vref.constprop.9+0xdc>

00001508 <user_calib_freq_offset.constprop.8>:
    1508:	000007b7          	lui	a5,0x0
    150c:	1101                	c.addi	sp,-32
    150e:	1587a783          	lw	a5,344(a5) # 158 <_AES_VMA_END>
    1512:	577d                	c.li	a4,-1
    1514:	00f10613          	addi	a2,sp,15
    1518:	4585                	c.li	a1,1
    151a:	cc22                	c.swsp	s0,24(sp)
    151c:	ce06                	c.swsp	ra,28(sp)
    151e:	00e107a3          	sb	a4,15(sp)
    1522:	9782                	c.jalr	a5
    1524:	00f14403          	lbu	s0,15(sp)
    1528:	0ff00793          	li	a5,255
    152c:	00000513          	li	a0,0
    1530:	02f40263          	beq	s0,a5,1554 <user_calib_freq_offset.constprop.8+0x4c>
    1534:	08a00513          	li	a0,138
    1538:	aa0ff0ef          	jal	ra,7d8 <analog_read_reg8>
    153c:	03f47413          	andi	s0,s0,63
    1540:	04057593          	andi	a1,a0,64
    1544:	0085e5b3          	or	a1,a1,s0
    1548:	08a00513          	li	a0,138
    154c:	a48ff0ef          	jal	ra,794 <analog_write_reg8>
    1550:	00100513          	li	a0,1
    1554:	40f2                	c.lwsp	ra,28(sp)
    1556:	4462                	c.lwsp	s0,24(sp)
    1558:	6105                	c.addi16sp	sp,32
    155a:	8082                	c.jr	ra
    155c:	0001                	c.nop
	...

00001560 <gpio_input_dis>:
    1560:	801407b7          	lui	a5,0x80140
    1564:	30978703          	lb	a4,777(a5) # 80140309 <_DATA_LMA_START+0x6013cac1>
    1568:	fff54513          	not	a0,a0
    156c:	8d79                	c.and	a0,a4
    156e:	0ff57513          	andi	a0,a0,255
    1572:	30a784a3          	sb	a0,777(a5)
    1576:	8082                	c.jr	ra
    1578:	0001                	c.nop
	...

0000157c <validate>:
    157c:	1101                	c.addi	sp,-32
    157e:	cc22                	c.swsp	s0,24(sp)
    1580:	ca26                	c.swsp	s1,20(sp)
    1582:	c84a                	c.swsp	s2,16(sp)
    1584:	c64e                	c.swsp	s3,12(sp)
    1586:	c452                	c.swsp	s4,8(sp)
    1588:	c256                	c.swsp	s5,4(sp)
    158a:	c05a                	c.swsp	s6,0(sp)
    158c:	89b2                	c.mv	s3,a2
    158e:	892a                	c.mv	s2,a0
    1590:	84ae                	c.mv	s1,a1
    1592:	4401                	c.li	s0,0
    1594:	4a01                	c.li	s4,0
    1596:	4b05                	c.li	s6,1
    1598:	00082ab7          	lui	s5,0x82
    159c:	00112e23          	sw	ra,28(sp)
    15a0:	00090703          	lb	a4,0(s2)
    15a4:	00048783          	lb	a5,0(s1)
    15a8:	85a2                	c.mv	a1,s0
    15aa:	86be                	c.mv	a3,a5
    15ac:	0405                	c.addi	s0,1
    15ae:	863a                	c.mv	a2,a4
    15b0:	33ca8513          	addi	a0,s5,828 # 8233c <avgpooling_output+0x474>
    15b4:	00f70663          	beq	a4,a5,15c0 <validate+0x44>
    15b8:	0a05                	c.addi	s4,1
    15ba:	4b01                	c.li	s6,0
    15bc:	426010ef          	jal	ra,29e2 <printf>
    15c0:	0905                	c.addi	s2,1
    15c2:	0485                	c.addi	s1,1
    15c4:	fc899ee3          	bne	s3,s0,15a0 <validate+0x24>
    15c8:	000b1a63          	bnez	s6,15dc <validate+0x60>
    15cc:	00082537          	lui	a0,0x82
    15d0:	864e                	c.mv	a2,s3
    15d2:	85d2                	c.mv	a1,s4
    15d4:	36050513          	addi	a0,a0,864 # 82360 <avgpooling_output+0x498>
    15d8:	40a010ef          	jal	ra,29e2 <printf>
    15dc:	40f2                	c.lwsp	ra,28(sp)
    15de:	4462                	c.lwsp	s0,24(sp)
    15e0:	855a                	c.mv	a0,s6
    15e2:	44d2                	c.lwsp	s1,20(sp)
    15e4:	4942                	c.lwsp	s2,16(sp)
    15e6:	49b2                	c.lwsp	s3,12(sp)
    15e8:	4a22                	c.lwsp	s4,8(sp)
    15ea:	4a92                	c.lwsp	s5,4(sp)
    15ec:	4b02                	c.lwsp	s6,0(sp)
    15ee:	6105                	c.addi16sp	sp,32
    15f0:	8082                	c.jr	ra
	...

000015f4 <validate_s16>:
    15f4:	1101                	c.addi	sp,-32
    15f6:	cc22                	c.swsp	s0,24(sp)
    15f8:	ca26                	c.swsp	s1,20(sp)
    15fa:	c84a                	c.swsp	s2,16(sp)
    15fc:	c64e                	c.swsp	s3,12(sp)
    15fe:	c452                	c.swsp	s4,8(sp)
    1600:	c256                	c.swsp	s5,4(sp)
    1602:	c05a                	c.swsp	s6,0(sp)
    1604:	89b2                	c.mv	s3,a2
    1606:	892a                	c.mv	s2,a0
    1608:	84ae                	c.mv	s1,a1
    160a:	4401                	c.li	s0,0
    160c:	4a01                	c.li	s4,0
    160e:	4b05                	c.li	s6,1
    1610:	00082ab7          	lui	s5,0x82
    1614:	00112e23          	sw	ra,28(sp)
    1618:	00091703          	lh	a4,0(s2)
    161c:	00049783          	lh	a5,0(s1)
    1620:	85a2                	c.mv	a1,s0
    1622:	86be                	c.mv	a3,a5
    1624:	0405                	c.addi	s0,1
    1626:	863a                	c.mv	a2,a4
    1628:	33ca8513          	addi	a0,s5,828 # 8233c <avgpooling_output+0x474>
    162c:	00f70663          	beq	a4,a5,1638 <validate_s16+0x44>
    1630:	0a05                	c.addi	s4,1
    1632:	4b01                	c.li	s6,0
    1634:	3ae010ef          	jal	ra,29e2 <printf>
    1638:	0909                	c.addi	s2,2
    163a:	0489                	c.addi	s1,2
    163c:	fc899ee3          	bne	s3,s0,1618 <validate_s16+0x24>
    1640:	000b1a63          	bnez	s6,1654 <validate_s16+0x60>
    1644:	00082537          	lui	a0,0x82
    1648:	864e                	c.mv	a2,s3
    164a:	85d2                	c.mv	a1,s4
    164c:	36050513          	addi	a0,a0,864 # 82360 <avgpooling_output+0x498>
    1650:	392010ef          	jal	ra,29e2 <printf>
    1654:	40f2                	c.lwsp	ra,28(sp)
    1656:	4462                	c.lwsp	s0,24(sp)
    1658:	855a                	c.mv	a0,s6
    165a:	44d2                	c.lwsp	s1,20(sp)
    165c:	4942                	c.lwsp	s2,16(sp)
    165e:	49b2                	c.lwsp	s3,12(sp)
    1660:	4a22                	c.lwsp	s4,8(sp)
    1662:	4a92                	c.lwsp	s5,4(sp)
    1664:	4b02                	c.lwsp	s6,0(sp)
    1666:	6105                	c.addi16sp	sp,32
    1668:	8082                	c.jr	ra
	...

0000166c <avgpooling_riscv_avgpool_s8>:
    166c:	7169                	c.addi16sp	sp,-304
    166e:	0b400613          	li	a2,180
    1672:	4581                	c.li	a1,0
    1674:	05c10513          	addi	a0,sp,92
    1678:	12112623          	sw	ra,300(sp)
    167c:	12812423          	sw	s0,296(sp)
    1680:	12912223          	sw	s1,292(sp)
    1684:	13212023          	sw	s2,288(sp)
    1688:	11312e23          	sw	s3,284(sp)
    168c:	16e010ef          	jal	ra,27fa <memset>
    1690:	4785                	c.li	a5,1
    1692:	da3e                	c.swsp	a5,52(sp)
    1694:	c6be                	c.swsp	a5,76(sp)
    1696:	c8be                	c.swsp	a5,80(sp)
    1698:	4859                	c.li	a6,22
    169a:	47a5                	c.li	a5,9
    169c:	de42                	c.swsp	a6,60(sp)
    169e:	c2be                	c.swsp	a5,68(sp)
    16a0:	4831                	c.li	a6,12
    16a2:	f8000793          	li	a5,-128
    16a6:	46d1                	c.li	a3,20
    16a8:	4715                	c.li	a4,5
    16aa:	460d                	c.li	a2,3
    16ac:	45d1                	c.li	a1,20
    16ae:	dc42                	c.swsp	a6,56(sp)
    16b0:	cabe                	c.swsp	a5,84(sp)
    16b2:	4819                	c.li	a6,6
    16b4:	07f00793          	li	a5,127
    16b8:	450d                	c.li	a0,3
    16ba:	ccbe                	c.swsp	a5,88(sp)
    16bc:	c0b6                	c.swsp	a3,64(sp)
    16be:	d642                	c.swsp	a6,44(sp)
    16c0:	d43a                	c.swsp	a4,40(sp)
    16c2:	ce32                	c.swsp	a2,28(sp)
    16c4:	cc32                	c.swsp	a2,24(sp)
    16c6:	d036                	c.swsp	a3,32(sp)
    16c8:	04e12423          	sw	a4,72(sp)
    16cc:	4e1000ef          	jal	ra,23ac <riscv_avgpool_s8_get_buffer_size>
    16d0:	00a12823          	sw	a0,16(sp)
    16d4:	106010ef          	jal	ra,27da <malloc>
    16d8:	3bd2140b          	addigp	s0,7100 # 823bc <stack_limit>
    16dc:	001d978b          	addigp	a5,124928 # 9f000 <_end+0x1cbf8>
    16e0:	c62a                	c.swsp	a0,12(sp)
    16e2:	c01c                	c.sw	a5,0(s0)
    16e4:	b0005073          	csrwi	mcycle,0
    16e8:	870a                	c.mv	a4,sp
    16ea:	00e7fd63          	bgeu	a5,a4,1704 <avgpooling_riscv_avgpool_s8+0x98>
    16ee:	00178693          	addi	a3,a5,1
    16f2:	4611                	c.li	a2,4
    16f4:	0ad77663          	bgeu	a4,a3,17a0 <avgpooling_riscv_avgpool_s8+0x134>
    16f8:	0aa00593          	li	a1,170
    16fc:	00f00533          	add	a0,zero,a5
    1700:	0fa010ef          	jal	ra,27fa <memset>
    1704:	b0002973          	csrr	s2,mcycle
    1708:	05c10813          	addi	a6,sp,92
    170c:	085c                	c.addi4spn	a5,sp,20
    170e:	1058                	c.addi4spn	a4,sp,36
    1710:	911f968b          	addigp	a3,-1776 # 80110 <avgpooling_input_tensor>
    1714:	1850                	c.addi4spn	a2,sp,52
    1716:	00cc                	c.addi4spn	a1,sp,68
    1718:	00c10513          	addi	a0,sp,12
    171c:	499000ef          	jal	ra,23b4 <riscv_avgpool_s8>
    1720:	b00029f3          	csrr	s3,mcycle
    1724:	848a                	c.mv	s1,sp
    1726:	4000                	c.lw	s0,0(s0)
    1728:	02947263          	bgeu	s0,s1,174c <avgpooling_riscv_avgpool_s8+0xe0>
    172c:	aaaab7b7          	lui	a5,0xaaaab
    1730:	4018                	c.lw	a4,0(s0)
    1732:	aaa78793          	addi	a5,a5,-1366 # aaaaaaaa <_DATA_LMA_START+0x8aaa7262>
    1736:	00f70763          	beq	a4,a5,1744 <avgpooling_riscv_avgpool_s8+0xd8>
    173a:	a809                	c.j	174c <avgpooling_riscv_avgpool_s8+0xe0>
    173c:	00042783          	lw	a5,0(s0)
    1740:	00e79663          	bne	a5,a4,174c <avgpooling_riscv_avgpool_s8+0xe0>
    1744:	00440413          	addi	s0,s0,4
    1748:	fe946ae3          	bltu	s0,s1,173c <avgpooling_riscv_avgpool_s8+0xd0>
    174c:	4532                	c.lwsp	a0,12(sp)
    174e:	c909                	c.beqz	a0,1760 <avgpooling_riscv_avgpool_s8+0xf4>
    1750:	4642                	c.lwsp	a2,16(sp)
    1752:	4581                	c.li	a1,0
    1754:	0a6010ef          	jal	ra,27fa <memset>
    1758:	00c12503          	lw	a0,12(sp)
    175c:	08e010ef          	jal	ra,27ea <free>
    1760:	00082537          	lui	a0,0x82
    1764:	0c850513          	addi	a0,a0,200 # 820c8 <avgpooling_output+0x200>
    1768:	27a010ef          	jal	ra,29e2 <printf>
    176c:	0b400613          	li	a2,180
    1770:	6c82158b          	addigp	a1,5832 # 81ec8 <avgpooling_output>
    1774:	08e8                	c.addi4spn	a0,sp,92
    1776:	3519                	c.jal	157c <validate>
    1778:	02051a63          	bnez	a0,17ac <avgpooling_riscv_avgpool_s8+0x140>
    177c:	00082537          	lui	a0,0x82
    1780:	00050513          	mv	a0,a0
    1784:	25e010ef          	jal	ra,29e2 <printf>
    1788:	12c12083          	lw	ra,300(sp)
    178c:	12812403          	lw	s0,296(sp)
    1790:	12412483          	lw	s1,292(sp)
    1794:	12012903          	lw	s2,288(sp)
    1798:	11c12983          	lw	s3,284(sp)
    179c:	6155                	c.addi16sp	sp,304
    179e:	8082                	c.jr	ra
    17a0:	fff7c613          	not	a2,a5
    17a4:	963a                	c.add	a2,a4
    17a6:	9a71                	c.andi	a2,-4
    17a8:	0611                	c.addi	a2,4
    17aa:	b7b9                	c.j	16f8 <avgpooling_riscv_avgpool_s8+0x8c>
    17ac:	00082537          	lui	a0,0x82
    17b0:	f7c50513          	addi	a0,a0,-132 # 81f7c <avgpooling_output+0xb4>
    17b4:	22e010ef          	jal	ra,29e2 <printf>
    17b8:	00082537          	lui	a0,0x82
    17bc:	408485b3          	sub	a1,s1,s0
    17c0:	fa850513          	addi	a0,a0,-88 # 81fa8 <avgpooling_output+0xe0>
    17c4:	21e010ef          	jal	ra,29e2 <printf>
    17c8:	00082537          	lui	a0,0x82
    17cc:	412985b3          	sub	a1,s3,s2
    17d0:	fd850513          	addi	a0,a0,-40 # 81fd8 <avgpooling_output+0x110>
    17d4:	20e010ef          	jal	ra,29e2 <printf>
    17d8:	bf45                	c.j	1788 <avgpooling_riscv_avgpool_s8+0x11c>
    17da:	0001                	c.nop

000017dc <avgpooling_int16_2_riscv_avgpool_s16>:
    17dc:	7129                	c.addi16sp	sp,-320
    17de:	0c800613          	li	a2,200
    17e2:	4581                	c.li	a1,0
    17e4:	05810513          	addi	a0,sp,88
    17e8:	12112e23          	sw	ra,316(sp)
    17ec:	12812c23          	sw	s0,312(sp)
    17f0:	12912a23          	sw	s1,308(sp)
    17f4:	13212823          	sw	s2,304(sp)
    17f8:	13312623          	sw	s3,300(sp)
    17fc:	7ff000ef          	jal	ra,27fa <memset>
    1800:	4785                	c.li	a5,1
    1802:	d83e                	c.swsp	a5,48(sp)
    1804:	da3e                	c.swsp	a5,52(sp)
    1806:	d43e                	c.swsp	a5,40(sp)
    1808:	d23e                	c.swsp	a5,36(sp)
    180a:	ca3e                	c.swsp	a5,20(sp)
    180c:	c2be                	c.swsp	a5,68(sp)
    180e:	77e1                	c.lui	a5,0xffff8
    1810:	4751                	c.li	a4,20
    1812:	c8be                	c.swsp	a5,80(sp)
    1814:	46a5                	c.li	a3,9
    1816:	67a1                	c.lui	a5,0x8
    1818:	17fd                	c.addi	a5,-1
    181a:	45d1                	c.li	a1,20
    181c:	dc36                	c.swsp	a3,56(sp)
    181e:	de3a                	c.swsp	a4,60(sp)
    1820:	4695                	c.li	a3,5
    1822:	ce3a                	c.swsp	a4,28(sp)
    1824:	4515                	c.li	a0,5
    1826:	4709                	c.li	a4,2
    1828:	cabe                	c.swsp	a5,84(sp)
    182a:	cc36                	c.swsp	a3,24(sp)
    182c:	c0ba                	c.swsp	a4,64(sp)
    182e:	c482                	c.swsp	zero,72(sp)
    1830:	04012623          	sw	zero,76(sp)
    1834:	371000ef          	jal	ra,23a4 <riscv_avgpool_s16_get_buffer_size>
    1838:	00a12623          	sw	a0,12(sp)
    183c:	79f000ef          	jal	ra,27da <malloc>
    1840:	3bd2140b          	addigp	s0,7100 # 823bc <stack_limit>
    1844:	001d978b          	addigp	a5,124928 # 9f000 <_end+0x1cbf8>
    1848:	c42a                	c.swsp	a0,8(sp)
    184a:	c01c                	c.sw	a5,0(s0)
    184c:	b0005073          	csrwi	mcycle,0
    1850:	870a                	c.mv	a4,sp
    1852:	00e7fd63          	bgeu	a5,a4,186c <avgpooling_int16_2_riscv_avgpool_s16+0x90>
    1856:	00178693          	addi	a3,a5,1 # 8001 <BIN_SIZE+0x23f8>
    185a:	4611                	c.li	a2,4
    185c:	0ad77663          	bgeu	a4,a3,1908 <avgpooling_int16_2_riscv_avgpool_s16+0x12c>
    1860:	0aa00593          	li	a1,170
    1864:	00f00533          	add	a0,zero,a5
    1868:	793000ef          	jal	ra,27fa <memset>
    186c:	b0002973          	csrr	s2,mcycle
    1870:	05810813          	addi	a6,sp,88
    1874:	081c                	c.addi4spn	a5,sp,16
    1876:	1018                	c.addi4spn	a4,sp,32
    1878:	6590168b          	addigp	a3,3672 # 81658 <avgpooling_int16_2_input_tensor>
    187c:	1810                	c.addi4spn	a2,sp,48
    187e:	008c                	c.addi4spn	a1,sp,64
    1880:	00810513          	addi	a0,sp,8
    1884:	52d000ef          	jal	ra,25b0 <riscv_avgpool_s16>
    1888:	b00029f3          	csrr	s3,mcycle
    188c:	848a                	c.mv	s1,sp
    188e:	4000                	c.lw	s0,0(s0)
    1890:	02947263          	bgeu	s0,s1,18b4 <avgpooling_int16_2_riscv_avgpool_s16+0xd8>
    1894:	aaaab7b7          	lui	a5,0xaaaab
    1898:	4018                	c.lw	a4,0(s0)
    189a:	aaa78793          	addi	a5,a5,-1366 # aaaaaaaa <_DATA_LMA_START+0x8aaa7262>
    189e:	00f70763          	beq	a4,a5,18ac <avgpooling_int16_2_riscv_avgpool_s16+0xd0>
    18a2:	a809                	c.j	18b4 <avgpooling_int16_2_riscv_avgpool_s16+0xd8>
    18a4:	00042783          	lw	a5,0(s0)
    18a8:	00e79663          	bne	a5,a4,18b4 <avgpooling_int16_2_riscv_avgpool_s16+0xd8>
    18ac:	00440413          	addi	s0,s0,4
    18b0:	fe946ae3          	bltu	s0,s1,18a4 <avgpooling_int16_2_riscv_avgpool_s16+0xc8>
    18b4:	4522                	c.lwsp	a0,8(sp)
    18b6:	c909                	c.beqz	a0,18c8 <avgpooling_int16_2_riscv_avgpool_s16+0xec>
    18b8:	4632                	c.lwsp	a2,12(sp)
    18ba:	4581                	c.li	a1,0
    18bc:	73f000ef          	jal	ra,27fa <memset>
    18c0:	00812503          	lw	a0,8(sp)
    18c4:	727000ef          	jal	ra,27ea <free>
    18c8:	00082537          	lui	a0,0x82
    18cc:	0c850513          	addi	a0,a0,200 # 820c8 <avgpooling_output+0x200>
    18d0:	112010ef          	jal	ra,29e2 <printf>
    18d4:	06400613          	li	a2,100
    18d8:	7c10158b          	addigp	a1,4032 # 817c0 <avgpooling_int16_2_output>
    18dc:	08a8                	c.addi4spn	a0,sp,88
    18de:	3b19                	c.jal	15f4 <validate_s16>
    18e0:	02051a63          	bnez	a0,1914 <avgpooling_int16_2_riscv_avgpool_s16+0x138>
    18e4:	00082537          	lui	a0,0x82
    18e8:	91850513          	addi	a0,a0,-1768 # 81918 <avgpooling_int16_2_output+0x158>
    18ec:	0f6010ef          	jal	ra,29e2 <printf>
    18f0:	13c12083          	lw	ra,316(sp)
    18f4:	13812403          	lw	s0,312(sp)
    18f8:	13412483          	lw	s1,308(sp)
    18fc:	13012903          	lw	s2,304(sp)
    1900:	12c12983          	lw	s3,300(sp)
    1904:	6131                	c.addi16sp	sp,320
    1906:	8082                	c.jr	ra
    1908:	fff7c613          	not	a2,a5
    190c:	963a                	c.add	a2,a4
    190e:	9a71                	c.andi	a2,-4
    1910:	0611                	c.addi	a2,4
    1912:	b7b9                	c.j	1860 <avgpooling_int16_2_riscv_avgpool_s16+0x84>
    1914:	00082537          	lui	a0,0x82
    1918:	88850513          	addi	a0,a0,-1912 # 81888 <avgpooling_int16_2_output+0xc8>
    191c:	0c6010ef          	jal	ra,29e2 <printf>
    1920:	00082537          	lui	a0,0x82
    1924:	408485b3          	sub	a1,s1,s0
    1928:	8bc50513          	addi	a0,a0,-1860 # 818bc <avgpooling_int16_2_output+0xfc>
    192c:	0b6010ef          	jal	ra,29e2 <printf>
    1930:	00082537          	lui	a0,0x82
    1934:	412985b3          	sub	a1,s3,s2
    1938:	8f050513          	addi	a0,a0,-1808 # 818f0 <avgpooling_int16_2_output+0x130>
    193c:	0a6010ef          	jal	ra,29e2 <printf>
    1940:	bf45                	c.j	18f0 <avgpooling_int16_2_riscv_avgpool_s16+0x114>
    1942:	0001                	c.nop

00001944 <avgpooling_int16_riscv_avgpool_s16>:
    1944:	df010113          	addi	sp,sp,-528
    1948:	19800613          	li	a2,408
    194c:	4581                	c.li	a1,0
    194e:	08a8                	c.addi4spn	a0,sp,88
    1950:	20112623          	sw	ra,524(sp)
    1954:	20812423          	sw	s0,520(sp)
    1958:	20912223          	sw	s1,516(sp)
    195c:	21212023          	sw	s2,512(sp)
    1960:	1f312e23          	sw	s3,508(sp)
    1964:	697000ef          	jal	ra,27fa <memset>
    1968:	4785                	c.li	a5,1
    196a:	d83e                	c.swsp	a5,48(sp)
    196c:	c6be                	c.swsp	a5,76(sp)
    196e:	c2be                	c.swsp	a5,68(sp)
    1970:	77e1                	c.lui	a5,0xffff8
    1972:	c8be                	c.swsp	a5,80(sp)
    1974:	67a1                	c.lui	a5,0x8
    1976:	4611                	c.li	a2,4
    1978:	46c5                	c.li	a3,17
    197a:	4709                	c.li	a4,2
    197c:	480d                	c.li	a6,3
    197e:	4899                	c.li	a7,6
    1980:	17fd                	c.addi	a5,-1
    1982:	45c5                	c.li	a1,17
    1984:	450d                	c.li	a0,3
    1986:	cabe                	c.swsp	a5,84(sp)
    1988:	dc46                	c.swsp	a7,56(sp)
    198a:	da32                	c.swsp	a2,52(sp)
    198c:	de36                	c.swsp	a3,60(sp)
    198e:	d43a                	c.swsp	a4,40(sp)
    1990:	d242                	c.swsp	a6,36(sp)
    1992:	cc42                	c.swsp	a6,24(sp)
    1994:	ca32                	c.swsp	a2,20(sp)
    1996:	ce36                	c.swsp	a3,28(sp)
    1998:	c0ba                	c.swsp	a4,64(sp)
    199a:	c482                	c.swsp	zero,72(sp)
    199c:	209000ef          	jal	ra,23a4 <riscv_avgpool_s16_get_buffer_size>
    19a0:	00a12623          	sw	a0,12(sp)
    19a4:	637000ef          	jal	ra,27da <malloc>
    19a8:	3bd2140b          	addigp	s0,7100 # 823bc <stack_limit>
    19ac:	001d978b          	addigp	a5,124928 # 9f000 <_end+0x1cbf8>
    19b0:	c42a                	c.swsp	a0,8(sp)
    19b2:	c01c                	c.sw	a5,0(s0)
    19b4:	b0005073          	csrwi	mcycle,0
    19b8:	870a                	c.mv	a4,sp
    19ba:	00e7fd63          	bgeu	a5,a4,19d4 <avgpooling_int16_riscv_avgpool_s16+0x90>
    19be:	00178693          	addi	a3,a5,1 # 8001 <BIN_SIZE+0x23f8>
    19c2:	4611                	c.li	a2,4
    19c4:	0ad77863          	bgeu	a4,a3,1a74 <avgpooling_int16_riscv_avgpool_s16+0x130>
    19c8:	0aa00593          	li	a1,170
    19cc:	00f00533          	add	a0,zero,a5
    19d0:	62b000ef          	jal	ra,27fa <memset>
    19d4:	b0002973          	csrr	s2,mcycle
    19d8:	05810813          	addi	a6,sp,88
    19dc:	081c                	c.addi4spn	a5,sp,16
    19de:	1018                	c.addi4spn	a4,sp,32
    19e0:	14c2168b          	addigp	a3,4428 # 8194c <avgpooling_int16_input_tensor>
    19e4:	1810                	c.addi4spn	a2,sp,48
    19e6:	008c                	c.addi4spn	a1,sp,64
    19e8:	00810513          	addi	a0,sp,8
    19ec:	3c5000ef          	jal	ra,25b0 <riscv_avgpool_s16>
    19f0:	b00029f3          	csrr	s3,mcycle
    19f4:	848a                	c.mv	s1,sp
    19f6:	4000                	c.lw	s0,0(s0)
    19f8:	02947263          	bgeu	s0,s1,1a1c <avgpooling_int16_riscv_avgpool_s16+0xd8>
    19fc:	aaaab7b7          	lui	a5,0xaaaab
    1a00:	4018                	c.lw	a4,0(s0)
    1a02:	aaa78793          	addi	a5,a5,-1366 # aaaaaaaa <_DATA_LMA_START+0x8aaa7262>
    1a06:	00f70763          	beq	a4,a5,1a14 <avgpooling_int16_riscv_avgpool_s16+0xd0>
    1a0a:	a809                	c.j	1a1c <avgpooling_int16_riscv_avgpool_s16+0xd8>
    1a0c:	00042783          	lw	a5,0(s0)
    1a10:	00e79663          	bne	a5,a4,1a1c <avgpooling_int16_riscv_avgpool_s16+0xd8>
    1a14:	00440413          	addi	s0,s0,4
    1a18:	fe946ae3          	bltu	s0,s1,1a0c <avgpooling_int16_riscv_avgpool_s16+0xc8>
    1a1c:	4522                	c.lwsp	a0,8(sp)
    1a1e:	c909                	c.beqz	a0,1a30 <avgpooling_int16_riscv_avgpool_s16+0xec>
    1a20:	4632                	c.lwsp	a2,12(sp)
    1a22:	4581                	c.li	a1,0
    1a24:	5d7000ef          	jal	ra,27fa <memset>
    1a28:	00812503          	lw	a0,8(sp)
    1a2c:	5bf000ef          	jal	ra,27ea <free>
    1a30:	00082537          	lui	a0,0x82
    1a34:	0c850513          	addi	a0,a0,200 # 820c8 <avgpooling_output+0x200>
    1a38:	7ab000ef          	jal	ra,29e2 <printf>
    1a3c:	0cc00613          	li	a2,204
    1a40:	47c2158b          	addigp	a1,5244 # 81c7c <avgpooling_int16_output>
    1a44:	08a8                	c.addi4spn	a0,sp,88
    1a46:	367d                	c.jal	15f4 <validate_s16>
    1a48:	02051c63          	bnez	a0,1a80 <avgpooling_int16_riscv_avgpool_s16+0x13c>
    1a4c:	00082537          	lui	a0,0x82
    1a50:	e9850513          	addi	a0,a0,-360 # 81e98 <avgpooling_int16_output+0x21c>
    1a54:	78f000ef          	jal	ra,29e2 <printf>
    1a58:	20c12083          	lw	ra,524(sp)
    1a5c:	20812403          	lw	s0,520(sp)
    1a60:	20412483          	lw	s1,516(sp)
    1a64:	20012903          	lw	s2,512(sp)
    1a68:	1fc12983          	lw	s3,508(sp)
    1a6c:	21010113          	addi	sp,sp,528
    1a70:	00008067          	ret
    1a74:	fff7c613          	not	a2,a5
    1a78:	963a                	c.add	a2,a4
    1a7a:	9a71                	c.andi	a2,-4
    1a7c:	0611                	c.addi	a2,4
    1a7e:	b7a9                	c.j	19c8 <avgpooling_int16_riscv_avgpool_s16+0x84>
    1a80:	00082537          	lui	a0,0x82
    1a84:	e1450513          	addi	a0,a0,-492 # 81e14 <avgpooling_int16_output+0x198>
    1a88:	75b000ef          	jal	ra,29e2 <printf>
    1a8c:	00082537          	lui	a0,0x82
    1a90:	408485b3          	sub	a1,s1,s0
    1a94:	e4450513          	addi	a0,a0,-444 # 81e44 <avgpooling_int16_output+0x1c8>
    1a98:	74b000ef          	jal	ra,29e2 <printf>
    1a9c:	00082537          	lui	a0,0x82
    1aa0:	412985b3          	sub	a1,s3,s2
    1aa4:	e7450513          	addi	a0,a0,-396 # 81e74 <avgpooling_int16_output+0x1f8>
    1aa8:	73b000ef          	jal	ra,29e2 <printf>
    1aac:	b775                	c.j	1a58 <avgpooling_int16_riscv_avgpool_s16+0x114>
	...

00001ab0 <_write>:
    1ab0:	1141                	c.addi	sp,-16
    1ab2:	c606                	c.swsp	ra,12(sp)
    1ab4:	c422                	c.swsp	s0,8(sp)
    1ab6:	c226                	c.swsp	s1,4(sp)
    1ab8:	c04a                	c.swsp	s2,0(sp)
    1aba:	02c05763          	blez	a2,1ae8 <_write+0x38>
    1abe:	8932                	c.mv	s2,a2
    1ac0:	00b00433          	add	s0,zero,a1
    1ac4:	00c584b3          	add	s1,a1,a2
    1ac8:	00044503          	lbu	a0,0(s0)
    1acc:	00140413          	addi	s0,s0,1
    1ad0:	8dcff0ef          	jal	ra,bac <dr_putchar>
    1ad4:	fe941ae3          	bne	s0,s1,1ac8 <_write+0x18>
    1ad8:	40b2                	c.lwsp	ra,12(sp)
    1ada:	4422                	c.lwsp	s0,8(sp)
    1adc:	854a                	c.mv	a0,s2
    1ade:	4492                	c.lwsp	s1,4(sp)
    1ae0:	4902                	c.lwsp	s2,0(sp)
    1ae2:	0141                	c.addi	sp,16
    1ae4:	00008067          	ret
    1ae8:	40b2                	c.lwsp	ra,12(sp)
    1aea:	4422                	c.lwsp	s0,8(sp)
    1aec:	4901                	c.li	s2,0
    1aee:	854a                	c.mv	a0,s2
    1af0:	4492                	c.lwsp	s1,4(sp)
    1af2:	4902                	c.lwsp	s2,0(sp)
    1af4:	0141                	c.addi	sp,16
    1af6:	8082                	c.jr	ra

00001af8 <main>:
    1af8:	7171                	c.addi16sp	sp,-176
    1afa:	ffbc07b7          	lui	a5,0xffbc0
    1afe:	d706                	c.swsp	ra,172(sp)
    1b00:	17fd                	c.addi	a5,-1
    1b02:	80140737          	lui	a4,0x80140
    1b06:	d522                	c.swsp	s0,168(sp)
    1b08:	d326                	c.swsp	s1,164(sp)
    1b0a:	d14a                	c.swsp	s2,160(sp)
    1b0c:	cf4e                	c.swsp	s3,156(sp)
    1b0e:	cd52                	c.swsp	s4,152(sp)
    1b10:	cb56                	c.swsp	s5,148(sp)
    1b12:	c95a                	c.swsp	s6,144(sp)
    1b14:	1ef72023          	sw	a5,480(a4) # 801401e0 <_DATA_LMA_START+0x6013c998>
    1b18:	00200593          	li	a1,2
    1b1c:	08c00513          	li	a0,140
    1b20:	1ef72223          	sw	a5,484(a4)
    1b24:	c71fe0ef          	jal	ra,794 <analog_write_reg8>
    1b28:	4581                	c.li	a1,0
    1b2a:	4529                	c.li	a0,10
    1b2c:	c69fe0ef          	jal	ra,794 <analog_write_reg8>
    1b30:	03b00593          	li	a1,59
    1b34:	00b00513          	li	a0,11
    1b38:	c5dfe0ef          	jal	ra,794 <analog_write_reg8>
    1b3c:	00500513          	li	a0,5
    1b40:	c99fe0ef          	jal	ra,7d8 <analog_read_reg8>
    1b44:	0f757593          	andi	a1,a0,247
    1b48:	00500513          	li	a0,5
    1b4c:	c49fe0ef          	jal	ra,794 <analog_write_reg8>
    1b50:	00600513          	li	a0,6
    1b54:	c85fe0ef          	jal	ra,7d8 <analog_read_reg8>
    1b58:	03e57593          	andi	a1,a0,62
    1b5c:	00600513          	li	a0,6
    1b60:	c35fe0ef          	jal	ra,794 <analog_write_reg8>
    1b64:	04500593          	li	a1,69
    1b68:	00100513          	li	a0,1
    1b6c:	c29fe0ef          	jal	ra,794 <analog_write_reg8>
    1b70:	04c00593          	li	a1,76
    1b74:	01c00513          	li	a0,28
    1b78:	c1dfe0ef          	jal	ra,794 <analog_write_reg8>
    1b7c:	801007b7          	lui	a5,0x80100
    1b80:	44478703          	lb	a4,1092(a5) # 80100444 <_DATA_LMA_START+0x600fcbfc>
    1b84:	801016b7          	lui	a3,0x80101
    1b88:	0ff77713          	andi	a4,a4,255
    1b8c:	00e76713          	ori	a4,a4,14
    1b90:	44e78223          	sb	a4,1092(a5)
    1b94:	45878703          	lb	a4,1112(a5)
    1b98:	03800513          	li	a0,56
    1b9c:	0ff77713          	andi	a4,a4,255
    1ba0:	00e76713          	ori	a4,a4,14
    1ba4:	44e78c23          	sb	a4,1112(a5)
    1ba8:	46c78703          	lb	a4,1132(a5)
    1bac:	0ff77713          	andi	a4,a4,255
    1bb0:	00e76713          	ori	a4,a4,14
    1bb4:	46e78623          	sb	a4,1132(a5)
    1bb8:	48078703          	lb	a4,1152(a5)
    1bbc:	0ff77713          	andi	a4,a4,255
    1bc0:	00e76713          	ori	a4,a4,14
    1bc4:	48e78023          	sb	a4,1152(a5)
    1bc8:	49478703          	lb	a4,1172(a5)
    1bcc:	0ff77713          	andi	a4,a4,255
    1bd0:	00e76713          	ori	a4,a4,14
    1bd4:	48e78a23          	sb	a4,1172(a5)
    1bd8:	4a878703          	lb	a4,1192(a5)
    1bdc:	0ff77713          	andi	a4,a4,255
    1be0:	00e76713          	ori	a4,a4,14
    1be4:	4ae78423          	sb	a4,1192(a5)
    1be8:	4bc78703          	lb	a4,1212(a5)
    1bec:	0ff77713          	andi	a4,a4,255
    1bf0:	00e76713          	ori	a4,a4,14
    1bf4:	4ae78e23          	sb	a4,1212(a5)
    1bf8:	4d078703          	lb	a4,1232(a5)
    1bfc:	0ff77713          	andi	a4,a4,255
    1c00:	00e76713          	ori	a4,a4,14
    1c04:	4ce78823          	sb	a4,1232(a5)
    1c08:	83a68783          	lb	a5,-1990(a3) # 8010083a <_DATA_LMA_START+0x600fcff2>
    1c0c:	82068d23          	sb	zero,-1990(a3)
    1c10:	bc9fe0ef          	jal	ra,7d8 <analog_read_reg8>
    1c14:	00a00433          	add	s0,zero,a0
    1c18:	03900513          	li	a0,57
    1c1c:	bbdfe0ef          	jal	ra,7d8 <analog_read_reg8>
    1c20:	84aa                	c.mv	s1,a0
    1c22:	4004745b          	bbs	s0,0,1c2a <main+0x132>
    1c26:	7320006f          	j	2358 <main+0x860>
    1c2a:	0fe47593          	andi	a1,s0,254
    1c2e:	3b92140b          	addigp	s0,7096 # 823b8 <g_pm_status_info>
    1c32:	03800513          	li	a0,56
    1c36:	4004f45b          	bbs	s1,0,1c3e <main+0x146>
    1c3a:	6fe0006f          	j	2338 <main+0x840>
    1c3e:	4791                	c.li	a5,4
    1c40:	00f40123          	sb	a5,2(s0)
    1c44:	b51fe0ef          	jal	ra,794 <analog_write_reg8>
    1c48:	00100593          	li	a1,1
    1c4c:	07f00513          	li	a0,127
    1c50:	b45fe0ef          	jal	ra,794 <analog_write_reg8>
    1c54:	06400513          	li	a0,100
    1c58:	b81fe0ef          	jal	ra,7d8 <analog_read_reg8>
    1c5c:	0c3527db          	bfoz	a5,a0,3,3
    1c60:	00a400a3          	sb	a0,1(s0)
    1c64:	00f40023          	sb	a5,0(s0)
    1c68:	08800513          	li	a0,136
    1c6c:	b6dfe0ef          	jal	ra,7d8 <analog_read_reg8>
    1c70:	be757c5b          	bbc	a0,7,1c68 <main+0x170>
    1c74:	cf1fe0ef          	jal	ra,964 <pm_wait_bbpll_done>
    1c78:	00244783          	lbu	a5,2(s0)
    1c7c:	0a87de5b          	beqc	a5,8,1d38 <main+0x240>
    1c80:	80140737          	lui	a4,0x80140
    1c84:	20a70783          	lb	a5,522(a4) # 8014020a <_DATA_LMA_START+0x6013c9c2>
    1c88:	0ff7f793          	andi	a5,a5,255
    1c8c:	00c7e793          	ori	a5,a5,12
    1c90:	20f70523          	sb	a5,522(a4)
    1c94:	00100793          	li	a5,1
    1c98:	20f72023          	sw	a5,512(a4)
    1c9c:	801404b7          	lui	s1,0x80140
    1ca0:	1fd48783          	lb	a5,509(s1) # 801401fd <_DATA_LMA_START+0x6013c9b5>
    1ca4:	0ff7f793          	andi	a5,a5,255
    1ca8:	3af24aab          	swgp	a5,7092 # 823b4 <g_chip_version>
    1cac:	00244703          	lbu	a4,2(s0)
    1cb0:	04475c5b          	beqc	a4,4,1d08 <main+0x210>
    1cb4:	0ff00693          	li	a3,255
    1cb8:	04d78063          	beq	a5,a3,1cf8 <main+0x200>
    1cbc:	08000593          	li	a1,128
    1cc0:	07d00513          	li	a0,125
    1cc4:	ad1fe0ef          	jal	ra,794 <analog_write_reg8>
    1cc8:	80140737          	lui	a4,0x80140
    1ccc:	06500793          	li	a5,101
    1cd0:	1ef70a23          	sb	a5,500(a4) # 801401f4 <_DATA_LMA_START+0x6013c9ac>
    1cd4:	1c872783          	lw	a5,456(a4)
    1cd8:	1e070a23          	sb	zero,500(a4)
    1cdc:	8bbd                	c.andi	a5,15
    1cde:	0037d55b          	beqc	a5,3,1ce8 <main+0x1f0>
    1ce2:	4725                	c.li	a4,9
    1ce4:	04f77e63          	bgeu	a4,a5,1d40 <main+0x248>
    1ce8:	801407b7          	lui	a5,0x80140
    1cec:	02000713          	li	a4,32
    1cf0:	1ee787a3          	sb	a4,495(a5) # 801401ef <_DATA_LMA_START+0x6013c9a7>
    1cf4:	0000006f          	j	1cf4 <main+0x1fc>
    1cf8:	bc17625b          	bnec	a4,1,1cbc <main+0x1c4>
    1cfc:	07d00513          	li	a0,125
    1d00:	08000593          	li	a1,128
    1d04:	0180006f          	j	1d1c <main+0x224>
    1d08:	03900513          	li	a0,57
    1d0c:	acdfe0ef          	jal	ra,7d8 <analog_read_reg8>
    1d10:	00256593          	ori	a1,a0,2
    1d14:	0ff5f593          	andi	a1,a1,255
    1d18:	03900513          	li	a0,57
    1d1c:	a79fe0ef          	jal	ra,794 <analog_write_reg8>
    1d20:	2004a503          	lw	a0,512(s1)
    1d24:	001877b7          	lui	a5,0x187
    1d28:	a0078793          	addi	a5,a5,-1536 # 186a00 <FLASH_SIZE+0x86a00>
    1d2c:	00f50533          	add	a0,a0,a5
    1d30:	ec4ff0ef          	jal	ra,13f4 <pm_sleep_wakeup.constprop.2>
    1d34:	f89ff06f          	j	1cbc <main+0x1c4>
    1d38:	e44fe0ef          	jal	ra,37c <pm_stimer_recover>
    1d3c:	f61ff06f          	j	1c9c <main+0x1a4>
    1d40:	00f00513          	li	a0,15
    1d44:	a95fe0ef          	jal	ra,7d8 <analog_read_reg8>
    1d48:	03f57593          	andi	a1,a0,63
    1d4c:	0405e593          	ori	a1,a1,64
    1d50:	00f00513          	li	a0,15
    1d54:	a41fe0ef          	jal	ra,794 <analog_write_reg8>
    1d58:	08cc                	c.addi4spn	a1,sp,84
    1d5a:	1868                	c.addi4spn	a0,sp,60
    1d5c:	cf8ff0ef          	jal	ra,1254 <flash_read_mid_uid_with_check>
    1d60:	0ff57513          	andi	a0,a0,255
    1d64:	0015545b          	beqc	a0,1,1d6c <main+0x274>
    1d68:	5c40006f          	j	232c <main+0x834>
    1d6c:	03e14783          	lbu	a5,62(sp)
    1d70:	474d                	c.li	a4,19
    1d72:	0137e45b          	bnec	a5,19,1d7a <main+0x282>
    1d76:	59e0006f          	j	2314 <main+0x81c>
    1d7a:	52f77963          	bgeu	a4,a5,22ac <main+0x7b4>
    1d7e:	4755                	c.li	a4,21
    1d80:	0157e45b          	bnec	a5,21,1d88 <main+0x290>
    1d84:	5100006f          	j	2294 <main+0x79c>
    1d88:	48e7ea63          	bltu	a5,a4,221c <main+0x724>
    1d8c:	0167d45b          	beqc	a5,22,1d94 <main+0x29c>
    1d90:	59c0006f          	j	232c <main+0x834>
    1d94:	003fe537          	lui	a0,0x3fe
    1d98:	0c050513          	addi	a0,a0,192 # 3fe0c0 <FLASH_SIZE+0x2fe0c0>
    1d9c:	e70ff0ef          	jal	ra,140c <user_calib_adc_vref.constprop.9>
    1da0:	003fe537          	lui	a0,0x3fe
    1da4:	f64ff0ef          	jal	ra,1508 <user_calib_freq_offset.constprop.8>
    1da8:	80140437          	lui	s0,0x80140
    1dac:	e30ff0ef          	jal	ra,13dc <clock_init.constprop.10>
    1db0:	30e40783          	lb	a5,782(s0) # 8014030e <_DATA_LMA_START+0x6013cac6>
    1db4:	11000513          	li	a0,272
    1db8:	0ff7f793          	andi	a5,a5,255
    1dbc:	0107e793          	ori	a5,a5,16
    1dc0:	30f40723          	sb	a5,782(s0)
    1dc4:	30a40783          	lb	a5,778(s0)
    1dc8:	00082937          	lui	s2,0x82
    1dcc:	0ef7f793          	andi	a5,a5,239
    1dd0:	30f40523          	sb	a5,778(s0)
    1dd4:	f8cff0ef          	jal	ra,1560 <gpio_input_dis>
    1dd8:	30e40783          	lb	a5,782(s0)
    1ddc:	12000513          	li	a0,288
    1de0:	0ff7f793          	andi	a5,a5,255
    1de4:	0207e793          	ori	a5,a5,32
    1de8:	30f40723          	sb	a5,782(s0)
    1dec:	30a40783          	lb	a5,778(s0)
    1df0:	0df7f793          	andi	a5,a5,223
    1df4:	30f40523          	sb	a5,778(s0)
    1df8:	f68ff0ef          	jal	ra,1560 <gpio_input_dis>
    1dfc:	30e40783          	lb	a5,782(s0)
    1e00:	14000513          	li	a0,320
    1e04:	0ff7f793          	andi	a5,a5,255
    1e08:	0407e793          	ori	a5,a5,64
    1e0c:	30f40723          	sb	a5,782(s0)
    1e10:	30a40783          	lb	a5,778(s0)
    1e14:	3bd2148b          	addigp	s1,7100 # 823bc <stack_limit>
    1e18:	0bf7f793          	andi	a5,a5,191
    1e1c:	30f40523          	sb	a5,778(s0)
    1e20:	f40ff0ef          	jal	ra,1560 <gpio_input_dis>
    1e24:	30e40783          	lb	a5,782(s0)
    1e28:	18000513          	li	a0,384
    1e2c:	f807e793          	ori	a5,a5,-128
    1e30:	0ff7f793          	andi	a5,a5,255
    1e34:	30f40723          	sb	a5,782(s0)
    1e38:	30a40783          	lb	a5,778(s0)
    1e3c:	07f7f793          	andi	a5,a5,127
    1e40:	30f40523          	sb	a5,778(s0)
    1e44:	f1cff0ef          	jal	ra,1560 <gpio_input_dis>
    1e48:	00082537          	lui	a0,0x82
    1e4c:	02c50513          	addi	a0,a0,44 # 8202c <avgpooling_output+0x164>
    1e50:	3b1000ef          	jal	ra,2a00 <puts>
    1e54:	65a9                	c.lui	a1,0xa
    1e56:	00082537          	lui	a0,0x82
    1e5a:	0585                	c.addi	a1,1
    1e5c:	03050513          	addi	a0,a0,48 # 82030 <avgpooling_output+0x168>
    1e60:	383000ef          	jal	ra,29e2 <printf>
    1e64:	00082537          	lui	a0,0x82
    1e68:	7e400593          	li	a1,2020
    1e6c:	04850513          	addi	a0,a0,72 # 82048 <avgpooling_output+0x180>
    1e70:	373000ef          	jal	ra,29e2 <printf>
    1e74:	000825b7          	lui	a1,0x82
    1e78:	00082537          	lui	a0,0x82
    1e7c:	06058593          	addi	a1,a1,96 # 82060 <avgpooling_output+0x198>
    1e80:	06c50513          	addi	a0,a0,108 # 8206c <avgpooling_output+0x1a4>
    1e84:	35f000ef          	jal	ra,29e2 <printf>
    1e88:	b78fe0ef          	jal	ra,200 <delay_ms.constprop.12>
    1e8c:	0c890513          	addi	a0,s2,200 # 820c8 <avgpooling_output+0x200>
    1e90:	353000ef          	jal	ra,29e2 <printf>
    1e94:	00082537          	lui	a0,0x82
    1e98:	09450513          	addi	a0,a0,148 # 82094 <avgpooling_output+0x1cc>
    1e9c:	347000ef          	jal	ra,29e2 <printf>
    1ea0:	0c890513          	addi	a0,s2,200
    1ea4:	33f000ef          	jal	ra,29e2 <printf>
    1ea8:	00082537          	lui	a0,0x82
    1eac:	0cc50513          	addi	a0,a0,204 # 820cc <avgpooling_output+0x204>
    1eb0:	333000ef          	jal	ra,29e2 <printf>
    1eb4:	fb8ff0ef          	jal	ra,166c <avgpooling_riscv_avgpool_s8>
    1eb8:	4785                	c.li	a5,1
    1eba:	ce3e                	c.swsp	a5,28(sp)
    1ebc:	c2be                	c.swsp	a5,68(sp)
    1ebe:	c0be                	c.swsp	a5,64(sp)
    1ec0:	cabe                	c.swsp	a5,84(sp)
    1ec2:	4789                	c.li	a5,2
    1ec4:	ccbe                	c.swsp	a5,88(sp)
    1ec6:	f8000793          	li	a5,-128
    1eca:	4625                	c.li	a2,9
    1ecc:	4695                	c.li	a3,5
    1ece:	470d                	c.li	a4,3
    1ed0:	458d                	c.li	a1,3
    1ed2:	d2be                	c.swsp	a5,100(sp)
    1ed4:	001d940b          	addigp	s0,124928 # 9f000 <_end+0x1cbf8>
    1ed8:	07f00793          	li	a5,127
    1edc:	4505                	c.li	a0,1
    1ede:	d232                	c.swsp	a2,36(sp)
    1ee0:	d036                	c.swsp	a3,32(sp)
    1ee2:	d43a                	c.swsp	a4,40(sp)
    1ee4:	da32                	c.swsp	a2,52(sp)
    1ee6:	d836                	c.swsp	a3,48(sp)
    1ee8:	c4ba                	c.swsp	a4,72(sp)
    1eea:	d4be                	c.swsp	a5,104(sp)
    1eec:	00011223          	sh	zero,4(sp)
    1ef0:	00010323          	sb	zero,6(sp)
    1ef4:	ce82                	c.swsp	zero,92(sp)
    1ef6:	d082                	c.swsp	zero,96(sp)
    1ef8:	4b4000ef          	jal	ra,23ac <riscv_avgpool_s8_get_buffer_size>
    1efc:	00a12823          	sw	a0,16(sp)
    1f00:	0db000ef          	jal	ra,27da <malloc>
    1f04:	c080                	c.sw	s0,0(s1)
    1f06:	c62a                	c.swsp	a0,12(sp)
    1f08:	b0005073          	csrwi	mcycle,0
    1f0c:	878a                	c.mv	a5,sp
    1f0e:	02f47363          	bgeu	s0,a5,1f34 <main+0x43c>
    1f12:	00140713          	addi	a4,s0,1
    1f16:	4611                	c.li	a2,4
    1f18:	00e7e863          	bltu	a5,a4,1f28 <main+0x430>
    1f1c:	fff44613          	not	a2,s0
    1f20:	963e                	c.add	a2,a5
    1f22:	9a71                	c.andi	a2,-4
    1f24:	00460613          	addi	a2,a2,4
    1f28:	0aa00593          	li	a1,170
    1f2c:	00800533          	add	a0,zero,s0
    1f30:	0cb000ef          	jal	ra,27fa <memset>
    1f34:	b0002b73          	csrr	s6,mcycle
    1f38:	00410813          	addi	a6,sp,4
    1f3c:	187c                	c.addi4spn	a5,sp,60
    1f3e:	1078                	c.addi4spn	a4,sp,44
    1f40:	811f968b          	addigp	a3,-2032 # 80010 <avgpooling_1_input_tensor>
    1f44:	0870                	c.addi4spn	a2,sp,28
    1f46:	08cc                	c.addi4spn	a1,sp,84
    1f48:	0068                	c.addi4spn	a0,sp,12
    1f4a:	21ad                	c.jal	23b4 <riscv_avgpool_s8>
    1f4c:	8aaa                	c.mv	s5,a0
    1f4e:	b0002a73          	csrr	s4,mcycle
    1f52:	870a                	c.mv	a4,sp
    1f54:	409c                	c.lw	a5,0(s1)
    1f56:	02e7f363          	bgeu	a5,a4,1f7c <main+0x484>
    1f5a:	aaaab637          	lui	a2,0xaaaab
    1f5e:	4394                	c.lw	a3,0(a5)
    1f60:	aaa60613          	addi	a2,a2,-1366 # aaaaaaaa <_DATA_LMA_START+0x8aaa7262>
    1f64:	00c68863          	beq	a3,a2,1f74 <main+0x47c>
    1f68:	0140006f          	j	1f7c <main+0x484>
    1f6c:	0007a603          	lw	a2,0(a5)
    1f70:	00d61663          	bne	a2,a3,1f7c <main+0x484>
    1f74:	00478793          	addi	a5,a5,4
    1f78:	fee7eae3          	bltu	a5,a4,1f6c <main+0x474>
    1f7c:	4532                	c.lwsp	a0,12(sp)
    1f7e:	40f709b3          	sub	s3,a4,a5
    1f82:	416a0a33          	sub	s4,s4,s6
    1f86:	c909                	c.beqz	a0,1f98 <main+0x4a0>
    1f88:	4642                	c.lwsp	a2,16(sp)
    1f8a:	4581                	c.li	a1,0
    1f8c:	06f000ef          	jal	ra,27fa <memset>
    1f90:	00c12503          	lw	a0,12(sp)
    1f94:	057000ef          	jal	ra,27ea <free>
    1f98:	0c890513          	addi	a0,s2,200
    1f9c:	247000ef          	jal	ra,29e2 <printf>
    1fa0:	000a9a63          	bnez	s5,1fb4 <main+0x4bc>
    1fa4:	460d                	c.li	a2,3
    1fa6:	39d2158b          	addigp	a1,7068 # 8239c <avgpooling_1_output>
    1faa:	0048                	c.addi4spn	a0,sp,4
    1fac:	dd0ff0ef          	jal	ra,157c <validate>
    1fb0:	28051263          	bnez	a0,2234 <main+0x73c>
    1fb4:	00082537          	lui	a0,0x82
    1fb8:	15c50513          	addi	a0,a0,348 # 8215c <avgpooling_output+0x294>
    1fbc:	227000ef          	jal	ra,29e2 <printf>
    1fc0:	03c00613          	li	a2,60
    1fc4:	4581                	c.li	a1,0
    1fc6:	08c8                	c.addi4spn	a0,sp,84
    1fc8:	033000ef          	jal	ra,27fa <memset>
    1fcc:	4785                	c.li	a5,1
    1fce:	c63e                	c.swsp	a5,12(sp)
    1fd0:	c83e                	c.swsp	a5,16(sp)
    1fd2:	d03e                	c.swsp	a5,32(sp)
    1fd4:	d83e                	c.swsp	a5,48(sp)
    1fd6:	c2be                	c.swsp	a5,68(sp)
    1fd8:	de3e                	c.swsp	a5,60(sp)
    1fda:	4789                	c.li	a5,2
    1fdc:	c0be                	c.swsp	a5,64(sp)
    1fde:	f8000793          	li	a5,-128
    1fe2:	46b1                	c.li	a3,12
    1fe4:	4715                	c.li	a4,5
    1fe6:	460d                	c.li	a2,3
    1fe8:	4595                	c.li	a1,5
    1fea:	c6be                	c.swsp	a5,76(sp)
    1fec:	4531                	c.li	a0,12
    1fee:	07f00793          	li	a5,127
    1ff2:	ca36                	c.swsp	a3,20(sp)
    1ff4:	cc3a                	c.swsp	a4,24(sp)
    1ff6:	d232                	c.swsp	a2,36(sp)
    1ff8:	da36                	c.swsp	a3,52(sp)
    1ffa:	dc3a                	c.swsp	a4,56(sp)
    1ffc:	c8be                	c.swsp	a5,80(sp)
    1ffe:	c482                	c.swsp	zero,72(sp)
    2000:	3ac000ef          	jal	ra,23ac <riscv_avgpool_s8_get_buffer_size>
    2004:	00a12423          	sw	a0,8(sp)
    2008:	7d2000ef          	jal	ra,27da <malloc>
    200c:	c080                	c.sw	s0,0(s1)
    200e:	c22a                	c.swsp	a0,4(sp)
    2010:	b0005073          	csrwi	mcycle,0
    2014:	878a                	c.mv	a5,sp
    2016:	02f47363          	bgeu	s0,a5,203c <main+0x544>
    201a:	00140713          	addi	a4,s0,1
    201e:	4611                	c.li	a2,4
    2020:	00e7e863          	bltu	a5,a4,2030 <main+0x538>
    2024:	fff44613          	not	a2,s0
    2028:	963e                	c.add	a2,a5
    202a:	9a71                	c.andi	a2,-4
    202c:	00460613          	addi	a2,a2,4
    2030:	0aa00593          	li	a1,170
    2034:	00800533          	add	a0,zero,s0
    2038:	7c2000ef          	jal	ra,27fa <memset>
    203c:	b0002b73          	csrr	s6,mcycle
    2040:	05410813          	addi	a6,sp,84
    2044:	107c                	c.addi4spn	a5,sp,44
    2046:	0878                	c.addi4spn	a4,sp,28
    2048:	899f968b          	addigp	a3,-1896 # 80098 <avgpooling_2_input_tensor>
    204c:	0070                	c.addi4spn	a2,sp,12
    204e:	186c                	c.addi4spn	a1,sp,60
    2050:	0048                	c.addi4spn	a0,sp,4
    2052:	268d                	c.jal	23b4 <riscv_avgpool_s8>
    2054:	8aaa                	c.mv	s5,a0
    2056:	b0002a73          	csrr	s4,mcycle
    205a:	870a                	c.mv	a4,sp
    205c:	409c                	c.lw	a5,0(s1)
    205e:	02e7f363          	bgeu	a5,a4,2084 <main+0x58c>
    2062:	aaaab637          	lui	a2,0xaaaab
    2066:	4394                	c.lw	a3,0(a5)
    2068:	aaa60613          	addi	a2,a2,-1366 # aaaaaaaa <_DATA_LMA_START+0x8aaa7262>
    206c:	00c68863          	beq	a3,a2,207c <main+0x584>
    2070:	0140006f          	j	2084 <main+0x58c>
    2074:	0007a603          	lw	a2,0(a5)
    2078:	00d61663          	bne	a2,a3,2084 <main+0x58c>
    207c:	00478793          	addi	a5,a5,4
    2080:	fee7eae3          	bltu	a5,a4,2074 <main+0x57c>
    2084:	4512                	c.lwsp	a0,4(sp)
    2086:	40f709b3          	sub	s3,a4,a5
    208a:	416a0a33          	sub	s4,s4,s6
    208e:	c909                	c.beqz	a0,20a0 <main+0x5a8>
    2090:	4622                	c.lwsp	a2,8(sp)
    2092:	4581                	c.li	a1,0
    2094:	766000ef          	jal	ra,27fa <memset>
    2098:	00412503          	lw	a0,4(sp)
    209c:	74e000ef          	jal	ra,27ea <free>
    20a0:	0c890513          	addi	a0,s2,200
    20a4:	13f000ef          	jal	ra,29e2 <printf>
    20a8:	000a9c63          	bnez	s5,20c0 <main+0x5c8>
    20ac:	03c00613          	li	a2,60
    20b0:	8d5f958b          	addigp	a1,-1836 # 800d4 <avgpooling_2_output>
    20b4:	05410513          	addi	a0,sp,84
    20b8:	cc4ff0ef          	jal	ra,157c <validate>
    20bc:	1a051463          	bnez	a0,2264 <main+0x76c>
    20c0:	00082537          	lui	a0,0x82
    20c4:	1d450513          	addi	a0,a0,468 # 821d4 <avgpooling_output+0x30c>
    20c8:	11b000ef          	jal	ra,29e2 <printf>
    20cc:	0c890513          	addi	a0,s2,200
    20d0:	113000ef          	jal	ra,29e2 <printf>
    20d4:	00082537          	lui	a0,0x82
    20d8:	21050513          	addi	a0,a0,528 # 82210 <avgpooling_output+0x348>
    20dc:	107000ef          	jal	ra,29e2 <printf>
    20e0:	865ff0ef          	jal	ra,1944 <avgpooling_int16_riscv_avgpool_s16>
    20e4:	03c00613          	li	a2,60
    20e8:	4581                	c.li	a1,0
    20ea:	08c8                	c.addi4spn	a0,sp,84
    20ec:	70e000ef          	jal	ra,27fa <memset>
    20f0:	4785                	c.li	a5,1
    20f2:	c83e                	c.swsp	a5,16(sp)
    20f4:	d23e                	c.swsp	a5,36(sp)
    20f6:	d03e                	c.swsp	a5,32(sp)
    20f8:	d83e                	c.swsp	a5,48(sp)
    20fa:	c0be                	c.swsp	a5,64(sp)
    20fc:	468d                	c.li	a3,3
    20fe:	77e1                	c.lui	a5,0xffff8
    2100:	c636                	c.swsp	a3,12(sp)
    2102:	c6be                	c.swsp	a5,76(sp)
    2104:	46a5                	c.li	a3,9
    2106:	67a1                	c.lui	a5,0x8
    2108:	4709                	c.li	a4,2
    210a:	17fd                	c.addi	a5,-1
    210c:	4589                	c.li	a1,2
    210e:	ca36                	c.swsp	a3,20(sp)
    2110:	4515                	c.li	a0,5
    2112:	4695                	c.li	a3,5
    2114:	cc3a                	c.swsp	a4,24(sp)
    2116:	da36                	c.swsp	a3,52(sp)
    2118:	dc3a                	c.swsp	a4,56(sp)
    211a:	de3a                	c.swsp	a4,60(sp)
    211c:	c8be                	c.swsp	a5,80(sp)
    211e:	c282                	c.swsp	zero,68(sp)
    2120:	c482                	c.swsp	zero,72(sp)
    2122:	2449                	c.jal	23a4 <riscv_avgpool_s16_get_buffer_size>
    2124:	00a12423          	sw	a0,8(sp)
    2128:	6b2000ef          	jal	ra,27da <malloc>
    212c:	c080                	c.sw	s0,0(s1)
    212e:	c22a                	c.swsp	a0,4(sp)
    2130:	b0005073          	csrwi	mcycle,0
    2134:	878a                	c.mv	a5,sp
    2136:	02f47363          	bgeu	s0,a5,215c <main+0x664>
    213a:	00140713          	addi	a4,s0,1
    213e:	4611                	c.li	a2,4
    2140:	00e7e863          	bltu	a5,a4,2150 <main+0x658>
    2144:	fff44613          	not	a2,s0
    2148:	963e                	c.add	a2,a5
    214a:	9a71                	c.andi	a2,-4
    214c:	00460613          	addi	a2,a2,4
    2150:	0aa00593          	li	a1,170
    2154:	00800533          	add	a0,zero,s0
    2158:	6a2000ef          	jal	ra,27fa <memset>
    215c:	b00029f3          	csrr	s3,mcycle
    2160:	05410813          	addi	a6,sp,84
    2164:	107c                	c.addi4spn	a5,sp,44
    2166:	0878                	c.addi4spn	a4,sp,28
    2168:	5b10168b          	addigp	a3,3504 # 815b0 <avgpooling_int16_1_input_tensor>
    216c:	0070                	c.addi4spn	a2,sp,12
    216e:	186c                	c.addi4spn	a1,sp,60
    2170:	0048                	c.addi4spn	a0,sp,4
    2172:	293d                	c.jal	25b0 <riscv_avgpool_s16>
    2174:	b0002673          	csrr	a2,mcycle
    2178:	870a                	c.mv	a4,sp
    217a:	409c                	c.lw	a5,0(s1)
    217c:	02e7f263          	bgeu	a5,a4,21a0 <main+0x6a8>
    2180:	aaaab5b7          	lui	a1,0xaaaab
    2184:	4394                	c.lw	a3,0(a5)
    2186:	aaa58593          	addi	a1,a1,-1366 # aaaaaaaa <_DATA_LMA_START+0x8aaa7262>
    218a:	00b68763          	beq	a3,a1,2198 <main+0x6a0>
    218e:	a809                	c.j	21a0 <main+0x6a8>
    2190:	0007a583          	lw	a1,0(a5) # 8000 <BIN_SIZE+0x23f7>
    2194:	00d59663          	bne	a1,a3,21a0 <main+0x6a8>
    2198:	00478793          	addi	a5,a5,4
    219c:	fee7eae3          	bltu	a5,a4,2190 <main+0x698>
    21a0:	4512                	c.lwsp	a0,4(sp)
    21a2:	40f70433          	sub	s0,a4,a5
    21a6:	413609b3          	sub	s3,a2,s3
    21aa:	c909                	c.beqz	a0,21bc <main+0x6c4>
    21ac:	4622                	c.lwsp	a2,8(sp)
    21ae:	4581                	c.li	a1,0
    21b0:	64a000ef          	jal	ra,27fa <memset>
    21b4:	00412503          	lw	a0,4(sp)
    21b8:	632000ef          	jal	ra,27ea <free>
    21bc:	0c890513          	addi	a0,s2,200
    21c0:	023000ef          	jal	ra,29e2 <printf>
    21c4:	4679                	c.li	a2,30
    21c6:	61d0158b          	addigp	a1,3612 # 8161c <avgpooling_int16_1_output>
    21ca:	08c8                	c.addi4spn	a0,sp,84
    21cc:	c28ff0ef          	jal	ra,15f4 <validate_s16>
    21d0:	0e051e63          	bnez	a0,22cc <main+0x7d4>
    21d4:	00082537          	lui	a0,0x82
    21d8:	2c850513          	addi	a0,a0,712 # 822c8 <avgpooling_output+0x400>
    21dc:	007000ef          	jal	ra,29e2 <printf>
    21e0:	dfcff0ef          	jal	ra,17dc <avgpooling_int16_2_riscv_avgpool_s16>
    21e4:	00082537          	lui	a0,0x82
    21e8:	2fc50513          	addi	a0,a0,764 # 822fc <avgpooling_output+0x434>
    21ec:	7f6000ef          	jal	ra,29e2 <printf>
    21f0:	810fe0ef          	jal	ra,200 <delay_ms.constprop.12>
    21f4:	00082537          	lui	a0,0x82
    21f8:	31450513          	addi	a0,a0,788 # 82314 <avgpooling_output+0x44c>
    21fc:	7e6000ef          	jal	ra,29e2 <printf>
    2200:	800fe0ef          	jal	ra,200 <delay_ms.constprop.12>
    2204:	50ba                	c.lwsp	ra,172(sp)
    2206:	542a                	c.lwsp	s0,168(sp)
    2208:	549a                	c.lwsp	s1,164(sp)
    220a:	590a                	c.lwsp	s2,160(sp)
    220c:	49fa                	c.lwsp	s3,156(sp)
    220e:	4a6a                	c.lwsp	s4,152(sp)
    2210:	4ada                	c.lwsp	s5,148(sp)
    2212:	4b4a                	c.lwsp	s6,144(sp)
    2214:	4501                	c.li	a0,0
    2216:	614d                	c.addi16sp	sp,176
    2218:	00008067          	ret
    221c:	000fe537          	lui	a0,0xfe
    2220:	0c050513          	addi	a0,a0,192 # fe0c0 <_STACK_TOP+0x5e0c0>
    2224:	9e8ff0ef          	jal	ra,140c <user_calib_adc_vref.constprop.9>
    2228:	000fe537          	lui	a0,0xfe
    222c:	adcff0ef          	jal	ra,1508 <user_calib_freq_offset.constprop.8>
    2230:	b79ff06f          	j	1da8 <main+0x2b0>
    2234:	00082537          	lui	a0,0x82
    2238:	0f450513          	addi	a0,a0,244 # 820f4 <avgpooling_output+0x22c>
    223c:	7a6000ef          	jal	ra,29e2 <printf>
    2240:	00082537          	lui	a0,0x82
    2244:	013005b3          	add	a1,zero,s3
    2248:	13050513          	addi	a0,a0,304 # 82130 <avgpooling_output+0x268>
    224c:	796000ef          	jal	ra,29e2 <printf>
    2250:	00082537          	lui	a0,0x82
    2254:	014005b3          	add	a1,zero,s4
    2258:	14850513          	addi	a0,a0,328 # 82148 <avgpooling_output+0x280>
    225c:	786000ef          	jal	ra,29e2 <printf>
    2260:	d61ff06f          	j	1fc0 <main+0x4c8>
    2264:	00082537          	lui	a0,0x82
    2268:	19850513          	addi	a0,a0,408 # 82198 <avgpooling_output+0x2d0>
    226c:	776000ef          	jal	ra,29e2 <printf>
    2270:	00082537          	lui	a0,0x82
    2274:	013005b3          	add	a1,zero,s3
    2278:	13050513          	addi	a0,a0,304 # 82130 <avgpooling_output+0x268>
    227c:	766000ef          	jal	ra,29e2 <printf>
    2280:	00082537          	lui	a0,0x82
    2284:	014005b3          	add	a1,zero,s4
    2288:	14850513          	addi	a0,a0,328 # 82148 <avgpooling_output+0x280>
    228c:	756000ef          	jal	ra,29e2 <printf>
    2290:	e3dff06f          	j	20cc <main+0x5d4>
    2294:	001fe537          	lui	a0,0x1fe
    2298:	0c050513          	addi	a0,a0,192 # 1fe0c0 <FLASH_SIZE+0xfe0c0>
    229c:	970ff0ef          	jal	ra,140c <user_calib_adc_vref.constprop.9>
    22a0:	001fe537          	lui	a0,0x1fe
    22a4:	a64ff0ef          	jal	ra,1508 <user_calib_freq_offset.constprop.8>
    22a8:	b01ff06f          	j	1da8 <main+0x2b0>
    22ac:	0507d85b          	beqc	a5,16,22fc <main+0x804>
    22b0:	0717ee5b          	bnec	a5,17,232c <main+0x834>
    22b4:	0001e537          	lui	a0,0x1e
    22b8:	0c050513          	addi	a0,a0,192 # 1e0c0 <BIN_SIZE+0x184b7>
    22bc:	950ff0ef          	jal	ra,140c <user_calib_adc_vref.constprop.9>
    22c0:	0001e537          	lui	a0,0x1e
    22c4:	a44ff0ef          	jal	ra,1508 <user_calib_freq_offset.constprop.8>
    22c8:	ae1ff06f          	j	1da8 <main+0x2b0>
    22cc:	00082537          	lui	a0,0x82
    22d0:	23850513          	addi	a0,a0,568 # 82238 <avgpooling_output+0x370>
    22d4:	70e000ef          	jal	ra,29e2 <printf>
    22d8:	00082537          	lui	a0,0x82
    22dc:	008005b3          	add	a1,zero,s0
    22e0:	26c50513          	addi	a0,a0,620 # 8226c <avgpooling_output+0x3a4>
    22e4:	6fe000ef          	jal	ra,29e2 <printf>
    22e8:	00082537          	lui	a0,0x82
    22ec:	013005b3          	add	a1,zero,s3
    22f0:	2a050513          	addi	a0,a0,672 # 822a0 <avgpooling_output+0x3d8>
    22f4:	6ee000ef          	jal	ra,29e2 <printf>
    22f8:	ee9ff06f          	j	21e0 <main+0x6e8>
    22fc:	0000e537          	lui	a0,0xe
    2300:	0c050513          	addi	a0,a0,192 # e0c0 <BIN_SIZE+0x84b7>
    2304:	908ff0ef          	jal	ra,140c <user_calib_adc_vref.constprop.9>
    2308:	0000e537          	lui	a0,0xe
    230c:	9fcff0ef          	jal	ra,1508 <user_calib_freq_offset.constprop.8>
    2310:	a99ff06f          	j	1da8 <main+0x2b0>
    2314:	0007e537          	lui	a0,0x7e
    2318:	0c050513          	addi	a0,a0,192 # 7e0c0 <BIN_SIZE+0x784b7>
    231c:	8f0ff0ef          	jal	ra,140c <user_calib_adc_vref.constprop.9>
    2320:	0007e537          	lui	a0,0x7e
    2324:	9e4ff0ef          	jal	ra,1508 <user_calib_freq_offset.constprop.8>
    2328:	a81ff06f          	j	1da8 <main+0x2b0>
    232c:	00000513          	li	a0,0
    2330:	8dcff0ef          	jal	ra,140c <user_calib_adc_vref.constprop.9>
    2334:	a75ff06f          	j	1da8 <main+0x2b0>
    2338:	00100793          	li	a5,1
    233c:	00f40123          	sb	a5,2(s0)
    2340:	c54fe0ef          	jal	ra,794 <analog_write_reg8>
    2344:	0014e593          	ori	a1,s1,1
    2348:	0ff5f593          	andi	a1,a1,255
    234c:	03900513          	li	a0,57
    2350:	c44fe0ef          	jal	ra,794 <analog_write_reg8>
    2354:	8f5ff06f          	j	1c48 <main+0x150>
    2358:	07f00513          	li	a0,127
    235c:	c7cfe0ef          	jal	ra,7d8 <analog_read_reg8>
    2360:	3b92140b          	addigp	s0,7096 # 823b8 <g_pm_status_info>
    2364:	00057a5b          	bbc	a0,0,2378 <main+0x880>
    2368:	4014fe5b          	bbs	s1,1,2384 <main+0x88c>
    236c:	01000793          	li	a5,16
    2370:	00f40123          	sb	a5,2(s0)
    2374:	8d5ff06f          	j	1c48 <main+0x150>
    2378:	00800793          	li	a5,8
    237c:	00f40123          	sb	a5,2(s0)
    2380:	8c9ff06f          	j	1c48 <main+0x150>
    2384:	02000793          	li	a5,32
    2388:	0fd4f593          	andi	a1,s1,253
    238c:	03900513          	li	a0,57
    2390:	00f40123          	sb	a5,2(s0)
    2394:	c00fe0ef          	jal	ra,794 <analog_write_reg8>
    2398:	8b1ff06f          	j	1c48 <main+0x150>

0000239c <default_irq_entry>:
    239c:	a001                	c.j	239c <default_irq_entry>

0000239e <trap_handler>:
    239e:	a001                	c.j	239e <trap_handler>
    23a0:	0001                	c.nop
	...

000023a4 <riscv_avgpool_s16_get_buffer_size>:
    23a4:	00259513          	slli	a0,a1,0x2
    23a8:	8082                	c.jr	ra
	...

000023ac <riscv_avgpool_s8_get_buffer_size>:
    23ac:	00259513          	slli	a0,a1,0x2
    23b0:	8082                	c.jr	ra
	...

000023b4 <riscv_avgpool_s8>:
    23b4:	7159                	c.addi16sp	sp,-112
    23b6:	ccd2                	c.swsp	s4,88(sp)
    23b8:	00062a03          	lw	s4,0(a2)
    23bc:	d4a2                	c.swsp	s0,104(sp)
    23be:	d2a6                	c.swsp	s1,100(sp)
    23c0:	d0ca                	c.swsp	s2,96(sp)
    23c2:	cece                	c.swsp	s3,92(sp)
    23c4:	cad6                	c.swsp	s5,84(sp)
    23c6:	c8da                	c.swsp	s6,80(sp)
    23c8:	c6de                	c.swsp	s7,76(sp)
    23ca:	c4e2                	c.swsp	s8,72(sp)
    23cc:	c0ea                	c.swsp	s10,64(sp)
    23ce:	de6e                	c.swsp	s11,60(sp)
    23d0:	d686                	c.swsp	ra,108(sp)
    23d2:	c2e6                	c.swsp	s9,68(sp)
    23d4:	0045ac03          	lw	s8,4(a1)
    23d8:	0005ad83          	lw	s11,0(a1)
    23dc:	00c5ab83          	lw	s7,12(a1)
    23e0:	0085ad03          	lw	s10,8(a1)
    23e4:	0105a903          	lw	s2,16(a1)
    23e8:	0145a983          	lw	s3,20(a1)
    23ec:	4244                	c.lw	s1,4(a2)
    23ee:	4600                	c.lw	s0,8(a2)
    23f0:	0047ab03          	lw	s6,4(a5)
    23f4:	0087aa83          	lw	s5,8(a5)
    23f8:	00472303          	lw	t1,4(a4)
    23fc:	00872e83          	lw	t4,8(a4)
    2400:	464c                	c.lw	a1,12(a2)
    2402:	17405163          	blez	s4,2564 <riscv_avgpool_s8+0x1b0>
    2406:	411c                	c.lw	a5,0(a0)
    2408:	01000cb3          	add	s9,zero,a6
    240c:	16078e63          	beqz	a5,2588 <riscv_avgpool_s8+0x1d4>
    2410:	02848733          	mul	a4,s1,s0
    2414:	035b07b3          	mul	a5,s6,s5
    2418:	02b70533          	mul	a0,a4,a1
    241c:	02b788b3          	mul	a7,a5,a1
    2420:	037407b3          	mul	a5,s0,s7
    2424:	02ba8f33          	mul	t5,s5,a1
    2428:	03840fb3          	mul	t6,s0,s8
    242c:	40f003b3          	neg	t2,a5
    2430:	11605c63          	blez	s6,2548 <riscv_avgpool_s8+0x194>
    2434:	41730e33          	sub	t3,t1,s7
    2438:	417007b3          	neg	a5,s7
    243c:	829e                	c.mv	t0,t2
    243e:	c846                	c.swsp	a7,16(sp)
    2440:	ca2a                	c.swsp	a0,20(sp)
    2442:	ce5e                	c.swsp	s7,28(sp)
    2444:	8666                	c.mv	a2,s9
    2446:	8b9e                	c.mv	s7,t2
    2448:	4801                	c.li	a6,0
    244a:	88fa                	c.mv	a7,t5
    244c:	857e                	c.mv	a0,t6
    244e:	83e6                	c.mv	t2,s9
    2450:	00612c23          	sw	t1,24(sp)
    2454:	0d505a63          	blez	s5,2528 <riscv_avgpool_s8+0x174>
    2458:	41a00f33          	neg	t5,s10
    245c:	41ae8333          	sub	t1,t4,s10
    2460:	8732                	c.mv	a4,a2
    2462:	4c81                	c.li	s9,0
    2464:	d05a                	c.swsp	s6,32(sp)
    2466:	c456                	c.swsp	s5,8(sp)
    2468:	d262                	c.swsp	s8,36(sp)
    246a:	c66e                	c.swsp	s11,12(sp)
    246c:	d476                	c.swsp	t4,40(sp)
    246e:	d66a                	c.swsp	s10,44(sp)
    2470:	4e81                	c.li	t4,0
    2472:	4c01                	c.li	s8,0
    2474:	f1d30eff          	minw	t4,t1,t4
    2478:	08b05a63          	blez	a1,250c <riscv_avgpool_s8+0x158>
    247c:	8dc2                	c.mv	s11,a6
    247e:	8866                	c.mv	a6,s9
    2480:	0fc7d263          	bge	a5,t3,2564 <riscv_avgpool_s8+0x1b0>
    2484:	8b16                	c.mv	s6,t0
    2486:	8abe                	c.mv	s5,a5
    2488:	4d01                	c.li	s10,0
    248a:	4c81                	c.li	s9,0
    248c:	c04a                	c.swsp	s2,0(sp)
    248e:	c24e                	c.swsp	s3,4(sp)
    2490:	046f5063          	bge	t5,t1,24d0 <riscv_avgpool_s8+0x11c>
    2494:	020ace63          	bltz	s5,24d0 <riscv_avgpool_s8+0x11c>
    2498:	029adc63          	bge	s5,s1,24d0 <riscv_avgpool_s8+0x11c>
    249c:	01e00fb3          	add	t6,zero,t5
    24a0:	000f5863          	bgez	t5,24b0 <riscv_avgpool_s8+0xfc>
    24a4:	001f8f93          	addi	t6,t6,1
    24a8:	ffdfcee3          	blt	t6,t4,24a4 <riscv_avgpool_s8+0xf0>
    24ac:	026fd263          	bge	t6,t1,24d0 <riscv_avgpool_s8+0x11c>
    24b0:	016f89b3          	add	s3,t6,s6
    24b4:	8962                	c.mv	s2,s8
    24b6:	c4b9997f          	maddr32	s2,s3,a1
    24ba:	9936                	c.add	s2,a3
    24bc:	008fd663          	bge	t6,s0,24c8 <riscv_avgpool_s8+0x114>
    24c0:	00090983          	lb	s3,0(s2)
    24c4:	0d05                	c.addi	s10,1
    24c6:	9cce                	c.add	s9,s3
    24c8:	0f85                	c.addi	t6,1
    24ca:	992e                	c.add	s2,a1
    24cc:	fe6fc8e3          	blt	t6,t1,24bc <riscv_avgpool_s8+0x108>
    24d0:	0a85                	c.addi	s5,1
    24d2:	9b22                	c.add	s6,s0
    24d4:	fbca9ee3          	bne	s5,t3,2490 <riscv_avgpool_s8+0xdc>
    24d8:	4902                	c.lwsp	s2,0(sp)
    24da:	4992                	c.lwsp	s3,4(sp)
    24dc:	080d0463          	beqz	s10,2564 <riscv_avgpool_s8+0x1b0>
    24e0:	07905a63          	blez	s9,2554 <riscv_avgpool_s8+0x1a0>
    24e4:	401d5f93          	srai	t6,s10,0x1
    24e8:	019f8fb3          	add	t6,t6,s9
    24ec:	03afcfb3          	div	t6,t6,s10
    24f0:	01870ab3          	add	s5,a4,s8
    24f4:	0c05                	c.addi	s8,1
    24f6:	f3f90fff          	maxw	t6,s2,t6
    24fa:	f1f98fff          	minw	t6,s3,t6
    24fe:	01fa8023          	sb	t6,0(s5)
    2502:	f7859fe3          	bne	a1,s8,2480 <riscv_avgpool_s8+0xcc>
    2506:	8cc2                	c.mv	s9,a6
    2508:	01b00833          	add	a6,zero,s11
    250c:	4eb2                	c.lwsp	t4,12(sp)
    250e:	0c85                	c.addi	s9,1
    2510:	9f76                	c.add	t5,t4
    2512:	9376                	c.add	t1,t4
    2514:	4ea2                	c.lwsp	t4,8(sp)
    2516:	972e                	c.add	a4,a1
    2518:	f59e9ce3          	bne	t4,s9,2470 <riscv_avgpool_s8+0xbc>
    251c:	8af6                	c.mv	s5,t4
    251e:	5b02                	c.lwsp	s6,32(sp)
    2520:	5c12                	c.lwsp	s8,36(sp)
    2522:	4db2                	c.lwsp	s11,12(sp)
    2524:	5ea2                	c.lwsp	t4,40(sp)
    2526:	5d32                	c.lwsp	s10,44(sp)
    2528:	0805                	c.addi	a6,1
    252a:	9646                	c.add	a2,a7
    252c:	9e62                	c.add	t3,s8
    252e:	97e2                	c.add	a5,s8
    2530:	92aa                	c.add	t0,a0
    2532:	f30b11e3          	bne	s6,a6,2454 <riscv_avgpool_s8+0xa0>
    2536:	8f46                	c.mv	t5,a7
    2538:	8faa                	c.mv	t6,a0
    253a:	8c9e                	c.mv	s9,t2
    253c:	4362                	c.lwsp	t1,24(sp)
    253e:	83de                	c.mv	t2,s7
    2540:	48c2                	c.lwsp	a7,16(sp)
    2542:	4552                	c.lwsp	a0,20(sp)
    2544:	01c12b83          	lw	s7,28(sp)
    2548:	1a7d                	c.addi	s4,-1
    254a:	96aa                	c.add	a3,a0
    254c:	9cc6                	c.add	s9,a7
    254e:	ee0a11e3          	bnez	s4,2430 <riscv_avgpool_s8+0x7c>
    2552:	a819                	c.j	2568 <riscv_avgpool_s8+0x1b4>
    2554:	01fd5f93          	srli	t6,s10,0x1f
    2558:	9fea                	c.add	t6,s10
    255a:	401fdf93          	srai	t6,t6,0x1
    255e:	41fc8fb3          	sub	t6,s9,t6
    2562:	b769                	c.j	24ec <riscv_avgpool_s8+0x138>
    2564:	fff00a13          	li	s4,-1
    2568:	50b6                	c.lwsp	ra,108(sp)
    256a:	5426                	c.lwsp	s0,104(sp)
    256c:	5496                	c.lwsp	s1,100(sp)
    256e:	5906                	c.lwsp	s2,96(sp)
    2570:	49f6                	c.lwsp	s3,92(sp)
    2572:	4ad6                	c.lwsp	s5,84(sp)
    2574:	4b46                	c.lwsp	s6,80(sp)
    2576:	4bb6                	c.lwsp	s7,76(sp)
    2578:	4c26                	c.lwsp	s8,72(sp)
    257a:	4c96                	c.lwsp	s9,68(sp)
    257c:	4d06                	c.lwsp	s10,64(sp)
    257e:	5df2                	c.lwsp	s11,60(sp)
    2580:	8552                	c.mv	a0,s4
    2582:	4a66                	c.lwsp	s4,88(sp)
    2584:	6165                	c.addi16sp	sp,112
    2586:	8082                	c.jr	ra
    2588:	8556                	c.mv	a0,s5
    258a:	c636                	c.swsp	a3,12(sp)
    258c:	c476                	c.swsp	t4,8(sp)
    258e:	c21a                	c.swsp	t1,4(sp)
    2590:	c02e                	c.swsp	a1,0(sp)
    2592:	3d29                	c.jal	23ac <riscv_avgpool_s8_get_buffer_size>
    2594:	f961                	c.bnez	a0,2564 <riscv_avgpool_s8+0x1b0>
    2596:	02848733          	mul	a4,s1,s0
    259a:	035b07b3          	mul	a5,s6,s5
    259e:	4582                	c.lwsp	a1,0(sp)
    25a0:	46b2                	c.lwsp	a3,12(sp)
    25a2:	02b70533          	mul	a0,a4,a1
    25a6:	02b788b3          	mul	a7,a5,a1
    25aa:	4ea2                	c.lwsp	t4,8(sp)
    25ac:	4312                	c.lwsp	t1,4(sp)
    25ae:	bd8d                	c.j	2420 <riscv_avgpool_s8+0x6c>

000025b0 <riscv_avgpool_s16>:
    25b0:	7119                	c.addi16sp	sp,-128
    25b2:	cce6                	c.swsp	s9,88(sp)
    25b4:	0047ac83          	lw	s9,4(a5)
    25b8:	479c                	c.lw	a5,8(a5)
    25ba:	cee2                	c.swsp	s8,92(sp)
    25bc:	caea                	c.swsp	s10,84(sp)
    25be:	00862c03          	lw	s8,8(a2)
    25c2:	00462d03          	lw	s10,4(a2)
    25c6:	c83e                	c.swsp	a5,16(sp)
    25c8:	435c                	c.lw	a5,4(a4)
    25ca:	038d08b3          	mul	a7,s10,s8
    25ce:	da3e                	c.swsp	a5,52(sp)
    25d0:	471c                	c.lw	a5,8(a4)
    25d2:	00c62303          	lw	t1,12(a2)
    25d6:	dea2                	c.swsp	s0,124(sp)
    25d8:	4200                	c.lw	s0,0(a2)
    25da:	d4d6                	c.swsp	s5,104(sp)
    25dc:	d2da                	c.swsp	s6,100(sp)
    25de:	c8ee                	c.swsp	s11,80(sp)
    25e0:	dca6                	c.swsp	s1,120(sp)
    25e2:	daca                	c.swsp	s2,116(sp)
    25e4:	d8ce                	c.swsp	s3,112(sp)
    25e6:	d6d2                	c.swsp	s4,108(sp)
    25e8:	d0de                	c.swsp	s7,96(sp)
    25ea:	d23e                	c.swsp	a5,36(sp)
    25ec:	026882b3          	mul	t0,a7,t1
    25f0:	0045ae83          	lw	t4,4(a1)
    25f4:	0005ad83          	lw	s11,0(a1)
    25f8:	45d8                	c.lw	a4,12(a1)
    25fa:	4590                	c.lw	a2,8(a1)
    25fc:	0105ab03          	lw	s6,16(a1)
    2600:	0145aa83          	lw	s5,20(a1)
    2604:	1a805a63          	blez	s0,27b8 <riscv_avgpool_s16+0x208>
    2608:	00052a03          	lw	s4,0(a0) # 7e000 <BIN_SIZE+0x783f7>
    260c:	1a0a0663          	beqz	s4,27b8 <riscv_avgpool_s16+0x208>
    2610:	40e00533          	neg	a0,a4
    2614:	8bb6                	c.mv	s7,a3
    2616:	dc3a                	c.swsp	a4,56(sp)
    2618:	86c2                	c.mv	a3,a6
    261a:	872a                	c.mv	a4,a0
    261c:	02512e23          	sw	t0,60(sp)
    2620:	19905263          	blez	s9,27a4 <riscv_avgpool_s16+0x1f4>
    2624:	038302b3          	mul	t0,t1,s8
    2628:	00231793          	slli	a5,t1,0x2
    262c:	5e62                	c.lwsp	t3,56(sp)
    262e:	40c005b3          	neg	a1,a2
    2632:	00131893          	slli	a7,t1,0x1
    2636:	0286                	c.slli	t0,0x1
    2638:	97d2                	c.add	a5,s4
    263a:	8f3a                	c.mv	t5,a4
    263c:	4f81                	c.li	t6,0
    263e:	83f6                	c.mv	t2,t4
    2640:	853a                	c.mv	a0,a4
    2642:	d82e                	c.swsp	a1,48(sp)
    2644:	02c12623          	sw	a2,44(sp)
    2648:	4742                	c.lwsp	a4,16(sp)
    264a:	14e05363          	blez	a4,2790 <riscv_avgpool_s16+0x1e0>
    264e:	4701                	c.li	a4,0
    2650:	f2ee05ff          	maxw	a1,t3,a4
    2654:	01e58733          	add	a4,a1,t5
    2658:	03870733          	mul	a4,a4,s8
    265c:	01cd0933          	add	s2,s10,t3
    2660:	5842                	c.lwsp	a6,48(sp)
    2662:	d43a                	c.swsp	a4,40(sp)
    2664:	5752                	c.lwsp	a4,52(sp)
    2666:	8ef2                	c.mv	t4,t3
    2668:	f0e9097f          	minw	s2,s2,a4
    266c:	5732                	c.lwsp	a4,44(sp)
    266e:	c0ea                	c.swsp	s10,64(sp)
    2670:	4601                	c.li	a2,0
    2672:	8d7e                	c.mv	s10,t6
    2674:	8e22                	c.mv	t3,s0
    2676:	8faa                	c.mv	t6,a0
    2678:	8562                	c.mv	a0,s8
    267a:	c2e6                	c.swsp	s9,68(sp)
    267c:	c49e                	c.swsp	t2,72(sp)
    267e:	c6fa                	c.swsp	t5,76(sp)
    2680:	4401                	c.li	s0,0
    2682:	f2870c7f          	maxw	s8,a4,s0
    2686:	5412                	c.lwsp	s0,36(sp)
    2688:	00e509b3          	add	s3,a0,a4
    268c:	f08989ff          	minw	s3,s3,s0
    2690:	1325d463          	bge	a1,s2,27b8 <riscv_avgpool_s16+0x208>
    2694:	5422                	c.lwsp	s0,40(sp)
    2696:	8f5e                	c.mv	t5,s7
    2698:	008803b3          	add	t2,a6,s0
    269c:	93e2                	c.add	t2,s8
    269e:	c5139f7f          	maddr32	t5,t2,a7
    26a2:	cc6e                	c.swsp	s11,24(sp)
    26a4:	84ae                	c.mv	s1,a1
    26a6:	9f46                	c.add	t5,a7
    26a8:	4381                	c.li	t2,0
    26aa:	41898cb3          	sub	s9,s3,s8
    26ae:	8dea                	c.mv	s11,s10
    26b0:	ca2a                	c.swsp	a0,20(sp)
    26b2:	ce5a                	c.swsp	s6,28(sp)
    26b4:	03512023          	sw	s5,32(sp)
    26b8:	073c5463          	bge	s8,s3,2720 <riscv_avgpool_s16+0x170>
    26bc:	007c8b33          	add	s6,s9,t2
    26c0:	0e039a63          	bnez	t2,27b4 <riscv_avgpool_s16+0x204>
    26c4:	411f0533          	sub	a0,t5,a7
    26c8:	01400433          	add	s0,zero,s4
    26cc:	00605a63          	blez	t1,26e0 <riscv_avgpool_s16+0x130>
    26d0:	00051a83          	lh	s5,0(a0)
    26d4:	0509                	c.addi	a0,2
    26d6:	0411                	c.addi	s0,4
    26d8:	ff542e23          	sw	s5,-4(s0)
    26dc:	ffe51ae3          	bne	a0,t5,26d0 <riscv_avgpool_s16+0x120>
    26e0:	01e00d33          	add	s10,zero,t5
    26e4:	0385                	c.addi	t2,1
    26e6:	9d46                	c.add	s10,a7
    26e8:	03638c63          	beq	t2,s6,2720 <riscv_avgpool_s16+0x170>
    26ec:	411d0433          	sub	s0,s10,a7
    26f0:	8552                	c.mv	a0,s4
    26f2:	fe6059e3          	blez	t1,26e4 <riscv_avgpool_s16+0x134>
    26f6:	8ac6                	c.mv	s5,a7
    26f8:	00f12623          	sw	a5,12(sp)
    26fc:	00041883          	lh	a7,0(s0)
    2700:	411c                	c.lw	a5,0(a0)
    2702:	00f898ff          	kaddw	a7,a7,a5
    2706:	01152023          	sw	a7,0(a0)
    270a:	0409                	c.addi	s0,2
    270c:	0511                	c.addi	a0,4
    270e:	ffa417e3          	bne	s0,s10,26fc <riscv_avgpool_s16+0x14c>
    2712:	88d6                	c.mv	a7,s5
    2714:	0385                	c.addi	t2,1
    2716:	47b2                	c.lwsp	a5,12(sp)
    2718:	011d0d33          	add	s10,s10,a7
    271c:	fd6398e3          	bne	t2,s6,26ec <riscv_avgpool_s16+0x13c>
    2720:	0485                	c.addi	s1,1
    2722:	9f16                	c.add	t5,t0
    2724:	f8991ae3          	bne	s2,s1,26b8 <riscv_avgpool_s16+0x108>
    2728:	8d6e                	c.mv	s10,s11
    272a:	4552                	c.lwsp	a0,20(sp)
    272c:	4b72                	c.lwsp	s6,28(sp)
    272e:	5a82                	c.lwsp	s5,32(sp)
    2730:	4de2                	c.lwsp	s11,24(sp)
    2732:	08038363          	beqz	t2,27b8 <riscv_avgpool_s16+0x208>
    2736:	4013dc13          	srai	s8,t2,0x1
    273a:	89b6                	c.mv	s3,a3
    273c:	01400433          	add	s0,zero,s4
    2740:	02605663          	blez	t1,276c <riscv_avgpool_s16+0x1bc>
    2744:	4004                	c.lw	s1,0(s0)
    2746:	0411                	c.addi	s0,4
    2748:	41848f33          	sub	t5,s1,s8
    274c:	00905463          	blez	s1,2754 <riscv_avgpool_s16+0x1a4>
    2750:	009c0f33          	add	t5,s8,s1
    2754:	027f4f33          	div	t5,t5,t2
    2758:	00298993          	addi	s3,s3,2
    275c:	f3eb0f7f          	maxw	t5,s6,t5
    2760:	f1ea8f7f          	minw	t5,s5,t5
    2764:	ffe99f23          	sh	t5,-2(s3)
    2768:	fc879ee3          	bne	a5,s0,2744 <riscv_avgpool_s16+0x194>
    276c:	4442                	c.lwsp	s0,16(sp)
    276e:	0605                	c.addi	a2,1
    2770:	96c6                	c.add	a3,a7
    2772:	986e                	c.add	a6,s11
    2774:	41b70733          	sub	a4,a4,s11
    2778:	f0c414e3          	bne	s0,a2,2680 <riscv_avgpool_s16+0xd0>
    277c:	8c2a                	c.mv	s8,a0
    277e:	4c96                	c.lwsp	s9,68(sp)
    2780:	857e                	c.mv	a0,t6
    2782:	43a6                	c.lwsp	t2,72(sp)
    2784:	8fea                	c.mv	t6,s10
    2786:	4f36                	c.lwsp	t5,76(sp)
    2788:	4d06                	c.lwsp	s10,64(sp)
    278a:	8472                	c.mv	s0,t3
    278c:	01d00e33          	add	t3,zero,t4
    2790:	0f85                	c.addi	t6,1
    2792:	9f1e                	c.add	t5,t2
    2794:	407e0e33          	sub	t3,t3,t2
    2798:	ebfc98e3          	bne	s9,t6,2648 <riscv_avgpool_s16+0x98>
    279c:	5632                	c.lwsp	a2,44(sp)
    279e:	8e9e                	c.mv	t4,t2
    27a0:	00a00733          	add	a4,zero,a0
    27a4:	57f2                	c.lwsp	a5,60(sp)
    27a6:	147d                	c.addi	s0,-1
    27a8:	0786                	c.slli	a5,0x1
    27aa:	9bbe                	c.add	s7,a5
    27ac:	e6041ae3          	bnez	s0,2620 <riscv_avgpool_s16+0x70>
    27b0:	00c0006f          	j	27bc <riscv_avgpool_s16+0x20c>
    27b4:	8d7a                	c.mv	s10,t5
    27b6:	bf1d                	c.j	26ec <riscv_avgpool_s16+0x13c>
    27b8:	fff00413          	li	s0,-1
    27bc:	8522                	c.mv	a0,s0
    27be:	5476                	c.lwsp	s0,124(sp)
    27c0:	54e6                	c.lwsp	s1,120(sp)
    27c2:	5956                	c.lwsp	s2,116(sp)
    27c4:	59c6                	c.lwsp	s3,112(sp)
    27c6:	5a36                	c.lwsp	s4,108(sp)
    27c8:	5aa6                	c.lwsp	s5,104(sp)
    27ca:	5b16                	c.lwsp	s6,100(sp)
    27cc:	5b86                	c.lwsp	s7,96(sp)
    27ce:	4c76                	c.lwsp	s8,92(sp)
    27d0:	4ce6                	c.lwsp	s9,88(sp)
    27d2:	4d56                	c.lwsp	s10,84(sp)
    27d4:	4dc6                	c.lwsp	s11,80(sp)
    27d6:	6109                	c.addi16sp	sp,128
    27d8:	8082                	c.jr	ra

000027da <malloc>:
    27da:	5f7002ef          	jal	t0,35d0 <__riscv_save_0>
    27de:	85aa                	c.mv	a1,a0
    27e0:	3992252b          	lwgp	a0,7064 # 82398 <_impure_ptr>
    27e4:	22b9                	c.jal	2932 <_malloc_r>
    27e6:	60f0006f          	j	35f4 <__riscv_restore_0>

000027ea <free>:
    27ea:	5e7002ef          	jal	t0,35d0 <__riscv_save_0>
    27ee:	85aa                	c.mv	a1,a0
    27f0:	3992252b          	lwgp	a0,7064 # 82398 <_impure_ptr>
    27f4:	207d                	c.jal	28a2 <_free_r>
    27f6:	5ff0006f          	j	35f4 <__riscv_restore_0>

000027fa <memset>:
    27fa:	433d                	c.li	t1,15
    27fc:	872a                	c.mv	a4,a0
    27fe:	02c37363          	bgeu	t1,a2,2824 <memset+0x2a>
    2802:	00f77793          	andi	a5,a4,15
    2806:	efbd                	c.bnez	a5,2884 <memset+0x8a>
    2808:	e5ad                	c.bnez	a1,2872 <memset+0x78>
    280a:	ff067693          	andi	a3,a2,-16
    280e:	8a3d                	c.andi	a2,15
    2810:	96ba                	c.add	a3,a4
    2812:	c30c                	c.sw	a1,0(a4)
    2814:	c34c                	c.sw	a1,4(a4)
    2816:	c70c                	c.sw	a1,8(a4)
    2818:	c74c                	c.sw	a1,12(a4)
    281a:	0741                	c.addi	a4,16
    281c:	fed76be3          	bltu	a4,a3,2812 <memset+0x18>
    2820:	e211                	c.bnez	a2,2824 <memset+0x2a>
    2822:	8082                	c.jr	ra
    2824:	40c306b3          	sub	a3,t1,a2
    2828:	068a                	c.slli	a3,0x2
    282a:	00000297          	auipc	t0,0x0
    282e:	9696                	c.add	a3,t0
    2830:	00a68067          	jr	10(a3)
    2834:	00b70723          	sb	a1,14(a4)
    2838:	00b706a3          	sb	a1,13(a4)
    283c:	00b70623          	sb	a1,12(a4)
    2840:	00b705a3          	sb	a1,11(a4)
    2844:	00b70523          	sb	a1,10(a4)
    2848:	00b704a3          	sb	a1,9(a4)
    284c:	00b70423          	sb	a1,8(a4)
    2850:	00b703a3          	sb	a1,7(a4)
    2854:	00b70323          	sb	a1,6(a4)
    2858:	00b702a3          	sb	a1,5(a4)
    285c:	00b70223          	sb	a1,4(a4)
    2860:	00b701a3          	sb	a1,3(a4)
    2864:	00b70123          	sb	a1,2(a4)
    2868:	00b700a3          	sb	a1,1(a4)
    286c:	00b70023          	sb	a1,0(a4)
    2870:	8082                	c.jr	ra
    2872:	0ff5f593          	andi	a1,a1,255
    2876:	00859693          	slli	a3,a1,0x8
    287a:	8dd5                	c.or	a1,a3
    287c:	01059693          	slli	a3,a1,0x10
    2880:	8dd5                	c.or	a1,a3
    2882:	b761                	c.j	280a <memset+0x10>
    2884:	00279693          	slli	a3,a5,0x2
    2888:	00000297          	auipc	t0,0x0
    288c:	9696                	c.add	a3,t0
    288e:	8286                	c.mv	t0,ra
    2890:	fa8680e7          	jalr	-88(a3)
    2894:	8096                	c.mv	ra,t0
    2896:	17c1                	c.addi	a5,-16
    2898:	8f1d                	c.sub	a4,a5
    289a:	963e                	c.add	a2,a5
    289c:	f8c374e3          	bgeu	t1,a2,2824 <memset+0x2a>
    28a0:	b7a5                	c.j	2808 <memset+0xe>

000028a2 <_free_r>:
    28a2:	c5b5                	c.beqz	a1,290e <_free_r+0x6c>
    28a4:	ffc5a703          	lw	a4,-4(a1)
    28a8:	ffc58793          	addi	a5,a1,-4
    28ac:	00075363          	bgez	a4,28b2 <_free_r+0x10>
    28b0:	97ba                	c.add	a5,a4
    28b2:	3c12272b          	lwgp	a4,7104 # 823c0 <__malloc_free_list>
    28b6:	85b6                	c.mv	a1,a3
    28b8:	e711                	c.bnez	a4,28c4 <_free_r+0x22>
    28ba:	0007a223          	sw	zero,4(a5)
    28be:	3cf240ab          	swgp	a5,7104 # 823c0 <__malloc_free_list>
    28c2:	8082                	c.jr	ra
    28c4:	02e7f063          	bgeu	a5,a4,28e4 <_free_r+0x42>
    28c8:	4390                	c.lw	a2,0(a5)
    28ca:	00c786b3          	add	a3,a5,a2
    28ce:	00d71663          	bne	a4,a3,28da <_free_r+0x38>
    28d2:	4314                	c.lw	a3,0(a4)
    28d4:	4358                	c.lw	a4,4(a4)
    28d6:	96b2                	c.add	a3,a2
    28d8:	c394                	c.sw	a3,0(a5)
    28da:	c3d8                	c.sw	a4,4(a5)
    28dc:	3cf240ab          	swgp	a5,7104 # 823c0 <__malloc_free_list>
    28e0:	8082                	c.jr	ra
    28e2:	8736                	c.mv	a4,a3
    28e4:	4354                	c.lw	a3,4(a4)
    28e6:	c299                	c.beqz	a3,28ec <_free_r+0x4a>
    28e8:	fed7fde3          	bgeu	a5,a3,28e2 <_free_r+0x40>
    28ec:	4310                	c.lw	a2,0(a4)
    28ee:	00c705b3          	add	a1,a4,a2
    28f2:	00f59f63          	bne	a1,a5,2910 <_free_r+0x6e>
    28f6:	439c                	c.lw	a5,0(a5)
    28f8:	97b2                	c.add	a5,a2
    28fa:	c31c                	c.sw	a5,0(a4)
    28fc:	00f70633          	add	a2,a4,a5
    2900:	00c69763          	bne	a3,a2,290e <_free_r+0x6c>
    2904:	4290                	c.lw	a2,0(a3)
    2906:	97b2                	c.add	a5,a2
    2908:	c31c                	c.sw	a5,0(a4)
    290a:	42dc                	c.lw	a5,4(a3)
    290c:	c35c                	c.sw	a5,4(a4)
    290e:	8082                	c.jr	ra
    2910:	00b7f663          	bgeu	a5,a1,291c <_free_r+0x7a>
    2914:	4731                	c.li	a4,12
    2916:	3ce248ab          	swgp	a4,7120 # 823d0 <__mculib_REENT_errno>
    291a:	8082                	c.jr	ra
    291c:	438c                	c.lw	a1,0(a5)
    291e:	00b78633          	add	a2,a5,a1
    2922:	00c69663          	bne	a3,a2,292e <_free_r+0x8c>
    2926:	4290                	c.lw	a2,0(a3)
    2928:	42d4                	c.lw	a3,4(a3)
    292a:	962e                	c.add	a2,a1
    292c:	c390                	c.sw	a2,0(a5)
    292e:	c3d4                	c.sw	a3,4(a5)
    2930:	bff1                	c.j	290c <_free_r+0x6a>

00002932 <_malloc_r>:
    2932:	49f002ef          	jal	t0,35d0 <__riscv_save_0>
    2936:	00358493          	addi	s1,a1,3
    293a:	98f1                	c.andi	s1,-4
    293c:	04a1                	c.addi	s1,8
    293e:	47b1                	c.li	a5,12
    2940:	06f4f263          	bgeu	s1,a5,29a4 <_malloc_r+0x72>
    2944:	44b1                	c.li	s1,12
    2946:	06b4e163          	bltu	s1,a1,29a8 <_malloc_r+0x76>
    294a:	3c12242b          	lwgp	s0,7104 # 823c0 <__malloc_free_list>
    294e:	3c12168b          	addigp	a3,7104 # 823c0 <__malloc_free_list>
    2952:	87a2                	c.mv	a5,s0
    2954:	cf89                	c.beqz	a5,296e <_malloc_r+0x3c>
    2956:	4398                	c.lw	a4,0(a5)
    2958:	8f05                	c.sub	a4,s1
    295a:	08074163          	bltz	a4,29dc <_malloc_r+0xaa>
    295e:	462d                	c.li	a2,11
    2960:	04e67a63          	bgeu	a2,a4,29b4 <_malloc_r+0x82>
    2964:	c398                	c.sw	a4,0(a5)
    2966:	00e78433          	add	s0,a5,a4
    296a:	c004                	c.sw	s1,0(s0)
    296c:	e821                	c.bnez	s0,29bc <_malloc_r+0x8a>
    296e:	3c52140b          	addigp	s0,7108 # 823c4 <__malloc_sbrk_start>
    2972:	401c                	c.lw	a5,0(s0)
    2974:	e789                	c.bnez	a5,297e <_malloc_r+0x4c>
    2976:	4501                	c.li	a0,0
    2978:	39f000ef          	jal	ra,3516 <_sbrk>
    297c:	c008                	c.sw	a0,0(s0)
    297e:	8526                	c.mv	a0,s1
    2980:	597d                	c.li	s2,-1
    2982:	395000ef          	jal	ra,3516 <_sbrk>
    2986:	03250163          	beq	a0,s2,29a8 <_malloc_r+0x76>
    298a:	00350413          	addi	s0,a0,3
    298e:	9871                	c.andi	s0,-4
    2990:	00a40863          	beq	s0,a0,29a0 <_malloc_r+0x6e>
    2994:	40a40533          	sub	a0,s0,a0
    2998:	37f000ef          	jal	ra,3516 <_sbrk>
    299c:	01250663          	beq	a0,s2,29a8 <_malloc_r+0x76>
    29a0:	c004                	c.sw	s1,0(s0)
    29a2:	a829                	c.j	29bc <_malloc_r+0x8a>
    29a4:	fa04d1e3          	bgez	s1,2946 <_malloc_r+0x14>
    29a8:	4731                	c.li	a4,12
    29aa:	4501                	c.li	a0,0
    29ac:	3ce248ab          	swgp	a4,7120 # 823d0 <__mculib_REENT_errno>
    29b0:	4450006f          	j	35f4 <__riscv_restore_0>
    29b4:	43d8                	c.lw	a4,4(a5)
    29b6:	02f41063          	bne	s0,a5,29d6 <_malloc_r+0xa4>
    29ba:	c298                	c.sw	a4,0(a3)
    29bc:	00b40513          	addi	a0,s0,11
    29c0:	00440793          	addi	a5,s0,4
    29c4:	9961                	c.andi	a0,-8
    29c6:	40f507b3          	sub	a5,a0,a5
    29ca:	d3fd                	c.beqz	a5,29b0 <_malloc_r+0x7e>
    29cc:	943e                	c.add	s0,a5
    29ce:	40f007b3          	neg	a5,a5
    29d2:	c01c                	c.sw	a5,0(s0)
    29d4:	bff1                	c.j	29b0 <_malloc_r+0x7e>
    29d6:	c058                	c.sw	a4,4(s0)
    29d8:	843e                	c.mv	s0,a5
    29da:	b7cd                	c.j	29bc <_malloc_r+0x8a>
    29dc:	843e                	c.mv	s0,a5
    29de:	43dc                	c.lw	a5,4(a5)
    29e0:	bf95                	c.j	2954 <_malloc_r+0x22>

000029e2 <printf>:
    29e2:	7139                	c.addi16sp	sp,-64
    29e4:	d22e                	c.swsp	a1,36(sp)
    29e6:	104c                	c.addi4spn	a1,sp,36
    29e8:	ce06                	c.swsp	ra,28(sp)
    29ea:	d432                	c.swsp	a2,40(sp)
    29ec:	d636                	c.swsp	a3,44(sp)
    29ee:	d83a                	c.swsp	a4,48(sp)
    29f0:	da3e                	c.swsp	a5,52(sp)
    29f2:	dc42                	c.swsp	a6,56(sp)
    29f4:	de46                	c.swsp	a7,60(sp)
    29f6:	c62e                	c.swsp	a1,12(sp)
    29f8:	28d9                	c.jal	2ace <vprintf>
    29fa:	40f2                	c.lwsp	ra,28(sp)
    29fc:	6121                	c.addi16sp	sp,64
    29fe:	8082                	c.jr	ra

00002a00 <puts>:
    2a00:	3d1002ef          	jal	t0,35d0 <__riscv_save_0>
    2a04:	1101                	c.addi	sp,-32
    2a06:	c62a                	c.swsp	a0,12(sp)
    2a08:	2035                	c.jal	2a34 <strlen>
    2a0a:	45b2                	c.lwsp	a1,12(sp)
    2a0c:	862a                	c.mv	a2,a0
    2a0e:	4505                	c.li	a0,1
    2a10:	8a0ff0ef          	jal	ra,1ab0 <_write>
    2a14:	00054e63          	bltz	a0,2a30 <puts+0x30>
    2a18:	47a9                	c.li	a5,10
    2a1a:	4605                	c.li	a2,1
    2a1c:	01f10593          	addi	a1,sp,31
    2a20:	4505                	c.li	a0,1
    2a22:	00f10fa3          	sb	a5,31(sp)
    2a26:	88aff0ef          	jal	ra,1ab0 <_write>
    2a2a:	6105                	c.addi16sp	sp,32
    2a2c:	3c90006f          	j	35f4 <__riscv_restore_0>
    2a30:	557d                	c.li	a0,-1
    2a32:	bfe5                	c.j	2a2a <puts+0x2a>

00002a34 <strlen>:
    2a34:	00357793          	andi	a5,a0,3
    2a38:	872a                	c.mv	a4,a0
    2a3a:	e79d                	c.bnez	a5,2a68 <strlen+0x34>
    2a3c:	0511                	c.addi	a0,4
    2a3e:	ffc52783          	lw	a5,-4(a0)
    2a42:	200787db          	ffb	a5,a5,zero
    2a46:	dbfd                	c.beqz	a5,2a3c <strlen+0x8>
    2a48:	ffc54783          	lbu	a5,-4(a0)
    2a4c:	40e50733          	sub	a4,a0,a4
    2a50:	ffd54683          	lbu	a3,-3(a0)
    2a54:	ffe54603          	lbu	a2,-2(a0)
    2a58:	c795                	c.beqz	a5,2a84 <strlen+0x50>
    2a5a:	c28d                	c.beqz	a3,2a7c <strlen+0x48>
    2a5c:	ca05                	c.beqz	a2,2a8c <strlen+0x58>
    2a5e:	fff70513          	addi	a0,a4,-1
    2a62:	8082                	c.jr	ra
    2a64:	fc068ce3          	beqz	a3,2a3c <strlen+0x8>
    2a68:	00054783          	lbu	a5,0(a0)
    2a6c:	0505                	c.addi	a0,1
    2a6e:	00357693          	andi	a3,a0,3
    2a72:	fbed                	c.bnez	a5,2a64 <strlen+0x30>
    2a74:	8d19                	c.sub	a0,a4
    2a76:	157d                	c.addi	a0,-1
    2a78:	00008067          	ret
    2a7c:	ffd70513          	addi	a0,a4,-3
    2a80:	00008067          	ret
    2a84:	ffc70513          	addi	a0,a4,-4
    2a88:	00008067          	ret
    2a8c:	ffe70513          	addi	a0,a4,-2
    2a90:	8082                	c.jr	ra
    2a92:	0001                	c.nop

00002a94 <__vprintf_help>:
    2a94:	33d002ef          	jal	t0,35d0 <__riscv_save_0>
    2a98:	3d5227ab          	lwgp	a5,7124 # 823d4 <__printf_count>
    2a9c:	0785                	c.addi	a5,1
    2a9e:	3cf24aab          	swgp	a5,7124 # 823d4 <__printf_count>
    2aa2:	3cd2140b          	addigp	s0,7116 # 823cc <__vprintf_buf_len>
    2aa6:	3c9225ab          	lwgp	a1,7112 # 823c8 <__vprintf_buf>
    2aaa:	401c                	c.lw	a5,0(s0)
    2aac:	00178713          	addi	a4,a5,1
    2ab0:	97ae                	c.add	a5,a1
    2ab2:	c018                	c.sw	a4,0(s0)
    2ab4:	00a78023          	sb	a0,0(a5)
    2ab8:	4007695b          	bnec	a4,64,2aca <__vprintf_help+0x36>
    2abc:	04000613          	li	a2,64
    2ac0:	4505                	c.li	a0,1
    2ac2:	feffe0ef          	jal	ra,1ab0 <_write>
    2ac6:	00042023          	sw	zero,0(s0)
    2aca:	32b0006f          	j	35f4 <__riscv_restore_0>

00002ace <vprintf>:
    2ace:	1141                	c.addi	sp,-16
    2ad0:	c606                	c.swsp	ra,12(sp)
    2ad2:	c422                	c.swsp	s0,8(sp)
    2ad4:	c226                	c.swsp	s1,4(sp)
    2ad6:	c04a                	c.swsp	s2,0(sp)
    2ad8:	0800                	c.addi4spn	s0,sp,16
    2ada:	715d                	c.addi16sp	sp,-80
    2adc:	00f10793          	addi	a5,sp,15
    2ae0:	00003637          	lui	a2,0x3
    2ae4:	9bc1                	c.andi	a5,-16
    2ae6:	3c92148b          	addigp	s1,7112 # 823c8 <__vprintf_buf>
    2aea:	3cd2190b          	addigp	s2,7116 # 823cc <__vprintf_buf_len>
    2aee:	a9460613          	addi	a2,a2,-1388 # 2a94 <__vprintf_help>
    2af2:	c09c                	c.sw	a5,0(s1)
    2af4:	00092023          	sw	zero,0(s2)
    2af8:	20ad                	c.jal	2b62 <__printf_impl>
    2afa:	00092603          	lw	a2,0(s2)
    2afe:	408c                	c.lw	a1,0(s1)
    2b00:	4505                	c.li	a0,1
    2b02:	faffe0ef          	jal	ra,1ab0 <_write>
    2b06:	3d52252b          	lwgp	a0,7124 # 823d4 <__printf_count>
    2b0a:	ff040113          	addi	sp,s0,-16
    2b0e:	40b2                	c.lwsp	ra,12(sp)
    2b10:	4422                	c.lwsp	s0,8(sp)
    2b12:	4492                	c.lwsp	s1,4(sp)
    2b14:	4902                	c.lwsp	s2,0(sp)
    2b16:	0141                	c.addi	sp,16
    2b18:	8082                	c.jr	ra

00002b1a <__print_integral>:
    2b1a:	2b7002ef          	jal	t0,35d0 <__riscv_save_0>
    2b1e:	1101                	c.addi	sp,-32
    2b20:	842a                	c.mv	s0,a0
    2b22:	84ae                	c.mv	s1,a1
    2b24:	8932                	c.mv	s2,a2
    2b26:	c636                	c.swsp	a3,12(sp)
    2b28:	85be                	c.mv	a1,a5
    2b2a:	ca32                	c.swsp	a2,20(sp)
    2b2c:	853a                	c.mv	a0,a4
    2b2e:	0830                	c.addi4spn	a2,sp,24
    2b30:	214d                	c.jal	2fd2 <__int_to_poly>
    2b32:	46b2                	c.lwsp	a3,12(sp)
    2b34:	882a                	c.mv	a6,a0
    2b36:	083c                	c.addi4spn	a5,sp,24
    2b38:	0858                	c.addi4spn	a4,sp,20
    2b3a:	864a                	c.mv	a2,s2
    2b3c:	85a6                	c.mv	a1,s1
    2b3e:	8522                	c.mv	a0,s0
    2b40:	2945                	c.jal	2ff0 <__print_integral_poly>
    2b42:	3752178b          	addigp	a5,7028 # 82374 <__digits>
    2b46:	00a46563          	bltu	s0,a0,2b50 <__print_integral+0x36>
    2b4a:	6105                	c.addi16sp	sp,32
    2b4c:	2a90006f          	j	35f4 <__riscv_restore_0>
    2b50:	00044703          	lbu	a4,0(s0)
    2b54:	0405                	c.addi	s0,1
    2b56:	973e                	c.add	a4,a5
    2b58:	00070703          	lb	a4,0(a4)
    2b5c:	fee40fa3          	sb	a4,-1(s0)
    2b60:	b7dd                	c.j	2b46 <__print_integral+0x2c>

00002b62 <__printf_impl>:
    2b62:	23f002ef          	jal	t0,35a0 <__riscv_save_12>
    2b66:	a6010113          	addi	sp,sp,-1440
    2b6a:	6b05                	c.lui	s6,0x1
    2b6c:	892a                	c.mv	s2,a0
    2b6e:	842e                	c.mv	s0,a1
    2b70:	89b2                	c.mv	s3,a2
    2b72:	01c10a13          	addi	s4,sp,28
    2b76:	800b0b13          	addi	s6,s6,-2048 # 800 <analog_read_reg8+0x28>
    2b7a:	3c024aab          	swgp	zero,7124 # 823d4 <__printf_count>
    2b7e:	c456                	c.swsp	s5,8(sp)
    2b80:	00094503          	lbu	a0,0(s2)
    2b84:	e509                	c.bnez	a0,2b8e <__printf_impl+0x2c>
    2b86:	5a010113          	addi	sp,sp,1440
    2b8a:	2530006f          	j	35dc <__riscv_restore_12>
    2b8e:	00190493          	addi	s1,s2,1
    2b92:	005555db          	beqc	a0,37,2b9c <__printf_impl+0x3a>
    2b96:	9982                	c.jalr	s3
    2b98:	8926                	c.mv	s2,s1
    2b9a:	b7dd                	c.j	2b80 <__printf_impl+0x1e>
    2b9c:	00194783          	lbu	a5,1(s2)
    2ba0:	0057e8db          	bnec	a5,37,2bb0 <__printf_impl+0x4e>
    2ba4:	02500513          	li	a0,37
    2ba8:	9982                	c.jalr	s3
    2baa:	00290493          	addi	s1,s2,2
    2bae:	b7ed                	c.j	2b98 <__printf_impl+0x36>
    2bb0:	4681                	c.li	a3,0
    2bb2:	4701                	c.li	a4,0
    2bb4:	d002                	c.swsp	zero,32(sp)
    2bb6:	0004c783          	lbu	a5,0(s1)
    2bba:	0007e7db          	bnec	a5,32,2bc8 <__printf_impl+0x66>
    2bbe:	00276713          	ori	a4,a4,2
    2bc2:	0485                	c.addi	s1,1
    2bc4:	4685                	c.li	a3,1
    2bc6:	bfc5                	c.j	2bb6 <__printf_impl+0x54>
    2bc8:	00d7e5db          	bnec	a5,45,2bd2 <__printf_impl+0x70>
    2bcc:	00476713          	ori	a4,a4,4
    2bd0:	bfcd                	c.j	2bc2 <__printf_impl+0x60>
    2bd2:	00b7e5db          	bnec	a5,43,2bdc <__printf_impl+0x7a>
    2bd6:	00876713          	ori	a4,a4,8
    2bda:	b7e5                	c.j	2bc2 <__printf_impl+0x60>
    2bdc:	0037e5db          	bnec	a5,35,2be6 <__printf_impl+0x84>
    2be0:	01076713          	ori	a4,a4,16
    2be4:	bff9                	c.j	2bc2 <__printf_impl+0x60>
    2be6:	0107e5db          	bnec	a5,48,2bf0 <__printf_impl+0x8e>
    2bea:	02076713          	ori	a4,a4,32
    2bee:	bfd1                	c.j	2bc2 <__printf_impl+0x60>
    2bf0:	c291                	c.beqz	a3,2bf4 <__printf_impl+0x92>
    2bf2:	d03a                	c.swsp	a4,32(sp)
    2bf4:	04a7eadb          	bnec	a5,42,2c48 <__printf_impl+0xe6>
    2bf8:	00042c03          	lw	s8,0(s0)
    2bfc:	00440713          	addi	a4,s0,4
    2c00:	000c5863          	bgez	s8,2c10 <__printf_impl+0xae>
    2c04:	5782                	c.lwsp	a5,32(sp)
    2c06:	41800c33          	neg	s8,s8
    2c0a:	0047e793          	ori	a5,a5,4
    2c0e:	d03e                	c.swsp	a5,32(sp)
    2c10:	0485                	c.addi	s1,1
    2c12:	843a                	c.mv	s0,a4
    2c14:	0004c783          	lbu	a5,0(s1)
    2c18:	5cfd                	c.li	s9,-1
    2c1a:	06e7e4db          	bnec	a5,46,2c82 <__printf_impl+0x120>
    2c1e:	0014c783          	lbu	a5,1(s1)
    2c22:	04a7dbdb          	beqc	a5,42,2c78 <__printf_impl+0x116>
    2c26:	0485                	c.addi	s1,1
    2c28:	4c81                	c.li	s9,0
    2c2a:	4725                	c.li	a4,9
    2c2c:	4629                	c.li	a2,10
    2c2e:	0004c783          	lbu	a5,0(s1)
    2c32:	fd078793          	addi	a5,a5,-48
    2c36:	0ff7f693          	andi	a3,a5,255
    2c3a:	04d76463          	bltu	a4,a3,2c82 <__printf_impl+0x120>
    2c3e:	c4cc97ff          	maddr32	a5,s9,a2
    2c42:	0485                	c.addi	s1,1
    2c44:	8cbe                	c.mv	s9,a5
    2c46:	b7e5                	c.j	2c2e <__printf_impl+0xcc>
    2c48:	fd078793          	addi	a5,a5,-48
    2c4c:	0ff7f793          	andi	a5,a5,255
    2c50:	4725                	c.li	a4,9
    2c52:	4c01                	c.li	s8,0
    2c54:	fcf760e3          	bltu	a4,a5,2c14 <__printf_impl+0xb2>
    2c58:	4725                	c.li	a4,9
    2c5a:	4629                	c.li	a2,10
    2c5c:	a029                	c.j	2c66 <__printf_impl+0x104>
    2c5e:	c4cc17ff          	maddr32	a5,s8,a2
    2c62:	0485                	c.addi	s1,1
    2c64:	8c3e                	c.mv	s8,a5
    2c66:	0004c783          	lbu	a5,0(s1)
    2c6a:	fd078793          	addi	a5,a5,-48
    2c6e:	0ff7f693          	andi	a3,a5,255
    2c72:	fed776e3          	bgeu	a4,a3,2c5e <__printf_impl+0xfc>
    2c76:	bf79                	c.j	2c14 <__printf_impl+0xb2>
    2c78:	401c                	c.lw	a5,0(s0)
    2c7a:	0489                	c.addi	s1,2
    2c7c:	0411                	c.addi	s0,4
    2c7e:	f2fc8cff          	maxw	s9,s9,a5
    2c82:	43200613          	li	a2,1074
    2c86:	f0cc867f          	minw	a2,s9,a2
    2c8a:	0004c783          	lbu	a5,0(s1)
    2c8e:	4487efdb          	bnec	a5,104,2cec <__printf_impl+0x18a>
    2c92:	5782                	c.lwsp	a5,32(sp)
    2c94:	0014c703          	lbu	a4,1(s1)
    2c98:	448764db          	bnec	a4,104,2ce0 <__printf_impl+0x17e>
    2c9c:	0407e793          	ori	a5,a5,64
    2ca0:	00248913          	addi	s2,s1,2
    2ca4:	d03e                	c.swsp	a5,32(sp)
    2ca6:	00094503          	lbu	a0,0(s2)
    2caa:	06700793          	li	a5,103
    2cae:	0aa7e263          	bltu	a5,a0,2d52 <__printf_impl+0x1f0>
    2cb2:	06500793          	li	a5,101
    2cb6:	06f57d63          	bgeu	a0,a5,2d30 <__printf_impl+0x1ce>
    2cba:	05800793          	li	a5,88
    2cbe:	5785555b          	beqc	a0,88,2e28 <__printf_impl+0x2c6>
    2cc2:	04a7ef63          	bltu	a5,a0,2d20 <__printf_impl+0x1be>
    2cc6:	04100793          	li	a5,65
    2cca:	4615535b          	beqc	a0,65,2d30 <__printf_impl+0x1ce>
    2cce:	00f56763          	bltu	a0,a5,2cdc <__printf_impl+0x17a>
    2cd2:	fbb50793          	addi	a5,a0,-69
    2cd6:	4709                	c.li	a4,2
    2cd8:	04f77c63          	bgeu	a4,a5,2d30 <__printf_impl+0x1ce>
    2cdc:	84a2                	c.mv	s1,s0
    2cde:	a481                	c.j	2f1e <__printf_impl+0x3bc>
    2ce0:	0807e793          	ori	a5,a5,128
    2ce4:	d03e                	c.swsp	a5,32(sp)
    2ce6:	00148913          	addi	s2,s1,1
    2cea:	bf75                	c.j	2ca6 <__printf_impl+0x144>
    2cec:	40c7eddb          	bnec	a5,108,2d06 <__printf_impl+0x1a4>
    2cf0:	5782                	c.lwsp	a5,32(sp)
    2cf2:	0014c703          	lbu	a4,1(s1)
    2cf6:	40c765db          	bnec	a4,108,2d00 <__printf_impl+0x19e>
    2cfa:	2007e793          	ori	a5,a5,512
    2cfe:	b74d                	c.j	2ca0 <__printf_impl+0x13e>
    2d00:	1007e793          	ori	a5,a5,256
    2d04:	b7c5                	c.j	2ce4 <__printf_impl+0x182>
    2d06:	00148913          	addi	s2,s1,1
    2d0a:	41a7e7db          	bnec	a5,122,2d18 <__printf_impl+0x1b6>
    2d0e:	5782                	c.lwsp	a5,32(sp)
    2d10:	1007e793          	ori	a5,a5,256
    2d14:	d03e                	c.swsp	a5,32(sp)
    2d16:	bf41                	c.j	2ca6 <__printf_impl+0x144>
    2d18:	ff47dbdb          	beqc	a5,116,2d0e <__printf_impl+0x1ac>
    2d1c:	8926                	c.mv	s2,s1
    2d1e:	b761                	c.j	2ca6 <__printf_impl+0x144>
    2d20:	06300793          	li	a5,99
    2d24:	50355cdb          	beqc	a0,99,2e3c <__printf_impl+0x2da>
    2d28:	04a7e463          	bltu	a5,a0,2d70 <__printf_impl+0x20e>
    2d2c:	fa1568db          	bnec	a0,97,2cdc <__printf_impl+0x17a>
    2d30:	041d                	c.addi	s0,7
    2d32:	9861                	c.andi	s0,-8
    2d34:	00042803          	lw	a6,0(s0)
    2d38:	00442883          	lw	a7,4(s0)
    2d3c:	02057b93          	andi	s7,a0,32
    2d40:	87aa                	c.mv	a5,a0
    2d42:	86c2                	c.mv	a3,a6
    2d44:	8746                	c.mv	a4,a7
    2d46:	100c                	c.addi4spn	a1,sp,32
    2d48:	1048                	c.addi4spn	a0,sp,36
    2d4a:	00840493          	addi	s1,s0,8
    2d4e:	2e0d                	c.jal	3080 <__printf_float_impl>
    2d50:	aa45                	c.j	2f00 <__printf_impl+0x39e>
    2d52:	07000793          	li	a5,112
    2d56:	4d0559db          	beqc	a0,112,2e28 <__printf_impl+0x2c6>
    2d5a:	04a7e163          	bltu	a5,a0,2d9c <__printf_impl+0x23a>
    2d5e:	06e00793          	li	a5,110
    2d62:	5ae553db          	beqc	a0,110,2f08 <__printf_impl+0x3a6>
    2d66:	45a1                	c.li	a1,8
    2d68:	0ca7e163          	bltu	a5,a0,2e2a <__printf_impl+0x2c8>
    2d6c:	f69568db          	bnec	a0,105,2cdc <__printf_impl+0x17a>
    2d70:	5682                	c.lwsp	a3,32(sp)
    2d72:	0e66f05b          	bbc	a3,6,2e52 <__printf_impl+0x2f0>
    2d76:	00040703          	lb	a4,0(s0)
    2d7a:	00440493          	addi	s1,s0,4
    2d7e:	41f75793          	srai	a5,a4,0x1f
    2d82:	0e07df63          	bgez	a5,2e80 <__printf_impl+0x31e>
    2d86:	40e00733          	neg	a4,a4
    2d8a:	00e035b3          	snez	a1,a4
    2d8e:	40f007b3          	neg	a5,a5
    2d92:	8f8d                	c.sub	a5,a1
    2d94:	4006e693          	ori	a3,a3,1024
    2d98:	d036                	c.swsp	a3,32(sp)
    2d9a:	a0dd                	c.j	2e80 <__printf_impl+0x31e>
    2d9c:	515553db          	beqc	a0,117,2ea2 <__printf_impl+0x340>
    2da0:	498554db          	beqc	a0,120,2e28 <__printf_impl+0x2c6>
    2da4:	f3356cdb          	bnec	a0,115,2cdc <__printf_impl+0x17a>
    2da8:	00042a83          	lw	s5,0(s0)
    2dac:	85b2                	c.mv	a1,a2
    2dae:	8556                	c.mv	a0,s5
    2db0:	c632                	c.swsp	a2,12(sp)
    2db2:	27b1                	c.jal	34fe <strnlen>
    2db4:	57fd                	c.li	a5,-1
    2db6:	00440493          	addi	s1,s0,4
    2dba:	00fc8563          	beq	s9,a5,2dc4 <__printf_impl+0x262>
    2dbe:	4632                	c.lwsp	a2,12(sp)
    2dc0:	f0c5057f          	minw	a0,a0,a2
    2dc4:	00aa8433          	add	s0,s5,a0
    2dc8:	4b81                	c.li	s7,0
    2dca:	5782                	c.lwsp	a5,32(sp)
    2dcc:	02d00693          	li	a3,45
    2dd0:	40a7fb5b          	bbs	a5,10,2de6 <__printf_impl+0x284>
    2dd4:	02b00693          	li	a3,43
    2dd8:	4037f75b          	bbs	a5,3,2de6 <__printf_impl+0x284>
    2ddc:	8cd2                	c.mv	s9,s4
    2dde:	0017f85b          	bbc	a5,1,2dee <__printf_impl+0x28c>
    2de2:	02000693          	li	a3,32
    2de6:	01d10c93          	addi	s9,sp,29
    2dea:	00d10e23          	sb	a3,28(sp)
    2dee:	0167f6b3          	and	a3,a5,s6
    2df2:	ca91                	c.beqz	a3,2e06 <__printf_impl+0x2a4>
    2df4:	03000693          	li	a3,48
    2df8:	00dc8023          	sb	a3,0(s9)
    2dfc:	05800693          	li	a3,88
    2e00:	00dc80a3          	sb	a3,1(s9)
    2e04:	0c89                	c.addi	s9,2
    2e06:	5627f35b          	bbs	a5,2,2f6c <__printf_impl+0x40a>
    2e0a:	41540db3          	sub	s11,s0,s5
    2e0e:	4057fa5b          	bbs	a5,5,2e22 <__printf_impl+0x2c0>
    2e12:	41bc0d33          	sub	s10,s8,s11
    2e16:	414c87b3          	sub	a5,s9,s4
    2e1a:	40fd0d33          	sub	s10,s10,a5
    2e1e:	17a04663          	bgtz	s10,2f8a <__printf_impl+0x428>
    2e22:	8d52                	c.mv	s10,s4
    2e24:	9c52                	c.add	s8,s4
    2e26:	aaad                	c.j	2fa0 <__printf_impl+0x43e>
    2e28:	45c1                	c.li	a1,16
    2e2a:	5782                	c.lwsp	a5,32(sp)
    2e2c:	0667fd5b          	bbc	a5,6,2ea6 <__printf_impl+0x344>
    2e30:	00044703          	lbu	a4,0(s0)
    2e34:	00440493          	addi	s1,s0,4
    2e38:	4781                	c.li	a5,0
    2e3a:	a859                	c.j	2ed0 <__printf_impl+0x36e>
    2e3c:	401c                	c.lw	a5,0(s0)
    2e3e:	00440493          	addi	s1,s0,4
    2e42:	4b81                	c.li	s7,0
    2e44:	02510413          	addi	s0,sp,37
    2e48:	02f10223          	sb	a5,36(sp)
    2e4c:	02410a93          	addi	s5,sp,36
    2e50:	bfad                	c.j	2dca <__printf_impl+0x268>
    2e52:	0076f75b          	bbc	a3,7,2e60 <__printf_impl+0x2fe>
    2e56:	00440493          	addi	s1,s0,4
    2e5a:	00041703          	lh	a4,0(s0)
    2e5e:	b705                	c.j	2d7e <__printf_impl+0x21c>
    2e60:	0086f65b          	bbc	a3,8,2e6c <__printf_impl+0x30a>
    2e64:	00440493          	addi	s1,s0,4
    2e68:	4018                	c.lw	a4,0(s0)
    2e6a:	bf11                	c.j	2d7e <__printf_impl+0x21c>
    2e6c:	be96fc5b          	bbc	a3,9,2e64 <__printf_impl+0x302>
    2e70:	041d                	c.addi	s0,7
    2e72:	9861                	c.andi	s0,-8
    2e74:	405c                	c.lw	a5,4(s0)
    2e76:	00840493          	addi	s1,s0,8
    2e7a:	4018                	c.lw	a4,0(s0)
    2e7c:	0007c963          	bltz	a5,2e8e <__printf_impl+0x32c>
    2e80:	56fd                	c.li	a3,-1
    2e82:	45a9                	c.li	a1,10
    2e84:	4b81                	c.li	s7,0
    2e86:	04dc9a63          	bne	s9,a3,2eda <__printf_impl+0x378>
    2e8a:	4605                	c.li	a2,1
    2e8c:	a0b5                	c.j	2ef8 <__printf_impl+0x396>
    2e8e:	ee071ce3          	bnez	a4,2d86 <__printf_impl+0x224>
    2e92:	800005b7          	lui	a1,0x80000
    2e96:	eeb798e3          	bne	a5,a1,2d86 <__printf_impl+0x224>
    2e9a:	4701                	c.li	a4,0
    2e9c:	800007b7          	lui	a5,0x80000
    2ea0:	bdd5                	c.j	2d94 <__printf_impl+0x232>
    2ea2:	45a9                	c.li	a1,10
    2ea4:	b759                	c.j	2e2a <__printf_impl+0x2c8>
    2ea6:	0077f75b          	bbc	a5,7,2eb4 <__printf_impl+0x352>
    2eaa:	00440493          	addi	s1,s0,4
    2eae:	00045703          	lhu	a4,0(s0)
    2eb2:	b759                	c.j	2e38 <__printf_impl+0x2d6>
    2eb4:	0087f65b          	bbc	a5,8,2ec0 <__printf_impl+0x35e>
    2eb8:	00440493          	addi	s1,s0,4
    2ebc:	4018                	c.lw	a4,0(s0)
    2ebe:	bfad                	c.j	2e38 <__printf_impl+0x2d6>
    2ec0:	be97fc5b          	bbc	a5,9,2eb8 <__printf_impl+0x356>
    2ec4:	041d                	c.addi	s0,7
    2ec6:	9861                	c.andi	s0,-8
    2ec8:	4018                	c.lw	a4,0(s0)
    2eca:	405c                	c.lw	a5,4(s0)
    2ecc:	00840493          	addi	s1,s0,8
    2ed0:	56fd                	c.li	a3,-1
    2ed2:	02057b93          	andi	s7,a0,32
    2ed6:	02dc8763          	beq	s9,a3,2f04 <__printf_impl+0x3a2>
    2eda:	5682                	c.lwsp	a3,32(sp)
    2edc:	fdf6f693          	andi	a3,a3,-33
    2ee0:	d036                	c.swsp	a3,32(sp)
    2ee2:	0105eb5b          	bnec	a1,16,2ef8 <__printf_impl+0x396>
    2ee6:	5682                	c.lwsp	a3,32(sp)
    2ee8:	0046f85b          	bbc	a3,4,2ef8 <__printf_impl+0x396>
    2eec:	00f76533          	or	a0,a4,a5
    2ef0:	c501                	c.beqz	a0,2ef8 <__printf_impl+0x396>
    2ef2:	0166e6b3          	or	a3,a3,s6
    2ef6:	d036                	c.swsp	a3,32(sp)
    2ef8:	86b2                	c.mv	a3,a2
    2efa:	5602                	c.lwsp	a2,32(sp)
    2efc:	1048                	c.addi4spn	a0,sp,36
    2efe:	3931                	c.jal	2b1a <__print_integral>
    2f00:	842a                	c.mv	s0,a0
    2f02:	b7a9                	c.j	2e4c <__printf_impl+0x2ea>
    2f04:	4605                	c.li	a2,1
    2f06:	bff1                	c.j	2ee2 <__printf_impl+0x380>
    2f08:	45a2                	c.lwsp	a1,8(sp)
    2f0a:	5682                	c.lwsp	a3,32(sp)
    2f0c:	00440493          	addi	s1,s0,4
    2f10:	3d5227ab          	lwgp	a5,7124 # 823d4 <__printf_count>
    2f14:	4018                	c.lw	a4,0(s0)
    2f16:	0066f85b          	bbc	a3,6,2f26 <__printf_impl+0x3c4>
    2f1a:	00f70023          	sb	a5,0(a4)
    2f1e:	1040                	c.addi4spn	s0,sp,36
    2f20:	4b81                	c.li	s7,0
    2f22:	8aa2                	c.mv	s5,s0
    2f24:	b55d                	c.j	2dca <__printf_impl+0x268>
    2f26:	0076f55b          	bbc	a3,7,2f30 <__printf_impl+0x3ce>
    2f2a:	00f71023          	sh	a5,0(a4)
    2f2e:	bfc5                	c.j	2f1e <__printf_impl+0x3bc>
    2f30:	c31c                	c.sw	a5,0(a4)
    2f32:	fe86f65b          	bbs	a3,8,2f1e <__printf_impl+0x3bc>
    2f36:	be96f45b          	bbc	a3,9,2f1e <__printf_impl+0x3bc>
    2f3a:	87fd                	c.srai	a5,0x1f
    2f3c:	c35c                	c.sw	a5,4(a4)
    2f3e:	b7c5                	c.j	2f1e <__printf_impl+0x3bc>
    2f40:	000dc503          	lbu	a0,0(s11)
    2f44:	0d85                	c.addi	s11,1
    2f46:	01756533          	or	a0,a0,s7
    2f4a:	9982                	c.jalr	s3
    2f4c:	41bc0d33          	sub	s10,s8,s11
    2f50:	ff9de8e3          	bltu	s11,s9,2f40 <__printf_impl+0x3de>
    2f54:	8c56                	c.mv	s8,s5
    2f56:	01841e63          	bne	s0,s8,2f72 <__printf_impl+0x410>
    2f5a:	41540433          	sub	s0,s0,s5
    2f5e:	408d0433          	sub	s0,s10,s0
    2f62:	00804f63          	bgtz	s0,2f80 <__printf_impl+0x41e>
    2f66:	0905                	c.addi	s2,1
    2f68:	8426                	c.mv	s0,s1
    2f6a:	b919                	c.j	2b80 <__printf_impl+0x1e>
    2f6c:	8dd2                	c.mv	s11,s4
    2f6e:	9c52                	c.add	s8,s4
    2f70:	bff1                	c.j	2f4c <__printf_impl+0x3ea>
    2f72:	000c4503          	lbu	a0,0(s8)
    2f76:	0c05                	c.addi	s8,1
    2f78:	01756533          	or	a0,a0,s7
    2f7c:	9982                	c.jalr	s3
    2f7e:	bfe1                	c.j	2f56 <__printf_impl+0x3f4>
    2f80:	02000513          	li	a0,32
    2f84:	9982                	c.jalr	s3
    2f86:	147d                	c.addi	s0,-1
    2f88:	bfe9                	c.j	2f62 <__printf_impl+0x400>
    2f8a:	02000513          	li	a0,32
    2f8e:	9982                	c.jalr	s3
    2f90:	1d7d                	c.addi	s10,-1
    2f92:	b571                	c.j	2e1e <__printf_impl+0x2bc>
    2f94:	000d4503          	lbu	a0,0(s10)
    2f98:	0d05                	c.addi	s10,1
    2f9a:	01756533          	or	a0,a0,s7
    2f9e:	9982                	c.jalr	s3
    2fa0:	41ac07b3          	sub	a5,s8,s10
    2fa4:	ff9d68e3          	bltu	s10,s9,2f94 <__printf_impl+0x432>
    2fa8:	5682                	c.lwsp	a3,32(sp)
    2faa:	0056f65b          	bbc	a3,5,2fb6 <__printf_impl+0x454>
    2fae:	41b78db3          	sub	s11,a5,s11
    2fb2:	01b04b63          	bgtz	s11,2fc8 <__printf_impl+0x466>
    2fb6:	fb5408e3          	beq	s0,s5,2f66 <__printf_impl+0x404>
    2fba:	000ac503          	lbu	a0,0(s5)
    2fbe:	0a85                	c.addi	s5,1
    2fc0:	01756533          	or	a0,a0,s7
    2fc4:	9982                	c.jalr	s3
    2fc6:	bfc5                	c.j	2fb6 <__printf_impl+0x454>
    2fc8:	03000513          	li	a0,48
    2fcc:	9982                	c.jalr	s3
    2fce:	1dfd                	c.addi	s11,-1
    2fd0:	b7cd                	c.j	2fb2 <__printf_impl+0x450>

00002fd2 <__int_to_poly>:
    2fd2:	872a                	c.mv	a4,a0
    2fd4:	87ae                	c.mv	a5,a1
    2fd6:	4501                	c.li	a0,0
    2fd8:	00f766b3          	or	a3,a4,a5
    2fdc:	e291                	c.bnez	a3,2fe0 <__int_to_poly+0xe>
    2fde:	8082                	c.jr	ra
    2fe0:	00e61023          	sh	a4,0(a2)
    2fe4:	0505                	c.addi	a0,1
    2fe6:	df07077f          	wexti	a4,a4,16
    2fea:	0609                	c.addi	a2,2
    2fec:	83c1                	c.srli	a5,0x10
    2fee:	b7ed                	c.j	2fd8 <__int_to_poly+0x6>

00002ff0 <__print_integral_poly>:
    2ff0:	5e0002ef          	jal	t0,35d0 <__riscv_save_0>
    2ff4:	88c2                	c.mv	a7,a6
    2ff6:	84ba                	c.mv	s1,a4
    2ff8:	187d                	c.addi	a6,-1
    2ffa:	0b17875b          	lea.h	a4,a5,a7
    2ffe:	8342                	c.mv	t1,a6
    3000:	4401                	c.li	s0,0
    3002:	8e3a                	c.mv	t3,a4
    3004:	1779                	c.addi	a4,-2
    3006:	02035463          	bgez	t1,302e <__print_integral_poly+0x3e>
    300a:	05105063          	blez	a7,304a <__print_integral_poly+0x5a>
    300e:	ffee5703          	lhu	a4,-2(t3)
    3012:	eb15                	c.bnez	a4,3046 <__print_integral_poly+0x56>
    3014:	03005b63          	blez	a6,304a <__print_integral_poly+0x5a>
    3018:	8726                	c.mv	a4,s1
    301a:	16fd                	c.addi	a3,-1
    301c:	3fd1                	c.jal	2ff0 <__print_integral_poly>
    301e:	87aa                	c.mv	a5,a0
    3020:	0505                	c.addi	a0,1
    3022:	00878023          	sb	s0,0(a5) # 80000000 <_DATA_LMA_START+0x5fffc7b8>
    3026:	409c                	c.lw	a5,0(s1)
    3028:	0785                	c.addi	a5,1
    302a:	c09c                	c.sw	a5,0(s1)
    302c:	a3e1                	c.j	35f4 <__riscv_restore_0>
    302e:	00075e83          	lhu	t4,0(a4)
    3032:	0442                	c.slli	s0,0x10
    3034:	9476                	c.add	s0,t4
    3036:	02b45eb3          	divu	t4,s0,a1
    303a:	137d                	c.addi	t1,-1
    303c:	02b47433          	remu	s0,s0,a1
    3040:	01d71023          	sh	t4,0(a4)
    3044:	b7c1                	c.j	3004 <__print_integral_poly+0x14>
    3046:	8846                	c.mv	a6,a7
    3048:	bfc1                	c.j	3018 <__print_integral_poly+0x28>
    304a:	c011                	c.beqz	s0,304e <__print_integral_poly+0x5e>
    304c:	16fd                	c.addi	a3,-1
    304e:	00d04763          	bgtz	a3,305c <__print_integral_poly+0x6c>
    3052:	0085ee5b          	bnec	a1,8,306e <__print_integral_poly+0x7e>
    3056:	00467c5b          	bbc	a2,4,306e <__print_integral_poly+0x7e>
    305a:	4685                	c.li	a3,1
    305c:	87aa                	c.mv	a5,a0
    305e:	40a78733          	sub	a4,a5,a0
    3062:	00d74b63          	blt	a4,a3,3078 <__print_integral_poly+0x88>
    3066:	4781                	c.li	a5,0
    3068:	f2f686ff          	maxw	a3,a3,a5
    306c:	9536                	c.add	a0,a3
    306e:	dc45                	c.beqz	s0,3026 <__print_integral_poly+0x36>
    3070:	00850023          	sb	s0,0(a0)
    3074:	0505                	c.addi	a0,1
    3076:	bf45                	c.j	3026 <__print_integral_poly+0x36>
    3078:	0785                	c.addi	a5,1
    307a:	fe078fa3          	sb	zero,-1(a5)
    307e:	b7c5                	c.j	305e <__print_integral_poly+0x6e>

00003080 <__printf_float_impl>:
    3080:	520002ef          	jal	t0,35a0 <__riscv_save_12>
    3084:	0df7fc13          	andi	s8,a5,223
    3088:	8b2a                	c.mv	s6,a0
    308a:	892e                	c.mv	s2,a1
    308c:	7169                	c.addi16sp	sp,-304
    308e:	84b2                	c.mv	s1,a2
    3090:	8536                	c.mv	a0,a3
    3092:	85ba                	c.mv	a1,a4
    3094:	8a3e                	c.mv	s4,a5
    3096:	467c6c5b          	bnec	s8,71,310e <__printf_float_impl+0x8e>
    309a:	00092983          	lw	s3,0(s2)
    309e:	0109c993          	xori	s3,s3,16
    30a2:	1049a9db          	bfoz	s3,s3,4,4
    30a6:	0604da63          	bgez	s1,311a <__printf_float_impl+0x9a>
    30aa:	4499                	c.li	s1,6
    30ac:	401c635b          	bnec	s8,65,30b2 <__printf_float_impl+0x32>
    30b0:	44b5                	c.li	s1,13
    30b2:	dff5047f          	wexti	s0,a0,31
    30b6:	8055                	c.srli	s0,0x15
    30b8:	8aaa                	c.mv	s5,a0
    30ba:	4c05ad5b          	bfoz	s10,a1,19,0
    30be:	0005d863          	bgez	a1,30ce <__printf_float_impl+0x4e>
    30c2:	00092783          	lw	a5,0(s2)
    30c6:	4007e793          	ori	a5,a5,1024
    30ca:	00f92023          	sw	a5,0(s2)
    30ce:	401c6a5b          	bnec	s8,65,30e2 <__printf_float_impl+0x62>
    30d2:	00092783          	lw	a5,0(s2)
    30d6:	6705                	c.lui	a4,0x1
    30d8:	80070713          	addi	a4,a4,-2048 # 800 <analog_read_reg8+0x28>
    30dc:	8fd9                	c.or	a5,a4
    30de:	00f92023          	sw	a5,0(s2)
    30e2:	7ff00793          	li	a5,2047
    30e6:	04f41563          	bne	s0,a5,3130 <__printf_float_impl+0xb0>
    30ea:	00092783          	lw	a5,0(s2)
    30ee:	00ad66b3          	or	a3,s10,a0
    30f2:	fdf7f793          	andi	a5,a5,-33
    30f6:	00f92023          	sw	a5,0(s2)
    30fa:	c695                	c.beqz	a3,3126 <__printf_float_impl+0xa6>
    30fc:	000825b7          	lui	a1,0x82
    3100:	38458593          	addi	a1,a1,900 # 82384 <__digits+0x10>
    3104:	855a                	c.mv	a0,s6
    3106:	2ead                	c.jal	3480 <strcpy>
    3108:	050d                	c.addi	a0,3
    310a:	6155                	c.addi16sp	sp,304
    310c:	a9c1                	c.j	35dc <__riscv_restore_12>
    310e:	4981                	c.li	s3,0
    3110:	f81c6b5b          	bnec	s8,65,30a6 <__printf_float_impl+0x26>
    3114:	01f65993          	srli	s3,a2,0x1f
    3118:	b779                	c.j	30a6 <__printf_float_impl+0x26>
    311a:	fcc1                	c.bnez	s1,30b2 <__printf_float_impl+0x32>
    311c:	fb9c0493          	addi	s1,s8,-71
    3120:	0014b493          	seqz	s1,s1
    3124:	b779                	c.j	30b2 <__printf_float_impl+0x32>
    3126:	000825b7          	lui	a1,0x82
    312a:	38858593          	addi	a1,a1,904 # 82388 <__digits+0x14>
    312e:	bfd9                	c.j	3104 <__printf_float_impl+0x84>
    3130:	e811                	c.bnez	s0,3144 <__printf_float_impl+0xc4>
    3132:	00ad66b3          	or	a3,s10,a0
    3136:	c0300413          	li	s0,-1021
    313a:	18069363          	bnez	a3,32c0 <__printf_float_impl+0x240>
    313e:	03500413          	li	s0,53
    3142:	a829                	c.j	315c <__printf_float_impl+0xdc>
    3144:	00100db7          	lui	s11,0x100
    3148:	01adedb3          	or	s11,s11,s10
    314c:	c0240413          	addi	s0,s0,-1022
    3150:	03400793          	li	a5,52
    3154:	8aaa                	c.mv	s5,a0
    3156:	8d6e                	c.mv	s10,s11
    3158:	1687d263          	bge	a5,s0,32bc <__printf_float_impl+0x23c>
    315c:	fcb40413          	addi	s0,s0,-53
    3160:	00445b93          	srli	s7,s0,0x4
    3164:	001b9c93          	slli	s9,s7,0x1
    3168:	8666                	c.mv	a2,s9
    316a:	4581                	c.li	a1,0
    316c:	1008                	c.addi4spn	a0,sp,32
    316e:	e8cff0ef          	jal	ra,27fa <memset>
    3172:	883d                	c.andi	s0,15
    3174:	1a0c                	c.addi4spn	a1,sp,304
    3176:	9cae                	c.add	s9,a1
    3178:	8622                	c.mv	a2,s0
    317a:	8556                	c.mv	a0,s5
    317c:	85ea                	c.mv	a1,s10
    317e:	2ecd                	c.jal	3570 <__ashldi3>
    3180:	4641                	c.li	a2,16
    3182:	eeac9823          	sh	a0,-272(s9)
    3186:	1014                	c.addi4spn	a3,sp,32
    3188:	0b85                	c.addi	s7,1
    318a:	8e01                	c.sub	a2,s0
    318c:	8556                	c.mv	a0,s5
    318e:	85ea                	c.mv	a1,s10
    3190:	0b768cdb          	lea.h	s9,a3,s7
    3194:	2675                	c.jal	3540 <__lshrdi3>
    3196:	8666                	c.mv	a2,s9
    3198:	3d2d                	c.jal	2fd2 <__int_to_poly>
    319a:	4c81                	c.li	s9,0
    319c:	9baa                	c.add	s7,a0
    319e:	57fd                	c.li	a5,-1
    31a0:	ce3e                	c.swsp	a5,28(sp)
    31a2:	4429                	c.li	s0,10
    31a4:	401c635b          	bnec	s8,65,31aa <__printf_float_impl+0x12a>
    31a8:	4441                	c.li	s0,16
    31aa:	885e                	c.mv	a6,s7
    31ac:	101c                	c.addi4spn	a5,sp,32
    31ae:	4685                	c.li	a3,1
    31b0:	0878                	c.addi4spn	a4,sp,28
    31b2:	4601                	c.li	a2,0
    31b4:	85a2                	c.mv	a1,s0
    31b6:	855a                	c.mv	a0,s6
    31b8:	3d25                	c.jal	2ff0 <__print_integral_poly>
    31ba:	02e00793          	li	a5,46
    31be:	00f50023          	sb	a5,0(a0)
    31c2:	001bbb93          	seqz	s7,s7
    31c6:	0dba7a13          	andi	s4,s4,219
    31ca:	00150693          	addi	a3,a0,1
    31ce:	87de                	c.mv	a5,s7
    31d0:	401a535b          	beqc	s4,65,31d6 <__printf_float_impl+0x156>
    31d4:	4781                	c.li	a5,0
    31d6:	00148713          	addi	a4,s1,1
    31da:	973e                	c.add	a4,a5
    31dc:	fffc8893          	addi	a7,s9,-1
    31e0:	001c9613          	slli	a2,s9,0x1
    31e4:	112c                	c.addi4spn	a1,sp,168
    31e6:	95b2                	c.add	a1,a2
    31e8:	8846                	c.mv	a6,a7
    31ea:	4781                	c.li	a5,0
    31ec:	15f9                	c.addi	a1,-2
    31ee:	16085d63          	bgez	a6,3368 <__printf_float_impl+0x2e8>
    31f2:	01905863          	blez	s9,3202 <__printf_float_impl+0x182>
    31f6:	1a0c                	c.addi4spn	a1,sp,304
    31f8:	962e                	c.add	a2,a1
    31fa:	f7665603          	lhu	a2,-138(a2)
    31fe:	e211                	c.bnez	a2,3202 <__printf_float_impl+0x182>
    3200:	8cc6                	c.mv	s9,a7
    3202:	160b8c63          	beqz	s7,337a <__printf_float_impl+0x2fa>
    3206:	4672                	c.lwsp	a2,28(sp)
    3208:	0017bb93          	seqz	s7,a5
    320c:	167d                	c.addi	a2,-1
    320e:	ce32                	c.swsp	a2,28(sp)
    3210:	0685                	c.addi	a3,1
    3212:	fef68fa3          	sb	a5,-1(a3)
    3216:	f379                	c.bnez	a4,31dc <__printf_float_impl+0x15c>
    3218:	567c645b          	bnec	s8,71,3380 <__printf_float_impl+0x300>
    321c:	47f2                	c.lwsp	a5,28(sp)
    321e:	fff48713          	addi	a4,s1,-1
    3222:	1897d163          	bge	a5,s1,33a4 <__printf_float_impl+0x324>
    3226:	5671                	c.li	a2,-4
    3228:	16c7ce63          	blt	a5,a2,33a4 <__printf_float_impl+0x324>
    322c:	40f704b3          	sub	s1,a4,a5
    3230:	04600c13          	li	s8,70
    3234:	0489                	c.addi	s1,2
    3236:	9526                	c.add	a0,s1
    3238:	fff54683          	lbu	a3,-1(a0)
    323c:	40145713          	srai	a4,s0,0x1
    3240:	fff50793          	addi	a5,a0,-1
    3244:	00e6a6b3          	slt	a3,a3,a4
    3248:	0016c693          	xori	a3,a3,1
    324c:	863e                	c.mv	a2,a5
    324e:	1acb7663          	bgeu	s6,a2,33fa <__printf_float_impl+0x37a>
    3252:	18069263          	bnez	a3,33d6 <__printf_float_impl+0x356>
    3256:	17fd                	c.addi	a5,-1
    3258:	00178513          	addi	a0,a5,1
    325c:	00fb7763          	bgeu	s6,a5,326a <__printf_float_impl+0x1ea>
    3260:	00098563          	beqz	s3,326a <__printf_float_impl+0x1ea>
    3264:	0007c703          	lbu	a4,0(a5)
    3268:	d77d                	c.beqz	a4,3256 <__printf_float_impl+0x1d6>
    326a:	fff54783          	lbu	a5,-1(a0)
    326e:	00e7e7db          	bnec	a5,46,327c <__printf_float_impl+0x1fc>
    3272:	00092783          	lw	a5,0(s2)
    3276:	4047f35b          	bbs	a5,4,327c <__printf_float_impl+0x1fc>
    327a:	157d                	c.addi	a0,-1
    327c:	46bd                	c.li	a3,15
    327e:	3752170b          	addigp	a4,7028 # 82374 <__digits>
    3282:	1aab6a63          	bltu	s6,a0,3436 <__printf_float_impl+0x3b6>
    3286:	5c5c635b          	bnec	s8,69,344c <__printf_float_impl+0x3cc>
    328a:	01850023          	sb	s8,0(a0)
    328e:	4772                	c.lwsp	a4,28(sp)
    3290:	02d00793          	li	a5,45
    3294:	00074463          	bltz	a4,329c <__printf_float_impl+0x21c>
    3298:	02b00793          	li	a5,43
    329c:	00f500a3          	sb	a5,1(a0)
    32a0:	47f2                	c.lwsp	a5,28(sp)
    32a2:	4689                	c.li	a3,2
    32a4:	40f00733          	neg	a4,a5
    32a8:	f2f7077f          	maxw	a4,a4,a5
    32ac:	41f75793          	srai	a5,a4,0x1f
    32b0:	4601                	c.li	a2,0
    32b2:	45a9                	c.li	a1,10
    32b4:	0509                	c.addi	a0,2
    32b6:	865ff0ef          	jal	ra,2b1a <__print_integral>
    32ba:	bd81                	c.j	310a <__printf_float_impl+0x8a>
    32bc:	06804363          	bgtz	s0,3322 <__printf_float_impl+0x2a2>
    32c0:	40800433          	neg	s0,s0
    32c4:	00445b93          	srli	s7,s0,0x4
    32c8:	001b9d93          	slli	s11,s7,0x1
    32cc:	866e                	c.mv	a2,s11
    32ce:	4581                	c.li	a1,0
    32d0:	1128                	c.addi4spn	a0,sp,168
    32d2:	d28ff0ef          	jal	ra,27fa <memset>
    32d6:	112c                	c.addi4spn	a1,sp,168
    32d8:	883d                	c.andi	s0,15
    32da:	9dae                	c.add	s11,a1
    32dc:	02540413          	addi	s0,s0,37
    32e0:	876e                	c.mv	a4,s11
    32e2:	4c81                	c.li	s9,0
    32e4:	001c8793          	addi	a5,s9,1
    32e8:	8622                	c.mv	a2,s0
    32ea:	8556                	c.mv	a0,s5
    32ec:	85ea                	c.mv	a1,s10
    32ee:	c63a                	c.swsp	a4,12(sp)
    32f0:	c43e                	c.swsp	a5,8(sp)
    32f2:	24b9                	c.jal	3540 <__lshrdi3>
    32f4:	4732                	c.lwsp	a4,12(sp)
    32f6:	1441                	c.addi	s0,-16
    32f8:	00a71023          	sh	a0,0(a4)
    32fc:	47a2                	c.lwsp	a5,8(sp)
    32fe:	0709                	c.addi	a4,2
    3300:	00045f63          	bgez	s0,331e <__printf_float_impl+0x29e>
    3304:	0afd8ddb          	lea.h	s11,s11,a5
    3308:	40800633          	neg	a2,s0
    330c:	8556                	c.mv	a0,s5
    330e:	85ea                	c.mv	a1,s10
    3310:	0c89                	c.addi	s9,2
    3312:	2cb9                	c.jal	3570 <__ashldi3>
    3314:	9cde                	c.add	s9,s7
    3316:	00ad9023          	sh	a0,0(s11) # 100000 <FLASH_SIZE>
    331a:	4b81                	c.li	s7,0
    331c:	b549                	c.j	319e <__printf_float_impl+0x11e>
    331e:	8cbe                	c.mv	s9,a5
    3320:	b7d1                	c.j	32e4 <__printf_float_impl+0x264>
    3322:	03500613          	li	a2,53
    3326:	8e01                	c.sub	a2,s0
    3328:	85ee                	c.mv	a1,s11
    332a:	2c19                	c.jal	3540 <__lshrdi3>
    332c:	1010                	c.addi4spn	a2,sp,32
    332e:	3155                	c.jal	2fd2 <__int_to_poly>
    3330:	02500793          	li	a5,37
    3334:	8baa                	c.mv	s7,a0
    3336:	40878433          	sub	s0,a5,s0
    333a:	0a810d13          	addi	s10,sp,168
    333e:	4c81                	c.li	s9,0
    3340:	0c85                	c.addi	s9,1
    3342:	00045a63          	bgez	s0,3356 <__printf_float_impl+0x2d6>
    3346:	40800633          	neg	a2,s0
    334a:	8556                	c.mv	a0,s5
    334c:	85ee                	c.mv	a1,s11
    334e:	240d                	c.jal	3570 <__ashldi3>
    3350:	00ad1023          	sh	a0,0(s10)
    3354:	b5a9                	c.j	319e <__printf_float_impl+0x11e>
    3356:	8622                	c.mv	a2,s0
    3358:	8556                	c.mv	a0,s5
    335a:	85ee                	c.mv	a1,s11
    335c:	22d5                	c.jal	3540 <__lshrdi3>
    335e:	1441                	c.addi	s0,-16
    3360:	00ad1023          	sh	a0,0(s10)
    3364:	0d09                	c.addi	s10,2
    3366:	bfe9                	c.j	3340 <__printf_float_impl+0x2c0>
    3368:	0005d303          	lhu	t1,0(a1)
    336c:	187d                	c.addi	a6,-1
    336e:	c48317ff          	maddr32	a5,t1,s0
    3372:	00f59023          	sh	a5,0(a1)
    3376:	83c1                	c.srli	a5,0x10
    3378:	bd95                	c.j	31ec <__printf_float_impl+0x16c>
    337a:	177d                	c.addi	a4,-1
    337c:	4b81                	c.li	s7,0
    337e:	bd49                	c.j	3210 <__printf_float_impl+0x190>
    3380:	8726                	c.mv	a4,s1
    3382:	ea6c595b          	beqc	s8,70,3234 <__printf_float_impl+0x1b4>
    3386:	47f2                	c.lwsp	a5,28(sp)
    3388:	001b0613          	addi	a2,s6,1
    338c:	02f04463          	bgtz	a5,33b4 <__printf_float_impl+0x334>
    3390:	c785                	c.beqz	a5,33b8 <__printf_float_impl+0x338>
    3392:	40f507b3          	sub	a5,a0,a5
    3396:	02d7e963          	bltu	a5,a3,33c8 <__printf_float_impl+0x348>
    339a:	001b0783          	lb	a5,1(s6)
    339e:	00fb0023          	sb	a5,0(s6)
    33a2:	a819                	c.j	33b8 <__printf_float_impl+0x338>
    33a4:	04500c13          	li	s8,69
    33a8:	bff9                	c.j	3386 <__printf_float_impl+0x306>
    33aa:	fff50783          	lb	a5,-1(a0)
    33ae:	157d                	c.addi	a0,-1
    33b0:	00f500a3          	sb	a5,1(a0)
    33b4:	fec51be3          	bne	a0,a2,33aa <__printf_float_impl+0x32a>
    33b8:	02e00793          	li	a5,46
    33bc:	001b0513          	addi	a0,s6,1
    33c0:	00fb00a3          	sb	a5,1(s6)
    33c4:	84ba                	c.mv	s1,a4
    33c6:	b5bd                	c.j	3234 <__printf_float_impl+0x1b4>
    33c8:	0785                	c.addi	a5,1
    33ca:	fff7c603          	lbu	a2,-1(a5)
    33ce:	0505                	c.addi	a0,1
    33d0:	fec50fa3          	sb	a2,-1(a0)
    33d4:	b7c9                	c.j	3396 <__printf_float_impl+0x316>
    33d6:	167d                	c.addi	a2,-1
    33d8:	00064703          	lbu	a4,0(a2)
    33dc:	a6e759db          	beqc	a4,46,324e <__printf_float_impl+0x1ce>
    33e0:	0705                	c.addi	a4,1
    33e2:	0ff77713          	andi	a4,a4,255
    33e6:	00875663          	bge	a4,s0,33f2 <__printf_float_impl+0x372>
    33ea:	00e60023          	sb	a4,0(a2)
    33ee:	4681                	c.li	a3,0
    33f0:	bdb9                	c.j	324e <__printf_float_impl+0x1ce>
    33f2:	8f01                	c.sub	a4,s0
    33f4:	00e60023          	sb	a4,0(a2)
    33f8:	bd99                	c.j	324e <__printf_float_impl+0x1ce>
    33fa:	873e                	c.mv	a4,a5
    33fc:	e4068de3          	beqz	a3,3256 <__printf_float_impl+0x1d6>
    3400:	02eb6363          	bltu	s6,a4,3426 <__printf_float_impl+0x3a6>
    3404:	4705                	c.li	a4,1
    3406:	00eb0023          	sb	a4,0(s6)
    340a:	4772                	c.lwsp	a4,28(sp)
    340c:	0705                	c.addi	a4,1
    340e:	ce3a                	c.swsp	a4,28(sp)
    3410:	426c515b          	beqc	s8,70,3432 <__printf_float_impl+0x3b2>
    3414:	001b0703          	lb	a4,1(s6)
    3418:	00eb0123          	sb	a4,2(s6)
    341c:	02e00713          	li	a4,46
    3420:	00eb00a3          	sb	a4,1(s6)
    3424:	bd0d                	c.j	3256 <__printf_float_impl+0x1d6>
    3426:	fff70683          	lb	a3,-1(a4)
    342a:	177d                	c.addi	a4,-1
    342c:	00d700a3          	sb	a3,1(a4)
    3430:	bfc1                	c.j	3400 <__printf_float_impl+0x380>
    3432:	87aa                	c.mv	a5,a0
    3434:	b50d                	c.j	3256 <__printf_float_impl+0x1d6>
    3436:	000b4783          	lbu	a5,0(s6)
    343a:	00f6e763          	bltu	a3,a5,3448 <__printf_float_impl+0x3c8>
    343e:	97ba                	c.add	a5,a4
    3440:	00078783          	lb	a5,0(a5)
    3444:	00fb0023          	sb	a5,0(s6)
    3448:	0b05                	c.addi	s6,1
    344a:	bd25                	c.j	3282 <__printf_float_impl+0x202>
    344c:	ca1c6f5b          	bnec	s8,65,310a <__printf_float_impl+0x8a>
    3450:	05000793          	li	a5,80
    3454:	00f50023          	sb	a5,0(a0)
    3458:	4772                	c.lwsp	a4,28(sp)
    345a:	02d00793          	li	a5,45
    345e:	00074463          	bltz	a4,3466 <__printf_float_impl+0x3e6>
    3462:	02b00793          	li	a5,43
    3466:	00f500a3          	sb	a5,1(a0)
    346a:	47f2                	c.lwsp	a5,28(sp)
    346c:	4685                	c.li	a3,1
    346e:	40f00733          	neg	a4,a5
    3472:	f2f7077f          	maxw	a4,a4,a5
    3476:	070a                	c.slli	a4,0x2
    3478:	41f75793          	srai	a5,a4,0x1f
    347c:	bd15                	c.j	32b0 <__printf_float_impl+0x230>
	...

00003480 <strcpy>:
    3480:	00b567b3          	or	a5,a0,a1
    3484:	8b8d                	c.andi	a5,3
    3486:	e3ad                	c.bnez	a5,34e8 <strcpy+0x68>
    3488:	4198                	c.lw	a4,0(a1)
    348a:	200707db          	ffb	a5,a4,zero
    348e:	e3a9                	c.bnez	a5,34d0 <strcpy+0x50>
    3490:	00a007b3          	add	a5,zero,a0
    3494:	0591                	c.addi	a1,4
    3496:	0791                	c.addi	a5,4
    3498:	fee7ae23          	sw	a4,-4(a5)
    349c:	4198                	c.lw	a4,0(a1)
    349e:	200706db          	ffb	a3,a4,zero
    34a2:	daed                	c.beqz	a3,3494 <strcpy+0x14>
    34a4:	0005c703          	lbu	a4,0(a1)
    34a8:	0015c683          	lbu	a3,1(a1)
    34ac:	0025c603          	lbu	a2,2(a1)
    34b0:	00e78023          	sb	a4,0(a5)
    34b4:	00070863          	beqz	a4,34c4 <strcpy+0x44>
    34b8:	00d780a3          	sb	a3,1(a5)
    34bc:	c681                	c.beqz	a3,34c4 <strcpy+0x44>
    34be:	00c78123          	sb	a2,2(a5)
    34c2:	e219                	c.bnez	a2,34c8 <strcpy+0x48>
    34c4:	00008067          	ret
    34c8:	000781a3          	sb	zero,3(a5)
    34cc:	00008067          	ret
    34d0:	0005c703          	lbu	a4,0(a1)
    34d4:	87aa                	c.mv	a5,a0
    34d6:	0015c683          	lbu	a3,1(a1)
    34da:	0025c603          	lbu	a2,2(a1)
    34de:	00e78023          	sb	a4,0(a5)
    34e2:	fb79                	c.bnez	a4,34b8 <strcpy+0x38>
    34e4:	fe1ff06f          	j	34c4 <strcpy+0x44>
    34e8:	00a007b3          	add	a5,zero,a0
    34ec:	0005c703          	lbu	a4,0(a1)
    34f0:	0785                	c.addi	a5,1
    34f2:	fee78fa3          	sb	a4,-1(a5)
    34f6:	0585                	c.addi	a1,1
    34f8:	fb75                	c.bnez	a4,34ec <strcpy+0x6c>
    34fa:	8082                	c.jr	ra
    34fc:	0001                	c.nop

000034fe <strnlen>:
    34fe:	95aa                	c.add	a1,a0
    3500:	87aa                	c.mv	a5,a0
    3502:	00b78563          	beq	a5,a1,350c <strnlen+0xe>
    3506:	0007c703          	lbu	a4,0(a5)
    350a:	e701                	c.bnez	a4,3512 <strnlen+0x14>
    350c:	40a78533          	sub	a0,a5,a0
    3510:	8082                	c.jr	ra
    3512:	0785                	c.addi	a5,1
    3514:	b7fd                	c.j	3502 <strnlen+0x4>

00003516 <_sbrk>:
    3516:	3d92272b          	lwgp	a4,7128 # 823d8 <heap_end.2408>
    351a:	3d92178b          	addigp	a5,7128 # 823d8 <heap_end.2408>
    351e:	e701                	c.bnez	a4,3526 <_sbrk+0x10>
    3520:	4092170b          	addigp	a4,7176 # 82408 <_end>
    3524:	c398                	c.sw	a4,0(a5)
    3526:	4398                	c.lw	a4,0(a5)
    3528:	953a                	c.add	a0,a4
    352a:	00a17763          	bgeu	sp,a0,3538 <_sbrk+0x22>
    352e:	4731                	c.li	a4,12
    3530:	3ce248ab          	swgp	a4,7120 # 823d0 <__mculib_REENT_errno>
    3534:	557d                	c.li	a0,-1
    3536:	8082                	c.jr	ra
    3538:	c388                	c.sw	a0,0(a5)
    353a:	853a                	c.mv	a0,a4
    353c:	8082                	c.jr	ra
	...

00003540 <__lshrdi3>:
    3540:	ce11                	c.beqz	a2,355c <__lshrdi3+0x1c>
    3542:	02000793          	li	a5,32
    3546:	8f91                	c.sub	a5,a2
    3548:	00f05c63          	blez	a5,3560 <__lshrdi3+0x20>
    354c:	00c55533          	srl	a0,a0,a2
    3550:	00f597b3          	sll	a5,a1,a5
    3554:	00c5d633          	srl	a2,a1,a2
    3558:	8d5d                	c.or	a0,a5
    355a:	85b2                	c.mv	a1,a2
    355c:	00008067          	ret
    3560:	40f00533          	neg	a0,a5
    3564:	4601                	c.li	a2,0
    3566:	00a5d533          	srl	a0,a1,a0
    356a:	85b2                	c.mv	a1,a2
    356c:	bfc5                	c.j	355c <__lshrdi3+0x1c>
    356e:	0001                	c.nop

00003570 <__ashldi3>:
    3570:	ce11                	c.beqz	a2,358c <__ashldi3+0x1c>
    3572:	02000793          	li	a5,32
    3576:	8f91                	c.sub	a5,a2
    3578:	00f05c63          	blez	a5,3590 <__ashldi3+0x20>
    357c:	00c595b3          	sll	a1,a1,a2
    3580:	00f557b3          	srl	a5,a0,a5
    3584:	00c51633          	sll	a2,a0,a2
    3588:	8ddd                	c.or	a1,a5
    358a:	8532                	c.mv	a0,a2
    358c:	00008067          	ret
    3590:	40f005b3          	neg	a1,a5
    3594:	4601                	c.li	a2,0
    3596:	00b515b3          	sll	a1,a0,a1
    359a:	8532                	c.mv	a0,a2
    359c:	bfc5                	c.j	358c <__ashldi3+0x1c>
    359e:	0001                	c.nop

000035a0 <__riscv_save_12>:
    35a0:	7139                	c.addi16sp	sp,-64
    35a2:	4301                	c.li	t1,0
    35a4:	c66e                	c.swsp	s11,12(sp)
    35a6:	a019                	c.j	35ac <__riscv_save_10+0x4>

000035a8 <__riscv_save_10>:
    35a8:	7139                	c.addi16sp	sp,-64
    35aa:	5341                	c.li	t1,-16
    35ac:	c86a                	c.swsp	s10,16(sp)
    35ae:	ca66                	c.swsp	s9,20(sp)
    35b0:	cc62                	c.swsp	s8,24(sp)
    35b2:	ce5e                	c.swsp	s7,28(sp)
    35b4:	a019                	c.j	35ba <__riscv_save_4+0x4>

000035b6 <__riscv_save_4>:
    35b6:	7139                	c.addi16sp	sp,-64
    35b8:	5301                	c.li	t1,-32
    35ba:	d05a                	c.swsp	s6,32(sp)
    35bc:	d256                	c.swsp	s5,36(sp)
    35be:	d452                	c.swsp	s4,40(sp)
    35c0:	d64e                	c.swsp	s3,44(sp)
    35c2:	d84a                	c.swsp	s2,48(sp)
    35c4:	da26                	c.swsp	s1,52(sp)
    35c6:	dc22                	c.swsp	s0,56(sp)
    35c8:	de06                	c.swsp	ra,60(sp)
    35ca:	40610133          	sub	sp,sp,t1
    35ce:	8282                	c.jr	t0

000035d0 <__riscv_save_0>:
    35d0:	1141                	c.addi	sp,-16
    35d2:	c04a                	c.swsp	s2,0(sp)
    35d4:	c226                	c.swsp	s1,4(sp)
    35d6:	c422                	c.swsp	s0,8(sp)
    35d8:	c606                	c.swsp	ra,12(sp)
    35da:	8282                	c.jr	t0

000035dc <__riscv_restore_12>:
    35dc:	4db2                	c.lwsp	s11,12(sp)
    35de:	0141                	c.addi	sp,16

000035e0 <__riscv_restore_10>:
    35e0:	4d02                	c.lwsp	s10,0(sp)
    35e2:	4c92                	c.lwsp	s9,4(sp)
    35e4:	4c22                	c.lwsp	s8,8(sp)
    35e6:	4bb2                	c.lwsp	s7,12(sp)
    35e8:	0141                	c.addi	sp,16

000035ea <__riscv_restore_4>:
    35ea:	4b02                	c.lwsp	s6,0(sp)
    35ec:	4a92                	c.lwsp	s5,4(sp)
    35ee:	4a22                	c.lwsp	s4,8(sp)
    35f0:	49b2                	c.lwsp	s3,12(sp)
    35f2:	0141                	c.addi	sp,16

000035f4 <__riscv_restore_0>:
    35f4:	4902                	c.lwsp	s2,0(sp)
    35f6:	4492                	c.lwsp	s1,4(sp)
    35f8:	4422                	c.lwsp	s0,8(sp)
    35fa:	40b2                	c.lwsp	ra,12(sp)
    35fc:	0141                	c.addi	sp,16
    35fe:	8082                	c.jr	ra
    3600:	0010                	0x10
    3602:	0000                	unimp
    3604:	0000                	unimp
    3606:	0000                	unimp
    3608:	7a01                	c.lui	s4,0xfffe0
    360a:	0052                	c.slli	zero,0x14
    360c:	7c01                	c.lui	s8,0xfffe0
    360e:	0105                	c.addi	sp,1
    3610:	00020d1b          	sext.w	s10,tp
    3614:	0048                	c.addi4spn	a0,sp,4
    3616:	0000                	unimp
    3618:	0018                	0x18
    361a:	0000                	unimp
    361c:	ff84                	c.fsw	fs1,56(a5)
    361e:	0030ffff          	0x30ffff
    3622:	0000                	unimp
    3624:	4200                	c.lw	s0,0(a2)
    3626:	400e                	0x400e
    3628:	9b44                	exec.it	#876     !
    362a:	420d                	c.li	tp,3
    362c:	400e42db          	0x400e42db
    3630:	9a44                	exec.it	#364     !
    3632:	420c                	c.lw	a1,0(a2)
    3634:	0b99                	c.addi	s7,6
    3636:	9842                	c.add	a6,a6
    3638:	420a                	c.lwsp	tp,128(sp)
    363a:	d7420997          	auipc	s3,0xd7420
    363e:	d9d8                	c.sw	a4,52(a1)
    3640:	dbda                	c.swsp	s6,244(sp)
    3642:	0e42                	c.slli	t3,0x10
    3644:	4440                	c.lw	s0,12(s0)
    3646:	0896                	c.slli	a7,0x5
    3648:	9542                	c.add	a0,a6
    364a:	06944207          	flq	ft4,105(s0)
    364e:	9342                	c.add	t1,a6
    3650:	4205                	c.li	tp,1
    3652:	0492                	c.slli	s1,0x4
    3654:	8942                	c.mv	s2,a6
    3656:	02884203          	lbu	tp,40(a6)
    365a:	8142                	c.mv	sp,a6
    365c:	0001                	c.nop
    365e:	0000                	unimp
    3660:	001c                	0x1c
    3662:	0000                	unimp
    3664:	0064                	c.addi4spn	s1,sp,12
    3666:	0000                	unimp
    3668:	ff68                	c.fsw	fa0,124(a4)
    366a:	000cffff          	0xcffff
    366e:	0000                	unimp
    3670:	4200                	c.lw	s0,0(a2)
    3672:	100e                	c.slli	zero,0x23
    3674:	8944                	exec.it	#556     !
    3676:	4204                	c.lw	s1,0(a2)
    3678:	0288                	c.addi4spn	a0,sp,320
    367a:	8142                	c.mv	sp,a6
    367c:	0001                	c.nop
    367e:	0000                	unimp
    3680:	002c                	c.addi4spn	a1,sp,8
    3682:	0000                	unimp
    3684:	0000                	unimp
    3686:	0000                	unimp
    3688:	7a01                	c.lui	s4,0xfffe0
    368a:	0052                	c.slli	zero,0x14
    368c:	7c01                	c.lui	s8,0xfffe0
    368e:	0101                	c.addi	sp,0
    3690:	0e020d1b          	addiw	s10,tp,224
    3694:	9b40                	exec.it	#868     !
    3696:	9a0d                	c.andi	a2,-29
    3698:	990c                	exec.it	#908     !
    369a:	970a980b          	addigp	a6,-77456 # 6d970 <BIN_SIZE+0x67d67>
    369e:	9609                	c.srai	a2,0x22
    36a0:	9508                	exec.it	#898     !
    36a2:	93069407          	flh	fs0,-1744(a3)
    36a6:	9205                	c.srli	a2,0x21
    36a8:	8904                	exec.it	#524     !
    36aa:	81028803          	lb	a6,-2032(t0) # 2098 <main+0x5a0>
    36ae:	0001                	c.nop
    36b0:	0044                	c.addi4spn	s1,sp,4
    36b2:	0000                	unimp
    36b4:	0034                	c.addi4spn	a3,sp,8
    36b6:	0000                	unimp
    36b8:	ff24                	c.fsw	fs1,120(a4)
    36ba:	0024ffff          	0x24ffff
    36be:	0000                	unimp
    36c0:	4200                	c.lw	s0,0(a2)
    36c2:	0edb42db          	0xedb42db
    36c6:	4230                	c.lw	a2,64(a2)
    36c8:	42da                	c.lwsp	t0,148(sp)
    36ca:	42d9                	c.li	t0,22
    36cc:	42d8                	c.lw	a4,4(a3)
    36ce:	d8d742d7          	0xd8d742d7
    36d2:	dad9                	c.beqz	a3,3668 <__riscv_restore_0+0x74>
    36d4:	42200edb          	0x42200edb
    36d8:	42d6                	c.lwsp	t0,84(sp)
    36da:	42d5                	c.li	t0,21
    36dc:	42d4                	c.lw	a3,4(a3)
    36de:	d4d342d3          	0xd4d342d3
    36e2:	d6d5                	c.beqz	a3,368e <__riscv_restore_0+0x9a>
    36e4:	d9d8                	c.sw	a4,52(a1)
    36e6:	dbda                	c.swsp	s6,244(sp)
    36e8:	100e                	c.slli	zero,0x23
    36ea:	d242                	c.swsp	a6,36(sp)
    36ec:	c942                	c.swsp	a6,144(sp)
    36ee:	c842                	c.swsp	a6,16(sp)
    36f0:	c142                	c.swsp	a6,128(sp)
    36f2:	0e42                	c.slli	t3,0x10
    36f4:	0000                	unimp
	...
