
RV_NN_KWS_DSCNN_MEDIUM.adx:     file format elf32-littleriscv
RV_NN_KWS_DSCNN_MEDIUM.adx
architecture: riscv:rv32, flags 0x00000112:
EXEC_P, HAS_SYMS, D_PAGED
start address 0x20000000

Program Header:
    LOAD off    0x00001000 vaddr 0x20000000 paddr 0x20000000 align 2**12
         filesz 0x0000018a memsz 0x0000018a flags r-x
    LOAD off    0x00002000 vaddr 0x00000000 paddr 0x20000190 align 2**12
         filesz 0x000001bc memsz 0x000001bc flags rwx
    LOAD off    0x00002200 vaddr 0x00000200 paddr 0x20000350 align 2**12
         filesz 0x000097b4 memsz 0x000097b4 flags r-x
    LOAD off    0x0000c000 vaddr 0x00080000 paddr 0x20009b08 align 2**12
         filesz 0x0000046c memsz 0x0000046c flags rw-
    LOAD off    0x0000c4a8 vaddr 0x000804a8 paddr 0x20009f74 align 2**12
         filesz 0x00000022 memsz 0x00000022 flags rw-
    LOAD off    0x0000d470 vaddr 0x00080470 paddr 0x20009f78 align 2**12
         filesz 0x00000000 memsz 0x00000038 flags rw-
0x70000000 off    0x0001c785 vaddr 0x00000000 paddr 0x00000000 align 2**0
         filesz 0x00000040 memsz 0x00000000 flags r--

Sections:
Idx Name          Size      VMA       LMA       File off  Algn
  0 .vectors      0000018a  20000000  20000000  00001000  2**2
                  CONTENTS, ALLOC, LOAD, READONLY, CODE
  1 .retention_reset 00000154  00000000  20000190  00002000  2**2
                  CONTENTS, ALLOC, LOAD, READONLY, CODE
  2 .retention_data 00000064  00000158  200002e8  00002158  2**2
                  CONTENTS, ALLOC, LOAD, DATA
  3 .ram_code     000097b4  00000200  20000350  00002200  2**8
                  CONTENTS, ALLOC, LOAD, READONLY, CODE
  4 .data         0000046c  00080000  20009b08  0000c000  2**3
                  CONTENTS, ALLOC, LOAD, DATA
  5 .sbss         00000038  00080470  20009f78  0000d470  2**2
                  ALLOC
  6 .bss          00000000  000804a8  20009f74  0000d470  2**2
                  ALLOC
  7 .sdk_version  00000022  000804a8  20009f74  0000c4a8  2**2
                  CONTENTS, ALLOC, LOAD, DATA
  8 .debug_info   000067a3  00000000  00000000  0000c4ca  2**0
                  CONTENTS, READONLY, DEBUGGING
  9 .debug_abbrev 00000a23  00000000  00000000  00012c6d  2**0
                  CONTENTS, READONLY, DEBUGGING
 10 .debug_loc    000024ae  00000000  00000000  00013690  2**0
                  CONTENTS, READONLY, DEBUGGING
 11 .debug_aranges 000001a0  00000000  00000000  00015b40  2**3
                  CONTENTS, READONLY, DEBUGGING
 12 .debug_ranges 000009e8  00000000  00000000  00015ce0  2**3
                  CONTENTS, READONLY, DEBUGGING
 13 .debug_line   000035fb  00000000  00000000  000166c8  2**0
                  CONTENTS, READONLY, DEBUGGING
 14 .debug_str    00002a79  00000000  00000000  00019cc3  2**0
                  CONTENTS, READONLY, DEBUGGING
 15 .comment      00000049  00000000  00000000  0001c73c  2**0
                  CONTENTS, READONLY
 16 .riscv.attributes 00000040  00000000  00000000  0001c785  2**0
                  CONTENTS, READONLY
 17 .debug_frame  000004a0  00000000  00000000  0001c7c8  2**2
                  CONTENTS, READONLY, DEBUGGING
SYMBOL TABLE:
20000000 l    d  .vectors	00000000 .vectors
00000000 l    d  .retention_reset	00000000 .retention_reset
00000158 l    d  .retention_data	00000000 .retention_data
00000200 l    d  .ram_code	00000000 .ram_code
00080000 l    d  .data	00000000 .data
00080470 l    d  .sbss	00000000 .sbss
000804a8 l    d  .bss	00000000 .bss
000804a8 l    d  .sdk_version	00000000 .sdk_version
00000000 l    d  .debug_info	00000000 .debug_info
00000000 l    d  .debug_abbrev	00000000 .debug_abbrev
00000000 l    d  .debug_loc	00000000 .debug_loc
00000000 l    d  .debug_aranges	00000000 .debug_aranges
00000000 l    d  .debug_ranges	00000000 .debug_ranges
00000000 l    d  .debug_line	00000000 .debug_line
00000000 l    d  .debug_str	00000000 .debug_str
00000000 l    d  .comment	00000000 .comment
00000000 l    d  .riscv.attributes	00000000 .riscv.attributes
00000000 l    d  .debug_frame	00000000 .debug_frame
00000000 l    df *ABS*	00000000 ./boot/cstartup_flash.o
20000028 l       .vectors	00000000 _START
2000008e l       .vectors	00000000 _RETENTION_RESET_INIT
200000a6 l       .vectors	00000000 _RETENTION_RESET_BEGIN
200000b8 l       .vectors	00000000 _RETENTION_DATA_INIT
200000cc l       .vectors	00000000 _RETENTION_DATA_INIT_BEGIN
200000de l       .vectors	00000000 _RAMCODE_INIT
200000f6 l       .vectors	00000000 _RAMCODE_INIT_BEGIN
20000108 l       .vectors	00000000 _DATA_INIT
20000120 l       .vectors	00000000 _DATA_INIT_BEGIN
20000132 l       .vectors	00000000 _ZERO_BSS
20000146 l       .vectors	00000000 _ZERO_BSS_BEGIN
20000152 l       .vectors	00000000 _ZERO_AES
20000166 l       .vectors	00000000 _ZERO_AES_BEGIN
20000172 l       .vectors	00000000 _FILL_STK
20000172 l       .vectors	00000000 _MAIN_FUNC
20000188 l       .vectors	00000000 _END
00000022 l       .retention_reset	00000000 _ISTART
0000002a l       .retention_reset	00000000 _ISWS_USB_DIS
00000088 l       .retention_reset	00000000 _WAKEUP_FLASH
000000a2 l       .retention_reset	00000000 _MSPI_WAIT
000000bc l       .retention_reset	00000000 _WAIT_EFUSE_LOAD_AND_FLASH_WAKEUP_FINISH
000000c2 l       .retention_reset	00000000 _MULTI_ADDRESS_BEGIN
000000d2 l       .retention_reset	00000000 _IZERO_BSS
000000e6 l       .retention_reset	00000000 _IZERO_BSS_BEGIN
000000f2 l       .retention_reset	00000000 _IZERO_AES
00000106 l       .retention_reset	00000000 _IZERO_AES_BEGIN
00000112 l       .retention_reset	00000000 _IFILL_STK
00000112 l       .retention_reset	00000000 _IDATA_INIT
0000012a l       .retention_reset	00000000 _IDATA_INIT_BEGIN
0000013c l       .retention_reset	00000000 _IMAIN_FUNC
00000152 l       .retention_reset	00000000 _IEND
00000040 l       *ABS*	00000000 irqno
00000000 l    df *ABS*	00000000 
00000200 l     F .ram_code	00000020 delay_ms.constprop.12
0000140c l     F .ram_code	000000fc user_calib_adc_vref.constprop.9
00000220 l     F .ram_code	00000044 flash_send_addr
00000264 l     F .ram_code	00000048 flash_send_cmd
000002ac l     F .ram_code	00000060 clock_set_32k_tick
0000030c l     F .ram_code	0000004c analog_read_reg32.constprop.4
00000358 l     F .ram_code	00000024 clock_get_32k_tick
0000037c l     F .ram_code	00000094 pm_stimer_recover
00000410 l     F .ram_code	00000058 plic_exit_critical_sec
00000468 l     F .ram_code	00000060 plic_enter_critical_sec
000004c8 l     F .ram_code	00000180 flash_mspi_read_ram
00001204 l     F .ram_code	00000028 flash_read_uid.constprop.6
0000122c l     F .ram_code	00000028 flash_read_mid
00001254 l     F .ram_code	00000168 flash_read_mid_uid_with_check
00000648 l     F .ram_code	0000014c flash_mspi_read_ram.constprop.7
000013bc l     F .ram_code	00000020 flash_dread
00000794 l     F .ram_code	00000044 analog_write_reg8
000007d8 l     F .ram_code	0000004c analog_read_reg8
00000824 l     F .ram_code	00000140 clock_init_ram.constprop.11
000013dc l     F .ram_code	00000018 clock_init.constprop.10
00001508 l     F .ram_code	00000054 user_calib_freq_offset.constprop.8
00000964 l     F .ram_code	000000b4 pm_wait_bbpll_done
00000a18 l     F .ram_code	00000194 pm_sleep_start
00000bac l     F .ram_code	00000120 dr_putchar
00001560 l     F .ram_code	00000018 gpio_input_dis
00000ccc l     F .ram_code	0000030c pm_sleep_wakeup_ram.constprop.3
000013f4 l     F .ram_code	00000016 pm_sleep_wakeup.constprop.2
0000157c l     F .ram_code	000000dc fill_dummy_data
00000158 l     O .retention_data	00000004 flash_read_page
0000015c l     O .retention_data	00000001 g_pm_long_suspend
00000160 l     O .retention_data	00000004 g_pm_tick_cur
00000164 l     O .retention_data	00000029 pmcd
00000190 l     O .retention_data	00000004 g_pm_tick_32k_calib
00000194 l     O .retention_data	00000001 g_plic_preempt_en
00000198 l     O .retention_data	00000002 s_flash_preempt_config
0000019a l     O .retention_data	00000001 g_pm_suspend_power_cfg
0000019c l     O .retention_data	00000008 g_pm_early_wakeup_time_us
000001a4 l     O .retention_data	00000004 g_pm_tick_32k_cur
000001a8 l     O .retention_data	00000001 g_pm_tick_update_en
000001ac l     O .retention_data	00000004 g_pm_r_delay_cycle
000001b0 l     O .retention_data	00000008 g_pm_longsleep_early_wakeup_time_us
00080470 l     O .sbss	00000004 exception_mcause
00080474 l     O .sbss	00000004 exception_mdcause
00080478 l     O .sbss	00000004 exception_mepc
0008047c l     O .sbss	00000004 exception_mstatus
00080480 l     O .sbss	00000004 exception_mtval
00080484 l     O .sbss	00000004 g_chip_version
00080488 l     O .sbss	00000004 g_pm_status_info
00080450 l     O .data	00000001 init_flag.4915
00080454 l     O .data	00000006 sys_clk
000804a8 l     O .sdk_version	00000022 sdk_version
00000000 l    df *ABS*	00000000 riscv_convolve_wrapper_s8.c.o
00002700 l       .ram_code	00000000 $x
00000000 l    df *ABS*	00000000 riscv_convolve_1x1_s8_fast.c.o
00002854 l       .ram_code	00000000 $x
00000000 l    df *ABS*	00000000 riscv_convolve_s8.c.o
00002b94 l       .ram_code	00000000 $x
00000000 l    df *ABS*	00000000 riscv_nn_mat_mult_kernel_s8_s16.c.o
0000330c l       .ram_code	00000000 $x
00000000 l    df *ABS*	00000000 riscv_convolve_get_buffer_sizes_s8.c.o
000037e0 l       .ram_code	00000000 $x
00000000 l    df *ABS*	00000000 riscv_depthwise_conv_get_buffer_sizes_s8.c.o
00003870 l       .ram_code	00000000 $x
00003884 l       .ram_code	00000000 $x
00000000 l    df *ABS*	00000000 riscv_nn_mat_mult_kernel_row_offset_s8_s16.c.o
000038d8 l       .ram_code	00000000 $x
00000000 l    df *ABS*	00000000 riscv_convolve_1x1_s8.c.o
00003dbc l       .ram_code	00000000 $x
00000000 l    df *ABS*	00000000 riscv_depthwise_conv_wrapper_s8.c.o
00003ee0 l       .ram_code	00000000 $x
00000000 l    df *ABS*	00000000 riscv_convolve_1_x_n_s8.c.o
00003fb8 l       .ram_code	00000000 $x
00000000 l    df *ABS*	00000000 riscv_nn_mat_mult_nt_t_s8.c.o
0000400c l       .ram_code	00000000 $x
00000000 l    df *ABS*	00000000 riscv_s8_to_s16_unordered_with_offset.c.o
00004d50 l       .ram_code	00000000 $x
00000000 l    df *ABS*	00000000 riscv_avgpool_get_buffer_sizes_s8.c.o
00004dd4 l       .ram_code	00000000 $x
00000000 l    df *ABS*	00000000 riscv_avgpool_s8.c.o
00004ddc l       .ram_code	00000000 $x
00000000 l    df *ABS*	00000000 riscv_fully_connected_s8.c.o
00004fd8 l       .ram_code	00000000 $x
00000000 l    df *ABS*	00000000 riscv_fully_connected_get_buffer_sizes_s8.c.o
0000507c l       .ram_code	00000000 $x
00000000 l    df *ABS*	00000000 riscv_depthwise_conv_s8.c.o
00005080 l       .ram_code	00000000 $x
00005080 l     F .ram_code	000003be depthwise_conv_s8_mult_4
00005440 l       .ram_code	00000000 $x
00000000 l    df *ABS*	00000000 riscv_depthwise_conv_s8_opt.c.o
000058a8 l       .ram_code	00000000 $x
00000000 l    df *ABS*	00000000 riscv_depthwise_conv_3x3_s8.c.o
00005f88 l       .ram_code	00000000 $x
00000000 l    df *ABS*	00000000 riscv_nn_vec_mat_mult_t_s8.c.o
00007770 l       .ram_code	00000000 $x
00000000 l    df *ABS*	00000000 riscv_q7_to_q15_with_offset.c.o
000088d0 l       .ram_code	00000000 $x
00000000 l    df *ABS*	00000000 memcpy.c
00000000 l    df *ABS*	00000000 rand.c
00000000 l    df *ABS*	00000000 malloc.c
00000000 l    df *ABS*	00000000 nano-mallocr.c
00000000 l    df *ABS*	00000000 nano-mallocr.c
00000000 l    df *ABS*	00000000 printf.c
00000000 l    df *ABS*	00000000 puts.c
00000000 l    df *ABS*	00000000 strlen.c
00000000 l    df *ABS*	00000000 vprintf.c
00008d4c l     F .ram_code	0000003a __vprintf_help
00080494 l     O .sbss	00000004 __vprintf_buf
00080498 l     O .sbss	00000004 __vprintf_buf_len
00000000 l    df *ABS*	00000000 printf_impl.c
00000000 l    df *ABS*	00000000 printf_impl_float.c
00000000 l    df *ABS*	00000000 strcpy.c
00000000 l    df *ABS*	00000000 strnlen.c
00000000 l    df *ABS*	00000000 _sbrk.c
000804a4 l     O .sbss	00000004 heap_end.2408
00000000 l    df *ABS*	00000000 libgcc2.c
00000000 l    df *ABS*	00000000 libgcc2.c
00000000 l    df *ABS*	00000000 printf_data.c
00000000 l    df *ABS*	00000000 impure.c
000804a8 l     O .bss	00000000 impure_data
000026f8  w      .ram_code	00000000 entry_irq55
000026f8  w      .ram_code	00000000 entry_irq13
0000973c g     F .ram_code	0000007c strcpy
000026f8  w      .ram_code	00000000 entry_irq15
0000982c g     F .ram_code	0000002e .hidden __ashldi3
000026f8  w      .ram_code	00000000 entry_irq27
000026f8  w      .ram_code	00000000 entry_irq60
000026f8  w      .ram_code	00000000 entry_irq1
000026f8  w      .ram_code	00000000 entry_irq52
000026f8  w      .ram_code	00000000 entry_irq50
000026f8  w      .ram_code	00000000 entry_irq62
00008c98 g     F .ram_code	0000001e printf
00080800 g       .data	00000000 __global_pointer$
00009864 g       .ram_code	00000000 .hidden __riscv_save_8
000026f8  w      .ram_code	00000000 entry_irq58
000098b0 g       .ram_code	00000000 .hidden __riscv_restore_3
000088d0 g     F .ram_code	00000088 riscv_q7_to_q15_with_offset
000001bc g       .retention_data	00000000 _RETENTION_DATA_VMA_END
0000989c g       .ram_code	00000000 .hidden __riscv_restore_10
00009864 g       .ram_code	00000000 .hidden __riscv_save_11
00008dd2 g     F .ram_code	00000048 __print_integral
00000000 g       .retention_reset	00000000 _RETENTION_RESET_VMA_START
000026f8  w      .ram_code	00000000 entry_irq10
000026f8  w      .ram_code	00000000 entry_irq21
00000158 g       .retention_data	00000000 _AES_VMA_START
000026f8  w      .ram_code	00000000 entry_irq48
000098b0 g       .ram_code	00000000 .hidden __riscv_restore_2
000026f8  w      .ram_code	00000000 entry_irq8
000026f8  w      .ram_code	00000000 entry_irq33
000804a8 g       .bss	00000000 _BSS_VMA_END
00008958 g     F .ram_code	000000fa memcpy
20000190 g       *ABS*	00000000 _RETENTION_RESET_LMA_START
00080460 g     O .data	00000008 __mculib_REENT_rand_next
00008e1a g     F .ram_code	00000472 __printf_impl
000026f8  w      .ram_code	00000000 entry_irq12
00008cb6 g     F .ram_code	00000034 puts
00002700 g     F .ram_code	00000154 riscv_convolve_wrapper_s8
00008b38 g     F .ram_code	00000010 malloc
000026f8  w      .ram_code	00000000 entry_irq14
0000985c g       .ram_code	00000000 .hidden __riscv_save_12
000026f8  w      .ram_code	00000000 entry_irq2
000026f8  w      .ram_code	00000000 entry_irq51
0000989c g       .ram_code	00000000 .hidden __riscv_restore_11
00004ddc g     F .ram_code	000001fc riscv_avgpool_s8
000026f8  w      .ram_code	00000000 entry_irq28
000026f8  w      .ram_code	00000000 entry_irq43
0000988c g       .ram_code	00000000 .hidden __riscv_save_1
000098b0 g       .ram_code	00000000 .hidden __riscv_restore_0
000026f8  w      .ram_code	00000000 entry_irq20
00009872 g       .ram_code	00000000 .hidden __riscv_save_7
00080470 g       .sbss	00000000 _BSS_VMA_START
000026f8  w      .ram_code	00000000 entry_irq63
0008046c g       .data	00000000 _DATA_VMA_END
000026f8  w      .ram_code	00000000 entry_irq46
000026f8  w      .ram_code	00000000 entry_irq31
000026f8  w      .ram_code	00000000 entry_irq16
00100000 g       *ABS*	00000000 FLASH_SIZE
000098a6 g       .ram_code	00000000 .hidden __riscv_restore_5
00080000 g       .data	00000000 _DATA_VMA_START
00003ee0 g     F .ram_code	000000d8 riscv_depthwise_conv_wrapper_s8
000097d2  w    F .ram_code	00000028 _sbrk
000026f8  w      .ram_code	00000000 entry_irq53
000026f8  w      .ram_code	00000000 entry_irq11
00000154 g       .retention_reset	00000000 _RETENTION_RESET_VMA_END
000097ba g     F .ram_code	00000018 strnlen
000098a6 g       .ram_code	00000000 .hidden __riscv_restore_6
000026f8  w      .ram_code	00000000 entry_irq5
000026f8  w      .ram_code	00000000 entry_irq23
000026fa  w      .ram_code	00000000 trap_handler
000026f8  w      .ram_code	00000000 entry_irq34
000097fc g     F .ram_code	0000002e .hidden __lshrdi3
000026f8  w      .ram_code	00000000 entry_irq36
00004fd8 g     F .ram_code	000000a2 riscv_fully_connected_s8
00009864 g       .ram_code	00000000 .hidden __riscv_save_9
000026f8  w      .ram_code	00000000 entry_irq44
0000400c g     F .ram_code	00000d44 riscv_nn_mat_mult_nt_t_s8
00008d86 g     F .ram_code	0000004c vprintf
000026f8  w      .ram_code	00000000 entry_irq45
000026f8  w      .ram_code	00000000 entry_irq26
00009872 g       .ram_code	00000000 .hidden __riscv_save_4
000026f8  w      .ram_code	00000000 entry_irq41
00005440 g     F .ram_code	00000466 riscv_depthwise_conv_s8
00005f88 g     F .ram_code	000017e6 riscv_depthwise_conv_3x3_s8
000026f8  w      .ram_code	00000000 entry_irq61
20000000 g       .vectors	00000000 BIN_BEGIN
00008b58 g     F .ram_code	00000090 _free_r
000038d8 g     F .ram_code	000004e4 riscv_nn_mat_mult_kernel_row_offset_s8_s16
0000988c g       .ram_code	00000000 .hidden __riscv_save_3
00003dbc g     F .ram_code	00000124 riscv_convolve_1x1_s8
0000507c g     F .ram_code	00000004 riscv_fully_connected_s8_get_buffer_size
000026f8  w      .ram_code	00000000 entry_irq38
00008afc g     F .ram_code	0000003c rand
00001100 g       .ram_code	00000000 __vectors
00009f96 g       *ABS*	00000000 BIN_SIZE
00080438 g     O .data	00000010 __digits
20000350 g       *ABS*	00000000 _RAMCODE_LMA_START
000037e0 g     F .ram_code	0000008e riscv_convolve_wrapper_s8_get_buffer_size
00003fb8 g     F .ram_code	00000054 riscv_convolve_1_x_n_s8
000804a0 g     O .sbss	00000004 __printf_count
000026f8  w      .ram_code	00000000 entry_irq59
000026f8  w      .ram_code	00000000 entry_irq6
00009864 g       .ram_code	00000000 .hidden __riscv_save_10
0008049c g     O .sbss	00000004 __mculib_REENT_errno
20009b08 g       *ABS*	00000000 _DATA_LMA_START
000092aa g     F .ram_code	00000090 __print_integral_poly
20000000 g       *ABS*	00000000 NDS_SAG_LMA_FLASH
000098a6 g       .ram_code	00000000 .hidden __riscv_restore_4
0000989c g       .ram_code	00000000 .hidden __riscv_restore_8
00009872 g       .ram_code	00000000 .hidden __riscv_save_6
00003870 g     F .ram_code	00000012 riscv_depthwise_conv_s8_opt_get_buffer_size
20000000  w      .vectors	00000000 _RELAX_END_
0000933a g     F .ram_code	00000400 __printf_float_impl
00008a52 g     F .ram_code	000000aa memset
0000989c g       .ram_code	00000000 .hidden __riscv_restore_9
000098a6 g       .ram_code	00000000 .hidden __riscv_restore_7
000016a0 g     F .ram_code	00001058 main
000026f8 g       .ram_code	00000000 default_irq_entry
000026f8  w      .ram_code	00000000 entry_irq3
00000fd8 g     F .ram_code	00000100 trap_entry
00000158 g       .retention_data	00000000 _AES_VMA_END
00004d50 g     F .ram_code	00000084 riscv_s8_to_s16_unordered_with_offset
000026f8  w      .ram_code	00000000 entry_irq39
000026f8  w      .ram_code	00000000 entry_irq49
00008be8 g     F .ram_code	000000b0 _malloc_r
00003884 g     F .ram_code	00000054 riscv_depthwise_conv_wrapper_s8_get_buffer_size
000026f8  w      .ram_code	00000000 entry_irq57
000026f8  w      .ram_code	00000000 entry_irq47
200002e8 g       *ABS*	00000000 _RETENTION_DATA_LMA_START
20000000 g     F .vectors	00000000 _RESET_ENTRY
00000158 g       .retention_data	00000000 _RETENTION_DATA_VMA_START
00007770 g     F .ram_code	0000115e riscv_nn_vec_mat_mult_t_s8
000026f8  w      .ram_code	00000000 entry_irq4
000a0000 g       *ABS*	00000000 _STACK_TOP
000026f8  w      .ram_code	00000000 entry_irq22
000026f8  w      .ram_code	00000000 entry_irq30
00080468 g     O .data	00000004 _impure_ptr
00004dd4 g     F .ram_code	00000006 riscv_avgpool_s8_get_buffer_size
000026f8  w      .ram_code	00000000 entry_irq42
000026f8  w      .ram_code	00000000 entry_irq24
0000330c g     F .ram_code	000004d4 riscv_nn_mat_mult_kernel_s8_s16
0000988c g       .ram_code	00000000 .hidden __riscv_save_2
000099b4 g       .ram_code	00000000 _RAMCODE_VMA_END
00000000  w      *ABS*	00000000 _ITB_BASE_
00009872 g       .ram_code	00000000 .hidden __riscv_save_5
000026f8  w      .ram_code	00000000 entry_irq19
00001658 g     F .ram_code	00000048 _write
000804d0 g       .sdk_version	00000000 _end
000026f8  w      .ram_code	00000000 entry_irq17
000026f8  w      .ram_code	00000000 entry_irq9
000058a8 g     F .ram_code	000006e0 riscv_depthwise_conv_s8_opt
000026f8  w      .ram_code	00000000 entry_irq56
000026f8  w      .ram_code	00000000 entry_irq35
000026f8  w      .ram_code	00000000 entry_irq37
000001b8 g     O .retention_data	00000004 g_pm_mspi_cfg
000026f8  w      .ram_code	00000000 entry_irq54
000026f8  w      .ram_code	00000000 entry_irq40
00009898 g       .ram_code	00000000 .hidden __riscv_restore_12
00000200 g       .ram_code	00000000 _RAMCODE_VMA_START
0000988c g       .ram_code	00000000 .hidden __riscv_save_0
00008cec g     F .ram_code	0000005e strlen
000026f8  w      .ram_code	00000000 entry_irq29
00080490 g     O .sbss	00000004 __malloc_sbrk_start
00002b94 g     F .ram_code	00000778 riscv_convolve_s8
0008048c g     O .sbss	00000004 __malloc_free_list
000098b0 g       .ram_code	00000000 .hidden __riscv_restore_1
00002854 g     F .ram_code	00000340 riscv_convolve_1x1_s8_fast
000026f8  w      .ram_code	00000000 entry_irq7
000026f8  w      .ram_code	00000000 entry_irq32
00000000 g     F .retention_reset	00000000 _IRESET_ENTRY
000026f8  w      .ram_code	00000000 entry_irq18
0000928c g     F .ram_code	0000001e __int_to_poly
00008b48 g     F .ram_code	00000010 free
000026f8  w      .ram_code	00000000 entry_irq25



Disassembly of section .vectors:

20000000 <_RESET_ENTRY>:
20000000:	a025                	c.j	20000028 <_START>
	...
20000016:	0000                	unimp
20000018:	9f96                	c.add	t6,t0
2000001a:	0000                	unimp
2000001c:	0000                	unimp
2000001e:	0000                	unimp
20000020:	544c4e4b          	fnmsub.h	ft8,fs8,ft4,fa0,rmm
20000024:	0000                	unimp
20000026:	          	sllw	a4,zero,zero

20000028 <_START>:
20000028:	e0080197          	auipc	gp,0xe0080
2000002c:	7d818193          	addi	gp,gp,2008 # 80800 <__global_pointer$>
20000030:	801002b7          	lui	t0,0x80100
20000034:	70028293          	addi	t0,t0,1792 # 80100700 <_DATA_LMA_START+0x600f6bf8>
20000038:	04000313          	li	t1,64
2000003c:	506280a3          	sb	t1,1281(t0)
20000040:	e00a0297          	auipc	t0,0xe00a0
20000044:	fc028293          	addi	t0,t0,-64 # a0000 <_STACK_TOP>
20000048:	8116                	c.mv	sp,t0
2000004a:	e0000297          	auipc	t0,0xe0000
2000004e:	fb628293          	addi	t0,t0,-74 # 0 <_ITB_BASE_>
20000052:	80029073          	csrw	uitb,t0
20000056:	6299                	c.lui	t0,0x6
20000058:	3002a2f3          	csrrs	t0,mstatus,t0
2000005c:	00301073          	fssr	zero
20000060:	e0001297          	auipc	t0,0xe0001
20000064:	0a028293          	addi	t0,t0,160 # 1100 <__vectors>
20000068:	30529073          	csrw	mtvec,t0
2000006c:	7d016073          	csrsi	mmisc_ctl,2
20000070:	e40002b7          	lui	t0,0xe4000
20000074:	4309                	c.li	t1,2
20000076:	0062a023          	sw	t1,0(t0) # e4000000 <_DATA_LMA_START+0xc3ff64f8>
2000007a:	7ca022f3          	csrr	t0,mcache_ctl
2000007e:	0012e293          	ori	t0,t0,1
20000082:	0022e293          	ori	t0,t0,2
20000086:	7ca29073          	csrw	mcache_ctl,t0
2000008a:	0000100f          	fence.i

2000008e <_RETENTION_RESET_INIT>:
2000008e:	00000317          	auipc	t1,0x0
20000092:	10230313          	addi	t1,t1,258 # 20000190 <_RETENTION_RESET_LMA_START>
20000096:	e0000397          	auipc	t2,0xe0000
2000009a:	f6a38393          	addi	t2,t2,-150 # 0 <_ITB_BASE_>
2000009e:	e0000e17          	auipc	t3,0xe0000
200000a2:	0b6e0e13          	addi	t3,t3,182 # 154 <_RETENTION_RESET_VMA_END>

200000a6 <_RETENTION_RESET_BEGIN>:
200000a6:	01c3f963          	bgeu	t2,t3,200000b8 <_RETENTION_DATA_INIT>
200000aa:	00032283          	lw	t0,0(t1)
200000ae:	0053a023          	sw	t0,0(t2)
200000b2:	0311                	c.addi	t1,4
200000b4:	0391                	c.addi	t2,4
200000b6:	bfc5                	c.j	200000a6 <_RETENTION_RESET_BEGIN>

200000b8 <_RETENTION_DATA_INIT>:
200000b8:	00000317          	auipc	t1,0x0
200000bc:	23030313          	addi	t1,t1,560 # 200002e8 <_RETENTION_DATA_LMA_START>
200000c0:	15800393          	li	t2,344
200000c4:	e0000e17          	auipc	t3,0xe0000
200000c8:	0f8e0e13          	addi	t3,t3,248 # 1bc <_RETENTION_DATA_VMA_END>

200000cc <_RETENTION_DATA_INIT_BEGIN>:
200000cc:	01c3f963          	bgeu	t2,t3,200000de <_RAMCODE_INIT>
200000d0:	00032283          	lw	t0,0(t1)
200000d4:	0053a023          	sw	t0,0(t2)
200000d8:	0311                	c.addi	t1,4
200000da:	0391                	c.addi	t2,4
200000dc:	bfc5                	c.j	200000cc <_RETENTION_DATA_INIT_BEGIN>

200000de <_RAMCODE_INIT>:
200000de:	00000317          	auipc	t1,0x0
200000e2:	27230313          	addi	t1,t1,626 # 20000350 <_RAMCODE_LMA_START>
200000e6:	e0000397          	auipc	t2,0xe0000
200000ea:	11a38393          	addi	t2,t2,282 # 200 <delay_ms.constprop.12>
200000ee:	e000ae17          	auipc	t3,0xe000a
200000f2:	8c6e0e13          	addi	t3,t3,-1850 # 99b4 <_RAMCODE_VMA_END>

200000f6 <_RAMCODE_INIT_BEGIN>:
200000f6:	01c3f963          	bgeu	t2,t3,20000108 <_DATA_INIT>
200000fa:	00032283          	lw	t0,0(t1)
200000fe:	0053a023          	sw	t0,0(t2)
20000102:	0311                	c.addi	t1,4
20000104:	0391                	c.addi	t2,4
20000106:	bfc5                	c.j	200000f6 <_RAMCODE_INIT_BEGIN>

20000108 <_DATA_INIT>:
20000108:	0000a317          	auipc	t1,0xa
2000010c:	a0030313          	addi	t1,t1,-1536 # 20009b08 <_DATA_LMA_START>
20000110:	e0080397          	auipc	t2,0xe0080
20000114:	ef038393          	addi	t2,t2,-272 # 80000 <_DATA_VMA_START>
20000118:	e0080e17          	auipc	t3,0xe0080
2000011c:	354e0e13          	addi	t3,t3,852 # 8046c <_DATA_VMA_END>

20000120 <_DATA_INIT_BEGIN>:
20000120:	01c3f963          	bgeu	t2,t3,20000132 <_ZERO_BSS>
20000124:	00032283          	lw	t0,0(t1)
20000128:	0053a023          	sw	t0,0(t2)
2000012c:	0311                	c.addi	t1,4
2000012e:	0391                	c.addi	t2,4
20000130:	bfc5                	c.j	20000120 <_DATA_INIT_BEGIN>

20000132 <_ZERO_BSS>:
20000132:	000002b7          	lui	t0,0x0
20000136:	e0080397          	auipc	t2,0xe0080
2000013a:	33a38393          	addi	t2,t2,826 # 80470 <_BSS_VMA_START>
2000013e:	e0080e17          	auipc	t3,0xe0080
20000142:	36ae0e13          	addi	t3,t3,874 # 804a8 <_BSS_VMA_END>

20000146 <_ZERO_BSS_BEGIN>:
20000146:	01c3f663          	bgeu	t2,t3,20000152 <_ZERO_AES>
2000014a:	0053a023          	sw	t0,0(t2)
2000014e:	0391                	c.addi	t2,4
20000150:	bfdd                	c.j	20000146 <_ZERO_BSS_BEGIN>

20000152 <_ZERO_AES>:
20000152:	000002b7          	lui	t0,0x0
20000156:	e0000397          	auipc	t2,0xe0000
2000015a:	00238393          	addi	t2,t2,2 # 158 <_AES_VMA_END>
2000015e:	e0000e17          	auipc	t3,0xe0000
20000162:	ffae0e13          	addi	t3,t3,-6 # 158 <_AES_VMA_END>

20000166 <_ZERO_AES_BEGIN>:
20000166:	01c3f663          	bgeu	t2,t3,20000172 <_FILL_STK>
2000016a:	0053a023          	sw	t0,0(t2)
2000016e:	0391                	c.addi	t2,4
20000170:	bfdd                	c.j	20000166 <_ZERO_AES_BEGIN>

20000172 <_FILL_STK>:
20000172:	0001                	c.nop
20000174:	e0001297          	auipc	t0,0xe0001
20000178:	52c28293          	addi	t0,t0,1324 # 16a0 <main>
2000017c:	9282                	c.jalr	t0
2000017e:	0001                	c.nop
20000180:	0001                	c.nop
20000182:	0001                	c.nop
20000184:	0001                	c.nop
20000186:	0001                	c.nop

20000188 <_END>:
20000188:	a001                	c.j	20000188 <_END>

Disassembly of section .retention_reset:

00000000 <_IRESET_ENTRY>:
   0:	a00d                	c.j	22 <_ISTART>
	...

00000022 <_ISTART>:
  22:	00080197          	auipc	gp,0x80
  26:	7de18193          	addi	gp,gp,2014 # 80800 <__global_pointer$>

0000002a <_ISWS_USB_DIS>:
  2a:	801002b7          	lui	t0,0x80100
  2e:	70028293          	addi	t0,t0,1792 # 80100700 <_DATA_LMA_START+0x600f6bf8>
  32:	04000313          	li	t1,64
  36:	506280a3          	sb	t1,1281(t0)
  3a:	000a0297          	auipc	t0,0xa0
  3e:	fc628293          	addi	t0,t0,-58 # a0000 <_STACK_TOP>
  42:	8116                	c.mv	sp,t0
  44:	00000297          	auipc	t0,0x0
  48:	fbc28293          	addi	t0,t0,-68 # 0 <_IRESET_ENTRY>
  4c:	80029073          	csrw	uitb,t0
  50:	6299                	c.lui	t0,0x6
  52:	3002a2f3          	csrrs	t0,mstatus,t0
  56:	00301073          	fssr	zero
  5a:	00001297          	auipc	t0,0x1
  5e:	0a628293          	addi	t0,t0,166 # 1100 <__vectors>
  62:	30529073          	csrw	mtvec,t0
  66:	7d016073          	csrsi	mmisc_ctl,2
  6a:	e40002b7          	lui	t0,0xe4000
  6e:	4309                	c.li	t1,2
  70:	0062a023          	sw	t1,0(t0) # e4000000 <_DATA_LMA_START+0xc3ff64f8>
  74:	7ca022f3          	csrr	t0,mcache_ctl
  78:	0012e293          	ori	t0,t0,1
  7c:	0022e293          	ori	t0,t0,2
  80:	7ca29073          	csrw	mcache_ctl,t0
  84:	0000100f          	fence.i

00000088 <_WAKEUP_FLASH>:
  88:	801402b7          	lui	t0,0x80140
  8c:	0ff00313          	li	t1,255
  90:	4381                	c.li	t2,0
  92:	0ab00e13          	li	t3,171
  96:	326284a3          	sb	t1,809(t0) # 80140329 <_DATA_LMA_START+0x60136821>
  9a:	107280a3          	sb	t2,257(t0)
  9e:	11c28023          	sb	t3,256(t0)

000000a2 <_MSPI_WAIT>:
  a2:	801402b7          	lui	t0,0x80140
  a6:	10228383          	lb	t2,258(t0) # 80140102 <_DATA_LMA_START+0x601365fa>
  aa:	4e05                	c.li	t3,1
  ac:	4ec1                	c.li	t4,16
  ae:	fe7e0ae3          	beq	t3,t2,a2 <_MSPI_WAIT>
  b2:	11d280a3          	sb	t4,257(t0)
  b6:	4281                	c.li	t0,0
  b8:	14000313          	li	t1,320

000000bc <_WAIT_EFUSE_LOAD_AND_FLASH_WAKEUP_FINISH>:
  bc:	0285                	c.addi	t0,1
  be:	fe537fe3          	bgeu	t1,t0,bc <_WAIT_EFUSE_LOAD_AND_FLASH_WAKEUP_FINISH>

000000c2 <_MULTI_ADDRESS_BEGIN>:
  c2:	801402b7          	lui	t0,0x80140
  c6:	1b800313          	li	t1,440
  ca:	00032383          	lw	t2,0(t1)
  ce:	1072a223          	sw	t2,260(t0) # 80140104 <_DATA_LMA_START+0x601365fc>

000000d2 <_IZERO_BSS>:
  d2:	000002b7          	lui	t0,0x0
  d6:	00080397          	auipc	t2,0x80
  da:	39a38393          	addi	t2,t2,922 # 80470 <_BSS_VMA_START>
  de:	00080e17          	auipc	t3,0x80
  e2:	3cae0e13          	addi	t3,t3,970 # 804a8 <_BSS_VMA_END>

000000e6 <_IZERO_BSS_BEGIN>:
  e6:	01c3f663          	bgeu	t2,t3,f2 <_IZERO_AES>
  ea:	0053a023          	sw	t0,0(t2)
  ee:	0391                	c.addi	t2,4
  f0:	bfdd                	c.j	e6 <_IZERO_BSS_BEGIN>

000000f2 <_IZERO_AES>:
  f2:	000002b7          	lui	t0,0x0
  f6:	00000397          	auipc	t2,0x0
  fa:	06238393          	addi	t2,t2,98 # 158 <_AES_VMA_END>
  fe:	00000e17          	auipc	t3,0x0
 102:	05ae0e13          	addi	t3,t3,90 # 158 <_AES_VMA_END>

00000106 <_IZERO_AES_BEGIN>:
 106:	01c3f663          	bgeu	t2,t3,112 <_IDATA_INIT>
 10a:	0053a023          	sw	t0,0(t2)
 10e:	0391                	c.addi	t2,4
 110:	bfdd                	c.j	106 <_IZERO_AES_BEGIN>

00000112 <_IDATA_INIT>:
 112:	2000a317          	auipc	t1,0x2000a
 116:	9f630313          	addi	t1,t1,-1546 # 20009b08 <_DATA_LMA_START>
 11a:	00080397          	auipc	t2,0x80
 11e:	ee638393          	addi	t2,t2,-282 # 80000 <_DATA_VMA_START>
 122:	00080e17          	auipc	t3,0x80
 126:	34ae0e13          	addi	t3,t3,842 # 8046c <_DATA_VMA_END>

0000012a <_IDATA_INIT_BEGIN>:
 12a:	01c3f963          	bgeu	t2,t3,13c <_IMAIN_FUNC>
 12e:	00032283          	lw	t0,0(t1)
 132:	0053a023          	sw	t0,0(t2)
 136:	0311                	c.addi	t1,4
 138:	0391                	c.addi	t2,4
 13a:	bfc5                	c.j	12a <_IDATA_INIT_BEGIN>

0000013c <_IMAIN_FUNC>:
 13c:	0001                	c.nop
 13e:	00001297          	auipc	t0,0x1
 142:	56228293          	addi	t0,t0,1378 # 16a0 <main>
 146:	9282                	c.jalr	t0
 148:	0001                	c.nop
 14a:	0001                	c.nop
 14c:	0001                	c.nop
 14e:	0001                	c.nop
 150:	0001                	c.nop

00000152 <_IEND>:
 152:	a001                	c.j	152 <_IEND>

Disassembly of section .ram_code:

00000200 <delay_ms.constprop.12>:
     200:	801407b7          	lui	a5,0x80140
     204:	0004e737          	lui	a4,0x4e
     208:	2007a603          	lw	a2,512(a5) # 80140200 <_DATA_LMA_START+0x601366f8>
     20c:	801406b7          	lui	a3,0x80140
     210:	20070713          	addi	a4,a4,512 # 4e200 <BIN_SIZE+0x4426a>
     214:	2006a783          	lw	a5,512(a3) # 80140200 <_DATA_LMA_START+0x601366f8>
     218:	8f91                	c.sub	a5,a2
     21a:	fef77de3          	bgeu	a4,a5,214 <delay_ms.constprop.12+0x14>
     21e:	8082                	c.jr	ra

00000220 <flash_send_addr>:
     220:	5d05275b          	bfoz	a4,a0,23,16
     224:	801407b7          	lui	a5,0x80140
     228:	801406b7          	lui	a3,0x80140
     22c:	10e78023          	sb	a4,256(a5) # 80140100 <_DATA_LMA_START+0x601365f8>
     230:	10268783          	lb	a5,258(a3) # 80140102 <_DATA_LMA_START+0x601365fa>
     234:	fe07fe5b          	bbs	a5,0,230 <flash_send_addr+0x10>
     238:	3c8527db          	bfoz	a5,a0,15,8
     23c:	80140737          	lui	a4,0x80140
     240:	10f68023          	sb	a5,256(a3)
     244:	10270783          	lb	a5,258(a4) # 80140102 <_DATA_LMA_START+0x601365fa>
     248:	fe07fe5b          	bbs	a5,0,244 <flash_send_addr+0x24>
     24c:	0ff57513          	andi	a0,a0,255
     250:	801406b7          	lui	a3,0x80140
     254:	10a70023          	sb	a0,256(a4)
     258:	10268783          	lb	a5,258(a3) # 80140102 <_DATA_LMA_START+0x601365fa>
     25c:	fe07fe5b          	bbs	a5,0,258 <flash_send_addr+0x38>
     260:	00008067          	ret

00000264 <flash_send_cmd>:
     264:	801407b7          	lui	a5,0x80140
     268:	10178703          	lb	a4,257(a5) # 80140101 <_DATA_LMA_START+0x601365f9>
     26c:	0ff77713          	andi	a4,a4,255
     270:	01076713          	ori	a4,a4,16
     274:	10e780a3          	sb	a4,257(a5)
     278:	0001                	c.nop
     27a:	0001                	c.nop
     27c:	0001                	c.nop
     27e:	0001                	c.nop
     280:	0001                	c.nop
     282:	0001                	c.nop
     284:	0001                	c.nop
     286:	0001                	c.nop
     288:	0001                	c.nop
     28a:	0001                	c.nop
     28c:	10178683          	lb	a3,257(a5)
     290:	80140737          	lui	a4,0x80140
     294:	0ef6f693          	andi	a3,a3,239
     298:	10d780a3          	sb	a3,257(a5)
     29c:	10a78023          	sb	a0,256(a5)
     2a0:	10270783          	lb	a5,258(a4) # 80140102 <_DATA_LMA_START+0x601365fa>
     2a4:	fe07fe5b          	bbs	a5,0,2a0 <flash_send_cmd+0x3c>
     2a8:	00008067          	ret

000002ac <clock_set_32k_tick>:
     2ac:	801406b7          	lui	a3,0x80140
     2b0:	20a68783          	lb	a5,522(a3) # 8014020a <_DATA_LMA_START+0x60136702>
     2b4:	80140737          	lui	a4,0x80140
     2b8:	0ff7f793          	andi	a5,a5,255
     2bc:	0017e793          	ori	a5,a5,1
     2c0:	20f68523          	sb	a5,522(a3)
     2c4:	20b70683          	lb	a3,523(a4) # 8014020b <_DATA_LMA_START+0x60136703>
     2c8:	20b70793          	addi	a5,a4,523
     2cc:	fe66fc5b          	bbs	a3,6,2c4 <clock_set_32k_tick+0x18>
     2d0:	20a72623          	sw	a0,524(a4)
     2d4:	4721                	c.li	a4,8
     2d6:	00e78023          	sb	a4,0(a5)
     2da:	0001                	c.nop
     2dc:	0001                	c.nop
     2de:	0001                	c.nop
     2e0:	0001                	c.nop
     2e2:	0001                	c.nop
     2e4:	0001                	c.nop
     2e6:	0001                	c.nop
     2e8:	0001                	c.nop
     2ea:	0001                	c.nop
     2ec:	0001                	c.nop
     2ee:	0001                	c.nop
     2f0:	0001                	c.nop
     2f2:	0001                	c.nop
     2f4:	0001                	c.nop
     2f6:	0001                	c.nop
     2f8:	00000013          	nop
     2fc:	801407b7          	lui	a5,0x80140
     300:	20b78703          	lb	a4,523(a5) # 8014020b <_DATA_LMA_START+0x60136703>
     304:	fe377e5b          	bbs	a4,3,300 <clock_set_32k_tick+0x54>
     308:	00008067          	ret

0000030c <analog_read_reg32.constprop.4>:
     30c:	300027f3          	csrr	a5,mstatus
     310:	8ba1                	c.andi	a5,8
     312:	c789                	c.beqz	a5,31c <analog_read_reg32.constprop.4+0x10>
     314:	30047773          	csrrci	a4,mstatus,8
     318:	0ff0000f          	fence
     31c:	80140737          	lui	a4,0x80140
     320:	00400693          	li	a3,4
     324:	18d701a3          	sb	a3,387(a4) # 80140183 <_DATA_LMA_START+0x6013667b>
     328:	06000693          	li	a3,96
     32c:	18d70023          	sb	a3,384(a4)
     330:	04000613          	li	a2,64
     334:	801406b7          	lui	a3,0x80140
     338:	18c70123          	sb	a2,386(a4)
     33c:	18268703          	lb	a4,386(a3) # 80140182 <_DATA_LMA_START+0x6013667a>
     340:	fe777e5b          	bbs	a4,7,33c <analog_read_reg32.constprop.4+0x30>
     344:	1846a503          	lw	a0,388(a3)
     348:	00078663          	beqz	a5,354 <analog_read_reg32.constprop.4+0x48>
     34c:	3007a7f3          	csrrs	a5,mstatus,a5
     350:	0ff0000f          	fence
     354:	00008067          	ret

00000358 <clock_get_32k_tick>:
     358:	1141                	c.addi	sp,-16
     35a:	c422                	c.swsp	s0,8(sp)
     35c:	c606                	c.swsp	ra,12(sp)
     35e:	377d                	c.jal	30c <analog_read_reg32.constprop.4>
     360:	00a00433          	add	s0,zero,a0
     364:	fa9ff0ef          	jal	ra,30c <analog_read_reg32.constprop.4>
     368:	40850733          	sub	a4,a0,s0
     36c:	842a                	c.mv	s0,a0
     36e:	be176b5b          	bnec	a4,1,364 <clock_get_32k_tick+0xc>
     372:	40b2                	c.lwsp	ra,12(sp)
     374:	4422                	c.lwsp	s0,8(sp)
     376:	0141                	c.addi	sp,16
     378:	00008067          	ret

0000037c <pm_stimer_recover>:
     37c:	1141                	c.addi	sp,-16
     37e:	80140737          	lui	a4,0x80140
     382:	c606                	c.swsp	ra,12(sp)
     384:	4789                	c.li	a5,2
     386:	20f70c23          	sb	a5,536(a4) # 80140218 <_DATA_LMA_START+0x60136710>
     38a:	20a70783          	lb	a5,522(a4)
     38e:	0ff7f793          	andi	a5,a5,255
     392:	00c7e793          	ori	a5,a5,12
     396:	20f70523          	sb	a5,522(a4)
     39a:	3f7d                	c.jal	358 <clock_get_32k_tick>
     39c:	000007b7          	lui	a5,0x0
     3a0:	15878713          	addi	a4,a5,344 # 158 <_AES_VMA_END>
     3a4:	00474703          	lbu	a4,4(a4)
     3a8:	15878793          	addi	a5,a5,344
     3ac:	cf01                	c.beqz	a4,3c4 <pm_stimer_recover+0x48>
     3ae:	4b98                	c.lw	a4,16(a5)
     3b0:	5f90                	c.lw	a2,56(a5)
     3b2:	40e50733          	sub	a4,a0,a4
     3b6:	47d4                	c.lw	a3,12(a5)
     3b8:	0705                	c.addi	a4,1
     3ba:	8315                	c.srli	a4,0x5
     3bc:	c4c716ff          	maddr32	a3,a4,a2
     3c0:	c794                	c.sw	a3,8(a5)
     3c2:	a829                	c.j	3dc <pm_stimer_recover+0x60>
     3c4:	4b98                	c.lw	a4,16(a5)
     3c6:	5f94                	c.lw	a3,56(a5)
     3c8:	40e50733          	sub	a4,a0,a4
     3cc:	0705                	c.addi	a4,1
     3ce:	02d70733          	mul	a4,a4,a3
     3d2:	47d4                	c.lw	a3,12(a5)
     3d4:	8315                	c.srli	a4,0x5
     3d6:	9736                	c.add	a4,a3
     3d8:	00e7a423          	sw	a4,8(a5)
     3dc:	4b98                	c.lw	a4,16(a5)
     3de:	4794                	c.lw	a3,8(a5)
     3e0:	40e50733          	sub	a4,a0,a4
     3e4:	0705                	c.addi	a4,1
     3e6:	0505                	c.addi	a0,1
     3e8:	0685                	c.addi	a3,1
     3ea:	d788                	c.sw	a0,40(a5)
     3ec:	02e7a223          	sw	a4,36(a5)
     3f0:	80140637          	lui	a2,0x80140
     3f4:	801407b7          	lui	a5,0x80140
     3f8:	20d7a023          	sw	a3,512(a5) # 80140200 <_DATA_LMA_START+0x601366f8>
     3fc:	20b60783          	lb	a5,523(a2) # 8014020b <_DATA_LMA_START+0x60136703>
     400:	be77fe5b          	bbc	a5,7,3fc <pm_stimer_recover+0x80>
     404:	20060c23          	sb	zero,536(a2)
     408:	40b2                	c.lwsp	ra,12(sp)
     40a:	0141                	c.addi	sp,16
     40c:	00008067          	ret

00000410 <plic_exit_critical_sec>:
     410:	000007b7          	lui	a5,0x0
     414:	15878793          	addi	a5,a5,344 # 158 <_AES_VMA_END>
     418:	03c78783          	lb	a5,60(a5)
     41c:	0ff7f793          	andi	a5,a5,255
     420:	c795                	c.beqz	a5,44c <plic_exit_critical_sec+0x3c>
     422:	c50d                	c.beqz	a0,44c <plic_exit_critical_sec+0x3c>
     424:	300027f3          	csrr	a5,mstatus
     428:	8ba1                	c.andi	a5,8
     42a:	0ff5f593          	andi	a1,a1,255
     42e:	c78d                	c.beqz	a5,458 <plic_exit_critical_sec+0x48>
     430:	30047773          	csrrci	a4,mstatus,8
     434:	0ff0000f          	fence
     438:	e4200737          	lui	a4,0xe4200
     43c:	c30c                	c.sw	a1,0(a4)
     43e:	0ff0000f          	fence
     442:	3007a7f3          	csrrs	a5,mstatus,a5
     446:	0ff0000f          	fence
     44a:	8082                	c.jr	ra
     44c:	cd81                	c.beqz	a1,464 <plic_exit_critical_sec+0x54>
     44e:	3005a5f3          	csrrs	a1,mstatus,a1
     452:	0ff0000f          	fence
     456:	8082                	c.jr	ra
     458:	e42007b7          	lui	a5,0xe4200
     45c:	00b7a023          	sw	a1,0(a5) # e4200000 <_DATA_LMA_START+0xc41f64f8>
     460:	0ff0000f          	fence
     464:	00008067          	ret

00000468 <plic_enter_critical_sec>:
     468:	000007b7          	lui	a5,0x0
     46c:	15878793          	addi	a5,a5,344 # 158 <_AES_VMA_END>
     470:	03c78783          	lb	a5,60(a5)
     474:	0ff7f793          	andi	a5,a5,255
     478:	cb85                	c.beqz	a5,4a8 <plic_enter_critical_sec+0x40>
     47a:	c51d                	c.beqz	a0,4a8 <plic_enter_critical_sec+0x40>
     47c:	e4200737          	lui	a4,0xe4200
     480:	4308                	c.lw	a0,0(a4)
     482:	04b57163          	bgeu	a0,a1,4c4 <plic_enter_critical_sec+0x5c>
     486:	300027f3          	csrr	a5,mstatus
     48a:	8ba1                	c.andi	a5,8
     48c:	cb85                	c.beqz	a5,4bc <plic_enter_critical_sec+0x54>
     48e:	300476f3          	csrrci	a3,mstatus,8
     492:	0ff0000f          	fence
     496:	c30c                	c.sw	a1,0(a4)
     498:	0ff0000f          	fence
     49c:	3007a7f3          	csrrs	a5,mstatus,a5
     4a0:	0ff0000f          	fence
     4a4:	00008067          	ret
     4a8:	30002573          	csrr	a0,mstatus
     4ac:	8921                	c.andi	a0,8
     4ae:	c919                	c.beqz	a0,4c4 <plic_enter_critical_sec+0x5c>
     4b0:	300477f3          	csrrci	a5,mstatus,8
     4b4:	0ff0000f          	fence
     4b8:	00008067          	ret
     4bc:	00b72023          	sw	a1,0(a4) # e4200000 <_DATA_LMA_START+0xc41f64f8>
     4c0:	0ff0000f          	fence
     4c4:	00008067          	ret

000004c8 <flash_mspi_read_ram>:
     4c8:	7179                	c.addi16sp	sp,-48
     4ca:	d226                	c.swsp	s1,36(sp)
     4cc:	000004b7          	lui	s1,0x0
     4d0:	15848493          	addi	s1,s1,344 # 158 <_AES_VMA_END>
     4d4:	d04a                	c.swsp	s2,32(sp)
     4d6:	c65e                	c.swsp	s7,12(sp)
     4d8:	892a                	c.mv	s2,a0
     4da:	8bae                	c.mv	s7,a1
     4dc:	0404c503          	lbu	a0,64(s1)
     4e0:	0414c583          	lbu	a1,65(s1)
     4e4:	d422                	c.swsp	s0,40(sp)
     4e6:	ce4e                	c.swsp	s3,28(sp)
     4e8:	cc52                	c.swsp	s4,24(sp)
     4ea:	ca56                	c.swsp	s5,20(sp)
     4ec:	c85a                	c.swsp	s6,16(sp)
     4ee:	d606                	c.swsp	ra,44(sp)
     4f0:	8b32                	c.mv	s6,a2
     4f2:	8ab6                	c.mv	s5,a3
     4f4:	843a                	c.mv	s0,a4
     4f6:	8a3e                	c.mv	s4,a5
     4f8:	f71ff0ef          	jal	ra,468 <plic_enter_critical_sec>
     4fc:	80140637          	lui	a2,0x80140
     500:	00a009b3          	add	s3,zero,a0
     504:	10260783          	lb	a5,258(a2) # 80140102 <_DATA_LMA_START+0x601365fa>
     508:	fe07fe5b          	bbs	a5,0,504 <flash_mspi_read_ram+0x3c>
     50c:	10160783          	lb	a5,257(a2)
     510:	80140737          	lui	a4,0x80140
     514:	0ff7f793          	andi	a5,a5,255
     518:	0107e793          	ori	a5,a5,16
     51c:	10f600a3          	sb	a5,257(a2)
     520:	32870783          	lb	a5,808(a4) # 80140328 <_DATA_LMA_START+0x60136820>
     524:	be37fe5b          	bbc	a5,3,520 <flash_mspi_read_ram+0x58>
     528:	10170783          	lb	a5,257(a4)
     52c:	854a                	c.mv	a0,s2
     52e:	0fd7f793          	andi	a5,a5,253
     532:	10f700a3          	sb	a5,257(a4)
     536:	10170783          	lb	a5,257(a4)
     53a:	0f37f793          	andi	a5,a5,243
     53e:	10f700a3          	sb	a5,257(a4)
     542:	330d                	c.jal	264 <flash_send_cmd>
     544:	0e0b1e63          	bnez	s6,640 <flash_mspi_read_ram+0x178>
     548:	020a8063          	beqz	s5,568 <flash_mspi_read_ram+0xa0>
     54c:	00000713          	li	a4,0
     550:	80140637          	lui	a2,0x80140
     554:	10060023          	sb	zero,256(a2) # 80140100 <_DATA_LMA_START+0x601365f8>
     558:	10260783          	lb	a5,258(a2)
     55c:	fe07fe5b          	bbs	a5,0,558 <flash_mspi_read_ram+0x90>
     560:	00170713          	addi	a4,a4,1
     564:	ff5718e3          	bne	a4,s5,554 <flash_mspi_read_ram+0x8c>
     568:	01b96cdb          	bnec	s2,59,580 <flash_mspi_read_ram+0xb8>
     56c:	80140737          	lui	a4,0x80140
     570:	10170783          	lb	a5,257(a4) # 80140101 <_DATA_LMA_START+0x601365f9>
     574:	0f37f793          	andi	a5,a5,243
     578:	0047e793          	ori	a5,a5,4
     57c:	10f700a3          	sb	a5,257(a4)
     580:	801406b7          	lui	a3,0x80140
     584:	10168783          	lb	a5,257(a3) # 80140101 <_DATA_LMA_START+0x601365f9>
     588:	80140737          	lui	a4,0x80140
     58c:	0ff7f793          	andi	a5,a5,255
     590:	0027e793          	ori	a5,a5,2
     594:	10f680a3          	sb	a5,257(a3)
     598:	10068023          	sb	zero,256(a3)
     59c:	10270783          	lb	a5,258(a4) # 80140102 <_DATA_LMA_START+0x601365fa>
     5a0:	fe07fe5b          	bbs	a5,0,59c <flash_mspi_read_ram+0xd4>
     5a4:	10170783          	lb	a5,257(a4)
     5a8:	801406b7          	lui	a3,0x80140
     5ac:	0ff7f793          	andi	a5,a5,255
     5b0:	0017e793          	ori	a5,a5,1
     5b4:	10f700a3          	sb	a5,257(a4)
     5b8:	10268783          	lb	a5,258(a3) # 80140102 <_DATA_LMA_START+0x601365fa>
     5bc:	fe07fe5b          	bbs	a5,0,5b8 <flash_mspi_read_ram+0xf0>
     5c0:	020a0263          	beqz	s4,5e4 <flash_mspi_read_ram+0x11c>
     5c4:	008a0a33          	add	s4,s4,s0
     5c8:	801406b7          	lui	a3,0x80140
     5cc:	10068783          	lb	a5,256(a3) # 80140100 <_DATA_LMA_START+0x601365f8>
     5d0:	00140413          	addi	s0,s0,1
     5d4:	fef40fa3          	sb	a5,-1(s0)
     5d8:	10268783          	lb	a5,258(a3)
     5dc:	fe07fe5b          	bbs	a5,0,5d8 <flash_mspi_read_ram+0x110>
     5e0:	ff4416e3          	bne	s0,s4,5cc <flash_mspi_read_ram+0x104>
     5e4:	801407b7          	lui	a5,0x80140
     5e8:	10178703          	lb	a4,257(a5) # 80140101 <_DATA_LMA_START+0x601365f9>
     5ec:	0fe77713          	andi	a4,a4,254
     5f0:	10e780a3          	sb	a4,257(a5)
     5f4:	01b968db          	bnec	s2,59,604 <flash_mspi_read_ram+0x13c>
     5f8:	10178703          	lb	a4,257(a5)
     5fc:	0f377713          	andi	a4,a4,243
     600:	10e780a3          	sb	a4,257(a5)
     604:	80140737          	lui	a4,0x80140
     608:	10170783          	lb	a5,257(a4) # 80140101 <_DATA_LMA_START+0x601365f9>
     60c:	0ff7f793          	andi	a5,a5,255
     610:	0107e793          	ori	a5,a5,16
     614:	10f700a3          	sb	a5,257(a4)
     618:	0001                	c.nop
     61a:	0001                	c.nop
     61c:	0001                	c.nop
     61e:	0001                	c.nop
     620:	0001                	c.nop
     622:	5422                	c.lwsp	s0,40(sp)
     624:	0404c503          	lbu	a0,64(s1)
     628:	50b2                	c.lwsp	ra,44(sp)
     62a:	5492                	c.lwsp	s1,36(sp)
     62c:	5902                	c.lwsp	s2,32(sp)
     62e:	4a62                	c.lwsp	s4,24(sp)
     630:	4ad2                	c.lwsp	s5,20(sp)
     632:	4b42                	c.lwsp	s6,16(sp)
     634:	4bb2                	c.lwsp	s7,12(sp)
     636:	85ce                	c.mv	a1,s3
     638:	49f2                	c.lwsp	s3,28(sp)
     63a:	6145                	c.addi16sp	sp,48
     63c:	dd5ff06f          	j	410 <plic_exit_critical_sec>
     640:	855e                	c.mv	a0,s7
     642:	3ef9                	c.jal	220 <flash_send_addr>
     644:	f05ff06f          	j	548 <flash_mspi_read_ram+0x80>

00000648 <flash_mspi_read_ram.constprop.7>:
     648:	1101                	c.addi	sp,-32
     64a:	c64e                	c.swsp	s3,12(sp)
     64c:	000009b7          	lui	s3,0x0
     650:	15898993          	addi	s3,s3,344 # 158 <_AES_VMA_END>
     654:	cc22                	c.swsp	s0,24(sp)
     656:	c256                	c.swsp	s5,4(sp)
     658:	842e                	c.mv	s0,a1
     65a:	8aaa                	c.mv	s5,a0
     65c:	0419c583          	lbu	a1,65(s3)
     660:	0409c503          	lbu	a0,64(s3)
     664:	c84a                	c.swsp	s2,16(sp)
     666:	c452                	c.swsp	s4,8(sp)
     668:	ce06                	c.swsp	ra,28(sp)
     66a:	ca26                	c.swsp	s1,20(sp)
     66c:	8932                	c.mv	s2,a2
     66e:	3bed                	c.jal	468 <plic_enter_critical_sec>
     670:	80140737          	lui	a4,0x80140
     674:	00a00a33          	add	s4,zero,a0
     678:	10270783          	lb	a5,258(a4) # 80140102 <_DATA_LMA_START+0x601365fa>
     67c:	fe07fe5b          	bbs	a5,0,678 <flash_mspi_read_ram.constprop.7+0x30>
     680:	10170783          	lb	a5,257(a4)
     684:	801404b7          	lui	s1,0x80140
     688:	0ff7f793          	andi	a5,a5,255
     68c:	0107e793          	ori	a5,a5,16
     690:	10f700a3          	sb	a5,257(a4)
     694:	32848783          	lb	a5,808(s1) # 80140328 <_DATA_LMA_START+0x60136820>
     698:	be37fe5b          	bbc	a5,3,694 <flash_mspi_read_ram.constprop.7+0x4c>
     69c:	10148783          	lb	a5,257(s1)
     6a0:	03b00513          	li	a0,59
     6a4:	0fd7f793          	andi	a5,a5,253
     6a8:	10f480a3          	sb	a5,257(s1)
     6ac:	10148783          	lb	a5,257(s1)
     6b0:	0f37f793          	andi	a5,a5,243
     6b4:	10f480a3          	sb	a5,257(s1)
     6b8:	badff0ef          	jal	ra,264 <flash_send_cmd>
     6bc:	01500533          	add	a0,zero,s5
     6c0:	b61ff0ef          	jal	ra,220 <flash_send_addr>
     6c4:	80140737          	lui	a4,0x80140
     6c8:	10048023          	sb	zero,256(s1)
     6cc:	10270783          	lb	a5,258(a4) # 80140102 <_DATA_LMA_START+0x601365fa>
     6d0:	fe07fe5b          	bbs	a5,0,6cc <flash_mspi_read_ram.constprop.7+0x84>
     6d4:	10170783          	lb	a5,257(a4)
     6d8:	801406b7          	lui	a3,0x80140
     6dc:	0f37f793          	andi	a5,a5,243
     6e0:	0047e793          	ori	a5,a5,4
     6e4:	10f700a3          	sb	a5,257(a4)
     6e8:	10170783          	lb	a5,257(a4)
     6ec:	0ff7f793          	andi	a5,a5,255
     6f0:	0027e793          	ori	a5,a5,2
     6f4:	10f700a3          	sb	a5,257(a4)
     6f8:	10070023          	sb	zero,256(a4)
     6fc:	10268783          	lb	a5,258(a3) # 80140102 <_DATA_LMA_START+0x601365fa>
     700:	fe07fe5b          	bbs	a5,0,6fc <flash_mspi_read_ram.constprop.7+0xb4>
     704:	10168783          	lb	a5,257(a3)
     708:	80140737          	lui	a4,0x80140
     70c:	0ff7f793          	andi	a5,a5,255
     710:	0017e793          	ori	a5,a5,1
     714:	10f680a3          	sb	a5,257(a3)
     718:	10270783          	lb	a5,258(a4) # 80140102 <_DATA_LMA_START+0x601365fa>
     71c:	fe07fe5b          	bbs	a5,0,718 <flash_mspi_read_ram.constprop.7+0xd0>
     720:	02090263          	beqz	s2,744 <flash_mspi_read_ram.constprop.7+0xfc>
     724:	01240633          	add	a2,s0,s2
     728:	80140737          	lui	a4,0x80140
     72c:	10070783          	lb	a5,256(a4) # 80140100 <_DATA_LMA_START+0x601365f8>
     730:	00140413          	addi	s0,s0,1
     734:	fef40fa3          	sb	a5,-1(s0)
     738:	10270783          	lb	a5,258(a4)
     73c:	fe07fe5b          	bbs	a5,0,738 <flash_mspi_read_ram.constprop.7+0xf0>
     740:	fec416e3          	bne	s0,a2,72c <flash_mspi_read_ram.constprop.7+0xe4>
     744:	801407b7          	lui	a5,0x80140
     748:	10178703          	lb	a4,257(a5) # 80140101 <_DATA_LMA_START+0x601365f9>
     74c:	0fe77713          	andi	a4,a4,254
     750:	10e780a3          	sb	a4,257(a5)
     754:	10178703          	lb	a4,257(a5)
     758:	0f377713          	andi	a4,a4,243
     75c:	10e780a3          	sb	a4,257(a5)
     760:	10178703          	lb	a4,257(a5)
     764:	0ff77713          	andi	a4,a4,255
     768:	01076713          	ori	a4,a4,16
     76c:	10e780a3          	sb	a4,257(a5)
     770:	0001                	c.nop
     772:	0001                	c.nop
     774:	0001                	c.nop
     776:	0001                	c.nop
     778:	0001                	c.nop
     77a:	4462                	c.lwsp	s0,24(sp)
     77c:	0409c503          	lbu	a0,64(s3)
     780:	40f2                	c.lwsp	ra,28(sp)
     782:	44d2                	c.lwsp	s1,20(sp)
     784:	4942                	c.lwsp	s2,16(sp)
     786:	49b2                	c.lwsp	s3,12(sp)
     788:	4a92                	c.lwsp	s5,4(sp)
     78a:	85d2                	c.mv	a1,s4
     78c:	4a22                	c.lwsp	s4,8(sp)
     78e:	6105                	c.addi16sp	sp,32
     790:	c81ff06f          	j	410 <plic_exit_critical_sec>

00000794 <analog_write_reg8>:
     794:	30002673          	csrr	a2,mstatus
     798:	8a21                	c.andi	a2,8
     79a:	c609                	c.beqz	a2,7a4 <analog_write_reg8+0x10>
     79c:	300477f3          	csrrci	a5,mstatus,8
     7a0:	0ff0000f          	fence
     7a4:	80140737          	lui	a4,0x80140
     7a8:	18a70023          	sb	a0,384(a4) # 80140180 <_DATA_LMA_START+0x60136678>
     7ac:	18b70223          	sb	a1,388(a4)
     7b0:	06000693          	li	a3,96
     7b4:	801407b7          	lui	a5,0x80140
     7b8:	18d70123          	sb	a3,386(a4)
     7bc:	18278703          	lb	a4,386(a5) # 80140182 <_DATA_LMA_START+0x6013667a>
     7c0:	fe777e5b          	bbs	a4,7,7bc <analog_write_reg8+0x28>
     7c4:	18078123          	sb	zero,386(a5)
     7c8:	00060663          	beqz	a2,7d4 <analog_write_reg8+0x40>
     7cc:	30062673          	csrrs	a2,mstatus,a2
     7d0:	0ff0000f          	fence
     7d4:	00008067          	ret

000007d8 <analog_read_reg8>:
     7d8:	300026f3          	csrr	a3,mstatus
     7dc:	8aa1                	c.andi	a3,8
     7de:	c689                	c.beqz	a3,7e8 <analog_read_reg8+0x10>
     7e0:	300477f3          	csrrci	a5,mstatus,8
     7e4:	0ff0000f          	fence
     7e8:	801407b7          	lui	a5,0x80140
     7ec:	18a78023          	sb	a0,384(a5) # 80140180 <_DATA_LMA_START+0x60136678>
     7f0:	00100713          	li	a4,1
     7f4:	18e781a3          	sb	a4,387(a5)
     7f8:	04000613          	li	a2,64
     7fc:	80140737          	lui	a4,0x80140
     800:	18c78123          	sb	a2,386(a5)
     804:	18270783          	lb	a5,386(a4) # 80140182 <_DATA_LMA_START+0x6013667a>
     808:	fe77fe5b          	bbs	a5,7,804 <analog_read_reg8+0x2c>
     80c:	18470503          	lb	a0,388(a4)
     810:	0ff57513          	andi	a0,a0,255
     814:	00068663          	beqz	a3,820 <analog_read_reg8+0x48>
     818:	3006a6f3          	csrrs	a3,mstatus,a3
     81c:	0ff0000f          	fence
     820:	00008067          	ret

00000824 <clock_init_ram.constprop.11>:
     824:	1141                	c.addi	sp,-16
     826:	80140737          	lui	a4,0x80140
     82a:	c606                	c.swsp	ra,12(sp)
     82c:	c422                	c.swsp	s0,8(sp)
     82e:	c226                	c.swsp	s1,4(sp)
     830:	10270783          	lb	a5,258(a4) # 80140102 <_DATA_LMA_START+0x601365fa>
     834:	fe07fe5b          	bbs	a5,0,830 <clock_init_ram.constprop.11+0xc>
     838:	10170783          	lb	a5,257(a4)
     83c:	801404b7          	lui	s1,0x80140
     840:	0ff7f793          	andi	a5,a5,255
     844:	0107e793          	ori	a5,a5,16
     848:	10f700a3          	sb	a5,257(a4)
     84c:	32848783          	lb	a5,808(s1) # 80140328 <_DATA_LMA_START+0x60136820>
     850:	be37fe5b          	bbc	a5,3,84c <clock_init_ram.constprop.11+0x28>
     854:	1e848783          	lb	a5,488(s1)
     858:	08000513          	li	a0,128
     85c:	8bbd                	c.andi	a5,15
     85e:	1ef48423          	sb	a5,488(s1)
     862:	3f9d                	c.jal	7d8 <analog_read_reg8>
     864:	0e057593          	andi	a1,a0,224
     868:	0105e593          	ori	a1,a1,16
     86c:	08000513          	li	a0,128
     870:	f25ff0ef          	jal	ra,794 <analog_write_reg8>
     874:	00900513          	li	a0,9
     878:	f61ff0ef          	jal	ra,7d8 <analog_read_reg8>
     87c:	0f357593          	andi	a1,a0,243
     880:	0085e593          	ori	a1,a1,8
     884:	4525                	c.li	a0,9
     886:	3739                	c.jal	794 <analog_write_reg8>
     888:	0c000793          	li	a5,192
     88c:	c55f940b          	addigp	s0,-940 # 80454 <sys_clk>
     890:	00f41023          	sh	a5,0(s0)
     894:	08100513          	li	a0,129
     898:	4791                	c.li	a5,4
     89a:	1ef48da3          	sb	a5,507(s1)
     89e:	3f2d                	c.jal	7d8 <analog_read_reg8>
     8a0:	04056593          	ori	a1,a0,64
     8a4:	0ff5f593          	andi	a1,a1,255
     8a8:	08100513          	li	a0,129
     8ac:	ee9ff0ef          	jal	ra,794 <analog_write_reg8>
     8b0:	08800513          	li	a0,136
     8b4:	f25ff0ef          	jal	ra,7d8 <analog_read_reg8>
     8b8:	be557c5b          	bbc	a0,5,8b0 <clock_init_ram.constprop.11+0x8c>
     8bc:	08100513          	li	a0,129
     8c0:	f19ff0ef          	jal	ra,7d8 <analog_read_reg8>
     8c4:	0bf57593          	andi	a1,a0,191
     8c8:	08100513          	li	a0,129
     8cc:	ec9ff0ef          	jal	ra,794 <analog_write_reg8>
     8d0:	801407b7          	lui	a5,0x80140
     8d4:	1e978703          	lb	a4,489(a5) # 801401e9 <_DATA_LMA_START+0x601366e1>
     8d8:	8b3d                	c.andi	a4,15
     8da:	04076713          	ori	a4,a4,64
     8de:	1ee784a3          	sb	a4,489(a5)
     8e2:	1e878703          	lb	a4,488(a5)
     8e6:	f8076713          	ori	a4,a4,-128
     8ea:	0ff77713          	andi	a4,a4,255
     8ee:	1ee78423          	sb	a4,488(a5)
     8f2:	1e878703          	lb	a4,488(a5)
     8f6:	f8076713          	ori	a4,a4,-128
     8fa:	0ff77713          	andi	a4,a4,255
     8fe:	1ee78423          	sb	a4,488(a5)
     902:	1d878703          	lb	a4,472(a5)
     906:	00045683          	lhu	a3,0(s0)
     90a:	0fb77713          	andi	a4,a4,251
     90e:	1ce78c23          	sb	a4,472(a5)
     912:	1d878703          	lb	a4,472(a5)
     916:	8689                	c.srai	a3,0x2
     918:	00d402a3          	sb	a3,5(s0)
     91c:	0fc77713          	andi	a4,a4,252
     920:	1ce78c23          	sb	a4,472(a5)
     924:	1e878703          	lb	a4,488(a5)
     928:	0f077713          	andi	a4,a4,240
     92c:	00876713          	ori	a4,a4,8
     930:	1ee78423          	sb	a4,488(a5)
     934:	1e878703          	lb	a4,488(a5)
     938:	00045683          	lhu	a3,0(s0)
     93c:	08f77713          	andi	a4,a4,143
     940:	868d                	c.srai	a3,0x3
     942:	00d40123          	sb	a3,2(s0)
     946:	02076713          	ori	a4,a4,32
     94a:	1ee78423          	sb	a4,488(a5)
     94e:	0ff6f693          	andi	a3,a3,255
     952:	00d401a3          	sb	a3,3(s0)
     956:	00d40223          	sb	a3,4(s0)
     95a:	40b2                	c.lwsp	ra,12(sp)
     95c:	4422                	c.lwsp	s0,8(sp)
     95e:	4492                	c.lwsp	s1,4(sp)
     960:	0141                	c.addi	sp,16
     962:	8082                	c.jr	ra

00000964 <pm_wait_bbpll_done>:
     964:	1101                	c.addi	sp,-32
     966:	08100513          	li	a0,129
     96a:	cc22                	c.swsp	s0,24(sp)
     96c:	ca26                	c.swsp	s1,20(sp)
     96e:	c84a                	c.swsp	s2,16(sp)
     970:	ce06                	c.swsp	ra,28(sp)
     972:	359d                	c.jal	7d8 <analog_read_reg8>
     974:	04056593          	ori	a1,a0,64
     978:	892a                	c.mv	s2,a0
     97a:	0ff5f593          	andi	a1,a1,255
     97e:	08100513          	li	a0,129
     982:	0bf97913          	andi	s2,s2,191
     986:	4481                	c.li	s1,0
     988:	4475                	c.li	s0,29
     98a:	3529                	c.jal	794 <analog_write_reg8>
     98c:	000107a3          	sb	zero,15(sp)
     990:	00f10783          	lb	a5,15(sp)
     994:	0ff7f793          	andi	a5,a5,255
     998:	02f46063          	bltu	s0,a5,9b8 <pm_wait_bbpll_done+0x54>
     99c:	0001                	c.nop
     99e:	00f10783          	lb	a5,15(sp)
     9a2:	0785                	c.addi	a5,1
     9a4:	0ff7f793          	andi	a5,a5,255
     9a8:	00f107a3          	sb	a5,15(sp)
     9ac:	00f10783          	lb	a5,15(sp)
     9b0:	0ff7f793          	andi	a5,a5,255
     9b4:	fef474e3          	bgeu	s0,a5,99c <pm_wait_bbpll_done+0x38>
     9b8:	08800513          	li	a0,136
     9bc:	e1dff0ef          	jal	ra,7d8 <analog_read_reg8>
     9c0:	4255765b          	bbs	a0,5,9ec <pm_wait_bbpll_done+0x88>
     9c4:	cc95                	c.beqz	s1,a00 <pm_wait_bbpll_done+0x9c>
     9c6:	0414d35b          	beqc	s1,1,a0c <pm_wait_bbpll_done+0xa8>
     9ca:	85ca                	c.mv	a1,s2
     9cc:	08100513          	li	a0,129
     9d0:	dc5ff0ef          	jal	ra,794 <analog_write_reg8>
     9d4:	0024d65b          	beqc	s1,2,9e0 <pm_wait_bbpll_done+0x7c>
     9d8:	0485                	c.addi	s1,1
     9da:	0ff4f493          	andi	s1,s1,255
     9de:	b77d                	c.j	98c <pm_wait_bbpll_done+0x28>
     9e0:	40f2                	c.lwsp	ra,28(sp)
     9e2:	4462                	c.lwsp	s0,24(sp)
     9e4:	44d2                	c.lwsp	s1,20(sp)
     9e6:	4942                	c.lwsp	s2,16(sp)
     9e8:	6105                	c.addi16sp	sp,32
     9ea:	8082                	c.jr	ra
     9ec:	4462                	c.lwsp	s0,24(sp)
     9ee:	40f2                	c.lwsp	ra,28(sp)
     9f0:	44d2                	c.lwsp	s1,20(sp)
     9f2:	85ca                	c.mv	a1,s2
     9f4:	4942                	c.lwsp	s2,16(sp)
     9f6:	08100513          	li	a0,129
     9fa:	6105                	c.addi16sp	sp,32
     9fc:	d99ff06f          	j	794 <analog_write_reg8>
     a00:	04600593          	li	a1,70
     a04:	4505                	c.li	a0,1
     a06:	3379                	c.jal	794 <analog_write_reg8>
     a08:	fd1ff06f          	j	9d8 <pm_wait_bbpll_done+0x74>
     a0c:	04300593          	li	a1,67
     a10:	4505                	c.li	a0,1
     a12:	3349                	c.jal	794 <analog_write_reg8>
     a14:	fc5ff06f          	j	9d8 <pm_wait_bbpll_done+0x74>

00000a18 <pm_sleep_start>:
     a18:	1101                	c.addi	sp,-32
     a1a:	c87fa72b          	lwgp	a4,-892 # 80484 <g_chip_version>
     a1e:	000006b7          	lui	a3,0x0
     a22:	ce06                	c.swsp	ra,28(sp)
     a24:	cc22                	c.swsp	s0,24(sp)
     a26:	ca26                	c.swsp	s1,20(sp)
     a28:	0ff00793          	li	a5,255
     a2c:	19a6c583          	lbu	a1,410(a3) # 19a <g_pm_suspend_power_cfg>
     a30:	00f71a63          	bne	a4,a5,a44 <pm_sleep_start+0x2c>
     a34:	0fe5f593          	andi	a1,a1,254
     a38:	07d00513          	li	a0,125
     a3c:	d59ff0ef          	jal	ra,794 <analog_write_reg8>
     a40:	00c0006f          	j	a4c <pm_sleep_start+0x34>
     a44:	07d00513          	li	a0,125
     a48:	d4dff0ef          	jal	ra,794 <analog_write_reg8>
     a4c:	801406b7          	lui	a3,0x80140
     a50:	10268783          	lb	a5,258(a3) # 80140102 <_DATA_LMA_START+0x601365fa>
     a54:	fe07fe5b          	bbs	a5,0,a50 <pm_sleep_start+0x38>
     a58:	10168703          	lb	a4,257(a3)
     a5c:	801407b7          	lui	a5,0x80140
     a60:	0ff77713          	andi	a4,a4,255
     a64:	01076713          	ori	a4,a4,16
     a68:	10e680a3          	sb	a4,257(a3)
     a6c:	32878703          	lb	a4,808(a5) # 80140328 <_DATA_LMA_START+0x60136820>
     a70:	be377e5b          	bbc	a4,3,a6c <pm_sleep_start+0x54>
     a74:	10178703          	lb	a4,257(a5)
     a78:	80140437          	lui	s0,0x80140
     a7c:	0fd77713          	andi	a4,a4,253
     a80:	10e780a3          	sb	a4,257(a5)
     a84:	10178703          	lb	a4,257(a5)
     a88:	0ef77713          	andi	a4,a4,239
     a8c:	10e780a3          	sb	a4,257(a5)
     a90:	fb900713          	li	a4,-71
     a94:	10e78023          	sb	a4,256(a5)
     a98:	10240783          	lb	a5,258(s0) # 80140102 <_DATA_LMA_START+0x601365fa>
     a9c:	fe07fe5b          	bbs	a5,0,a98 <pm_sleep_start+0x80>
     aa0:	10140783          	lb	a5,257(s0)
     aa4:	452d                	c.li	a0,11
     aa6:	0ff7f793          	andi	a5,a5,255
     aaa:	0107e793          	ori	a5,a5,16
     aae:	10f400a3          	sb	a5,257(s0)
     ab2:	320404a3          	sb	zero,809(s0)
     ab6:	330d                	c.jal	7d8 <analog_read_reg8>
     ab8:	0fc57593          	andi	a1,a0,252
     abc:	452d                	c.li	a0,11
     abe:	39d9                	c.jal	794 <analog_write_reg8>
     ac0:	08100513          	li	a0,129
     ac4:	d15ff0ef          	jal	ra,7d8 <analog_read_reg8>
     ac8:	f8056593          	ori	a1,a0,-128
     acc:	0ff5f593          	andi	a1,a1,255
     ad0:	08100513          	li	a0,129
     ad4:	cc1ff0ef          	jal	ra,794 <analog_write_reg8>
     ad8:	f8000793          	li	a5,-128
     adc:	1ef407a3          	sb	a5,495(s0)
     ae0:	03f00493          	li	s1,63
     ae4:	00012423          	sw	zero,8(sp)
     ae8:	47a2                	c.lwsp	a5,8(sp)
     aea:	00f4e763          	bltu	s1,a5,af8 <pm_sleep_start+0xe0>
     aee:	0001                	c.nop
     af0:	47a2                	c.lwsp	a5,8(sp)
     af2:	0785                	c.addi	a5,1
     af4:	c43e                	c.swsp	a5,8(sp)
     af6:	bfcd                	c.j	ae8 <pm_sleep_start+0xd0>
     af8:	08100513          	li	a0,129
     afc:	cddff0ef          	jal	ra,7d8 <analog_read_reg8>
     b00:	07f57593          	andi	a1,a0,127
     b04:	08100513          	li	a0,129
     b08:	c8dff0ef          	jal	ra,794 <analog_write_reg8>
     b0c:	00b00513          	li	a0,11
     b10:	cc9ff0ef          	jal	ra,7d8 <analog_read_reg8>
     b14:	00356593          	ori	a1,a0,3
     b18:	0ff5f593          	andi	a1,a1,255
     b1c:	452d                	c.li	a0,11
     b1e:	399d                	c.jal	794 <analog_write_reg8>
     b20:	08000593          	li	a1,128
     b24:	07d00513          	li	a0,125
     b28:	c6dff0ef          	jal	ra,794 <analog_write_reg8>
     b2c:	801407b7          	lui	a5,0x80140
     b30:	329784a3          	sb	s1,809(a5) # 80140329 <_DATA_LMA_START+0x60136821>
     b34:	10178683          	lb	a3,257(a5)
     b38:	80140737          	lui	a4,0x80140
     b3c:	0ef6f693          	andi	a3,a3,239
     b40:	10d780a3          	sb	a3,257(a5)
     b44:	fab00693          	li	a3,-85
     b48:	10d78023          	sb	a3,256(a5)
     b4c:	10270783          	lb	a5,258(a4) # 80140102 <_DATA_LMA_START+0x601365fa>
     b50:	fe07fe5b          	bbs	a5,0,b4c <pm_sleep_start+0x134>
     b54:	10170783          	lb	a5,257(a4)
     b58:	12b00693          	li	a3,299
     b5c:	0ff7f793          	andi	a5,a5,255
     b60:	0107e793          	ori	a5,a5,16
     b64:	10f700a3          	sb	a5,257(a4)
     b68:	00012623          	sw	zero,12(sp)
     b6c:	47b2                	c.lwsp	a5,12(sp)
     b6e:	00f6e763          	bltu	a3,a5,b7c <pm_sleep_start+0x164>
     b72:	0001                	c.nop
     b74:	47b2                	c.lwsp	a5,12(sp)
     b76:	0785                	c.addi	a5,1
     b78:	c63e                	c.swsp	a5,12(sp)
     b7a:	bfcd                	c.j	b6c <pm_sleep_start+0x154>
     b7c:	08800513          	li	a0,136
     b80:	c59ff0ef          	jal	ra,7d8 <analog_read_reg8>
     b84:	be757c5b          	bbc	a0,7,b7c <pm_sleep_start+0x164>
     b88:	08800513          	li	a0,136
     b8c:	c4dff0ef          	jal	ra,7d8 <analog_read_reg8>
     b90:	be757c5b          	bbc	a0,7,b88 <pm_sleep_start+0x170>
     b94:	08800513          	li	a0,136
     b98:	c41ff0ef          	jal	ra,7d8 <analog_read_reg8>
     b9c:	be757c5b          	bbc	a0,7,b94 <pm_sleep_start+0x17c>
     ba0:	4462                	c.lwsp	s0,24(sp)
     ba2:	40f2                	c.lwsp	ra,28(sp)
     ba4:	44d2                	c.lwsp	s1,20(sp)
     ba6:	6105                	c.addi16sp	sp,32
     ba8:	dbdff06f          	j	964 <pm_wait_bbpll_done>

00000bac <dr_putchar>:
     bac:	1101                	c.addi	sp,-32
     bae:	ca26                	c.swsp	s1,20(sp)
     bb0:	cc22                	c.swsp	s0,24(sp)
     bb2:	ce06                	c.swsp	ra,28(sp)
     bb4:	c84a                	c.swsp	s2,16(sp)
     bb6:	c51f948b          	addigp	s1,-944 # 80450 <init_flag.4915>
     bba:	842a                	c.mv	s0,a0
     bbc:	0004c783          	lbu	a5,0(s1)
     bc0:	0c17d25b          	beqc	a5,1,c84 <dr_putchar+0xd8>
     bc4:	801407b7          	lui	a5,0x80140
     bc8:	30378703          	lb	a4,771(a5) # 80140303 <_DATA_LMA_START+0x601367fb>
     bcc:	30378783          	lb	a5,771(a5)
     bd0:	0fe77713          	andi	a4,a4,254
     bd4:	0ff7f793          	andi	a5,a5,255
     bd8:	0017e793          	ori	a5,a5,1
     bdc:	00e10223          	sb	a4,4(sp)
     be0:	86be                	c.mv	a3,a5
     be2:	4004735b          	bbs	s0,0,be8 <dr_putchar+0x3c>
     be6:	86ba                	c.mv	a3,a4
     be8:	00d102a3          	sb	a3,5(sp)
     bec:	86be                	c.mv	a3,a5
     bee:	4014735b          	bbs	s0,1,bf4 <dr_putchar+0x48>
     bf2:	86ba                	c.mv	a3,a4
     bf4:	00d10323          	sb	a3,6(sp)
     bf8:	86be                	c.mv	a3,a5
     bfa:	4024735b          	bbs	s0,2,c00 <dr_putchar+0x54>
     bfe:	86ba                	c.mv	a3,a4
     c00:	00d103a3          	sb	a3,7(sp)
     c04:	86be                	c.mv	a3,a5
     c06:	4034735b          	bbs	s0,3,c0c <dr_putchar+0x60>
     c0a:	86ba                	c.mv	a3,a4
     c0c:	00d10423          	sb	a3,8(sp)
     c10:	86be                	c.mv	a3,a5
     c12:	4044735b          	bbs	s0,4,c18 <dr_putchar+0x6c>
     c16:	86ba                	c.mv	a3,a4
     c18:	00d104a3          	sb	a3,9(sp)
     c1c:	86be                	c.mv	a3,a5
     c1e:	4054735b          	bbs	s0,5,c24 <dr_putchar+0x78>
     c22:	86ba                	c.mv	a3,a4
     c24:	00d10523          	sb	a3,10(sp)
     c28:	86be                	c.mv	a3,a5
     c2a:	4064735b          	bbs	s0,6,c30 <dr_putchar+0x84>
     c2e:	86ba                	c.mv	a3,a4
     c30:	00d105a3          	sb	a3,11(sp)
     c34:	801d                	c.srli	s0,0x7
     c36:	c019                	c.beqz	s0,c3c <dr_putchar+0x90>
     c38:	00f00733          	add	a4,zero,a5
     c3c:	00f106a3          	sb	a5,13(sp)
     c40:	801407b7          	lui	a5,0x80140
     c44:	00e10623          	sb	a4,12(sp)
     c48:	2007a603          	lw	a2,512(a5) # 80140200 <_DATA_LMA_START+0x601366f8>
     c4c:	00410513          	addi	a0,sp,4
     c50:	00e10813          	addi	a6,sp,14
     c54:	801406b7          	lui	a3,0x80140
     c58:	08900593          	li	a1,137
     c5c:	2006a783          	lw	a5,512(a3) # 80140200 <_DATA_LMA_START+0x601366f8>
     c60:	40c78733          	sub	a4,a5,a2
     c64:	fee5fce3          	bgeu	a1,a4,c5c <dr_putchar+0xb0>
     c68:	00054703          	lbu	a4,0(a0)
     c6c:	0505                	c.addi	a0,1
     c6e:	30e681a3          	sb	a4,771(a3)
     c72:	863e                	c.mv	a2,a5
     c74:	ff0514e3          	bne	a0,a6,c5c <dr_putchar+0xb0>
     c78:	40f2                	c.lwsp	ra,28(sp)
     c7a:	4462                	c.lwsp	s0,24(sp)
     c7c:	44d2                	c.lwsp	s1,20(sp)
     c7e:	4942                	c.lwsp	s2,16(sp)
     c80:	6105                	c.addi16sp	sp,32
     c82:	8082                	c.jr	ra
     c84:	80140937          	lui	s2,0x80140
     c88:	30690783          	lb	a5,774(s2) # 80140306 <_DATA_LMA_START+0x601367fe>
     c8c:	4539                	c.li	a0,14
     c8e:	0ff7f793          	andi	a5,a5,255
     c92:	0017e793          	ori	a5,a5,1
     c96:	30f90323          	sb	a5,774(s2)
     c9a:	3e3d                	c.jal	7d8 <analog_read_reg8>
     c9c:	0fc57593          	andi	a1,a0,252
     ca0:	0015e593          	ori	a1,a1,1
     ca4:	4539                	c.li	a0,14
     ca6:	34fd                	c.jal	794 <analog_write_reg8>
     ca8:	30290783          	lb	a5,770(s2)
     cac:	0fe7f793          	andi	a5,a5,254
     cb0:	30f90123          	sb	a5,770(s2)
     cb4:	30390783          	lb	a5,771(s2)
     cb8:	0ff7f793          	andi	a5,a5,255
     cbc:	0017e793          	ori	a5,a5,1
     cc0:	30f901a3          	sb	a5,771(s2)
     cc4:	00048023          	sb	zero,0(s1)
     cc8:	efdff06f          	j	bc4 <dr_putchar+0x18>

00000ccc <pm_sleep_wakeup_ram.constprop.3>:
     ccc:	1101                	c.addi	sp,-32
     cce:	c452                	c.swsp	s4,8(sp)
     cd0:	8a2a                	c.mv	s4,a0
     cd2:	ce06                	c.swsp	ra,28(sp)
     cd4:	cc22                	c.swsp	s0,24(sp)
     cd6:	ca26                	c.swsp	s1,20(sp)
     cd8:	c84a                	c.swsp	s2,16(sp)
     cda:	c64e                	c.swsp	s3,12(sp)
     cdc:	c256                	c.swsp	s5,4(sp)
     cde:	c05a                	c.swsp	s6,0(sp)
     ce0:	300029f3          	csrr	s3,mstatus
     ce4:	0089f993          	andi	s3,s3,8
     ce8:	00098663          	beqz	s3,cf4 <pm_sleep_wakeup_ram.constprop.3+0x28>
     cec:	300477f3          	csrrci	a5,mstatus,8
     cf0:	0ff0000f          	fence
     cf4:	801407b7          	lui	a5,0x80140
     cf8:	2147a683          	lw	a3,532(a5) # 80140214 <_DATA_LMA_START+0x6013670c>
     cfc:	def5                	c.beqz	a3,cf8 <pm_sleep_wakeup_ram.constprop.3+0x2c>
     cfe:	00000437          	lui	s0,0x0
     d02:	15840693          	addi	a3,s0,344 # 158 <_AES_VMA_END>
     d06:	2147a783          	lw	a5,532(a5)
     d0a:	5298                	c.lw	a4,32(a3)
     d0c:	da9c                	c.sw	a5,48(a3)
     d0e:	15840413          	addi	s0,s0,344
     d12:	0792                	c.slli	a5,0x4
     d14:	cb11                	c.beqz	a4,d28 <pm_sleep_wakeup_ram.constprop.3+0x5c>
     d16:	03444603          	lbu	a2,52(s0)
     d1a:	4691                	c.li	a3,4
     d1c:	8f99                	c.sub	a5,a4
     d1e:	8e91                	c.sub	a3,a2
     d20:	40d7d7b3          	sra	a5,a5,a3
     d24:	00e787b3          	add	a5,a5,a4
     d28:	d01c                	c.sw	a5,32(s0)
     d2a:	5004                	c.lw	s1,32(s0)
     d2c:	485c                	c.lw	a5,20(s0)
     d2e:	8491                	c.srai	s1,0x4
     d30:	02f487b3          	mul	a5,s1,a5
     d34:	80140937          	lui	s2,0x80140
     d38:	20092a83          	lw	s5,512(s2) # 80140200 <_DATA_LMA_START+0x601366f8>
     d3c:	e0000737          	lui	a4,0xe0000
     d40:	415a0ab3          	sub	s5,s4,s5
     d44:	87c9                	c.srai	a5,0x12
     d46:	94be                	c.add	s1,a5
     d48:	0486                	c.slli	s1,0x1
     d4a:	dc04                	c.sw	s1,56(s0)
     d4c:	03577063          	bgeu	a4,s5,d6c <pm_sleep_wakeup_ram.constprop.3+0xa0>
     d50:	00098663          	beqz	s3,d5c <pm_sleep_wakeup_ram.constprop.3+0x90>
     d54:	3009a9f3          	csrrs	s3,mstatus,s3
     d58:	0ff0000f          	fence
     d5c:	06400513          	li	a0,100
     d60:	a79ff0ef          	jal	ra,7d8 <analog_read_reg8>
     d64:	01f57513          	andi	a0,a0,31
     d68:	25c0006f          	j	fc4 <pm_sleep_wakeup_ram.constprop.3+0x2f8>
     d6c:	04a41783          	lh	a5,74(s0)
     d70:	1137a7db          	bfoz	a5,a5,4,19
     d74:	02fafe63          	bgeu	s5,a5,db0 <pm_sleep_wakeup_ram.constprop.3+0xe4>
     d78:	45fd                	c.li	a1,31
     d7a:	06400513          	li	a0,100
     d7e:	801404b7          	lui	s1,0x80140
     d82:	20092403          	lw	s0,512(s2)
     d86:	3439                	c.jal	794 <analog_write_reg8>
     d88:	06400513          	li	a0,100
     d8c:	a4dff0ef          	jal	ra,7d8 <analog_read_reg8>
     d90:	2004a783          	lw	a5,512(s1) # 80140200 <_DATA_LMA_START+0x601366f8>
     d94:	897d                	c.andi	a0,31
     d96:	8f81                	c.sub	a5,s0
     d98:	0157f463          	bgeu	a5,s5,da0 <pm_sleep_wakeup_ram.constprop.3+0xd4>
     d9c:	fe0506e3          	beqz	a0,d88 <pm_sleep_wakeup_ram.constprop.3+0xbc>
     da0:	22098263          	beqz	s3,fc4 <pm_sleep_wakeup_ram.constprop.3+0x2f8>
     da4:	3009a9f3          	csrrs	s3,mstatus,s3
     da8:	0ff0000f          	fence
     dac:	2180006f          	j	fc4 <pm_sleep_wakeup_ram.constprop.3+0x2f8>
     db0:	1e890a83          	lb	s5,488(s2)
     db4:	00faf793          	andi	a5,s5,15
     db8:	1ef90423          	sb	a5,488(s2)
     dbc:	1d890b03          	lb	s6,472(s2)
     dc0:	0f8b7793          	andi	a5,s6,248
     dc4:	1cf90c23          	sb	a5,472(s2)
     dc8:	00100793          	li	a5,1
     dcc:	20f90c23          	sb	a5,536(s2)
     dd0:	20a90783          	lb	a5,522(s2)
     dd4:	0f77f793          	andi	a5,a5,247
     dd8:	20f90523          	sb	a5,522(s2)
     ddc:	d7cff0ef          	jal	ra,358 <clock_get_32k_tick>
     de0:	20092703          	lw	a4,512(s2)
     de4:	20b90783          	lb	a5,523(s2)
     de8:	5414                	c.lw	a3,40(s0)
     dea:	0ff7f793          	andi	a5,a5,255
     dee:	0027e793          	ori	a5,a5,2
     df2:	c468                	c.sw	a0,76(s0)
     df4:	c418                	c.sw	a4,8(s0)
     df6:	03444603          	lbu	a2,52(s0)
     dfa:	40d506b3          	sub	a3,a0,a3
     dfe:	20f905a3          	sb	a5,523(s2)
     e02:	d454                	c.sw	a3,44(s0)
     e04:	e215                	c.bnez	a2,e28 <pm_sleep_wakeup_ram.constprop.3+0x15c>
     e06:	445c                	c.lw	a5,12(s0)
     e08:	c385                	c.beqz	a5,e28 <pm_sleep_wakeup_ram.constprop.3+0x15c>
     e0a:	05044783          	lbu	a5,80(s0)
     e0e:	ef89                	c.bnez	a5,e28 <pm_sleep_wakeup_ram.constprop.3+0x15c>
     e10:	01042783          	lw	a5,16(s0)
     e14:	000276b7          	lui	a3,0x27
     e18:	40f507b3          	sub	a5,a0,a5
     e1c:	6c07a7db          	bfoz	a5,a5,27,0
     e20:	10068693          	addi	a3,a3,256 # 27100 <BIN_SIZE+0x1d16a>
     e24:	00f6f863          	bgeu	a3,a5,e34 <pm_sleep_wakeup_ram.constprop.3+0x168>
     e28:	00176713          	ori	a4,a4,1
     e2c:	02040a23          	sb	zero,52(s0)
     e30:	c808                	c.sw	a0,16(s0)
     e32:	c458                	c.sw	a4,12(s0)
     e34:	02000593          	li	a1,32
     e38:	04b00513          	li	a0,75
     e3c:	959ff0ef          	jal	ra,794 <analog_write_reg8>
     e40:	45fd                	c.li	a1,31
     e42:	06400513          	li	a0,100
     e46:	32b9                	c.jal	794 <analog_write_reg8>
     e48:	03000593          	li	a1,48
     e4c:	07e00513          	li	a0,126
     e50:	945ff0ef          	jal	ra,794 <analog_write_reg8>
     e54:	0f900593          	li	a1,249
     e58:	04d00513          	li	a0,77
     e5c:	939ff0ef          	jal	ra,794 <analog_write_reg8>
     e60:	4585                	c.li	a1,1
     e62:	07f00513          	li	a0,127
     e66:	323d                	c.jal	794 <analog_write_reg8>
     e68:	04841783          	lh	a5,72(s0)
     e6c:	0ee00593          	li	a1,238
     e70:	1137a7db          	bfoz	a5,a5,4,19
     e74:	04c00513          	li	a0,76
     e78:	40fa0933          	sub	s2,s4,a5
     e7c:	919ff0ef          	jal	ra,794 <analog_write_reg8>
     e80:	05441583          	lh	a1,84(s0)
     e84:	04000513          	li	a0,64
     e88:	0ff5f593          	andi	a1,a1,255
     e8c:	909ff0ef          	jal	ra,794 <analog_write_reg8>
     e90:	445c                	c.lw	a5,12(s0)
     e92:	07ff0737          	lui	a4,0x7ff0
     e96:	40f907b3          	sub	a5,s2,a5
     e9a:	00f77763          	bgeu	a4,a5,ea8 <pm_sleep_wakeup_ram.constprop.3+0x1dc>
     e9e:	4705                	c.li	a4,1
     ea0:	00e40223          	sb	a4,4(s0)
     ea4:	0080006f          	j	eac <pm_sleep_wakeup_ram.constprop.3+0x1e0>
     ea8:	00040223          	sb	zero,4(s0)
     eac:	00444683          	lbu	a3,4(s0)
     eb0:	4808                	c.lw	a0,16(s0)
     eb2:	5c18                	c.lw	a4,56(s0)
     eb4:	c691                	c.beqz	a3,ec0 <pm_sleep_wakeup_ram.constprop.3+0x1f4>
     eb6:	02e7d7b3          	divu	a5,a5,a4
     eba:	0796                	c.slli	a5,0x5
     ebc:	953e                	c.add	a0,a5
     ebe:	a039                	c.j	ecc <pm_sleep_wakeup_ram.constprop.3+0x200>
     ec0:	8085                	c.srli	s1,0x1
     ec2:	0796                	c.slli	a5,0x5
     ec4:	97a6                	c.add	a5,s1
     ec6:	02e7d7b3          	divu	a5,a5,a4
     eca:	953e                	c.add	a0,a5
     ecc:	be0ff0ef          	jal	ra,2ac <clock_set_32k_tick>
     ed0:	06400513          	li	a0,100
     ed4:	905ff0ef          	jal	ra,7d8 <analog_read_reg8>
     ed8:	01f57513          	andi	a0,a0,31
     edc:	e901                	c.bnez	a0,eec <pm_sleep_wakeup_ram.constprop.3+0x220>
     ede:	3e2d                	c.jal	a18 <pm_sleep_start>
     ee0:	00100593          	li	a1,1
     ee4:	07f00513          	li	a0,127
     ee8:	8adff0ef          	jal	ra,794 <analog_write_reg8>
     eec:	80140737          	lui	a4,0x80140
     ef0:	02000793          	li	a5,32
     ef4:	1ef707a3          	sb	a5,495(a4) # 801401ef <_DATA_LMA_START+0x601366e7>
     ef8:	00200793          	li	a5,2
     efc:	20f70c23          	sb	a5,536(a4)
     f00:	20a70783          	lb	a5,522(a4)
     f04:	0ff7f793          	andi	a5,a5,255
     f08:	00c7e793          	ori	a5,a5,12
     f0c:	20f70523          	sb	a5,522(a4)
     f10:	c48ff0ef          	jal	ra,358 <clock_get_32k_tick>
     f14:	00444783          	lbu	a5,4(s0)
     f18:	cf81                	c.beqz	a5,f30 <pm_sleep_wakeup_ram.constprop.3+0x264>
     f1a:	481c                	c.lw	a5,16(s0)
     f1c:	5c14                	c.lw	a3,56(s0)
     f1e:	40f507b3          	sub	a5,a0,a5
     f22:	4458                	c.lw	a4,12(s0)
     f24:	0785                	c.addi	a5,1
     f26:	8395                	c.srli	a5,0x5
     f28:	c4d7977f          	maddr32	a4,a5,a3
     f2c:	c418                	c.sw	a4,8(s0)
     f2e:	a829                	c.j	f48 <pm_sleep_wakeup_ram.constprop.3+0x27c>
     f30:	481c                	c.lw	a5,16(s0)
     f32:	5c18                	c.lw	a4,56(s0)
     f34:	40f507b3          	sub	a5,a0,a5
     f38:	0785                	c.addi	a5,1
     f3a:	02e787b3          	mul	a5,a5,a4
     f3e:	4458                	c.lw	a4,12(s0)
     f40:	8395                	c.srli	a5,0x5
     f42:	97ba                	c.add	a5,a4
     f44:	00f42423          	sw	a5,8(s0)
     f48:	481c                	c.lw	a5,16(s0)
     f4a:	4414                	c.lw	a3,8(s0)
     f4c:	40f507b3          	sub	a5,a0,a5
     f50:	0785                	c.addi	a5,1
     f52:	0505                	c.addi	a0,1
     f54:	d05c                	c.sw	a5,36(s0)
     f56:	0685                	c.addi	a3,1
     f58:	02a42423          	sw	a0,40(s0)
     f5c:	801407b7          	lui	a5,0x80140
     f60:	80140737          	lui	a4,0x80140
     f64:	20d7a023          	sw	a3,512(a5) # 80140200 <_DATA_LMA_START+0x601366f8>
     f68:	20b70783          	lb	a5,523(a4) # 8014020b <_DATA_LMA_START+0x60136703>
     f6c:	be77fe5b          	bbc	a5,7,f68 <pm_sleep_wakeup_ram.constprop.3+0x29c>
     f70:	20070c23          	sb	zero,536(a4)
     f74:	1d670c23          	sb	s6,472(a4)
     f78:	06400513          	li	a0,100
     f7c:	1f570423          	sb	s5,488(a4)
     f80:	859ff0ef          	jal	ra,7d8 <analog_read_reg8>
     f84:	c89f970b          	addigp	a4,-888 # 80488 <g_pm_status_info>
     f88:	00a700a3          	sb	a0,1(a4)
     f8c:	c89f978b          	addigp	a5,-888 # 80488 <g_pm_status_info>
     f90:	00157c5b          	bbc	a0,1,fa8 <pm_sleep_wakeup_ram.constprop.3+0x2dc>
     f94:	80140637          	lui	a2,0x80140
     f98:	400006b7          	lui	a3,0x40000
     f9c:	20062703          	lw	a4,512(a2) # 80140200 <_DATA_LMA_START+0x601366f8>
     fa0:	41470733          	sub	a4,a4,s4
     fa4:	fee6ece3          	bltu	a3,a4,f9c <pm_sleep_wakeup_ram.constprop.3+0x2d0>
     fa8:	00098663          	beqz	s3,fb4 <pm_sleep_wakeup_ram.constprop.3+0x2e8>
     fac:	3009a9f3          	csrrs	s3,mstatus,s3
     fb0:	0ff0000f          	fence
     fb4:	0017c783          	lbu	a5,1(a5)
     fb8:	10000513          	li	a0,256
     fbc:	c781                	c.beqz	a5,fc4 <pm_sleep_wakeup_ram.constprop.3+0x2f8>
     fbe:	40000537          	lui	a0,0x40000
     fc2:	8d5d                	c.or	a0,a5
     fc4:	40f2                	c.lwsp	ra,28(sp)
     fc6:	4462                	c.lwsp	s0,24(sp)
     fc8:	44d2                	c.lwsp	s1,20(sp)
     fca:	4942                	c.lwsp	s2,16(sp)
     fcc:	49b2                	c.lwsp	s3,12(sp)
     fce:	4a22                	c.lwsp	s4,8(sp)
     fd0:	4a92                	c.lwsp	s5,4(sp)
     fd2:	4b02                	c.lwsp	s6,0(sp)
     fd4:	6105                	c.addi16sp	sp,32
     fd6:	8082                	c.jr	ra

00000fd8 <trap_entry>:
     fd8:	1101                	c.addi	sp,-32
     fda:	ce2a                	c.swsp	a0,28(sp)
     fdc:	cc2e                	c.swsp	a1,24(sp)
     fde:	ca32                	c.swsp	a2,20(sp)
     fe0:	c836                	c.swsp	a3,16(sp)
     fe2:	c63a                	c.swsp	a4,12(sp)
     fe4:	c43e                	c.swsp	a5,8(sp)
     fe6:	34202773          	csrr	a4,mcause
     fea:	000007b7          	lui	a5,0x0
     fee:	15878793          	addi	a5,a5,344 # 158 <_AES_VMA_END>
     ff2:	03c78683          	lb	a3,60(a5)
     ff6:	0ff6f693          	andi	a3,a3,255
     ffa:	c2dd                	c.beqz	a3,10a0 <trap_entry+0xc8>
     ffc:	34102673          	csrr	a2,mepc
    1000:	300025f3          	csrr	a1,mstatus
    1004:	7c4026f3          	csrr	a3,mxstatus
    1008:	02074a63          	bltz	a4,103c <trap_entry+0x64>
    100c:	34302773          	csrr	a4,mtval
    1010:	c8efc1ab          	swgp	a4,-896 # 80480 <exception_mtval>
    1014:	34102773          	csrr	a4,mepc
    1018:	c6efcdab          	swgp	a4,-904 # 80478 <exception_mepc>
    101c:	30002773          	csrr	a4,mstatus
    1020:	c6efcfab          	swgp	a4,-900 # 8047c <exception_mstatus>
    1024:	34202773          	csrr	a4,mcause
    1028:	c6efc9ab          	swgp	a4,-912 # 80470 <_BSS_VMA_START>
    102c:	7c902773          	csrr	a4,mdcause
    1030:	c6efcbab          	swgp	a4,-908 # 80474 <exception_mdcause>
    1034:	0001                	c.nop
    1036:	0001                	c.nop
    1038:	ffdff06f          	j	1034 <trap_entry+0x5c>
    103c:	7807275b          	bfoz	a4,a4,30,0
    1040:	0677545b          	beqc	a4,7,10a8 <trap_entry+0xd0>
    1044:	bc37645b          	bnec	a4,3,100c <trap_entry+0x34>
    1048:	e6600737          	lui	a4,0xe6600
    104c:	4358                	c.lw	a4,4(a4)
    104e:	03c78703          	lb	a4,60(a5)
    1052:	0ff77713          	andi	a4,a4,255
    1056:	c319                	c.beqz	a4,105c <trap_entry+0x84>
    1058:	30046773          	csrrsi	a4,mstatus,8
    105c:	03c78703          	lb	a4,60(a5)
    1060:	0ff77713          	andi	a4,a4,255
    1064:	00070463          	beqz	a4,106c <trap_entry+0x94>
    1068:	30047773          	csrrci	a4,mstatus,8
    106c:	e6600737          	lui	a4,0xe6600
    1070:	4505                	c.li	a0,1
    1072:	c348                	c.sw	a0,4(a4)
    1074:	03c78783          	lb	a5,60(a5)
    1078:	0ff7f793          	andi	a5,a5,255
    107c:	00078863          	beqz	a5,108c <trap_entry+0xb4>
    1080:	30059073          	csrw	mstatus,a1
    1084:	34161073          	csrw	mepc,a2
    1088:	7c469073          	csrw	mxstatus,a3
    108c:	4572                	c.lwsp	a0,28(sp)
    108e:	45e2                	c.lwsp	a1,24(sp)
    1090:	4652                	c.lwsp	a2,20(sp)
    1092:	46c2                	c.lwsp	a3,16(sp)
    1094:	4732                	c.lwsp	a4,12(sp)
    1096:	47a2                	c.lwsp	a5,8(sp)
    1098:	02010113          	addi	sp,sp,32
    109c:	30200073          	mret
    10a0:	4681                	c.li	a3,0
    10a2:	4581                	c.li	a1,0
    10a4:	4601                	c.li	a2,0
    10a6:	b78d                	c.j	1008 <trap_entry+0x30>
    10a8:	03c78703          	lb	a4,60(a5)
    10ac:	0ff77713          	andi	a4,a4,255
    10b0:	00070863          	beqz	a4,10c0 <trap_entry+0xe8>
    10b4:	08000713          	li	a4,128
    10b8:	30473773          	csrrc	a4,mie,a4
    10bc:	30046773          	csrrsi	a4,mstatus,8
    10c0:	03c78703          	lb	a4,60(a5)
    10c4:	0ff77713          	andi	a4,a4,255
    10c8:	d755                	c.beqz	a4,1074 <trap_entry+0x9c>
    10ca:	30047773          	csrrci	a4,mstatus,8
    10ce:	08000713          	li	a4,128
    10d2:	30472773          	csrrs	a4,mie,a4
    10d6:	bf79                	c.j	1074 <trap_entry+0x9c>
    10d8:	0001                	c.nop
	...

00001100 <__vectors>:
    1100:	0fd8                	c.addi4spn	a4,sp,980
    1102:	0000                	unimp
    1104:	26f8                	c.fld	fa4,200(a3)
    1106:	0000                	unimp
    1108:	26f8                	c.fld	fa4,200(a3)
    110a:	0000                	unimp
    110c:	26f8                	c.fld	fa4,200(a3)
    110e:	0000                	unimp
    1110:	26f8                	c.fld	fa4,200(a3)
    1112:	0000                	unimp
    1114:	26f8                	c.fld	fa4,200(a3)
    1116:	0000                	unimp
    1118:	26f8                	c.fld	fa4,200(a3)
    111a:	0000                	unimp
    111c:	26f8                	c.fld	fa4,200(a3)
    111e:	0000                	unimp
    1120:	26f8                	c.fld	fa4,200(a3)
    1122:	0000                	unimp
    1124:	26f8                	c.fld	fa4,200(a3)
    1126:	0000                	unimp
    1128:	26f8                	c.fld	fa4,200(a3)
    112a:	0000                	unimp
    112c:	26f8                	c.fld	fa4,200(a3)
    112e:	0000                	unimp
    1130:	26f8                	c.fld	fa4,200(a3)
    1132:	0000                	unimp
    1134:	26f8                	c.fld	fa4,200(a3)
    1136:	0000                	unimp
    1138:	26f8                	c.fld	fa4,200(a3)
    113a:	0000                	unimp
    113c:	26f8                	c.fld	fa4,200(a3)
    113e:	0000                	unimp
    1140:	26f8                	c.fld	fa4,200(a3)
    1142:	0000                	unimp
    1144:	26f8                	c.fld	fa4,200(a3)
    1146:	0000                	unimp
    1148:	26f8                	c.fld	fa4,200(a3)
    114a:	0000                	unimp
    114c:	26f8                	c.fld	fa4,200(a3)
    114e:	0000                	unimp
    1150:	26f8                	c.fld	fa4,200(a3)
    1152:	0000                	unimp
    1154:	26f8                	c.fld	fa4,200(a3)
    1156:	0000                	unimp
    1158:	26f8                	c.fld	fa4,200(a3)
    115a:	0000                	unimp
    115c:	26f8                	c.fld	fa4,200(a3)
    115e:	0000                	unimp
    1160:	26f8                	c.fld	fa4,200(a3)
    1162:	0000                	unimp
    1164:	26f8                	c.fld	fa4,200(a3)
    1166:	0000                	unimp
    1168:	26f8                	c.fld	fa4,200(a3)
    116a:	0000                	unimp
    116c:	26f8                	c.fld	fa4,200(a3)
    116e:	0000                	unimp
    1170:	26f8                	c.fld	fa4,200(a3)
    1172:	0000                	unimp
    1174:	26f8                	c.fld	fa4,200(a3)
    1176:	0000                	unimp
    1178:	26f8                	c.fld	fa4,200(a3)
    117a:	0000                	unimp
    117c:	26f8                	c.fld	fa4,200(a3)
    117e:	0000                	unimp
    1180:	26f8                	c.fld	fa4,200(a3)
    1182:	0000                	unimp
    1184:	26f8                	c.fld	fa4,200(a3)
    1186:	0000                	unimp
    1188:	26f8                	c.fld	fa4,200(a3)
    118a:	0000                	unimp
    118c:	26f8                	c.fld	fa4,200(a3)
    118e:	0000                	unimp
    1190:	26f8                	c.fld	fa4,200(a3)
    1192:	0000                	unimp
    1194:	26f8                	c.fld	fa4,200(a3)
    1196:	0000                	unimp
    1198:	26f8                	c.fld	fa4,200(a3)
    119a:	0000                	unimp
    119c:	26f8                	c.fld	fa4,200(a3)
    119e:	0000                	unimp
    11a0:	26f8                	c.fld	fa4,200(a3)
    11a2:	0000                	unimp
    11a4:	26f8                	c.fld	fa4,200(a3)
    11a6:	0000                	unimp
    11a8:	26f8                	c.fld	fa4,200(a3)
    11aa:	0000                	unimp
    11ac:	26f8                	c.fld	fa4,200(a3)
    11ae:	0000                	unimp
    11b0:	26f8                	c.fld	fa4,200(a3)
    11b2:	0000                	unimp
    11b4:	26f8                	c.fld	fa4,200(a3)
    11b6:	0000                	unimp
    11b8:	26f8                	c.fld	fa4,200(a3)
    11ba:	0000                	unimp
    11bc:	26f8                	c.fld	fa4,200(a3)
    11be:	0000                	unimp
    11c0:	26f8                	c.fld	fa4,200(a3)
    11c2:	0000                	unimp
    11c4:	26f8                	c.fld	fa4,200(a3)
    11c6:	0000                	unimp
    11c8:	26f8                	c.fld	fa4,200(a3)
    11ca:	0000                	unimp
    11cc:	26f8                	c.fld	fa4,200(a3)
    11ce:	0000                	unimp
    11d0:	26f8                	c.fld	fa4,200(a3)
    11d2:	0000                	unimp
    11d4:	26f8                	c.fld	fa4,200(a3)
    11d6:	0000                	unimp
    11d8:	26f8                	c.fld	fa4,200(a3)
    11da:	0000                	unimp
    11dc:	26f8                	c.fld	fa4,200(a3)
    11de:	0000                	unimp
    11e0:	26f8                	c.fld	fa4,200(a3)
    11e2:	0000                	unimp
    11e4:	26f8                	c.fld	fa4,200(a3)
    11e6:	0000                	unimp
    11e8:	26f8                	c.fld	fa4,200(a3)
    11ea:	0000                	unimp
    11ec:	26f8                	c.fld	fa4,200(a3)
    11ee:	0000                	unimp
    11f0:	26f8                	c.fld	fa4,200(a3)
    11f2:	0000                	unimp
    11f4:	26f8                	c.fld	fa4,200(a3)
    11f6:	0000                	unimp
    11f8:	26f8                	c.fld	fa4,200(a3)
    11fa:	0000                	unimp
    11fc:	26f8                	c.fld	fa4,200(a3)
    11fe:	0000                	unimp
    1200:	0001                	c.nop
	...

00001204 <flash_read_uid.constprop.6>:
    1204:	1141                	c.addi	sp,-16
    1206:	c606                	c.swsp	ra,12(sp)
    1208:	872a                	c.mv	a4,a0
    120a:	7d047073          	csrci	mmisc_ctl,8
    120e:	47c1                	c.li	a5,16
    1210:	4691                	c.li	a3,4
    1212:	4601                	c.li	a2,0
    1214:	00000593          	li	a1,0
    1218:	04b00513          	li	a0,75
    121c:	aacff0ef          	jal	ra,4c8 <flash_mspi_read_ram>
    1220:	7d046073          	csrsi	mmisc_ctl,8
    1224:	40b2                	c.lwsp	ra,12(sp)
    1226:	0141                	c.addi	sp,16
    1228:	00008067          	ret

0000122c <flash_read_mid>:
    122c:	1101                	c.addi	sp,-32
    122e:	ce06                	c.swsp	ra,28(sp)
    1230:	c602                	c.swsp	zero,12(sp)
    1232:	7d047073          	csrci	mmisc_ctl,8
    1236:	478d                	c.li	a5,3
    1238:	0078                	c.addi4spn	a4,sp,12
    123a:	4681                	c.li	a3,0
    123c:	4601                	c.li	a2,0
    123e:	4581                	c.li	a1,0
    1240:	09f00513          	li	a0,159
    1244:	a84ff0ef          	jal	ra,4c8 <flash_mspi_read_ram>
    1248:	7d046073          	csrsi	mmisc_ctl,8
    124c:	40f2                	c.lwsp	ra,28(sp)
    124e:	4532                	c.lwsp	a0,12(sp)
    1250:	6105                	c.addi16sp	sp,32
    1252:	8082                	c.jr	ra

00001254 <flash_read_mid_uid_with_check>:
    1254:	801f978b          	addigp	a5,-2048 # 80000 <_DATA_VMA_START>
    1258:	4798                	c.lw	a4,8(a5)
    125a:	4390                	c.lw	a2,0(a5)
    125c:	43d4                	c.lw	a3,4(a5)
    125e:	47dc                	c.lw	a5,12(a5)
    1260:	1101                	c.addi	sp,-32
    1262:	cc22                	c.swsp	s0,24(sp)
    1264:	ca26                	c.swsp	s1,20(sp)
    1266:	842a                	c.mv	s0,a0
    1268:	c43a                	c.swsp	a4,8(sp)
    126a:	c63e                	c.swsp	a5,12(sp)
    126c:	ce06                	c.swsp	ra,28(sp)
    126e:	84ae                	c.mv	s1,a1
    1270:	c032                	c.swsp	a2,0(sp)
    1272:	c236                	c.swsp	a3,4(sp)
    1274:	fb9ff0ef          	jal	ra,122c <flash_read_mid>
    1278:	77c1                	c.lui	a5,0xffff0
    127a:	17fd                	c.addi	a5,-1
    127c:	00146737          	lui	a4,0x146
    1280:	c008                	c.sw	a0,0(s0)
    1282:	8fe9                	c.and	a5,a0
    1284:	08570713          	addi	a4,a4,133 # 146085 <FLASH_SIZE+0x46085>
    1288:	02e78063          	beq	a5,a4,12a8 <flash_read_mid_uid_with_check+0x54>
    128c:	00166737          	lui	a4,0x166
    1290:	08570713          	addi	a4,a4,133 # 166085 <FLASH_SIZE+0x66085>
    1294:	4781                	c.li	a5,0
    1296:	00e50963          	beq	a0,a4,12a8 <flash_read_mid_uid_with_check+0x54>
    129a:	40f2                	c.lwsp	ra,28(sp)
    129c:	4462                	c.lwsp	s0,24(sp)
    129e:	44d2                	c.lwsp	s1,20(sp)
    12a0:	853e                	c.mv	a0,a5
    12a2:	6105                	c.addi16sp	sp,32
    12a4:	00008067          	ret
    12a8:	8526                	c.mv	a0,s1
    12aa:	3fa9                	c.jal	1204 <flash_read_uid.constprop.6>
    12ac:	0004c783          	lbu	a5,0(s1)
    12b0:	00014603          	lbu	a2,0(sp)
    12b4:	0014c683          	lbu	a3,1(s1)
    12b8:	00114703          	lbu	a4,1(sp)
    12bc:	8f91                	c.sub	a5,a2
    12be:	0017b793          	seqz	a5,a5
    12c2:	00e69363          	bne	a3,a4,12c8 <flash_read_mid_uid_with_check+0x74>
    12c6:	0785                	c.addi	a5,1
    12c8:	0024c683          	lbu	a3,2(s1)
    12cc:	00214703          	lbu	a4,2(sp)
    12d0:	00e69463          	bne	a3,a4,12d8 <flash_read_mid_uid_with_check+0x84>
    12d4:	00178793          	addi	a5,a5,1 # ffff0001 <_DATA_LMA_START+0xdffe64f9>
    12d8:	0034c683          	lbu	a3,3(s1)
    12dc:	00314703          	lbu	a4,3(sp)
    12e0:	00e69463          	bne	a3,a4,12e8 <flash_read_mid_uid_with_check+0x94>
    12e4:	00178793          	addi	a5,a5,1
    12e8:	0044c683          	lbu	a3,4(s1)
    12ec:	00414703          	lbu	a4,4(sp)
    12f0:	00e69463          	bne	a3,a4,12f8 <flash_read_mid_uid_with_check+0xa4>
    12f4:	00178793          	addi	a5,a5,1
    12f8:	0054c683          	lbu	a3,5(s1)
    12fc:	00514703          	lbu	a4,5(sp)
    1300:	00e69463          	bne	a3,a4,1308 <flash_read_mid_uid_with_check+0xb4>
    1304:	00178793          	addi	a5,a5,1
    1308:	0064c683          	lbu	a3,6(s1)
    130c:	00614703          	lbu	a4,6(sp)
    1310:	00e69463          	bne	a3,a4,1318 <flash_read_mid_uid_with_check+0xc4>
    1314:	00178793          	addi	a5,a5,1
    1318:	0074c683          	lbu	a3,7(s1)
    131c:	00714703          	lbu	a4,7(sp)
    1320:	00e69463          	bne	a3,a4,1328 <flash_read_mid_uid_with_check+0xd4>
    1324:	00178793          	addi	a5,a5,1
    1328:	0084c683          	lbu	a3,8(s1)
    132c:	00814703          	lbu	a4,8(sp)
    1330:	00e69463          	bne	a3,a4,1338 <flash_read_mid_uid_with_check+0xe4>
    1334:	00178793          	addi	a5,a5,1
    1338:	0094c683          	lbu	a3,9(s1)
    133c:	00914703          	lbu	a4,9(sp)
    1340:	00e69463          	bne	a3,a4,1348 <flash_read_mid_uid_with_check+0xf4>
    1344:	00178793          	addi	a5,a5,1
    1348:	00a4c683          	lbu	a3,10(s1)
    134c:	00a14703          	lbu	a4,10(sp)
    1350:	00e69463          	bne	a3,a4,1358 <flash_read_mid_uid_with_check+0x104>
    1354:	00178793          	addi	a5,a5,1
    1358:	00b4c683          	lbu	a3,11(s1)
    135c:	00b14703          	lbu	a4,11(sp)
    1360:	00e69463          	bne	a3,a4,1368 <flash_read_mid_uid_with_check+0x114>
    1364:	00178793          	addi	a5,a5,1
    1368:	00c4c683          	lbu	a3,12(s1)
    136c:	00c14703          	lbu	a4,12(sp)
    1370:	00e69463          	bne	a3,a4,1378 <flash_read_mid_uid_with_check+0x124>
    1374:	00178793          	addi	a5,a5,1
    1378:	00d4c683          	lbu	a3,13(s1)
    137c:	00d14703          	lbu	a4,13(sp)
    1380:	00e69463          	bne	a3,a4,1388 <flash_read_mid_uid_with_check+0x134>
    1384:	00178793          	addi	a5,a5,1
    1388:	00e4c683          	lbu	a3,14(s1)
    138c:	00e14703          	lbu	a4,14(sp)
    1390:	00e69463          	bne	a3,a4,1398 <flash_read_mid_uid_with_check+0x144>
    1394:	00178793          	addi	a5,a5,1
    1398:	00f14683          	lbu	a3,15(sp)
    139c:	00f4c703          	lbu	a4,15(s1)
    13a0:	00e69463          	bne	a3,a4,13a8 <flash_read_mid_uid_with_check+0x154>
    13a4:	00178793          	addi	a5,a5,1
    13a8:	40f2                	c.lwsp	ra,28(sp)
    13aa:	4462                	c.lwsp	s0,24(sp)
    13ac:	17c1                	c.addi	a5,-16
    13ae:	00f037b3          	snez	a5,a5
    13b2:	44d2                	c.lwsp	s1,20(sp)
    13b4:	853e                	c.mv	a0,a5
    13b6:	6105                	c.addi16sp	sp,32
    13b8:	00008067          	ret

000013bc <flash_dread>:
    13bc:	1141                	c.addi	sp,-16
    13be:	c606                	c.swsp	ra,12(sp)
    13c0:	87b2                	c.mv	a5,a2
    13c2:	7d047073          	csrci	mmisc_ctl,8
    13c6:	862e                	c.mv	a2,a1
    13c8:	00f005b3          	add	a1,zero,a5
    13cc:	a7cff0ef          	jal	ra,648 <flash_mspi_read_ram.constprop.7>
    13d0:	7d046073          	csrsi	mmisc_ctl,8
    13d4:	40b2                	c.lwsp	ra,12(sp)
    13d6:	0141                	c.addi	sp,16
    13d8:	00008067          	ret

000013dc <clock_init.constprop.10>:
    13dc:	1141                	c.addi	sp,-16
    13de:	c606                	c.swsp	ra,12(sp)
    13e0:	7d047073          	csrci	mmisc_ctl,8
    13e4:	c40ff0ef          	jal	ra,824 <clock_init_ram.constprop.11>
    13e8:	7d046073          	csrsi	mmisc_ctl,8
    13ec:	40b2                	c.lwsp	ra,12(sp)
    13ee:	0141                	c.addi	sp,16
    13f0:	00008067          	ret

000013f4 <pm_sleep_wakeup.constprop.2>:
    13f4:	1141                	c.addi	sp,-16
    13f6:	c606                	c.swsp	ra,12(sp)
    13f8:	7d047073          	csrci	mmisc_ctl,8
    13fc:	8d1ff0ef          	jal	ra,ccc <pm_sleep_wakeup_ram.constprop.3>
    1400:	7d046073          	csrsi	mmisc_ctl,8
    1404:	40b2                	c.lwsp	ra,12(sp)
    1406:	0141                	c.addi	sp,16
    1408:	8082                	c.jr	ra
    140a:	0001                	c.nop

0000140c <user_calib_adc_vref.constprop.9>:
    140c:	1101                	c.addi	sp,-32
    140e:	ce06                	c.swsp	ra,28(sp)
    1410:	c402                	c.swsp	zero,8(sp)
    1412:	00011623          	sh	zero,12(sp)
    1416:	00010723          	sb	zero,14(sp)
    141a:	c54d                	c.beqz	a0,14c4 <user_calib_adc_vref.constprop.9+0xb8>
    141c:	000007b7          	lui	a5,0x0
    1420:	1587a783          	lw	a5,344(a5) # 158 <_AES_VMA_END>
    1424:	0030                	c.addi4spn	a2,sp,8
    1426:	459d                	c.li	a1,7
    1428:	9782                	c.jalr	a5
    142a:	00c14783          	lbu	a5,12(sp)
    142e:	1c07b75b          	bfos	a4,a5,7,0
    1432:	04074163          	bltz	a4,1474 <user_calib_adc_vref.constprop.9+0x68>
    1436:	00e14703          	lbu	a4,14(sp)
    143a:	00d14603          	lbu	a2,13(sp)
    143e:	0722                	c.slli	a4,0x8
    1440:	66c1                	c.lui	a3,0x10
    1442:	00c705b3          	add	a1,a4,a2
    1446:	16fd                	c.addi	a3,-1
    1448:	02d58663          	beq	a1,a3,1474 <user_calib_adc_vref.constprop.9+0x68>
    144c:	fd060613          	addi	a2,a2,-48
    1450:	9732                	c.add	a4,a2
    1452:	3c07275b          	bfoz	a4,a4,15,0
    1456:	0fb00693          	li	a3,251
    145a:	08e6e563          	bltu	a3,a4,14e4 <user_calib_adc_vref.constprop.9+0xd8>
    145e:	17b1                	c.addi	a5,-20
    1460:	1c07b7db          	bfos	a5,a5,7,0
    1464:	5731                	c.li	a4,-20
    1466:	06e78f63          	beq	a5,a4,14e4 <user_calib_adc_vref.constprop.9+0xd8>
    146a:	f9578513          	addi	a0,a5,-107
    146e:	00a03533          	snez	a0,a0
    1472:	a89d                	c.j	14e8 <user_calib_adc_vref.constprop.9+0xdc>
    1474:	801407b7          	lui	a5,0x80140
    1478:	06500713          	li	a4,101
    147c:	1ee78a23          	sb	a4,500(a5) # 801401f4 <_DATA_LMA_START+0x601366ec>
    1480:	1c87a703          	lw	a4,456(a5)
    1484:	1e078a23          	sb	zero,500(a5)
    1488:	4c47275b          	bfoz	a4,a4,19,4
    148c:	380727db          	bfoz	a5,a4,14,0
    1490:	06078063          	beqz	a5,14f0 <user_calib_adc_vref.constprop.9+0xe4>
    1494:	1ff77713          	andi	a4,a4,511
    1498:	f9b70713          	addi	a4,a4,-101
    149c:	3c07275b          	bfoz	a4,a4,15,0
    14a0:	0c600693          	li	a3,198
    14a4:	04e6e063          	bltu	a3,a4,14e4 <user_calib_adc_vref.constprop.9+0xd8>
    14a8:	0097d513          	srli	a0,a5,0x9
    14ac:	1531                	c.addi	a0,-20
    14ae:	1c05355b          	bfos	a0,a0,7,0
    14b2:	57b1                	c.li	a5,-20
    14b4:	02f50863          	beq	a0,a5,14e4 <user_calib_adc_vref.constprop.9+0xd8>
    14b8:	fd550513          	addi	a0,a0,-43 # 3fffffd5 <_DATA_LMA_START+0x1fff64cd>
    14bc:	00a03533          	snez	a0,a0
    14c0:	0280006f          	j	14e8 <user_calib_adc_vref.constprop.9+0xdc>
    14c4:	801407b7          	lui	a5,0x80140
    14c8:	06500713          	li	a4,101
    14cc:	1ee78a23          	sb	a4,500(a5) # 801401f4 <_DATA_LMA_START+0x601366ec>
    14d0:	1c87a703          	lw	a4,456(a5)
    14d4:	1e078a23          	sb	zero,500(a5)
    14d8:	4c47275b          	bfoz	a4,a4,19,4
    14dc:	380727db          	bfoz	a5,a4,14,0
    14e0:	fa079ae3          	bnez	a5,1494 <user_calib_adc_vref.constprop.9+0x88>
    14e4:	00000513          	li	a0,0
    14e8:	40f2                	c.lwsp	ra,28(sp)
    14ea:	6105                	c.addi16sp	sp,32
    14ec:	00008067          	ret
    14f0:	00814503          	lbu	a0,8(sp)
    14f4:	00914783          	lbu	a5,9(sp)
    14f8:	953e                	c.add	a0,a5
    14fa:	f8050513          	addi	a0,a0,-128
    14fe:	3c05255b          	bfoz	a0,a0,15,0
    1502:	0fc53513          	sltiu	a0,a0,252
    1506:	b7cd                	c.j	14e8 <user_calib_adc_vref.constprop.9+0xdc>

00001508 <user_calib_freq_offset.constprop.8>:
    1508:	000007b7          	lui	a5,0x0
    150c:	1101                	c.addi	sp,-32
    150e:	1587a783          	lw	a5,344(a5) # 158 <_AES_VMA_END>
    1512:	577d                	c.li	a4,-1
    1514:	00f10613          	addi	a2,sp,15
    1518:	4585                	c.li	a1,1
    151a:	cc22                	c.swsp	s0,24(sp)
    151c:	ce06                	c.swsp	ra,28(sp)
    151e:	00e107a3          	sb	a4,15(sp)
    1522:	9782                	c.jalr	a5
    1524:	00f14403          	lbu	s0,15(sp)
    1528:	0ff00793          	li	a5,255
    152c:	00000513          	li	a0,0
    1530:	02f40263          	beq	s0,a5,1554 <user_calib_freq_offset.constprop.8+0x4c>
    1534:	08a00513          	li	a0,138
    1538:	aa0ff0ef          	jal	ra,7d8 <analog_read_reg8>
    153c:	03f47413          	andi	s0,s0,63
    1540:	04057593          	andi	a1,a0,64
    1544:	0085e5b3          	or	a1,a1,s0
    1548:	08a00513          	li	a0,138
    154c:	a48ff0ef          	jal	ra,794 <analog_write_reg8>
    1550:	00100513          	li	a0,1
    1554:	40f2                	c.lwsp	ra,28(sp)
    1556:	4462                	c.lwsp	s0,24(sp)
    1558:	6105                	c.addi16sp	sp,32
    155a:	8082                	c.jr	ra
    155c:	0001                	c.nop
	...

00001560 <gpio_input_dis>:
    1560:	801407b7          	lui	a5,0x80140
    1564:	30978703          	lb	a4,777(a5) # 80140309 <_DATA_LMA_START+0x60136801>
    1568:	fff54513          	not	a0,a0
    156c:	8d79                	c.and	a0,a4
    156e:	0ff57513          	andi	a0,a0,255
    1572:	30a784a3          	sb	a0,777(a5)
    1576:	8082                	c.jr	ra
    1578:	0001                	c.nop
	...

0000157c <fill_dummy_data>:
    157c:	7179                	c.addi16sp	sp,-48
    157e:	c85a                	c.swsp	s6,16(sp)
    1580:	80808b37          	lui	s6,0x80808
    1584:	d422                	c.swsp	s0,40(sp)
    1586:	d226                	c.swsp	s1,36(sp)
    1588:	d04a                	c.swsp	s2,32(sp)
    158a:	ce4e                	c.swsp	s3,28(sp)
    158c:	cc52                	c.swsp	s4,24(sp)
    158e:	ca56                	c.swsp	s5,20(sp)
    1590:	c65e                	c.swsp	s7,12(sp)
    1592:	c462                	c.swsp	s8,8(sp)
    1594:	8a2e                	c.mv	s4,a1
    1596:	8c2a                	c.mv	s8,a0
    1598:	8432                	c.mv	s0,a2
    159a:	8936                	c.mv	s2,a3
    159c:	84ba                	c.mv	s1,a4
    159e:	8ac2                	c.mv	s5,a6
    15a0:	89c6                	c.mv	s3,a7
    15a2:	00f50bb3          	add	s7,a0,a5
    15a6:	081b0b13          	addi	s6,s6,129 # 80808081 <_DATA_LMA_START+0x607fe579>
    15aa:	d606                	c.swsp	ra,44(sp)
    15ac:	550070ef          	jal	ra,8afc <rand>
    15b0:	e165177f          	mulsr64	a4,a0,s6
    15b4:	97aa                	c.add	a5,a0
    15b6:	41f55713          	srai	a4,a0,0x1f
    15ba:	879d                	c.srai	a5,0x7
    15bc:	8f99                	c.sub	a5,a4
    15be:	00879713          	slli	a4,a5,0x8
    15c2:	40f707b3          	sub	a5,a4,a5
    15c6:	8d1d                	c.sub	a0,a5
    15c8:	f8050513          	addi	a0,a0,-128
    15cc:	00ac0023          	sb	a0,0(s8)
    15d0:	0c05                	c.addi	s8,1
    15d2:	fd7c1de3          	bne	s8,s7,15ac <fill_dummy_data+0x30>
    15d6:	80808b37          	lui	s6,0x80808
    15da:	9ad2                	c.add	s5,s4
    15dc:	081b0b13          	addi	s6,s6,129 # 80808081 <_DATA_LMA_START+0x607fe579>
    15e0:	51c070ef          	jal	ra,8afc <rand>
    15e4:	e165177f          	mulsr64	a4,a0,s6
    15e8:	97aa                	c.add	a5,a0
    15ea:	41f55713          	srai	a4,a0,0x1f
    15ee:	879d                	c.srai	a5,0x7
    15f0:	8f99                	c.sub	a5,a4
    15f2:	00879713          	slli	a4,a5,0x8
    15f6:	40f707b3          	sub	a5,a4,a5
    15fa:	8d1d                	c.sub	a0,a5
    15fc:	f8050513          	addi	a0,a0,-128
    1600:	00aa0023          	sb	a0,0(s4)
    1604:	0a05                	c.addi	s4,1
    1606:	fd5a1de3          	bne	s4,s5,15e0 <fill_dummy_data+0x64>
    160a:	6a21                	c.lui	s4,0x8
    160c:	0d3409db          	lea.w	s3,s0,s3
    1610:	1a7d                	c.addi	s4,-1
    1612:	7b71                	c.lui	s6,0xffffc
    1614:	40000ab7          	lui	s5,0x40000
    1618:	4e4070ef          	jal	ra,8afc <rand>
    161c:	41f55793          	srai	a5,a0,0x1f
    1620:	83c5                	c.srli	a5,0x11
    1622:	953e                	c.add	a0,a5
    1624:	01457533          	and	a0,a0,s4
    1628:	8d1d                	c.sub	a0,a5
    162a:	955a                	c.add	a0,s6
    162c:	c008                	c.sw	a0,0(s0)
    162e:	01592023          	sw	s5,0(s2)
    1632:	0004a023          	sw	zero,0(s1)
    1636:	0411                	c.addi	s0,4
    1638:	0911                	c.addi	s2,4
    163a:	0491                	c.addi	s1,4
    163c:	fd341ee3          	bne	s0,s3,1618 <fill_dummy_data+0x9c>
    1640:	50b2                	c.lwsp	ra,44(sp)
    1642:	5422                	c.lwsp	s0,40(sp)
    1644:	5492                	c.lwsp	s1,36(sp)
    1646:	5902                	c.lwsp	s2,32(sp)
    1648:	49f2                	c.lwsp	s3,28(sp)
    164a:	4a62                	c.lwsp	s4,24(sp)
    164c:	4ad2                	c.lwsp	s5,20(sp)
    164e:	4b42                	c.lwsp	s6,16(sp)
    1650:	4bb2                	c.lwsp	s7,12(sp)
    1652:	4c22                	c.lwsp	s8,8(sp)
    1654:	6145                	c.addi16sp	sp,48
    1656:	8082                	c.jr	ra

00001658 <_write>:
    1658:	1141                	c.addi	sp,-16
    165a:	c606                	c.swsp	ra,12(sp)
    165c:	c422                	c.swsp	s0,8(sp)
    165e:	c226                	c.swsp	s1,4(sp)
    1660:	c04a                	c.swsp	s2,0(sp)
    1662:	02c05763          	blez	a2,1690 <_write+0x38>
    1666:	8932                	c.mv	s2,a2
    1668:	00b00433          	add	s0,zero,a1
    166c:	00c584b3          	add	s1,a1,a2
    1670:	00044503          	lbu	a0,0(s0)
    1674:	00140413          	addi	s0,s0,1
    1678:	d34ff0ef          	jal	ra,bac <dr_putchar>
    167c:	fe941ae3          	bne	s0,s1,1670 <_write+0x18>
    1680:	40b2                	c.lwsp	ra,12(sp)
    1682:	4422                	c.lwsp	s0,8(sp)
    1684:	854a                	c.mv	a0,s2
    1686:	4492                	c.lwsp	s1,4(sp)
    1688:	4902                	c.lwsp	s2,0(sp)
    168a:	0141                	c.addi	sp,16
    168c:	00008067          	ret
    1690:	40b2                	c.lwsp	ra,12(sp)
    1692:	4422                	c.lwsp	s0,8(sp)
    1694:	4901                	c.li	s2,0
    1696:	854a                	c.mv	a0,s2
    1698:	4492                	c.lwsp	s1,4(sp)
    169a:	4902                	c.lwsp	s2,0(sp)
    169c:	0141                	c.addi	sp,16
    169e:	8082                	c.jr	ra

000016a0 <main>:
    16a0:	7115                	c.addi16sp	sp,-224
    16a2:	ffbc07b7          	lui	a5,0xffbc0
    16a6:	cf86                	c.swsp	ra,220(sp)
    16a8:	17fd                	c.addi	a5,-1
    16aa:	80140737          	lui	a4,0x80140
    16ae:	cda2                	c.swsp	s0,216(sp)
    16b0:	cba6                	c.swsp	s1,212(sp)
    16b2:	c9ca                	c.swsp	s2,208(sp)
    16b4:	c7ce                	c.swsp	s3,204(sp)
    16b6:	c5d2                	c.swsp	s4,200(sp)
    16b8:	c3d6                	c.swsp	s5,196(sp)
    16ba:	c1da                	c.swsp	s6,192(sp)
    16bc:	df5e                	c.swsp	s7,188(sp)
    16be:	dd62                	c.swsp	s8,184(sp)
    16c0:	db66                	c.swsp	s9,180(sp)
    16c2:	d96a                	c.swsp	s10,176(sp)
    16c4:	d76e                	c.swsp	s11,172(sp)
    16c6:	1ef72023          	sw	a5,480(a4) # 801401e0 <_DATA_LMA_START+0x601366d8>
    16ca:	4589                	c.li	a1,2
    16cc:	08c00513          	li	a0,140
    16d0:	1ef72223          	sw	a5,484(a4)
    16d4:	8c0ff0ef          	jal	ra,794 <analog_write_reg8>
    16d8:	4581                	c.li	a1,0
    16da:	4529                	c.li	a0,10
    16dc:	8b8ff0ef          	jal	ra,794 <analog_write_reg8>
    16e0:	03b00593          	li	a1,59
    16e4:	00b00513          	li	a0,11
    16e8:	8acff0ef          	jal	ra,794 <analog_write_reg8>
    16ec:	00500513          	li	a0,5
    16f0:	8e8ff0ef          	jal	ra,7d8 <analog_read_reg8>
    16f4:	0f757593          	andi	a1,a0,247
    16f8:	00500513          	li	a0,5
    16fc:	898ff0ef          	jal	ra,794 <analog_write_reg8>
    1700:	00600513          	li	a0,6
    1704:	8d4ff0ef          	jal	ra,7d8 <analog_read_reg8>
    1708:	03e57593          	andi	a1,a0,62
    170c:	00600513          	li	a0,6
    1710:	884ff0ef          	jal	ra,794 <analog_write_reg8>
    1714:	04500593          	li	a1,69
    1718:	00100513          	li	a0,1
    171c:	878ff0ef          	jal	ra,794 <analog_write_reg8>
    1720:	04c00593          	li	a1,76
    1724:	01c00513          	li	a0,28
    1728:	86cff0ef          	jal	ra,794 <analog_write_reg8>
    172c:	801007b7          	lui	a5,0x80100
    1730:	44478703          	lb	a4,1092(a5) # 80100444 <_DATA_LMA_START+0x600f693c>
    1734:	801016b7          	lui	a3,0x80101
    1738:	0ff77713          	andi	a4,a4,255
    173c:	00e76713          	ori	a4,a4,14
    1740:	44e78223          	sb	a4,1092(a5)
    1744:	45878703          	lb	a4,1112(a5)
    1748:	03800513          	li	a0,56
    174c:	0ff77713          	andi	a4,a4,255
    1750:	00e76713          	ori	a4,a4,14
    1754:	44e78c23          	sb	a4,1112(a5)
    1758:	46c78703          	lb	a4,1132(a5)
    175c:	0ff77713          	andi	a4,a4,255
    1760:	00e76713          	ori	a4,a4,14
    1764:	46e78623          	sb	a4,1132(a5)
    1768:	48078703          	lb	a4,1152(a5)
    176c:	0ff77713          	andi	a4,a4,255
    1770:	00e76713          	ori	a4,a4,14
    1774:	48e78023          	sb	a4,1152(a5)
    1778:	49478703          	lb	a4,1172(a5)
    177c:	0ff77713          	andi	a4,a4,255
    1780:	00e76713          	ori	a4,a4,14
    1784:	48e78a23          	sb	a4,1172(a5)
    1788:	4a878703          	lb	a4,1192(a5)
    178c:	0ff77713          	andi	a4,a4,255
    1790:	00e76713          	ori	a4,a4,14
    1794:	4ae78423          	sb	a4,1192(a5)
    1798:	4bc78703          	lb	a4,1212(a5)
    179c:	0ff77713          	andi	a4,a4,255
    17a0:	00e76713          	ori	a4,a4,14
    17a4:	4ae78e23          	sb	a4,1212(a5)
    17a8:	4d078703          	lb	a4,1232(a5)
    17ac:	0ff77713          	andi	a4,a4,255
    17b0:	00e76713          	ori	a4,a4,14
    17b4:	4ce78823          	sb	a4,1232(a5)
    17b8:	83a68783          	lb	a5,-1990(a3) # 8010083a <_DATA_LMA_START+0x600f6d32>
    17bc:	82068d23          	sb	zero,-1990(a3)
    17c0:	818ff0ef          	jal	ra,7d8 <analog_read_reg8>
    17c4:	00a00433          	add	s0,zero,a0
    17c8:	03900513          	li	a0,57
    17cc:	80cff0ef          	jal	ra,7d8 <analog_read_reg8>
    17d0:	84aa                	c.mv	s1,a0
    17d2:	4004745b          	bbs	s0,0,17da <main+0x13a>
    17d6:	6d70006f          	j	26ac <main+0x100c>
    17da:	0fe47593          	andi	a1,s0,254
    17de:	4005745b          	bbs	a0,0,17e6 <main+0x146>
    17e2:	6a30006f          	j	2684 <main+0xfe4>
    17e6:	c89f940b          	addigp	s0,-888 # 80488 <g_pm_status_info>
    17ea:	4791                	c.li	a5,4
    17ec:	03800513          	li	a0,56
    17f0:	00f40123          	sb	a5,2(s0)
    17f4:	fa1fe0ef          	jal	ra,794 <analog_write_reg8>
    17f8:	00100593          	li	a1,1
    17fc:	07f00513          	li	a0,127
    1800:	f95fe0ef          	jal	ra,794 <analog_write_reg8>
    1804:	06400513          	li	a0,100
    1808:	fd1fe0ef          	jal	ra,7d8 <analog_read_reg8>
    180c:	0c3527db          	bfoz	a5,a0,3,3
    1810:	00a400a3          	sb	a0,1(s0)
    1814:	00f40023          	sb	a5,0(s0)
    1818:	08800513          	li	a0,136
    181c:	fbdfe0ef          	jal	ra,7d8 <analog_read_reg8>
    1820:	be757c5b          	bbc	a0,7,1818 <main+0x178>
    1824:	940ff0ef          	jal	ra,964 <pm_wait_bbpll_done>
    1828:	00244783          	lbu	a5,2(s0)
    182c:	0a87dc5b          	beqc	a5,8,18e4 <main+0x244>
    1830:	80140737          	lui	a4,0x80140
    1834:	20a70783          	lb	a5,522(a4) # 8014020a <_DATA_LMA_START+0x60136702>
    1838:	0ff7f793          	andi	a5,a5,255
    183c:	00c7e793          	ori	a5,a5,12
    1840:	20f70523          	sb	a5,522(a4)
    1844:	00100793          	li	a5,1
    1848:	20f72023          	sw	a5,512(a4)
    184c:	801404b7          	lui	s1,0x80140
    1850:	1fd48783          	lb	a5,509(s1) # 801401fd <_DATA_LMA_START+0x601366f5>
    1854:	0ff7f793          	andi	a5,a5,255
    1858:	c8ffc3ab          	swgp	a5,-892 # 80484 <g_chip_version>
    185c:	00244703          	lbu	a4,2(s0)
    1860:	04475c5b          	beqc	a4,4,18b8 <main+0x218>
    1864:	0ff00693          	li	a3,255
    1868:	04d78063          	beq	a5,a3,18a8 <main+0x208>
    186c:	08000593          	li	a1,128
    1870:	07d00513          	li	a0,125
    1874:	f21fe0ef          	jal	ra,794 <analog_write_reg8>
    1878:	80140737          	lui	a4,0x80140
    187c:	06500793          	li	a5,101
    1880:	1ef70a23          	sb	a5,500(a4) # 801401f4 <_DATA_LMA_START+0x601366ec>
    1884:	1c872783          	lw	a5,456(a4)
    1888:	1e070a23          	sb	zero,500(a4)
    188c:	8bbd                	c.andi	a5,15
    188e:	0037d55b          	beqc	a5,3,1898 <main+0x1f8>
    1892:	4725                	c.li	a4,9
    1894:	04f77c63          	bgeu	a4,a5,18ec <main+0x24c>
    1898:	801407b7          	lui	a5,0x80140
    189c:	02000713          	li	a4,32
    18a0:	1ee787a3          	sb	a4,495(a5) # 801401ef <_DATA_LMA_START+0x601366e7>
    18a4:	0000006f          	j	18a4 <main+0x204>
    18a8:	bc17625b          	bnec	a4,1,186c <main+0x1cc>
    18ac:	07d00513          	li	a0,125
    18b0:	08000593          	li	a1,128
    18b4:	0180006f          	j	18cc <main+0x22c>
    18b8:	03900513          	li	a0,57
    18bc:	f1dfe0ef          	jal	ra,7d8 <analog_read_reg8>
    18c0:	00256593          	ori	a1,a0,2
    18c4:	0ff5f593          	andi	a1,a1,255
    18c8:	03900513          	li	a0,57
    18cc:	ec9fe0ef          	jal	ra,794 <analog_write_reg8>
    18d0:	2004a503          	lw	a0,512(s1)
    18d4:	001877b7          	lui	a5,0x187
    18d8:	a0078793          	addi	a5,a5,-1536 # 186a00 <FLASH_SIZE+0x86a00>
    18dc:	953e                	c.add	a0,a5
    18de:	3e19                	c.jal	13f4 <pm_sleep_wakeup.constprop.2>
    18e0:	f8dff06f          	j	186c <main+0x1cc>
    18e4:	a99fe0ef          	jal	ra,37c <pm_stimer_recover>
    18e8:	f65ff06f          	j	184c <main+0x1ac>
    18ec:	00f00513          	li	a0,15
    18f0:	ee9fe0ef          	jal	ra,7d8 <analog_read_reg8>
    18f4:	03f57593          	andi	a1,a0,63
    18f8:	0405e593          	ori	a1,a1,64
    18fc:	00f00513          	li	a0,15
    1900:	e95fe0ef          	jal	ra,794 <analog_write_reg8>
    1904:	10c0                	c.addi4spn	s0,sp,100
    1906:	18cc                	c.addi4spn	a1,sp,116
    1908:	00800533          	add	a0,zero,s0
    190c:	949ff0ef          	jal	ra,1254 <flash_read_mid_uid_with_check>
    1910:	0ff57513          	andi	a0,a0,255
    1914:	0015545b          	beqc	a0,1,191c <main+0x27c>
    1918:	5610006f          	j	2678 <main+0xfd8>
    191c:	06614783          	lbu	a5,102(sp)
    1920:	474d                	c.li	a4,19
    1922:	0137e45b          	bnec	a5,19,192a <main+0x28a>
    1926:	53b0006f          	j	2660 <main+0xfc0>
    192a:	00f76463          	bltu	a4,a5,1932 <main+0x292>
    192e:	45b0006f          	j	2588 <main+0xee8>
    1932:	4755                	c.li	a4,21
    1934:	0157e45b          	bnec	a5,21,193c <main+0x29c>
    1938:	4390006f          	j	2570 <main+0xed0>
    193c:	00e7f463          	bgeu	a5,a4,1944 <main+0x2a4>
    1940:	3f90006f          	j	2538 <main+0xe98>
    1944:	0167d45b          	beqc	a5,22,194c <main+0x2ac>
    1948:	5310006f          	j	2678 <main+0xfd8>
    194c:	003fe537          	lui	a0,0x3fe
    1950:	0c050513          	addi	a0,a0,192 # 3fe0c0 <FLASH_SIZE+0x2fe0c0>
    1954:	ab9ff0ef          	jal	ra,140c <user_calib_adc_vref.constprop.9>
    1958:	003fe537          	lui	a0,0x3fe
    195c:	badff0ef          	jal	ra,1508 <user_calib_freq_offset.constprop.8>
    1960:	80140937          	lui	s2,0x80140
    1964:	a79ff0ef          	jal	ra,13dc <clock_init.constprop.10>
    1968:	30e90783          	lb	a5,782(s2) # 8014030e <_DATA_LMA_START+0x60136806>
    196c:	11000513          	li	a0,272
    1970:	0ff7f793          	andi	a5,a5,255
    1974:	0107e793          	ori	a5,a5,16
    1978:	30f90723          	sb	a5,782(s2)
    197c:	30a90783          	lb	a5,778(s2)
    1980:	6ca9                	c.lui	s9,0xa
    1982:	0ef7f793          	andi	a5,a5,239
    1986:	30f90523          	sb	a5,778(s2)
    198a:	3ed9                	c.jal	1560 <gpio_input_dis>
    198c:	30e90783          	lb	a5,782(s2)
    1990:	12000513          	li	a0,288
    1994:	0ff7f793          	andi	a5,a5,255
    1998:	0207e793          	ori	a5,a5,32
    199c:	30f90723          	sb	a5,782(s2)
    19a0:	30a90783          	lb	a5,778(s2)
    19a4:	000804b7          	lui	s1,0x80
    19a8:	0df7f793          	andi	a5,a5,223
    19ac:	30f90523          	sb	a5,778(s2)
    19b0:	bb1ff0ef          	jal	ra,1560 <gpio_input_dis>
    19b4:	30e90783          	lb	a5,782(s2)
    19b8:	14000513          	li	a0,320
    19bc:	0ff7f793          	andi	a5,a5,255
    19c0:	0407e793          	ori	a5,a5,64
    19c4:	30f90723          	sb	a5,782(s2)
    19c8:	30a90783          	lb	a5,778(s2)
    19cc:	6989                	c.lui	s3,0x2
    19ce:	0bf7f793          	andi	a5,a5,191
    19d2:	30f90523          	sb	a5,778(s2)
    19d6:	3669                	c.jal	1560 <gpio_input_dis>
    19d8:	30e90783          	lb	a5,782(s2)
    19dc:	18000513          	li	a0,384
    19e0:	f807e793          	ori	a5,a5,-128
    19e4:	0ff7f793          	andi	a5,a5,255
    19e8:	30f90723          	sb	a5,782(s2)
    19ec:	30a90783          	lb	a5,778(s2)
    19f0:	07f7f793          	andi	a5,a5,127
    19f4:	30f90523          	sb	a5,778(s2)
    19f8:	b69ff0ef          	jal	ra,1560 <gpio_input_dis>
    19fc:	00080537          	lui	a0,0x80
    1a00:	01050513          	addi	a0,a0,16 # 80010 <_DATA_VMA_START+0x10>
    1a04:	2b2070ef          	jal	ra,8cb6 <puts>
    1a08:	00080537          	lui	a0,0x80
    1a0c:	001c8593          	addi	a1,s9,1 # a001 <BIN_SIZE+0x6b>
    1a10:	01450513          	addi	a0,a0,20 # 80014 <_DATA_VMA_START+0x14>
    1a14:	284070ef          	jal	ra,8c98 <printf>
    1a18:	00080537          	lui	a0,0x80
    1a1c:	7e400593          	li	a1,2020
    1a20:	02c50513          	addi	a0,a0,44 # 8002c <_DATA_VMA_START+0x2c>
    1a24:	274070ef          	jal	ra,8c98 <printf>
    1a28:	000805b7          	lui	a1,0x80
    1a2c:	00080537          	lui	a0,0x80
    1a30:	04458593          	addi	a1,a1,68 # 80044 <_DATA_VMA_START+0x44>
    1a34:	05050513          	addi	a0,a0,80 # 80050 <_DATA_VMA_START+0x50>
    1a38:	260070ef          	jal	ra,8c98 <printf>
    1a3c:	fc4fe0ef          	jal	ra,200 <delay_ms.constprop.12>
    1a40:	3bc48513          	addi	a0,s1,956 # 803bc <_DATA_VMA_START+0x3bc>
    1a44:	254070ef          	jal	ra,8c98 <printf>
    1a48:	00080537          	lui	a0,0x80
    1a4c:	07850513          	addi	a0,a0,120 # 80078 <_DATA_VMA_START+0x78>
    1a50:	248070ef          	jal	ra,8c98 <printf>
    1a54:	3bc48513          	addi	a0,s1,956
    1a58:	240070ef          	jal	ra,8c98 <printf>
    1a5c:	00080537          	lui	a0,0x80
    1a60:	0a850513          	addi	a0,a0,168 # 800a8 <_DATA_VMA_START+0xa8>
    1a64:	234070ef          	jal	ra,8c98 <printf>
    1a68:	1ea00513          	li	a0,490
    1a6c:	0cc070ef          	jal	ra,8b38 <malloc>
    1a70:	00a00c33          	add	s8,zero,a0
    1a74:	ae098513          	addi	a0,s3,-1312 # 1ae0 <main+0x440>
    1a78:	0c0070ef          	jal	ra,8b38 <malloc>
    1a7c:	00a00bb3          	add	s7,zero,a0
    1a80:	2b000513          	li	a0,688
    1a84:	0b4070ef          	jal	ra,8b38 <malloc>
    1a88:	00a00b33          	add	s6,zero,a0
    1a8c:	2b000513          	li	a0,688
    1a90:	0a8070ef          	jal	ra,8b38 <malloc>
    1a94:	00a00ab3          	add	s5,zero,a0
    1a98:	2b000513          	li	a0,688
    1a9c:	09c070ef          	jal	ra,8b38 <malloc>
    1aa0:	00a00a33          	add	s4,zero,a0
    1aa4:	7f8c8513          	addi	a0,s9,2040
    1aa8:	090070ef          	jal	ra,8b38 <malloc>
    1aac:	ae098813          	addi	a6,s3,-1312
    1ab0:	8752                	c.mv	a4,s4
    1ab2:	86d6                	c.mv	a3,s5
    1ab4:	865a                	c.mv	a2,s6
    1ab6:	85de                	c.mv	a1,s7
    1ab8:	8caa                	c.mv	s9,a0
    1aba:	0ac00893          	li	a7,172
    1abe:	8562                	c.mv	a0,s8
    1ac0:	1ea00793          	li	a5,490
    1ac4:	ab9ff0ef          	jal	ra,157c <fill_dummy_data>
    1ac8:	4785                	c.li	a5,1
    1aca:	03100893          	li	a7,49
    1ace:	4829                	c.li	a6,10
    1ad0:	da3e                	c.swsp	a5,52(sp)
    1ad2:	dc46                	c.swsp	a7,56(sp)
    1ad4:	c0be                	c.swsp	a5,64(sp)
    1ad6:	c13e                	c.swsp	a5,128(sp)
    1ad8:	cb3e                	c.swsp	a5,148(sp)
    1ada:	c93e                	c.swsp	a5,144(sp)
    1adc:	4891                	c.li	a7,4
    1ade:	f8000793          	li	a5,-128
    1ae2:	0ac00713          	li	a4,172
    1ae6:	86a2                	c.mv	a3,s0
    1ae8:	00d0                	c.addi4spn	a2,sp,68
    1aea:	184c                	c.addi4spn	a1,sp,52
    1aec:	de42                	c.swsp	a6,60(sp)
    1aee:	c4c2                	c.swsp	a6,72(sp)
    1af0:	c6c6                	c.swsp	a7,76(sp)
    1af2:	d6c2                	c.swsp	a6,108(sp)
    1af4:	48e5                	c.li	a7,25
    1af6:	4809                	c.li	a6,2
    1af8:	cd3e                	c.swsp	a5,152(sp)
    1afa:	18c8                	c.addi4spn	a0,sp,116
    1afc:	07f00793          	li	a5,127
    1b00:	c8ba                	c.swsp	a4,80(sp)
    1b02:	d4c6                	c.swsp	a7,104(sp)
    1b04:	d8ba                	c.swsp	a4,112(sp)
    1b06:	c342                	c.swsp	a6,132(sp)
    1b08:	deba                	c.swsp	a4,124(sp)
    1b0a:	cf3e                	c.swsp	a5,156(sp)
    1b0c:	ca82                	c.swsp	zero,84(sp)
    1b0e:	cc82                	c.swsp	zero,88(sp)
    1b10:	ce82                	c.swsp	zero,92(sp)
    1b12:	d082                	c.swsp	zero,96(sp)
    1b14:	c702                	c.swsp	zero,140(sp)
    1b16:	c502                	c.swsp	zero,136(sp)
    1b18:	da82                	c.swsp	zero,116(sp)
    1b1a:	dc82                	c.swsp	zero,120(sp)
    1b1c:	d656                	c.swsp	s5,44(sp)
    1b1e:	d852                	c.swsp	s4,48(sp)
    1b20:	565010ef          	jal	ra,3884 <riscv_depthwise_conv_wrapper_s8_get_buffer_size>
    1b24:	00a00933          	add	s2,zero,a0
    1b28:	010070ef          	jal	ra,8b38 <malloc>
    1b2c:	d44a                	c.swsp	s2,40(sp)
    1b2e:	d22a                	c.swsp	a0,36(sp)
    1b30:	878a                	c.mv	a5,sp
    1b32:	0009f737          	lui	a4,0x9f
    1b36:	00f77f63          	bgeu	a4,a5,1b54 <main+0x4b4>
    1b3a:	fff61637          	lui	a2,0xfff61
    1b3e:	167d                	c.addi	a2,-1
    1b40:	97b2                	c.add	a5,a2
    1b42:	ffc7f613          	andi	a2,a5,-4
    1b46:	0611                	c.addi	a2,4
    1b48:	0aa00593          	li	a1,170
    1b4c:	0009f537          	lui	a0,0x9f
    1b50:	703060ef          	jal	ra,8a52 <memset>
    1b54:	b0005073          	csrwi	mcycle,0
    1b58:	b00029f3          	csrr	s3,mcycle
    1b5c:	05410893          	addi	a7,sp,84
    1b60:	885e                	c.mv	a6,s7
    1b62:	00dc                	c.addi4spn	a5,sp,68
    1b64:	8762                	c.mv	a4,s8
    1b66:	1854                	c.addi4spn	a3,sp,52
    1b68:	1070                	c.addi4spn	a2,sp,44
    1b6a:	18cc                	c.addi4spn	a1,sp,116
    1b6c:	1048                	c.addi4spn	a0,sp,36
    1b6e:	c466                	c.swsp	s9,8(sp)
    1b70:	c222                	c.swsp	s0,4(sp)
    1b72:	c05a                	c.swsp	s6,0(sp)
    1b74:	36c020ef          	jal	ra,3ee0 <riscv_depthwise_conv_wrapper_s8>
    1b78:	b0002673          	csrr	a2,mcycle
    1b7c:	868a                	c.mv	a3,sp
    1b7e:	0009f7b7          	lui	a5,0x9f
    1b82:	1cd7f7e3          	bgeu	a5,a3,2550 <main+0xeb0>
    1b86:	4398                	c.lw	a4,0(a5)
    1b88:	aaaab7b7          	lui	a5,0xaaaab
    1b8c:	aaa78793          	addi	a5,a5,-1366 # aaaaaaaa <_DATA_LMA_START+0x8aaa0fa2>
    1b90:	1cf710e3          	bne	a4,a5,2550 <main+0xeb0>
    1b94:	0009f7b7          	lui	a5,0x9f
    1b98:	00c0006f          	j	1ba4 <main+0x504>
    1b9c:	0007a583          	lw	a1,0(a5) # 9f000 <__global_pointer$+0x1e800>
    1ba0:	00e59663          	bne	a1,a4,1bac <main+0x50c>
    1ba4:	00478793          	addi	a5,a5,4
    1ba8:	fed7eae3          	bltu	a5,a3,1b9c <main+0x4fc>
    1bac:	8e9d                	c.sub	a3,a5
    1bae:	ca36                	c.swsp	a3,20(sp)
    1bb0:	5512                	c.lwsp	a0,36(sp)
    1bb2:	413606b3          	sub	a3,a2,s3
    1bb6:	cc36                	c.swsp	a3,24(sp)
    1bb8:	c911                	c.beqz	a0,1bcc <main+0x52c>
    1bba:	864a                	c.mv	a2,s2
    1bbc:	00000593          	li	a1,0
    1bc0:	693060ef          	jal	ra,8a52 <memset>
    1bc4:	02412503          	lw	a0,36(sp)
    1bc8:	781060ef          	jal	ra,8b48 <free>
    1bcc:	00080537          	lui	a0,0x80
    1bd0:	0d050513          	addi	a0,a0,208 # 800d0 <_DATA_VMA_START+0xd0>
    1bd4:	0c4070ef          	jal	ra,8c98 <printf>
    1bd8:	01412583          	lw	a1,20(sp)
    1bdc:	000809b7          	lui	s3,0x80
    1be0:	0f498513          	addi	a0,s3,244 # 800f4 <_DATA_VMA_START+0xf4>
    1be4:	0b4070ef          	jal	ra,8c98 <printf>
    1be8:	01812583          	lw	a1,24(sp)
    1bec:	00080937          	lui	s2,0x80
    1bf0:	10c90513          	addi	a0,s2,268 # 8010c <_DATA_VMA_START+0x10c>
    1bf4:	0a4070ef          	jal	ra,8c98 <printf>
    1bf8:	01800533          	add	a0,zero,s8
    1bfc:	74d060ef          	jal	ra,8b48 <free>
    1c00:	01700533          	add	a0,zero,s7
    1c04:	745060ef          	jal	ra,8b48 <free>
    1c08:	01600533          	add	a0,zero,s6
    1c0c:	73d060ef          	jal	ra,8b48 <free>
    1c10:	01500533          	add	a0,zero,s5
    1c14:	735060ef          	jal	ra,8b48 <free>
    1c18:	01400533          	add	a0,zero,s4
    1c1c:	72d060ef          	jal	ra,8b48 <free>
    1c20:	01900533          	add	a0,zero,s9
    1c24:	725060ef          	jal	ra,8b48 <free>
    1c28:	3bc48513          	addi	a0,s1,956
    1c2c:	06c070ef          	jal	ra,8c98 <printf>
    1c30:	00080537          	lui	a0,0x80
    1c34:	12050513          	addi	a0,a0,288 # 80120 <_DATA_VMA_START+0x120>
    1c38:	060070ef          	jal	ra,8c98 <printf>
    1c3c:	0000ea37          	lui	s4,0xe
    1c40:	9b0a0513          	addi	a0,s4,-1616 # d9b0 <BIN_SIZE+0x3a1a>
    1c44:	6f5060ef          	jal	ra,8b38 <malloc>
    1c48:	00a00cb3          	add	s9,zero,a0
    1c4c:	60c00513          	li	a0,1548
    1c50:	6e9060ef          	jal	ra,8b38 <malloc>
    1c54:	00a00c33          	add	s8,zero,a0
    1c58:	2b000513          	li	a0,688
    1c5c:	6dd060ef          	jal	ra,8b38 <malloc>
    1c60:	00a00bb3          	add	s7,zero,a0
    1c64:	2b000513          	li	a0,688
    1c68:	6d1060ef          	jal	ra,8b38 <malloc>
    1c6c:	00a00b33          	add	s6,zero,a0
    1c70:	2b000513          	li	a0,688
    1c74:	6c5060ef          	jal	ra,8b38 <malloc>
    1c78:	8aaa                	c.mv	s5,a0
    1c7a:	650d                	c.lui	a0,0x3
    1c7c:	bac50513          	addi	a0,a0,-1108 # 2bac <riscv_convolve_s8+0x18>
    1c80:	6b9060ef          	jal	ra,8b38 <malloc>
    1c84:	9b0a0793          	addi	a5,s4,-1616
    1c88:	8756                	c.mv	a4,s5
    1c8a:	86da                	c.mv	a3,s6
    1c8c:	865e                	c.mv	a2,s7
    1c8e:	85e2                	c.mv	a1,s8
    1c90:	8d2a                	c.mv	s10,a0
    1c92:	0ac00893          	li	a7,172
    1c96:	8566                	c.mv	a0,s9
    1c98:	60c00813          	li	a6,1548
    1c9c:	8e1ff0ef          	jal	ra,157c <fill_dummy_data>
    1ca0:	4785                	c.li	a5,1
    1ca2:	488d                	c.li	a7,3
    1ca4:	da3e                	c.swsp	a5,52(sp)
    1ca6:	c4c6                	c.swsp	a7,72(sp)
    1ca8:	c6c6                	c.swsp	a7,76(sp)
    1caa:	cb3e                	c.swsp	a5,148(sp)
    1cac:	c93e                	c.swsp	a5,144(sp)
    1cae:	c73e                	c.swsp	a5,140(sp)
    1cb0:	c53e                	c.swsp	a5,136(sp)
    1cb2:	436d                	c.li	t1,27
    1cb4:	48b5                	c.li	a7,13
    1cb6:	f8000793          	li	a5,-128
    1cba:	0ac00713          	li	a4,172
    1cbe:	4809                	c.li	a6,2
    1cc0:	86a2                	c.mv	a3,s0
    1cc2:	00d0                	c.addi4spn	a2,sp,68
    1cc4:	184c                	c.addi4spn	a1,sp,52
    1cc6:	dc1a                	c.swsp	t1,56(sp)
    1cc8:	d4c6                	c.swsp	a7,104(sp)
    1cca:	4331                	c.li	t1,12
    1ccc:	4895                	c.li	a7,5
    1cce:	cd3e                	c.swsp	a5,152(sp)
    1cd0:	18c8                	c.addi4spn	a0,sp,116
    1cd2:	07f00793          	li	a5,127
    1cd6:	de1a                	c.swsp	t1,60(sp)
    1cd8:	c0ba                	c.swsp	a4,64(sp)
    1cda:	c8ba                	c.swsp	a4,80(sp)
    1cdc:	d6c6                	c.swsp	a7,108(sp)
    1cde:	d8ba                	c.swsp	a4,112(sp)
    1ce0:	c342                	c.swsp	a6,132(sp)
    1ce2:	c142                	c.swsp	a6,128(sp)
    1ce4:	deba                	c.swsp	a4,124(sp)
    1ce6:	cf3e                	c.swsp	a5,156(sp)
    1ce8:	ca82                	c.swsp	zero,84(sp)
    1cea:	cc82                	c.swsp	zero,88(sp)
    1cec:	ce82                	c.swsp	zero,92(sp)
    1cee:	d082                	c.swsp	zero,96(sp)
    1cf0:	da82                	c.swsp	zero,116(sp)
    1cf2:	dc82                	c.swsp	zero,120(sp)
    1cf4:	d65a                	c.swsp	s6,44(sp)
    1cf6:	d856                	c.swsp	s5,48(sp)
    1cf8:	38d010ef          	jal	ra,3884 <riscv_depthwise_conv_wrapper_s8_get_buffer_size>
    1cfc:	00a00db3          	add	s11,zero,a0
    1d00:	639060ef          	jal	ra,8b38 <malloc>
    1d04:	d46e                	c.swsp	s11,40(sp)
    1d06:	d22a                	c.swsp	a0,36(sp)
    1d08:	878a                	c.mv	a5,sp
    1d0a:	0009f737          	lui	a4,0x9f
    1d0e:	00f77f63          	bgeu	a4,a5,1d2c <main+0x68c>
    1d12:	fff61637          	lui	a2,0xfff61
    1d16:	167d                	c.addi	a2,-1
    1d18:	97b2                	c.add	a5,a2
    1d1a:	ffc7f613          	andi	a2,a5,-4
    1d1e:	0611                	c.addi	a2,4
    1d20:	0aa00593          	li	a1,170
    1d24:	0009f537          	lui	a0,0x9f
    1d28:	52b060ef          	jal	ra,8a52 <memset>
    1d2c:	b0005073          	csrwi	mcycle,0
    1d30:	b0002a73          	csrr	s4,mcycle
    1d34:	05410893          	addi	a7,sp,84
    1d38:	8862                	c.mv	a6,s8
    1d3a:	00dc                	c.addi4spn	a5,sp,68
    1d3c:	8766                	c.mv	a4,s9
    1d3e:	1854                	c.addi4spn	a3,sp,52
    1d40:	1070                	c.addi4spn	a2,sp,44
    1d42:	18cc                	c.addi4spn	a1,sp,116
    1d44:	1048                	c.addi4spn	a0,sp,36
    1d46:	c46a                	c.swsp	s10,8(sp)
    1d48:	c222                	c.swsp	s0,4(sp)
    1d4a:	c05e                	c.swsp	s7,0(sp)
    1d4c:	194020ef          	jal	ra,3ee0 <riscv_depthwise_conv_wrapper_s8>
    1d50:	b0002673          	csrr	a2,mcycle
    1d54:	868a                	c.mv	a3,sp
    1d56:	0009f7b7          	lui	a5,0x9f
    1d5a:	7ed7ff63          	bgeu	a5,a3,2558 <main+0xeb8>
    1d5e:	4398                	c.lw	a4,0(a5)
    1d60:	aaaab7b7          	lui	a5,0xaaaab
    1d64:	aaa78793          	addi	a5,a5,-1366 # aaaaaaaa <_DATA_LMA_START+0x8aaa0fa2>
    1d68:	7ef71863          	bne	a4,a5,2558 <main+0xeb8>
    1d6c:	0009f7b7          	lui	a5,0x9f
    1d70:	00c0006f          	j	1d7c <main+0x6dc>
    1d74:	0007a583          	lw	a1,0(a5) # 9f000 <__global_pointer$+0x1e800>
    1d78:	00e59663          	bne	a1,a4,1d84 <main+0x6e4>
    1d7c:	00478793          	addi	a5,a5,4
    1d80:	fed7eae3          	bltu	a5,a3,1d74 <main+0x6d4>
    1d84:	8e9d                	c.sub	a3,a5
    1d86:	5512                	c.lwsp	a0,36(sp)
    1d88:	c836                	c.swsp	a3,16(sp)
    1d8a:	41460a33          	sub	s4,a2,s4
    1d8e:	c909                	c.beqz	a0,1da0 <main+0x700>
    1d90:	866e                	c.mv	a2,s11
    1d92:	4581                	c.li	a1,0
    1d94:	4bf060ef          	jal	ra,8a52 <memset>
    1d98:	02412503          	lw	a0,36(sp)
    1d9c:	5ad060ef          	jal	ra,8b48 <free>
    1da0:	00080537          	lui	a0,0x80
    1da4:	14850513          	addi	a0,a0,328 # 80148 <_DATA_VMA_START+0x148>
    1da8:	6f1060ef          	jal	ra,8c98 <printf>
    1dac:	01012583          	lw	a1,16(sp)
    1db0:	0f498513          	addi	a0,s3,244
    1db4:	6e5060ef          	jal	ra,8c98 <printf>
    1db8:	014005b3          	add	a1,zero,s4
    1dbc:	10c90513          	addi	a0,s2,268
    1dc0:	6d9060ef          	jal	ra,8c98 <printf>
    1dc4:	01900533          	add	a0,zero,s9
    1dc8:	581060ef          	jal	ra,8b48 <free>
    1dcc:	01800533          	add	a0,zero,s8
    1dd0:	579060ef          	jal	ra,8b48 <free>
    1dd4:	01700533          	add	a0,zero,s7
    1dd8:	571060ef          	jal	ra,8b48 <free>
    1ddc:	01600533          	add	a0,zero,s6
    1de0:	569060ef          	jal	ra,8b48 <free>
    1de4:	01500533          	add	a0,zero,s5
    1de8:	561060ef          	jal	ra,8b48 <free>
    1dec:	01a00533          	add	a0,zero,s10
    1df0:	559060ef          	jal	ra,8b48 <free>
    1df4:	3bc48513          	addi	a0,s1,956
    1df8:	6a1060ef          	jal	ra,8c98 <printf>
    1dfc:	00080537          	lui	a0,0x80
    1e00:	16c50513          	addi	a0,a0,364 # 8016c <_DATA_VMA_START+0x16c>
    1e04:	695060ef          	jal	ra,8c98 <printf>
    1e08:	00003db7          	lui	s11,0x3
    1e0c:	bacd8513          	addi	a0,s11,-1108 # 2bac <riscv_convolve_s8+0x18>
    1e10:	529060ef          	jal	ra,8b38 <malloc>
    1e14:	681d                	c.lui	a6,0x7
    1e16:	8caa                	c.mv	s9,a0
    1e18:	39080513          	addi	a0,a6,912 # 7390 <riscv_depthwise_conv_3x3_s8+0x1408>
    1e1c:	01012e23          	sw	a6,28(sp)
    1e20:	519060ef          	jal	ra,8b38 <malloc>
    1e24:	00a00c33          	add	s8,zero,a0
    1e28:	2b000513          	li	a0,688
    1e2c:	50d060ef          	jal	ra,8b38 <malloc>
    1e30:	00a00bb3          	add	s7,zero,a0
    1e34:	2b000513          	li	a0,688
    1e38:	501060ef          	jal	ra,8b38 <malloc>
    1e3c:	00a00b33          	add	s6,zero,a0
    1e40:	2b000513          	li	a0,688
    1e44:	4f5060ef          	jal	ra,8b38 <malloc>
    1e48:	00a00ab3          	add	s5,zero,a0
    1e4c:	bacd8513          	addi	a0,s11,-1108
    1e50:	4e9060ef          	jal	ra,8b38 <malloc>
    1e54:	4872                	c.lwsp	a6,28(sp)
    1e56:	bacd8793          	addi	a5,s11,-1108
    1e5a:	8756                	c.mv	a4,s5
    1e5c:	86da                	c.mv	a3,s6
    1e5e:	865e                	c.mv	a2,s7
    1e60:	85e2                	c.mv	a1,s8
    1e62:	8d2a                	c.mv	s10,a0
    1e64:	0ac00893          	li	a7,172
    1e68:	01900533          	add	a0,zero,s9
    1e6c:	39080813          	addi	a6,a6,912
    1e70:	f0cff0ef          	jal	ra,157c <fill_dummy_data>
    1e74:	4785                	c.li	a5,1
    1e76:	da3e                	c.swsp	a5,52(sp)
    1e78:	c4be                	c.swsp	a5,72(sp)
    1e7a:	c6be                	c.swsp	a5,76(sp)
    1e7c:	c13e                	c.swsp	a5,128(sp)
    1e7e:	debe                	c.swsp	a5,124(sp)
    1e80:	c93e                	c.swsp	a5,144(sp)
    1e82:	c73e                	c.swsp	a5,140(sp)
    1e84:	c53e                	c.swsp	a5,136(sp)
    1e86:	c33e                	c.swsp	a5,132(sp)
    1e88:	f8000793          	li	a5,-128
    1e8c:	0ac00713          	li	a4,172
    1e90:	48b5                	c.li	a7,13
    1e92:	4815                	c.li	a6,5
    1e94:	86a2                	c.mv	a3,s0
    1e96:	00d0                	c.addi4spn	a2,sp,68
    1e98:	184c                	c.addi4spn	a1,sp,52
    1e9a:	cb3e                	c.swsp	a5,148(sp)
    1e9c:	18c8                	c.addi4spn	a0,sp,116
    1e9e:	07f00793          	li	a5,127
    1ea2:	dc46                	c.swsp	a7,56(sp)
    1ea4:	de42                	c.swsp	a6,60(sp)
    1ea6:	c0ba                	c.swsp	a4,64(sp)
    1ea8:	c8ba                	c.swsp	a4,80(sp)
    1eaa:	d4c6                	c.swsp	a7,104(sp)
    1eac:	d6c2                	c.swsp	a6,108(sp)
    1eae:	d8ba                	c.swsp	a4,112(sp)
    1eb0:	cd3e                	c.swsp	a5,152(sp)
    1eb2:	ca82                	c.swsp	zero,84(sp)
    1eb4:	cc82                	c.swsp	zero,88(sp)
    1eb6:	ce82                	c.swsp	zero,92(sp)
    1eb8:	d082                	c.swsp	zero,96(sp)
    1eba:	da82                	c.swsp	zero,116(sp)
    1ebc:	dc82                	c.swsp	zero,120(sp)
    1ebe:	d65a                	c.swsp	s6,44(sp)
    1ec0:	03512823          	sw	s5,48(sp)
    1ec4:	11d010ef          	jal	ra,37e0 <riscv_convolve_wrapper_s8_get_buffer_size>
    1ec8:	4662                	c.lwsp	a2,24(sp)
    1eca:	8daa                	c.mv	s11,a0
    1ecc:	9652                	c.add	a2,s4
    1ece:	cc32                	c.swsp	a2,24(sp)
    1ed0:	469060ef          	jal	ra,8b38 <malloc>
    1ed4:	46c2                	c.lwsp	a3,16(sp)
    1ed6:	4652                	c.lwsp	a2,20(sp)
    1ed8:	d22a                	c.swsp	a0,36(sp)
    1eda:	96b2                	c.add	a3,a2
    1edc:	ce36                	c.swsp	a3,28(sp)
    1ede:	d46e                	c.swsp	s11,40(sp)
    1ee0:	878a                	c.mv	a5,sp
    1ee2:	0009f737          	lui	a4,0x9f
    1ee6:	00f77f63          	bgeu	a4,a5,1f04 <main+0x864>
    1eea:	fff61637          	lui	a2,0xfff61
    1eee:	167d                	c.addi	a2,-1
    1ef0:	97b2                	c.add	a5,a2
    1ef2:	ffc7f613          	andi	a2,a5,-4
    1ef6:	0611                	c.addi	a2,4
    1ef8:	0aa00593          	li	a1,170
    1efc:	0009f537          	lui	a0,0x9f
    1f00:	353060ef          	jal	ra,8a52 <memset>
    1f04:	b0005073          	csrwi	mcycle,0
    1f08:	b0002a73          	csrr	s4,mcycle
    1f0c:	05410893          	addi	a7,sp,84
    1f10:	8862                	c.mv	a6,s8
    1f12:	00dc                	c.addi4spn	a5,sp,68
    1f14:	8766                	c.mv	a4,s9
    1f16:	1854                	c.addi4spn	a3,sp,52
    1f18:	1070                	c.addi4spn	a2,sp,44
    1f1a:	18cc                	c.addi4spn	a1,sp,116
    1f1c:	1048                	c.addi4spn	a0,sp,36
    1f1e:	c46a                	c.swsp	s10,8(sp)
    1f20:	c222                	c.swsp	s0,4(sp)
    1f22:	c05e                	c.swsp	s7,0(sp)
    1f24:	7dc000ef          	jal	ra,2700 <riscv_convolve_wrapper_s8>
    1f28:	b00026f3          	csrr	a3,mcycle
    1f2c:	8d8a                	c.mv	s11,sp
    1f2e:	0009f7b7          	lui	a5,0x9f
    1f32:	63b7f763          	bgeu	a5,s11,2560 <main+0xec0>
    1f36:	4398                	c.lw	a4,0(a5)
    1f38:	aaaab7b7          	lui	a5,0xaaaab
    1f3c:	aaa78793          	addi	a5,a5,-1366 # aaaaaaaa <_DATA_LMA_START+0x8aaa0fa2>
    1f40:	62f71063          	bne	a4,a5,2560 <main+0xec0>
    1f44:	0009f7b7          	lui	a5,0x9f
    1f48:	00c0006f          	j	1f54 <main+0x8b4>
    1f4c:	0007a603          	lw	a2,0(a5) # 9f000 <__global_pointer$+0x1e800>
    1f50:	00e61663          	bne	a2,a4,1f5c <main+0x8bc>
    1f54:	00478793          	addi	a5,a5,4
    1f58:	ffb7eae3          	bltu	a5,s11,1f4c <main+0x8ac>
    1f5c:	5512                	c.lwsp	a0,36(sp)
    1f5e:	40fd8db3          	sub	s11,s11,a5
    1f62:	41468a33          	sub	s4,a3,s4
    1f66:	c119                	c.beqz	a0,1f6c <main+0x8cc>
    1f68:	3e1060ef          	jal	ra,8b48 <free>
    1f6c:	4315                	c.li	t1,5
    1f6e:	026a07b3          	mul	a5,s4,t1
    1f72:	00080537          	lui	a0,0x80
    1f76:	19850513          	addi	a0,a0,408 # 80198 <_DATA_VMA_START+0x198>
    1f7a:	c81a                	c.swsp	t1,16(sp)
    1f7c:	00f12a23          	sw	a5,20(sp)
    1f80:	519060ef          	jal	ra,8c98 <printf>
    1f84:	4342                	c.lwsp	t1,16(sp)
    1f86:	85ee                	c.mv	a1,s11
    1f88:	026d8db3          	mul	s11,s11,t1
    1f8c:	0f498513          	addi	a0,s3,244
    1f90:	509060ef          	jal	ra,8c98 <printf>
    1f94:	014005b3          	add	a1,zero,s4
    1f98:	10c90513          	addi	a0,s2,268
    1f9c:	4fd060ef          	jal	ra,8c98 <printf>
    1fa0:	47d2                	c.lwsp	a5,20(sp)
    1fa2:	46e2                	c.lwsp	a3,24(sp)
    1fa4:	00080537          	lui	a0,0x80
    1fa8:	96be                	c.add	a3,a5
    1faa:	85be                	c.mv	a1,a5
    1fac:	1b050513          	addi	a0,a0,432 # 801b0 <_DATA_VMA_START+0x1b0>
    1fb0:	00d12a23          	sw	a3,20(sp)
    1fb4:	4e5060ef          	jal	ra,8c98 <printf>
    1fb8:	00080537          	lui	a0,0x80
    1fbc:	01b005b3          	add	a1,zero,s11
    1fc0:	1e850513          	addi	a0,a0,488 # 801e8 <_DATA_VMA_START+0x1e8>
    1fc4:	4d5060ef          	jal	ra,8c98 <printf>
    1fc8:	01900533          	add	a0,zero,s9
    1fcc:	37d060ef          	jal	ra,8b48 <free>
    1fd0:	01800533          	add	a0,zero,s8
    1fd4:	375060ef          	jal	ra,8b48 <free>
    1fd8:	01700533          	add	a0,zero,s7
    1fdc:	36d060ef          	jal	ra,8b48 <free>
    1fe0:	01600533          	add	a0,zero,s6
    1fe4:	365060ef          	jal	ra,8b48 <free>
    1fe8:	01500533          	add	a0,zero,s5
    1fec:	35d060ef          	jal	ra,8b48 <free>
    1ff0:	01a00533          	add	a0,zero,s10
    1ff4:	355060ef          	jal	ra,8b48 <free>
    1ff8:	3bc48513          	addi	a0,s1,956
    1ffc:	49d060ef          	jal	ra,8c98 <printf>
    2000:	00080537          	lui	a0,0x80
    2004:	22050513          	addi	a0,a0,544 # 80220 <_DATA_VMA_START+0x220>
    2008:	491060ef          	jal	ra,8c98 <printf>
    200c:	00003a37          	lui	s4,0x3
    2010:	baca0513          	addi	a0,s4,-1108 # 2bac <riscv_convolve_s8+0x18>
    2014:	325060ef          	jal	ra,8b38 <malloc>
    2018:	00a00cb3          	add	s9,zero,a0
    201c:	60c00513          	li	a0,1548
    2020:	319060ef          	jal	ra,8b38 <malloc>
    2024:	00a00c33          	add	s8,zero,a0
    2028:	2b000513          	li	a0,688
    202c:	30d060ef          	jal	ra,8b38 <malloc>
    2030:	00a00bb3          	add	s7,zero,a0
    2034:	2b000513          	li	a0,688
    2038:	301060ef          	jal	ra,8b38 <malloc>
    203c:	00a00b33          	add	s6,zero,a0
    2040:	2b000513          	li	a0,688
    2044:	2f5060ef          	jal	ra,8b38 <malloc>
    2048:	00a00ab3          	add	s5,zero,a0
    204c:	baca0513          	addi	a0,s4,-1108
    2050:	2e9060ef          	jal	ra,8b38 <malloc>
    2054:	baca0793          	addi	a5,s4,-1108
    2058:	8756                	c.mv	a4,s5
    205a:	86da                	c.mv	a3,s6
    205c:	865e                	c.mv	a2,s7
    205e:	85e2                	c.mv	a1,s8
    2060:	8d2a                	c.mv	s10,a0
    2062:	0ac00893          	li	a7,172
    2066:	8566                	c.mv	a0,s9
    2068:	60c00813          	li	a6,1548
    206c:	d10ff0ef          	jal	ra,157c <fill_dummy_data>
    2070:	4785                	c.li	a5,1
    2072:	4342                	c.lwsp	t1,16(sp)
    2074:	da3e                	c.swsp	a5,52(sp)
    2076:	c33e                	c.swsp	a5,132(sp)
    2078:	c13e                	c.swsp	a5,128(sp)
    207a:	cb3e                	c.swsp	a5,148(sp)
    207c:	c93e                	c.swsp	a5,144(sp)
    207e:	f8000793          	li	a5,-128
    2082:	0ac00713          	li	a4,172
    2086:	4835                	c.li	a6,13
    2088:	488d                	c.li	a7,3
    208a:	86a2                	c.mv	a3,s0
    208c:	00d0                	c.addi4spn	a2,sp,68
    208e:	184c                	c.addi4spn	a1,sp,52
    2090:	cd3e                	c.swsp	a5,152(sp)
    2092:	18c8                	c.addi4spn	a0,sp,116
    2094:	07f00793          	li	a5,127
    2098:	dc42                	c.swsp	a6,56(sp)
    209a:	de1a                	c.swsp	t1,60(sp)
    209c:	c0ba                	c.swsp	a4,64(sp)
    209e:	c4c6                	c.swsp	a7,72(sp)
    20a0:	c6c6                	c.swsp	a7,76(sp)
    20a2:	c8ba                	c.swsp	a4,80(sp)
    20a4:	d4c2                	c.swsp	a6,104(sp)
    20a6:	d69a                	c.swsp	t1,108(sp)
    20a8:	d8ba                	c.swsp	a4,112(sp)
    20aa:	deba                	c.swsp	a4,124(sp)
    20ac:	cf3e                	c.swsp	a5,156(sp)
    20ae:	ca82                	c.swsp	zero,84(sp)
    20b0:	cc82                	c.swsp	zero,88(sp)
    20b2:	ce82                	c.swsp	zero,92(sp)
    20b4:	d082                	c.swsp	zero,96(sp)
    20b6:	c702                	c.swsp	zero,140(sp)
    20b8:	c502                	c.swsp	zero,136(sp)
    20ba:	da82                	c.swsp	zero,116(sp)
    20bc:	dc82                	c.swsp	zero,120(sp)
    20be:	d65a                	c.swsp	s6,44(sp)
    20c0:	03512823          	sw	s5,48(sp)
    20c4:	7c0010ef          	jal	ra,3884 <riscv_depthwise_conv_wrapper_s8_get_buffer_size>
    20c8:	46f2                	c.lwsp	a3,28(sp)
    20ca:	8a2a                	c.mv	s4,a0
    20cc:	96ee                	c.add	a3,s11
    20ce:	c82a                	c.swsp	a0,16(sp)
    20d0:	00d12c23          	sw	a3,24(sp)
    20d4:	265060ef          	jal	ra,8b38 <malloc>
    20d8:	d452                	c.swsp	s4,40(sp)
    20da:	d22a                	c.swsp	a0,36(sp)
    20dc:	878a                	c.mv	a5,sp
    20de:	0009f737          	lui	a4,0x9f
    20e2:	00f77f63          	bgeu	a4,a5,2100 <main+0xa60>
    20e6:	fff61637          	lui	a2,0xfff61
    20ea:	167d                	c.addi	a2,-1
    20ec:	97b2                	c.add	a5,a2
    20ee:	ffc7f613          	andi	a2,a5,-4
    20f2:	0611                	c.addi	a2,4
    20f4:	0aa00593          	li	a1,170
    20f8:	0009f537          	lui	a0,0x9f
    20fc:	157060ef          	jal	ra,8a52 <memset>
    2100:	b0005073          	csrwi	mcycle,0
    2104:	b0002df3          	csrr	s11,mcycle
    2108:	05410893          	addi	a7,sp,84
    210c:	8862                	c.mv	a6,s8
    210e:	00dc                	c.addi4spn	a5,sp,68
    2110:	8766                	c.mv	a4,s9
    2112:	1854                	c.addi4spn	a3,sp,52
    2114:	1070                	c.addi4spn	a2,sp,44
    2116:	18cc                	c.addi4spn	a1,sp,116
    2118:	1048                	c.addi4spn	a0,sp,36
    211a:	c46a                	c.swsp	s10,8(sp)
    211c:	c222                	c.swsp	s0,4(sp)
    211e:	c05e                	c.swsp	s7,0(sp)
    2120:	5c1010ef          	jal	ra,3ee0 <riscv_depthwise_conv_wrapper_s8>
    2124:	b0002673          	csrr	a2,mcycle
    2128:	868a                	c.mv	a3,sp
    212a:	0009f7b7          	lui	a5,0x9f
    212e:	42d7fd63          	bgeu	a5,a3,2568 <main+0xec8>
    2132:	4398                	c.lw	a4,0(a5)
    2134:	aaaab7b7          	lui	a5,0xaaaab
    2138:	aaa78793          	addi	a5,a5,-1366 # aaaaaaaa <_DATA_LMA_START+0x8aaa0fa2>
    213c:	42f71663          	bne	a4,a5,2568 <main+0xec8>
    2140:	0009f7b7          	lui	a5,0x9f
    2144:	00c0006f          	j	2150 <main+0xab0>
    2148:	0007a583          	lw	a1,0(a5) # 9f000 <__global_pointer$+0x1e800>
    214c:	00e59663          	bne	a1,a4,2158 <main+0xab8>
    2150:	00478793          	addi	a5,a5,4
    2154:	fed7eae3          	bltu	a5,a3,2148 <main+0xaa8>
    2158:	5512                	c.lwsp	a0,36(sp)
    215a:	40f68a33          	sub	s4,a3,a5
    215e:	41b60db3          	sub	s11,a2,s11
    2162:	c909                	c.beqz	a0,2174 <main+0xad4>
    2164:	4642                	c.lwsp	a2,16(sp)
    2166:	4581                	c.li	a1,0
    2168:	0eb060ef          	jal	ra,8a52 <memset>
    216c:	02412503          	lw	a0,36(sp)
    2170:	1d9060ef          	jal	ra,8b48 <free>
    2174:	00080537          	lui	a0,0x80
    2178:	25450513          	addi	a0,a0,596 # 80254 <_DATA_VMA_START+0x254>
    217c:	31d060ef          	jal	ra,8c98 <printf>
    2180:	014005b3          	add	a1,zero,s4
    2184:	0f498513          	addi	a0,s3,244
    2188:	311060ef          	jal	ra,8c98 <printf>
    218c:	01b005b3          	add	a1,zero,s11
    2190:	10c90513          	addi	a0,s2,268
    2194:	305060ef          	jal	ra,8c98 <printf>
    2198:	0d8a                	c.slli	s11,0x2
    219a:	00080537          	lui	a0,0x80
    219e:	85ee                	c.mv	a1,s11
    21a0:	27850513          	addi	a0,a0,632 # 80278 <_DATA_VMA_START+0x278>
    21a4:	2f5060ef          	jal	ra,8c98 <printf>
    21a8:	0a0a                	c.slli	s4,0x2
    21aa:	00080537          	lui	a0,0x80
    21ae:	85d2                	c.mv	a1,s4
    21b0:	2b850513          	addi	a0,a0,696 # 802b8 <_DATA_VMA_START+0x2b8>
    21b4:	2e5060ef          	jal	ra,8c98 <printf>
    21b8:	01900533          	add	a0,zero,s9
    21bc:	18d060ef          	jal	ra,8b48 <free>
    21c0:	01800533          	add	a0,zero,s8
    21c4:	185060ef          	jal	ra,8b48 <free>
    21c8:	01700533          	add	a0,zero,s7
    21cc:	17d060ef          	jal	ra,8b48 <free>
    21d0:	01600533          	add	a0,zero,s6
    21d4:	175060ef          	jal	ra,8b48 <free>
    21d8:	01500533          	add	a0,zero,s5
    21dc:	16d060ef          	jal	ra,8b48 <free>
    21e0:	01a00533          	add	a0,zero,s10
    21e4:	165060ef          	jal	ra,8b48 <free>
    21e8:	3bc48513          	addi	a0,s1,956
    21ec:	2ad060ef          	jal	ra,8c98 <printf>
    21f0:	00080537          	lui	a0,0x80
    21f4:	2f850513          	addi	a0,a0,760 # 802f8 <_DATA_VMA_START+0x2f8>
    21f8:	2a1060ef          	jal	ra,8c98 <printf>
    21fc:	00003ab7          	lui	s5,0x3
    2200:	baca8513          	addi	a0,s5,-1108 # 2bac <riscv_convolve_s8+0x18>
    2204:	135060ef          	jal	ra,8b38 <malloc>
    2208:	00a00b33          	add	s6,zero,a0
    220c:	0ac00513          	li	a0,172
    2210:	129060ef          	jal	ra,8b38 <malloc>
    2214:	46d2                	c.lwsp	a3,20(sp)
    2216:	baca8a93          	addi	s5,s5,-1108
    221a:	96ee                	c.add	a3,s11
    221c:	c836                	c.swsp	a3,16(sp)
    221e:	46e2                	c.lwsp	a3,24(sp)
    2220:	8baa                	c.mv	s7,a0
    2222:	96d2                	c.add	a3,s4
    2224:	015b0a33          	add	s4,s6,s5
    2228:	80808ab7          	lui	s5,0x80808
    222c:	8c5a                	c.mv	s8,s6
    222e:	081a8a93          	addi	s5,s5,129 # 80808081 <_DATA_LMA_START+0x607fe579>
    2232:	ca36                	c.swsp	a3,20(sp)
    2234:	0c9060ef          	jal	ra,8afc <rand>
    2238:	e155177f          	mulsr64	a4,a0,s5
    223c:	97aa                	c.add	a5,a0
    223e:	41f55713          	srai	a4,a0,0x1f
    2242:	879d                	c.srai	a5,0x7
    2244:	8f99                	c.sub	a5,a4
    2246:	00879713          	slli	a4,a5,0x8
    224a:	40f707b3          	sub	a5,a4,a5
    224e:	40f507b3          	sub	a5,a0,a5
    2252:	f8078793          	addi	a5,a5,-128
    2256:	00fc0023          	sb	a5,0(s8)
    225a:	0c05                	c.addi	s8,1
    225c:	fd4c1ce3          	bne	s8,s4,2234 <main+0xb94>
    2260:	4785                	c.li	a5,1
    2262:	c2be                	c.swsp	a5,68(sp)
    2264:	ccbe                	c.swsp	a5,88(sp)
    2266:	cebe                	c.swsp	a5,92(sp)
    2268:	c13e                	c.swsp	a5,128(sp)
    226a:	debe                	c.swsp	a5,124(sp)
    226c:	f8000793          	li	a5,-128
    2270:	46b5                	c.li	a3,13
    2272:	4715                	c.li	a4,5
    2274:	0ac00613          	li	a2,172
    2278:	0ac00593          	li	a1,172
    227c:	c33e                	c.swsp	a5,132(sp)
    227e:	4505                	c.li	a0,1
    2280:	07f00793          	li	a5,127
    2284:	c4b6                	c.swsp	a3,72(sp)
    2286:	c6ba                	c.swsp	a4,76(sp)
    2288:	c8b2                	c.swsp	a2,80(sp)
    228a:	d6ba                	c.swsp	a4,108(sp)
    228c:	d4b6                	c.swsp	a3,104(sp)
    228e:	d0b2                	c.swsp	a2,96(sp)
    2290:	dcb6                	c.swsp	a3,120(sp)
    2292:	daba                	c.swsp	a4,116(sp)
    2294:	08f12423          	sw	a5,136(sp)
    2298:	33d020ef          	jal	ra,4dd4 <riscv_avgpool_s8_get_buffer_size>
    229c:	00a00a33          	add	s4,zero,a0
    22a0:	099060ef          	jal	ra,8b38 <malloc>
    22a4:	dc52                	c.swsp	s4,56(sp)
    22a6:	da2a                	c.swsp	a0,52(sp)
    22a8:	878a                	c.mv	a5,sp
    22aa:	0009f737          	lui	a4,0x9f
    22ae:	00f77f63          	bgeu	a4,a5,22cc <main+0xc2c>
    22b2:	fff61637          	lui	a2,0xfff61
    22b6:	167d                	c.addi	a2,-1
    22b8:	97b2                	c.add	a5,a2
    22ba:	ffc7f613          	andi	a2,a5,-4
    22be:	0611                	c.addi	a2,4
    22c0:	0aa00593          	li	a1,170
    22c4:	0009f537          	lui	a0,0x9f
    22c8:	78a060ef          	jal	ra,8a52 <memset>
    22cc:	b0005073          	csrwi	mcycle,0
    22d0:	b0002af3          	csrr	s5,mcycle
    22d4:	885e                	c.mv	a6,s7
    22d6:	08dc                	c.addi4spn	a5,sp,84
    22d8:	8722                	c.mv	a4,s0
    22da:	86da                	c.mv	a3,s6
    22dc:	00d0                	c.addi4spn	a2,sp,68
    22de:	18cc                	c.addi4spn	a1,sp,116
    22e0:	03410513          	addi	a0,sp,52
    22e4:	2f9020ef          	jal	ra,4ddc <riscv_avgpool_s8>
    22e8:	b00026f3          	csrr	a3,mcycle
    22ec:	8a0a                	c.mv	s4,sp
    22ee:	0009f7b7          	lui	a5,0x9f
    22f2:	3547f763          	bgeu	a5,s4,2640 <main+0xfa0>
    22f6:	4398                	c.lw	a4,0(a5)
    22f8:	aaaab7b7          	lui	a5,0xaaaab
    22fc:	aaa78793          	addi	a5,a5,-1366 # aaaaaaaa <_DATA_LMA_START+0x8aaa0fa2>
    2300:	34f71063          	bne	a4,a5,2640 <main+0xfa0>
    2304:	0009f7b7          	lui	a5,0x9f
    2308:	00c0006f          	j	2314 <main+0xc74>
    230c:	0007a603          	lw	a2,0(a5) # 9f000 <__global_pointer$+0x1e800>
    2310:	00e61663          	bne	a2,a4,231c <main+0xc7c>
    2314:	00478793          	addi	a5,a5,4
    2318:	ff47eae3          	bltu	a5,s4,230c <main+0xc6c>
    231c:	5552                	c.lwsp	a0,52(sp)
    231e:	40fa0a33          	sub	s4,s4,a5
    2322:	41568ab3          	sub	s5,a3,s5
    2326:	c119                	c.beqz	a0,232c <main+0xc8c>
    2328:	021060ef          	jal	ra,8b48 <free>
    232c:	00080537          	lui	a0,0x80
    2330:	32050513          	addi	a0,a0,800 # 80320 <_DATA_VMA_START+0x320>
    2334:	165060ef          	jal	ra,8c98 <printf>
    2338:	014005b3          	add	a1,zero,s4
    233c:	0f498513          	addi	a0,s3,244
    2340:	159060ef          	jal	ra,8c98 <printf>
    2344:	015005b3          	add	a1,zero,s5
    2348:	10c90513          	addi	a0,s2,268
    234c:	14d060ef          	jal	ra,8c98 <printf>
    2350:	01600533          	add	a0,zero,s6
    2354:	7f4060ef          	jal	ra,8b48 <free>
    2358:	01700533          	add	a0,zero,s7
    235c:	7ec060ef          	jal	ra,8b48 <free>
    2360:	3bc48513          	addi	a0,s1,956
    2364:	135060ef          	jal	ra,8c98 <printf>
    2368:	00080537          	lui	a0,0x80
    236c:	33c50513          	addi	a0,a0,828 # 8033c <_DATA_VMA_START+0x33c>
    2370:	129060ef          	jal	ra,8c98 <printf>
    2374:	00100513          	li	a0,1
    2378:	7c0060ef          	jal	ra,8b38 <malloc>
    237c:	6805                	c.lui	a6,0x1
    237e:	8c2a                	c.mv	s8,a0
    2380:	81080513          	addi	a0,a6,-2032 # 810 <analog_read_reg8+0x38>
    2384:	01012c23          	sw	a6,24(sp)
    2388:	7b0060ef          	jal	ra,8b38 <malloc>
    238c:	00a00bb3          	add	s7,zero,a0
    2390:	03000513          	li	a0,48
    2394:	7a4060ef          	jal	ra,8b38 <malloc>
    2398:	00a00b33          	add	s6,zero,a0
    239c:	03000513          	li	a0,48
    23a0:	798060ef          	jal	ra,8b38 <malloc>
    23a4:	00a00db3          	add	s11,zero,a0
    23a8:	03000513          	li	a0,48
    23ac:	78c060ef          	jal	ra,8b38 <malloc>
    23b0:	8d2a                	c.mv	s10,a0
    23b2:	4531                	c.li	a0,12
    23b4:	784060ef          	jal	ra,8b38 <malloc>
    23b8:	4862                	c.lwsp	a6,24(sp)
    23ba:	48b1                	c.li	a7,12
    23bc:	81080813          	addi	a6,a6,-2032
    23c0:	865a                	c.mv	a2,s6
    23c2:	85de                	c.mv	a1,s7
    23c4:	4785                	c.li	a5,1
    23c6:	876a                	c.mv	a4,s10
    23c8:	86ee                	c.mv	a3,s11
    23ca:	8caa                	c.mv	s9,a0
    23cc:	01800533          	add	a0,zero,s8
    23d0:	9acff0ef          	jal	ra,157c <fill_dummy_data>
    23d4:	4785                	c.li	a5,1
    23d6:	da3e                	c.swsp	a5,52(sp)
    23d8:	dc3e                	c.swsp	a5,56(sp)
    23da:	de3e                	c.swsp	a5,60(sp)
    23dc:	c0be                	c.swsp	a5,64(sp)
    23de:	d2be                	c.swsp	a5,100(sp)
    23e0:	f8000793          	li	a5,-128
    23e4:	c13e                	c.swsp	a5,128(sp)
    23e6:	07f00793          	li	a5,127
    23ea:	c33e                	c.swsp	a5,132(sp)
    23ec:	500627b7          	lui	a5,0x50062
    23f0:	69278793          	addi	a5,a5,1682 # 50062692 <_DATA_LMA_START+0x30058b8a>
    23f4:	4731                	c.li	a4,12
    23f6:	0ac00693          	li	a3,172
    23fa:	d63e                	c.swsp	a5,44(sp)
    23fc:	00c8                	c.addi4spn	a0,sp,68
    23fe:	57dd                	c.li	a5,-9
    2400:	c2b6                	c.swsp	a3,68(sp)
    2402:	d83e                	c.swsp	a5,48(sp)
    2404:	c8ba                	c.swsp	a4,80(sp)
    2406:	d8ba                	c.swsp	a4,112(sp)
    2408:	ca82                	c.swsp	zero,84(sp)
    240a:	cc82                	c.swsp	zero,88(sp)
    240c:	ce82                	c.swsp	zero,92(sp)
    240e:	d082                	c.swsp	zero,96(sp)
    2410:	da82                	c.swsp	zero,116(sp)
    2412:	dc82                	c.swsp	zero,120(sp)
    2414:	06012e23          	sw	zero,124(sp)
    2418:	465020ef          	jal	ra,507c <riscv_fully_connected_s8_get_buffer_size>
    241c:	00a12c23          	sw	a0,24(sp)
    2420:	718060ef          	jal	ra,8b38 <malloc>
    2424:	46c2                	c.lwsp	a3,16(sp)
    2426:	47e2                	c.lwsp	a5,24(sp)
    2428:	9ab6                	c.add	s5,a3
    242a:	46d2                	c.lwsp	a3,20(sp)
    242c:	d22a                	c.swsp	a0,36(sp)
    242e:	d43e                	c.swsp	a5,40(sp)
    2430:	9a36                	c.add	s4,a3
    2432:	16050b63          	beqz	a0,25a8 <main+0xf08>
    2436:	b0005073          	csrwi	mcycle,0
    243a:	878a                	c.mv	a5,sp
    243c:	0009f737          	lui	a4,0x9f
    2440:	02f77063          	bgeu	a4,a5,2460 <main+0xdc0>
    2444:	fff61637          	lui	a2,0xfff61
    2448:	167d                	c.addi	a2,-1
    244a:	97b2                	c.add	a5,a2
    244c:	ffc7f613          	andi	a2,a5,-4
    2450:	00460613          	addi	a2,a2,4 # fff61004 <_DATA_LMA_START+0xdff574fc>
    2454:	0aa00593          	li	a1,170
    2458:	0009f537          	lui	a0,0x9f
    245c:	5f6060ef          	jal	ra,8a52 <memset>
    2460:	b0002373          	csrr	t1,mcycle
    2464:	05410893          	addi	a7,sp,84
    2468:	885e                	c.mv	a6,s7
    246a:	00dc                	c.addi4spn	a5,sp,68
    246c:	8762                	c.mv	a4,s8
    246e:	1854                	c.addi4spn	a3,sp,52
    2470:	1070                	c.addi4spn	a2,sp,44
    2472:	18cc                	c.addi4spn	a1,sp,116
    2474:	1048                	c.addi4spn	a0,sp,36
    2476:	c81a                	c.swsp	t1,16(sp)
    2478:	c466                	c.swsp	s9,8(sp)
    247a:	c222                	c.swsp	s0,4(sp)
    247c:	01612023          	sw	s6,0(sp)
    2480:	359020ef          	jal	ra,4fd8 <riscv_fully_connected_s8>
    2484:	b0002473          	csrr	s0,mcycle
    2488:	868a                	c.mv	a3,sp
    248a:	0009f7b7          	lui	a5,0x9f
    248e:	4342                	c.lwsp	t1,16(sp)
    2490:	1ad7f463          	bgeu	a5,a3,2638 <main+0xf98>
    2494:	0007a703          	lw	a4,0(a5) # 9f000 <__global_pointer$+0x1e800>
    2498:	aaaab7b7          	lui	a5,0xaaaab
    249c:	aaa78793          	addi	a5,a5,-1366 # aaaaaaaa <_DATA_LMA_START+0x8aaa0fa2>
    24a0:	18f71c63          	bne	a4,a5,2638 <main+0xf98>
    24a4:	0009f7b7          	lui	a5,0x9f
    24a8:	0791                	c.addi	a5,4
    24aa:	00d7f563          	bgeu	a5,a3,24b4 <main+0xe14>
    24ae:	4390                	c.lw	a2,0(a5)
    24b0:	fee60ce3          	beq	a2,a4,24a8 <main+0xe08>
    24b4:	8e9d                	c.sub	a3,a5
    24b6:	5512                	c.lwsp	a0,36(sp)
    24b8:	c836                	c.swsp	a3,16(sp)
    24ba:	40640433          	sub	s0,s0,t1
    24be:	c909                	c.beqz	a0,24d0 <main+0xe30>
    24c0:	5622                	c.lwsp	a2,40(sp)
    24c2:	4581                	c.li	a1,0
    24c4:	58e060ef          	jal	ra,8a52 <memset>
    24c8:	02412503          	lw	a0,36(sp)
    24cc:	67c060ef          	jal	ra,8b48 <free>
    24d0:	00080537          	lui	a0,0x80
    24d4:	38850513          	addi	a0,a0,904 # 80388 <_DATA_VMA_START+0x388>
    24d8:	7c0060ef          	jal	ra,8c98 <printf>
    24dc:	01012583          	lw	a1,16(sp)
    24e0:	0f498513          	addi	a0,s3,244
    24e4:	7b4060ef          	jal	ra,8c98 <printf>
    24e8:	008005b3          	add	a1,zero,s0
    24ec:	10c90513          	addi	a0,s2,268
    24f0:	7a8060ef          	jal	ra,8c98 <printf>
    24f4:	00080537          	lui	a0,0x80
    24f8:	3c050513          	addi	a0,a0,960 # 803c0 <_DATA_VMA_START+0x3c0>
    24fc:	79c060ef          	jal	ra,8c98 <printf>
    2500:	01800533          	add	a0,zero,s8
    2504:	644060ef          	jal	ra,8b48 <free>
    2508:	01700533          	add	a0,zero,s7
    250c:	63c060ef          	jal	ra,8b48 <free>
    2510:	01600533          	add	a0,zero,s6
    2514:	634060ef          	jal	ra,8b48 <free>
    2518:	01b00533          	add	a0,zero,s11
    251c:	62c060ef          	jal	ra,8b48 <free>
    2520:	01a00533          	add	a0,zero,s10
    2524:	624060ef          	jal	ra,8b48 <free>
    2528:	9aa2                	c.add	s5,s0
    252a:	4442                	c.lwsp	s0,16(sp)
    252c:	8566                	c.mv	a0,s9
    252e:	9a22                	c.add	s4,s0
    2530:	618060ef          	jal	ra,8b48 <free>
    2534:	0b00006f          	j	25e4 <main+0xf44>
    2538:	000fe537          	lui	a0,0xfe
    253c:	0c050513          	addi	a0,a0,192 # fe0c0 <_STACK_TOP+0x5e0c0>
    2540:	ecdfe0ef          	jal	ra,140c <user_calib_adc_vref.constprop.9>
    2544:	000fe537          	lui	a0,0xfe
    2548:	fc1fe0ef          	jal	ra,1508 <user_calib_freq_offset.constprop.8>
    254c:	c14ff06f          	j	1960 <main+0x2c0>
    2550:	0009f7b7          	lui	a5,0x9f
    2554:	e58ff06f          	j	1bac <main+0x50c>
    2558:	0009f7b7          	lui	a5,0x9f
    255c:	829ff06f          	j	1d84 <main+0x6e4>
    2560:	0009f7b7          	lui	a5,0x9f
    2564:	9f9ff06f          	j	1f5c <main+0x8bc>
    2568:	0009f7b7          	lui	a5,0x9f
    256c:	bedff06f          	j	2158 <main+0xab8>
    2570:	001fe537          	lui	a0,0x1fe
    2574:	0c050513          	addi	a0,a0,192 # 1fe0c0 <FLASH_SIZE+0xfe0c0>
    2578:	e95fe0ef          	jal	ra,140c <user_calib_adc_vref.constprop.9>
    257c:	001fe537          	lui	a0,0x1fe
    2580:	f89fe0ef          	jal	ra,1508 <user_calib_freq_offset.constprop.8>
    2584:	bdcff06f          	j	1960 <main+0x2c0>
    2588:	0d07d05b          	beqc	a5,16,2648 <main+0xfa8>
    258c:	0f17e65b          	bnec	a5,17,2678 <main+0xfd8>
    2590:	0001e537          	lui	a0,0x1e
    2594:	0c050513          	addi	a0,a0,192 # 1e0c0 <BIN_SIZE+0x1412a>
    2598:	e75fe0ef          	jal	ra,140c <user_calib_adc_vref.constprop.9>
    259c:	0001e537          	lui	a0,0x1e
    25a0:	f69fe0ef          	jal	ra,1508 <user_calib_freq_offset.constprop.8>
    25a4:	bbcff06f          	j	1960 <main+0x2c0>
    25a8:	00080537          	lui	a0,0x80
    25ac:	36450513          	addi	a0,a0,868 # 80364 <_DATA_VMA_START+0x364>
    25b0:	6e8060ef          	jal	ra,8c98 <printf>
    25b4:	01800533          	add	a0,zero,s8
    25b8:	590060ef          	jal	ra,8b48 <free>
    25bc:	01700533          	add	a0,zero,s7
    25c0:	588060ef          	jal	ra,8b48 <free>
    25c4:	01600533          	add	a0,zero,s6
    25c8:	580060ef          	jal	ra,8b48 <free>
    25cc:	01b00533          	add	a0,zero,s11
    25d0:	578060ef          	jal	ra,8b48 <free>
    25d4:	01a00533          	add	a0,zero,s10
    25d8:	570060ef          	jal	ra,8b48 <free>
    25dc:	01900533          	add	a0,zero,s9
    25e0:	568060ef          	jal	ra,8b48 <free>
    25e4:	3bc48513          	addi	a0,s1,956
    25e8:	6b0060ef          	jal	ra,8c98 <printf>
    25ec:	00080537          	lui	a0,0x80
    25f0:	3cc50513          	addi	a0,a0,972 # 803cc <_DATA_VMA_START+0x3cc>
    25f4:	6a4060ef          	jal	ra,8c98 <printf>
    25f8:	00080537          	lui	a0,0x80
    25fc:	015005b3          	add	a1,zero,s5
    2600:	3fc50513          	addi	a0,a0,1020 # 803fc <_DATA_VMA_START+0x3fc>
    2604:	694060ef          	jal	ra,8c98 <printf>
    2608:	00080537          	lui	a0,0x80
    260c:	014005b3          	add	a1,zero,s4
    2610:	41850513          	addi	a0,a0,1048 # 80418 <_DATA_VMA_START+0x418>
    2614:	684060ef          	jal	ra,8c98 <printf>
    2618:	40fe                	c.lwsp	ra,220(sp)
    261a:	446e                	c.lwsp	s0,216(sp)
    261c:	44de                	c.lwsp	s1,212(sp)
    261e:	494e                	c.lwsp	s2,208(sp)
    2620:	49be                	c.lwsp	s3,204(sp)
    2622:	4a2e                	c.lwsp	s4,200(sp)
    2624:	4a9e                	c.lwsp	s5,196(sp)
    2626:	4b0e                	c.lwsp	s6,192(sp)
    2628:	5bfa                	c.lwsp	s7,188(sp)
    262a:	5c6a                	c.lwsp	s8,184(sp)
    262c:	5cda                	c.lwsp	s9,180(sp)
    262e:	5d4a                	c.lwsp	s10,176(sp)
    2630:	5dba                	c.lwsp	s11,172(sp)
    2632:	4501                	c.li	a0,0
    2634:	612d                	c.addi16sp	sp,224
    2636:	8082                	c.jr	ra
    2638:	0009f7b7          	lui	a5,0x9f
    263c:	e79ff06f          	j	24b4 <main+0xe14>
    2640:	0009f7b7          	lui	a5,0x9f
    2644:	cd9ff06f          	j	231c <main+0xc7c>
    2648:	0000e537          	lui	a0,0xe
    264c:	0c050513          	addi	a0,a0,192 # e0c0 <BIN_SIZE+0x412a>
    2650:	dbdfe0ef          	jal	ra,140c <user_calib_adc_vref.constprop.9>
    2654:	0000e537          	lui	a0,0xe
    2658:	eb1fe0ef          	jal	ra,1508 <user_calib_freq_offset.constprop.8>
    265c:	b04ff06f          	j	1960 <main+0x2c0>
    2660:	0007e537          	lui	a0,0x7e
    2664:	0c050513          	addi	a0,a0,192 # 7e0c0 <BIN_SIZE+0x7412a>
    2668:	da5fe0ef          	jal	ra,140c <user_calib_adc_vref.constprop.9>
    266c:	0007e537          	lui	a0,0x7e
    2670:	e99fe0ef          	jal	ra,1508 <user_calib_freq_offset.constprop.8>
    2674:	aecff06f          	j	1960 <main+0x2c0>
    2678:	00000513          	li	a0,0
    267c:	d91fe0ef          	jal	ra,140c <user_calib_adc_vref.constprop.9>
    2680:	ae0ff06f          	j	1960 <main+0x2c0>
    2684:	00100793          	li	a5,1
    2688:	c89f940b          	addigp	s0,-888 # 80488 <g_pm_status_info>
    268c:	03800513          	li	a0,56
    2690:	00f40123          	sb	a5,2(s0)
    2694:	900fe0ef          	jal	ra,794 <analog_write_reg8>
    2698:	0014e593          	ori	a1,s1,1
    269c:	0ff5f593          	andi	a1,a1,255
    26a0:	03900513          	li	a0,57
    26a4:	8f0fe0ef          	jal	ra,794 <analog_write_reg8>
    26a8:	950ff06f          	j	17f8 <main+0x158>
    26ac:	07f00513          	li	a0,127
    26b0:	928fe0ef          	jal	ra,7d8 <analog_read_reg8>
    26b4:	00057c5b          	bbc	a0,0,26cc <main+0x102c>
    26b8:	4214f25b          	bbs	s1,1,26dc <main+0x103c>
    26bc:	c89f940b          	addigp	s0,-888 # 80488 <g_pm_status_info>
    26c0:	01000793          	li	a5,16
    26c4:	00f40123          	sb	a5,2(s0)
    26c8:	930ff06f          	j	17f8 <main+0x158>
    26cc:	c89f940b          	addigp	s0,-888 # 80488 <g_pm_status_info>
    26d0:	00800793          	li	a5,8
    26d4:	00f40123          	sb	a5,2(s0)
    26d8:	920ff06f          	j	17f8 <main+0x158>
    26dc:	c89f940b          	addigp	s0,-888 # 80488 <g_pm_status_info>
    26e0:	02000793          	li	a5,32
    26e4:	0fd4f593          	andi	a1,s1,253
    26e8:	03900513          	li	a0,57
    26ec:	00f40123          	sb	a5,2(s0)
    26f0:	8a4fe0ef          	jal	ra,794 <analog_write_reg8>
    26f4:	904ff06f          	j	17f8 <main+0x158>

000026f8 <default_irq_entry>:
    26f8:	a001                	c.j	26f8 <default_irq_entry>

000026fa <trap_handler>:
    26fa:	a001                	c.j	26fa <trap_handler>
    26fc:	0001                	c.nop
	...

00002700 <riscv_convolve_wrapper_s8>:
    2700:	7179                	c.addi16sp	sp,-48
    2702:	0105a283          	lw	t0,16(a1)
    2706:	d422                	c.swsp	s0,40(sp)
    2708:	d226                	c.swsp	s1,36(sp)
    270a:	d04a                	c.swsp	s2,32(sp)
    270c:	ce4e                	c.swsp	s3,28(sp)
    270e:	cc52                	c.swsp	s4,24(sp)
    2710:	d606                	c.swsp	ra,44(sp)
    2712:	ca56                	c.swsp	s5,20(sp)
    2714:	c85a                	c.swsp	s6,16(sp)
    2716:	5942                	c.lwsp	s2,48(sp)
    2718:	59d2                	c.lwsp	s3,52(sp)
    271a:	5a62                	c.lwsp	s4,56(sp)
    271c:	832e                	c.mv	t1,a1
    271e:	83aa                	c.mv	t2,a0
    2720:	8432                	c.mv	s0,a2
    2722:	8e36                	c.mv	t3,a3
    2724:	84ba                	c.mv	s1,a4
    2726:	8ebe                	c.mv	t4,a5
    2728:	8f42                	c.mv	t5,a6
    272a:	8fc6                	c.mv	t6,a7
    272c:	00029663          	bnez	t0,2738 <riscv_convolve_wrapper_s8+0x38>
    2730:	0145a283          	lw	t0,20(a1)
    2734:	04028863          	beqz	t0,2784 <riscv_convolve_wrapper_s8+0x84>
    2738:	004e2783          	lw	a5,4(t3)
    273c:	00100713          	li	a4,1
    2740:	00e79a63          	bne	a5,a4,2754 <riscv_convolve_wrapper_s8+0x54>
    2744:	01832703          	lw	a4,24(t1)
    2748:	00f71663          	bne	a4,a5,2754 <riscv_convolve_wrapper_s8+0x54>
    274c:	004ea783          	lw	a5,4(t4)
    2750:	06e78263          	beq	a5,a4,27b4 <riscv_convolve_wrapper_s8+0xb4>
    2754:	8726                	c.mv	a4,s1
    2756:	8622                	c.mv	a2,s0
    2758:	88fe                	c.mv	a7,t6
    275a:	887a                	c.mv	a6,t5
    275c:	87f6                	c.mv	a5,t4
    275e:	86f2                	c.mv	a3,t3
    2760:	851e                	c.mv	a0,t2
    2762:	859a                	c.mv	a1,t1
    2764:	c652                	c.swsp	s4,12(sp)
    2766:	c44e                	c.swsp	s3,8(sp)
    2768:	c04a                	c.swsp	s2,0(sp)
    276a:	c202                	c.swsp	zero,4(sp)
    276c:	428000ef          	jal	ra,2b94 <riscv_convolve_s8>
    2770:	50b2                	c.lwsp	ra,44(sp)
    2772:	5422                	c.lwsp	s0,40(sp)
    2774:	5492                	c.lwsp	s1,36(sp)
    2776:	5902                	c.lwsp	s2,32(sp)
    2778:	49f2                	c.lwsp	s3,28(sp)
    277a:	4a62                	c.lwsp	s4,24(sp)
    277c:	4ad2                	c.lwsp	s5,20(sp)
    277e:	4b42                	c.lwsp	s6,16(sp)
    2780:	6145                	c.addi16sp	sp,48
    2782:	8082                	c.jr	ra
    2784:	0087a283          	lw	t0,8(a5) # 9f008 <__global_pointer$+0x1e808>
    2788:	00100a93          	li	s5,1
    278c:	fb5296e3          	bne	t0,s5,2738 <riscv_convolve_wrapper_s8+0x38>
    2790:	0047aa83          	lw	s5,4(a5)
    2794:	fa5a92e3          	bne	s5,t0,2738 <riscv_convolve_wrapper_s8+0x38>
    2798:	0185a283          	lw	t0,24(a1)
    279c:	fb529ce3          	bne	t0,s5,2754 <riscv_convolve_wrapper_s8+0x54>
    27a0:	01c5aa83          	lw	s5,28(a1)
    27a4:	045a8a63          	beq	s5,t0,27f8 <riscv_convolve_wrapper_s8+0xf8>
    27a8:	004e2703          	lw	a4,4(t3)
    27ac:	00100793          	li	a5,1
    27b0:	faf712e3          	bne	a4,a5,2754 <riscv_convolve_wrapper_s8+0x54>
    27b4:	00ce2703          	lw	a4,12(t3)
    27b8:	00832783          	lw	a5,8(t1)
    27bc:	02f707b3          	mul	a5,a4,a5
    27c0:	8b8d                	c.andi	a5,3
    27c2:	fbc9                	c.bnez	a5,2754 <riscv_convolve_wrapper_s8+0x54>
    27c4:	00cea783          	lw	a5,12(t4)
    27c8:	f8f716e3          	bne	a4,a5,2754 <riscv_convolve_wrapper_s8+0x54>
    27cc:	8622                	c.mv	a2,s0
    27ce:	5422                	c.lwsp	s0,40(sp)
    27d0:	dc52                	c.swsp	s4,56(sp)
    27d2:	da4e                	c.swsp	s3,52(sp)
    27d4:	d84a                	c.swsp	s2,48(sp)
    27d6:	50b2                	c.lwsp	ra,44(sp)
    27d8:	5902                	c.lwsp	s2,32(sp)
    27da:	49f2                	c.lwsp	s3,28(sp)
    27dc:	4a62                	c.lwsp	s4,24(sp)
    27de:	4ad2                	c.lwsp	s5,20(sp)
    27e0:	4b42                	c.lwsp	s6,16(sp)
    27e2:	8726                	c.mv	a4,s1
    27e4:	5492                	c.lwsp	s1,36(sp)
    27e6:	88fe                	c.mv	a7,t6
    27e8:	887a                	c.mv	a6,t5
    27ea:	87f6                	c.mv	a5,t4
    27ec:	86f2                	c.mv	a3,t3
    27ee:	859a                	c.mv	a1,t1
    27f0:	851e                	c.mv	a0,t2
    27f2:	6145                	c.addi16sp	sp,48
    27f4:	7c40106f          	j	3fb8 <riscv_convolve_1_x_n_s8>
    27f8:	00c7a283          	lw	t0,12(a5)
    27fc:	00c6ab03          	lw	s6,12(a3)
    2800:	fa5b14e3          	bne	s6,t0,27a8 <riscv_convolve_wrapper_s8+0xa8>
    2804:	0085a283          	lw	t0,8(a1)
    2808:	01529663          	bne	t0,s5,2814 <riscv_convolve_wrapper_s8+0x114>
    280c:	00c5aa83          	lw	s5,12(a1)
    2810:	025a8863          	beq	s5,t0,2840 <riscv_convolve_wrapper_s8+0x140>
    2814:	8622                	c.mv	a2,s0
    2816:	5422                	c.lwsp	s0,40(sp)
    2818:	dc52                	c.swsp	s4,56(sp)
    281a:	da4e                	c.swsp	s3,52(sp)
    281c:	d84a                	c.swsp	s2,48(sp)
    281e:	50b2                	c.lwsp	ra,44(sp)
    2820:	5902                	c.lwsp	s2,32(sp)
    2822:	49f2                	c.lwsp	s3,28(sp)
    2824:	4a62                	c.lwsp	s4,24(sp)
    2826:	4ad2                	c.lwsp	s5,20(sp)
    2828:	4b42                	c.lwsp	s6,16(sp)
    282a:	8726                	c.mv	a4,s1
    282c:	5492                	c.lwsp	s1,36(sp)
    282e:	88fe                	c.mv	a7,t6
    2830:	887a                	c.mv	a6,t5
    2832:	87f6                	c.mv	a5,t4
    2834:	86f2                	c.mv	a3,t3
    2836:	859a                	c.mv	a1,t1
    2838:	851e                	c.mv	a0,t2
    283a:	6145                	c.addi16sp	sp,48
    283c:	5800106f          	j	3dbc <riscv_convolve_1x1_s8>
    2840:	5422                	c.lwsp	s0,40(sp)
    2842:	50b2                	c.lwsp	ra,44(sp)
    2844:	5492                	c.lwsp	s1,36(sp)
    2846:	5902                	c.lwsp	s2,32(sp)
    2848:	49f2                	c.lwsp	s3,28(sp)
    284a:	4a62                	c.lwsp	s4,24(sp)
    284c:	4ad2                	c.lwsp	s5,20(sp)
    284e:	4b42                	c.lwsp	s6,16(sp)
    2850:	6145                	c.addi16sp	sp,48
    2852:	a009                	c.j	2854 <riscv_convolve_1x1_s8_fast>

00002854 <riscv_convolve_1x1_s8_fast>:
    2854:	7171                	c.addi16sp	sp,-176
    2856:	d326                	c.swsp	s1,164(sp)
    2858:	84ae                	c.mv	s1,a1
    285a:	498c                	c.lw	a1,16(a1)
    285c:	d706                	c.swsp	ra,172(sp)
    285e:	d522                	c.swsp	s0,168(sp)
    2860:	d14a                	c.swsp	s2,160(sp)
    2862:	cf4e                	c.swsp	s3,156(sp)
    2864:	cd52                	c.swsp	s4,152(sp)
    2866:	cb56                	c.swsp	s5,148(sp)
    2868:	c95a                	c.swsp	s6,144(sp)
    286a:	c75e                	c.swsp	s7,140(sp)
    286c:	c562                	c.swsp	s8,136(sp)
    286e:	c366                	c.swsp	s9,132(sp)
    2870:	c16a                	c.swsp	s10,128(sp)
    2872:	deee                	c.swsp	s11,124(sp)
    2874:	dc42                	c.swsp	a6,56(sp)
    2876:	30059b63          	bnez	a1,2b8c <riscv_convolve_1x1_s8_fast+0x338>
    287a:	0144aa83          	lw	s5,20(s1)
    287e:	300a9763          	bnez	s5,2b8c <riscv_convolve_1x1_s8_fast+0x338>
    2882:	8d3a                	c.mv	s10,a4
    2884:	4498                	c.lw	a4,8(s1)
    2886:	87b6                	c.mv	a5,a3
    2888:	4685                	c.li	a3,1
    288a:	30d71163          	bne	a4,a3,2b8c <riscv_convolve_1x1_s8_fast+0x338>
    288e:	44d4                	c.lw	a3,12(s1)
    2890:	2ee69e63          	bne	a3,a4,2b8c <riscv_convolve_1x1_s8_fast+0x338>
    2894:	575a                	c.lwsp	a4,180(sp)
    2896:	4114                	c.lw	a3,0(a0)
    2898:	00c72883          	lw	a7,12(a4) # 9f00c <__global_pointer$+0x1e80c>
    289c:	8b32                	c.mv	s6,a2
    289e:	47c0                	c.lw	s0,12(a5)
    28a0:	4798                	c.lw	a4,8(a5)
    28a2:	43d0                	c.lw	a2,4(a5)
    28a4:	0007a803          	lw	a6,0(a5)
    28a8:	8c36                	c.mv	s8,a3
    28aa:	2a068163          	beqz	a3,2b4c <riscv_convolve_1x1_s8_fast+0x2f8>
    28ae:	028706b3          	mul	a3,a4,s0
    28b2:	c0b6                	c.swsp	a3,64(sp)
    28b4:	56da                	c.lwsp	a3,180(sp)
    28b6:	42cc                	c.lw	a1,4(a3)
    28b8:	0086a903          	lw	s2,8(a3)
    28bc:	11005063          	blez	a6,29bc <riscv_convolve_1x1_s8_fast+0x168>
    28c0:	02b906b3          	mul	a3,s2,a1
    28c4:	d4d6                	c.swsp	s5,104(sp)
    28c6:	00141a13          	slli	s4,s0,0x1
    28ca:	8ac6                	c.mv	s5,a7
    28cc:	4989                	c.li	s3,2
    28ce:	88ea                	c.mv	a7,s10
    28d0:	8d26                	c.mv	s10,s1
    28d2:	84da                	c.mv	s1,s6
    28d4:	c8b6                	c.swsp	a3,80(sp)
    28d6:	c282                	c.swsp	zero,68(sp)
    28d8:	cac2                	c.swsp	a6,84(sp)
    28da:	de2e                	c.swsp	a1,60(sp)
    28dc:	ccaa                	c.swsp	a0,88(sp)
    28de:	cebe                	c.swsp	a5,92(sp)
    28e0:	57f2                	c.lwsp	a5,60(sp)
    28e2:	06f05963          	blez	a5,2954 <riscv_convolve_1x1_s8_fast+0x100>
    28e6:	556a                	c.lwsp	a0,184(sp)
    28e8:	010a9793          	slli	a5,s5,0x10
    28ec:	4b01                	c.li	s6,0
    28ee:	83c1                	c.srli	a5,0x10
    28f0:	c4d6                	c.swsp	s5,72(sp)
    28f2:	8cda                	c.mv	s9,s6
    28f4:	8aaa                	c.mv	s5,a0
    28f6:	8be2                	c.mv	s7,s8
    28f8:	d802                	c.swsp	zero,48(sp)
    28fa:	d446                	c.swsp	a7,40(sp)
    28fc:	da3e                	c.swsp	a5,52(sp)
    28fe:	c6c6                	c.swsp	a7,76(sp)
    2900:	5da2                	c.lwsp	s11,40(sp)
    2902:	4b01                	c.li	s6,0
    2904:	03205263          	blez	s2,2928 <riscv_convolve_1x1_s8_fast+0xd4>
    2908:	000d1683          	lh	a3,0(s10)
    290c:	85de                	c.mv	a1,s7
    290e:	856e                	c.mv	a0,s11
    2910:	8622                	c.mv	a2,s0
    2912:	0c85                	c.addi	s9,1
    2914:	014b8bb3          	add	s7,s7,s4
    2918:	438020ef          	jal	ra,4d50 <riscv_s8_to_s16_unordered_with_offset>
    291c:	073c8263          	beq	s9,s3,2980 <riscv_convolve_1x1_s8_fast+0x12c>
    2920:	0b05                	c.addi	s6,1
    2922:	9da2                	c.add	s11,s0
    2924:	ff6912e3          	bne	s2,s6,2908 <riscv_convolve_1x1_s8_fast+0xb4>
    2928:	080a8863          	beqz	s5,29b8 <riscv_convolve_1x1_s8_fast+0x164>
    292c:	5722                	c.lwsp	a4,40(sp)
    292e:	4686                	c.lwsp	a3,64(sp)
    2930:	57c2                	c.lwsp	a5,48(sp)
    2932:	9736                	c.add	a4,a3
    2934:	0785                	c.addi	a5,1
    2936:	d43a                	c.swsp	a4,40(sp)
    2938:	5772                	c.lwsp	a4,60(sp)
    293a:	d83e                	c.swsp	a5,48(sp)
    293c:	fcf712e3          	bne	a4,a5,2900 <riscv_convolve_1x1_s8_fast+0xac>
    2940:	8556                	c.mv	a0,s5
    2942:	48b6                	c.lwsp	a7,76(sp)
    2944:	04812a83          	lw	s5,72(sp)
    2948:	080c9a63          	bnez	s9,29dc <riscv_convolve_1x1_s8_fast+0x188>
    294c:	47f6                	c.lwsp	a5,92(sp)
    294e:	4798                	c.lw	a4,8(a5)
    2950:	0047a603          	lw	a2,4(a5)
    2954:	57ea                	c.lwsp	a5,184(sp)
    2956:	46c6                	c.lwsp	a3,80(sp)
    2958:	02c705b3          	mul	a1,a4,a2
    295c:	c55697ff          	maddr32	a5,a3,s5
    2960:	46d6                	c.lwsp	a3,84(sp)
    2962:	dd3e                	c.swsp	a5,184(sp)
    2964:	4796                	c.lwsp	a5,68(sp)
    2966:	c48598ff          	maddr32	a7,a1,s0
    296a:	0785                	c.addi	a5,1
    296c:	c2be                	c.swsp	a5,68(sp)
    296e:	22f68163          	beq	a3,a5,2b90 <riscv_convolve_1x1_s8_fast+0x33c>
    2972:	57da                	c.lwsp	a5,180(sp)
    2974:	00c7aa83          	lw	s5,12(a5)
    2978:	47e6                	c.lwsp	a5,88(sp)
    297a:	439c                	c.lw	a5,0(a5)
    297c:	8c3e                	c.mv	s8,a5
    297e:	b78d                	c.j	28e0 <riscv_convolve_1x1_s8_fast+0x8c>
    2980:	024d1883          	lh	a7,36(s10)
    2984:	020d1803          	lh	a6,32(s10)
    2988:	004d2783          	lw	a5,4(s10)
    298c:	4098                	c.lw	a4,0(s1)
    298e:	40d4                	c.lw	a3,4(s1)
    2990:	534a                	c.lwsp	t1,176(sp)
    2992:	5652                	c.lwsp	a2,52(sp)
    2994:	5562                	c.lwsp	a0,56(sp)
    2996:	85e2                	c.mv	a1,s8
    2998:	0b05                	c.addi	s6,1
    299a:	c656                	c.swsp	s5,12(sp)
    299c:	c41a                	c.swsp	t1,8(sp)
    299e:	c222                	c.swsp	s0,4(sp)
    29a0:	c022                	c.swsp	s0,0(sp)
    29a2:	9da2                	c.add	s11,s0
    29a4:	169000ef          	jal	ra,330c <riscv_nn_mat_mult_kernel_s8_s16>
    29a8:	8be2                	c.mv	s7,s8
    29aa:	8aaa                	c.mv	s5,a0
    29ac:	00000c93          	li	s9,0
    29b0:	f5691ce3          	bne	s2,s6,2908 <riscv_convolve_1x1_s8_fast+0xb4>
    29b4:	f60a9ce3          	bnez	s5,292c <riscv_convolve_1x1_s8_fast+0xd8>
    29b8:	ffe00a93          	li	s5,-2
    29bc:	50ba                	c.lwsp	ra,172(sp)
    29be:	542a                	c.lwsp	s0,168(sp)
    29c0:	549a                	c.lwsp	s1,164(sp)
    29c2:	590a                	c.lwsp	s2,160(sp)
    29c4:	49fa                	c.lwsp	s3,156(sp)
    29c6:	4a6a                	c.lwsp	s4,152(sp)
    29c8:	4b4a                	c.lwsp	s6,144(sp)
    29ca:	4bba                	c.lwsp	s7,140(sp)
    29cc:	4c2a                	c.lwsp	s8,136(sp)
    29ce:	4c9a                	c.lwsp	s9,132(sp)
    29d0:	4d0a                	c.lwsp	s10,128(sp)
    29d2:	5df6                	c.lwsp	s11,124(sp)
    29d4:	8556                	c.mv	a0,s5
    29d6:	4ada                	c.lwsp	s5,148(sp)
    29d8:	614d                	c.addi16sp	sp,176
    29da:	8082                	c.jr	ra
    29dc:	f75058e3          	blez	s5,294c <riscv_convolve_1x1_s8_fast+0xf8>
    29e0:	40245713          	srai	a4,s0,0x2
    29e4:	01071b93          	slli	s7,a4,0x10
    29e8:	010bdb93          	srli	s7,s7,0x10
    29ec:	fffb8713          	addi	a4,s7,-1
    29f0:	0742                	c.slli	a4,0x10
    29f2:	00347f93          	andi	t6,s0,3
    29f6:	8341                	c.srli	a4,0x10
    29f8:	0705                	c.addi	a4,1
    29fa:	ffff8593          	addi	a1,t6,-1
    29fe:	01059793          	slli	a5,a1,0x10
    2a02:	00371613          	slli	a2,a4,0x3
    2a06:	83c1                	c.srli	a5,0x10
    2a08:	9662                	c.add	a2,s8
    2a0a:	00271593          	slli	a1,a4,0x2
    2a0e:	da22                	c.swsp	s0,52(sp)
    2a10:	5862                	c.lwsp	a6,56(sp)
    2a12:	8462                	c.mv	s0,s8
    2a14:	534a                	c.lwsp	t1,176(sp)
    2a16:	5c06                	c.lwsp	s8,96(sp)
    2a18:	5c96                	c.lwsp	s9,100(sp)
    2a1a:	01550f33          	add	t5,a0,s5
    2a1e:	d852                	c.swsp	s4,48(sp)
    2a20:	c4d6                	c.swsp	s5,72(sp)
    2a22:	c6ca                	c.swsp	s2,76(sp)
    2a24:	4281                	c.li	t0,0
    2a26:	00178d93          	addi	s11,a5,1
    2a2a:	4b09                	c.li	s6,2
    2a2c:	4381                	c.li	t2,0
    2a2e:	40000e37          	lui	t3,0x40000
    2a32:	4e81                	c.li	t4,0
    2a34:	4685                	c.li	a3,1
    2a36:	8abe                	c.mv	s5,a5
    2a38:	892e                	c.mv	s2,a1
    2a3a:	8a32                	c.mv	s4,a2
    2a3c:	07112623          	sw	a7,108(sp)
    2a40:	4701                	c.li	a4,0
    2a42:	00030563          	beqz	t1,2a4c <riscv_convolve_1x1_s8_fast+0x1f8>
    2a46:	005307b3          	add	a5,t1,t0
    2a4a:	4398                	c.lw	a4,0(a5)
    2a4c:	0e0b8c63          	beqz	s7,2b44 <riscv_convolve_1x1_s8_fast+0x2f0>
    2a50:	012808b3          	add	a7,a6,s2
    2a54:	8622                	c.mv	a2,s0
    2a56:	d472                	c.swsp	t3,40(sp)
    2a58:	03d12623          	sw	t4,44(sp)
    2a5c:	00082783          	lw	a5,0(a6)
    2a60:	8c3e                	c.mv	s8,a5
    2a62:	8cbe                	c.mv	s9,a5
    2a64:	0811                	c.addi	a6,4
    2a66:	de8c05ff          	wexti	a1,s8,8
    2a6a:	ac9585ff          	sunpkd820	a1,a1
    2a6e:	ac9787ff          	sunpkd820	a5,a5
    2a72:	00062e83          	lw	t4,0(a2)
    2a76:	49d7977f          	kmada	a4,a5,t4
    2a7a:	00460793          	addi	a5,a2,4
    2a7e:	439c                	c.lw	a5,0(a5)
    2a80:	0621                	c.addi	a2,8
    2a82:	48f5977f          	kmada	a4,a1,a5
    2a86:	fd181be3          	bne	a6,a7,2a5c <riscv_convolve_1x1_s8_fast+0x208>
    2a8a:	5e22                	c.lwsp	t3,40(sp)
    2a8c:	5eb2                	c.lwsp	t4,44(sp)
    2a8e:	87d2                	c.mv	a5,s4
    2a90:	01100833          	add	a6,zero,a7
    2a94:	020f8a63          	beqz	t6,2ac8 <riscv_convolve_1x1_s8_fast+0x274>
    2a98:	00079583          	lh	a1,0(a5)
    2a9c:	00088603          	lb	a2,0(a7)
    2aa0:	c4c5977f          	maddr32	a4,a1,a2
    2aa4:	020a8063          	beqz	s5,2ac4 <riscv_convolve_1x1_s8_fast+0x270>
    2aa8:	00279583          	lh	a1,2(a5)
    2aac:	00188603          	lb	a2,1(a7)
    2ab0:	c4c5977f          	maddr32	a4,a1,a2
    2ab4:	016f8863          	beq	t6,s6,2ac4 <riscv_convolve_1x1_s8_fast+0x270>
    2ab8:	00288603          	lb	a2,2(a7)
    2abc:	00479783          	lh	a5,4(a5)
    2ac0:	c4f6177f          	maddr32	a4,a2,a5
    2ac4:	01b88833          	add	a6,a7,s11
    2ac8:	40dc                	c.lw	a5,4(s1)
    2aca:	408c                	c.lw	a1,0(s1)
    2acc:	9796                	c.add	a5,t0
    2ace:	4390                	c.lw	a2,0(a5)
    2ad0:	005587b3          	add	a5,a1,t0
    2ad4:	438c                	c.lw	a1,0(a5)
    2ad6:	f27607ff          	maxw	a5,a2,t2
    2ada:	00f718b3          	sll	a7,a4,a5
    2ade:	8772                	c.mv	a4,t3
    2ae0:	87f6                	c.mv	a5,t4
    2ae2:	84b8977f          	smar64	a4,a7,a1
    2ae6:	40c00633          	neg	a2,a2
    2aea:	f276067f          	maxw	a2,a2,t2
    2aee:	00c695b3          	sll	a1,a3,a2
    2af2:	dff7077f          	wexti	a4,a4,31
    2af6:	fff58793          	addi	a5,a1,-1
    2afa:	4017d593          	srai	a1,a5,0x1
    2afe:	00072893          	slti	a7,a4,0
    2b02:	8ff9                	c.and	a5,a4
    2b04:	95c6                	c.add	a1,a7
    2b06:	00f5a7b3          	slt	a5,a1,a5
    2b0a:	40c75733          	sra	a4,a4,a2
    2b0e:	973e                	c.add	a4,a5
    2b10:	004d2783          	lw	a5,4(s10)
    2b14:	020d2603          	lw	a2,32(s10)
    2b18:	024d2583          	lw	a1,36(s10)
    2b1c:	97ba                	c.add	a5,a4
    2b1e:	f2c787ff          	maxw	a5,a5,a2
    2b22:	0505                	c.addi	a0,1
    2b24:	f0b787ff          	minw	a5,a5,a1
    2b28:	fef50fa3          	sb	a5,-1(a0) # 7dfff <BIN_SIZE+0x74069>
    2b2c:	0291                	c.addi	t0,4
    2b2e:	f1e519e3          	bne	a0,t5,2a40 <riscv_convolve_1x1_s8_fast+0x1ec>
    2b32:	5a42                	c.lwsp	s4,48(sp)
    2b34:	5452                	c.lwsp	s0,52(sp)
    2b36:	4aa6                	c.lwsp	s5,72(sp)
    2b38:	4936                	c.lwsp	s2,76(sp)
    2b3a:	58b6                	c.lwsp	a7,108(sp)
    2b3c:	d0e2                	c.swsp	s8,96(sp)
    2b3e:	d2e6                	c.swsp	s9,100(sp)
    2b40:	e0dff06f          	j	294c <riscv_convolve_1x1_s8_fast+0xf8>
    2b44:	87a2                	c.mv	a5,s0
    2b46:	88c2                	c.mv	a7,a6
    2b48:	f49ff06f          	j	2a90 <riscv_convolve_1x1_s8_fast+0x23c>
    2b4c:	02c70733          	mul	a4,a4,a2
    2b50:	0244af03          	lw	t5,36(s1)
    2b54:	0204ae83          	lw	t4,32(s1)
    2b58:	03070833          	mul	a6,a4,a6
    2b5c:	0044ae03          	lw	t3,4(s1)
    2b60:	0004a303          	lw	t1,0(s1)
    2b64:	004b2783          	lw	a5,4(s6) # ffffc004 <_DATA_LMA_START+0xdfff24fc>
    2b68:	000b2703          	lw	a4,0(s6)
    2b6c:	56ea                	c.lwsp	a3,184(sp)
    2b6e:	564a                	c.lwsp	a2,176(sp)
    2b70:	55e2                	c.lwsp	a1,56(sp)
    2b72:	856a                	c.mv	a0,s10
    2b74:	cc22                	c.swsp	s0,24(sp)
    2b76:	ca46                	c.swsp	a7,20(sp)
    2b78:	c87a                	c.swsp	t5,16(sp)
    2b7a:	c676                	c.swsp	t4,12(sp)
    2b7c:	c472                	c.swsp	t3,8(sp)
    2b7e:	c21a                	c.swsp	t1,4(sp)
    2b80:	00812023          	sw	s0,0(sp)
    2b84:	488010ef          	jal	ra,400c <riscv_nn_mat_mult_nt_t_s8>
    2b88:	e35ff06f          	j	29bc <riscv_convolve_1x1_s8_fast+0x168>
    2b8c:	5afd                	c.li	s5,-1
    2b8e:	b53d                	c.j	29bc <riscv_convolve_1x1_s8_fast+0x168>
    2b90:	5aa6                	c.lwsp	s5,104(sp)
    2b92:	b52d                	c.j	29bc <riscv_convolve_1x1_s8_fast+0x168>

00002b94 <riscv_convolve_s8>:
    2b94:	4108                	c.lw	a0,0(a0)
    2b96:	7125                	c.addi16sp	sp,-416
    2b98:	18812c23          	sw	s0,408(sp)
    2b9c:	19512223          	sw	s5,388(sp)
    2ba0:	842a                	c.mv	s0,a0
    2ba2:	d12a                	c.swsp	a0,160(sp)
    2ba4:	18112e23          	sw	ra,412(sp)
    2ba8:	18912a23          	sw	s1,404(sp)
    2bac:	19212823          	sw	s2,400(sp)
    2bb0:	19312623          	sw	s3,396(sp)
    2bb4:	19412423          	sw	s4,392(sp)
    2bb8:	19612023          	sw	s6,384(sp)
    2bbc:	17712e23          	sw	s7,380(sp)
    2bc0:	17812c23          	sw	s8,376(sp)
    2bc4:	17912a23          	sw	s9,372(sp)
    2bc8:	17a12823          	sw	s10,368(sp)
    2bcc:	17b12623          	sw	s11,364(sp)
    2bd0:	d2ba                	c.swsp	a4,100(sp)
    2bd2:	1a412503          	lw	a0,420(sp)
    2bd6:	1a812883          	lw	a7,424(sp)
    2bda:	1ac12a83          	lw	s5,428(sp)
    2bde:	72040563          	beqz	s0,3308 <riscv_convolve_s8+0x774>
    2be2:	00c6ae03          	lw	t3,12(a3)
    2be6:	00c7a303          	lw	t1,12(a5)
    2bea:	010e1e93          	slli	t4,t3,0x10
    2bee:	01031713          	slli	a4,t1,0x10
    2bf2:	010ede93          	srli	t4,t4,0x10
    2bf6:	8341                	c.srli	a4,0x10
    2bf8:	02eed433          	divu	s0,t4,a4
    2bfc:	6741                	c.lui	a4,0x10
    2bfe:	177d                	c.addi	a4,-1
    2c00:	00ee7eb3          	and	t4,t3,a4
    2c04:	0087ae03          	lw	t3,8(a5)
    2c08:	43dc                	c.lw	a5,4(a5)
    2c0a:	00ee74b3          	and	s1,t3,a4
    2c0e:	8ff9                	c.and	a5,a4
    2c10:	d63e                	c.swsp	a5,44(sp)
    2c12:	02f487b3          	mul	a5,s1,a5
    2c16:	00e37bb3          	and	s7,t1,a4
    2c1a:	89c2                	c.mv	s3,a6
    2c1c:	037787b3          	mul	a5,a5,s7
    2c20:	00c8a803          	lw	a6,12(a7)
    2c24:	0006ae03          	lw	t3,0(a3)
    2c28:	dfc2                	c.swsp	a6,252(sp)
    2c2a:	cebe                	c.swsp	a5,92(sp)
    2c2c:	00e87833          	and	a6,a6,a4
    2c30:	469c                	c.lw	a5,8(a3)
    2c32:	42d8                	c.lw	a4,4(a3)
    2c34:	4dd4                	c.lw	a3,28(a1)
    2c36:	0088af03          	lw	t5,8(a7)
    2c3a:	d836                	c.swsp	a3,48(sp)
    2c3c:	41d4                	c.lw	a3,4(a1)
    2c3e:	0048a303          	lw	t1,4(a7)
    2c42:	c3b6                	c.swsp	a3,196(sp)
    2c44:	5194                	c.lw	a3,32(a1)
    2c46:	00062903          	lw	s2,0(a2)
    2c4a:	10d12223          	sw	a3,260(sp)
    2c4e:	51d4                	c.lw	a3,36(a1)
    2c50:	0105af83          	lw	t6,16(a1)
    2c54:	d1b6                	c.swsp	a3,224(sp)
    2c56:	4194                	c.lw	a3,0(a1)
    2c58:	0145a883          	lw	a7,20(a1)
    2c5c:	d3b6                	c.swsp	a3,228(sp)
    2c5e:	0085a383          	lw	t2,8(a1)
    2c62:	00c5a283          	lw	t0,12(a1)
    2c66:	0185ac03          	lw	s8,24(a1)
    2c6a:	dd22                	c.swsp	s0,184(sp)
    2c6c:	d4f6                	c.swsp	t4,104(sp)
    2c6e:	cbc2                	c.swsp	a6,212(sp)
    2c70:	424c                	c.lw	a1,4(a2)
    2c72:	02884633          	div	a2,a6,s0
    2c76:	028ee6b3          	rem	a3,t4,s0
    2c7a:	cfb2                	c.swsp	a2,220(sp)
    2c7c:	68069663          	bnez	a3,3308 <riscv_convolve_s8+0x774>
    2c80:	02886433          	rem	s0,a6,s0
    2c84:	68041263          	bnez	s0,3308 <riscv_convolve_s8+0x774>
    2c88:	66050c63          	beqz	a0,3300 <riscv_convolve_s8+0x76c>
    2c8c:	4150                	c.lw	a2,4(a0)
    2c8e:	4514                	c.lw	a3,8(a0)
    2c90:	1679                	c.addi	a2,-2
    2c92:	16f9                	c.addi	a3,-2
    2c94:	00163613          	seqz	a2,a2
    2c98:	0016b693          	seqz	a3,a3
    2c9c:	c8b2                	c.swsp	a2,80(sp)
    2c9e:	d0b6                	c.swsp	a3,96(sp)
    2ca0:	66c1                	c.lui	a3,0x10
    2ca2:	16fd                	c.addi	a3,-1
    2ca4:	5606                	c.lwsp	a2,96(sp)
    2ca6:	00d7fa33          	and	s4,a5,a3
    2caa:	40ca5633          	sra	a2,s4,a2
    2cae:	47f6                	c.lwsp	a5,92(sp)
    2cb0:	8f75                	c.and	a4,a3
    2cb2:	d332                	c.swsp	a2,164(sp)
    2cb4:	4646                	c.lwsp	a2,80(sp)
    2cb6:	de3a                	c.swsp	a4,60(sp)
    2cb8:	0037f693          	andi	a3,a5,3
    2cbc:	0af12a23          	sw	a5,180(sp)
    2cc0:	40c75733          	sra	a4,a4,a2
    2cc4:	62069a63          	bnez	a3,32f8 <riscv_convolve_s8+0x764>
    2cc8:	5fc05a63          	blez	t3,32bc <riscv_convolve_s8+0x728>
    2ccc:	67c1                	c.lui	a5,0x10
    2cce:	17fd                	c.addi	a5,-1
    2cd0:	4b76                	c.lwsp	s6,92(sp)
    2cd2:	00f8f633          	and	a2,a7,a5
    2cd6:	02ca0533          	mul	a0,s4,a2
    2cda:	c332                	c.swsp	a2,132(sp)
    2cdc:	402b5613          	srai	a2,s6,0x2
    2ce0:	0642                	c.slli	a2,0x10
    2ce2:	8241                	c.srli	a2,0x10
    2ce4:	589a                	c.lwsp	a7,164(sp)
    2ce6:	12c12023          	sw	a2,288(sp)
    2cea:	167d                	c.addi	a2,-1
    2cec:	00ff7f33          	and	t5,t5,a5
    2cf0:	031708b3          	mul	a7,a4,a7
    2cf4:	00f37333          	and	t1,t1,a5
    2cf8:	40a00733          	neg	a4,a0
    2cfc:	00fff533          	and	a0,t6,a5
    2d00:	00f2ffb3          	and	t6,t0,a5
    2d04:	00f3f2b3          	and	t0,t2,a5
    2d08:	01061793          	slli	a5,a2,0x10
    2d0c:	03748cb3          	mul	s9,s1,s7
    2d10:	83c1                	c.srli	a5,0x10
    2d12:	d59a                	c.swsp	t1,232(sp)
    2d14:	d6fa                	c.swsp	t5,108(sp)
    2d16:	03e30333          	mul	t1,t1,t5
    2d1a:	40a70f33          	sub	t5,a4,a0
    2d1e:	00178713          	addi	a4,a5,1 # 10001 <BIN_SIZE+0x606b>
    2d22:	57b2                	c.lwsp	a5,44(sp)
    2d24:	43fe                	c.lwsp	t2,220(sp)
    2d26:	039787b3          	mul	a5,a5,s9
    2d2a:	5ea6                	c.lwsp	t4,104(sp)
    2d2c:	10a12a23          	sw	a0,276(sp)
    2d30:	c1be                	c.swsp	a5,192(sp)
    2d32:	027b07b3          	mul	a5,s6,t2
    2d36:	03da0833          	mul	a6,s4,t4
    2d3a:	03d88633          	mul	a2,a7,t4
    2d3e:	12f12223          	sw	a5,292(sp)
    2d42:	47de                	c.lwsp	a5,212(sp)
    2d44:	038e8b33          	mul	s6,t4,s8
    2d48:	02f30533          	mul	a0,t1,a5
    2d4c:	87c2                	c.mv	a5,a6
    2d4e:	030f8833          	mul	a6,t6,a6
    2d52:	531e                	c.lwsp	t1,228(sp)
    2d54:	03df0f33          	mul	t5,t5,t4
    2d58:	11012423          	sw	a6,264(sp)
    2d5c:	025e8833          	mul	a6,t4,t0
    2d60:	5e8a                	c.lwsp	t4,160(sp)
    2d62:	40600333          	neg	t1,t1
    2d66:	dec2                	c.swsp	a6,124(sp)
    2d68:	5842                	c.lwsp	a6,48(sp)
    2d6a:	fff68893          	addi	a7,a3,-1 # ffff <BIN_SIZE+0x6069>
    2d6e:	02f807b3          	mul	a5,a6,a5
    2d72:	01069d13          	slli	s10,a3,0x10
    2d76:	dc66                	c.swsp	s9,56(sp)
    2d78:	da3e                	c.swsp	a5,52(sp)
    2d7a:	57da                	c.lwsp	a5,180(sp)
    2d7c:	01831c93          	slli	s9,t1,0x18
    2d80:	00179813          	slli	a6,a5,0x1
    2d84:	00371793          	slli	a5,a4,0x3
    2d88:	97f6                	c.add	a5,t4
    2d8a:	070a                	c.slli	a4,0x2
    2d8c:	010d5d13          	srli	s10,s10,0x10
    2d90:	418cdc93          	srai	s9,s9,0x18
    2d94:	12e12423          	sw	a4,296(sp)
    2d98:	12f12623          	sw	a5,300(sp)
    2d9c:	4701                	c.li	a4,0
    2d9e:	01089793          	slli	a5,a7,0x10
    2da2:	00239693          	slli	a3,t2,0x2
    2da6:	83c1                	c.srli	a5,0x10
    2da8:	8de2                	c.mv	s11,s8
    2daa:	83ea                	c.mv	t2,s10
    2dac:	8c26                	c.mv	s8,s1
    2dae:	cf42                	c.swsp	a6,156(sp)
    2db0:	12b12c23          	sw	a1,312(sp)
    2db4:	9876                	c.add	a6,t4
    2db6:	85d6                	c.mv	a1,s5
    2db8:	84ba                	c.mv	s1,a4
    2dba:	8ada                	c.mv	s5,s6
    2dbc:	8d66                	c.mv	s10,s9
    2dbe:	8b32                	c.mv	s6,a2
    2dc0:	864e                	c.mv	a2,s3
    2dc2:	89d2                	c.mv	s3,s4
    2dc4:	11f12623          	sw	t6,268(sp)
    2dc8:	c116                	c.swsp	t0,128(sp)
    2dca:	df42                	c.swsp	a6,188(sp)
    2dcc:	10d12023          	sw	a3,256(sp)
    2dd0:	10f12823          	sw	a5,272(sp)
    2dd4:	11212c23          	sw	s2,280(sp)
    2dd8:	12812e23          	sw	s0,316(sp)
    2ddc:	57ea                	c.lwsp	a5,184(sp)
    2dde:	20078d63          	beqz	a5,2ff8 <riscv_convolve_s8+0x464>
    2de2:	13812683          	lw	a3,312(sp)
    2de6:	5796                	c.lwsp	a5,100(sp)
    2de8:	547a                	c.lwsp	s0,188(sp)
    2dea:	d936                	c.swsp	a3,176(sp)
    2dec:	11812683          	lw	a3,280(sp)
    2df0:	01e78733          	add	a4,a5,t5
    2df4:	4781                	c.li	a5,0
    2df6:	5e8a                	c.lwsp	t4,160(sp)
    2df8:	d736                	c.swsp	a3,172(sp)
    2dfa:	d9ba                	c.swsp	a4,240(sp)
    2dfc:	1a012683          	lw	a3,416(sp)
    2e00:	8722                	c.mv	a4,s0
    2e02:	10f12e23          	sw	a5,284(sp)
    2e06:	87d6                	c.mv	a5,s5
    2e08:	846e                	c.mv	s0,s11
    2e0a:	8aa6                	c.mv	s5,s1
    2e0c:	892e                	c.mv	s2,a1
    2e0e:	82b2                	c.mv	t0,a2
    2e10:	881e                	c.mv	a6,t2
    2e12:	8332                	c.mv	t1,a2
    2e14:	84be                	c.mv	s1,a5
    2e16:	8dba                	c.mv	s11,a4
    2e18:	d536                	c.swsp	a3,168(sp)
    2e1a:	ccf6                	c.swsp	t4,88(sp)
    2e1c:	15e12023          	sw	t5,320(sp)
    2e20:	14a12223          	sw	a0,324(sp)
    2e24:	15c12423          	sw	t3,328(sp)
    2e28:	57ae                	c.lwsp	a5,232(sp)
    2e2a:	854a                	c.mv	a0,s2
    2e2c:	48078463          	beqz	a5,32b4 <riscv_convolve_s8+0x720>
    2e30:	10411783          	lh	a5,260(sp)
    2e34:	574e                	c.lwsp	a4,240(sp)
    2e36:	4681                	c.li	a3,0
    2e38:	4601                	c.li	a2,0
    2e3a:	c682                	c.swsp	zero,76(sp)
    2e3c:	c9be                	c.swsp	a5,208(sp)
    2e3e:	15212623          	sw	s2,332(sp)
    2e42:	15512823          	sw	s5,336(sp)
    2e46:	15012a23          	sw	a6,340(sp)
    2e4a:	c796                	c.swsp	t0,204(sp)
    2e4c:	15612c23          	sw	s6,344(sp)
    2e50:	14612e23          	sw	t1,348(sp)
    2e54:	1ab12623          	sw	a1,428(sp)
    2e58:	03a12423          	sw	s10,40(sp)
    2e5c:	57b6                	c.lwsp	a5,108(sp)
    2e5e:	10078763          	beqz	a5,2f6c <riscv_convolve_s8+0x3d8>
    2e62:	47f6                	c.lwsp	a5,92(sp)
    2e64:	c4ba                	c.swsp	a4,72(sp)
    2e66:	40f007b3          	neg	a5,a5
    2e6a:	d8be                	c.swsp	a5,112(sp)
    2e6c:	0e411783          	lh	a5,228(sp)
    2e70:	ca82                	c.swsp	zero,84(sp)
    2e72:	cb2a                	c.swsp	a0,148(sp)
    2e74:	dabe                	c.swsp	a5,116(sp)
    2e76:	11412783          	lw	a5,276(sp)
    2e7a:	dcb2                	c.swsp	a2,120(sp)
    2e7c:	40f007b3          	neg	a5,a5
    2e80:	c0be                	c.swsp	a5,64(sp)
    2e82:	0e011783          	lh	a5,224(sp)
    2e86:	dbb6                	c.swsp	a3,244(sp)
    2e88:	ddba                	c.swsp	a4,248(sp)
    2e8a:	c5be                	c.swsp	a5,200(sp)
    2e8c:	0fc15783          	lhu	a5,252(sp)
    2e90:	d7be                	c.swsp	a5,236(sp)
    2e92:	0dc15783          	lhu	a5,220(sp)
    2e96:	cdbe                	c.swsp	a5,216(sp)
    2e98:	4746                	c.lwsp	a4,80(sp)
    2e9a:	4785                	c.li	a5,1
    2e9c:	1af70263          	beq	a4,a5,3040 <riscv_convolve_s8+0x4ac>
    2ea0:	5706                	c.lwsp	a4,96(sp)
    2ea2:	18f70f63          	beq	a4,a5,3040 <riscv_convolve_s8+0x4ac>
    2ea6:	57b2                	c.lwsp	a5,44(sp)
    2ea8:	cfa5                	c.beqz	a5,2f20 <riscv_convolve_s8+0x38c>
    2eaa:	57e6                	c.lwsp	a5,120(sp)
    2eac:	471a                	c.lwsp	a4,132(sp)
    2eae:	4d01                	c.li	s10,0
    2eb0:	40e78b33          	sub	s6,a5,a4
    2eb4:	876e                	c.mv	a4,s11
    2eb6:	47a6                	c.lwsp	a5,72(sp)
    2eb8:	8dea                	c.mv	s11,s10
    2eba:	8d3a                	c.mv	s10,a4
    2ebc:	040c0863          	beqz	s8,2f0c <riscv_convolve_s8+0x378>
    2ec0:	5772                	c.lwsp	a4,60(sp)
    2ec2:	14eb7563          	bgeu	s6,a4,300c <riscv_convolve_s8+0x478>
    2ec6:	4c81                	c.li	s9,0
    2ec8:	c2da                	c.swsp	s6,68(sp)
    2eca:	4906                	c.lwsp	s2,64(sp)
    2ecc:	8b66                	c.mv	s6,s9
    2ece:	8a3e                	c.mv	s4,a5
    2ed0:	8aea                	c.mv	s5,s10
    2ed2:	8cbe                	c.mv	s9,a5
    2ed4:	0140006f          	j	2ee8 <riscv_convolve_s8+0x354>
    2ed8:	0b05                	c.addi	s6,1
    2eda:	9ade                	c.add	s5,s7
    2edc:	9922                	c.add	s2,s0
    2ede:	9a26                	c.add	s4,s1
    2ee0:	373050ef          	jal	ra,8a52 <memset>
    2ee4:	036c0063          	beq	s8,s6,2f04 <riscv_convolve_s8+0x370>
    2ee8:	55a2                	c.lwsp	a1,40(sp)
    2eea:	865e                	c.mv	a2,s7
    2eec:	8556                	c.mv	a0,s5
    2eee:	ff3975e3          	bgeu	s2,s3,2ed8 <riscv_convolve_s8+0x344>
    2ef2:	85d2                	c.mv	a1,s4
    2ef4:	0b05                	c.addi	s6,1
    2ef6:	9ade                	c.add	s5,s7
    2ef8:	9922                	c.add	s2,s0
    2efa:	9a26                	c.add	s4,s1
    2efc:	25d050ef          	jal	ra,8958 <memcpy>
    2f00:	ff6c14e3          	bne	s8,s6,2ee8 <riscv_convolve_s8+0x354>
    2f04:	5762                	c.lwsp	a4,56(sp)
    2f06:	4b16                	c.lwsp	s6,68(sp)
    2f08:	87e6                	c.mv	a5,s9
    2f0a:	9d3a                	c.add	s10,a4
    2f0c:	5752                	c.lwsp	a4,52(sp)
    2f0e:	0d85                	c.addi	s11,1
    2f10:	97ba                	c.add	a5,a4
    2f12:	5742                	c.lwsp	a4,48(sp)
    2f14:	9b3a                	c.add	s6,a4
    2f16:	5732                	c.lwsp	a4,44(sp)
    2f18:	fbb712e3          	bne	a4,s11,2ebc <riscv_convolve_s8+0x328>
    2f1c:	01a00db3          	add	s11,zero,s10
    2f20:	57c6                	c.lwsp	a5,112(sp)
    2f22:	4966                	c.lwsp	s2,88(sp)
    2f24:	56d6                	c.lwsp	a3,116(sp)
    2f26:	4676                	c.lwsp	a2,92(sp)
    2f28:	00fd8533          	add	a0,s11,a5
    2f2c:	012005b3          	add	a1,zero,s2
    2f30:	621010ef          	jal	ra,4d50 <riscv_s8_to_s16_unordered_with_offset>
    2f34:	47b6                	c.lwsp	a5,76(sp)
    2f36:	0785                	c.addi	a5,1
    2f38:	873e                	c.mv	a4,a5
    2f3a:	c6be                	c.swsp	a5,76(sp)
    2f3c:	4789                	c.li	a5,2
    2f3e:	1cf70763          	beq	a4,a5,310c <riscv_convolve_s8+0x578>
    2f42:	47fa                	c.lwsp	a5,156(sp)
    2f44:	97ca                	c.add	a5,s2
    2f46:	ccbe                	c.swsp	a5,88(sp)
    2f48:	4726                	c.lwsp	a4,72(sp)
    2f4a:	56f6                	c.lwsp	a3,124(sp)
    2f4c:	47d6                	c.lwsp	a5,84(sp)
    2f4e:	9736                	c.add	a4,a3
    2f50:	c4ba                	c.swsp	a4,72(sp)
    2f52:	468a                	c.lwsp	a3,128(sp)
    2f54:	4706                	c.lwsp	a4,64(sp)
    2f56:	0785                	c.addi	a5,1
    2f58:	9736                	c.add	a4,a3
    2f5a:	c0ba                	c.swsp	a4,64(sp)
    2f5c:	5736                	c.lwsp	a4,108(sp)
    2f5e:	cabe                	c.swsp	a5,84(sp)
    2f60:	f2e79ce3          	bne	a5,a4,2e98 <riscv_convolve_s8+0x304>
    2f64:	455a                	c.lwsp	a0,148(sp)
    2f66:	5666                	c.lwsp	a2,120(sp)
    2f68:	56de                	c.lwsp	a3,244(sp)
    2f6a:	576e                	c.lwsp	a4,248(sp)
    2f6c:	10812783          	lw	a5,264(sp)
    2f70:	0685                	c.addi	a3,1
    2f72:	973e                	c.add	a4,a5
    2f74:	10c12783          	lw	a5,268(sp)
    2f78:	963e                	c.add	a2,a5
    2f7a:	57ae                	c.lwsp	a5,232(sp)
    2f7c:	eef690e3          	bne	a3,a5,2e5c <riscv_convolve_s8+0x2c8>
    2f80:	14c12903          	lw	s2,332(sp)
    2f84:	15012a83          	lw	s5,336(sp)
    2f88:	15412803          	lw	a6,340(sp)
    2f8c:	42be                	c.lwsp	t0,204(sp)
    2f8e:	15812b03          	lw	s6,344(sp)
    2f92:	15c12303          	lw	t1,348(sp)
    2f96:	1ac12583          	lw	a1,428(sp)
    2f9a:	5d22                	c.lwsp	s10,40(sp)
    2f9c:	30050e63          	beqz	a0,32b8 <riscv_convolve_s8+0x724>
    2fa0:	04c12783          	lw	a5,76(sp)
    2fa4:	1c079863          	bnez	a5,3174 <riscv_convolve_s8+0x5e0>
    2fa8:	11c12783          	lw	a5,284(sp)
    2fac:	56aa                	c.lwsp	a3,168(sp)
    2fae:	00178713          	addi	a4,a5,1
    2fb2:	12412783          	lw	a5,292(sp)
    2fb6:	10e12e23          	sw	a4,284(sp)
    2fba:	92be                	c.add	t0,a5
    2fbc:	10012783          	lw	a5,256(sp)
    2fc0:	96be                	c.add	a3,a5
    2fc2:	d536                	c.swsp	a3,168(sp)
    2fc4:	56ba                	c.lwsp	a3,172(sp)
    2fc6:	96be                	c.add	a3,a5
    2fc8:	d736                	c.swsp	a3,172(sp)
    2fca:	56ca                	c.lwsp	a3,176(sp)
    2fcc:	97b6                	c.add	a5,a3
    2fce:	d93e                	c.swsp	a5,176(sp)
    2fd0:	47fe                	c.lwsp	a5,220(sp)
    2fd2:	993e                	c.add	s2,a5
    2fd4:	57ce                	c.lwsp	a5,240(sp)
    2fd6:	97de                	c.add	a5,s7
    2fd8:	d9be                	c.swsp	a5,240(sp)
    2fda:	57ea                	c.lwsp	a5,184(sp)
    2fdc:	e4e796e3          	bne	a5,a4,2e28 <riscv_convolve_s8+0x294>
    2fe0:	87a6                	c.mv	a5,s1
    2fe2:	14012f03          	lw	t5,320(sp)
    2fe6:	14412503          	lw	a0,324(sp)
    2fea:	14812e03          	lw	t3,328(sp)
    2fee:	84d6                	c.mv	s1,s5
    2ff0:	8da2                	c.mv	s11,s0
    2ff2:	83c2                	c.mv	t2,a6
    2ff4:	861a                	c.mv	a2,t1
    2ff6:	8abe                	c.mv	s5,a5
    2ff8:	5796                	c.lwsp	a5,100(sp)
    2ffa:	0485                	c.addi	s1,1
    2ffc:	97da                	c.add	a5,s6
    2ffe:	d2be                	c.swsp	a5,100(sp)
    3000:	95aa                	c.add	a1,a0
    3002:	dc9e1de3          	bne	t3,s1,2ddc <riscv_convolve_s8+0x248>
    3006:	13c12403          	lw	s0,316(sp)
    300a:	ac4d                	c.j	32bc <riscv_convolve_s8+0x728>
    300c:	5922                	c.lwsp	s2,40(sp)
    300e:	4c81                	c.li	s9,0
    3010:	8aea                	c.mv	s5,s10
    3012:	8a3e                	c.mv	s4,a5
    3014:	8556                	c.mv	a0,s5
    3016:	0c85                	c.addi	s9,1
    3018:	865e                	c.mv	a2,s7
    301a:	85ca                	c.mv	a1,s2
    301c:	017a8ab3          	add	s5,s5,s7
    3020:	233050ef          	jal	ra,8a52 <memset>
    3024:	ff9c18e3          	bne	s8,s9,3014 <riscv_convolve_s8+0x480>
    3028:	5762                	c.lwsp	a4,56(sp)
    302a:	87d2                	c.mv	a5,s4
    302c:	9d3a                	c.add	s10,a4
    302e:	5752                	c.lwsp	a4,52(sp)
    3030:	0d85                	c.addi	s11,1
    3032:	97ba                	c.add	a5,a4
    3034:	5742                	c.lwsp	a4,48(sp)
    3036:	9b3a                	c.add	s6,a4
    3038:	5732                	c.lwsp	a4,44(sp)
    303a:	e9b711e3          	bne	a4,s11,2ebc <riscv_convolve_s8+0x328>
    303e:	bdf9                	c.j	2f1c <riscv_convolve_s8+0x388>
    3040:	460e                	c.lwsp	a2,192(sp)
    3042:	55a2                	c.lwsp	a1,40(sp)
    3044:	01b00533          	add	a0,zero,s11
    3048:	20b050ef          	jal	ra,8a52 <memset>
    304c:	5632                	c.lwsp	a2,44(sp)
    304e:	ec0609e3          	beqz	a2,2f20 <riscv_convolve_s8+0x38c>
    3052:	471a                	c.lwsp	a4,132(sp)
    3054:	57e6                	c.lwsp	a5,120(sp)
    3056:	8d62                	c.mv	s10,s8
    3058:	8f99                	c.sub	a5,a4
    305a:	4701                	c.li	a4,0
    305c:	8c22                	c.mv	s8,s0
    305e:	8cba                	c.mv	s9,a4
    3060:	844e                	c.mv	s0,s3
    3062:	55f2                	c.lwsp	a1,60(sp)
    3064:	59e2                	c.lwsp	s3,56(sp)
    3066:	5742                	c.lwsp	a4,48(sp)
    3068:	8abe                	c.mv	s5,a5
    306a:	cd26                	c.swsp	s1,152(sp)
    306c:	00bafa63          	bgeu	s5,a1,3080 <riscv_convolve_s8+0x4ec>
    3070:	001af793          	andi	a5,s5,1
    3074:	c395                	c.beqz	a5,3098 <riscv_convolve_s8+0x504>
    3076:	47c6                	c.lwsp	a5,80(sp)
    3078:	00100693          	li	a3,1
    307c:	00d79e63          	bne	a5,a3,3098 <riscv_convolve_s8+0x504>
    3080:	013d8db3          	add	s11,s11,s3
    3084:	0c85                	c.addi	s9,1
    3086:	9aba                	c.add	s5,a4
    3088:	ff9612e3          	bne	a2,s9,306c <riscv_convolve_s8+0x4d8>
    308c:	89a2                	c.mv	s3,s0
    308e:	44ea                	c.lwsp	s1,152(sp)
    3090:	8462                	c.mv	s0,s8
    3092:	8c6a                	c.mv	s8,s10
    3094:	e8dff06f          	j	2f20 <riscv_convolve_s8+0x38c>
    3098:	47c6                	c.lwsp	a5,80(sp)
    309a:	40fad333          	sra	t1,s5,a5
    309e:	fe0d03e3          	beqz	s10,3084 <riscv_convolve_s8+0x4f0>
    30a2:	579a                	c.lwsp	a5,164(sp)
    30a4:	4906                	c.lwsp	s2,64(sp)
    30a6:	02f304b3          	mul	s1,t1,a5
    30aa:	87d6                	c.mv	a5,s5
    30ac:	c2ce                	c.swsp	s3,68(sp)
    30ae:	8b26                	c.mv	s6,s1
    30b0:	5486                	c.lwsp	s1,96(sp)
    30b2:	89ea                	c.mv	s3,s10
    30b4:	8ade                	c.mv	s5,s7
    30b6:	4a01                	c.li	s4,0
    30b8:	8ba2                	c.mv	s7,s0
    30ba:	8d6e                	c.mv	s10,s11
    30bc:	8462                	c.mv	s0,s8
    30be:	8c3e                	c.mv	s8,a5
    30c0:	c53a                	c.swsp	a4,136(sp)
    30c2:	c732                	c.swsp	a2,140(sp)
    30c4:	08b12823          	sw	a1,144(sp)
    30c8:	0a05                	c.addi	s4,1
    30ca:	00197713          	andi	a4,s2,1
    30ce:	01797f63          	bgeu	s2,s7,30ec <riscv_convolve_s8+0x558>
    30d2:	5596                	c.lwsp	a1,100(sp)
    30d4:	57a6                	c.lwsp	a5,104(sp)
    30d6:	409956b3          	sra	a3,s2,s1
    30da:	96da                	c.add	a3,s6
    30dc:	c4f695ff          	maddr32	a1,a3,a5
    30e0:	856a                	c.mv	a0,s10
    30e2:	8656                	c.mv	a2,s5
    30e4:	c311                	c.beqz	a4,30e8 <riscv_convolve_s8+0x554>
    30e6:	e099                	c.bnez	s1,30ec <riscv_convolve_s8+0x558>
    30e8:	071050ef          	jal	ra,8958 <memcpy>
    30ec:	9d56                	c.add	s10,s5
    30ee:	9922                	c.add	s2,s0
    30f0:	fd499ce3          	bne	s3,s4,30c8 <riscv_convolve_s8+0x534>
    30f4:	87e2                	c.mv	a5,s8
    30f6:	8d4e                	c.mv	s10,s3
    30f8:	8c22                	c.mv	s8,s0
    30fa:	472a                	c.lwsp	a4,136(sp)
    30fc:	845e                	c.mv	s0,s7
    30fe:	4996                	c.lwsp	s3,68(sp)
    3100:	8bd6                	c.mv	s7,s5
    3102:	463a                	c.lwsp	a2,140(sp)
    3104:	45ca                	c.lwsp	a1,144(sp)
    3106:	8abe                	c.mv	s5,a5
    3108:	f79ff06f          	j	3080 <riscv_convolve_s8+0x4ec>
    310c:	57ea                	c.lwsp	a5,184(sp)
    310e:	4705                	c.li	a4,1
    3110:	48ae                	c.lwsp	a7,200(sp)
    3112:	484e                	c.lwsp	a6,208(sp)
    3114:	02e78a63          	beq	a5,a4,3148 <riscv_convolve_s8+0x5b4>
    3118:	435a                	c.lwsp	t1,148(sp)
    311a:	590a                	c.lwsp	s2,160(sp)
    311c:	c81a                	c.swsp	t1,16(sp)
    311e:	435e                	c.lwsp	t1,212(sp)
    3120:	479e                	c.lwsp	a5,196(sp)
    3122:	c61a                	c.swsp	t1,12(sp)
    3124:	532a                	c.lwsp	t1,168(sp)
    3126:	573a                	c.lwsp	a4,172(sp)
    3128:	c41a                	c.swsp	t1,8(sp)
    312a:	535a                	c.lwsp	t1,180(sp)
    312c:	56ca                	c.lwsp	a3,176(sp)
    312e:	c21a                	c.swsp	t1,4(sp)
    3130:	466e                	c.lwsp	a2,216(sp)
    3132:	4376                	c.lwsp	t1,92(sp)
    3134:	453e                	c.lwsp	a0,204(sp)
    3136:	85ca                	c.mv	a1,s2
    3138:	c01a                	c.swsp	t1,0(sp)
    313a:	c682                	c.swsp	zero,76(sp)
    313c:	79c000ef          	jal	ra,38d8 <riscv_nn_mat_mult_kernel_row_offset_s8_s16>
    3140:	5dfa                	c.lwsp	s11,188(sp)
    3142:	cb2a                	c.swsp	a0,148(sp)
    3144:	ccca                	c.swsp	s2,88(sp)
    3146:	b509                	c.j	2f48 <riscv_convolve_s8+0x3b4>
    3148:	435a                	c.lwsp	t1,148(sp)
    314a:	590a                	c.lwsp	s2,160(sp)
    314c:	c61a                	c.swsp	t1,12(sp)
    314e:	532a                	c.lwsp	t1,168(sp)
    3150:	479e                	c.lwsp	a5,196(sp)
    3152:	c41a                	c.swsp	t1,8(sp)
    3154:	535a                	c.lwsp	t1,180(sp)
    3156:	573a                	c.lwsp	a4,172(sp)
    3158:	c21a                	c.swsp	t1,4(sp)
    315a:	56ca                	c.lwsp	a3,176(sp)
    315c:	4376                	c.lwsp	t1,92(sp)
    315e:	563e                	c.lwsp	a2,236(sp)
    3160:	453e                	c.lwsp	a0,204(sp)
    3162:	85ca                	c.mv	a1,s2
    3164:	c01a                	c.swsp	t1,0(sp)
    3166:	c682                	c.swsp	zero,76(sp)
    3168:	1a4000ef          	jal	ra,330c <riscv_nn_mat_mult_kernel_s8_s16>
    316c:	5dfa                	c.lwsp	s11,188(sp)
    316e:	cb2a                	c.swsp	a0,148(sp)
    3170:	ccca                	c.swsp	s2,88(sp)
    3172:	bbd9                	c.j	2f48 <riscv_convolve_s8+0x3b4>
    3174:	47fe                	c.lwsp	a5,220(sp)
    3176:	12078763          	beqz	a5,32a4 <riscv_convolve_s8+0x710>
    317a:	11012783          	lw	a5,272(sp)
    317e:	8cce                	c.mv	s9,s3
    3180:	d44a                	c.swsp	s2,40(sp)
    3182:	13412983          	lw	s3,308(sp)
    3186:	13012903          	lw	s2,304(sp)
    318a:	8696                	c.mv	a3,t0
    318c:	4881                	c.li	a7,0
    318e:	00178e13          	addi	t3,a5,1
    3192:	4f89                	c.li	t6,2
    3194:	4e81                	c.li	t4,0
    3196:	4f05                	c.li	t5,1
    3198:	00800db3          	add	s11,zero,s0
    319c:	57aa                	c.lwsp	a5,168(sp)
    319e:	4601                	c.li	a2,0
    31a0:	c781                	c.beqz	a5,31a8 <riscv_convolve_s8+0x614>
    31a2:	97c6                	c.add	a5,a7
    31a4:	0007a603          	lw	a2,0(a5)
    31a8:	12012783          	lw	a5,288(sp)
    31ac:	10078063          	beqz	a5,32ac <riscv_convolve_s8+0x718>
    31b0:	12812783          	lw	a5,296(sp)
    31b4:	538a                	c.lwsp	t2,160(sp)
    31b6:	97b6                	c.add	a5,a3
    31b8:	1ab12623          	sw	a1,428(sp)
    31bc:	4298                	c.lw	a4,0(a3)
    31be:	893a                	c.mv	s2,a4
    31c0:	89ba                	c.mv	s3,a4
    31c2:	0691                	c.addi	a3,4
    31c4:	de89047f          	wexti	s0,s2,8
    31c8:	ac94047f          	sunpkd820	s0,s0
    31cc:	ac97077f          	sunpkd820	a4,a4
    31d0:	0003a583          	lw	a1,0(t2)
    31d4:	48b7167f          	kmada	a2,a4,a1
    31d8:	00438713          	addi	a4,t2,4
    31dc:	4318                	c.lw	a4,0(a4)
    31de:	03a1                	c.addi	t2,8
    31e0:	48e4167f          	kmada	a2,s0,a4
    31e4:	fcf69ce3          	bne	a3,a5,31bc <riscv_convolve_s8+0x628>
    31e8:	1ac12583          	lw	a1,428(sp)
    31ec:	12c12703          	lw	a4,300(sp)
    31f0:	86be                	c.mv	a3,a5
    31f2:	02080b63          	beqz	a6,3228 <riscv_convolve_s8+0x694>
    31f6:	00078683          	lb	a3,0(a5)
    31fa:	00071383          	lh	t2,0(a4) # 10000 <BIN_SIZE+0x606a>
    31fe:	c4d3967f          	maddr32	a2,t2,a3
    3202:	11012683          	lw	a3,272(sp)
    3206:	ce99                	c.beqz	a3,3224 <riscv_convolve_s8+0x690>
    3208:	00271383          	lh	t2,2(a4)
    320c:	00178683          	lb	a3,1(a5)
    3210:	c4d3967f          	maddr32	a2,t2,a3
    3214:	01f80863          	beq	a6,t6,3224 <riscv_convolve_s8+0x690>
    3218:	00278683          	lb	a3,2(a5)
    321c:	00471703          	lh	a4,4(a4)
    3220:	c4e6967f          	maddr32	a2,a3,a4
    3224:	01c786b3          	add	a3,a5,t3
    3228:	57ca                	c.lwsp	a5,176(sp)
    322a:	40000737          	lui	a4,0x40000
    322e:	97c6                	c.add	a5,a7
    3230:	0007a383          	lw	t2,0(a5)
    3234:	57ba                	c.lwsp	a5,172(sp)
    3236:	0505                	c.addi	a0,1
    3238:	97c6                	c.add	a5,a7
    323a:	4380                	c.lw	s0,0(a5)
    323c:	f3d387ff          	maxw	a5,t2,t4
    3240:	00f61633          	sll	a2,a2,a5
    3244:	4781                	c.li	a5,0
    3246:	8486177f          	smar64	a4,a2,s0
    324a:	40700633          	neg	a2,t2
    324e:	f3d6067f          	maxw	a2,a2,t4
    3252:	00cf13b3          	sll	t2,t5,a2
    3256:	dff7077f          	wexti	a4,a4,31
    325a:	fff38793          	addi	a5,t2,-1
    325e:	4017d393          	srai	t2,a5,0x1
    3262:	00072413          	slti	s0,a4,0
    3266:	8ff9                	c.and	a5,a4
    3268:	93a2                	c.add	t2,s0
    326a:	00f3a7b3          	slt	a5,t2,a5
    326e:	40c75733          	sra	a4,a4,a2
    3272:	973e                	c.add	a4,a5
    3274:	479e                	c.lwsp	a5,196(sp)
    3276:	0891                	c.addi	a7,4
    3278:	97ba                	c.add	a5,a4
    327a:	10412703          	lw	a4,260(sp)
    327e:	f2f707ff          	maxw	a5,a4,a5
    3282:	570e                	c.lwsp	a4,224(sp)
    3284:	f0f707ff          	minw	a5,a4,a5
    3288:	fef50fa3          	sb	a5,-1(a0)
    328c:	10012783          	lw	a5,256(sp)
    3290:	f11796e3          	bne	a5,a7,319c <riscv_convolve_s8+0x608>
    3294:	13212823          	sw	s2,304(sp)
    3298:	5922                	c.lwsp	s2,40(sp)
    329a:	13312a23          	sw	s3,308(sp)
    329e:	846e                	c.mv	s0,s11
    32a0:	019009b3          	add	s3,zero,s9
    32a4:	578a                	c.lwsp	a5,160(sp)
    32a6:	5dfa                	c.lwsp	s11,188(sp)
    32a8:	ccbe                	c.swsp	a5,88(sp)
    32aa:	b9fd                	c.j	2fa8 <riscv_convolve_s8+0x414>
    32ac:	570a                	c.lwsp	a4,160(sp)
    32ae:	87b6                	c.mv	a5,a3
    32b0:	f41ff06f          	j	31f0 <riscv_convolve_s8+0x65c>
    32b4:	ce091ae3          	bnez	s2,2fa8 <riscv_convolve_s8+0x414>
    32b8:	ffe00413          	li	s0,-2
    32bc:	19c12083          	lw	ra,412(sp)
    32c0:	8522                	c.mv	a0,s0
    32c2:	19812403          	lw	s0,408(sp)
    32c6:	19412483          	lw	s1,404(sp)
    32ca:	19012903          	lw	s2,400(sp)
    32ce:	18c12983          	lw	s3,396(sp)
    32d2:	18812a03          	lw	s4,392(sp)
    32d6:	18412a83          	lw	s5,388(sp)
    32da:	18012b03          	lw	s6,384(sp)
    32de:	17c12b83          	lw	s7,380(sp)
    32e2:	17812c03          	lw	s8,376(sp)
    32e6:	17412c83          	lw	s9,372(sp)
    32ea:	17012d03          	lw	s10,368(sp)
    32ee:	16c12d83          	lw	s11,364(sp)
    32f2:	611d                	c.addi16sp	sp,416
    32f4:	00008067          	ret
    32f8:	0791                	c.addi	a5,4
    32fa:	8f95                	c.sub	a5,a3
    32fc:	db3e                	c.swsp	a5,180(sp)
    32fe:	b2e9                	c.j	2cc8 <riscv_convolve_s8+0x134>
    3300:	d082                	c.swsp	zero,96(sp)
    3302:	c882                	c.swsp	zero,80(sp)
    3304:	99dff06f          	j	2ca0 <riscv_convolve_s8+0x10c>
    3308:	547d                	c.li	s0,-1
    330a:	bf4d                	c.j	32bc <riscv_convolve_s8+0x728>

0000330c <riscv_nn_mat_mult_kernel_s8_s16>:
    330c:	7119                	c.addi16sp	sp,-128
    330e:	dea2                	c.swsp	s0,124(sp)
    3310:	443a                	c.lwsp	s0,140(sp)
    3312:	82b2                	c.mv	t0,a2
    3314:	dca6                	c.swsp	s1,120(sp)
    3316:	daca                	c.swsp	s2,116(sp)
    3318:	00165493          	srli	s1,a2,0x1
    331c:	d0de                	c.swsp	s7,96(sp)
    331e:	cee2                	c.swsp	s8,92(sp)
    3320:	caea                	c.swsp	s10,84(sp)
    3322:	c8ee                	c.swsp	s11,80(sp)
    3324:	d8ce                	c.swsp	s3,112(sp)
    3326:	d6d2                	c.swsp	s4,108(sp)
    3328:	d4d6                	c.swsp	s5,104(sp)
    332a:	d2da                	c.swsp	s6,100(sp)
    332c:	cce6                	c.swsp	s9,88(sp)
    332e:	cc2e                	c.swsp	a1,24(sp)
    3330:	491a                	c.lwsp	s2,132(sp)
    3332:	462a                	c.lwsp	a2,136(sp)
    3334:	8fb6                	c.mv	t6,a3
    3336:	8bbe                	c.mv	s7,a5
    3338:	8d42                	c.mv	s10,a6
    333a:	8dc6                	c.mv	s11,a7
    333c:	00540c33          	add	s8,s0,t0
    3340:	48048c63          	beqz	s1,37d8 <riscv_nn_mat_mult_kernel_s8_s16+0x4cc>
    3344:	478a                	c.lwsp	a5,128(sp)
    3346:	882e                	c.mv	a6,a1
    3348:	4027d893          	srai	a7,a5,0x2
    334c:	00191793          	slli	a5,s2,0x1
    3350:	00f58f33          	add	t5,a1,a5
    3354:	00389693          	slli	a3,a7,0x3
    3358:	458a                	c.lwsp	a1,128(sp)
    335a:	d27a                	c.swsp	t5,36(sp)
    335c:	9f36                	c.add	t5,a3
    335e:	96c2                	c.add	a3,a6
    3360:	00149793          	slli	a5,s1,0x1
    3364:	d636                	c.swsp	a3,44(sp)
    3366:	00289693          	slli	a3,a7,0x2
    336a:	898d                	c.andi	a1,3
    336c:	00fc09b3          	add	s3,s8,a5
    3370:	d436                	c.swsp	a3,40(sp)
    3372:	8b3a                	c.mv	s6,a4
    3374:	86a2                	c.mv	a3,s0
    3376:	8a7e                	c.mv	s4,t6
    3378:	4c85                	c.li	s9,1
    337a:	4a81                	c.li	s5,0
    337c:	d046                	c.swsp	a7,32(sp)
    337e:	ce4e                	c.swsp	s3,28(sp)
    3380:	d87a                	c.swsp	t5,48(sp)
    3382:	da26                	c.swsp	s1,52(sp)
    3384:	c42e                	c.swsp	a1,8(sp)
    3386:	dc3e                	c.swsp	a5,56(sp)
    3388:	de16                	c.swsp	t0,60(sp)
    338a:	c0fe                	c.swsp	t6,64(sp)
    338c:	04e12223          	sw	a4,68(sp)
    3390:	478a                	c.lwsp	a5,128(sp)
    3392:	00f509b3          	add	s3,a0,a5
    3396:	42060563          	beqz	a2,37c0 <riscv_nn_mat_mult_kernel_s8_s16+0x4b4>
    339a:	5902                	c.lwsp	s2,32(sp)
    339c:	00062803          	lw	a6,0(a2)
    33a0:	424c                	c.lw	a1,4(a2)
    33a2:	0621                	c.addi	a2,8
    33a4:	42090463          	beqz	s2,37cc <riscv_nn_mat_mult_kernel_s8_s16+0x4c0>
    33a8:	5292                	c.lwsp	t0,36(sp)
    33aa:	4fe2                	c.lwsp	t6,24(sp)
    33ac:	ca6e                	c.swsp	s11,20(sp)
    33ae:	88ae                	c.mv	a7,a1
    33b0:	8dea                	c.mv	s11,s10
    33b2:	8f42                	c.mv	t5,a6
    33b4:	8d5e                	c.mv	s10,s7
    33b6:	84ce                	c.mv	s1,s3
    33b8:	842a                	c.mv	s0,a0
    33ba:	8baa                	c.mv	s7,a0
    33bc:	c636                	c.swsp	a3,12(sp)
    33be:	c862                	c.swsp	s8,16(sp)
    33c0:	08c12423          	sw	a2,136(sp)
    33c4:	000fa503          	lw	a0,0(t6)
    33c8:	0002a603          	lw	a2,0(t0)
    33cc:	4018                	c.lw	a4,0(s0)
    33ce:	833a                	c.mv	t1,a4
    33d0:	83ba                	c.mv	t2,a4
    33d2:	0411                	c.addi	s0,4
    33d4:	de830c7f          	wexti	s8,t1,8
    33d8:	ac9c0c7f          	sunpkd820	s8,s8
    33dc:	ac97077f          	sunpkd820	a4,a4
    33e0:	409c                	c.lw	a5,0(s1)
    33e2:	8e3e                	c.mv	t3,a5
    33e4:	8ebe                	c.mv	t4,a5
    33e6:	0491                	c.addi	s1,4
    33e8:	de8e06ff          	wexti	a3,t3,8
    33ec:	ac9686ff          	sunpkd820	a3,a3
    33f0:	ac9787ff          	sunpkd820	a5,a5
    33f4:	48a7187f          	kmada	a6,a4,a0
    33f8:	48c71f7f          	kmada	t5,a4,a2
    33fc:	48a795ff          	kmada	a1,a5,a0
    3400:	48c798ff          	kmada	a7,a5,a2
    3404:	004f8713          	addi	a4,t6,4
    3408:	4318                	c.lw	a4,0(a4)
    340a:	0fa1                	c.addi	t6,8
    340c:	00428793          	addi	a5,t0,4
    3410:	439c                	c.lw	a5,0(a5)
    3412:	02a1                	c.addi	t0,8
    3414:	48ec187f          	kmada	a6,s8,a4
    3418:	48fc1f7f          	kmada	t5,s8,a5
    341c:	48e695ff          	kmada	a1,a3,a4
    3420:	48f698ff          	kmada	a7,a3,a5
    3424:	197d                	c.addi	s2,-1
    3426:	f8091fe3          	bnez	s2,33c4 <riscv_nn_mat_mult_kernel_s8_s16+0xb8>
    342a:	57a2                	c.lwsp	a5,40(sp)
    342c:	855e                	c.mv	a0,s7
    342e:	99be                	c.add	s3,a5
    3430:	8bea                	c.mv	s7,s10
    3432:	953e                	c.add	a0,a5
    3434:	8d6e                	c.mv	s10,s11
    3436:	46b2                	c.lwsp	a3,12(sp)
    3438:	4c42                	c.lwsp	s8,16(sp)
    343a:	4dd2                	c.lwsp	s11,20(sp)
    343c:	462a                	c.lwsp	a2,136(sp)
    343e:	57c2                	c.lwsp	a5,48(sp)
    3440:	02c12703          	lw	a4,44(sp)
    3444:	4922                	c.lwsp	s2,8(sp)
    3446:	06090963          	beqz	s2,34b8 <riscv_nn_mat_mult_kernel_s8_s16+0x1ac>
    344a:	00050483          	lb	s1,0(a0)
    344e:	00071403          	lh	s0,0(a4) # 40000000 <_DATA_LMA_START+0x1fff64f8>
    3452:	00079f83          	lh	t6,0(a5)
    3456:	00098283          	lb	t0,0(s3)
    345a:	c494187f          	maddr32	a6,s0,s1
    345e:	c49f9f7f          	maddr32	t5,t6,s1
    3462:	c48295ff          	maddr32	a1,t0,s0
    3466:	c5f298ff          	maddr32	a7,t0,t6
    346a:	05990563          	beq	s2,s9,34b4 <riscv_nn_mat_mult_kernel_s8_s16+0x1a8>
    346e:	00271403          	lh	s0,2(a4)
    3472:	00150483          	lb	s1,1(a0)
    3476:	00198283          	lb	t0,1(s3)
    347a:	00279f83          	lh	t6,2(a5)
    347e:	c494187f          	maddr32	a6,s0,s1
    3482:	c48295ff          	maddr32	a1,t0,s0
    3486:	4409                	c.li	s0,2
    3488:	c49f9f7f          	maddr32	t5,t6,s1
    348c:	c5f298ff          	maddr32	a7,t0,t6
    3490:	02890263          	beq	s2,s0,34b4 <riscv_nn_mat_mult_kernel_s8_s16+0x1a8>
    3494:	00250f83          	lb	t6,2(a0)
    3498:	00471703          	lh	a4,4(a4)
    349c:	00479783          	lh	a5,4(a5)
    34a0:	00298283          	lb	t0,2(s3)
    34a4:	c4ef987f          	maddr32	a6,t6,a4
    34a8:	c4ff9f7f          	maddr32	t5,t6,a5
    34ac:	c45715ff          	maddr32	a1,a4,t0
    34b0:	c45798ff          	maddr32	a7,a5,t0
    34b4:	47a2                	c.lwsp	a5,8(sp)
    34b6:	953e                	c.add	a0,a5
    34b8:	000a2f83          	lw	t6,0(s4)
    34bc:	000b2283          	lw	t0,0(s6)
    34c0:	f35f87ff          	maxw	a5,t6,s5
    34c4:	00f81833          	sll	a6,a6,a5
    34c8:	40000737          	lui	a4,0x40000
    34cc:	4781                	c.li	a5,0
    34ce:	8458177f          	smar64	a4,a6,t0
    34d2:	41f00833          	neg	a6,t6
    34d6:	f358087f          	maxw	a6,a6,s5
    34da:	010c9fb3          	sll	t6,s9,a6
    34de:	dff7077f          	wexti	a4,a4,31
    34e2:	ffff8793          	addi	a5,t6,-1
    34e6:	4017df93          	srai	t6,a5,0x1
    34ea:	00072293          	slti	t0,a4,0
    34ee:	8ff9                	c.and	a5,a4
    34f0:	9f96                	c.add	t6,t0
    34f2:	00ffa7b3          	slt	a5,t6,a5
    34f6:	41075733          	sra	a4,a4,a6
    34fa:	973e                	c.add	a4,a5
    34fc:	975e                	c.add	a4,s7
    34fe:	f3a7077f          	maxw	a4,a4,s10
    3502:	f1b7077f          	minw	a4,a4,s11
    3506:	00e68023          	sb	a4,0(a3)
    350a:	000a2803          	lw	a6,0(s4)
    350e:	000b2f83          	lw	t6,0(s6)
    3512:	f35807ff          	maxw	a5,a6,s5
    3516:	00ff1f33          	sll	t5,t5,a5
    351a:	40000737          	lui	a4,0x40000
    351e:	4781                	c.li	a5,0
    3520:	85ff177f          	smar64	a4,t5,t6
    3524:	41000833          	neg	a6,a6
    3528:	f358087f          	maxw	a6,a6,s5
    352c:	010c9f33          	sll	t5,s9,a6
    3530:	dff7077f          	wexti	a4,a4,31
    3534:	ffff0793          	addi	a5,t5,-1
    3538:	4017df13          	srai	t5,a5,0x1
    353c:	00072f93          	slti	t6,a4,0
    3540:	8ff9                	c.and	a5,a4
    3542:	9f7e                	c.add	t5,t6
    3544:	00ff27b3          	slt	a5,t5,a5
    3548:	41075733          	sra	a4,a4,a6
    354c:	973e                	c.add	a4,a5
    354e:	975e                	c.add	a4,s7
    3550:	f3a7077f          	maxw	a4,a4,s10
    3554:	f1b7077f          	minw	a4,a4,s11
    3558:	00ec0023          	sb	a4,0(s8)
    355c:	004a2803          	lw	a6,4(s4)
    3560:	004b2f03          	lw	t5,4(s6)
    3564:	f35807ff          	maxw	a5,a6,s5
    3568:	00f595b3          	sll	a1,a1,a5
    356c:	40000737          	lui	a4,0x40000
    3570:	4781                	c.li	a5,0
    3572:	85e5977f          	smar64	a4,a1,t5
    3576:	410005b3          	neg	a1,a6
    357a:	f35585ff          	maxw	a1,a1,s5
    357e:	00bc9833          	sll	a6,s9,a1
    3582:	dff7077f          	wexti	a4,a4,31
    3586:	fff80793          	addi	a5,a6,-1
    358a:	00072f13          	slti	t5,a4,0
    358e:	4017d813          	srai	a6,a5,0x1
    3592:	987a                	c.add	a6,t5
    3594:	8ff9                	c.and	a5,a4
    3596:	00f827b3          	slt	a5,a6,a5
    359a:	40b75733          	sra	a4,a4,a1
    359e:	973e                	c.add	a4,a5
    35a0:	975e                	c.add	a4,s7
    35a2:	f3a7077f          	maxw	a4,a4,s10
    35a6:	f1b7077f          	minw	a4,a4,s11
    35aa:	00e680a3          	sb	a4,1(a3)
    35ae:	004a2583          	lw	a1,4(s4)
    35b2:	004b2f03          	lw	t5,4(s6)
    35b6:	f355887f          	maxw	a6,a1,s5
    35ba:	01089833          	sll	a6,a7,a6
    35be:	40000737          	lui	a4,0x40000
    35c2:	4781                	c.li	a5,0
    35c4:	85e8177f          	smar64	a4,a6,t5
    35c8:	40b005b3          	neg	a1,a1
    35cc:	f35585ff          	maxw	a1,a1,s5
    35d0:	00bc9833          	sll	a6,s9,a1
    35d4:	dff7077f          	wexti	a4,a4,31
    35d8:	fff80793          	addi	a5,a6,-1
    35dc:	4017d813          	srai	a6,a5,0x1
    35e0:	00072893          	slti	a7,a4,0
    35e4:	8ff9                	c.and	a5,a4
    35e6:	9846                	c.add	a6,a7
    35e8:	00f827b3          	slt	a5,a6,a5
    35ec:	40b75733          	sra	a4,a4,a1
    35f0:	973e                	c.add	a4,a5
    35f2:	975e                	c.add	a4,s7
    35f4:	478a                	c.lwsp	a5,128(sp)
    35f6:	f3a7077f          	maxw	a4,a4,s10
    35fa:	0c09                	c.addi	s8,2
    35fc:	f1b7077f          	minw	a4,a4,s11
    3600:	953e                	c.add	a0,a5
    3602:	47f2                	c.lwsp	a5,28(sp)
    3604:	feec0fa3          	sb	a4,-1(s8)
    3608:	0689                	c.addi	a3,2
    360a:	0b21                	c.addi	s6,8
    360c:	0a21                	c.addi	s4,8
    360e:	d8fc11e3          	bne	s8,a5,3390 <riscv_nn_mat_mult_kernel_s8_s16+0x84>
    3612:	54d2                	c.lwsp	s1,52(sp)
    3614:	57e2                	c.lwsp	a5,56(sp)
    3616:	4f86                	c.lwsp	t6,64(sp)
    3618:	4716                	c.lwsp	a4,68(sp)
    361a:	443a                	c.lwsp	s0,140(sp)
    361c:	048e                	c.slli	s1,0x3
    361e:	52f2                	c.lwsp	t0,60(sp)
    3620:	491a                	c.lwsp	s2,132(sp)
    3622:	943e                	c.add	s0,a5
    3624:	9726                	c.add	a4,s1
    3626:	9fa6                	c.add	t6,s1
    3628:	0012f793          	andi	a5,t0,1
    362c:	16078a63          	beqz	a5,37a0 <riscv_nn_mat_mult_kernel_s8_s16+0x494>
    3630:	47e2                	c.lwsp	a5,24(sp)
    3632:	00191e93          	slli	t4,s2,0x1
    3636:	9ebe                	c.add	t4,a5
    3638:	4681                	c.li	a3,0
    363a:	c219                	c.beqz	a2,3640 <riscv_nn_mat_mult_kernel_s8_s16+0x334>
    363c:	00062683          	lw	a3,0(a2)
    3640:	478a                	c.lwsp	a5,128(sp)
    3642:	4027d393          	srai	t2,a5,0x2
    3646:	18038b63          	beqz	t2,37dc <riscv_nn_mat_mult_kernel_s8_s16+0x4d0>
    364a:	4862                	c.lwsp	a6,24(sp)
    364c:	88f6                	c.mv	a7,t4
    364e:	8f1e                	c.mv	t5,t2
    3650:	85b6                	c.mv	a1,a3
    3652:	8e2a                	c.mv	t3,a0
    3654:	00082483          	lw	s1,0(a6)
    3658:	0008a303          	lw	t1,0(a7)
    365c:	000e2783          	lw	a5,0(t3) # 40000000 <_DATA_LMA_START+0x1fff64f8>
    3660:	893e                	c.mv	s2,a5
    3662:	89be                	c.mv	s3,a5
    3664:	0e11                	c.addi	t3,4
    3666:	de89067f          	wexti	a2,s2,8
    366a:	ac96067f          	sunpkd820	a2,a2
    366e:	ac9787ff          	sunpkd820	a5,a5
    3672:	489796ff          	kmada	a3,a5,s1
    3676:	486795ff          	kmada	a1,a5,t1
    367a:	00480313          	addi	t1,a6,4
    367e:	00032303          	lw	t1,0(t1)
    3682:	0821                	c.addi	a6,8
    3684:	00488793          	addi	a5,a7,4
    3688:	439c                	c.lw	a5,0(a5)
    368a:	08a1                	c.addi	a7,8
    368c:	486616ff          	kmada	a3,a2,t1
    3690:	48f615ff          	kmada	a1,a2,a5
    3694:	1f7d                	c.addi	t5,-1
    3696:	fa0f1fe3          	bnez	t5,3654 <riscv_nn_mat_mult_kernel_s8_s16+0x348>
    369a:	4662                	c.lwsp	a2,24(sp)
    369c:	00339793          	slli	a5,t2,0x3
    36a0:	038a                	c.slli	t2,0x2
    36a2:	9ebe                	c.add	t4,a5
    36a4:	951e                	c.add	a0,t2
    36a6:	97b2                	c.add	a5,a2
    36a8:	00f12c23          	sw	a5,24(sp)
    36ac:	478a                	c.lwsp	a5,128(sp)
    36ae:	8b8d                	c.andi	a5,3
    36b0:	c7b1                	c.beqz	a5,36fc <riscv_nn_mat_mult_kernel_s8_s16+0x3f0>
    36b2:	44e2                	c.lwsp	s1,24(sp)
    36b4:	00050603          	lb	a2,0(a0)
    36b8:	00049303          	lh	t1,0(s1)
    36bc:	000e9883          	lh	a7,0(t4)
    36c0:	4805                	c.li	a6,1
    36c2:	c4c316ff          	maddr32	a3,t1,a2
    36c6:	c4c895ff          	maddr32	a1,a7,a2
    36ca:	03078963          	beq	a5,a6,36fc <riscv_nn_mat_mult_kernel_s8_s16+0x3f0>
    36ce:	00150603          	lb	a2,1(a0)
    36d2:	00249303          	lh	t1,2(s1)
    36d6:	002e9883          	lh	a7,2(t4)
    36da:	4809                	c.li	a6,2
    36dc:	c4c316ff          	maddr32	a3,t1,a2
    36e0:	c4c895ff          	maddr32	a1,a7,a2
    36e4:	01078c63          	beq	a5,a6,36fc <riscv_nn_mat_mult_kernel_s8_s16+0x3f0>
    36e8:	00250783          	lb	a5,2(a0)
    36ec:	004e9603          	lh	a2,4(t4)
    36f0:	00449503          	lh	a0,4(s1)
    36f4:	c4f615ff          	maddr32	a1,a2,a5
    36f8:	c4f516ff          	maddr32	a3,a0,a5
    36fc:	000fae03          	lw	t3,0(t6)
    3700:	431c                	c.lw	a5,0(a4)
    3702:	4501                	c.li	a0,0
    3704:	f2ae067f          	maxw	a2,t3,a0
    3708:	40000837          	lui	a6,0x40000
    370c:	4881                	c.li	a7,0
    370e:	00c696b3          	sll	a3,a3,a2
    3712:	8342                	c.mv	t1,a6
    3714:	83c6                	c.mv	t2,a7
    3716:	84f6937f          	smar64	t1,a3,a5
    371a:	41c00e33          	neg	t3,t3
    371e:	4685                	c.li	a3,1
    3720:	f2ae0e7f          	maxw	t3,t3,a0
    3724:	01c69633          	sll	a2,a3,t3
    3728:	dff307ff          	wexti	a5,t1,31
    372c:	167d                	c.addi	a2,-1
    372e:	40165313          	srai	t1,a2,0x1
    3732:	0007ae93          	slti	t4,a5,0
    3736:	8e7d                	c.and	a2,a5
    3738:	9376                	c.add	t1,t4
    373a:	00c32633          	slt	a2,t1,a2
    373e:	41c7d7b3          	sra	a5,a5,t3
    3742:	97b2                	c.add	a5,a2
    3744:	97de                	c.add	a5,s7
    3746:	f2fd07ff          	maxw	a5,s10,a5
    374a:	f0fd87ff          	minw	a5,s11,a5
    374e:	00f40023          	sb	a5,0(s0)
    3752:	000fa783          	lw	a5,0(t6)
    3756:	4318                	c.lw	a4,0(a4)
    3758:	f2a7867f          	maxw	a2,a5,a0
    375c:	00c595b3          	sll	a1,a1,a2
    3760:	84e5987f          	smar64	a6,a1,a4
    3764:	40f00733          	neg	a4,a5
    3768:	f2a7077f          	maxw	a4,a4,a0
    376c:	00e697b3          	sll	a5,a3,a4
    3770:	dff8087f          	wexti	a6,a6,31
    3774:	17fd                	c.addi	a5,-1
    3776:	4017d693          	srai	a3,a5,0x1
    377a:	00082613          	slti	a2,a6,0
    377e:	0107f7b3          	and	a5,a5,a6
    3782:	96b2                	c.add	a3,a2
    3784:	00f6a7b3          	slt	a5,a3,a5
    3788:	40e85733          	sra	a4,a6,a4
    378c:	973e                	c.add	a4,a5
    378e:	9bba                	c.add	s7,a4
    3790:	47f2                	c.lwsp	a5,28(sp)
    3792:	f37d0d7f          	maxw	s10,s10,s7
    3796:	f1ad8dff          	minw	s11,s11,s10
    379a:	0405                	c.addi	s0,1
    379c:	01b78023          	sb	s11,0(a5)
    37a0:	00540533          	add	a0,s0,t0
    37a4:	5476                	c.lwsp	s0,124(sp)
    37a6:	54e6                	c.lwsp	s1,120(sp)
    37a8:	5956                	c.lwsp	s2,116(sp)
    37aa:	59c6                	c.lwsp	s3,112(sp)
    37ac:	5a36                	c.lwsp	s4,108(sp)
    37ae:	5aa6                	c.lwsp	s5,104(sp)
    37b0:	5b16                	c.lwsp	s6,100(sp)
    37b2:	5b86                	c.lwsp	s7,96(sp)
    37b4:	4c76                	c.lwsp	s8,92(sp)
    37b6:	4ce6                	c.lwsp	s9,88(sp)
    37b8:	4d56                	c.lwsp	s10,84(sp)
    37ba:	4dc6                	c.lwsp	s11,80(sp)
    37bc:	6109                	c.addi16sp	sp,128
    37be:	8082                	c.jr	ra
    37c0:	5902                	c.lwsp	s2,32(sp)
    37c2:	4581                	c.li	a1,0
    37c4:	00000813          	li	a6,0
    37c8:	be0910e3          	bnez	s2,33a8 <riscv_nn_mat_mult_kernel_s8_s16+0x9c>
    37cc:	5792                	c.lwsp	a5,36(sp)
    37ce:	4762                	c.lwsp	a4,24(sp)
    37d0:	88ae                	c.mv	a7,a1
    37d2:	8f42                	c.mv	t5,a6
    37d4:	c71ff06f          	j	3444 <riscv_nn_mat_mult_kernel_s8_s16+0x138>
    37d8:	ce62                	c.swsp	s8,28(sp)
    37da:	b5b9                	c.j	3628 <riscv_nn_mat_mult_kernel_s8_s16+0x31c>
    37dc:	85b6                	c.mv	a1,a3
    37de:	b5f9                	c.j	36ac <riscv_nn_mat_mult_kernel_s8_s16+0x3a0>

000037e0 <riscv_convolve_wrapper_s8_get_buffer_size>:
    37e0:	491c                	c.lw	a5,16(a0)
    37e2:	4618                	c.lw	a4,8(a2)
    37e4:	00462803          	lw	a6,4(a2)
    37e8:	86aa                	c.mv	a3,a0
    37ea:	e799                	c.bnez	a5,37f8 <riscv_convolve_wrapper_s8_get_buffer_size+0x18>
    37ec:	4948                	c.lw	a0,20(a0)
    37ee:	e509                	c.bnez	a0,37f8 <riscv_convolve_wrapper_s8_get_buffer_size+0x18>
    37f0:	00100793          	li	a5,1
    37f4:	02f70e63          	beq	a4,a5,3830 <riscv_convolve_wrapper_s8_get_buffer_size+0x50>
    37f8:	41d0                	c.lw	a2,4(a1)
    37fa:	4505                	c.li	a0,1
    37fc:	45dc                	c.lw	a5,12(a1)
    37fe:	00a61763          	bne	a2,a0,380c <riscv_convolve_wrapper_s8_get_buffer_size+0x2c>
    3802:	4e8c                	c.lw	a1,24(a3)
    3804:	00c59463          	bne	a1,a2,380c <riscv_convolve_wrapper_s8_get_buffer_size+0x2c>
    3808:	04b80063          	beq	a6,a1,3848 <riscv_convolve_wrapper_s8_get_buffer_size+0x68>
    380c:	03070733          	mul	a4,a4,a6
    3810:	02f70533          	mul	a0,a4,a5
    3814:	00357793          	andi	a5,a0,3
    3818:	cb91                	c.beqz	a5,382c <riscv_convolve_wrapper_s8_get_buffer_size+0x4c>
    381a:	41f55713          	srai	a4,a0,0x1f
    381e:	8379                	c.srli	a4,0x1e
    3820:	00e507b3          	add	a5,a0,a4
    3824:	8b8d                	c.andi	a5,3
    3826:	0511                	c.addi	a0,4
    3828:	8f99                	c.sub	a5,a4
    382a:	8d1d                	c.sub	a0,a5
    382c:	050a                	c.slli	a0,0x2
    382e:	8082                	c.jr	ra
    3830:	fce814e3          	bne	a6,a4,37f8 <riscv_convolve_wrapper_s8_get_buffer_size+0x18>
    3834:	4e9c                	c.lw	a5,24(a3)
    3836:	01079f63          	bne	a5,a6,3854 <riscv_convolve_wrapper_s8_get_buffer_size+0x74>
    383a:	4ed0                	c.lw	a2,28(a3)
    383c:	00f60e63          	beq	a2,a5,3858 <riscv_convolve_wrapper_s8_get_buffer_size+0x78>
    3840:	41dc                	c.lw	a5,4(a1)
    3842:	00e79963          	bne	a5,a4,3854 <riscv_convolve_wrapper_s8_get_buffer_size+0x74>
    3846:	45dc                	c.lw	a5,12(a1)
    3848:	4694                	c.lw	a3,8(a3)
    384a:	02d786b3          	mul	a3,a5,a3
    384e:	8a8d                	c.andi	a3,3
    3850:	fed5                	c.bnez	a3,380c <riscv_convolve_wrapper_s8_get_buffer_size+0x2c>
    3852:	bf7d                	c.j	3810 <riscv_convolve_wrapper_s8_get_buffer_size+0x30>
    3854:	45dc                	c.lw	a5,12(a1)
    3856:	bf5d                	c.j	380c <riscv_convolve_wrapper_s8_get_buffer_size+0x2c>
    3858:	469c                	c.lw	a5,8(a3)
    385a:	00c79563          	bne	a5,a2,3864 <riscv_convolve_wrapper_s8_get_buffer_size+0x84>
    385e:	46d8                	c.lw	a4,12(a3)
    3860:	00f70463          	beq	a4,a5,3868 <riscv_convolve_wrapper_s8_get_buffer_size+0x88>
    3864:	00008067          	ret
    3868:	45c8                	c.lw	a0,12(a1)
    386a:	050a                	c.slli	a0,0x2
    386c:	8082                	c.jr	ra
	...

00003870 <riscv_depthwise_conv_s8_opt_get_buffer_size>:
    3870:	4548                	c.lw	a0,12(a0)
    3872:	4598                	c.lw	a4,8(a1)
    3874:	41dc                	c.lw	a5,4(a1)
    3876:	02e50533          	mul	a0,a0,a4
    387a:	02f50533          	mul	a0,a0,a5
    387e:	0506                	c.slli	a0,0x1
    3880:	8082                	c.jr	ra
	...

00003884 <riscv_depthwise_conv_wrapper_s8_get_buffer_size>:
    3884:	45dc                	c.lw	a5,12(a1)
    3886:	46d8                	c.lw	a4,12(a3)
    3888:	00e78663          	beq	a5,a4,3894 <riscv_depthwise_conv_wrapper_s8_get_buffer_size+0x10>
    388c:	00000713          	li	a4,0
    3890:	853a                	c.mv	a0,a4
    3892:	8082                	c.jr	ra
    3894:	4194                	c.lw	a3,0(a1)
    3896:	4585                	c.li	a1,1
    3898:	4701                	c.li	a4,0
    389a:	feb69be3          	bne	a3,a1,3890 <riscv_depthwise_conv_wrapper_s8_get_buffer_size+0xc>
    389e:	4d4c                	c.lw	a1,28(a0)
    38a0:	fed598e3          	bne	a1,a3,3890 <riscv_depthwise_conv_wrapper_s8_get_buffer_size+0xc>
    38a4:	5114                	c.lw	a3,32(a0)
    38a6:	feb695e3          	bne	a3,a1,3890 <riscv_depthwise_conv_wrapper_s8_get_buffer_size+0xc>
    38aa:	460c                	c.lw	a1,8(a2)
    38ac:	480d                	c.li	a6,3
    38ae:	4250                	c.lw	a2,4(a2)
    38b0:	01058a63          	beq	a1,a6,38c4 <riscv_depthwise_conv_wrapper_s8_get_buffer_size+0x40>
    38b4:	02b787b3          	mul	a5,a5,a1
    38b8:	02c787b3          	mul	a5,a5,a2
    38bc:	00179713          	slli	a4,a5,0x1
    38c0:	fd1ff06f          	j	3890 <riscv_depthwise_conv_wrapper_s8_get_buffer_size+0xc>
    38c4:	feb618e3          	bne	a2,a1,38b4 <riscv_depthwise_conv_wrapper_s8_get_buffer_size+0x30>
    38c8:	01852803          	lw	a6,24(a0)
    38cc:	ff06c4e3          	blt	a3,a6,38b4 <riscv_depthwise_conv_wrapper_s8_get_buffer_size+0x30>
    38d0:	4948                	c.lw	a0,20(a0)
    38d2:	fea6c1e3          	blt	a3,a0,38b4 <riscv_depthwise_conv_wrapper_s8_get_buffer_size+0x30>
    38d6:	bf6d                	c.j	3890 <riscv_depthwise_conv_wrapper_s8_get_buffer_size+0xc>

000038d8 <riscv_nn_mat_mult_kernel_row_offset_s8_s16>:
    38d8:	7119                	c.addi16sp	sp,-128
    38da:	42ca                	c.lwsp	t0,144(sp)
    38dc:	daca                	c.swsp	s2,116(sp)
    38de:	493a                	c.lwsp	s2,140(sp)
    38e0:	dea2                	c.swsp	s0,124(sp)
    38e2:	dca6                	c.swsp	s1,120(sp)
    38e4:	d8ce                	c.swsp	s3,112(sp)
    38e6:	00165493          	srli	s1,a2,0x1
    38ea:	d0de                	c.swsp	s7,96(sp)
    38ec:	cee2                	c.swsp	s8,92(sp)
    38ee:	caea                	c.swsp	s10,84(sp)
    38f0:	c8ee                	c.swsp	s11,80(sp)
    38f2:	d6d2                	c.swsp	s4,108(sp)
    38f4:	d4d6                	c.swsp	s5,104(sp)
    38f6:	d2da                	c.swsp	s6,100(sp)
    38f8:	cce6                	c.swsp	s9,88(sp)
    38fa:	cc2e                	c.swsp	a1,24(sp)
    38fc:	8432                	c.mv	s0,a2
    38fe:	499a                	c.lwsp	s3,132(sp)
    3900:	462a                	c.lwsp	a2,136(sp)
    3902:	8fb6                	c.mv	t6,a3
    3904:	8bbe                	c.mv	s7,a5
    3906:	8d42                	c.mv	s10,a6
    3908:	8dc6                	c.mv	s11,a7
    390a:	01228c33          	add	s8,t0,s2
    390e:	4a048363          	beqz	s1,3db4 <riscv_nn_mat_mult_kernel_row_offset_s8_s16+0x4dc>
    3912:	478a                	c.lwsp	a5,128(sp)
    3914:	468a                	c.lwsp	a3,128(sp)
    3916:	87fd                	c.srai	a5,0x1f
    3918:	8b8d                	c.andi	a5,3
    391a:	97b6                	c.add	a5,a3
    391c:	4027d893          	srai	a7,a5,0x2
    3920:	00199793          	slli	a5,s3,0x1
    3924:	00f58f33          	add	t5,a1,a5
    3928:	00389693          	slli	a3,a7,0x3
    392c:	882e                	c.mv	a6,a1
    392e:	00149793          	slli	a5,s1,0x1
    3932:	458a                	c.lwsp	a1,128(sp)
    3934:	d27a                	c.swsp	t5,36(sp)
    3936:	9f36                	c.add	t5,a3
    3938:	96c2                	c.add	a3,a6
    393a:	00fc0a33          	add	s4,s8,a5
    393e:	d636                	c.swsp	a3,44(sp)
    3940:	00289693          	slli	a3,a7,0x2
    3944:	898d                	c.andi	a1,3
    3946:	ce52                	c.swsp	s4,28(sp)
    3948:	d436                	c.swsp	a3,40(sp)
    394a:	8b3a                	c.mv	s6,a4
    394c:	8696                	c.mv	a3,t0
    394e:	8a7e                	c.mv	s4,t6
    3950:	4c85                	c.li	s9,1
    3952:	4a81                	c.li	s5,0
    3954:	d046                	c.swsp	a7,32(sp)
    3956:	d87a                	c.swsp	t5,48(sp)
    3958:	da26                	c.swsp	s1,52(sp)
    395a:	c42e                	c.swsp	a1,8(sp)
    395c:	dc3e                	c.swsp	a5,56(sp)
    395e:	de22                	c.swsp	s0,60(sp)
    3960:	c0fe                	c.swsp	t6,64(sp)
    3962:	c2ba                	c.swsp	a4,68(sp)
    3964:	478a                	c.lwsp	a5,128(sp)
    3966:	00f509b3          	add	s3,a0,a5
    396a:	42060963          	beqz	a2,3d9c <riscv_nn_mat_mult_kernel_row_offset_s8_s16+0x4c4>
    396e:	5902                	c.lwsp	s2,32(sp)
    3970:	00062803          	lw	a6,0(a2)
    3974:	424c                	c.lw	a1,4(a2)
    3976:	0621                	c.addi	a2,8
    3978:	42090863          	beqz	s2,3da8 <riscv_nn_mat_mult_kernel_row_offset_s8_s16+0x4d0>
    397c:	5292                	c.lwsp	t0,36(sp)
    397e:	4fe2                	c.lwsp	t6,24(sp)
    3980:	ca6e                	c.swsp	s11,20(sp)
    3982:	88ae                	c.mv	a7,a1
    3984:	8dea                	c.mv	s11,s10
    3986:	8f42                	c.mv	t5,a6
    3988:	8d5e                	c.mv	s10,s7
    398a:	84ce                	c.mv	s1,s3
    398c:	842a                	c.mv	s0,a0
    398e:	8baa                	c.mv	s7,a0
    3990:	c636                	c.swsp	a3,12(sp)
    3992:	c862                	c.swsp	s8,16(sp)
    3994:	08c12423          	sw	a2,136(sp)
    3998:	000fa503          	lw	a0,0(t6)
    399c:	0002a603          	lw	a2,0(t0)
    39a0:	4018                	c.lw	a4,0(s0)
    39a2:	833a                	c.mv	t1,a4
    39a4:	83ba                	c.mv	t2,a4
    39a6:	0411                	c.addi	s0,4
    39a8:	de830c7f          	wexti	s8,t1,8
    39ac:	ac9c0c7f          	sunpkd820	s8,s8
    39b0:	ac97077f          	sunpkd820	a4,a4
    39b4:	409c                	c.lw	a5,0(s1)
    39b6:	8e3e                	c.mv	t3,a5
    39b8:	8ebe                	c.mv	t4,a5
    39ba:	0491                	c.addi	s1,4
    39bc:	de8e06ff          	wexti	a3,t3,8
    39c0:	ac9686ff          	sunpkd820	a3,a3
    39c4:	ac9787ff          	sunpkd820	a5,a5
    39c8:	48a7187f          	kmada	a6,a4,a0
    39cc:	48c71f7f          	kmada	t5,a4,a2
    39d0:	48a795ff          	kmada	a1,a5,a0
    39d4:	48c798ff          	kmada	a7,a5,a2
    39d8:	004f8713          	addi	a4,t6,4
    39dc:	4318                	c.lw	a4,0(a4)
    39de:	0fa1                	c.addi	t6,8
    39e0:	00428793          	addi	a5,t0,4
    39e4:	439c                	c.lw	a5,0(a5)
    39e6:	02a1                	c.addi	t0,8
    39e8:	48ec187f          	kmada	a6,s8,a4
    39ec:	48fc1f7f          	kmada	t5,s8,a5
    39f0:	48e695ff          	kmada	a1,a3,a4
    39f4:	48f698ff          	kmada	a7,a3,a5
    39f8:	197d                	c.addi	s2,-1
    39fa:	f8091fe3          	bnez	s2,3998 <riscv_nn_mat_mult_kernel_row_offset_s8_s16+0xc0>
    39fe:	57a2                	c.lwsp	a5,40(sp)
    3a00:	855e                	c.mv	a0,s7
    3a02:	99be                	c.add	s3,a5
    3a04:	8bea                	c.mv	s7,s10
    3a06:	953e                	c.add	a0,a5
    3a08:	8d6e                	c.mv	s10,s11
    3a0a:	46b2                	c.lwsp	a3,12(sp)
    3a0c:	4c42                	c.lwsp	s8,16(sp)
    3a0e:	4dd2                	c.lwsp	s11,20(sp)
    3a10:	462a                	c.lwsp	a2,136(sp)
    3a12:	57c2                	c.lwsp	a5,48(sp)
    3a14:	02c12703          	lw	a4,44(sp)
    3a18:	4922                	c.lwsp	s2,8(sp)
    3a1a:	06090963          	beqz	s2,3a8c <riscv_nn_mat_mult_kernel_row_offset_s8_s16+0x1b4>
    3a1e:	00050483          	lb	s1,0(a0)
    3a22:	00071403          	lh	s0,0(a4) # 40000000 <_DATA_LMA_START+0x1fff64f8>
    3a26:	00079f83          	lh	t6,0(a5)
    3a2a:	00098283          	lb	t0,0(s3)
    3a2e:	c494187f          	maddr32	a6,s0,s1
    3a32:	c49f9f7f          	maddr32	t5,t6,s1
    3a36:	c48295ff          	maddr32	a1,t0,s0
    3a3a:	c5f298ff          	maddr32	a7,t0,t6
    3a3e:	05990563          	beq	s2,s9,3a88 <riscv_nn_mat_mult_kernel_row_offset_s8_s16+0x1b0>
    3a42:	00271403          	lh	s0,2(a4)
    3a46:	00150483          	lb	s1,1(a0)
    3a4a:	00198283          	lb	t0,1(s3)
    3a4e:	00279f83          	lh	t6,2(a5)
    3a52:	c494187f          	maddr32	a6,s0,s1
    3a56:	c48295ff          	maddr32	a1,t0,s0
    3a5a:	4409                	c.li	s0,2
    3a5c:	c49f9f7f          	maddr32	t5,t6,s1
    3a60:	c5f298ff          	maddr32	a7,t0,t6
    3a64:	02890263          	beq	s2,s0,3a88 <riscv_nn_mat_mult_kernel_row_offset_s8_s16+0x1b0>
    3a68:	00250f83          	lb	t6,2(a0)
    3a6c:	00471703          	lh	a4,4(a4)
    3a70:	00479783          	lh	a5,4(a5)
    3a74:	00298283          	lb	t0,2(s3)
    3a78:	c4ef987f          	maddr32	a6,t6,a4
    3a7c:	c4ff9f7f          	maddr32	t5,t6,a5
    3a80:	c45715ff          	maddr32	a1,a4,t0
    3a84:	c45798ff          	maddr32	a7,a5,t0
    3a88:	47a2                	c.lwsp	a5,8(sp)
    3a8a:	953e                	c.add	a0,a5
    3a8c:	000a2f83          	lw	t6,0(s4)
    3a90:	000b2283          	lw	t0,0(s6)
    3a94:	f35f87ff          	maxw	a5,t6,s5
    3a98:	00f81833          	sll	a6,a6,a5
    3a9c:	40000737          	lui	a4,0x40000
    3aa0:	4781                	c.li	a5,0
    3aa2:	8458177f          	smar64	a4,a6,t0
    3aa6:	41f00833          	neg	a6,t6
    3aaa:	f358087f          	maxw	a6,a6,s5
    3aae:	010c9fb3          	sll	t6,s9,a6
    3ab2:	dff7077f          	wexti	a4,a4,31
    3ab6:	ffff8793          	addi	a5,t6,-1
    3aba:	4017df93          	srai	t6,a5,0x1
    3abe:	00072293          	slti	t0,a4,0
    3ac2:	8ff9                	c.and	a5,a4
    3ac4:	9f96                	c.add	t6,t0
    3ac6:	00ffa7b3          	slt	a5,t6,a5
    3aca:	41075733          	sra	a4,a4,a6
    3ace:	973e                	c.add	a4,a5
    3ad0:	975e                	c.add	a4,s7
    3ad2:	f3a7077f          	maxw	a4,a4,s10
    3ad6:	f1b7077f          	minw	a4,a4,s11
    3ada:	00e68023          	sb	a4,0(a3)
    3ade:	000a2803          	lw	a6,0(s4)
    3ae2:	000b2f83          	lw	t6,0(s6)
    3ae6:	f35807ff          	maxw	a5,a6,s5
    3aea:	00ff1f33          	sll	t5,t5,a5
    3aee:	40000737          	lui	a4,0x40000
    3af2:	4781                	c.li	a5,0
    3af4:	85ff177f          	smar64	a4,t5,t6
    3af8:	41000833          	neg	a6,a6
    3afc:	f358087f          	maxw	a6,a6,s5
    3b00:	010c9f33          	sll	t5,s9,a6
    3b04:	dff7077f          	wexti	a4,a4,31
    3b08:	ffff0793          	addi	a5,t5,-1
    3b0c:	4017df13          	srai	t5,a5,0x1
    3b10:	00072f93          	slti	t6,a4,0
    3b14:	8ff9                	c.and	a5,a4
    3b16:	9f7e                	c.add	t5,t6
    3b18:	00ff27b3          	slt	a5,t5,a5
    3b1c:	41075733          	sra	a4,a4,a6
    3b20:	973e                	c.add	a4,a5
    3b22:	975e                	c.add	a4,s7
    3b24:	f3a7077f          	maxw	a4,a4,s10
    3b28:	f1b7077f          	minw	a4,a4,s11
    3b2c:	00ec0023          	sb	a4,0(s8)
    3b30:	004a2803          	lw	a6,4(s4)
    3b34:	004b2f03          	lw	t5,4(s6)
    3b38:	f35807ff          	maxw	a5,a6,s5
    3b3c:	00f595b3          	sll	a1,a1,a5
    3b40:	40000737          	lui	a4,0x40000
    3b44:	4781                	c.li	a5,0
    3b46:	85e5977f          	smar64	a4,a1,t5
    3b4a:	410005b3          	neg	a1,a6
    3b4e:	f35585ff          	maxw	a1,a1,s5
    3b52:	00bc9833          	sll	a6,s9,a1
    3b56:	dff7077f          	wexti	a4,a4,31
    3b5a:	fff80793          	addi	a5,a6,-1 # 3fffffff <_DATA_LMA_START+0x1fff64f7>
    3b5e:	00072f13          	slti	t5,a4,0
    3b62:	4017d813          	srai	a6,a5,0x1
    3b66:	987a                	c.add	a6,t5
    3b68:	8ff9                	c.and	a5,a4
    3b6a:	00f827b3          	slt	a5,a6,a5
    3b6e:	40b75733          	sra	a4,a4,a1
    3b72:	973e                	c.add	a4,a5
    3b74:	975e                	c.add	a4,s7
    3b76:	f3a7077f          	maxw	a4,a4,s10
    3b7a:	f1b7077f          	minw	a4,a4,s11
    3b7e:	00e680a3          	sb	a4,1(a3)
    3b82:	004a2583          	lw	a1,4(s4)
    3b86:	004b2f03          	lw	t5,4(s6)
    3b8a:	f355887f          	maxw	a6,a1,s5
    3b8e:	01089833          	sll	a6,a7,a6
    3b92:	40000737          	lui	a4,0x40000
    3b96:	4781                	c.li	a5,0
    3b98:	85e8177f          	smar64	a4,a6,t5
    3b9c:	40b005b3          	neg	a1,a1
    3ba0:	f35585ff          	maxw	a1,a1,s5
    3ba4:	00bc9833          	sll	a6,s9,a1
    3ba8:	dff7077f          	wexti	a4,a4,31
    3bac:	fff80793          	addi	a5,a6,-1
    3bb0:	4017d813          	srai	a6,a5,0x1
    3bb4:	00072893          	slti	a7,a4,0
    3bb8:	8ff9                	c.and	a5,a4
    3bba:	9846                	c.add	a6,a7
    3bbc:	00f827b3          	slt	a5,a6,a5
    3bc0:	40b75733          	sra	a4,a4,a1
    3bc4:	973e                	c.add	a4,a5
    3bc6:	975e                	c.add	a4,s7
    3bc8:	478a                	c.lwsp	a5,128(sp)
    3bca:	f3a7077f          	maxw	a4,a4,s10
    3bce:	0c09                	c.addi	s8,2
    3bd0:	f1b7077f          	minw	a4,a4,s11
    3bd4:	953e                	c.add	a0,a5
    3bd6:	47f2                	c.lwsp	a5,28(sp)
    3bd8:	feec0fa3          	sb	a4,-1(s8)
    3bdc:	0689                	c.addi	a3,2
    3bde:	0b21                	c.addi	s6,8
    3be0:	0a21                	c.addi	s4,8
    3be2:	d8fc11e3          	bne	s8,a5,3964 <riscv_nn_mat_mult_kernel_row_offset_s8_s16+0x8c>
    3be6:	54d2                	c.lwsp	s1,52(sp)
    3be8:	57e2                	c.lwsp	a5,56(sp)
    3bea:	4f86                	c.lwsp	t6,64(sp)
    3bec:	4716                	c.lwsp	a4,68(sp)
    3bee:	42ca                	c.lwsp	t0,144(sp)
    3bf0:	048e                	c.slli	s1,0x3
    3bf2:	5472                	c.lwsp	s0,60(sp)
    3bf4:	499a                	c.lwsp	s3,132(sp)
    3bf6:	493a                	c.lwsp	s2,140(sp)
    3bf8:	92be                	c.add	t0,a5
    3bfa:	9726                	c.add	a4,s1
    3bfc:	009f8fb3          	add	t6,t6,s1
    3c00:	00147793          	andi	a5,s0,1
    3c04:	16078863          	beqz	a5,3d74 <riscv_nn_mat_mult_kernel_row_offset_s8_s16+0x49c>
    3c08:	47e2                	c.lwsp	a5,24(sp)
    3c0a:	00199e13          	slli	t3,s3,0x1
    3c0e:	9e3e                	c.add	t3,a5
    3c10:	4681                	c.li	a3,0
    3c12:	c219                	c.beqz	a2,3c18 <riscv_nn_mat_mult_kernel_row_offset_s8_s16+0x340>
    3c14:	00062683          	lw	a3,0(a2)
    3c18:	478a                	c.lwsp	a5,128(sp)
    3c1a:	4027df13          	srai	t5,a5,0x2
    3c1e:	180f0d63          	beqz	t5,3db8 <riscv_nn_mat_mult_kernel_row_offset_s8_s16+0x4e0>
    3c22:	45e2                	c.lwsp	a1,24(sp)
    3c24:	8872                	c.mv	a6,t3
    3c26:	8efa                	c.mv	t4,t5
    3c28:	8336                	c.mv	t1,a3
    3c2a:	88aa                	c.mv	a7,a0
    3c2c:	4184                	c.lw	s1,0(a1)
    3c2e:	00082383          	lw	t2,0(a6)
    3c32:	0008a783          	lw	a5,0(a7)
    3c36:	8a3e                	c.mv	s4,a5
    3c38:	8abe                	c.mv	s5,a5
    3c3a:	0891                	c.addi	a7,4
    3c3c:	de8a067f          	wexti	a2,s4,8
    3c40:	ac96067f          	sunpkd820	a2,a2
    3c44:	ac9787ff          	sunpkd820	a5,a5
    3c48:	489796ff          	kmada	a3,a5,s1
    3c4c:	4877937f          	kmada	t1,a5,t2
    3c50:	00458393          	addi	t2,a1,4
    3c54:	0003a383          	lw	t2,0(t2)
    3c58:	05a1                	c.addi	a1,8
    3c5a:	00480793          	addi	a5,a6,4
    3c5e:	439c                	c.lw	a5,0(a5)
    3c60:	0821                	c.addi	a6,8
    3c62:	487616ff          	kmada	a3,a2,t2
    3c66:	48f6137f          	kmada	t1,a2,a5
    3c6a:	1efd                	c.addi	t4,-1
    3c6c:	fc0e90e3          	bnez	t4,3c2c <riscv_nn_mat_mult_kernel_row_offset_s8_s16+0x354>
    3c70:	4662                	c.lwsp	a2,24(sp)
    3c72:	003f1793          	slli	a5,t5,0x3
    3c76:	0f0a                	c.slli	t5,0x2
    3c78:	9e3e                	c.add	t3,a5
    3c7a:	957a                	c.add	a0,t5
    3c7c:	97b2                	c.add	a5,a2
    3c7e:	cc3e                	c.swsp	a5,24(sp)
    3c80:	478a                	c.lwsp	a5,128(sp)
    3c82:	8b8d                	c.andi	a5,3
    3c84:	c7b1                	c.beqz	a5,3cd0 <riscv_nn_mat_mult_kernel_row_offset_s8_s16+0x3f8>
    3c86:	44e2                	c.lwsp	s1,24(sp)
    3c88:	00050603          	lb	a2,0(a0)
    3c8c:	00049883          	lh	a7,0(s1)
    3c90:	000e1803          	lh	a6,0(t3)
    3c94:	4585                	c.li	a1,1
    3c96:	c4c896ff          	maddr32	a3,a7,a2
    3c9a:	c4c8137f          	maddr32	t1,a6,a2
    3c9e:	02b78963          	beq	a5,a1,3cd0 <riscv_nn_mat_mult_kernel_row_offset_s8_s16+0x3f8>
    3ca2:	00150603          	lb	a2,1(a0)
    3ca6:	00249883          	lh	a7,2(s1)
    3caa:	002e1803          	lh	a6,2(t3)
    3cae:	4589                	c.li	a1,2
    3cb0:	c4c896ff          	maddr32	a3,a7,a2
    3cb4:	c4c8137f          	maddr32	t1,a6,a2
    3cb8:	00b78c63          	beq	a5,a1,3cd0 <riscv_nn_mat_mult_kernel_row_offset_s8_s16+0x3f8>
    3cbc:	00250783          	lb	a5,2(a0)
    3cc0:	00449583          	lh	a1,4(s1)
    3cc4:	004e1603          	lh	a2,4(t3)
    3cc8:	c4f596ff          	maddr32	a3,a1,a5
    3ccc:	c4f6137f          	maddr32	t1,a2,a5
    3cd0:	000fae83          	lw	t4,0(t6)
    3cd4:	431c                	c.lw	a5,0(a4)
    3cd6:	4e01                	c.li	t3,0
    3cd8:	f3ce867f          	maxw	a2,t4,t3
    3cdc:	40000537          	lui	a0,0x40000
    3ce0:	4581                	c.li	a1,0
    3ce2:	00c696b3          	sll	a3,a3,a2
    3ce6:	882a                	c.mv	a6,a0
    3ce8:	88ae                	c.mv	a7,a1
    3cea:	84f6987f          	smar64	a6,a3,a5
    3cee:	41d00eb3          	neg	t4,t4
    3cf2:	4685                	c.li	a3,1
    3cf4:	f3ce8eff          	maxw	t4,t4,t3
    3cf8:	01d69633          	sll	a2,a3,t4
    3cfc:	dff807ff          	wexti	a5,a6,31
    3d00:	167d                	c.addi	a2,-1
    3d02:	40165813          	srai	a6,a2,0x1
    3d06:	0007a893          	slti	a7,a5,0
    3d0a:	8e7d                	c.and	a2,a5
    3d0c:	9846                	c.add	a6,a7
    3d0e:	00c82633          	slt	a2,a6,a2
    3d12:	41d7d7b3          	sra	a5,a5,t4
    3d16:	97b2                	c.add	a5,a2
    3d18:	97de                	c.add	a5,s7
    3d1a:	f2fd07ff          	maxw	a5,s10,a5
    3d1e:	f0fd87ff          	minw	a5,s11,a5
    3d22:	00f28023          	sb	a5,0(t0)
    3d26:	000fa783          	lw	a5,0(t6)
    3d2a:	4318                	c.lw	a4,0(a4)
    3d2c:	f3c7867f          	maxw	a2,a5,t3
    3d30:	00c31333          	sll	t1,t1,a2
    3d34:	84e3157f          	smar64	a0,t1,a4
    3d38:	40f00733          	neg	a4,a5
    3d3c:	f3c7077f          	maxw	a4,a4,t3
    3d40:	00e697b3          	sll	a5,a3,a4
    3d44:	dff5057f          	wexti	a0,a0,31
    3d48:	17fd                	c.addi	a5,-1
    3d4a:	4017d693          	srai	a3,a5,0x1
    3d4e:	00052613          	slti	a2,a0,0
    3d52:	8fe9                	c.and	a5,a0
    3d54:	96b2                	c.add	a3,a2
    3d56:	00f6a7b3          	slt	a5,a3,a5
    3d5a:	40e55733          	sra	a4,a0,a4
    3d5e:	973e                	c.add	a4,a5
    3d60:	9bba                	c.add	s7,a4
    3d62:	47f2                	c.lwsp	a5,28(sp)
    3d64:	f37d0d7f          	maxw	s10,s10,s7
    3d68:	f1ad8dff          	minw	s11,s11,s10
    3d6c:	00128293          	addi	t0,t0,1
    3d70:	01b78023          	sb	s11,0(a5)
    3d74:	0906                	c.slli	s2,0x1
    3d76:	40890933          	sub	s2,s2,s0
    3d7a:	5476                	c.lwsp	s0,124(sp)
    3d7c:	54e6                	c.lwsp	s1,120(sp)
    3d7e:	59c6                	c.lwsp	s3,112(sp)
    3d80:	5a36                	c.lwsp	s4,108(sp)
    3d82:	5aa6                	c.lwsp	s5,104(sp)
    3d84:	5b16                	c.lwsp	s6,100(sp)
    3d86:	5b86                	c.lwsp	s7,96(sp)
    3d88:	4c76                	c.lwsp	s8,92(sp)
    3d8a:	4ce6                	c.lwsp	s9,88(sp)
    3d8c:	4d56                	c.lwsp	s10,84(sp)
    3d8e:	4dc6                	c.lwsp	s11,80(sp)
    3d90:	01228533          	add	a0,t0,s2
    3d94:	5956                	c.lwsp	s2,116(sp)
    3d96:	6109                	c.addi16sp	sp,128
    3d98:	00008067          	ret
    3d9c:	5902                	c.lwsp	s2,32(sp)
    3d9e:	4581                	c.li	a1,0
    3da0:	00000813          	li	a6,0
    3da4:	bc091ce3          	bnez	s2,397c <riscv_nn_mat_mult_kernel_row_offset_s8_s16+0xa4>
    3da8:	5792                	c.lwsp	a5,36(sp)
    3daa:	4762                	c.lwsp	a4,24(sp)
    3dac:	88ae                	c.mv	a7,a1
    3dae:	8f42                	c.mv	t5,a6
    3db0:	c69ff06f          	j	3a18 <riscv_nn_mat_mult_kernel_row_offset_s8_s16+0x140>
    3db4:	ce62                	c.swsp	s8,28(sp)
    3db6:	b5a9                	c.j	3c00 <riscv_nn_mat_mult_kernel_row_offset_s8_s16+0x328>
    3db8:	8336                	c.mv	t1,a3
    3dba:	b5d9                	c.j	3c80 <riscv_nn_mat_mult_kernel_row_offset_s8_s16+0x3a8>

00003dbc <riscv_convolve_1x1_s8>:
    3dbc:	7119                	c.addi16sp	sp,-128
    3dbe:	4988                	c.lw	a0,16(a1)
    3dc0:	d6ce                	c.swsp	s3,108(sp)
    3dc2:	de86                	c.swsp	ra,124(sp)
    3dc4:	dca2                	c.swsp	s0,120(sp)
    3dc6:	daa6                	c.swsp	s1,116(sp)
    3dc8:	d8ca                	c.swsp	s2,112(sp)
    3dca:	d4d2                	c.swsp	s4,104(sp)
    3dcc:	d2d6                	c.swsp	s5,100(sp)
    3dce:	d0da                	c.swsp	s6,96(sp)
    3dd0:	cede                	c.swsp	s7,92(sp)
    3dd2:	cce2                	c.swsp	s8,88(sp)
    3dd4:	cae6                	c.swsp	s9,84(sp)
    3dd6:	c8ea                	c.swsp	s10,80(sp)
    3dd8:	c6ee                	c.swsp	s11,76(sp)
    3dda:	479a                	c.lwsp	a5,132(sp)
    3ddc:	49aa                	c.lwsp	s3,136(sp)
    3dde:	0e051f63          	bnez	a0,3edc <riscv_convolve_1x1_s8+0x120>
    3de2:	49c8                	c.lw	a0,20(a1)
    3de4:	0e051c63          	bnez	a0,3edc <riscv_convolve_1x1_s8+0x120>
    3de8:	4688                	c.lw	a0,8(a3)
    3dea:	00c5ac83          	lw	s9,12(a1)
    3dee:	0087ad83          	lw	s11,8(a5)
    3df2:	03950cb3          	mul	s9,a0,s9
    3df6:	00c7aa83          	lw	s5,12(a5)
    3dfa:	00c6ad03          	lw	s10,12(a3)
    3dfe:	0006ae03          	lw	t3,0(a3)
    3e02:	03ac8cb3          	mul	s9,s9,s10
    3e06:	035d8c33          	mul	s8,s11,s5
    3e0a:	0085ab83          	lw	s7,8(a1)
    3e0e:	0047ab03          	lw	s6,4(a5)
    3e12:	0dc05363          	blez	t3,3ed8 <riscv_convolve_1x1_s8+0x11c>
    3e16:	8a32                	c.mv	s4,a2
    3e18:	03ab8bb3          	mul	s7,s7,s10
    3e1c:	87d2                	c.mv	a5,s4
    3e1e:	842e                	c.mv	s0,a1
    3e20:	8a5a                	c.mv	s4,s6
    3e22:	4581                	c.li	a1,0
    3e24:	8b56                	c.mv	s6,s5
    3e26:	4601                	c.li	a2,0
    3e28:	8abe                	c.mv	s5,a5
    3e2a:	d442                	c.swsp	a6,40(sp)
    3e2c:	03c12e23          	sw	t3,60(sp)
    3e30:	02a60533          	mul	a0,a2,a0
    3e34:	0046a803          	lw	a6,4(a3)
    3e38:	893a                	c.mv	s2,a4
    3e3a:	c505197f          	maddr32	s2,a0,a6
    3e3e:	09405563          	blez	s4,3ec8 <riscv_convolve_1x1_s8+0x10c>
    3e42:	c54e                	c.swsp	s3,136(sp)
    3e44:	4481                	c.li	s1,0
    3e46:	89ca                	c.mv	s3,s2
    3e48:	d62e                	c.swsp	a1,44(sp)
    3e4a:	895a                	c.mv	s2,s6
    3e4c:	d832                	c.swsp	a2,48(sp)
    3e4e:	4b2a                	c.lwsp	s6,136(sp)
    3e50:	da36                	c.swsp	a3,52(sp)
    3e52:	dc3a                	c.swsp	a4,56(sp)
    3e54:	00c0006f          	j	3e60 <riscv_convolve_1x1_s8+0xa4>
    3e58:	99e6                	c.add	s3,s9
    3e5a:	9b62                	c.add	s6,s8
    3e5c:	069a0063          	beq	s4,s1,3ebc <riscv_convolve_1x1_s8+0x100>
    3e60:	02442283          	lw	t0,36(s0)
    3e64:	02042f83          	lw	t6,32(s0)
    3e68:	00442f03          	lw	t5,4(s0)
    3e6c:	00042e83          	lw	t4,0(s0)
    3e70:	004aa783          	lw	a5,4(s5)
    3e74:	000aa703          	lw	a4,0(s5)
    3e78:	460a                	c.lwsp	a2,128(sp)
    3e7a:	55a2                	c.lwsp	a1,40(sp)
    3e7c:	86da                	c.mv	a3,s6
    3e7e:	854e                	c.mv	a0,s3
    3e80:	88ca                	c.mv	a7,s2
    3e82:	886e                	c.mv	a6,s11
    3e84:	cc5e                	c.swsp	s7,24(sp)
    3e86:	ca4a                	c.swsp	s2,20(sp)
    3e88:	c816                	c.swsp	t0,16(sp)
    3e8a:	c67e                	c.swsp	t6,12(sp)
    3e8c:	c47a                	c.swsp	t5,8(sp)
    3e8e:	c276                	c.swsp	t4,4(sp)
    3e90:	c06a                	c.swsp	s10,0(sp)
    3e92:	0485                	c.addi	s1,1
    3e94:	178000ef          	jal	ra,400c <riscv_nn_mat_mult_nt_t_s8>
    3e98:	fc0500e3          	beqz	a0,3e58 <riscv_convolve_1x1_s8+0x9c>
    3e9c:	50f6                	c.lwsp	ra,124(sp)
    3e9e:	5466                	c.lwsp	s0,120(sp)
    3ea0:	54d6                	c.lwsp	s1,116(sp)
    3ea2:	5946                	c.lwsp	s2,112(sp)
    3ea4:	59b6                	c.lwsp	s3,108(sp)
    3ea6:	5a26                	c.lwsp	s4,104(sp)
    3ea8:	5a96                	c.lwsp	s5,100(sp)
    3eaa:	5b06                	c.lwsp	s6,96(sp)
    3eac:	4bf6                	c.lwsp	s7,92(sp)
    3eae:	4c66                	c.lwsp	s8,88(sp)
    3eb0:	4cd6                	c.lwsp	s9,84(sp)
    3eb2:	4d46                	c.lwsp	s10,80(sp)
    3eb4:	4db6                	c.lwsp	s11,76(sp)
    3eb6:	6109                	c.addi16sp	sp,128
    3eb8:	00008067          	ret
    3ebc:	55b2                	c.lwsp	a1,44(sp)
    3ebe:	5642                	c.lwsp	a2,48(sp)
    3ec0:	56d2                	c.lwsp	a3,52(sp)
    3ec2:	5762                	c.lwsp	a4,56(sp)
    3ec4:	89da                	c.mv	s3,s6
    3ec6:	8b4a                	c.mv	s6,s2
    3ec8:	57f2                	c.lwsp	a5,60(sp)
    3eca:	0585                	c.addi	a1,1
    3ecc:	966a                	c.add	a2,s10
    3ece:	00b78563          	beq	a5,a1,3ed8 <riscv_convolve_1x1_s8+0x11c>
    3ed2:	4688                	c.lw	a0,8(a3)
    3ed4:	f5dff06f          	j	3e30 <riscv_convolve_1x1_s8+0x74>
    3ed8:	4501                	c.li	a0,0
    3eda:	b7c9                	c.j	3e9c <riscv_convolve_1x1_s8+0xe0>
    3edc:	557d                	c.li	a0,-1
    3ede:	bf7d                	c.j	3e9c <riscv_convolve_1x1_s8+0xe0>

00003ee0 <riscv_depthwise_conv_wrapper_s8>:
    3ee0:	1101                	c.addi	sp,-32
    3ee2:	0085ae03          	lw	t3,8(a1)
    3ee6:	ce22                	c.swsp	s0,28(sp)
    3ee8:	cc26                	c.swsp	s1,24(sp)
    3eea:	ca4a                	c.swsp	s2,20(sp)
    3eec:	c84e                	c.swsp	s3,16(sp)
    3eee:	c652                	c.swsp	s4,12(sp)
    3ef0:	c456                	c.swsp	s5,8(sp)
    3ef2:	4f85                	c.li	t6,1
    3ef4:	c25a                	c.swsp	s6,4(sp)
    3ef6:	5282                	c.lwsp	t0,32(sp)
    3ef8:	5392                	c.lwsp	t2,36(sp)
    3efa:	5422                	c.lwsp	s0,40(sp)
    3efc:	832e                	c.mv	t1,a1
    3efe:	84aa                	c.mv	s1,a0
    3f00:	8932                	c.mv	s2,a2
    3f02:	8eb6                	c.mv	t4,a3
    3f04:	89ba                	c.mv	s3,a4
    3f06:	8f3e                	c.mv	t5,a5
    3f08:	8a42                	c.mv	s4,a6
    3f0a:	8ac6                	c.mv	s5,a7
    3f0c:	01fe1663          	bne	t3,t6,3f18 <riscv_depthwise_conv_wrapper_s8+0x38>
    3f10:	0006af83          	lw	t6,0(a3)
    3f14:	03cf8863          	beq	t6,t3,3f44 <riscv_depthwise_conv_wrapper_s8+0x64>
    3f18:	d422                	c.swsp	s0,40(sp)
    3f1a:	4472                	c.lwsp	s0,28(sp)
    3f1c:	4b12                	c.lwsp	s6,4(sp)
    3f1e:	d21e                	c.swsp	t2,36(sp)
    3f20:	d016                	c.swsp	t0,32(sp)
    3f22:	88d6                	c.mv	a7,s5
    3f24:	8852                	c.mv	a6,s4
    3f26:	4aa2                	c.lwsp	s5,8(sp)
    3f28:	4a32                	c.lwsp	s4,12(sp)
    3f2a:	874e                	c.mv	a4,s3
    3f2c:	864a                	c.mv	a2,s2
    3f2e:	49c2                	c.lwsp	s3,16(sp)
    3f30:	4952                	c.lwsp	s2,20(sp)
    3f32:	8526                	c.mv	a0,s1
    3f34:	44e2                	c.lwsp	s1,24(sp)
    3f36:	87fa                	c.mv	a5,t5
    3f38:	86f6                	c.mv	a3,t4
    3f3a:	859a                	c.mv	a1,t1
    3f3c:	02010113          	addi	sp,sp,32
    3f40:	5000106f          	j	5440 <riscv_depthwise_conv_s8>
    3f44:	01c5ae03          	lw	t3,28(a1)
    3f48:	fdfe18e3          	bne	t3,t6,3f18 <riscv_depthwise_conv_wrapper_s8+0x38>
    3f4c:	0205af83          	lw	t6,32(a1)
    3f50:	fdcf94e3          	bne	t6,t3,3f18 <riscv_depthwise_conv_wrapper_s8+0x38>
    3f54:	0087ae03          	lw	t3,8(a5)
    3f58:	00300b13          	li	s6,3
    3f5c:	016e1663          	bne	t3,s6,3f68 <riscv_depthwise_conv_wrapper_s8+0x88>
    3f60:	0047ab03          	lw	s6,4(a5)
    3f64:	03cb0863          	beq	s6,t3,3f94 <riscv_depthwise_conv_wrapper_s8+0xb4>
    3f68:	d422                	c.swsp	s0,40(sp)
    3f6a:	4472                	c.lwsp	s0,28(sp)
    3f6c:	4b12                	c.lwsp	s6,4(sp)
    3f6e:	d21e                	c.swsp	t2,36(sp)
    3f70:	d016                	c.swsp	t0,32(sp)
    3f72:	88d6                	c.mv	a7,s5
    3f74:	8852                	c.mv	a6,s4
    3f76:	4aa2                	c.lwsp	s5,8(sp)
    3f78:	4a32                	c.lwsp	s4,12(sp)
    3f7a:	874e                	c.mv	a4,s3
    3f7c:	864a                	c.mv	a2,s2
    3f7e:	49c2                	c.lwsp	s3,16(sp)
    3f80:	4952                	c.lwsp	s2,20(sp)
    3f82:	8526                	c.mv	a0,s1
    3f84:	44e2                	c.lwsp	s1,24(sp)
    3f86:	87fa                	c.mv	a5,t5
    3f88:	86f6                	c.mv	a3,t4
    3f8a:	859a                	c.mv	a1,t1
    3f8c:	02010113          	addi	sp,sp,32
    3f90:	1190106f          	j	58a8 <riscv_depthwise_conv_s8_opt>
    3f94:	0185ae03          	lw	t3,24(a1)
    3f98:	fdcfc8e3          	blt	t6,t3,3f68 <riscv_depthwise_conv_wrapper_s8+0x88>
    3f9c:	0145ae03          	lw	t3,20(a1)
    3fa0:	fdcfc4e3          	blt	t6,t3,3f68 <riscv_depthwise_conv_wrapper_s8+0x88>
    3fa4:	4472                	c.lwsp	s0,28(sp)
    3fa6:	44e2                	c.lwsp	s1,24(sp)
    3fa8:	4952                	c.lwsp	s2,20(sp)
    3faa:	49c2                	c.lwsp	s3,16(sp)
    3fac:	4a32                	c.lwsp	s4,12(sp)
    3fae:	4aa2                	c.lwsp	s5,8(sp)
    3fb0:	4b12                	c.lwsp	s6,4(sp)
    3fb2:	6105                	c.addi16sp	sp,32
    3fb4:	7d50106f          	j	5f88 <riscv_depthwise_conv_3x3_s8>

00003fb8 <riscv_convolve_1_x_n_s8>:
    3fb8:	0046a303          	lw	t1,4(a3)
    3fbc:	4f05                	c.li	t5,1
    3fbe:	05e31563          	bne	t1,t5,4008 <riscv_convolve_1_x_n_s8+0x50>
    3fc2:	0185af03          	lw	t5,24(a1)
    3fc6:	046f1163          	bne	t5,t1,4008 <riscv_convolve_1_x_n_s8+0x50>
    3fca:	00052303          	lw	t1,0(a0) # 40000000 <_DATA_LMA_START+0x1fff64f8>
    3fce:	02030d63          	beqz	t1,4008 <riscv_convolve_1_x_n_s8+0x50>
    3fd2:	0085a303          	lw	t1,8(a1)
    3fd6:	02030963          	beqz	t1,4008 <riscv_convolve_1_x_n_s8+0x50>
    3fda:	00c6ae03          	lw	t3,12(a3)
    3fde:	03c30333          	mul	t1,t1,t3
    3fe2:	00337313          	andi	t1,t1,3
    3fe6:	02031163          	bnez	t1,4008 <riscv_convolve_1_x_n_s8+0x50>
    3fea:	1101                	c.addi	sp,-32
    3fec:	5322                	c.lwsp	t1,40(sp)
    3fee:	ce06                	c.swsp	ra,28(sp)
    3ff0:	c61a                	c.swsp	t1,12(sp)
    3ff2:	5312                	c.lwsp	t1,36(sp)
    3ff4:	c202                	c.swsp	zero,4(sp)
    3ff6:	c41a                	c.swsp	t1,8(sp)
    3ff8:	5302                	c.lwsp	t1,32(sp)
    3ffa:	c01a                	c.swsp	t1,0(sp)
    3ffc:	b99fe0ef          	jal	ra,2b94 <riscv_convolve_s8>
    4000:	40f2                	c.lwsp	ra,28(sp)
    4002:	6105                	c.addi16sp	sp,32
    4004:	00008067          	ret
    4008:	557d                	c.li	a0,-1
    400a:	8082                	c.jr	ra

0000400c <riscv_nn_mat_mult_nt_t_s8>:
    400c:	7101                	c.addi16sp	sp,-512
    400e:	1f412623          	sw	s4,492(sp)
    4012:	1f512423          	sw	s5,488(sp)
    4016:	1f612223          	sw	s6,484(sp)
    401a:	8ac6                	c.mv	s5,a7
    401c:	1f712023          	sw	s7,480(sp)
    4020:	4885                	c.li	a7,1
    4022:	1e812e23          	sw	s0,508(sp)
    4026:	1e912c23          	sw	s1,504(sp)
    402a:	1f212a23          	sw	s2,500(sp)
    402e:	1f312823          	sw	s3,496(sp)
    4032:	1d812e23          	sw	s8,476(sp)
    4036:	1d912c23          	sw	s9,472(sp)
    403a:	1da12a23          	sw	s10,468(sp)
    403e:	1db12823          	sw	s11,464(sp)
    4042:	14c12823          	sw	a2,336(sp)
    4046:	8b2a                	c.mv	s6,a0
    4048:	8a36                	c.mv	s4,a3
    404a:	853e                	c.mv	a0,a5
    404c:	20412b83          	lw	s7,516(sp)
    4050:	86ba                	c.mv	a3,a4
    4052:	87c2                	c.mv	a5,a6
    4054:	3f58d0e3          	bge	a7,s5,4c34 <riscv_nn_mat_mult_nt_t_s8+0xc28>
    4058:	40185713          	srai	a4,a6,0x1
    405c:	03570eb3          	mul	t4,a4,s5
    4060:	14e12c23          	sw	a4,344(sp)
    4064:	20012703          	lw	a4,512(sp)
    4068:	20012283          	lw	t0,512(sp)
    406c:	1741                	c.addi	a4,-16
    406e:	9b41                	c.andi	a4,-16
    4070:	0741                	c.addi	a4,16
    4072:	deba                	c.swsp	a4,124(sp)
    4074:	001e9713          	slli	a4,t4,0x1
    4078:	1ae12823          	sw	a4,432(sp)
    407c:	ffd28713          	addi	a4,t0,-3
    4080:	21812803          	lw	a6,536(sp)
    4084:	10e12223          	sw	a4,260(sp)
    4088:	21812703          	lw	a4,536(sp)
    408c:	ffea8893          	addi	a7,s5,-2
    4090:	0711                	c.addi	a4,4
    4092:	20012303          	lw	t1,512(sp)
    4096:	0806                	c.slli	a6,0x1
    4098:	40580833          	sub	a6,a6,t0
    409c:	ffe8fe13          	andi	t3,a7,-2
    40a0:	d2ba                	c.swsp	a4,100(sp)
    40a2:	21812703          	lw	a4,536(sp)
    40a6:	0311                	c.addi	t1,4
    40a8:	8cb2                	c.mv	s9,a2
    40aa:	11012423          	sw	a6,264(sp)
    40ae:	014e0633          	add	a2,t3,s4
    40b2:	0017f813          	andi	a6,a5,1
    40b6:	00870393          	addi	t2,a4,8 # 40000008 <_DATA_LMA_START+0x1fff6500>
    40ba:	8c52                	c.mv	s8,s4
    40bc:	932e                	c.add	t1,a1
    40be:	1771                	c.addi	a4,-4
    40c0:	15012e23          	sw	a6,348(sp)
    40c4:	16c12023          	sw	a2,352(sp)
    40c8:	00129813          	slli	a6,t0,0x1
    40cc:	001a9613          	slli	a2,s5,0x1
    40d0:	1cf12623          	sw	a5,460(sp)
    40d4:	20012783          	lw	a5,512(sp)
    40d8:	15612a23          	sw	s6,340(sp)
    40dc:	1b012a23          	sw	a6,436(sp)
    40e0:	ddb6                	c.swsp	a3,248(sp)
    40e2:	dbaa                	c.swsp	a0,244(sp)
    40e4:	df9a                	c.swsp	t1,252(sp)
    40e6:	10c12623          	sw	a2,268(sp)
    40ea:	d5ae                	c.swsp	a1,232(sp)
    40ec:	d0ba                	c.swsp	a4,96(sp)
    40ee:	1b112c23          	sw	a7,440(sp)
    40f2:	1ab12e23          	sw	a1,444(sp)
    40f6:	1d412023          	sw	s4,448(sp)
    40fa:	1cd12223          	sw	a3,452(sp)
    40fe:	1ca12423          	sw	a0,456(sp)
    4102:	17512223          	sw	s5,356(sp)
    4106:	d49e                	c.swsp	t2,104(sp)
    4108:	d6e2                	c.swsp	s8,108(sp)
    410a:	12f1                	c.addi	t0,-4
    410c:	01000b33          	add	s6,zero,a6
    4110:	64f05c63          	blez	a5,4768 <riscv_nn_mat_mult_nt_t_s8+0x75c>
    4114:	562e                	c.lwsp	a2,232(sp)
    4116:	85be                	c.mv	a1,a5
    4118:	4701                	c.li	a4,0
    411a:	87b2                	c.mv	a5,a2
    411c:	4681                	c.li	a3,0
    411e:	00b60533          	add	a0,a2,a1
    4122:	882e                	c.mv	a6,a1
    4124:	01078633          	add	a2,a5,a6
    4128:	00078583          	lb	a1,0(a5)
    412c:	00060603          	lb	a2,0(a2)
    4130:	0785                	c.addi	a5,1
    4132:	96ae                	c.add	a3,a1
    4134:	9732                	c.add	a4,a2
    4136:	fef517e3          	bne	a0,a5,4124 <riscv_nn_mat_mult_nt_t_s8+0x118>
    413a:	02db87b3          	mul	a5,s7,a3
    413e:	d9be                	c.swsp	a5,240(sp)
    4140:	02eb87b3          	mul	a5,s7,a4
    4144:	0ef12623          	sw	a5,236(sp)
    4148:	15012783          	lw	a5,336(sp)
    414c:	cf81                	c.beqz	a5,4164 <riscv_nn_mat_mult_nt_t_s8+0x158>
    414e:	56ce                	c.lwsp	a3,240(sp)
    4150:	000ca703          	lw	a4,0(s9)
    4154:	004ca783          	lw	a5,4(s9)
    4158:	9736                	c.add	a4,a3
    415a:	d9ba                	c.swsp	a4,240(sp)
    415c:	573e                	c.lwsp	a4,236(sp)
    415e:	97ba                	c.add	a5,a4
    4160:	0ef12623          	sw	a5,236(sp)
    4164:	15812783          	lw	a5,344(sp)
    4168:	3c0788e3          	beqz	a5,4d38 <riscv_nn_mat_mult_nt_t_s8+0xd2c>
    416c:	16412703          	lw	a4,356(sp)
    4170:	56f6                	c.lwsp	a3,124(sp)
    4172:	9762                	c.add	a4,s8
    4174:	d8ba                	c.swsp	a4,112(sp)
    4176:	572e                	c.lwsp	a4,232(sp)
    4178:	15412583          	lw	a1,340(sp)
    417c:	9736                	c.add	a4,a3
    417e:	14e12023          	sw	a4,320(sp)
    4182:	dcbe                	c.swsp	a5,120(sp)
    4184:	15612223          	sw	s6,324(sp)
    4188:	15912423          	sw	s9,328(sp)
    418c:	15812623          	sw	s8,332(sp)
    4190:	21712223          	sw	s7,516(sp)
    4194:	10512023          	sw	t0,256(sp)
    4198:	20012783          	lw	a5,512(sp)
    419c:	473d                	c.li	a4,15
    419e:	5cf75b63          	bge	a4,a5,4774 <riscv_nn_mat_mult_nt_t_s8+0x768>
    41a2:	57f6                	c.lwsp	a5,124(sp)
    41a4:	573e                	c.lwsp	a4,236(sp)
    41a6:	00f58533          	add	a0,a1,a5
    41aa:	582e                	c.lwsp	a6,232(sp)
    41ac:	57ce                	c.lwsp	a5,240(sp)
    41ae:	58fe                	c.lwsp	a7,252(sp)
    41b0:	863a                	c.mv	a2,a4
    41b2:	86be                	c.mv	a3,a5
    41b4:	873e                	c.mv	a4,a5
    41b6:	ceaa                	c.swsp	a0,92(sp)
    41b8:	87b2                	c.mv	a5,a2
    41ba:	852e                	c.mv	a0,a1
    41bc:	85c2                	c.mv	a1,a6
    41be:	8846                	c.mv	a6,a7
    41c0:	c47a                	c.swsp	t5,8(sp)
    41c2:	c67e                	c.swsp	t6,12(sp)
    41c4:	0005a303          	lw	t1,0(a1)
    41c8:	ac9303ff          	sunpkd820	t2,t1
    41cc:	00052283          	lw	t0,0(a0)
    41d0:	ac928e7f          	sunpkd820	t3,t0
    41d4:	ffc80893          	addi	a7,a6,-4
    41d8:	0008a883          	lw	a7,0(a7)
    41dc:	891a                	c.mv	s2,t1
    41de:	899a                	c.mv	s3,t1
    41e0:	de89037f          	wexti	t1,s2,8
    41e4:	ac93037f          	sunpkd820	t1,t1
    41e8:	8d16                	c.mv	s10,t0
    41ea:	8d96                	c.mv	s11,t0
    41ec:	de8d02ff          	wexti	t0,s10,8
    41f0:	ac9282ff          	sunpkd820	t0,t0
    41f4:	487e16ff          	kmada	a3,t3,t2
    41f8:	ac988eff          	sunpkd820	t4,a7
    41fc:	486296ff          	kmada	a3,t0,t1
    4200:	8446                	c.mv	s0,a7
    4202:	84c6                	c.mv	s1,a7
    4204:	de8408ff          	wexti	a7,s0,8
    4208:	ac9888ff          	sunpkd820	a7,a7
    420c:	49de167f          	kmada	a2,t3,t4
    4210:	4912967f          	kmada	a2,t0,a7
    4214:	21812e03          	lw	t3,536(sp)
    4218:	01c502b3          	add	t0,a0,t3
    421c:	0002a283          	lw	t0,0(t0)
    4220:	ac928e7f          	sunpkd820	t3,t0
    4224:	c416                	c.swsp	t0,8(sp)
    4226:	c616                	c.swsp	t0,12(sp)
    4228:	4f22                	c.lwsp	t5,8(sp)
    422a:	4fb2                	c.lwsp	t6,12(sp)
    422c:	de8f02ff          	wexti	t0,t5,8
    4230:	ac9282ff          	sunpkd820	t0,t0
    4234:	487e177f          	kmada	a4,t3,t2
    4238:	49de17ff          	kmada	a5,t3,t4
    423c:	4862977f          	kmada	a4,t0,t1
    4240:	00458313          	addi	t1,a1,4
    4244:	00032303          	lw	t1,0(t1)
    4248:	491297ff          	kmada	a5,t0,a7
    424c:	00082883          	lw	a7,0(a6)
    4250:	ac9303ff          	sunpkd820	t2,t1
    4254:	00450293          	addi	t0,a0,4
    4258:	0002a283          	lw	t0,0(t0)
    425c:	ac928e7f          	sunpkd820	t3,t0
    4260:	c81a                	c.swsp	t1,16(sp)
    4262:	ca1a                	c.swsp	t1,20(sp)
    4264:	4f42                	c.lwsp	t5,16(sp)
    4266:	4fd2                	c.lwsp	t6,20(sp)
    4268:	de8f037f          	wexti	t1,t5,8
    426c:	ac93037f          	sunpkd820	t1,t1
    4270:	cc16                	c.swsp	t0,24(sp)
    4272:	ce16                	c.swsp	t0,28(sp)
    4274:	4f62                	c.lwsp	t5,24(sp)
    4276:	4ff2                	c.lwsp	t6,28(sp)
    4278:	de8f02ff          	wexti	t0,t5,8
    427c:	ac9282ff          	sunpkd820	t0,t0
    4280:	487e16ff          	kmada	a3,t3,t2
    4284:	ac988eff          	sunpkd820	t4,a7
    4288:	486296ff          	kmada	a3,t0,t1
    428c:	d046                	c.swsp	a7,32(sp)
    428e:	d246                	c.swsp	a7,36(sp)
    4290:	5f02                	c.lwsp	t5,32(sp)
    4292:	5f92                	c.lwsp	t6,36(sp)
    4294:	de8f08ff          	wexti	a7,t5,8
    4298:	ac9888ff          	sunpkd820	a7,a7
    429c:	49de167f          	kmada	a2,t3,t4
    42a0:	4912967f          	kmada	a2,t0,a7
    42a4:	5e16                	c.lwsp	t3,100(sp)
    42a6:	01c502b3          	add	t0,a0,t3
    42aa:	0002a283          	lw	t0,0(t0)
    42ae:	ac928e7f          	sunpkd820	t3,t0
    42b2:	8c16                	c.mv	s8,t0
    42b4:	8c96                	c.mv	s9,t0
    42b6:	de8c02ff          	wexti	t0,s8,8
    42ba:	ac9282ff          	sunpkd820	t0,t0
    42be:	487e177f          	kmada	a4,t3,t2
    42c2:	49de17ff          	kmada	a5,t3,t4
    42c6:	4862977f          	kmada	a4,t0,t1
    42ca:	00858313          	addi	t1,a1,8
    42ce:	00032303          	lw	t1,0(t1)
    42d2:	491297ff          	kmada	a5,t0,a7
    42d6:	00480293          	addi	t0,a6,4
    42da:	0002a883          	lw	a7,0(t0)
    42de:	ac9303ff          	sunpkd820	t2,t1
    42e2:	00850293          	addi	t0,a0,8
    42e6:	0002a283          	lw	t0,0(t0)
    42ea:	ac928e7f          	sunpkd820	t3,t0
    42ee:	8b1a                	c.mv	s6,t1
    42f0:	8b9a                	c.mv	s7,t1
    42f2:	de8b037f          	wexti	t1,s6,8
    42f6:	ac93037f          	sunpkd820	t1,t1
    42fa:	8a16                	c.mv	s4,t0
    42fc:	8a96                	c.mv	s5,t0
    42fe:	de8a02ff          	wexti	t0,s4,8
    4302:	ac9282ff          	sunpkd820	t0,t0
    4306:	487e16ff          	kmada	a3,t3,t2
    430a:	ac988eff          	sunpkd820	t4,a7
    430e:	486296ff          	kmada	a3,t0,t1
    4312:	d446                	c.swsp	a7,40(sp)
    4314:	d646                	c.swsp	a7,44(sp)
    4316:	5f22                	c.lwsp	t5,40(sp)
    4318:	5fb2                	c.lwsp	t6,44(sp)
    431a:	de8f08ff          	wexti	a7,t5,8
    431e:	ac9888ff          	sunpkd820	a7,a7
    4322:	49de167f          	kmada	a2,t3,t4
    4326:	4912967f          	kmada	a2,t0,a7
    432a:	5e26                	c.lwsp	t3,104(sp)
    432c:	01c502b3          	add	t0,a0,t3
    4330:	0002a283          	lw	t0,0(t0)
    4334:	ac928e7f          	sunpkd820	t3,t0
    4338:	d816                	c.swsp	t0,48(sp)
    433a:	da16                	c.swsp	t0,52(sp)
    433c:	5f42                	c.lwsp	t5,48(sp)
    433e:	5fd2                	c.lwsp	t6,52(sp)
    4340:	de8f02ff          	wexti	t0,t5,8
    4344:	ac9282ff          	sunpkd820	t0,t0
    4348:	487e177f          	kmada	a4,t3,t2
    434c:	49de17ff          	kmada	a5,t3,t4
    4350:	4862977f          	kmada	a4,t0,t1
    4354:	00c58313          	addi	t1,a1,12
    4358:	00032303          	lw	t1,0(t1)
    435c:	05c1                	c.addi	a1,16
    435e:	491297ff          	kmada	a5,t0,a7
    4362:	00880293          	addi	t0,a6,8
    4366:	0002a883          	lw	a7,0(t0)
    436a:	ac930eff          	sunpkd820	t4,t1
    436e:	00c50293          	addi	t0,a0,12
    4372:	0002a283          	lw	t0,0(t0)
    4376:	0541                	c.addi	a0,16
    4378:	ac9283ff          	sunpkd820	t2,t0
    437c:	dc1a                	c.swsp	t1,56(sp)
    437e:	de1a                	c.swsp	t1,60(sp)
    4380:	5f62                	c.lwsp	t5,56(sp)
    4382:	5ff2                	c.lwsp	t6,60(sp)
    4384:	de8f037f          	wexti	t1,t5,8
    4388:	ac93037f          	sunpkd820	t1,t1
    438c:	c096                	c.swsp	t0,64(sp)
    438e:	c296                	c.swsp	t0,68(sp)
    4390:	4f06                	c.lwsp	t5,64(sp)
    4392:	4f96                	c.lwsp	t6,68(sp)
    4394:	de8f02ff          	wexti	t0,t5,8
    4398:	ac9282ff          	sunpkd820	t0,t0
    439c:	49d396ff          	kmada	a3,t2,t4
    43a0:	ac988e7f          	sunpkd820	t3,a7
    43a4:	486296ff          	kmada	a3,t0,t1
    43a8:	c4c6                	c.swsp	a7,72(sp)
    43aa:	c6c6                	c.swsp	a7,76(sp)
    43ac:	4f26                	c.lwsp	t5,72(sp)
    43ae:	4fb6                	c.lwsp	t6,76(sp)
    43b0:	de8f08ff          	wexti	a7,t5,8
    43b4:	ac9888ff          	sunpkd820	a7,a7
    43b8:	49c3967f          	kmada	a2,t2,t3
    43bc:	4912967f          	kmada	a2,t0,a7
    43c0:	5f06                	c.lwsp	t5,96(sp)
    43c2:	01e502b3          	add	t0,a0,t5
    43c6:	0002a283          	lw	t0,0(t0)
    43ca:	ac9283ff          	sunpkd820	t2,t0
    43ce:	c896                	c.swsp	t0,80(sp)
    43d0:	ca96                	c.swsp	t0,84(sp)
    43d2:	4f46                	c.lwsp	t5,80(sp)
    43d4:	4fd6                	c.lwsp	t6,84(sp)
    43d6:	de8f02ff          	wexti	t0,t5,8
    43da:	ac9282ff          	sunpkd820	t0,t0
    43de:	49d3977f          	kmada	a4,t2,t4
    43e2:	49c397ff          	kmada	a5,t2,t3
    43e6:	4862977f          	kmada	a4,t0,t1
    43ea:	491297ff          	kmada	a5,t0,a7
    43ee:	48f6                	c.lwsp	a7,92(sp)
    43f0:	0841                	c.addi	a6,16
    43f2:	dd1519e3          	bne	a0,a7,41c4 <riscv_nn_mat_mult_nt_t_s8+0x1b8>
    43f6:	85b2                	c.mv	a1,a2
    43f8:	c55a                	c.swsp	s6,136(sp)
    43fa:	c75e                	c.swsp	s7,140(sp)
    43fc:	4f22                	c.lwsp	t5,8(sp)
    43fe:	4fb2                	c.lwsp	t6,12(sp)
    4400:	14012b83          	lw	s7,320(sp)
    4404:	5b76                	c.lwsp	s6,124(sp)
    4406:	863e                	c.mv	a2,a5
    4408:	8546                	c.mv	a0,a7
    440a:	87b6                	c.mv	a5,a3
    440c:	86ba                	c.mv	a3,a4
    440e:	872e                	c.mv	a4,a1
    4410:	c162                	c.swsp	s8,128(sp)
    4412:	c366                	c.swsp	s9,132(sp)
    4414:	c952                	c.swsp	s4,144(sp)
    4416:	cb56                	c.swsp	s5,148(sp)
    4418:	10412583          	lw	a1,260(sp)
    441c:	34bb5a63          	bge	s6,a1,4770 <riscv_nn_mat_mult_nt_t_s8+0x764>
    4420:	10012803          	lw	a6,256(sp)
    4424:	d3fe                	c.swsp	t6,228(sp)
    4426:	41680c33          	sub	s8,a6,s6
    442a:	002c5c13          	srli	s8,s8,0x2
    442e:	001c0c93          	addi	s9,s8,1
    4432:	0c8a                	c.slli	s9,0x2
    4434:	019505b3          	add	a1,a0,s9
    4438:	5f86                	c.lwsp	t6,96(sp)
    443a:	c7ce                	c.swsp	s3,204(sp)
    443c:	cfa6                	c.swsp	s1,220(sp)
    443e:	89c2                	c.mv	s3,a6
    4440:	84ae                	c.mv	s1,a1
    4442:	85de                	c.mv	a1,s7
    4444:	c45a                	c.swsp	s6,8(sp)
    4446:	cede                	c.swsp	s7,92(sp)
    4448:	dd66                	c.swsp	s9,184(sp)
    444a:	c1e2                	c.swsp	s8,192(sp)
    444c:	c5ca                	c.swsp	s2,200(sp)
    444e:	c9ea                	c.swsp	s10,208(sp)
    4450:	cbee                	c.swsp	s11,212(sp)
    4452:	cda2                	c.swsp	s0,216(sp)
    4454:	0fe12023          	sw	t5,224(sp)
    4458:	0005a303          	lw	t1,0(a1)
    445c:	0591                	c.addi	a1,4
    445e:	ac9302ff          	sunpkd820	t0,t1
    4462:	00052803          	lw	a6,0(a0)
    4466:	0511                	c.addi	a0,4
    4468:	ac980dff          	sunpkd820	s11,a6
    446c:	013588b3          	add	a7,a1,s3
    4470:	0008a883          	lw	a7,0(a7)
    4474:	8e1a                	c.mv	t3,t1
    4476:	8e9a                	c.mv	t4,t1
    4478:	de8e03ff          	wexti	t2,t3,8
    447c:	ac9383ff          	sunpkd820	t2,t2
    4480:	8a42                	c.mv	s4,a6
    4482:	8ac2                	c.mv	s5,a6
    4484:	de8a087f          	wexti	a6,s4,8
    4488:	ac98087f          	sunpkd820	a6,a6
    448c:	485d97ff          	kmada	a5,s11,t0
    4490:	ac98837f          	sunpkd820	t1,a7
    4494:	487817ff          	kmada	a5,a6,t2
    4498:	8b46                	c.mv	s6,a7
    449a:	8bc6                	c.mv	s7,a7
    449c:	de8b08ff          	wexti	a7,s6,8
    44a0:	ac9888ff          	sunpkd820	a7,a7
    44a4:	486d977f          	kmada	a4,s11,t1
    44a8:	4918177f          	kmada	a4,a6,a7
    44ac:	01f50833          	add	a6,a0,t6
    44b0:	00082803          	lw	a6,0(a6)
    44b4:	ac980dff          	sunpkd820	s11,a6
    44b8:	8c42                	c.mv	s8,a6
    44ba:	8cc2                	c.mv	s9,a6
    44bc:	de8c087f          	wexti	a6,s8,8
    44c0:	ac98087f          	sunpkd820	a6,a6
    44c4:	485d96ff          	kmada	a3,s11,t0
    44c8:	486d967f          	kmada	a2,s11,t1
    44cc:	487816ff          	kmada	a3,a6,t2
    44d0:	4918167f          	kmada	a2,a6,a7
    44d4:	f89512e3          	bne	a0,s1,4458 <riscv_nn_mat_mult_nt_t_s8+0x44c>
    44d8:	d55a                	c.swsp	s6,168(sp)
    44da:	d962                	c.swsp	s8,176(sp)
    44dc:	4b22                	c.lwsp	s6,8(sp)
    44de:	4c0e                	c.lwsp	s8,192(sp)
    44e0:	d75e                	c.swsp	s7,172(sp)
    44e2:	db66                	c.swsp	s9,180(sp)
    44e4:	4bf6                	c.lwsp	s7,92(sp)
    44e6:	5cea                	c.lwsp	s9,184(sp)
    44e8:	85a6                	c.mv	a1,s1
    44ea:	0b11                	c.addi	s6,4
    44ec:	0c0a                	c.slli	s8,0x2
    44ee:	492e                	c.lwsp	s2,200(sp)
    44f0:	49be                	c.lwsp	s3,204(sp)
    44f2:	4d4e                	c.lwsp	s10,208(sp)
    44f4:	4dde                	c.lwsp	s11,212(sp)
    44f6:	446e                	c.lwsp	s0,216(sp)
    44f8:	44fe                	c.lwsp	s1,220(sp)
    44fa:	5f0e                	c.lwsp	t5,224(sp)
    44fc:	5f9e                	c.lwsp	t6,228(sp)
    44fe:	9b62                	c.add	s6,s8
    4500:	9be6                	c.add	s7,s9
    4502:	cd72                	c.swsp	t3,152(sp)
    4504:	cf76                	c.swsp	t4,156(sp)
    4506:	d152                	c.swsp	s4,160(sp)
    4508:	0b512223          	sw	s5,164(sp)
    450c:	20012503          	lw	a0,512(sp)
    4510:	0aab5a63          	bge	s6,a0,45c4 <riscv_nn_mat_mult_nt_t_s8+0x5b8>
    4514:	00ab8833          	add	a6,s7,a0
    4518:	832a                	c.mv	t1,a0
    451a:	21812503          	lw	a0,536(sp)
    451e:	00080883          	lb	a7,0(a6)
    4522:	952e                	c.add	a0,a1
    4524:	00058c03          	lb	s8,0(a1)
    4528:	00050e03          	lb	t3,0(a0)
    452c:	000b8e83          	lb	t4,0(s7)
    4530:	c588977f          	maddr32	a4,a7,s8
    4534:	c51e167f          	maddr32	a2,t3,a7
    4538:	001b0893          	addi	a7,s6,1
    453c:	c58e97ff          	maddr32	a5,t4,s8
    4540:	c5de16ff          	maddr32	a3,t3,t4
    4544:	0668da63          	bge	a7,t1,45b8 <riscv_nn_mat_mult_nt_t_s8+0x5ac>
    4548:	00180883          	lb	a7,1(a6)
    454c:	00158c03          	lb	s8,1(a1)
    4550:	00150e03          	lb	t3,1(a0)
    4554:	001b8e83          	lb	t4,1(s7)
    4558:	c588977f          	maddr32	a4,a7,s8
    455c:	c51e167f          	maddr32	a2,t3,a7
    4560:	002b0893          	addi	a7,s6,2
    4564:	c58e97ff          	maddr32	a5,t4,s8
    4568:	c5de16ff          	maddr32	a3,t3,t4
    456c:	0468d663          	bge	a7,t1,45b8 <riscv_nn_mat_mult_nt_t_s8+0x5ac>
    4570:	00280883          	lb	a7,2(a6)
    4574:	00258c03          	lb	s8,2(a1)
    4578:	00250e03          	lb	t3,2(a0)
    457c:	002b8e83          	lb	t4,2(s7)
    4580:	c588977f          	maddr32	a4,a7,s8
    4584:	c51e167f          	maddr32	a2,t3,a7
    4588:	003b0893          	addi	a7,s6,3
    458c:	c58e97ff          	maddr32	a5,t4,s8
    4590:	c5de16ff          	maddr32	a3,t3,t4
    4594:	0268d263          	bge	a7,t1,45b8 <riscv_nn_mat_mult_nt_t_s8+0x5ac>
    4598:	00358883          	lb	a7,3(a1)
    459c:	003b8e03          	lb	t3,3(s7)
    45a0:	00380803          	lb	a6,3(a6)
    45a4:	00350503          	lb	a0,3(a0)
    45a8:	c5c897ff          	maddr32	a5,a7,t3
    45ac:	c508977f          	maddr32	a4,a7,a6
    45b0:	c4ae16ff          	maddr32	a3,t3,a0
    45b4:	c4a8167f          	maddr32	a2,a6,a0
    45b8:	20012503          	lw	a0,512(sp)
    45bc:	41650b33          	sub	s6,a0,s6
    45c0:	016585b3          	add	a1,a1,s6
    45c4:	555e                	c.lwsp	a0,244(sp)
    45c6:	4281                	c.li	t0,0
    45c8:	00052b03          	lw	s6,0(a0)
    45cc:	00452e83          	lw	t4,4(a0)
    45d0:	556e                	c.lwsp	a0,248(sp)
    45d2:	f25b0e7f          	maxw	t3,s6,t0
    45d6:	00052883          	lw	a7,0(a0)
    45da:	4148                	c.lw	a0,4(a0)
    45dc:	f25e887f          	maxw	a6,t4,t0
    45e0:	01c797b3          	sll	a5,a5,t3
    45e4:	01071733          	sll	a4,a4,a6
    45e8:	40000c37          	lui	s8,0x40000
    45ec:	4c81                	c.li	s9,0
    45ee:	40000337          	lui	t1,0x40000
    45f2:	4381                	c.li	t2,0
    45f4:	85179c7f          	smar64	s8,a5,a7
    45f8:	84a7137f          	smar64	t1,a4,a0
    45fc:	01c69e33          	sll	t3,a3,t3
    4600:	01061833          	sll	a6,a2,a6
    4604:	4681                	c.li	a3,0
    4606:	40000637          	lui	a2,0x40000
    460a:	40000737          	lui	a4,0x40000
    460e:	4781                	c.li	a5,0
    4610:	851e167f          	smar64	a2,t3,a7
    4614:	84a8177f          	smar64	a4,a6,a0
    4618:	41600b33          	neg	s6,s6
    461c:	41d00eb3          	neg	t4,t4
    4620:	f25b0b7f          	maxw	s6,s6,t0
    4624:	f25e8eff          	maxw	t4,t4,t0
    4628:	4505                	c.li	a0,1
    462a:	01651e33          	sll	t3,a0,s6
    462e:	01d518b3          	sll	a7,a0,t4
    4632:	dff6067f          	wexti	a2,a2,31
    4636:	dff3057f          	wexti	a0,t1,31
    463a:	dff7077f          	wexti	a4,a4,31
    463e:	dffc087f          	wexti	a6,s8,31
    4642:	1e7d                	c.addi	t3,-1
    4644:	18fd                	c.addi	a7,-1
    4646:	401e5b93          	srai	s7,t3,0x1
    464a:	4018d693          	srai	a3,a7,0x1
    464e:	00052793          	slti	a5,a0,0
    4652:	00082c13          	slti	s8,a6,0
    4656:	00062393          	slti	t2,a2,0
    465a:	00072a13          	slti	s4,a4,0
    465e:	018b8333          	add	t1,s7,s8
    4662:	00f682b3          	add	t0,a3,a5
    4666:	00a8fc33          	and	s8,a7,a0
    466a:	010e7cb3          	and	s9,t3,a6
    466e:	00e8f8b3          	and	a7,a7,a4
    4672:	00ce7e33          	and	t3,t3,a2
    4676:	96d2                	c.add	a3,s4
    4678:	9b9e                	c.add	s7,t2
    467a:	0116a8b3          	slt	a7,a3,a7
    467e:	416857b3          	sra	a5,a6,s6
    4682:	20812683          	lw	a3,520(sp)
    4686:	01932cb3          	slt	s9,t1,s9
    468a:	41d55533          	sra	a0,a0,t4
    468e:	0182ac33          	slt	s8,t0,s8
    4692:	41665633          	sra	a2,a2,s6
    4696:	01cbae33          	slt	t3,s7,t3
    469a:	41d75733          	sra	a4,a4,t4
    469e:	97e6                	c.add	a5,s9
    46a0:	9562                	c.add	a0,s8
    46a2:	9672                	c.add	a2,t3
    46a4:	9746                	c.add	a4,a7
    46a6:	97b6                	c.add	a5,a3
    46a8:	9536                	c.add	a0,a3
    46aa:	9636                	c.add	a2,a3
    46ac:	9736                	c.add	a4,a3
    46ae:	20c12683          	lw	a3,524(sp)
    46b2:	f2f687ff          	maxw	a5,a3,a5
    46b6:	f2a6857f          	maxw	a0,a3,a0
    46ba:	f2c6867f          	maxw	a2,a3,a2
    46be:	f2e6877f          	maxw	a4,a3,a4
    46c2:	21012683          	lw	a3,528(sp)
    46c6:	f0f687ff          	minw	a5,a3,a5
    46ca:	f0a6857f          	minw	a0,a3,a0
    46ce:	56b6                	c.lwsp	a3,108(sp)
    46d0:	00f68023          	sb	a5,0(a3)
    46d4:	00a680a3          	sb	a0,1(a3)
    46d8:	87b6                	c.mv	a5,a3
    46da:	21012683          	lw	a3,528(sp)
    46de:	f0c6867f          	minw	a2,a3,a2
    46e2:	f0e6877f          	minw	a4,a3,a4
    46e6:	56c6                	c.lwsp	a3,112(sp)
    46e8:	00c68023          	sb	a2,0(a3)
    46ec:	10c12603          	lw	a2,268(sp)
    46f0:	00e680a3          	sb	a4,1(a3)
    46f4:	97b2                	c.add	a5,a2
    46f6:	5766                	c.lwsp	a4,120(sp)
    46f8:	d6be                	c.swsp	a5,108(sp)
    46fa:	10812783          	lw	a5,264(sp)
    46fe:	177d                	c.addi	a4,-1
    4700:	95be                	c.add	a1,a5
    4702:	00c687b3          	add	a5,a3,a2
    4706:	dcba                	c.swsp	a4,120(sp)
    4708:	d8be                	c.swsp	a5,112(sp)
    470a:	a80717e3          	bnez	a4,4198 <riscv_nn_mat_mult_nt_t_s8+0x18c>
    470e:	14c12c03          	lw	s8,332(sp)
    4712:	1b012783          	lw	a5,432(sp)
    4716:	14412b03          	lw	s6,324(sp)
    471a:	14812c83          	lw	s9,328(sp)
    471e:	20412b83          	lw	s7,516(sp)
    4722:	10012283          	lw	t0,256(sp)
    4726:	97e2                	c.add	a5,s8
    4728:	06f12623          	sw	a5,108(sp)
    472c:	15c12783          	lw	a5,348(sp)
    4730:	04079a63          	bnez	a5,4784 <riscv_nn_mat_mult_nt_t_s8+0x778>
    4734:	576e                	c.lwsp	a4,248(sp)
    4736:	57ae                	c.lwsp	a5,232(sp)
    4738:	0721                	c.addi	a4,8
    473a:	ddba                	c.swsp	a4,248(sp)
    473c:	575e                	c.lwsp	a4,244(sp)
    473e:	97da                	c.add	a5,s6
    4740:	0721                	c.addi	a4,8
    4742:	dbba                	c.swsp	a4,244(sp)
    4744:	577e                	c.lwsp	a4,252(sp)
    4746:	d5be                	c.swsp	a5,232(sp)
    4748:	975a                	c.add	a4,s6
    474a:	dfba                	c.swsp	a4,252(sp)
    474c:	16012703          	lw	a4,352(sp)
    4750:	002c0793          	addi	a5,s8,2 # 40000002 <_DATA_LMA_START+0x1fff64fa>
    4754:	0ca1                	c.addi	s9,8
    4756:	4b870563          	beq	a4,s8,4c00 <riscv_nn_mat_mult_nt_t_s8+0xbf4>
    475a:	8c3e                	c.mv	s8,a5
    475c:	20012783          	lw	a5,512(sp)
    4760:	07812623          	sw	s8,108(sp)
    4764:	9af048e3          	bgtz	a5,4114 <riscv_nn_mat_mult_nt_t_s8+0x108>
    4768:	d782                	c.swsp	zero,236(sp)
    476a:	d982                	c.swsp	zero,240(sp)
    476c:	9ddff06f          	j	4148 <riscv_nn_mat_mult_nt_t_s8+0x13c>
    4770:	85aa                	c.mv	a1,a0
    4772:	bb69                	c.j	450c <riscv_nn_mat_mult_nt_t_s8+0x500>
    4774:	573e                	c.lwsp	a4,236(sp)
    4776:	57ce                	c.lwsp	a5,240(sp)
    4778:	5bae                	c.lwsp	s7,232(sp)
    477a:	852e                	c.mv	a0,a1
    477c:	863a                	c.mv	a2,a4
    477e:	86be                	c.mv	a3,a5
    4780:	4b01                	c.li	s6,0
    4782:	b959                	c.j	4418 <riscv_nn_mat_mult_nt_t_s8+0x40c>
    4784:	20012783          	lw	a5,512(sp)
    4788:	473d                	c.li	a4,15
    478a:	5af75f63          	bge	a4,a5,4d48 <riscv_nn_mat_mult_nt_t_s8+0xd3c>
    478e:	57f6                	c.lwsp	a5,124(sp)
    4790:	5e2e                	c.lwsp	t3,232(sp)
    4792:	00f58eb3          	add	t4,a1,a5
    4796:	c3ee                	c.swsp	s11,196(sp)
    4798:	cbfe                	c.swsp	t6,212(sp)
    479a:	57fe                	c.lwsp	a5,252(sp)
    479c:	5dbe                	c.lwsp	s11,236(sp)
    479e:	5fce                	c.lwsp	t6,240(sp)
    47a0:	df4e                	c.swsp	s3,188(sp)
    47a2:	c7a6                	c.swsp	s1,204(sp)
    47a4:	89f2                	c.mv	s3,t3
    47a6:	84ae                	c.mv	s1,a1
    47a8:	ceda                	c.swsp	s6,92(sp)
    47aa:	c476                	c.swsp	t4,8(sp)
    47ac:	dce6                	c.swsp	s9,120(sp)
    47ae:	d8e2                	c.swsp	s8,112(sp)
    47b0:	21712223          	sw	s7,516(sp)
    47b4:	dd4a                	c.swsp	s2,184(sp)
    47b6:	c1ea                	c.swsp	s10,192(sp)
    47b8:	c5a2                	c.swsp	s0,200(sp)
    47ba:	c9fa                	c.swsp	t5,208(sp)
    47bc:	0c512c23          	sw	t0,216(sp)
    47c0:	0009a603          	lw	a2,0(s3)
    47c4:	ffc78293          	addi	t0,a5,-4
    47c8:	0002a283          	lw	t0,0(t0)
    47cc:	4098                	c.lw	a4,0(s1)
    47ce:	ac96047f          	sunpkd820	s0,a2
    47d2:	ac9706ff          	sunpkd820	a3,a4
    47d6:	ac928f7f          	sunpkd820	t5,t0
    47da:	10c12823          	sw	a2,272(sp)
    47de:	10c12a23          	sw	a2,276(sp)
    47e2:	11012503          	lw	a0,272(sp)
    47e6:	11412583          	lw	a1,276(sp)
    47ea:	de85067f          	wexti	a2,a0,8
    47ee:	ac96067f          	sunpkd820	a2,a2
    47f2:	10e12c23          	sw	a4,280(sp)
    47f6:	10e12e23          	sw	a4,284(sp)
    47fa:	11812503          	lw	a0,280(sp)
    47fe:	11c12583          	lw	a1,284(sp)
    4802:	de85077f          	wexti	a4,a0,8
    4806:	ac97077f          	sunpkd820	a4,a4
    480a:	12512023          	sw	t0,288(sp)
    480e:	12512223          	sw	t0,292(sp)
    4812:	12012503          	lw	a0,288(sp)
    4816:	12412583          	lw	a1,292(sp)
    481a:	de8502ff          	wexti	t0,a0,8
    481e:	ac9282ff          	sunpkd820	t0,t0
    4822:	48869fff          	kmada	t6,a3,s0
    4826:	48c71fff          	kmada	t6,a4,a2
    482a:	49e69dff          	kmada	s11,a3,t5
    482e:	48571dff          	kmada	s11,a4,t0
    4832:	00498293          	addi	t0,s3,4
    4836:	0002a603          	lw	a2,0(t0)
    483a:	4398                	c.lw	a4,0(a5)
    483c:	00448293          	addi	t0,s1,4
    4840:	0002a283          	lw	t0,0(t0)
    4844:	ac9605ff          	sunpkd820	a1,a2
    4848:	ac9286ff          	sunpkd820	a3,t0
    484c:	ac97057f          	sunpkd820	a0,a4
    4850:	8c32                	c.mv	s8,a2
    4852:	8cb2                	c.mv	s9,a2
    4854:	de8c067f          	wexti	a2,s8,8
    4858:	ac96067f          	sunpkd820	a2,a2
    485c:	8b16                	c.mv	s6,t0
    485e:	8b96                	c.mv	s7,t0
    4860:	de8b02ff          	wexti	t0,s6,8
    4864:	ac9282ff          	sunpkd820	t0,t0
    4868:	8a3a                	c.mv	s4,a4
    486a:	8aba                	c.mv	s5,a4
    486c:	de8a077f          	wexti	a4,s4,8
    4870:	ac97077f          	sunpkd820	a4,a4
    4874:	48b69fff          	kmada	t6,a3,a1
    4878:	48c29fff          	kmada	t6,t0,a2
    487c:	48a69dff          	kmada	s11,a3,a0
    4880:	48e29dff          	kmada	s11,t0,a4
    4884:	00898293          	addi	t0,s3,8
    4888:	0002a603          	lw	a2,0(t0)
    488c:	00478293          	addi	t0,a5,4
    4890:	0002a283          	lw	t0,0(t0)
    4894:	00848713          	addi	a4,s1,8
    4898:	4318                	c.lw	a4,0(a4)
    489a:	ac96047f          	sunpkd820	s0,a2
    489e:	ac9706ff          	sunpkd820	a3,a4
    48a2:	ac928f7f          	sunpkd820	t5,t0
    48a6:	12c12423          	sw	a2,296(sp)
    48aa:	12c12623          	sw	a2,300(sp)
    48ae:	12812503          	lw	a0,296(sp)
    48b2:	12c12583          	lw	a1,300(sp)
    48b6:	de85067f          	wexti	a2,a0,8
    48ba:	ac96067f          	sunpkd820	a2,a2
    48be:	12e12823          	sw	a4,304(sp)
    48c2:	12e12a23          	sw	a4,308(sp)
    48c6:	13012503          	lw	a0,304(sp)
    48ca:	13412583          	lw	a1,308(sp)
    48ce:	de85077f          	wexti	a4,a0,8
    48d2:	ac97077f          	sunpkd820	a4,a4
    48d6:	12512c23          	sw	t0,312(sp)
    48da:	12512e23          	sw	t0,316(sp)
    48de:	13812503          	lw	a0,312(sp)
    48e2:	13c12583          	lw	a1,316(sp)
    48e6:	de8502ff          	wexti	t0,a0,8
    48ea:	ac9282ff          	sunpkd820	t0,t0
    48ee:	48869fff          	kmada	t6,a3,s0
    48f2:	48c71fff          	kmada	t6,a4,a2
    48f6:	49e69dff          	kmada	s11,a3,t5
    48fa:	48571dff          	kmada	s11,a4,t0
    48fe:	00c98293          	addi	t0,s3,12
    4902:	0002a603          	lw	a2,0(t0)
    4906:	09c1                	c.addi	s3,16
    4908:	00878293          	addi	t0,a5,8
    490c:	0002a283          	lw	t0,0(t0)
    4910:	00c48713          	addi	a4,s1,12
    4914:	4318                	c.lw	a4,0(a4)
    4916:	04c1                	c.addi	s1,16
    4918:	ac9605ff          	sunpkd820	a1,a2
    491c:	ac9706ff          	sunpkd820	a3,a4
    4920:	ac92857f          	sunpkd820	a0,t0
    4924:	8832                	c.mv	a6,a2
    4926:	88b2                	c.mv	a7,a2
    4928:	de88067f          	wexti	a2,a6,8
    492c:	ac96067f          	sunpkd820	a2,a2
    4930:	833a                	c.mv	t1,a4
    4932:	83ba                	c.mv	t2,a4
    4934:	de83077f          	wexti	a4,t1,8
    4938:	ac97077f          	sunpkd820	a4,a4
    493c:	8e16                	c.mv	t3,t0
    493e:	8e96                	c.mv	t4,t0
    4940:	de8e02ff          	wexti	t0,t3,8
    4944:	ac9282ff          	sunpkd820	t0,t0
    4948:	48b69fff          	kmada	t6,a3,a1
    494c:	48c71fff          	kmada	t6,a4,a2
    4950:	48a69dff          	kmada	s11,a3,a0
    4954:	48571dff          	kmada	s11,a4,t0
    4958:	4722                	c.lwsp	a4,8(sp)
    495a:	07c1                	c.addi	a5,16
    495c:	e6e492e3          	bne	s1,a4,47c0 <riscv_nn_mat_mult_nt_t_s8+0x7b4>
    4960:	57ae                	c.lwsp	a5,232(sp)
    4962:	55f6                	c.lwsp	a1,124(sp)
    4964:	d7ee                	c.swsp	s11,236(sp)
    4966:	d9fe                	c.swsp	t6,240(sp)
    4968:	17812423          	sw	s8,360(sp)
    496c:	17912623          	sw	s9,364(sp)
    4970:	17612823          	sw	s6,368(sp)
    4974:	17712a23          	sw	s7,372(sp)
    4978:	596a                	c.lwsp	s2,184(sp)
    497a:	59fa                	c.lwsp	s3,188(sp)
    497c:	4d0e                	c.lwsp	s10,192(sp)
    497e:	4d9e                	c.lwsp	s11,196(sp)
    4980:	442e                	c.lwsp	s0,200(sp)
    4982:	44be                	c.lwsp	s1,204(sp)
    4984:	4f4e                	c.lwsp	t5,208(sp)
    4986:	4fde                	c.lwsp	t6,212(sp)
    4988:	5c46                	c.lwsp	s8,112(sp)
    498a:	5ce6                	c.lwsp	s9,120(sp)
    498c:	4b76                	c.lwsp	s6,92(sp)
    498e:	20412b83          	lw	s7,516(sp)
    4992:	42ee                	c.lwsp	t0,216(sp)
    4994:	19d12a23          	sw	t4,404(sp)
    4998:	00b78533          	add	a0,a5,a1
    499c:	00e00eb3          	add	t4,zero,a4
    49a0:	17412c23          	sw	s4,376(sp)
    49a4:	17512e23          	sw	s5,380(sp)
    49a8:	19012023          	sw	a6,384(sp)
    49ac:	19112223          	sw	a7,388(sp)
    49b0:	18612423          	sw	t1,392(sp)
    49b4:	18712623          	sw	t2,396(sp)
    49b8:	19c12823          	sw	t3,400(sp)
    49bc:	10412783          	lw	a5,260(sp)
    49c0:	38f5d263          	bge	a1,a5,4d44 <riscv_nn_mat_mult_nt_t_s8+0xd38>
    49c4:	40b287b3          	sub	a5,t0,a1
    49c8:	0027d613          	srli	a2,a5,0x2
    49cc:	00160793          	addi	a5,a2,1 # 40000001 <_DATA_LMA_START+0x1fff64f9>
    49d0:	00279813          	slli	a6,a5,0x2
    49d4:	010e88b3          	add	a7,t4,a6
    49d8:	dcb2                	c.swsp	a2,120(sp)
    49da:	c3a6                	c.swsp	s1,196(sp)
    49dc:	563e                	c.lwsp	a2,236(sp)
    49de:	84ae                	c.mv	s1,a1
    49e0:	55ce                	c.lwsp	a1,240(sp)
    49e2:	dace                	c.swsp	s3,116(sp)
    49e4:	df6e                	c.swsp	s11,188(sp)
    49e6:	c7fe                	c.swsp	t6,204(sp)
    49e8:	86aa                	c.mv	a3,a0
    49ea:	83c6                	c.mv	t2,a7
    49ec:	8ade                	c.mv	s5,s7
    49ee:	89aa                	c.mv	s3,a0
    49f0:	8de6                	c.mv	s11,s9
    49f2:	8fda                	c.mv	t6,s6
    49f4:	8a16                	c.mv	s4,t0
    49f6:	c462                	c.swsp	s8,8(sp)
    49f8:	cec2                	c.swsp	a6,92(sp)
    49fa:	d8ca                	c.swsp	s2,112(sp)
    49fc:	dd6a                	c.swsp	s10,184(sp)
    49fe:	c1a2                	c.swsp	s0,192(sp)
    4a00:	0de12423          	sw	t5,200(sp)
    4a04:	4288                	c.lw	a0,0(a3)
    4a06:	0691                	c.addi	a3,4
    4a08:	014687b3          	add	a5,a3,s4
    4a0c:	439c                	c.lw	a5,0(a5)
    4a0e:	000ea703          	lw	a4,0(t4)
    4a12:	0e91                	c.addi	t4,4
    4a14:	ac9502ff          	sunpkd820	t0,a0
    4a18:	ac970e7f          	sunpkd820	t3,a4
    4a1c:	ac97837f          	sunpkd820	t1,a5
    4a20:	882a                	c.mv	a6,a0
    4a22:	88aa                	c.mv	a7,a0
    4a24:	de88057f          	wexti	a0,a6,8
    4a28:	ac95057f          	sunpkd820	a0,a0
    4a2c:	8b3a                	c.mv	s6,a4
    4a2e:	8bba                	c.mv	s7,a4
    4a30:	de8b077f          	wexti	a4,s6,8
    4a34:	ac97077f          	sunpkd820	a4,a4
    4a38:	8c3e                	c.mv	s8,a5
    4a3a:	8cbe                	c.mv	s9,a5
    4a3c:	de8c07ff          	wexti	a5,s8,8
    4a40:	ac9787ff          	sunpkd820	a5,a5
    4a44:	485e15ff          	kmada	a1,t3,t0
    4a48:	48a715ff          	kmada	a1,a4,a0
    4a4c:	486e167f          	kmada	a2,t3,t1
    4a50:	48f7167f          	kmada	a2,a4,a5
    4a54:	fa7e98e3          	bne	t4,t2,4a04 <riscv_nn_mat_mult_nt_t_s8+0x9f8>
    4a58:	d7b2                	c.swsp	a2,236(sp)
    4a5a:	5666                	c.lwsp	a2,120(sp)
    4a5c:	d9ae                	c.swsp	a1,240(sp)
    4a5e:	19012c23          	sw	a6,408(sp)
    4a62:	85a6                	c.mv	a1,s1
    4a64:	4876                	c.lwsp	a6,92(sp)
    4a66:	854e                	c.mv	a0,s3
    4a68:	00458713          	addi	a4,a1,4
    4a6c:	00261793          	slli	a5,a2,0x2
    4a70:	1b612023          	sw	s6,416(sp)
    4a74:	1b812423          	sw	s8,424(sp)
    4a78:	8b7e                	c.mv	s6,t6
    4a7a:	1b912623          	sw	s9,428(sp)
    4a7e:	5946                	c.lwsp	s2,112(sp)
    4a80:	8cee                	c.mv	s9,s11
    4a82:	59d6                	c.lwsp	s3,116(sp)
    4a84:	440e                	c.lwsp	s0,192(sp)
    4a86:	449e                	c.lwsp	s1,196(sp)
    4a88:	4f2e                	c.lwsp	t5,200(sp)
    4a8a:	4fbe                	c.lwsp	t6,204(sp)
    4a8c:	4c22                	c.lwsp	s8,8(sp)
    4a8e:	5d6a                	c.lwsp	s10,184(sp)
    4a90:	5dfa                	c.lwsp	s11,188(sp)
    4a92:	19112e23          	sw	a7,412(sp)
    4a96:	1b712223          	sw	s7,420(sp)
    4a9a:	889e                	c.mv	a7,t2
    4a9c:	8bd6                	c.mv	s7,s5
    4a9e:	82d2                	c.mv	t0,s4
    4aa0:	00e785b3          	add	a1,a5,a4
    4aa4:	01050533          	add	a0,a0,a6
    4aa8:	20012783          	lw	a5,512(sp)
    4aac:	08f5da63          	bge	a1,a5,4b40 <riscv_nn_mat_mult_nt_t_s8+0xb34>
    4ab0:	00f50833          	add	a6,a0,a5
    4ab4:	00088703          	lb	a4,0(a7)
    4ab8:	534e                	c.lwsp	t1,240(sp)
    4aba:	5e3e                	c.lwsp	t3,236(sp)
    4abc:	00050603          	lb	a2,0(a0)
    4ac0:	00080683          	lb	a3,0(a6)
    4ac4:	00158793          	addi	a5,a1,1
    4ac8:	c4e6137f          	maddr32	t1,a2,a4
    4acc:	c4e69e7f          	maddr32	t3,a3,a4
    4ad0:	20012703          	lw	a4,512(sp)
    4ad4:	d99a                	c.swsp	t1,240(sp)
    4ad6:	d7f2                	c.swsp	t3,236(sp)
    4ad8:	06e7d463          	bge	a5,a4,4b40 <riscv_nn_mat_mult_nt_t_s8+0xb34>
    4adc:	00188703          	lb	a4,1(a7)
    4ae0:	00150603          	lb	a2,1(a0)
    4ae4:	00180683          	lb	a3,1(a6)
    4ae8:	00258793          	addi	a5,a1,2
    4aec:	c4e6137f          	maddr32	t1,a2,a4
    4af0:	c4e69e7f          	maddr32	t3,a3,a4
    4af4:	20012703          	lw	a4,512(sp)
    4af8:	d99a                	c.swsp	t1,240(sp)
    4afa:	d7f2                	c.swsp	t3,236(sp)
    4afc:	04e7d263          	bge	a5,a4,4b40 <riscv_nn_mat_mult_nt_t_s8+0xb34>
    4b00:	00288703          	lb	a4,2(a7)
    4b04:	00280603          	lb	a2,2(a6)
    4b08:	00250683          	lb	a3,2(a0)
    4b0c:	00358793          	addi	a5,a1,3
    4b10:	859a                	c.mv	a1,t1
    4b12:	c4e61e7f          	maddr32	t3,a2,a4
    4b16:	c4e695ff          	maddr32	a1,a3,a4
    4b1a:	20012703          	lw	a4,512(sp)
    4b1e:	d9ae                	c.swsp	a1,240(sp)
    4b20:	d7f2                	c.swsp	t3,236(sp)
    4b22:	8672                	c.mv	a2,t3
    4b24:	00e7de63          	bge	a5,a4,4b40 <riscv_nn_mat_mult_nt_t_s8+0xb34>
    4b28:	00388703          	lb	a4,3(a7)
    4b2c:	00350683          	lb	a3,3(a0)
    4b30:	00380783          	lb	a5,3(a6)
    4b34:	c4e695ff          	maddr32	a1,a3,a4
    4b38:	c4e7967f          	maddr32	a2,a5,a4
    4b3c:	d9ae                	c.swsp	a1,240(sp)
    4b3e:	d7b2                	c.swsp	a2,236(sp)
    4b40:	57de                	c.lwsp	a5,244(sp)
    4b42:	4301                	c.li	t1,0
    4b44:	4390                	c.lw	a2,0(a5)
    4b46:	0047a803          	lw	a6,4(a5)
    4b4a:	57ee                	c.lwsp	a5,248(sp)
    4b4c:	55ce                	c.lwsp	a1,240(sp)
    4b4e:	4398                	c.lw	a4,0(a5)
    4b50:	0047a883          	lw	a7,4(a5)
    4b54:	f26607ff          	maxw	a5,a2,t1
    4b58:	00f597b3          	sll	a5,a1,a5
    4b5c:	55be                	c.lwsp	a1,236(sp)
    4b5e:	f26806ff          	maxw	a3,a6,t1
    4b62:	00d596b3          	sll	a3,a1,a3
    4b66:	40000537          	lui	a0,0x40000
    4b6a:	4581                	c.li	a1,0
    4b6c:	84e7957f          	smar64	a0,a5,a4
    4b70:	40000737          	lui	a4,0x40000
    4b74:	4781                	c.li	a5,0
    4b76:	8516977f          	smar64	a4,a3,a7
    4b7a:	40c00e33          	neg	t3,a2
    4b7e:	41000eb3          	neg	t4,a6
    4b82:	f26e0e7f          	maxw	t3,t3,t1
    4b86:	f26e8eff          	maxw	t4,t4,t1
    4b8a:	4685                	c.li	a3,1
    4b8c:	01c69633          	sll	a2,a3,t3
    4b90:	01d696b3          	sll	a3,a3,t4
    4b94:	dff505ff          	wexti	a1,a0,31
    4b98:	fff68893          	addi	a7,a3,-1
    4b9c:	dff7057f          	wexti	a0,a4,31
    4ba0:	fff60793          	addi	a5,a2,-1
    4ba4:	4017d613          	srai	a2,a5,0x1
    4ba8:	0005a693          	slti	a3,a1,0
    4bac:	00052713          	slti	a4,a0,0
    4bb0:	4018d813          	srai	a6,a7,0x1
    4bb4:	8fed                	c.and	a5,a1
    4bb6:	9636                	c.add	a2,a3
    4bb8:	983a                	c.add	a6,a4
    4bba:	00a8f6b3          	and	a3,a7,a0
    4bbe:	00f62633          	slt	a2,a2,a5
    4bc2:	00d826b3          	slt	a3,a6,a3
    4bc6:	41d557b3          	sra	a5,a0,t4
    4bca:	97b6                	c.add	a5,a3
    4bcc:	41c5d733          	sra	a4,a1,t3
    4bd0:	20812683          	lw	a3,520(sp)
    4bd4:	9732                	c.add	a4,a2
    4bd6:	9736                	c.add	a4,a3
    4bd8:	97b6                	c.add	a5,a3
    4bda:	20c12683          	lw	a3,524(sp)
    4bde:	f2e6877f          	maxw	a4,a3,a4
    4be2:	f2f687ff          	maxw	a5,a3,a5
    4be6:	21012683          	lw	a3,528(sp)
    4bea:	f0e6877f          	minw	a4,a3,a4
    4bee:	f0f687ff          	minw	a5,a3,a5
    4bf2:	56b6                	c.lwsp	a3,108(sp)
    4bf4:	00e68023          	sb	a4,0(a3)
    4bf8:	00f680a3          	sb	a5,1(a3)
    4bfc:	b39ff06f          	j	4734 <riscv_nn_mat_mult_nt_t_s8+0x728>
    4c00:	1b812883          	lw	a7,440(sp)
    4c04:	1bc12583          	lw	a1,444(sp)
    4c08:	1b412603          	lw	a2,436(sp)
    4c0c:	0018d713          	srli	a4,a7,0x1
    4c10:	0705                	c.addi	a4,1
    4c12:	1c012a03          	lw	s4,448(sp)
    4c16:	00171813          	slli	a6,a4,0x1
    4c1a:	15412b03          	lw	s6,340(sp)
    4c1e:	1c412683          	lw	a3,452(sp)
    4c22:	1c812503          	lw	a0,456(sp)
    4c26:	1cc12783          	lw	a5,460(sp)
    4c2a:	16412a83          	lw	s5,356(sp)
    4c2e:	c4e615ff          	maddr32	a1,a2,a4
    4c32:	9a42                	c.add	s4,a6
    4c34:	001af713          	andi	a4,s5,1
    4c38:	c761                	c.beqz	a4,4d00 <riscv_nn_mat_mult_nt_t_s8+0xcf4>
    4c3a:	0cf05363          	blez	a5,4d00 <riscv_nn_mat_mult_nt_t_s8+0xcf4>
    4c3e:	20012603          	lw	a2,512(sp)
    4c42:	15012383          	lw	t2,336(sp)
    4c46:	21812703          	lw	a4,536(sp)
    4c4a:	002a9293          	slli	t0,s5,0x2
    4c4e:	12f1                	c.addi	t0,-4
    4c50:	20812983          	lw	s3,520(sp)
    4c54:	20c12c03          	lw	s8,524(sp)
    4c58:	21012c83          	lw	s9,528(sp)
    4c5c:	00538433          	add	s0,t2,t0
    4c60:	9696                	c.add	a3,t0
    4c62:	40c70f33          	sub	t5,a4,a2
    4c66:	92aa                	c.add	t0,a0
    4c68:	4e81                	c.li	t4,0
    4c6a:	4f81                	c.li	t6,0
    4c6c:	40000837          	lui	a6,0x40000
    4c70:	4881                	c.li	a7,0
    4c72:	4905                	c.li	s2,1
    4c74:	84be                	c.mv	s1,a5
    4c76:	8e32                	c.mv	t3,a2
    4c78:	4501                	c.li	a0,0
    4c7a:	00038363          	beqz	t2,4c80 <riscv_nn_mat_mult_nt_t_s8+0xc74>
    4c7e:	4008                	c.lw	a0,0(s0)
    4c80:	0dc05063          	blez	t3,4d40 <riscv_nn_mat_mult_nt_t_s8+0xd34>
    4c84:	01cb0333          	add	t1,s6,t3
    4c88:	00b00633          	add	a2,zero,a1
    4c8c:	000b0703          	lb	a4,0(s6)
    4c90:	00060783          	lb	a5,0(a2)
    4c94:	0b05                	c.addi	s6,1
    4c96:	975e                	c.add	a4,s7
    4c98:	c4f7157f          	maddr32	a0,a4,a5
    4c9c:	00160613          	addi	a2,a2,1
    4ca0:	fe6b16e3          	bne	s6,t1,4c8c <riscv_nn_mat_mult_nt_t_s8+0xc80>
    4ca4:	0002a603          	lw	a2,0(t0)
    4ca8:	0006ab03          	lw	s6,0(a3)
    4cac:	f3f607ff          	maxw	a5,a2,t6
    4cb0:	00f51533          	sll	a0,a0,a5
    4cb4:	8742                	c.mv	a4,a6
    4cb6:	87c6                	c.mv	a5,a7
    4cb8:	8565177f          	smar64	a4,a0,s6
    4cbc:	40c00533          	neg	a0,a2
    4cc0:	f3f5057f          	maxw	a0,a0,t6
    4cc4:	00a91633          	sll	a2,s2,a0
    4cc8:	dff707ff          	wexti	a5,a4,31
    4ccc:	fff60713          	addi	a4,a2,-1
    4cd0:	0007ab13          	slti	s6,a5,0
    4cd4:	40175613          	srai	a2,a4,0x1
    4cd8:	965a                	c.add	a2,s6
    4cda:	8f7d                	c.and	a4,a5
    4cdc:	00e62733          	slt	a4,a2,a4
    4ce0:	40a7d7b3          	sra	a5,a5,a0
    4ce4:	97ba                	c.add	a5,a4
    4ce6:	97ce                	c.add	a5,s3
    4ce8:	f38787ff          	maxw	a5,a5,s8
    4cec:	f19787ff          	minw	a5,a5,s9
    4cf0:	00fa0023          	sb	a5,0(s4)
    4cf4:	0e85                	c.addi	t4,1
    4cf6:	01e30b33          	add	s6,t1,t5
    4cfa:	9a56                	c.add	s4,s5
    4cfc:	f7d49ee3          	bne	s1,t4,4c78 <riscv_nn_mat_mult_nt_t_s8+0xc6c>
    4d00:	1fc12403          	lw	s0,508(sp)
    4d04:	1f812483          	lw	s1,504(sp)
    4d08:	1f412903          	lw	s2,500(sp)
    4d0c:	1f012983          	lw	s3,496(sp)
    4d10:	1ec12a03          	lw	s4,492(sp)
    4d14:	1e812a83          	lw	s5,488(sp)
    4d18:	1e412b03          	lw	s6,484(sp)
    4d1c:	1e012b83          	lw	s7,480(sp)
    4d20:	1dc12c03          	lw	s8,476(sp)
    4d24:	1d812c83          	lw	s9,472(sp)
    4d28:	1d412d03          	lw	s10,468(sp)
    4d2c:	1d012d83          	lw	s11,464(sp)
    4d30:	4501                	c.li	a0,0
    4d32:	20010113          	addi	sp,sp,512
    4d36:	8082                	c.jr	ra
    4d38:	15412583          	lw	a1,340(sp)
    4d3c:	9f1ff06f          	j	472c <riscv_nn_mat_mult_nt_t_s8+0x720>
    4d40:	835a                	c.mv	t1,s6
    4d42:	b78d                	c.j	4ca4 <riscv_nn_mat_mult_nt_t_s8+0xc98>
    4d44:	88f6                	c.mv	a7,t4
    4d46:	b38d                	c.j	4aa8 <riscv_nn_mat_mult_nt_t_s8+0xa9c>
    4d48:	8eae                	c.mv	t4,a1
    4d4a:	552e                	c.lwsp	a0,232(sp)
    4d4c:	4581                	c.li	a1,0
    4d4e:	b1bd                	c.j	49bc <riscv_nn_mat_mult_nt_t_s8+0x9b0>

00004d50 <riscv_s8_to_s16_unordered_with_offset>:
    4d50:	40265e93          	srai	t4,a2,0x2
    4d54:	0ed698ff          	pkbb16	a7,a3,a3
    4d58:	07d05c63          	blez	t4,4dd0 <riscv_s8_to_s16_unordered_with_offset+0x80>
    4d5c:	002e9e13          	slli	t3,t4,0x2
    4d60:	9e2a                	c.add	t3,a0
    4d62:	872e                	c.mv	a4,a1
    4d64:	411c                	c.lw	a5,0(a0)
    4d66:	0511                	c.addi	a0,4
    4d68:	ac97887f          	sunpkd820	a6,a5
    4d6c:	4108887f          	add16	a6,a7,a6
    4d70:	833e                	c.mv	t1,a5
    4d72:	83be                	c.mv	t2,a5
    4d74:	de8307ff          	wexti	a5,t1,8
    4d78:	ac9787ff          	sunpkd820	a5,a5
    4d7c:	40f887ff          	add16	a5,a7,a5
    4d80:	01072023          	sw	a6,0(a4) # 40000000 <_DATA_LMA_START+0x1fff64f8>
    4d84:	00470813          	addi	a6,a4,4
    4d88:	00f82023          	sw	a5,0(a6) # 40000000 <_DATA_LMA_START+0x1fff64f8>
    4d8c:	0721                	c.addi	a4,8
    4d8e:	fdc51be3          	bne	a0,t3,4d64 <riscv_s8_to_s16_unordered_with_offset+0x14>
    4d92:	0e8e                	c.slli	t4,0x3
    4d94:	01d585b3          	add	a1,a1,t4
    4d98:	8a0d                	c.andi	a2,3
    4d9a:	ca0d                	c.beqz	a2,4dcc <riscv_s8_to_s16_unordered_with_offset+0x7c>
    4d9c:	000e0783          	lb	a5,0(t3)
    4da0:	06c2                	c.slli	a3,0x10
    4da2:	82c1                	c.srli	a3,0x10
    4da4:	97b6                	c.add	a5,a3
    4da6:	4705                	c.li	a4,1
    4da8:	00f59023          	sh	a5,0(a1)
    4dac:	02e60063          	beq	a2,a4,4dcc <riscv_s8_to_s16_unordered_with_offset+0x7c>
    4db0:	001e0783          	lb	a5,1(t3)
    4db4:	4709                	c.li	a4,2
    4db6:	97b6                	c.add	a5,a3
    4db8:	00f59123          	sh	a5,2(a1)
    4dbc:	00e60863          	beq	a2,a4,4dcc <riscv_s8_to_s16_unordered_with_offset+0x7c>
    4dc0:	002e0783          	lb	a5,2(t3)
    4dc4:	00f686b3          	add	a3,a3,a5
    4dc8:	00d59223          	sh	a3,4(a1)
    4dcc:	00008067          	ret
    4dd0:	8e2a                	c.mv	t3,a0
    4dd2:	b7d9                	c.j	4d98 <riscv_s8_to_s16_unordered_with_offset+0x48>

00004dd4 <riscv_avgpool_s8_get_buffer_size>:
    4dd4:	00259513          	slli	a0,a1,0x2
    4dd8:	8082                	c.jr	ra
	...

00004ddc <riscv_avgpool_s8>:
    4ddc:	7159                	c.addi16sp	sp,-112
    4dde:	ccd2                	c.swsp	s4,88(sp)
    4de0:	00062a03          	lw	s4,0(a2)
    4de4:	d4a2                	c.swsp	s0,104(sp)
    4de6:	d2a6                	c.swsp	s1,100(sp)
    4de8:	d0ca                	c.swsp	s2,96(sp)
    4dea:	cece                	c.swsp	s3,92(sp)
    4dec:	cad6                	c.swsp	s5,84(sp)
    4dee:	c8da                	c.swsp	s6,80(sp)
    4df0:	c6de                	c.swsp	s7,76(sp)
    4df2:	c4e2                	c.swsp	s8,72(sp)
    4df4:	c0ea                	c.swsp	s10,64(sp)
    4df6:	de6e                	c.swsp	s11,60(sp)
    4df8:	d686                	c.swsp	ra,108(sp)
    4dfa:	c2e6                	c.swsp	s9,68(sp)
    4dfc:	0045ac03          	lw	s8,4(a1)
    4e00:	0005ad83          	lw	s11,0(a1)
    4e04:	00c5ab83          	lw	s7,12(a1)
    4e08:	0085ad03          	lw	s10,8(a1)
    4e0c:	0105a903          	lw	s2,16(a1)
    4e10:	0145a983          	lw	s3,20(a1)
    4e14:	4244                	c.lw	s1,4(a2)
    4e16:	4600                	c.lw	s0,8(a2)
    4e18:	0047ab03          	lw	s6,4(a5)
    4e1c:	0087aa83          	lw	s5,8(a5)
    4e20:	00472303          	lw	t1,4(a4)
    4e24:	00872e83          	lw	t4,8(a4)
    4e28:	464c                	c.lw	a1,12(a2)
    4e2a:	17405163          	blez	s4,4f8c <riscv_avgpool_s8+0x1b0>
    4e2e:	411c                	c.lw	a5,0(a0)
    4e30:	01000cb3          	add	s9,zero,a6
    4e34:	16078e63          	beqz	a5,4fb0 <riscv_avgpool_s8+0x1d4>
    4e38:	02848733          	mul	a4,s1,s0
    4e3c:	035b07b3          	mul	a5,s6,s5
    4e40:	02b70533          	mul	a0,a4,a1
    4e44:	02b788b3          	mul	a7,a5,a1
    4e48:	037407b3          	mul	a5,s0,s7
    4e4c:	02ba8f33          	mul	t5,s5,a1
    4e50:	03840fb3          	mul	t6,s0,s8
    4e54:	40f003b3          	neg	t2,a5
    4e58:	11605c63          	blez	s6,4f70 <riscv_avgpool_s8+0x194>
    4e5c:	41730e33          	sub	t3,t1,s7
    4e60:	417007b3          	neg	a5,s7
    4e64:	829e                	c.mv	t0,t2
    4e66:	c846                	c.swsp	a7,16(sp)
    4e68:	ca2a                	c.swsp	a0,20(sp)
    4e6a:	ce5e                	c.swsp	s7,28(sp)
    4e6c:	8666                	c.mv	a2,s9
    4e6e:	8b9e                	c.mv	s7,t2
    4e70:	4801                	c.li	a6,0
    4e72:	88fa                	c.mv	a7,t5
    4e74:	857e                	c.mv	a0,t6
    4e76:	83e6                	c.mv	t2,s9
    4e78:	00612c23          	sw	t1,24(sp)
    4e7c:	0d505a63          	blez	s5,4f50 <riscv_avgpool_s8+0x174>
    4e80:	41a00f33          	neg	t5,s10
    4e84:	41ae8333          	sub	t1,t4,s10
    4e88:	8732                	c.mv	a4,a2
    4e8a:	4c81                	c.li	s9,0
    4e8c:	d05a                	c.swsp	s6,32(sp)
    4e8e:	c456                	c.swsp	s5,8(sp)
    4e90:	d262                	c.swsp	s8,36(sp)
    4e92:	c66e                	c.swsp	s11,12(sp)
    4e94:	d476                	c.swsp	t4,40(sp)
    4e96:	d66a                	c.swsp	s10,44(sp)
    4e98:	4e81                	c.li	t4,0
    4e9a:	4c01                	c.li	s8,0
    4e9c:	f1d30eff          	minw	t4,t1,t4
    4ea0:	08b05a63          	blez	a1,4f34 <riscv_avgpool_s8+0x158>
    4ea4:	8dc2                	c.mv	s11,a6
    4ea6:	8866                	c.mv	a6,s9
    4ea8:	0fc7d263          	bge	a5,t3,4f8c <riscv_avgpool_s8+0x1b0>
    4eac:	8b16                	c.mv	s6,t0
    4eae:	8abe                	c.mv	s5,a5
    4eb0:	4d01                	c.li	s10,0
    4eb2:	4c81                	c.li	s9,0
    4eb4:	c04a                	c.swsp	s2,0(sp)
    4eb6:	c24e                	c.swsp	s3,4(sp)
    4eb8:	046f5063          	bge	t5,t1,4ef8 <riscv_avgpool_s8+0x11c>
    4ebc:	020ace63          	bltz	s5,4ef8 <riscv_avgpool_s8+0x11c>
    4ec0:	029adc63          	bge	s5,s1,4ef8 <riscv_avgpool_s8+0x11c>
    4ec4:	01e00fb3          	add	t6,zero,t5
    4ec8:	000f5863          	bgez	t5,4ed8 <riscv_avgpool_s8+0xfc>
    4ecc:	001f8f93          	addi	t6,t6,1
    4ed0:	ffdfcee3          	blt	t6,t4,4ecc <riscv_avgpool_s8+0xf0>
    4ed4:	026fd263          	bge	t6,t1,4ef8 <riscv_avgpool_s8+0x11c>
    4ed8:	016f89b3          	add	s3,t6,s6
    4edc:	8962                	c.mv	s2,s8
    4ede:	c4b9997f          	maddr32	s2,s3,a1
    4ee2:	9936                	c.add	s2,a3
    4ee4:	008fd663          	bge	t6,s0,4ef0 <riscv_avgpool_s8+0x114>
    4ee8:	00090983          	lb	s3,0(s2)
    4eec:	0d05                	c.addi	s10,1
    4eee:	9cce                	c.add	s9,s3
    4ef0:	0f85                	c.addi	t6,1
    4ef2:	992e                	c.add	s2,a1
    4ef4:	fe6fc8e3          	blt	t6,t1,4ee4 <riscv_avgpool_s8+0x108>
    4ef8:	0a85                	c.addi	s5,1
    4efa:	9b22                	c.add	s6,s0
    4efc:	fbca9ee3          	bne	s5,t3,4eb8 <riscv_avgpool_s8+0xdc>
    4f00:	4902                	c.lwsp	s2,0(sp)
    4f02:	4992                	c.lwsp	s3,4(sp)
    4f04:	080d0463          	beqz	s10,4f8c <riscv_avgpool_s8+0x1b0>
    4f08:	07905a63          	blez	s9,4f7c <riscv_avgpool_s8+0x1a0>
    4f0c:	401d5f93          	srai	t6,s10,0x1
    4f10:	019f8fb3          	add	t6,t6,s9
    4f14:	03afcfb3          	div	t6,t6,s10
    4f18:	01870ab3          	add	s5,a4,s8
    4f1c:	0c05                	c.addi	s8,1
    4f1e:	f3f90fff          	maxw	t6,s2,t6
    4f22:	f1f98fff          	minw	t6,s3,t6
    4f26:	01fa8023          	sb	t6,0(s5)
    4f2a:	f7859fe3          	bne	a1,s8,4ea8 <riscv_avgpool_s8+0xcc>
    4f2e:	8cc2                	c.mv	s9,a6
    4f30:	01b00833          	add	a6,zero,s11
    4f34:	4eb2                	c.lwsp	t4,12(sp)
    4f36:	0c85                	c.addi	s9,1
    4f38:	9f76                	c.add	t5,t4
    4f3a:	9376                	c.add	t1,t4
    4f3c:	4ea2                	c.lwsp	t4,8(sp)
    4f3e:	972e                	c.add	a4,a1
    4f40:	f59e9ce3          	bne	t4,s9,4e98 <riscv_avgpool_s8+0xbc>
    4f44:	8af6                	c.mv	s5,t4
    4f46:	5b02                	c.lwsp	s6,32(sp)
    4f48:	5c12                	c.lwsp	s8,36(sp)
    4f4a:	4db2                	c.lwsp	s11,12(sp)
    4f4c:	5ea2                	c.lwsp	t4,40(sp)
    4f4e:	5d32                	c.lwsp	s10,44(sp)
    4f50:	0805                	c.addi	a6,1
    4f52:	9646                	c.add	a2,a7
    4f54:	9e62                	c.add	t3,s8
    4f56:	97e2                	c.add	a5,s8
    4f58:	92aa                	c.add	t0,a0
    4f5a:	f30b11e3          	bne	s6,a6,4e7c <riscv_avgpool_s8+0xa0>
    4f5e:	8f46                	c.mv	t5,a7
    4f60:	8faa                	c.mv	t6,a0
    4f62:	8c9e                	c.mv	s9,t2
    4f64:	4362                	c.lwsp	t1,24(sp)
    4f66:	83de                	c.mv	t2,s7
    4f68:	48c2                	c.lwsp	a7,16(sp)
    4f6a:	4552                	c.lwsp	a0,20(sp)
    4f6c:	01c12b83          	lw	s7,28(sp)
    4f70:	1a7d                	c.addi	s4,-1
    4f72:	96aa                	c.add	a3,a0
    4f74:	9cc6                	c.add	s9,a7
    4f76:	ee0a11e3          	bnez	s4,4e58 <riscv_avgpool_s8+0x7c>
    4f7a:	a819                	c.j	4f90 <riscv_avgpool_s8+0x1b4>
    4f7c:	01fd5f93          	srli	t6,s10,0x1f
    4f80:	9fea                	c.add	t6,s10
    4f82:	401fdf93          	srai	t6,t6,0x1
    4f86:	41fc8fb3          	sub	t6,s9,t6
    4f8a:	b769                	c.j	4f14 <riscv_avgpool_s8+0x138>
    4f8c:	fff00a13          	li	s4,-1
    4f90:	50b6                	c.lwsp	ra,108(sp)
    4f92:	5426                	c.lwsp	s0,104(sp)
    4f94:	5496                	c.lwsp	s1,100(sp)
    4f96:	5906                	c.lwsp	s2,96(sp)
    4f98:	49f6                	c.lwsp	s3,92(sp)
    4f9a:	4ad6                	c.lwsp	s5,84(sp)
    4f9c:	4b46                	c.lwsp	s6,80(sp)
    4f9e:	4bb6                	c.lwsp	s7,76(sp)
    4fa0:	4c26                	c.lwsp	s8,72(sp)
    4fa2:	4c96                	c.lwsp	s9,68(sp)
    4fa4:	4d06                	c.lwsp	s10,64(sp)
    4fa6:	5df2                	c.lwsp	s11,60(sp)
    4fa8:	8552                	c.mv	a0,s4
    4faa:	4a66                	c.lwsp	s4,88(sp)
    4fac:	6165                	c.addi16sp	sp,112
    4fae:	8082                	c.jr	ra
    4fb0:	8556                	c.mv	a0,s5
    4fb2:	c636                	c.swsp	a3,12(sp)
    4fb4:	c476                	c.swsp	t4,8(sp)
    4fb6:	c21a                	c.swsp	t1,4(sp)
    4fb8:	c02e                	c.swsp	a1,0(sp)
    4fba:	3d29                	c.jal	4dd4 <riscv_avgpool_s8_get_buffer_size>
    4fbc:	f961                	c.bnez	a0,4f8c <riscv_avgpool_s8+0x1b0>
    4fbe:	02848733          	mul	a4,s1,s0
    4fc2:	035b07b3          	mul	a5,s6,s5
    4fc6:	4582                	c.lwsp	a1,0(sp)
    4fc8:	46b2                	c.lwsp	a3,12(sp)
    4fca:	02b70533          	mul	a0,a4,a1
    4fce:	02b788b3          	mul	a7,a5,a1
    4fd2:	4ea2                	c.lwsp	t4,8(sp)
    4fd4:	4312                	c.lwsp	t1,4(sp)
    4fd6:	bd8d                	c.j	4e48 <riscv_avgpool_s8+0x6c>

00004fd8 <riscv_fully_connected_s8>:
    4fd8:	715d                	c.addi16sp	sp,-80
    4fda:	c2a6                	c.swsp	s1,68(sp)
    4fdc:	4284                	c.lw	s1,0(a3)
    4fde:	de4e                	c.swsp	s3,60(sp)
    4fe0:	dc52                	c.swsp	s4,56(sp)
    4fe2:	d85a                	c.swsp	s6,48(sp)
    4fe4:	d462                	c.swsp	s8,40(sp)
    4fe6:	c686                	c.swsp	ra,76(sp)
    4fe8:	c4a2                	c.swsp	s0,72(sp)
    4fea:	c0ca                	c.swsp	s2,64(sp)
    4fec:	da56                	c.swsp	s5,52(sp)
    4fee:	d65e                	c.swsp	s7,44(sp)
    4ff0:	d266                	c.swsp	s9,36(sp)
    4ff2:	d06a                	c.swsp	s10,32(sp)
    4ff4:	4c46                	c.lwsp	s8,80(sp)
    4ff6:	4a56                	c.lwsp	s4,84(sp)
    4ff8:	49e6                	c.lwsp	s3,88(sp)
    4ffa:	00052b03          	lw	s6,0(a0) # 40000000 <_DATA_LMA_START+0x1fff64f8>
    4ffe:	ccb9                	c.beqz	s1,505c <riscv_fully_connected_s8+0x84>
    5000:	0007ae03          	lw	t3,0(a5)
    5004:	00ca2303          	lw	t1,12(s4)
    5008:	842e                	c.mv	s0,a1
    500a:	8d32                	c.mv	s10,a2
    500c:	893a                	c.mv	s2,a4
    500e:	8abe                	c.mv	s5,a5
    5010:	8bc2                	c.mv	s7,a6
    5012:	4c85                	c.li	s9,1
    5014:	00442283          	lw	t0,4(s0)
    5018:	01042f83          	lw	t6,16(s0)
    501c:	00c42f03          	lw	t5,12(s0)
    5020:	004d2e83          	lw	t4,4(s10)
    5024:	000d2883          	lw	a7,0(s10)
    5028:	00842803          	lw	a6,8(s0)
    502c:	401c                	c.lw	a5,0(s0)
    502e:	874e                	c.mv	a4,s3
    5030:	854a                	c.mv	a0,s2
    5032:	86e2                	c.mv	a3,s8
    5034:	865a                	c.mv	a2,s6
    5036:	85de                	c.mv	a1,s7
    5038:	c41a                	c.swsp	t1,8(sp)
    503a:	c272                	c.swsp	t3,4(sp)
    503c:	cc16                	c.swsp	t0,24(sp)
    503e:	ca66                	c.swsp	s9,20(sp)
    5040:	c87e                	c.swsp	t6,16(sp)
    5042:	c67a                	c.swsp	t5,12(sp)
    5044:	01d12023          	sw	t4,0(sp)
    5048:	728020ef          	jal	ra,7770 <riscv_nn_vec_mat_mult_t_s8>
    504c:	000aae03          	lw	t3,0(s5)
    5050:	00ca2303          	lw	t1,12(s4)
    5054:	14fd                	c.addi	s1,-1
    5056:	9972                	c.add	s2,t3
    5058:	999a                	c.add	s3,t1
    505a:	fccd                	c.bnez	s1,5014 <riscv_fully_connected_s8+0x3c>
    505c:	40b6                	c.lwsp	ra,76(sp)
    505e:	4426                	c.lwsp	s0,72(sp)
    5060:	4496                	c.lwsp	s1,68(sp)
    5062:	4906                	c.lwsp	s2,64(sp)
    5064:	59f2                	c.lwsp	s3,60(sp)
    5066:	5a62                	c.lwsp	s4,56(sp)
    5068:	5ad2                	c.lwsp	s5,52(sp)
    506a:	5b42                	c.lwsp	s6,48(sp)
    506c:	5bb2                	c.lwsp	s7,44(sp)
    506e:	5c22                	c.lwsp	s8,40(sp)
    5070:	5c92                	c.lwsp	s9,36(sp)
    5072:	5d02                	c.lwsp	s10,32(sp)
    5074:	4501                	c.li	a0,0
    5076:	6161                	c.addi16sp	sp,80
    5078:	8082                	c.jr	ra
	...

0000507c <riscv_fully_connected_s8_get_buffer_size>:
    507c:	4501                	c.li	a0,0
    507e:	8082                	c.jr	ra

00005080 <depthwise_conv_s8_mult_4>:
    5080:	7131                	c.addi16sp	sp,-192
    5082:	cd66                	c.swsp	s9,152(sp)
    5084:	5cae                	c.lwsp	s9,232(sp)
    5086:	db4a                	c.swsp	s2,180(sp)
    5088:	d35a                	c.swsp	s6,164(sp)
    508a:	cb6a                	c.swsp	s10,148(sp)
    508c:	df22                	c.swsp	s0,188(sp)
    508e:	dd26                	c.swsp	s1,184(sp)
    5090:	d94e                	c.swsp	s3,176(sp)
    5092:	d752                	c.swsp	s4,172(sp)
    5094:	d556                	c.swsp	s5,168(sp)
    5096:	d15e                	c.swsp	s7,160(sp)
    5098:	cf62                	c.swsp	s8,156(sp)
    509a:	c96e                	c.swsp	s11,144(sp)
    509c:	4e2e                	c.lwsp	t3,200(sp)
    509e:	4b1e                	c.lwsp	s6,196(sp)
    50a0:	42ce                	c.lwsp	t0,208(sp)
    50a2:	4d6e                	c.lwsp	s10,216(sp)
    50a4:	5f1e                	c.lwsp	t5,228(sp)
    50a6:	594e                	c.lwsp	s2,240(sp)
    50a8:	37905863          	blez	s9,5418 <depthwise_conv_s8_mult_4+0x398>
    50ac:	02f889b3          	mul	s3,a7,a5
    50b0:	8abe                	c.mv	s5,a5
    50b2:	02b68a33          	mul	s4,a3,a1
    50b6:	8bb6                	c.mv	s7,a3
    50b8:	8346                	c.mv	t1,a7
    50ba:	416007b3          	neg	a5,s6
    50be:	35e05d63          	blez	t5,5418 <depthwise_conv_s8_mult_4+0x398>
    50c2:	fff80693          	addi	a3,a6,-1
    50c6:	84aa                	c.mv	s1,a0
    50c8:	8289                	c.srli	a3,0x2
    50ca:	453e                	c.lwsp	a0,204(sp)
    50cc:	0685                	c.addi	a3,1
    50ce:	9672                	c.add	a2,t3
    50d0:	02ab8c33          	mul	s8,s7,a0
    50d4:	da32                	c.swsp	a2,52(sp)
    50d6:	00269613          	slli	a2,a3,0x2
    50da:	0692                	c.slli	a3,0x4
    50dc:	c2b2                	c.swsp	a2,68(sp)
    50de:	c4b6                	c.swsp	a3,72(sp)
    50e0:	01658633          	add	a2,a1,s6
    50e4:	46be                	c.lwsp	a3,204(sp)
    50e6:	03778433          	mul	s0,a5,s7
    50ea:	8eba                	c.mv	t4,a4
    50ec:	c8a6                	c.swsp	s1,80(sp)
    50ee:	41c00733          	neg	a4,t3
    50f2:	84ca                	c.mv	s1,s2
    50f4:	87f2                	c.mv	a5,t3
    50f6:	8956                	c.mv	s2,s5
    50f8:	4501                	c.li	a0,0
    50fa:	8ab2                	c.mv	s5,a2
    50fc:	4d81                	c.li	s11,0
    50fe:	8666                	c.mv	a2,s9
    5100:	8cea                	c.mv	s9,s10
    5102:	8d5e                	c.mv	s10,s7
    5104:	05812623          	sw	s8,76(sp)
    5108:	f3b788ff          	maxw	a7,a5,s11
    510c:	011705b3          	add	a1,a4,a7
    5110:	8e76                	c.mv	t3,t4
    5112:	03458c33          	mul	s8,a1,s4
    5116:	c5199e7f          	maddr32	t3,s3,a7
    511a:	55d2                	c.lwsp	a1,52(sp)
    511c:	d646                	c.swsp	a7,44(sp)
    511e:	488e                	c.lwsp	a7,192(sp)
    5120:	d2e2                	c.swsp	s8,100(sp)
    5122:	f1158bff          	minw	s7,a1,a7
    5126:	8c66                	c.mv	s8,s9
    5128:	d4f6                	c.swsp	t4,104(sp)
    512a:	85da                	c.mv	a1,s6
    512c:	8fa2                	c.mv	t6,s0
    512e:	4381                	c.li	t2,0
    5130:	8e96                	c.mv	t4,t0
    5132:	8cde                	c.mv	s9,s7
    5134:	88b2                	c.mv	a7,a2
    5136:	dc56                	c.swsp	s5,56(sp)
    5138:	caba                	c.swsp	a4,84(sp)
    513a:	ccaa                	c.swsp	a0,88(sp)
    513c:	cebe                	c.swsp	a5,92(sp)
    513e:	d0a2                	c.swsp	s0,96(sp)
    5140:	0d612223          	sw	s6,196(sp)
    5144:	f3b58b7f          	maxw	s6,a1,s11
    5148:	29205c63          	blez	s2,53e0 <depthwise_conv_s8_mult_4+0x360>
    514c:	5796                	c.lwsp	a5,100(sp)
    514e:	4646                	c.lwsp	a2,80(sp)
    5150:	00ff8733          	add	a4,t6,a5
    5154:	c56d177f          	maddr32	a4,s10,s6
    5158:	87f2                	c.mv	a5,t3
    515a:	c56917ff          	maddr32	a5,s2,s6
    515e:	9732                	c.add	a4,a2
    5160:	457e                	c.lwsp	a0,220(sp)
    5162:	560e                	c.lwsp	a2,224(sp)
    5164:	c0be                	c.swsp	a5,64(sp)
    5166:	d43a                	c.swsp	a4,40(sp)
    5168:	57e2                	c.lwsp	a5,56(sp)
    516a:	475e                	c.lwsp	a4,212(sp)
    516c:	daae                	c.swsp	a1,116(sp)
    516e:	d03a                	c.swsp	a4,32(sp)
    5170:	c7b6                	c.swsp	a3,204(sp)
    5172:	4701                	c.li	a4,0
    5174:	f06787ff          	minw	a5,a5,t1
    5178:	8bd2                	c.mv	s7,s4
    517a:	85aa                	c.mv	a1,a0
    517c:	86b2                	c.mv	a3,a2
    517e:	d69e                	c.swsp	t2,108(sp)
    5180:	de3a                	c.swsp	a4,60(sp)
    5182:	d8fe                	c.swsp	t6,112(sp)
    5184:	07512c23          	sw	s5,120(sp)
    5188:	23005e63          	blez	a6,53c4 <depthwise_conv_s8_mult_4+0x344>
    518c:	5772                	c.lwsp	a4,60(sp)
    518e:	4606                	c.lwsp	a2,64(sp)
    5190:	5a82                	c.lwsp	s5,32(sp)
    5192:	9732                	c.add	a4,a2
    5194:	c63a                	c.swsp	a4,12(sp)
    5196:	4716                	c.lwsp	a4,68(sp)
    5198:	8436                	c.mv	s0,a3
    519a:	9762                	c.add	a4,s8
    519c:	82ae                	c.mv	t0,a1
    519e:	d83a                	c.swsp	a4,48(sp)
    51a0:	d23e                	c.swsp	a5,36(sp)
    51a2:	deae                	c.swsp	a1,124(sp)
    51a4:	c136                	c.swsp	a3,128(sp)
    51a6:	c372                	c.swsp	t3,132(sp)
    51a8:	c542                	c.swsp	a6,136(sp)
    51aa:	c71a                	c.swsp	t1,140(sp)
    51ac:	c9f6                	c.swsp	t4,208(sp)
    51ae:	d3fa                	c.swsp	t5,228(sp)
    51b0:	0f112423          	sw	a7,232(sp)
    51b4:	280a8063          	beqz	s5,5434 <depthwise_conv_s8_mult_4+0x3b4>
    51b8:	000aa303          	lw	t1,0(s5)
    51bc:	004aa883          	lw	a7,4(s5)
    51c0:	008aa803          	lw	a6,8(s5)
    51c4:	00caa503          	lw	a0,12(s5)
    51c8:	010a8a93          	addi	s5,s5,16
    51cc:	5e32                	c.lwsp	t3,44(sp)
    51ce:	059e5d63          	bge	t3,s9,5228 <depthwise_conv_s8_mult_4+0x1a8>
    51d2:	5f22                	c.lwsp	t5,40(sp)
    51d4:	4eb2                	c.lwsp	t4,12(sp)
    51d6:	5792                	c.lwsp	a5,36(sp)
    51d8:	03512023          	sw	s5,32(sp)
    51dc:	86f6                	c.mv	a3,t4
    51de:	02fb5d63          	bge	s6,a5,5218 <depthwise_conv_s8_mult_4+0x198>
    51e2:	85fa                	c.mv	a1,t5
    51e4:	01600633          	add	a2,zero,s6
    51e8:	00058703          	lb	a4,0(a1)
    51ec:	00068a83          	lb	s5,0(a3)
    51f0:	00168a03          	lb	s4,1(a3)
    51f4:	00268383          	lb	t2,2(a3)
    51f8:	00368f83          	lb	t6,3(a3)
    51fc:	9726                	c.add	a4,s1
    51fe:	0605                	c.addi	a2,1
    5200:	c4ea937f          	maddr32	t1,s5,a4
    5204:	c4ea18ff          	maddr32	a7,s4,a4
    5208:	c4e3987f          	maddr32	a6,t2,a4
    520c:	c4ef957f          	maddr32	a0,t6,a4
    5210:	96ca                	c.add	a3,s2
    5212:	95ea                	c.add	a1,s10
    5214:	fcf61ae3          	bne	a2,a5,51e8 <depthwise_conv_s8_mult_4+0x168>
    5218:	0e05                	c.addi	t3,1
    521a:	9ece                	c.add	t4,s3
    521c:	9f5e                	c.add	t5,s7
    521e:	fb9e1fe3          	bne	t3,s9,51dc <depthwise_conv_s8_mult_4+0x15c>
    5222:	5a82                	c.lwsp	s5,32(sp)
    5224:	02f12223          	sw	a5,36(sp)
    5228:	0082a383          	lw	t2,8(t0)
    522c:	0002ae03          	lw	t3,0(t0)
    5230:	f3b386ff          	maxw	a3,t2,s11
    5234:	00d816b3          	sll	a3,a6,a3
    5238:	00042803          	lw	a6,0(s0)
    523c:	f3be05ff          	maxw	a1,t3,s11
    5240:	0042ae83          	lw	t4,4(t0)
    5244:	00b315b3          	sll	a1,t1,a1
    5248:	40000f37          	lui	t5,0x40000
    524c:	4f81                	c.li	t6,0
    524e:	85059f7f          	smar64	t5,a1,a6
    5252:	404c                	c.lw	a1,4(s0)
    5254:	f3be867f          	maxw	a2,t4,s11
    5258:	00c89633          	sll	a2,a7,a2
    525c:	40000837          	lui	a6,0x40000
    5260:	4881                	c.li	a7,0
    5262:	84b6187f          	smar64	a6,a2,a1
    5266:	4410                	c.lw	a2,8(s0)
    5268:	00c2aa03          	lw	s4,12(t0)
    526c:	c842                	c.swsp	a6,16(sp)
    526e:	ca46                	c.swsp	a7,20(sp)
    5270:	40000837          	lui	a6,0x40000
    5274:	4881                	c.li	a7,0
    5276:	84c6987f          	smar64	a6,a3,a2
    527a:	f3ba077f          	maxw	a4,s4,s11
    527e:	407006b3          	neg	a3,t2
    5282:	00e51733          	sll	a4,a0,a4
    5286:	41d005b3          	neg	a1,t4
    528a:	f3b6857f          	maxw	a0,a3,s11
    528e:	4e85                	c.li	t4,1
    5290:	cc42                	c.swsp	a6,24(sp)
    5292:	ce46                	c.swsp	a7,28(sp)
    5294:	00ae9833          	sll	a6,t4,a0
    5298:	00c42883          	lw	a7,12(s0)
    529c:	d02a                	c.swsp	a0,32(sp)
    529e:	dfff057f          	wexti	a0,t5,31
    52a2:	4f42                	c.lwsp	t5,16(sp)
    52a4:	4fd2                	c.lwsp	t6,20(sp)
    52a6:	41c00e33          	neg	t3,t3
    52aa:	40000637          	lui	a2,0x40000
    52ae:	4681                	c.li	a3,0
    52b0:	dfff03ff          	wexti	t2,t5,31
    52b4:	8517167f          	smar64	a2,a4,a7
    52b8:	4f62                	c.lwsp	t5,24(sp)
    52ba:	4ff2                	c.lwsp	t6,28(sp)
    52bc:	f3be0e7f          	maxw	t3,t3,s11
    52c0:	41400a33          	neg	s4,s4
    52c4:	01ce9333          	sll	t1,t4,t3
    52c8:	f3b585ff          	maxw	a1,a1,s11
    52cc:	f3ba0a7f          	maxw	s4,s4,s11
    52d0:	879e                	c.mv	a5,t2
    52d2:	00be98b3          	sll	a7,t4,a1
    52d6:	137d                	c.addi	t1,-1
    52d8:	014e9eb3          	sll	t4,t4,s4
    52dc:	dfff077f          	wexti	a4,t5,31
    52e0:	dff6067f          	wexti	a2,a2,31
    52e4:	cc3e                	c.swsp	a5,24(sp)
    52e6:	fffe8693          	addi	a3,t4,-1
    52ea:	40135f93          	srai	t6,t1,0x1
    52ee:	0003ae93          	slti	t4,t2,0
    52f2:	00a37333          	and	t1,t1,a0
    52f6:	00052393          	slti	t2,a0,0
    52fa:	41c55533          	sra	a0,a0,t3
    52fe:	4e62                	c.lwsp	t3,24(sp)
    5300:	c876                	c.swsp	t4,16(sp)
    5302:	18fd                	c.addi	a7,-1
    5304:	187d                	c.addi	a6,-1
    5306:	9f9e                	c.add	t6,t2
    5308:	43c2                	c.lwsp	t2,16(sp)
    530a:	4018df13          	srai	t5,a7,0x1
    530e:	40185e93          	srai	t4,a6,0x1
    5312:	00f8f8b3          	and	a7,a7,a5
    5316:	40be55b3          	sra	a1,t3,a1
    531a:	00072793          	slti	a5,a4,0
    531e:	5e02                	c.lwsp	t3,32(sp)
    5320:	9f1e                	c.add	t5,t2
    5322:	00e87833          	and	a6,a6,a4
    5326:	9ebe                	c.add	t4,a5
    5328:	4016d393          	srai	t2,a3,0x1
    532c:	00062793          	slti	a5,a2,0
    5330:	93be                	c.add	t2,a5
    5332:	006fa333          	slt	t1,t6,t1
    5336:	57be                	c.lwsp	a5,236(sp)
    5338:	011f28b3          	slt	a7,t5,a7
    533c:	41c75733          	sra	a4,a4,t3
    5340:	010ea833          	slt	a6,t4,a6
    5344:	951a                	c.add	a0,t1
    5346:	95c6                	c.add	a1,a7
    5348:	9742                	c.add	a4,a6
    534a:	953e                	c.add	a0,a5
    534c:	95be                	c.add	a1,a5
    534e:	973e                	c.add	a4,a5
    5350:	57de                	c.lwsp	a5,244(sp)
    5352:	8ef1                	c.and	a3,a2
    5354:	f2f5057f          	maxw	a0,a0,a5
    5358:	f2f585ff          	maxw	a1,a1,a5
    535c:	f2f7077f          	maxw	a4,a4,a5
    5360:	41465633          	sra	a2,a2,s4
    5364:	57be                	c.lwsp	a5,236(sp)
    5366:	00d3a6b3          	slt	a3,t2,a3
    536a:	9636                	c.add	a2,a3
    536c:	963e                	c.add	a2,a5
    536e:	57ee                	c.lwsp	a5,248(sp)
    5370:	0c11                	c.addi	s8,4
    5372:	f0f5057f          	minw	a0,a0,a5
    5376:	feac0e23          	sb	a0,-4(s8)
    537a:	f0f585ff          	minw	a1,a1,a5
    537e:	f0f7077f          	minw	a4,a4,a5
    5382:	57de                	c.lwsp	a5,244(sp)
    5384:	febc0ea3          	sb	a1,-3(s8)
    5388:	f2f6067f          	maxw	a2,a2,a5
    538c:	57ee                	c.lwsp	a5,248(sp)
    538e:	0441                	c.addi	s0,16
    5390:	feec0f23          	sb	a4,-2(s8)
    5394:	f0f6067f          	minw	a2,a2,a5
    5398:	02c1                	c.addi	t0,16
    539a:	fecc0fa3          	sb	a2,-1(s8)
    539e:	47b2                	c.lwsp	a5,12(sp)
    53a0:	0791                	c.addi	a5,4
    53a2:	c63e                	c.swsp	a5,12(sp)
    53a4:	57c2                	c.lwsp	a5,48(sp)
    53a6:	e0fc17e3          	bne	s8,a5,51b4 <depthwise_conv_s8_mult_4+0x134>
    53aa:	4726                	c.lwsp	a4,72(sp)
    53ac:	55f6                	c.lwsp	a1,124(sp)
    53ae:	468a                	c.lwsp	a3,128(sp)
    53b0:	5792                	c.lwsp	a5,36(sp)
    53b2:	4e1a                	c.lwsp	t3,132(sp)
    53b4:	482a                	c.lwsp	a6,136(sp)
    53b6:	433a                	c.lwsp	t1,140(sp)
    53b8:	4ece                	c.lwsp	t4,208(sp)
    53ba:	5f1e                	c.lwsp	t5,228(sp)
    53bc:	58ae                	c.lwsp	a7,232(sp)
    53be:	96ba                	c.add	a3,a4
    53c0:	95ba                	c.add	a1,a4
    53c2:	d056                	c.swsp	s5,32(sp)
    53c4:	5772                	c.lwsp	a4,60(sp)
    53c6:	5622                	c.lwsp	a2,40(sp)
    53c8:	9742                	c.add	a4,a6
    53ca:	0605                	c.addi	a2,1
    53cc:	de3a                	c.swsp	a4,60(sp)
    53ce:	d432                	c.swsp	a2,40(sp)
    53d0:	db274ce3          	blt	a4,s2,5188 <depthwise_conv_s8_mult_4+0x108>
    53d4:	53b6                	c.lwsp	t2,108(sp)
    53d6:	5fc6                	c.lwsp	t6,112(sp)
    53d8:	55d6                	c.lwsp	a1,116(sp)
    53da:	46be                	c.lwsp	a3,204(sp)
    53dc:	5ae6                	c.lwsp	s5,120(sp)
    53de:	8a5e                	c.mv	s4,s7
    53e0:	57e2                	c.lwsp	a5,56(sp)
    53e2:	0385                	c.addi	t2,1
    53e4:	8f95                	c.sub	a5,a3
    53e6:	dc3e                	c.swsp	a5,56(sp)
    53e8:	47b6                	c.lwsp	a5,76(sp)
    53ea:	8d95                	c.sub	a1,a3
    53ec:	9fbe                	c.add	t6,a5
    53ee:	d47f1be3          	bne	t5,t2,5144 <depthwise_conv_s8_mult_4+0xc4>
    53f2:	55d2                	c.lwsp	a1,52(sp)
    53f4:	82f6                	c.mv	t0,t4
    53f6:	4566                	c.lwsp	a0,88(sp)
    53f8:	4756                	c.lwsp	a4,84(sp)
    53fa:	47f6                	c.lwsp	a5,92(sp)
    53fc:	405585b3          	sub	a1,a1,t0
    5400:	0505                	c.addi	a0,1
    5402:	da2e                	c.swsp	a1,52(sp)
    5404:	5406                	c.lwsp	s0,96(sp)
    5406:	4b1e                	c.lwsp	s6,196(sp)
    5408:	5ea6                	c.lwsp	t4,104(sp)
    540a:	8ce2                	c.mv	s9,s8
    540c:	8646                	c.mv	a2,a7
    540e:	9716                	c.add	a4,t0
    5410:	405787b3          	sub	a5,a5,t0
    5414:	cea89ae3          	bne	a7,a0,5108 <depthwise_conv_s8_mult_4+0x88>
    5418:	547a                	c.lwsp	s0,188(sp)
    541a:	54ea                	c.lwsp	s1,184(sp)
    541c:	595a                	c.lwsp	s2,180(sp)
    541e:	59ca                	c.lwsp	s3,176(sp)
    5420:	5a3a                	c.lwsp	s4,172(sp)
    5422:	5aaa                	c.lwsp	s5,168(sp)
    5424:	5b1a                	c.lwsp	s6,164(sp)
    5426:	5b8a                	c.lwsp	s7,160(sp)
    5428:	4c7a                	c.lwsp	s8,156(sp)
    542a:	4cea                	c.lwsp	s9,152(sp)
    542c:	4d5a                	c.lwsp	s10,148(sp)
    542e:	4dca                	c.lwsp	s11,144(sp)
    5430:	6129                	c.addi16sp	sp,192
    5432:	8082                	c.jr	ra
    5434:	4501                	c.li	a0,0
    5436:	4801                	c.li	a6,0
    5438:	4881                	c.li	a7,0
    543a:	4301                	c.li	t1,0
    543c:	bb41                	c.j	51cc <depthwise_conv_s8_mult_4+0x14c>
	...

00005440 <riscv_depthwise_conv_s8>:
    5440:	712d                	c.addi16sp	sp,-288
    5442:	82b2                	c.mv	t0,a2
    5444:	0087a883          	lw	a7,8(a5)
    5448:	11412423          	sw	s4,264(sp)
    544c:	0047aa03          	lw	s4,4(a5)
    5450:	0042a783          	lw	a5,4(t0)
    5454:	11512223          	sw	s5,260(sp)
    5458:	c8be                	c.swsp	a5,80(sp)
    545a:	12412a83          	lw	s5,292(sp)
    545e:	0002a783          	lw	a5,0(t0)
    5462:	852e                	c.mv	a0,a1
    5464:	01c5af03          	lw	t5,28(a1)
    5468:	0006a303          	lw	t1,0(a3)
    546c:	42d0                	c.lw	a2,4(a3)
    546e:	10812c23          	sw	s0,280(sp)
    5472:	10912a23          	sw	s1,276(sp)
    5476:	5180                	c.lw	s0,32(a1)
    5478:	4584                	c.lw	s1,8(a1)
    547a:	11212823          	sw	s2,272(sp)
    547e:	468c                	c.lw	a1,8(a3)
    5480:	11312623          	sw	s3,268(sp)
    5484:	cabe                	c.swsp	a5,84(sp)
    5486:	46d4                	c.lw	a3,12(a3)
    5488:	01452903          	lw	s2,20(a0)
    548c:	01852e03          	lw	t3,24(a0)
    5490:	00c52e83          	lw	t4,12(a0)
    5494:	01052f83          	lw	t6,16(a0)
    5498:	008aa283          	lw	t0,8(s5)
    549c:	10112e23          	sw	ra,284(sp)
    54a0:	11612023          	sw	s6,256(sp)
    54a4:	dfde                	c.swsp	s7,252(sp)
    54a6:	dde2                	c.swsp	s8,248(sp)
    54a8:	dbe6                	c.swsp	s9,244(sp)
    54aa:	d9ea                	c.swsp	s10,240(sp)
    54ac:	d7ee                	c.swsp	s11,236(sp)
    54ae:	004aa383          	lw	t2,4(s5)
    54b2:	415c                	c.lw	a5,4(a0)
    54b4:	0034f993          	andi	s3,s1,3
    54b8:	ccbe                	c.swsp	a5,88(sp)
    54ba:	411c                	c.lw	a5,0(a0)
    54bc:	c2ba                	c.swsp	a4,68(sp)
    54be:	cebe                	c.swsp	a5,92(sp)
    54c0:	515c                	c.lw	a5,36(a0)
    54c2:	d4c2                	c.swsp	a6,104(sp)
    54c4:	d0be                	c.swsp	a5,96(sp)
    54c6:	551c                	c.lw	a5,40(a0)
    54c8:	d2be                	c.swsp	a5,100(sp)
    54ca:	010f1793          	slli	a5,t5,0x10
    54ce:	83c1                	c.srli	a5,0x10
    54d0:	c13e                	c.swsp	a5,128(sp)
    54d2:	01041793          	slli	a5,s0,0x10
    54d6:	83c1                	c.srli	a5,0x10
    54d8:	c33e                	c.swsp	a5,132(sp)
    54da:	00099563          	bnez	s3,54e4 <riscv_depthwise_conv_s8+0xa4>
    54de:	4785                	c.li	a5,1
    54e0:	36f30063          	beq	t1,a5,5840 <riscv_depthwise_conv_s8+0x400>
    54e4:	0342                	c.slli	t1,0x10
    54e6:	01091813          	slli	a6,s2,0x10
    54ea:	0e42                	c.slli	t3,0x10
    54ec:	0ec2                	c.slli	t4,0x10
    54ee:	010f9513          	slli	a0,t6,0x10
    54f2:	01035313          	srli	t1,t1,0x10
    54f6:	01085813          	srli	a6,a6,0x10
    54fa:	010e5e13          	srli	t3,t3,0x10
    54fe:	010ede93          	srli	t4,t4,0x10
    5502:	8141                	c.srli	a0,0x10
    5504:	2e030e63          	beqz	t1,5800 <riscv_depthwise_conv_s8+0x3c0>
    5508:	67c1                	c.lui	a5,0x10
    550a:	17fd                	c.addi	a5,-1
    550c:	00f5f933          	and	s2,a1,a5
    5510:	00f67fb3          	and	t6,a2,a5
    5514:	03f90633          	mul	a2,s2,t6
    5518:	00f6fcb3          	and	s9,a3,a5
    551c:	00f4f733          	and	a4,s1,a5
    5520:	00f3f3b3          	and	t2,t2,a5
    5524:	03970c33          	mul	s8,a4,s9
    5528:	03960633          	mul	a2,a2,s9
    552c:	00f2f9b3          	and	s3,t0,a5
    5530:	2c038863          	beqz	t2,5800 <riscv_depthwise_conv_s8+0x3c0>
    5534:	032c86b3          	mul	a3,s9,s2
    5538:	00f47d33          	and	s10,s0,a5
    553c:	00f8fab3          	and	s5,a7,a5
    5540:	03a686b3          	mul	a3,a3,s10
    5544:	00ff7db3          	and	s11,t5,a5
    5548:	41c005b3          	neg	a1,t3
    554c:	c936                	c.swsp	a3,144(sp)
    554e:	035c06b3          	mul	a3,s8,s5
    5552:	41000833          	neg	a6,a6
    5556:	00fa7a33          	and	s4,s4,a5
    555a:	c736                	c.swsp	a3,140(sp)
    555c:	039d86b3          	mul	a3,s11,s9
    5560:	05c2                	c.slli	a1,0x10
    5562:	01081413          	slli	s0,a6,0x10
    5566:	c536                	c.swsp	a3,136(sp)
    5568:	dad2                	c.swsp	s4,116(sp)
    556a:	4f01                	c.li	t5,0
    556c:	8a66                	c.mv	s4,s9
    556e:	4681                	c.li	a3,0
    5570:	8cea                	c.mv	s9,s10
    5572:	81c1                	c.srli	a1,0x10
    5574:	8d56                	c.mv	s10,s5
    5576:	4b81                	c.li	s7,0
    5578:	8041                	c.srli	s0,0x10
    557a:	8aca                	c.mv	s5,s2
    557c:	87d6                	c.mv	a5,s5
    557e:	8832                	c.mv	a6,a2
    5580:	8ad2                	c.mv	s5,s4
    5582:	82ae                	c.mv	t0,a1
    5584:	4901                	c.li	s2,0
    5586:	8e36                	c.mv	t3,a3
    5588:	862e                	c.mv	a2,a1
    558a:	8a3e                	c.mv	s4,a5
    558c:	c6e2                	c.swsp	s8,76(sp)
    558e:	dc9e                	c.swsp	t2,120(sp)
    5590:	01029c13          	slli	s8,t0,0x10
    5594:	410c5c13          	srai	s8,s8,0x10
    5598:	22098c63          	beqz	s3,57d0 <riscv_depthwise_conv_s8+0x390>
    559c:	d682                	c.swsp	zero,108(sp)
    559e:	01804563          	bgtz	s8,55a8 <riscv_depthwise_conv_s8+0x168>
    55a2:	418007b3          	neg	a5,s8
    55a6:	d6be                	c.swsp	a5,108(sp)
    55a8:	57d6                	c.lwsp	a5,116(sp)
    55aa:	418f86b3          	sub	a3,t6,s8
    55ae:	f0f687ff          	minw	a5,a3,a5
    55b2:	418c83b3          	sub	t2,s9,s8
    55b6:	00dc84b3          	add	s1,s9,a3
    55ba:	d33e                	c.swsp	a5,164(sp)
    55bc:	fff38793          	addi	a5,t2,-1
    55c0:	d53e                	c.swsp	a5,168(sp)
    55c2:	85a2                	c.mv	a1,s0
    55c4:	fff48793          	addi	a5,s1,-1
    55c8:	4881                	c.li	a7,0
    55ca:	86b2                	c.mv	a3,a2
    55cc:	d73e                	c.swsp	a5,172(sp)
    55ce:	dece                	c.swsp	s3,124(sp)
    55d0:	d92a                	c.swsp	a0,176(sp)
    55d2:	c4ba                	c.swsp	a4,72(sp)
    55d4:	0b212a23          	sw	s2,180(sp)
    55d8:	01059913          	slli	s2,a1,0x10
    55dc:	41095913          	srai	s2,s2,0x10
    55e0:	1c0a8c63          	beqz	s5,57b8 <riscv_depthwise_conv_s8+0x378>
    55e4:	d882                	c.swsp	zero,112(sp)
    55e6:	01204563          	bgtz	s2,55f0 <riscv_depthwise_conv_s8+0x1b0>
    55ea:	412007b3          	neg	a5,s2
    55ee:	d8be                	c.swsp	a5,112(sp)
    55f0:	412a04b3          	sub	s1,s4,s2
    55f4:	009d87b3          	add	a5,s11,s1
    55f8:	f1a4877f          	minw	a4,s1,s10
    55fc:	17fd                	c.addi	a5,-1
    55fe:	4501                	c.li	a0,0
    5600:	412d84b3          	sub	s1,s11,s2
    5604:	d13e                	c.swsp	a5,160(sp)
    5606:	c5c2                	c.swsp	a6,200(sp)
    5608:	4981                	c.li	s3,0
    560a:	887e                	c.mv	a6,t6
    560c:	14fd                	c.addi	s1,-1
    560e:	8faa                	c.mv	t6,a0
    5610:	87b6                	c.mv	a5,a3
    5612:	cf3a                	c.swsp	a4,156(sp)
    5614:	dd76                	c.swsp	t4,184(sp)
    5616:	df72                	c.swsp	t3,188(sp)
    5618:	c1c6                	c.swsp	a7,192(sp)
    561a:	c39a                	c.swsp	t1,196(sp)
    561c:	4726                	c.lwsp	a4,72(sp)
    561e:	18070363          	beqz	a4,57a4 <riscv_depthwise_conv_s8+0x364>
    5622:	4756                	c.lwsp	a4,84(sp)
    5624:	002f9513          	slli	a0,t6,0x2
    5628:	00a70e33          	add	t3,a4,a0
    562c:	4746                	c.lwsp	a4,80(sp)
    562e:	86fe                	c.mv	a3,t6
    5630:	953a                	c.add	a0,a4
    5632:	41ff0733          	sub	a4,t5,t6
    5636:	cd3a                	c.swsp	a4,152(sp)
    5638:	4726                	c.lwsp	a4,72(sp)
    563a:	8396                	c.mv	t2,t0
    563c:	c7fa                	c.swsp	t5,204(sp)
    563e:	9fba                	c.add	t6,a4
    5640:	8ec2                	c.mv	t4,a6
    5642:	82ae                	c.mv	t0,a1
    5644:	00f00f33          	add	t5,zero,a5
    5648:	478a                	c.lwsp	a5,128(sp)
    564a:	4705                	c.li	a4,1
    564c:	1ef77663          	bgeu	a4,a5,5838 <riscv_depthwise_conv_s8+0x3f8>
    5650:	0a012783          	lw	a5,160(sp)
    5654:	03b4c733          	div	a4,s1,s11
    5658:	03b7c633          	div	a2,a5,s11
    565c:	f377077f          	maxw	a4,a4,s7
    5660:	f1a6067f          	minw	a2,a2,s10
    5664:	479a                	c.lwsp	a5,132(sp)
    5666:	4585                	c.li	a1,1
    5668:	1cf5f463          	bgeu	a1,a5,5830 <riscv_depthwise_conv_s8+0x3f0>
    566c:	57aa                	c.lwsp	a5,168(sp)
    566e:	55ba                	c.lwsp	a1,172(sp)
    5670:	0397c7b3          	div	a5,a5,s9
    5674:	07412803          	lw	a6,116(sp)
    5678:	0395c5b3          	div	a1,a1,s9
    567c:	f37787ff          	maxw	a5,a5,s7
    5680:	f10585ff          	minw	a1,a1,a6
    5684:	12012883          	lw	a7,288(sp)
    5688:	4801                	c.li	a6,0
    568a:	00088763          	beqz	a7,5698 <riscv_depthwise_conv_s8+0x258>
    568e:	00269813          	slli	a6,a3,0x2
    5692:	9846                	c.add	a6,a7
    5694:	00082803          	lw	a6,0(a6) # 40000000 <_DATA_LMA_START+0x1fff64f8>
    5698:	08b7d863          	bge	a5,a1,5728 <riscv_depthwise_conv_s8+0x2e8>
    569c:	8362                	c.mv	t1,s8
    569e:	88ca                	c.mv	a7,s2
    56a0:	c597937f          	maddr32	t1,a5,s9
    56a4:	c4ed98ff          	maddr32	a7,s11,a4
    56a8:	4b36                	c.lwsp	s6,76(sp)
    56aa:	c9e2                	c.swsp	s8,208(sp)
    56ac:	c54318ff          	maddr32	a7,t1,s4
    56b0:	833a                	c.mv	t1,a4
    56b2:	c5a7937f          	maddr32	t1,a5,s10
    56b6:	cb46                	c.swsp	a7,148(sp)
    56b8:	889a                	c.mv	a7,t1
    56ba:	8336                	c.mv	t1,a3
    56bc:	c568937f          	maddr32	t1,a7,s6
    56c0:	48da                	c.lwsp	a7,148(sp)
    56c2:	8b4e                	c.mv	s6,s3
    56c4:	cb56                	c.swsp	s5,148(sp)
    56c6:	c5589b7f          	maddr32	s6,a7,s5
    56ca:	8c52                	c.mv	s8,s4
    56cc:	88da                	c.mv	a7,s6
    56ce:	5b26                	c.lwsp	s6,104(sp)
    56d0:	8ace                	c.mv	s5,s3
    56d2:	935a                	c.add	t1,s6
    56d4:	4b16                	c.lwsp	s6,68(sp)
    56d6:	cbca                	c.swsp	s2,212(sp)
    56d8:	016888b3          	add	a7,a7,s6
    56dc:	02c75a63          	bge	a4,a2,5710 <riscv_depthwise_conv_s8+0x2d0>
    56e0:	8a1a                	c.mv	s4,t1
    56e2:	89c6                	c.mv	s3,a7
    56e4:	893a                	c.mv	s2,a4
    56e6:	cdbe                	c.swsp	a5,216(sp)
    56e8:	0ce12e23          	sw	a4,220(sp)
    56ec:	00098783          	lb	a5,0(s3)
    56f0:	000a0b03          	lb	s6,0(s4)
    56f4:	4776                	c.lwsp	a4,92(sp)
    56f6:	0905                	c.addi	s2,1
    56f8:	97ba                	c.add	a5,a4
    56fa:	c567987f          	maddr32	a6,a5,s6
    56fe:	47aa                	c.lwsp	a5,136(sp)
    5700:	99be                	c.add	s3,a5
    5702:	47b6                	c.lwsp	a5,76(sp)
    5704:	9a3e                	c.add	s4,a5
    5706:	fec913e3          	bne	s2,a2,56ec <riscv_depthwise_conv_s8+0x2ac>
    570a:	47ee                	c.lwsp	a5,216(sp)
    570c:	0dc12703          	lw	a4,220(sp)
    5710:	494a                	c.lwsp	s2,144(sp)
    5712:	0785                	c.addi	a5,1
    5714:	98ca                	c.add	a7,s2
    5716:	493a                	c.lwsp	s2,140(sp)
    5718:	934a                	c.add	t1,s2
    571a:	fcb791e3          	bne	a5,a1,56dc <riscv_depthwise_conv_s8+0x29c>
    571e:	89d6                	c.mv	s3,s5
    5720:	8a62                	c.mv	s4,s8
    5722:	495e                	c.lwsp	s2,212(sp)
    5724:	4ada                	c.lwsp	s5,148(sp)
    5726:	4c4e                	c.lwsp	s8,208(sp)
    5728:	410c                	c.lw	a1,0(a0)
    572a:	000e2883          	lw	a7,0(t3)
    572e:	f375867f          	maxw	a2,a1,s7
    5732:	00c81633          	sll	a2,a6,a2
    5736:	40000737          	lui	a4,0x40000
    573a:	4781                	c.li	a5,0
    573c:	8516177f          	smar64	a4,a2,a7
    5740:	40b00633          	neg	a2,a1
    5744:	f376067f          	maxw	a2,a2,s7
    5748:	4585                	c.li	a1,1
    574a:	00c595b3          	sll	a1,a1,a2
    574e:	dff7077f          	wexti	a4,a4,31
    5752:	fff58793          	addi	a5,a1,-1
    5756:	4017d593          	srai	a1,a5,0x1
    575a:	00072813          	slti	a6,a4,0
    575e:	8ff9                	c.and	a5,a4
    5760:	95c2                	c.add	a1,a6
    5762:	40c75733          	sra	a4,a4,a2
    5766:	00f5a7b3          	slt	a5,a1,a5
    576a:	973e                	c.add	a4,a5
    576c:	47e6                	c.lwsp	a5,88(sp)
    576e:	0e11                	c.addi	t3,4
    5770:	973e                	c.add	a4,a5
    5772:	47ea                	c.lwsp	a5,152(sp)
    5774:	0511                	c.addi	a0,4
    5776:	00d78633          	add	a2,a5,a3
    577a:	5786                	c.lwsp	a5,96(sp)
    577c:	0685                	c.addi	a3,1
    577e:	f2f707ff          	maxw	a5,a4,a5
    5782:	12812703          	lw	a4,296(sp)
    5786:	9732                	c.add	a4,a2
    5788:	5616                	c.lwsp	a2,100(sp)
    578a:	f0c787ff          	minw	a5,a5,a2
    578e:	00f70023          	sb	a5,0(a4) # 40000000 <_DATA_LMA_START+0x1fff64f8>
    5792:	eadf9be3          	bne	t6,a3,5648 <riscv_depthwise_conv_s8+0x208>
    5796:	4726                	c.lwsp	a4,72(sp)
    5798:	87fa                	c.mv	a5,t5
    579a:	4f3e                	c.lwsp	t5,204(sp)
    579c:	8596                	c.mv	a1,t0
    579e:	8876                	c.mv	a6,t4
    57a0:	829e                	c.mv	t0,t2
    57a2:	9f3a                	c.add	t5,a4
    57a4:	0985                	c.addi	s3,1
    57a6:	e73a9be3          	bne	s5,s3,561c <riscv_depthwise_conv_s8+0x1dc>
    57aa:	8fc2                	c.mv	t6,a6
    57ac:	5eea                	c.lwsp	t4,184(sp)
    57ae:	5e7a                	c.lwsp	t3,188(sp)
    57b0:	488e                	c.lwsp	a7,192(sp)
    57b2:	431e                	c.lwsp	t1,196(sp)
    57b4:	482e                	c.lwsp	a6,200(sp)
    57b6:	86be                	c.mv	a3,a5
    57b8:	95f6                	c.add	a1,t4
    57ba:	57f6                	c.lwsp	a5,124(sp)
    57bc:	05c2                	c.slli	a1,0x10
    57be:	0885                	c.addi	a7,1
    57c0:	81c1                	c.srli	a1,0x10
    57c2:	e1179be3          	bne	a5,a7,55d8 <riscv_depthwise_conv_s8+0x198>
    57c6:	554a                	c.lwsp	a0,176(sp)
    57c8:	4726                	c.lwsp	a4,72(sp)
    57ca:	595a                	c.lwsp	s2,180(sp)
    57cc:	89be                	c.mv	s3,a5
    57ce:	8636                	c.mv	a2,a3
    57d0:	00a286b3          	add	a3,t0,a0
    57d4:	57e6                	c.lwsp	a5,120(sp)
    57d6:	01069293          	slli	t0,a3,0x10
    57da:	0905                	c.addi	s2,1
    57dc:	0102d293          	srli	t0,t0,0x10
    57e0:	db2798e3          	bne	a5,s2,5590 <riscv_depthwise_conv_s8+0x150>
    57e4:	83be                	c.mv	t2,a5
    57e6:	87d2                	c.mv	a5,s4
    57e8:	8a56                	c.mv	s4,s5
    57ea:	8abe                	c.mv	s5,a5
    57ec:	4796                	c.lwsp	a5,68(sp)
    57ee:	001e0693          	addi	a3,t3,1
    57f2:	97c2                	c.add	a5,a6
    57f4:	c2be                	c.swsp	a5,68(sp)
    57f6:	85b2                	c.mv	a1,a2
    57f8:	4c36                	c.lwsp	s8,76(sp)
    57fa:	8642                	c.mv	a2,a6
    57fc:	d86690e3          	bne	a3,t1,557c <riscv_depthwise_conv_s8+0x13c>
    5800:	11c12083          	lw	ra,284(sp)
    5804:	11812403          	lw	s0,280(sp)
    5808:	11412483          	lw	s1,276(sp)
    580c:	11012903          	lw	s2,272(sp)
    5810:	10c12983          	lw	s3,268(sp)
    5814:	10812a03          	lw	s4,264(sp)
    5818:	10412a83          	lw	s5,260(sp)
    581c:	10012b03          	lw	s6,256(sp)
    5820:	5bfe                	c.lwsp	s7,252(sp)
    5822:	5c6e                	c.lwsp	s8,248(sp)
    5824:	5cde                	c.lwsp	s9,244(sp)
    5826:	5d4e                	c.lwsp	s10,240(sp)
    5828:	5dbe                	c.lwsp	s11,236(sp)
    582a:	4501                	c.li	a0,0
    582c:	6115                	c.addi16sp	sp,288
    582e:	8082                	c.jr	ra
    5830:	559a                	c.lwsp	a1,164(sp)
    5832:	57b6                	c.lwsp	a5,108(sp)
    5834:	e51ff06f          	j	5684 <riscv_depthwise_conv_s8+0x244>
    5838:	467a                	c.lwsp	a2,156(sp)
    583a:	5746                	c.lwsp	a4,112(sp)
    583c:	e29ff06f          	j	5664 <riscv_depthwise_conv_s8+0x224>
    5840:	026f0063          	beq	t5,t1,5860 <riscv_depthwise_conv_s8+0x420>
    5844:	01091813          	slli	a6,s2,0x10
    5848:	0e42                	c.slli	t3,0x10
    584a:	0ec2                	c.slli	t4,0x10
    584c:	010f9513          	slli	a0,t6,0x10
    5850:	01085813          	srli	a6,a6,0x10
    5854:	010e5e13          	srli	t3,t3,0x10
    5858:	010ede93          	srli	t4,t4,0x10
    585c:	8141                	c.srli	a0,0x10
    585e:	b16d                	c.j	5508 <riscv_depthwise_conv_s8+0xc8>
    5860:	ffe412e3          	bne	s0,t5,5844 <riscv_depthwise_conv_s8+0x404>
    5864:	5416                	c.lwsp	s0,100(sp)
    5866:	00caa783          	lw	a5,12(s5)
    586a:	dc22                	c.swsp	s0,56(sp)
    586c:	5406                	c.lwsp	s0,96(sp)
    586e:	4516                	c.lwsp	a0,68(sp)
    5870:	da22                	c.swsp	s0,52(sp)
    5872:	4476                	c.lwsp	s0,92(sp)
    5874:	8742                	c.mv	a4,a6
    5876:	d822                	c.swsp	s0,48(sp)
    5878:	4466                	c.lwsp	s0,88(sp)
    587a:	8826                	c.mv	a6,s1
    587c:	d622                	c.swsp	s0,44(sp)
    587e:	4456                	c.lwsp	s0,84(sp)
    5880:	d41e                	c.swsp	t2,40(sp)
    5882:	d022                	c.swsp	s0,32(sp)
    5884:	4446                	c.lwsp	s0,80(sp)
    5886:	d216                	c.swsp	t0,36(sp)
    5888:	ce22                	c.swsp	s0,28(sp)
    588a:	12812403          	lw	s0,296(sp)
    588e:	c87e                	c.swsp	t6,16(sp)
    5890:	cc22                	c.swsp	s0,24(sp)
    5892:	12012403          	lw	s0,288(sp)
    5896:	c676                	c.swsp	t4,12(sp)
    5898:	ca22                	c.swsp	s0,20(sp)
    589a:	c472                	c.swsp	t3,8(sp)
    589c:	c24a                	c.swsp	s2,4(sp)
    589e:	c052                	c.swsp	s4,0(sp)
    58a0:	fe0ff0ef          	jal	ra,5080 <depthwise_conv_s8_mult_4>
    58a4:	bfb1                	c.j	5800 <riscv_depthwise_conv_s8+0x3c0>
	...

000058a8 <riscv_depthwise_conv_s8_opt>:
    58a8:	712d                	c.addi16sp	sp,-288
    58aa:	11412423          	sw	s4,264(sp)
    58ae:	12412a03          	lw	s4,292(sp)
    58b2:	10812c23          	sw	s0,280(sp)
    58b6:	d9ea                	c.swsp	s10,240(sp)
    58b8:	00ca2403          	lw	s0,12(s4)
    58bc:	00c6ad03          	lw	s10,12(a3)
    58c0:	10112e23          	sw	ra,284(sp)
    58c4:	10912a23          	sw	s1,276(sp)
    58c8:	11212823          	sw	s2,272(sp)
    58cc:	11312623          	sw	s3,268(sp)
    58d0:	11512223          	sw	s5,260(sp)
    58d4:	11612023          	sw	s6,256(sp)
    58d8:	dfde                	c.swsp	s7,252(sp)
    58da:	dde2                	c.swsp	s8,248(sp)
    58dc:	dbe6                	c.swsp	s9,244(sp)
    58de:	d7ee                	c.swsp	s11,236(sp)
    58e0:	12812383          	lw	t2,296(sp)
    58e4:	6a8d1063          	bne	s10,s0,5f84 <riscv_depthwise_conv_s8_opt+0x6dc>
    58e8:	8abe                	c.mv	s5,a5
    58ea:	411c                	c.lw	a5,0(a0)
    58ec:	c0c2                	c.swsp	a6,64(sp)
    58ee:	d13a                	c.swsp	a4,160(sp)
    58f0:	c63e                	c.swsp	a5,12(sp)
    58f2:	84b2                	c.mv	s1,a2
    58f4:	8e2e                	c.mv	t3,a1
    58f6:	8b2a                	c.mv	s6,a0
    58f8:	00d00bb3          	add	s7,zero,a3
    58fc:	66078263          	beqz	a5,5f60 <riscv_depthwise_conv_s8_opt+0x6b8>
    5900:	008aa783          	lw	a5,8(s5)
    5904:	008a2703          	lw	a4,8(s4)
    5908:	da3e                	c.swsp	a5,52(sp)
    590a:	004aa783          	lw	a5,4(s5)
    590e:	004a2683          	lw	a3,4(s4)
    5912:	d8be                	c.swsp	a5,112(sp)
    5914:	daba                	c.swsp	a4,116(sp)
    5916:	018e2583          	lw	a1,24(t3)
    591a:	010e2783          	lw	a5,16(t3)
    591e:	5cd05d63          	blez	a3,5ef8 <riscv_depthwise_conv_s8_opt+0x650>
    5922:	5ed2                	c.lwsp	t4,52(sp)
    5924:	5746                	c.lwsp	a4,112(sp)
    5926:	41f45513          	srai	a0,s0,0x1f
    592a:	03d70733          	mul	a4,a4,t4
    592e:	890d                	c.andi	a0,3
    5930:	001d1d93          	slli	s11,s10,0x1
    5934:	01f75813          	srli	a6,a4,0x1f
    5938:	983a                	c.add	a6,a4
    593a:	40185813          	srai	a6,a6,0x1
    593e:	01081313          	slli	t1,a6,0x10
    5942:	9522                	c.add	a0,s0
    5944:	004d8813          	addi	a6,s11,4
    5948:	8509                	c.srai	a0,0x2
    594a:	dd42                	c.swsp	a6,184(sp)
    594c:	01071813          	slli	a6,a4,0x10
    5950:	01085813          	srli	a6,a6,0x10
    5954:	8b05                	c.andi	a4,1
    5956:	0542                	c.slli	a0,0x10
    5958:	8141                	c.srli	a0,0x10
    595a:	01035313          	srli	t1,t1,0x10
    595e:	002d1f13          	slli	t5,s10,0x2
    5962:	d342                	c.swsp	a6,164(sp)
    5964:	c4ba                	c.swsp	a4,72(sp)
    5966:	01079813          	slli	a6,a5,0x10
    596a:	00347713          	andi	a4,s0,3
    596e:	57d6                	c.lwsp	a5,116(sp)
    5970:	01059893          	slli	a7,a1,0x10
    5974:	c12a                	c.swsp	a0,128(sp)
    5976:	c29a                	c.swsp	t1,68(sp)
    5978:	df7a                	c.swsp	t5,188(sp)
    597a:	d4ba                	c.swsp	a4,104(sp)
    597c:	03ae8633          	mul	a2,t4,s10
    5980:	01085813          	srli	a6,a6,0x10
    5984:	0108d893          	srli	a7,a7,0x10
    5988:	56f05863          	blez	a5,5ef8 <riscv_depthwise_conv_s8_opt+0x650>
    598c:	fff30793          	addi	a5,t1,-1 # 3fffffff <_DATA_LMA_START+0x1fff64f7>
    5990:	07c2                	c.slli	a5,0x10
    5992:	fff50593          	addi	a1,a0,-1
    5996:	83c1                	c.srli	a5,0x10
    5998:	00178713          	addi	a4,a5,1 # 10001 <BIN_SIZE+0x606b>
    599c:	008baf83          	lw	t6,8(s7)
    59a0:	01059793          	slli	a5,a1,0x10
    59a4:	83c1                	c.srli	a5,0x10
    59a6:	00178593          	addi	a1,a5,1
    59aa:	03fd07b3          	mul	a5,s10,t6
    59ae:	842a                	c.mv	s0,a0
    59b0:	fffe8513          	addi	a0,t4,-1
    59b4:	c6be                	c.swsp	a5,76(sp)
    59b6:	03a507b3          	mul	a5,a0,s10
    59ba:	00241513          	slli	a0,s0,0x2
    59be:	0044ae83          	lw	t4,4(s1)
    59c2:	c8be                	c.swsp	a5,80(sp)
    59c4:	02ed87b3          	mul	a5,s11,a4
    59c8:	4084                	c.lw	s1,0(s1)
    59ca:	014e2303          	lw	t1,20(t3)
    59ce:	ccbe                	c.swsp	a5,88(sp)
    59d0:	02ef07b3          	mul	a5,t5,a4
    59d4:	004e2403          	lw	s0,4(t3)
    59d8:	00459713          	slli	a4,a1,0x4
    59dc:	cabe                	c.swsp	a5,84(sp)
    59de:	00ce5783          	lhu	a5,12(t3)
    59e2:	40600333          	neg	t1,t1
    59e6:	028e2b03          	lw	s6,40(t3)
    59ea:	c53e                	c.swsp	a5,136(sp)
    59ec:	000e1783          	lh	a5,0(t3)
    59f0:	dea6                	c.swsp	s1,124(sp)
    59f2:	de22                	c.swsp	s0,60(sp)
    59f4:	c83e                	c.swsp	a5,16(sp)
    59f6:	411007b3          	neg	a5,a7
    59fa:	004ba883          	lw	a7,4(s7)
    59fe:	01079b93          	slli	s7,a5,0x10
    5a02:	00259793          	slli	a5,a1,0x2
    5a06:	c93e                	c.swsp	a5,144(sp)
    5a08:	01051793          	slli	a5,a0,0x10
    5a0c:	83c1                	c.srli	a5,0x10
    5a0e:	cf3e                	c.swsp	a5,156(sp)
    5a10:	00e487b3          	add	a5,s1,a4
    5a14:	010bdb93          	srli	s7,s7,0x10
    5a18:	024e2403          	lw	s0,36(t3)
    5a1c:	01031493          	slli	s1,t1,0x10
    5a20:	cd3e                	c.swsp	a5,152(sp)
    5a22:	00ee87b3          	add	a5,t4,a4
    5a26:	4701                	c.li	a4,0
    5a28:	80c1                	c.srli	s1,0x10
    5a2a:	8a5e                	c.mv	s4,s7
    5a2c:	c3b6                	c.swsp	a3,196(sp)
    5a2e:	85b2                	c.mv	a1,a2
    5a30:	86ba                	c.mv	a3,a4
    5a32:	8b9e                	c.mv	s7,t2
    5a34:	c77e                	c.swsp	t6,140(sp)
    5a36:	dcf6                	c.swsp	t4,120(sp)
    5a38:	d6a2                	c.swsp	s0,108(sp)
    5a3a:	cb3e                	c.swsp	a5,148(sp)
    5a3c:	c1c6                	c.swsp	a7,192(sp)
    5a3e:	c5da                	c.swsp	s6,200(sp)
    5a40:	0c912623          	sw	s1,204(sp)
    5a44:	010a1793          	slli	a5,s4,0x10
    5a48:	470e                	c.lwsp	a4,192(sp)
    5a4a:	5646                	c.lwsp	a2,112(sp)
    5a4c:	87c1                	c.srai	a5,0x10
    5a4e:	8f1d                	c.sub	a4,a5
    5a50:	c33a                	c.swsp	a4,132(sp)
    5a52:	f0e6077f          	minw	a4,a2,a4
    5a56:	d2be                	c.swsp	a5,100(sp)
    5a58:	dc3a                	c.swsp	a4,56(sp)
    5a5a:	40f007b3          	neg	a5,a5
    5a5e:	40e60733          	sub	a4,a2,a4
    5a62:	02b70733          	mul	a4,a4,a1
    5a66:	02b78633          	mul	a2,a5,a1
    5a6a:	db3e                	c.swsp	a5,180(sp)
    5a6c:	cdd2                	c.swsp	s4,216(sp)
    5a6e:	47be                	c.lwsp	a5,204(sp)
    5a70:	54ea                	c.lwsp	s1,184(sp)
    5a72:	4b2e                	c.lwsp	s6,200(sp)
    5a74:	5a7a                	c.lwsp	s4,188(sp)
    5a76:	0706                	c.slli	a4,0x1
    5a78:	d532                	c.swsp	a2,168(sp)
    5a7a:	4401                	c.li	s0,0
    5a7c:	0606                	c.slli	a2,0x1
    5a7e:	d732                	c.swsp	a2,172(sp)
    5a80:	d93a                	c.swsp	a4,176(sp)
    5a82:	d082                	c.swsp	zero,96(sp)
    5a84:	c9b6                	c.swsp	a3,208(sp)
    5a86:	cbae                	c.swsp	a1,212(sp)
    5a88:	cebe                	c.swsp	a5,92(sp)
    5a8a:	cfc2                	c.swsp	a6,220(sp)
    5a8c:	cc4a                	c.swsp	s2,24(sp)
    5a8e:	ce4e                	c.swsp	s3,28(sp)
    5a90:	5696                	c.lwsp	a3,100(sp)
    5a92:	05c11803          	lh	a6,92(sp)
    5a96:	4701                	c.li	a4,0
    5a98:	4781                	c.li	a5,0
    5a9a:	0206d163          	bgez	a3,5abc <riscv_depthwise_conv_s8_opt+0x214>
    5a9e:	575a                	c.lwsp	a4,180(sp)
    5aa0:	57aa                	c.lwsp	a5,168(sp)
    5aa2:	563a                	c.lwsp	a2,172(sp)
    5aa4:	4532                	c.lwsp	a0,12(sp)
    5aa6:	4581                	c.li	a1,0
    5aa8:	d242                	c.swsp	a6,36(sp)
    5aaa:	d03a                	c.swsp	a4,32(sp)
    5aac:	00f12a23          	sw	a5,20(sp)
    5ab0:	7a3020ef          	jal	ra,8a52 <memset>
    5ab4:	5812                	c.lwsp	a6,36(sp)
    5ab6:	5702                	c.lwsp	a4,32(sp)
    5ab8:	01412783          	lw	a5,20(sp)
    5abc:	56e2                	c.lwsp	a3,56(sp)
    5abe:	0ad75363          	bge	a4,a3,5b64 <riscv_depthwise_conv_s8_opt+0x2bc>
    5ac2:	5696                	c.lwsp	a3,100(sp)
    5ac4:	85c2                	c.mv	a1,a6
    5ac6:	00e68633          	add	a2,a3,a4
    5aca:	46ba                	c.lwsp	a3,140(sp)
    5acc:	d026                	c.swsp	s1,32(sp)
    5ace:	d252                	c.swsp	s4,36(sp)
    5ad0:	c4d615ff          	maddr32	a1,a2,a3
    5ad4:	5652                	c.lwsp	a2,52(sp)
    5ad6:	d85a                	c.swsp	s6,48(sp)
    5ad8:	01060ab3          	add	s5,a2,a6
    5adc:	560a                	c.lwsp	a2,160(sp)
    5ade:	84b6                	c.mv	s1,a3
    5ae0:	8a3a                	c.mv	s4,a4
    5ae2:	c5a5967f          	maddr32	a2,a1,s10
    5ae6:	ca42                	c.swsp	a6,20(sp)
    5ae8:	8b32                	c.mv	s6,a2
    5aea:	13712423          	sw	s7,296(sp)
    5aee:	d462                	c.swsp	s8,40(sp)
    5af0:	03912623          	sw	s9,44(sp)
    5af4:	5752                	c.lwsp	a4,52(sp)
    5af6:	04e05963          	blez	a4,5b48 <riscv_depthwise_conv_s8_opt+0x2a0>
    5afa:	4732                	c.lwsp	a4,12(sp)
    5afc:	00179893          	slli	a7,a5,0x1
    5b00:	4bd2                	c.lwsp	s7,20(sp)
    5b02:	011709b3          	add	s3,a4,a7
    5b06:	8cda                	c.mv	s9,s6
    5b08:	893e                	c.mv	s2,a5
    5b0a:	a809                	c.j	5b1c <riscv_depthwise_conv_s8_opt+0x274>
    5b0c:	0b85                	c.addi	s7,1
    5b0e:	99ee                	c.add	s3,s11
    5b10:	01ac8cb3          	add	s9,s9,s10
    5b14:	73f020ef          	jal	ra,8a52 <memset>
    5b18:	037a8463          	beq	s5,s7,5b40 <riscv_depthwise_conv_s8_opt+0x298>
    5b1c:	866e                	c.mv	a2,s11
    5b1e:	4581                	c.li	a1,0
    5b20:	854e                	c.mv	a0,s3
    5b22:	fe0bc5e3          	bltz	s7,5b0c <riscv_depthwise_conv_s8_opt+0x264>
    5b26:	fe9bd3e3          	bge	s7,s1,5b0c <riscv_depthwise_conv_s8_opt+0x264>
    5b2a:	46c2                	c.lwsp	a3,16(sp)
    5b2c:	85ce                	c.mv	a1,s3
    5b2e:	8566                	c.mv	a0,s9
    5b30:	866a                	c.mv	a2,s10
    5b32:	0b85                	c.addi	s7,1
    5b34:	99ee                	c.add	s3,s11
    5b36:	9cea                	c.add	s9,s10
    5b38:	599020ef          	jal	ra,88d0 <riscv_q7_to_q15_with_offset>
    5b3c:	ff7a90e3          	bne	s5,s7,5b1c <riscv_depthwise_conv_s8_opt+0x274>
    5b40:	4746                	c.lwsp	a4,80(sp)
    5b42:	012d07b3          	add	a5,s10,s2
    5b46:	97ba                	c.add	a5,a4
    5b48:	4736                	c.lwsp	a4,76(sp)
    5b4a:	0a05                	c.addi	s4,1
    5b4c:	9b3a                	c.add	s6,a4
    5b4e:	5762                	c.lwsp	a4,56(sp)
    5b50:	faea12e3          	bne	s4,a4,5af4 <riscv_depthwise_conv_s8_opt+0x24c>
    5b54:	5482                	c.lwsp	s1,32(sp)
    5b56:	5a12                	c.lwsp	s4,36(sp)
    5b58:	5b42                	c.lwsp	s6,48(sp)
    5b5a:	12812b83          	lw	s7,296(sp)
    5b5e:	5c22                	c.lwsp	s8,40(sp)
    5b60:	02c12c83          	lw	s9,44(sp)
    5b64:	5746                	c.lwsp	a4,112(sp)
    5b66:	469a                	c.lwsp	a3,132(sp)
    5b68:	3ce6c863          	blt	a3,a4,5f38 <riscv_depthwise_conv_s8_opt+0x690>
    5b6c:	08012783          	lw	a5,128(sp)
    5b70:	3e078063          	beqz	a5,5f50 <riscv_depthwise_conv_s8_opt+0x6a8>
    5b74:	47ca                	c.lwsp	a5,144(sp)
    5b76:	5f76                	c.lwsp	t5,124(sp)
    5b78:	5ee6                	c.lwsp	t4,120(sp)
    5b7a:	12012883          	lw	a7,288(sp)
    5b7e:	5536                	c.lwsp	a0,108(sp)
    5b80:	4962                	c.lwsp	s2,24(sp)
    5b82:	49f2                	c.lwsp	s3,28(sp)
    5b84:	97de                	c.add	a5,s7
    5b86:	4581                	c.li	a1,0
    5b88:	02f12423          	sw	a5,40(sp)
    5b8c:	3a088063          	beqz	a7,5f2c <riscv_depthwise_conv_s8_opt+0x684>
    5b90:	0008a383          	lw	t2,0(a7)
    5b94:	0048a283          	lw	t0,4(a7)
    5b98:	0088af83          	lw	t6,8(a7)
    5b9c:	00c8ae03          	lw	t3,12(a7)
    5ba0:	01088893          	addi	a7,a7,16
    5ba4:	4706                	c.lwsp	a4,64(sp)
    5ba6:	00458793          	addi	a5,a1,4
    5baa:	00b70ab3          	add	s5,a4,a1
    5bae:	4616                	c.lwsp	a2,68(sp)
    5bb0:	4732                	c.lwsp	a4,12(sp)
    5bb2:	00159313          	slli	t1,a1,0x1
    5bb6:	01079593          	slli	a1,a5,0x10
    5bba:	933a                	c.add	t1,a4
    5bbc:	81c1                	c.srli	a1,0x10
    5bbe:	c24d                	c.beqz	a2,5c60 <riscv_depthwise_conv_s8_opt+0x3b8>
    5bc0:	8856                	c.mv	a6,s5
    5bc2:	869a                	c.mv	a3,t1
    5bc4:	ca76                	c.swsp	t4,20(sp)
    5bc6:	cc2e                	c.swsp	a1,24(sp)
    5bc8:	d046                	c.swsp	a7,32(sp)
    5bca:	d22a                	c.swsp	a0,36(sp)
    5bcc:	02612823          	sw	t1,48(sp)
    5bd0:	00082583          	lw	a1,0(a6)
    5bd4:	01a80733          	add	a4,a6,s10
    5bd8:	4318                	c.lw	a4,0(a4)
    5bda:	0006a303          	lw	t1,0(a3)
    5bde:	00dd87b3          	add	a5,s11,a3
    5be2:	439c                	c.lw	a5,0(a5)
    5be4:	ac9588ff          	sunpkd820	a7,a1
    5be8:	8c2e                	c.mv	s8,a1
    5bea:	8cae                	c.mv	s9,a1
    5bec:	de8c05ff          	wexti	a1,s8,8
    5bf0:	ac9585ff          	sunpkd820	a1,a1
    5bf4:	ac970eff          	sunpkd820	t4,a4
    5bf8:	893a                	c.mv	s2,a4
    5bfa:	89ba                	c.mv	s3,a4
    5bfc:	de89077f          	wexti	a4,s2,8
    5c00:	ac97077f          	sunpkd820	a4,a4
    5c04:	0ef3157f          	pkbb16	a0,t1,a5
    5c08:	2e6797ff          	pktt16	a5,a5,t1
    5c0c:	0fd8937f          	pkbb16	t1,a7,t4
    5c10:	486513ff          	kmada	t2,a0,t1
    5c14:	0eb7157f          	pkbb16	a0,a4,a1
    5c18:	48a792ff          	kmada	t0,a5,a0
    5c1c:	00468793          	addi	a5,a3,4
    5c20:	0007a303          	lw	t1,0(a5)
    5c24:	00d487b3          	add	a5,s1,a3
    5c28:	439c                	c.lw	a5,0(a5)
    5c2a:	0ef3157f          	pkbb16	a0,t1,a5
    5c2e:	2e6797ff          	pktt16	a5,a5,t1
    5c32:	2fd898ff          	pktt16	a7,a7,t4
    5c36:	49151fff          	kmada	t6,a0,a7
    5c3a:	2eb7177f          	pktt16	a4,a4,a1
    5c3e:	48e79e7f          	kmada	t3,a5,a4
    5c42:	167d                	c.addi	a2,-1
    5c44:	0642                	c.slli	a2,0x10
    5c46:	8241                	c.srli	a2,0x10
    5c48:	986e                	c.add	a6,s11
    5c4a:	96d2                	c.add	a3,s4
    5c4c:	f251                	c.bnez	a2,5bd0 <riscv_depthwise_conv_s8_opt+0x328>
    5c4e:	47e6                	c.lwsp	a5,88(sp)
    5c50:	5342                	c.lwsp	t1,48(sp)
    5c52:	9abe                	c.add	s5,a5
    5c54:	47d6                	c.lwsp	a5,84(sp)
    5c56:	4ed2                	c.lwsp	t4,20(sp)
    5c58:	45e2                	c.lwsp	a1,24(sp)
    5c5a:	5882                	c.lwsp	a7,32(sp)
    5c5c:	5512                	c.lwsp	a0,36(sp)
    5c5e:	933e                	c.add	t1,a5
    5c60:	47a6                	c.lwsp	a5,72(sp)
    5c62:	cf8d                	c.beqz	a5,5c9c <riscv_depthwise_conv_s8_opt+0x3f4>
    5c64:	002a8703          	lb	a4,2(s5)
    5c68:	000a8783          	lb	a5,0(s5)
    5c6c:	00031803          	lh	a6,0(t1)
    5c70:	ca3a                	c.swsp	a4,20(sp)
    5c72:	00431703          	lh	a4,4(t1)
    5c76:	001a8603          	lb	a2,1(s5)
    5c7a:	00231683          	lh	a3,2(t1)
    5c7e:	003a8a83          	lb	s5,3(s5)
    5c82:	00631303          	lh	t1,6(t1)
    5c86:	c50793ff          	maddr32	t2,a5,a6
    5c8a:	87ba                	c.mv	a5,a4
    5c8c:	01412703          	lw	a4,20(sp)
    5c90:	c4d612ff          	maddr32	t0,a2,a3
    5c94:	c46a9e7f          	maddr32	t3,s5,t1
    5c98:	c4f71fff          	maddr32	t6,a4,a5
    5c9c:	000ea683          	lw	a3,0(t4)
    5ca0:	000f2803          	lw	a6,0(t5) # 40000000 <_DATA_LMA_START+0x1fff64f8>
    5ca4:	f286867f          	maxw	a2,a3,s0
    5ca8:	00c39633          	sll	a2,t2,a2
    5cac:	40000737          	lui	a4,0x40000
    5cb0:	4781                	c.li	a5,0
    5cb2:	8506177f          	smar64	a4,a2,a6
    5cb6:	40d006b3          	neg	a3,a3
    5cba:	4305                	c.li	t1,1
    5cbc:	f28686ff          	maxw	a3,a3,s0
    5cc0:	00d31633          	sll	a2,t1,a3
    5cc4:	dff7077f          	wexti	a4,a4,31
    5cc8:	fff60793          	addi	a5,a2,-1 # 3fffffff <_DATA_LMA_START+0x1fff64f7>
    5ccc:	00072813          	slti	a6,a4,0
    5cd0:	4017d613          	srai	a2,a5,0x1
    5cd4:	9642                	c.add	a2,a6
    5cd6:	8ff9                	c.and	a5,a4
    5cd8:	53f2                	c.lwsp	t2,60(sp)
    5cda:	00f627b3          	slt	a5,a2,a5
    5cde:	40d75733          	sra	a4,a4,a3
    5ce2:	973e                	c.add	a4,a5
    5ce4:	971e                	c.add	a4,t2
    5ce6:	f2e5077f          	maxw	a4,a0,a4
    5cea:	f0eb077f          	minw	a4,s6,a4
    5cee:	00eb8023          	sb	a4,0(s7)
    5cf2:	004ea683          	lw	a3,4(t4)
    5cf6:	004f2803          	lw	a6,4(t5)
    5cfa:	f286867f          	maxw	a2,a3,s0
    5cfe:	00c29633          	sll	a2,t0,a2
    5d02:	40000737          	lui	a4,0x40000
    5d06:	4781                	c.li	a5,0
    5d08:	8506177f          	smar64	a4,a2,a6
    5d0c:	40d006b3          	neg	a3,a3
    5d10:	f28686ff          	maxw	a3,a3,s0
    5d14:	00d31633          	sll	a2,t1,a3
    5d18:	dff7077f          	wexti	a4,a4,31
    5d1c:	fff60793          	addi	a5,a2,-1
    5d20:	00072813          	slti	a6,a4,0
    5d24:	4017d613          	srai	a2,a5,0x1
    5d28:	9642                	c.add	a2,a6
    5d2a:	8ff9                	c.and	a5,a4
    5d2c:	00f627b3          	slt	a5,a2,a5
    5d30:	40d75733          	sra	a4,a4,a3
    5d34:	973e                	c.add	a4,a5
    5d36:	971e                	c.add	a4,t2
    5d38:	f2e5077f          	maxw	a4,a0,a4
    5d3c:	f0eb077f          	minw	a4,s6,a4
    5d40:	00eb80a3          	sb	a4,1(s7)
    5d44:	008ea683          	lw	a3,8(t4)
    5d48:	008f2803          	lw	a6,8(t5)
    5d4c:	f286867f          	maxw	a2,a3,s0
    5d50:	00cf9633          	sll	a2,t6,a2
    5d54:	40000737          	lui	a4,0x40000
    5d58:	4781                	c.li	a5,0
    5d5a:	8506177f          	smar64	a4,a2,a6
    5d5e:	40d006b3          	neg	a3,a3
    5d62:	f28686ff          	maxw	a3,a3,s0
    5d66:	00d31633          	sll	a2,t1,a3
    5d6a:	dff7077f          	wexti	a4,a4,31
    5d6e:	fff60793          	addi	a5,a2,-1
    5d72:	00072813          	slti	a6,a4,0
    5d76:	4017d613          	srai	a2,a5,0x1
    5d7a:	9642                	c.add	a2,a6
    5d7c:	8ff9                	c.and	a5,a4
    5d7e:	00f627b3          	slt	a5,a2,a5
    5d82:	40d75733          	sra	a4,a4,a3
    5d86:	973e                	c.add	a4,a5
    5d88:	971e                	c.add	a4,t2
    5d8a:	f2e5077f          	maxw	a4,a0,a4
    5d8e:	f0eb077f          	minw	a4,s6,a4
    5d92:	0ec1                	c.addi	t4,16
    5d94:	00eb8123          	sb	a4,2(s7)
    5d98:	ffcea683          	lw	a3,-4(t4)
    5d9c:	00cf2803          	lw	a6,12(t5)
    5da0:	f286867f          	maxw	a2,a3,s0
    5da4:	00ce1633          	sll	a2,t3,a2
    5da8:	40000737          	lui	a4,0x40000
    5dac:	4781                	c.li	a5,0
    5dae:	8506177f          	smar64	a4,a2,a6
    5db2:	40d006b3          	neg	a3,a3
    5db6:	f28686ff          	maxw	a3,a3,s0
    5dba:	00d31633          	sll	a2,t1,a3
    5dbe:	dff7077f          	wexti	a4,a4,31
    5dc2:	fff60793          	addi	a5,a2,-1
    5dc6:	4017d613          	srai	a2,a5,0x1
    5dca:	00072813          	slti	a6,a4,0
    5dce:	8ff9                	c.and	a5,a4
    5dd0:	9642                	c.add	a2,a6
    5dd2:	00f627b3          	slt	a5,a2,a5
    5dd6:	40d75733          	sra	a4,a4,a3
    5dda:	973e                	c.add	a4,a5
    5ddc:	971e                	c.add	a4,t2
    5dde:	f2e5077f          	maxw	a4,a0,a4
    5de2:	0b91                	c.addi	s7,4
    5de4:	f0eb077f          	minw	a4,s6,a4
    5de8:	57a2                	c.lwsp	a5,40(sp)
    5dea:	feeb8fa3          	sb	a4,-1(s7)
    5dee:	0f41                	c.addi	t5,16
    5df0:	d8fb9ee3          	bne	s7,a5,5b8c <riscv_depthwise_conv_s8_opt+0x2e4>
    5df4:	457a                	c.lwsp	a0,156(sp)
    5df6:	436a                	c.lwsp	t1,152(sp)
    5df8:	485a                	c.lwsp	a6,148(sp)
    5dfa:	8e3e                	c.mv	t3,a5
    5dfc:	cc4a                	c.swsp	s2,24(sp)
    5dfe:	ce4e                	c.swsp	s3,28(sp)
    5e00:	57a6                	c.lwsp	a5,104(sp)
    5e02:	8bf2                	c.mv	s7,t3
    5e04:	cfd5                	c.beqz	a5,5ec0 <riscv_depthwise_conv_s8_opt+0x618>
    5e06:	00f50eb3          	add	t4,a0,a5
    5e0a:	0ec2                	c.slli	t4,0x10
    5e0c:	43b2                	c.lwsp	t2,12(sp)
    5e0e:	569a                	c.lwsp	a3,164(sp)
    5e10:	55f2                	c.lwsp	a1,60(sp)
    5e12:	52b6                	c.lwsp	t0,108(sp)
    5e14:	4a86                	c.lwsp	s5,64(sp)
    5e16:	010ede93          	srli	t4,t4,0x10
    5e1a:	4f05                	c.li	t5,1
    5e1c:	87aa                	c.mv	a5,a0
    5e1e:	4b81                	c.li	s7,0
    5e20:	00088663          	beqz	a7,5e2c <riscv_depthwise_conv_s8_opt+0x584>
    5e24:	0008ab83          	lw	s7,0(a7)
    5e28:	00488893          	addi	a7,a7,4
    5e2c:	0505                	c.addi	a0,1
    5e2e:	0542                	c.slli	a0,0x10
    5e30:	8141                	c.srli	a0,0x10
    5e32:	c29d                	c.beqz	a3,5e58 <riscv_depthwise_conv_s8_opt+0x5b0>
    5e34:	00179713          	slli	a4,a5,0x1
    5e38:	971e                	c.add	a4,t2
    5e3a:	97d6                	c.add	a5,s5
    5e3c:	00000613          	li	a2,0
    5e40:	00078983          	lb	s3,0(a5)
    5e44:	00071903          	lh	s2,0(a4) # 40000000 <_DATA_LMA_START+0x1fff64f8>
    5e48:	0605                	c.addi	a2,1
    5e4a:	97ea                	c.add	a5,s10
    5e4c:	c5299bff          	maddr32	s7,s3,s2
    5e50:	01b70733          	add	a4,a4,s11
    5e54:	fec696e3          	bne	a3,a2,5e40 <riscv_depthwise_conv_s8_opt+0x598>
    5e58:	00082603          	lw	a2,0(a6)
    5e5c:	00032903          	lw	s2,0(t1)
    5e60:	f28607ff          	maxw	a5,a2,s0
    5e64:	00fb9bb3          	sll	s7,s7,a5
    5e68:	40000737          	lui	a4,0x40000
    5e6c:	4781                	c.li	a5,0
    5e6e:	852b977f          	smar64	a4,s7,s2
    5e72:	40c00633          	neg	a2,a2
    5e76:	f286067f          	maxw	a2,a2,s0
    5e7a:	00cf1bb3          	sll	s7,t5,a2
    5e7e:	dff7077f          	wexti	a4,a4,31
    5e82:	fffb8793          	addi	a5,s7,-1
    5e86:	4017db93          	srai	s7,a5,0x1
    5e8a:	00072993          	slti	s3,a4,0
    5e8e:	8ff9                	c.and	a5,a4
    5e90:	9bce                	c.add	s7,s3
    5e92:	00fba7b3          	slt	a5,s7,a5
    5e96:	40c75733          	sra	a4,a4,a2
    5e9a:	973e                	c.add	a4,a5
    5e9c:	00e587b3          	add	a5,a1,a4
    5ea0:	f2f287ff          	maxw	a5,t0,a5
    5ea4:	0e05                	c.addi	t3,1
    5ea6:	f0fb07ff          	minw	a5,s6,a5
    5eaa:	fefe0fa3          	sb	a5,-1(t3)
    5eae:	0311                	c.addi	t1,4
    5eb0:	0811                	c.addi	a6,4
    5eb2:	f7d515e3          	bne	a0,t4,5e1c <riscv_depthwise_conv_s8_opt+0x574>
    5eb6:	57a2                	c.lwsp	a5,40(sp)
    5eb8:	06812703          	lw	a4,104(sp)
    5ebc:	00e78bb3          	add	s7,a5,a4
    5ec0:	47f6                	c.lwsp	a5,92(sp)
    5ec2:	472a                	c.lwsp	a4,136(sp)
    5ec4:	97ba                	c.add	a5,a4
    5ec6:	07c2                	c.slli	a5,0x10
    5ec8:	5706                	c.lwsp	a4,96(sp)
    5eca:	83c1                	c.srli	a5,0x10
    5ecc:	0705                	c.addi	a4,1
    5ece:	cebe                	c.swsp	a5,92(sp)
    5ed0:	57d6                	c.lwsp	a5,116(sp)
    5ed2:	d0ba                	c.swsp	a4,96(sp)
    5ed4:	bae79ee3          	bne	a5,a4,5a90 <riscv_depthwise_conv_s8_opt+0x1e8>
    5ed8:	4a6e                	c.lwsp	s4,216(sp)
    5eda:	487e                	c.lwsp	a6,220(sp)
    5edc:	46ce                	c.lwsp	a3,208(sp)
    5ede:	010a07b3          	add	a5,s4,a6
    5ee2:	01079a13          	slli	s4,a5,0x10
    5ee6:	479e                	c.lwsp	a5,196(sp)
    5ee8:	0685                	c.addi	a3,1
    5eea:	45de                	c.lwsp	a1,212(sp)
    5eec:	4962                	c.lwsp	s2,24(sp)
    5eee:	49f2                	c.lwsp	s3,28(sp)
    5ef0:	010a5a13          	srli	s4,s4,0x10
    5ef4:	b4d798e3          	bne	a5,a3,5a44 <riscv_depthwise_conv_s8_opt+0x19c>
    5ef8:	00000513          	li	a0,0
    5efc:	11c12083          	lw	ra,284(sp)
    5f00:	11812403          	lw	s0,280(sp)
    5f04:	11412483          	lw	s1,276(sp)
    5f08:	11012903          	lw	s2,272(sp)
    5f0c:	10c12983          	lw	s3,268(sp)
    5f10:	10812a03          	lw	s4,264(sp)
    5f14:	10412a83          	lw	s5,260(sp)
    5f18:	10012b03          	lw	s6,256(sp)
    5f1c:	5bfe                	c.lwsp	s7,252(sp)
    5f1e:	5c6e                	c.lwsp	s8,248(sp)
    5f20:	5cde                	c.lwsp	s9,244(sp)
    5f22:	5d4e                	c.lwsp	s10,240(sp)
    5f24:	5dbe                	c.lwsp	s11,236(sp)
    5f26:	6115                	c.addi16sp	sp,288
    5f28:	00008067          	ret
    5f2c:	4e01                	c.li	t3,0
    5f2e:	4f81                	c.li	t6,0
    5f30:	4281                	c.li	t0,0
    5f32:	4381                	c.li	t2,0
    5f34:	c71ff06f          	j	5ba4 <riscv_depthwise_conv_s8_opt+0x2fc>
    5f38:	4732                	c.lwsp	a4,12(sp)
    5f3a:	0786                	c.slli	a5,0x1
    5f3c:	564a                	c.lwsp	a2,176(sp)
    5f3e:	00f70533          	add	a0,a4,a5
    5f42:	4581                	c.li	a1,0
    5f44:	30f020ef          	jal	ra,8a52 <memset>
    5f48:	08012783          	lw	a5,128(sp)
    5f4c:	c20794e3          	bnez	a5,5b74 <riscv_depthwise_conv_s8_opt+0x2cc>
    5f50:	5376                	c.lwsp	t1,124(sp)
    5f52:	5866                	c.lwsp	a6,120(sp)
    5f54:	12012883          	lw	a7,288(sp)
    5f58:	4501                	c.li	a0,0
    5f5a:	8e5e                	c.mv	t3,s7
    5f5c:	d45e                	c.swsp	s7,40(sp)
    5f5e:	b54d                	c.j	5e00 <riscv_depthwise_conv_s8_opt+0x558>
    5f60:	c82e                	c.swsp	a1,16(sp)
    5f62:	8536                	c.mv	a0,a3
    5f64:	015005b3          	add	a1,zero,s5
    5f68:	12712423          	sw	t2,296(sp)
    5f6c:	905fd0ef          	jal	ra,3870 <riscv_depthwise_conv_s8_opt_get_buffer_size>
    5f70:	00a04a63          	bgtz	a0,5f84 <riscv_depthwise_conv_s8_opt+0x6dc>
    5f74:	000b2783          	lw	a5,0(s6)
    5f78:	4e42                	c.lwsp	t3,16(sp)
    5f7a:	12812383          	lw	t2,296(sp)
    5f7e:	c63e                	c.swsp	a5,12(sp)
    5f80:	981ff06f          	j	5900 <riscv_depthwise_conv_s8_opt+0x58>
    5f84:	557d                	c.li	a0,-1
    5f86:	bf9d                	c.j	5efc <riscv_depthwise_conv_s8_opt+0x654>

00005f88 <riscv_depthwise_conv_3x3_s8>:
    5f88:	ad010113          	addi	sp,sp,-1328
    5f8c:	53412303          	lw	t1,1332(sp)
    5f90:	00462e03          	lw	t3,4(a2)
    5f94:	4210                	c.lw	a2,0(a2)
    5f96:	00c5a883          	lw	a7,12(a1)
    5f9a:	00c32e83          	lw	t4,12(t1)
    5f9e:	26c12e23          	sw	a2,636(sp)
    5fa2:	00832603          	lw	a2,8(t1)
    5fa6:	00432303          	lw	t1,4(t1)
    5faa:	52812423          	sw	s0,1320(sp)
    5fae:	46c0                	c.lw	s0,12(a3)
    5fb0:	0086af83          	lw	t6,8(a3)
    5fb4:	52912223          	sw	s1,1316(sp)
    5fb8:	51712623          	sw	s7,1292(sp)
    5fbc:	42c4                	c.lw	s1,4(a3)
    5fbe:	51912223          	sw	s9,1284(sp)
    5fc2:	47112623          	sw	a7,1132(sp)
    5fc6:	27c12c23          	sw	t3,632(sp)
    5fca:	49d4                	c.lw	a3,20(a1)
    5fcc:	4d88                	c.lw	a0,24(a1)
    5fce:	0105a883          	lw	a7,16(a1)
    5fd2:	0045ae03          	lw	t3,4(a1)
    5fd6:	52112623          	sw	ra,1324(sp)
    5fda:	53212023          	sw	s2,1312(sp)
    5fde:	51312e23          	sw	s3,1308(sp)
    5fe2:	51412c23          	sw	s4,1304(sp)
    5fe6:	51512a23          	sw	s5,1300(sp)
    5fea:	51612823          	sw	s6,1296(sp)
    5fee:	51812423          	sw	s8,1288(sp)
    5ff2:	51a12023          	sw	s10,1280(sp)
    5ff6:	4fb12e23          	sw	s11,1276(sp)
    5ffa:	46c12823          	sw	a2,1136(sp)
    5ffe:	4a612e23          	sw	t1,1212(sp)
    6002:	0005ad03          	lw	s10,0(a1)
    6006:	4ae12023          	sw	a4,1184(sp)
    600a:	c242                	c.swsp	a6,4(sp)
    600c:	0245ac83          	lw	s9,36(a1)
    6010:	0285ab83          	lw	s7,40(a1)
    6014:	01d40463          	beq	s0,t4,601c <riscv_depthwise_conv_3x3_s8+0x94>
    6018:	7500106f          	j	7768 <riscv_depthwise_conv_3x3_s8+0x17e0>
    601c:	873e                	c.mv	a4,a5
    601e:	4785                	c.li	a5,1
    6020:	00d7d463          	bge	a5,a3,6028 <riscv_depthwise_conv_3x3_s8+0xa0>
    6024:	7440106f          	j	7768 <riscv_depthwise_conv_3x3_s8+0x17e0>
    6028:	4710                	c.lw	a2,8(a4)
    602a:	478d                	c.li	a5,3
    602c:	00f60463          	beq	a2,a5,6034 <riscv_depthwise_conv_3x3_s8+0xac>
    6030:	7380106f          	j	7768 <riscv_depthwise_conv_3x3_s8+0x17e0>
    6034:	435c                	c.lw	a5,4(a4)
    6036:	00c78463          	beq	a5,a2,603e <riscv_depthwise_conv_3x3_s8+0xb6>
    603a:	72e0106f          	j	7768 <riscv_depthwise_conv_3x3_s8+0x17e0>
    603e:	40a00833          	neg	a6,a0
    6042:	0c605de3          	blez	t1,691c <riscv_depthwise_conv_3x3_s8+0x994>
    6046:	028f8a33          	mul	s4,t6,s0
    604a:	00141593          	slli	a1,s0,0x1
    604e:	00858db3          	add	s11,a1,s0
    6052:	47012783          	lw	a5,1136(sp)
    6056:	4cb12423          	sw	a1,1224(sp)
    605a:	45412823          	sw	s4,1104(sp)
    605e:	45b12023          	sw	s11,1088(sp)
    6062:	40d002b3          	neg	t0,a3
    6066:	0af05be3          	blez	a5,691c <riscv_depthwise_conv_3x3_s8+0x994>
    606a:	46c12603          	lw	a2,1132(sp)
    606e:	4799                	c.li	a5,6
    6070:	02c40633          	mul	a2,s0,a2
    6074:	02f40733          	mul	a4,s0,a5
    6078:	ffc40793          	addi	a5,s0,-4
    607c:	02828f33          	mul	t5,t0,s0
    6080:	46c12a23          	sw	a2,1140(sp)
    6084:	ffc7f613          	andi	a2,a5,-4
    6088:	00460793          	addi	a5,a2,4
    608c:	48f12c23          	sw	a5,1176(sp)
    6090:	00241793          	slli	a5,s0,0x2
    6094:	00e58933          	add	s2,a1,a4
    6098:	36f12823          	sw	a5,880(sp)
    609c:	53812583          	lw	a1,1336(sp)
    60a0:	01ea07b3          	add	a5,s4,t5
    60a4:	4cf12023          	sw	a5,1216(sp)
    60a8:	01f687b3          	add	a5,a3,t6
    60ac:	89b2                	c.mv	s3,a2
    60ae:	0591                	c.addi	a1,4
    60b0:	4cf12223          	sw	a5,1220(sp)
    60b4:	41b907b3          	sub	a5,s2,s11
    60b8:	001a1b13          	slli	s6,s4,0x1
    60bc:	4cf12823          	sw	a5,1232(sp)
    60c0:	013587b3          	add	a5,a1,s3
    60c4:	00341393          	slli	t2,s0,0x3
    60c8:	01eb0c33          	add	s8,s6,t5
    60cc:	00950333          	add	t1,a0,s1
    60d0:	48f12e23          	sw	a5,1180(sp)
    60d4:	4481                	c.li	s1,0
    60d6:	4792                	c.lwsp	a5,4(sp)
    60d8:	00e40fb3          	add	t6,s0,a4
    60dc:	4b612223          	sw	s6,1188(sp)
    60e0:	4d212623          	sw	s2,1228(sp)
    60e4:	00838b33          	add	s6,t2,s0
    60e8:	48c12a23          	sw	a2,1172(sp)
    60ec:	4d812e23          	sw	s8,1244(sp)
    60f0:	01b40633          	add	a2,s0,s11
    60f4:	8c5e                	c.mv	s8,s7
    60f6:	4e712023          	sw	t2,1248(sp)
    60fa:	4e81                	c.li	t4,0
    60fc:	4a81                	c.li	s5,0
    60fe:	89a2                	c.mv	s3,s0
    6100:	8926                	c.mv	s2,s1
    6102:	8be6                	c.mv	s7,s9
    6104:	83f2                	c.mv	t2,t3
    6106:	c7ea                	c.swsp	s10,204(sp)
    6108:	4c512a23          	sw	t0,1236(sp)
    610c:	4de12c23          	sw	t5,1240(sp)
    6110:	4f612223          	sw	s6,1252(sp)
    6114:	4ff12423          	sw	t6,1256(sp)
    6118:	4ec12623          	sw	a2,1260(sp)
    611c:	44012f03          	lw	t5,1088(sp)
    6120:	f35505ff          	maxw	a1,a0,s5
    6124:	45012683          	lw	a3,1104(sp)
    6128:	03e58433          	mul	s0,a1,t5
    612c:	00b80733          	add	a4,a6,a1
    6130:	02d70733          	mul	a4,a4,a3
    6134:	4e412683          	lw	a3,1252(sp)
    6138:	4e012603          	lw	a2,1248(sp)
    613c:	96a2                	c.add	a3,s0
    613e:	40c68e33          	sub	t3,a3,a2
    6142:	46d12c23          	sw	a3,1144(sp)
    6146:	4c012683          	lw	a3,1216(sp)
    614a:	4dc12483          	lw	s1,1244(sp)
    614e:	00e68633          	add	a2,a3,a4
    6152:	4d812683          	lw	a3,1240(sp)
    6156:	49c12023          	sw	t3,1152(sp)
    615a:	96ba                	c.add	a3,a4
    615c:	9726                	c.add	a4,s1
    615e:	4c812483          	lw	s1,1224(sp)
    6162:	d0ae                	c.swsp	a1,96(sp)
    6164:	01c48fb3          	add	t6,s1,t3
    6168:	4e0d                	c.li	t3,3
    616a:	f1c302ff          	minw	t0,t1,t3
    616e:	4a012e03          	lw	t3,1184(sp)
    6172:	46812223          	sw	s0,1124(sp)
    6176:	9672                	c.add	a2,t3
    6178:	36c12e23          	sw	a2,892(sp)
    617c:	8672                	c.mv	a2,t3
    617e:	9e36                	c.add	t3,a3
    6180:	00e606b3          	add	a3,a2,a4
    6184:	4c412703          	lw	a4,1220(sp)
    6188:	49f12623          	sw	t6,1164(sp)
    618c:	ceba                	c.swsp	a4,92(sp)
    618e:	00158713          	addi	a4,a1,1
    6192:	18e12823          	sw	a4,400(sp)
    6196:	00258713          	addi	a4,a1,2
    619a:	18e12a23          	sw	a4,404(sp)
    619e:	00358713          	addi	a4,a1,3
    61a2:	44e12423          	sw	a4,1096(sp)
    61a6:	4d412703          	lw	a4,1236(sp)
    61aa:	44012223          	sw	zero,1092(sp)
    61ae:	d2ba                	c.swsp	a4,100(sp)
    61b0:	4e812703          	lw	a4,1256(sp)
    61b4:	8c9e                	c.mv	s9,t2
    61b6:	9722                	c.add	a4,s0
    61b8:	46e12e23          	sw	a4,1148(sp)
    61bc:	4ec12703          	lw	a4,1260(sp)
    61c0:	83f2                	c.mv	t2,t3
    61c2:	9722                	c.add	a4,s0
    61c4:	46e12423          	sw	a4,1128(sp)
    61c8:	4cc12703          	lw	a4,1228(sp)
    61cc:	85be                	c.mv	a1,a5
    61ce:	9722                	c.add	a4,s0
    61d0:	48e12223          	sw	a4,1156(sp)
    61d4:	4d012703          	lw	a4,1232(sp)
    61d8:	9722                	c.add	a4,s0
    61da:	48e12423          	sw	a4,1160(sp)
    61de:	01ff0733          	add	a4,t5,t6
    61e2:	48e12823          	sw	a4,1168(sp)
    61e6:	00152713          	slti	a4,a0,1
    61ea:	44e12623          	sw	a4,1100(sp)
    61ee:	cc96                	c.swsp	t0,88(sp)
    61f0:	00d002b3          	add	t0,zero,a3
    61f4:	4b112423          	sw	a7,1192(sp)
    61f8:	4b012623          	sw	a6,1196(sp)
    61fc:	4bd12823          	sw	t4,1200(sp)
    6200:	4aa12a23          	sw	a0,1204(sp)
    6204:	4a612c23          	sw	t1,1208(sp)
    6208:	478d                	c.li	a5,3
    620a:	0137c463          	blt	a5,s3,6212 <riscv_depthwise_conv_3x3_s8+0x28a>
    620e:	54e0106f          	j	775c <riscv_depthwise_conv_3x3_s8+0x17d4>
    6212:	47812503          	lw	a0,1144(sp)
    6216:	46412403          	lw	s0,1124(sp)
    621a:	952e                	c.add	a0,a1
    621c:	c8aa                	c.swsp	a0,80(sp)
    621e:	45012503          	lw	a0,1104(sp)
    6222:	00848733          	add	a4,s1,s0
    6226:	9516                	c.add	a0,t0
    6228:	caaa                	c.swsp	a0,84(sp)
    622a:	00598533          	add	a0,s3,t0
    622e:	cc2a                	c.swsp	a0,24(sp)
    6230:	47c12503          	lw	a0,1148(sp)
    6234:	972e                	c.add	a4,a1
    6236:	952e                	c.add	a0,a1
    6238:	ce2a                	c.swsp	a0,28(sp)
    623a:	00798533          	add	a0,s3,t2
    623e:	c42a                	c.swsp	a0,8(sp)
    6240:	48012503          	lw	a0,1152(sp)
    6244:	d63a                	c.swsp	a4,44(sp)
    6246:	952e                	c.add	a0,a1
    6248:	c62a                	c.swsp	a0,12(sp)
    624a:	37c12503          	lw	a0,892(sp)
    624e:	53812783          	lw	a5,1336(sp)
    6252:	00a98833          	add	a6,s3,a0
    6256:	872a                	c.mv	a4,a0
    6258:	9526                	c.add	a0,s1
    625a:	d82a                	c.swsp	a0,48(sp)
    625c:	48812503          	lw	a0,1160(sp)
    6260:	c842                	c.swsp	a6,16(sp)
    6262:	952e                	c.add	a0,a1
    6264:	da2a                	c.swsp	a0,52(sp)
    6266:	48c12503          	lw	a0,1164(sp)
    626a:	46812803          	lw	a6,1128(sp)
    626e:	952e                	c.add	a0,a1
    6270:	982e                	c.add	a6,a1
    6272:	de2a                	c.swsp	a0,60(sp)
    6274:	00858533          	add	a0,a1,s0
    6278:	ca42                	c.swsp	a6,20(sp)
    627a:	d22a                	c.swsp	a0,36(sp)
    627c:	00548833          	add	a6,s1,t0
    6280:	49012503          	lw	a0,1168(sp)
    6284:	c0c2                	c.swsp	a6,64(sp)
    6286:	48412803          	lw	a6,1156(sp)
    628a:	952e                	c.add	a0,a1
    628c:	982e                	c.add	a6,a1
    628e:	c6aa                	c.swsp	a0,76(sp)
    6290:	49c12503          	lw	a0,1180(sp)
    6294:	c2c2                	c.swsp	a6,68(sp)
    6296:	00748833          	add	a6,s1,t2
    629a:	954a                	c.add	a0,s2
    629c:	d442                	c.swsp	a6,40(sp)
    629e:	27c12683          	lw	a3,636(sp)
    62a2:	01278633          	add	a2,a5,s2
    62a6:	27812783          	lw	a5,632(sp)
    62aa:	c5aa                	c.swsp	a0,200(sp)
    62ac:	dc3a                	c.swsp	a4,56(sp)
    62ae:	53012f03          	lw	t5,1328(sp)
    62b2:	875e                	c.mv	a4,s7
    62b4:	4b05                	c.li	s6,1
    62b6:	8be6                	c.mv	s7,s9
    62b8:	8cba                	c.mv	s9,a4
    62ba:	c496                	c.swsp	t0,72(sp)
    62bc:	d01e                	c.swsp	t2,32(sp)
    62be:	37312a23          	sw	s3,884(sp)
    62c2:	45212a23          	sw	s2,1108(sp)
    62c6:	c23e                	c.swsp	a5,4(sp)
    62c8:	44712c23          	sw	t2,1112(sp)
    62cc:	44512e23          	sw	t0,1116(sp)
    62d0:	46b12023          	sw	a1,1120(sp)
    62d4:	36912c23          	sw	s1,888(sp)
    62d8:	620f08e3          	beqz	t5,7108 <riscv_depthwise_conv_3x3_s8+0x1180>
    62dc:	000f2403          	lw	s0,0(t5)
    62e0:	004f2903          	lw	s2,4(t5)
    62e4:	008f2703          	lw	a4,8(t5)
    62e8:	00cf2d03          	lw	s10,12(t5)
    62ec:	010f0f13          	addi	t5,t5,16
    62f0:	47be                	c.lwsp	a5,204(sp)
    62f2:	0ef79a7f          	pkbb16	s4,a5,a5
    62f6:	5786                	c.lwsp	a5,96(sp)
    62f8:	4fe6                	c.lwsp	t6,88(sp)
    62fa:	27f7d363          	bge	a5,t6,6560 <riscv_depthwise_conv_3x3_s8+0x5d8>
    62fe:	5796                	c.lwsp	a5,100(sp)
    6300:	6407de63          	bgez	a5,695c <riscv_depthwise_conv_3x3_s8+0x9d4>
    6304:	47f6                	c.lwsp	a5,92(sp)
    6306:	4589                	c.li	a1,2
    6308:	60f5c6e3          	blt	a1,a5,7114 <riscv_depthwise_conv_3x3_s8+0x118c>
    630c:	47a2                	c.lwsp	a5,8(sp)
    630e:	439c                	c.lw	a5,0(a5)
    6310:	45b2                	c.lwsp	a1,12(sp)
    6312:	418c                	c.lw	a1,0(a1)
    6314:	1af12c23          	sw	a5,440(sp)
    6318:	1af12e23          	sw	a5,444(sp)
    631c:	1b812803          	lw	a6,440(sp)
    6320:	1bc12883          	lw	a7,444(sp)
    6324:	de88057f          	wexti	a0,a6,8
    6328:	ac95057f          	sunpkd820	a0,a0
    632c:	40aa057f          	add16	a0,s4,a0
    6330:	1cb12023          	sw	a1,448(sp)
    6334:	1cb12223          	sw	a1,452(sp)
    6338:	1c012803          	lw	a6,448(sp)
    633c:	1c412883          	lw	a7,452(sp)
    6340:	de88087f          	wexti	a6,a6,8
    6344:	ac98087f          	sunpkd820	a6,a6
    6348:	41f95493          	srai	s1,s2,0x1f
    634c:	1d212423          	sw	s2,456(sp)
    6350:	1c912623          	sw	s1,460(sp)
    6354:	1c812303          	lw	t1,456(sp)
    6358:	1cc12383          	lw	t2,460(sp)
    635c:	8905137f          	smalbb	t1,a0,a6
    6360:	891a                	c.mv	s2,t1
    6362:	18612c23          	sw	t1,408(sp)
    6366:	18712e23          	sw	t2,412(sp)
    636a:	ac9787ff          	sunpkd820	a5,a5
    636e:	40fa07ff          	add16	a5,s4,a5
    6372:	41fd5493          	srai	s1,s10,0x1f
    6376:	1da12823          	sw	s10,464(sp)
    637a:	1c912a23          	sw	s1,468(sp)
    637e:	1d012303          	lw	t1,464(sp)
    6382:	1d412383          	lw	t2,468(sp)
    6386:	a905137f          	smaltt	t1,a0,a6
    638a:	8d1a                	c.mv	s10,t1
    638c:	ac95887f          	sunpkd820	a6,a1
    6390:	41f45593          	srai	a1,s0,0x1f
    6394:	1c812c23          	sw	s0,472(sp)
    6398:	1cb12e23          	sw	a1,476(sp)
    639c:	1d812e03          	lw	t3,472(sp)
    63a0:	1dc12e83          	lw	t4,476(sp)
    63a4:	89079e7f          	smalbb	t3,a5,a6
    63a8:	1ee12023          	sw	a4,480(sp)
    63ac:	877d                	c.srai	a4,0x1f
    63ae:	1ee12223          	sw	a4,484(sp)
    63b2:	1e012503          	lw	a0,480(sp)
    63b6:	1e412583          	lw	a1,484(sp)
    63ba:	8472                	c.mv	s0,t3
    63bc:	a907957f          	smaltt	a0,a5,a6
    63c0:	19012783          	lw	a5,400(sp)
    63c4:	1aa12023          	sw	a0,416(sp)
    63c8:	1ab12223          	sw	a1,420(sp)
    63cc:	872a                	c.mv	a4,a0
    63ce:	19f7d963          	bge	a5,t6,6560 <riscv_depthwise_conv_3x3_s8+0x5d8>
    63d2:	47c2                	c.lwsp	a5,16(sp)
    63d4:	439c                	c.lw	a5,0(a5)
    63d6:	4752                	c.lwsp	a4,20(sp)
    63d8:	4318                	c.lw	a4,0(a4)
    63da:	2af12823          	sw	a5,688(sp)
    63de:	2af12a23          	sw	a5,692(sp)
    63e2:	2b012503          	lw	a0,688(sp)
    63e6:	2b412583          	lw	a1,692(sp)
    63ea:	de8505ff          	wexti	a1,a0,8
    63ee:	ac9585ff          	sunpkd820	a1,a1
    63f2:	40ba05ff          	add16	a1,s4,a1
    63f6:	2ae12c23          	sw	a4,696(sp)
    63fa:	2ae12e23          	sw	a4,700(sp)
    63fe:	2b812803          	lw	a6,696(sp)
    6402:	2bc12883          	lw	a7,700(sp)
    6406:	de88087f          	wexti	a6,a6,8
    640a:	ac98087f          	sunpkd820	a6,a6
    640e:	19812403          	lw	s0,408(sp)
    6412:	41f45513          	srai	a0,s0,0x1f
    6416:	2c812023          	sw	s0,704(sp)
    641a:	2ca12223          	sw	a0,708(sp)
    641e:	2c012403          	lw	s0,704(sp)
    6422:	2c412483          	lw	s1,708(sp)
    6426:	8905947f          	smalbb	s0,a1,a6
    642a:	8922                	c.mv	s2,s0
    642c:	18812c23          	sw	s0,408(sp)
    6430:	18912e23          	sw	s1,412(sp)
    6434:	ac9787ff          	sunpkd820	a5,a5
    6438:	40fa07ff          	add16	a5,s4,a5
    643c:	41f35513          	srai	a0,t1,0x1f
    6440:	2c612423          	sw	t1,712(sp)
    6444:	2ca12623          	sw	a0,716(sp)
    6448:	2c812303          	lw	t1,712(sp)
    644c:	2cc12383          	lw	t2,716(sp)
    6450:	a905937f          	smaltt	t1,a1,a6
    6454:	8d1a                	c.mv	s10,t1
    6456:	ac97077f          	sunpkd820	a4,a4
    645a:	41fe5593          	srai	a1,t3,0x1f
    645e:	2dc12823          	sw	t3,720(sp)
    6462:	2cb12a23          	sw	a1,724(sp)
    6466:	2d012403          	lw	s0,720(sp)
    646a:	2d412483          	lw	s1,724(sp)
    646e:	88e7947f          	smalbb	s0,a5,a4
    6472:	1a012503          	lw	a0,416(sp)
    6476:	1a912223          	sw	s1,420(sp)
    647a:	41f55593          	srai	a1,a0,0x1f
    647e:	2ca12c23          	sw	a0,728(sp)
    6482:	2cb12e23          	sw	a1,732(sp)
    6486:	2d812503          	lw	a0,728(sp)
    648a:	2dc12583          	lw	a1,732(sp)
    648e:	1a812023          	sw	s0,416(sp)
    6492:	a8e7957f          	smaltt	a0,a5,a4
    6496:	19412783          	lw	a5,404(sp)
    649a:	1aa12423          	sw	a0,424(sp)
    649e:	1ab12623          	sw	a1,428(sp)
    64a2:	872a                	c.mv	a4,a0
    64a4:	0bf7de63          	bge	a5,t6,6560 <riscv_depthwise_conv_3x3_s8+0x5d8>
    64a8:	47e2                	c.lwsp	a5,24(sp)
    64aa:	438c                	c.lw	a1,0(a5)
    64ac:	47f2                	c.lwsp	a5,28(sp)
    64ae:	0007a803          	lw	a6,0(a5)
    64b2:	38b12023          	sw	a1,896(sp)
    64b6:	38b12223          	sw	a1,900(sp)
    64ba:	38012e03          	lw	t3,896(sp)
    64be:	38412e83          	lw	t4,900(sp)
    64c2:	de8e08ff          	wexti	a7,t3,8
    64c6:	ac9888ff          	sunpkd820	a7,a7
    64ca:	411a08ff          	add16	a7,s4,a7
    64ce:	39012423          	sw	a6,904(sp)
    64d2:	39012623          	sw	a6,908(sp)
    64d6:	38812e03          	lw	t3,904(sp)
    64da:	38c12e83          	lw	t4,908(sp)
    64de:	de8e07ff          	wexti	a5,t3,8
    64e2:	ac978eff          	sunpkd820	t4,a5
    64e6:	19812703          	lw	a4,408(sp)
    64ea:	41f75793          	srai	a5,a4,0x1f
    64ee:	38e12823          	sw	a4,912(sp)
    64f2:	38f12a23          	sw	a5,916(sp)
    64f6:	39012703          	lw	a4,912(sp)
    64fa:	39412783          	lw	a5,916(sp)
    64fe:	89d8977f          	smalbb	a4,a7,t4
    6502:	893a                	c.mv	s2,a4
    6504:	ac9585ff          	sunpkd820	a1,a1
    6508:	40ba05ff          	add16	a1,s4,a1
    650c:	41f35793          	srai	a5,t1,0x1f
    6510:	38612c23          	sw	t1,920(sp)
    6514:	38f12e23          	sw	a5,924(sp)
    6518:	39812703          	lw	a4,920(sp)
    651c:	39c12783          	lw	a5,924(sp)
    6520:	a9d8977f          	smaltt	a4,a7,t4
    6524:	00e00d33          	add	s10,zero,a4
    6528:	ac98087f          	sunpkd820	a6,a6
    652c:	41f45793          	srai	a5,s0,0x1f
    6530:	3a812023          	sw	s0,928(sp)
    6534:	3af12223          	sw	a5,932(sp)
    6538:	3a012403          	lw	s0,928(sp)
    653c:	3a412483          	lw	s1,932(sp)
    6540:	8905947f          	smalbb	s0,a1,a6
    6544:	1a812703          	lw	a4,424(sp)
    6548:	41f75793          	srai	a5,a4,0x1f
    654c:	3ae12423          	sw	a4,936(sp)
    6550:	3af12623          	sw	a5,940(sp)
    6554:	3a812703          	lw	a4,936(sp)
    6558:	3ac12783          	lw	a5,940(sp)
    655c:	a905977f          	smaltt	a4,a1,a6
    6560:	4792                	c.lwsp	a5,4(sp)
    6562:	0006a803          	lw	a6,0(a3)
    6566:	4384                	c.lw	s1,0(a5)
    6568:	0047ae03          	lw	t3,4(a5)
    656c:	0046a983          	lw	s3,4(a3)
    6570:	0087a283          	lw	t0,8(a5)
    6574:	f354857f          	maxw	a0,s1,s5
    6578:	00c7af83          	lw	t6,12(a5)
    657c:	0086aa03          	lw	s4,8(a3)
    6580:	00a41533          	sll	a0,s0,a0
    6584:	f35e05ff          	maxw	a1,t3,s5
    6588:	40000337          	lui	t1,0x40000
    658c:	4381                	c.li	t2,0
    658e:	46c0                	c.lw	s0,12(a3)
    6590:	8505137f          	smar64	t1,a0,a6
    6594:	00b915b3          	sll	a1,s2,a1
    6598:	f35287ff          	maxw	a5,t0,s5
    659c:	40000837          	lui	a6,0x40000
    65a0:	4881                	c.li	a7,0
    65a2:	8535987f          	smar64	a6,a1,s3
    65a6:	00f717b3          	sll	a5,a4,a5
    65aa:	f35f8eff          	maxw	t4,t6,s5
    65ae:	40000537          	lui	a0,0x40000
    65b2:	4581                	c.li	a1,0
    65b4:	8547957f          	smar64	a0,a5,s4
    65b8:	01dd1eb3          	sll	t4,s10,t4
    65bc:	40000737          	lui	a4,0x40000
    65c0:	4781                	c.li	a5,0
    65c2:	848e977f          	smar64	a4,t4,s0
    65c6:	41f00fb3          	neg	t6,t6
    65ca:	f35f8fff          	maxw	t6,t6,s5
    65ce:	01fb19b3          	sll	s3,s6,t6
    65d2:	dff5057f          	wexti	a0,a0,31
    65d6:	dff7077f          	wexti	a4,a4,31
    65da:	fff98593          	addi	a1,s3,-1
    65de:	4015d793          	srai	a5,a1,0x1
    65e2:	00072913          	slti	s2,a4,0
    65e6:	8df9                	c.and	a1,a4
    65e8:	97ca                	c.add	a5,s2
    65ea:	00b7a5b3          	slt	a1,a5,a1
    65ee:	4792                	c.lwsp	a5,4(sp)
    65f0:	409004b3          	neg	s1,s1
    65f4:	07c1                	c.addi	a5,16
    65f6:	c23e                	c.swsp	a5,4(sp)
    65f8:	47c6                	c.lwsp	a5,80(sp)
    65fa:	f35484ff          	maxw	s1,s1,s5
    65fe:	0791                	c.addi	a5,4
    6600:	c8be                	c.swsp	a5,80(sp)
    6602:	47d6                	c.lwsp	a5,84(sp)
    6604:	405002b3          	neg	t0,t0
    6608:	f35282ff          	maxw	t0,t0,s5
    660c:	0791                	c.addi	a5,4
    660e:	009b1eb3          	sll	t4,s6,s1
    6612:	dff3037f          	wexti	t1,t1,31
    6616:	005b1a33          	sll	s4,s6,t0
    661a:	1efd                	c.addi	t4,-1
    661c:	cabe                	c.swsp	a5,84(sp)
    661e:	47e2                	c.lwsp	a5,24(sp)
    6620:	dff8087f          	wexti	a6,a6,31
    6624:	41c00433          	neg	s0,t3
    6628:	fffa0893          	addi	a7,s4,-1
    662c:	00032d93          	slti	s11,t1,0
    6630:	401eda13          	srai	s4,t4,0x1
    6634:	f354047f          	maxw	s0,s0,s5
    6638:	006efeb3          	and	t4,t4,t1
    663c:	0791                	c.addi	a5,4
    663e:	9a6e                	c.add	s4,s11
    6640:	cc3e                	c.swsp	a5,24(sp)
    6642:	008b1e33          	sll	t3,s6,s0
    6646:	47f2                	c.lwsp	a5,28(sp)
    6648:	40935333          	sra	t1,t1,s1
    664c:	01da2eb3          	slt	t4,s4,t4
    6650:	1e7d                	c.addi	t3,-1
    6652:	9376                	c.add	t1,t4
    6654:	00082d13          	slti	s10,a6,0
    6658:	401e5993          	srai	s3,t3,0x1
    665c:	0791                	c.addi	a5,4
    665e:	935e                	c.add	t1,s7
    6660:	010e7e33          	and	t3,t3,a6
    6664:	99ea                	c.add	s3,s10
    6666:	ce3e                	c.swsp	a5,28(sp)
    6668:	f393037f          	maxw	t1,t1,s9
    666c:	47a2                	c.lwsp	a5,8(sp)
    666e:	40885833          	sra	a6,a6,s0
    6672:	01c9ae33          	slt	t3,s3,t3
    6676:	f183037f          	minw	t1,t1,s8
    667a:	00660023          	sb	t1,0(a2)
    667e:	0791                	c.addi	a5,4
    6680:	9872                	c.add	a6,t3
    6682:	4018d393          	srai	t2,a7,0x1
    6686:	00052d13          	slti	s10,a0,0
    668a:	c43e                	c.swsp	a5,8(sp)
    668c:	985e                	c.add	a6,s7
    668e:	47b2                	c.lwsp	a5,12(sp)
    6690:	00a8f8b3          	and	a7,a7,a0
    6694:	93ea                	c.add	t2,s10
    6696:	f398087f          	maxw	a6,a6,s9
    669a:	0791                	c.addi	a5,4
    669c:	40555533          	sra	a0,a0,t0
    66a0:	0113a8b3          	slt	a7,t2,a7
    66a4:	f188087f          	minw	a6,a6,s8
    66a8:	010600a3          	sb	a6,1(a2)
    66ac:	c63e                	c.swsp	a5,12(sp)
    66ae:	9546                	c.add	a0,a7
    66b0:	47c2                	c.lwsp	a5,16(sp)
    66b2:	955e                	c.add	a0,s7
    66b4:	0791                	c.addi	a5,4
    66b6:	f395057f          	maxw	a0,a0,s9
    66ba:	c83e                	c.swsp	a5,16(sp)
    66bc:	41f75733          	sra	a4,a4,t6
    66c0:	47d2                	c.lwsp	a5,20(sp)
    66c2:	f185057f          	minw	a0,a0,s8
    66c6:	00a60123          	sb	a0,2(a2)
    66ca:	972e                	c.add	a4,a1
    66cc:	0791                	c.addi	a5,4
    66ce:	975e                	c.add	a4,s7
    66d0:	ca3e                	c.swsp	a5,20(sp)
    66d2:	f397077f          	maxw	a4,a4,s9
    66d6:	4786                	c.lwsp	a5,64(sp)
    66d8:	f187077f          	minw	a4,a4,s8
    66dc:	0791                	c.addi	a5,4
    66de:	00e601a3          	sb	a4,3(a2)
    66e2:	c0be                	c.swsp	a5,64(sp)
    66e4:	4796                	c.lwsp	a5,68(sp)
    66e6:	0611                	c.addi	a2,4
    66e8:	0791                	c.addi	a5,4
    66ea:	c2be                	c.swsp	a5,68(sp)
    66ec:	57a2                	c.lwsp	a5,40(sp)
    66ee:	06c1                	c.addi	a3,16
    66f0:	0791                	c.addi	a5,4
    66f2:	d43e                	c.swsp	a5,40(sp)
    66f4:	57b2                	c.lwsp	a5,44(sp)
    66f6:	0791                	c.addi	a5,4
    66f8:	d63e                	c.swsp	a5,44(sp)
    66fa:	57c2                	c.lwsp	a5,48(sp)
    66fc:	0791                	c.addi	a5,4
    66fe:	d83e                	c.swsp	a5,48(sp)
    6700:	57d2                	c.lwsp	a5,52(sp)
    6702:	0791                	c.addi	a5,4
    6704:	da3e                	c.swsp	a5,52(sp)
    6706:	57e2                	c.lwsp	a5,56(sp)
    6708:	0791                	c.addi	a5,4
    670a:	dc3e                	c.swsp	a5,56(sp)
    670c:	57f2                	c.lwsp	a5,60(sp)
    670e:	0791                	c.addi	a5,4
    6710:	de3e                	c.swsp	a5,60(sp)
    6712:	5782                	c.lwsp	a5,32(sp)
    6714:	0791                	c.addi	a5,4
    6716:	d03e                	c.swsp	a5,32(sp)
    6718:	5792                	c.lwsp	a5,36(sp)
    671a:	0791                	c.addi	a5,4
    671c:	d23e                	c.swsp	a5,36(sp)
    671e:	47a6                	c.lwsp	a5,72(sp)
    6720:	0791                	c.addi	a5,4
    6722:	c4be                	c.swsp	a5,72(sp)
    6724:	47b6                	c.lwsp	a5,76(sp)
    6726:	0791                	c.addi	a5,4
    6728:	c6be                	c.swsp	a5,76(sp)
    672a:	47ae                	c.lwsp	a5,200(sp)
    672c:	baf616e3          	bne	a2,a5,62d8 <riscv_depthwise_conv_3x3_s8+0x350>
    6730:	45412903          	lw	s2,1108(sp)
    6734:	87e6                	c.mv	a5,s9
    6736:	49412703          	lw	a4,1172(sp)
    673a:	8cde                	c.mv	s9,s7
    673c:	37412983          	lw	s3,884(sp)
    6740:	00f00bb3          	add	s7,zero,a5
    6744:	45812383          	lw	t2,1112(sp)
    6748:	00490793          	addi	a5,s2,4
    674c:	45c12283          	lw	t0,1116(sp)
    6750:	46012583          	lw	a1,1120(sp)
    6754:	37812483          	lw	s1,888(sp)
    6758:	49812f83          	lw	t6,1176(sp)
    675c:	00f70933          	add	s2,a4,a5
    6760:	153fdc63          	bge	t6,s3,68b8 <riscv_depthwise_conv_3x3_s8+0x930>
    6764:	4a012783          	lw	a5,1184(sp)
    6768:	4a412703          	lw	a4,1188(sp)
    676c:	40f38633          	sub	a2,t2,a5
    6770:	00e60333          	add	t1,a2,a4
    6774:	45012703          	lw	a4,1104(sp)
    6778:	44012683          	lw	a3,1088(sp)
    677c:	40e308b3          	sub	a7,t1,a4
    6780:	46412703          	lw	a4,1124(sp)
    6784:	937e                	c.add	t1,t6
    6786:	00e68833          	add	a6,a3,a4
    678a:	01f70533          	add	a0,a4,t6
    678e:	46812703          	lw	a4,1128(sp)
    6792:	967e                	c.add	a2,t6
    6794:	01f70e33          	add	t3,a4,t6
    6798:	53812703          	lw	a4,1336(sp)
    679c:	98fe                	c.add	a7,t6
    679e:	987e                	c.add	a6,t6
    67a0:	002f9693          	slli	a3,t6,0x2
    67a4:	c47e                	c.swsp	t6,8(sp)
    67a6:	4466                	c.lwsp	s0,88(sp)
    67a8:	4fbe                	c.lwsp	t6,204(sp)
    67aa:	01270eb3          	add	t4,a4,s2
    67ae:	933e                	c.add	t1,a5
    67b0:	963e                	c.add	a2,a5
    67b2:	952e                	c.add	a0,a1
    67b4:	98be                	c.add	a7,a5
    67b6:	982e                	c.add	a6,a1
    67b8:	9e2e                	c.add	t3,a1
    67ba:	4d09                	c.li	s10,2
    67bc:	4a05                	c.li	s4,1
    67be:	c24a                	c.swsp	s2,4(sp)
    67c0:	4781                	c.li	a5,0
    67c2:	000f0563          	beqz	t5,67cc <riscv_depthwise_conv_3x3_s8+0x844>
    67c6:	000f2783          	lw	a5,0(t5)
    67ca:	0f11                	c.addi	t5,4
    67cc:	5706                	c.lwsp	a4,96(sp)
    67ce:	06875363          	bge	a4,s0,6834 <riscv_depthwise_conv_3x3_s8+0x8ac>
    67d2:	5716                	c.lwsp	a4,100(sp)
    67d4:	58075ae3          	bgez	a4,7568 <riscv_depthwise_conv_3x3_s8+0x15e0>
    67d8:	4776                	c.lwsp	a4,92(sp)
    67da:	60ed4fe3          	blt	s10,a4,75f8 <riscv_depthwise_conv_3x3_s8+0x1670>
    67de:	01360733          	add	a4,a2,s3
    67e2:	00070703          	lb	a4,0(a4) # 40000000 <_DATA_LMA_START+0x1fff64f8>
    67e6:	01350933          	add	s2,a0,s3
    67ea:	00090903          	lb	s2,0(s2)
    67ee:	977e                	c.add	a4,t6
    67f0:	c52717ff          	maddr32	a5,a4,s2
    67f4:	19012703          	lw	a4,400(sp)
    67f8:	02875e63          	bge	a4,s0,6834 <riscv_depthwise_conv_3x3_s8+0x8ac>
    67fc:	01388733          	add	a4,a7,s3
    6800:	00070903          	lb	s2,0(a4)
    6804:	44c12703          	lw	a4,1100(sp)
    6808:	000e0b03          	lb	s6,0(t3)
    680c:	00173713          	seqz	a4,a4
    6810:	997e                	c.add	s2,t6
    6812:	0709                	c.addi	a4,2
    6814:	c56917ff          	maddr32	a5,s2,s6
    6818:	00875e63          	bge	a4,s0,6834 <riscv_depthwise_conv_3x3_s8+0x8ac>
    681c:	44012903          	lw	s2,1088(sp)
    6820:	01330733          	add	a4,t1,s3
    6824:	00070703          	lb	a4,0(a4)
    6828:	9972                	c.add	s2,t3
    682a:	00090903          	lb	s2,0(s2)
    682e:	977e                	c.add	a4,t6
    6830:	c52717ff          	maddr32	a5,a4,s2
    6834:	27812703          	lw	a4,632(sp)
    6838:	0e85                	c.addi	t4,1
    683a:	9736                	c.add	a4,a3
    683c:	00072903          	lw	s2,0(a4)
    6840:	27c12703          	lw	a4,636(sp)
    6844:	f3590dff          	maxw	s11,s2,s5
    6848:	9736                	c.add	a4,a3
    684a:	00072b03          	lw	s6,0(a4)
    684e:	01b79db3          	sll	s11,a5,s11
    6852:	40000737          	lui	a4,0x40000
    6856:	4781                	c.li	a5,0
    6858:	856d977f          	smar64	a4,s11,s6
    685c:	41200933          	neg	s2,s2
    6860:	f359097f          	maxw	s2,s2,s5
    6864:	012a1b33          	sll	s6,s4,s2
    6868:	dff7077f          	wexti	a4,a4,31
    686c:	fffb0793          	addi	a5,s6,-1
    6870:	4017db13          	srai	s6,a5,0x1
    6874:	00072d93          	slti	s11,a4,0
    6878:	8ff9                	c.and	a5,a4
    687a:	9b6e                	c.add	s6,s11
    687c:	00fb27b3          	slt	a5,s6,a5
    6880:	41275733          	sra	a4,a4,s2
    6884:	973e                	c.add	a4,a5
    6886:	9766                	c.add	a4,s9
    6888:	f377077f          	maxw	a4,a4,s7
    688c:	f187077f          	minw	a4,a4,s8
    6890:	37012783          	lw	a5,880(sp)
    6894:	feee8fa3          	sb	a4,-1(t4)
    6898:	0691                	c.addi	a3,4
    689a:	0305                	c.addi	t1,1
    689c:	0605                	c.addi	a2,1
    689e:	0505                	c.addi	a0,1
    68a0:	0885                	c.addi	a7,1
    68a2:	0805                	c.addi	a6,1
    68a4:	0e05                	c.addi	t3,1
    68a6:	f0f69de3          	bne	a3,a5,67c0 <riscv_depthwise_conv_3x3_s8+0x838>
    68aa:	4912                	c.lwsp	s2,4(sp)
    68ac:	00812f83          	lw	t6,8(sp)
    68b0:	012987b3          	add	a5,s3,s2
    68b4:	41f78933          	sub	s2,a5,t6
    68b8:	44412783          	lw	a5,1092(sp)
    68bc:	46c12683          	lw	a3,1132(sp)
    68c0:	00178713          	addi	a4,a5,1
    68c4:	5796                	c.lwsp	a5,100(sp)
    68c6:	37c12603          	lw	a2,892(sp)
    68ca:	97b6                	c.add	a5,a3
    68cc:	d2be                	c.swsp	a5,100(sp)
    68ce:	47412783          	lw	a5,1140(sp)
    68d2:	44e12223          	sw	a4,1092(sp)
    68d6:	963e                	c.add	a2,a5
    68d8:	93be                	c.add	t2,a5
    68da:	92be                	c.add	t0,a5
    68dc:	47f6                	c.lwsp	a5,92(sp)
    68de:	36c12e23          	sw	a2,892(sp)
    68e2:	8f95                	c.sub	a5,a3
    68e4:	cebe                	c.swsp	a5,92(sp)
    68e6:	47012783          	lw	a5,1136(sp)
    68ea:	90e79fe3          	bne	a5,a4,6208 <riscv_depthwise_conv_3x3_s8+0x280>
    68ee:	4b012e83          	lw	t4,1200(sp)
    68f2:	4a812883          	lw	a7,1192(sp)
    68f6:	4ac12803          	lw	a6,1196(sp)
    68fa:	4b412503          	lw	a0,1204(sp)
    68fe:	4b812303          	lw	t1,1208(sp)
    6902:	4bc12703          	lw	a4,1212(sp)
    6906:	0e85                	c.addi	t4,1
    6908:	83e6                	c.mv	t2,s9
    690a:	87ae                	c.mv	a5,a1
    690c:	01180833          	add	a6,a6,a7
    6910:	41150533          	sub	a0,a0,a7
    6914:	41130333          	sub	t1,t1,a7
    6918:	81d712e3          	bne	a4,t4,611c <riscv_depthwise_conv_3x3_s8+0x194>
    691c:	00000513          	li	a0,0
    6920:	52c12083          	lw	ra,1324(sp)
    6924:	52812403          	lw	s0,1320(sp)
    6928:	52412483          	lw	s1,1316(sp)
    692c:	52012903          	lw	s2,1312(sp)
    6930:	51c12983          	lw	s3,1308(sp)
    6934:	51812a03          	lw	s4,1304(sp)
    6938:	51412a83          	lw	s5,1300(sp)
    693c:	51012b03          	lw	s6,1296(sp)
    6940:	50c12b83          	lw	s7,1292(sp)
    6944:	50812c03          	lw	s8,1288(sp)
    6948:	50412c83          	lw	s9,1284(sp)
    694c:	50012d03          	lw	s10,1280(sp)
    6950:	4fc12d83          	lw	s11,1276(sp)
    6954:	53010113          	addi	sp,sp,1328
    6958:	00008067          	ret
    695c:	5782                	c.lwsp	a5,32(sp)
    695e:	0007a803          	lw	a6,0(a5)
    6962:	5792                	c.lwsp	a5,36(sp)
    6964:	439c                	c.lw	a5,0(a5)
    6966:	d4c2                	c.swsp	a6,104(sp)
    6968:	d6c2                	c.swsp	a6,108(sp)
    696a:	5526                	c.lwsp	a0,104(sp)
    696c:	55b6                	c.lwsp	a1,108(sp)
    696e:	de85037f          	wexti	t1,a0,8
    6972:	ac93037f          	sunpkd820	t1,t1
    6976:	406a037f          	add16	t1,s4,t1
    697a:	d8be                	c.swsp	a5,112(sp)
    697c:	dabe                	c.swsp	a5,116(sp)
    697e:	5546                	c.lwsp	a0,112(sp)
    6980:	55d6                	c.lwsp	a1,116(sp)
    6982:	de850e7f          	wexti	t3,a0,8
    6986:	ac9e0e7f          	sunpkd820	t3,t3
    698a:	41f95593          	srai	a1,s2,0x1f
    698e:	dcca                	c.swsp	s2,120(sp)
    6990:	deae                	c.swsp	a1,124(sp)
    6992:	5966                	c.lwsp	s2,120(sp)
    6994:	59f6                	c.lwsp	s3,124(sp)
    6996:	89c3197f          	smalbb	s2,t1,t3
    699a:	ac9805ff          	sunpkd820	a1,a6
    699e:	40ba05ff          	add16	a1,s4,a1
    69a2:	41fd5513          	srai	a0,s10,0x1f
    69a6:	c16a                	c.swsp	s10,128(sp)
    69a8:	c32a                	c.swsp	a0,132(sp)
    69aa:	4d0a                	c.lwsp	s10,128(sp)
    69ac:	4d9a                	c.lwsp	s11,132(sp)
    69ae:	a9c31d7f          	smaltt	s10,t1,t3
    69b2:	ac9788ff          	sunpkd820	a7,a5
    69b6:	41f45793          	srai	a5,s0,0x1f
    69ba:	c522                	c.swsp	s0,136(sp)
    69bc:	c73e                	c.swsp	a5,140(sp)
    69be:	432a                	c.lwsp	t1,136(sp)
    69c0:	43ba                	c.lwsp	t2,140(sp)
    69c2:	8915937f          	smalbb	t1,a1,a7
    69c6:	41f75793          	srai	a5,a4,0x1f
    69ca:	c93a                	c.swsp	a4,144(sp)
    69cc:	cb3e                	c.swsp	a5,148(sp)
    69ce:	4e4a                	c.lwsp	t3,144(sp)
    69d0:	4eda                	c.lwsp	t4,148(sp)
    69d2:	a9159e7f          	smaltt	t3,a1,a7
    69d6:	47a2                	c.lwsp	a5,8(sp)
    69d8:	439c                	c.lw	a5,0(a5)
    69da:	4732                	c.lwsp	a4,12(sp)
    69dc:	00072f83          	lw	t6,0(a4) # 40000000 <_DATA_LMA_START+0x1fff64f8>
    69e0:	cd3e                	c.swsp	a5,152(sp)
    69e2:	cf3e                	c.swsp	a5,156(sp)
    69e4:	456a                	c.lwsp	a0,152(sp)
    69e6:	45fa                	c.lwsp	a1,156(sp)
    69e8:	de8505ff          	wexti	a1,a0,8
    69ec:	ac9585ff          	sunpkd820	a1,a1
    69f0:	40ba05ff          	add16	a1,s4,a1
    69f4:	d17e                	c.swsp	t6,160(sp)
    69f6:	d37e                	c.swsp	t6,164(sp)
    69f8:	540a                	c.lwsp	s0,160(sp)
    69fa:	549a                	c.lwsp	s1,164(sp)
    69fc:	de8408ff          	wexti	a7,s0,8
    6a00:	ac9888ff          	sunpkd820	a7,a7
    6a04:	41f95713          	srai	a4,s2,0x1f
    6a08:	d54a                	c.swsp	s2,168(sp)
    6a0a:	d73a                	c.swsp	a4,172(sp)
    6a0c:	542a                	c.lwsp	s0,168(sp)
    6a0e:	54ba                	c.lwsp	s1,172(sp)
    6a10:	8915947f          	smalbb	s0,a1,a7
    6a14:	8922                	c.mv	s2,s0
    6a16:	18812c23          	sw	s0,408(sp)
    6a1a:	18912e23          	sw	s1,412(sp)
    6a1e:	ac9787ff          	sunpkd820	a5,a5
    6a22:	40fa07ff          	add16	a5,s4,a5
    6a26:	41fd5513          	srai	a0,s10,0x1f
    6a2a:	d96a                	c.swsp	s10,176(sp)
    6a2c:	db2a                	c.swsp	a0,180(sp)
    6a2e:	5d4a                	c.lwsp	s10,176(sp)
    6a30:	5dda                	c.lwsp	s11,180(sp)
    6a32:	a9159d7f          	smaltt	s10,a1,a7
    6a36:	1ba12023          	sw	s10,416(sp)
    6a3a:	1bb12223          	sw	s11,420(sp)
    6a3e:	ac9f8fff          	sunpkd820	t6,t6
    6a42:	41f35593          	srai	a1,t1,0x1f
    6a46:	dd1a                	c.swsp	t1,184(sp)
    6a48:	df2e                	c.swsp	a1,188(sp)
    6a4a:	546a                	c.lwsp	s0,184(sp)
    6a4c:	54fa                	c.lwsp	s1,188(sp)
    6a4e:	89f7947f          	smalbb	s0,a5,t6
    6a52:	41fe5593          	srai	a1,t3,0x1f
    6a56:	c1f2                	c.swsp	t3,192(sp)
    6a58:	c3ae                	c.swsp	a1,196(sp)
    6a5a:	450e                	c.lwsp	a0,192(sp)
    6a5c:	459e                	c.lwsp	a1,196(sp)
    6a5e:	1a812423          	sw	s0,424(sp)
    6a62:	1a912623          	sw	s1,428(sp)
    6a66:	a9f7957f          	smaltt	a0,a5,t6
    6a6a:	47f6                	c.lwsp	a5,92(sp)
    6a6c:	1ab12a23          	sw	a1,436(sp)
    6a70:	1aa12823          	sw	a0,432(sp)
    6a74:	4589                	c.li	a1,2
    6a76:	872a                	c.mv	a4,a0
    6a78:	0af5de63          	bge	a1,a5,6b34 <riscv_depthwise_conv_3x3_s8+0xbac>
    6a7c:	57a2                	c.lwsp	a5,40(sp)
    6a7e:	438c                	c.lw	a1,0(a5)
    6a80:	57b2                	c.lwsp	a5,44(sp)
    6a82:	0007a883          	lw	a7,0(a5)
    6a86:	24b12423          	sw	a1,584(sp)
    6a8a:	24b12623          	sw	a1,588(sp)
    6a8e:	24812303          	lw	t1,584(sp)
    6a92:	24c12383          	lw	t2,588(sp)
    6a96:	de83037f          	wexti	t1,t1,8
    6a9a:	ac93037f          	sunpkd820	t1,t1
    6a9e:	406a037f          	add16	t1,s4,t1
    6aa2:	25112823          	sw	a7,592(sp)
    6aa6:	25112a23          	sw	a7,596(sp)
    6aaa:	25012e03          	lw	t3,592(sp)
    6aae:	25412e83          	lw	t4,596(sp)
    6ab2:	de8e0eff          	wexti	t4,t3,8
    6ab6:	ac9e8eff          	sunpkd820	t4,t4
    6aba:	19812703          	lw	a4,408(sp)
    6abe:	41f75793          	srai	a5,a4,0x1f
    6ac2:	24e12c23          	sw	a4,600(sp)
    6ac6:	24f12e23          	sw	a5,604(sp)
    6aca:	25812703          	lw	a4,600(sp)
    6ace:	25c12783          	lw	a5,604(sp)
    6ad2:	89d3177f          	smalbb	a4,t1,t4
    6ad6:	893a                	c.mv	s2,a4
    6ad8:	ac9585ff          	sunpkd820	a1,a1
    6adc:	40ba05ff          	add16	a1,s4,a1
    6ae0:	41fd5793          	srai	a5,s10,0x1f
    6ae4:	27a12023          	sw	s10,608(sp)
    6ae8:	26f12223          	sw	a5,612(sp)
    6aec:	26012703          	lw	a4,608(sp)
    6af0:	26412783          	lw	a5,612(sp)
    6af4:	a9d3177f          	smaltt	a4,t1,t4
    6af8:	00e00d33          	add	s10,zero,a4
    6afc:	ac9888ff          	sunpkd820	a7,a7
    6b00:	41f45793          	srai	a5,s0,0x1f
    6b04:	26812423          	sw	s0,616(sp)
    6b08:	26f12623          	sw	a5,620(sp)
    6b0c:	26812403          	lw	s0,616(sp)
    6b10:	26c12483          	lw	s1,620(sp)
    6b14:	8915947f          	smalbb	s0,a1,a7
    6b18:	1b012703          	lw	a4,432(sp)
    6b1c:	41f75793          	srai	a5,a4,0x1f
    6b20:	26e12823          	sw	a4,624(sp)
    6b24:	26f12a23          	sw	a5,628(sp)
    6b28:	27012703          	lw	a4,624(sp)
    6b2c:	27412783          	lw	a5,628(sp)
    6b30:	a915977f          	smaltt	a4,a1,a7
    6b34:	47e6                	c.lwsp	a5,88(sp)
    6b36:	19012583          	lw	a1,400(sp)
    6b3a:	a2f5d3e3          	bge	a1,a5,6560 <riscv_depthwise_conv_3x3_s8+0x5d8>
    6b3e:	57e2                	c.lwsp	a5,56(sp)
    6b40:	0007a803          	lw	a6,0(a5)
    6b44:	57f2                	c.lwsp	a5,60(sp)
    6b46:	439c                	c.lw	a5,0(a5)
    6b48:	c9c2                	c.swsp	a6,208(sp)
    6b4a:	cbc2                	c.swsp	a6,212(sp)
    6b4c:	454e                	c.lwsp	a0,208(sp)
    6b4e:	45de                	c.lwsp	a1,212(sp)
    6b50:	de85037f          	wexti	t1,a0,8
    6b54:	ac93037f          	sunpkd820	t1,t1
    6b58:	406a037f          	add16	t1,s4,t1
    6b5c:	cdbe                	c.swsp	a5,216(sp)
    6b5e:	cfbe                	c.swsp	a5,220(sp)
    6b60:	456e                	c.lwsp	a0,216(sp)
    6b62:	45fe                	c.lwsp	a1,220(sp)
    6b64:	de850e7f          	wexti	t3,a0,8
    6b68:	ac9e0e7f          	sunpkd820	t3,t3
    6b6c:	41f95593          	srai	a1,s2,0x1f
    6b70:	d1ca                	c.swsp	s2,224(sp)
    6b72:	d3ae                	c.swsp	a1,228(sp)
    6b74:	590e                	c.lwsp	s2,224(sp)
    6b76:	599e                	c.lwsp	s3,228(sp)
    6b78:	89c3197f          	smalbb	s2,t1,t3
    6b7c:	ac98087f          	sunpkd820	a6,a6
    6b80:	410a05ff          	add16	a1,s4,a6
    6b84:	41fd5513          	srai	a0,s10,0x1f
    6b88:	d5ea                	c.swsp	s10,232(sp)
    6b8a:	d7aa                	c.swsp	a0,236(sp)
    6b8c:	5d2e                	c.lwsp	s10,232(sp)
    6b8e:	5dbe                	c.lwsp	s11,236(sp)
    6b90:	a9c31d7f          	smaltt	s10,t1,t3
    6b94:	ac9787ff          	sunpkd820	a5,a5
    6b98:	41f45513          	srai	a0,s0,0x1f
    6b9c:	d9a2                	c.swsp	s0,240(sp)
    6b9e:	dbaa                	c.swsp	a0,244(sp)
    6ba0:	534e                	c.lwsp	t1,240(sp)
    6ba2:	53de                	c.lwsp	t2,244(sp)
    6ba4:	88f5937f          	smalbb	t1,a1,a5
    6ba8:	ddba                	c.swsp	a4,248(sp)
    6baa:	877d                	c.srai	a4,0x1f
    6bac:	dfba                	c.swsp	a4,252(sp)
    6bae:	5e6e                	c.lwsp	t3,248(sp)
    6bb0:	5efe                	c.lwsp	t4,252(sp)
    6bb2:	a8f59e7f          	smaltt	t3,a1,a5
    6bb6:	47c2                	c.lwsp	a5,16(sp)
    6bb8:	439c                	c.lw	a5,0(a5)
    6bba:	4752                	c.lwsp	a4,20(sp)
    6bbc:	4318                	c.lw	a4,0(a4)
    6bbe:	10f12023          	sw	a5,256(sp)
    6bc2:	10f12223          	sw	a5,260(sp)
    6bc6:	10012503          	lw	a0,256(sp)
    6bca:	10412583          	lw	a1,260(sp)
    6bce:	de8505ff          	wexti	a1,a0,8
    6bd2:	ac9585ff          	sunpkd820	a1,a1
    6bd6:	40ba05ff          	add16	a1,s4,a1
    6bda:	10e12423          	sw	a4,264(sp)
    6bde:	10e12623          	sw	a4,268(sp)
    6be2:	10812403          	lw	s0,264(sp)
    6be6:	10c12483          	lw	s1,268(sp)
    6bea:	de8408ff          	wexti	a7,s0,8
    6bee:	ac9888ff          	sunpkd820	a7,a7
    6bf2:	41f95513          	srai	a0,s2,0x1f
    6bf6:	11212823          	sw	s2,272(sp)
    6bfa:	10a12a23          	sw	a0,276(sp)
    6bfe:	11012403          	lw	s0,272(sp)
    6c02:	11412483          	lw	s1,276(sp)
    6c06:	8915947f          	smalbb	s0,a1,a7
    6c0a:	8922                	c.mv	s2,s0
    6c0c:	18812c23          	sw	s0,408(sp)
    6c10:	18912e23          	sw	s1,412(sp)
    6c14:	ac9787ff          	sunpkd820	a5,a5
    6c18:	40fa07ff          	add16	a5,s4,a5
    6c1c:	41fd5513          	srai	a0,s10,0x1f
    6c20:	11a12c23          	sw	s10,280(sp)
    6c24:	10a12e23          	sw	a0,284(sp)
    6c28:	11812d03          	lw	s10,280(sp)
    6c2c:	11c12d83          	lw	s11,284(sp)
    6c30:	a9159d7f          	smaltt	s10,a1,a7
    6c34:	1ba12023          	sw	s10,416(sp)
    6c38:	1bb12223          	sw	s11,420(sp)
    6c3c:	ac97077f          	sunpkd820	a4,a4
    6c40:	41f35593          	srai	a1,t1,0x1f
    6c44:	12612023          	sw	t1,288(sp)
    6c48:	12b12223          	sw	a1,292(sp)
    6c4c:	12012403          	lw	s0,288(sp)
    6c50:	12412483          	lw	s1,292(sp)
    6c54:	88e7947f          	smalbb	s0,a5,a4
    6c58:	41fe5593          	srai	a1,t3,0x1f
    6c5c:	13c12423          	sw	t3,296(sp)
    6c60:	12b12623          	sw	a1,300(sp)
    6c64:	12812503          	lw	a0,296(sp)
    6c68:	12c12583          	lw	a1,300(sp)
    6c6c:	1a812423          	sw	s0,424(sp)
    6c70:	1a912623          	sw	s1,428(sp)
    6c74:	a8e7957f          	smaltt	a0,a5,a4
    6c78:	47f6                	c.lwsp	a5,92(sp)
    6c7a:	1ab12a23          	sw	a1,436(sp)
    6c7e:	1aa12823          	sw	a0,432(sp)
    6c82:	4589                	c.li	a1,2
    6c84:	872a                	c.mv	a4,a0
    6c86:	0cf5d163          	bge	a1,a5,6d48 <riscv_depthwise_conv_3x3_s8+0xdc0>
    6c8a:	57c2                	c.lwsp	a5,48(sp)
    6c8c:	438c                	c.lw	a1,0(a5)
    6c8e:	57d2                	c.lwsp	a5,52(sp)
    6c90:	0007a883          	lw	a7,0(a5)
    6c94:	34b12023          	sw	a1,832(sp)
    6c98:	34b12223          	sw	a1,836(sp)
    6c9c:	34012303          	lw	t1,832(sp)
    6ca0:	34412383          	lw	t2,836(sp)
    6ca4:	de83037f          	wexti	t1,t1,8
    6ca8:	ac93037f          	sunpkd820	t1,t1
    6cac:	406a037f          	add16	t1,s4,t1
    6cb0:	35112423          	sw	a7,840(sp)
    6cb4:	35112623          	sw	a7,844(sp)
    6cb8:	34812e03          	lw	t3,840(sp)
    6cbc:	34c12e83          	lw	t4,844(sp)
    6cc0:	de8e0e7f          	wexti	t3,t3,8
    6cc4:	ac9e0e7f          	sunpkd820	t3,t3
    6cc8:	19812403          	lw	s0,408(sp)
    6ccc:	41f45793          	srai	a5,s0,0x1f
    6cd0:	34812823          	sw	s0,848(sp)
    6cd4:	34f12a23          	sw	a5,852(sp)
    6cd8:	35012703          	lw	a4,848(sp)
    6cdc:	35412783          	lw	a5,852(sp)
    6ce0:	89c3177f          	smalbb	a4,t1,t3
    6ce4:	893a                	c.mv	s2,a4
    6ce6:	ac9585ff          	sunpkd820	a1,a1
    6cea:	40ba05ff          	add16	a1,s4,a1
    6cee:	1a012703          	lw	a4,416(sp)
    6cf2:	41f75793          	srai	a5,a4,0x1f
    6cf6:	34e12c23          	sw	a4,856(sp)
    6cfa:	34f12e23          	sw	a5,860(sp)
    6cfe:	35812703          	lw	a4,856(sp)
    6d02:	35c12783          	lw	a5,860(sp)
    6d06:	a9c3177f          	smaltt	a4,t1,t3
    6d0a:	8d3a                	c.mv	s10,a4
    6d0c:	ac9888ff          	sunpkd820	a7,a7
    6d10:	1a812403          	lw	s0,424(sp)
    6d14:	41f45793          	srai	a5,s0,0x1f
    6d18:	36812023          	sw	s0,864(sp)
    6d1c:	36f12223          	sw	a5,868(sp)
    6d20:	36012403          	lw	s0,864(sp)
    6d24:	36412483          	lw	s1,868(sp)
    6d28:	8915947f          	smalbb	s0,a1,a7
    6d2c:	1b012703          	lw	a4,432(sp)
    6d30:	41f75793          	srai	a5,a4,0x1f
    6d34:	36e12423          	sw	a4,872(sp)
    6d38:	36f12623          	sw	a5,876(sp)
    6d3c:	36812703          	lw	a4,872(sp)
    6d40:	36c12783          	lw	a5,876(sp)
    6d44:	a915977f          	smaltt	a4,a1,a7
    6d48:	47e6                	c.lwsp	a5,88(sp)
    6d4a:	19412583          	lw	a1,404(sp)
    6d4e:	80f5d9e3          	bge	a1,a5,6560 <riscv_depthwise_conv_3x3_s8+0x5d8>
    6d52:	47a6                	c.lwsp	a5,72(sp)
    6d54:	439c                	c.lw	a5,0(a5)
    6d56:	45b6                	c.lwsp	a1,76(sp)
    6d58:	418c                	c.lw	a1,0(a1)
    6d5a:	12f12823          	sw	a5,304(sp)
    6d5e:	12f12a23          	sw	a5,308(sp)
    6d62:	13012803          	lw	a6,304(sp)
    6d66:	13412883          	lw	a7,308(sp)
    6d6a:	de88057f          	wexti	a0,a6,8
    6d6e:	ac95057f          	sunpkd820	a0,a0
    6d72:	40aa057f          	add16	a0,s4,a0
    6d76:	12b12c23          	sw	a1,312(sp)
    6d7a:	12b12e23          	sw	a1,316(sp)
    6d7e:	13812803          	lw	a6,312(sp)
    6d82:	13c12883          	lw	a7,316(sp)
    6d86:	de88087f          	wexti	a6,a6,8
    6d8a:	ac98087f          	sunpkd820	a6,a6
    6d8e:	41f95493          	srai	s1,s2,0x1f
    6d92:	15212023          	sw	s2,320(sp)
    6d96:	14912223          	sw	s1,324(sp)
    6d9a:	14012303          	lw	t1,320(sp)
    6d9e:	14412383          	lw	t2,324(sp)
    6da2:	8905137f          	smalbb	t1,a0,a6
    6da6:	ac9787ff          	sunpkd820	a5,a5
    6daa:	40fa07ff          	add16	a5,s4,a5
    6dae:	41fd5493          	srai	s1,s10,0x1f
    6db2:	15a12423          	sw	s10,328(sp)
    6db6:	14912623          	sw	s1,332(sp)
    6dba:	14812e03          	lw	t3,328(sp)
    6dbe:	14c12e83          	lw	t4,332(sp)
    6dc2:	a9051e7f          	smaltt	t3,a0,a6
    6dc6:	ac9585ff          	sunpkd820	a1,a1
    6dca:	41f45513          	srai	a0,s0,0x1f
    6dce:	14812823          	sw	s0,336(sp)
    6dd2:	14a12a23          	sw	a0,340(sp)
    6dd6:	15012803          	lw	a6,336(sp)
    6dda:	15412883          	lw	a7,340(sp)
    6dde:	88b7987f          	smalbb	a6,a5,a1
    6de2:	14e12c23          	sw	a4,344(sp)
    6de6:	877d                	c.srai	a4,0x1f
    6de8:	14e12e23          	sw	a4,348(sp)
    6dec:	15812403          	lw	s0,344(sp)
    6df0:	15c12483          	lw	s1,348(sp)
    6df4:	a8b7947f          	smaltt	s0,a5,a1
    6df8:	47e2                	c.lwsp	a5,24(sp)
    6dfa:	439c                	c.lw	a5,0(a5)
    6dfc:	4772                	c.lwsp	a4,28(sp)
    6dfe:	4318                	c.lw	a4,0(a4)
    6e00:	16f12023          	sw	a5,352(sp)
    6e04:	16f12223          	sw	a5,356(sp)
    6e08:	16012503          	lw	a0,352(sp)
    6e0c:	16412583          	lw	a1,356(sp)
    6e10:	de8505ff          	wexti	a1,a0,8
    6e14:	ac9585ff          	sunpkd820	a1,a1
    6e18:	40ba05ff          	add16	a1,s4,a1
    6e1c:	16e12423          	sw	a4,360(sp)
    6e20:	16e12623          	sw	a4,364(sp)
    6e24:	16812d03          	lw	s10,360(sp)
    6e28:	16c12d83          	lw	s11,364(sp)
    6e2c:	de8d057f          	wexti	a0,s10,8
    6e30:	ac95057f          	sunpkd820	a0,a0
    6e34:	16612823          	sw	t1,368(sp)
    6e38:	41f35313          	srai	t1,t1,0x1f
    6e3c:	16612a23          	sw	t1,372(sp)
    6e40:	17012303          	lw	t1,368(sp)
    6e44:	17412383          	lw	t2,372(sp)
    6e48:	88a5937f          	smalbb	t1,a1,a0
    6e4c:	891a                	c.mv	s2,t1
    6e4e:	ac9787ff          	sunpkd820	a5,a5
    6e52:	40fa07ff          	add16	a5,s4,a5
    6e56:	17c12c23          	sw	t3,376(sp)
    6e5a:	41fe5e13          	srai	t3,t3,0x1f
    6e5e:	17c12e23          	sw	t3,380(sp)
    6e62:	17812e03          	lw	t3,376(sp)
    6e66:	17c12e83          	lw	t4,380(sp)
    6e6a:	a8a59e7f          	smaltt	t3,a1,a0
    6e6e:	8d72                	c.mv	s10,t3
    6e70:	19c12c23          	sw	t3,408(sp)
    6e74:	19d12e23          	sw	t4,412(sp)
    6e78:	ac97077f          	sunpkd820	a4,a4
    6e7c:	41f85593          	srai	a1,a6,0x1f
    6e80:	19012023          	sw	a6,384(sp)
    6e84:	18b12223          	sw	a1,388(sp)
    6e88:	18012803          	lw	a6,384(sp)
    6e8c:	18412883          	lw	a7,388(sp)
    6e90:	88e7987f          	smalbb	a6,a5,a4
    6e94:	41f45593          	srai	a1,s0,0x1f
    6e98:	18812423          	sw	s0,392(sp)
    6e9c:	18b12623          	sw	a1,396(sp)
    6ea0:	18812e03          	lw	t3,392(sp)
    6ea4:	18c12e83          	lw	t4,396(sp)
    6ea8:	8442                	c.mv	s0,a6
    6eaa:	1b012023          	sw	a6,416(sp)
    6eae:	1b112223          	sw	a7,420(sp)
    6eb2:	a8e79e7f          	smaltt	t3,a5,a4
    6eb6:	47f6                	c.lwsp	a5,92(sp)
    6eb8:	4589                	c.li	a1,2
    6eba:	1bc12423          	sw	t3,424(sp)
    6ebe:	1bd12623          	sw	t4,428(sp)
    6ec2:	8772                	c.mv	a4,t3
    6ec4:	0af5de63          	bge	a1,a5,6f80 <riscv_depthwise_conv_3x3_s8+0xff8>
    6ec8:	8442                	c.mv	s0,a6
    6eca:	4786                	c.lwsp	a5,64(sp)
    6ecc:	438c                	c.lw	a1,0(a5)
    6ece:	4796                	c.lwsp	a5,68(sp)
    6ed0:	0007a883          	lw	a7,0(a5)
    6ed4:	40b12823          	sw	a1,1040(sp)
    6ed8:	40b12a23          	sw	a1,1044(sp)
    6edc:	41012703          	lw	a4,1040(sp)
    6ee0:	41412783          	lw	a5,1044(sp)
    6ee4:	de8707ff          	wexti	a5,a4,8
    6ee8:	ac9787ff          	sunpkd820	a5,a5
    6eec:	40fa0eff          	add16	t4,s4,a5
    6ef0:	41112c23          	sw	a7,1048(sp)
    6ef4:	41112e23          	sw	a7,1052(sp)
    6ef8:	41812703          	lw	a4,1048(sp)
    6efc:	41c12783          	lw	a5,1052(sp)
    6f00:	de8707ff          	wexti	a5,a4,8
    6f04:	ac978fff          	sunpkd820	t6,a5
    6f08:	41f35793          	srai	a5,t1,0x1f
    6f0c:	42612023          	sw	t1,1056(sp)
    6f10:	42f12223          	sw	a5,1060(sp)
    6f14:	42012703          	lw	a4,1056(sp)
    6f18:	42412783          	lw	a5,1060(sp)
    6f1c:	89fe977f          	smalbb	a4,t4,t6
    6f20:	893a                	c.mv	s2,a4
    6f22:	ac9585ff          	sunpkd820	a1,a1
    6f26:	40ba05ff          	add16	a1,s4,a1
    6f2a:	19812303          	lw	t1,408(sp)
    6f2e:	41f35793          	srai	a5,t1,0x1f
    6f32:	42612423          	sw	t1,1064(sp)
    6f36:	42f12623          	sw	a5,1068(sp)
    6f3a:	42812703          	lw	a4,1064(sp)
    6f3e:	42c12783          	lw	a5,1068(sp)
    6f42:	a9fe977f          	smaltt	a4,t4,t6
    6f46:	8d3a                	c.mv	s10,a4
    6f48:	ac9888ff          	sunpkd820	a7,a7
    6f4c:	41f45793          	srai	a5,s0,0x1f
    6f50:	42812823          	sw	s0,1072(sp)
    6f54:	42f12a23          	sw	a5,1076(sp)
    6f58:	43012403          	lw	s0,1072(sp)
    6f5c:	43412483          	lw	s1,1076(sp)
    6f60:	8915947f          	smalbb	s0,a1,a7
    6f64:	1a812703          	lw	a4,424(sp)
    6f68:	41f75793          	srai	a5,a4,0x1f
    6f6c:	42e12c23          	sw	a4,1080(sp)
    6f70:	42f12e23          	sw	a5,1084(sp)
    6f74:	43812703          	lw	a4,1080(sp)
    6f78:	43c12783          	lw	a5,1084(sp)
    6f7c:	a915977f          	smaltt	a4,a1,a7
    6f80:	47e6                	c.lwsp	a5,88(sp)
    6f82:	44812583          	lw	a1,1096(sp)
    6f86:	dcf5dd63          	bge	a1,a5,6560 <riscv_depthwise_conv_3x3_s8+0x5d8>
    6f8a:	37412e03          	lw	t3,884(sp)
    6f8e:	8dd2                	c.mv	s11,s4
    6f90:	40d6                	c.lwsp	ra,84(sp)
    6f92:	37812e83          	lw	t4,888(sp)
    6f96:	0000a583          	lw	a1,0(ra)
    6f9a:	44c6                	c.lwsp	s1,80(sp)
    6f9c:	409c                	c.lw	a5,0(s1)
    6f9e:	28b12023          	sw	a1,640(sp)
    6fa2:	28b12223          	sw	a1,644(sp)
    6fa6:	28012603          	lw	a2,640(sp)
    6faa:	28412683          	lw	a3,644(sp)
    6fae:	de86087f          	wexti	a6,a2,8
    6fb2:	ac98087f          	sunpkd820	a6,a6
    6fb6:	410a087f          	add16	a6,s4,a6
    6fba:	28f12423          	sw	a5,648(sp)
    6fbe:	28f12623          	sw	a5,652(sp)
    6fc2:	28812603          	lw	a2,648(sp)
    6fc6:	28c12683          	lw	a3,652(sp)
    6fca:	de8608ff          	wexti	a7,a2,8
    6fce:	ac9888ff          	sunpkd820	a7,a7
    6fd2:	864a                	c.mv	a2,s2
    6fd4:	41f95693          	srai	a3,s2,0x1f
    6fd8:	8f32                	c.mv	t5,a2
    6fda:	8fb6                	c.mv	t6,a3
    6fdc:	89181f7f          	smalbb	t5,a6,a7
    6fe0:	ac9586ff          	sunpkd820	a3,a1
    6fe4:	40da06ff          	add16	a3,s4,a3
    6fe8:	856a                	c.mv	a0,s10
    6fea:	41fd5593          	srai	a1,s10,0x1f
    6fee:	8a2a                	c.mv	s4,a0
    6ff0:	8aae                	c.mv	s5,a1
    6ff2:	a9181a7f          	smaltt	s4,a6,a7
    6ff6:	ac9785ff          	sunpkd820	a1,a5
    6ffa:	8822                	c.mv	a6,s0
    6ffc:	41f45893          	srai	a7,s0,0x1f
    7000:	8942                	c.mv	s2,a6
    7002:	89c6                	c.mv	s3,a7
    7004:	88b6997f          	smalbb	s2,a3,a1
    7008:	833a                	c.mv	t1,a4
    700a:	41f75393          	srai	t2,a4,0x1f
    700e:	8b1a                	c.mv	s6,t1
    7010:	8b9e                	c.mv	s7,t2
    7012:	a8b69b7f          	smaltt	s6,a3,a1
    7016:	87f2                	c.mv	a5,t3
    7018:	9e06                	c.add	t3,ra
    701a:	000e2e03          	lw	t3,0(t3)
    701e:	97a6                	c.add	a5,s1
    7020:	439c                	c.lw	a5,0(a5)
    7022:	29c12823          	sw	t3,656(sp)
    7026:	29c12a23          	sw	t3,660(sp)
    702a:	29012603          	lw	a2,656(sp)
    702e:	29412683          	lw	a3,660(sp)
    7032:	de8605ff          	wexti	a1,a2,8
    7036:	ac9585ff          	sunpkd820	a1,a1
    703a:	40bd85ff          	add16	a1,s11,a1
    703e:	28f12c23          	sw	a5,664(sp)
    7042:	28f12e23          	sw	a5,668(sp)
    7046:	29812603          	lw	a2,664(sp)
    704a:	29c12683          	lw	a3,668(sp)
    704e:	de8608ff          	wexti	a7,a2,8
    7052:	ac9888ff          	sunpkd820	a7,a7
    7056:	837a                	c.mv	t1,t5
    7058:	41ff5393          	srai	t2,t5,0x1f
    705c:	8915937f          	smalbb	t1,a1,a7
    7060:	ac9e0e7f          	sunpkd820	t3,t3
    7064:	41cd8e7f          	add16	t3,s11,t3
    7068:	8652                	c.mv	a2,s4
    706a:	41fa5693          	srai	a3,s4,0x1f
    706e:	8f32                	c.mv	t5,a2
    7070:	8fb6                	c.mv	t6,a3
    7072:	a9159f7f          	smaltt	t5,a1,a7
    7076:	ac9787ff          	sunpkd820	a5,a5
    707a:	41f95593          	srai	a1,s2,0x1f
    707e:	854a                	c.mv	a0,s2
    7080:	892a                	c.mv	s2,a0
    7082:	89ae                	c.mv	s3,a1
    7084:	88fe197f          	smalbb	s2,t3,a5
    7088:	885a                	c.mv	a6,s6
    708a:	41fb5893          	srai	a7,s6,0x1f
    708e:	a8fe187f          	smaltt	a6,t3,a5
    7092:	01d087b3          	add	a5,ra,t4
    7096:	439c                	c.lw	a5,0(a5)
    7098:	01d48733          	add	a4,s1,t4
    709c:	4318                	c.lw	a4,0(a4)
    709e:	2af12023          	sw	a5,672(sp)
    70a2:	2af12223          	sw	a5,676(sp)
    70a6:	2a012603          	lw	a2,672(sp)
    70aa:	2a412683          	lw	a3,676(sp)
    70ae:	de8606ff          	wexti	a3,a2,8
    70b2:	ac9686ff          	sunpkd820	a3,a3
    70b6:	40dd86ff          	add16	a3,s11,a3
    70ba:	2ae12423          	sw	a4,680(sp)
    70be:	2ae12623          	sw	a4,684(sp)
    70c2:	2a812503          	lw	a0,680(sp)
    70c6:	2ac12583          	lw	a1,684(sp)
    70ca:	de8505ff          	wexti	a1,a0,8
    70ce:	ac9585ff          	sunpkd820	a1,a1
    70d2:	8e1a                	c.mv	t3,t1
    70d4:	41f35e93          	srai	t4,t1,0x1f
    70d8:	88b69e7f          	smalbb	t3,a3,a1
    70dc:	ac9787ff          	sunpkd820	a5,a5
    70e0:	40fd87ff          	add16	a5,s11,a5
    70e4:	837a                	c.mv	t1,t5
    70e6:	41ff5393          	srai	t2,t5,0x1f
    70ea:	a8b6937f          	smaltt	t1,a3,a1
    70ee:	ac97077f          	sunpkd820	a4,a4
    70f2:	864a                	c.mv	a2,s2
    70f4:	41f95693          	srai	a3,s2,0x1f
    70f8:	88e7967f          	smalbb	a2,a5,a4
    70fc:	01000633          	add	a2,zero,a6
    7100:	41f85693          	srai	a3,a6,0x1f
    7104:	a8e7967f          	smaltt	a2,a5,a4
    7108:	4d01                	c.li	s10,0
    710a:	4701                	c.li	a4,0
    710c:	4901                	c.li	s2,0
    710e:	4401                	c.li	s0,0
    7110:	9e0ff06f          	j	62f0 <riscv_depthwise_conv_3x3_s8+0x368>
    7114:	47a2                	c.lwsp	a5,8(sp)
    7116:	439c                	c.lw	a5,0(a5)
    7118:	45b2                	c.lwsp	a1,12(sp)
    711a:	418c                	c.lw	a1,0(a1)
    711c:	1ef12423          	sw	a5,488(sp)
    7120:	1ef12623          	sw	a5,492(sp)
    7124:	1e812803          	lw	a6,488(sp)
    7128:	1ec12883          	lw	a7,492(sp)
    712c:	de88057f          	wexti	a0,a6,8
    7130:	ac95057f          	sunpkd820	a0,a0
    7134:	40aa057f          	add16	a0,s4,a0
    7138:	1eb12823          	sw	a1,496(sp)
    713c:	1eb12a23          	sw	a1,500(sp)
    7140:	1f012803          	lw	a6,496(sp)
    7144:	1f412883          	lw	a7,500(sp)
    7148:	de88087f          	wexti	a6,a6,8
    714c:	ac98087f          	sunpkd820	a6,a6
    7150:	41f95493          	srai	s1,s2,0x1f
    7154:	1f212c23          	sw	s2,504(sp)
    7158:	1e912e23          	sw	s1,508(sp)
    715c:	1f812303          	lw	t1,504(sp)
    7160:	1fc12383          	lw	t2,508(sp)
    7164:	8905137f          	smalbb	t1,a0,a6
    7168:	ac9787ff          	sunpkd820	a5,a5
    716c:	40fa07ff          	add16	a5,s4,a5
    7170:	41fd5493          	srai	s1,s10,0x1f
    7174:	21a12023          	sw	s10,512(sp)
    7178:	20912223          	sw	s1,516(sp)
    717c:	20012d03          	lw	s10,512(sp)
    7180:	20412d83          	lw	s11,516(sp)
    7184:	a9051d7f          	smaltt	s10,a0,a6
    7188:	ac9585ff          	sunpkd820	a1,a1
    718c:	41f45513          	srai	a0,s0,0x1f
    7190:	20812423          	sw	s0,520(sp)
    7194:	20a12623          	sw	a0,524(sp)
    7198:	20812803          	lw	a6,520(sp)
    719c:	20c12883          	lw	a7,524(sp)
    71a0:	88b7987f          	smalbb	a6,a5,a1
    71a4:	20e12823          	sw	a4,528(sp)
    71a8:	877d                	c.srai	a4,0x1f
    71aa:	20e12a23          	sw	a4,532(sp)
    71ae:	21012403          	lw	s0,528(sp)
    71b2:	21412483          	lw	s1,532(sp)
    71b6:	a8b7947f          	smaltt	s0,a5,a1
    71ba:	57a2                	c.lwsp	a5,40(sp)
    71bc:	439c                	c.lw	a5,0(a5)
    71be:	5732                	c.lwsp	a4,44(sp)
    71c0:	4318                	c.lw	a4,0(a4)
    71c2:	20f12c23          	sw	a5,536(sp)
    71c6:	20f12e23          	sw	a5,540(sp)
    71ca:	21812503          	lw	a0,536(sp)
    71ce:	21c12583          	lw	a1,540(sp)
    71d2:	de8505ff          	wexti	a1,a0,8
    71d6:	ac9585ff          	sunpkd820	a1,a1
    71da:	40ba05ff          	add16	a1,s4,a1
    71de:	22e12023          	sw	a4,544(sp)
    71e2:	22e12223          	sw	a4,548(sp)
    71e6:	22012e03          	lw	t3,544(sp)
    71ea:	22412e83          	lw	t4,548(sp)
    71ee:	de8e057f          	wexti	a0,t3,8
    71f2:	ac95057f          	sunpkd820	a0,a0
    71f6:	22612423          	sw	t1,552(sp)
    71fa:	41f35313          	srai	t1,t1,0x1f
    71fe:	22612623          	sw	t1,556(sp)
    7202:	22812e03          	lw	t3,552(sp)
    7206:	22c12e83          	lw	t4,556(sp)
    720a:	88a59e7f          	smalbb	t3,a1,a0
    720e:	8972                	c.mv	s2,t3
    7210:	ac9787ff          	sunpkd820	a5,a5
    7214:	40fa07ff          	add16	a5,s4,a5
    7218:	41fd5313          	srai	t1,s10,0x1f
    721c:	22612a23          	sw	t1,564(sp)
    7220:	23a12823          	sw	s10,560(sp)
    7224:	23412383          	lw	t2,564(sp)
    7228:	23012303          	lw	t1,560(sp)
    722c:	a8a5937f          	smaltt	t1,a1,a0
    7230:	8d1a                	c.mv	s10,t1
    7232:	ac97077f          	sunpkd820	a4,a4
    7236:	41f85593          	srai	a1,a6,0x1f
    723a:	23012c23          	sw	a6,568(sp)
    723e:	22b12e23          	sw	a1,572(sp)
    7242:	23812803          	lw	a6,568(sp)
    7246:	23c12883          	lw	a7,572(sp)
    724a:	88e7987f          	smalbb	a6,a5,a4
    724e:	41f45593          	srai	a1,s0,0x1f
    7252:	24812023          	sw	s0,576(sp)
    7256:	24b12223          	sw	a1,580(sp)
    725a:	24012503          	lw	a0,576(sp)
    725e:	24412583          	lw	a1,580(sp)
    7262:	8442                	c.mv	s0,a6
    7264:	19012c23          	sw	a6,408(sp)
    7268:	19112e23          	sw	a7,412(sp)
    726c:	a8e7957f          	smaltt	a0,a5,a4
    7270:	19012783          	lw	a5,400(sp)
    7274:	1aa12023          	sw	a0,416(sp)
    7278:	1ab12223          	sw	a1,420(sp)
    727c:	872a                	c.mv	a4,a0
    727e:	aff7d163          	bge	a5,t6,6560 <riscv_depthwise_conv_3x3_s8+0x5d8>
    7282:	47c2                	c.lwsp	a5,16(sp)
    7284:	439c                	c.lw	a5,0(a5)
    7286:	4752                	c.lwsp	a4,20(sp)
    7288:	4318                	c.lw	a4,0(a4)
    728a:	2ef12023          	sw	a5,736(sp)
    728e:	2ef12223          	sw	a5,740(sp)
    7292:	2e012503          	lw	a0,736(sp)
    7296:	2e412583          	lw	a1,740(sp)
    729a:	de8505ff          	wexti	a1,a0,8
    729e:	ac9585ff          	sunpkd820	a1,a1
    72a2:	40ba05ff          	add16	a1,s4,a1
    72a6:	2ee12423          	sw	a4,744(sp)
    72aa:	2ee12623          	sw	a4,748(sp)
    72ae:	2e812403          	lw	s0,744(sp)
    72b2:	2ec12483          	lw	s1,748(sp)
    72b6:	de8408ff          	wexti	a7,s0,8
    72ba:	ac9888ff          	sunpkd820	a7,a7
    72be:	41fe5513          	srai	a0,t3,0x1f
    72c2:	2fc12823          	sw	t3,752(sp)
    72c6:	2ea12a23          	sw	a0,756(sp)
    72ca:	2f012e03          	lw	t3,752(sp)
    72ce:	2f412e83          	lw	t4,756(sp)
    72d2:	89159e7f          	smalbb	t3,a1,a7
    72d6:	ac9787ff          	sunpkd820	a5,a5
    72da:	40fa07ff          	add16	a5,s4,a5
    72de:	41f35513          	srai	a0,t1,0x1f
    72e2:	2e612c23          	sw	t1,760(sp)
    72e6:	2ea12e23          	sw	a0,764(sp)
    72ea:	2f812303          	lw	t1,760(sp)
    72ee:	2fc12383          	lw	t2,764(sp)
    72f2:	a915937f          	smaltt	t1,a1,a7
    72f6:	ac97077f          	sunpkd820	a4,a4
    72fa:	19812803          	lw	a6,408(sp)
    72fe:	41f85593          	srai	a1,a6,0x1f
    7302:	31012023          	sw	a6,768(sp)
    7306:	30b12223          	sw	a1,772(sp)
    730a:	30012403          	lw	s0,768(sp)
    730e:	30412483          	lw	s1,772(sp)
    7312:	88e7947f          	smalbb	s0,a5,a4
    7316:	1a012503          	lw	a0,416(sp)
    731a:	41f55593          	srai	a1,a0,0x1f
    731e:	30a12423          	sw	a0,776(sp)
    7322:	30b12623          	sw	a1,780(sp)
    7326:	30812803          	lw	a6,776(sp)
    732a:	30c12883          	lw	a7,780(sp)
    732e:	a8e7987f          	smaltt	a6,a5,a4
    7332:	57c2                	c.lwsp	a5,48(sp)
    7334:	439c                	c.lw	a5,0(a5)
    7336:	5752                	c.lwsp	a4,52(sp)
    7338:	4318                	c.lw	a4,0(a4)
    733a:	30f12823          	sw	a5,784(sp)
    733e:	30f12a23          	sw	a5,788(sp)
    7342:	31012503          	lw	a0,784(sp)
    7346:	31412583          	lw	a1,788(sp)
    734a:	de8505ff          	wexti	a1,a0,8
    734e:	ac9585ff          	sunpkd820	a1,a1
    7352:	40ba05ff          	add16	a1,s4,a1
    7356:	30e12c23          	sw	a4,792(sp)
    735a:	30e12e23          	sw	a4,796(sp)
    735e:	31812d03          	lw	s10,792(sp)
    7362:	31c12d83          	lw	s11,796(sp)
    7366:	de8d057f          	wexti	a0,s10,8
    736a:	ac95057f          	sunpkd820	a0,a0
    736e:	33c12023          	sw	t3,800(sp)
    7372:	41fe5e13          	srai	t3,t3,0x1f
    7376:	33c12223          	sw	t3,804(sp)
    737a:	32012e03          	lw	t3,800(sp)
    737e:	32412e83          	lw	t4,804(sp)
    7382:	88a59e7f          	smalbb	t3,a1,a0
    7386:	8972                	c.mv	s2,t3
    7388:	ac9787ff          	sunpkd820	a5,a5
    738c:	40fa07ff          	add16	a5,s4,a5
    7390:	32612423          	sw	t1,808(sp)
    7394:	41f35313          	srai	t1,t1,0x1f
    7398:	32612623          	sw	t1,812(sp)
    739c:	32812303          	lw	t1,808(sp)
    73a0:	32c12383          	lw	t2,812(sp)
    73a4:	a8a5937f          	smaltt	t1,a1,a0
    73a8:	8d1a                	c.mv	s10,t1
    73aa:	18612c23          	sw	t1,408(sp)
    73ae:	18712e23          	sw	t2,412(sp)
    73b2:	ac97077f          	sunpkd820	a4,a4
    73b6:	41f45593          	srai	a1,s0,0x1f
    73ba:	32812823          	sw	s0,816(sp)
    73be:	32b12a23          	sw	a1,820(sp)
    73c2:	33012303          	lw	t1,816(sp)
    73c6:	33412383          	lw	t2,820(sp)
    73ca:	88e7937f          	smalbb	t1,a5,a4
    73ce:	41f85593          	srai	a1,a6,0x1f
    73d2:	33012c23          	sw	a6,824(sp)
    73d6:	32b12e23          	sw	a1,828(sp)
    73da:	33812803          	lw	a6,824(sp)
    73de:	33c12883          	lw	a7,828(sp)
    73e2:	841a                	c.mv	s0,t1
    73e4:	a8e7987f          	smaltt	a6,a5,a4
    73e8:	19412783          	lw	a5,404(sp)
    73ec:	1b012023          	sw	a6,416(sp)
    73f0:	1b112223          	sw	a7,420(sp)
    73f4:	8742                	c.mv	a4,a6
    73f6:	97f7d563          	bge	a5,t6,6560 <riscv_depthwise_conv_3x3_s8+0x5d8>
    73fa:	47e2                	c.lwsp	a5,24(sp)
    73fc:	439c                	c.lw	a5,0(a5)
    73fe:	4772                	c.lwsp	a4,28(sp)
    7400:	4318                	c.lw	a4,0(a4)
    7402:	3af12823          	sw	a5,944(sp)
    7406:	3af12a23          	sw	a5,948(sp)
    740a:	3b012503          	lw	a0,944(sp)
    740e:	3b412583          	lw	a1,948(sp)
    7412:	de8505ff          	wexti	a1,a0,8
    7416:	ac9585ff          	sunpkd820	a1,a1
    741a:	40ba05ff          	add16	a1,s4,a1
    741e:	3ae12c23          	sw	a4,952(sp)
    7422:	3ae12e23          	sw	a4,956(sp)
    7426:	3b812403          	lw	s0,952(sp)
    742a:	3bc12483          	lw	s1,956(sp)
    742e:	de8408ff          	wexti	a7,s0,8
    7432:	ac9888ff          	sunpkd820	a7,a7
    7436:	41fe5513          	srai	a0,t3,0x1f
    743a:	3dc12023          	sw	t3,960(sp)
    743e:	3ca12223          	sw	a0,964(sp)
    7442:	3c012e03          	lw	t3,960(sp)
    7446:	3c412e83          	lw	t4,964(sp)
    744a:	89159e7f          	smalbb	t3,a1,a7
    744e:	ac9787ff          	sunpkd820	a5,a5
    7452:	40fa07ff          	add16	a5,s4,a5
    7456:	19812403          	lw	s0,408(sp)
    745a:	41f45513          	srai	a0,s0,0x1f
    745e:	3c812423          	sw	s0,968(sp)
    7462:	3ca12623          	sw	a0,972(sp)
    7466:	3c812403          	lw	s0,968(sp)
    746a:	3cc12483          	lw	s1,972(sp)
    746e:	a915947f          	smaltt	s0,a1,a7
    7472:	ac97077f          	sunpkd820	a4,a4
    7476:	41f35593          	srai	a1,t1,0x1f
    747a:	3c612823          	sw	t1,976(sp)
    747e:	3cb12a23          	sw	a1,980(sp)
    7482:	3d012303          	lw	t1,976(sp)
    7486:	3d412383          	lw	t2,980(sp)
    748a:	88e7937f          	smalbb	t1,a5,a4
    748e:	1a012503          	lw	a0,416(sp)
    7492:	41f55593          	srai	a1,a0,0x1f
    7496:	3ca12c23          	sw	a0,984(sp)
    749a:	3cb12e23          	sw	a1,988(sp)
    749e:	3d812503          	lw	a0,984(sp)
    74a2:	3dc12583          	lw	a1,988(sp)
    74a6:	a8e7957f          	smaltt	a0,a5,a4
    74aa:	4786                	c.lwsp	a5,64(sp)
    74ac:	18a12c23          	sw	a0,408(sp)
    74b0:	18b12e23          	sw	a1,412(sp)
    74b4:	438c                	c.lw	a1,0(a5)
    74b6:	4796                	c.lwsp	a5,68(sp)
    74b8:	4388                	c.lw	a0,0(a5)
    74ba:	3eb12023          	sw	a1,992(sp)
    74be:	3eb12223          	sw	a1,996(sp)
    74c2:	3e012803          	lw	a6,992(sp)
    74c6:	3e412883          	lw	a7,996(sp)
    74ca:	de88087f          	wexti	a6,a6,8
    74ce:	ac98087f          	sunpkd820	a6,a6
    74d2:	410a087f          	add16	a6,s4,a6
    74d6:	3ea12423          	sw	a0,1000(sp)
    74da:	3ea12623          	sw	a0,1004(sp)
    74de:	3e812d03          	lw	s10,1000(sp)
    74e2:	3ec12d83          	lw	s11,1004(sp)
    74e6:	de8d08ff          	wexti	a7,s10,8
    74ea:	ac9888ff          	sunpkd820	a7,a7
    74ee:	41fe5793          	srai	a5,t3,0x1f
    74f2:	3fc12823          	sw	t3,1008(sp)
    74f6:	3ef12a23          	sw	a5,1012(sp)
    74fa:	3f012703          	lw	a4,1008(sp)
    74fe:	3f412783          	lw	a5,1012(sp)
    7502:	8918177f          	smalbb	a4,a6,a7
    7506:	893a                	c.mv	s2,a4
    7508:	ac9585ff          	sunpkd820	a1,a1
    750c:	40ba05ff          	add16	a1,s4,a1
    7510:	41f45793          	srai	a5,s0,0x1f
    7514:	3e812c23          	sw	s0,1016(sp)
    7518:	3ef12e23          	sw	a5,1020(sp)
    751c:	3f812703          	lw	a4,1016(sp)
    7520:	3fc12783          	lw	a5,1020(sp)
    7524:	a918177f          	smaltt	a4,a6,a7
    7528:	00e00d33          	add	s10,zero,a4
    752c:	ac95057f          	sunpkd820	a0,a0
    7530:	41f35793          	srai	a5,t1,0x1f
    7534:	40612023          	sw	t1,1024(sp)
    7538:	40f12223          	sw	a5,1028(sp)
    753c:	40012403          	lw	s0,1024(sp)
    7540:	40412483          	lw	s1,1028(sp)
    7544:	88a5947f          	smalbb	s0,a1,a0
    7548:	19812703          	lw	a4,408(sp)
    754c:	41f75793          	srai	a5,a4,0x1f
    7550:	40e12423          	sw	a4,1032(sp)
    7554:	40f12623          	sw	a5,1036(sp)
    7558:	40812703          	lw	a4,1032(sp)
    755c:	40c12783          	lw	a5,1036(sp)
    7560:	a8a5977f          	smaltt	a4,a1,a0
    7564:	ffdfe06f          	j	6560 <riscv_depthwise_conv_3x3_s8+0x5d8>
    7568:	4776                	c.lwsp	a4,92(sp)
    756a:	00060903          	lb	s2,0(a2)
    756e:	00050b03          	lb	s6,0(a0) # 40000000 <_DATA_LMA_START+0x1fff64f8>
    7572:	12ed4363          	blt	s10,a4,7698 <riscv_depthwise_conv_3x3_s8+0x1710>
    7576:	997e                	c.add	s2,t6
    7578:	01360733          	add	a4,a2,s3
    757c:	c56917ff          	maddr32	a5,s2,s6
    7580:	00070703          	lb	a4,0(a4)
    7584:	01350933          	add	s2,a0,s3
    7588:	00090903          	lb	s2,0(s2)
    758c:	977e                	c.add	a4,t6
    758e:	c52717ff          	maddr32	a5,a4,s2
    7592:	19012703          	lw	a4,400(sp)
    7596:	a8875f63          	bge	a4,s0,6834 <riscv_depthwise_conv_3x3_s8+0x8ac>
    759a:	00088703          	lb	a4,0(a7)
    759e:	00080b03          	lb	s6,0(a6) # 40000000 <_DATA_LMA_START+0x1fff64f8>
    75a2:	01388933          	add	s2,a7,s3
    75a6:	977e                	c.add	a4,t6
    75a8:	c56717ff          	maddr32	a5,a4,s6
    75ac:	00090903          	lb	s2,0(s2)
    75b0:	44c12703          	lw	a4,1100(sp)
    75b4:	000e0b03          	lb	s6,0(t3)
    75b8:	00173713          	seqz	a4,a4
    75bc:	997e                	c.add	s2,t6
    75be:	0709                	c.addi	a4,2
    75c0:	c56917ff          	maddr32	a5,s2,s6
    75c4:	a6875863          	bge	a4,s0,6834 <riscv_depthwise_conv_3x3_s8+0x8ac>
    75c8:	44012d83          	lw	s11,1088(sp)
    75cc:	00030903          	lb	s2,0(t1) # 40000000 <_DATA_LMA_START+0x1fff64f8>
    75d0:	01b80733          	add	a4,a6,s11
    75d4:	00070b03          	lb	s6,0(a4)
    75d8:	997e                	c.add	s2,t6
    75da:	01330733          	add	a4,t1,s3
    75de:	c52b17ff          	maddr32	a5,s6,s2
    75e2:	00070703          	lb	a4,0(a4)
    75e6:	01be0933          	add	s2,t3,s11
    75ea:	00090903          	lb	s2,0(s2)
    75ee:	977e                	c.add	a4,t6
    75f0:	c52717ff          	maddr32	a5,a4,s2
    75f4:	a40ff06f          	j	6834 <riscv_depthwise_conv_3x3_s8+0x8ac>
    75f8:	01360733          	add	a4,a2,s3
    75fc:	00070903          	lb	s2,0(a4)
    7600:	01350733          	add	a4,a0,s3
    7604:	00070b03          	lb	s6,0(a4)
    7608:	997e                	c.add	s2,t6
    760a:	00960733          	add	a4,a2,s1
    760e:	c56917ff          	maddr32	a5,s2,s6
    7612:	00070703          	lb	a4,0(a4)
    7616:	00950933          	add	s2,a0,s1
    761a:	00090903          	lb	s2,0(s2)
    761e:	977e                	c.add	a4,t6
    7620:	c52717ff          	maddr32	a5,a4,s2
    7624:	19012703          	lw	a4,400(sp)
    7628:	a0875663          	bge	a4,s0,6834 <riscv_depthwise_conv_3x3_s8+0x8ac>
    762c:	01388733          	add	a4,a7,s3
    7630:	00070703          	lb	a4,0(a4)
    7634:	000e0b03          	lb	s6,0(t3)
    7638:	00988933          	add	s2,a7,s1
    763c:	977e                	c.add	a4,t6
    763e:	c56717ff          	maddr32	a5,a4,s6
    7642:	00980733          	add	a4,a6,s1
    7646:	00070b03          	lb	s6,0(a4)
    764a:	00090903          	lb	s2,0(s2)
    764e:	44c12703          	lw	a4,1100(sp)
    7652:	00173713          	seqz	a4,a4
    7656:	997e                	c.add	s2,t6
    7658:	0709                	c.addi	a4,2
    765a:	c56917ff          	maddr32	a5,s2,s6
    765e:	9c875b63          	bge	a4,s0,6834 <riscv_depthwise_conv_3x3_s8+0x8ac>
    7662:	44012903          	lw	s2,1088(sp)
    7666:	01330733          	add	a4,t1,s3
    766a:	00070b03          	lb	s6,0(a4)
    766e:	012e0733          	add	a4,t3,s2
    7672:	00070d83          	lb	s11,0(a4)
    7676:	01090733          	add	a4,s2,a6
    767a:	00930933          	add	s2,t1,s1
    767e:	00090903          	lb	s2,0(s2)
    7682:	9b7e                	c.add	s6,t6
    7684:	9726                	c.add	a4,s1
    7686:	00070703          	lb	a4,0(a4)
    768a:	c5bb17ff          	maddr32	a5,s6,s11
    768e:	997e                	c.add	s2,t6
    7690:	c52717ff          	maddr32	a5,a4,s2
    7694:	9a0ff06f          	j	6834 <riscv_depthwise_conv_3x3_s8+0x8ac>
    7698:	997e                	c.add	s2,t6
    769a:	01360733          	add	a4,a2,s3
    769e:	c56917ff          	maddr32	a5,s2,s6
    76a2:	00070703          	lb	a4,0(a4)
    76a6:	01350933          	add	s2,a0,s3
    76aa:	00090b03          	lb	s6,0(s2)
    76ae:	977e                	c.add	a4,t6
    76b0:	00960933          	add	s2,a2,s1
    76b4:	c56717ff          	maddr32	a5,a4,s6
    76b8:	00090903          	lb	s2,0(s2)
    76bc:	00950733          	add	a4,a0,s1
    76c0:	00070703          	lb	a4,0(a4)
    76c4:	997e                	c.add	s2,t6
    76c6:	c4e917ff          	maddr32	a5,s2,a4
    76ca:	19012703          	lw	a4,400(sp)
    76ce:	96875363          	bge	a4,s0,6834 <riscv_depthwise_conv_3x3_s8+0x8ac>
    76d2:	00088903          	lb	s2,0(a7)
    76d6:	00080b03          	lb	s6,0(a6)
    76da:	01388733          	add	a4,a7,s3
    76de:	997e                	c.add	s2,t6
    76e0:	00070703          	lb	a4,0(a4)
    76e4:	c56917ff          	maddr32	a5,s2,s6
    76e8:	000e0b03          	lb	s6,0(t3)
    76ec:	977e                	c.add	a4,t6
    76ee:	00988933          	add	s2,a7,s1
    76f2:	c56717ff          	maddr32	a5,a4,s6
    76f6:	00980733          	add	a4,a6,s1
    76fa:	00070b03          	lb	s6,0(a4)
    76fe:	00090903          	lb	s2,0(s2)
    7702:	44c12703          	lw	a4,1100(sp)
    7706:	00173713          	seqz	a4,a4
    770a:	997e                	c.add	s2,t6
    770c:	0709                	c.addi	a4,2
    770e:	c56917ff          	maddr32	a5,s2,s6
    7712:	92875163          	bge	a4,s0,6834 <riscv_depthwise_conv_3x3_s8+0x8ac>
    7716:	44012703          	lw	a4,1088(sp)
    771a:	00030b03          	lb	s6,0(t1)
    771e:	9742                	c.add	a4,a6
    7720:	00070d83          	lb	s11,0(a4)
    7724:	9b7e                	c.add	s6,t6
    7726:	01330933          	add	s2,t1,s3
    772a:	c5bb17ff          	maddr32	a5,s6,s11
    772e:	44012b03          	lw	s6,1088(sp)
    7732:	00090903          	lb	s2,0(s2)
    7736:	9b72                	c.add	s6,t3
    7738:	000b0d83          	lb	s11,0(s6)
    773c:	00930b33          	add	s6,t1,s1
    7740:	000b0b03          	lb	s6,0(s6)
    7744:	997e                	c.add	s2,t6
    7746:	9726                	c.add	a4,s1
    7748:	00070703          	lb	a4,0(a4)
    774c:	c5b917ff          	maddr32	a5,s2,s11
    7750:	01fb0b33          	add	s6,s6,t6
    7754:	c4eb17ff          	maddr32	a5,s6,a4
    7758:	8dcff06f          	j	6834 <riscv_depthwise_conv_3x3_s8+0x8ac>
    775c:	53012f03          	lw	t5,1328(sp)
    7760:	00000f93          	li	t6,0
    7764:	ffdfe06f          	j	6760 <riscv_depthwise_conv_3x3_s8+0x7d8>
    7768:	557d                	c.li	a0,-1
    776a:	9b6ff06f          	j	6920 <riscv_depthwise_conv_3x3_s8+0x998>
	...

00007770 <riscv_nn_vec_mat_mult_t_s8>:
    7770:	7161                	c.addi16sp	sp,-432
    7772:	1b812603          	lw	a2,440(sp)
    7776:	1b812283          	lw	t0,440(sp)
    777a:	01f65313          	srli	t1,a2,0x1f
    777e:	005303b3          	add	t2,t1,t0
    7782:	1b212223          	sw	s2,420(sp)
    7786:	19a12223          	sw	s10,388(sp)
    778a:	cb3a                	c.swsp	a4,148(sp)
    778c:	8d3a                	c.mv	s10,a4
    778e:	1c812903          	lw	s2,456(sp)
    7792:	4013d713          	srai	a4,t2,0x1
    7796:	1a812623          	sw	s0,428(sp)
    779a:	1a912423          	sw	s1,424(sp)
    779e:	01079413          	slli	s0,a5,0x10
    77a2:	19812623          	sw	s8,396(sp)
    77a6:	19b12023          	sw	s11,384(sp)
    77aa:	1b312023          	sw	s3,416(sp)
    77ae:	19412e23          	sw	s4,412(sp)
    77b2:	19512c23          	sw	s5,408(sp)
    77b6:	19612a23          	sw	s6,404(sp)
    77ba:	19712823          	sw	s7,400(sp)
    77be:	19912423          	sw	s9,392(sp)
    77c2:	cc42                	c.swsp	a6,24(sp)
    77c4:	c246                	c.swsp	a7,4(sp)
    77c6:	c63a                	c.swsp	a4,12(sp)
    77c8:	8daa                	c.mv	s11,a0
    77ca:	8c2e                	c.mv	s8,a1
    77cc:	41045493          	srai	s1,s0,0x10
    77d0:	12090ae3          	beqz	s2,8104 <riscv_nn_vec_mat_mult_t_s8+0x994>
    77d4:	0e9492ff          	pkbb16	t0,s1,s1
    77d8:	01091f93          	slli	t6,s2,0x10
    77dc:	410fde93          	srai	t4,t6,0x10
    77e0:	0fde94ff          	pkbb16	s1,t4,t4
    77e4:	1b812803          	lw	a6,440(sp)
    77e8:	4c85                	c.li	s9,1
    77ea:	470cd563          	bge	s9,a6,7c54 <riscv_nn_vec_mat_mult_t_s8+0x4e4>
    77ee:	1b012503          	lw	a0,432(sp)
    77f2:	4401                	c.li	s0,0
    77f4:	40a00bb3          	neg	s7,a0
    77f8:	f28b8aff          	maxw	s5,s7,s0
    77fc:	1b012883          	lw	a7,432(sp)
    7800:	015c9333          	sll	t1,s9,s5
    7804:	1b412a03          	lw	s4,436(sp)
    7808:	1b412383          	lw	t2,436(sp)
    780c:	f2888eff          	maxw	t4,a7,s0
    7810:	fff30613          	addi	a2,t1,-1
    7814:	1c412f03          	lw	t5,452(sp)
    7818:	1b412403          	lw	s0,436(sp)
    781c:	ffca7b13          	andi	s6,s4,-4
    7820:	40165713          	srai	a4,a2,0x1
    7824:	00170993          	addi	s3,a4,1
    7828:	016d8cb3          	add	s9,s11,s6
    782c:	4023d593          	srai	a1,t2,0x2
    7830:	00139e13          	slli	t3,t2,0x1
    7834:	001f1f93          	slli	t6,t5,0x1
    7838:	41640533          	sub	a0,s0,s6
    783c:	ce4e                	c.swsp	s3,28(sp)
    783e:	c766                	c.swsp	s9,140(sp)
    7840:	d562                	c.swsp	s8,168(sp)
    7842:	8cb6                	c.mv	s9,a3
    7844:	d256                	c.swsp	s5,36(sp)
    7846:	c832                	c.swsp	a2,16(sp)
    7848:	c35a                	c.swsp	s6,132(sp)
    784a:	ccba                	c.swsp	a4,88(sp)
    784c:	c472                	c.swsp	t3,8(sp)
    784e:	d076                	c.swsp	t4,32(sp)
    7850:	c92a                	c.swsp	a0,144(sp)
    7852:	d17e                	c.swsp	t6,160(sp)
    7854:	c52e                	c.swsp	a1,136(sp)
    7856:	dcea                	c.swsp	s10,120(sp)
    7858:	d86e                	c.swsp	s11,48(sp)
    785a:	c89a                	c.swsp	t1,80(sp)
    785c:	ca9e                	c.swsp	t2,84(sp)
    785e:	016c09b3          	add	s3,s8,s6
    7862:	88e2                	c.mv	a7,s8
    7864:	4801                	c.li	a6,0
    7866:	8c26                	c.mv	s8,s1
    7868:	3a0c8a63          	beqz	s9,7c1c <riscv_nn_vec_mat_mult_t_s8+0x4ac>
    786c:	46a2                	c.lwsp	a3,8(sp)
    786e:	1b412483          	lw	s1,436(sp)
    7872:	00d88db3          	add	s11,a7,a3
    7876:	4d2a                	c.lwsp	s10,136(sp)
    7878:	d46e                	c.swsp	s11,40(sp)
    787a:	000ca603          	lw	a2,0(s9)
    787e:	004ca703          	lw	a4,4(s9)
    7882:	00988ab3          	add	s5,a7,s1
    7886:	0ca1                	c.addi	s9,8
    7888:	3a0d0863          	beqz	s10,7c38 <riscv_nn_vec_mat_mult_t_s8+0x4c8>
    788c:	001d7b93          	andi	s7,s10,1
    7890:	5442                	c.lwsp	s0,48(sp)
    7892:	8a6a                	c.mv	s4,s10
    7894:	fffd0b13          	addi	s6,s10,-1
    7898:	080b8063          	beqz	s7,7918 <riscv_nn_vec_mat_mult_t_s8+0x1a8>
    789c:	00042a03          	lw	s4,0(s0)
    78a0:	dc52                	c.swsp	s4,56(sp)
    78a2:	de52                	c.swsp	s4,60(sp)
    78a4:	5362                	c.lwsp	t1,56(sp)
    78a6:	53f2                	c.lwsp	t2,60(sp)
    78a8:	0411                	c.addi	s0,4
    78aa:	de8303ff          	wexti	t2,t1,8
    78ae:	ac9385ff          	sunpkd820	a1,t2
    78b2:	40b2857f          	add16	a0,t0,a1
    78b6:	ac9a04ff          	sunpkd820	s1,s4
    78ba:	409286ff          	add16	a3,t0,s1
    78be:	0008ad03          	lw	s10,0(a7)
    78c2:	c0ea                	c.swsp	s10,64(sp)
    78c4:	c2ea                	c.swsp	s10,68(sp)
    78c6:	4306                	c.lwsp	t1,64(sp)
    78c8:	4396                	c.lwsp	t2,68(sp)
    78ca:	0891                	c.addi	a7,4
    78cc:	de830bff          	wexti	s7,t1,8
    78d0:	ac9b8dff          	sunpkd820	s11,s7
    78d4:	41bc0a7f          	add16	s4,s8,s11
    78d8:	ac9d03ff          	sunpkd820	t2,s10
    78dc:	407c05ff          	add16	a1,s8,t2
    78e0:	48aa167f          	kmada	a2,s4,a0
    78e4:	48d5967f          	kmada	a2,a1,a3
    78e8:	000aa483          	lw	s1,0(s5)
    78ec:	c4a6                	c.swsp	s1,72(sp)
    78ee:	c6a6                	c.swsp	s1,76(sp)
    78f0:	4d26                	c.lwsp	s10,72(sp)
    78f2:	4db6                	c.lwsp	s11,76(sp)
    78f4:	0a91                	c.addi	s5,4
    78f6:	de8d037f          	wexti	t1,s10,8
    78fa:	ac930bff          	sunpkd820	s7,t1
    78fe:	417c0dff          	add16	s11,s8,s7
    7902:	ac948a7f          	sunpkd820	s4,s1
    7906:	414c03ff          	add16	t2,s8,s4
    790a:	48ad977f          	kmada	a4,s11,a0
    790e:	48d3977f          	kmada	a4,t2,a3
    7912:	8a5a                	c.mv	s4,s6
    7914:	100b0263          	beqz	s6,7a18 <riscv_nn_vec_mat_mult_t_s8+0x2a8>
    7918:	8522                	c.mv	a0,s0
    791a:	d0c2                	c.swsp	a6,96(sp)
    791c:	d8ce                	c.swsp	s3,112(sp)
    791e:	dee6                	c.swsp	s9,124(sp)
    7920:	08f12023          	sw	a5,128(sp)
    7924:	1d212423          	sw	s2,456(sp)
    7928:	411c                	c.lw	a5,0(a0)
    792a:	8d3e                	c.mv	s10,a5
    792c:	8dbe                	c.mv	s11,a5
    792e:	00450e13          	addi	t3,a0,4
    7932:	de8d097f          	wexti	s2,s10,8
    7936:	ac9909ff          	sunpkd820	s3,s2
    793a:	41328f7f          	add16	t5,t0,s3
    793e:	ac978fff          	sunpkd820	t6,a5
    7942:	41f28eff          	add16	t4,t0,t6
    7946:	0008ac83          	lw	s9,0(a7)
    794a:	8466                	c.mv	s0,s9
    794c:	84e6                	c.mv	s1,s9
    794e:	00488793          	addi	a5,a7,4
    7952:	de84087f          	wexti	a6,s0,8
    7956:	ac980b7f          	sunpkd820	s6,a6
    795a:	416c047f          	add16	s0,s8,s6
    795e:	ac9c86ff          	sunpkd820	a3,s9
    7962:	40dc05ff          	add16	a1,s8,a3
    7966:	49e4167f          	kmada	a2,s0,t5
    796a:	49d5967f          	kmada	a2,a1,t4
    796e:	000aa483          	lw	s1,0(s5)
    7972:	8b26                	c.mv	s6,s1
    7974:	8ba6                	c.mv	s7,s1
    7976:	004a8f93          	addi	t6,s5,4
    797a:	de8b037f          	wexti	t1,s6,8
    797e:	ac930bff          	sunpkd820	s7,t1
    7982:	417c03ff          	add16	t2,s8,s7
    7986:	ac94897f          	sunpkd820	s2,s1
    798a:	412c09ff          	add16	s3,s8,s2
    798e:	49e3977f          	kmada	a4,t2,t5
    7992:	49d9977f          	kmada	a4,s3,t4
    7996:	000e2e03          	lw	t3,0(t3)
    799a:	8372                	c.mv	t1,t3
    799c:	83f2                	c.mv	t2,t3
    799e:	0521                	c.addi	a0,8
    79a0:	de830f7f          	wexti	t5,t1,8
    79a4:	ac9f0eff          	sunpkd820	t4,t5
    79a8:	41d28cff          	add16	s9,t0,t4
    79ac:	ac9e087f          	sunpkd820	a6,t3
    79b0:	41028b7f          	add16	s6,t0,a6
    79b4:	439c                	c.lw	a5,0(a5)
    79b6:	8e3e                	c.mv	t3,a5
    79b8:	8ebe                	c.mv	t4,a5
    79ba:	08a1                	c.addi	a7,8
    79bc:	de8e047f          	wexti	s0,t3,8
    79c0:	ac9406ff          	sunpkd820	a3,s0
    79c4:	40dc05ff          	add16	a1,s8,a3
    79c8:	ac9784ff          	sunpkd820	s1,a5
    79cc:	409c0bff          	add16	s7,s8,s1
    79d0:	4995967f          	kmada	a2,a1,s9
    79d4:	496b967f          	kmada	a2,s7,s6
    79d8:	000fa903          	lw	s2,0(t6)
    79dc:	8f4a                	c.mv	t5,s2
    79de:	8fca                	c.mv	t6,s2
    79e0:	0aa1                	c.addi	s5,8
    79e2:	de8f09ff          	wexti	s3,t5,8
    79e6:	ac99887f          	sunpkd820	a6,s3
    79ea:	410c07ff          	add16	a5,s8,a6
    79ee:	ac99047f          	sunpkd820	s0,s2
    79f2:	408c06ff          	add16	a3,s8,s0
    79f6:	4997977f          	kmada	a4,a5,s9
    79fa:	4966977f          	kmada	a4,a3,s6
    79fe:	1a79                	c.addi	s4,-2
    7a00:	f20a14e3          	bnez	s4,7928 <riscv_nn_vec_mat_mult_t_s8+0x1b8>
    7a04:	5806                	c.lwsp	a6,96(sp)
    7a06:	59c6                	c.lwsp	s3,112(sp)
    7a08:	5cf6                	c.lwsp	s9,124(sp)
    7a0a:	478a                	c.lwsp	a5,128(sp)
    7a0c:	1c812903          	lw	s2,456(sp)
    7a10:	d4ea                	c.swsp	s10,104(sp)
    7a12:	d6ee                	c.swsp	s11,108(sp)
    7a14:	c89a                	c.swsp	t1,80(sp)
    7a16:	ca9e                	c.swsp	t2,84(sp)
    7a18:	1b412883          	lw	a7,436(sp)
    7a1c:	46ba                	c.lwsp	a3,140(sp)
    7a1e:	01198ab3          	add	s5,s3,a7
    7a22:	88ce                	c.mv	a7,s3
    7a24:	1b412d03          	lw	s10,436(sp)
    7a28:	4d9a                	c.lwsp	s11,132(sp)
    7a2a:	13addb63          	bge	s11,s10,7b60 <riscv_nn_vec_mat_mult_t_s8+0x3f0>
    7a2e:	4a4a                	c.lwsp	s4,144(sp)
    7a30:	003a7313          	andi	t1,s4,3
    7a34:	01468b33          	add	s6,a3,s4
    7a38:	08030663          	beqz	t1,7ac4 <riscv_nn_vec_mat_mult_t_s8+0x354>
    7a3c:	4385                	c.li	t2,1
    7a3e:	04730d63          	beq	t1,t2,7a98 <riscv_nn_vec_mat_mult_t_s8+0x328>
    7a42:	4509                	c.li	a0,2
    7a44:	02a30663          	beq	t1,a0,7a70 <riscv_nn_vec_mat_mult_t_s8+0x300>
    7a48:	00068583          	lb	a1,0(a3)
    7a4c:	00088483          	lb	s1,0(a7)
    7a50:	000a8b83          	lb	s7,0(s5)
    7a54:	00f58433          	add	s0,a1,a5
    7a58:	01248d33          	add	s10,s1,s2
    7a5c:	012b8db3          	add	s11,s7,s2
    7a60:	c48d167f          	maddr32	a2,s10,s0
    7a64:	c48d977f          	maddr32	a4,s11,s0
    7a68:	0685                	c.addi	a3,1
    7a6a:	0885                	c.addi	a7,1
    7a6c:	001a8a93          	addi	s5,s5,1
    7a70:	00068a03          	lb	s4,0(a3)
    7a74:	00088303          	lb	t1,0(a7)
    7a78:	000a8383          	lb	t2,0(s5)
    7a7c:	00fa05b3          	add	a1,s4,a5
    7a80:	012304b3          	add	s1,t1,s2
    7a84:	01238533          	add	a0,t2,s2
    7a88:	c4b4967f          	maddr32	a2,s1,a1
    7a8c:	c4b5177f          	maddr32	a4,a0,a1
    7a90:	0685                	c.addi	a3,1
    7a92:	0885                	c.addi	a7,1
    7a94:	001a8a93          	addi	s5,s5,1
    7a98:	00068b83          	lb	s7,0(a3)
    7a9c:	00088403          	lb	s0,0(a7)
    7aa0:	000a8d03          	lb	s10,0(s5)
    7aa4:	00fb8a33          	add	s4,s7,a5
    7aa8:	01240db3          	add	s11,s0,s2
    7aac:	012d0333          	add	t1,s10,s2
    7ab0:	0685                	c.addi	a3,1
    7ab2:	c54d967f          	maddr32	a2,s11,s4
    7ab6:	c543177f          	maddr32	a4,t1,s4
    7aba:	0885                	c.addi	a7,1
    7abc:	001a8a93          	addi	s5,s5,1
    7ac0:	0b668063          	beq	a3,s6,7b60 <riscv_nn_vec_mat_mult_t_s8+0x3f0>
    7ac4:	d0f2                	c.swsp	t3,96(sp)
    7ac6:	d2f6                	c.swsp	t4,100(sp)
    7ac8:	d8fa                	c.swsp	t5,112(sp)
    7aca:	dafe                	c.swsp	t6,116(sp)
    7acc:	00068f83          	lb	t6,0(a3)
    7ad0:	00088e03          	lb	t3,0(a7)
    7ad4:	000a8f03          	lb	t5,0(s5)
    7ad8:	00ff85b3          	add	a1,t6,a5
    7adc:	00168383          	lb	t2,1(a3)
    7ae0:	00188483          	lb	s1,1(a7)
    7ae4:	001a8b83          	lb	s7,1(s5)
    7ae8:	012e0eb3          	add	t4,t3,s2
    7aec:	012f0533          	add	a0,t5,s2
    7af0:	c4be967f          	maddr32	a2,t4,a1
    7af4:	c4b5177f          	maddr32	a4,a0,a1
    7af8:	00268403          	lb	s0,2(a3)
    7afc:	00f38fb3          	add	t6,t2,a5
    7b00:	00288d03          	lb	s10,2(a7)
    7b04:	002a8303          	lb	t1,2(s5)
    7b08:	01248a33          	add	s4,s1,s2
    7b0c:	012b8db3          	add	s11,s7,s2
    7b10:	c5fa167f          	maddr32	a2,s4,t6
    7b14:	c5fd977f          	maddr32	a4,s11,t6
    7b18:	00f404b3          	add	s1,s0,a5
    7b1c:	00368e03          	lb	t3,3(a3)
    7b20:	00388f03          	lb	t5,3(a7)
    7b24:	003a8383          	lb	t2,3(s5)
    7b28:	012d0bb3          	add	s7,s10,s2
    7b2c:	012305b3          	add	a1,t1,s2
    7b30:	c49b967f          	maddr32	a2,s7,s1
    7b34:	c495977f          	maddr32	a4,a1,s1
    7b38:	00fe0eb3          	add	t4,t3,a5
    7b3c:	012f0433          	add	s0,t5,s2
    7b40:	01238533          	add	a0,t2,s2
    7b44:	0691                	c.addi	a3,4
    7b46:	c5d4167f          	maddr32	a2,s0,t4
    7b4a:	c5d5177f          	maddr32	a4,a0,t4
    7b4e:	0891                	c.addi	a7,4
    7b50:	0a91                	c.addi	s5,4
    7b52:	f7669de3          	bne	a3,s6,7acc <riscv_nn_vec_mat_mult_t_s8+0x35c>
    7b56:	5e06                	c.lwsp	t3,96(sp)
    7b58:	5e96                	c.lwsp	t4,100(sp)
    7b5a:	5f46                	c.lwsp	t5,112(sp)
    7b5c:	07412f83          	lw	t6,116(sp)
    7b60:	5a82                	c.lwsp	s5,32(sp)
    7b62:	4892                	c.lwsp	a7,4(sp)
    7b64:	01561633          	sll	a2,a2,s5
    7b68:	40000537          	lui	a0,0x40000
    7b6c:	4581                	c.li	a1,0
    7b6e:	8516157f          	smar64	a0,a2,a7
    7b72:	46c2                	c.lwsp	a3,16(sp)
    7b74:	5312                	c.lwsp	t1,36(sp)
    7b76:	dff50b7f          	wexti	s6,a0,31
    7b7a:	4df2                	c.lwsp	s11,28(sp)
    7b7c:	0166fd33          	and	s10,a3,s6
    7b80:	406b5a33          	sra	s4,s6,t1
    7b84:	000b4463          	bltz	s6,7b8c <riscv_nn_vec_mat_mult_t_s8+0x41c>
    7b88:	05812d83          	lw	s11,88(sp)
    7b8c:	5382                	c.lwsp	t2,32(sp)
    7b8e:	4492                	c.lwsp	s1,4(sp)
    7b90:	00771733          	sll	a4,a4,t2
    7b94:	40000637          	lui	a2,0x40000
    7b98:	4681                	c.li	a3,0
    7b9a:	8497167f          	smar64	a2,a4,s1
    7b9e:	4542                	c.lwsp	a0,16(sp)
    7ba0:	01adabb3          	slt	s7,s11,s10
    7ba4:	dff6047f          	wexti	s0,a2,31
    7ba8:	5612                	c.lwsp	a2,36(sp)
    7baa:	4b72                	c.lwsp	s6,28(sp)
    7bac:	017a05b3          	add	a1,s4,s7
    7bb0:	00857ab3          	and	s5,a0,s0
    7bb4:	40c458b3          	sra	a7,s0,a2
    7bb8:	00044463          	bltz	s0,7bc0 <riscv_nn_vec_mat_mult_t_s8+0x450>
    7bbc:	05812b03          	lw	s6,88(sp)
    7bc0:	4362                	c.lwsp	t1,24(sp)
    7bc2:	015b26b3          	slt	a3,s6,s5
    7bc6:	1bc12383          	lw	t2,444(sp)
    7bca:	00d88d33          	add	s10,a7,a3
    7bce:	5466                	c.lwsp	s0,120(sp)
    7bd0:	00b30a33          	add	s4,t1,a1
    7bd4:	1c012b83          	lw	s7,448(sp)
    7bd8:	1c412503          	lw	a0,452(sp)
    7bdc:	01a30db3          	add	s11,t1,s10
    7be0:	1c012603          	lw	a2,448(sp)
    7be4:	1c412b03          	lw	s6,452(sp)
    7be8:	f34384ff          	maxw	s1,t2,s4
    7bec:	00a40ab3          	add	s5,s0,a0
    7bf0:	f3b3877f          	maxw	a4,t2,s11
    7bf4:	f09b85ff          	minw	a1,s7,s1
    7bf8:	4d22                	c.lwsp	s10,8(sp)
    7bfa:	f0e608ff          	minw	a7,a2,a4
    7bfe:	016a86b3          	add	a3,s5,s6
    7c02:	00b40023          	sb	a1,0(s0)
    7c06:	4332                	c.lwsp	t1,12(sp)
    7c08:	0805                	c.addi	a6,1
    7c0a:	011a8023          	sb	a7,0(s5)
    7c0e:	dcb6                	c.swsp	a3,120(sp)
    7c10:	99ea                	c.add	s3,s10
    7c12:	02685563          	bge	a6,t1,7c3c <riscv_nn_vec_mat_mult_t_s8+0x4cc>
    7c16:	58a2                	c.lwsp	a7,40(sp)
    7c18:	c40c9ae3          	bnez	s9,786c <riscv_nn_vec_mat_mult_t_s8+0xfc>
    7c1c:	46a2                	c.lwsp	a3,8(sp)
    7c1e:	1b412483          	lw	s1,436(sp)
    7c22:	00d88db3          	add	s11,a7,a3
    7c26:	4d2a                	c.lwsp	s10,136(sp)
    7c28:	d46e                	c.swsp	s11,40(sp)
    7c2a:	4701                	c.li	a4,0
    7c2c:	00000613          	li	a2,0
    7c30:	00988ab3          	add	s5,a7,s1
    7c34:	c40d1ce3          	bnez	s10,788c <riscv_nn_vec_mat_mult_t_s8+0x11c>
    7c38:	56c2                	c.lwsp	a3,48(sp)
    7c3a:	b3ed                	c.j	7a24 <riscv_nn_vec_mat_mult_t_s8+0x2b4>
    7c3c:	4e5a                	c.lwsp	t3,148(sp)
    7c3e:	5f8a                	c.lwsp	t6,160(sp)
    7c40:	84e2                	c.mv	s1,s8
    7c42:	86e6                	c.mv	a3,s9
    7c44:	5c2a                	c.lwsp	s8,168(sp)
    7c46:	4ca2                	c.lwsp	s9,8(sp)
    7c48:	c46f9e7f          	maddr32	t3,t6,t1
    7c4c:	5dc2                	c.lwsp	s11,48(sp)
    7c4e:	c46c9c7f          	maddr32	s8,s9,t1
    7c52:	cb72                	c.swsp	t3,148(sp)
    7c54:	1b812f03          	lw	t5,440(sp)
    7c58:	001f7e93          	andi	t4,t5,1
    7c5c:	460e8863          	beqz	t4,80cc <riscv_nn_vec_mat_mult_t_s8+0x95c>
    7c60:	4701                	c.li	a4,0
    7c62:	c299                	c.beqz	a3,7c68 <riscv_nn_vec_mat_mult_t_s8+0x4f8>
    7c64:	0006a703          	lw	a4,0(a3)
    7c68:	1b412a03          	lw	s4,436(sp)
    7c6c:	4881                	c.li	a7,0
    7c6e:	402a5b93          	srai	s7,s4,0x2
    7c72:	260b8963          	beqz	s7,7ee4 <riscv_nn_vec_mat_mult_t_s8+0x774>
    7c76:	003bf393          	andi	t2,s7,3
    7c7a:	8862                	c.mv	a6,s8
    7c7c:	88ee                	c.mv	a7,s11
    7c7e:	8e5e                	c.mv	t3,s7
    7c80:	fffb8593          	addi	a1,s7,-1
    7c84:	10038c63          	beqz	t2,7d9c <riscv_nn_vec_mat_mult_t_s8+0x62c>
    7c88:	4405                	c.li	s0,1
    7c8a:	0a838f63          	beq	t2,s0,7d48 <riscv_nn_vec_mat_mult_t_s8+0x5d8>
    7c8e:	4509                	c.li	a0,2
    7c90:	06a38463          	beq	t2,a0,7cf8 <riscv_nn_vec_mat_mult_t_s8+0x588>
    7c94:	000daa83          	lw	s5,0(s11)
    7c98:	17512023          	sw	s5,352(sp)
    7c9c:	17512223          	sw	s5,356(sp)
    7ca0:	16012603          	lw	a2,352(sp)
    7ca4:	16412683          	lw	a3,356(sp)
    7ca8:	004d8893          	addi	a7,s11,4
    7cac:	de86087f          	wexti	a6,a2,8
    7cb0:	ac980b7f          	sunpkd820	s6,a6
    7cb4:	41628d7f          	add16	s10,t0,s6
    7cb8:	ac9a86ff          	sunpkd820	a3,s5
    7cbc:	40d289ff          	add16	s3,t0,a3
    7cc0:	000c2303          	lw	t1,0(s8)
    7cc4:	16612423          	sw	t1,360(sp)
    7cc8:	16612623          	sw	t1,364(sp)
    7ccc:	16812e03          	lw	t3,360(sp)
    7cd0:	16c12e83          	lw	t4,364(sp)
    7cd4:	004c0813          	addi	a6,s8,4
    7cd8:	de8e0fff          	wexti	t6,t3,8
    7cdc:	ac9f8cff          	sunpkd820	s9,t6
    7ce0:	41948f7f          	add16	t5,s1,s9
    7ce4:	ac930eff          	sunpkd820	t4,t1
    7ce8:	41d48a7f          	add16	s4,s1,t4
    7cec:	49af177f          	kmada	a4,t5,s10
    7cf0:	493a177f          	kmada	a4,s4,s3
    7cf4:	00b00e33          	add	t3,zero,a1
    7cf8:	0008a583          	lw	a1,0(a7)
    7cfc:	c5ae                	c.swsp	a1,200(sp)
    7cfe:	c7ae                	c.swsp	a1,204(sp)
    7d00:	462e                	c.lwsp	a2,200(sp)
    7d02:	46be                	c.lwsp	a3,204(sp)
    7d04:	0891                	c.addi	a7,4
    7d06:	de8603ff          	wexti	t2,a2,8
    7d0a:	ac93847f          	sunpkd820	s0,t2
    7d0e:	4082857f          	add16	a0,t0,s0
    7d12:	ac958aff          	sunpkd820	s5,a1
    7d16:	41528b7f          	add16	s6,t0,s5
    7d1a:	00082d03          	lw	s10,0(a6)
    7d1e:	c9ea                	c.swsp	s10,208(sp)
    7d20:	cbea                	c.swsp	s10,212(sp)
    7d22:	434e                	c.lwsp	t1,208(sp)
    7d24:	43de                	c.lwsp	t2,212(sp)
    7d26:	0811                	c.addi	a6,4
    7d28:	de8306ff          	wexti	a3,t1,8
    7d2c:	ac9689ff          	sunpkd820	s3,a3
    7d30:	41348fff          	add16	t6,s1,s3
    7d34:	ac9d0cff          	sunpkd820	s9,s10
    7d38:	41948f7f          	add16	t5,s1,s9
    7d3c:	48af977f          	kmada	a4,t6,a0
    7d40:	496f177f          	kmada	a4,t5,s6
    7d44:	fffe0e13          	addi	t3,t3,-1
    7d48:	0008ae83          	lw	t4,0(a7)
    7d4c:	d976                	c.swsp	t4,176(sp)
    7d4e:	db76                	c.swsp	t4,180(sp)
    7d50:	5a4a                	c.lwsp	s4,176(sp)
    7d52:	5ada                	c.lwsp	s5,180(sp)
    7d54:	0891                	c.addi	a7,4
    7d56:	de8a05ff          	wexti	a1,s4,8
    7d5a:	ac95867f          	sunpkd820	a2,a1
    7d5e:	40c283ff          	add16	t2,t0,a2
    7d62:	ac9e847f          	sunpkd820	s0,t4
    7d66:	4082857f          	add16	a0,t0,s0
    7d6a:	00082a83          	lw	s5,0(a6)
    7d6e:	dd56                	c.swsp	s5,184(sp)
    7d70:	df56                	c.swsp	s5,188(sp)
    7d72:	5f6a                	c.lwsp	t5,184(sp)
    7d74:	5ffa                	c.lwsp	t6,188(sp)
    7d76:	0811                	c.addi	a6,4
    7d78:	de8f0b7f          	wexti	s6,t5,8
    7d7c:	ac9b0d7f          	sunpkd820	s10,s6
    7d80:	41a4837f          	add16	t1,s1,s10
    7d84:	ac9a86ff          	sunpkd820	a3,s5
    7d88:	40d489ff          	add16	s3,s1,a3
    7d8c:	4873177f          	kmada	a4,t1,t2
    7d90:	48a9977f          	kmada	a4,s3,a0
    7d94:	fffe0e13          	addi	t3,t3,-1
    7d98:	140e0263          	beqz	t3,7edc <riscv_nn_vec_mat_mult_t_s8+0x76c>
    7d9c:	8ca6                	c.mv	s9,s1
    7d9e:	86f2                	c.mv	a3,t3
    7da0:	866e                	c.mv	a2,s11
    7da2:	c45e                	c.swsp	s7,8(sp)
    7da4:	c662                	c.swsp	s8,12(sp)
    7da6:	c83e                	c.swsp	a5,16(sp)
    7da8:	1d212423          	sw	s2,456(sp)
    7dac:	0008ac03          	lw	s8,0(a7)
    7db0:	cd62                	c.swsp	s8,152(sp)
    7db2:	cf62                	c.swsp	s8,156(sp)
    7db4:	4d6a                	c.lwsp	s10,152(sp)
    7db6:	4dfa                	c.lwsp	s11,156(sp)
    7db8:	00488913          	addi	s2,a7,4
    7dbc:	de8d07ff          	wexti	a5,s10,8
    7dc0:	ac978dff          	sunpkd820	s11,a5
    7dc4:	41b284ff          	add16	s1,t0,s11
    7dc8:	ac9c0bff          	sunpkd820	s7,s8
    7dcc:	41728fff          	add16	t6,t0,s7
    7dd0:	00082e83          	lw	t4,0(a6)
    7dd4:	8576                	c.mv	a0,t4
    7dd6:	85f6                	c.mv	a1,t4
    7dd8:	00480a13          	addi	s4,a6,4
    7ddc:	de8505ff          	wexti	a1,a0,8
    7de0:	ac9583ff          	sunpkd820	t2,a1
    7de4:	407c847f          	add16	s0,s9,t2
    7de8:	ac9e857f          	sunpkd820	a0,t4
    7dec:	40ac8aff          	add16	s5,s9,a0
    7df0:	4894177f          	kmada	a4,s0,s1
    7df4:	49fa977f          	kmada	a4,s5,t6
    7df8:	00092f03          	lw	t5,0(s2)
    7dfc:	837a                	c.mv	t1,t5
    7dfe:	83fa                	c.mv	t2,t5
    7e00:	00888993          	addi	s3,a7,8
    7e04:	de830b7f          	wexti	s6,t1,8
    7e08:	ac9b0d7f          	sunpkd820	s10,s6
    7e0c:	41a2837f          	add16	t1,t0,s10
    7e10:	ac9f0e7f          	sunpkd820	t3,t5
    7e14:	41c28c7f          	add16	s8,t0,t3
    7e18:	000a2903          	lw	s2,0(s4)
    7e1c:	8e4a                	c.mv	t3,s2
    7e1e:	8eca                	c.mv	t4,s2
    7e20:	00880493          	addi	s1,a6,8
    7e24:	de8e07ff          	wexti	a5,t3,8
    7e28:	ac978dff          	sunpkd820	s11,a5
    7e2c:	41bc8bff          	add16	s7,s9,s11
    7e30:	ac990fff          	sunpkd820	t6,s2
    7e34:	41fc8eff          	add16	t4,s9,t6
    7e38:	486b977f          	kmada	a4,s7,t1
    7e3c:	498e977f          	kmada	a4,t4,s8
    7e40:	0009aa03          	lw	s4,0(s3)
    7e44:	8f52                	c.mv	t5,s4
    7e46:	8fd2                	c.mv	t6,s4
    7e48:	00c88593          	addi	a1,a7,12
    7e4c:	de8f03ff          	wexti	t2,t5,8
    7e50:	ac93847f          	sunpkd820	s0,t2
    7e54:	4082857f          	add16	a0,t0,s0
    7e58:	ac9a0aff          	sunpkd820	s5,s4
    7e5c:	41528f7f          	add16	t5,t0,s5
    7e60:	0004a983          	lw	s3,0(s1)
    7e64:	844e                	c.mv	s0,s3
    7e66:	84ce                	c.mv	s1,s3
    7e68:	00c80313          	addi	t1,a6,12
    7e6c:	de840b7f          	wexti	s6,s0,8
    7e70:	ac9b0d7f          	sunpkd820	s10,s6
    7e74:	41ac8e7f          	add16	t3,s9,s10
    7e78:	ac998c7f          	sunpkd820	s8,s3
    7e7c:	418c897f          	add16	s2,s9,s8
    7e80:	48ae177f          	kmada	a4,t3,a0
    7e84:	49e9177f          	kmada	a4,s2,t5
    7e88:	4184                	c.lw	s1,0(a1)
    7e8a:	8926                	c.mv	s2,s1
    7e8c:	89a6                	c.mv	s3,s1
    7e8e:	08c1                	c.addi	a7,16
    7e90:	de8907ff          	wexti	a5,s2,8
    7e94:	ac978dff          	sunpkd820	s11,a5
    7e98:	41b28bff          	add16	s7,t0,s11
    7e9c:	ac948fff          	sunpkd820	t6,s1
    7ea0:	41f28eff          	add16	t4,t0,t6
    7ea4:	00032583          	lw	a1,0(t1)
    7ea8:	8a2e                	c.mv	s4,a1
    7eaa:	8aae                	c.mv	s5,a1
    7eac:	0841                	c.addi	a6,16
    7eae:	de8a0a7f          	wexti	s4,s4,8
    7eb2:	ac9a03ff          	sunpkd820	t2,s4
    7eb6:	407c847f          	add16	s0,s9,t2
    7eba:	ac95857f          	sunpkd820	a0,a1
    7ebe:	40ac8aff          	add16	s5,s9,a0
    7ec2:	4974177f          	kmada	a4,s0,s7
    7ec6:	49da977f          	kmada	a4,s5,t4
    7eca:	16f1                	c.addi	a3,-4
    7ecc:	ee0690e3          	bnez	a3,7dac <riscv_nn_vec_mat_mult_t_s8+0x63c>
    7ed0:	4ba2                	c.lwsp	s7,8(sp)
    7ed2:	4c32                	c.lwsp	s8,12(sp)
    7ed4:	47c2                	c.lwsp	a5,16(sp)
    7ed6:	1c812903          	lw	s2,456(sp)
    7eda:	8db2                	c.mv	s11,a2
    7edc:	002b9893          	slli	a7,s7,0x2
    7ee0:	9c46                	c.add	s8,a7
    7ee2:	9dc6                	c.add	s11,a7
    7ee4:	1b412283          	lw	t0,436(sp)
    7ee8:	1658da63          	bge	a7,t0,805c <riscv_nn_vec_mat_mult_t_s8+0x8ec>
    7eec:	41128833          	sub	a6,t0,a7
    7ef0:	00787c93          	andi	s9,a6,7
    7ef4:	010d8f33          	add	t5,s11,a6
    7ef8:	0a0c8e63          	beqz	s9,7fb4 <riscv_nn_vec_mat_mult_t_s8+0x844>
    7efc:	4605                	c.li	a2,1
    7efe:	08cc8d63          	beq	s9,a2,7f98 <riscv_nn_vec_mat_mult_t_s8+0x828>
    7f02:	4989                	c.li	s3,2
    7f04:	073c8e63          	beq	s9,s3,7f80 <riscv_nn_vec_mat_mult_t_s8+0x810>
    7f08:	430d                	c.li	t1,3
    7f0a:	046c8f63          	beq	s9,t1,7f68 <riscv_nn_vec_mat_mult_t_s8+0x7f8>
    7f0e:	4b11                	c.li	s6,4
    7f10:	056c8063          	beq	s9,s6,7f50 <riscv_nn_vec_mat_mult_t_s8+0x7e0>
    7f14:	4d15                	c.li	s10,5
    7f16:	03ac8163          	beq	s9,s10,7f38 <riscv_nn_vec_mat_mult_t_s8+0x7c8>
    7f1a:	4e19                	c.li	t3,6
    7f1c:	19cc90e3          	bne	s9,t3,889c <riscv_nn_vec_mat_mult_t_s8+0x112c>
    7f20:	000d8a03          	lb	s4,0(s11)
    7f24:	000c0583          	lb	a1,0(s8)
    7f28:	0d85                	c.addi	s11,1
    7f2a:	00fa03b3          	add	t2,s4,a5
    7f2e:	01258433          	add	s0,a1,s2
    7f32:	c474177f          	maddr32	a4,s0,t2
    7f36:	0c05                	c.addi	s8,1
    7f38:	000d8503          	lb	a0,0(s11)
    7f3c:	000c0a83          	lb	s5,0(s8)
    7f40:	0d85                	c.addi	s11,1
    7f42:	00f506b3          	add	a3,a0,a5
    7f46:	012a88b3          	add	a7,s5,s2
    7f4a:	c4d8977f          	maddr32	a4,a7,a3
    7f4e:	0c05                	c.addi	s8,1
    7f50:	000d8283          	lb	t0,0(s11)
    7f54:	000c0803          	lb	a6,0(s8)
    7f58:	0d85                	c.addi	s11,1
    7f5a:	00f28cb3          	add	s9,t0,a5
    7f5e:	01280633          	add	a2,a6,s2
    7f62:	c596177f          	maddr32	a4,a2,s9
    7f66:	0c05                	c.addi	s8,1
    7f68:	000d8983          	lb	s3,0(s11)
    7f6c:	000c0303          	lb	t1,0(s8)
    7f70:	0d85                	c.addi	s11,1
    7f72:	00f98b33          	add	s6,s3,a5
    7f76:	01230d33          	add	s10,t1,s2
    7f7a:	c56d177f          	maddr32	a4,s10,s6
    7f7e:	0c05                	c.addi	s8,1
    7f80:	000d8e03          	lb	t3,0(s11)
    7f84:	000c0483          	lb	s1,0(s8)
    7f88:	0d85                	c.addi	s11,1
    7f8a:	00fe0bb3          	add	s7,t3,a5
    7f8e:	01248fb3          	add	t6,s1,s2
    7f92:	c57f977f          	maddr32	a4,t6,s7
    7f96:	0c05                	c.addi	s8,1
    7f98:	000d8e83          	lb	t4,0(s11)
    7f9c:	000c0a03          	lb	s4,0(s8)
    7fa0:	0d85                	c.addi	s11,1
    7fa2:	00fe83b3          	add	t2,t4,a5
    7fa6:	012a05b3          	add	a1,s4,s2
    7faa:	c475977f          	maddr32	a4,a1,t2
    7fae:	0c05                	c.addi	s8,1
    7fb0:	0bed8663          	beq	s11,t5,805c <riscv_nn_vec_mat_mult_t_s8+0x8ec>
    7fb4:	000d8403          	lb	s0,0(s11)
    7fb8:	000c0a83          	lb	s5,0(s8)
    7fbc:	001d8683          	lb	a3,1(s11)
    7fc0:	001c0883          	lb	a7,1(s8)
    7fc4:	00f40533          	add	a0,s0,a5
    7fc8:	012a82b3          	add	t0,s5,s2
    7fcc:	c4a2977f          	maddr32	a4,t0,a0
    7fd0:	002d8c83          	lb	s9,2(s11)
    7fd4:	002c0803          	lb	a6,2(s8)
    7fd8:	00f68633          	add	a2,a3,a5
    7fdc:	012889b3          	add	s3,a7,s2
    7fe0:	c4c9977f          	maddr32	a4,s3,a2
    7fe4:	003d8303          	lb	t1,3(s11)
    7fe8:	003c0b03          	lb	s6,3(s8)
    7fec:	00fc8d33          	add	s10,s9,a5
    7ff0:	01280e33          	add	t3,a6,s2
    7ff4:	c5ae177f          	maddr32	a4,t3,s10
    7ff8:	004d8483          	lb	s1,4(s11)
    7ffc:	004c0b83          	lb	s7,4(s8)
    8000:	00f30fb3          	add	t6,t1,a5
    8004:	012b0eb3          	add	t4,s6,s2
    8008:	c5fe977f          	maddr32	a4,t4,t6
    800c:	005d8a03          	lb	s4,5(s11)
    8010:	005c0383          	lb	t2,5(s8)
    8014:	00f485b3          	add	a1,s1,a5
    8018:	012b8433          	add	s0,s7,s2
    801c:	c4b4177f          	maddr32	a4,s0,a1
    8020:	006d8a83          	lb	s5,6(s11)
    8024:	006c0683          	lb	a3,6(s8)
    8028:	00fa08b3          	add	a7,s4,a5
    802c:	01238533          	add	a0,t2,s2
    8030:	c515177f          	maddr32	a4,a0,a7
    8034:	007d8283          	lb	t0,7(s11)
    8038:	007c0c83          	lb	s9,7(s8)
    803c:	00fa8633          	add	a2,s5,a5
    8040:	01268833          	add	a6,a3,s2
    8044:	c4c8177f          	maddr32	a4,a6,a2
    8048:	00f289b3          	add	s3,t0,a5
    804c:	012c8333          	add	t1,s9,s2
    8050:	0da1                	c.addi	s11,8
    8052:	c533177f          	maddr32	a4,t1,s3
    8056:	0c21                	c.addi	s8,8
    8058:	f5ed9ee3          	bne	s11,t5,7fb4 <riscv_nn_vec_mat_mult_t_s8+0x844>
    805c:	1b012c03          	lw	s8,432(sp)
    8060:	00000f13          	li	t5,0
    8064:	f3ec097f          	maxw	s2,s8,t5
    8068:	01271933          	sll	s2,a4,s2
    806c:	4d92                	c.lwsp	s11,4(sp)
    806e:	1b012b03          	lw	s6,432(sp)
    8072:	40000737          	lui	a4,0x40000
    8076:	4781                	c.li	a5,0
    8078:	85b9177f          	smar64	a4,s2,s11
    807c:	41600d33          	neg	s10,s6
    8080:	f3ed0f7f          	maxw	t5,s10,t5
    8084:	4e05                	c.li	t3,1
    8086:	01ee14b3          	sll	s1,t3,t5
    808a:	dff7077f          	wexti	a4,a4,31
    808e:	fff48793          	addi	a5,s1,-1
    8092:	4017db93          	srai	s7,a5,0x1
    8096:	00072f93          	slti	t6,a4,0
    809a:	00e7feb3          	and	t4,a5,a4
    809e:	01fb8a33          	add	s4,s7,t6
    80a2:	4ae2                	c.lwsp	s5,24(sp)
    80a4:	41e753b3          	sra	t2,a4,t5
    80a8:	01da25b3          	slt	a1,s4,t4
    80ac:	1bc12883          	lw	a7,444(sp)
    80b0:	00b38433          	add	s0,t2,a1
    80b4:	1c012283          	lw	t0,448(sp)
    80b8:	008a86b3          	add	a3,s5,s0
    80bc:	09412603          	lw	a2,148(sp)
    80c0:	f316857f          	maxw	a0,a3,a7
    80c4:	f0550cff          	minw	s9,a0,t0
    80c8:	01960023          	sb	s9,0(a2) # 40000000 <_DATA_LMA_START+0x1fff64f8>
    80cc:	1ac12403          	lw	s0,428(sp)
    80d0:	1a812483          	lw	s1,424(sp)
    80d4:	1a412903          	lw	s2,420(sp)
    80d8:	1a012983          	lw	s3,416(sp)
    80dc:	19c12a03          	lw	s4,412(sp)
    80e0:	19812a83          	lw	s5,408(sp)
    80e4:	19412b03          	lw	s6,404(sp)
    80e8:	19012b83          	lw	s7,400(sp)
    80ec:	18c12c03          	lw	s8,396(sp)
    80f0:	18812c83          	lw	s9,392(sp)
    80f4:	18412d03          	lw	s10,388(sp)
    80f8:	18012d83          	lw	s11,384(sp)
    80fc:	4501                	c.li	a0,0
    80fe:	615d                	c.addi16sp	sp,432
    8100:	00008067          	ret
    8104:	0e9492ff          	pkbb16	t0,s1,s1
    8108:	1b812583          	lw	a1,440(sp)
    810c:	4505                	c.li	a0,1
    810e:	3eb55b63          	bge	a0,a1,8504 <riscv_nn_vec_mat_mult_t_s8+0xd94>
    8112:	1b012803          	lw	a6,432(sp)
    8116:	1b412a03          	lw	s4,436(sp)
    811a:	410008b3          	neg	a7,a6
    811e:	f3288f7f          	maxw	t5,a7,s2
    8122:	01e519b3          	sll	s3,a0,t5
    8126:	1b412b83          	lw	s7,436(sp)
    812a:	fff98c93          	addi	s9,s3,-1
    812e:	1c412603          	lw	a2,452(sp)
    8132:	1b012383          	lw	t2,432(sp)
    8136:	1b412883          	lw	a7,436(sp)
    813a:	ffca7a93          	andi	s5,s4,-4
    813e:	401cdb13          	srai	s6,s9,0x1
    8142:	f3238d7f          	maxw	s10,t2,s2
    8146:	402bde13          	srai	t3,s7,0x2
    814a:	001b9e93          	slli	t4,s7,0x1
    814e:	015c0433          	add	s0,s8,s5
    8152:	45da                	c.lwsp	a1,148(sp)
    8154:	001b0f93          	addi	t6,s6,1
    8158:	00161313          	slli	t1,a2,0x1
    815c:	015d84b3          	add	s1,s11,s5
    8160:	41588833          	sub	a6,a7,s5
    8164:	4701                	c.li	a4,0
    8166:	ce76                	c.swsp	t4,28(sp)
    8168:	d26a                	c.swsp	s10,36(sp)
    816a:	c172                	c.swsp	t3,128(sp)
    816c:	c962                	c.swsp	s8,144(sp)
    816e:	1d212423          	sw	s2,456(sp)
    8172:	8d36                	c.mv	s10,a3
    8174:	ded6                	c.swsp	s5,124(sp)
    8176:	c4da                	c.swsp	s6,72(sp)
    8178:	d07e                	c.swsp	t6,32(sp)
    817a:	c326                	c.swsp	s1,132(sp)
    817c:	c542                	c.swsp	a6,136(sp)
    817e:	c71a                	c.swsp	t1,140(sp)
    8180:	dce6                	c.swsp	s9,120(sp)
    8182:	c422                	c.swsp	s0,8(sp)
    8184:	dc6e                	c.swsp	s11,56(sp)
    8186:	d47a                	c.swsp	t5,40(sp)
    8188:	8562                	c.mv	a0,s8
    818a:	5e42                	c.lwsp	t3,48(sp)
    818c:	5ed2                	c.lwsp	t4,52(sp)
    818e:	8c3a                	c.mv	s8,a4
    8190:	00b00933          	add	s2,zero,a1
    8194:	320d0e63          	beqz	s10,84d0 <riscv_nn_vec_mat_mult_t_s8+0xd60>
    8198:	46f2                	c.lwsp	a3,28(sp)
    819a:	4f0a                	c.lwsp	t5,128(sp)
    819c:	00d50db3          	add	s11,a0,a3
    81a0:	d86e                	c.swsp	s11,48(sp)
    81a2:	000d2603          	lw	a2,0(s10)
    81a6:	004d2703          	lw	a4,4(s10)
    81aa:	01150833          	add	a6,a0,a7
    81ae:	0d21                	c.addi	s10,8
    81b0:	320f0c63          	beqz	t5,84e8 <riscv_nn_vec_mat_mult_t_s8+0xd78>
    81b4:	ffff0a13          	addi	s4,t5,-1
    81b8:	001f7c93          	andi	s9,t5,1
    81bc:	c0d2                	c.swsp	s4,64(sp)
    81be:	5de2                	c.lwsp	s11,56(sp)
    81c0:	89fa                	c.mv	s3,t5
    81c2:	060c8763          	beqz	s9,8230 <riscv_nn_vec_mat_mult_t_s8+0xac0>
    81c6:	000da983          	lw	s3,0(s11)
    81ca:	c8ce                	c.swsp	s3,80(sp)
    81cc:	cace                	c.swsp	s3,84(sp)
    81ce:	4b46                	c.lwsp	s6,80(sp)
    81d0:	4bd6                	c.lwsp	s7,84(sp)
    81d2:	0d91                	c.addi	s11,4
    81d4:	de8b0aff          	wexti	s5,s6,8
    81d8:	ac9a8bff          	sunpkd820	s7,s5
    81dc:	41728fff          	add16	t6,t0,s7
    81e0:	ac99837f          	sunpkd820	t1,s3
    81e4:	4062847f          	add16	s0,t0,t1
    81e8:	4104                	c.lw	s1,0(a0)
    81ea:	cca6                	c.swsp	s1,88(sp)
    81ec:	cea6                	c.swsp	s1,92(sp)
    81ee:	4a66                	c.lwsp	s4,88(sp)
    81f0:	4af6                	c.lwsp	s5,92(sp)
    81f2:	0511                	c.addi	a0,4
    81f4:	de8a03ff          	wexti	t2,s4,8
    81f8:	ac9385ff          	sunpkd820	a1,t2
    81fc:	ac9486ff          	sunpkd820	a3,s1
    8200:	49f5967f          	kmada	a2,a1,t6
    8204:	4886967f          	kmada	a2,a3,s0
    8208:	00082f03          	lw	t5,0(a6)
    820c:	d0fa                	c.swsp	t5,96(sp)
    820e:	d2fa                	c.swsp	t5,100(sp)
    8210:	5b06                	c.lwsp	s6,96(sp)
    8212:	5b96                	c.lwsp	s7,100(sp)
    8214:	0811                	c.addi	a6,4
    8216:	de8b0cff          	wexti	s9,s6,8
    821a:	ac9c89ff          	sunpkd820	s3,s9
    821e:	ac9f0aff          	sunpkd820	s5,t5
    8222:	49f9977f          	kmada	a4,s3,t6
    8226:	488a977f          	kmada	a4,s5,s0
    822a:	4986                	c.lwsp	s3,64(sp)
    822c:	0c098e63          	beqz	s3,8308 <riscv_nn_vec_mat_mult_t_s8+0xb98>
    8230:	c0ca                	c.swsp	s2,64(sp)
    8232:	d4e2                	c.swsp	s8,104(sp)
    8234:	06f12823          	sw	a5,112(sp)
    8238:	1b112a23          	sw	a7,436(sp)
    823c:	000da783          	lw	a5,0(s11)
    8240:	8b3e                	c.mv	s6,a5
    8242:	8bbe                	c.mv	s7,a5
    8244:	004d8f93          	addi	t6,s11,4
    8248:	de8b097f          	wexti	s2,s6,8
    824c:	ac990c7f          	sunpkd820	s8,s2
    8250:	41828bff          	add16	s7,t0,s8
    8254:	ac978e7f          	sunpkd820	t3,a5
    8258:	41c2847f          	add16	s0,t0,t3
    825c:	00052e83          	lw	t4,0(a0) # 40000000 <_DATA_LMA_START+0x1fff64f8>
    8260:	8376                	c.mv	t1,t4
    8262:	83f6                	c.mv	t2,t4
    8264:	00450493          	addi	s1,a0,4
    8268:	de8308ff          	wexti	a7,t1,8
    826c:	ac988a7f          	sunpkd820	s4,a7
    8270:	ac9e85ff          	sunpkd820	a1,t4
    8274:	497a167f          	kmada	a2,s4,s7
    8278:	4885967f          	kmada	a2,a1,s0
    827c:	00082683          	lw	a3,0(a6)
    8280:	8e36                	c.mv	t3,a3
    8282:	8eb6                	c.mv	t4,a3
    8284:	00480b13          	addi	s6,a6,4
    8288:	de8e0f7f          	wexti	t5,t3,8
    828c:	ac9f0cff          	sunpkd820	s9,t5
    8290:	ac968aff          	sunpkd820	s5,a3
    8294:	497c977f          	kmada	a4,s9,s7
    8298:	488a977f          	kmada	a4,s5,s0
    829c:	000fa903          	lw	s2,0(t6)
    82a0:	8f4a                	c.mv	t5,s2
    82a2:	8fca                	c.mv	t6,s2
    82a4:	0da1                	c.addi	s11,8
    82a6:	de8f07ff          	wexti	a5,t5,8
    82aa:	ac978fff          	sunpkd820	t6,a5
    82ae:	41f28c7f          	add16	s8,t0,t6
    82b2:	ac990bff          	sunpkd820	s7,s2
    82b6:	417288ff          	add16	a7,t0,s7
    82ba:	4080                	c.lw	s0,0(s1)
    82bc:	8a22                	c.mv	s4,s0
    82be:	8aa2                	c.mv	s5,s0
    82c0:	0521                	c.addi	a0,8
    82c2:	de8a04ff          	wexti	s1,s4,8
    82c6:	ac948a7f          	sunpkd820	s4,s1
    82ca:	ac9405ff          	sunpkd820	a1,s0
    82ce:	498a167f          	kmada	a2,s4,s8
    82d2:	4915967f          	kmada	a2,a1,a7
    82d6:	000b2683          	lw	a3,0(s6)
    82da:	8436                	c.mv	s0,a3
    82dc:	84b6                	c.mv	s1,a3
    82de:	0821                	c.addi	a6,8
    82e0:	de840b7f          	wexti	s6,s0,8
    82e4:	ac9b0f7f          	sunpkd820	t5,s6
    82e8:	ac968cff          	sunpkd820	s9,a3
    82ec:	498f177f          	kmada	a4,t5,s8
    82f0:	491c977f          	kmada	a4,s9,a7
    82f4:	19f9                	c.addi	s3,-2
    82f6:	f40993e3          	bnez	s3,823c <riscv_nn_vec_mat_mult_t_s8+0xacc>
    82fa:	4906                	c.lwsp	s2,64(sp)
    82fc:	5c26                	c.lwsp	s8,104(sp)
    82fe:	57c6                	c.lwsp	a5,112(sp)
    8300:	1b412883          	lw	a7,436(sp)
    8304:	c81a                	c.swsp	t1,16(sp)
    8306:	ca1e                	c.swsp	t2,20(sp)
    8308:	4522                	c.lwsp	a0,8(sp)
    830a:	469a                	c.lwsp	a3,132(sp)
    830c:	00a88833          	add	a6,a7,a0
    8310:	5df6                	c.lwsp	s11,124(sp)
    8312:	0f1ddf63          	bge	s11,a7,8410 <riscv_nn_vec_mat_mult_t_s8+0xca0>
    8316:	432a                	c.lwsp	t1,136(sp)
    8318:	00337393          	andi	t2,t1,3
    831c:	00668ab3          	add	s5,a3,t1
    8320:	06038a63          	beqz	t2,8394 <riscv_nn_vec_mat_mult_t_s8+0xc24>
    8324:	4985                	c.li	s3,1
    8326:	05338563          	beq	t2,s3,8370 <riscv_nn_vec_mat_mult_t_s8+0xc00>
    832a:	4f89                	c.li	t6,2
    832c:	03f38263          	beq	t2,t6,8350 <riscv_nn_vec_mat_mult_t_s8+0xbe0>
    8330:	00068b83          	lb	s7,0(a3)
    8334:	00050403          	lb	s0,0(a0)
    8338:	00080483          	lb	s1,0(a6)
    833c:	00fb8a33          	add	s4,s7,a5
    8340:	c544167f          	maddr32	a2,s0,s4
    8344:	c544977f          	maddr32	a4,s1,s4
    8348:	0685                	c.addi	a3,1
    834a:	0505                	c.addi	a0,1
    834c:	00180813          	addi	a6,a6,1
    8350:	00068583          	lb	a1,0(a3)
    8354:	00050b03          	lb	s6,0(a0)
    8358:	00080f03          	lb	t5,0(a6)
    835c:	00f58cb3          	add	s9,a1,a5
    8360:	c59b167f          	maddr32	a2,s6,s9
    8364:	c59f177f          	maddr32	a4,t5,s9
    8368:	0685                	c.addi	a3,1
    836a:	0505                	c.addi	a0,1
    836c:	00180813          	addi	a6,a6,1
    8370:	00068303          	lb	t1,0(a3)
    8374:	00050d83          	lb	s11,0(a0)
    8378:	00080383          	lb	t2,0(a6)
    837c:	00f309b3          	add	s3,t1,a5
    8380:	0685                	c.addi	a3,1
    8382:	c53d967f          	maddr32	a2,s11,s3
    8386:	c533977f          	maddr32	a4,t2,s3
    838a:	0505                	c.addi	a0,1
    838c:	00180813          	addi	a6,a6,1
    8390:	09568063          	beq	a3,s5,8410 <riscv_nn_vec_mat_mult_t_s8+0xca0>
    8394:	4442                	c.lwsp	s0,16(sp)
    8396:	44d2                	c.lwsp	s1,20(sp)
    8398:	c0f2                	c.swsp	t3,64(sp)
    839a:	c2f6                	c.swsp	t4,68(sp)
    839c:	00068e03          	lb	t3,0(a3)
    83a0:	00050e83          	lb	t4,0(a0)
    83a4:	00080f83          	lb	t6,0(a6)
    83a8:	00fe0a33          	add	s4,t3,a5
    83ac:	00168b83          	lb	s7,1(a3)
    83b0:	00150b03          	lb	s6,1(a0)
    83b4:	00180f03          	lb	t5,1(a6)
    83b8:	c54e967f          	maddr32	a2,t4,s4
    83bc:	c54f977f          	maddr32	a4,t6,s4
    83c0:	00268c83          	lb	s9,2(a3)
    83c4:	00fb85b3          	add	a1,s7,a5
    83c8:	00250303          	lb	t1,2(a0)
    83cc:	00280d83          	lb	s11,2(a6)
    83d0:	c4bb167f          	maddr32	a2,s6,a1
    83d4:	c4bf177f          	maddr32	a4,t5,a1
    83d8:	00368383          	lb	t2,3(a3)
    83dc:	00fc89b3          	add	s3,s9,a5
    83e0:	00350e03          	lb	t3,3(a0)
    83e4:	00380e83          	lb	t4,3(a6)
    83e8:	c533167f          	maddr32	a2,t1,s3
    83ec:	c53d977f          	maddr32	a4,s11,s3
    83f0:	00f38fb3          	add	t6,t2,a5
    83f4:	0691                	c.addi	a3,4
    83f6:	c5fe167f          	maddr32	a2,t3,t6
    83fa:	c5fe977f          	maddr32	a4,t4,t6
    83fe:	0511                	c.addi	a0,4
    8400:	0811                	c.addi	a6,4
    8402:	f9569de3          	bne	a3,s5,839c <riscv_nn_vec_mat_mult_t_s8+0xc2c>
    8406:	4e06                	c.lwsp	t3,64(sp)
    8408:	4e96                	c.lwsp	t4,68(sp)
    840a:	c822                	c.swsp	s0,16(sp)
    840c:	00912a23          	sw	s1,20(sp)
    8410:	5512                	c.lwsp	a0,36(sp)
    8412:	4812                	c.lwsp	a6,4(sp)
    8414:	00a61633          	sll	a2,a2,a0
    8418:	4581                	c.li	a1,0
    841a:	40000537          	lui	a0,0x40000
    841e:	8506157f          	smar64	a0,a2,a6
    8422:	54e6                	c.lwsp	s1,120(sp)
    8424:	56a2                	c.lwsp	a3,40(sp)
    8426:	dff50aff          	wexti	s5,a0,31
    842a:	5a02                	c.lwsp	s4,32(sp)
    842c:	0154f433          	and	s0,s1,s5
    8430:	40dadbb3          	sra	s7,s5,a3
    8434:	000ac463          	bltz	s5,843c <riscv_nn_vec_mat_mult_t_s8+0xccc>
    8438:	04812a03          	lw	s4,72(sp)
    843c:	5b12                	c.lwsp	s6,36(sp)
    843e:	4f12                	c.lwsp	t5,4(sp)
    8440:	01671733          	sll	a4,a4,s6
    8444:	40000637          	lui	a2,0x40000
    8448:	4681                	c.li	a3,0
    844a:	85e7167f          	smar64	a2,a4,t5
    844e:	5de6                	c.lwsp	s11,120(sp)
    8450:	59a2                	c.lwsp	s3,40(sp)
    8452:	dff6037f          	wexti	t1,a2,31
    8456:	008a2cb3          	slt	s9,s4,s0
    845a:	5502                	c.lwsp	a0,32(sp)
    845c:	019b85b3          	add	a1,s7,s9
    8460:	006df3b3          	and	t2,s11,t1
    8464:	41335fb3          	sra	t6,t1,s3
    8468:	00034463          	bltz	t1,8470 <riscv_nn_vec_mat_mult_t_s8+0xd00>
    846c:	04812503          	lw	a0,72(sp)
    8470:	4ae2                	c.lwsp	s5,24(sp)
    8472:	1bc12683          	lw	a3,444(sp)
    8476:	00ba84b3          	add	s1,s5,a1
    847a:	1c012b03          	lw	s6,448(sp)
    847e:	00752633          	slt	a2,a0,t2
    8482:	1c412f03          	lw	t5,452(sp)
    8486:	f2968bff          	maxw	s7,a3,s1
    848a:	00cf8833          	add	a6,t6,a2
    848e:	f17b077f          	minw	a4,s6,s7
    8492:	01e90cb3          	add	s9,s2,t5
    8496:	4da2                	c.lwsp	s11,8(sp)
    8498:	00e90023          	sb	a4,0(s2)
    849c:	43f2                	c.lwsp	t2,28(sp)
    849e:	1c012903          	lw	s2,448(sp)
    84a2:	010a8433          	add	s0,s5,a6
    84a6:	f2868a7f          	maxw	s4,a3,s0
    84aa:	f14905ff          	minw	a1,s2,s4
    84ae:	1c412303          	lw	t1,452(sp)
    84b2:	007d89b3          	add	s3,s11,t2
    84b6:	4fb2                	c.lwsp	t6,12(sp)
    84b8:	0c05                	c.addi	s8,1
    84ba:	00bc8023          	sb	a1,0(s9)
    84be:	c44e                	c.swsp	s3,8(sp)
    84c0:	006c8933          	add	s2,s9,t1
    84c4:	03fc5463          	bge	s8,t6,84ec <riscv_nn_vec_mat_mult_t_s8+0xd7c>
    84c8:	03012503          	lw	a0,48(sp)
    84cc:	cc0d16e3          	bnez	s10,8198 <riscv_nn_vec_mat_mult_t_s8+0xa28>
    84d0:	46f2                	c.lwsp	a3,28(sp)
    84d2:	4f0a                	c.lwsp	t5,128(sp)
    84d4:	00d50db3          	add	s11,a0,a3
    84d8:	d86e                	c.swsp	s11,48(sp)
    84da:	4701                	c.li	a4,0
    84dc:	00000613          	li	a2,0
    84e0:	01150833          	add	a6,a0,a7
    84e4:	cc0f18e3          	bnez	t5,81b4 <riscv_nn_vec_mat_mult_t_s8+0xa44>
    84e8:	56e2                	c.lwsp	a3,56(sp)
    84ea:	b51d                	c.j	8310 <riscv_nn_vec_mat_mult_t_s8+0xba0>
    84ec:	4eba                	c.lwsp	t4,140(sp)
    84ee:	4c4a                	c.lwsp	s8,144(sp)
    84f0:	86ea                	c.mv	a3,s10
    84f2:	4d5a                	c.lwsp	s10,148(sp)
    84f4:	5de2                	c.lwsp	s11,56(sp)
    84f6:	1c812903          	lw	s2,456(sp)
    84fa:	c5fe9d7f          	maddr32	s10,t4,t6
    84fe:	c5f39c7f          	maddr32	s8,t2,t6
    8502:	cb6a                	c.swsp	s10,148(sp)
    8504:	1b812503          	lw	a0,440(sp)
    8508:	00157613          	andi	a2,a0,1
    850c:	bc0600e3          	beqz	a2,80cc <riscv_nn_vec_mat_mult_t_s8+0x95c>
    8510:	00068463          	beqz	a3,8518 <riscv_nn_vec_mat_mult_t_s8+0xda8>
    8514:	0006a903          	lw	s2,0(a3)
    8518:	1b412803          	lw	a6,436(sp)
    851c:	4601                	c.li	a2,0
    851e:	40285a93          	srai	s5,a6,0x2
    8522:	220a8363          	beqz	s5,8748 <riscv_nn_vec_mat_mult_t_s8+0xfd8>
    8526:	003af493          	andi	s1,s5,3
    852a:	8662                	c.mv	a2,s8
    852c:	85ee                	c.mv	a1,s11
    852e:	8356                	c.mv	t1,s5
    8530:	fffa8b93          	addi	s7,s5,-1
    8534:	cce5                	c.beqz	s1,862c <riscv_nn_vec_mat_mult_t_s8+0xebc>
    8536:	4405                	c.li	s0,1
    8538:	0a848463          	beq	s1,s0,85e0 <riscv_nn_vec_mat_mult_t_s8+0xe70>
    853c:	4689                	c.li	a3,2
    853e:	04d48f63          	beq	s1,a3,859c <riscv_nn_vec_mat_mult_t_s8+0xe2c>
    8542:	000daa03          	lw	s4,0(s11)
    8546:	17412823          	sw	s4,368(sp)
    854a:	17412a23          	sw	s4,372(sp)
    854e:	17012f03          	lw	t5,368(sp)
    8552:	17412f83          	lw	t6,372(sp)
    8556:	004d8593          	addi	a1,s11,4
    855a:	de8f0b7f          	wexti	s6,t5,8
    855e:	ac9b077f          	sunpkd820	a4,s6
    8562:	40e28cff          	add16	s9,t0,a4
    8566:	ac9a037f          	sunpkd820	t1,s4
    856a:	406283ff          	add16	t2,t0,t1
    856e:	000c2983          	lw	s3,0(s8)
    8572:	17312c23          	sw	s3,376(sp)
    8576:	17312e23          	sw	s3,380(sp)
    857a:	17812e03          	lw	t3,376(sp)
    857e:	17c12e83          	lw	t4,380(sp)
    8582:	004c0613          	addi	a2,s8,4
    8586:	de8e0fff          	wexti	t6,t3,8
    858a:	ac9f88ff          	sunpkd820	a7,t6
    858e:	ac998eff          	sunpkd820	t4,s3
    8592:	4998997f          	kmada	s2,a7,s9
    8596:	487e997f          	kmada	s2,t4,t2
    859a:	835e                	c.mv	t1,s7
    859c:	0005ad03          	lw	s10,0(a1)
    85a0:	cdea                	c.swsp	s10,216(sp)
    85a2:	cfea                	c.swsp	s10,220(sp)
    85a4:	486e                	c.lwsp	a6,216(sp)
    85a6:	48fe                	c.lwsp	a7,220(sp)
    85a8:	0591                	c.addi	a1,4
    85aa:	de88057f          	wexti	a0,a6,8
    85ae:	ac9504ff          	sunpkd820	s1,a0
    85b2:	40928bff          	add16	s7,t0,s1
    85b6:	ac9d047f          	sunpkd820	s0,s10
    85ba:	40828a7f          	add16	s4,t0,s0
    85be:	4214                	c.lw	a3,0(a2)
    85c0:	d1b6                	c.swsp	a3,224(sp)
    85c2:	d3b6                	c.swsp	a3,228(sp)
    85c4:	5f0e                	c.lwsp	t5,224(sp)
    85c6:	5f9e                	c.lwsp	t6,228(sp)
    85c8:	0611                	c.addi	a2,4
    85ca:	de8f0b7f          	wexti	s6,t5,8
    85ce:	ac9b077f          	sunpkd820	a4,s6
    85d2:	ac968cff          	sunpkd820	s9,a3
    85d6:	4977197f          	kmada	s2,a4,s7
    85da:	494c997f          	kmada	s2,s9,s4
    85de:	137d                	c.addi	t1,-1
    85e0:	0005a383          	lw	t2,0(a1)
    85e4:	d51e                	c.swsp	t2,168(sp)
    85e6:	d71e                	c.swsp	t2,172(sp)
    85e8:	5e2a                	c.lwsp	t3,168(sp)
    85ea:	5eba                	c.lwsp	t4,172(sp)
    85ec:	0591                	c.addi	a1,4
    85ee:	de8e09ff          	wexti	s3,t3,8
    85f2:	ac998fff          	sunpkd820	t6,s3
    85f6:	41f28eff          	add16	t4,t0,t6
    85fa:	ac9388ff          	sunpkd820	a7,t2
    85fe:	41128d7f          	add16	s10,t0,a7
    8602:	00062803          	lw	a6,0(a2) # 40000000 <_DATA_LMA_START+0x1fff64f8>
    8606:	c1c2                	c.swsp	a6,192(sp)
    8608:	c3c2                	c.swsp	a6,196(sp)
    860a:	440e                	c.lwsp	s0,192(sp)
    860c:	449e                	c.lwsp	s1,196(sp)
    860e:	0611                	c.addi	a2,4
    8610:	de84057f          	wexti	a0,s0,8
    8614:	ac9504ff          	sunpkd820	s1,a0
    8618:	ac980bff          	sunpkd820	s7,a6
    861c:	49d4997f          	kmada	s2,s1,t4
    8620:	49ab997f          	kmada	s2,s7,s10
    8624:	fff30313          	addi	t1,t1,-1
    8628:	10030c63          	beqz	t1,8740 <riscv_nn_vec_mat_mult_t_s8+0xfd0>
    862c:	8cae                	c.mv	s9,a1
    862e:	c456                	c.swsp	s5,8(sp)
    8630:	c66e                	c.swsp	s11,12(sp)
    8632:	c862                	c.swsp	s8,16(sp)
    8634:	00f12e23          	sw	a5,28(sp)
    8638:	000cac03          	lw	s8,0(s9)
    863c:	8762                	c.mv	a4,s8
    863e:	87e2                	c.mv	a5,s8
    8640:	004c8a93          	addi	s5,s9,4
    8644:	de8707ff          	wexti	a5,a4,8
    8648:	ac978dff          	sunpkd820	s11,a5
    864c:	41b28a7f          	add16	s4,t0,s11
    8650:	ac9c06ff          	sunpkd820	a3,s8
    8654:	40d28f7f          	add16	t5,t0,a3
    8658:	00062b03          	lw	s6,0(a2)
    865c:	855a                	c.mv	a0,s6
    865e:	85da                	c.mv	a1,s6
    8660:	00460713          	addi	a4,a2,4
    8664:	de8503ff          	wexti	t2,a0,8
    8668:	ac9385ff          	sunpkd820	a1,t2
    866c:	ac9b0e7f          	sunpkd820	t3,s6
    8670:	4945997f          	kmada	s2,a1,s4
    8674:	49ee197f          	kmada	s2,t3,t5
    8678:	000aa983          	lw	s3,0(s5)
    867c:	884e                	c.mv	a6,s3
    867e:	88ce                	c.mv	a7,s3
    8680:	008c8f93          	addi	t6,s9,8
    8684:	de880eff          	wexti	t4,a6,8
    8688:	ac9e88ff          	sunpkd820	a7,t4
    868c:	41128d7f          	add16	s10,t0,a7
    8690:	ac99887f          	sunpkd820	a6,s3
    8694:	4102847f          	add16	s0,t0,a6
    8698:	4308                	c.lw	a0,0(a4)
    869a:	8e2a                	c.mv	t3,a0
    869c:	8eaa                	c.mv	t4,a0
    869e:	00860493          	addi	s1,a2,8
    86a2:	de8e0bff          	wexti	s7,t3,8
    86a6:	ac9b8aff          	sunpkd820	s5,s7
    86aa:	ac950c7f          	sunpkd820	s8,a0
    86ae:	49aa997f          	kmada	s2,s5,s10
    86b2:	488c197f          	kmada	s2,s8,s0
    86b6:	000fa783          	lw	a5,0(t6)
    86ba:	8f3e                	c.mv	t5,a5
    86bc:	8fbe                	c.mv	t6,a5
    86be:	00cc8a13          	addi	s4,s9,12
    86c2:	de8f0dff          	wexti	s11,t5,8
    86c6:	ac9d86ff          	sunpkd820	a3,s11
    86ca:	40d28f7f          	add16	t5,t0,a3
    86ce:	ac978b7f          	sunpkd820	s6,a5
    86d2:	4162877f          	add16	a4,t0,s6
    86d6:	0004a383          	lw	t2,0(s1)
    86da:	841e                	c.mv	s0,t2
    86dc:	849e                	c.mv	s1,t2
    86de:	00c60593          	addi	a1,a2,12
    86e2:	de840e7f          	wexti	t3,s0,8
    86e6:	ac9e09ff          	sunpkd820	s3,t3
    86ea:	ac938fff          	sunpkd820	t6,t2
    86ee:	49e9997f          	kmada	s2,s3,t5
    86f2:	48ef997f          	kmada	s2,t6,a4
    86f6:	000a2e83          	lw	t4,0(s4)
    86fa:	8a76                	c.mv	s4,t4
    86fc:	8af6                	c.mv	s5,t4
    86fe:	0cc1                	c.addi	s9,16
    8700:	de8a08ff          	wexti	a7,s4,8
    8704:	ac988d7f          	sunpkd820	s10,a7
    8708:	41a2887f          	add16	a6,t0,s10
    870c:	ac9e847f          	sunpkd820	s0,t4
    8710:	4082857f          	add16	a0,t0,s0
    8714:	4184                	c.lw	s1,0(a1)
    8716:	8b26                	c.mv	s6,s1
    8718:	8ba6                	c.mv	s7,s1
    871a:	0641                	c.addi	a2,16
    871c:	de8b0bff          	wexti	s7,s6,8
    8720:	ac9b8aff          	sunpkd820	s5,s7
    8724:	ac948c7f          	sunpkd820	s8,s1
    8728:	490a997f          	kmada	s2,s5,a6
    872c:	48ac197f          	kmada	s2,s8,a0
    8730:	1371                	c.addi	t1,-4
    8732:	f00313e3          	bnez	t1,8638 <riscv_nn_vec_mat_mult_t_s8+0xec8>
    8736:	4aa2                	c.lwsp	s5,8(sp)
    8738:	4db2                	c.lwsp	s11,12(sp)
    873a:	4c42                	c.lwsp	s8,16(sp)
    873c:	01c12783          	lw	a5,28(sp)
    8740:	002a9613          	slli	a2,s5,0x2
    8744:	9c32                	c.add	s8,a2
    8746:	9db2                	c.add	s11,a2
    8748:	1b412283          	lw	t0,436(sp)
    874c:	12565e63          	bge	a2,t0,8888 <riscv_nn_vec_mat_mult_t_s8+0x1118>
    8750:	40c28333          	sub	t1,t0,a2
    8754:	00737a13          	andi	s4,t1,7
    8758:	006d8f33          	add	t5,s11,t1
    875c:	0a0a0263          	beqz	s4,8800 <riscv_nn_vec_mat_mult_t_s8+0x1090>
    8760:	4685                	c.li	a3,1
    8762:	08da0363          	beq	s4,a3,87e8 <riscv_nn_vec_mat_mult_t_s8+0x1078>
    8766:	4b09                	c.li	s6,2
    8768:	076a0663          	beq	s4,s6,87d4 <riscv_nn_vec_mat_mult_t_s8+0x1064>
    876c:	470d                	c.li	a4,3
    876e:	04ea0963          	beq	s4,a4,87c0 <riscv_nn_vec_mat_mult_t_s8+0x1050>
    8772:	4391                	c.li	t2,4
    8774:	027a0c63          	beq	s4,t2,87ac <riscv_nn_vec_mat_mult_t_s8+0x103c>
    8778:	4595                	c.li	a1,5
    877a:	00ba0f63          	beq	s4,a1,8798 <riscv_nn_vec_mat_mult_t_s8+0x1028>
    877e:	4e19                	c.li	t3,6
    8780:	13ca1c63          	bne	s4,t3,88b8 <riscv_nn_vec_mat_mult_t_s8+0x1148>
    8784:	000d8c83          	lb	s9,0(s11)
    8788:	000c0883          	lb	a7,0(s8)
    878c:	0d85                	c.addi	s11,1
    878e:	00fc8d33          	add	s10,s9,a5
    8792:	c5a8997f          	maddr32	s2,a7,s10
    8796:	0c05                	c.addi	s8,1
    8798:	000d8803          	lb	a6,0(s11)
    879c:	000c0403          	lb	s0,0(s8)
    87a0:	0d85                	c.addi	s11,1
    87a2:	00f80533          	add	a0,a6,a5
    87a6:	c4a4197f          	maddr32	s2,s0,a0
    87aa:	0c05                	c.addi	s8,1
    87ac:	000d8483          	lb	s1,0(s11)
    87b0:	000c0b83          	lb	s7,0(s8)
    87b4:	0d85                	c.addi	s11,1
    87b6:	00f48ab3          	add	s5,s1,a5
    87ba:	c55b997f          	maddr32	s2,s7,s5
    87be:	0c05                	c.addi	s8,1
    87c0:	000d8283          	lb	t0,0(s11)
    87c4:	000c0603          	lb	a2,0(s8)
    87c8:	0d85                	c.addi	s11,1
    87ca:	00f28333          	add	t1,t0,a5
    87ce:	c466197f          	maddr32	s2,a2,t1
    87d2:	0c05                	c.addi	s8,1
    87d4:	000d8a03          	lb	s4,0(s11)
    87d8:	000c0b03          	lb	s6,0(s8)
    87dc:	0d85                	c.addi	s11,1
    87de:	00fa06b3          	add	a3,s4,a5
    87e2:	c4db197f          	maddr32	s2,s6,a3
    87e6:	0c05                	c.addi	s8,1
    87e8:	000d8703          	lb	a4,0(s11)
    87ec:	000c0383          	lb	t2,0(s8)
    87f0:	0d85                	c.addi	s11,1
    87f2:	00f705b3          	add	a1,a4,a5
    87f6:	c4b3997f          	maddr32	s2,t2,a1
    87fa:	0c05                	c.addi	s8,1
    87fc:	09ed8663          	beq	s11,t5,8888 <riscv_nn_vec_mat_mult_t_s8+0x1118>
    8800:	000d8e03          	lb	t3,0(s11)
    8804:	000c0983          	lb	s3,0(s8)
    8808:	001d8f83          	lb	t6,1(s11)
    880c:	00fe0eb3          	add	t4,t3,a5
    8810:	001c0c83          	lb	s9,1(s8)
    8814:	c5d9997f          	maddr32	s2,s3,t4
    8818:	002d8883          	lb	a7,2(s11)
    881c:	00ff8d33          	add	s10,t6,a5
    8820:	002c0803          	lb	a6,2(s8)
    8824:	c5ac997f          	maddr32	s2,s9,s10
    8828:	003d8403          	lb	s0,3(s11)
    882c:	00f88533          	add	a0,a7,a5
    8830:	003c0483          	lb	s1,3(s8)
    8834:	c4a8197f          	maddr32	s2,a6,a0
    8838:	004d8b83          	lb	s7,4(s11)
    883c:	00f40ab3          	add	s5,s0,a5
    8840:	004c0283          	lb	t0,4(s8)
    8844:	c554997f          	maddr32	s2,s1,s5
    8848:	005d8303          	lb	t1,5(s11)
    884c:	00fb8633          	add	a2,s7,a5
    8850:	005c0a03          	lb	s4,5(s8)
    8854:	c4c2997f          	maddr32	s2,t0,a2
    8858:	006d8b03          	lb	s6,6(s11)
    885c:	00f306b3          	add	a3,t1,a5
    8860:	006c0703          	lb	a4,6(s8)
    8864:	c4da197f          	maddr32	s2,s4,a3
    8868:	007d8383          	lb	t2,7(s11)
    886c:	00fb05b3          	add	a1,s6,a5
    8870:	007c0e03          	lb	t3,7(s8)
    8874:	c4b7197f          	maddr32	s2,a4,a1
    8878:	00f389b3          	add	s3,t2,a5
    887c:	0da1                	c.addi	s11,8
    887e:	c53e197f          	maddr32	s2,t3,s3
    8882:	0c21                	c.addi	s8,8
    8884:	f7ed9ee3          	bne	s11,t5,8800 <riscv_nn_vec_mat_mult_t_s8+0x1090>
    8888:	1b012783          	lw	a5,432(sp)
    888c:	00000f13          	li	t5,0
    8890:	f3e78dff          	maxw	s11,a5,t5
    8894:	01b91933          	sll	s2,s2,s11
    8898:	fd4ff06f          	j	806c <riscv_nn_vec_mat_mult_t_s8+0x8fc>
    889c:	000d8483          	lb	s1,0(s11)
    88a0:	000c0b83          	lb	s7,0(s8)
    88a4:	0d85                	c.addi	s11,1
    88a6:	00f48fb3          	add	t6,s1,a5
    88aa:	012b8eb3          	add	t4,s7,s2
    88ae:	c5fe977f          	maddr32	a4,t4,t6
    88b2:	0c05                	c.addi	s8,1
    88b4:	e6cff06f          	j	7f20 <riscv_nn_vec_mat_mult_t_s8+0x7b0>
    88b8:	000d8983          	lb	s3,0(s11)
    88bc:	000c0f83          	lb	t6,0(s8)
    88c0:	0d85                	c.addi	s11,1
    88c2:	00f98eb3          	add	t4,s3,a5
    88c6:	c5df997f          	maddr32	s2,t6,t4
    88ca:	0c05                	c.addi	s8,1
    88cc:	bd65                	c.j	8784 <riscv_nn_vec_mat_mult_t_s8+0x1014>
	...

000088d0 <riscv_q7_to_q15_with_offset>:
    88d0:	40265f13          	srai	t5,a2,0x2
    88d4:	0ed698ff          	pkbb16	a7,a3,a3
    88d8:	07e05e63          	blez	t5,8954 <riscv_q7_to_q15_with_offset+0x84>
    88dc:	002f1e93          	slli	t4,t5,0x2
    88e0:	9eaa                	c.add	t4,a0
    88e2:	882e                	c.mv	a6,a1
    88e4:	4118                	c.lw	a4,0(a0)
    88e6:	833a                	c.mv	t1,a4
    88e8:	83ba                	c.mv	t2,a4
    88ea:	0511                	c.addi	a0,4
    88ec:	de8307ff          	wexti	a5,t1,8
    88f0:	ac9787ff          	sunpkd820	a5,a5
    88f4:	40f887ff          	add16	a5,a7,a5
    88f8:	ac97077f          	sunpkd820	a4,a4
    88fc:	40e8877f          	add16	a4,a7,a4
    8900:	2ee79e7f          	pktt16	t3,a5,a4
    8904:	0ee797ff          	pkbb16	a5,a5,a4
    8908:	00f82023          	sw	a5,0(a6)
    890c:	01c82223          	sw	t3,4(a6)
    8910:	0821                	c.addi	a6,8
    8912:	fdd519e3          	bne	a0,t4,88e4 <riscv_q7_to_q15_with_offset+0x14>
    8916:	0f0e                	c.slli	t5,0x3
    8918:	01e585b3          	add	a1,a1,t5
    891c:	8a0d                	c.andi	a2,3
    891e:	ca0d                	c.beqz	a2,8950 <riscv_q7_to_q15_with_offset+0x80>
    8920:	000e8783          	lb	a5,0(t4)
    8924:	06c2                	c.slli	a3,0x10
    8926:	82c1                	c.srli	a3,0x10
    8928:	97b6                	c.add	a5,a3
    892a:	4705                	c.li	a4,1
    892c:	00f59023          	sh	a5,0(a1)
    8930:	02e60063          	beq	a2,a4,8950 <riscv_q7_to_q15_with_offset+0x80>
    8934:	001e8783          	lb	a5,1(t4)
    8938:	4709                	c.li	a4,2
    893a:	97b6                	c.add	a5,a3
    893c:	00f59123          	sh	a5,2(a1)
    8940:	00e60863          	beq	a2,a4,8950 <riscv_q7_to_q15_with_offset+0x80>
    8944:	002e8783          	lb	a5,2(t4)
    8948:	00f686b3          	add	a3,a3,a5
    894c:	00d59223          	sh	a3,4(a1)
    8950:	00008067          	ret
    8954:	8eaa                	c.mv	t4,a0
    8956:	b7d9                	c.j	891c <riscv_q7_to_q15_with_offset+0x4c>

00008958 <memcpy>:
    8958:	00a5c7b3          	xor	a5,a1,a0
    895c:	8b8d                	c.andi	a5,3
    895e:	00c508b3          	add	a7,a0,a2
    8962:	ebb9                	c.bnez	a5,89b8 <memcpy+0x60>
    8964:	478d                	c.li	a5,3
    8966:	04c7f963          	bgeu	a5,a2,89b8 <memcpy+0x60>
    896a:	00357713          	andi	a4,a0,3
    896e:	87aa                	c.mv	a5,a0
    8970:	06071263          	bnez	a4,89d4 <memcpy+0x7c>
    8974:	ffc8f813          	andi	a6,a7,-4
    8978:	40f806b3          	sub	a3,a6,a5
    897c:	02000713          	li	a4,32
    8980:	02000393          	li	t2,32
    8984:	06d74c63          	blt	a4,a3,89fc <memcpy+0xa4>
    8988:	0307f463          	bgeu	a5,a6,89b0 <memcpy+0x58>
    898c:	86ae                	c.mv	a3,a1
    898e:	873e                	c.mv	a4,a5
    8990:	4290                	c.lw	a2,0(a3)
    8992:	0711                	c.addi	a4,4
    8994:	fec72e23          	sw	a2,-4(a4) # 3ffffffc <_DATA_LMA_START+0x1fff64f4>
    8998:	0691                	c.addi	a3,4
    899a:	ff076be3          	bltu	a4,a6,8990 <memcpy+0x38>
    899e:	fff7c713          	not	a4,a5
    89a2:	983a                	c.add	a6,a4
    89a4:	ffc87813          	andi	a6,a6,-4
    89a8:	0811                	c.addi	a6,4
    89aa:	97c2                	c.add	a5,a6
    89ac:	010585b3          	add	a1,a1,a6
    89b0:	0117e863          	bltu	a5,a7,89c0 <memcpy+0x68>
    89b4:	00008067          	ret
    89b8:	ff157ee3          	bgeu	a0,a7,89b4 <memcpy+0x5c>
    89bc:	00a007b3          	add	a5,zero,a0
    89c0:	0005c703          	lbu	a4,0(a1)
    89c4:	0785                	c.addi	a5,1
    89c6:	fee78fa3          	sb	a4,-1(a5)
    89ca:	0585                	c.addi	a1,1
    89cc:	ff17eae3          	bltu	a5,a7,89c0 <memcpy+0x68>
    89d0:	00008067          	ret
    89d4:	0005c703          	lbu	a4,0(a1)
    89d8:	0785                	c.addi	a5,1
    89da:	fee78fa3          	sb	a4,-1(a5)
    89de:	0037f713          	andi	a4,a5,3
    89e2:	0585                	c.addi	a1,1
    89e4:	db41                	c.beqz	a4,8974 <memcpy+0x1c>
    89e6:	0005c703          	lbu	a4,0(a1)
    89ea:	0785                	c.addi	a5,1
    89ec:	fee78fa3          	sb	a4,-1(a5)
    89f0:	0037f713          	andi	a4,a5,3
    89f4:	0585                	c.addi	a1,1
    89f6:	ff79                	c.bnez	a4,89d4 <memcpy+0x7c>
    89f8:	f7dff06f          	j	8974 <memcpy+0x1c>
    89fc:	4dd8                	c.lw	a4,28(a1)
    89fe:	0005a283          	lw	t0,0(a1)
    8a02:	0045af83          	lw	t6,4(a1)
    8a06:	0085af03          	lw	t5,8(a1)
    8a0a:	00c5ae83          	lw	t4,12(a1)
    8a0e:	0105ae03          	lw	t3,16(a1)
    8a12:	0145a303          	lw	t1,20(a1)
    8a16:	4d90                	c.lw	a2,24(a1)
    8a18:	02458593          	addi	a1,a1,36
    8a1c:	ffc5a683          	lw	a3,-4(a1)
    8a20:	02478793          	addi	a5,a5,36
    8a24:	fee7ac23          	sw	a4,-8(a5)
    8a28:	fc57ae23          	sw	t0,-36(a5)
    8a2c:	fff7a023          	sw	t6,-32(a5)
    8a30:	ffe7a223          	sw	t5,-28(a5)
    8a34:	ffd7a423          	sw	t4,-24(a5)
    8a38:	ffc7a623          	sw	t3,-20(a5)
    8a3c:	fe67a823          	sw	t1,-16(a5)
    8a40:	fec7aa23          	sw	a2,-12(a5)
    8a44:	40f80733          	sub	a4,a6,a5
    8a48:	fed7ae23          	sw	a3,-4(a5)
    8a4c:	fae3c8e3          	blt	t2,a4,89fc <memcpy+0xa4>
    8a50:	bf25                	c.j	8988 <memcpy+0x30>

00008a52 <memset>:
    8a52:	433d                	c.li	t1,15
    8a54:	872a                	c.mv	a4,a0
    8a56:	02c37363          	bgeu	t1,a2,8a7c <memset+0x2a>
    8a5a:	00f77793          	andi	a5,a4,15
    8a5e:	e3c1                	c.bnez	a5,8ade <memset+0x8c>
    8a60:	e5b5                	c.bnez	a1,8acc <memset+0x7a>
    8a62:	ff067693          	andi	a3,a2,-16
    8a66:	8a3d                	c.andi	a2,15
    8a68:	96ba                	c.add	a3,a4
    8a6a:	c30c                	c.sw	a1,0(a4)
    8a6c:	c34c                	c.sw	a1,4(a4)
    8a6e:	c70c                	c.sw	a1,8(a4)
    8a70:	c74c                	c.sw	a1,12(a4)
    8a72:	0741                	c.addi	a4,16
    8a74:	fed76be3          	bltu	a4,a3,8a6a <memset+0x18>
    8a78:	e211                	c.bnez	a2,8a7c <memset+0x2a>
    8a7a:	8082                	c.jr	ra
    8a7c:	40c306b3          	sub	a3,t1,a2
    8a80:	068a                	c.slli	a3,0x2
    8a82:	00000297          	auipc	t0,0x0
    8a86:	005686b3          	add	a3,a3,t0
    8a8a:	00c68067          	jr	12(a3)
    8a8e:	00b70723          	sb	a1,14(a4)
    8a92:	00b706a3          	sb	a1,13(a4)
    8a96:	00b70623          	sb	a1,12(a4)
    8a9a:	00b705a3          	sb	a1,11(a4)
    8a9e:	00b70523          	sb	a1,10(a4)
    8aa2:	00b704a3          	sb	a1,9(a4)
    8aa6:	00b70423          	sb	a1,8(a4)
    8aaa:	00b703a3          	sb	a1,7(a4)
    8aae:	00b70323          	sb	a1,6(a4)
    8ab2:	00b702a3          	sb	a1,5(a4)
    8ab6:	00b70223          	sb	a1,4(a4)
    8aba:	00b701a3          	sb	a1,3(a4)
    8abe:	00b70123          	sb	a1,2(a4)
    8ac2:	00b700a3          	sb	a1,1(a4)
    8ac6:	00b70023          	sb	a1,0(a4)
    8aca:	8082                	c.jr	ra
    8acc:	0ff5f593          	andi	a1,a1,255
    8ad0:	00859693          	slli	a3,a1,0x8
    8ad4:	8dd5                	c.or	a1,a3
    8ad6:	01059693          	slli	a3,a1,0x10
    8ada:	8dd5                	c.or	a1,a3
    8adc:	b759                	c.j	8a62 <memset+0x10>
    8ade:	00279693          	slli	a3,a5,0x2
    8ae2:	00000297          	auipc	t0,0x0
    8ae6:	9696                	c.add	a3,t0
    8ae8:	8286                	c.mv	t0,ra
    8aea:	fa8680e7          	jalr	-88(a3)
    8aee:	8096                	c.mv	ra,t0
    8af0:	17c1                	c.addi	a5,-16
    8af2:	8f1d                	c.sub	a4,a5
    8af4:	963e                	c.add	a2,a5
    8af6:	f8c373e3          	bgeu	t1,a2,8a7c <memset+0x2a>
    8afa:	b79d                	c.j	8a60 <memset+0xe>

00008afc <rand>:
    8afc:	c61f968b          	addigp	a3,-928 # 80460 <__mculib_REENT_rand_next>
    8b00:	429c                	c.lw	a5,0(a3)
    8b02:	5851f737          	lui	a4,0x5851f
    8b06:	42d70713          	addi	a4,a4,1069 # 5851f42d <_DATA_LMA_START+0x38515925>
    8b0a:	02e78733          	mul	a4,a5,a4
    8b0e:	42d0                	c.lw	a2,4(a3)
    8b10:	4c958537          	lui	a0,0x4c958
    8b14:	f2d50513          	addi	a0,a0,-211 # 4c957f2d <_DATA_LMA_START+0x2c94e425>
    8b18:	c4a6177f          	maddr32	a4,a2,a0
    8b1c:	f0a7957f          	mulr64	a0,a5,a0
    8b20:	00b707b3          	add	a5,a4,a1
    8b24:	00150713          	addi	a4,a0,1
    8b28:	00a73533          	sltu	a0,a4,a0
    8b2c:	953e                	c.add	a0,a5
    8b2e:	c2c8                	c.sw	a0,4(a3)
    8b30:	c298                	c.sw	a4,0(a3)
    8b32:	7805255b          	bfoz	a0,a0,30,0
    8b36:	8082                	c.jr	ra

00008b38 <malloc>:
    8b38:	555002ef          	jal	t0,988c <__riscv_save_0>
    8b3c:	85aa                	c.mv	a1,a0
    8b3e:	c6bfa52b          	lwgp	a0,-920 # 80468 <_impure_ptr>
    8b42:	205d                	c.jal	8be8 <_malloc_r>
    8b44:	56d0006f          	j	98b0 <__riscv_restore_0>

00008b48 <free>:
    8b48:	545002ef          	jal	t0,988c <__riscv_save_0>
    8b4c:	85aa                	c.mv	a1,a0
    8b4e:	c6bfa52b          	lwgp	a0,-920 # 80468 <_impure_ptr>
    8b52:	2019                	c.jal	8b58 <_free_r>
    8b54:	55d0006f          	j	98b0 <__riscv_restore_0>

00008b58 <_free_r>:
    8b58:	c5b5                	c.beqz	a1,8bc4 <_free_r+0x6c>
    8b5a:	ffc5a703          	lw	a4,-4(a1)
    8b5e:	ffc58793          	addi	a5,a1,-4
    8b62:	00075363          	bgez	a4,8b68 <_free_r+0x10>
    8b66:	97ba                	c.add	a5,a4
    8b68:	c8ffa72b          	lwgp	a4,-884 # 8048c <__malloc_free_list>
    8b6c:	85b6                	c.mv	a1,a3
    8b6e:	e711                	c.bnez	a4,8b7a <_free_r+0x22>
    8b70:	0007a223          	sw	zero,4(a5)
    8b74:	c8ffc7ab          	swgp	a5,-884 # 8048c <__malloc_free_list>
    8b78:	8082                	c.jr	ra
    8b7a:	02e7f063          	bgeu	a5,a4,8b9a <_free_r+0x42>
    8b7e:	4390                	c.lw	a2,0(a5)
    8b80:	00c786b3          	add	a3,a5,a2
    8b84:	00d71663          	bne	a4,a3,8b90 <_free_r+0x38>
    8b88:	4314                	c.lw	a3,0(a4)
    8b8a:	4358                	c.lw	a4,4(a4)
    8b8c:	96b2                	c.add	a3,a2
    8b8e:	c394                	c.sw	a3,0(a5)
    8b90:	c3d8                	c.sw	a4,4(a5)
    8b92:	c8ffc7ab          	swgp	a5,-884 # 8048c <__malloc_free_list>
    8b96:	8082                	c.jr	ra
    8b98:	8736                	c.mv	a4,a3
    8b9a:	4354                	c.lw	a3,4(a4)
    8b9c:	c299                	c.beqz	a3,8ba2 <_free_r+0x4a>
    8b9e:	fed7fde3          	bgeu	a5,a3,8b98 <_free_r+0x40>
    8ba2:	4310                	c.lw	a2,0(a4)
    8ba4:	00c705b3          	add	a1,a4,a2
    8ba8:	00f59f63          	bne	a1,a5,8bc6 <_free_r+0x6e>
    8bac:	439c                	c.lw	a5,0(a5)
    8bae:	97b2                	c.add	a5,a2
    8bb0:	c31c                	c.sw	a5,0(a4)
    8bb2:	00f70633          	add	a2,a4,a5
    8bb6:	00c69763          	bne	a3,a2,8bc4 <_free_r+0x6c>
    8bba:	4290                	c.lw	a2,0(a3)
    8bbc:	97b2                	c.add	a5,a2
    8bbe:	c31c                	c.sw	a5,0(a4)
    8bc0:	42dc                	c.lw	a5,4(a3)
    8bc2:	c35c                	c.sw	a5,4(a4)
    8bc4:	8082                	c.jr	ra
    8bc6:	00b7f663          	bgeu	a5,a1,8bd2 <_free_r+0x7a>
    8bca:	4731                	c.li	a4,12
    8bcc:	c8efcfab          	swgp	a4,-868 # 8049c <__mculib_REENT_errno>
    8bd0:	8082                	c.jr	ra
    8bd2:	438c                	c.lw	a1,0(a5)
    8bd4:	00b78633          	add	a2,a5,a1
    8bd8:	00c69663          	bne	a3,a2,8be4 <_free_r+0x8c>
    8bdc:	4290                	c.lw	a2,0(a3)
    8bde:	42d4                	c.lw	a3,4(a3)
    8be0:	962e                	c.add	a2,a1
    8be2:	c390                	c.sw	a2,0(a5)
    8be4:	c3d4                	c.sw	a3,4(a5)
    8be6:	bff1                	c.j	8bc2 <_free_r+0x6a>

00008be8 <_malloc_r>:
    8be8:	4a5002ef          	jal	t0,988c <__riscv_save_0>
    8bec:	00358493          	addi	s1,a1,3
    8bf0:	98f1                	c.andi	s1,-4
    8bf2:	04a1                	c.addi	s1,8
    8bf4:	47b1                	c.li	a5,12
    8bf6:	06f4f263          	bgeu	s1,a5,8c5a <_malloc_r+0x72>
    8bfa:	44b1                	c.li	s1,12
    8bfc:	06b4e163          	bltu	s1,a1,8c5e <_malloc_r+0x76>
    8c00:	c8ffa42b          	lwgp	s0,-884 # 8048c <__malloc_free_list>
    8c04:	c8df968b          	addigp	a3,-884 # 8048c <__malloc_free_list>
    8c08:	87a2                	c.mv	a5,s0
    8c0a:	cf89                	c.beqz	a5,8c24 <_malloc_r+0x3c>
    8c0c:	4398                	c.lw	a4,0(a5)
    8c0e:	8f05                	c.sub	a4,s1
    8c10:	08074163          	bltz	a4,8c92 <_malloc_r+0xaa>
    8c14:	462d                	c.li	a2,11
    8c16:	04e67a63          	bgeu	a2,a4,8c6a <_malloc_r+0x82>
    8c1a:	c398                	c.sw	a4,0(a5)
    8c1c:	00e78433          	add	s0,a5,a4
    8c20:	c004                	c.sw	s1,0(s0)
    8c22:	e821                	c.bnez	s0,8c72 <_malloc_r+0x8a>
    8c24:	c91f940b          	addigp	s0,-880 # 80490 <__malloc_sbrk_start>
    8c28:	401c                	c.lw	a5,0(s0)
    8c2a:	e789                	c.bnez	a5,8c34 <_malloc_r+0x4c>
    8c2c:	4501                	c.li	a0,0
    8c2e:	3a5000ef          	jal	ra,97d2 <_sbrk>
    8c32:	c008                	c.sw	a0,0(s0)
    8c34:	8526                	c.mv	a0,s1
    8c36:	597d                	c.li	s2,-1
    8c38:	39b000ef          	jal	ra,97d2 <_sbrk>
    8c3c:	03250163          	beq	a0,s2,8c5e <_malloc_r+0x76>
    8c40:	00350413          	addi	s0,a0,3
    8c44:	9871                	c.andi	s0,-4
    8c46:	00a40863          	beq	s0,a0,8c56 <_malloc_r+0x6e>
    8c4a:	40a40533          	sub	a0,s0,a0
    8c4e:	385000ef          	jal	ra,97d2 <_sbrk>
    8c52:	01250663          	beq	a0,s2,8c5e <_malloc_r+0x76>
    8c56:	c004                	c.sw	s1,0(s0)
    8c58:	a829                	c.j	8c72 <_malloc_r+0x8a>
    8c5a:	fa04d1e3          	bgez	s1,8bfc <_malloc_r+0x14>
    8c5e:	4731                	c.li	a4,12
    8c60:	4501                	c.li	a0,0
    8c62:	c8efcfab          	swgp	a4,-868 # 8049c <__mculib_REENT_errno>
    8c66:	44b0006f          	j	98b0 <__riscv_restore_0>
    8c6a:	43d8                	c.lw	a4,4(a5)
    8c6c:	02f41063          	bne	s0,a5,8c8c <_malloc_r+0xa4>
    8c70:	c298                	c.sw	a4,0(a3)
    8c72:	00b40513          	addi	a0,s0,11
    8c76:	00440793          	addi	a5,s0,4
    8c7a:	9961                	c.andi	a0,-8
    8c7c:	40f507b3          	sub	a5,a0,a5
    8c80:	d3fd                	c.beqz	a5,8c66 <_malloc_r+0x7e>
    8c82:	943e                	c.add	s0,a5
    8c84:	40f007b3          	neg	a5,a5
    8c88:	c01c                	c.sw	a5,0(s0)
    8c8a:	bff1                	c.j	8c66 <_malloc_r+0x7e>
    8c8c:	c058                	c.sw	a4,4(s0)
    8c8e:	843e                	c.mv	s0,a5
    8c90:	b7cd                	c.j	8c72 <_malloc_r+0x8a>
    8c92:	843e                	c.mv	s0,a5
    8c94:	43dc                	c.lw	a5,4(a5)
    8c96:	bf95                	c.j	8c0a <_malloc_r+0x22>

00008c98 <printf>:
    8c98:	7139                	c.addi16sp	sp,-64
    8c9a:	d22e                	c.swsp	a1,36(sp)
    8c9c:	104c                	c.addi4spn	a1,sp,36
    8c9e:	ce06                	c.swsp	ra,28(sp)
    8ca0:	d432                	c.swsp	a2,40(sp)
    8ca2:	d636                	c.swsp	a3,44(sp)
    8ca4:	d83a                	c.swsp	a4,48(sp)
    8ca6:	da3e                	c.swsp	a5,52(sp)
    8ca8:	dc42                	c.swsp	a6,56(sp)
    8caa:	de46                	c.swsp	a7,60(sp)
    8cac:	c62e                	c.swsp	a1,12(sp)
    8cae:	28e1                	c.jal	8d86 <vprintf>
    8cb0:	40f2                	c.lwsp	ra,28(sp)
    8cb2:	6121                	c.addi16sp	sp,64
    8cb4:	8082                	c.jr	ra

00008cb6 <puts>:
    8cb6:	3d7002ef          	jal	t0,988c <__riscv_save_0>
    8cba:	1101                	c.addi	sp,-32
    8cbc:	c62a                	c.swsp	a0,12(sp)
    8cbe:	203d                	c.jal	8cec <strlen>
    8cc0:	45b2                	c.lwsp	a1,12(sp)
    8cc2:	862a                	c.mv	a2,a0
    8cc4:	4505                	c.li	a0,1
    8cc6:	993f80ef          	jal	ra,1658 <_write>
    8cca:	00054e63          	bltz	a0,8ce6 <puts+0x30>
    8cce:	47a9                	c.li	a5,10
    8cd0:	4605                	c.li	a2,1
    8cd2:	01f10593          	addi	a1,sp,31
    8cd6:	4505                	c.li	a0,1
    8cd8:	00f10fa3          	sb	a5,31(sp)
    8cdc:	97df80ef          	jal	ra,1658 <_write>
    8ce0:	6105                	c.addi16sp	sp,32
    8ce2:	3cf0006f          	j	98b0 <__riscv_restore_0>
    8ce6:	557d                	c.li	a0,-1
    8ce8:	bfe5                	c.j	8ce0 <puts+0x2a>
	...

00008cec <strlen>:
    8cec:	00357793          	andi	a5,a0,3
    8cf0:	872a                	c.mv	a4,a0
    8cf2:	e79d                	c.bnez	a5,8d20 <strlen+0x34>
    8cf4:	0511                	c.addi	a0,4
    8cf6:	ffc52783          	lw	a5,-4(a0)
    8cfa:	200787db          	ffb	a5,a5,zero
    8cfe:	dbfd                	c.beqz	a5,8cf4 <strlen+0x8>
    8d00:	ffc54783          	lbu	a5,-4(a0)
    8d04:	40e50733          	sub	a4,a0,a4
    8d08:	ffd54683          	lbu	a3,-3(a0)
    8d0c:	ffe54603          	lbu	a2,-2(a0)
    8d10:	c795                	c.beqz	a5,8d3c <strlen+0x50>
    8d12:	c28d                	c.beqz	a3,8d34 <strlen+0x48>
    8d14:	ca05                	c.beqz	a2,8d44 <strlen+0x58>
    8d16:	fff70513          	addi	a0,a4,-1
    8d1a:	8082                	c.jr	ra
    8d1c:	fc068ce3          	beqz	a3,8cf4 <strlen+0x8>
    8d20:	00054783          	lbu	a5,0(a0)
    8d24:	0505                	c.addi	a0,1
    8d26:	00357693          	andi	a3,a0,3
    8d2a:	fbed                	c.bnez	a5,8d1c <strlen+0x30>
    8d2c:	8d19                	c.sub	a0,a4
    8d2e:	157d                	c.addi	a0,-1
    8d30:	00008067          	ret
    8d34:	ffd70513          	addi	a0,a4,-3
    8d38:	00008067          	ret
    8d3c:	ffc70513          	addi	a0,a4,-4
    8d40:	00008067          	ret
    8d44:	ffe70513          	addi	a0,a4,-2
    8d48:	8082                	c.jr	ra
    8d4a:	0001                	c.nop

00008d4c <__vprintf_help>:
    8d4c:	341002ef          	jal	t0,988c <__riscv_save_0>
    8d50:	ca3fa7ab          	lwgp	a5,-864 # 804a0 <__printf_count>
    8d54:	0785                	c.addi	a5,1
    8d56:	caffc1ab          	swgp	a5,-864 # 804a0 <__printf_count>
    8d5a:	c99f940b          	addigp	s0,-872 # 80498 <__vprintf_buf_len>
    8d5e:	c97fa5ab          	lwgp	a1,-876 # 80494 <__vprintf_buf>
    8d62:	401c                	c.lw	a5,0(s0)
    8d64:	00178713          	addi	a4,a5,1
    8d68:	97ae                	c.add	a5,a1
    8d6a:	c018                	c.sw	a4,0(s0)
    8d6c:	00a78023          	sb	a0,0(a5)
    8d70:	4007695b          	bnec	a4,64,8d82 <__vprintf_help+0x36>
    8d74:	04000613          	li	a2,64
    8d78:	4505                	c.li	a0,1
    8d7a:	8dff80ef          	jal	ra,1658 <_write>
    8d7e:	00042023          	sw	zero,0(s0)
    8d82:	32f0006f          	j	98b0 <__riscv_restore_0>

00008d86 <vprintf>:
    8d86:	1141                	c.addi	sp,-16
    8d88:	c606                	c.swsp	ra,12(sp)
    8d8a:	c422                	c.swsp	s0,8(sp)
    8d8c:	c226                	c.swsp	s1,4(sp)
    8d8e:	c04a                	c.swsp	s2,0(sp)
    8d90:	0800                	c.addi4spn	s0,sp,16
    8d92:	715d                	c.addi16sp	sp,-80
    8d94:	00f10793          	addi	a5,sp,15
    8d98:	00009637          	lui	a2,0x9
    8d9c:	9bc1                	c.andi	a5,-16
    8d9e:	c95f948b          	addigp	s1,-876 # 80494 <__vprintf_buf>
    8da2:	c99f990b          	addigp	s2,-872 # 80498 <__vprintf_buf_len>
    8da6:	d4c60613          	addi	a2,a2,-692 # 8d4c <__vprintf_help>
    8daa:	c09c                	c.sw	a5,0(s1)
    8dac:	00092023          	sw	zero,0(s2)
    8db0:	20ad                	c.jal	8e1a <__printf_impl>
    8db2:	00092603          	lw	a2,0(s2)
    8db6:	408c                	c.lw	a1,0(s1)
    8db8:	4505                	c.li	a0,1
    8dba:	89ff80ef          	jal	ra,1658 <_write>
    8dbe:	ca3fa52b          	lwgp	a0,-864 # 804a0 <__printf_count>
    8dc2:	ff040113          	addi	sp,s0,-16
    8dc6:	40b2                	c.lwsp	ra,12(sp)
    8dc8:	4422                	c.lwsp	s0,8(sp)
    8dca:	4492                	c.lwsp	s1,4(sp)
    8dcc:	4902                	c.lwsp	s2,0(sp)
    8dce:	0141                	c.addi	sp,16
    8dd0:	8082                	c.jr	ra

00008dd2 <__print_integral>:
    8dd2:	2bb002ef          	jal	t0,988c <__riscv_save_0>
    8dd6:	1101                	c.addi	sp,-32
    8dd8:	842a                	c.mv	s0,a0
    8dda:	84ae                	c.mv	s1,a1
    8ddc:	8932                	c.mv	s2,a2
    8dde:	c636                	c.swsp	a3,12(sp)
    8de0:	85be                	c.mv	a1,a5
    8de2:	ca32                	c.swsp	a2,20(sp)
    8de4:	853a                	c.mv	a0,a4
    8de6:	0830                	c.addi4spn	a2,sp,24
    8de8:	2155                	c.jal	928c <__int_to_poly>
    8dea:	46b2                	c.lwsp	a3,12(sp)
    8dec:	882a                	c.mv	a6,a0
    8dee:	083c                	c.addi4spn	a5,sp,24
    8df0:	0858                	c.addi4spn	a4,sp,20
    8df2:	864a                	c.mv	a2,s2
    8df4:	85a6                	c.mv	a1,s1
    8df6:	8522                	c.mv	a0,s0
    8df8:	294d                	c.jal	92aa <__print_integral_poly>
    8dfa:	c39f978b          	addigp	a5,-968 # 80438 <__digits>
    8dfe:	00a46563          	bltu	s0,a0,8e08 <__print_integral+0x36>
    8e02:	6105                	c.addi16sp	sp,32
    8e04:	2ad0006f          	j	98b0 <__riscv_restore_0>
    8e08:	00044703          	lbu	a4,0(s0)
    8e0c:	0405                	c.addi	s0,1
    8e0e:	973e                	c.add	a4,a5
    8e10:	00070703          	lb	a4,0(a4)
    8e14:	fee40fa3          	sb	a4,-1(s0)
    8e18:	b7dd                	c.j	8dfe <__print_integral+0x2c>

00008e1a <__printf_impl>:
    8e1a:	243002ef          	jal	t0,985c <__riscv_save_12>
    8e1e:	a6010113          	addi	sp,sp,-1440
    8e22:	6b05                	c.lui	s6,0x1
    8e24:	892a                	c.mv	s2,a0
    8e26:	842e                	c.mv	s0,a1
    8e28:	89b2                	c.mv	s3,a2
    8e2a:	01c10a13          	addi	s4,sp,28
    8e2e:	800b0b13          	addi	s6,s6,-2048 # 800 <analog_read_reg8+0x28>
    8e32:	ca0fc1ab          	swgp	zero,-864 # 804a0 <__printf_count>
    8e36:	c456                	c.swsp	s5,8(sp)
    8e38:	00094503          	lbu	a0,0(s2)
    8e3c:	e509                	c.bnez	a0,8e46 <__printf_impl+0x2c>
    8e3e:	5a010113          	addi	sp,sp,1440
    8e42:	2570006f          	j	9898 <__riscv_restore_12>
    8e46:	00190493          	addi	s1,s2,1
    8e4a:	005555db          	beqc	a0,37,8e54 <__printf_impl+0x3a>
    8e4e:	9982                	c.jalr	s3
    8e50:	8926                	c.mv	s2,s1
    8e52:	b7dd                	c.j	8e38 <__printf_impl+0x1e>
    8e54:	00194783          	lbu	a5,1(s2)
    8e58:	0057e8db          	bnec	a5,37,8e68 <__printf_impl+0x4e>
    8e5c:	02500513          	li	a0,37
    8e60:	9982                	c.jalr	s3
    8e62:	00290493          	addi	s1,s2,2
    8e66:	b7ed                	c.j	8e50 <__printf_impl+0x36>
    8e68:	4681                	c.li	a3,0
    8e6a:	4701                	c.li	a4,0
    8e6c:	d002                	c.swsp	zero,32(sp)
    8e6e:	0004c783          	lbu	a5,0(s1)
    8e72:	0007e7db          	bnec	a5,32,8e80 <__printf_impl+0x66>
    8e76:	00276713          	ori	a4,a4,2
    8e7a:	0485                	c.addi	s1,1
    8e7c:	4685                	c.li	a3,1
    8e7e:	bfc5                	c.j	8e6e <__printf_impl+0x54>
    8e80:	00d7e5db          	bnec	a5,45,8e8a <__printf_impl+0x70>
    8e84:	00476713          	ori	a4,a4,4
    8e88:	bfcd                	c.j	8e7a <__printf_impl+0x60>
    8e8a:	00b7e5db          	bnec	a5,43,8e94 <__printf_impl+0x7a>
    8e8e:	00876713          	ori	a4,a4,8
    8e92:	b7e5                	c.j	8e7a <__printf_impl+0x60>
    8e94:	0037e5db          	bnec	a5,35,8e9e <__printf_impl+0x84>
    8e98:	01076713          	ori	a4,a4,16
    8e9c:	bff9                	c.j	8e7a <__printf_impl+0x60>
    8e9e:	0107e5db          	bnec	a5,48,8ea8 <__printf_impl+0x8e>
    8ea2:	02076713          	ori	a4,a4,32
    8ea6:	bfd1                	c.j	8e7a <__printf_impl+0x60>
    8ea8:	c291                	c.beqz	a3,8eac <__printf_impl+0x92>
    8eaa:	d03a                	c.swsp	a4,32(sp)
    8eac:	04a7eadb          	bnec	a5,42,8f00 <__printf_impl+0xe6>
    8eb0:	00042c03          	lw	s8,0(s0)
    8eb4:	00440713          	addi	a4,s0,4
    8eb8:	000c5863          	bgez	s8,8ec8 <__printf_impl+0xae>
    8ebc:	5782                	c.lwsp	a5,32(sp)
    8ebe:	41800c33          	neg	s8,s8
    8ec2:	0047e793          	ori	a5,a5,4
    8ec6:	d03e                	c.swsp	a5,32(sp)
    8ec8:	0485                	c.addi	s1,1
    8eca:	843a                	c.mv	s0,a4
    8ecc:	0004c783          	lbu	a5,0(s1)
    8ed0:	5cfd                	c.li	s9,-1
    8ed2:	06e7e4db          	bnec	a5,46,8f3a <__printf_impl+0x120>
    8ed6:	0014c783          	lbu	a5,1(s1)
    8eda:	04a7dbdb          	beqc	a5,42,8f30 <__printf_impl+0x116>
    8ede:	0485                	c.addi	s1,1
    8ee0:	4c81                	c.li	s9,0
    8ee2:	4725                	c.li	a4,9
    8ee4:	4629                	c.li	a2,10
    8ee6:	0004c783          	lbu	a5,0(s1)
    8eea:	fd078793          	addi	a5,a5,-48
    8eee:	0ff7f693          	andi	a3,a5,255
    8ef2:	04d76463          	bltu	a4,a3,8f3a <__printf_impl+0x120>
    8ef6:	c4cc97ff          	maddr32	a5,s9,a2
    8efa:	0485                	c.addi	s1,1
    8efc:	8cbe                	c.mv	s9,a5
    8efe:	b7e5                	c.j	8ee6 <__printf_impl+0xcc>
    8f00:	fd078793          	addi	a5,a5,-48
    8f04:	0ff7f793          	andi	a5,a5,255
    8f08:	4725                	c.li	a4,9
    8f0a:	4c01                	c.li	s8,0
    8f0c:	fcf760e3          	bltu	a4,a5,8ecc <__printf_impl+0xb2>
    8f10:	4725                	c.li	a4,9
    8f12:	4629                	c.li	a2,10
    8f14:	a029                	c.j	8f1e <__printf_impl+0x104>
    8f16:	c4cc17ff          	maddr32	a5,s8,a2
    8f1a:	0485                	c.addi	s1,1
    8f1c:	8c3e                	c.mv	s8,a5
    8f1e:	0004c783          	lbu	a5,0(s1)
    8f22:	fd078793          	addi	a5,a5,-48
    8f26:	0ff7f693          	andi	a3,a5,255
    8f2a:	fed776e3          	bgeu	a4,a3,8f16 <__printf_impl+0xfc>
    8f2e:	bf79                	c.j	8ecc <__printf_impl+0xb2>
    8f30:	401c                	c.lw	a5,0(s0)
    8f32:	0489                	c.addi	s1,2
    8f34:	0411                	c.addi	s0,4
    8f36:	f2fc8cff          	maxw	s9,s9,a5
    8f3a:	43200613          	li	a2,1074
    8f3e:	f0cc867f          	minw	a2,s9,a2
    8f42:	0004c783          	lbu	a5,0(s1)
    8f46:	4487efdb          	bnec	a5,104,8fa4 <__printf_impl+0x18a>
    8f4a:	5782                	c.lwsp	a5,32(sp)
    8f4c:	0014c703          	lbu	a4,1(s1)
    8f50:	448764db          	bnec	a4,104,8f98 <__printf_impl+0x17e>
    8f54:	0407e793          	ori	a5,a5,64
    8f58:	00248913          	addi	s2,s1,2
    8f5c:	d03e                	c.swsp	a5,32(sp)
    8f5e:	00094503          	lbu	a0,0(s2)
    8f62:	06700793          	li	a5,103
    8f66:	0aa7e263          	bltu	a5,a0,900a <__printf_impl+0x1f0>
    8f6a:	06500793          	li	a5,101
    8f6e:	06f57d63          	bgeu	a0,a5,8fe8 <__printf_impl+0x1ce>
    8f72:	05800793          	li	a5,88
    8f76:	5785555b          	beqc	a0,88,90e0 <__printf_impl+0x2c6>
    8f7a:	04a7ef63          	bltu	a5,a0,8fd8 <__printf_impl+0x1be>
    8f7e:	04100793          	li	a5,65
    8f82:	4615535b          	beqc	a0,65,8fe8 <__printf_impl+0x1ce>
    8f86:	00f56763          	bltu	a0,a5,8f94 <__printf_impl+0x17a>
    8f8a:	fbb50793          	addi	a5,a0,-69
    8f8e:	4709                	c.li	a4,2
    8f90:	04f77c63          	bgeu	a4,a5,8fe8 <__printf_impl+0x1ce>
    8f94:	84a2                	c.mv	s1,s0
    8f96:	a489                	c.j	91d8 <__printf_impl+0x3be>
    8f98:	0807e793          	ori	a5,a5,128
    8f9c:	d03e                	c.swsp	a5,32(sp)
    8f9e:	00148913          	addi	s2,s1,1
    8fa2:	bf75                	c.j	8f5e <__printf_impl+0x144>
    8fa4:	40c7eddb          	bnec	a5,108,8fbe <__printf_impl+0x1a4>
    8fa8:	5782                	c.lwsp	a5,32(sp)
    8faa:	0014c703          	lbu	a4,1(s1)
    8fae:	40c765db          	bnec	a4,108,8fb8 <__printf_impl+0x19e>
    8fb2:	2007e793          	ori	a5,a5,512
    8fb6:	b74d                	c.j	8f58 <__printf_impl+0x13e>
    8fb8:	1007e793          	ori	a5,a5,256
    8fbc:	b7c5                	c.j	8f9c <__printf_impl+0x182>
    8fbe:	00148913          	addi	s2,s1,1
    8fc2:	41a7e7db          	bnec	a5,122,8fd0 <__printf_impl+0x1b6>
    8fc6:	5782                	c.lwsp	a5,32(sp)
    8fc8:	1007e793          	ori	a5,a5,256
    8fcc:	d03e                	c.swsp	a5,32(sp)
    8fce:	bf41                	c.j	8f5e <__printf_impl+0x144>
    8fd0:	ff47dbdb          	beqc	a5,116,8fc6 <__printf_impl+0x1ac>
    8fd4:	8926                	c.mv	s2,s1
    8fd6:	b761                	c.j	8f5e <__printf_impl+0x144>
    8fd8:	06300793          	li	a5,99
    8fdc:	50355cdb          	beqc	a0,99,90f4 <__printf_impl+0x2da>
    8fe0:	04a7e463          	bltu	a5,a0,9028 <__printf_impl+0x20e>
    8fe4:	fa1568db          	bnec	a0,97,8f94 <__printf_impl+0x17a>
    8fe8:	041d                	c.addi	s0,7
    8fea:	9861                	c.andi	s0,-8
    8fec:	00042803          	lw	a6,0(s0)
    8ff0:	00442883          	lw	a7,4(s0)
    8ff4:	02057b93          	andi	s7,a0,32
    8ff8:	87aa                	c.mv	a5,a0
    8ffa:	86c2                	c.mv	a3,a6
    8ffc:	8746                	c.mv	a4,a7
    8ffe:	100c                	c.addi4spn	a1,sp,32
    9000:	1048                	c.addi4spn	a0,sp,36
    9002:	00840493          	addi	s1,s0,8
    9006:	2e15                	c.jal	933a <__printf_float_impl>
    9008:	aa4d                	c.j	91ba <__printf_impl+0x3a0>
    900a:	07000793          	li	a5,112
    900e:	4d0559db          	beqc	a0,112,90e0 <__printf_impl+0x2c6>
    9012:	04a7e163          	bltu	a5,a0,9054 <__printf_impl+0x23a>
    9016:	06e00793          	li	a5,110
    901a:	5ae554db          	beqc	a0,110,91c2 <__printf_impl+0x3a8>
    901e:	45a1                	c.li	a1,8
    9020:	0ca7e163          	bltu	a5,a0,90e2 <__printf_impl+0x2c8>
    9024:	f69568db          	bnec	a0,105,8f94 <__printf_impl+0x17a>
    9028:	5682                	c.lwsp	a3,32(sp)
    902a:	0e66f05b          	bbc	a3,6,910a <__printf_impl+0x2f0>
    902e:	00040703          	lb	a4,0(s0)
    9032:	00440493          	addi	s1,s0,4
    9036:	41f75793          	srai	a5,a4,0x1f
    903a:	0e07df63          	bgez	a5,9138 <__printf_impl+0x31e>
    903e:	40e00733          	neg	a4,a4
    9042:	00e035b3          	snez	a1,a4
    9046:	40f007b3          	neg	a5,a5
    904a:	8f8d                	c.sub	a5,a1
    904c:	4006e693          	ori	a3,a3,1024
    9050:	d036                	c.swsp	a3,32(sp)
    9052:	a0dd                	c.j	9138 <__printf_impl+0x31e>
    9054:	515553db          	beqc	a0,117,915a <__printf_impl+0x340>
    9058:	498554db          	beqc	a0,120,90e0 <__printf_impl+0x2c6>
    905c:	f3356cdb          	bnec	a0,115,8f94 <__printf_impl+0x17a>
    9060:	00042a83          	lw	s5,0(s0)
    9064:	85b2                	c.mv	a1,a2
    9066:	8556                	c.mv	a0,s5
    9068:	c632                	c.swsp	a2,12(sp)
    906a:	2f81                	c.jal	97ba <strnlen>
    906c:	57fd                	c.li	a5,-1
    906e:	00440493          	addi	s1,s0,4
    9072:	00fc8563          	beq	s9,a5,907c <__printf_impl+0x262>
    9076:	4632                	c.lwsp	a2,12(sp)
    9078:	f0c5057f          	minw	a0,a0,a2
    907c:	00aa8433          	add	s0,s5,a0
    9080:	4b81                	c.li	s7,0
    9082:	5782                	c.lwsp	a5,32(sp)
    9084:	02d00693          	li	a3,45
    9088:	40a7fb5b          	bbs	a5,10,909e <__printf_impl+0x284>
    908c:	02b00693          	li	a3,43
    9090:	4037f75b          	bbs	a5,3,909e <__printf_impl+0x284>
    9094:	8cd2                	c.mv	s9,s4
    9096:	0017f85b          	bbc	a5,1,90a6 <__printf_impl+0x28c>
    909a:	02000693          	li	a3,32
    909e:	01d10c93          	addi	s9,sp,29
    90a2:	00d10e23          	sb	a3,28(sp)
    90a6:	0167f6b3          	and	a3,a5,s6
    90aa:	ca91                	c.beqz	a3,90be <__printf_impl+0x2a4>
    90ac:	03000693          	li	a3,48
    90b0:	00dc8023          	sb	a3,0(s9)
    90b4:	05800693          	li	a3,88
    90b8:	00dc80a3          	sb	a3,1(s9)
    90bc:	0c89                	c.addi	s9,2
    90be:	5627f45b          	bbs	a5,2,9226 <__printf_impl+0x40c>
    90c2:	41540db3          	sub	s11,s0,s5
    90c6:	4057fa5b          	bbs	a5,5,90da <__printf_impl+0x2c0>
    90ca:	41bc0d33          	sub	s10,s8,s11
    90ce:	414c87b3          	sub	a5,s9,s4
    90d2:	40fd0d33          	sub	s10,s10,a5
    90d6:	17a04763          	bgtz	s10,9244 <__printf_impl+0x42a>
    90da:	8d52                	c.mv	s10,s4
    90dc:	9c52                	c.add	s8,s4
    90de:	aab5                	c.j	925a <__printf_impl+0x440>
    90e0:	45c1                	c.li	a1,16
    90e2:	5782                	c.lwsp	a5,32(sp)
    90e4:	0667fd5b          	bbc	a5,6,915e <__printf_impl+0x344>
    90e8:	00044703          	lbu	a4,0(s0)
    90ec:	00440493          	addi	s1,s0,4
    90f0:	4781                	c.li	a5,0
    90f2:	a859                	c.j	9188 <__printf_impl+0x36e>
    90f4:	401c                	c.lw	a5,0(s0)
    90f6:	00440493          	addi	s1,s0,4
    90fa:	4b81                	c.li	s7,0
    90fc:	02510413          	addi	s0,sp,37
    9100:	02f10223          	sb	a5,36(sp)
    9104:	02410a93          	addi	s5,sp,36
    9108:	bfad                	c.j	9082 <__printf_impl+0x268>
    910a:	0076f75b          	bbc	a3,7,9118 <__printf_impl+0x2fe>
    910e:	00440493          	addi	s1,s0,4
    9112:	00041703          	lh	a4,0(s0)
    9116:	b705                	c.j	9036 <__printf_impl+0x21c>
    9118:	0086f65b          	bbc	a3,8,9124 <__printf_impl+0x30a>
    911c:	00440493          	addi	s1,s0,4
    9120:	4018                	c.lw	a4,0(s0)
    9122:	bf11                	c.j	9036 <__printf_impl+0x21c>
    9124:	be96fc5b          	bbc	a3,9,911c <__printf_impl+0x302>
    9128:	041d                	c.addi	s0,7
    912a:	9861                	c.andi	s0,-8
    912c:	405c                	c.lw	a5,4(s0)
    912e:	00840493          	addi	s1,s0,8
    9132:	4018                	c.lw	a4,0(s0)
    9134:	0007c963          	bltz	a5,9146 <__printf_impl+0x32c>
    9138:	56fd                	c.li	a3,-1
    913a:	45a9                	c.li	a1,10
    913c:	4b81                	c.li	s7,0
    913e:	04dc9a63          	bne	s9,a3,9192 <__printf_impl+0x378>
    9142:	4605                	c.li	a2,1
    9144:	a0b5                	c.j	91b0 <__printf_impl+0x396>
    9146:	ee071ce3          	bnez	a4,903e <__printf_impl+0x224>
    914a:	800005b7          	lui	a1,0x80000
    914e:	eeb798e3          	bne	a5,a1,903e <__printf_impl+0x224>
    9152:	4701                	c.li	a4,0
    9154:	800007b7          	lui	a5,0x80000
    9158:	bdd5                	c.j	904c <__printf_impl+0x232>
    915a:	45a9                	c.li	a1,10
    915c:	b759                	c.j	90e2 <__printf_impl+0x2c8>
    915e:	0077f75b          	bbc	a5,7,916c <__printf_impl+0x352>
    9162:	00440493          	addi	s1,s0,4
    9166:	00045703          	lhu	a4,0(s0)
    916a:	b759                	c.j	90f0 <__printf_impl+0x2d6>
    916c:	0087f65b          	bbc	a5,8,9178 <__printf_impl+0x35e>
    9170:	00440493          	addi	s1,s0,4
    9174:	4018                	c.lw	a4,0(s0)
    9176:	bfad                	c.j	90f0 <__printf_impl+0x2d6>
    9178:	be97fc5b          	bbc	a5,9,9170 <__printf_impl+0x356>
    917c:	041d                	c.addi	s0,7
    917e:	9861                	c.andi	s0,-8
    9180:	4018                	c.lw	a4,0(s0)
    9182:	405c                	c.lw	a5,4(s0)
    9184:	00840493          	addi	s1,s0,8
    9188:	56fd                	c.li	a3,-1
    918a:	02057b93          	andi	s7,a0,32
    918e:	02dc8863          	beq	s9,a3,91be <__printf_impl+0x3a4>
    9192:	5682                	c.lwsp	a3,32(sp)
    9194:	fdf6f693          	andi	a3,a3,-33
    9198:	d036                	c.swsp	a3,32(sp)
    919a:	0105eb5b          	bnec	a1,16,91b0 <__printf_impl+0x396>
    919e:	5682                	c.lwsp	a3,32(sp)
    91a0:	0046f85b          	bbc	a3,4,91b0 <__printf_impl+0x396>
    91a4:	00f76533          	or	a0,a4,a5
    91a8:	c501                	c.beqz	a0,91b0 <__printf_impl+0x396>
    91aa:	0166e6b3          	or	a3,a3,s6
    91ae:	d036                	c.swsp	a3,32(sp)
    91b0:	86b2                	c.mv	a3,a2
    91b2:	5602                	c.lwsp	a2,32(sp)
    91b4:	1048                	c.addi4spn	a0,sp,36
    91b6:	c1dff0ef          	jal	ra,8dd2 <__print_integral>
    91ba:	842a                	c.mv	s0,a0
    91bc:	b7a1                	c.j	9104 <__printf_impl+0x2ea>
    91be:	4605                	c.li	a2,1
    91c0:	bfe9                	c.j	919a <__printf_impl+0x380>
    91c2:	45a2                	c.lwsp	a1,8(sp)
    91c4:	5682                	c.lwsp	a3,32(sp)
    91c6:	00440493          	addi	s1,s0,4
    91ca:	ca3fa7ab          	lwgp	a5,-864 # 804a0 <__printf_count>
    91ce:	4018                	c.lw	a4,0(s0)
    91d0:	0066f85b          	bbc	a3,6,91e0 <__printf_impl+0x3c6>
    91d4:	00f70023          	sb	a5,0(a4)
    91d8:	1040                	c.addi4spn	s0,sp,36
    91da:	4b81                	c.li	s7,0
    91dc:	8aa2                	c.mv	s5,s0
    91de:	b555                	c.j	9082 <__printf_impl+0x268>
    91e0:	0076f55b          	bbc	a3,7,91ea <__printf_impl+0x3d0>
    91e4:	00f71023          	sh	a5,0(a4)
    91e8:	bfc5                	c.j	91d8 <__printf_impl+0x3be>
    91ea:	c31c                	c.sw	a5,0(a4)
    91ec:	fe86f65b          	bbs	a3,8,91d8 <__printf_impl+0x3be>
    91f0:	be96f45b          	bbc	a3,9,91d8 <__printf_impl+0x3be>
    91f4:	87fd                	c.srai	a5,0x1f
    91f6:	c35c                	c.sw	a5,4(a4)
    91f8:	b7c5                	c.j	91d8 <__printf_impl+0x3be>
    91fa:	000dc503          	lbu	a0,0(s11)
    91fe:	0d85                	c.addi	s11,1
    9200:	01756533          	or	a0,a0,s7
    9204:	9982                	c.jalr	s3
    9206:	41bc0d33          	sub	s10,s8,s11
    920a:	ff9de8e3          	bltu	s11,s9,91fa <__printf_impl+0x3e0>
    920e:	8c56                	c.mv	s8,s5
    9210:	01841e63          	bne	s0,s8,922c <__printf_impl+0x412>
    9214:	41540433          	sub	s0,s0,s5
    9218:	408d0433          	sub	s0,s10,s0
    921c:	00804f63          	bgtz	s0,923a <__printf_impl+0x420>
    9220:	0905                	c.addi	s2,1
    9222:	8426                	c.mv	s0,s1
    9224:	b911                	c.j	8e38 <__printf_impl+0x1e>
    9226:	8dd2                	c.mv	s11,s4
    9228:	9c52                	c.add	s8,s4
    922a:	bff1                	c.j	9206 <__printf_impl+0x3ec>
    922c:	000c4503          	lbu	a0,0(s8)
    9230:	0c05                	c.addi	s8,1
    9232:	01756533          	or	a0,a0,s7
    9236:	9982                	c.jalr	s3
    9238:	bfe1                	c.j	9210 <__printf_impl+0x3f6>
    923a:	02000513          	li	a0,32
    923e:	9982                	c.jalr	s3
    9240:	147d                	c.addi	s0,-1
    9242:	bfe9                	c.j	921c <__printf_impl+0x402>
    9244:	02000513          	li	a0,32
    9248:	9982                	c.jalr	s3
    924a:	1d7d                	c.addi	s10,-1
    924c:	b569                	c.j	90d6 <__printf_impl+0x2bc>
    924e:	000d4503          	lbu	a0,0(s10)
    9252:	0d05                	c.addi	s10,1
    9254:	01756533          	or	a0,a0,s7
    9258:	9982                	c.jalr	s3
    925a:	41ac07b3          	sub	a5,s8,s10
    925e:	ff9d68e3          	bltu	s10,s9,924e <__printf_impl+0x434>
    9262:	5682                	c.lwsp	a3,32(sp)
    9264:	0056f65b          	bbc	a3,5,9270 <__printf_impl+0x456>
    9268:	41b78db3          	sub	s11,a5,s11
    926c:	01b04b63          	bgtz	s11,9282 <__printf_impl+0x468>
    9270:	fb5408e3          	beq	s0,s5,9220 <__printf_impl+0x406>
    9274:	000ac503          	lbu	a0,0(s5)
    9278:	0a85                	c.addi	s5,1
    927a:	01756533          	or	a0,a0,s7
    927e:	9982                	c.jalr	s3
    9280:	bfc5                	c.j	9270 <__printf_impl+0x456>
    9282:	03000513          	li	a0,48
    9286:	9982                	c.jalr	s3
    9288:	1dfd                	c.addi	s11,-1
    928a:	b7cd                	c.j	926c <__printf_impl+0x452>

0000928c <__int_to_poly>:
    928c:	872a                	c.mv	a4,a0
    928e:	87ae                	c.mv	a5,a1
    9290:	4501                	c.li	a0,0
    9292:	00f766b3          	or	a3,a4,a5
    9296:	e291                	c.bnez	a3,929a <__int_to_poly+0xe>
    9298:	8082                	c.jr	ra
    929a:	00e61023          	sh	a4,0(a2)
    929e:	0505                	c.addi	a0,1
    92a0:	df07077f          	wexti	a4,a4,16
    92a4:	0609                	c.addi	a2,2
    92a6:	83c1                	c.srli	a5,0x10
    92a8:	b7ed                	c.j	9292 <__int_to_poly+0x6>

000092aa <__print_integral_poly>:
    92aa:	5e2002ef          	jal	t0,988c <__riscv_save_0>
    92ae:	88c2                	c.mv	a7,a6
    92b0:	84ba                	c.mv	s1,a4
    92b2:	187d                	c.addi	a6,-1
    92b4:	0b17875b          	lea.h	a4,a5,a7
    92b8:	8342                	c.mv	t1,a6
    92ba:	4401                	c.li	s0,0
    92bc:	8e3a                	c.mv	t3,a4
    92be:	1779                	c.addi	a4,-2
    92c0:	02035463          	bgez	t1,92e8 <__print_integral_poly+0x3e>
    92c4:	05105063          	blez	a7,9304 <__print_integral_poly+0x5a>
    92c8:	ffee5703          	lhu	a4,-2(t3)
    92cc:	eb15                	c.bnez	a4,9300 <__print_integral_poly+0x56>
    92ce:	03005b63          	blez	a6,9304 <__print_integral_poly+0x5a>
    92d2:	8726                	c.mv	a4,s1
    92d4:	16fd                	c.addi	a3,-1
    92d6:	3fd1                	c.jal	92aa <__print_integral_poly>
    92d8:	87aa                	c.mv	a5,a0
    92da:	0505                	c.addi	a0,1
    92dc:	00878023          	sb	s0,0(a5) # 80000000 <_DATA_LMA_START+0x5fff64f8>
    92e0:	409c                	c.lw	a5,0(s1)
    92e2:	0785                	c.addi	a5,1
    92e4:	c09c                	c.sw	a5,0(s1)
    92e6:	a3e9                	c.j	98b0 <__riscv_restore_0>
    92e8:	00075e83          	lhu	t4,0(a4)
    92ec:	0442                	c.slli	s0,0x10
    92ee:	9476                	c.add	s0,t4
    92f0:	02b45eb3          	divu	t4,s0,a1
    92f4:	137d                	c.addi	t1,-1
    92f6:	02b47433          	remu	s0,s0,a1
    92fa:	01d71023          	sh	t4,0(a4)
    92fe:	b7c1                	c.j	92be <__print_integral_poly+0x14>
    9300:	8846                	c.mv	a6,a7
    9302:	bfc1                	c.j	92d2 <__print_integral_poly+0x28>
    9304:	c011                	c.beqz	s0,9308 <__print_integral_poly+0x5e>
    9306:	16fd                	c.addi	a3,-1
    9308:	00d04763          	bgtz	a3,9316 <__print_integral_poly+0x6c>
    930c:	0085ee5b          	bnec	a1,8,9328 <__print_integral_poly+0x7e>
    9310:	00467c5b          	bbc	a2,4,9328 <__print_integral_poly+0x7e>
    9314:	4685                	c.li	a3,1
    9316:	87aa                	c.mv	a5,a0
    9318:	40a78733          	sub	a4,a5,a0
    931c:	00d74b63          	blt	a4,a3,9332 <__print_integral_poly+0x88>
    9320:	4781                	c.li	a5,0
    9322:	f2f686ff          	maxw	a3,a3,a5
    9326:	9536                	c.add	a0,a3
    9328:	dc45                	c.beqz	s0,92e0 <__print_integral_poly+0x36>
    932a:	00850023          	sb	s0,0(a0)
    932e:	0505                	c.addi	a0,1
    9330:	bf45                	c.j	92e0 <__print_integral_poly+0x36>
    9332:	0785                	c.addi	a5,1
    9334:	fe078fa3          	sb	zero,-1(a5)
    9338:	b7c5                	c.j	9318 <__print_integral_poly+0x6e>

0000933a <__printf_float_impl>:
    933a:	522002ef          	jal	t0,985c <__riscv_save_12>
    933e:	0df7fc13          	andi	s8,a5,223
    9342:	8b2a                	c.mv	s6,a0
    9344:	892e                	c.mv	s2,a1
    9346:	7169                	c.addi16sp	sp,-304
    9348:	84b2                	c.mv	s1,a2
    934a:	8536                	c.mv	a0,a3
    934c:	85ba                	c.mv	a1,a4
    934e:	8a3e                	c.mv	s4,a5
    9350:	467c6c5b          	bnec	s8,71,93c8 <__printf_float_impl+0x8e>
    9354:	00092983          	lw	s3,0(s2)
    9358:	0109c993          	xori	s3,s3,16
    935c:	1049a9db          	bfoz	s3,s3,4,4
    9360:	0604da63          	bgez	s1,93d4 <__printf_float_impl+0x9a>
    9364:	4499                	c.li	s1,6
    9366:	401c635b          	bnec	s8,65,936c <__printf_float_impl+0x32>
    936a:	44b5                	c.li	s1,13
    936c:	dff5047f          	wexti	s0,a0,31
    9370:	8055                	c.srli	s0,0x15
    9372:	8aaa                	c.mv	s5,a0
    9374:	4c05ad5b          	bfoz	s10,a1,19,0
    9378:	0005d863          	bgez	a1,9388 <__printf_float_impl+0x4e>
    937c:	00092783          	lw	a5,0(s2)
    9380:	4007e793          	ori	a5,a5,1024
    9384:	00f92023          	sw	a5,0(s2)
    9388:	401c6a5b          	bnec	s8,65,939c <__printf_float_impl+0x62>
    938c:	00092783          	lw	a5,0(s2)
    9390:	6705                	c.lui	a4,0x1
    9392:	80070713          	addi	a4,a4,-2048 # 800 <analog_read_reg8+0x28>
    9396:	8fd9                	c.or	a5,a4
    9398:	00f92023          	sw	a5,0(s2)
    939c:	7ff00793          	li	a5,2047
    93a0:	04f41563          	bne	s0,a5,93ea <__printf_float_impl+0xb0>
    93a4:	00092783          	lw	a5,0(s2)
    93a8:	00ad66b3          	or	a3,s10,a0
    93ac:	fdf7f793          	andi	a5,a5,-33
    93b0:	00f92023          	sw	a5,0(s2)
    93b4:	c695                	c.beqz	a3,93e0 <__printf_float_impl+0xa6>
    93b6:	000805b7          	lui	a1,0x80
    93ba:	44858593          	addi	a1,a1,1096 # 80448 <__digits+0x10>
    93be:	855a                	c.mv	a0,s6
    93c0:	2eb5                	c.jal	973c <strcpy>
    93c2:	050d                	c.addi	a0,3
    93c4:	6155                	c.addi16sp	sp,304
    93c6:	a9c9                	c.j	9898 <__riscv_restore_12>
    93c8:	4981                	c.li	s3,0
    93ca:	f81c6b5b          	bnec	s8,65,9360 <__printf_float_impl+0x26>
    93ce:	01f65993          	srli	s3,a2,0x1f
    93d2:	b779                	c.j	9360 <__printf_float_impl+0x26>
    93d4:	fcc1                	c.bnez	s1,936c <__printf_float_impl+0x32>
    93d6:	fb9c0493          	addi	s1,s8,-71
    93da:	0014b493          	seqz	s1,s1
    93de:	b779                	c.j	936c <__printf_float_impl+0x32>
    93e0:	000805b7          	lui	a1,0x80
    93e4:	44c58593          	addi	a1,a1,1100 # 8044c <__digits+0x14>
    93e8:	bfd9                	c.j	93be <__printf_float_impl+0x84>
    93ea:	e811                	c.bnez	s0,93fe <__printf_float_impl+0xc4>
    93ec:	00ad66b3          	or	a3,s10,a0
    93f0:	c0300413          	li	s0,-1021
    93f4:	18069363          	bnez	a3,957a <__printf_float_impl+0x240>
    93f8:	03500413          	li	s0,53
    93fc:	a829                	c.j	9416 <__printf_float_impl+0xdc>
    93fe:	00100db7          	lui	s11,0x100
    9402:	01adedb3          	or	s11,s11,s10
    9406:	c0240413          	addi	s0,s0,-1022
    940a:	03400793          	li	a5,52
    940e:	8aaa                	c.mv	s5,a0
    9410:	8d6e                	c.mv	s10,s11
    9412:	1687d263          	bge	a5,s0,9576 <__printf_float_impl+0x23c>
    9416:	fcb40413          	addi	s0,s0,-53
    941a:	00445b93          	srli	s7,s0,0x4
    941e:	001b9c93          	slli	s9,s7,0x1
    9422:	8666                	c.mv	a2,s9
    9424:	4581                	c.li	a1,0
    9426:	1008                	c.addi4spn	a0,sp,32
    9428:	e2aff0ef          	jal	ra,8a52 <memset>
    942c:	883d                	c.andi	s0,15
    942e:	1a0c                	c.addi4spn	a1,sp,304
    9430:	9cae                	c.add	s9,a1
    9432:	8622                	c.mv	a2,s0
    9434:	8556                	c.mv	a0,s5
    9436:	85ea                	c.mv	a1,s10
    9438:	2ed5                	c.jal	982c <__ashldi3>
    943a:	4641                	c.li	a2,16
    943c:	eeac9823          	sh	a0,-272(s9)
    9440:	1014                	c.addi4spn	a3,sp,32
    9442:	0b85                	c.addi	s7,1
    9444:	8e01                	c.sub	a2,s0
    9446:	8556                	c.mv	a0,s5
    9448:	85ea                	c.mv	a1,s10
    944a:	0b768cdb          	lea.h	s9,a3,s7
    944e:	267d                	c.jal	97fc <__lshrdi3>
    9450:	8666                	c.mv	a2,s9
    9452:	3d2d                	c.jal	928c <__int_to_poly>
    9454:	4c81                	c.li	s9,0
    9456:	9baa                	c.add	s7,a0
    9458:	57fd                	c.li	a5,-1
    945a:	ce3e                	c.swsp	a5,28(sp)
    945c:	4429                	c.li	s0,10
    945e:	401c635b          	bnec	s8,65,9464 <__printf_float_impl+0x12a>
    9462:	4441                	c.li	s0,16
    9464:	885e                	c.mv	a6,s7
    9466:	101c                	c.addi4spn	a5,sp,32
    9468:	4685                	c.li	a3,1
    946a:	0878                	c.addi4spn	a4,sp,28
    946c:	4601                	c.li	a2,0
    946e:	85a2                	c.mv	a1,s0
    9470:	855a                	c.mv	a0,s6
    9472:	3d25                	c.jal	92aa <__print_integral_poly>
    9474:	02e00793          	li	a5,46
    9478:	00f50023          	sb	a5,0(a0)
    947c:	001bbb93          	seqz	s7,s7
    9480:	0dba7a13          	andi	s4,s4,219
    9484:	00150693          	addi	a3,a0,1
    9488:	87de                	c.mv	a5,s7
    948a:	401a535b          	beqc	s4,65,9490 <__printf_float_impl+0x156>
    948e:	4781                	c.li	a5,0
    9490:	00148713          	addi	a4,s1,1
    9494:	973e                	c.add	a4,a5
    9496:	fffc8893          	addi	a7,s9,-1
    949a:	001c9613          	slli	a2,s9,0x1
    949e:	112c                	c.addi4spn	a1,sp,168
    94a0:	95b2                	c.add	a1,a2
    94a2:	8846                	c.mv	a6,a7
    94a4:	4781                	c.li	a5,0
    94a6:	15f9                	c.addi	a1,-2
    94a8:	16085e63          	bgez	a6,9624 <__printf_float_impl+0x2ea>
    94ac:	01905863          	blez	s9,94bc <__printf_float_impl+0x182>
    94b0:	1a0c                	c.addi4spn	a1,sp,304
    94b2:	962e                	c.add	a2,a1
    94b4:	f7665603          	lhu	a2,-138(a2)
    94b8:	e211                	c.bnez	a2,94bc <__printf_float_impl+0x182>
    94ba:	8cc6                	c.mv	s9,a7
    94bc:	160b8d63          	beqz	s7,9636 <__printf_float_impl+0x2fc>
    94c0:	4672                	c.lwsp	a2,28(sp)
    94c2:	0017bb93          	seqz	s7,a5
    94c6:	167d                	c.addi	a2,-1
    94c8:	ce32                	c.swsp	a2,28(sp)
    94ca:	0685                	c.addi	a3,1
    94cc:	fef68fa3          	sb	a5,-1(a3)
    94d0:	f379                	c.bnez	a4,9496 <__printf_float_impl+0x15c>
    94d2:	567c655b          	bnec	s8,71,963c <__printf_float_impl+0x302>
    94d6:	47f2                	c.lwsp	a5,28(sp)
    94d8:	fff48713          	addi	a4,s1,-1
    94dc:	1897d263          	bge	a5,s1,9660 <__printf_float_impl+0x326>
    94e0:	5671                	c.li	a2,-4
    94e2:	16c7cf63          	blt	a5,a2,9660 <__printf_float_impl+0x326>
    94e6:	40f704b3          	sub	s1,a4,a5
    94ea:	04600c13          	li	s8,70
    94ee:	0489                	c.addi	s1,2
    94f0:	9526                	c.add	a0,s1
    94f2:	fff54683          	lbu	a3,-1(a0)
    94f6:	40145713          	srai	a4,s0,0x1
    94fa:	fff50793          	addi	a5,a0,-1
    94fe:	00e6a6b3          	slt	a3,a3,a4
    9502:	0016c693          	xori	a3,a3,1
    9506:	863e                	c.mv	a2,a5
    9508:	1acb7763          	bgeu	s6,a2,96b6 <__printf_float_impl+0x37c>
    950c:	18069363          	bnez	a3,9692 <__printf_float_impl+0x358>
    9510:	17fd                	c.addi	a5,-1
    9512:	00178513          	addi	a0,a5,1
    9516:	00fb7763          	bgeu	s6,a5,9524 <__printf_float_impl+0x1ea>
    951a:	00098563          	beqz	s3,9524 <__printf_float_impl+0x1ea>
    951e:	0007c703          	lbu	a4,0(a5)
    9522:	d77d                	c.beqz	a4,9510 <__printf_float_impl+0x1d6>
    9524:	fff54783          	lbu	a5,-1(a0)
    9528:	00e7e7db          	bnec	a5,46,9536 <__printf_float_impl+0x1fc>
    952c:	00092783          	lw	a5,0(s2)
    9530:	4047f35b          	bbs	a5,4,9536 <__printf_float_impl+0x1fc>
    9534:	157d                	c.addi	a0,-1
    9536:	46bd                	c.li	a3,15
    9538:	c39f970b          	addigp	a4,-968 # 80438 <__digits>
    953c:	1aab6b63          	bltu	s6,a0,96f2 <__printf_float_impl+0x3b8>
    9540:	5c5c645b          	bnec	s8,69,9708 <__printf_float_impl+0x3ce>
    9544:	01850023          	sb	s8,0(a0)
    9548:	4772                	c.lwsp	a4,28(sp)
    954a:	02d00793          	li	a5,45
    954e:	00074463          	bltz	a4,9556 <__printf_float_impl+0x21c>
    9552:	02b00793          	li	a5,43
    9556:	00f500a3          	sb	a5,1(a0)
    955a:	47f2                	c.lwsp	a5,28(sp)
    955c:	4689                	c.li	a3,2
    955e:	40f00733          	neg	a4,a5
    9562:	f2f7077f          	maxw	a4,a4,a5
    9566:	41f75793          	srai	a5,a4,0x1f
    956a:	4601                	c.li	a2,0
    956c:	45a9                	c.li	a1,10
    956e:	0509                	c.addi	a0,2
    9570:	863ff0ef          	jal	ra,8dd2 <__print_integral>
    9574:	bd81                	c.j	93c4 <__printf_float_impl+0x8a>
    9576:	06804363          	bgtz	s0,95dc <__printf_float_impl+0x2a2>
    957a:	40800433          	neg	s0,s0
    957e:	00445b93          	srli	s7,s0,0x4
    9582:	001b9d93          	slli	s11,s7,0x1
    9586:	866e                	c.mv	a2,s11
    9588:	4581                	c.li	a1,0
    958a:	1128                	c.addi4spn	a0,sp,168
    958c:	cc6ff0ef          	jal	ra,8a52 <memset>
    9590:	112c                	c.addi4spn	a1,sp,168
    9592:	883d                	c.andi	s0,15
    9594:	9dae                	c.add	s11,a1
    9596:	02540413          	addi	s0,s0,37
    959a:	876e                	c.mv	a4,s11
    959c:	4c81                	c.li	s9,0
    959e:	001c8793          	addi	a5,s9,1
    95a2:	8622                	c.mv	a2,s0
    95a4:	8556                	c.mv	a0,s5
    95a6:	85ea                	c.mv	a1,s10
    95a8:	c63a                	c.swsp	a4,12(sp)
    95aa:	c43e                	c.swsp	a5,8(sp)
    95ac:	2c81                	c.jal	97fc <__lshrdi3>
    95ae:	4732                	c.lwsp	a4,12(sp)
    95b0:	1441                	c.addi	s0,-16
    95b2:	00a71023          	sh	a0,0(a4)
    95b6:	47a2                	c.lwsp	a5,8(sp)
    95b8:	0709                	c.addi	a4,2
    95ba:	00045f63          	bgez	s0,95d8 <__printf_float_impl+0x29e>
    95be:	0afd8ddb          	lea.h	s11,s11,a5
    95c2:	40800633          	neg	a2,s0
    95c6:	8556                	c.mv	a0,s5
    95c8:	85ea                	c.mv	a1,s10
    95ca:	0c89                	c.addi	s9,2
    95cc:	2485                	c.jal	982c <__ashldi3>
    95ce:	9cde                	c.add	s9,s7
    95d0:	00ad9023          	sh	a0,0(s11) # 100000 <FLASH_SIZE>
    95d4:	4b81                	c.li	s7,0
    95d6:	b549                	c.j	9458 <__printf_float_impl+0x11e>
    95d8:	8cbe                	c.mv	s9,a5
    95da:	b7d1                	c.j	959e <__printf_float_impl+0x264>
    95dc:	03500613          	li	a2,53
    95e0:	8e01                	c.sub	a2,s0
    95e2:	85ee                	c.mv	a1,s11
    95e4:	2c21                	c.jal	97fc <__lshrdi3>
    95e6:	1010                	c.addi4spn	a2,sp,32
    95e8:	ca5ff0ef          	jal	ra,928c <__int_to_poly>
    95ec:	02500793          	li	a5,37
    95f0:	8baa                	c.mv	s7,a0
    95f2:	40878433          	sub	s0,a5,s0
    95f6:	0a810d13          	addi	s10,sp,168
    95fa:	4c81                	c.li	s9,0
    95fc:	0c85                	c.addi	s9,1
    95fe:	00045a63          	bgez	s0,9612 <__printf_float_impl+0x2d8>
    9602:	40800633          	neg	a2,s0
    9606:	8556                	c.mv	a0,s5
    9608:	85ee                	c.mv	a1,s11
    960a:	240d                	c.jal	982c <__ashldi3>
    960c:	00ad1023          	sh	a0,0(s10)
    9610:	b5a1                	c.j	9458 <__printf_float_impl+0x11e>
    9612:	8622                	c.mv	a2,s0
    9614:	8556                	c.mv	a0,s5
    9616:	85ee                	c.mv	a1,s11
    9618:	22d5                	c.jal	97fc <__lshrdi3>
    961a:	1441                	c.addi	s0,-16
    961c:	00ad1023          	sh	a0,0(s10)
    9620:	0d09                	c.addi	s10,2
    9622:	bfe9                	c.j	95fc <__printf_float_impl+0x2c2>
    9624:	0005d303          	lhu	t1,0(a1)
    9628:	187d                	c.addi	a6,-1
    962a:	c48317ff          	maddr32	a5,t1,s0
    962e:	00f59023          	sh	a5,0(a1)
    9632:	83c1                	c.srli	a5,0x10
    9634:	bd8d                	c.j	94a6 <__printf_float_impl+0x16c>
    9636:	177d                	c.addi	a4,-1
    9638:	4b81                	c.li	s7,0
    963a:	bd41                	c.j	94ca <__printf_float_impl+0x190>
    963c:	8726                	c.mv	a4,s1
    963e:	ea6c585b          	beqc	s8,70,94ee <__printf_float_impl+0x1b4>
    9642:	47f2                	c.lwsp	a5,28(sp)
    9644:	001b0613          	addi	a2,s6,1
    9648:	02f04463          	bgtz	a5,9670 <__printf_float_impl+0x336>
    964c:	c785                	c.beqz	a5,9674 <__printf_float_impl+0x33a>
    964e:	40f507b3          	sub	a5,a0,a5
    9652:	02d7e963          	bltu	a5,a3,9684 <__printf_float_impl+0x34a>
    9656:	001b0783          	lb	a5,1(s6)
    965a:	00fb0023          	sb	a5,0(s6)
    965e:	a819                	c.j	9674 <__printf_float_impl+0x33a>
    9660:	04500c13          	li	s8,69
    9664:	bff9                	c.j	9642 <__printf_float_impl+0x308>
    9666:	fff50783          	lb	a5,-1(a0)
    966a:	157d                	c.addi	a0,-1
    966c:	00f500a3          	sb	a5,1(a0)
    9670:	fec51be3          	bne	a0,a2,9666 <__printf_float_impl+0x32c>
    9674:	02e00793          	li	a5,46
    9678:	001b0513          	addi	a0,s6,1
    967c:	00fb00a3          	sb	a5,1(s6)
    9680:	84ba                	c.mv	s1,a4
    9682:	b5b5                	c.j	94ee <__printf_float_impl+0x1b4>
    9684:	0785                	c.addi	a5,1
    9686:	fff7c603          	lbu	a2,-1(a5)
    968a:	0505                	c.addi	a0,1
    968c:	fec50fa3          	sb	a2,-1(a0)
    9690:	b7c9                	c.j	9652 <__printf_float_impl+0x318>
    9692:	167d                	c.addi	a2,-1
    9694:	00064703          	lbu	a4,0(a2)
    9698:	a6e758db          	beqc	a4,46,9508 <__printf_float_impl+0x1ce>
    969c:	0705                	c.addi	a4,1
    969e:	0ff77713          	andi	a4,a4,255
    96a2:	00875663          	bge	a4,s0,96ae <__printf_float_impl+0x374>
    96a6:	00e60023          	sb	a4,0(a2)
    96aa:	4681                	c.li	a3,0
    96ac:	bdb1                	c.j	9508 <__printf_float_impl+0x1ce>
    96ae:	8f01                	c.sub	a4,s0
    96b0:	00e60023          	sb	a4,0(a2)
    96b4:	bd91                	c.j	9508 <__printf_float_impl+0x1ce>
    96b6:	873e                	c.mv	a4,a5
    96b8:	e4068ce3          	beqz	a3,9510 <__printf_float_impl+0x1d6>
    96bc:	02eb6363          	bltu	s6,a4,96e2 <__printf_float_impl+0x3a8>
    96c0:	4705                	c.li	a4,1
    96c2:	00eb0023          	sb	a4,0(s6)
    96c6:	4772                	c.lwsp	a4,28(sp)
    96c8:	0705                	c.addi	a4,1
    96ca:	ce3a                	c.swsp	a4,28(sp)
    96cc:	426c515b          	beqc	s8,70,96ee <__printf_float_impl+0x3b4>
    96d0:	001b0703          	lb	a4,1(s6)
    96d4:	00eb0123          	sb	a4,2(s6)
    96d8:	02e00713          	li	a4,46
    96dc:	00eb00a3          	sb	a4,1(s6)
    96e0:	bd05                	c.j	9510 <__printf_float_impl+0x1d6>
    96e2:	fff70683          	lb	a3,-1(a4)
    96e6:	177d                	c.addi	a4,-1
    96e8:	00d700a3          	sb	a3,1(a4)
    96ec:	bfc1                	c.j	96bc <__printf_float_impl+0x382>
    96ee:	87aa                	c.mv	a5,a0
    96f0:	b505                	c.j	9510 <__printf_float_impl+0x1d6>
    96f2:	000b4783          	lbu	a5,0(s6)
    96f6:	00f6e763          	bltu	a3,a5,9704 <__printf_float_impl+0x3ca>
    96fa:	97ba                	c.add	a5,a4
    96fc:	00078783          	lb	a5,0(a5)
    9700:	00fb0023          	sb	a5,0(s6)
    9704:	0b05                	c.addi	s6,1
    9706:	bd1d                	c.j	953c <__printf_float_impl+0x202>
    9708:	ca1c6e5b          	bnec	s8,65,93c4 <__printf_float_impl+0x8a>
    970c:	05000793          	li	a5,80
    9710:	00f50023          	sb	a5,0(a0)
    9714:	4772                	c.lwsp	a4,28(sp)
    9716:	02d00793          	li	a5,45
    971a:	00074463          	bltz	a4,9722 <__printf_float_impl+0x3e8>
    971e:	02b00793          	li	a5,43
    9722:	00f500a3          	sb	a5,1(a0)
    9726:	47f2                	c.lwsp	a5,28(sp)
    9728:	4685                	c.li	a3,1
    972a:	40f00733          	neg	a4,a5
    972e:	f2f7077f          	maxw	a4,a4,a5
    9732:	070a                	c.slli	a4,0x2
    9734:	41f75793          	srai	a5,a4,0x1f
    9738:	bd0d                	c.j	956a <__printf_float_impl+0x230>
	...

0000973c <strcpy>:
    973c:	00b567b3          	or	a5,a0,a1
    9740:	8b8d                	c.andi	a5,3
    9742:	e3ad                	c.bnez	a5,97a4 <strcpy+0x68>
    9744:	4198                	c.lw	a4,0(a1)
    9746:	200707db          	ffb	a5,a4,zero
    974a:	e3a9                	c.bnez	a5,978c <strcpy+0x50>
    974c:	00a007b3          	add	a5,zero,a0
    9750:	0591                	c.addi	a1,4
    9752:	0791                	c.addi	a5,4
    9754:	fee7ae23          	sw	a4,-4(a5)
    9758:	4198                	c.lw	a4,0(a1)
    975a:	200706db          	ffb	a3,a4,zero
    975e:	daed                	c.beqz	a3,9750 <strcpy+0x14>
    9760:	0005c703          	lbu	a4,0(a1)
    9764:	0015c683          	lbu	a3,1(a1)
    9768:	0025c603          	lbu	a2,2(a1)
    976c:	00e78023          	sb	a4,0(a5)
    9770:	00070863          	beqz	a4,9780 <strcpy+0x44>
    9774:	00d780a3          	sb	a3,1(a5)
    9778:	c681                	c.beqz	a3,9780 <strcpy+0x44>
    977a:	00c78123          	sb	a2,2(a5)
    977e:	e219                	c.bnez	a2,9784 <strcpy+0x48>
    9780:	00008067          	ret
    9784:	000781a3          	sb	zero,3(a5)
    9788:	00008067          	ret
    978c:	0005c703          	lbu	a4,0(a1)
    9790:	87aa                	c.mv	a5,a0
    9792:	0015c683          	lbu	a3,1(a1)
    9796:	0025c603          	lbu	a2,2(a1)
    979a:	00e78023          	sb	a4,0(a5)
    979e:	fb79                	c.bnez	a4,9774 <strcpy+0x38>
    97a0:	fe1ff06f          	j	9780 <strcpy+0x44>
    97a4:	00a007b3          	add	a5,zero,a0
    97a8:	0005c703          	lbu	a4,0(a1)
    97ac:	0785                	c.addi	a5,1
    97ae:	fee78fa3          	sb	a4,-1(a5)
    97b2:	0585                	c.addi	a1,1
    97b4:	fb75                	c.bnez	a4,97a8 <strcpy+0x6c>
    97b6:	8082                	c.jr	ra
    97b8:	0001                	c.nop

000097ba <strnlen>:
    97ba:	95aa                	c.add	a1,a0
    97bc:	87aa                	c.mv	a5,a0
    97be:	00b78563          	beq	a5,a1,97c8 <strnlen+0xe>
    97c2:	0007c703          	lbu	a4,0(a5)
    97c6:	e701                	c.bnez	a4,97ce <strnlen+0x14>
    97c8:	40a78533          	sub	a0,a5,a0
    97cc:	8082                	c.jr	ra
    97ce:	0785                	c.addi	a5,1
    97d0:	b7fd                	c.j	97be <strnlen+0x4>

000097d2 <_sbrk>:
    97d2:	ca7fa72b          	lwgp	a4,-860 # 804a4 <heap_end.2408>
    97d6:	ca5f978b          	addigp	a5,-860 # 804a4 <heap_end.2408>
    97da:	e701                	c.bnez	a4,97e2 <_sbrk+0x10>
    97dc:	cd1f970b          	addigp	a4,-816 # 804d0 <_end>
    97e0:	c398                	c.sw	a4,0(a5)
    97e2:	4398                	c.lw	a4,0(a5)
    97e4:	953a                	c.add	a0,a4
    97e6:	00a17763          	bgeu	sp,a0,97f4 <_sbrk+0x22>
    97ea:	4731                	c.li	a4,12
    97ec:	c8efcfab          	swgp	a4,-868 # 8049c <__mculib_REENT_errno>
    97f0:	557d                	c.li	a0,-1
    97f2:	8082                	c.jr	ra
    97f4:	c388                	c.sw	a0,0(a5)
    97f6:	853a                	c.mv	a0,a4
    97f8:	8082                	c.jr	ra
	...

000097fc <__lshrdi3>:
    97fc:	ce11                	c.beqz	a2,9818 <__lshrdi3+0x1c>
    97fe:	02000793          	li	a5,32
    9802:	8f91                	c.sub	a5,a2
    9804:	00f05c63          	blez	a5,981c <__lshrdi3+0x20>
    9808:	00c55533          	srl	a0,a0,a2
    980c:	00f597b3          	sll	a5,a1,a5
    9810:	00c5d633          	srl	a2,a1,a2
    9814:	8d5d                	c.or	a0,a5
    9816:	85b2                	c.mv	a1,a2
    9818:	00008067          	ret
    981c:	40f00533          	neg	a0,a5
    9820:	4601                	c.li	a2,0
    9822:	00a5d533          	srl	a0,a1,a0
    9826:	85b2                	c.mv	a1,a2
    9828:	bfc5                	c.j	9818 <__lshrdi3+0x1c>
    982a:	0001                	c.nop

0000982c <__ashldi3>:
    982c:	ce11                	c.beqz	a2,9848 <__ashldi3+0x1c>
    982e:	02000793          	li	a5,32
    9832:	8f91                	c.sub	a5,a2
    9834:	00f05c63          	blez	a5,984c <__ashldi3+0x20>
    9838:	00c595b3          	sll	a1,a1,a2
    983c:	00f557b3          	srl	a5,a0,a5
    9840:	00c51633          	sll	a2,a0,a2
    9844:	8ddd                	c.or	a1,a5
    9846:	8532                	c.mv	a0,a2
    9848:	00008067          	ret
    984c:	40f005b3          	neg	a1,a5
    9850:	4601                	c.li	a2,0
    9852:	00b515b3          	sll	a1,a0,a1
    9856:	8532                	c.mv	a0,a2
    9858:	bfc5                	c.j	9848 <__ashldi3+0x1c>
    985a:	0001                	c.nop

0000985c <__riscv_save_12>:
    985c:	7139                	c.addi16sp	sp,-64
    985e:	4301                	c.li	t1,0
    9860:	c66e                	c.swsp	s11,12(sp)
    9862:	a019                	c.j	9868 <__riscv_save_10+0x4>

00009864 <__riscv_save_10>:
    9864:	7139                	c.addi16sp	sp,-64
    9866:	5341                	c.li	t1,-16
    9868:	c86a                	c.swsp	s10,16(sp)
    986a:	ca66                	c.swsp	s9,20(sp)
    986c:	cc62                	c.swsp	s8,24(sp)
    986e:	ce5e                	c.swsp	s7,28(sp)
    9870:	a019                	c.j	9876 <__riscv_save_4+0x4>

00009872 <__riscv_save_4>:
    9872:	7139                	c.addi16sp	sp,-64
    9874:	5301                	c.li	t1,-32
    9876:	d05a                	c.swsp	s6,32(sp)
    9878:	d256                	c.swsp	s5,36(sp)
    987a:	d452                	c.swsp	s4,40(sp)
    987c:	d64e                	c.swsp	s3,44(sp)
    987e:	d84a                	c.swsp	s2,48(sp)
    9880:	da26                	c.swsp	s1,52(sp)
    9882:	dc22                	c.swsp	s0,56(sp)
    9884:	de06                	c.swsp	ra,60(sp)
    9886:	40610133          	sub	sp,sp,t1
    988a:	8282                	c.jr	t0

0000988c <__riscv_save_0>:
    988c:	1141                	c.addi	sp,-16
    988e:	c04a                	c.swsp	s2,0(sp)
    9890:	c226                	c.swsp	s1,4(sp)
    9892:	c422                	c.swsp	s0,8(sp)
    9894:	c606                	c.swsp	ra,12(sp)
    9896:	8282                	c.jr	t0

00009898 <__riscv_restore_12>:
    9898:	4db2                	c.lwsp	s11,12(sp)
    989a:	0141                	c.addi	sp,16

0000989c <__riscv_restore_10>:
    989c:	4d02                	c.lwsp	s10,0(sp)
    989e:	4c92                	c.lwsp	s9,4(sp)
    98a0:	4c22                	c.lwsp	s8,8(sp)
    98a2:	4bb2                	c.lwsp	s7,12(sp)
    98a4:	0141                	c.addi	sp,16

000098a6 <__riscv_restore_4>:
    98a6:	4b02                	c.lwsp	s6,0(sp)
    98a8:	4a92                	c.lwsp	s5,4(sp)
    98aa:	4a22                	c.lwsp	s4,8(sp)
    98ac:	49b2                	c.lwsp	s3,12(sp)
    98ae:	0141                	c.addi	sp,16

000098b0 <__riscv_restore_0>:
    98b0:	4902                	c.lwsp	s2,0(sp)
    98b2:	4492                	c.lwsp	s1,4(sp)
    98b4:	4422                	c.lwsp	s0,8(sp)
    98b6:	40b2                	c.lwsp	ra,12(sp)
    98b8:	0141                	c.addi	sp,16
    98ba:	8082                	c.jr	ra
    98bc:	0010                	0x10
    98be:	0000                	unimp
    98c0:	0000                	unimp
    98c2:	0000                	unimp
    98c4:	7a01                	c.lui	s4,0xfffe0
    98c6:	0052                	c.slli	zero,0x14
    98c8:	7c01                	c.lui	s8,0xfffe0
    98ca:	0105                	c.addi	sp,1
    98cc:	00020d1b          	sext.w	s10,tp
    98d0:	0048                	c.addi4spn	a0,sp,4
    98d2:	0000                	unimp
    98d4:	0018                	0x18
    98d6:	0000                	unimp
    98d8:	ff84                	c.fsw	fs1,56(a5)
    98da:	0030ffff          	0x30ffff
    98de:	0000                	unimp
    98e0:	4200                	c.lw	s0,0(a2)
    98e2:	400e                	0x400e
    98e4:	9b44                	exec.it	#876     !
    98e6:	420d                	c.li	tp,3
    98e8:	400e42db          	0x400e42db
    98ec:	9a44                	exec.it	#364     !
    98ee:	420c                	c.lw	a1,0(a2)
    98f0:	0b99                	c.addi	s7,6
    98f2:	9842                	c.add	a6,a6
    98f4:	420a                	c.lwsp	tp,128(sp)
    98f6:	d7420997          	auipc	s3,0xd7420
    98fa:	d9d8                	c.sw	a4,52(a1)
    98fc:	dbda                	c.swsp	s6,244(sp)
    98fe:	0e42                	c.slli	t3,0x10
    9900:	4440                	c.lw	s0,12(s0)
    9902:	0896                	c.slli	a7,0x5
    9904:	9542                	c.add	a0,a6
    9906:	06944207          	flq	ft4,105(s0)
    990a:	9342                	c.add	t1,a6
    990c:	4205                	c.li	tp,1
    990e:	0492                	c.slli	s1,0x4
    9910:	8942                	c.mv	s2,a6
    9912:	02884203          	lbu	tp,40(a6)
    9916:	8142                	c.mv	sp,a6
    9918:	0001                	c.nop
    991a:	0000                	unimp
    991c:	001c                	0x1c
    991e:	0000                	unimp
    9920:	0064                	c.addi4spn	s1,sp,12
    9922:	0000                	unimp
    9924:	ff68                	c.fsw	fa0,124(a4)
    9926:	000cffff          	0xcffff
    992a:	0000                	unimp
    992c:	4200                	c.lw	s0,0(a2)
    992e:	100e                	c.slli	zero,0x23
    9930:	8944                	exec.it	#556     !
    9932:	4204                	c.lw	s1,0(a2)
    9934:	0288                	c.addi4spn	a0,sp,320
    9936:	8142                	c.mv	sp,a6
    9938:	0001                	c.nop
    993a:	0000                	unimp
    993c:	002c                	c.addi4spn	a1,sp,8
    993e:	0000                	unimp
    9940:	0000                	unimp
    9942:	0000                	unimp
    9944:	7a01                	c.lui	s4,0xfffe0
    9946:	0052                	c.slli	zero,0x14
    9948:	7c01                	c.lui	s8,0xfffe0
    994a:	0101                	c.addi	sp,0
    994c:	0e020d1b          	addiw	s10,tp,224
    9950:	9b40                	exec.it	#868     !
    9952:	9a0d                	c.andi	a2,-29
    9954:	990c                	exec.it	#908     !
    9956:	970a980b          	addigp	a6,-77456 # 6d970 <BIN_SIZE+0x639da>
    995a:	9609                	c.srai	a2,0x22
    995c:	9508                	exec.it	#898     !
    995e:	93069407          	flh	fs0,-1744(a3)
    9962:	9205                	c.srli	a2,0x21
    9964:	8904                	exec.it	#524     !
    9966:	81028803          	lb	a6,-2032(t0) # 82f2 <riscv_nn_vec_mat_mult_t_s8+0xb82>
    996a:	0001                	c.nop
    996c:	0044                	c.addi4spn	s1,sp,4
    996e:	0000                	unimp
    9970:	0034                	c.addi4spn	a3,sp,8
    9972:	0000                	unimp
    9974:	ff24                	c.fsw	fs1,120(a4)
    9976:	0024ffff          	0x24ffff
    997a:	0000                	unimp
    997c:	4200                	c.lw	s0,0(a2)
    997e:	0edb42db          	0xedb42db
    9982:	4230                	c.lw	a2,64(a2)
    9984:	42da                	c.lwsp	t0,148(sp)
    9986:	42d9                	c.li	t0,22
    9988:	42d8                	c.lw	a4,4(a3)
    998a:	d8d742d7          	0xd8d742d7
    998e:	dad9                	c.beqz	a3,9924 <__riscv_restore_0+0x74>
    9990:	42200edb          	0x42200edb
    9994:	42d6                	c.lwsp	t0,84(sp)
    9996:	42d5                	c.li	t0,21
    9998:	42d4                	c.lw	a3,4(a3)
    999a:	d4d342d3          	0xd4d342d3
    999e:	d6d5                	c.beqz	a3,994a <__riscv_restore_0+0x9a>
    99a0:	d9d8                	c.sw	a4,52(a1)
    99a2:	dbda                	c.swsp	s6,244(sp)
    99a4:	100e                	c.slli	zero,0x23
    99a6:	d242                	c.swsp	a6,36(sp)
    99a8:	c942                	c.swsp	a6,144(sp)
    99aa:	c842                	c.swsp	a6,16(sp)
    99ac:	c142                	c.swsp	a6,128(sp)
    99ae:	0e42                	c.slli	t3,0x10
    99b0:	0000                	unimp
	...
