
RV_NN_KWS_DSCNN_MEDIUM.adx:     file format elf32-littleriscv
RV_NN_KWS_DSCNN_MEDIUM.adx
architecture: riscv:rv32, flags 0x00000112:
EXEC_P, HAS_SYMS, D_PAGED
start address 0x20000000

Program Header:
    LOAD off    0x00001000 vaddr 0x20000000 paddr 0x20000000 align 2**12
         filesz 0x0000018a memsz 0x0000018a flags r-x
    LOAD off    0x00002000 vaddr 0x00000000 paddr 0x20000190 align 2**12
         filesz 0x000001bc memsz 0x000001bc flags rwx
    LOAD off    0x00002200 vaddr 0x00000200 paddr 0x20000350 align 2**12
         filesz 0x000097b4 memsz 0x000097b4 flags r-x
    LOAD off    0x0000c000 vaddr 0x00080000 paddr 0x20009b08 align 2**12
         filesz 0x0000046c memsz 0x0000046c flags rw-
    LOAD off    0x0000c4a8 vaddr 0x000804a8 paddr 0x20009f74 align 2**12
         filesz 0x00000022 memsz 0x00000022 flags rw-
    LOAD off    0x0000d470 vaddr 0x00080470 paddr 0x20009f78 align 2**12
         filesz 0x00000000 memsz 0x00000038 flags rw-
0x70000000 off    0x0001c785 vaddr 0x00000000 paddr 0x00000000 align 2**0
         filesz 0x00000040 memsz 0x00000000 flags r--

Sections:
Idx Name          Size      VMA       LMA       File off  Algn
  0 .vectors      0000018a  20000000  20000000  00001000  2**2
                  CONTENTS, ALLOC, LOAD, READONLY, CODE
  1 .retention_reset 00000154  00000000  20000190  00002000  2**2
                  CONTENTS, ALLOC, LOAD, READONLY, CODE
  2 .retention_data 00000064  00000158  200002e8  00002158  2**2
                  CONTENTS, ALLOC, LOAD, DATA
  3 .ram_code     000097b4  00000200  20000350  00002200  2**8
                  CONTENTS, ALLOC, LOAD, READONLY, CODE
  4 .data         0000046c  00080000  20009b08  0000c000  2**3
                  CONTENTS, ALLOC, LOAD, DATA
  5 .sbss         00000038  00080470  20009f78  0000d470  2**2
                  ALLOC
  6 .bss          00000000  000804a8  20009f74  0000d470  2**2
                  ALLOC
  7 .sdk_version  00000022  000804a8  20009f74  0000c4a8  2**2
                  CONTENTS, ALLOC, LOAD, DATA
  8 .debug_info   000067a3  00000000  00000000  0000c4ca  2**0
                  CONTENTS, READONLY, DEBUGGING
  9 .debug_abbrev 00000a23  00000000  00000000  00012c6d  2**0
                  CONTENTS, READONLY, DEBUGGING
 10 .debug_loc    000024ae  00000000  00000000  00013690  2**0
                  CONTENTS, READONLY, DEBUGGING
 11 .debug_aranges 000001a0  00000000  00000000  00015b40  2**3
                  CONTENTS, READONLY, DEBUGGING
 12 .debug_ranges 000009e8  00000000  00000000  00015ce0  2**3
                  CONTENTS, READONLY, DEBUGGING
 13 .debug_line   000035fb  00000000  00000000  000166c8  2**0
                  CONTENTS, READONLY, DEBUGGING
 14 .debug_str    00002a79  00000000  00000000  00019cc3  2**0
                  CONTENTS, READONLY, DEBUGGING
 15 .comment      00000049  00000000  00000000  0001c73c  2**0
                  CONTENTS, READONLY
 16 .riscv.attributes 00000040  00000000  00000000  0001c785  2**0
                  CONTENTS, READONLY
 17 .debug_frame  000004a0  00000000  00000000  0001c7c8  2**2
                  CONTENTS, READONLY, DEBUGGING
SYMBOL TABLE:
20000000 l    d  .vectors	00000000 .vectors
00000000 l    d  .retention_reset	00000000 .retention_reset
00000158 l    d  .retention_data	00000000 .retention_data
00000200 l    d  .ram_code	00000000 .ram_code
00080000 l    d  .data	00000000 .data
00080470 l    d  .sbss	00000000 .sbss
000804a8 l    d  .bss	00000000 .bss
000804a8 l    d  .sdk_version	00000000 .sdk_version
00000000 l    d  .debug_info	00000000 .debug_info
00000000 l    d  .debug_abbrev	00000000 .debug_abbrev
00000000 l    d  .debug_loc	00000000 .debug_loc
00000000 l    d  .debug_aranges	00000000 .debug_aranges
00000000 l    d  .debug_ranges	00000000 .debug_ranges
00000000 l    d  .debug_line	00000000 .debug_line
00000000 l    d  .debug_str	00000000 .debug_str
00000000 l    d  .comment	00000000 .comment
00000000 l    d  .riscv.attributes	00000000 .riscv.attributes
00000000 l    d  .debug_frame	00000000 .debug_frame
00000000 l    df *ABS*	00000000 ./boot/cstartup_flash.o
20000028 l       .vectors	00000000 _START
2000008e l       .vectors	00000000 _RETENTION_RESET_INIT
200000a6 l       .vectors	00000000 _RETENTION_RESET_BEGIN
200000b8 l       .vectors	00000000 _RETENTION_DATA_INIT
200000cc l       .vectors	00000000 _RETENTION_DATA_INIT_BEGIN
200000de l       .vectors	00000000 _RAMCODE_INIT
200000f6 l       .vectors	00000000 _RAMCODE_INIT_BEGIN
20000108 l       .vectors	00000000 _DATA_INIT
20000120 l       .vectors	00000000 _DATA_INIT_BEGIN
20000132 l       .vectors	00000000 _ZERO_BSS
20000146 l       .vectors	00000000 _ZERO_BSS_BEGIN
20000152 l       .vectors	00000000 _ZERO_AES
20000166 l       .vectors	00000000 _ZERO_AES_BEGIN
20000172 l       .vectors	00000000 _FILL_STK
20000172 l       .vectors	00000000 _MAIN_FUNC
20000188 l       .vectors	00000000 _END
00000022 l       .retention_reset	00000000 _ISTART
0000002a l       .retention_reset	00000000 _ISWS_USB_DIS
00000088 l       .retention_reset	00000000 _WAKEUP_FLASH
000000a2 l       .retention_reset	00000000 _MSPI_WAIT
000000bc l       .retention_reset	00000000 _WAIT_EFUSE_LOAD_AND_FLASH_WAKEUP_FINISH
000000c2 l       .retention_reset	00000000 _MULTI_ADDRESS_BEGIN
000000d2 l       .retention_reset	00000000 _IZERO_BSS
000000e6 l       .retention_reset	00000000 _IZERO_BSS_BEGIN
000000f2 l       .retention_reset	00000000 _IZERO_AES
00000106 l       .retention_reset	00000000 _IZERO_AES_BEGIN
00000112 l       .retention_reset	00000000 _IFILL_STK
00000112 l       .retention_reset	00000000 _IDATA_INIT
0000012a l       .retention_reset	00000000 _IDATA_INIT_BEGIN
0000013c l       .retention_reset	00000000 _IMAIN_FUNC
00000152 l       .retention_reset	00000000 _IEND
00000040 l       *ABS*	00000000 irqno
00000000 l    df *ABS*	00000000 
00000200 l     F .ram_code	00000020 delay_ms.constprop.12
0000140c l     F .ram_code	000000fc user_calib_adc_vref.constprop.9
00000220 l     F .ram_code	00000044 flash_send_addr
00000264 l     F .ram_code	00000048 flash_send_cmd
000002ac l     F .ram_code	00000060 clock_set_32k_tick
0000030c l     F .ram_code	0000004c analog_read_reg32.constprop.4
00000358 l     F .ram_code	00000024 clock_get_32k_tick
0000037c l     F .ram_code	00000094 pm_stimer_recover
00000410 l     F .ram_code	00000058 plic_exit_critical_sec
00000468 l     F .ram_code	00000060 plic_enter_critical_sec
000004c8 l     F .ram_code	00000180 flash_mspi_read_ram
00001204 l     F .ram_code	00000028 flash_read_uid.constprop.6
0000122c l     F .ram_code	00000028 flash_read_mid
00001254 l     F .ram_code	00000168 flash_read_mid_uid_with_check
00000648 l     F .ram_code	0000014c flash_mspi_read_ram.constprop.7
000013bc l     F .ram_code	00000020 flash_dread
00000794 l     F .ram_code	00000044 analog_write_reg8
000007d8 l     F .ram_code	0000004c analog_read_reg8
00000824 l     F .ram_code	00000140 clock_init_ram.constprop.11
000013dc l     F .ram_code	00000018 clock_init.constprop.10
00001508 l     F .ram_code	00000054 user_calib_freq_offset.constprop.8
00000964 l     F .ram_code	000000b4 pm_wait_bbpll_done
00000a18 l     F .ram_code	00000194 pm_sleep_start
00000bac l     F .ram_code	00000120 dr_putchar
00001560 l     F .ram_code	00000018 gpio_input_dis
00000ccc l     F .ram_code	0000030c pm_sleep_wakeup_ram.constprop.3
000013f4 l     F .ram_code	00000016 pm_sleep_wakeup.constprop.2
0000157c l     F .ram_code	000000dc fill_dummy_data
00000158 l     O .retention_data	00000004 flash_read_page
0000015c l     O .retention_data	00000001 g_pm_long_suspend
00000160 l     O .retention_data	00000004 g_pm_tick_cur
00000164 l     O .retention_data	00000029 pmcd
00000190 l     O .retention_data	00000004 g_pm_tick_32k_calib
00000194 l     O .retention_data	00000001 g_plic_preempt_en
00000198 l     O .retention_data	00000002 s_flash_preempt_config
0000019a l     O .retention_data	00000001 g_pm_suspend_power_cfg
0000019c l     O .retention_data	00000008 g_pm_early_wakeup_time_us
000001a4 l     O .retention_data	00000004 g_pm_tick_32k_cur
000001a8 l     O .retention_data	00000001 g_pm_tick_update_en
000001ac l     O .retention_data	00000004 g_pm_r_delay_cycle
000001b0 l     O .retention_data	00000008 g_pm_longsleep_early_wakeup_time_us
00080470 l     O .sbss	00000004 exception_mcause
00080474 l     O .sbss	00000004 exception_mdcause
00080478 l     O .sbss	00000004 exception_mepc
0008047c l     O .sbss	00000004 exception_mstatus
00080480 l     O .sbss	00000004 exception_mtval
00080484 l     O .sbss	00000004 g_chip_version
00080488 l     O .sbss	00000004 g_pm_status_info
00080450 l     O .data	00000001 init_flag.4915
00080454 l     O .data	00000006 sys_clk
000804a8 l     O .sdk_version	00000022 sdk_version
00000000 l    df *ABS*	00000000 riscv_convolve_wrapper_s8.c.o
00002700 l       .ram_code	00000000 $x
00000000 l    df *ABS*	00000000 riscv_convolve_1x1_s8_fast.c.o
00002854 l       .ram_code	00000000 $x
00000000 l    df *ABS*	00000000 riscv_convolve_s8.c.o
00002b94 l       .ram_code	00000000 $x
00000000 l    df *ABS*	00000000 riscv_nn_mat_mult_kernel_s8_s16.c.o
0000330c l       .ram_code	00000000 $x
00000000 l    df *ABS*	00000000 riscv_convolve_get_buffer_sizes_s8.c.o
000037e0 l       .ram_code	00000000 $x
00000000 l    df *ABS*	00000000 riscv_depthwise_conv_get_buffer_sizes_s8.c.o
00003870 l       .ram_code	00000000 $x
00003884 l       .ram_code	00000000 $x
00000000 l    df *ABS*	00000000 riscv_nn_mat_mult_kernel_row_offset_s8_s16.c.o
000038d8 l       .ram_code	00000000 $x
00000000 l    df *ABS*	00000000 riscv_convolve_1x1_s8.c.o
00003dbc l       .ram_code	00000000 $x
00000000 l    df *ABS*	00000000 riscv_depthwise_conv_wrapper_s8.c.o
00003ee0 l       .ram_code	00000000 $x
00000000 l    df *ABS*	00000000 riscv_convolve_1_x_n_s8.c.o
00003fb8 l       .ram_code	00000000 $x
00000000 l    df *ABS*	00000000 riscv_nn_mat_mult_nt_t_s8.c.o
0000400c l       .ram_code	00000000 $x
00000000 l    df *ABS*	00000000 riscv_s8_to_s16_unordered_with_offset.c.o
00004d50 l       .ram_code	00000000 $x
00000000 l    df *ABS*	00000000 riscv_avgpool_get_buffer_sizes_s8.c.o
00004dd4 l       .ram_code	00000000 $x
00000000 l    df *ABS*	00000000 riscv_avgpool_s8.c.o
00004ddc l       .ram_code	00000000 $x
00000000 l    df *ABS*	00000000 riscv_fully_connected_s8.c.o
00004fd8 l       .ram_code	00000000 $x
00000000 l    df *ABS*	00000000 riscv_fully_connected_get_buffer_sizes_s8.c.o
0000507c l       .ram_code	00000000 $x
00000000 l    df *ABS*	00000000 riscv_depthwise_conv_s8.c.o
00005080 l       .ram_code	00000000 $x
00005080 l     F .ram_code	000003be depthwise_conv_s8_mult_4
00005440 l       .ram_code	00000000 $x
00000000 l    df *ABS*	00000000 riscv_depthwise_conv_s8_opt.c.o
000058a8 l       .ram_code	00000000 $x
00000000 l    df *ABS*	00000000 riscv_depthwise_conv_3x3_s8.c.o
00005f88 l       .ram_code	00000000 $x
00000000 l    df *ABS*	00000000 riscv_nn_vec_mat_mult_t_s8.c.o
00007770 l       .ram_code	00000000 $x
00000000 l    df *ABS*	00000000 riscv_q7_to_q15_with_offset.c.o
000088d0 l       .ram_code	00000000 $x
00000000 l    df *ABS*	00000000 memcpy.c
00000000 l    df *ABS*	00000000 rand.c
00000000 l    df *ABS*	00000000 malloc.c
00000000 l    df *ABS*	00000000 nano-mallocr.c
00000000 l    df *ABS*	00000000 nano-mallocr.c
00000000 l    df *ABS*	00000000 printf.c
00000000 l    df *ABS*	00000000 puts.c
00000000 l    df *ABS*	00000000 strlen.c
00000000 l    df *ABS*	00000000 vprintf.c
00008d4c l     F .ram_code	0000003a __vprintf_help
00080494 l     O .sbss	00000004 __vprintf_buf
00080498 l     O .sbss	00000004 __vprintf_buf_len
00000000 l    df *ABS*	00000000 printf_impl.c
00000000 l    df *ABS*	00000000 printf_impl_float.c
00000000 l    df *ABS*	00000000 strcpy.c
00000000 l    df *ABS*	00000000 strnlen.c
00000000 l    df *ABS*	00000000 _sbrk.c
000804a4 l     O .sbss	00000004 heap_end.2408
00000000 l    df *ABS*	00000000 libgcc2.c
00000000 l    df *ABS*	00000000 libgcc2.c
00000000 l    df *ABS*	00000000 printf_data.c
00000000 l    df *ABS*	00000000 impure.c
000804a8 l     O .bss	00000000 impure_data
000026f8  w      .ram_code	00000000 entry_irq55
000026f8  w      .ram_code	00000000 entry_irq13
0000973c g     F .ram_code	0000007c strcpy
000026f8  w      .ram_code	00000000 entry_irq15
0000982c g     F .ram_code	0000002e .hidden __ashldi3
000026f8  w      .ram_code	00000000 entry_irq27
000026f8  w      .ram_code	00000000 entry_irq60
000026f8  w      .ram_code	00000000 entry_irq1
000026f8  w      .ram_code	00000000 entry_irq52
000026f8  w      .ram_code	00000000 entry_irq50
000026f8  w      .ram_code	00000000 entry_irq62
00008c98 g     F .ram_code	0000001e printf
00080800 g       .data	00000000 __global_pointer$
00009864 g       .ram_code	00000000 .hidden __riscv_save_8
000026f8  w      .ram_code	00000000 entry_irq58
000098b0 g       .ram_code	00000000 .hidden __riscv_restore_3
000088d0 g     F .ram_code	00000088 riscv_q7_to_q15_with_offset
000001bc g       .retention_data	00000000 _RETENTION_DATA_VMA_END
0000989c g       .ram_code	00000000 .hidden __riscv_restore_10
00009864 g       .ram_code	00000000 .hidden __riscv_save_11
00008dd2 g     F .ram_code	00000048 __print_integral
00000000 g       .retention_reset	00000000 _RETENTION_RESET_VMA_START
000026f8  w      .ram_code	00000000 entry_irq10
000026f8  w      .ram_code	00000000 entry_irq21
00000158 g       .retention_data	00000000 _AES_VMA_START
000026f8  w      .ram_code	00000000 entry_irq48
000098b0 g       .ram_code	00000000 .hidden __riscv_restore_2
000026f8  w      .ram_code	00000000 entry_irq8
000026f8  w      .ram_code	00000000 entry_irq33
000804a8 g       .bss	00000000 _BSS_VMA_END
00008958 g     F .ram_code	000000fa memcpy
20000190 g       *ABS*	00000000 _RETENTION_RESET_LMA_START
00080460 g     O .data	00000008 __mculib_REENT_rand_next
00008e1a g     F .ram_code	00000472 __printf_impl
000026f8  w      .ram_code	00000000 entry_irq12
00008cb6 g     F .ram_code	00000034 puts
00002700 g     F .ram_code	00000154 riscv_convolve_wrapper_s8
00008b38 g     F .ram_code	00000010 malloc
000026f8  w      .ram_code	00000000 entry_irq14
0000985c g       .ram_code	00000000 .hidden __riscv_save_12
000026f8  w      .ram_code	00000000 entry_irq2
000026f8  w      .ram_code	00000000 entry_irq51
0000989c g       .ram_code	00000000 .hidden __riscv_restore_11
00004ddc g     F .ram_code	000001fc riscv_avgpool_s8
000026f8  w      .ram_code	00000000 entry_irq28
000026f8  w      .ram_code	00000000 entry_irq43
0000988c g       .ram_code	00000000 .hidden __riscv_save_1
000098b0 g       .ram_code	00000000 .hidden __riscv_restore_0
000026f8  w      .ram_code	00000000 entry_irq20
00009872 g       .ram_code	00000000 .hidden __riscv_save_7
00080470 g       .sbss	00000000 _BSS_VMA_START
000026f8  w      .ram_code	00000000 entry_irq63
0008046c g       .data	00000000 _DATA_VMA_END
000026f8  w      .ram_code	00000000 entry_irq46
000026f8  w      .ram_code	00000000 entry_irq31
000026f8  w      .ram_code	00000000 entry_irq16
00100000 g       *ABS*	00000000 FLASH_SIZE
000098a6 g       .ram_code	00000000 .hidden __riscv_restore_5
00080000 g       .data	00000000 _DATA_VMA_START
00003ee0 g     F .ram_code	000000d8 riscv_depthwise_conv_wrapper_s8
000097d2  w    F .ram_code	00000028 _sbrk
000026f8  w      .ram_code	00000000 entry_irq53
000026f8  w      .ram_code	00000000 entry_irq11
00000154 g       .retention_reset	00000000 _RETENTION_RESET_VMA_END
000097ba g     F .ram_code	00000018 strnlen
000098a6 g       .ram_code	00000000 .hidden __riscv_restore_6
000026f8  w      .ram_code	00000000 entry_irq5
000026f8  w      .ram_code	00000000 entry_irq23
000026fa  w      .ram_code	00000000 trap_handler
000026f8  w      .ram_code	00000000 entry_irq34
000097fc g     F .ram_code	0000002e .hidden __lshrdi3
000026f8  w      .ram_code	00000000 entry_irq36
00004fd8 g     F .ram_code	000000a2 riscv_fully_connected_s8
00009864 g       .ram_code	00000000 .hidden __riscv_save_9
000026f8  w      .ram_code	00000000 entry_irq44
0000400c g     F .ram_code	00000d44 riscv_nn_mat_mult_nt_t_s8
00008d86 g     F .ram_code	0000004c vprintf
000026f8  w      .ram_code	00000000 entry_irq45
000026f8  w      .ram_code	00000000 entry_irq26
00009872 g       .ram_code	00000000 .hidden __riscv_save_4
000026f8  w      .ram_code	00000000 entry_irq41
00005440 g     F .ram_code	00000466 riscv_depthwise_conv_s8
00005f88 g     F .ram_code	000017e6 riscv_depthwise_conv_3x3_s8
000026f8  w      .ram_code	00000000 entry_irq61
20000000 g       .vectors	00000000 BIN_BEGIN
00008b58 g     F .ram_code	00000090 _free_r
000038d8 g     F .ram_code	000004e4 riscv_nn_mat_mult_kernel_row_offset_s8_s16
0000988c g       .ram_code	00000000 .hidden __riscv_save_3
00003dbc g     F .ram_code	00000124 riscv_convolve_1x1_s8
0000507c g     F .ram_code	00000004 riscv_fully_connected_s8_get_buffer_size
000026f8  w      .ram_code	00000000 entry_irq38
00008afc g     F .ram_code	0000003c rand
00001100 g       .ram_code	00000000 __vectors
00009f96 g       *ABS*	00000000 BIN_SIZE
00080438 g     O .data	00000010 __digits
20000350 g       *ABS*	00000000 _RAMCODE_LMA_START
000037e0 g     F .ram_code	0000008e riscv_convolve_wrapper_s8_get_buffer_size
00003fb8 g     F .ram_code	00000054 riscv_convolve_1_x_n_s8
000804a0 g     O .sbss	00000004 __printf_count
000026f8  w      .ram_code	00000000 entry_irq59
000026f8  w      .ram_code	00000000 entry_irq6
00009864 g       .ram_code	00000000 .hidden __riscv_save_10
0008049c g     O .sbss	00000004 __mculib_REENT_errno
20009b08 g       *ABS*	00000000 _DATA_LMA_START
000092aa g     F .ram_code	00000090 __print_integral_poly
20000000 g       *ABS*	00000000 NDS_SAG_LMA_FLASH
000098a6 g       .ram_code	00000000 .hidden __riscv_restore_4
0000989c g       .ram_code	00000000 .hidden __riscv_restore_8
00009872 g       .ram_code	00000000 .hidden __riscv_save_6
00003870 g     F .ram_code	00000012 riscv_depthwise_conv_s8_opt_get_buffer_size
20000000  w      .vectors	00000000 _RELAX_END_
0000933a g     F .ram_code	00000400 __printf_float_impl
00008a52 g     F .ram_code	000000aa memset
0000989c g       .ram_code	00000000 .hidden __riscv_restore_9
000098a6 g       .ram_code	00000000 .hidden __riscv_restore_7
000016a0 g     F .ram_code	00001058 main
000026f8 g       .ram_code	00000000 default_irq_entry
000026f8  w      .ram_code	00000000 entry_irq3
00000fd8 g     F .ram_code	00000100 trap_entry
00000158 g       .retention_data	00000000 _AES_VMA_END
00004d50 g     F .ram_code	00000084 riscv_s8_to_s16_unordered_with_offset
000026f8  w      .ram_code	00000000 entry_irq39
000026f8  w      .ram_code	00000000 entry_irq49
00008be8 g     F .ram_code	000000b0 _malloc_r
00003884 g     F .ram_code	00000054 riscv_depthwise_conv_wrapper_s8_get_buffer_size
000026f8  w      .ram_code	00000000 entry_irq57
000026f8  w      .ram_code	00000000 entry_irq47
200002e8 g       *ABS*	00000000 _RETENTION_DATA_LMA_START
20000000 g     F .vectors	00000000 _RESET_ENTRY
00000158 g       .retention_data	00000000 _RETENTION_DATA_VMA_START
00007770 g     F .ram_code	0000115e riscv_nn_vec_mat_mult_t_s8
000026f8  w      .ram_code	00000000 entry_irq4
000a0000 g       *ABS*	00000000 _STACK_TOP
000026f8  w      .ram_code	00000000 entry_irq22
000026f8  w      .ram_code	00000000 entry_irq30
00080468 g     O .data	00000004 _impure_ptr
00004dd4 g     F .ram_code	00000006 riscv_avgpool_s8_get_buffer_size
000026f8  w      .ram_code	00000000 entry_irq42
000026f8  w      .ram_code	00000000 entry_irq24
0000330c g     F .ram_code	000004d4 riscv_nn_mat_mult_kernel_s8_s16
0000988c g       .ram_code	00000000 .hidden __riscv_save_2
000099b4 g       .ram_code	00000000 _RAMCODE_VMA_END
00000000  w      *ABS*	00000000 _ITB_BASE_
00009872 g       .ram_code	00000000 .hidden __riscv_save_5
000026f8  w      .ram_code	00000000 entry_irq19
00001658 g     F .ram_code	00000048 _write
000804d0 g       .sdk_version	00000000 _end
000026f8  w      .ram_code	00000000 entry_irq17
000026f8  w      .ram_code	00000000 entry_irq9
000058a8 g     F .ram_code	000006e0 riscv_depthwise_conv_s8_opt
000026f8  w      .ram_code	00000000 entry_irq56
000026f8  w      .ram_code	00000000 entry_irq35
000026f8  w      .ram_code	00000000 entry_irq37
000001b8 g     O .retention_data	00000004 g_pm_mspi_cfg
000026f8  w      .ram_code	00000000 entry_irq54
000026f8  w      .ram_code	00000000 entry_irq40
00009898 g       .ram_code	00000000 .hidden __riscv_restore_12
00000200 g       .ram_code	00000000 _RAMCODE_VMA_START
0000988c g       .ram_code	00000000 .hidden __riscv_save_0
00008cec g     F .ram_code	0000005e strlen
000026f8  w      .ram_code	00000000 entry_irq29
00080490 g     O .sbss	00000004 __malloc_sbrk_start
00002b94 g     F .ram_code	00000778 riscv_convolve_s8
0008048c g     O .sbss	00000004 __malloc_free_list
000098b0 g       .ram_code	00000000 .hidden __riscv_restore_1
00002854 g     F .ram_code	00000340 riscv_convolve_1x1_s8_fast
000026f8  w      .ram_code	00000000 entry_irq7
000026f8  w      .ram_code	00000000 entry_irq32
00000000 g     F .retention_reset	00000000 _IRESET_ENTRY
000026f8  w      .ram_code	00000000 entry_irq18
0000928c g     F .ram_code	0000001e __int_to_poly
00008b48 g     F .ram_code	00000010 free
000026f8  w      .ram_code	00000000 entry_irq25



Disassembly of section .vectors:

20000000 <_RESET_ENTRY>:
20000000:	a025                	c.j	20000028 <_START>
	...
20000016:	0000                	unimp
20000018:	9f96                	c.add	t6,t0
2000001a:	0000                	unimp
2000001c:	0000                	unimp
2000001e:	0000                	unimp
20000020:	544c4e4b          	fnmsub.h	ft8,fs8,ft4,fa0,rmm
20000024:	0000                	unimp
20000026:	          	sllw	a4,zero,zero

20000028 <_START>:
20000028:	e0080197          	auipc	gp,0xe0080
2000002c:	7d818193          	addi	gp,gp,2008 # 80800 <__global_pointer$>
20000030:	801002b7          	lui	t0,0x80100
20000034:	70028293          	addi	t0,t0,1792 # 80100700 <_DATA_LMA_START+0x600f6bf8>
20000038:	04000313          	li	t1,64
2000003c:	506280a3          	sb	t1,1281(t0)
20000040:	e00a0297          	auipc	t0,0xe00a0
20000044:	fc028293          	addi	t0,t0,-64 # a0000 <_STACK_TOP>
20000048:	8116                	c.mv	sp,t0
2000004a:	e0000297          	auipc	t0,0xe0000
2000004e:	fb628293          	addi	t0,t0,-74 # 0 <_ITB_BASE_>
20000052:	80029073          	csrw	uitb,t0
20000056:	6299                	c.lui	t0,0x6
20000058:	3002a2f3          	csrrs	t0,mstatus,t0
2000005c:	00301073          	fssr	zero
20000060:	e0001297          	auipc	t0,0xe0001
20000064:	0a028293          	addi	t0,t0,160 # 1100 <__vectors>
20000068:	30529073          	csrw	mtvec,t0
2000006c:	7d016073          	csrsi	mmisc_ctl,2
20000070:	e40002b7          	lui	t0,0xe4000
20000074:	4309                	c.li	t1,2
20000076:	0062a023          	sw	t1,0(t0) # e4000000 <_DATA_LMA_START+0xc3ff64f8>
2000007a:	7ca022f3          	csrr	t0,mcache_ctl
2000007e:	0012e293          	ori	t0,t0,1
20000082:	0022e293          	ori	t0,t0,2
20000086:	7ca29073          	csrw	mcache_ctl,t0
2000008a:	0000100f          	fence.i

2000008e <_RETENTION_RESET_INIT>:
2000008e:	00000317          	auipc	t1,0x0
20000092:	10230313          	addi	t1,t1,258 # 20000190 <_RETENTION_RESET_LMA_START>
20000096:	e0000397          	auipc	t2,0xe0000
2000009a:	f6a38393          	addi	t2,t2,-150 # 0 <_ITB_BASE_>
2000009e:	e0000e17          	auipc	t3,0xe0000
200000a2:	0b6e0e13          	addi	t3,t3,182 # 154 <_RETENTION_RESET_VMA_END>

200000a6 <_RETENTION_RESET_BEGIN>:
200000a6:	01c3f963          	bgeu	t2,t3,200000b8 <_RETENTION_DATA_INIT>
200000aa:	00032283          	lw	t0,0(t1)
200000ae:	0053a023          	sw	t0,0(t2)
200000b2:	0311                	c.addi	t1,4
200000b4:	0391                	c.addi	t2,4
200000b6:	bfc5                	c.j	200000a6 <_RETENTION_RESET_BEGIN>

200000b8 <_RETENTION_DATA_INIT>:
200000b8:	00000317          	auipc	t1,0x0
200000bc:	23030313          	addi	t1,t1,560 # 200002e8 <_RETENTION_DATA_LMA_START>
200000c0:	15800393          	li	t2,344
200000c4:	e0000e17          	auipc	t3,0xe0000
200000c8:	0f8e0e13          	addi	t3,t3,248 # 1bc <_RETENTION_DATA_VMA_END>

200000cc <_RETENTION_DATA_INIT_BEGIN>:
200000cc:	01c3f963          	bgeu	t2,t3,200000de <_RAMCODE_INIT>
200000d0:	00032283          	lw	t0,0(t1)
200000d4:	0053a023          	sw	t0,0(t2)
200000d8:	0311                	c.addi	t1,4
200000da:	0391                	c.addi	t2,4
200000dc:	bfc5                	c.j	200000cc <_RETENTION_DATA_INIT_BEGIN>

200000de <_RAMCODE_INIT>:
200000de:	00000317          	auipc	t1,0x0
200000e2:	27230313          	addi	t1,t1,626 # 20000350 <_RAMCODE_LMA_START>
200000e6:	e0000397          	auipc	t2,0xe0000
200000ea:	11a38393          	addi	t2,t2,282 # 200 <delay_ms.constprop.12>
200000ee:	e000ae17          	auipc	t3,0xe000a
200000f2:	8c6e0e13          	addi	t3,t3,-1850 # 99b4 <_RAMCODE_VMA_END>

200000f6 <_RAMCODE_INIT_BEGIN>:
200000f6:	01c3f963          	bgeu	t2,t3,20000108 <_DATA_INIT>
200000fa:	00032283          	lw	t0,0(t1)
200000fe:	0053a023          	sw	t0,0(t2)
20000102:	0311                	c.addi	t1,4
20000104:	0391                	c.addi	t2,4
20000106:	bfc5                	c.j	200000f6 <_RAMCODE_INIT_BEGIN>

20000108 <_DATA_INIT>:
20000108:	0000a317          	auipc	t1,0xa
2000010c:	a0030313          	addi	t1,t1,-1536 # 20009b08 <_DATA_LMA_START>
20000110:	e0080397          	auipc	t2,0xe0080
20000114:	ef038393          	addi	t2,t2,-272 # 80000 <_DATA_VMA_START>
20000118:	e0080e17          	auipc	t3,0xe0080
2000011c:	354e0e13          	addi	t3,t3,852 # 8046c <_DATA_VMA_END>

20000120 <_DATA_INIT_BEGIN>:
20000120:	01c3f963          	bgeu	t2,t3,20000132 <_ZERO_BSS>
20000124:	00032283          	lw	t0,0(t1)
20000128:	0053a023          	sw	t0,0(t2)
2000012c:	0311                	c.addi	t1,4
2000012e:	0391                	c.addi	t2,4
20000130:	bfc5                	c.j	20000120 <_DATA_INIT_BEGIN>

20000132 <_ZERO_BSS>:
20000132:	000002b7          	lui	t0,0x0
20000136:	e0080397          	auipc	t2,0xe0080
2000013a:	33a38393          	addi	t2,t2,826 # 80470 <_BSS_VMA_START>
2000013e:	e0080e17          	auipc	t3,0xe0080
20000142:	36ae0e13          	addi	t3,t3,874 # 804a8 <_BSS_VMA_END>

20000146 <_ZERO_BSS_BEGIN>:
20000146:	01c3f663          	bgeu	t2,t3,20000152 <_ZERO_AES>
2000014a:	0053a023          	sw	t0,0(t2)
2000014e:	0391                	c.addi	t2,4
20000150:	bfdd                	c.j	20000146 <_ZERO_BSS_BEGIN>

20000152 <_ZERO_AES>:
20000152:	000002b7          	lui	t0,0x0
20000156:	e0000397          	auipc	t2,0xe0000
2000015a:	00238393          	addi	t2,t2,2 # 158 <_AES_VMA_END>
2000015e:	e0000e17          	auipc	t3,0xe0000
20000162:	ffae0e13          	addi	t3,t3,-6 # 158 <_AES_VMA_END>

20000166 <_ZERO_AES_BEGIN>:
20000166:	01c3f663          	bgeu	t2,t3,20000172 <_FILL_STK>
2000016a:	0053a023          	sw	t0,0(t2)
2000016e:	0391                	c.addi	t2,4
20000170:	bfdd                	c.j	20000166 <_ZERO_AES_BEGIN>

20000172 <_FILL_STK>:
20000172:	0001                	c.nop
20000174:	e0001297          	auipc	t0,0xe0001
20000178:	52c28293          	addi	t0,t0,1324 # 16a0 <main>
2000017c:	9282                	c.jalr	t0
2000017e:	0001                	c.nop
20000180:	0001                	c.nop
20000182:	0001                	c.nop
20000184:	0001                	c.nop
20000186:	0001                	c.nop

20000188 <_END>:
20000188:	a001                	c.j	20000188 <_END>

Disassembly of section .retention_reset:

00000000 <_IRESET_ENTRY>:
   0:	a00d                	c.j	22 <_ISTART>
	...

00000022 <_ISTART>:
  22:	00080197          	auipc	gp,0x80
  26:	7de18193          	addi	gp,gp,2014 # 80800 <__global_pointer$>

0000002a <_ISWS_USB_DIS>:
  2a:	801002b7          	lui	t0,0x80100
  2e:	70028293          	addi	t0,t0,1792 # 80100700 <_DATA_LMA_START+0x600f6bf8>
  32:	04000313          	li	t1,64
  36:	506280a3          	sb	t1,1281(t0)
  3a:	000a0297          	auipc	t0,0xa0
  3e:	fc628293          	addi	t0,t0,-58 # a0000 <_STACK_TOP>
  42:	8116                	c.mv	sp,t0
  44:	00000297          	auipc	t0,0x0
  48:	fbc28293          	addi	t0,t0,-68 # 0 <_IRESET_ENTRY>
  4c:	80029073          	csrw	uitb,t0
  50:	6299                	c.lui	t0,0x6
  52:	3002a2f3          	csrrs	t0,mstatus,t0
  56:	00301073          	fssr	zero
  5a:	00001297          	auipc	t0,0x1
  5e:	0a628293          	addi	t0,t0,166 # 1100 <__vectors>
  62:	30529073          	csrw	mtvec,t0
  66:	7d016073          	csrsi	mmisc_ctl,2
  6a:	e40002b7          	lui	t0,0xe4000
  6e:	4309                	c.li	t1,2
  70:	0062a023          	sw	t1,0(t0) # e4000000 <_DATA_LMA_START+0xc3ff64f8>
  74:	7ca022f3          	csrr	t0,mcache_ctl
  78:	0012e293          	ori	t0,t0,1
  7c:	0022e293          	ori	t0,t0,2
  80:	7ca29073          	csrw	mcache_ctl,t0
  84:	0000100f          	fence.i

00000088 <_WAKEUP_FLASH>:
  88:	801402b7          	lui	t0,0x80140
  8c:	0ff00313          	li	t1,255
  90:	4381                	c.li	t2,0
  92:	0ab00e13          	li	t3,171
  96:	326284a3          	sb	t1,809(t0) # 80140329 <_DATA_LMA_START+0x60136821>
  9a:	107280a3          	sb	t2,257(t0)
  9e:	11c28023          	sb	t3,256(t0)

000000a2 <_MSPI_WAIT>:
  a2:	801402b7          	lui	t0,0x80140
  a6:	10228383          	lb	t2,258(t0) # 80140102 <_DATA_LMA_START+0x601365fa>
  aa:	4e05                	c.li	t3,1
  ac:	4ec1                	c.li	t4,16
  ae:	fe7e0ae3          	beq	t3,t2,a2 <_MSPI_WAIT>
  b2:	11d280a3          	sb	t4,257(t0)
  b6:	4281                	c.li	t0,0
  b8:	14000313          	li	t1,320

000000bc <_WAIT_EFUSE_LOAD_AND_FLASH_WAKEUP_FINISH>:
  bc:	0285                	c.addi	t0,1
  be:	fe537fe3          	bgeu	t1,t0,bc <_WAIT_EFUSE_LOAD_AND_FLASH_WAKEUP_FINISH>

000000c2 <_MULTI_ADDRESS_BEGIN>:
  c2:	801402b7          	lui	t0,0x80140
  c6:	1b800313          	li	t1,440
  ca:	00032383          	lw	t2,0(t1)
  ce:	1072a223          	sw	t2,260(t0) # 80140104 <_DATA_LMA_START+0x601365fc>

000000d2 <_IZERO_BSS>:
  d2:	000002b7          	lui	t0,0x0
  d6:	00080397          	auipc	t2,0x80
  da:	39a38393          	addi	t2,t2,922 # 80470 <_BSS_VMA_START>
  de:	00080e17          	auipc	t3,0x80
  e2:	3cae0e13          	addi	t3,t3,970 # 804a8 <_BSS_VMA_END>

000000e6 <_IZERO_BSS_BEGIN>:
  e6:	01c3f663          	bgeu	t2,t3,f2 <_IZERO_AES>
  ea:	0053a023          	sw	t0,0(t2)
  ee:	0391                	c.addi	t2,4
  f0:	bfdd                	c.j	e6 <_IZERO_BSS_BEGIN>

000000f2 <_IZERO_AES>:
  f2:	000002b7          	lui	t0,0x0
  f6:	00000397          	auipc	t2,0x0
  fa:	06238393          	addi	t2,t2,98 # 158 <_AES_VMA_END>
  fe:	00000e17          	auipc	t3,0x0
 102:	05ae0e13          	addi	t3,t3,90 # 158 <_AES_VMA_END>

00000106 <_IZERO_AES_BEGIN>:
 106:	01c3f663          	bgeu	t2,t3,112 <_IDATA_INIT>
 10a:	0053a023          	sw	t0,0(t2)
 10e:	0391                	c.addi	t2,4
 110:	bfdd                	c.j	106 <_IZERO_AES_BEGIN>

00000112 <_IDATA_INIT>:
 112:	2000a317          	auipc	t1,0x2000a
 116:	9f630313          	addi	t1,t1,-1546 # 20009b08 <_DATA_LMA_START>
 11a:	00080397          	auipc	t2,0x80
 11e:	ee638393          	addi	t2,t2,-282 # 80000 <_DATA_VMA_START>
 122:	00080e17          	auipc	t3,0x80
 126:	34ae0e13          	addi	t3,t3,842 # 8046c <_DATA_VMA_END>

0000012a <_IDATA_INIT_BEGIN>:
 12a:	01c3f963          	bgeu	t2,t3,13c <_IMAIN_FUNC>
 12e:	00032283          	lw	t0,0(t1)
 132:	0053a023          	sw	t0,0(t2)
 136:	0311                	c.addi	t1,4
 138:	0391                	c.addi	t2,4
 13a:	bfc5                	c.j	12a <_IDATA_INIT_BEGIN>

0000013c <_IMAIN_FUNC>:
 13c:	0001                	c.nop
 13e:	00001297          	auipc	t0,0x1
 142:	56228293          	addi	t0,t0,1378 # 16a0 <main>
 146:	9282                	c.jalr	t0
 148:	0001                	c.nop
 14a:	0001                	c.nop
 14c:	0001                	c.nop
 14e:	0001                	c.nop
 150:	0001                	c.nop

00000152 <_IEND>:
 152:	a001                	c.j	152 <_IEND>

Disassembly of section .ram_code:

00000200 <delay_ms.constprop.12>:
     200:	801407b7          	lui	a5,0x80140
     204:	0004e737          	lui	a4,0x4e
     208:	2007a603          	lw	a2,512(a5) # 80140200 <_DATA_LMA_START+0x601366f8>
     20c:	801406b7          	lui	a3,0x80140
     210:	20070713          	addi	a4,a4,512 # 4e200 <BIN_SIZE+0x4426a>
     214:	2006a783          	lw	a5,512(a3) # 80140200 <_DATA_LMA_START+0x601366f8>
     218:	8f91                	c.sub	a5,a2
     21a:	fef77de3          	bgeu	a4,a5,214 <delay_ms.constprop.12+0x14>
     21e:	8082                	c.jr	ra

00000220 <flash_send_addr>:
     220:	5d05275b          	bfoz	a4,a0,23,16
     224:	801407b7          	lui	a5,0x80140
     228:	801406b7          	lui	a3,0x80140
     22c:	10e78023          	sb	a4,256(a5) # 80140100 <_DATA_LMA_START+0x601365f8>
     230:	10268783          	lb	a5,258(a3) # 80140102 <_DATA_LMA_START+0x601365fa>
     234:	fe07fe5b          	bbs	a5,0,230 <flash_send_addr+0x10>
     238:	3c8527db          	bfoz	a5,a0,15,8
     23c:	80140737          	lui	a4,0x80140
     240:	10f68023          	sb	a5,256(a3)
     244:	10270783          	lb	a5,258(a4) # 80140102 <_DATA_LMA_START+0x601365fa>
     248:	fe07fe5b          	bbs	a5,0,244 <flash_send_addr+0x24>
     24c:	0ff57513          	andi	a0,a0,255
     250:	801406b7          	lui	a3,0x80140
     254:	10a70023          	sb	a0,256(a4)
     258:	10268783          	lb	a5,258(a3) # 80140102 <_DATA_LMA_START+0x601365fa>
     25c:	fe07fe5b          	bbs	a5,0,258 <flash_send_addr+0x38>
     260:	00008067          	ret

00000264 <flash_send_cmd>:
     264:	801407b7          	lui	a5,0x80140
     268:	10178703          	lb	a4,257(a5) # 80140101 <_DATA_LMA_START+0x601365f9>
     26c:	0ff77713          	andi	a4,a4,255
     270:	01076713          	ori	a4,a4,16
     274:	10e780a3          	sb	a4,257(a5)
     278:	0001                	c.nop
     27a:	0001                	c.nop
     27c:	0001                	c.nop
     27e:	0001                	c.nop
     280:	0001                	c.nop
     282:	0001                	c.nop
     284:	0001                	c.nop
     286:	0001                	c.nop
     288:	0001                	c.nop
     28a:	0001                	c.nop
     28c:	10178683          	lb	a3,257(a5)
     290:	80140737          	lui	a4,0x80140
     294:	0ef6f693          	andi	a3,a3,239
     298:	10d780a3          	sb	a3,257(a5)
     29c:	10a78023          	sb	a0,256(a5)
     2a0:	10270783          	lb	a5,258(a4) # 80140102 <_DATA_LMA_START+0x601365fa>
     2a4:	fe07fe5b          	bbs	a5,0,2a0 <flash_send_cmd+0x3c>
     2a8:	00008067          	ret

000002ac <clock_set_32k_tick>:
     2ac:	801406b7          	lui	a3,0x80140
     2b0:	20a68783          	lb	a5,522(a3) # 8014020a <_DATA_LMA_START+0x60136702>
     2b4:	80140737          	lui	a4,0x80140
     2b8:	0ff7f793          	andi	a5,a5,255
     2bc:	0017e793          	ori	a5,a5,1
     2c0:	20f68523          	sb	a5,522(a3)
     2c4:	20b70683          	lb	a3,523(a4) # 8014020b <_DATA_LMA_START+0x60136703>
     2c8:	20b70793          	addi	a5,a4,523
     2cc:	fe66fc5b          	bbs	a3,6,2c4 <clock_set_32k_tick+0x18>
     2d0:	20a72623          	sw	a0,524(a4)
     2d4:	4721                	c.li	a4,8
     2d6:	00e78023          	sb	a4,0(a5)
     2da:	0001                	c.nop
     2dc:	0001                	c.nop
     2de:	0001                	c.nop
     2e0:	0001                	c.nop
     2e2:	0001                	c.nop
     2e4:	0001                	c.nop
     2e6:	0001                	c.nop
     2e8:	0001                	c.nop
     2ea:	0001                	c.nop
     2ec:	0001                	c.nop
     2ee:	0001                	c.nop
     2f0:	0001                	c.nop
     2f2:	0001                	c.nop
     2f4:	0001                	c.nop
     2f6:	0001                	c.nop
     2f8:	00000013          	nop
     2fc:	801407b7          	lui	a5,0x80140
     300:	20b78703          	lb	a4,523(a5) # 8014020b <_DATA_LMA_START+0x60136703>
     304:	fe377e5b          	bbs	a4,3,300 <clock_set_32k_tick+0x54>
     308:	00008067          	ret

0000030c <analog_read_reg32.constprop.4>:
     30c:	300027f3          	csrr	a5,mstatus
     310:	8ba1                	c.andi	a5,8
     312:	c789                	c.beqz	a5,31c <analog_read_reg32.constprop.4+0x10>
     314:	30047773          	csrrci	a4,mstatus,8
     318:	0ff0000f          	fence
     31c:	80140737          	lui	a4,0x80140
     320:	00400693          	li	a3,4
     324:	18d701a3          	sb	a3,387(a4) # 80140183 <_DATA_LMA_START+0x6013667b>
     328:	06000693          	li	a3,96
     32c:	18d70023          	sb	a3,384(a4)
     330:	04000613          	li	a2,64
     334:	801406b7          	lui	a3,0x80140
     338:	18c70123          	sb	a2,386(a4)
     33c:	18268703          	lb	a4,386(a3) # 80140182 <_DATA_LMA_START+0x6013667a>
     340:	fe777e5b          	bbs	a4,7,33c <analog_read_reg32.constprop.4+0x30>
     344:	1846a503          	lw	a0,388(a3)
     348:	00078663          	beqz	a5,354 <analog_read_reg32.constprop.4+0x48>
     34c:	3007a7f3          	csrrs	a5,mstatus,a5
     350:	0ff0000f          	fence
     354:	00008067          	ret

00000358 <clock_get_32k_tick>:
     358:	1141                	c.addi	sp,-16
     35a:	c422                	c.swsp	s0,8(sp)
     35c:	c606                	c.swsp	ra,12(sp)
     35e:	377d                	c.jal	30c <analog_read_reg32.constprop.4>
     360:	00a00433          	add	s0,zero,a0
     364:	fa9ff0ef          	jal	ra,30c <analog_read_reg32.constprop.4>
     368:	40850733          	sub	a4,a0,s0
     36c:	842a                	c.mv	s0,a0
     36e:	be176b5b          	bnec	a4,1,364 <clock_get_32k_tick+0xc>
     372:	40b2                	c.lwsp	ra,12(sp)
     374:	4422                	c.lwsp	s0,8(sp)
     376:	0141                	c.addi	sp,16
     378:	00008067          	ret

0000037c <pm_stimer_recover>:
     37c:	1141                	c.addi	sp,-16
     37e:	80140737          	lui	a4,0x80140
     382:	c606                	c.swsp	ra,12(sp)
     384:	4789                	c.li	a5,2
     386:	20f70c23          	sb	a5,536(a4) # 80140218 <_DATA_LMA_START+0x60136710>
     38a:	20a70783          	lb	a5,522(a4)
     38e:	0ff7f793          	andi	a5,a5,255
     392:	00c7e793          	ori	a5,a5,12
     396:	20f70523          	sb	a5,522(a4)
     39a:	3f7d                	c.jal	358 <clock_get_32k_tick>
     39c:	000007b7          	lui	a5,0x0
     3a0:	15878713          	addi	a4,a5,344 # 158 <_AES_VMA_END>
     3a4:	00474703          	lbu	a4,4(a4)
     3a8:	15878793          	addi	a5,a5,344
     3ac:	cf01                	c.beqz	a4,3c4 <pm_stimer_recover+0x48>
     3ae:	4b98                	c.lw	a4,16(a5)
     3b0:	5f90                	c.lw	a2,56(a5)
     3b2:	40e50733          	sub	a4,a0,a4
     3b6:	47d4                	c.lw	a3,12(a5)
     3b8:	0705                	c.addi	a4,1
     3ba:	8315                	c.srli	a4,0x5
     3bc:	c4c716ff          	maddr32	a3,a4,a2
     3c0:	c794                	c.sw	a3,8(a5)
     3c2:	a829                	c.j	3dc <pm_stimer_recover+0x60>
     3c4:	4b98                	c.lw	a4,16(a5)
     3c6:	5f94                	c.lw	a3,56(a5)
     3c8:	40e50733          	sub	a4,a0,a4
     3cc:	0705                	c.addi	a4,1
     3ce:	02d70733          	mul	a4,a4,a3
     3d2:	47d4                	c.lw	a3,12(a5)
     3d4:	8315                	c.srli	a4,0x5
     3d6:	9736                	c.add	a4,a3
     3d8:	00e7a423          	sw	a4,8(a5)
     3dc:	4b98                	c.lw	a4,16(a5)
     3de:	4794                	c.lw	a3,8(a5)
     3e0:	40e50733          	sub	a4,a0,a4
     3e4:	0705                	c.addi	a4,1
     3e6:	0505                	c.addi	a0,1
     3e8:	0685                	c.addi	a3,1
     3ea:	d788                	c.sw	a0,40(a5)
     3ec:	02e7a223          	sw	a4,36(a5)
     3f0:	80140637          	lui	a2,0x80140
     3f4:	801407b7          	lui	a5,0x80140
     3f8:	20d7a023          	sw	a3,512(a5) # 80140200 <_DATA_LMA_START+0x601366f8>
     3fc:	20b60783          	lb	a5,523(a2) # 8014020b <_DATA_LMA_START+0x60136703>
     400:	be77fe5b          	bbc	a5,7,3fc <pm_stimer_recover+0x80>
     404:	20060c23          	sb	zero,536(a2)
     408:	40b2                	c.lwsp	ra,12(sp)
     40a:	0141                	c.addi	sp,16
     40c:	00008067          	ret

00000410 <plic_exit_critical_sec>:
     410:	000007b7          	lui	a5,0x0
     414:	15878793          	addi	a5,a5,344 # 158 <_AES_VMA_END>
     418:	03c78783          	lb	a5,60(a5)
     41c:	0ff7f793          	andi	a5,a5,255
     420:	c795                	c.beqz	a5,44c <plic_exit_critical_sec+0x3c>
     422:	c50d                	c.beqz	a0,44c <plic_exit_critical_sec+0x3c>
     424:	300027f3          	csrr	a5,mstatus
     428:	8ba1                	c.andi	a5,8
     42a:	0ff5f593          	andi	a1,a1,255
     42e:	c78d                	c.beqz	a5,458 <plic_exit_critical_sec+0x48>
     430:	30047773          	csrrci	a4,mstatus,8
     434:	0ff0000f          	fence
     438:	e4200737          	lui	a4,0xe4200
     43c:	c30c                	c.sw	a1,0(a4)
     43e:	0ff0000f          	fence
     442:	3007a7f3          	csrrs	a5,mstatus,a5
     446:	0ff0000f          	fence
     44a:	8082                	c.jr	ra
     44c:	cd81                	c.beqz	a1,464 <plic_exit_critical_sec+0x54>
     44e:	3005a5f3          	csrrs	a1,mstatus,a1
     452:	0ff0000f          	fence
     456:	8082                	c.jr	ra
     458:	e42007b7          	lui	a5,0xe4200
     45c:	00b7a023          	sw	a1,0(a5) # e4200000 <_DATA_LMA_START+0xc41f64f8>
     460:	0ff0000f          	fence
     464:	00008067          	ret

00000468 <plic_enter_critical_sec>:
     468:	000007b7          	lui	a5,0x0
     46c:	15878793          	addi	a5,a5,344 # 158 <_AES_VMA_END>
     470:	03c78783          	lb	a5,60(a5)
     474:	0ff7f793          	andi	a5,a5,255
     478:	cb85                	c.beqz	a5,4a8 <plic_enter_critical_sec+0x40>
     47a:	c51d                	c.beqz	a0,4a8 <plic_enter_critical_sec+0x40>
     47c:	e4200737          	lui	a4,0xe4200
     480:	4308                	c.lw	a0,0(a4)
     482:	04b57163          	bgeu	a0,a1,4c4 <plic_enter_critical_sec+0x5c>
     486:	300027f3          	csrr	a5,mstatus
     48a:	8ba1                	c.andi	a5,8
     48c:	cb85                	c.beqz	a5,4bc <plic_enter_critical_sec+0x54>
     48e:	300476f3          	csrrci	a3,mstatus,8
     492:	0ff0000f          	fence
     496:	c30c                	c.sw	a1,0(a4)
     498:	0ff0000f          	fence
     49c:	3007a7f3          	csrrs	a5,mstatus,a5
     4a0:	0ff0000f          	fence
     4a4:	00008067          	ret
     4a8:	30002573          	csrr	a0,mstatus
     4ac:	8921                	c.andi	a0,8
     4ae:	c919                	c.beqz	a0,4c4 <plic_enter_critical_sec+0x5c>
     4b0:	300477f3          	csrrci	a5,mstatus,8
     4b4:	0ff0000f          	fence
     4b8:	00008067          	ret
     4bc:	00b72023          	sw	a1,0(a4) # e4200000 <_DATA_LMA_START+0xc41f64f8>
     4c0:	0ff0000f          	fence
     4c4:	00008067          	ret

000004c8 <flash_mspi_read_ram>:
     4c8:	7179                	c.addi16sp	sp,-48
     4ca:	d226                	c.swsp	s1,36(sp)
     4cc:	000004b7          	lui	s1,0x0
     4d0:	15848493          	addi	s1,s1,344 # 158 <_AES_VMA_END>
     4d4:	d04a                	c.swsp	s2,32(sp)
     4d6:	c65e                	c.swsp	s7,12(sp)
     4d8:	892a                	c.mv	s2,a0
     4da:	8bae                	c.mv	s7,a1
     4dc:	0404c503          	lbu	a0,64(s1)
     4e0:	0414c583          	lbu	a1,65(s1)
     4e4:	d422                	c.swsp	s0,40(sp)
     4e6:	ce4e                	c.swsp	s3,28(sp)
     4e8:	cc52                	c.swsp	s4,24(sp)
     4ea:	ca56                	c.swsp	s5,20(sp)
     4ec:	c85a                	c.swsp	s6,16(sp)
     4ee:	d606                	c.swsp	ra,44(sp)
     4f0:	8b32                	c.mv	s6,a2
     4f2:	8ab6                	c.mv	s5,a3
     4f4:	843a                	c.mv	s0,a4
     4f6:	8a3e                	c.mv	s4,a5
     4f8:	f71ff0ef          	jal	ra,468 <plic_enter_critical_sec>
     4fc:	80140637          	lui	a2,0x80140
     500:	00a009b3          	add	s3,zero,a0
     504:	10260783          	lb	a5,258(a2) # 80140102 <_DATA_LMA_START+0x601365fa>
     508:	fe07fe5b          	bbs	a5,0,504 <flash_mspi_read_ram+0x3c>
     50c:	10160783          	lb	a5,257(a2)
     510:	80140737          	lui	a4,0x80140
     514:	0ff7f793          	andi	a5,a5,255
     518:	0107e793          	ori	a5,a5,16
     51c:	10f600a3          	sb	a5,257(a2)
     520:	32870783          	lb	a5,808(a4) # 80140328 <_DATA_LMA_START+0x60136820>
     524:	be37fe5b          	bbc	a5,3,520 <flash_mspi_read_ram+0x58>
     528:	10170783          	lb	a5,257(a4)
     52c:	854a                	c.mv	a0,s2
     52e:	0fd7f793          	andi	a5,a5,253
     532:	10f700a3          	sb	a5,257(a4)
     536:	10170783          	lb	a5,257(a4)
     53a:	0f37f793          	andi	a5,a5,243
     53e:	10f700a3          	sb	a5,257(a4)
     542:	330d                	c.jal	264 <flash_send_cmd>
     544:	0e0b1e63          	bnez	s6,640 <flash_mspi_read_ram+0x178>
     548:	020a8063          	beqz	s5,568 <flash_mspi_read_ram+0xa0>
     54c:	00000713          	li	a4,0
     550:	80140637          	lui	a2,0x80140
     554:	10060023          	sb	zero,256(a2) # 80140100 <_DATA_LMA_START+0x601365f8>
     558:	10260783          	lb	a5,258(a2)
     55c:	fe07fe5b          	bbs	a5,0,558 <flash_mspi_read_ram+0x90>
     560:	00170713          	addi	a4,a4,1
     564:	ff5718e3          	bne	a4,s5,554 <flash_mspi_read_ram+0x8c>
     568:	01b96cdb          	bnec	s2,59,580 <flash_mspi_read_ram+0xb8>
     56c:	80140737          	lui	a4,0x80140
     570:	10170783          	lb	a5,257(a4) # 80140101 <_DATA_LMA_START+0x601365f9>
     574:	0f37f793          	andi	a5,a5,243
     578:	0047e793          	ori	a5,a5,4
     57c:	10f700a3          	sb	a5,257(a4)
     580:	801406b7          	lui	a3,0x80140
     584:	10168783          	lb	a5,257(a3) # 80140101 <_DATA_LMA_START+0x601365f9>
     588:	80140737          	lui	a4,0x80140
     58c:	0ff7f793          	andi	a5,a5,255
     590:	0027e793          	ori	a5,a5,2
     594:	10f680a3          	sb	a5,257(a3)
     598:	10068023          	sb	zero,256(a3)
     59c:	10270783          	lb	a5,258(a4) # 80140102 <_DATA_LMA_START+0x601365fa>
     5a0:	fe07fe5b          	bbs	a5,0,59c <flash_mspi_read_ram+0xd4>
     5a4:	10170783          	lb	a5,257(a4)
     5a8:	801406b7          	lui	a3,0x80140
     5ac:	0ff7f793          	andi	a5,a5,255
     5b0:	0017e793          	ori	a5,a5,1
     5b4:	10f700a3          	sb	a5,257(a4)
     5b8:	10268783          	lb	a5,258(a3) # 80140102 <_DATA_LMA_START+0x601365fa>
     5bc:	fe07fe5b          	bbs	a5,0,5b8 <flash_mspi_read_ram+0xf0>
     5c0:	020a0263          	beqz	s4,5e4 <flash_mspi_read_ram+0x11c>
     5c4:	008a0a33          	add	s4,s4,s0
     5c8:	801406b7          	lui	a3,0x80140
     5cc:	10068783          	lb	a5,256(a3) # 80140100 <_DATA_LMA_START+0x601365f8>
     5d0:	00140413          	addi	s0,s0,1
     5d4:	fef40fa3          	sb	a5,-1(s0)
     5d8:	10268783          	lb	a5,258(a3)
     5dc:	fe07fe5b          	bbs	a5,0,5d8 <flash_mspi_read_ram+0x110>
     5e0:	ff4416e3          	bne	s0,s4,5cc <flash_mspi_read_ram+0x104>
     5e4:	801407b7          	lui	a5,0x80140
     5e8:	10178703          	lb	a4,257(a5) # 80140101 <_DATA_LMA_START+0x601365f9>
     5ec:	0fe77713          	andi	a4,a4,254
     5f0:	10e780a3          	sb	a4,257(a5)
     5f4:	01b968db          	bnec	s2,59,604 <flash_mspi_read_ram+0x13c>
     5f8:	10178703          	lb	a4,257(a5)
     5fc:	0f377713          	andi	a4,a4,243
     600:	10e780a3          	sb	a4,257(a5)
     604:	80140737          	lui	a4,0x80140
     608:	10170783          	lb	a5,257(a4) # 80140101 <_DATA_LMA_START+0x601365f9>
     60c:	0ff7f793          	andi	a5,a5,255
     610:	0107e793          	ori	a5,a5,16
     614:	10f700a3          	sb	a5,257(a4)
     618:	0001                	c.nop
     61a:	0001                	c.nop
     61c:	0001                	c.nop
     61e:	0001                	c.nop
     620:	0001                	c.nop
     622:	5422                	c.lwsp	s0,40(sp)
     624:	0404c503          	lbu	a0,64(s1)
     628:	50b2                	c.lwsp	ra,44(sp)
     62a:	5492                	c.lwsp	s1,36(sp)
     62c:	5902                	c.lwsp	s2,32(sp)
     62e:	4a62                	c.lwsp	s4,24(sp)
     630:	4ad2                	c.lwsp	s5,20(sp)
     632:	4b42                	c.lwsp	s6,16(sp)
     634:	4bb2                	c.lwsp	s7,12(sp)
     636:	85ce                	c.mv	a1,s3
     638:	49f2                	c.lwsp	s3,28(sp)
     63a:	6145                	c.addi16sp	sp,48
     63c:	dd5ff06f          	j	410 <plic_exit_critical_sec>
     640:	855e                	c.mv	a0,s7
     642:	3ef9                	c.jal	220 <flash_send_addr>
     644:	f05ff06f          	j	548 <flash_mspi_read_ram+0x80>

00000648 <flash_mspi_read_ram.constprop.7>:
     648:	1101                	c.addi	sp,-32
     64a:	c64e                	c.swsp	s3,12(sp)
     64c:	000009b7          	lui	s3,0x0
     650:	15898993          	addi	s3,s3,344 # 158 <_AES_VMA_END>
     654:	cc22                	c.swsp	s0,24(sp)
     656:	c256                	c.swsp	s5,4(sp)
     658:	842e                	c.mv	s0,a1
     65a:	8aaa                	c.mv	s5,a0
     65c:	0419c583          	lbu	a1,65(s3)
     660:	0409c503          	lbu	a0,64(s3)
     664:	c84a                	c.swsp	s2,16(sp)
     666:	c452                	c.swsp	s4,8(sp)
     668:	ce06                	c.swsp	ra,28(sp)
     66a:	ca26                	c.swsp	s1,20(sp)
     66c:	8932                	c.mv	s2,a2
     66e:	3bed                	c.jal	468 <plic_enter_critical_sec>
     670:	80140737          	lui	a4,0x80140
     674:	00a00a33          	add	s4,zero,a0
     678:	10270783          	lb	a5,258(a4) # 80140102 <_DATA_LMA_START+0x601365fa>
     67c:	fe07fe5b          	bbs	a5,0,678 <flash_mspi_read_ram.constprop.7+0x30>
     680:	10170783          	lb	a5,257(a4)
     684:	801404b7          	lui	s1,0x80140
     688:	0ff7f793          	andi	a5,a5,255
     68c:	0107e793          	ori	a5,a5,16
     690:	10f700a3          	sb	a5,257(a4)
     694:	32848783          	lb	a5,808(s1) # 80140328 <_DATA_LMA_START+0x60136820>
     698:	be37fe5b          	bbc	a5,3,694 <flash_mspi_read_ram.constprop.7+0x4c>
     69c:	10148783          	lb	a5,257(s1)
     6a0:	03b00513          	li	a0,59
     6a4:	0fd7f793          	andi	a5,a5,253
     6a8:	10f480a3          	sb	a5,257(s1)
     6ac:	10148783          	lb	a5,257(s1)
     6b0:	0f37f793          	andi	a5,a5,243
     6b4:	10f480a3          	sb	a5,257(s1)
     6b8:	badff0ef          	jal	ra,264 <flash_send_cmd>
     6bc:	01500533          	add	a0,zero,s5
     6c0:	b61ff0ef          	jal	ra,220 <flash_send_addr>
     6c4:	80140737          	lui	a4,0x80140
     6c8:	10048023          	sb	zero,256(s1)
     6cc:	10270783          	lb	a5,258(a4) # 80140102 <_DATA_LMA_START+0x601365fa>
     6d0:	fe07fe5b          	bbs	a5,0,6cc <flash_mspi_read_ram.constprop.7+0x84>
     6d4:	10170783          	lb	a5,257(a4)
     6d8:	801406b7          	lui	a3,0x80140
     6dc:	0f37f793          	andi	a5,a5,243
     6e0:	0047e793          	ori	a5,a5,4
     6e4:	10f700a3          	sb	a5,257(a4)
     6e8:	10170783          	lb	a5,257(a4)
     6ec:	0ff7f793          	andi	a5,a5,255
     6f0:	0027e793          	ori	a5,a5,2
     6f4:	10f700a3          	sb	a5,257(a4)
     6f8:	10070023          	sb	zero,256(a4)
     6fc:	10268783          	lb	a5,258(a3) # 80140102 <_DATA_LMA_START+0x601365fa>
     700:	fe07fe5b          	bbs	a5,0,6fc <flash_mspi_read_ram.constprop.7+0xb4>
     704:	10168783          	lb	a5,257(a3)
     708:	80140737          	lui	a4,0x80140
     70c:	0ff7f793          	andi	a5,a5,255
     710:	0017e793          	ori	a5,a5,1
     714:	10f680a3          	sb	a5,257(a3)
     718:	10270783          	lb	a5,258(a4) # 80140102 <_DATA_LMA_START+0x601365fa>
     71c:	fe07fe5b          	bbs	a5,0,718 <flash_mspi_read_ram.constprop.7+0xd0>
     720:	02090263          	beqz	s2,744 <flash_mspi_read_ram.constprop.7+0xfc>
     724:	01240633          	add	a2,s0,s2
     728:	80140737          	lui	a4,0x80140
     72c:	10070783          	lb	a5,256(a4) # 80140100 <_DATA_LMA_START+0x601365f8>
     730:	00140413          	addi	s0,s0,1
     734:	fef40fa3          	sb	a5,-1(s0)
     738:	10270783          	lb	a5,258(a4)
     73c:	fe07fe5b          	bbs	a5,0,738 <flash_mspi_read_ram.constprop.7+0xf0>
     740:	fec416e3          	bne	s0,a2,72c <flash_mspi_read_ram.constprop.7+0xe4>
     744:	801407b7          	lui	a5,0x80140
     748:	10178703          	lb	a4,257(a5) # 80140101 <_DATA_LMA_START+0x601365f9>
     74c:	0fe77713          	andi	a4,a4,254
     750:	10e780a3          	sb	a4,257(a5)
     754:	10178703          	lb	a4,257(a5)
     758:	0f377713          	andi	a4,a4,243
     75c:	10e780a3          	sb	a4,257(a5)
     760:	10178703          	lb	a4,257(a5)
     764:	0ff77713          	andi	a4,a4,255
     768:	01076713          	ori	a4,a4,16
     76c:	10e780a3          	sb	a4,257(a5)
     770:	0001                	c.nop
     772:	0001                	c.nop
     774:	0001                	c.nop
     776:	0001                	c.nop
     778:	0001                	c.nop
     77a:	4462                	c.lwsp	s0,24(sp)
     77c:	0409c503          	lbu	a0,64(s3)
     780:	40f2                	c.lwsp	ra,28(sp)
     782:	44d2                	c.lwsp	s1,20(sp)
     784:	4942                	c.lwsp	s2,16(sp)
     786:	49b2                	c.lwsp	s3,12(sp)
     788:	4a92                	c.lwsp	s5,4(sp)
     78a:	85d2                	c.mv	a1,s4
     78c:	4a22                	c.lwsp	s4,8(sp)
     78e:	6105                	c.addi16sp	sp,32
     790:	c81ff06f          	j	410 <plic_exit_critical_sec>

00000794 <analog_write_reg8>:
     794:	30002673          	csrr	a2,mstatus
     798:	8a21                	c.andi	a2,8
     79a:	c609                	c.beqz	a2,7a4 <analog_write_reg8+0x10>
     79c:	300477f3          	csrrci	a5,mstatus,8
     7a0:	0ff0000f          	fence
     7a4:	80140737          	lui	a4,0x80140
     7a8:	18a70023          	sb	a0,384(a4) # 80140180 <_DATA_LMA_START+0x60136678>
     7ac:	18b70223          	sb	a1,388(a4)
     7b0:	06000693          	li	a3,96
     7b4:	801407b7          	lui	a5,0x80140
     7b8:	18d70123          	sb	a3,386(a4)
     7bc:	18278703          	lb	a4,386(a5) # 80140182 <_DATA_LMA_START+0x6013667a>
     7c0:	fe777e5b          	bbs	a4,7,7bc <analog_write_reg8+0x28>
     7c4:	18078123          	sb	zero,386(a5)
     7c8:	00060663          	beqz	a2,7d4 <analog_write_reg8+0x40>
     7cc:	30062673          	csrrs	a2,mstatus,a2
     7d0:	0ff0000f          	fence
     7d4:	00008067          	ret

000007d8 <analog_read_reg8>:
     7d8:	300026f3          	csrr	a3,mstatus
     7dc:	8aa1                	c.andi	a3,8
     7de:	c689                	c.beqz	a3,7e8 <analog_read_reg8+0x10>
     7e0:	300477f3          	csrrci	a5,mstatus,8
     7e4:	0ff0000f          	fence
     7e8:	801407b7          	lui	a5,0x80140
     7ec:	18a78023          	sb	a0,384(a5) # 80140180 <_DATA_LMA_START+0x60136678>
     7f0:	00100713          	li	a4,1
     7f4:	18e781a3          	sb	a4,387(a5)
     7f8:	04000613          	li	a2,64
     7fc:	80140737          	lui	a4,0x80140
     800:	18c78123          	sb	a2,386(a5)
     804:	18270783          	lb	a5,386(a4) # 80140182 <_DATA_LMA_START+0x6013667a>
     808:	fe77fe5b          	bbs	a5,7,804 <analog_read_reg8+0x2c>
     80c:	18470503          	lb	a0,388(a4)
     810:	0ff57513          	andi	a0,a0,255
     814:	00068663          	beqz	a3,820 <analog_read_reg8+0x48>
     818:	3006a6f3          	csrrs	a3,mstatus,a3
     81c:	0ff0000f          	fence
     820:	00008067          	ret

00000824 <clock_init_ram.constprop.11>:
     824:	1141                	c.addi	sp,-16
     826:	80140737          	lui	a4,0x80140
     82a:	c606                	c.swsp	ra,12(sp)
     82c:	c422                	c.swsp	s0,8(sp)
     82e:	c226                	c.swsp	s1,4(sp)
     830:	10270783          	lb	a5,258(a4) # 80140102 <_DATA_LMA_START+0x601365fa>
     834:	fe07fe5b          	bbs	a5,0,830 <clock_init_ram.constprop.11+0xc>
     838:	10170783          	lb	a5,257(a4)
     83c:	801404b7          	lui	s1,0x80140
     840:	0ff7f793          	andi	a5,a5,255
     844:	0107e793          	ori	a5,a5,16
     848:	10f700a3          	sb	a5,257(a4)
     84c:	32848783          	lb	a5,808(s1) # 80140328 <_DATA_LMA_START+0x60136820>
     850:	be37fe5b          	bbc	a5,3,84c <clock_init_ram.constprop.11+0x28>
     854:	1e848783          	lb	a5,488(s1)
     858:	08000513          	li	a0,128
     85c:	8bbd                	c.andi	a5,15
     85e:	1ef48423          	sb	a5,488(s1)
     862:	3f9d                	c.jal	7d8 <analog_read_reg8>
     864:	0e057593          	andi	a1,a0,224
     868:	0105e593          	ori	a1,a1,16
     86c:	08000513          	li	a0,128
     870:	f25ff0ef          	jal	ra,794 <analog_write_reg8>
     874:	00900513          	li	a0,9
     878:	f61ff0ef          	jal	ra,7d8 <analog_read_reg8>
     87c:	0f357593          	andi	a1,a0,243
     880:	0085e593          	ori	a1,a1,8
     884:	4525                	c.li	a0,9
     886:	3739                	c.jal	794 <analog_write_reg8>
     888:	0c000793          	li	a5,192
     88c:	c55f940b          	addigp	s0,-940 # 80454 <sys_clk>
     890:	00f41023          	sh	a5,0(s0)
     894:	08100513          	li	a0,129
     898:	4791                	c.li	a5,4
     89a:	1ef48da3          	sb	a5,507(s1)
     89e:	3f2d                	c.jal	7d8 <analog_read_reg8>
     8a0:	04056593          	ori	a1,a0,64
     8a4:	0ff5f593          	andi	a1,a1,255
     8a8:	08100513          	li	a0,129
     8ac:	ee9ff0ef          	jal	ra,794 <analog_write_reg8>
     8b0:	08800513          	li	a0,136
     8b4:	f25ff0ef          	jal	ra,7d8 <analog_read_reg8>
     8b8:	be557c5b          	bbc	a0,5,8b0 <clock_init_ram.constprop.11+0x8c>
     8bc:	08100513          	li	a0,129
     8c0:	f19ff0ef          	jal	ra,7d8 <analog_read_reg8>
     8c4:	0bf57593          	andi	a1,a0,191
     8c8:	08100513          	li	a0,129
     8cc:	ec9ff0ef          	jal	ra,794 <analog_write_reg8>
     8d0:	801407b7          	lui	a5,0x80140
     8d4:	1e978703          	lb	a4,489(a5) # 801401e9 <_DATA_LMA_START+0x601366e1>
     8d8:	8b3d                	c.andi	a4,15
     8da:	04076713          	ori	a4,a4,64
     8de:	1ee784a3          	sb	a4,489(a5)
     8e2:	1e878703          	lb	a4,488(a5)
     8e6:	f8076713          	ori	a4,a4,-128
     8ea:	0ff77713          	andi	a4,a4,255
     8ee:	1ee78423          	sb	a4,488(a5)
     8f2:	1e878703          	lb	a4,488(a5)
     8f6:	f8076713          	ori	a4,a4,-128
     8fa:	0ff77713          	andi	a4,a4,255
     8fe:	1ee78423          	sb	a4,488(a5)
     902:	1d878703          	lb	a4,472(a5)
     906:	00045683          	lhu	a3,0(s0)
     90a:	0fb77713          	andi	a4,a4,251
     90e:	1ce78c23          	sb	a4,472(a5)
     912:	1d878703          	lb	a4,472(a5)
     916:	8689                	c.srai	a3,0x2
     918:	00d402a3          	sb	a3,5(s0)
     91c:	0fc77713          	andi	a4,a4,252
     920:	1ce78c23          	sb	a4,472(a5)
     924:	1e878703          	lb	a4,488(a5)
     928:	0f077713          	andi	a4,a4,240
     92c:	00876713          	ori	a4,a4,8
     930:	1ee78423          	sb	a4,488(a5)
     934:	1e878703          	lb	a4,488(a5)
     938:	00045683          	lhu	a3,0(s0)
     93c:	08f77713          	andi	a4,a4,143
     940:	868d                	c.srai	a3,0x3
     942:	00d40123          	sb	a3,2(s0)
     946:	02076713          	ori	a4,a4,32
     94a:	1ee78423          	sb	a4,488(a5)
     94e:	0ff6f693          	andi	a3,a3,255
     952:	00d401a3          	sb	a3,3(s0)
     956:	00d40223          	sb	a3,4(s0)
     95a:	40b2                	c.lwsp	ra,12(sp)
     95c:	4422                	c.lwsp	s0,8(sp)
     95e:	4492                	c.lwsp	s1,4(sp)
     960:	0141                	c.addi	sp,16
     962:	8082                	c.jr	ra

00000964 <pm_wait_bbpll_done>:
     964:	1101                	c.addi	sp,-32
     966:	08100513          	li	a0,129
     96a:	cc22                	c.swsp	s0,24(sp)
     96c:	ca26                	c.swsp	s1,20(sp)
     96e:	c84a                	c.swsp	s2,16(sp)
     970:	ce06                	c.swsp	ra,28(sp)
     972:	359d                	c.jal	7d8 <analog_read_reg8>
     974:	04056593          	ori	a1,a0,64
     978:	892a                	c.mv	s2,a0
     97a:	0ff5f593          	andi	a1,a1,255
     97e:	08100513          	li	a0,129
     982:	0bf97913          	andi	s2,s2,191
     986:	4481                	c.li	s1,0
     988:	4475                	c.li	s0,29
     98a:	3529                	c.jal	794 <analog_write_reg8>
     98c:	000107a3          	sb	zero,15(sp)
     990:	00f10783          	lb	a5,15(sp)
     994:	0ff7f793          	andi	a5,a5,255
     998:	02f46063          	bltu	s0,a5,9b8 <pm_wait_bbpll_done+0x54>
     99c:	0001                	c.nop
     99e:	00f10783          	lb	a5,15(sp)
     9a2:	0785                	c.addi	a5,1
     9a4:	0ff7f793          	andi	a5,a5,255
     9a8:	00f107a3          	sb	a5,15(sp)
     9ac:	00f10783          	lb	a5,15(sp)
     9b0:	0ff7f793          	andi	a5,a5,255
     9b4:	fef474e3          	bgeu	s0,a5,99c <pm_wait_bbpll_done+0x38>
     9b8:	08800513          	li	a0,136
     9bc:	e1dff0ef          	jal	ra,7d8 <analog_read_reg8>
     9c0:	4255765b          	bbs	a0,5,9ec <pm_wait_bbpll_done+0x88>
     9c4:	cc95                	c.beqz	s1,a00 <pm_wait_bbpll_done+0x9c>
     9c6:	0414d35b          	beqc	s1,1,a0c <pm_wait_bbpll_done+0xa8>
     9ca:	85ca                	c.mv	a1,s2
     9cc:	08100513          	li	a0,129
     9d0:	dc5ff0ef          	jal	ra,794 <analog_write_reg8>
     9d4:	0024d65b          	beqc	s1,2,9e0 <pm_wait_bbpll_done+0x7c>
     9d8:	0485                	c.addi	s1,1
     9da:	0ff4f493          	andi	s1,s1,255
     9de:	b77d                	c.j	98c <pm_wait_bbpll_done+0x28>
     9e0:	40f2                	c.lwsp	ra,28(sp)
     9e2:	4462                	c.lwsp	s0,24(sp)
     9e4:	44d2                	c.lwsp	s1,20(sp)
     9e6:	4942                	c.lwsp	s2,16(sp)
     9e8:	6105                	c.addi16sp	sp,32
     9ea:	8082                	c.jr	ra
     9ec:	4462                	c.lwsp	s0,24(sp)
     9ee:	40f2                	c.lwsp	ra,28(sp)
     9f0:	44d2                	c.lwsp	s1,20(sp)
     9f2:	85ca                	c.mv	a1,s2
     9f4:	4942                	c.lwsp	s2,16(sp)
     9f6:	08100513          	li	a0,129
     9fa:	6105                	c.addi16sp	sp,32
     9fc:	d99ff06f          	j	794 <analog_write_reg8>
     a00:	04600593          	li	a1,70
     a04:	4505                	c.li	a0,1
     a06:	3379                	c.jal	794 <analog_write_reg8>
     a08:	fd1ff06f          	j	9d8 <pm_wait_bbpll_done+0x74>
     a0c:	04300593          	li	a1,67
     a10:	4505                	c.li	a0,1
     a12:	3349                	c.jal	794 <analog_write_reg8>
     a14:	fc5ff06f          	j	9d8 <pm_wait_bbpll_done+0x74>

00000a18 <pm_sleep_start>:
     a18:	1101                	c.addi	sp,-32
     a1a:	c87fa72b          	lwgp	a4,-892 # 80484 <g_chip_version>
     a1e:	000006b7          	lui	a3,0x0
     a22:	ce06                	c.swsp	ra,28(sp)
     a24:	cc22                	c.swsp	s0,24(sp)
     a26:	ca26                	c.swsp	s1,20(sp)
     a28:	0ff00793          	li	a5,255
     a2c:	19a6c583          	lbu	a1,410(a3) # 19a <g_pm_suspend_power_cfg>
     a30:	00f71a63          	bne	a4,a5,a44 <pm_sleep_start+0x2c>
     a34:	0fe5f593          	andi	a1,a1,254
     a38:	07d00513          	li	a0,125
     a3c:	d59ff0ef          	jal	ra,794 <analog_write_reg8>
     a40:	00c0006f          	j	a4c <pm_sleep_start+0x34>
     a44:	07d00513          	li	a0,125
     a48:	d4dff0ef          	jal	ra,794 <analog_write_reg8>
     a4c:	801406b7          	lui	a3,0x80140
     a50:	10268783          	lb	a5,258(a3) # 80140102 <_DATA_LMA_START+0x601365fa>
     a54:	fe07fe5b          	bbs	a5,0,a50 <pm_sleep_start+0x38>
     a58:	10168703          	lb	a4,257(a3)
     a5c:	801407b7          	lui	a5,0x80140
     a60:	0ff77713          	andi	a4,a4,255
     a64:	01076713          	ori	a4,a4,16
     a68:	10e680a3          	sb	a4,257(a3)
     a6c:	32878703          	lb	a4,808(a5) # 80140328 <_DATA_LMA_START+0x60136820>
     a70:	be377e5b          	bbc	a4,3,a6c <pm_sleep_start+0x54>
     a74:	10178703          	lb	a4,257(a5)
     a78:	80140437          	lui	s0,0x80140
     a7c:	0fd77713          	andi	a4,a4,253
     a80:	10e780a3          	sb	a4,257(a5)
     a84:	10178703          	lb	a4,257(a5)
     a88:	0ef77713          	andi	a4,a4,239
     a8c:	10e780a3          	sb	a4,257(a5)
     a90:	fb900713          	li	a4,-71
     a94:	10e78023          	sb	a4,256(a5)
     a98:	10240783          	lb	a5,258(s0) # 80140102 <_DATA_LMA_START+0x601365fa>
     a9c:	fe07fe5b          	bbs	a5,0,a98 <pm_sleep_start+0x80>
     aa0:	10140783          	lb	a5,257(s0)
     aa4:	452d                	c.li	a0,11
     aa6:	0ff7f793          	andi	a5,a5,255
     aaa:	0107e793          	ori	a5,a5,16
     aae:	10f400a3          	sb	a5,257(s0)
     ab2:	320404a3          	sb	zero,809(s0)
     ab6:	330d                	c.jal	7d8 <analog_read_reg8>
     ab8:	0fc57593          	andi	a1,a0,252
     abc:	452d                	c.li	a0,11
     abe:	39d9                	c.jal	794 <analog_write_reg8>
     ac0:	08100513          	li	a0,129
     ac4:	d15ff0ef          	jal	ra,7d8 <analog_read_reg8>
     ac8:	f8056593          	ori	a1,a0,-128
     acc:	0ff5f593          	andi	a1,a1,255
     ad0:	08100513          	li	a0,129
     ad4:	cc1ff0ef          	jal	ra,794 <analog_write_reg8>
     ad8:	f8000793          	li	a5,-128
     adc:	1ef407a3          	sb	a5,495(s0)
     ae0:	03f00493          	li	s1,63
     ae4:	00012423          	sw	zero,8(sp)
     ae8:	47a2                	c.lwsp	a5,8(sp)
     aea:	00f4e763          	bltu	s1,a5,af8 <pm_sleep_start+0xe0>
     aee:	0001                	c.nop
     af0:	47a2                	c.lwsp	a5,8(sp)
     af2:	0785                	c.addi	a5,1
     af4:	c43e                	c.swsp	a5,8(sp)
     af6:	bfcd                	c.j	ae8 <pm_sleep_start+0xd0>
     af8:	08100513          	li	a0,129
     afc:	cddff0ef          	jal	ra,7d8 <analog_read_reg8>
     b00:	07f57593          	andi	a1,a0,127
     b04:	08100513          	li	a0,129
     b08:	c8dff0ef          	jal	ra,794 <analog_write_reg8>
     b0c:	00b00513          	li	a0,11
     b10:	cc9ff0ef          	jal	ra,7d8 <analog_read_reg8>
     b14:	00356593          	ori	a1,a0,3
     b18:	0ff5f593          	andi	a1,a1,255
     b1c:	452d                	c.li	a0,11
     b1e:	399d                	c.jal	794 <analog_write_reg8>
     b20:	08000593          	li	a1,128
     b24:	07d00513          	li	a0,125
     b28:	c6dff0ef          	jal	ra,794 <analog_write_reg8>
     b2c:	801407b7          	lui	a5,0x80140
     b30:	329784a3          	sb	s1,809(a5) # 80140329 <_DATA_LMA_START+0x60136821>
     b34:	10178683          	lb	a3,257(a5)
     b38:	80140737          	lui	a4,0x80140
     b3c:	0ef6f693          	andi	a3,a3,239
     b40:	10d780a3          	sb	a3,257(a5)
     b44:	fab00693          	li	a3,-85
     b48:	10d78023          	sb	a3,256(a5)
     b4c:	10270783          	lb	a5,258(a4) # 80140102 <_DATA_LMA_START+0x601365fa>
     b50:	fe07fe5b          	bbs	a5,0,b4c <pm_sleep_start+0x134>
     b54:	10170783          	lb	a5,257(a4)
     b58:	12b00693          	li	a3,299
     b5c:	0ff7f793          	andi	a5,a5,255
     b60:	0107e793          	ori	a5,a5,16
     b64:	10f700a3          	sb	a5,257(a4)
     b68:	00012623          	sw	zero,12(sp)
     b6c:	47b2                	c.lwsp	a5,12(sp)
     b6e:	00f6e763          	bltu	a3,a5,b7c <pm_sleep_start+0x164>
     b72:	0001                	c.nop
     b74:	47b2                	c.lwsp	a5,12(sp)
     b76:	0785                	c.addi	a5,1
     b78:	c63e                	c.swsp	a5,12(sp)
     b7a:	bfcd                	c.j	b6c <pm_sleep_start+0x154>
     b7c:	08800513          	li	a0,136
     b80:	c59ff0ef          	jal	ra,7d8 <analog_read_reg8>
     b84:	be757c5b          	bbc	a0,7,b7c <pm_sleep_start+0x164>
     b88:	08800513          	li	a0,136
     b8c:	c4dff0ef          	jal	ra,7d8 <analog_read_reg8>
     b90:	be757c5b          	bbc	a0,7,b88 <pm_sleep_start+0x170>
     b94:	08800513          	li	a0,136
     b98:	c41ff0ef          	jal	ra,7d8 <analog_read_reg8>
     b9c:	be757c5b          	bbc	a0,7,b94 <pm_sleep_start+0x17c>
     ba0:	4462                	c.lwsp	s0,24(sp)
     ba2:	40f2                	c.lwsp	ra,28(sp)
     ba4:	44d2                	c.lwsp	s1,20(sp)
     ba6:	6105                	c.addi16sp	sp,32
     ba8:	dbdff06f          	j	964 <pm_wait_bbpll_done>

00000bac <dr_putchar>:
     bac:	1101                	c.addi	sp,-32
     bae:	ca26                	c.swsp	s1,20(sp)
     bb0:	cc22                	c.swsp	s0,24(sp)
     bb2:	ce06                	c.swsp	ra,28(sp)
     bb4:	c84a                	c.swsp	s2,16(sp)
     bb6:	c51f948b          	addigp	s1,-944 # 80450 <init_flag.4915>
     bba:	842a                	c.mv	s0,a0
     bbc:	0004c783          	lbu	a5,0(s1)
     bc0:	0c17d25b          	beqc	a5,1,c84 <dr_putchar+0xd8>
     bc4:	801407b7          	lui	a5,0x80140
     bc8:	30378703          	lb	a4,771(a5) # 80140303 <_DATA_LMA_START+0x601367fb>
     bcc:	30378783          	lb	a5,771(a5)
     bd0:	0fe77713          	andi	a4,a4,254
     bd4:	0ff7f793          	andi	a5,a5,255
     bd8:	0017e793          	ori	a5,a5,1
     bdc:	00e10223          	sb	a4,4(sp)
     be0:	86be                	c.mv	a3,a5
     be2:	4004735b          	bbs	s0,0,be8 <dr_putchar+0x3c>
     be6:	86ba                	c.mv	a3,a4
     be8:	00d102a3          	sb	a3,5(sp)
     bec:	86be                	c.mv	a3,a5
     bee:	4014735b          	bbs	s0,1,bf4 <dr_putchar+0x48>
     bf2:	86ba                	c.mv	a3,a4
     bf4:	00d10323          	sb	a3,6(sp)
     bf8:	86be                	c.mv	a3,a5
     bfa:	4024735b          	bbs	s0,2,c00 <dr_putchar+0x54>
     bfe:	86ba                	c.mv	a3,a4
     c00:	00d103a3          	sb	a3,7(sp)
     c04:	86be                	c.mv	a3,a5
     c06:	4034735b          	bbs	s0,3,c0c <dr_putchar+0x60>
     c0a:	86ba                	c.mv	a3,a4
     c0c:	00d10423          	sb	a3,8(sp)
     c10:	86be                	c.mv	a3,a5
     c12:	4044735b          	bbs	s0,4,c18 <dr_putchar+0x6c>
     c16:	86ba                	c.mv	a3,a4
     c18:	00d104a3          	sb	a3,9(sp)
     c1c:	86be                	c.mv	a3,a5
     c1e:	4054735b          	bbs	s0,5,c24 <dr_putchar+0x78>
     c22:	86ba                	c.mv	a3,a4
     c24:	00d10523          	sb	a3,10(sp)
     c28:	86be                	c.mv	a3,a5
     c2a:	4064735b          	bbs	s0,6,c30 <dr_putchar+0x84>
     c2e:	86ba                	c.mv	a3,a4
     c30:	00d105a3          	sb	a3,11(sp)
     c34:	801d                	c.srli	s0,0x7
     c36:	c019                	c.beqz	s0,c3c <dr_putchar+0x90>
     c38:	00f00733          	add	a4,zero,a5
     c3c:	00f106a3          	sb	a5,13(sp)
     c40:	801407b7          	lui	a5,0x80140
     c44:	00e10623          	sb	a4,12(sp)
     c48:	2007a603          	lw	a2,512(a5) # 80140200 <_DATA_LMA_START+0x601366f8>
     c4c:	00410513          	addi	a0,sp,4
     c50:	00e10813          	addi	a6,sp,14
     c54:	801406b7          	lui	a3,0x80140
     c58:	08900593          	li	a1,137
     c5c:	2006a783          	lw	a5,512(a3) # 80140200 <_DATA_LMA_START+0x601366f8>
     c60:	40c78733          	sub	a4,a5,a2
     c64:	fee5fce3          	bgeu	a1,a4,c5c <dr_putchar+0xb0>
     c68:	00054703          	lbu	a4,0(a0)
     c6c:	0505                	c.addi	a0,1
     c6e:	30e681a3          	sb	a4,771(a3)
     c72:	863e                	c.mv	a2,a5
     c74:	ff0514e3          	bne	a0,a6,c5c <dr_putchar+0xb0>
     c78:	40f2                	c.lwsp	ra,28(sp)
     c7a:	4462                	c.lwsp	s0,24(sp)
     c7c:	44d2                	c.lwsp	s1,20(sp)
     c7e:	4942                	c.lwsp	s2,16(sp)
     c80:	6105                	c.addi16sp	sp,32
     c82:	8082                	c.jr	ra
     c84:	80140937          	lui	s2,0x80140
     c88:	30690783          	lb	a5,774(s2) # 80140306 <_DATA_LMA_START+0x601367fe>
     c8c:	4539                	c.li	a0,14
     c8e:	0ff7f793          	andi	a5,a5,255
     c92:	0017e793          	ori	a5,a5,1
     c96:	30f90323          	sb	a5,774(s2)
     c9a:	3e3d                	c.jal	7d8 <analog_read_reg8>
     c9c:	0fc57593          	andi	a1,a0,252
     ca0:	0015e593          	ori	a1,a1,1
     ca4:	4539                	c.li	a0,14
     ca6:	34fd                	c.jal	794 <analog_write_reg8>
     ca8:	30290783          	lb	a5,770(s2)
     cac:	0fe7f793          	andi	a5,a5,254
     cb0:	30f90123          	sb	a5,770(s2)
     cb4:	30390783          	lb	a5,771(s2)
     cb8:	0ff7f793          	andi	a5,a5,255
     cbc:	0017e793          	ori	a5,a5,1
     cc0:	30f901a3          	sb	a5,771(s2)
     cc4:	00048023          	sb	zero,0(s1)
     cc8:	efdff06f          	j	bc4 <dr_putchar+0x18>

00000ccc <pm_sleep_wakeup_ram.constprop.3>:
     ccc:	1101                	c.addi	sp,-32
     cce:	c452                	c.swsp	s4,8(sp)
     cd0:	8a2a                	c.mv	s4,a0
     cd2:	ce06                	c.swsp	ra,28(sp)
     cd4:	cc22                	c.swsp	s0,24(sp)
     cd6:	ca26                	c.swsp	s1,20(sp)
     cd8:	c84a                	c.swsp	s2,16(sp)
     cda:	c64e                	c.swsp	s3,12(sp)
     cdc:	c256                	c.swsp	s5,4(sp)
     cde:	c05a                	c.swsp	s6,0(sp)
     ce0:	300029f3          	csrr	s3,mstatus
     ce4:	0089f993          	andi	s3,s3,8
     ce8:	00098663          	beqz	s3,cf4 <pm_sleep_wakeup_ram.constprop.3+0x28>
     cec:	300477f3          	csrrci	a5,mstatus,8
     cf0:	0ff0000f          	fence
     cf4:	801407b7          	lui	a5,0x80140
     cf8:	2147a683          	lw	a3,532(a5) # 80140214 <_DATA_LMA_START+0x6013670c>
     cfc:	def5                	c.beqz	a3,cf8 <pm_sleep_wakeup_ram.constprop.3+0x2c>
     cfe:	00000437          	lui	s0,0x0
     d02:	15840693          	addi	a3,s0,344 # 158 <_AES_VMA_END>
     d06:	2147a783          	lw	a5,532(a5)
     d0a:	5298                	c.lw	a4,32(a3)
     d0c:	da9c                	c.sw	a5,48(a3)
     d0e:	15840413          	addi	s0,s0,344
     d12:	0792                	c.slli	a5,0x4
     d14:	cb11                	c.beqz	a4,d28 <pm_sleep_wakeup_ram.constprop.3+0x5c>
     d16:	03444603          	lbu	a2,52(s0)
     d1a:	4691                	c.li	a3,4
     d1c:	8f99                	c.sub	a5,a4
     d1e:	8e91                	c.sub	a3,a2
     d20:	40d7d7b3          	sra	a5,a5,a3
     d24:	00e787b3          	add	a5,a5,a4
     d28:	d01c                	c.sw	a5,32(s0)
     d2a:	5004                	c.lw	s1,32(s0)
     d2c:	485c                	c.lw	a5,20(s0)
     d2e:	8491                	c.srai	s1,0x4
     d30:	02f487b3          	mul	a5,s1,a5
     d34:	80140937          	lui	s2,0x80140
     d38:	20092a83          	lw	s5,512(s2) # 80140200 <_DATA_LMA_START+0x601366f8>
     d3c:	e0000737          	lui	a4,0xe0000
     d40:	415a0ab3          	sub	s5,s4,s5
     d44:	87c9                	c.srai	a5,0x12
     d46:	94be                	c.add	s1,a5
     d48:	0486                	c.slli	s1,0x1
     d4a:	dc04                	c.sw	s1,56(s0)
     d4c:	03577063          	bgeu	a4,s5,d6c <pm_sleep_wakeup_ram.constprop.3+0xa0>
     d50:	00098663          	beqz	s3,d5c <pm_sleep_wakeup_ram.constprop.3+0x90>
     d54:	3009a9f3          	csrrs	s3,mstatus,s3
     d58:	0ff0000f          	fence
     d5c:	06400513          	li	a0,100
     d60:	a79ff0ef          	jal	ra,7d8 <analog_read_reg8>
     d64:	01f57513          	andi	a0,a0,31
     d68:	25c0006f          	j	fc4 <pm_sleep_wakeup_ram.constprop.3+0x2f8>
     d6c:	04a41783          	lh	a5,74(s0)
     d70:	1137a7db          	bfoz	a5,a5,4,19
     d74:	02fafe63          	bgeu	s5,a5,db0 <pm_sleep_wakeup_ram.constprop.3+0xe4>
     d78:	45fd                	c.li	a1,31
     d7a:	06400513          	li	a0,100
     d7e:	801404b7          	lui	s1,0x80140
     d82:	20092403          	lw	s0,512(s2)
     d86:	3439                	c.jal	794 <analog_write_reg8>
     d88:	06400513          	li	a0,100
     d8c:	a4dff0ef          	jal	ra,7d8 <analog_read_reg8>
     d90:	2004a783          	lw	a5,512(s1) # 80140200 <_DATA_LMA_START+0x601366f8>
     d94:	897d                	c.andi	a0,31
     d96:	8f81                	c.sub	a5,s0
     d98:	0157f463          	bgeu	a5,s5,da0 <pm_sleep_wakeup_ram.constprop.3+0xd4>
     d9c:	fe0506e3          	beqz	a0,d88 <pm_sleep_wakeup_ram.constprop.3+0xbc>
     da0:	22098263          	beqz	s3,fc4 <pm_sleep_wakeup_ram.constprop.3+0x2f8>
     da4:	3009a9f3          	csrrs	s3,mstatus,s3
     da8:	0ff0000f          	fence
     dac:	2180006f          	j	fc4 <pm_sleep_wakeup_ram.constprop.3+0x2f8>
     db0:	1e890a83          	lb	s5,488(s2)
     db4:	00faf793          	andi	a5,s5,15
     db8:	1ef90423          	sb	a5,488(s2)
     dbc:	1d890b03          	lb	s6,472(s2)
     dc0:	0f8b7793          	andi	a5,s6,248
     dc4:	1cf90c23          	sb	a5,472(s2)
     dc8:	00100793          	li	a5,1
     dcc:	20f90c23          	sb	a5,536(s2)
     dd0:	20a90783          	lb	a5,522(s2)
     dd4:	0f77f793          	andi	a5,a5,247
     dd8:	20f90523          	sb	a5,522(s2)
     ddc:	d7cff0ef          	jal	ra,358 <clock_get_32k_tick>
     de0:	20092703          	lw	a4,512(s2)
     de4:	20b90783          	lb	a5,523(s2)
     de8:	5414                	c.lw	a3,40(s0)
     dea:	0ff7f793          	andi	a5,a5,255
     dee:	0027e793          	ori	a5,a5,2
     df2:	c468                	c.sw	a0,76(s0)
     df4:	c418                	c.sw	a4,8(s0)
     df6:	03444603          	lbu	a2,52(s0)
     dfa:	40d506b3          	sub	a3,a0,a3
     dfe:	20f905a3          	sb	a5,523(s2)
     e02:	d454                	c.sw	a3,44(s0)
     e04:	e215                	c.bnez	a2,e28 <pm_sleep_wakeup_ram.constprop.3+0x15c>
     e06:	445c                	c.lw	a5,12(s0)
     e08:	c385                	c.beqz	a5,e28 <pm_sleep_wakeup_ram.constprop.3+0x15c>
     e0a:	05044783          	lbu	a5,80(s0)
     e0e:	ef89                	c.bnez	a5,e28 <pm_sleep_wakeup_ram.constprop.3+0x15c>
     e10:	01042783          	lw	a5,16(s0)
     e14:	000276b7          	lui	a3,0x27
     e18:	40f507b3          	sub	a5,a0,a5
     e1c:	6c07a7db          	bfoz	a5,a5,27,0
     e20:	10068693          	addi	a3,a3,256 # 27100 <BIN_SIZE+0x1d16a>
     e24:	00f6f863          	bgeu	a3,a5,e34 <pm_sleep_wakeup_ram.constprop.3+0x168>
     e28:	00176713          	ori	a4,a4,1
     e2c:	02040a23          	sb	zero,52(s0)
     e30:	c808                	c.sw	a0,16(s0)
     e32:	c458                	c.sw	a4,12(s0)
     e34:	02000593          	li	a1,32
     e38:	04b00513          	li	a0,75
     e3c:	959ff0ef          	jal	ra,794 <analog_write_reg8>
     e40:	45fd                	c.li	a1,31
     e42:	06400513          	li	a0,100
     e46:	32b9                	c.jal	794 <analog_write_reg8>
     e48:	03000593          	li	a1,48
     e4c:	07e00513          	li	a0,126
     e50:	945ff0ef          	jal	ra,794 <analog_write_reg8>
     e54:	0f900593          	li	a1,249
     e58:	04d00513          	li	a0,77
     e5c:	939ff0ef          	jal	ra,794 <analog_write_reg8>
     e60:	4585                	c.li	a1,1
     e62:	07f00513          	li	a0,127
     e66:	323d                	c.jal	794 <analog_write_reg8>
     e68:	04841783          	lh	a5,72(s0)
     e6c:	0ee00593          	li	a1,238
     e70:	1137a7db          	bfoz	a5,a5,4,19
     e74:	04c00513          	li	a0,76
     e78:	40fa0933          	sub	s2,s4,a5
     e7c:	919ff0ef          	jal	ra,794 <analog_write_reg8>
     e80:	05441583          	lh	a1,84(s0)
     e84:	04000513          	li	a0,64
     e88:	0ff5f593          	andi	a1,a1,255
     e8c:	909ff0ef          	jal	ra,794 <analog_write_reg8>
     e90:	445c                	c.lw	a5,12(s0)
     e92:	07ff0737          	lui	a4,0x7ff0
     e96:	40f907b3          	sub	a5,s2,a5
     e9a:	00f77763          	bgeu	a4,a5,ea8 <pm_sleep_wakeup_ram.constprop.3+0x1dc>
     e9e:	4705                	c.li	a4,1
     ea0:	00e40223          	sb	a4,4(s0)
     ea4:	0080006f          	j	eac <pm_sleep_wakeup_ram.constprop.3+0x1e0>
     ea8:	00040223          	sb	zero,4(s0)
     eac:	00444683          	lbu	a3,4(s0)
     eb0:	4808                	c.lw	a0,16(s0)
     eb2:	5c18                	c.lw	a4,56(s0)
     eb4:	c691                	c.beqz	a3,ec0 <pm_sleep_wakeup_ram.constprop.3+0x1f4>
     eb6:	02e7d7b3          	divu	a5,a5,a4
     eba:	0796                	c.slli	a5,0x5
     ebc:	953e                	c.add	a0,a5
     ebe:	a039                	c.j	ecc <pm_sleep_wakeup_ram.constprop.3+0x200>
     ec0:	8085                	c.srli	s1,0x1
     ec2:	0796                	c.slli	a5,0x5
     ec4:	97a6                	c.add	a5,s1
     ec6:	02e7d7b3          	divu	a5,a5,a4
     eca:	953e                	c.add	a0,a5
     ecc:	be0ff0ef          	jal	ra,2ac <clock_set_32k_tick>
     ed0:	06400513          	li	a0,100
     ed4:	905ff0ef          	jal	ra,7d8 <analog_read_reg8>
     ed8:	01f57513          	andi	a0,a0,31
     edc:	e901                	c.bnez	a0,eec <pm_sleep_wakeup_ram.constprop.3+0x220>
     ede:	3e2d                	c.jal	a18 <pm_sleep_start>
     ee0:	00100593          	li	a1,1
     ee4:	07f00513          	li	a0,127
     ee8:	8adff0ef          	jal	ra,794 <analog_write_reg8>
     eec:	80140737          	lui	a4,0x80140
     ef0:	02000793          	li	a5,32
     ef4:	1ef707a3          	sb	a5,495(a4) # 801401ef <_DATA_LMA_START+0x601366e7>
     ef8:	00200793          	li	a5,2
     efc:	20f70c23          	sb	a5,536(a4)
     f00:	20a70783          	lb	a5,522(a4)
     f04:	0ff7f793          	andi	a5,a5,255
     f08:	00c7e793          	ori	a5,a5,12
     f0c:	20f70523          	sb	a5,522(a4)
     f10:	c48ff0ef          	jal	ra,358 <clock_get_32k_tick>
     f14:	00444783          	lbu	a5,4(s0)
     f18:	cf81                	c.beqz	a5,f30 <pm_sleep_wakeup_ram.constprop.3+0x264>
     f1a:	481c                	c.lw	a5,16(s0)
     f1c:	5c14                	c.lw	a3,56(s0)
     f1e:	40f507b3          	sub	a5,a0,a5
     f22:	4458                	c.lw	a4,12(s0)
     f24:	0785                	c.addi	a5,1
     f26:	8395                	c.srli	a5,0x5
     f28:	c4d7977f          	maddr32	a4,a5,a3
     f2c:	c418                	c.sw	a4,8(s0)
     f2e:	a829                	c.j	f48 <pm_sleep_wakeup_ram.constprop.3+0x27c>
     f30:	481c                	c.lw	a5,16(s0)
     f32:	5c18                	c.lw	a4,56(s0)
     f34:	40f507b3          	sub	a5,a0,a5
     f38:	0785                	c.addi	a5,1
     f3a:	02e787b3          	mul	a5,a5,a4
     f3e:	4458                	c.lw	a4,12(s0)
     f40:	8395                	c.srli	a5,0x5
     f42:	97ba                	c.add	a5,a4
     f44:	00f42423          	sw	a5,8(s0)
     f48:	481c                	c.lw	a5,16(s0)
     f4a:	4414                	c.lw	a3,8(s0)
     f4c:	40f507b3          	sub	a5,a0,a5
     f50:	0785                	c.addi	a5,1
     f52:	0505                	c.addi	a0,1
     f54:	d05c                	c.sw	a5,36(s0)
     f56:	0685                	c.addi	a3,1
     f58:	02a42423          	sw	a0,40(s0)
     f5c:	801407b7          	lui	a5,0x80140
     f60:	80140737          	lui	a4,0x80140
     f64:	20d7a023          	sw	a3,512(a5) # 80140200 <_DATA_LMA_START+0x601366f8>
     f68:	20b70783          	lb	a5,523(a4) # 8014020b <_DATA_LMA_START+0x60136703>
     f6c:	be77fe5b          	bbc	a5,7,f68 <pm_sleep_wakeup_ram.constprop.3+0x29c>
     f70:	20070c23          	sb	zero,536(a4)
     f74:	1d670c23          	sb	s6,472(a4)
     f78:	06400513          	li	a0,100
     f7c:	1f570423          	sb	s5,488(a4)
     f80:	859ff0ef          	jal	ra,7d8 <analog_read_reg8>
     f84:	c89f970b          	addigp	a4,-888 # 80488 <g_pm_status_info>
     f88:	00a700a3          	sb	a0,1(a4)
     f8c:	c89f978b          	addigp	a5,-888 # 80488 <g_pm_status_info>
     f90:	00157c5b          	bbc	a0,1,fa8 <pm_sleep_wakeup_ram.constprop.3+0x2dc>
     f94:	80140637          	lui	a2,0x80140
     f98:	400006b7          	lui	a3,0x40000
     f9c:	20062703          	lw	a4,512(a2) # 80140200 <_DATA_LMA_START+0x601366f8>
     fa0:	41470733          	sub	a4,a4,s4
     fa4:	fee6ece3          	bltu	a3,a4,f9c <pm_sleep_wakeup_ram.constprop.3+0x2d0>
     fa8:	00098663          	beqz	s3,fb4 <pm_sleep_wakeup_ram.constprop.3+0x2e8>
     fac:	3009a9f3          	csrrs	s3,mstatus,s3
     fb0:	0ff0000f          	fence
     fb4:	0017c783          	lbu	a5,1(a5)
     fb8:	10000513          	li	a0,256
     fbc:	c781                	c.beqz	a5,fc4 <pm_sleep_wakeup_ram.constprop.3+0x2f8>
     fbe:	40000537          	lui	a0,0x40000
     fc2:	8d5d                	c.or	a0,a5
     fc4:	40f2                	c.lwsp	ra,28(sp)
     fc6:	4462                	c.lwsp	s0,24(sp)
     fc8:	44d2                	c.lwsp	s1,20(sp)
     fca:	4942                	c.lwsp	s2,16(sp)
     fcc:	49b2                	c.lwsp	s3,12(sp)
     fce:	4a22                	c.lwsp	s4,8(sp)
     fd0:	4a92                	c.lwsp	s5,4(sp)
     fd2:	4b02                	c.lwsp	s6,0(sp)
     fd4:	6105                	c.addi16sp	sp,32
     fd6:	8082                	c.jr	ra

00000fd8 <trap_entry>:
     fd8:	1101                	c.addi	sp,-32
     fda:	ce2a                	c.swsp	a0,28(sp)
     fdc:	cc2e                	c.swsp	a1,24(sp)
     fde:	ca32                	c.swsp	a2,20(sp)
     fe0:	c836                	c.swsp	a3,16(sp)
     fe2:	c63a                	c.swsp	a4,12(sp)
     fe4:	c43e                	c.swsp	a5,8(sp)
     fe6:	34202773          	csrr	a4,mcause
     fea:	000007b7          	lui	a5,0x0
     fee:	15878793          	addi	a5,a5,344 # 158 <_AES_VMA_END>
     ff2:	03c78683          	lb	a3,60(a5)
     ff6:	0ff6f693          	andi	a3,a3,255
     ffa:	c2dd                	c.beqz	a3,10a0 <trap_entry+0xc8>
     ffc:	34102673          	csrr	a2,mepc
    1000:	300025f3          	csrr	a1,mstatus
    1004:	7c4026f3          	csrr	a3,mxstatus
    1008:	02074a63          	bltz	a4,103c <trap_entry+0x64>
    100c:	34302773          	csrr	a4,mtval
    1010:	c8efc1ab          	swgp	a4,-896 # 80480 <exception_mtval>
    1014:	34102773          	csrr	a4,mepc
    1018:	c6efcdab          	swgp	a4,-904 # 80478 <exception_mepc>
    101c:	30002773          	csrr	a4,mstatus
    1020:	c6efcfab          	swgp	a4,-900 # 8047c <exception_mstatus>
    1024:	34202773          	csrr	a4,mcause
    1028:	c6efc9ab          	swgp	a4,-912 # 80470 <_BSS_VMA_START>
    102c:	7c902773          	csrr	a4,mdcause
    1030:	c6efcbab          	swgp	a4,-908 # 80474 <exception_mdcause>
    1034:	0001                	c.nop
    1036:	0001                	c.nop
    1038:	ffdff06f          	j	1034 <trap_entry+0x5c>
    103c:	7807275b          	bfoz	a4,a4,30,0
    1040:	0677545b          	beqc	a4,7,10a8 <trap_entry+0xd0>
    1044:	bc37645b          	bnec	a4,3,100c <trap_entry+0x34>
    1048:	e6600737          	lui	a4,0xe6600
    104c:	4358                	c.lw	a4,4(a4)
    104e:	03c78703          	lb	a4,60(a5)
    1052:	0ff77713          	andi	a4,a4,255
    1056:	c319                	c.beqz	a4,105c <trap_entry+0x84>
    1058:	30046773          	csrrsi	a4,mstatus,8
    105c:	03c78703          	lb	a4,60(a5)
    1060:	0ff77713          	andi	a4,a4,255
    1064:	00070463          	beqz	a4,106c <trap_entry+0x94>
    1068:	30047773          	csrrci	a4,mstatus,8
    106c:	e6600737          	lui	a4,0xe6600
    1070:	4505                	c.li	a0,1
    1072:	c348                	c.sw	a0,4(a4)
    1074:	03c78783          	lb	a5,60(a5)
    1078:	0ff7f793          	andi	a5,a5,255
    107c:	00078863          	beqz	a5,108c <trap_entry+0xb4>
    1080:	30059073          	csrw	mstatus,a1
    1084:	34161073          	csrw	mepc,a2
    1088:	7c469073          	csrw	mxstatus,a3
    108c:	4572                	c.lwsp	a0,28(sp)
    108e:	45e2                	c.lwsp	a1,24(sp)
    1090:	4652                	c.lwsp	a2,20(sp)
    1092:	46c2                	c.lwsp	a3,16(sp)
    1094:	4732                	c.lwsp	a4,12(sp)
    1096:	47a2                	c.lwsp	a5,8(sp)
    1098:	02010113          	addi	sp,sp,32
    109c:	30200073          	mret
    10a0:	4681                	c.li	a3,0
    10a2:	4581                	c.li	a1,0
    10a4:	4601                	c.li	a2,0
    10a6:	b78d                	c.j	1008 <trap_entry+0x30>
    10a8:	03c78703          	lb	a4,60(a5)
    10ac:	0ff77713          	andi	a4,a4,255
    10b0:	00070863          	beqz	a4,10c0 <trap_entry+0xe8>
    10b4:	08000713          	li	a4,128
    10b8:	30473773          	csrrc	a4,mie,a4
    10bc:	30046773          	csrrsi	a4,mstatus,8
    10c0:	03c78703          	lb	a4,60(a5)
    10c4:	0ff77713          	andi	a4,a4,255
    10c8:	d755                	c.beqz	a4,1074 <trap_entry+0x9c>
    10ca:	30047773          	csrrci	a4,mstatus,8
    10ce:	08000713          	li	a4,128
    10d2:	30472773          	csrrs	a4,mie,a4
    10d6:	bf79                	c.j	1074 <trap_entry+0x9c>
    10d8:	0001                	c.nop
	...

00001100 <__vectors>:
    1100:	0fd8                	c.addi4spn	a4,sp,980
    1102:	0000                	unimp
    1104:	26f8                	c.fld	fa4,200(a3)
    1106:	0000                	unimp
    1108:	26f8                	c.fld	fa4,200(a3)
    110a:	0000                	unimp
    110c:	26f8                	c.fld	fa4,200(a3)
    110e:	0000                	unimp
    1110:	26f8                	c.fld	fa4,200(a3)
    1112:	0000                	unimp
    1114:	26f8                	c.fld	fa4,200(a3)
    1116:	0000                	unimp
    1118:	26f8                	c.fld	fa4,200(a3)
    111a:	0000                	unimp
    111c:	26f8                	c.fld	fa4,200(a3)
    111e:	0000                	unimp
    1120:	26f8                	c.fld	fa4,200(a3)
    1122:	0000                	unimp
    1124:	26f8                	c.fld	fa4,200(a3)
    1126:	0000                	unimp
    1128:	26f8                	c.fld	fa4,200(a3)
    112a:	0000                	unimp
    112c:	26f8                	c.fld	fa4,200(a3)
    112e:	0000                	unimp
    1130:	26f8                	c.fld	fa4,200(a3)
    1132:	0000                	unimp
    1134:	26f8                	c.fld	fa4,200(a3)
    1136:	0000                	unimp
    1138:	26f8                	c.fld	fa4,200(a3)
    113a:	0000                	unimp
    113c:	26f8                	c.fld	fa4,200(a3)
    113e:	0000                	unimp
    1140:	26f8                	c.fld	fa4,200(a3)
    1142:	0000                	unimp
    1144:	26f8                	c.fld	fa4,200(a3)
    1146:	0000                	unimp
    1148:	26f8                	c.fld	fa4,200(a3)
    114a:	0000                	unimp
    114c:	26f8                	c.fld	fa4,200(a3)
    114e:	0000                	unimp
    1150:	26f8                	c.fld	fa4,200(a3)
    1152:	0000                	unimp
    1154:	26f8                	c.fld	fa4,200(a3)
    1156:	0000                	unimp
    1158:	26f8                	c.fld	fa4,200(a3)
    115a:	0000                	unimp
    115c:	26f8                	c.fld	fa4,200(a3)
    115e:	0000                	unimp
    1160:	26f8                	c.fld	fa4,200(a3)
    1162:	0000                	unimp
    1164:	26f8                	c.fld	fa4,200(a3)
    1166:	0000                	unimp
    1168:	26f8                	c.fld	fa4,200(a3)
    116a:	0000                	unimp
    116c:	26f8                	c.fld	fa4,200(a3)
    116e:	0000                	unimp
    1170:	26f8                	c.fld	fa4,200(a3)
    1172:	0000                	unimp
    1174:	26f8                	c.fld	fa4,200(a3)
    1176:	0000                	unimp
    1178:	26f8                	c.fld	fa4,200(a3)
    117a:	0000                	unimp
    117c:	26f8                	c.fld	fa4,200(a3)
    117e:	0000                	unimp
    1180:	26f8                	c.fld	fa4,200(a3)
    1182:	0000                	unimp
    1184:	26f8                	c.fld	fa4,200(a3)
    1186:	0000                	unimp
    1188:	26f8                	c.fld	fa4,200(a3)
    118a:	0000                	unimp
    118c:	26f8                	c.fld	fa4,200(a3)
    118e:	0000                	unimp
    1190:	26f8                	c.fld	fa4,200(a3)
    1192:	0000                	unimp
    1194:	26f8                	c.fld	fa4,200(a3)
    1196:	0000                	unimp
    1198:	26f8                	c.fld	fa4,200(a3)
    119a:	0000                	unimp
    119c:	26f8                	c.fld	fa4,200(a3)
    119e:	0000                	unimp
    11a0:	26f8                	c.fld	fa4,200(a3)
    11a2:	0000                	unimp
    11a4:	26f8                	c.fld	fa4,200(a3)
    11a6:	0000                	unimp
    11a8:	26f8                	c.fld	fa4,200(a3)
    11aa:	0000                	unimp
    11ac:	26f8                	c.fld	fa4,200(a3)
    11ae:	0000                	unimp
    11b0:	26f8                	c.fld	fa4,200(a3)
    11b2:	0000                	unimp
    11b4:	26f8                	c.fld	fa4,200(a3)
    11b6:	0000                	unimp
    11b8:	26f8                	c.fld	fa4,200(a3)
    11ba:	0000                	unimp
    11bc:	26f8                	c.fld	fa4,200(a3)
    11be:	0000                	unimp
    11c0:	26f8                	c.fld	fa4,200(a3)
    11c2:	0000                	unimp
    11c4:	26f8                	c.fld	fa4,200(a3)
    11c6:	0000                	unimp
    11c8:	26f8                	c.fld	fa4,200(a3)
    11ca:	0000                	unimp
    11cc:	26f8                	c.fld	fa4,200(a3)
    11ce:	0000                	unimp
    11d0:	26f8                	c.fld	fa4,200(a3)
    11d2:	0000                	unimp
    11d4:	26f8                	c.fld	fa4,200(a3)
    11d6:	0000                	unimp
    11d8:	26f8                	c.fld	fa4,200(a3)
    11da:	0000                	unimp
    11dc:	26f8                	c.fld	fa4,200(a3)
    11de:	0000                	unimp
    11e0:	26f8                	c.fld	fa4,200(a3)
    11e2:	0000                	unimp
    11e4:	26f8                	c.fld	fa4,200(a3)
    11e6:	0000                	unimp
    11e8:	26f8                	c.fld	fa4,200(a3)
    11ea:	0000                	unimp
    11ec:	26f8                	c.fld	fa4,200(a3)
    11ee:	0000                	unimp
    11f0:	26f8                	c.fld	fa4,200(a3)
    11f2:	0000                	unimp
    11f4:	26f8                	c.fld	fa4,200(a3)
    11f6:	0000                	unimp
    11f8:	26f8                	c.fld	fa4,200(a3)
    11fa:	0000                	unimp
    11fc:	26f8                	c.fld	fa4,200(a3)
    11fe:	0000                	unimp
    1200:	0001                	c.nop
	...

00001204 <flash_read_uid.constprop.6>:
    1204:	1141                	c.addi	sp,-16
    1206:	c606                	c.swsp	ra,12(sp)
    1208:	872a                	c.mv	a4,a0
    120a:	7d047073          	csrci	mmisc_ctl,8
    120e:	47c1                	c.li	a5,16
    1210:	4691                	c.li	a3,4
    1212:	4601                	c.li	a2,0
    1214:	00000593          	li	a1,0
    1218:	04b00513          	li	a0,75
    121c:	aacff0ef          	jal	ra,4c8 <flash_mspi_read_ram>
    1220:	7d046073          	csrsi	mmisc_ctl,8
    1224:	40b2                	c.lwsp	ra,12(sp)
    1226:	0141                	c.addi	sp,16
    1228:	00008067          	ret

0000122c <flash_read_mid>:
    122c:	1101                	c.addi	sp,-32
    122e:	ce06                	c.swsp	ra,28(sp)
    1230:	c602                	c.swsp	zero,12(sp)
    1232:	7d047073          	csrci	mmisc_ctl,8
    1236:	478d                	c.li	a5,3
    1238:	0078                	c.addi4spn	a4,sp,12
    123a:	4681                	c.li	a3,0
    123c:	4601                	c.li	a2,0
    123e:	4581                	c.li	a1,0
    1240:	09f00513          	li	a0,159
    1244:	a84ff0ef          	jal	ra,4c8 <flash_mspi_read_ram>
    1248:	7d046073          	csrsi	mmisc_ctl,8
    124c:	40f2                	c.lwsp	ra,28(sp)
    124e:	4532                	c.lwsp	a0,12(sp)
    1250:	6105                	c.addi16sp	sp,32
    1252:	8082                	c.jr	ra

00001254 <flash_read_mid_uid_with_check>:
    1254:	801f978b          	addigp	a5,-2048 # 80000 <_DATA_VMA_START>
    1258:	4798                	c.lw	a4,8(a5)
    125a:	4390                	c.lw	a2,0(a5)
    125c:	43d4                	c.lw	a3,4(a5)
    125e:	47dc                	c.lw	a5,12(a5)
    1260:	1101                	c.addi	sp,-32
    1262:	cc22                	c.swsp	s0,24(sp)
    1264:	ca26                	c.swsp	s1,20(sp)
    1266:	842a                	c.mv	s0,a0
    1268:	c43a                	c.swsp	a4,8(sp)
    126a:	c63e                	c.swsp	a5,12(sp)
    126c:	ce06                	c.swsp	ra,28(sp)
    126e:	84ae                	c.mv	s1,a1
    1270:	c032                	c.swsp	a2,0(sp)
    1272:	c236                	c.swsp	a3,4(sp)
    1274:	fb9ff0ef          	jal	ra,122c <flash_read_mid>
    1278:	77c1                	c.lui	a5,0xffff0
    127a:	17fd                	c.addi	a5,-1
    127c:	00146737          	lui	a4,0x146
    1280:	c008                	c.sw	a0,0(s0)
    1282:	8fe9                	c.and	a5,a0
    1284:	08570713          	addi	a4,a4,133 # 146085 <FLASH_SIZE+0x46085>
    1288:	02e78063          	beq	a5,a4,12a8 <flash_read_mid_uid_with_check+0x54>
    128c:	00166737          	lui	a4,0x166
    1290:	08570713          	addi	a4,a4,133 # 166085 <FLASH_SIZE+0x66085>
    1294:	4781                	c.li	a5,0
    1296:	00e50963          	beq	a0,a4,12a8 <flash_read_mid_uid_with_check+0x54>
    129a:	40f2                	c.lwsp	ra,28(sp)
    129c:	4462                	c.lwsp	s0,24(sp)
    129e:	44d2                	c.lwsp	s1,20(sp)
    12a0:	853e                	c.mv	a0,a5
    12a2:	6105                	c.addi16sp	sp,32
    12a4:	00008067          	ret
    12a8:	8526                	c.mv	a0,s1
    12aa:	3fa9                	c.jal	1204 <flash_read_uid.constprop.6>
    12ac:	0004c783          	lbu	a5,0(s1)
    12b0:	00014603          	lbu	a2,0(sp)
    12b4:	0014c683          	lbu	a3,1(s1)
    12b8:	00114703          	lbu	a4,1(sp)
    12bc:	8f91                	c.sub	a5,a2
    12be:	0017b793          	seqz	a5,a5
    12c2:	00e69363          	bne	a3,a4,12c8 <flash_read_mid_uid_with_check+0x74>
    12c6:	0785                	c.addi	a5,1
    12c8:	0024c683          	lbu	a3,2(s1)
    12cc:	00214703          	lbu	a4,2(sp)
    12d0:	00e69463          	bne	a3,a4,12d8 <flash_read_mid_uid_with_check+0x84>
    12d4:	00178793          	addi	a5,a5,1 # ffff0001 <_DATA_LMA_START+0xdffe64f9>
    12d8:	0034c683          	lbu	a3,3(s1)
    12dc:	00314703          	lbu	a4,3(sp)
    12e0:	00e69463          	bne	a3,a4,12e8 <flash_read_mid_uid_with_check+0x94>
    12e4:	00178793          	addi	a5,a5,1
    12e8:	0044c683          	lbu	a3,4(s1)
    12ec:	00414703          	lbu	a4,4(sp)
    12f0:	00e69463          	bne	a3,a4,12f8 <flash_read_mid_uid_with_check+0xa4>
    12f4:	00178793          	addi	a5,a5,1
    12f8:	0054c683          	lbu	a3,5(s1)
    12fc:	00514703          	lbu	a4,5(sp)
    1300:	00e69463          	bne	a3,a4,1308 <flash_read_mid_uid_with_check+0xb4>
    1304:	00178793          	addi	a5,a5,1
    1308:	0064c683          	lbu	a3,6(s1)
    130c:	00614703          	lbu	a4,6(sp)
    1310:	00e69463          	bne	a3,a4,1318 <flash_read_mid_uid_with_check+0xc4>
    1314:	00178793          	addi	a5,a5,1
    1318:	0074c683          	lbu	a3,7(s1)
    131c:	00714703          	lbu	a4,7(sp)
    1320:	00e69463          	bne	a3,a4,1328 <flash_read_mid_uid_with_check+0xd4>
    1324:	00178793          	addi	a5,a5,1
    1328:	0084c683          	lbu	a3,8(s1)
    132c:	00814703          	lbu	a4,8(sp)
    1330:	00e69463          	bne	a3,a4,1338 <flash_read_mid_uid_with_check+0xe4>
    1334:	00178793          	addi	a5,a5,1
    1338:	0094c683          	lbu	a3,9(s1)
    133c:	00914703          	lbu	a4,9(sp)
    1340:	00e69463          	bne	a3,a4,1348 <flash_read_mid_uid_with_check+0xf4>
    1344:	00178793          	addi	a5,a5,1
    1348:	00a4c683          	lbu	a3,10(s1)
    134c:	00a14703          	lbu	a4,10(sp)
    1350:	00e69463          	bne	a3,a4,1358 <flash_read_mid_uid_with_check+0x104>
    1354:	00178793          	addi	a5,a5,1
    1358:	00b4c683          	lbu	a3,11(s1)
    135c:	00b14703          	lbu	a4,11(sp)
    1360:	00e69463          	bne	a3,a4,1368 <flash_read_mid_uid_with_check+0x114>
    1364:	00178793          	addi	a5,a5,1
    1368:	00c4c683          	lbu	a3,12(s1)
    136c:	00c14703          	lbu	a4,12(sp)
    1370:	00e69463          	bne	a3,a4,1378 <flash_read_mid_uid_with_check+0x124>
    1374:	00178793          	addi	a5,a5,1
    1378:	00d4c683          	lbu	a3,13(s1)
    137c:	00d14703          	lbu	a4,13(sp)
    1380:	00e69463          	bne	a3,a4,1388 <flash_read_mid_uid_with_check+0x134>
    1384:	00178793          	addi	a5,a5,1
    1388:	00e4c683          	lbu	a3,14(s1)
    138c:	00e14703          	lbu	a4,14(sp)
    1390:	00e69463          	bne	a3,a4,1398 <flash_read_mid_uid_with_check+0x144>
    1394:	00178793          	addi	a5,a5,1
    1398:	00f14683          	lbu	a3,15(sp)
    139c:	00f4c703          	lbu	a4,15(s1)
    13a0:	00e69463          	bne	a3,a4,13a8 <flash_read_mid_uid_with_check+0x154>
    13a4:	00178793          	addi	a5,a5,1
    13a8:	40f2                	c.lwsp	ra,28(sp)
    13aa:	4462                	c.lwsp	s0,24(sp)
    13ac:	17c1                	c.addi	a5,-16
    13ae:	00f037b3          	snez	a5,a5
    13b2:	44d2                	c.lwsp	s1,20(sp)
    13b4:	853e                	c.mv	a0,a5
    13b6:	6105                	c.addi16sp	sp,32
    13b8:	00008067          	ret

000013bc <flash_dread>:
    13bc:	1141                	c.addi	sp,-16
    13be:	c606                	c.swsp	ra,12(sp)
    13c0:	87b2                	c.mv	a5,a2
    13c2:	7d047073          	csrci	mmisc_ctl,8
    13c6:	862e                	c.mv	a2,a1
    13c8:	00f005b3          	add	a1,zero,a5
    13cc:	a7cff0ef          	jal	ra,648 <flash_mspi_read_ram.constprop.7>
    13d0:	7d046073          	csrsi	mmisc_ctl,8
    13d4:	40b2                	c.lwsp	ra,12(sp)
    13d6:	0141                	c.addi	sp,16
    13d8:	00008067          	ret

000013dc <clock_init.constprop.10>:
    13dc:	1141                	c.addi	sp,-16
    13de:	c606                	c.swsp	ra,12(sp)
    13e0:	7d047073          	csrci	mmisc_ctl,8
    13e4:	c40ff0ef          	jal	ra,824 <clock_init_ram.constprop.11>
    13e8:	7d046073          	csrsi	mmisc_ctl,8
    13ec:	40b2                	c.lwsp	ra,12(sp)
    13ee:	0141                	c.addi	sp,16
    13f0:	00008067          	ret

000013f4 <pm_sleep_wakeup.constprop.2>:
    13f4:	1141                	c.addi	sp,-16
    13f6:	c606                	c.swsp	ra,12(sp)
    13f8:	7d047073          	csrci	mmisc_ctl,8
    13fc:	8d1ff0ef          	jal	ra,ccc <pm_sleep_wakeup_ram.constprop.3>
    1400:	7d046073          	csrsi	mmisc_ctl,8
    1404:	40b2                	c.lwsp	ra,12(sp)
    1406:	0141                	c.addi	sp,16
    1408:	8082                	c.jr	ra
    140a:	0001                	c.nop

0000140c <user_calib_adc_vref.constprop.9>:
    140c:	1101                	c.addi	sp,-32
    140e:	ce06                	c.swsp	ra,28(sp)
    1410:	c402                	c.swsp	zero,8(sp)
    1412:	00011623          	sh	zero,12(sp)
    1416:	00010723          	sb	zero,14(sp)
    141a:	c54d                	c.beqz	a0,14c4 <user_calib_adc_vref.constprop.9+0xb8>
    141c:	000007b7          	lui	a5,0x0
    1420:	1587a783          	lw	a5,344(a5) # 158 <_AES_VMA_END>
    1424:	0030                	c.addi4spn	a2,sp,8
    1426:	459d                	c.li	a1,7
    1428:	9782                	c.jalr	a5
    142a:	00c14783          	lbu	a5,12(sp)
    142e:	1c07b75b          	bfos	a4,a5,7,0
    1432:	04074163          	bltz	a4,1474 <user_calib_adc_vref.constprop.9+0x68>
    1436:	00e14703          	lbu	a4,14(sp)
    143a:	00d14603          	lbu	a2,13(sp)
    143e:	0722                	c.slli	a4,0x8
    1440:	66c1                	c.lui	a3,0x10
    1442:	00c705b3          	add	a1,a4,a2
    1446:	16fd                	c.addi	a3,-1
    1448:	02d58663          	beq	a1,a3,1474 <user_calib_adc_vref.constprop.9+0x68>
    144c:	fd060613          	addi	a2,a2,-48
    1450:	9732                	c.add	a4,a2
    1452:	3c07275b          	bfoz	a4,a4,15,0
    1456:	0fb00693          	li	a3,251
    145a:	08e6e563          	bltu	a3,a4,14e4 <user_calib_adc_vref.constprop.9+0xd8>
    145e:	17b1                	c.addi	a5,-20
    1460:	1c07b7db          	bfos	a5,a5,7,0
    1464:	5731                	c.li	a4,-20
    1466:	06e78f63          	beq	a5,a4,14e4 <user_calib_adc_vref.constprop.9+0xd8>
    146a:	f9578513          	addi	a0,a5,-107
    146e:	00a03533          	snez	a0,a0
    1472:	a89d                	c.j	14e8 <user_calib_adc_vref.constprop.9+0xdc>
    1474:	801407b7          	lui	a5,0x80140
    1478:	06500713          	li	a4,101
    147c:	1ee78a23          	sb	a4,500(a5) # 801401f4 <_DATA_LMA_START+0x601366ec>
    1480:	1c87a703          	lw	a4,456(a5)
    1484:	1e078a23          	sb	zero,500(a5)
    1488:	4c47275b          	bfoz	a4,a4,19,4
    148c:	380727db          	bfoz	a5,a4,14,0
    1490:	06078063          	beqz	a5,14f0 <user_calib_adc_vref.constprop.9+0xe4>
    1494:	1ff77713          	andi	a4,a4,511
    1498:	f9b70713          	addi	a4,a4,-101
    149c:	3c07275b          	bfoz	a4,a4,15,0
    14a0:	0c600693          	li	a3,198
    14a4:	04e6e063          	bltu	a3,a4,14e4 <user_calib_adc_vref.constprop.9+0xd8>
    14a8:	0097d513          	srli	a0,a5,0x9
    14ac:	1531                	c.addi	a0,-20
    14ae:	1c05355b          	bfos	a0,a0,7,0
    14b2:	57b1                	c.li	a5,-20
    14b4:	02f50863          	beq	a0,a5,14e4 <user_calib_adc_vref.constprop.9+0xd8>
    14b8:	fd550513          	addi	a0,a0,-43 # 3fffffd5 <_DATA_LMA_START+0x1fff64cd>
    14bc:	00a03533          	snez	a0,a0
    14c0:	0280006f          	j	14e8 <user_calib_adc_vref.constprop.9+0xdc>
    14c4:	801407b7          	lui	a5,0x80140
    14c8:	06500713          	li	a4,101
    14cc:	1ee78a23          	sb	a4,500(a5) # 801401f4 <_DATA_LMA_START+0x601366ec>
    14d0:	1c87a703          	lw	a4,456(a5)
    14d4:	1e078a23          	sb	zero,500(a5)
    14d8:	4c47275b          	bfoz	a4,a4,19,4
    14dc:	380727db          	bfoz	a5,a4,14,0
    14e0:	fa079ae3          	bnez	a5,1494 <user_calib_adc_vref.constprop.9+0x88>
    14e4:	00000513          	li	a0,0
    14e8:	40f2                	c.lwsp	ra,28(sp)
    14ea:	6105                	c.addi16sp	sp,32
    14ec:	00008067          	ret
    14f0:	00814503          	lbu	a0,8(sp)
    14f4:	00914783          	lbu	a5,9(sp)
    14f8:	953e                	c.add	a0,a5
    14fa:	f8050513          	addi	a0,a0,-128
    14fe:	3c05255b          	bfoz	a0,a0,15,0
    1502:	0fc53513          	sltiu	a0,a0,252
    1506:	b7cd                	c.j	14e8 <user_calib_adc_vref.constprop.9+0xdc>

00001508 <user_calib_freq_offset.constprop.8>:
    1508:	000007b7          	lui	a5,0x0
    150c:	1101                	c.addi	sp,-32
    150e:	1587a783          	lw	a5,344(a5) # 158 <_AES_VMA_END>
    1512:	577d                	c.li	a4,-1
    1514:	00f10613          	addi	a2,sp,15
    1518:	4585                	c.li	a1,1
    151a:	cc22                	c.swsp	s0,24(sp)
    151c:	ce06                	c.swsp	ra,28(sp)
    151e:	00e107a3          	sb	a4,15(sp)
    1522:	9782                	c.jalr	a5
    1524:	00f14403          	lbu	s0,15(sp)
    1528:	0ff00793          	li	a5,255
    152c:	00000513          	li	a0,0
    1530:	02f40263          	beq	s0,a5,1554 <user_calib_freq_offset.constprop.8+0x4c>
    1534:	08a00513          	li	a0,138
    1538:	aa0ff0ef          	jal	ra,7d8 <analog_read_reg8>
    153c:	03f47413          	andi	s0,s0,63
    1540:	04057593          	andi	a1,a0,64
    1544:	0085e5b3          	or	a1,a1,s0
    1548:	08a00513          	li	a0,138
    154c:	a48ff0ef          	jal	ra,794 <analog_write_reg8>
    1550:	00100513          	li	a0,1
    1554:	40f2                	c.lwsp	ra,28(sp)
    1556:	4462                	c.lwsp	s0,24(sp)
    1558:	6105                	c.addi16sp	sp,32
    155a:	8082                	c.jr	ra
    155c:	0001                	c.nop
	...

00001560 <gpio_input_dis>:
    1560:	801407b7          	lui	a5,0x80140
    1564:	30978703          	lb	a4,777(a5) # 80140309 <_DATA_LMA_START+0x60136801>
    1568:	fff54513          	not	a0,a0
    156c:	8d79                	c.and	a0,a4
    156e:	0ff57513          	andi	a0,a0,255
    1572:	30a784a3          	sb	a0,777(a5)
    1576:	8082                	c.jr	ra
    1578:	0001                	c.nop
	...

0000157c <fill_dummy_data>:
    157c:	7179                	c.addi16sp	sp,-48
    157e:	c85a                	c.swsp	s6,16(sp)
    1580:	80808b37          	lui	s6,0x80808
    1584:	d422                	c.swsp	s0,40(sp)
    1586:	d226                	c.swsp	s1,36(sp)
    1588:	d04a                	c.swsp	s2,32(sp)
    158a:	ce4e                	c.swsp	s3,28(sp)
    158c:	cc52                	c.swsp	s4,24(sp)
    158e:	ca56                	c.swsp	s5,20(sp)
    1590:	c65e                	c.swsp	s7,12(sp)
    1592:	c462                	c.swsp	s8,8(sp)
    1594:	8a2e                	c.mv	s4,a1
    1596:	8c2a                	c.mv	s8,a0
    1598:	8432                	c.mv	s0,a2
    159a:	8936                	c.mv	s2,a3
    159c:	84ba                	c.mv	s1,a4
    159e:	8ac2                	c.mv	s5,a6
    15a0:	89c6                	c.mv	s3,a7
    15a2:	00f50bb3          	add	s7,a0,a5
    15a6:	081b0b13          	addi	s6,s6,129 # 80808081 <_DATA_LMA_START+0x607fe579>
    15aa:	d606                	c.swsp	ra,44(sp)
    15ac:	550070ef          	jal	ra,8afc <rand>
    15b0:	e165177f          	mulsr64	a4,a0,s6
    15b4:	97aa                	c.add	a5,a0
    15b6:	41f55713          	srai	a4,a0,0x1f
    15ba:	879d                	c.srai	a5,0x7
    15bc:	8f99                	c.sub	a5,a4
    15be:	00879713          	slli	a4,a5,0x8
    15c2:	40f707b3          	sub	a5,a4,a5
    15c6:	8d1d                	c.sub	a0,a5
    15c8:	f8050513          	addi	a0,a0,-128
    15cc:	00ac0023          	sb	a0,0(s8)
    15d0:	0c05                	c.addi	s8,1
    15d2:	fd7c1de3          	bne	s8,s7,15ac <fill_dummy_data+0x30>
    15d6:	80808b37          	lui	s6,0x80808
    15da:	9ad2                	c.add	s5,s4
    15dc:	081b0b13          	addi	s6,s6,129 # 80808081 <_DATA_LMA_START+0x607fe579>
    15e0:	51c070ef          	jal	ra,8afc <rand>
    15e4:	e165177f          	mulsr64	a4,a0,s6
    15e8:	97aa                	c.add	a5,a0
    15ea:	41f55713          	srai	a4,a0,0x1f
    15ee:	879d                	c.srai	a5,0x7
    15f0:	8f99                	c.sub	a5,a4
    15f2:	00879713          	slli	a4,a5,0x8
    15f6:	40f707b3          	sub	a5,a4,a5
    15fa:	8d1d                	c.sub	a0,a5
    15fc:	f8050513          	addi	a0,a0,-128
    1600:	00aa0023          	sb	a0,0(s4)
    1604:	0a05                	c.addi	s4,1
    1606:	fd5a1de3          	bne	s4,s5,15e0 <fill_dummy_data+0x64>
    160a:	6a21                	c.lui	s4,0x8
    160c:	0d3409db          	lea.w	s3,s0,s3
    1610:	1a7d                	c.addi	s4,-1
    1612:	7b71                	c.lui	s6,0xffffc
    1614:	40000ab7          	lui	s5,0x40000
    1618:	4e4070ef          	jal	ra,8afc <rand>
    161c:	41f55793          	srai	a5,a0,0x1f
    1620:	83c5                	c.srli	a5,0x11
    1622:	953e                	c.add	a0,a5
    1624:	01457533          	and	a0,a0,s4
    1628:	8d1d                	c.sub	a0,a5
    162a:	955a                	c.add	a0,s6
    162c:	c008                	c.sw	a0,0(s0)
    162e:	01592023          	sw	s5,0(s2)
    1632:	0004a023          	sw	zero,0(s1)
    1636:	0411                	c.addi	s0,4
    1638:	0911                	c.addi	s2,4
    163a:	0491                	c.addi	s1,4
    163c:	fd341ee3          	bne	s0,s3,1618 <fill_dummy_data+0x9c>
    1640:	50b2                	c.lwsp	ra,44(sp)
    1642:	5422                	c.lwsp	s0,40(sp)
    1644:	5492                	c.lwsp	s1,36(sp)
    1646:	5902                	c.lwsp	s2,32(sp)
    1648:	49f2                	c.lwsp	s3,28(sp)
    164a:	4a62                	c.lwsp	s4,24(sp)
    164c:	4ad2                	c.lwsp	s5,20(sp)
    164e:	4b42                	c.lwsp	s6,16(sp)
    1650:	4bb2                	c.lwsp	s7,12(sp)
    1652:	4c22                	c.lwsp	s8,8(sp)
    1654:	6145                	c.addi16sp	sp,48
    1656:	8082                	c.jr	ra

00001658 <_write>:
    1658:	1141                	c.addi	sp,-16
    165a:	c606                	c.swsp	ra,12(sp)
    165c:	c422                	c.swsp	s0,8(sp)
    165e:	c226                	c.swsp	s1,4(sp)
    1660:	c04a                	c.swsp	s2,0(sp)
    1662:	02c05763          	blez	a2,1690 <_write+0x38>
    1666:	8932                	c.mv	s2,a2
    1668:	00b00433          	add	s0,zero,a1
    166c:	00c584b3          	add	s1,a1,a2
    1670:	00044503          	lbu	a0,0(s0)
    1674:	00140413          	addi	s0,s0,1
    1678:	d34ff0ef          	jal	ra,bac <dr_putchar>
    167c:	fe941ae3          	bne	s0,s1,1670 <_write+0x18>
    1680:	40b2                	c.lwsp	ra,12(sp)
    1682:	4422                	c.lwsp	s0,8(sp)
    1684:	854a                	c.mv	a0,s2
    1686:	4492                	c.lwsp	s1,4(sp)
    1688:	4902                	c.lwsp	s2,0(sp)
    168a:	0141                	c.addi	sp,16
    168c:	00008067          	ret
    1690:	40b2                	c.lwsp	ra,12(sp)
    1692:	4422                	c.lwsp	s0,8(sp)
    1694:	4901                	c.li	s2,0
    1696:	854a                	c.mv	a0,s2
    1698:	4492                	c.lwsp	s1,4(sp)
    169a:	4902                	c.lwsp	s2,0(sp)
    169c:	0141                	c.addi	sp,16
    169e:	8082                	c.jr	ra

000016a0 <main>:
    16a0:	7115                	c.addi16sp	sp,-224
    16a2:	ffbc07b7          	lui	a5,0xffbc0
    16a6:	cf86                	c.swsp	ra,220(sp)
    16a8:	17fd                	c.addi	a5,-1
    16aa:	80140737          	lui	a4,0x80140
    16ae:	cda2                	c.swsp	s0,216(sp)
    16b0:	cba6                	c.swsp	s1,212(sp)
    16b2:	c9ca                	c.swsp	s2,208(sp)
    16b4:	c7ce                	c.swsp	s3,204(sp)
    16b6:	c5d2                	c.swsp	s4,200(sp)
    16b8:	c3d6                	c.swsp	s5,196(sp)
    16ba:	c1da                	c.swsp	s6,192(sp)
    16bc:	df5e                	c.swsp	s7,188(sp)
    16be:	dd62                	c.swsp	s8,184(sp)
    16c0:	db66                	c.swsp	s9,180(sp)
    16c2:	d96a                	c.swsp	s10,176(sp)
    16c4:	d76e                	c.swsp	s11,172(sp)
    16c6:	1ef72023          	sw	a5,480(a4) # 801401e0 <_DATA_LMA_START+0x601366d8>
    16ca:	4589                	c.li	a1,2
    16cc:	08c00513          	li	a0,140
    16d0:	1ef72223          	sw	a5,484(a4)
    16d4:	8c0ff0ef          	jal	ra,794 <analog_write_reg8>
    16d8:	4581                	c.li	a1,0
    16da:	4529                	c.li	a0,10
    16dc:	8b8ff0ef          	jal	ra,794 <analog_write_reg8>
    16e0:	03b00593          	li	a1,59
    16e4:	00b00513          	li	a0,11
    16e8:	8acff0ef          	jal	ra,794 <analog_write_reg8>
    16ec:	00500513          	li	a0,5
    16f0:	8e8ff0ef          	jal	ra,7d8 <analog_read_reg8>
    16f4:	0f757593          	andi	a1,a0,247
    16f8:	00500513          	li	a0,5
    16fc:	898ff0ef          	jal	ra,794 <analog_write_reg8>
    1700:	00600513          	li	a0,6
    1704:	8d4ff0ef          	jal	ra,7d8 <analog_read_reg8>
    1708:	03e57593          	andi	a1,a0,62
    170c:	00600513          	li	a0,6
    1710:	884ff0ef          	jal	ra,794 <analog_write_reg8>
    1714:	04500593          	li	a1,69
    1718:	00100513          	li	a0,1
    171c:	878ff0ef          	jal	ra,794 <analog_write_reg8>
    1720:	04c00593          	li	a1,76
    1724:	01c00513          	li	a0,28
    1728:	86cff0ef          	jal	ra,794 <analog_write_reg8>
    172c:	801007b7          	lui	a5,0x80100
    1730:	44478703          	lb	a4,1092(a5) # 80100444 <_DATA_LMA_START+0x600f693c>
    1734:	801016b7          	lui	a3,0x80101
    1738:	0ff77713          	andi	a4,a4,255
    173c:	00e76713          	ori	a4,a4,14
    1740:	44e78223          	sb	a4,1092(a5)
    1744:	45878703          	lb	a4,1112(a5)
    1748:	03800513          	li	a0,56
    174c:	0ff77713          	andi	a4,a4,255
    1750:	00e76713          	ori	a4,a4,14
    1754:	44e78c23          	sb	a4,1112(a5)
    1758:	46c78703          	lb	a4,1132(a5)
    175c:	0ff77713          	andi	a4,a4,255
    1760:	00e76713          	ori	a4,a4,14
    1764:	46e78623          	sb	a4,1132(a5)
    1768:	48078703          	lb	a4,1152(a5)
    176c:	0ff77713          	andi	a4,a4,255
    1770:	00e76713          	ori	a4,a4,14
    1774:	48e78023          	sb	a4,1152(a5)
    1778:	49478703          	lb	a4,1172(a5)
    177c:	0ff77713          	andi	a4,a4,255
    1780:	00e76713          	ori	a4,a4,14
    1784:	48e78a23          	sb	a4,1172(a5)
    1788:	4a878703          	lb	a4,1192(a5)
    178c:	0ff77713          	andi	a4,a4,255
    1790:	00e76713          	ori	a4,a4,14
    1794:	4ae78423          	sb	a4,1192(a5)
    1798:	4bc78703          	lb	a4,1212(a5)
    179c:	0ff77713          	andi	a4,a4,255
    17a0:	00e76713          	ori	a4,a4,14
    17a4:	4ae78e23          	sb	a4,1212(a5)
    17a8:	4d078703          	lb	a4,1232(a5)
    17ac:	0ff77713          	andi	a4,a4,255
    17b0:	00e76713          	ori	a4,a4,14
    17b4:	4ce78823          	sb	a4,1232(a5)
    17b8:	83a68783          	lb	a5,-1990(a3) # 8010083a <_DATA_LMA_START+0x600f6d32>
    17bc:	82068d23          	sb	zero,-1990(a3)
    17c0:	818ff0ef          	jal	ra,7d8 <analog_read_reg8>
    17c4:	00a00433          	add	s0,zero,a0
    17c8:	03900513          	li	a0,57
    17cc:	80cff0ef          	jal	ra,7d8 <analog_read_reg8>
    17d0:	84aa                	c.mv	s1,a0
    17d2:	4004745b          	bbs	s0,0,17da <main+0x13a>
    17d6:	6d70006f          	j	26ac <main+0x100c>
    17da:	0fe47593          	andi	a1,s0,254
    17de:	4005745b          	bbs	a0,0,17e6 <main+0x146>
    17e2:	6a30006f          	j	2684 <main+0xfe4>
    17e6:	c89f940b          	addigp	s0,-888 # 80488 <g_pm_status_info>
    17ea:	4791                	c.li	a5,4
    17ec:	03800513          	li	a0,56
    17f0:	00f40123          	sb	a5,2(s0)
    17f4:	fa1fe0ef          	jal	ra,794 <analog_write_reg8>
    17f8:	00100593          	li	a1,1
    17fc:	07f00513          	li	a0,127
    1800:	f95fe0ef          	jal	ra,794 <analog_write_reg8>
    1804:	06400513          	li	a0,100
    1808:	fd1fe0ef          	jal	ra,7d8 <analog_read_reg8>
    180c:	0c3527db          	bfoz	a5,a0,3,3
    1810:	00a400a3          	sb	a0,1(s0)
    1814:	00f40023          	sb	a5,0(s0)
    1818:	08800513          	li	a0,136
    181c:	fbdfe0ef          	jal	ra,7d8 <analog_read_reg8>
    1820:	be757c5b          	bbc	a0,7,1818 <main+0x178>
    1824:	940ff0ef          	jal	ra,964 <pm_wait_bbpll_done>
    1828:	00244783          	lbu	a5,2(s0)
    182c:	0a87dc5b          	beqc	a5,8,18e4 <main+0x244>
    1830:	80140737          	lui	a4,0x80140
    1834:	20a70783          	lb	a5,522(a4) # 8014020a <_DATA_LMA_START+0x60136702>
    1838:	0ff7f793          	andi	a5,a5,255
    183c:	00c7e793          	ori	a5,a5,12
    1840:	20f70523          	sb	a5,522(a4)
    1844:	00100793          	li	a5,1
    1848:	20f72023          	sw	a5,512(a4)
    184c:	801404b7          	lui	s1,0x80140
    1850:	1fd48783          	lb	a5,509(s1) # 801401fd <_DATA_LMA_START+0x601366f5>
    1854:	0ff7f793          	andi	a5,a5,255
    1858:	c8ffc3ab          	swgp	a5,-892 # 80484 <g_chip_version>
    185c:	00244703          	lbu	a4,2(s0)
    1860:	04475c5b          	beqc	a4,4,18b8 <main+0x218>
    1864:	0ff00693          	li	a3,255
    1868:	04d78063          	beq	a5,a3,18a8 <main+0x208>
    186c:	08000593          	li	a1,128
    1870:	07d00513          	li	a0,125
    1874:	f21fe0ef          	jal	ra,794 <analog_write_reg8>
    1878:	80140737          	lui	a4,0x80140
    187c:	06500793          	li	a5,101
    1880:	1ef70a23          	sb	a5,500(a4) # 801401f4 <_DATA_LMA_START+0x601366ec>
    1884:	1c872783          	lw	a5,456(a4)
    1888:	1e070a23          	sb	zero,500(a4)
    188c:	8bbd                	c.andi	a5,15
    188e:	0037d55b          	beqc	a5,3,1898 <main+0x1f8>
    1892:	4725                	c.li	a4,9
    1894:	04f77c63          	bgeu	a4,a5,18ec <main+0x24c>
    1898:	801407b7          	lui	a5,0x80140
    189c:	02000713          	li	a4,32
    18a0:	1ee787a3          	sb	a4,495(a5) # 801401ef <_DATA_LMA_START+0x601366e7>
    18a4:	0000006f          	j	18a4 <main+0x204>
    18a8:	bc17625b          	bnec	a4,1,186c <main+0x1cc>
    18ac:	07d00513          	li	a0,125
    18b0:	08000593          	li	a1,128
    18b4:	0180006f          	j	18cc <main+0x22c>
    18b8:	03900513          	li	a0,57
    18bc:	f1dfe0ef          	jal	ra,7d8 <analog_read_reg8>
    18c0:	00256593          	ori	a1,a0,2
    18c4:	0ff5f593          	andi	a1,a1,255
    18c8:	03900513          	li	a0,57
    18cc:	ec9fe0ef          	jal	ra,794 <analog_write_reg8>
    18d0:	2004a503          	lw	a0,512(s1)
    18d4:	001877b7          	lui	a5,0x187
    18d8:	a0078793          	addi	a5,a5,-1536 # 186a00 <FLASH_SIZE+0x86a00>
    18dc:	953e                	c.add	a0,a5
    18de:	3e19                	c.jal	13f4 <pm_sleep_wakeup.constprop.2>
    18e0:	f8dff06f          	j	186c <main+0x1cc>
    18e4:	a99fe0ef          	jal	ra,37c <pm_stimer_recover>
    18e8:	f65ff06f          	j	184c <main+0x1ac>
    18ec:	00f00513          	li	a0,15
    18f0:	ee9fe0ef          	jal	ra,7d8 <analog_read_reg8>
    18f4:	03f57593          	andi	a1,a0,63
    18f8:	0405e593          	ori	a1,a1,64
    18fc:	00f00513          	li	a0,15
    1900:	e95fe0ef          	jal	ra,794 <analog_write_reg8>
    1904:	10c0                	c.addi4spn	s0,sp,100
    1906:	18cc                	c.addi4spn	a1,sp,116
    1908:	00800533          	add	a0,zero,s0
    190c:	949ff0ef          	jal	ra,1254 <flash_read_mid_uid_with_check>
    1910:	0ff57513          	andi	a0,a0,255
    1914:	0015545b          	beqc	a0,1,191c <main+0x27c>
    1918:	5610006f          	j	2678 <main+0xfd8>
    191c:	06614783          	lbu	a5,102(sp)
    1920:	474d                	c.li	a4,19
    1922:	0137e45b          	bnec	a5,19,192a <main+0x28a>
    1926:	53b0006f          	j	2660 <main+0xfc0>
    192a:	00f76463          	bltu	a4,a5,1932 <main+0x292>
    192e:	45b0006f          	j	2588 <main+0xee8>
    1932:	4755                	c.li	a4,21
    1934:	0157e45b          	bnec	a5,21,193c <main+0x29c>
    1938:	4390006f          	j	2570 <main+0xed0>
    193c:	00e7f463          	bgeu	a5,a4,1944 <main+0x2a4>
    1940:	3f90006f          	j	2538 <main+0xe98>
    1944:	0167d45b          	beqc	a5,22,194c <main+0x2ac>
    1948:	5310006f          	j	2678 <main+0xfd8>
    194c:	003fe537          	lui	a0,0x3fe
    1950:	0c050513          	addi	a0,a0,192 # 3fe0c0 <FLASH_SIZE+0x2fe0c0>
    1954:	ab9ff0ef          	jal	ra,140c <user_calib_adc_vref.constprop.9>
    1958:	003fe537          	lui	a0,0x3fe
    195c:	badff0ef          	jal	ra,1508 <user_calib_freq_offset.constprop.8>
    1960:	80140937          	lui	s2,0x80140
    1964:	a79ff0ef          	jal	ra,13dc <clock_init.constprop.10>
    1968:	30e90783          	lb	a5,782(s2) # 8014030e <_DATA_LMA_START+0x60136806>
    196c:	11000513          	li	a0,272
    1970:	0ff7f793          	andi	a5,a5,255
    1974:	0107e793          	ori	a5,a5,16
    1978:	30f90723          	sb	a5,782(s2)
    197c:	30a90783          	lb	a5,778(s2)
    1980:	6ca9                	c.lui	s9,0xa
    1982:	0ef7f793          	andi	a5,a5,239
    1986:	30f90523          	sb	a5,778(s2)
    198a:	3ed9                	c.jal	1560 <gpio_input_dis>
    198c:	30e90783          	lb	a5,782(s2)
    1990:	12000513          	li	a0,288
    1994:	0ff7f793          	andi	a5,a5,255
    1998:	0207e793          	ori	a5,a5,32
    199c:	30f90723          	sb	a5,782(s2)
    19a0:	30a90783          	lb	a5,778(s2)
    19a4:	000804b7          	lui	s1,0x80
    19a8:	0df7f793          	andi	a5,a5,223
    19ac:	30f90523          	sb	a5,778(s2)
    19b0:	bb1ff0ef          	jal	ra,1560 <gpio_input_dis>
    19b4:	30e90783          	lb	a5,782(s2)
    19b8:	14000513          	li	a0,320
    19bc:	0ff7f793          	andi	a5,a5,255
    19c0:	0407e793          	ori	a5,a5,64
    19c4:	30f90723          	sb	a5,782(s2)
    19c8:	30a90783          	lb	a5,778(s2)
    19cc:	6989                	c.lui	s3,0x2
    19ce:	0bf7f793          	andi	a5,a5,191
    19d2:	30f90523          	sb	a5,778(s2)
    19d6:	3669                	c.jal	1560 <gpio_input_dis>
    19d8:	30e90783          	lb	a5,782(s2)
    19dc:	18000513          	li	a0,384
    19e0:	f807e793          	ori	a5,a5,-128
    19e4:	0ff7f793          	andi	a5,a5,255
    19e8:	30f90723          	sb	a5,782(s2)
    19ec:	30a90783          	lb	a5,778(s2)
    19f0:	07f7f793          	andi	a5,a5,127
    19f4:	30f90523          	sb	a5,778(s2)
    19f8:	b69ff0ef          	jal	ra,1560 <gpio_input_dis>
    19fc:	00080537          	lui	a0,0x80
    1a00:	01050513          	addi	a0,a0,16 # 80010 <_DATA_VMA_START+0x10>
    1a04:	2b2070ef          	jal	ra,8cb6 <puts>
    1a08:	00080537          	lui	a0,0x80
    1a0c:	001c8593          	addi	a1,s9,1 # a001 <BIN_SIZE+0x6b>
    1a10:	01450513          	addi	a0,a0,20 # 80014 <_DATA_VMA_START+0x14>
    1a14:	284070ef          	jal	ra,8c98 <printf>
    1a18:	00080537          	lui	a0,0x80
    1a1c:	7e400593          	li	a1,2020
    1a20:	02c50513          	addi	a0,a0,44 # 8002c <_DATA_VMA_START+0x2c>
    1a24:	274070ef          	jal	ra,8c98 <printf>
    1a28:	000805b7          	lui	a1,0x80
    1a2c:	00080537          	lui	a0,0x80
    1a30:	04458593          	addi	a1,a1,68 # 80044 <_DATA_VMA_START+0x44>
    1a34:	05050513          	addi	a0,a0,80 # 80050 <_DATA_VMA_START+0x50>
    1a38:	260070ef          	jal	ra,8c98 <printf>
    1a3c:	fc4fe0ef          	jal	ra,200 <delay_ms.constprop.12>
    1a40:	3bc48513          	addi	a0,s1,956 # 803bc <_DATA_VMA_START+0x3bc>
    1a44:	254070ef          	jal	ra,8c98 <printf>
    1a48:	00080537          	lui	a0,0x80
    1a4c:	07850513          	addi	a0,a0,120 # 80078 <_DATA_VMA_START+0x78>
    1a50:	248070ef          	jal	ra,8c98 <printf>
    1a54:	3bc48513          	addi	a0,s1,956
    1a58:	240070ef          	jal	ra,8c98 <printf>
    1a5c:	00080537          	lui	a0,0x80
    1a60:	0a850513          	addi	a0,a0,168 # 800a8 <_DATA_VMA_START+0xa8>
    1a64:	234070ef          	jal	ra,8c98 <printf>
    1a68:	1ea00513          	li	a0,490
    1a6c:	0cc070ef          	jal	ra,8b38 <malloc>
    1a70:	00a00c33          	add	s8,zero,a0
    1a74:	ae098513          	addi	a0,s3,-1312 # 1ae0 <main+0x440>
    1a78:	0c0070ef          	jal	ra,8b38 <malloc>
    1a7c:	00a00bb3          	add	s7,zero,a0
    1a80:	2b000513          	li	a0,688
    1a84:	0b4070ef          	jal	ra,8b38 <malloc>
    1a88:	00a00b33          	add	s6,zero,a0
    1a8c:	2b000513          	li	a0,688
    1a90:	0a8070ef          	jal	ra,8b38 <malloc>
    1a94:	00a00ab3          	add	s5,zero,a0
    1a98:	2b000513          	li	a0,688
    1a9c:	09c070ef          	jal	ra,8b38 <malloc>
    1aa0:	00a00a33          	add	s4,zero,a0
    1aa4:	7f8c8513          	addi	a0,s9,2040
    1aa8:	090070ef          	jal	ra,8b38 <malloc>
    1aac:	ae098813          	addi	a6,s3,-1312
    1ab0:	8752                	c.mv	a4,s4
    1ab2:	86d6                	c.mv	a3,s5
    1ab4:	865a                	c.mv	a2,s6
    1ab6:	85de                	c.mv	a1,s7
    1ab8:	8caa                	c.mv	s9,a0
    1aba:	0ac00893          	li	a7,172
    1abe:	8562                	c.mv	a0,s8
    1ac0:	1ea00793          	li	a5,490
    1ac4:	ab9ff0ef          	jal	ra,157c <fill_dummy_data>
    1ac8:	4785                	c.li	a5,1
    1aca:	03100893          	li	a7,49
    1ace:	4829                	c.li	a6,10
    1ad0:	da3e                	c.swsp	a5,52(sp)
    1ad2:	dc46                	c.swsp	a7,56(sp)
    1ad4:	c0be                	c.swsp	a5,64(sp)
    1ad6:	c13e                	c.swsp	a5,128(sp)
    1ad8:	cb3e                	c.swsp	a5,148(sp)
    1ada:	c93e                	c.swsp	a5,144(sp)
    1adc:	4891                	c.li	a7,4
    1ade:	f8000793          	li	a5,-128
    1ae2:	0ac00713          	li	a4,172
    1ae6:	86a2                	c.mv	a3,s0
    1ae8:	00d0                	c.addi4spn	a2,sp,68
    1aea:	184c                	c.addi4spn	a1,sp,52
    1aec:	de42                	c.swsp	a6,60(sp)
    1aee:	c4c2                	c.swsp	a6,72(sp)
    1af0:	c6c6                	c.swsp	a7,76(sp)
    1af2:	d6c2                	c.swsp	a6,108(sp)
    1af4:	48e5                	c.li	a7,25
    1af6:	4809                	c.li	a6,2
    1af8:	cd3e                	c.swsp	a5,152(sp)
    1afa:	18c8                	c.addi4spn	a0,sp,116
    1afc:	07f00793          	li	a5,127
    1b00:	c8ba                	c.swsp	a4,80(sp)
    1b02:	d4c6                	c.swsp	a7,104(sp)
    1b04:	d8ba                	c.swsp	a4,112(sp)
    1b06:	c342                	c.swsp	a6,132(sp)
    1b08:	deba                	c.swsp	a4,124(sp)
    1b0a:	cf3e                	c.swsp	a5,156(sp)
    1b0c:	ca82                	c.swsp	zero,84(sp)
    1b0e:	cc82                	c.swsp	zero,88(sp)
    1b10:	ce82                	c.swsp	zero,92(sp)
    1b12:	d082                	c.swsp	zero,96(sp)
    1b14:	c702                	c.swsp	zero,140(sp)
    1b16:	c502                	c.swsp	zero,136(sp)
    1b18:	da82                	c.swsp	zero,116(sp)
    1b1a:	dc82                	c.swsp	zero,120(sp)
    1b1c:	d656                	c.swsp	s5,44(sp)
    1b1e:	d852                	c.swsp	s4,48(sp)
    1b20:	565010ef          	jal	ra,3884 <riscv_depthwise_conv_wrapper_s8_get_buffer_size>
    1b24:	00a00933          	add	s2,zero,a0
    1b28:	010070ef          	jal	ra,8b38 <malloc>
    1b2c:	d44a                	c.swsp	s2,40(sp)
    1b2e:	d22a                	c.swsp	a0,36(sp)
    1b30:	878a                	c.mv	a5,sp
    1b32:	0009f737          	lui	a4,0x9f
    1b36:	00f77f63          	bgeu	a4,a5,1b54 <main+0x4b4>
    1b3a:	fff61637          	lui	a2,0xfff61
    1b3e:	167d                	c.addi	a2,-1
    1b40:	97b2                	c.add	a5,a2
    1b42:	ffc7f613          	andi	a2,a5,-4
    1b46:	0611                	c.addi	a2,4
    1b48:	0aa00593          	li	a1,170
    1b4c:	0009f537          	lui	a0,0x9f
    1b50:	703060ef          	jal	ra,8a52 <memset>
    1b54:	b0005073          	csrwi	mcycle,0
    1b58:	b00029f3          	csrr	s3,mcycle
    1b5c:	05410893          	addi	a7,sp,84
    1b60:	885e                	c.mv	a6,s7
    1b62:	00dc                	c.addi4spn	a5,sp,68
    1b64:	8762                	c.mv	a4,s8
    1b66:	1854                	c.addi4spn	a3,sp,52
    1b68:	1070                	c.addi4spn	a2,sp,44
    1b6a:	18cc                	c.addi4spn	a1,sp,116
    1b6c:	1048                	c.addi4spn	a0,sp,36
    1b6e:	c466                	c.swsp	s9,8(sp)
    1b70:	c222                	c.swsp	s0,4(sp)
    1b72:	c05a                	c.swsp	s6,0(sp)
    1b74:	36c020ef          	jal	ra,3ee0 <riscv_depthwise_conv_wrapper_s8>
    1b78:	b0002673          	csrr	a2,mcycle
    1b7c:	868a                	c.mv	a3,sp
    1b7e:	0009f7b7          	lui	a5,0x9f
    1b82:	1cd7f7e3          	bgeu	a5,a3,2550 <main+0xeb0>
    1b86:	4398                	c.lw	a4,0(a5)
    1b88:	aaaab7b7          	lui	a5,0xaaaab
    1b8c:	aaa78793          	addi	a5,a5,-1366 # aaaaaaaa <_DATA_LMA_START+0x8aaa0fa2>
    1b90:	1cf710e3          	bne	a4,a5,2550 <main+0xeb0>
    1b94:	0009f7b7          	lui	a5,0x9f
    1b98:	00c0006f          	j	1ba4 <main+0x504>
    1b9c:	0007a583          	lw	a1,0(a5) # 9f000 <__global_pointer$+0x1e800>
    1ba0:	00e59663          	bne	a1,a4,1bac <main+0x50c>
    1ba4:	00478793          	addi	a5,a5,4
    1ba8:	fed7eae3          	bltu	a5,a3,1b9c <main+0x4fc>
    1bac:	8e9d                	c.sub	a3,a5
    1bae:	ca36                	c.swsp	a3,20(sp)
    1bb0:	5512                	c.lwsp	a0,36(sp)
    1bb2:	413606b3          	sub	a3,a2,s3
    1bb6:	cc36                	c.swsp	a3,24(sp)
    1bb8:	c911                	c.beqz	a0,1bcc <main+0x52c>
    1bba:	864a                	c.mv	a2,s2
    1bbc:	00000593          	li	a1,0
    1bc0:	693060ef          	jal	ra,8a52 <memset>
    1bc4:	02412503          	lw	a0,36(sp)
    1bc8:	781060ef          	jal	ra,8b48 <free>
    1bcc:	00080537          	lui	a0,0x80
    1bd0:	0d050513          	addi	a0,a0,208 # 800d0 <_DATA_VMA_START+0xd0>
    1bd4:	0c4070ef          	jal	ra,8c98 <printf>
    1bd8:	01412583          	lw	a1,20(sp)
    1bdc:	000809b7          	lui	s3,0x80
    1be0:	0f498513          	addi	a0,s3,244 # 800f4 <_DATA_VMA_START+0xf4>
    1be4:	0b4070ef          	jal	ra,8c98 <printf>
    1be8:	01812583          	lw	a1,24(sp)
    1bec:	00080937          	lui	s2,0x80
    1bf0:	10c90513          	addi	a0,s2,268 # 8010c <_DATA_VMA_START+0x10c>
    1bf4:	0a4070ef          	jal	ra,8c98 <printf>
    1bf8:	01800533          	add	a0,zero,s8
    1bfc:	74d060ef          	jal	ra,8b48 <free>
    1c00:	01700533          	add	a0,zero,s7
    1c04:	745060ef          	jal	ra,8b48 <free>
    1c08:	01600533          	add	a0,zero,s6
    1c0c:	73d060ef          	jal	ra,8b48 <free>
    1c10:	01500533          	add	a0,zero,s5
    1c14:	735060ef          	jal	ra,8b48 <free>
    1c18:	01400533          	add	a0,zero,s4
    1c1c:	72d060ef          	jal	ra,8b48 <free>
    1c20:	01900533          	add	a0,zero,s9
    1c24:	725060ef          	jal	ra,8b48 <free>
    1c28:	3bc48513          	addi	a0,s1,956
    1c2c:	06c070ef          	jal	ra,8c98 <printf>
    1c30:	00080537          	lui	a0,0x80
    1c34:	12050513          	addi	a0,a0,288 # 80120 <_DATA_VMA_START+0x120>
    1c38:	060070ef          	jal	ra,8c98 <printf>
    1c3c:	0000ea37          	lui	s4,0xe
    1c40:	9b0a0513          	addi	a0,s4,-1616 # d9b0 <BIN_SIZE+0x3a1a>
    1c44:	6f5060ef          	jal	ra,8b38 <malloc>
    1c48:	00a00cb3          	add	s9,zero,a0
    1c4c:	60c00513          	li	a0,1548
    1c50:	6e9060ef          	jal	ra,8b38 <malloc>
    1c54:	00a00c33          	add	s8,zero,a0
    1c58:	2b000513          	li	a0,688
    1c5c:	6dd060ef          	jal	ra,8b38 <malloc>
    1c60:	00a00bb3          	add	s7,zero,a0
    1c64:	2b000513          	li	a0,688
    1c68:	6d1060ef          	jal	ra,8b38 <malloc>
    1c6c:	00a00b33          	add	s6,zero,a0
    1c70:	2b000513          	li	a0,688
    1c74:	6c5060ef          	jal	ra,8b38 <malloc>
    1c78:	8aaa                	c.mv	s5,a0
    1c7a:	650d                	c.lui	a0,0x3
    1c7c:	bac50513          	addi	a0,a0,-1108 # 2bac <riscv_convolve_s8+0x18>
    1c80:	6b9060ef          	jal	ra,8b38 <malloc>
    1c84:	9b0a0793          	addi	a5,s4,-1616
    1c88:	8756                	c.mv	a4,s5
    1c8a:	86da                	c.mv	a3,s6
    1c8c:	865e                	c.mv	a2,s7
    1c8e:	85e2                	c.mv	a1,s8
    1c90:	8d2a                	c.mv	s10,a0
    1c92:	0ac00893          	li	a7,172
    1c96:	8566                	c.mv	a0,s9
    1c98:	60c00813          	li	a6,1548
    1c9c:	8e1ff0ef          	jal	ra,157c <fill_dummy_data>
    1ca0:	4785                	c.li	a5,1
    1ca2:	488d                	c.li	a7,3
    1ca4:	da3e                	c.swsp	a5,52(sp)
    1ca6:	c4c6                	c.swsp	a7,72(sp)
    1ca8:	c6c6                	c.swsp	a7,76(sp)
    1caa:	cb3e                	c.swsp	a5,148(sp)
    1cac:	c93e                	c.swsp	a5,144(sp)
    1cae:	c73e                	c.swsp	a5,140(sp)
    1cb0:	c53e                	c.swsp	a5,136(sp)
    1cb2:	436d                	c.li	t1,27
    1cb4:	48b5                	c.li	a7,13
    1cb6:	f8000793          	li	a5,-128
    1cba:	0ac00713          	li	a4,172
    1cbe:	4809                	c.li	a6,2
    1cc0:	86a2                	c.mv	a3,s0
    1cc2:	00d0                	c.addi4spn	a2,sp,68
    1cc4:	184c                	c.addi4spn	a1,sp,52
    1cc6:	dc1a                	c.swsp	t1,56(sp)
    1cc8:	d4c6                	c.swsp	a7,104(sp)
    1cca:	4331                	c.li	t1,12
    1ccc:	4895                	c.li	a7,5
    1cce:	cd3e                	c.swsp	a5,152(sp)
    1cd0:	18c8                	c.addi4spn	a0,sp,116
    1cd2:	07f00793          	li	a5,127
    1cd6:	de1a                	c.swsp	t1,60(sp)
    1cd8:	c0ba                	c.swsp	a4,64(sp)
    1cda:	c8ba                	c.swsp	a4,80(sp)
    1cdc:	d6c6                	c.swsp	a7,108(sp)
    1cde:	d8ba                	c.swsp	a4,112(sp)
    1ce0:	c342                	c.swsp	a6,132(sp)
    1ce2:	c142                	c.swsp	a6,128(sp)
    1ce4:	deba                	c.swsp	a4,124(sp)
    1ce6:	cf3e                	c.swsp	a5,156(sp)
    1ce8:	ca82                	c.swsp	zero,84(sp)
    1cea:	cc82                	c.swsp	zero,88(sp)
    1cec:	ce82                	c.swsp	zero,92(sp)
    1cee:	d082                	c.swsp	zero,96(sp)
    1cf0:	da82                	c.swsp	zero,116(sp)
    1cf2:	dc82                	c.swsp	zero,120(sp)
    1cf4:	d65a                	c.swsp	s6,44(sp)
    1cf6:	d856                	c.swsp	s5,48(sp)
    1cf8:	38d010ef          	jal	ra,3884 <riscv_depthwise_conv_wrapper_s8_get_buffer_size>
    1cfc:	00a00db3          	add	s11,zero,a0
    1d00:	639060ef          	jal	ra,8b38 <malloc>
    1d04:	d46e                	c.swsp	s11,40(sp)
    1d06:	d22a                	c.swsp	a0,36(sp)
    1d08:	878a                	c.mv	a5,sp
    1d0a:	0009f737          	lui	a4,0x9f
    1d0e:	00f77f63          	bgeu	a4,a5,1d2c <main+0x68c>
    1d12:	fff61637          	lui	a2,0xfff61
    1d16:	167d                	c.addi	a2,-1
    1d18:	97b2                	c.add	a5,a2
    1d1a:	ffc7f613          	andi	a2,a5,-4
    1d1e:	0611                	c.addi	a2,4
    1d20:	0aa00593          	li	a1,170
    1d24:	0009f537          	lui	a0,0x9f
    1d28:	52b060ef          	jal	ra,8a52 <memset>
    1d2c:	b0005073          	csrwi	mcycle,0
    1d30:	b0002a73          	csrr	s4,mcycle
    1d34:	05410893          	addi	a7,sp,84
    1d38:	8862                	c.mv	a6,s8
    1d3a:	00dc                	c.addi4spn	a5,sp,68
    1d3c:	8766                	c.mv	a4,s9
    1d3e:	1854                	c.addi4spn	a3,sp,52
    1d40:	1070                	c.addi4spn	a2,sp,44
    1d42:	18cc                	c.addi4spn	a1,sp,116
    1d44:	1048                	c.addi4spn	a0,sp,36
    1d46:	c46a                	c.swsp	s10,8(sp)
    1d48:	c222                	c.swsp	s0,4(sp)
    1d4a:	c05e                	c.swsp	s7,0(sp)
    1d4c:	194020ef          	jal	ra,3ee0 <riscv_depthwise_conv_wrapper_s8>
    1d50:	b0002673          	csrr	a2,mcycle
    1d54:	868a                	c.mv	a3,sp
    1d56:	0009f7b7          	lui	a5,0x9f
    1d5a:	7ed7ff63          	bgeu	a5,a3,2558 <main+0xeb8>
    1d5e:	4398                	c.lw	a4,0(a5)
    1d60:	aaaab7b7          	lui	a5,0xaaaab
    1d64:	aaa78793          	addi	a5,a5,-1366 # aaaaaaaa <_DATA_LMA_START+0x8aaa0fa2>
    1d68:	7ef71863          	bne	a4,a5,2558 <main+0xeb8>
    1d6c:	0009f7b7          	lui	a5,0x9f
    1d70:	00c0006f          	j	1d7c <main+0x6dc>
    1d74:	0007a583          	lw	a1,0(a5) # 9f000 <__global_pointer$+0x1e800>
    1d78:	00e59663          	bne	a1,a4,1d84 <main+0x6e4>
    1d7c:	00478793          	addi	a5,a5,4
    1d80:	fed7eae3          	bltu	a5,a3,1d74 <main+0x6d4>
    1d84:	8e9d                	c.sub	a3,a5
    1d86:	5512                	c.lwsp	a0,36(sp)
    1d88:	c836                	c.swsp	a3,16(sp)
    1d8a:	41460a33          	sub	s4,a2,s4
    1d8e:	c909                	c.beqz	a0,1da0 <main+0x700>
    1d90:	866e                	c.mv	a2,s11
    1d92:	4581                	c.li	a1,0
    1d94:	4bf060ef          	jal	ra,8a52 <memset>
    1d98:	02412503          	lw	a0,36(sp)
    1d9c:	5ad060ef          	jal	ra,8b48 <free>
    1da0:	00080537          	lui	a0,0x80
    1da4:	14850513          	addi	a0,a0,328 # 80148 <_DATA_VMA_START+0x148>
    1da8:	6f1060ef          	jal	ra,8c98 <printf>
    1dac:	01012583          	lw	a1,16(sp)
    1db0:	0f498513          	addi	a0,s3,244
    1db4:	6e5060ef          	jal	ra,8c98 <printf>
    1db8:	014005b3          	add	a1,zero,s4
    1dbc:	10c90513          	addi	a0,s2,268
    1dc0:	6d9060ef          	jal	ra,8c98 <printf>
    1dc4:	01900533          	add	a0,zero,s9
    1dc8:	581060ef          	jal	ra,8b48 <free>
    1dcc:	01800533          	add	a0,zero,s8
    1dd0:	579060ef          	jal	ra,8b48 <free>
    1dd4:	01700533          	add	a0,zero,s7
    1dd8:	571060ef          	jal	ra,8b48 <free>
    1ddc:	01600533          	add	a0,zero,s6
    1de0:	569060ef          	jal	ra,8b48 <free>
    1de4:	01500533          	add	a0,zero,s5
    1de8:	561060ef          	jal	ra,8b48 <free>
    1dec:	01a00533          	add	a0,zero,s10
    1df0:	559060ef          	jal	ra,8b48 <free>
    1df4:	3bc48513          	addi	a0,s1,956
    1df8:	6a1060ef          	jal	ra,8c98 <printf>
    1dfc:	00080537          	lui	a0,0x80
    1e00:	16c50513          	addi	a0,a0,364 # 8016c <_DATA_VMA_START+0x16c>
    1e04:	695060ef          	jal	ra,8c98 <printf>
    1e08:	00003db7          	lui	s11,0x3
    1e0c:	bacd8513          	addi	a0,s11,-1108 # 2bac <riscv_convolve_s8+0x18>
    1e10:	529060ef          	jal	ra,8b38 <malloc>
    1e14:	681d                	c.lui	a6,0x7
    1e16:	8caa                	c.mv	s9,a0
    1e18:	39080513          	addi	a0,a6,912 # 7390 <riscv_depthwise_conv_3x3_s8+0x1408>
    1e1c:	01012e23          	sw	a6,28(sp)
    1e20:	519060ef          	jal	ra,8b38 <malloc>
    1e24:	00a00c33          	add	s8,zero,a0
    1e28:	2b000513          	li	a0,688
    1e2c:	50d060ef          	jal	ra,8b38 <malloc>
    1e30:	00a00bb3          	add	s7,zero,a0
    1e34:	2b000513          	li	a0,688
    1e38:	501060ef          	jal	ra,8b38 <malloc>
    1e3c:	00a00b33          	add	s6,zero,a0
    1e40:	2b000513          	li	a0,688
    1e44:	4f5060ef          	jal	ra,8b38 <malloc>
    1e48:	00a00ab3          	add	s5,zero,a0
    1e4c:	bacd8513          	addi	a0,s11,-1108
    1e50:	4e9060ef          	jal	ra,8b38 <malloc>
    1e54:	4872                	c.lwsp	a6,28(sp)
    1e56:	bacd8793          	addi	a5,s11,-1108
    1e5a:	8756                	c.mv	a4,s5
    1e5c:	86da                	c.mv	a3,s6
    1e5e:	865e                	c.mv	a2,s7
    1e60:	85e2                	c.mv	a1,s8
    1e62:	8d2a                	c.mv	s10,a0
    1e64:	0ac00893          	li	a7,172
    1e68:	01900533          	add	a0,zero,s9
    1e6c:	39080813          	addi	a6,a6,912
    1e70:	f0cff0ef          	jal	ra,157c <fill_dummy_data>
    1e74:	4785                	c.li	a5,1
    1e76:	da3e                	c.swsp	a5,52(sp)
    1e78:	c4be                	c.swsp	a5,72(sp)
    1e7a:	c6be                	c.swsp	a5,76(sp)
    1e7c:	c13e                	c.swsp	a5,128(sp)
    1e7e:	debe                	c.swsp	a5,124(sp)
    1e80:	c93e                	c.swsp	a5,144(sp)
    1e82:	c73e                	c.swsp	a5,140(sp)
    1e84:	c53e                	c.swsp	a5,136(sp)
    1e86:	c33e                	c.swsp	a5,132(sp)
    1e88:	f8000793          	li	a5,-128
    1e8c:	0ac00713          	li	a4,172
    1e90:	48b5                	c.li	a7,13
    1e92:	4815                	c.li	a6,5
    1e94:	86a2                	c.mv	a3,s0
    1e96:	00d0                	c.addi4spn	a2,sp,68
    1e98:	184c                	c.addi4spn	a1,sp,52
    1e9a:	cb3e                	c.swsp	a5,148(sp)
    1e9c:	18c8                	c.addi4spn	a0,sp,116
    1e9e:	07f00793          	li	a5,127
    1ea2:	dc46                	c.swsp	a7,56(sp)
    1ea4:	de42                	c.swsp	a6,60(sp)
    1ea6:	c0ba                	c.swsp	a4,64(sp)
    1ea8:	c8ba                	c.swsp	a4,80(sp)
    1eaa:	d4c6                	c.swsp	a7,104(sp)
    1eac:	d6c2                	c.swsp	a6,108(sp)
    1eae:	d8ba                	c.swsp	a4,112(sp)
    1eb0:	cd3e                	c.swsp	a5,152(sp)
    1eb2:	ca82                	c.swsp	zero,84(sp)
    1eb4:	cc82                	c.swsp	zero,88(sp)
    1eb6:	ce82                	c.swsp	zero,92(sp)
    1eb8:	d082                	c.swsp	zero,96(sp)
    1eba:	da82                	c.swsp	zero,116(sp)
    1ebc:	dc82                	c.swsp	zero,120(sp)
    1ebe:	d65a                	c.swsp	s6,44(sp)
    1ec0:	03512823          	sw	s5,48(sp)
    1ec4:	11d010ef          	jal	ra,37e0 <riscv_convolve_wrapper_s8_get_buffer_size>
    1ec8:	4662                	c.lwsp	a2,24(sp)
    1eca:	8daa                	c.mv	s11,a0
    1ecc:	9652                	c.add	a2,s4
    1ece:	cc32                	c.swsp	a2,24(sp)
    1ed0:	469060ef          	jal	ra,8b38 <malloc>
    1ed4:	46c2                	c.lwsp	a3,16(sp)
    1ed6:	4652                	c.lwsp	a2,20(sp)
    1ed8:	d22a                	c.swsp	a0,36(sp)
    1eda:	96b2                	c.add	a3,a2
    1edc:	ce36                	c.swsp	a3,28(sp)
    1ede:	d46e                	c.swsp	s11,40(sp)
    1ee0:	878a                	c.mv	a5,sp
    1ee2:	0009f737          	lui	a4,0x9f
    1ee6:	00f77f63          	bgeu	a4,a5,1f04 <main+0x864>
    1eea:	fff61637          	lui	a2,0xfff61
    1eee:	167d                	c.addi	a2,-1
    1ef0:	97b2                	c.add	a5,a2
    1ef2:	ffc7f613          	andi	a2,a5,-4
    1ef6:	0611                	c.addi	a2,4
    1ef8:	0aa00593          	li	a1,170
    1efc:	0009f537          	lui	a0,0x9f
    1f00:	353060ef          	jal	ra,8a52 <memset>
    1f04:	b0005073          	csrwi	mcycle,0
    1f08:	b0002a73          	csrr	s4,mcycle
    1f0c:	05410893          	addi	a7,sp,84
    1f10:	8862                	c.mv	a6,s8
    1f12:	00dc                	c.addi4spn	a5,sp,68
    1f14:	8766                	c.mv	a4,s9
    1f16:	1854                	c.addi4spn	a3,sp,52
    1f18:	1070                	c.addi4spn	a2,sp,44
    1f1a:	18cc                	c.addi4spn	a1,sp,116
    1f1c:	1048                	c.addi4spn	a0,sp,36
    1f1e:	c46a                	c.swsp	s10,8(sp)
    1f20:	c222                	c.swsp	s0,4(sp)
    1f22:	c05e                	c.swsp	s7,0(sp)
    1f24:	7dc000ef          	jal	ra,2700 <riscv_convolve_wrapper_s8>
    1f28:	b00026f3          	csrr	a3,mcycle
    1f2c:	8d8a                	c.mv	s11,sp
    1f2e:	0009f7b7          	lui	a5,0x9f
    1f32:	63b7f763          	bgeu	a5,s11,2560 <main+0xec0>
    1f36:	4398                	c.lw	a4,0(a5)
    1f38:	aaaab7b7          	lui	a5,0xaaaab
    1f3c:	aaa78793          	addi	a5,a5,-1366 # aaaaaaaa <_DATA_LMA_START+0x8aaa0fa2>
    1f40:	62f71063          	bne	a4,a5,2560 <main+0xec0>
    1f44:	0009f7b7          	lui	a5,0x9f
    1f48:	00c0006f          	j	1f54 <main+0x8b4>
    1f4c:	0007a603          	lw	a2,0(a5) # 9f000 <__global_pointer$+0x1e800>
    1f50:	00e61663          	bne	a2,a4,1f5c <main+0x8bc>
    1f54:	00478793          	addi	a5,a5,4
    1f58:	ffb7eae3          	bltu	a5,s11,1f4c <main+0x8ac>
    1f5c:	5512                	c.lwsp	a0,36(sp)
    1f5e:	40fd8db3          	sub	s11,s11,a5
    1f62:	41468a33          	sub	s4,a3,s4
    1f66:	c119                	c.beqz	a0,1f6c <main+0x8cc>
    1f68:	3e1060ef          	jal	ra,8b48 <free>
    1f6c:	4315                	c.li	t1,5
    1f6e:	026a07b3          	mul	a5,s4,t1
    1f72:	00080537          	lui	a0,0x80
    1f76:	19850513          	addi	a0,a0,408 # 80198 <_DATA_VMA_START+0x198>
    1f7a:	c81a                	c.swsp	t1,16(sp)
    1f7c:	00f12a23          	sw	a5,20(sp)
    1f80:	519060ef          	jal	ra,8c98 <printf>
    1f84:	4342                	c.lwsp	t1,16(sp)
    1f86:	85ee                	c.mv	a1,s11
    1f88:	026d8db3          	mul	s11,s11,t1
    1f8c:	0f498513          	addi	a0,s3,244
    1f90:	509060ef          	jal	ra,8c98 <printf>
    1f94:	014005b3          	add	a1,zero,s4
    1f98:	10c90513          	addi	a0,s2,268
    1f9c:	4fd060ef          	jal	ra,8c98 <printf>
    1fa0:	47d2                	c.lwsp	a5,20(sp)
    1fa2:	46e2                	c.lwsp	a3,24(sp)
    1fa4:	00080537          	lui	a0,0x80
    1fa8:	96be                	c.add	a3,a5
    1faa:	85be                	c.mv	a1,a5
    1fac:	1b050513          	addi	a0,a0,432 # 801b0 <_DATA_VMA_START+0x1b0>
    1fb0:	00d12a23          	sw	a3,20(sp)
    1fb4:	4e5060ef          	jal	ra,8c98 <printf>
    1fb8:	00080537          	lui	a0,0x80
    1fbc:	01b005b3          	add	a1,zero,s11
    1fc0:	1e850513          	addi	a0,a0,488 # 801e8 <_DATA_VMA_START+0x1e8>
    1fc4:	4d5060ef          	jal	ra,8c98 <printf>
    1fc8:	01900533          	add	a0,zero,s9
    1fcc:	37d060ef          	jal	ra,8b48 <free>
    1fd0:	01800533          	add	a0,zero,s8
    1fd4:	375060ef          	jal	ra,8b48 <free>
    1fd8:	01700533          	add	a0,zero,s7
    1fdc:	36d060ef          	jal	ra,8b48 <free>
    1fe0:	01600533          	add	a0,zero,s6
    1fe4:	365060ef          	jal	ra,8b48 <free>
    1fe8:	01500533          	add	a0,zero,s5
    1fec:	35d060ef          	jal	ra,8b48 <free>
    1ff0:	01a00533          	add	a0,zero,s10
    1ff4:	355060ef          	jal	ra,8b48 <free>
    1ff8:	3bc48513          	addi	a0,s1,956
    1ffc:	49d060ef          	jal	ra,8c98 <printf>
    2000:	00080537          	lui	a0,0x80
    2004:	22050513          	addi	a0,a0,544 # 80220 <_DATA_VMA_START+0x220>
    2008:	491060ef          	jal	ra,8c98 <printf>
    200c:	00003a37          	lui	s4,0x3
    2010:	baca0513          	addi	a0,s4,-1108 # 2bac <riscv_convolve_s8+0x18>
    2014:	325060ef          	jal	ra,8b38 <malloc>
    2018:	00a00cb3          	add	s9,zero,a0
    201c:	60c00513          	li	a0,1548
    2020:	319060ef          	jal	ra,8b38 <malloc>
    2024:	00a00c33          	add	s8,zero,a0
    2028:	2b000513          	li	a0,688
    202c:	30d060ef          	jal	ra,8b38 <malloc>
    2030:	00a00bb3          	add	s7,zero,a0
    2034:	2b000513          	li	a0,688
    2038:	301060ef          	jal	ra,8b38 <malloc>
    203c:	00a00b33          	add	s6,zero,a0
    2040:	2b000513          	li	a0,688
    2044:	2f5060ef          	jal	ra,8b38 <malloc>
    2048:	00a00ab3          	add	s5,zero,a0
    204c:	baca0513          	addi	a0,s4,-1108
    2050:	2e9060ef          	jal	ra,8b38 <malloc>
    2054:	baca0793          	addi	a5,s4,-1108
    2058:	8756                	c.mv	a4,s5
    205a:	86da                	c.mv	a3,s6
    205c:	865e                	c.mv	a2,s7
    205e:	85e2                	c.mv	a1,s8
    2060:	8d2a                	c.mv	s10,a0
    2062:	0ac00893          	li	a7,172
    2066:	8566                	c.mv	a0,s9
    2068:	60c00813          	li	a6,1548
    206c:	d10ff0ef          	jal	ra,157c <fill_dummy_data>
    2070:	4785                	c.li	a5,1
    2072:	4342                	c.lwsp	t1,16(sp)
    2074:	da3e                	c.swsp	a5,52(sp)
    2076:	c33e                	c.swsp	a5,132(sp)
    2078:	c13e                	c.swsp	a5,128(sp)
    207a:	cb3e                	c.swsp	a5,148(sp)
    207c:	c93e                	c.swsp	a5,144(sp)
    207e:	f8000793          	li	a5,-128
    2082:	0ac00713          	li	a4,172
    2086:	4835                	c.li	a6,13
    2088:	488d                	c.li	a7,3
    208a:	86a2                	c.mv	a3,s0
    208c:	00d0                	c.addi4spn	a2,sp,68
    208e:	184c                	c.addi4spn	a1,sp,52
    2090:	cd3e                	c.swsp	a5,152(sp)
    2092:	18c8                	c.addi4spn	a0,sp,116
    2094:	07f00793          	li	a5,127
    2098:	dc42                	c.swsp	a6,56(sp)
    209a:	de1a                	c.swsp	t1,60(sp)
    209c:	c0ba                	c.swsp	a4,64(sp)
    209e:	c4c6                	c.swsp	a7,72(sp)
    20a0:	c6c6                	c.swsp	a7,76(sp)
    20a2:	c8ba                	c.swsp	a4,80(sp)
    20a4:	d4c2                	c.swsp	a6,104(sp)
    20a6:	d69a                	c.swsp	t1,108(sp)
    20a8:	d8ba                	c.swsp	a4,112(sp)
    20aa:	deba                	c.swsp	a4,124(sp)
    20ac:	cf3e                	c.swsp	a5,156(sp)
    20ae:	ca82                	c.swsp	zero,84(sp)
    20b0:	cc82                	c.swsp	zero,88(sp)
    20b2:	ce82                	c.swsp	zero,92(sp)
    20b4:	d082                	c.swsp	zero,96(sp)
    20b6:	c702                	c.swsp	zero,140(sp)
    20b8:	c502                	c.swsp	zero,136(sp)
    20ba:	da82                	c.swsp	zero,116(sp)
    20bc:	dc82                	c.swsp	zero,120(sp)
    20be:	d65a                	c.swsp	s6,44(sp)
    20c0:	03512823          	sw	s5,48(sp)
    20c4:	7c0010ef          	jal	ra,3884 <riscv_depthwise_conv_wrapper_s8_get_buffer_size>
    20c8:	46f2                	c.lwsp	a3,28(sp)
    20ca:	8a2a                	c.mv	s4,a0
    20cc:	96ee                	c.add	a3,s11
    20ce:	c82a                	c.swsp	a0,16(sp)
    20d0:	00d12c23          	sw	a3,24(sp)
    20d4:	265060ef          	jal	ra,8b38 <malloc>
    20d8:	d452                	c.swsp	s4,40(sp)
    20da:	d22a                	c.swsp	a0,36(sp)
    20dc:	878a                	c.mv	a5,sp
    20de:	0009f737          	lui	a4,0x9f
    20e2:	00f77f63          	bgeu	a4,a5,2100 <main+0xa60>
    20e6:	fff61637          	lui	a2,0xfff61
    20ea:	167d                	c.addi	a2,-1
    20ec:	97b2                	c.add	a5,a2
    20ee:	ffc7f613          	andi	a2,a5,-4
    20f2:	0611                	c.addi	a2,4
    20f4:	0aa00593          	li	a1,170
    20f8:	0009f537          	lui	a0,0x9f
    20fc:	157060ef          	jal	ra,8a52 <memset>
    2100:	b0005073          	csrwi	mcycle,0
    2104:	b0002df3          	csrr	s11,mcycle
    2108:	05410893          	addi	a7,sp,84
    210c:	8862                	c.mv	a6,s8
    210e:	00dc                	c.addi4spn	a5,sp,68
    2110:	8766                	c.mv	a4,s9
    2112:	1854                	c.addi4spn	a3,sp,52
    2114:	1070                	c.addi4spn	a2,sp,44
    2116:	18cc                	c.addi4spn	a1,sp,116
    2118:	1048                	c.addi4spn	a0,sp,36
    211a:	c46a                	c.swsp	s10,8(sp)
    211c:	c222                	c.swsp	s0,4(sp)
    211e:	c05e                	c.swsp	s7,0(sp)
    2120:	5c1010ef          	jal	ra,3ee0 <riscv_depthwise_conv_wrapper_s8>
    2124:	b0002673          	csrr	a2,mcycle
    2128:	868a                	c.mv	a3,sp
    212a:	0009f7b7          	lui	a5,0x9f
    212e:	42d7fd63          	bgeu	a5,a3,2568 <main+0xec8>
    2132:	4398                	c.lw	a4,0(a5)
    2134:	aaaab7b7          	lui	a5,0xaaaab
    2138:	aaa78793          	addi	a5,a5,-1366 # aaaaaaaa <_DATA_LMA_START+0x8aaa0fa2>
    213c:	42f71663          	bne	a4,a5,2568 <main+0xec8>
    2140:	0009f7b7          	lui	a5,0x9f
    2144:	00c0006f          	j	2150 <main+0xab0>
    2148:	0007a583          	lw	a1,0(a5) # 9f000 <__global_pointer$+0x1e800>
    214c:	00e59663          	bne	a1,a4,2158 <main+0xab8>
    2150:	00478793          	addi	a5,a5,4
    2154:	fed7eae3          	bltu	a5,a3,2148 <main+0xaa8>
    2158:	5512                	c.lwsp	a0,36(sp)
    215a:	40f68a33          	sub	s4,a3,a5
    215e:	41b60db3          	sub	s11,a2,s11
    2162:	c909                	c.beqz	a0,2174 <main+0xad4>
    2164:	4642                	c.lwsp	a2,16(sp)
    2166:	4581                	c.li	a1,0
    2168:	0eb060ef          	jal	ra,8a52 <memset>
    216c:	02412503          	lw	a0,36(sp)
    2170:	1d9060ef          	jal	ra,8b48 <free>
    2174:	00080537          	lui	a0,0x80
    2178:	25450513          	addi	a0,a0,596 # 80254 <_DATA_VMA_START+0x254>
    217c:	31d060ef          	jal	ra,8c98 <printf>
    2180:	014005b3          	add	a1,zero,s4
    2184:	0f498513          	addi	a0,s3,244
    2188:	311060ef          	jal	ra,8c98 <printf>
    218c:	01b005b3          	add	a1,zero,s11
    2190:	10c90513          	addi	a0,s2,268
    2194:	305060ef          	jal	ra,8c98 <printf>
    2198:	0d8a                	c.slli	s11,0x2
    219a:	00080537          	lui	a0,0x80
    219e:	85ee                	c.mv	a1,s11
    21a0:	27850513          	addi	a0,a0,632 # 80278 <_DATA_VMA_START+0x278>
    21a4:	2f5060ef          	jal	ra,8c98 <printf>
    21a8:	0a0a                	c.slli	s4,0x2
    21aa:	00080537          	lui	a0,0x80
    21ae:	85d2                	c.mv	a1,s4
    21b0:	2b850513          	addi	a0,a0,696 # 802b8 <_DATA_VMA_START+0x2b8>
    21b4:	2e5060ef          	jal	ra,8c98 <printf>
    21b8:	01900533          	add	a0,zero,s9
    21bc:	18d060ef          	jal	ra,8b48 <free>
    21c0:	01800533          	add	a0,zero,s8
    21c4:	185060ef          	jal	ra,8b48 <free>
    21c8:	01700533          	add	a0,zero,s7
    21cc:	17d060ef          	jal	ra,8b48 <free>
    21d0:	01600533          	add	a0,zero,s6
    21d4:	175060ef          	jal	ra,8b48 <free>
    21d8:	01500533          	add	a0,zero,s5
    21dc:	16d060ef          	jal	ra,8b48 <free>
    21e0:	01a00533          	add	a0,zero,s10
    21e4:	165060ef          	jal	ra,8b48 <free>
    21e8:	3bc48513          	addi	a0,s1,956
    21ec:	2ad060ef          	jal	ra,8c98 <printf>
    21f0:	00080537          	lui	a0,0x80
    21f4:	2f850513          	addi	a0,a0,760 # 802f8 <_DATA_VMA_START+0x2f8>
    21f8:	2a1060ef          	jal	ra,8c98 <printf>
    21fc:	00003ab7          	lui	s5,0x3
    2200:	baca8513          	addi	a0,s5,-1108 # 2bac <riscv_convolve_s8+0x18>
    2204:	135060ef          	jal	ra,8b38 <malloc>
    2208:	00a00b33          	add	s6,zero,a0
    220c:	0ac00513          	li	a0,172
    2210:	129060ef          	jal	ra,8b38 <malloc>
    2214:	46d2                	c.lwsp	a3,20(sp)
    2216:	baca8a93          	addi	s5,s5,-1108
    221a:	96ee                	c.add	a3,s11
    221c:	c836                	c.swsp	a3,16(sp)
    221e:	46e2                	c.lwsp	a3,24(sp)
    2220:	8baa                	c.mv	s7,a0
    2222:	96d2                	c.add	a3,s4
    2224:	015b0a33          	add	s4,s6,s5
    2228:	80808ab7          	lui	s5,0x80808
    222c:	8c5a                	c.mv	s8,s6
    222e:	081a8a93          	addi	s5,s5,129 # 80808081 <_DATA_LMA_START+0x607fe579>
    2232:	ca36                	c.swsp	a3,20(sp)
    2234:	0c9060ef          	jal	ra,8afc <rand>
    2238:	e155177f          	mulsr64	a4,a0,s5
    223c:	97aa                	c.add	a5,a0
    223e:	41f55713          	srai	a4,a0,0x1f
    2242:	879d                	c.srai	a5,0x7
    2244:	8f99                	c.sub	a5,a4
    2246:	00879713          	slli	a4,a5,0x8
    224a:	40f707b3          	sub	a5,a4,a5
    224e:	40f507b3          	sub	a5,a0,a5
    2252:	f8078793          	addi	a5,a5,-128
    2256:	00fc0023          	sb	a5,0(s8)
    225a:	0c05                	c.addi	s8,1
    225c:	fd4c1ce3          	bne	s8,s4,2234 <main+0xb94>
    2260:	4785                	c.li	a5,1
    2262:	c2be                	c.swsp	a5,68(sp)
    2264:	ccbe                	c.swsp	a5,88(sp)
    2266:	cebe                	c.swsp	a5,92(sp)
    2268:	c13e                	c.swsp	a5,128(sp)
    226a:	debe                	c.swsp	a5,124(sp)
    226c:	f8000793          	li	a5,-128
    2270:	46b5                	c.li	a3,13
    2272:	4715                	c.li	a4,5
    2274:	0ac00613          	li	a2,172
    2278:	0ac00593          	li	a1,172
    227c:	c33e                	c.swsp	a5,132(sp)
    227e:	4505                	c.li	a0,1
    2280:	07f00793          	li	a5,127
    2284:	c4b6                	c.swsp	a3,72(sp)
    2286:	c6ba                	c.swsp	a4,76(sp)
    2288:	c8b2                	c.swsp	a2,80(sp)
    228a:	d6ba                	c.swsp	a4,108(sp)
    228c:	d4b6                	c.swsp	a3,104(sp)
    228e:	d0b2                	c.swsp	a2,96(sp)
    2290:	dcb6                	c.swsp	a3,120(sp)
    2292:	daba                	c.swsp	a4,116(sp)
    2294:	08f12423          	sw	a5,136(sp)
    2298:	33d020ef          	jal	ra,4dd4 <riscv_avgpool_s8_get_buffer_size>
    229c:	00a00a33          	add	s4,zero,a0
    22a0:	099060ef          	jal	ra,8b38 <malloc>
    22a4:	dc52                	c.swsp	s4,56(sp)
    22a6:	da2a                	c.swsp	a0,52(sp)
    22a8:	878a                	c.mv	a5,sp
    22aa:	0009f737          	lui	a4,0x9f
    22ae:	00f77f63          	bgeu	a4,a5,22cc <main+0xc2c>
    22b2:	fff61637          	lui	a2,0xfff61
    22b6:	167d                	c.addi	a2,-1
    22b8:	97b2                	c.add	a5,a2
    22ba:	ffc7f613          	andi	a2,a5,-4
    22be:	0611                	c.addi	a2,4
    22c0:	0aa00593          	li	a1,170
    22c4:	0009f537          	lui	a0,0x9f
    22c8:	78a060ef          	jal	ra,8a52 <memset>
    22cc:	b0005073          	csrwi	mcycle,0
    22d0:	b0002af3          	csrr	s5,mcycle
    22d4:	885e                	c.mv	a6,s7
    22d6:	08dc                	c.addi4spn	a5,sp,84
    22d8:	8722                	c.mv	a4,s0
    22da:	86da                	c.mv	a3,s6
    22dc:	00d0                	c.addi4spn	a2,sp,68
    22de:	18cc                	c.addi4spn	a1,sp,116
    22e0:	03410513          	addi	a0,sp,52
    22e4:	2f9020ef          	jal	ra,4ddc <riscv_avgpool_s8>
    22e8:	b00026f3          	csrr	a3,mcycle
    22ec:	8a0a                	c.mv	s4,sp
    22ee:	0009f7b7          	lui	a5,0x9f
    22f2:	3547f763          	bgeu	a5,s4,2640 <main+0xfa0>
    22f6:	4398                	c.lw	a4,0(a5)
    22f8:	aaaab7b7          	lui	a5,0xaaaab
    22fc:	aaa78793          	addi	a5,a5,-1366 # aaaaaaaa <_DATA_LMA_START+0x8aaa0fa2>
    2300:	34f71063          	bne	a4,a5,2640 <main+0xfa0>
    2304:	0009f7b7          	lui	a5,0x9f
    2308:	00c0006f          	j	2314 <main+0xc74>
    230c:	0007a603          	lw	a2,0(a5) # 9f000 <__global_pointer$+0x1e800>
    2310:	00e61663          	bne	a2,a4,231c <main+0xc7c>
    2314:	00478793          	addi	a5,a5,4
    2318:	ff47eae3          	bltu	a5,s4,230c <main+0xc6c>
    231c:	5552                	c.lwsp	a0,52(sp)
    231e:	40fa0a33          	sub	s4,s4,a5
    2322:	41568ab3          	sub	s5,a3,s5
    2326:	c119                	c.beqz	a0,232c <main+0xc8c>
    2328:	021060ef          	jal	ra,8b48 <free>
    232c:	00080537          	lui	a0,0x80
    2330:	32050513          	addi	a0,a0,800 # 80320 <_DATA_VMA_START+0x320>
    2334:	165060ef          	jal	ra,8c98 <printf>
    2338:	014005b3          	add	a1,zero,s4
    233c:	0f498513          	addi	a0,s3,244
    2340:	159060ef          	jal	ra,8c98 <printf>
    2344:	015005b3          	add	a1,zero,s5
    2348:	10c90513          	addi	a0,s2,268
    234c:	14d060ef          	jal	ra,8c98 <printf>
    2350:	01600533          	add	a0,zero,s6
    2354:	7f4060ef          	jal	ra,8b48 <free>
    2358:	01700533          	add	a0,zero,s7
    235c:	7ec060ef          	jal	ra,8b48 <free>
    2360:	3bc48513          	addi	a0,s1,956
    2364:	135060ef          	jal	ra,8c98 <printf>
    2368:	00080537          	lui	a0,0x80
    236c:	33c50513          	addi	a0,a0,828 # 8033c <_DATA_VMA_START+0x33c>
    2370:	129060ef          	jal	ra,8c98 <printf>
    2374:	00100513          	li	a0,1
    2378:	7c0060ef          	jal	ra,8b38 <malloc>
    237c:	6805                	c.lui	a6,0x1
    237e:	8c2a                	c.mv	s8,a0
    2380:	81080513          	addi	a0,a6,-2032 # 810 <analog_read_reg8+0x38>
    2384:	01012c23          	sw	a6,24(sp)
    2388:	7b0060ef          	jal	ra,8b38 <malloc>
    238c:	00a00bb3          	add	s7,zero,a0
    2390:	03000513          	li	a0,48
    2394:	7a4060ef          	jal	ra,8b38 <malloc>
    2398:	00a00b33          	add	s6,zero,a0
    239c:	03000513          	li	a0,48
    23a0:	798060ef          	jal	ra,8b38 <malloc>
    23a4:	00a00db3          	add	s11,zero,a0
    23a8:	03000513          	li	a0,48
    23ac:	78c060ef          	jal	ra,8b38 <malloc>
    23b0:	8d2a                	c.mv	s10,a0
    23b2:	4531                	c.li	a0,12
    23b4:	784060ef          	jal	ra,8b38 <malloc>
    23b8:	4862                	c.lwsp	a6,24(sp)
    23ba:	48b1                	c.li	a7,12
    23bc:	81080813          	addi	a6,a6,-2032
    23c0:	865a                	c.mv	a2,s6
    23c2:	85de                	c.mv	a1,s7
    23c4:	4785                	c.li	a5,1
    23c6:	876a                	c.mv	a4,s10
    23c8:	86ee                	c.mv	a3,s11
    23ca:	8caa                	c.mv	s9,a0
    23cc:	01800533          	add	a0,zero,s8
    23d0:	9acff0ef          	jal	ra,157c <fill_dummy_data>
    23d4:	4785                	c.li	a5,1
    23d6:	da3e                	c.swsp	a5,52(sp)
    23d8:	dc3e                	c.swsp	a5,56(sp)
    23da:	de3e                	c.swsp	a5,60(sp)
    23dc:	c0be                	c.swsp	a5,64(sp)
    23de:	d2be                	c.swsp	a5,100(sp)
    23e0:	f8000793          	li	a5,-128
    23e4:	c13e                	c.swsp	a5,128(sp)
    23e6:	07f00793          	li	a5,127
    23ea:	c33e                	c.swsp	a5,132(sp)
    23ec:	500627b7          	lui	a5,0x50062
    23f0:	69278793          	addi	a5,a5,1682 # 50062692 <_DATA_LMA_START+0x30058b8a>
    23f4:	4731                	c.li	a4,12
    23f6:	0ac00693          	li	a3,172
    23fa:	d63e                	c.swsp	a5,44(sp)
    23fc:	00c8                	c.addi4spn	a0,sp,68
    23fe:	57dd                	c.li	a5,-9
    2400:	c2b6                	c.swsp	a3,68(sp)
    2402:	d83e                	c.swsp	a5,48(sp)
    2404:	c8ba                	c.swsp	a4,80(sp)
    2406:	d8ba                	c.swsp	a4,112(sp)
    2408:	ca82                	c.swsp	zero,84(sp)
    240a:	cc82                	c.swsp	zero,88(sp)
    240c:	ce82                	c.swsp	zero,92(sp)
    240e:	d082                	c.swsp	zero,96(sp)
    2410:	da82                	c.swsp	zero,116(sp)
    2412:	dc82                	c.swsp	zero,120(sp)
    2414:	06012e23          	sw	zero,124(sp)
    2418:	465020ef          	jal	ra,507c <riscv_fully_connected_s8_get_buffer_size>
    241c:	00a12c23          	sw	a0,24(sp)
    2420:	718060ef          	jal	ra,8b38 <malloc>
    2424:	46c2                	c.lwsp	a3,16(sp)
    2426:	47e2                	c.lwsp	a5,24(sp)
    2428:	9ab6                	c.add	s5,a3
    242a:	46d2                	c.lwsp	a3,20(sp)
    242c:	d22a                	c.swsp	a0,36(sp)
    242e:	d43e                	c.swsp	a5,40(sp)
    2430:	9a36                	c.add	s4,a3
    2432:	16050b63          	beqz	a0,25a8 <main+0xf08>
    2436:	b0005073          	csrwi	mcycle,0
    243a:	878a                	c.mv	a5,sp
    243c:	0009f737          	lui	a4,0x9f
    2440:	02f77063          	bgeu	a4,a5,2460 <main+0xdc0>
    2444:	fff61637          	lui	a2,0xfff61
    2448:	167d                	c.addi	a2,-1
    244a:	97b2                	c.add	a5,a2
    244c:	ffc7f613          	andi	a2,a5,-4
    2450:	00460613          	addi	a2,a2,4 # fff61004 <_DATA_LMA_START+0xdff574fc>
    2454:	0aa00593          	li	a1,170
    2458:	0009f537          	lui	a0,0x9f
    245c:	5f6060ef          	jal	ra,8a52 <memset>
    2460:	b0002373          	csrr	t1,mcycle
    2464:	05410893          	addi	a7,sp,84
    2468:	885e                	c.mv	a6,s7
    246a:	00dc                	c.addi4spn	a5,sp,68
    246c:	8762                	c.mv	a4,s8
    246e:	1854                	c.addi4spn	a3,sp,52
    2470:	1070                	c.addi4spn	a2,sp,44
    2472:	18cc                	c.addi4spn	a1,sp,116
    2474:	1048                	c.addi4spn	a0,sp,36
    2476:	c81a                	c.swsp	t1,16(sp)
    2478:	c466                	c.swsp	s9,8(sp)
    247a:	c222                	c.swsp	s0,4(sp)
    247c:	01612023          	sw	s6,0(sp)
    2480:	359020ef          	jal	ra,4fd8 <riscv_fully_connected_s8>
    2484:	b0002473          	csrr	s0,mcycle
    2488:	868a                	c.mv	a3,sp
    248a:	0009f7b7          	lui	a5,0x9f
    248e:	4342                	c.lwsp	t1,16(sp)
    2490:	1ad7f463          	bgeu	a5,a3,2638 <main+0xf98>
    2494:	0007a703          	lw	a4,0(a5) # 9f000 <__global_pointer$+0x1e800>
    2498:	aaaab7b7          	lui	a5,0xaaaab
    249c:	aaa78793          	addi	a5,a5,-1366 # aaaaaaaa <_DATA_LMA_START+0x8aaa0fa2>
    24a0:	18f71c63          	bne	a4,a5,2638 <main+0xf98>
    24a4:	0009f7b7          	lui	a5,0x9f
    24a8:	0791                	c.addi	a5,4
    24aa:	00d7f563          	bgeu	a5,a3,24b4 <main+0xe14>
    24ae:	4390                	c.lw	a2,0(a5)
    24b0:	fee60ce3          	beq	a2,a4,24a8 <main+0xe08>
    24b4:	8e9d                	c.sub	a3,a5
    24b6:	5512                	c.lwsp	a0,36(sp)
    24b8:	c836                	c.swsp	a3,16(sp)
    24ba:	40640433          	sub	s0,s0,t1
    24be:	c909                	c.beqz	a0,24d0 <main+0xe30>
    24c0:	5622                	c.lwsp	a2,40(sp)
    24c2:	4581                	c.li	a1,0
    24c4:	58e060ef          	jal	ra,8a52 <memset>
    24c8:	02412503          	lw	a0,36(sp)
    24cc:	67c060ef          	jal	ra,8b48 <free>
    24d0:	00080537          	lui	a0,0x80
    24d4:	38850513          	addi	a0,a0,904 # 80388 <_DATA_VMA_START+0x388>
    24d8:	7c0060ef          	jal	ra,8c98 <printf>
    24dc:	01012583          	lw	a1,16(sp)
    24e0:	0f498513          	addi	a0,s3,244
    24e4:	7b4060ef          	jal	ra,8c98 <printf>
    24e8:	008005b3          	add	a1,zero,s0
    24ec:	10c90513          	addi	a0,s2,268
    24f0:	7a8060ef          	jal	ra,8c98 <printf>
    24f4:	00080537          	lui	a0,0x80
    24f8:	3c050513          	addi	a0,a0,960 # 803c0 <_DATA_VMA_START+0x3c0>
    24fc:	79c060ef          	jal	ra,8c98 <printf>
    2500:	01800533          	add	a0,zero,s8
    2504:	644060ef          	jal	ra,8b48 <free>
    2508:	01700533          	add	a0,zero,s7
    250c:	63c060ef          	jal	ra,8b48 <free>
    2510:	01600533          	add	a0,zero,s6
    2514:	634060ef          	jal	ra,8b48 <free>
    2518:	01b00533          	add	a0,zero,s11
    251c:	62c060ef          	jal	ra,8b48 <free>
    2520:	01a00533          	add	a0,zero,s10
    2524:	624060ef          	jal	ra,8b48 <free>
    2528:	9aa2                	c.add	s5,s0
    252a:	4442                	c.lwsp	s0,16(sp)
    252c:	8566                	c.mv	a0,s9
    252e:	9a22                	c.add	s4,s0
    2530:	618060ef          	jal	ra,8b48 <free>
    2534:	0b00006f          	j	25e4 <main+0xf44>
    2538:	000fe537          	lui	a0,0xfe
    253c:	0c050513          	addi	a0,a0,192 # fe0c0 <_STACK_TOP+0x5e0c0>
    2540:	ecdfe0ef          	jal	ra,140c <user_calib_adc_vref.constprop.9>
    2544:	000fe537          	lui	a0,0xfe
    2548:	fc1fe0ef          	jal	ra,1508 <user_calib_freq_offset.constprop.8>
    254c:	c14ff06f          	j	1960 <main+0x2c0>
    2550:	0009f7b7          	lui	a5,0x9f
    2554:	e58ff06f          	j	1bac <main+0x50c>
    2558:	0009f7b7          	lui	a5,0x9f
    255c:	829ff06f          	j	1d84 <main+0x6e4>
    2560:	0009f7b7          	lui	a5,0x9f
    2564:	9f9ff06f          	j	1f5c <main+0x8bc>
    2568:	0009f7b7          	lui	a5,0x9f
    256c:	bedff06f          	j	2158 <main+0xab8>
    2570:	001fe537          	lui	a0,0x1fe
    2574:	0c050513          	addi	a0,a0,192 # 1fe0c0 <FLASH_SIZE+0xfe0c0>
    2578:	e95fe0ef          	jal	ra,140c <user_calib_adc_vref.constprop.9>
    257c:	001fe537          	lui	a0,0x1fe
    2580:	f89fe0ef          	jal	ra,1508 <user_calib_freq_offset.constprop.8>
    2584:	bdcff06f          	j	1960 <main+0x2c0>
    2588:	0d07d05b          	beqc	a5,16,2648 <main+0xfa8>
    258c:	0f17e65b          	bnec	a5,17,2678 <main+0xfd8>
    2590:	0001e537          	lui	a0,0x1e
    2594:	0c050513          	addi	a0,a0,192 # 1e0c0 <BIN_SIZE+0x1412a>
    2598:	e75fe0ef          	jal	ra,140c <user_calib_adc_vref.constprop.9>
    259c:	0001e537          	lui	a0,0x1e
    25a0:	f69fe0ef          	jal	ra,1508 <user_calib_freq_offset.constprop.8>
    25a4:	bbcff06f          	j	1960 <main+0x2c0>
    25a8:	00080537          	lui	a0,0x80
    25ac:	36450513          	addi	a0,a0,868 # 80364 <_DATA_VMA_START+0x364>
    25b0:	6e8060ef          	jal	ra,8c98 <printf>
    25b4:	01800533          	add	a0,zero,s8
    25b8:	590060ef          	jal	ra,8b48 <free>
    25bc:	01700533          	add	a0,zero,s7
    25c0:	588060ef          	jal	ra,8b48 <free>
    25c4:	01600533          	add	a0,zero,s6
    25c8:	580060ef          	jal	ra,8b48 <free>
    25cc:	01b00533          	add	a0,zero,s11
    25d0:	578060ef          	jal	ra,8b48 <free>
    25d4:	01a00533          	add	a0,zero,s10
    25d8:	570060ef          	jal	ra,8b48 <free>
    25dc:	01900533          	add	a0,zero,s9
    25e0:	568060ef          	jal	ra,8b48 <free>
    25e4:	3bc48513          	addi	a0,s1,956
    25e8:	6b0060ef          	jal	ra,8c98 <printf>
    25ec:	00080537          	lui	a0,0x80
    25f0:	3cc50513          	addi	a0,a0,972 # 803cc <_DATA_VMA_START+0x3cc>
    25f4:	6a4060ef          	jal	ra,8c98 <printf>
    25f8:	00080537          	lui	a0,0x80
    25fc:	015005b3          	add	a1,zero,s5
    2600:	3fc50513          	addi	a0,a0,1020 # 803fc <_DATA_VMA_START+0x3fc>
    2604:	694060ef          	jal	ra,8c98 <printf>
    2608:	00080537          	lui	a0,0x80
    260c:	014005b3          	add	a1,zero,s4
    2610:	41850513          	addi	a0,a0,1048 # 80418 <_DATA_VMA_START+0x418>
    2614:	684060ef          	jal	ra,8c98 <printf>
    2618:	40fe                	c.lwsp	ra,220(sp)
    261a:	446e                	c.lwsp	s0,216(sp)
    261c:	44de                	c.lwsp	s1,212(sp)
    261e:	494e                	c.lwsp	s2,208(sp)
    2620:	49be                	c.lwsp	s3,204(sp)
    2622:	4a2e                	c.lwsp	s4,200(sp)
    2624:	4a9e                	c.lwsp	s5,196(sp)
    2626:	4b0e                	c.lwsp	s6,192(sp)
    2628:	5bfa                	c.lwsp	s7,188(sp)
    262a:	5c6a                	c.lwsp	s8,184(sp)
    262c:	5cda                	c.lwsp	s9,180(sp)
    262e:	5d4a                	c.lwsp	s10,176(sp)
    2630:	5dba                	c.lwsp	s11,172(sp)
    2632:	4501                	c.li	a0,0
    2634:	612d                	c.addi16sp	sp,224
    2636:	8082                	c.jr	ra
    2638:	0009f7b7          	lui	a5,0x9f
    263c:	e79ff06f          	j	24b4 <main+0xe14>
    2640:	0009f7b7          	lui	a5,0x9f
    2644:	cd9ff06f          	j	231c <main+0xc7c>
    2648:	0000e537          	lui	a0,0xe
    264c:	0c050513          	addi	a0,a0,192 # e0c0 <BIN_SIZE+0x412a>
    2650:	dbdfe0ef          	jal	ra,140c <user_calib_adc_vref.constprop.9>
    2654:	0000e537          	lui	a0,0xe
    2658:	eb1fe0ef          	jal	ra,1508 <user_calib_freq_offset.constprop.8>
    265c:	b04ff06f          	j	1960 <main+0x2c0>
    2660:	0007e537          	lui	a0,0x7e
    2664:	0c050513          	addi	a0,a0,192 # 7e0c0 <BIN_SIZE+0x7412a>
    2668:	da5fe0ef          	jal	ra,140c <user_calib_adc_vref.constprop.9>
    266c:	0007e537          	lui	a0,0x7e
    2670:	e99fe0ef          	jal	ra,1508 <user_calib_freq_offset.constprop.8>
    2674:	aecff06f          	j	1960 <main+0x2c0>
    2678:	00000513          	li	a0,0
    267c:	d91fe0ef          	jal	ra,140c <user_calib_adc_vref.constprop.9>
    2680:	ae0ff06f          	j	1960 <main+0x2c0>
    2684:	00100793          	li	a5,1
    2688:	c89f940b          	addigp	s0,-888 # 80488 <g_pm_status_info>
    268c:	03800513          	li	a0,56
    2690:	00f40123          	sb	a5,2(s0)
    2694:	900fe0ef          	jal	ra,794 <analog_write_reg8>
    2698:	0014e593          	ori	a1,s1,1
    269c:	0ff5f593          	andi	a1,a1,255
    26a0:	03900513          	li	a0,57
    26a4:	8f0fe0ef          	jal	ra,794 <analog_write_reg8>
    26a8:	950ff06f          	j	17f8 <main+0x158>
    26ac:	07f00513          	li	a0,127
    26b0:	928fe0ef          	jal	ra,7d8 <analog_read_reg8>
    26b4:	00057c5b          	bbc	a0,0,26cc <main+0x102c>
    26b8:	4214f25b          	bbs	s1,1,26dc <main+0x103c>
    26bc:	c89f940b          	addigp	s0,-888 # 80488 <g_pm_status_info>
    26c0:	01000793          	li	a5,16
    26c4:	00f40123          	sb	a5,2(s0)
    26c8:	930ff06f          	j	17f8 <main+0x158>
    26cc:	c89f940b          	addigp	s0,-888 # 80488 <g_pm_status_info>
    26d0:	00800793          	li	a5,8
    26d4:	00f40123          	sb	a5,2(s0)
    26d8:	920ff06f          	j	17f8 <main+0x158>
    26dc:	c89f940b          	addigp	s0,-888 # 80488 <g_pm_status_info>
    26e0:	02000793          	li	a5,32
    26e4:	0fd4f593          	andi	a1,s1,253
    26e8:	03900513          	li	a0,57
    26ec:	00f40123          	sb	a5,2(s0)
    26f0:	8a4fe0ef          	jal	ra,794 <analog_write_reg8>
    26f4:	904ff06f          	j	17f8 <main+0x158>

000026f8 <default_irq_entry>:
    26f8:	a001                	c.j	26f8 <default_irq_entry>

000026fa <trap_handler>:
    26fa:	a001                	c.j	26fa <trap_handler>
    26fc:	0001                	c.nop
	...

00002700 <riscv_convolve_wrapper_s8>:
    2700:	7179                	c.addi16sp	sp,-48
    2702:	0105a283          	lw	t0,16(a1)
    2706:	d422                	c.swsp	s0,40(sp)
    2708:	d226                	c.swsp	s1,36(sp)
    270a:	d04a                	c.swsp	s2,32(sp)
    270c:	ce4e                	c.swsp	s3,28(sp)
    270e:	cc52                	c.swsp	s4,24(sp)
    2710:	d606                	c.swsp	ra,44(sp)
    2712:	ca56                	c.swsp	s5,20(sp)
    2714:	c85a                	c.swsp	s6,16(sp)
    2716:	5942                	c.lwsp	s2,48(sp)
    2718:	59d2                	c.lwsp	s3,52(sp)
    271a:	5a62                	c.lwsp	s4,56(sp)
    271c:	832e                	c.mv	t1,a1
    271e:	83aa                	c.mv	t2,a0
    2720:	8432                	c.mv	s0,a2
    2722:	8e36                	c.mv	t3,a3
    2724:	84ba                	c.mv	s1,a4
    2726:	8ebe                	c.mv	t4,a5
    2728:	8f42                	c.mv	t5,a6
    272a:	8fc6                	c.mv	t6,a7
    272c:	00029663          	bnez	t0,2738 <riscv_convolve_wrapper_s8+0x38>
    2730:	0145a283          	lw	t0,20(a1)
    2734:	04028863          	beqz	t0,2784 <riscv_convolve_wrapper_s8+0x84>
    2738:	004e2783          	lw	a5,4(t3)
    273c:	00100713          	li	a4,1
    2740:	00e79a63          	bne	a5,a4,2754 <riscv_convolve_wrapper_s8+0x54>
    2744:	01832703          	lw	a4,24(t1)
    2748:	00f71663          	bne	a4,a5,2754 <riscv_convolve_wrapper_s8+0x54>
    274c:	004ea783          	lw	a5,4(t4)
    2750:	06e78263          	beq	a5,a4,27b4 <riscv_convolve_wrapper_s8+0xb4>
    2754:	8726                	c.mv	a4,s1
    2756:	8622                	c.mv	a2,s0
    2758:	88fe                	c.mv	a7,t6
    275a:	887a                	c.mv	a6,t5
    275c:	87f6                	c.mv	a5,t4
    275e:	86f2                	c.mv	a3,t3
    2760:	851e                	c.mv	a0,t2
    2762:	859a                	c.mv	a1,t1
    2764:	c652                	c.swsp	s4,12(sp)
    2766:	c44e                	c.swsp	s3,8(sp)
    2768:	c04a                	c.swsp	s2,0(sp)
    276a:	c202                	c.swsp	zero,4(sp)
    276c:	428000ef          	jal	ra,2b94 <riscv_convolve_s8>
    2770:	50b2                	c.lwsp	ra,44(sp)
    2772:	5422                	c.lwsp	s0,40(sp)
    2774:	5492                	c.lwsp	s1,36(sp)
    2776:	5902                	c.lwsp	s2,32(sp)
    2778:	49f2                	c.lwsp	s3,28(sp)
    277a:	4a62                	c.lwsp	s4,24(sp)
    277c:	4ad2                	c.lwsp	s5,20(sp)
    277e:	4b42                	c.lwsp	s6,16(sp)
    2780:	6145                	c.addi16sp	sp,48
    2782:	8082                	c.jr	ra
    2784:	0087a283          	lw	t0,8(a5) # 9f008 <__global_pointer$+0x1e808>
    2788:	00100a93          	li	s5,1
    278c:	fb5296e3          	bne	t0,s5,2738 <riscv_convolve_wrapper_s8+0x38>
    2790:	0047aa83          	lw	s5,4(a5)
    2794:	fa5a92e3          	bne	s5,t0,2738 <riscv_convolve_wrapper_s8+0x38>
    2798:	0185a283          	lw	t0,24(a1)
    279c:	fb529ce3          	bne	t0,s5,2754 <riscv_convolve_wrapper_s8+0x54>
    27a0:	01c5aa83          	lw	s5,28(a1)
    27a4:	045a8a63          	beq	s5,t0,27f8 <riscv_convolve_wrapper_s8+0xf8>
    27a8:	004e2703          	lw	a4,4(t3)
    27ac:	00100793          	li	a5,1
    27b0:	faf712e3          	bne	a4,a5,2754 <riscv_convolve_wrapper_s8+0x54>
    27b4:	00ce2703          	lw	a4,12(t3)
    27b8:	00832783          	lw	a5,8(t1)
    27bc:	02f707b3          	mul	a5,a4,a5
    27c0:	8b8d                	c.andi	a5,3
    27c2:	fbc9                	c.bnez	a5,2754 <riscv_convolve_wrapper_s8+0x54>
    27c4:	00cea783          	lw	a5,12(t4)
    27c8:	f8f716e3          	bne	a4,a5,2754 <riscv_convolve_wrapper_s8+0x54>
    27cc:	8622                	c.mv	a2,s0
    27ce:	5422                	c.lwsp	s0,40(sp)
    27d0:	dc52                	c.swsp	s4,56(sp)
    27d2:	da4e                	c.swsp	s3,52(sp)
    27d4:	d84a                	c.swsp	s2,48(sp)
    27d6:	50b2                	c.lwsp	ra,44(sp)
    27d8:	5902                	c.lwsp	s2,32(sp)
    27da:	49f2                	c.lwsp	s3,28(sp)
    27dc:	4a62                	c.lwsp	s4,24(sp)
    27de:	4ad2                	c.lwsp	s5,20(sp)
    27e0:	4b42                	c.lwsp	s6,16(sp)
    27e2:	8726                	c.mv	a4,s1
    27e4:	5492                	c.lwsp	s1,36(sp)
    27e6:	88fe                	c.mv	a7,t6
    27e8:	887a                	c.mv	a6,t5
    27ea:	87f6                	c.mv	a5,t4
    27ec:	86f2                	c.mv	a3,t3
    27ee:	859a                	c.mv	a1,t1
    27f0:	851e                	c.mv	a0,t2
    27f2:	6145                	c.addi16sp	sp,48
    27f4:	7c40106f          	j	3fb8 <riscv_convolve_1_x_n_s8>
    27f8:	00c7a283          	lw	t0,12(a5)
    27fc:	00c6ab03          	lw	s6,12(a3)
    2800:	fa5b14e3          	bne	s6,t0,27a8 <riscv_convolve_wrapper_s8+0xa8>
    2804:	0085a283          	lw	t0,8(a1)
    2808:	01529663          	bne	t0,s5,2814 <riscv_convolve_wrapper_s8+0x114>
    280c:	00c5aa83          	lw	s5,12(a1)
    2810:	025a8863          	beq	s5,t0,2840 <riscv_convolve_wrapper_s8+0x140>
    2814:	8622                	c.mv	a2,s0
    2816:	5422                	c.lwsp	s0,40(sp)
    2818:	dc52                	c.swsp	s4,56(sp)
    281a:	da4e                	c.swsp	s3,52(sp)
    281c:	d84a                	c.swsp	s2,48(sp)
    281e:	50b2                	c.lwsp	ra,44(sp)
    2820:	5902                	c.lwsp	s2,32(sp)
    2822:	49f2                	c.lwsp	s3,28(sp)
    2824:	4a62                	c.lwsp	s4,24(sp)
    2826:	4ad2                	c.lwsp	s5,20(sp)
    2828:	4b42                	c.lwsp	s6,16(sp)
    282a:	8726                	c.mv	a4,s1
    282c:	5492                	c.lwsp	s1,36(sp)
    282e:	88fe                	c.mv	a7,t6
    2830:	887a                	c.mv	a6,t5
    2832:	87f6                	c.mv	a5,t4
    2834:	86f2                	c.mv	a3,t3
    2836:	859a                	c.mv	a1,t1
    2838:	851e                	c.mv	a0,t2
    283a:	6145                	c.addi16sp	sp,48
    283c:	5800106f          	j	3dbc <riscv_convolve_1x1_s8>
    2840:	5422                	c.lwsp	s0,40(sp)
    2842:	50b2                	c.lwsp	ra,44(sp)
    2844:	5492                	c.lwsp	s1,36(sp)
    2846:	5902                	c.lwsp	s2,32(sp)
    2848:	49f2                	c.lwsp	s3,28(sp)
    284a:	4a62                	c.lwsp	s4,24(sp)
    284c:	4ad2                	c.lwsp	s5,20(sp)
    284e:	4b42                	c.lwsp	s6,16(sp)
    2850:	6145                	c.addi16sp	sp,48
    2852:	a009                	c.j	2854 <riscv_convolve_1x1_s8_fast>

00002854 <riscv_convolve_1x1_s8_fast>:
    2854:	7171                	c.addi16sp	sp,-176
    2856:	d326                	c.swsp	s1,164(sp)
    2858:	84ae                	c.mv	s1,a1
    285a:	498c                	c.lw	a1,16(a1)
    285c:	d706                	c.swsp	ra,172(sp)
    285e:	d522                	c.swsp	s0,168(sp)
    2860:	d14a                	c.swsp	s2,160(sp)
    2862:	cf4e                	c.swsp	s3,156(sp)
    2864:	cd52                	c.swsp	s4,152(sp)
    2866:	cb56                	c.swsp	s5,148(sp)
    2868:	c95a                	c.swsp	s6,144(sp)
    286a:	c75e                	c.swsp	s7,140(sp)
    286c:	c562                	c.swsp	s8,136(sp)
    286e:	c366                	c.swsp	s9,132(sp)
    2870:	c16a                	c.swsp	s10,128(sp)
    2872:	deee                	c.swsp	s11,124(sp)
    2874:	dc42                	c.swsp	a6,56(sp)
    2876:	30059b63          	bnez	a1,2b8c <riscv_convolve_1x1_s8_fast+0x338>
    287a:	0144aa83          	lw	s5,20(s1)
    287e:	300a9763          	bnez	s5,2b8c <riscv_convolve_1x1_s8_fast+0x338>
    2882:	8d3a                	c.mv	s10,a4
    2884:	4498                	c.lw	a4,8(s1)
    2886:	87b6                	c.mv	a5,a3
    2888:	4685                	c.li	a3,1
    288a:	30d71163          	bne	a4,a3,2b8c <riscv_convolve_1x1_s8_fast+0x338>
    288e:	44d4                	c.lw	a3,12(s1)
    2890:	2ee69e63          	bne	a3,a4,2b8c <riscv_convolve_1x1_s8_fast+0x338>
    2894:	575a                	c.lwsp	a4,180(sp)
    2896:	4114                	c.lw	a3,0(a0)
    2898:	00c72883          	lw	a7,12(a4) # 9f00c <__global_pointer$+0x1e80c>
    289c:	8b32                	c.mv	s6,a2
    289e:	47c0                	c.lw	s0,12(a5)
    28a0:	4798                	c.lw	a4,8(a5)
    28a2:	43d0                	c.lw	a2,4(a5)
    28a4:	0007a803          	lw	a6,0(a5)
    28a8:	8c36                	c.mv	s8,a3
    28aa:	2a068163          	beqz	a3,2b4c <riscv_convolve_1x1_s8_fast+0x2f8>
    28ae:	028706b3          	mul	a3,a4,s0
    28b2:	c0b6                	c.swsp	a3,64(sp)
    28b4:	56da                	c.lwsp	a3,180(sp)
    28b6:	42cc                	c.lw	a1,4(a3)
    28b8:	0086a903          	lw	s2,8(a3)
    28bc:	11005063          	blez	a6,29bc <riscv_convolve_1x1_s8_fast+0x168>
    28c0:	02b906b3          	mul	a3,s2,a1
    28c4:	d4d6                	c.swsp	s5,104(sp)
    28c6:	00141a13          	slli	s4,s0,0x1
    28ca:	8ac6                	c.mv	s5,a7
    28cc:	4989                	c.li	s3,2
    28ce:	88ea                	c.mv	a7,s10
    28d0:	8d26                	c.mv	s10,s1
    28d2:	84da                	c.mv	s1,s6
    28d4:	c8b6                	c.swsp	a3,80(sp)
    28d6:	c282                	c.swsp	zero,68(sp)
    28d8:	cac2                	c.swsp	a6,84(sp)
    28da:	de2e                	c.swsp	a1,60(sp)
    28dc:	ccaa                	c.swsp	a0,88(sp)
    28de:	cebe                	c.swsp	a5,92(sp)
    28e0:	57f2                	c.lwsp	a5,60(sp)
    28e2:	06f05963          	blez	a5,2954 <riscv_convolve_1x1_s8_fast+0x100>
    28e6:	556a                	c.lwsp	a0,184(sp)
    28e8:	010a9793          	slli	a5,s5,0x10
    28ec:	4b01                	c.li	s6,0
    28ee:	83c1                	c.srli	a5,0x10
    28f0:	c4d6                	c.swsp	s5,72(sp)
    28f2:	8cda                	c.mv	s9,s6
    28f4:	8aaa                	c.mv	s5,a0
    28f6:	8be2                	c.mv	s7,s8
    28f8:	d802                	c.swsp	zero,48(sp)
    28fa:	d446                	c.swsp	a7,40(sp)
    28fc:	da3e                	c.swsp	a5,52(sp)
    28fe:	c6c6                	c.swsp	a7,76(sp)
    2900:	5da2                	c.lwsp	s11,40(sp)
    2902:	4b01                	c.li	s6,0
    2904:	03205263          	blez	s2,2928 <riscv_convolve_1x1_s8_fast+0xd4>
    2908:	000d1683          	lh	a3,0(s10)
    290c:	85de                	c.mv	a1,s7
    290e:	856e                	c.mv	a0,s11
    2910:	8622                	c.mv	a2,s0
    2912:	0c85                	c.addi	s9,1
    2914:	014b8bb3          	add	s7,s7,s4
    2918:	438020ef          	jal	ra,4d50 <riscv_s8_to_s16_unordered_with_offset>
    291c:	073c8263          	beq	s9,s3,2980 <riscv_convolve_1x1_s8_fast+0x12c>
    2920:	0b05                	c.addi	s6,1
    2922:	9da2                	c.add	s11,s0
    2924:	ff6912e3          	bne	s2,s6,2908 <riscv_convolve_1x1_s8_fast+0xb4>
    2928:	080a8863          	beqz	s5,29b8 <riscv_convolve_1x1_s8_fast+0x164>
    292c:	5722                	c.lwsp	a4,40(sp)
    292e:	4686                	c.lwsp	a3,64(sp)
    2930:	57c2                	c.lwsp	a5,48(sp)
    2932:	9736                	c.add	a4,a3
    2934:	0785                	c.addi	a5,1
    2936:	d43a                	c.swsp	a4,40(sp)
    2938:	5772                	c.lwsp	a4,60(sp)
    293a:	d83e                	c.swsp	a5,48(sp)
    293c:	fcf712e3          	bne	a4,a5,2900 <riscv_convolve_1x1_s8_fast+0xac>
    2940:	8556                	c.mv	a0,s5
    2942:	48b6                	c.lwsp	a7,76(sp)
    2944:	04812a83          	lw	s5,72(sp)
    2948:	080c9a63          	bnez	s9,29dc <riscv_convolve_1x1_s8_fast+0x188>
    294c:	47f6                	c.lwsp	a5,92(sp)
    294e:	4798                	c.lw	a4,8(a5)
    2950:	0047a603          	lw	a2,4(a5)
    2954:	57ea                	c.lwsp	a5,184(sp)
    2956:	46c6                	c.lwsp	a3,80(sp)
    2958:	02c705b3          	mul	a1,a4,a2
    295c:	c55697ff          	maddr32	a5,a3,s5
    2960:	46d6                	c.lwsp	a3,84(sp)
    2962:	dd3e                	c.swsp	a5,184(sp)
    2964:	4796                	c.lwsp	a5,68(sp)
    2966:	c48598ff          	maddr32	a7,a1,s0
    296a:	0785                	c.addi	a5,1
    296c:	c2be                	c.swsp	a5,68(sp)
    296e:	22f68163          	beq	a3,a5,2b90 <riscv_convolve_1x1_s8_fast+0x33c>
    2972:	57da                	c.lwsp	a5,180(sp)
    2974:	00c7aa83          	lw	s5,12(a5)
    2978:	47e6                	c.lwsp	a5,88(sp)
    297a:	439c                	c.lw	a5,0(a5)
    297c:	8c3e                	c.mv	s8,a5
    297e:	b78d                	c.j	28e0 <riscv_convolve_1x1_s8_fast+0x8c>
    2980:	024d1883          	lh	a7,36(s10)
    2984:	020d1803          	lh	a6,32(s10)
    2988:	004d2783          	lw	a5,4(s10)
    298c:	4098                	c.lw	a4,0(s1)
    298e:	40d4                	c.lw	a3,4(s1)
    2990:	534a                	c.lwsp	t1,176(sp)
    2992:	5652                	c.lwsp	a2,52(sp)
    2994:	5562                	c.lwsp	a0,56(sp)
    2996:	85e2                	c.mv	a1,s8
    2998:	0b05                	c.addi	s6,1
    299a:	c656                	c.swsp	s5,12(sp)
    299c:	c41a                	c.swsp	t1,8(sp)
    299e:	c222                	c.swsp	s0,4(sp)
    29a0:	c022                	c.swsp	s0,0(sp)
    29a2:	9da2                	c.add	s11,s0
    29a4:	169000ef          	jal	ra,330c <riscv_nn_mat_mult_kernel_s8_s16>
    29a8:	8be2                	c.mv	s7,s8
    29aa:	8aaa                	c.mv	s5,a0
    29ac:	00000c93          	li	s9,0
    29b0:	f5691ce3          	bne	s2,s6,2908 <riscv_convolve_1x1_s8_fast+0xb4>
    29b4:	f60a9ce3          	bnez	s5,292c <riscv_convolve_1x1_s8_fast+0xd8>
    29b8:	ffe00a93          	li	s5,-2
    29bc:	50ba                	c.lwsp	ra,172(sp)
    29be:	542a                	c.lwsp	s0,168(sp)
    29c0:	549a                	c.lwsp	s1,164(sp)
    29c2:	590a                	c.lwsp	s2,160(sp)
    29c4:	49fa                	c.lwsp	s3,156(sp)
    29c6:	4a6a                	c.lwsp	s4,152(sp)
    29c8:	4b4a                	c.lwsp	s6,144(sp)
    29ca:	4bba                	c.lwsp	s7,140(sp)
    29cc:	4c2a                	c.lwsp	s8,136(sp)
    29ce:	4c9a                	c.lwsp	s9,132(sp)
    29d0:	4d0a                	c.lwsp	s10,128(sp)
    29d2:	5df6                	c.lwsp	s11,124(sp)
    29d4:	8556                	c.mv	a0,s5
    29d6:	4ada                	c.lwsp	s5,148(sp)
    29d8:	614d                	c.addi16sp	sp,176
    29da:	8082                	c.jr	ra
    29dc:	f75058e3          	blez	s5,294c <riscv_convolve_1x1_s8_fast+0xf8>
    29e0:	40245713          	srai	a4,s0,0x2
    29e4:	01071b93          	slli	s7,a4,0x10
    29e8:	010bdb93          	srli	s7,s7,0x10
    29ec:	fffb8713          	addi	a4,s7,-1
    29f0:	0742                	c.slli	a4,0x10
    29f2:	00347f93          	andi	t6,s0,3
    29f6:	8341                	c.srli	a4,0x10
    29f8:	0705                	c.addi	a4,1
    29fa:	ffff8593          	addi	a1,t6,-1
    29fe:	01059793          	slli	a5,a1,0x10
    2a02:	00371613          	slli	a2,a4,0x3
    2a06:	83c1                	c.srli	a5,0x10
    2a08:	9662                	c.add	a2,s8
    2a0a:	00271593          	slli	a1,a4,0x2
    2a0e:	da22                	c.swsp	s0,52(sp)
    2a10:	5862                	c.lwsp	a6,56(sp)
    2a12:	8462                	c.mv	s0,s8
    2a14:	534a                	c.lwsp	t1,176(sp)
    2a16:	5c06                	c.lwsp	s8,96(sp)
    2a18:	5c96                	c.lwsp	s9,100(sp)
    2a1a:	01550f33          	add	t5,a0,s5
    2a1e:	d852                	c.swsp	s4,48(sp)
    2a20:	c4d6                	c.swsp	s5,72(sp)
    2a22:	c6ca                	c.swsp	s2,76(sp)
    2a24:	4281                	c.li	t0,0
    2a26:	00178d93          	addi	s11,a5,1
    2a2a:	4b09                	c.li	s6,2
    2a2c:	4381                	c.li	t2,0
    2a2e:	40000e37          	lui	t3,0x40000
    2a32:	4e81                	c.li	t4,0
    2a34:	4685                	c.li	a3,1
    2a36:	8abe                	c.mv	s5,a5
    2a38:	892e                	c.mv	s2,a1
    2a3a:	8a32                	c.mv	s4,a2
    2a3c:	07112623          	sw	a7,108(sp)
    2a40:	4701                	c.li	a4,0
    2a42:	00030563          	beqz	t1,2a4c <riscv_convolve_1x1_s8_fast+0x1f8>
    2a46:	005307b3          	add	a5,t1,t0
    2a4a:	4398                	c.lw	a4,0(a5)
    2a4c:	0e0b8c63          	beqz	s7,2b44 <riscv_convolve_1x1_s8_fast+0x2f0>
    2a50:	012808b3          	add	a7,a6,s2
    2a54:	8622                	c.mv	a2,s0
    2a56:	d472                	c.swsp	t3,40(sp)
    2a58:	03d12623          	sw	t4,44(sp)
    2a5c:	00082783          	lw	a5,0(a6)
    2a60:	8c3e                	c.mv	s8,a5
    2a62:	8cbe                	c.mv	s9,a5
    2a64:	0811                	c.addi	a6,4
    2a66:	de8c05ff          	wexti	a1,s8,8
    2a6a:	ac9585ff          	sunpkd820	a1,a1
    2a6e:	ac9787ff          	sunpkd820	a5,a5
    2a72:	00062e83          	lw	t4,0(a2)
    2a76:	49d7977f          	kmada	a4,a5,t4
    2a7a:	00460793          	addi	a5,a2,4
    2a7e:	439c                	c.lw	a5,0(a5)
    2a80:	0621                	c.addi	a2,8
    2a82:	48f5977f          	kmada	a4,a1,a5
    2a86:	fd181be3          	bne	a6,a7,2a5c <riscv_convolve_1x1_s8_fast+0x208>
    2a8a:	5e22                	c.lwsp	t3,40(sp)
    2a8c:	5eb2                	c.lwsp	t4,44(sp)
    2a8e:	87d2                	c.mv	a5,s4
    2a90:	01100833          	add	a6,zero,a7
    2a94:	020f8a63          	beqz	t6,2ac8 <riscv_convolve_1x1_s8_fast+0x274>
    2a98:	00079583          	lh	a1,0(a5)
    2a9c:	00088603          	lb	a2,0(a7)
    2aa0:	c4c5977f          	maddr32	a4,a1,a2
    2aa4:	020a8063          	beqz	s5,2ac4 <riscv_convolve_1x1_s8_fast+0x270>
    2aa8:	00279583          	lh	a1,2(a5)
    2aac:	00188603          	lb	a2,1(a7)
    2ab0:	c4c5977f          	maddr32	a4,a1,a2
    2ab4:	016f8863          	beq	t6,s6,2ac4 <riscv_convolve_1x1_s8_fast+0x270>
    2ab8:	00288603          	lb	a2,2(a7)
    2abc:	00479783          	lh	a5,4(a5)
    2ac0:	c4f6177f          	maddr32	a4,a2,a5
    2ac4:	01b88833          	add	a6,a7,s11
    2ac8:	40dc                	c.lw	a5,4(s1)
    2aca:	408c                	c.lw	a1,0(s1)
    2acc:	9796                	c.add	a5,t0
    2ace:	4390                	c.lw	a2,0(a5)
    2ad0:	005587b3          	add	a5,a1,t0
    2ad4:	438c                	c.lw	a1,0(a5)
    2ad6:	f27607ff          	maxw	a5,a2,t2
    2ada:	00f718b3          	sll	a7,a4,a5
    2ade:	8772                	c.mv	a4,t3
    2ae0:	87f6                	c.mv	a5,t4
    2ae2:	84b8977f          	smar64	a4,a7,a1
    2ae6:	40c00633          	neg	a2,a2
    2aea:	f276067f          	maxw	a2,a2,t2
    2aee:	00c695b3          	sll	a1,a3,a2
    2af2:	dff7077f          	wexti	a4,a4,31
    2af6:	fff58793          	addi	a5,a1,-1
    2afa:	4017d593          	srai	a1,a5,0x1
    2afe:	00072893          	slti	a7,a4,0
    2b02:	8ff9                	c.and	a5,a4
    2b04:	95c6                	c.add	a1,a7
    2b06:	00f5a7b3          	slt	a5,a1,a5
    2b0a:	40c75733          	sra	a4,a4,a2
    2b0e:	973e                	c.add	a4,a5
    2b10:	004d2783          	lw	a5,4(s10)
    2b14:	020d2603          	lw	a2,32(s10)
    2b18:	024d2583          	lw	a1,36(s10)
    2b1c:	97ba                	c.add	a5,a4
    2b1e:	f2c787ff          	maxw	a5,a5,a2
    2b22:	0505                	c.addi	a0,1
    2b24:	f0b787ff          	minw	a5,a5,a1
    2b28:	fef50fa3          	sb	a5,-1(a0) # 7dfff <BIN_SIZE+0x74069>
    2b2c:	0291                	c.addi	t0,4
    2b2e:	f1e519e3          	bne	a0,t5,2a40 <riscv_convolve_1x1_s8_fast+0x1ec>
    2b32:	5a42                	c.lwsp	s4,48(sp)
    2b34:	5452                	c.lwsp	s0,52(sp)
    2b36:	4aa6                	c.lwsp	s5,72(sp)
    2b38:	4936                	c.lwsp	s2,76(sp)
    2b3a:	58b6                	c.lwsp	a7,108(sp)
    2b3c:	d0e2                	c.swsp	s8,96(sp)
    2b3e:	d2e6                	c.swsp	s9,100(sp)
    2b40:	e0dff06f          	j	294c <riscv_convolve_1x1_s8_fast+0xf8>
    2b44:	87a2                	c.mv	a5,s0
    2b46:	88c2                	c.mv	a7,a6
    2b48:	f49ff06f          	j	2a90 <riscv_convolve_1x1_s8_fast+0x23c>
    2b4c:	02c70733          	mul	a4,a4,a2
    2b50:	0244af03          	lw	t5,36(s1)
    2b54:	0204ae83          	lw	t4,32(s1)
    2b58:	03070833          	mul	a6,a4,a6
    2b5c:	0044ae03          	lw	t3,4(s1)
    2b60:	0004a303          	lw	t1,0(s1)
    2b64:	004b2783          	lw	a5,4(s6) # ffffc004 <_DATA_LMA_START+0xdfff24fc>
    2b68:	000b2703          	lw	a4,0(s6)
    2b6c:	56ea                	c.lwsp	a3,184(sp)
    2b6e:	564a                	c.lwsp	a2,176(sp)
    2b70:	55e2                	c.lwsp	a1,56(sp)
    2b72:	856a                	c.mv	a0,s10
    2b74:	cc22                	c.swsp	s0,24(sp)
    2b76:	ca46                	c.swsp	a7,20(sp)
    2b78:	c87a                	c.swsp	t5,16(sp)
    2b7a:	c676                	c.swsp	t4,12(sp)
    2b7c:	c472                	c.swsp	t3,8(sp)
    2b7e:	c21a                	c.swsp	t1,4(sp)
    2b80:	00812023          	sw	s0,0(sp)
    2b84:	488010ef          	jal	ra,400c <riscv_nn_mat_mult_nt_t_s8>
    2b88:	e35ff06f          	j	29bc <riscv_convolve_1x1_s8_fast+0x168>
    2b8c:	5afd                	c.li	s5,-1
    2b8e:	b53d                	c.j	29bc <riscv_convolve_1x1_s8_fast+0x168>
    2b90:	5aa6                	c.lwsp	s5,104(sp)
    2b92:	b52d                	c.j	29bc <riscv_convolve_1x1_s8_fast+0x168>

00002b94 <riscv_convolve_s8>:
    2b94:	4108                	c.lw	a0,0(a0)
    2b96:	7125                	c.addi16sp	sp,-416
    2b98:	18812c23          	sw	s0,408(sp)
    2b9c:	19512223          	sw	s5,388(sp)
    2ba0:	842a                	c.mv	s0,a0
    2ba2:	d12a                	c.swsp	a0,160(sp)
    2ba4:	18112e23          	sw	ra,412(sp)
    2ba8:	18912a23          	sw	s1,404(sp)
    2bac:	19212823          	sw	s2,400(sp)
    2bb0:	19312623          	sw	s3,396(sp)
    2bb4:	19412423          	sw	s4,392(sp)
    2bb8:	19612023          	sw	s6,384(sp)
    2bbc:	17712e23          	sw	s7,380(sp)
    2bc0:	17812c23          	sw	s8,376(sp)
    2bc4:	17912a23          	sw	s9,372(sp)
    2bc8:	17a12823          	sw	s10,368(sp)
    2bcc:	17b12623          	sw	s11,364(sp)
    2bd0:	d2ba                	c.swsp	a4,100(sp)
    2bd2:	1a412503          	lw	a0,420(sp)
    2bd6:	1a812883          	lw	a7,424(sp)
    2bda:	1ac12a83          	lw	s5,428(sp)
    2bde:	72040563          	beqz	s0,3308 <riscv_convolve_s8+0x774>
    2be2:	00c6ae03          	lw	t3,12(a3)
    2be6:	00c7a303          	lw	t1,12(a5)
    2bea:	010e1e93          	slli	t4,t3,0x10
    2bee:	01031713          	slli	a4,t1,0x10
    2bf2:	010ede93          	srli	t4,t4,0x10
    2bf6:	8341                	c.srli	a4,0x10
    2bf8:	02eed433          	divu	s0,t4,a4
    2bfc:	6741                	c.lui	a4,0x10
    2bfe:	177d                	c.addi	a4,-1
    2c00:	00ee7eb3          	and	t4,t3,a4
    2c04:	0087ae03          	lw	t3,8(a5)
    2c08:	43dc                	c.lw	a5,4(a5)
    2c0a:	00ee74b3          	and	s1,t3,a4
    2c0e:	8ff9                	c.and	a5,a4
    2c10:	d63e                	c.swsp	a5,44(sp)
    2c12:	02f487b3          	mul	a5,s1,a5
    2c16:	00e37bb3          	and	s7,t1,a4
    2c1a:	89c2                	c.mv	s3,a6
    2c1c:	037787b3          	mul	a5,a5,s7
    2c20:	00c8a803          	lw	a6,12(a7)
    2c24:	0006ae03          	lw	t3,0(a3)
    2c28:	dfc2                	c.swsp	a6,252(sp)
    2c2a:	cebe                	c.swsp	a5,92(sp)
    2c2c:	00e87833          	and	a6,a6,a4
    2c30:	469c                	c.lw	a5,8(a3)
    2c32:	42d8                	c.lw	a4,4(a3)
    2c34:	4dd4                	c.lw	a3,28(a1)
    2c36:	0088af03          	lw	t5,8(a7)
    2c3a:	d836                	c.swsp	a3,48(sp)
    2c3c:	41d4                	c.lw	a3,4(a1)
    2c3e:	0048a303          	lw	t1,4(a7)
    2c42:	c3b6                	c.swsp	a3,196(sp)
    2c44:	5194                	c.lw	a3,32(a1)
    2c46:	00062903          	lw	s2,0(a2)
    2c4a:	10d12223          	sw	a3,260(sp)
    2c4e:	51d4                	c.lw	a3,36(a1)
    2c50:	0105af83          	lw	t6,16(a1)
    2c54:	d1b6                	c.swsp	a3,224(sp)
    2c56:	4194                	c.lw	a3,0(a1)
    2c58:	0145a883          	lw	a7,20(a1)
    2c5c:	d3b6                	c.swsp	a3,228(sp)
    2c5e:	0085a383          	lw	t2,8(a1)
    2c62:	00c5a283          	lw	t0,12(a1)
    2c66:	0185ac03          	lw	s8,24(a1)
    2c6a:	dd22                	c.swsp	s0,184(sp)
    2c6c:	d4f6                	c.swsp	t4,104(sp)
    2c6e:	cbc2                	c.swsp	a6,212(sp)
    2c70:	424c                	c.lw	a1,4(a2)
    2c72:	02884633          	div	a2,a6,s0
    2c76:	028ee6b3          	rem	a3,t4,s0
    2c7a:	cfb2                	c.swsp	a2,220(sp)
    2c7c:	68069663          	bnez	a3,3308 <riscv_convolve_s8+0x774>
    2c80:	02886433          	rem	s0,a6,s0
    2c84:	68041263          	bnez	s0,3308 <riscv_convolve_s8+0x774>
    2c88:	66050c63          	beqz	a0,3300 <riscv_convolve_s8+0x76c>
    2c8c:	4150                	c.lw	a2,4(a0)
    2c8e:	4514                	c.lw	a3,8(a0)
    2c90:	1679                	c.addi	a2,-2
    2c92:	16f9                	c.addi	a3,-2
    2c94:	00163613          	seqz	a2,a2
    2c98:	0016b693          	seqz	a3,a3
    2c9c:	c8b2                	c.swsp	a2,80(sp)
    2c9e:	d0b6                	c.swsp	a3,96(sp)
    2ca0:	66c1                	c.lui	a3,0x10
    2ca2:	16fd                	c.addi	a3,-1
    2ca4:	5606                	c.lwsp	a2,96(sp)
    2ca6:	00d7fa33          	and	s4,a5,a3
    2caa:	40ca5633          	sra	a2,s4,a2
    2cae:	47f6                	c.lwsp	a5,92(sp)
    2cb0:	8f75                	c.and	a4,a3
    2cb2:	d332                	c.swsp	a2,164(sp)
    2cb4:	4646                	c.lwsp	a2,80(sp)
    2cb6:	de3a                	c.swsp	a4,60(sp)
    2cb8:	0037f693          	andi	a3,a5,3
    2cbc:	0af12a23          	sw	a5,180(sp)
    2cc0:	40c75733          	sra	a4,a4,a2
    2cc4:	62069a63          	bnez	a3,32f8 <riscv_convolve_s8+0x764>
    2cc8:	5fc05a63          	blez	t3,32bc <riscv_convolve_s8+0x728>
    2ccc:	67c1                	c.lui	a5,0x10
    2cce:	17fd                	c.addi	a5,-1
    2cd0:	4b76                	c.lwsp	s6,92(sp)
    2cd2:	00f8f633          	and	a2,a7,a5
    2cd6:	02ca0533          	mul	a0,s4,a2
    2cda:	c332                	c.swsp	a2,132(sp)
    2cdc:	402b5613          	srai	a2,s6,0x2
    2ce0:	0642                	c.slli	a2,0x10
    2ce2:	8241                	c.srli	a2,0x10
    2ce4:	589a                	c.lwsp	a7,164(sp)
    2ce6:	12c12023          	sw	a2,288(sp)
    2cea:	167d                	c.addi	a2,-1
    2cec:	00ff7f33          	and	t5,t5,a5
    2cf0:	031708b3          	mul	a7,a4,a7
    2cf4:	00f37333          	and	t1,t1,a5
    2cf8:	40a00733          	neg	a4,a0
    2cfc:	00fff533          	and	a0,t6,a5
    2d00:	00f2ffb3          	and	t6,t0,a5
    2d04:	00f3f2b3          	and	t0,t2,a5
    2d08:	01061793          	slli	a5,a2,0x10
    2d0c:	03748cb3          	mul	s9,s1,s7
    2d10:	83c1                	c.srli	a5,0x10
    2d12:	d59a                	c.swsp	t1,232(sp)
    2d14:	d6fa                	c.swsp	t5,108(sp)
    2d16:	03e30333          	mul	t1,t1,t5
    2d1a:	40a70f33          	sub	t5,a4,a0
    2d1e:	00178713          	addi	a4,a5,1 # 10001 <BIN_SIZE+0x606b>
    2d22:	57b2                	c.lwsp	a5,44(sp)
    2d24:	43fe                	c.lwsp	t2,220(sp)
    2d26:	039787b3          	mul	a5,a5,s9
    2d2a:	5ea6                	c.lwsp	t4,104(sp)
    2d2c:	10a12a23          	sw	a0,276(sp)
    2d30:	c1be                	c.swsp	a5,192(sp)
    2d32:	027b07b3          	mul	a5,s6,t2
    2d36:	03da0833          	mul	a6,s4,t4
    2d3a:	03d88633          	mul	a2,a7,t4
    2d3e:	12f12223          	sw	a5,292(sp)
    2d42:	47de                	c.lwsp	a5,212(sp)
    2d44:	038e8b33          	mul	s6,t4,s8
    2d48:	02f30533          	mul	a0,t1,a5
    2d4c:	87c2                	c.mv	a5,a6
    2d4e:	030f8833          	mul	a6,t6,a6
    2d52:	531e                	c.lwsp	t1,228(sp)
    2d54:	03df0f33          	mul	t5,t5,t4
    2d58:	11012423          	sw	a6,264(sp)
    2d5c:	025e8833          	mul	a6,t4,t0
    2d60:	5e8a                	c.lwsp	t4,160(sp)
    2d62:	40600333          	neg	t1,t1
    2d66:	dec2                	c.swsp	a6,124(sp)
    2d68:	5842                	c.lwsp	a6,48(sp)
    2d6a:	fff68893          	addi	a7,a3,-1 # ffff <BIN_SIZE+0x6069>
    2d6e:	02f807b3          	mul	a5,a6,a5
    2d72:	01069d13          	slli	s10,a3,0x10
    2d76:	dc66                	c.swsp	s9,56(sp)
    2d78:	da3e                	c.swsp	a5,52(sp)
    2d7a:	57da                	c.lwsp	a5,180(sp)
    2d7c:	01831c93          	slli	s9,t1,0x18
    2d80:	00179813          	slli	a6,a5,0x1
    2d84:	00371793          	slli	a5,a4,0x3
    2d88:	97f6                	c.add	a5,t4
    2d8a:	070a                	c.slli	a4,0x2
    2d8c:	010d5d13          	srli	s10,s10,0x10
    2d90:	418cdc93          	srai	s9,s9,0x18
    2d94:	12e12423          	sw	a4,296(sp)
    2d98:	12f12623          	sw	a5,300(sp)
    2d9c:	4701                	c.li	a4,0
    2d9e:	01089793          	slli	a5,a7,0x10
    2da2:	00239693          	slli	a3,t2,0x2
    2da6:	83c1                	c.srli	a5,0x10
    2da8:	8de2                	c.mv	s11,s8
    2daa:	83ea                	c.mv	t2,s10
    2dac:	8c26                	c.mv	s8,s1
    2dae:	cf42                	c.swsp	a6,156(sp)
    2db0:	12b12c23          	sw	a1,312(sp)
    2db4:	9876                	c.add	a6,t4
    2db6:	85d6                	c.mv	a1,s5
    2db8:	84ba                	c.mv	s1,a4
    2dba:	8ada                	c.mv	s5,s6
    2dbc:	8d66                	c.mv	s10,s9
    2dbe:	8b32                	c.mv	s6,a2
    2dc0:	864e                	c.mv	a2,s3
    2dc2:	89d2                	c.mv	s3,s4
    2dc4:	11f12623          	sw	t6,268(sp)
    2dc8:	c116                	c.swsp	t0,128(sp)
    2dca:	df42                	c.swsp	a6,188(sp)
    2dcc:	10d12023          	sw	a3,256(sp)
    2dd0:	10f12823          	sw	a5,272(sp)
    2dd4:	11212c23          	sw	s2,280(sp)
    2dd8:	12812e23          	sw	s0,316(sp)
    2ddc:	57ea                	c.lwsp	a5,184(sp)
    2dde:	20078d63          	beqz	a5,2ff8 <riscv_convolve_s8+0x464>
    2de2:	13812683          	lw	a3,312(sp)
    2de6:	5796                	c.lwsp	a5,100(sp)
    2de8:	547a                	c.lwsp	s0,188(sp)
    2dea:	d936                	c.swsp	a3,176(sp)
    2dec:	11812683          	lw	a3,280(sp)
    2df0:	01e78733          	add	a4,a5,t5
    2df4:	4781                	c.li	a5,0
    2df6:	5e8a                	c.lwsp	t4,160(sp)
    2df8:	d736                	c.swsp	a3,172(sp)
    2dfa:	d9ba                	c.swsp	a4,240(sp)
    2dfc:	1a012683          	lw	a3,416(sp)
    2e00:	8722                	c.mv	a4,s0
    2e02:	10f12e23          	sw	a5,284(sp)
    2e06:	87d6                	c.mv	a5,s5
    2e08:	846e                	c.mv	s0,s11
    2e0a:	8aa6                	c.mv	s5,s1
    2e0c:	892e                	c.mv	s2,a1
    2e0e:	82b2                	c.mv	t0,a2
    2e10:	881e                	c.mv	a6,t2
    2e12:	8332                	c.mv	t1,a2
    2e14:	84be                	c.mv	s1,a5
    2e16:	8dba                	c.mv	s11,a4
    2e18:	d536                	c.swsp	a3,168(sp)
    2e1a:	ccf6                	c.swsp	t4,88(sp)
    2e1c:	15e12023          	sw	t5,320(sp)
    2e20:	14a12223          	sw	a0,324(sp)
    2e24:	15c12423          	sw	t3,328(sp)
    2e28:	57ae                	c.lwsp	a5,232(sp)
    2e2a:	854a                	c.mv	a0,s2
    2e2c:	48078463          	beqz	a5,32b4 <riscv_convolve_s8+0x720>
    2e30:	10411783          	lh	a5,260(sp)
    2e34:	574e                	c.lwsp	a4,240(sp)
    2e36:	4681                	c.li	a3,0
    2e38:	4601                	c.li	a2,0
    2e3a:	c682                	c.swsp	zero,76(sp)
    2e3c:	c9be                	c.swsp	a5,208(sp)
    2e3e:	15212623          	sw	s2,332(sp)
    2e42:	15512823          	sw	s5,336(sp)
    2e46:	15012a23          	sw	a6,340(sp)
    2e4a:	c796                	c.swsp	t0,204(sp)
    2e4c:	15612c23          	sw	s6,344(sp)
    2e50:	14612e23          	sw	t1,348(sp)
    2e54:	1ab12623          	sw	a1,428(sp)
    2e58:	03a12423          	sw	s10,40(sp)
    2e5c:	57b6                	c.lwsp	a5,108(sp)
    2e5e:	10078763          	beqz	a5,2f6c <riscv_convolve_s8+0x3d8>
    2e62:	47f6                	c.lwsp	a5,92(sp)
    2e64:	c4ba                	c.swsp	a4,72(sp)
    2e66:	40f007b3          	neg	a5,a5
    2e6a:	d8be                	c.swsp	a5,112(sp)
    2e6c:	0e411783          	lh	a5,228(sp)
    2e70:	ca82                	c.swsp	zero,84(sp)
    2e72:	cb2a                	c.swsp	a0,148(sp)
    2e74:	dabe                	c.swsp	a5,116(sp)
    2e76:	11412783          	lw	a5,276(sp)
    2e7a:	dcb2                	c.swsp	a2,120(sp)
    2e7c:	40f007b3          	neg	a5,a5
    2e80:	c0be                	c.swsp	a5,64(sp)
    2e82:	0e011783          	lh	a5,224(sp)
    2e86:	dbb6                	c.swsp	a3,244(sp)
    2e88:	ddba                	c.swsp	a4,248(sp)
    2e8a:	c5be                	c.swsp	a5,200(sp)
    2e8c:	0fc15783          	lhu	a5,252(sp)
    2e90:	d7be                	c.swsp	a5,236(sp)
    2e92:	0dc15783          	lhu	a5,220(sp)
    2e96:	cdbe                	c.swsp	a5,216(sp)
    2e98:	4746                	c.lwsp	a4,80(sp)
    2e9a:	4785                	c.li	a5,1
    2e9c:	1af70263          	beq	a4,a5,3040 <riscv_convolve_s8+0x4ac>
    2ea0:	5706                	c.lwsp	a4,96(sp)
    2ea2:	18f70f63          	beq	a4,a5,3040 <riscv_convolve_s8+0x4ac>
    2ea6:	57b2                	c.lwsp	a5,44(sp)
    2ea8:	cfa5                	c.beqz	a5,2f20 <riscv_convolve_s8+0x38c>
    2eaa:	57e6                	c.lwsp	a5,120(sp)
    2eac:	471a                	c.lwsp	a4,132(sp)
    2eae:	4d01                	c.li	s10,0
    2eb0:	40e78b33          	sub	s6,a5,a4
    2eb4:	876e                	c.mv	a4,s11
    2eb6:	47a6                	c.lwsp	a5,72(sp)
    2eb8:	8dea                	c.mv	s11,s10
    2eba:	8d3a                	c.mv	s10,a4
    2ebc:	040c0863          	beqz	s8,2f0c <riscv_convolve_s8+0x378>
    2ec0:	5772                	c.lwsp	a4,60(sp)
    2ec2:	14eb7563          	bgeu	s6,a4,300c <riscv_convolve_s8+0x478>
    2ec6:	4c81                	c.li	s9,0
    2ec8:	c2da                	c.swsp	s6,68(sp)
    2eca:	4906                	c.lwsp	s2,64(sp)
    2ecc:	8b66                	c.mv	s6,s9
    2ece:	8a3e                	c.mv	s4,a5
    2ed0:	8aea                	c.mv	s5,s10
    2ed2:	8cbe                	c.mv	s9,a5
    2ed4:	0140006f          	j	2ee8 <riscv_convolve_s8+0x354>
    2ed8:	0b05                	c.addi	s6,1
    2eda:	9ade                	c.add	s5,s7
    2edc:	9922                	c.add	s2,s0
    2ede:	9a26                	c.add	s4,s1
    2ee0:	373050ef          	jal	ra,8a52 <memset>
    2ee4:	036c0063          	beq	s8,s6,2f04 <riscv_convolve_s8+0x370>
    2ee8:	55a2                	c.lwsp	a1,40(sp)
    2eea:	865e                	c.mv	a2,s7
    2eec:	8556                	c.mv	a0,s5
    2eee:	ff3975e3          	bgeu	s2,s3,2ed8 <riscv_convolve_s8+0x344>
    2ef2:	85d2                	c.mv	a1,s4
    2ef4:	0b05                	c.addi	s6,1
    2ef6:	9ade                	c.add	s5,s7
    2ef8:	9922                	c.add	s2,s0
    2efa:	9a26                	c.add	s4,s1
    2efc:	25d050ef          	jal	ra,8958 <memcpy>
    2f00:	ff6c14e3          	bne	s8,s6,2ee8 <riscv_convolve_s8+0x354>
    2f04:	5762                	c.lwsp	a4,56(sp)
    2f06:	4b16                	c.lwsp	s6,68(sp)
    2f08:	87e6                	c.mv	a5,s9
    2f0a:	9d3a                	c.add	s10,a4
    2f0c:	5752                	c.lwsp	a4,52(sp)
    2f0e:	0d85                	c.addi	s11,1
    2f10:	97ba                	c.add	a5,a4
    2f12:	5742                	c.lwsp	a4,48(sp)
    2f14:	9b3a                	c.add	s6,a4
    2f16:	5732                	c.lwsp	a4,44(sp)
    2f18:	fbb712e3          	bne	a4,s11,2ebc <riscv_convolve_s8+0x328>
    2f1c:	01a00db3          	add	s11,zero,s10
    2f20:	57c6                	c.lwsp	a5,112(sp)
    2f22:	4966                	c.lwsp	s2,88(sp)
    2f24:	56d6                	c.lwsp	a3,116(sp)
    2f26:	4676                	c.lwsp	a2,92(sp)
    2f28:	00fd8533          	add	a0,s11,a5
    2f2c:	012005b3          	add	a1,zero,s2
    2f30:	621010ef          	jal	ra,4d50 <riscv_s8_to_s16_unordered_with_offset>
    2f34:	47b6                	c.lwsp	a5,76(sp)
    2f36:	0785                	c.addi	a5,1
    2f38:	873e                	c.mv	a4,a5
    2f3a:	c6be                	c.swsp	a5,76(sp)
    2f3c:	4789                	c.li	a5,2
    2f3e:	1cf70763          	beq	a4,a5,310c <riscv_convolve_s8+0x578>
    2f42:	47fa                	c.lwsp	a5,156(sp)
    2f44:	97ca                	c.add	a5,s2
    2f46:	ccbe                	c.swsp	a5,88(sp)
    2f48:	4726                	c.lwsp	a4,72(sp)
    2f4a:	56f6                	c.lwsp	a3,124(sp)
    2f4c:	47d6                	c.lwsp	a5,84(sp)
    2f4e:	9736                	c.add	a4,a3
    2f50:	c4ba                	c.swsp	a4,72(sp)
    2f52:	468a                	c.lwsp	a3,128(sp)
    2f54:	4706                	c.lwsp	a4,64(sp)
    2f56:	0785                	c.addi	a5,1
    2f58:	9736                	c.add	a4,a3
    2f5a:	c0ba                	c.swsp	a4,64(sp)
    2f5c:	5736                	c.lwsp	a4,108(sp)
    2f5e:	cabe                	c.swsp	a5,84(sp)
    2f60:	f2e79ce3          	bne	a5,a4,2e98 <riscv_convolve_s8+0x304>
    2f64:	455a                	c.lwsp	a0,148(sp)
    2f66:	5666                	c.lwsp	a2,120(sp)
    2f68:	56de                	c.lwsp	a3,244(sp)
    2f6a:	576e                	c.lwsp	a4,248(sp)
    2f6c:	10812783          	lw	a5,264(sp)
    2f70:	0685                	c.addi	a3,1
    2f72:	973e                	c.add	a4,a5
    2f74:	10c12783          	lw	a5,268(sp)
    2f78:	963e                	c.add	a2,a5
    2f7a:	57ae                	c.lwsp	a5,232(sp)
    2f7c:	eef690e3          	bne	a3,a5,2e5c <riscv_convolve_s8+0x2c8>
    2f80:	14c12903          	lw	s2,332(sp)
    2f84:	15012a83          	lw	s5,336(sp)
    2f88:	15412803          	lw	a6,340(sp)
    2f8c:	42be                	c.lwsp	t0,204(sp)
    2f8e:	15812b03          	lw	s6,344(sp)
    2f92:	15c12303          	lw	t1,348(sp)
    2f96:	1ac12583          	lw	a1,428(sp)
    2f9a:	5d22                	c.lwsp	s10,40(sp)
    2f9c:	30050e63          	beqz	a0,32b8 <riscv_convolve_s8+0x724>
    2fa0:	04c12783          	lw	a5,76(sp)
    2fa4:	1c079863          	bnez	a5,3174 <riscv_convolve_s8+0x5e0>
    2fa8:	11c12783          	lw	a5,284(sp)
    2fac:	56aa                	c.lwsp	a3,168(sp)
    2fae:	00178713          	addi	a4,a5,1
    2fb2:	12412783          	lw	a5,292(sp)
    2fb6:	10e12e23          	sw	a4,284(sp)
    2fba:	92be                	c.add	t0,a5
    2fbc:	10012783          	lw	a5,256(sp)
    2fc0:	96be                	c.add	a3,a5
    2fc2:	d536                	c.swsp	a3,168(sp)
    2fc4:	56ba                	c.lwsp	a3,172(sp)
    2fc6:	96be                	c.add	a3,a5
    2fc8:	d736                	c.swsp	a3,172(sp)
    2fca:	56ca                	c.lwsp	a3,176(sp)
    2fcc:	97b6                	c.add	a5,a3
    2fce:	d93e                	c.swsp	a5,176(sp)
    2fd0:	47fe                	c.lwsp	a5,220(sp)
    2fd2:	993e                	c.add	s2,a5
    2fd4:	57ce                	c.lwsp	a5,240(sp)
    2fd6:	97de                	c.add	a5,s7
    2fd8:	d9be                	c.swsp	a5,240(sp)
    2fda:	57ea                	c.lwsp	a5,184(sp)
    2fdc:	e4e796e3          	bne	a5,a4,2e28 <riscv_convolve_s8+0x294>
    2fe0:	87a6                	c.mv	a5,s1
    2fe2:	14012f03          	lw	t5,320(sp)
    2fe6:	14412503          	lw	a0,324(sp)
    2fea:	14812e03          	lw	t3,328(sp)
    2fee:	84d6                	c.mv	s1,s5
    2ff0:	8da2                	c.mv	s11,s0
    2ff2:	83c2                	c.mv	t2,a6
    2ff4:	861a                	c.mv	a2,t1
    2ff6:	8abe                	c.mv	s5,a5
    2ff8:	5796                	c.lwsp	a5,100(sp)
    2ffa:	0485                	c.addi	s1,1
    2ffc:	97da                	c.add	a5,s6
    2ffe:	d2be                	c.swsp	a5,100(sp)
    3000:	95aa                	c.add	a1,a0
    3002:	dc9e1de3          	bne	t3,s1,2ddc <riscv_convolve_s8+0x248>
    3006:	13c12403          	lw	s0,316(sp)
    300a:	ac4d                	c.j	32bc <riscv_convolve_s8+0x728>
    300c:	5922                	c.lwsp	s2,40(sp)
    300e:	4c81                	c.li	s9,0
    3010:	8aea                	c.mv	s5,s10
    3012:	8a3e                	c.mv	s4,a5
    3014:	8556                	c.mv	a0,s5
    3016:	0c85                	c.addi	s9,1
    3018:	865e                	c.mv	a2,s7
    301a:	85ca                	c.mv	a1,s2
    301c:	017a8ab3          	add	s5,s5,s7
    3020:	233050ef          	jal	ra,8a52 <memset>
    3024:	ff9c18e3          	bne	s8,s9,3014 <riscv_convolve_s8+0x480>
    3028:	5762                	c.lwsp	a4,56(sp)
    302a:	87d2                	c.mv	a5,s4
    302c:	9d3a                	c.add	s10,a4
    302e:	5752                	c.lwsp	a4,52(sp)
    3030:	0d85                	c.addi	s11,1
    3032:	97ba                	c.add	a5,a4
    3034:	5742                	c.lwsp	a4,48(sp)
    3036:	9b3a                	c.add	s6,a4
    3038:	5732                	c.lwsp	a4,44(sp)
    303a:	e9b711e3          	bne	a4,s11,2ebc <riscv_convolve_s8+0x328>
    303e:	bdf9                	c.j	2f1c <riscv_convolve_s8+0x388>
    3040:	460e                	c.lwsp	a2,192(sp)
    3042:	55a2                	c.lwsp	a1,40(sp)
    3044:	01b00533          	add	a0,zero,s11
    3048:	20b050ef          	jal	ra,8a52 <memset>
    304c:	5632                	c.lwsp	a2,44(sp)
    304e:	ec0609e3          	beqz	a2,2f20 <riscv_convolve_s8+0x38c>
    3052:	471a                	c.lwsp	a4,132(sp)
    3054:	57e6                	c.lwsp	a5,120(sp)
    3056:	8d62                	c.mv	s10,s8
    3058:	8f99                	c.sub	a5,a4
    305a:	4701                	c.li	a4,0
    305c:	8c22                	c.mv	s8,s0
    305e:	8cba                	c.mv	s9,a4
    3060:	844e                	c.mv	s0,s3
    3062:	55f2                	c.lwsp	a1,60(sp)
    3064:	59e2                	c.lwsp	s3,56(sp)
    3066:	5742                	c.lwsp	a4,48(sp)
    3068:	8abe                	c.mv	s5,a5
    306a:	cd26                	c.swsp	s1,152(sp)
    306c:	00bafa63          	bgeu	s5,a1,3080 <riscv_convolve_s8+0x4ec>
    3070:	001af793          	andi	a5,s5,1
    3074:	c395                	c.beqz	a5,3098 <riscv_convolve_s8+0x504>
    3076:	47c6                	c.lwsp	a5,80(sp)
    3078:	00100693          	li	a3,1
    307c:	00d79e63          	bne	a5,a3,3098 <riscv_convolve_s8+0x504>
    3080:	013d8db3          	add	s11,s11,s3
    3084:	0c85                	c.addi	s9,1
    3086:	9aba                	c.add	s5,a4
    3088:	ff9612e3          	bne	a2,s9,306c <riscv_convolve_s8+0x4d8>
    308c:	89a2                	c.mv	s3,s0
    308e:	44ea                	c.lwsp	s1,152(sp)
    3090:	8462                	c.mv	s0,s8
    3092:	8c6a                	c.mv	s8,s10
    3094:	e8dff06f          	j	2f20 <riscv_convolve_s8+0x38c>
    3098:	47c6                	c.lwsp	a5,80(sp)
    309a:	40fad333          	sra	t1,s5,a5
    309e:	fe0d03e3          	beqz	s10,3084 <riscv_convolve_s8+0x4f0>
    30a2:	579a                	c.lwsp	a5,164(sp)
    30a4:	4906                	c.lwsp	s2,64(sp)
    30a6:	02f304b3          	mul	s1,t1,a5
    30aa:	87d6                	c.mv	a5,s5
    30ac:	c2ce                	c.swsp	s3,68(sp)
    30ae:	8b26                	c.mv	s6,s1
    30b0:	5486                	c.lwsp	s1,96(sp)
    30b2:	89ea                	c.mv	s3,s10
    30b4:	8ade                	c.mv	s5,s7
    30b6:	4a01                	c.li	s4,0
    30b8:	8ba2                	c.mv	s7,s0
    30ba:	8d6e                	c.mv	s10,s11
    30bc:	8462                	c.mv	s0,s8
    30be:	8c3e                	c.mv	s8,a5
    30c0:	c53a                	c.swsp	a4,136(sp)
    30c2:	c732                	c.swsp	a2,140(sp)
    30c4:	08b12823          	sw	a1,144(sp)
    30c8:	0a05                	c.addi	s4,1
    30ca:	00197713          	andi	a4,s2,1
    30ce:	01797f63          	bgeu	s2,s7,30ec <riscv_convolve_s8+0x558>
    30d2:	5596                	c.lwsp	a1,100(sp)
    30d4:	57a6                	c.lwsp	a5,104(sp)
    30d6:	409956b3          	sra	a3,s2,s1
    30da:	96da                	c.add	a3,s6
    30dc:	c4f695ff          	maddr32	a1,a3,a5
    30e0:	856a                	c.mv	a0,s10
    30e2:	8656                	c.mv	a2,s5
    30e4:	c311                	c.beqz	a4,30e8 <riscv_convolve_s8+0x554>
    30e6:	e099                	c.bnez	s1,30ec <riscv_convolve_s8+0x558>
    30e8:	071050ef          	jal	ra,8958 <memcpy>
    30ec:	9d56                	c.add	s10,s5
    30ee:	9922                	c.add	s2,s0
    30f0:	fd499ce3          	bne	s3,s4,30c8 <riscv_convolve_s8+0x534>
    30f4:	87e2                	c.mv	a5,s8
    30f6:	8d4e                	c.mv	s10,s3
    30f8:	8c22                	c.mv	s8,s0
    30fa:	472a                	c.lwsp	a4,136(sp)
    30fc:	845e                	c.mv	s0,s7
    30fe:	4996                	c.lwsp	s3,68(sp)
    3100:	8bd6                	c.mv	s7,s5
    3102:	463a                	c.lwsp	a2,140(sp)
    3104:	45ca                	c.lwsp	a1,144(sp)
    3106:	8abe                	c.mv	s5,a5
    3108:	f79ff06f          	j	3080 <riscv_convolve_s8+0x4ec>
    310c:	57ea                	c.lwsp	a5,184(sp)
    310e:	4705                	c.li	a4,1
    3110:	48ae                	c.lwsp	a7,200(sp)
    3112:	484e                	c.lwsp	a6,208(sp)
    3114:	02e78a63          	beq	a5,a4,3148 <riscv_convolve_s8+0x5b4>
    3118:	435a                	c.lwsp	t1,148(sp)
    311a:	590a                	c.lwsp	s2,160(sp)
    311c:	c81a                	c.swsp	t1,16(sp)
    311e:	435e                	c.lwsp	t1,212(sp)
    3120:	479e                	c.lwsp	a5,196(sp)
    3122:	c61a                	c.swsp	t1,12(sp)
    3124:	532a                	c.lwsp	t1,168(sp)
    3126:	573a                	c.lwsp	a4,172(sp)
    3128:	c41a                	c.swsp	t1,8(sp)
    312a:	535a                	c.lwsp	t1,180(sp)
    312c:	56ca                	c.lwsp	a3,176(sp)
    312e:	c21a                	c.swsp	t1,4(sp)
    3130:	466e                	c.lwsp	a2,216(sp)
    3132:	4376                	c.lwsp	t1,92(sp)
    3134:	453e                	c.lwsp	a0,204(sp)
    3136:	85ca                	c.mv	a1,s2
    3138:	c01a                	c.swsp	t1,0(sp)
    313a:	c682                	c.swsp	zero,76(sp)
    313c:	79c000ef          	jal	ra,38d8 <riscv_nn_mat_mult_kernel_row_offset_s8_s16>
    3140:	5dfa                	c.lwsp	s11,188(sp)
    3142:	cb2a                	c.swsp	a0,148(sp)
    3144:	ccca                	c.swsp	s2,88(sp)
    3146:	b509                	c.j	2f48 <riscv_convolve_s8+0x3b4>
    3148:	435a                	c.lwsp	t1,148(sp)
    314a:	590a                	c.lwsp	s2,160(sp)
    314c:	c61a                	c.swsp	t1,12(sp)
    314e:	532a                	c.lwsp	t1,168(sp)
    3150:	479e                	c.lwsp	a5,196(sp)
    3152:	c41a                	c.swsp	t1,8(sp)
    3154:	535a                	c.lwsp	t1,180(sp)
    3156:	573a                	c.lwsp	a4,172(sp)
    3158:	c21a                	c.swsp	t1,4(sp)
    315a:	56ca                	c.lwsp	a3,176(sp)
    315c:	4376                	c.lwsp	t1,92(sp)
    315e:	563e                	c.lwsp	a2,236(sp)
    3160:	453e                	c.lwsp	a0,204(sp)
    3162:	85ca                	c.mv	a1,s2
    3164:	c01a                	c.swsp	t1,0(sp)
    3166:	c682                	c.swsp	zero,76(sp)
    3168:	1a4000ef          	jal	ra,330c <riscv_nn_mat_mult_kernel_s8_s16>
    316c:	5dfa                	c.lwsp	s11,188(sp)
    316e:	cb2a                	c.swsp	a0,148(sp)
    3170:	ccca                	c.swsp	s2,88(sp)
    3172:	bbd9                	c.j	2f48 <riscv_convolve_s8+0x3b4>
    3174:	47fe                	c.lwsp	a5,220(sp)
    3176:	12078763          	beqz	a5,32a4 <riscv_convolve_s8+0x710>
    317a:	11012783          	lw	a5,272(sp)
    317e:	8cce                	c.mv	s9,s3
    3180:	d44a                	c.swsp	s2,40(sp)
    3182:	13412983          	lw	s3,308(sp)
    3186:	13012903          	lw	s2,304(sp)
    318a:	8696                	c.mv	a3,t0
    318c:	4881                	c.li	a7,0
    318e:	00178e13          	addi	t3,a5,1
    3192:	4f89                	c.li	t6,2
    3194:	4e81                	c.li	t4,0
    3196:	4f05                	c.li	t5,1
    3198:	00800db3          	add	s11,zero,s0
    319c:	57aa                	c.lwsp	a5,168(sp)
    319e:	4601                	c.li	a2,0
    31a0:	c781                	c.beqz	a5,31a8 <riscv_convolve_s8+0x614>
    31a2:	97c6                	c.add	a5,a7
    31a4:	0007a603          	lw	a2,0(a5)
    31a8:	12012783          	lw	a5,288(sp)
    31ac:	10078063          	beqz	a5,32ac <riscv_convolve_s8+0x718>
    31b0:	12812783          	lw	a5,296(sp)
    31b4:	538a                	c.lwsp	t2,160(sp)
    31b6:	97b6                	c.add	a5,a3
    31b8:	1ab12623          	sw	a1,428(sp)
    31bc:	4298                	c.lw	a4,0(a3)
    31be:	893a                	c.mv	s2,a4
    31c0:	89ba                	c.mv	s3,a4
    31c2:	0691                	c.addi	a3,4
    31c4:	de89047f          	wexti	s0,s2,8
    31c8:	ac94047f          	sunpkd820	s0,s0
    31cc:	ac97077f          	sunpkd820	a4,a4
    31d0:	0003a583          	lw	a1,0(t2)
    31d4:	48b7167f          	kmada	a2,a4,a1
    31d8:	00438713          	addi	a4,t2,4
    31dc:	4318                	c.lw	a4,0(a4)
    31de:	03a1                	c.addi	t2,8
    31e0:	48e4167f          	kmada	a2,s0,a4
    31e4:	fcf69ce3          	bne	a3,a5,31bc <riscv_convolve_s8+0x628>
    31e8:	1ac12583          	lw	a1,428(sp)
    31ec:	12c12703          	lw	a4,300(sp)
    31f0:	86be                	c.mv	a3,a5
    31f2:	02080b63          	beqz	a6,3228 <riscv_convolve_s8+0x694>
    31f6:	00078683          	lb	a3,0(a5)
    31fa:	00071383          	lh	t2,0(a4) # 10000 <BIN_SIZE+0x606a>
    31fe:	c4d3967f          	maddr32	a2,t2,a3
    3202:	11012683          	lw	a3,272(sp)
    3206:	ce99                	c.beqz	a3,3224 <riscv_convolve_s8+0x690>
    3208:	00271383          	lh	t2,2(a4)
    320c:	00178683          	lb	a3,1(a5)
    3210:	c4d3967f          	maddr32	a2,t2,a3
    3214:	01f80863          	beq	a6,t6,3224 <riscv_convolve_s8+0x690>
    3218:	00278683          	lb	a3,2(a5)
    321c:	00471703          	lh	a4,4(a4)
    3220:	c4e6967f          	maddr32	a2,a3,a4
    3224:	01c786b3          	add	a3,a5,t3
    3228:	57ca                	c.lwsp	a5,176(sp)
    322a:	40000737          	lui	a4,0x40000
    322e:	97c6                	c.add	a5,a7
    3230:	0007a383          	lw	t2,0(a5)
    3234:	57ba                	c.lwsp	a5,172(sp)
    3236:	0505                	c.addi	a0,1
    3238:	97c6                	c.add	a5,a7
    323a:	4380                	c.lw	s0,0(a5)
    323c:	f3d387ff          	maxw	a5,t2,t4
    3240:	00f61633          	sll	a2,a2,a5
    3244:	4781                	c.li	a5,0
    3246:	8486177f          	smar64	a4,a2,s0
    324a:	40700633          	neg	a2,t2
    324e:	f3d6067f          	maxw	a2,a2,t4
    3252:	00cf13b3          	sll	t2,t5,a2
    3256:	dff7077f          	wexti	a4,a4,31
    325a:	fff38793          	addi	a5,t2,-1
    325e:	4017d393          	srai	t2,a5,0x1
    3262:	00072413          	slti	s0,a4,0
    3266:	8ff9                	c.and	a5,a4
    3268:	93a2                	c.add	t2,s0
    326a:	00f3a7b3          	slt	a5,t2,a5
    326e:	40c75733          	sra	a4,a4,a2
    3272:	973e                	c.add	a4,a5
    3274:	479e                	c.lwsp	a5,196(sp)
    3276:	0891                	c.addi	a7,4
    3278:	97ba                	c.add	a5,a4
    327a:	10412703          	lw	a4,260(sp)
    327e:	f2f707ff          	maxw	a5,a4,a5
    3282:	570e                	c.lwsp	a4,224(sp)
    3284:	f0f707ff          	minw	a5,a4,a5
    3288:	fef50fa3          	sb	a5,-1(a0)
    328c:	10012783          	lw	a5,256(sp)
    3290:	f11796e3          	bne	a5,a7,319c <riscv_convolve_s8+0x608>
    3294:	13212823          	sw	s2,304(sp)
    3298:	5922                	c.lwsp	s2,40(sp)
    329a:	13312a23          	sw	s3,308(sp)
    329e:	846e                	c.mv	s0,s11
    32a0:	019009b3          	add	s3,zero,s9
    32a4:	578a                	c.lwsp	a5,160(sp)
    32a6:	5dfa                	c.lwsp	s11,188(sp)
    32a8:	ccbe                	c.swsp	a5,88(sp)
    32aa:	b9fd                	c.j	2fa8 <riscv_convolve_s8+0x414>
    32ac:	570a                	c.lwsp	a4,160(sp)
    32ae:	87b6                	c.mv	a5,a3
    32b0:	f41ff06f          	j	31f0 <riscv_convolve_s8+0x65c>
    32b4:	ce091ae3          	bnez	s2,2fa8 <riscv_convolve_s8+0x414>
    32b8:	ffe00413          	li	s0,-2
    32bc:	19c12083          	lw	ra,412(sp)
    32c0:	8522                	c.mv	a0,s0
    32c2:	19812403          	lw	s0,408(sp)
    32c6:	19412483          	lw	s1,404(sp)
    32ca:	19012903          	lw	s2,400(sp)
    32ce:	18c12983          	lw	s3,396(sp)
    32d2:	18812a03          	lw	s4,392(sp)
    32d6:	18412a83          	lw	s5,388(sp)
    32da:	18012b03          	lw	s6,384(sp)
    32de:	17c12b83          	lw	s7,380(sp)
    32e2:	17812c03          	lw	s8,376(sp)
    32e6:	17412c83          	lw	s9,372(sp)
    32ea:	17012d03          	lw	s10,368(sp)
    32ee:	16c12d83          	lw	s11,364(sp)
    32f2:	611d                	c.addi16sp	sp,416
    32f4:	00008067          	ret
    32f8:	0791                	c.addi	a5,4
    32fa:	8f95                	c.sub	a5,a3
    32fc:	db3e                	c.swsp	a5,180(sp)
    32fe:	b2e9                	c.j	2cc8 <riscv_convolve_s8+0x134>
    3300:	d082                	c.swsp	zero,96(sp)
    3302:	c882                	c.swsp	zero,80(sp)
    3304:	99dff06f          	j	2ca0 <riscv_convolve_s8+0x10c>
    3308:	547d                	c.li	s0,-1
    330a:	bf4d                	c.j	32bc <riscv_convolve_s8+0x728>

0000330c <riscv_nn_mat_mult_kernel_s8_s16>:
    330c:	7119                	c.addi16sp	sp,-128
    330e:	dea2                	c.swsp	s0,124(sp)
    3310:	443a                	c.lwsp	s0,140(sp)
    3312:	82b2                	c.mv	t0,a2
    3314:	dca6                	c.swsp	s1,120(sp)
    3316:	daca                	c.swsp	s2,116(sp)
    3318:	00165493          	srli	s1,a2,0x1
    331c:	d0de                	c.swsp	s7,96(sp)
    331e:	cee2                	c.swsp	s8,92(sp)
    3320:	caea                	c.swsp	s10,84(sp)
    3322:	c8ee                	c.swsp	s11,80(sp)
    3324:	d8ce                	c.swsp	s3,112(sp)
    3326:	d6d2                	c.swsp	s4,108(sp)
    3328:	d4d6                	c.swsp	s5,104(sp)
    332a:	d2da                	c.swsp	s6,100(sp)
    332c:	cce6                	c.swsp	s9,88(sp)
    332e:	cc2e                	c.swsp	a1,24(sp)
    3330:	491a                	c.lwsp	s2,132(sp)
    3332:	462a                	c.lwsp	a2,136(sp)
    3334:	8fb6                	c.mv	t6,a3
    3336:	8bbe                	c.mv	s7,a5
    3338:	8d42                	c.mv	s10,a6
    333a:	8dc6                	c.mv	s11,a7
    333c:	00540c33          	add	s8,s0,t0
    3340:	48048c63          	beqz	s1,37d8 <riscv_nn_mat_mult_kernel_s8_s16+0x4cc>
    3344:	478a                	c.lwsp	a5,128(sp)
    3346:	882e                	c.mv	a6,a1
    3348:	4027d893          	srai	a7,a5,0x2
    334c:	00191793          	slli	a5,s2,0x1
    3350:	00f58f33          	add	t5,a1,a5
    3354:	00389693          	slli	a3,a7,0x3
    3358:	458a                	c.lwsp	a1,128(sp)
    335a:	d27a                	c.swsp	t5,36(sp)
    335c:	9f36                	c.add	t5,a3
    335e:	96c2                	c.add	a3,a6
    3360:	00149793          	slli	a5,s1,0x1
    3364:	d636                	c.swsp	a3,44(sp)
    3366:	00289693          	slli	a3,a7,0x2
    336a:	898d                	c.andi	a1,3
    336c:	00fc09b3          	add	s3,s8,a5
    3370:	d436                	c.swsp	a3,40(sp)
    3372:	8b3a                	c.mv	s6,a4
    3374:	86a2                	c.mv	a3,s0
    3376:	8a7e                	c.mv	s4,t6
    3378:	4c85                	c.li	s9,1
    337a:	4a81                	c.li	s5,0
    337c:	d046                	c.swsp	a7,32(sp)
    337e:	ce4e                	c.swsp	s3,28(sp)
    3380:	d87a                	c.swsp	t5,48(sp)
    3382:	da26                	c.swsp	s1,52(sp)
    3384:	c42e                	c.swsp	a1,8(sp)
    3386:	dc3e                	c.swsp	a5,56(sp)
    3388:	de16                	c.swsp	t0,60(sp)
    338a:	c0fe                	c.swsp	t6,64(sp)
    338c:	04e12223          	sw	a4,68(sp)
    3390:	478a                	c.lwsp	a5,128(sp)
    3392:	00f509b3          	add	s3,a0,a5
    3396:	42060563          	beqz	a2,37c0 <riscv_nn_mat_mult_kernel_s8_s16+0x4b4>
    339a:	5902                	c.lwsp	s2,32(sp)
    339c:	00062803          	lw	a6,0(a2)
    33a0:	424c                	c.lw	a1,4(a2)
    33a2:	0621                	c.addi	a2,8
    33a4:	42090463          	beqz	s2,37cc <riscv_nn_mat_mult_kernel_s8_s16+0x4c0>
    33a8:	5292                	c.lwsp	t0,36(sp)
    33aa:	4fe2                	c.lwsp	t6,24(sp)
    33ac:	ca6e                	c.swsp	s11,20(sp)
    33ae:	88ae                	c.mv	a7,a1
    33b0:	8dea                	c.mv	s11,s10
    33b2:	8f42                	c.mv	t5,a6
    33b4:	8d5e                	c.mv	s10,s7
    33b6:	84ce                	c.mv	s1,s3
    33b8:	842a                	c.mv	s0,a0
    33ba:	8baa                	c.mv	s7,a0
    33bc:	c636                	c.swsp	a3,12(sp)
    33be:	c862                	c.swsp	s8,16(sp)
    33c0:	08c12423          	sw	a2,136(sp)
    33c4:	000fa503          	lw	a0,0(t6)
    33c8:	0002a603          	lw	a2,0(t0)
    33cc:	4018                	c.lw	a4,0(s0)
    33ce:	833a                	c.mv	t1,a4
    33d0:	83ba                	c.mv	t2,a4
    33d2:	0411                	c.addi	s0,4
    33d4:	de830c7f          	wexti	s8,t1,8
    33d8:	ac9c0c7f          	sunpkd820	s8,s8
    33dc:	ac97077f          	sunpkd820	a4,a4
    33e0:	409c                	c.lw	a5,0(s1)
    33e2:	8e3e                	c.mv	t3,a5
    33e4:	8ebe                	c.mv	t4,a5
    33e6:	0491                	c.addi	s1,4
    33e8:	de8e06ff          	wexti	a3,t3,8
    33ec:	ac9686ff          	sunpkd820	a3,a3
    33f0:	ac9787ff          	sunpkd820	a5,a5
    33f4:	48a7187f          	kmada	a6,a4,a0
    33f8:	48c71f7f          	kmada	t5,a4,a2
    33fc:	48a795ff          	kmada	a1,a5,a0
    3400:	48c798ff          	kmada	a7,a5,a2
    3404:	004f8713          	addi	a4,t6,4
    3408:	4318                	c.lw	a4,0(a4)
    340a:	0fa1                	c.addi	t6,8
    340c:	00428793          	addi	a5,t0,4
    3410:	439c                	c.lw	a5,0(a5)
    3412:	02a1                	c.addi	t0,8
    3414:	48ec187f          	kmada	a6,s8,a4
    3418:	48fc1f7f          	kmada	t5,s8,a5
    341c:	48e695ff          	kmada	a1,a3,a4
    3420:	48f698ff          	kmada	a7,a3,a5
    3424:	197d                	c.addi	s2,-1
    3426:	f8091fe3          	bnez	s2,33c4 <riscv_nn_mat_mult_kernel_s8_s16+0xb8>
    342a:	57a2                	c.lwsp	a5,40(sp)
    342c:	855e                	c.mv	a0,s7
    342e:	99be                	c.add	s3,a5
    3430:	8bea                	c.mv	s7,s10
    3432:	953e                	c.add	a0,a5
    3434:	8d6e                	c.mv	s10,s11
    3436:	46b2                	c.lwsp	a3,12(sp)
    3438:	4c42                	c.lwsp	s8,16(sp)
    343a:	4dd2                	c.lwsp	s11,20(sp)
    343c:	462a                	c.lwsp	a2,136(sp)
    343e:	57c2                	c.lwsp	a5,48(sp)
    3440:	02c12703          	lw	a4,44(sp)
    3444:	4922                	c.lwsp	s2,8(sp)
    3446:	06090963          	beqz	s2,34b8 <riscv_nn_mat_mult_kernel_s8_s16+0x1ac>
    344a:	00050483          	lb	s1,0(a0)
    344e:	00071403          	lh	s0,0(a4) # 40000000 <_DATA_LMA_START+0x1fff64f8>
    3452:	00079f83          	lh	t6,0(a5)
    3456:	00098283          	lb	t0,0(s3)
    345a:	c494187f          	maddr32	a6,s0,s1
    345e:	c49f9f7f          	maddr32	t5,t6,s1
    3462:	c48295ff          	maddr32	a1,t0,s0
    3466:	c5f298ff          	maddr32	a7,t0,t6
    346a:	05990563          	beq	s2,s9,34b4 <riscv_nn_mat_mult_kernel_s8_s16+0x1a8>
    346e:	00271403          	lh	s0,2(a4)
    3472:	00150483          	lb	s1,1(a0)
    3476:	00198283          	lb	t0,1(s3)
    347a:	00279f83          	lh	t6,2(a5)
    347e:	c494187f          	maddr32	a6,s0,s1
    3482:	c48295ff          	maddr32	a1,t0,s0
    3486:	4409                	c.li	s0,2
    3488:	c49f9f7f          	maddr32	t5,t6,s1
    348c:	c5f298ff          	maddr32	a7,t0,t6
    3490:	02890263          	beq	s2,s0,34b4 <riscv_nn_mat_mult_kernel_s8_s16+0x1a8>
    3494:	00250f83          	lb	t6,2(a0)
    3498:	00471703          	lh	a4,4(a4)
    349c:	00479783          	lh	a5,4(a5)
    34a0:	00298283          	lb	t0,2(s3)
    34a4:	c4ef987f          	maddr32	a6,t6,a4
    34a8:	c4ff9f7f          	maddr32	t5,t6,a5
    34ac:	c45715ff          	maddr32	a1,a4,t0
    34b0:	c45798ff          	maddr32	a7,a5,t0
    34b4:	47a2                	c.lwsp	a5,8(sp)
    34b6:	953e                	c.add	a0,a5
    34b8:	000a2f83          	lw	t6,0(s4)
    34bc:	000b2283          	lw	t0,0(s6)
    34c0:	f35f87ff          	maxw	a5,t6,s5
    34c4:	00f81833          	sll	a6,a6,a5
    34c8:	40000737          	lui	a4,0x40000
    34cc:	4781                	c.li	a5,0
    34ce:	8458177f          	smar64	a4,a6,t0
    34d2:	41f00833          	neg	a6,t6
    34d6:	f358087f          	maxw	a6,a6,s5
    34da:	010c9fb3          	sll	t6,s9,a6
    34de:	dff7077f          	wexti	a4,a4,31
    34e2:	ffff8793          	addi	a5,t6,-1
    34e6:	4017df93          	srai	t6,a5,0x1
    34ea:	00072293          	slti	t0,a4,0
    34ee:	8ff9                	c.and	a5,a4
    34f0:	9f96                	c.add	t6,t0
    34f2:	00ffa7b3          	slt	a5,t6,a5
    34f6:	41075733          	sra	a4,a4,a6
    34fa:	973e                	c.add	a4,a5
    34fc:	975e                	c.add	a4,s7
    34fe:	f3a7077f          	maxw	a4,a4,s10
    3502:	f1b7077f          	minw	a4,a4,s11
    3506:	00e68023          	sb	a4,0(a3)
    350a:	000a2803          	lw	a6,0(s4)
    350e:	000b2f83          	lw	t6,0(s6)
    3512:	f35807ff          	maxw	a5,a6,s5
    3516:	00ff1f33          	sll	t5,t5,a5
    351a:	40000737          	lui	a4,0x40000
    351e:	4781                	c.li	a5,0
    3520:	85ff177f          	smar64	a4,t5,t6
    3524:	41000833          	neg	a6,a6
    3528:	f358087f          	maxw	a6,a6,s5
    352c:	010c9f33          	sll	t5,s9,a6
    3530:	dff7077f          	wexti	a4,a4,31
    3534:	ffff0793          	addi	a5,t5,-1
    3538:	4017df13          	srai	t5,a5,0x1
    353c:	00072f93          	slti	t6,a4,0
    3540:	8ff9                	c.and	a5,a4
    3542:	9f7e                	c.add	t5,t6
    3544:	00ff27b3          	slt	a5,t5,a5
    3548:	41075733          	sra	a4,a4,a6
    354c:	973e                	c.add	a4,a5
    354e:	975e                	c.add	a4,s7
    3550:	f3a7077f          	maxw	a4,a4,s10
    3554:	f1b7077f          	minw	a4,a4,s11
    3558:	00ec0023          	sb	a4,0(s8)
    355c:	004a2803          	lw	a6,4(s4)
    3560:	004b2f03          	lw	t5,4(s6)
    3564:	f35807ff          	maxw	a5,a6,s5
    3568:	00f595b3          	sll	a1,a1,a5
    356c:	40000737          	lui	a4,0x40000
    3570:	4781                	c.li	a5,0
    3572:	85e5977f          	smar64	a4,a1,t5
    3576:	410005b3          	neg	a1,a6
    357a:	f35585ff          	maxw	a1,a1,s5
    357e:	00bc9833          	sll	a6,s9,a1
    3582:	dff7077f          	wexti	a4,a4,31
    3586:	fff80793          	addi	a5,a6,-1
    358a:	00072f13          	slti	t5,a4,0
    358e:	4017d813          	srai	a6,a5,0x1
    3592:	987a                	c.add	a6,t5
    3594:	8ff9                	c.and	a5,a4
    3596:	00f827b3          	slt	a5,a6,a5
    359a:	40b75733          	sra	a4,a4,a1
    359e:	973e                	c.add	a4,a5
    35a0:	975e                	c.add	a4,s7
    35a2:	f3a7077f          	maxw	a4,a4,s10
    35a6:	f1b7077f          	minw	a4,a4,s11
    35aa:	00e680a3          	sb	a4,1(a3)
    35ae:	004a2583          	lw	a1,4(s4)
    35b2:	004b2f03          	lw	t5,4(s6)
    35b6:	f355887f          	maxw	a6,a1,s5
    35ba:	01089833          	sll	a6,a7,a6
    35be:	40000737          	lui	a4,0x40000
    35c2:	4781                	c.li	a5,0
    35c4:	85e8177f          	smar64	a4,a6,t5
    35c8:	40b005b3          	neg	a1,a1
    35cc:	f35585ff          	maxw	a1,a1,s5
    35d0:	00bc9833          	sll	a6,s9,a1
    35d4:	dff7077f          	wexti	a4,a4,31
    35d8:	fff80793          	addi	a5,a6,-1
    35dc:	4017d813          	srai	a6,a5,0x1
    35e0:	00072893          	slti	a7,a4,0
    35e4:	8ff9                	c.and	a5,a4
    35e6:	9846                	c.add	a6,a7
    35e8:	00f827b3          	slt	a5,a6,a5
    35ec:	40b75733          	sra	a4,a4,a1
    35f0:	973e                	c.add	a4,a5
    35f2:	975e                	c.add	a4,s7
    35f4:	478a                	c.lwsp	a5,128(sp)
    35f6:	f3a7077f          	maxw	a4,a4,s10
    35fa:	0c09                	c.addi	s8,2
    35fc:	f1b7077f          	minw	a4,a4,s11
    3600:	953e                	c.add	a0,a5
    3602:	47f2                	c.lwsp	a5,28(sp)
    3604:	feec0fa3          	sb	a4,-1(s8)
    3608:	0689                	c.addi	a3,2
    360a:	0b21                	c.addi	s6,8
    360c:	0a21                	c.addi	s4,8
    360e:	d8fc11e3          	bne	s8,a5,3390 <riscv_nn_mat_mult_kernel_s8_s16+0x84>
    3612:	54d2                	c.lwsp	s1,52(sp)
    3614:	57e2                	c.lwsp	a5,56(sp)
    3616:	4f86                	c.lwsp	t6,64(sp)
    3618:	4716                	c.lwsp	a4,68(sp)
    361a:	443a                	c.lwsp	s0,140(sp)
    361c:	048e                	c.slli	s1,0x3
    361e:	52f2                	c.lwsp	t0,60(sp)
    3620:	491a                	c.lwsp	s2,132(sp)
    3622:	943e                	c.add	s0,a5
    3624:	9726                	c.add	a4,s1
    3626:	9fa6                	c.add	t6,s1
    3628:	0012f793          	andi	a5,t0,1
    362c:	16078a63          	beqz	a5,37a0 <riscv_nn_mat_mult_kernel_s8_s16+0x494>
    3630:	47e2                	c.lwsp	a5,24(sp)
    3632:	00191e93          	slli	t4,s2,0x1
    3636:	9ebe                	c.add	t4,a5
    3638:	4681                	c.li	a3,0
    363a:	c219                	c.beqz	a2,3640 <riscv_nn_mat_mult_kernel_s8_s16+0x334>
    363c:	00062683          	lw	a3,0(a2)
    3640:	478a                	c.lwsp	a5,128(sp)
    3642:	4027d393          	srai	t2,a5,0x2
    3646:	18038b63          	beqz	t2,37dc <riscv_nn_mat_mult_kernel_s8_s16+0x4d0>
    364a:	4862                	c.lwsp	a6,24(sp)
    364c:	88f6                	c.mv	a7,t4
    364e:	8f1e                	c.mv	t5,t2
    3650:	85b6                	c.mv	a1,a3
    3652:	8e2a                	c.mv	t3,a0
    3654:	00082483          	lw	s1,0(a6)
    3658:	0008a303          	lw	t1,0(a7)
    365c:	000e2783          	lw	a5,0(t3) # 40000000 <_DATA_LMA_START+0x1fff64f8>
    3660:	893e                	c.mv	s2,a5
    3662:	89be                	c.mv	s3,a5
    3664:	0e11                	c.addi	t3,4
    3666:	de89067f          	wexti	a2,s2,8
    366a:	ac96067f          	sunpkd820	a2,a2
    366e:	ac9787ff          	sunpkd820	a5,a5
    3672:	489796ff          	kmada	a3,a5,s1
    3676:	486795ff          	kmada	a1,a5,t1
    367a:	00480313          	addi	t1,a6,4
    367e:	00032303          	lw	t1,0(t1)
    3682:	0821                	c.addi	a6,8
    3684:	00488793          	addi	a5,a7,4
    3688:	439c                	c.lw	a5,0(a5)
    368a:	08a1                	c.addi	a7,8
    368c:	486616ff          	kmada	a3,a2,t1
    3690:	48f615ff          	kmada	a1,a2,a5
    3694:	1f7d                	c.addi	t5,-1
    3696:	fa0f1fe3          	bnez	t5,3654 <riscv_nn_mat_mult_kernel_s8_s16+0x348>
    369a:	4662                	c.lwsp	a2,24(sp)
    369c:	00339793          	slli	a5,t2,0x3
    36a0:	038a                	c.slli	t2,0x2
    36a2:	9ebe                	c.add	t4,a5
    36a4:	951e                	c.add	a0,t2
    36a6:	97b2                	c.add	a5,a2
    36a8:	00f12c23          	sw	a5,24(sp)
    36ac:	478a                	c.lwsp	a5,128(sp)
    36ae:	8b8d                	c.andi	a5,3
    36b0:	c7b1                	c.beqz	a5,36fc <riscv_nn_mat_mult_kernel_s8_s16+0x3f0>
    36b2:	44e2                	c.lwsp	s1,24(sp)
    36b4:	00050603          	lb	a2,0(a0)
    36b8:	00049303          	lh	t1,0(s1)
    36bc:	000e9883          	lh	a7,0(t4)
    36c0:	4805                	c.li	a6,1
    36c2:	c4c316ff          	maddr32	a3,t1,a2
    36c6:	c4c895ff          	maddr32	a1,a7,a2
    36ca:	03078963          	beq	a5,a6,36fc <riscv_nn_mat_mult_kernel_s8_s16+0x3f0>
    36ce:	00150603          	lb	a2,1(a0)
    36d2:	00249303          	lh	t1,2(s1)
    36d6:	002e9883          	lh	a7,2(t4)
    36da:	4809                	c.li	a6,2
    36dc:	c4c316ff          	maddr32	a3,t1,a2
    36e0:	c4c895ff          	maddr32	a1,a7,a2
    36e4:	01078c63          	beq	a5,a6,36fc <riscv_nn_mat_mult_kernel_s8_s16+0x3f0>
    36e8:	00250783          	lb	a5,2(a0)
    36ec:	004e9603          	lh	a2,4(t4)
    36f0:	00449503          	lh	a0,4(s1)
    36f4:	c4f615ff          	maddr32	a1,a2,a5
    36f8:	c4f516ff          	maddr32	a3,a0,a5
    36fc:	000fae03          	lw	t3,0(t6)
    3700:	431c                	c.lw	a5,0(a4)
    3702:	4501                	c.li	a0,0
    3704:	f2ae067f          	maxw	a2,t3,a0
    3708:	40000837          	lui	a6,0x40000
    370c:	4881                	c.li	a7,0
    370e:	00c696b3          	sll	a3,a3,a2
    3712:	8342                	c.mv	t1,a6
    3714:	83c6                	c.mv	t2,a7
    3716:	84f6937f          	smar64	t1,a3,a5
    371a:	41c00e33          	neg	t3,t3
    371e:	4685                	c.li	a3,1
    3720:	f2ae0e7f          	maxw	t3,t3,a0
    3724:	01c69633          	sll	a2,a3,t3
    3728:	dff307ff          	wexti	a5,t1,31
    372c:	167d                	c.addi	a2,-1
    372e:	40165313          	srai	t1,a2,0x1
    3732:	0007ae93          	slti	t4,a5,0
    3736:	8e7d                	c.and	a2,a5
    3738:	9376                	c.add	t1,t4
    373a:	00c32633          	slt	a2,t1,a2
    373e:	41c7d7b3          	sra	a5,a5,t3
    3742:	97b2                	c.add	a5,a2
    3744:	97de                	c.add	a5,s7
    3746:	f2fd07ff          	maxw	a5,s10,a5
    374a:	f0fd87ff          	minw	a5,s11,a5
    374e:	00f40023          	sb	a5,0(s0)
    3752:	000fa783          	lw	a5,0(t6)
    3756:	4318                	c.lw	a4,0(a4)
    3758:	f2a7867f          	maxw	a2,a5,a0
    375c:	00c595b3          	sll	a1,a1,a2
    3760:	84e5987f          	smar64	a6,a1,a4
    3764:	40f00733          	neg	a4,a5
    3768:	f2a7077f          	maxw	a4,a4,a0
    376c:	00e697b3          	sll	a5,a3,a4
    3770:	dff8087f          	wexti	a6,a6,31
    3774:	17fd                	c.addi	a5,-1
    3776:	4017d693          	srai	a3,a5,0x1
    377a:	00082613          	slti	a2,a6,0
    377e:	0107f7b3          	and	a5,a5,a6
    3782:	96b2                	c.add	a3,a2
    3784:	00f6a7b3          	slt	a5,a3,a5
    3788:	40e85733          	sra	a4,a6,a4
    378c:	973e                	c.add	a4,a5
    378e:	9bba                	c.add	s7,a4
    3790:	47f2                	c.lwsp	a5,28(sp)
    3792:	f37d0d7f          	maxw	s10,s10,s7
    3796:	f1ad8dff          	minw	s11,s11,s10
    379a:	0405                	c.addi	s0,1
    379c:	01b78023          	sb	s11,0(a5)
    37a0:	00540533          	add	a0,s0,t0
    37a4:	5476                	c.lwsp	s0,124(sp)
    37a6:	54e6                	c.lwsp	s1,120(sp)
    37a8:	5956                	c.lwsp	s2,116(sp)
    37aa:	59c6                	c.lwsp	s3,112(sp)
    37ac:	5a36                	c.lwsp	s4,108(sp)
    37ae:	5aa6                	c.lwsp	s5,104(sp)
    37b0:	5b16                	c.lwsp	s6,100(sp)
    37b2:	5b86                	c.lwsp	s7,96(sp)
    37b4:	4c76                	c.lwsp	s8,92(sp)
    37b6:	4ce6                	c.lwsp	s9,88(sp)
    37b8:	4d56                	c.lwsp	s10,84(sp)
    37ba:	4dc6                	c.lwsp	s11,80(sp)
    37bc:	6109                	c.addi16sp	sp,128
    37be:	8082                	c.jr	ra
    37c0:	5902                	c.lwsp	s2,32(sp)
    37c2:	4581                	c.li	a1,0
    37c4:	00000813          	li	a6,0
    37c8:	be0910e3          	bnez	s2,33a8 <riscv_nn_mat_mult_kernel_s8_s16+0x9c>
    37cc:	5792                	c.lwsp	a5,36(sp)
    37ce:	4762                	c.lwsp	a4,24(sp)
    37d0:	88ae                	c.mv	a7,a1
    37d2:	8f42                	c.mv	t5,a6
    37d4:	c71ff06f          	j	3444 <riscv_nn_mat_mult_kernel_s8_s16+0x138>
    37d8:	ce62                	c.swsp	s8,28(sp)
    37da:	b5b9                	c.j	3628 <riscv_nn_mat_mult_kernel_s8_s16+0x31c>
    37dc:	85b6                	c.mv	a1,a3
    37de:	b5f9                	c.j	36ac <riscv_nn_mat_mult_kernel_s8_s16+0x3a0>

000037e0 <riscv_convolve_wrapper_s8_get_buffer_size>:
    37e0:	491c                	c.lw	a5,16(a0)
    37e2:	4618                	c.lw	a4,8(a2)
    37e4:	00462803          	lw	a6,4(a2)
    37e8:	86aa                	c.mv	a3,a0
    37ea:	e799                	c.bnez	a5,37f8 <riscv_convolve_wrapper_s8_get_buffer_size+0x18>
    37ec:	4948                	c.lw	a0,20(a0)
    37ee:	e509                	c.bnez	a0,37f8 <riscv_convolve_wrapper_s8_get_buffer_size+0x18>
    37f0:	00100793          	li	a5,1
    37f4:	02f70e63          	beq	a4,a5,3830 <riscv_convolve_wrapper_s8_get_buffer_size+0x50>
    37f8:	41d0                	c.lw	a2,4(a1)
    37fa:	4505                	c.li	a0,1
    37fc:	45dc                	c.lw	a5,12(a1)
    37fe:	00a61763          	bne	a2,a0,380c <riscv_convolve_wrapper_s8_get_buffer_size+0x2c>
    3802:	4e8c                	c.lw	a1,24(a3)
    3804:	00c59463          	bne	a1,a2,380c <riscv_convolve_wrapper_s8_get_buffer_size+0x2c>
    3808:	04b80063          	beq	a6,a1,3848 <riscv_convolve_wrapper_s8_get_buffer_size+0x68>
    380c:	03070733          	mul	a4,a4,a6
    3810:	02f70533          	mul	a0,a4,a5
    3814:	00357793          	andi	a5,a0,3
    3818:	cb91                	c.beqz	a5,382c <riscv_convolve_wrapper_s8_get_buffer_size+0x4c>
    381a:	41f55713          	srai	a4,a0,0x1f
    381e:	8379                	c.srli	a4,0x1e
    3820:	00e507b3          	add	a5,a0,a4
    3824:	8b8d                	c.andi	a5,3
    3826:	0511                	c.addi	a0,4
    3828:	8f99                	c.sub	a5,a4
    382a:	8d1d                	c.sub	a0,a5
    382c:	050a                	c.slli	a0,0x2
    382e:	8082                	c.jr	ra
    3830:	fce814e3          	bne	a6,a4,37f8 <riscv_convolve_wrapper_s8_get_buffer_size+0x18>
    3834:	4e9c                	c.lw	a5,24(a3)
    3836:	01079f63          	bne	a5,a6,3854 <riscv_convolve_wrapper_s8_get_buffer_size+0x74>
    383a:	4ed0                	c.lw	a2,28(a3)
    383c:	00f60e63          	beq	a2,a5,3858 <riscv_convolve_wrapper_s8_get_buffer_size+0x78>
    3840:	41dc                	c.lw	a5,4(a1)
    3842:	00e79963          	bne	a5,a4,3854 <riscv_convolve_wrapper_s8_get_buffer_size+0x74>
    3846:	45dc                	c.lw	a5,12(a1)
    3848:	4694                	c.lw	a3,8(a3)
    384a:	02d786b3          	mul	a3,a5,a3
    384e:	8a8d                	c.andi	a3,3
    3850:	fed5                	c.bnez	a3,380c <riscv_convolve_wrapper_s8_get_buffer_size+0x2c>
    3852:	bf7d                	c.j	3810 <riscv_convolve_wrapper_s8_get_buffer_size+0x30>
    3854:	45dc                	c.lw	a5,12(a1)
