
NMSIS_DS_CNN_S.adx:     file format elf32-littleriscv
NMSIS_DS_CNN_S.adx
architecture: riscv:rv32, flags 0x00000112:
EXEC_P, HAS_SYMS, D_PAGED
start address 0x20000000

Program Header:
    LOAD off    0x00001000 vaddr 0x20000000 paddr 0x20000000 align 2**12
         filesz 0x0000018a memsz 0x0000018a flags r-x
    LOAD off    0x00002000 vaddr 0x00000000 paddr 0x20000190 align 2**12
         filesz 0x000001bc memsz 0x000001bc flags rwx
    LOAD off    0x00002200 vaddr 0x00000200 paddr 0x20000350 align 2**12
         filesz 0x0000ab44 memsz 0x0000ab44 flags r-x
    LOAD off    0x0000d000 vaddr 0x00080000 paddr 0x2000ae98 align 2**12
         filesz 0x00007518 memsz 0x00007550 flags rw-
    LOAD off    0x000153d0 vaddr 0x0008b3d0 paddr 0x200123b0 align 2**12
         filesz 0x00000022 memsz 0x00000022 flags rw-
    LOAD off    0x00015550 vaddr 0x00087550 paddr 0x200123e8 align 2**12
         filesz 0x00000000 memsz 0x00003e80 flags rw-
0x70000000 off    0x00023415 vaddr 0x00000000 paddr 0x00000000 align 2**0
         filesz 0x00000040 memsz 0x00000000 flags r--

Sections:
Idx Name          Size      VMA       LMA       File off  Algn
  0 .vectors      0000018a  20000000  20000000  00001000  2**2
                  CONTENTS, ALLOC, LOAD, READONLY, CODE
  1 .retention_reset 00000154  00000000  20000190  00002000  2**2
                  CONTENTS, ALLOC, LOAD, READONLY, CODE
  2 .retention_data 00000064  00000158  200002e8  00002158  2**2
                  CONTENTS, ALLOC, LOAD, DATA
  3 .ram_code     0000ab44  00000200  20000350  00002200  2**8
                  CONTENTS, ALLOC, LOAD, READONLY, CODE
  4 .data         00007518  00080000  2000ae98  0000d000  2**3
                  CONTENTS, ALLOC, LOAD, DATA
  5 .sbss         00000038  00087518  200123b0  00014518  2**2
                  ALLOC
  6 .bss          00003e80  00087550  200123e8  00015550  2**2
                  ALLOC
  7 .sdk_version  00000022  0008b3d0  200123b0  000153d0  2**2
                  CONTENTS, ALLOC, LOAD, DATA
  8 .debug_info   00005256  00000000  00000000  000153f2  2**0
                  CONTENTS, READONLY, DEBUGGING
  9 .debug_abbrev 00000a01  00000000  00000000  0001a648  2**0
                  CONTENTS, READONLY, DEBUGGING
 10 .debug_loc    000013d0  00000000  00000000  0001b049  2**0
                  CONTENTS, READONLY, DEBUGGING
 11 .debug_aranges 00000198  00000000  00000000  0001c420  2**3
                  CONTENTS, READONLY, DEBUGGING
 12 .debug_ranges 000008c8  00000000  00000000  0001c5b8  2**3
                  CONTENTS, READONLY, DEBUGGING
 13 .debug_line   00003731  00000000  00000000  0001ce80  2**0
                  CONTENTS, READONLY, DEBUGGING
 14 .debug_str    00002e1b  00000000  00000000  000205b1  2**0
                  CONTENTS, READONLY, DEBUGGING
 15 .comment      00000049  00000000  00000000  000233cc  2**0
                  CONTENTS, READONLY
 16 .riscv.attributes 00000040  00000000  00000000  00023415  2**0
                  CONTENTS, READONLY
 17 .debug_frame  0000045c  00000000  00000000  00023458  2**2
                  CONTENTS, READONLY, DEBUGGING
SYMBOL TABLE:
20000000 l    d  .vectors	00000000 .vectors
00000000 l    d  .retention_reset	00000000 .retention_reset
00000158 l    d  .retention_data	00000000 .retention_data
00000200 l    d  .ram_code	00000000 .ram_code
00080000 l    d  .data	00000000 .data
00087518 l    d  .sbss	00000000 .sbss
00087550 l    d  .bss	00000000 .bss
0008b3d0 l    d  .sdk_version	00000000 .sdk_version
00000000 l    d  .debug_info	00000000 .debug_info
00000000 l    d  .debug_abbrev	00000000 .debug_abbrev
00000000 l    d  .debug_loc	00000000 .debug_loc
00000000 l    d  .debug_aranges	00000000 .debug_aranges
00000000 l    d  .debug_ranges	00000000 .debug_ranges
00000000 l    d  .debug_line	00000000 .debug_line
00000000 l    d  .debug_str	00000000 .debug_str
00000000 l    d  .comment	00000000 .comment
00000000 l    d  .riscv.attributes	00000000 .riscv.attributes
00000000 l    d  .debug_frame	00000000 .debug_frame
00000000 l    df *ABS*	00000000 ./boot/cstartup_flash.o
20000028 l       .vectors	00000000 _START
2000008e l       .vectors	00000000 _RETENTION_RESET_INIT
200000a6 l       .vectors	00000000 _RETENTION_RESET_BEGIN
200000b8 l       .vectors	00000000 _RETENTION_DATA_INIT
200000cc l       .vectors	00000000 _RETENTION_DATA_INIT_BEGIN
200000de l       .vectors	00000000 _RAMCODE_INIT
200000f6 l       .vectors	00000000 _RAMCODE_INIT_BEGIN
20000108 l       .vectors	00000000 _DATA_INIT
20000120 l       .vectors	00000000 _DATA_INIT_BEGIN
20000132 l       .vectors	00000000 _ZERO_BSS
20000146 l       .vectors	00000000 _ZERO_BSS_BEGIN
20000152 l       .vectors	00000000 _ZERO_AES
20000166 l       .vectors	00000000 _ZERO_AES_BEGIN
20000172 l       .vectors	00000000 _FILL_STK
20000172 l       .vectors	00000000 _MAIN_FUNC
20000188 l       .vectors	00000000 _END
00000022 l       .retention_reset	00000000 _ISTART
0000002a l       .retention_reset	00000000 _ISWS_USB_DIS
00000088 l       .retention_reset	00000000 _WAKEUP_FLASH
000000a2 l       .retention_reset	00000000 _MSPI_WAIT
000000bc l       .retention_reset	00000000 _WAIT_EFUSE_LOAD_AND_FLASH_WAKEUP_FINISH
000000c2 l       .retention_reset	00000000 _MULTI_ADDRESS_BEGIN
000000d2 l       .retention_reset	00000000 _IZERO_BSS
000000e6 l       .retention_reset	00000000 _IZERO_BSS_BEGIN
000000f2 l       .retention_reset	00000000 _IZERO_AES
00000106 l       .retention_reset	00000000 _IZERO_AES_BEGIN
00000112 l       .retention_reset	00000000 _IFILL_STK
00000112 l       .retention_reset	00000000 _IDATA_INIT
0000012a l       .retention_reset	00000000 _IDATA_INIT_BEGIN
0000013c l       .retention_reset	00000000 _IMAIN_FUNC
00000152 l       .retention_reset	00000000 _IEND
00000040 l       *ABS*	00000000 irqno
00000000 l    df *ABS*	00000000 
00000200 l     F .ram_code	00000020 delay_ms.constprop.12
0000140c l     F .ram_code	000000fc user_calib_adc_vref.constprop.9
00000220 l     F .ram_code	00000044 flash_send_addr
00000264 l     F .ram_code	00000048 flash_send_cmd
000002ac l     F .ram_code	00000060 clock_set_32k_tick
0000030c l     F .ram_code	0000004c analog_read_reg32.constprop.4
00000358 l     F .ram_code	00000024 clock_get_32k_tick
0000037c l     F .ram_code	00000094 pm_stimer_recover
00000410 l     F .ram_code	00000058 plic_exit_critical_sec
00000468 l     F .ram_code	00000060 plic_enter_critical_sec
000004c8 l     F .ram_code	00000180 flash_mspi_read_ram
00001204 l     F .ram_code	00000028 flash_read_uid.constprop.6
0000122c l     F .ram_code	00000028 flash_read_mid
00001254 l     F .ram_code	00000168 flash_read_mid_uid_with_check
00000648 l     F .ram_code	0000014c flash_mspi_read_ram.constprop.7
000013bc l     F .ram_code	00000020 flash_dread
00000794 l     F .ram_code	00000044 analog_write_reg8
000007d8 l     F .ram_code	0000004c analog_read_reg8
00000824 l     F .ram_code	00000140 clock_init_ram.constprop.11
000013dc l     F .ram_code	00000018 clock_init.constprop.10
00001508 l     F .ram_code	00000054 user_calib_freq_offset.constprop.8
00000964 l     F .ram_code	000000b4 pm_wait_bbpll_done
00000a18 l     F .ram_code	00000194 pm_sleep_start
00000bac l     F .ram_code	00000120 dr_putchar
00001560 l     F .ram_code	00000018 gpio_input_dis
00000ccc l     F .ram_code	0000030c pm_sleep_wakeup_ram.constprop.3
000013f4 l     F .ram_code	00000016 pm_sleep_wakeup.constprop.2
00087550 l     O .bss	00003e80 in_out_buf_main
0008085c l     O .data	00000a00 ds_cnn_s_layer_1_conv_2d_weights
00081a9c l     O .data	00001000 ds_cnn_s_layer_3_conv_2d_weights
000832dc l     O .data	00001000 ds_cnn_s_layer_5_conv_2d_weights
00084b1c l     O .data	00001000 ds_cnn_s_layer_7_conv_2d_weights
0008635c l     O .data	00001000 ds_cnn_s_layer_9_conv_2d_weights
00000158 l     O .retention_data	00000004 flash_read_page
0000015c l     O .retention_data	00000001 g_pm_long_suspend
00000160 l     O .retention_data	00000004 g_pm_tick_cur
00000164 l     O .retention_data	00000029 pmcd
00000190 l     O .retention_data	00000004 g_pm_tick_32k_calib
00000194 l     O .retention_data	00000001 g_plic_preempt_en
00000198 l     O .retention_data	00000002 s_flash_preempt_config
0000019a l     O .retention_data	00000001 g_pm_suspend_power_cfg
0000019c l     O .retention_data	00000008 g_pm_early_wakeup_time_us
000001a4 l     O .retention_data	00000004 g_pm_tick_32k_cur
000001a8 l     O .retention_data	00000001 g_pm_tick_update_en
000001ac l     O .retention_data	00000004 g_pm_r_delay_cycle
000001b0 l     O .retention_data	00000008 g_pm_longsleep_early_wakeup_time_us
00080040 l     O .data	000001ea ds_cnn_s_input
0008022c l     O .data	00000030 ds_cnn_s_layer_12_fully_connected_bias
0008025c l     O .data	00000300 ds_cnn_s_layer_12_fully_connected_weights
0008055c l     O .data	00000100 ds_cnn_s_layer_1_conv_2d_bias
0008065c l     O .data	00000100 ds_cnn_s_layer_1_conv_2d_output_mult
0008075c l     O .data	00000100 ds_cnn_s_layer_1_conv_2d_output_shift
0008125c l     O .data	00000100 ds_cnn_s_layer_2_depthwise_conv_2d_bias
0008135c l     O .data	00000100 ds_cnn_s_layer_2_depthwise_conv_2d_output_mult
0008145c l     O .data	00000100 ds_cnn_s_layer_2_depthwise_conv_2d_output_shift
0008155c l     O .data	00000240 ds_cnn_s_layer_2_depthwise_conv_2d_weights
0008179c l     O .data	00000100 ds_cnn_s_layer_3_conv_2d_bias
0008189c l     O .data	00000100 ds_cnn_s_layer_3_conv_2d_output_mult
0008199c l     O .data	00000100 ds_cnn_s_layer_3_conv_2d_output_shift
00082a9c l     O .data	00000100 ds_cnn_s_layer_4_depthwise_conv_2d_bias
00082b9c l     O .data	00000100 ds_cnn_s_layer_4_depthwise_conv_2d_output_mult
00082c9c l     O .data	00000100 ds_cnn_s_layer_4_depthwise_conv_2d_output_shift
00082d9c l     O .data	00000240 ds_cnn_s_layer_4_depthwise_conv_2d_weights
00082fdc l     O .data	00000100 ds_cnn_s_layer_5_conv_2d_bias
000830dc l     O .data	00000100 ds_cnn_s_layer_5_conv_2d_output_mult
000831dc l     O .data	00000100 ds_cnn_s_layer_5_conv_2d_output_shift
000842dc l     O .data	00000100 ds_cnn_s_layer_6_depthwise_conv_2d_bias
000843dc l     O .data	00000100 ds_cnn_s_layer_6_depthwise_conv_2d_output_mult
000844dc l     O .data	00000100 ds_cnn_s_layer_6_depthwise_conv_2d_output_shift
000845dc l     O .data	00000240 ds_cnn_s_layer_6_depthwise_conv_2d_weights
0008481c l     O .data	00000100 ds_cnn_s_layer_7_conv_2d_bias
0008491c l     O .data	00000100 ds_cnn_s_layer_7_conv_2d_output_mult
00084a1c l     O .data	00000100 ds_cnn_s_layer_7_conv_2d_output_shift
00085b1c l     O .data	00000100 ds_cnn_s_layer_8_depthwise_conv_2d_bias
00085c1c l     O .data	00000100 ds_cnn_s_layer_8_depthwise_conv_2d_output_mult
00085d1c l     O .data	00000100 ds_cnn_s_layer_8_depthwise_conv_2d_output_shift
00085e1c l     O .data	00000240 ds_cnn_s_layer_8_depthwise_conv_2d_weights
0008605c l     O .data	00000100 ds_cnn_s_layer_9_conv_2d_bias
0008615c l     O .data	00000100 ds_cnn_s_layer_9_conv_2d_output_mult
0008625c l     O .data	00000100 ds_cnn_s_layer_9_conv_2d_output_shift
00087518 l     O .sbss	00000004 exception_mcause
0008751c l     O .sbss	00000004 exception_mdcause
00087520 l     O .sbss	00000004 exception_mepc
00087524 l     O .sbss	00000004 exception_mstatus
00087528 l     O .sbss	00000004 exception_mtval
0008752c l     O .sbss	00000004 g_chip_version
00087530 l     O .sbss	00000004 g_pm_status_info
00087508 l     O .data	00000001 init_flag.4915
0008750c l     O .data	00000006 sys_clk
0008b3d0 l     O .sdk_version	00000022 sdk_version
00000000 l    df *ABS*	00000000 riscv_convolve_wrapper_s8.c.o
0000213c l       .ram_code	00000000 $x
00000000 l    df *ABS*	00000000 riscv_convolve_1x1_s8_fast.c.o
00002288 l       .ram_code	00000000 $x
00000000 l    df *ABS*	00000000 riscv_convolve_s8.c.o
00002300 l       .ram_code	00000000 $x
00000000 l    df *ABS*	00000000 riscv_nn_mat_mult_kernel_s8_s16.c.o
00002908 l       .ram_code	00000000 $x
00000000 l    df *ABS*	00000000 riscv_convolve_get_buffer_sizes_s8.c.o
00002ddc l       .ram_code	00000000 $x
00000000 l    df *ABS*	00000000 riscv_depthwise_conv_get_buffer_sizes_s8.c.o
00002e58 l       .ram_code	00000000 $x
00002e6c l       .ram_code	00000000 $x
00000000 l    df *ABS*	00000000 riscv_nn_mat_mult_kernel_row_offset_s8_s16.c.o
00002ec0 l       .ram_code	00000000 $x
00000000 l    df *ABS*	00000000 riscv_convolve_1x1_s8.c.o
000033a4 l       .ram_code	00000000 $x
00000000 l    df *ABS*	00000000 riscv_depthwise_conv_wrapper_s8.c.o
000034c8 l       .ram_code	00000000 $x
00000000 l    df *ABS*	00000000 riscv_convolve_1_x_n_s8.c.o
000035a0 l       .ram_code	00000000 $x
00000000 l    df *ABS*	00000000 riscv_softmax_s8.c.o
000035e8 l       .ram_code	00000000 $x
00000000 l    df *ABS*	00000000 riscv_nn_softmax_common_s8.c.o
000035f0 l       .ram_code	00000000 $x
00000000 l    df *ABS*	00000000 riscv_nn_mat_mult_nt_t_s8.c.o
00005404 l       .ram_code	00000000 $x
00000000 l    df *ABS*	00000000 riscv_s8_to_s16_unordered_with_offset.c.o
00006148 l       .ram_code	00000000 $x
00000000 l    df *ABS*	00000000 riscv_avgpool_s8.c.o
000061cc l       .ram_code	00000000 $x
00000000 l    df *ABS*	00000000 riscv_fully_connected_s8.c.o
00006424 l       .ram_code	00000000 $x
00000000 l    df *ABS*	00000000 riscv_depthwise_conv_s8.c.o
000064c8 l       .ram_code	00000000 $x
00000000 l    df *ABS*	00000000 riscv_depthwise_conv_s8_opt.c.o
00006c70 l       .ram_code	00000000 $x
00000000 l    df *ABS*	00000000 riscv_depthwise_conv_3x3_s8.c.o
00007350 l       .ram_code	00000000 $x
00000000 l    df *ABS*	00000000 riscv_nn_vec_mat_mult_t_s8.c.o
00008b38 l       .ram_code	00000000 $x
00000000 l    df *ABS*	00000000 riscv_q7_to_q15_with_offset.c.o
00009c98 l       .ram_code	00000000 $x
00000000 l    df *ABS*	00000000 riscv_avgpool_get_buffer_sizes_s8.c.o
00009d20 l       .ram_code	00000000 $x
00000000 l    df *ABS*	00000000 memcpy.c
00000000 l    df *ABS*	00000000 malloc.c
00000000 l    df *ABS*	00000000 nano-mallocr.c
00000000 l    df *ABS*	00000000 nano-mallocr.c
00000000 l    df *ABS*	00000000 printf.c
00000000 l    df *ABS*	00000000 puts.c
00000000 l    df *ABS*	00000000 strlen.c
00000000 l    df *ABS*	00000000 vprintf.c
0000a0e0 l     F .ram_code	0000003a __vprintf_help
0008753c l     O .sbss	00000004 __vprintf_buf
00087540 l     O .sbss	00000004 __vprintf_buf_len
00000000 l    df *ABS*	00000000 printf_impl.c
00000000 l    df *ABS*	00000000 printf_impl_float.c
00000000 l    df *ABS*	00000000 strcpy.c
00000000 l    df *ABS*	00000000 strnlen.c
00000000 l    df *ABS*	00000000 _sbrk.c
0008754c l     O .sbss	00000004 heap_end.2408
00000000 l    df *ABS*	00000000 libgcc2.c
00000000 l    df *ABS*	00000000 libgcc2.c
00000000 l    df *ABS*	00000000 printf_data.c
00000000 l    df *ABS*	00000000 impure.c
0008b3d0 l     O .bss	00000000 impure_data
00002134  w      .ram_code	00000000 entry_irq55
00002134  w      .ram_code	00000000 entry_irq13
0000aacc g     F .ram_code	0000007c strcpy
00002134  w      .ram_code	00000000 entry_irq15
0000abbc g     F .ram_code	0000002e .hidden __ashldi3
00002134  w      .ram_code	00000000 entry_irq27
00002134  w      .ram_code	00000000 entry_irq60
00002134  w      .ram_code	00000000 entry_irq1
00002134  w      .ram_code	00000000 entry_irq52
00002134  w      .ram_code	00000000 entry_irq50
00002134  w      .ram_code	00000000 entry_irq62
0000a02c g     F .ram_code	0000001e printf
00080800 g       .data	00000000 __global_pointer$
0000abf4 g       .ram_code	00000000 .hidden __riscv_save_8
00002134  w      .ram_code	00000000 entry_irq58
0000ac40 g       .ram_code	00000000 .hidden __riscv_restore_3
00009c98 g     F .ram_code	00000088 riscv_q7_to_q15_with_offset
000001bc g       .retention_data	00000000 _RETENTION_DATA_VMA_END
0000ac2c g       .ram_code	00000000 .hidden __riscv_restore_10
0000abf4 g       .ram_code	00000000 .hidden __riscv_save_11
0000a166 g     F .ram_code	00000048 __print_integral
00000000 g       .retention_reset	00000000 _RETENTION_RESET_VMA_START
00002134  w      .ram_code	00000000 entry_irq10
00002134  w      .ram_code	00000000 entry_irq21
00000158 g       .retention_data	00000000 _AES_VMA_START
00002134  w      .ram_code	00000000 entry_irq48
0000ac40 g       .ram_code	00000000 .hidden __riscv_restore_2
00002134  w      .ram_code	00000000 entry_irq8
00002134  w      .ram_code	00000000 entry_irq33
0008b3d0 g       .bss	00000000 _BSS_VMA_END
00009d28 g     F .ram_code	000000fa memcpy
20000190 g       *ABS*	00000000 _RETENTION_RESET_LMA_START
0000a1ae g     F .ram_code	00000470 __printf_impl
00002134  w      .ram_code	00000000 entry_irq12
0000a04a g     F .ram_code	00000034 puts
0000213c g     F .ram_code	0000014a riscv_convolve_wrapper_s8
00009ecc g     F .ram_code	00000010 malloc
00002134  w      .ram_code	00000000 entry_irq14
000035f0 g     F .ram_code	00001e14 riscv_nn_softmax_common_s8
0000abec g       .ram_code	00000000 .hidden __riscv_save_12
00002134  w      .ram_code	00000000 entry_irq2
00002134  w      .ram_code	00000000 entry_irq51
0000ac2c g       .ram_code	00000000 .hidden __riscv_restore_11
000061cc g     F .ram_code	00000258 riscv_avgpool_s8
00002134  w      .ram_code	00000000 entry_irq28
00002134  w      .ram_code	00000000 entry_irq43
0000ac1c g       .ram_code	00000000 .hidden __riscv_save_1
0000ac40 g       .ram_code	00000000 .hidden __riscv_restore_0
00002134  w      .ram_code	00000000 entry_irq20
0000ac02 g       .ram_code	00000000 .hidden __riscv_save_7
00087518 g       .sbss	00000000 _BSS_VMA_START
00002134  w      .ram_code	00000000 entry_irq63
00087518 g       .data	00000000 _DATA_VMA_END
00002134  w      .ram_code	00000000 entry_irq46
00002134  w      .ram_code	00000000 entry_irq31
00002134  w      .ram_code	00000000 entry_irq16
00100000 g       *ABS*	00000000 FLASH_SIZE
0000ac36 g       .ram_code	00000000 .hidden __riscv_restore_5
00080000 g       .data	00000000 _DATA_VMA_START
000034c8 g     F .ram_code	000000d8 riscv_depthwise_conv_wrapper_s8
0000ab62  w    F .ram_code	00000028 _sbrk
00002134  w      .ram_code	00000000 entry_irq53
00002134  w      .ram_code	00000000 entry_irq11
00000154 g       .retention_reset	00000000 _RETENTION_RESET_VMA_END
0000ab4a g     F .ram_code	00000018 strnlen
0000ac36 g       .ram_code	00000000 .hidden __riscv_restore_6
00002134  w      .ram_code	00000000 entry_irq5
00002134  w      .ram_code	00000000 entry_irq23
00002136  w      .ram_code	00000000 trap_handler
00002134  w      .ram_code	00000000 entry_irq34
0000ab8c g     F .ram_code	0000002e .hidden __lshrdi3
00002134  w      .ram_code	00000000 entry_irq36
00006424 g     F .ram_code	000000a2 riscv_fully_connected_s8
0000abf4 g       .ram_code	00000000 .hidden __riscv_save_9
00002134  w      .ram_code	00000000 entry_irq44
00005404 g     F .ram_code	00000d44 riscv_nn_mat_mult_nt_t_s8
0000a11a g     F .ram_code	0000004c vprintf
00002134  w      .ram_code	00000000 entry_irq45
00002134  w      .ram_code	00000000 entry_irq26
0000ac02 g       .ram_code	00000000 .hidden __riscv_save_4
00002134  w      .ram_code	00000000 entry_irq41
000064c8 g     F .ram_code	000007a6 riscv_depthwise_conv_s8
00007350 g     F .ram_code	000017e6 riscv_depthwise_conv_3x3_s8
00002134  w      .ram_code	00000000 entry_irq61
20000000 g       .vectors	00000000 BIN_BEGIN
00009eec g     F .ram_code	00000090 _free_r
00002ec0 g     F .ram_code	000004e4 riscv_nn_mat_mult_kernel_row_offset_s8_s16
0000ac1c g       .ram_code	00000000 .hidden __riscv_save_3
000033a4 g     F .ram_code	00000124 riscv_convolve_1x1_s8
00002134  w      .ram_code	00000000 entry_irq38
00001100 g       .ram_code	00000000 __vectors
000123d2 g       *ABS*	00000000 BIN_SIZE
000874f0 g     O .data	00000010 __digits
20000350 g       *ABS*	00000000 _RAMCODE_LMA_START
00002ddc g     F .ram_code	0000007a riscv_convolve_wrapper_s8_get_buffer_size
000035a0 g     F .ram_code	00000048 riscv_convolve_1_x_n_s8
00087548 g     O .sbss	00000004 __printf_count
00002134  w      .ram_code	00000000 entry_irq59
00002134  w      .ram_code	00000000 entry_irq6
0000abf4 g       .ram_code	00000000 .hidden __riscv_save_10
00087544 g     O .sbss	00000004 __mculib_REENT_errno
2000ae98 g       *ABS*	00000000 _DATA_LMA_START
0000a63c g     F .ram_code	00000090 __print_integral_poly
20000000 g       *ABS*	00000000 NDS_SAG_LMA_FLASH
0000ac36 g       .ram_code	00000000 .hidden __riscv_restore_4
0000ac2c g       .ram_code	00000000 .hidden __riscv_restore_8
0000ac02 g       .ram_code	00000000 .hidden __riscv_save_6
00002e58 g     F .ram_code	00000012 riscv_depthwise_conv_s8_opt_get_buffer_size
20000000  w      .vectors	00000000 _RELAX_END_
0000a6cc g     F .ram_code	000003fe __printf_float_impl
00009e22 g     F .ram_code	000000aa memset
0000ac2c g       .ram_code	00000000 .hidden __riscv_restore_9
0000ac36 g       .ram_code	00000000 .hidden __riscv_restore_7
000015c4 g     F .ram_code	00000b6e main
00002134 g       .ram_code	00000000 default_irq_entry
00002134  w      .ram_code	00000000 entry_irq3
00000fd8 g     F .ram_code	00000100 trap_entry
00000158 g       .retention_data	00000000 _AES_VMA_END
00006148 g     F .ram_code	00000084 riscv_s8_to_s16_unordered_with_offset
00002134  w      .ram_code	00000000 entry_irq39
00002134  w      .ram_code	00000000 entry_irq49
00009f7c g     F .ram_code	000000b0 _malloc_r
00002e6c g     F .ram_code	00000054 riscv_depthwise_conv_wrapper_s8_get_buffer_size
00002134  w      .ram_code	00000000 entry_irq57
00002134  w      .ram_code	00000000 entry_irq47
200002e8 g       *ABS*	00000000 _RETENTION_DATA_LMA_START
20000000 g     F .vectors	00000000 _RESET_ENTRY
00000158 g       .retention_data	00000000 _RETENTION_DATA_VMA_START
00008b38 g     F .ram_code	0000115e riscv_nn_vec_mat_mult_t_s8
00002134  w      .ram_code	00000000 entry_irq4
000a0000 g       *ABS*	00000000 _STACK_TOP
00002134  w      .ram_code	00000000 entry_irq22
00002134  w      .ram_code	00000000 entry_irq30
00087514 g     O .data	00000004 _impure_ptr
00009d20 g     F .ram_code	00000006 riscv_avgpool_s8_get_buffer_size
00002134  w      .ram_code	00000000 entry_irq42
00002134  w      .ram_code	00000000 entry_irq24
00002908 g     F .ram_code	000004d4 riscv_nn_mat_mult_kernel_s8_s16
0000ac1c g       .ram_code	00000000 .hidden __riscv_save_2
0000ad44 g       .ram_code	00000000 _RAMCODE_VMA_END
00000000  w      *ABS*	00000000 _ITB_BASE_
0000ac02 g       .ram_code	00000000 .hidden __riscv_save_5
00002134  w      .ram_code	00000000 entry_irq19
0000157c g     F .ram_code	00000048 _write
0008b3f8 g       .sdk_version	00000000 _end
00002134  w      .ram_code	00000000 entry_irq17
00002134  w      .ram_code	00000000 entry_irq9
00006c70 g     F .ram_code	000006e0 riscv_depthwise_conv_s8_opt
00002134  w      .ram_code	00000000 entry_irq56
00002134  w      .ram_code	00000000 entry_irq35
00002134  w      .ram_code	00000000 entry_irq37
000001b8 g     O .retention_data	00000004 g_pm_mspi_cfg
00002134  w      .ram_code	00000000 entry_irq54
00002134  w      .ram_code	00000000 entry_irq40
0000ac28 g       .ram_code	00000000 .hidden __riscv_restore_12
00000200 g       .ram_code	00000000 _RAMCODE_VMA_START
0000ac1c g       .ram_code	00000000 .hidden __riscv_save_0
0000a080 g     F .ram_code	0000005e strlen
00002134  w      .ram_code	00000000 entry_irq29
00087538 g     O .sbss	00000004 __malloc_sbrk_start
00002300 g     F .ram_code	00000608 riscv_convolve_s8
00087534 g     O .sbss	00000004 __malloc_free_list
0000ac40 g       .ram_code	00000000 .hidden __riscv_restore_1
000035e8 g     F .ram_code	00000006 riscv_softmax_s8
00002288 g     F .ram_code	00000078 riscv_convolve_1x1_s8_fast
00002134  w      .ram_code	00000000 entry_irq7
00002134  w      .ram_code	00000000 entry_irq32
00000000 g     F .retention_reset	00000000 _IRESET_ENTRY
00002134  w      .ram_code	00000000 entry_irq18
0000a61e g     F .ram_code	0000001e __int_to_poly
00009edc g     F .ram_code	00000010 free
00002134  w      .ram_code	00000000 entry_irq25



Disassembly of section .vectors:

20000000 <_RESET_ENTRY>:
20000000:	a025                	c.j	20000028 <_START>
	...
20000016:	0000                	unimp
20000018:	23d2                	c.fldsp	ft7,272(sp)
2000001a:	0001                	c.nop
2000001c:	0000                	unimp
2000001e:	0000                	unimp
20000020:	544c4e4b          	fnmsub.h	ft8,fs8,ft4,fa0,rmm
20000024:	0000                	unimp
20000026:	          	sllw	a4,zero,zero

20000028 <_START>:
20000028:	e0080197          	auipc	gp,0xe0080
2000002c:	7d818193          	addi	gp,gp,2008 # 80800 <__global_pointer$>
20000030:	801002b7          	lui	t0,0x80100
20000034:	70028293          	addi	t0,t0,1792 # 80100700 <_DATA_LMA_START+0x600f5868>
20000038:	04000313          	li	t1,64
2000003c:	506280a3          	sb	t1,1281(t0)
20000040:	e00a0297          	auipc	t0,0xe00a0
20000044:	fc028293          	addi	t0,t0,-64 # a0000 <_STACK_TOP>
20000048:	8116                	c.mv	sp,t0
2000004a:	e0000297          	auipc	t0,0xe0000
2000004e:	fb628293          	addi	t0,t0,-74 # 0 <_ITB_BASE_>
20000052:	80029073          	csrw	uitb,t0
20000056:	6299                	c.lui	t0,0x6
20000058:	3002a2f3          	csrrs	t0,mstatus,t0
2000005c:	00301073          	fssr	zero
20000060:	e0001297          	auipc	t0,0xe0001
20000064:	0a028293          	addi	t0,t0,160 # 1100 <__vectors>
20000068:	30529073          	csrw	mtvec,t0
2000006c:	7d016073          	csrsi	mmisc_ctl,2
20000070:	e40002b7          	lui	t0,0xe4000
20000074:	4309                	c.li	t1,2
20000076:	0062a023          	sw	t1,0(t0) # e4000000 <_DATA_LMA_START+0xc3ff5168>
2000007a:	7ca022f3          	csrr	t0,mcache_ctl
2000007e:	0012e293          	ori	t0,t0,1
20000082:	0022e293          	ori	t0,t0,2
20000086:	7ca29073          	csrw	mcache_ctl,t0
2000008a:	0000100f          	fence.i

2000008e <_RETENTION_RESET_INIT>:
2000008e:	00000317          	auipc	t1,0x0
20000092:	10230313          	addi	t1,t1,258 # 20000190 <_RETENTION_RESET_LMA_START>
20000096:	e0000397          	auipc	t2,0xe0000
2000009a:	f6a38393          	addi	t2,t2,-150 # 0 <_ITB_BASE_>
2000009e:	e0000e17          	auipc	t3,0xe0000
200000a2:	0b6e0e13          	addi	t3,t3,182 # 154 <_RETENTION_RESET_VMA_END>

200000a6 <_RETENTION_RESET_BEGIN>:
200000a6:	01c3f963          	bgeu	t2,t3,200000b8 <_RETENTION_DATA_INIT>
200000aa:	00032283          	lw	t0,0(t1)
200000ae:	0053a023          	sw	t0,0(t2)
200000b2:	0311                	c.addi	t1,4
200000b4:	0391                	c.addi	t2,4
200000b6:	bfc5                	c.j	200000a6 <_RETENTION_RESET_BEGIN>

200000b8 <_RETENTION_DATA_INIT>:
200000b8:	00000317          	auipc	t1,0x0
200000bc:	23030313          	addi	t1,t1,560 # 200002e8 <_RETENTION_DATA_LMA_START>
200000c0:	15800393          	li	t2,344
200000c4:	e0000e17          	auipc	t3,0xe0000
200000c8:	0f8e0e13          	addi	t3,t3,248 # 1bc <_RETENTION_DATA_VMA_END>

200000cc <_RETENTION_DATA_INIT_BEGIN>:
200000cc:	01c3f963          	bgeu	t2,t3,200000de <_RAMCODE_INIT>
200000d0:	00032283          	lw	t0,0(t1)
200000d4:	0053a023          	sw	t0,0(t2)
200000d8:	0311                	c.addi	t1,4
200000da:	0391                	c.addi	t2,4
200000dc:	bfc5                	c.j	200000cc <_RETENTION_DATA_INIT_BEGIN>

200000de <_RAMCODE_INIT>:
200000de:	00000317          	auipc	t1,0x0
200000e2:	27230313          	addi	t1,t1,626 # 20000350 <_RAMCODE_LMA_START>
200000e6:	e0000397          	auipc	t2,0xe0000
200000ea:	11a38393          	addi	t2,t2,282 # 200 <delay_ms.constprop.12>
200000ee:	e000be17          	auipc	t3,0xe000b
200000f2:	c56e0e13          	addi	t3,t3,-938 # ad44 <_RAMCODE_VMA_END>

200000f6 <_RAMCODE_INIT_BEGIN>:
200000f6:	01c3f963          	bgeu	t2,t3,20000108 <_DATA_INIT>
200000fa:	00032283          	lw	t0,0(t1)
200000fe:	0053a023          	sw	t0,0(t2)
20000102:	0311                	c.addi	t1,4
20000104:	0391                	c.addi	t2,4
20000106:	bfc5                	c.j	200000f6 <_RAMCODE_INIT_BEGIN>

20000108 <_DATA_INIT>:
20000108:	0000b317          	auipc	t1,0xb
2000010c:	d9030313          	addi	t1,t1,-624 # 2000ae98 <_DATA_LMA_START>
20000110:	e0080397          	auipc	t2,0xe0080
20000114:	ef038393          	addi	t2,t2,-272 # 80000 <_DATA_VMA_START>
20000118:	e0087e17          	auipc	t3,0xe0087
2000011c:	400e0e13          	addi	t3,t3,1024 # 87518 <_DATA_VMA_END>

20000120 <_DATA_INIT_BEGIN>:
20000120:	01c3f963          	bgeu	t2,t3,20000132 <_ZERO_BSS>
20000124:	00032283          	lw	t0,0(t1)
20000128:	0053a023          	sw	t0,0(t2)
2000012c:	0311                	c.addi	t1,4
2000012e:	0391                	c.addi	t2,4
20000130:	bfc5                	c.j	20000120 <_DATA_INIT_BEGIN>

20000132 <_ZERO_BSS>:
20000132:	000002b7          	lui	t0,0x0
20000136:	e0087397          	auipc	t2,0xe0087
2000013a:	3e238393          	addi	t2,t2,994 # 87518 <_DATA_VMA_END>
2000013e:	e008be17          	auipc	t3,0xe008b
20000142:	292e0e13          	addi	t3,t3,658 # 8b3d0 <_BSS_VMA_END>

20000146 <_ZERO_BSS_BEGIN>:
20000146:	01c3f663          	bgeu	t2,t3,20000152 <_ZERO_AES>
2000014a:	0053a023          	sw	t0,0(t2)
2000014e:	0391                	c.addi	t2,4
20000150:	bfdd                	c.j	20000146 <_ZERO_BSS_BEGIN>

20000152 <_ZERO_AES>:
20000152:	000002b7          	lui	t0,0x0
20000156:	e0000397          	auipc	t2,0xe0000
2000015a:	00238393          	addi	t2,t2,2 # 158 <_AES_VMA_END>
2000015e:	e0000e17          	auipc	t3,0xe0000
20000162:	ffae0e13          	addi	t3,t3,-6 # 158 <_AES_VMA_END>

20000166 <_ZERO_AES_BEGIN>:
20000166:	01c3f663          	bgeu	t2,t3,20000172 <_FILL_STK>
2000016a:	0053a023          	sw	t0,0(t2)
2000016e:	0391                	c.addi	t2,4
20000170:	bfdd                	c.j	20000166 <_ZERO_AES_BEGIN>

20000172 <_FILL_STK>:
20000172:	0001                	c.nop
20000174:	e0001297          	auipc	t0,0xe0001
20000178:	45028293          	addi	t0,t0,1104 # 15c4 <main>
2000017c:	9282                	c.jalr	t0
2000017e:	0001                	c.nop
20000180:	0001                	c.nop
20000182:	0001                	c.nop
20000184:	0001                	c.nop
20000186:	0001                	c.nop

20000188 <_END>:
20000188:	a001                	c.j	20000188 <_END>

Disassembly of section .retention_reset:

00000000 <_IRESET_ENTRY>:
   0:	a00d                	c.j	22 <_ISTART>
	...

00000022 <_ISTART>:
  22:	00080197          	auipc	gp,0x80
  26:	7de18193          	addi	gp,gp,2014 # 80800 <__global_pointer$>

0000002a <_ISWS_USB_DIS>:
  2a:	801002b7          	lui	t0,0x80100
  2e:	70028293          	addi	t0,t0,1792 # 80100700 <_DATA_LMA_START+0x600f5868>
  32:	04000313          	li	t1,64
  36:	506280a3          	sb	t1,1281(t0)
  3a:	000a0297          	auipc	t0,0xa0
  3e:	fc628293          	addi	t0,t0,-58 # a0000 <_STACK_TOP>
  42:	8116                	c.mv	sp,t0
  44:	00000297          	auipc	t0,0x0
  48:	fbc28293          	addi	t0,t0,-68 # 0 <_IRESET_ENTRY>
  4c:	80029073          	csrw	uitb,t0
  50:	6299                	c.lui	t0,0x6
  52:	3002a2f3          	csrrs	t0,mstatus,t0
  56:	00301073          	fssr	zero
  5a:	00001297          	auipc	t0,0x1
  5e:	0a628293          	addi	t0,t0,166 # 1100 <__vectors>
  62:	30529073          	csrw	mtvec,t0
  66:	7d016073          	csrsi	mmisc_ctl,2
  6a:	e40002b7          	lui	t0,0xe4000
  6e:	4309                	c.li	t1,2
  70:	0062a023          	sw	t1,0(t0) # e4000000 <_DATA_LMA_START+0xc3ff5168>
  74:	7ca022f3          	csrr	t0,mcache_ctl
  78:	0012e293          	ori	t0,t0,1
  7c:	0022e293          	ori	t0,t0,2
  80:	7ca29073          	csrw	mcache_ctl,t0
  84:	0000100f          	fence.i

00000088 <_WAKEUP_FLASH>:
  88:	801402b7          	lui	t0,0x80140
  8c:	0ff00313          	li	t1,255
  90:	4381                	c.li	t2,0
  92:	0ab00e13          	li	t3,171
  96:	326284a3          	sb	t1,809(t0) # 80140329 <_DATA_LMA_START+0x60135491>
  9a:	107280a3          	sb	t2,257(t0)
  9e:	11c28023          	sb	t3,256(t0)

000000a2 <_MSPI_WAIT>:
  a2:	801402b7          	lui	t0,0x80140
  a6:	10228383          	lb	t2,258(t0) # 80140102 <_DATA_LMA_START+0x6013526a>
  aa:	4e05                	c.li	t3,1
  ac:	4ec1                	c.li	t4,16
  ae:	fe7e0ae3          	beq	t3,t2,a2 <_MSPI_WAIT>
  b2:	11d280a3          	sb	t4,257(t0)
  b6:	4281                	c.li	t0,0
  b8:	14000313          	li	t1,320

000000bc <_WAIT_EFUSE_LOAD_AND_FLASH_WAKEUP_FINISH>:
  bc:	0285                	c.addi	t0,1
  be:	fe537fe3          	bgeu	t1,t0,bc <_WAIT_EFUSE_LOAD_AND_FLASH_WAKEUP_FINISH>

000000c2 <_MULTI_ADDRESS_BEGIN>:
  c2:	801402b7          	lui	t0,0x80140
  c6:	1b800313          	li	t1,440
  ca:	00032383          	lw	t2,0(t1)
  ce:	1072a223          	sw	t2,260(t0) # 80140104 <_DATA_LMA_START+0x6013526c>

000000d2 <_IZERO_BSS>:
  d2:	000002b7          	lui	t0,0x0
  d6:	00087397          	auipc	t2,0x87
  da:	44238393          	addi	t2,t2,1090 # 87518 <_DATA_VMA_END>
  de:	0008be17          	auipc	t3,0x8b
  e2:	2f2e0e13          	addi	t3,t3,754 # 8b3d0 <_BSS_VMA_END>

000000e6 <_IZERO_BSS_BEGIN>:
  e6:	01c3f663          	bgeu	t2,t3,f2 <_IZERO_AES>
  ea:	0053a023          	sw	t0,0(t2)
  ee:	0391                	c.addi	t2,4
  f0:	bfdd                	c.j	e6 <_IZERO_BSS_BEGIN>

000000f2 <_IZERO_AES>:
  f2:	000002b7          	lui	t0,0x0
  f6:	00000397          	auipc	t2,0x0
  fa:	06238393          	addi	t2,t2,98 # 158 <_AES_VMA_END>
  fe:	00000e17          	auipc	t3,0x0
 102:	05ae0e13          	addi	t3,t3,90 # 158 <_AES_VMA_END>

00000106 <_IZERO_AES_BEGIN>:
 106:	01c3f663          	bgeu	t2,t3,112 <_IDATA_INIT>
 10a:	0053a023          	sw	t0,0(t2)
 10e:	0391                	c.addi	t2,4
 110:	bfdd                	c.j	106 <_IZERO_AES_BEGIN>

00000112 <_IDATA_INIT>:
 112:	2000b317          	auipc	t1,0x2000b
 116:	d8630313          	addi	t1,t1,-634 # 2000ae98 <_DATA_LMA_START>
 11a:	00080397          	auipc	t2,0x80
 11e:	ee638393          	addi	t2,t2,-282 # 80000 <_DATA_VMA_START>
 122:	00087e17          	auipc	t3,0x87
 126:	3f6e0e13          	addi	t3,t3,1014 # 87518 <_DATA_VMA_END>

0000012a <_IDATA_INIT_BEGIN>:
 12a:	01c3f963          	bgeu	t2,t3,13c <_IMAIN_FUNC>
 12e:	00032283          	lw	t0,0(t1)
 132:	0053a023          	sw	t0,0(t2)
 136:	0311                	c.addi	t1,4
 138:	0391                	c.addi	t2,4
 13a:	bfc5                	c.j	12a <_IDATA_INIT_BEGIN>

0000013c <_IMAIN_FUNC>:
 13c:	0001                	c.nop
 13e:	00001297          	auipc	t0,0x1
 142:	48628293          	addi	t0,t0,1158 # 15c4 <main>
 146:	9282                	c.jalr	t0
 148:	0001                	c.nop
 14a:	0001                	c.nop
 14c:	0001                	c.nop
 14e:	0001                	c.nop
 150:	0001                	c.nop

00000152 <_IEND>:
 152:	a001                	c.j	152 <_IEND>

Disassembly of section .ram_code:

00000200 <delay_ms.constprop.12>:
     200:	801407b7          	lui	a5,0x80140
     204:	0004e737          	lui	a4,0x4e
     208:	2007a603          	lw	a2,512(a5) # 80140200 <_DATA_LMA_START+0x60135368>
     20c:	801406b7          	lui	a3,0x80140
     210:	20070713          	addi	a4,a4,512 # 4e200 <BIN_SIZE+0x3be2e>
     214:	2006a783          	lw	a5,512(a3) # 80140200 <_DATA_LMA_START+0x60135368>
     218:	8f91                	c.sub	a5,a2
     21a:	fef77de3          	bgeu	a4,a5,214 <delay_ms.constprop.12+0x14>
     21e:	8082                	c.jr	ra

00000220 <flash_send_addr>:
     220:	5d05275b          	bfoz	a4,a0,23,16
     224:	801407b7          	lui	a5,0x80140
     228:	801406b7          	lui	a3,0x80140
     22c:	10e78023          	sb	a4,256(a5) # 80140100 <_DATA_LMA_START+0x60135268>
     230:	10268783          	lb	a5,258(a3) # 80140102 <_DATA_LMA_START+0x6013526a>
     234:	fe07fe5b          	bbs	a5,0,230 <flash_send_addr+0x10>
     238:	3c8527db          	bfoz	a5,a0,15,8
     23c:	80140737          	lui	a4,0x80140
     240:	10f68023          	sb	a5,256(a3)
     244:	10270783          	lb	a5,258(a4) # 80140102 <_DATA_LMA_START+0x6013526a>
     248:	fe07fe5b          	bbs	a5,0,244 <flash_send_addr+0x24>
     24c:	0ff57513          	andi	a0,a0,255
     250:	801406b7          	lui	a3,0x80140
     254:	10a70023          	sb	a0,256(a4)
     258:	10268783          	lb	a5,258(a3) # 80140102 <_DATA_LMA_START+0x6013526a>
     25c:	fe07fe5b          	bbs	a5,0,258 <flash_send_addr+0x38>
     260:	00008067          	ret

00000264 <flash_send_cmd>:
     264:	801407b7          	lui	a5,0x80140
     268:	10178703          	lb	a4,257(a5) # 80140101 <_DATA_LMA_START+0x60135269>
     26c:	0ff77713          	andi	a4,a4,255
     270:	01076713          	ori	a4,a4,16
     274:	10e780a3          	sb	a4,257(a5)
     278:	0001                	c.nop
     27a:	0001                	c.nop
     27c:	0001                	c.nop
     27e:	0001                	c.nop
     280:	0001                	c.nop
     282:	0001                	c.nop
     284:	0001                	c.nop
     286:	0001                	c.nop
     288:	0001                	c.nop
     28a:	0001                	c.nop
     28c:	10178683          	lb	a3,257(a5)
     290:	80140737          	lui	a4,0x80140
     294:	0ef6f693          	andi	a3,a3,239
     298:	10d780a3          	sb	a3,257(a5)
     29c:	10a78023          	sb	a0,256(a5)
     2a0:	10270783          	lb	a5,258(a4) # 80140102 <_DATA_LMA_START+0x6013526a>
     2a4:	fe07fe5b          	bbs	a5,0,2a0 <flash_send_cmd+0x3c>
     2a8:	00008067          	ret

000002ac <clock_set_32k_tick>:
     2ac:	801406b7          	lui	a3,0x80140
     2b0:	20a68783          	lb	a5,522(a3) # 8014020a <_DATA_LMA_START+0x60135372>
     2b4:	80140737          	lui	a4,0x80140
     2b8:	0ff7f793          	andi	a5,a5,255
     2bc:	0017e793          	ori	a5,a5,1
     2c0:	20f68523          	sb	a5,522(a3)
     2c4:	20b70683          	lb	a3,523(a4) # 8014020b <_DATA_LMA_START+0x60135373>
     2c8:	20b70793          	addi	a5,a4,523
     2cc:	fe66fc5b          	bbs	a3,6,2c4 <clock_set_32k_tick+0x18>
     2d0:	20a72623          	sw	a0,524(a4)
     2d4:	4721                	c.li	a4,8
     2d6:	00e78023          	sb	a4,0(a5)
     2da:	0001                	c.nop
     2dc:	0001                	c.nop
     2de:	0001                	c.nop
     2e0:	0001                	c.nop
     2e2:	0001                	c.nop
     2e4:	0001                	c.nop
     2e6:	0001                	c.nop
     2e8:	0001                	c.nop
     2ea:	0001                	c.nop
     2ec:	0001                	c.nop
     2ee:	0001                	c.nop
     2f0:	0001                	c.nop
     2f2:	0001                	c.nop
     2f4:	0001                	c.nop
     2f6:	0001                	c.nop
     2f8:	00000013          	nop
     2fc:	801407b7          	lui	a5,0x80140
     300:	20b78703          	lb	a4,523(a5) # 8014020b <_DATA_LMA_START+0x60135373>
     304:	fe377e5b          	bbs	a4,3,300 <clock_set_32k_tick+0x54>
     308:	00008067          	ret

0000030c <analog_read_reg32.constprop.4>:
     30c:	300027f3          	csrr	a5,mstatus
     310:	8ba1                	c.andi	a5,8
     312:	c789                	c.beqz	a5,31c <analog_read_reg32.constprop.4+0x10>
     314:	30047773          	csrrci	a4,mstatus,8
     318:	0ff0000f          	fence
     31c:	80140737          	lui	a4,0x80140
     320:	00400693          	li	a3,4
     324:	18d701a3          	sb	a3,387(a4) # 80140183 <_DATA_LMA_START+0x601352eb>
     328:	06000693          	li	a3,96
     32c:	18d70023          	sb	a3,384(a4)
     330:	04000613          	li	a2,64
     334:	801406b7          	lui	a3,0x80140
     338:	18c70123          	sb	a2,386(a4)
     33c:	18268703          	lb	a4,386(a3) # 80140182 <_DATA_LMA_START+0x601352ea>
     340:	fe777e5b          	bbs	a4,7,33c <analog_read_reg32.constprop.4+0x30>
     344:	1846a503          	lw	a0,388(a3)
     348:	00078663          	beqz	a5,354 <analog_read_reg32.constprop.4+0x48>
     34c:	3007a7f3          	csrrs	a5,mstatus,a5
     350:	0ff0000f          	fence
     354:	00008067          	ret

00000358 <clock_get_32k_tick>:
     358:	1141                	c.addi	sp,-16
     35a:	c422                	c.swsp	s0,8(sp)
     35c:	c606                	c.swsp	ra,12(sp)
     35e:	377d                	c.jal	30c <analog_read_reg32.constprop.4>
     360:	00a00433          	add	s0,zero,a0
     364:	fa9ff0ef          	jal	ra,30c <analog_read_reg32.constprop.4>
     368:	40850733          	sub	a4,a0,s0
     36c:	842a                	c.mv	s0,a0
     36e:	be176b5b          	bnec	a4,1,364 <clock_get_32k_tick+0xc>
     372:	40b2                	c.lwsp	ra,12(sp)
     374:	4422                	c.lwsp	s0,8(sp)
     376:	0141                	c.addi	sp,16
     378:	00008067          	ret

0000037c <pm_stimer_recover>:
     37c:	1141                	c.addi	sp,-16
     37e:	80140737          	lui	a4,0x80140
     382:	c606                	c.swsp	ra,12(sp)
     384:	4789                	c.li	a5,2
     386:	20f70c23          	sb	a5,536(a4) # 80140218 <_DATA_LMA_START+0x60135380>
     38a:	20a70783          	lb	a5,522(a4)
     38e:	0ff7f793          	andi	a5,a5,255
     392:	00c7e793          	ori	a5,a5,12
     396:	20f70523          	sb	a5,522(a4)
     39a:	3f7d                	c.jal	358 <clock_get_32k_tick>
     39c:	000007b7          	lui	a5,0x0
     3a0:	15878713          	addi	a4,a5,344 # 158 <_AES_VMA_END>
     3a4:	00474703          	lbu	a4,4(a4)
     3a8:	15878793          	addi	a5,a5,344
     3ac:	cf01                	c.beqz	a4,3c4 <pm_stimer_recover+0x48>
     3ae:	4b98                	c.lw	a4,16(a5)
     3b0:	5f90                	c.lw	a2,56(a5)
     3b2:	40e50733          	sub	a4,a0,a4
     3b6:	47d4                	c.lw	a3,12(a5)
     3b8:	0705                	c.addi	a4,1
     3ba:	8315                	c.srli	a4,0x5
     3bc:	c4c716ff          	maddr32	a3,a4,a2
     3c0:	c794                	c.sw	a3,8(a5)
     3c2:	a829                	c.j	3dc <pm_stimer_recover+0x60>
     3c4:	4b98                	c.lw	a4,16(a5)
     3c6:	5f94                	c.lw	a3,56(a5)
     3c8:	40e50733          	sub	a4,a0,a4
     3cc:	0705                	c.addi	a4,1
     3ce:	02d70733          	mul	a4,a4,a3
     3d2:	47d4                	c.lw	a3,12(a5)
     3d4:	8315                	c.srli	a4,0x5
     3d6:	9736                	c.add	a4,a3
     3d8:	00e7a423          	sw	a4,8(a5)
     3dc:	4b98                	c.lw	a4,16(a5)
     3de:	4794                	c.lw	a3,8(a5)
     3e0:	40e50733          	sub	a4,a0,a4
     3e4:	0705                	c.addi	a4,1
     3e6:	0505                	c.addi	a0,1
     3e8:	0685                	c.addi	a3,1
     3ea:	d788                	c.sw	a0,40(a5)
     3ec:	02e7a223          	sw	a4,36(a5)
     3f0:	80140637          	lui	a2,0x80140
     3f4:	801407b7          	lui	a5,0x80140
     3f8:	20d7a023          	sw	a3,512(a5) # 80140200 <_DATA_LMA_START+0x60135368>
     3fc:	20b60783          	lb	a5,523(a2) # 8014020b <_DATA_LMA_START+0x60135373>
     400:	be77fe5b          	bbc	a5,7,3fc <pm_stimer_recover+0x80>
     404:	20060c23          	sb	zero,536(a2)
     408:	40b2                	c.lwsp	ra,12(sp)
     40a:	0141                	c.addi	sp,16
     40c:	00008067          	ret

00000410 <plic_exit_critical_sec>:
     410:	000007b7          	lui	a5,0x0
     414:	15878793          	addi	a5,a5,344 # 158 <_AES_VMA_END>
     418:	03c78783          	lb	a5,60(a5)
     41c:	0ff7f793          	andi	a5,a5,255
     420:	c795                	c.beqz	a5,44c <plic_exit_critical_sec+0x3c>
     422:	c50d                	c.beqz	a0,44c <plic_exit_critical_sec+0x3c>
     424:	300027f3          	csrr	a5,mstatus
     428:	8ba1                	c.andi	a5,8
     42a:	0ff5f593          	andi	a1,a1,255
     42e:	c78d                	c.beqz	a5,458 <plic_exit_critical_sec+0x48>
     430:	30047773          	csrrci	a4,mstatus,8
     434:	0ff0000f          	fence
     438:	e4200737          	lui	a4,0xe4200
     43c:	c30c                	c.sw	a1,0(a4)
     43e:	0ff0000f          	fence
     442:	3007a7f3          	csrrs	a5,mstatus,a5
     446:	0ff0000f          	fence
     44a:	8082                	c.jr	ra
     44c:	cd81                	c.beqz	a1,464 <plic_exit_critical_sec+0x54>
     44e:	3005a5f3          	csrrs	a1,mstatus,a1
     452:	0ff0000f          	fence
     456:	8082                	c.jr	ra
     458:	e42007b7          	lui	a5,0xe4200
     45c:	00b7a023          	sw	a1,0(a5) # e4200000 <_DATA_LMA_START+0xc41f5168>
     460:	0ff0000f          	fence
     464:	00008067          	ret

00000468 <plic_enter_critical_sec>:
     468:	000007b7          	lui	a5,0x0
     46c:	15878793          	addi	a5,a5,344 # 158 <_AES_VMA_END>
     470:	03c78783          	lb	a5,60(a5)
     474:	0ff7f793          	andi	a5,a5,255
     478:	cb85                	c.beqz	a5,4a8 <plic_enter_critical_sec+0x40>
     47a:	c51d                	c.beqz	a0,4a8 <plic_enter_critical_sec+0x40>
     47c:	e4200737          	lui	a4,0xe4200
     480:	4308                	c.lw	a0,0(a4)
     482:	04b57163          	bgeu	a0,a1,4c4 <plic_enter_critical_sec+0x5c>
     486:	300027f3          	csrr	a5,mstatus
     48a:	8ba1                	c.andi	a5,8
     48c:	cb85                	c.beqz	a5,4bc <plic_enter_critical_sec+0x54>
     48e:	300476f3          	csrrci	a3,mstatus,8
     492:	0ff0000f          	fence
     496:	c30c                	c.sw	a1,0(a4)
     498:	0ff0000f          	fence
     49c:	3007a7f3          	csrrs	a5,mstatus,a5
     4a0:	0ff0000f          	fence
     4a4:	00008067          	ret
     4a8:	30002573          	csrr	a0,mstatus
     4ac:	8921                	c.andi	a0,8
     4ae:	c919                	c.beqz	a0,4c4 <plic_enter_critical_sec+0x5c>
     4b0:	300477f3          	csrrci	a5,mstatus,8
     4b4:	0ff0000f          	fence
     4b8:	00008067          	ret
     4bc:	00b72023          	sw	a1,0(a4) # e4200000 <_DATA_LMA_START+0xc41f5168>
     4c0:	0ff0000f          	fence
     4c4:	00008067          	ret

000004c8 <flash_mspi_read_ram>:
     4c8:	7179                	c.addi16sp	sp,-48
     4ca:	d226                	c.swsp	s1,36(sp)
     4cc:	000004b7          	lui	s1,0x0
     4d0:	15848493          	addi	s1,s1,344 # 158 <_AES_VMA_END>
     4d4:	d04a                	c.swsp	s2,32(sp)
     4d6:	c65e                	c.swsp	s7,12(sp)
     4d8:	892a                	c.mv	s2,a0
     4da:	8bae                	c.mv	s7,a1
     4dc:	0404c503          	lbu	a0,64(s1)
     4e0:	0414c583          	lbu	a1,65(s1)
     4e4:	d422                	c.swsp	s0,40(sp)
     4e6:	ce4e                	c.swsp	s3,28(sp)
     4e8:	cc52                	c.swsp	s4,24(sp)
     4ea:	ca56                	c.swsp	s5,20(sp)
     4ec:	c85a                	c.swsp	s6,16(sp)
     4ee:	d606                	c.swsp	ra,44(sp)
     4f0:	8b32                	c.mv	s6,a2
     4f2:	8ab6                	c.mv	s5,a3
     4f4:	843a                	c.mv	s0,a4
     4f6:	8a3e                	c.mv	s4,a5
     4f8:	f71ff0ef          	jal	ra,468 <plic_enter_critical_sec>
     4fc:	80140637          	lui	a2,0x80140
     500:	00a009b3          	add	s3,zero,a0
     504:	10260783          	lb	a5,258(a2) # 80140102 <_DATA_LMA_START+0x6013526a>
     508:	fe07fe5b          	bbs	a5,0,504 <flash_mspi_read_ram+0x3c>
     50c:	10160783          	lb	a5,257(a2)
     510:	80140737          	lui	a4,0x80140
     514:	0ff7f793          	andi	a5,a5,255
     518:	0107e793          	ori	a5,a5,16
     51c:	10f600a3          	sb	a5,257(a2)
     520:	32870783          	lb	a5,808(a4) # 80140328 <_DATA_LMA_START+0x60135490>
     524:	be37fe5b          	bbc	a5,3,520 <flash_mspi_read_ram+0x58>
     528:	10170783          	lb	a5,257(a4)
     52c:	854a                	c.mv	a0,s2
     52e:	0fd7f793          	andi	a5,a5,253
     532:	10f700a3          	sb	a5,257(a4)
     536:	10170783          	lb	a5,257(a4)
     53a:	0f37f793          	andi	a5,a5,243
     53e:	10f700a3          	sb	a5,257(a4)
     542:	330d                	c.jal	264 <flash_send_cmd>
     544:	0e0b1e63          	bnez	s6,640 <flash_mspi_read_ram+0x178>
     548:	020a8063          	beqz	s5,568 <flash_mspi_read_ram+0xa0>
     54c:	00000713          	li	a4,0
     550:	80140637          	lui	a2,0x80140
     554:	10060023          	sb	zero,256(a2) # 80140100 <_DATA_LMA_START+0x60135268>
     558:	10260783          	lb	a5,258(a2)
     55c:	fe07fe5b          	bbs	a5,0,558 <flash_mspi_read_ram+0x90>
     560:	00170713          	addi	a4,a4,1
     564:	ff5718e3          	bne	a4,s5,554 <flash_mspi_read_ram+0x8c>
     568:	01b96cdb          	bnec	s2,59,580 <flash_mspi_read_ram+0xb8>
     56c:	80140737          	lui	a4,0x80140
     570:	10170783          	lb	a5,257(a4) # 80140101 <_DATA_LMA_START+0x60135269>
     574:	0f37f793          	andi	a5,a5,243
     578:	0047e793          	ori	a5,a5,4
     57c:	10f700a3          	sb	a5,257(a4)
     580:	801406b7          	lui	a3,0x80140
     584:	10168783          	lb	a5,257(a3) # 80140101 <_DATA_LMA_START+0x60135269>
     588:	80140737          	lui	a4,0x80140
     58c:	0ff7f793          	andi	a5,a5,255
     590:	0027e793          	ori	a5,a5,2
     594:	10f680a3          	sb	a5,257(a3)
     598:	10068023          	sb	zero,256(a3)
     59c:	10270783          	lb	a5,258(a4) # 80140102 <_DATA_LMA_START+0x6013526a>
     5a0:	fe07fe5b          	bbs	a5,0,59c <flash_mspi_read_ram+0xd4>
     5a4:	10170783          	lb	a5,257(a4)
     5a8:	801406b7          	lui	a3,0x80140
     5ac:	0ff7f793          	andi	a5,a5,255
     5b0:	0017e793          	ori	a5,a5,1
     5b4:	10f700a3          	sb	a5,257(a4)
     5b8:	10268783          	lb	a5,258(a3) # 80140102 <_DATA_LMA_START+0x6013526a>
     5bc:	fe07fe5b          	bbs	a5,0,5b8 <flash_mspi_read_ram+0xf0>
     5c0:	020a0263          	beqz	s4,5e4 <flash_mspi_read_ram+0x11c>
     5c4:	008a0a33          	add	s4,s4,s0
     5c8:	801406b7          	lui	a3,0x80140
     5cc:	10068783          	lb	a5,256(a3) # 80140100 <_DATA_LMA_START+0x60135268>
     5d0:	00140413          	addi	s0,s0,1
     5d4:	fef40fa3          	sb	a5,-1(s0)
     5d8:	10268783          	lb	a5,258(a3)
     5dc:	fe07fe5b          	bbs	a5,0,5d8 <flash_mspi_read_ram+0x110>
     5e0:	ff4416e3          	bne	s0,s4,5cc <flash_mspi_read_ram+0x104>
     5e4:	801407b7          	lui	a5,0x80140
     5e8:	10178703          	lb	a4,257(a5) # 80140101 <_DATA_LMA_START+0x60135269>
     5ec:	0fe77713          	andi	a4,a4,254
     5f0:	10e780a3          	sb	a4,257(a5)
     5f4:	01b968db          	bnec	s2,59,604 <flash_mspi_read_ram+0x13c>
     5f8:	10178703          	lb	a4,257(a5)
     5fc:	0f377713          	andi	a4,a4,243
     600:	10e780a3          	sb	a4,257(a5)
     604:	80140737          	lui	a4,0x80140
     608:	10170783          	lb	a5,257(a4) # 80140101 <_DATA_LMA_START+0x60135269>
     60c:	0ff7f793          	andi	a5,a5,255
     610:	0107e793          	ori	a5,a5,16
     614:	10f700a3          	sb	a5,257(a4)
     618:	0001                	c.nop
     61a:	0001                	c.nop
     61c:	0001                	c.nop
     61e:	0001                	c.nop
     620:	0001                	c.nop
     622:	5422                	c.lwsp	s0,40(sp)
     624:	0404c503          	lbu	a0,64(s1)
     628:	50b2                	c.lwsp	ra,44(sp)
     62a:	5492                	c.lwsp	s1,36(sp)
     62c:	5902                	c.lwsp	s2,32(sp)
     62e:	4a62                	c.lwsp	s4,24(sp)
     630:	4ad2                	c.lwsp	s5,20(sp)
     632:	4b42                	c.lwsp	s6,16(sp)
     634:	4bb2                	c.lwsp	s7,12(sp)
     636:	85ce                	c.mv	a1,s3
     638:	49f2                	c.lwsp	s3,28(sp)
     63a:	6145                	c.addi16sp	sp,48
     63c:	dd5ff06f          	j	410 <plic_exit_critical_sec>
     640:	855e                	c.mv	a0,s7
     642:	3ef9                	c.jal	220 <flash_send_addr>
     644:	f05ff06f          	j	548 <flash_mspi_read_ram+0x80>

00000648 <flash_mspi_read_ram.constprop.7>:
     648:	1101                	c.addi	sp,-32
     64a:	c64e                	c.swsp	s3,12(sp)
     64c:	000009b7          	lui	s3,0x0
     650:	15898993          	addi	s3,s3,344 # 158 <_AES_VMA_END>
     654:	cc22                	c.swsp	s0,24(sp)
     656:	c256                	c.swsp	s5,4(sp)
     658:	842e                	c.mv	s0,a1
     65a:	8aaa                	c.mv	s5,a0
     65c:	0419c583          	lbu	a1,65(s3)
     660:	0409c503          	lbu	a0,64(s3)
     664:	c84a                	c.swsp	s2,16(sp)
     666:	c452                	c.swsp	s4,8(sp)
     668:	ce06                	c.swsp	ra,28(sp)
     66a:	ca26                	c.swsp	s1,20(sp)
     66c:	8932                	c.mv	s2,a2
     66e:	3bed                	c.jal	468 <plic_enter_critical_sec>
     670:	80140737          	lui	a4,0x80140
     674:	00a00a33          	add	s4,zero,a0
     678:	10270783          	lb	a5,258(a4) # 80140102 <_DATA_LMA_START+0x6013526a>
     67c:	fe07fe5b          	bbs	a5,0,678 <flash_mspi_read_ram.constprop.7+0x30>
     680:	10170783          	lb	a5,257(a4)
     684:	801404b7          	lui	s1,0x80140
     688:	0ff7f793          	andi	a5,a5,255
     68c:	0107e793          	ori	a5,a5,16
     690:	10f700a3          	sb	a5,257(a4)
     694:	32848783          	lb	a5,808(s1) # 80140328 <_DATA_LMA_START+0x60135490>
     698:	be37fe5b          	bbc	a5,3,694 <flash_mspi_read_ram.constprop.7+0x4c>
     69c:	10148783          	lb	a5,257(s1)
     6a0:	03b00513          	li	a0,59
     6a4:	0fd7f793          	andi	a5,a5,253
     6a8:	10f480a3          	sb	a5,257(s1)
     6ac:	10148783          	lb	a5,257(s1)
     6b0:	0f37f793          	andi	a5,a5,243
     6b4:	10f480a3          	sb	a5,257(s1)
     6b8:	badff0ef          	jal	ra,264 <flash_send_cmd>
     6bc:	01500533          	add	a0,zero,s5
     6c0:	b61ff0ef          	jal	ra,220 <flash_send_addr>
     6c4:	80140737          	lui	a4,0x80140
     6c8:	10048023          	sb	zero,256(s1)
     6cc:	10270783          	lb	a5,258(a4) # 80140102 <_DATA_LMA_START+0x6013526a>
     6d0:	fe07fe5b          	bbs	a5,0,6cc <flash_mspi_read_ram.constprop.7+0x84>
     6d4:	10170783          	lb	a5,257(a4)
     6d8:	801406b7          	lui	a3,0x80140
     6dc:	0f37f793          	andi	a5,a5,243
     6e0:	0047e793          	ori	a5,a5,4
     6e4:	10f700a3          	sb	a5,257(a4)
     6e8:	10170783          	lb	a5,257(a4)
     6ec:	0ff7f793          	andi	a5,a5,255
     6f0:	0027e793          	ori	a5,a5,2
     6f4:	10f700a3          	sb	a5,257(a4)
     6f8:	10070023          	sb	zero,256(a4)
     6fc:	10268783          	lb	a5,258(a3) # 80140102 <_DATA_LMA_START+0x6013526a>
     700:	fe07fe5b          	bbs	a5,0,6fc <flash_mspi_read_ram.constprop.7+0xb4>
     704:	10168783          	lb	a5,257(a3)
     708:	80140737          	lui	a4,0x80140
     70c:	0ff7f793          	andi	a5,a5,255
     710:	0017e793          	ori	a5,a5,1
     714:	10f680a3          	sb	a5,257(a3)
     718:	10270783          	lb	a5,258(a4) # 80140102 <_DATA_LMA_START+0x6013526a>
     71c:	fe07fe5b          	bbs	a5,0,718 <flash_mspi_read_ram.constprop.7+0xd0>
     720:	02090263          	beqz	s2,744 <flash_mspi_read_ram.constprop.7+0xfc>
     724:	01240633          	add	a2,s0,s2
     728:	80140737          	lui	a4,0x80140
     72c:	10070783          	lb	a5,256(a4) # 80140100 <_DATA_LMA_START+0x60135268>
     730:	00140413          	addi	s0,s0,1
     734:	fef40fa3          	sb	a5,-1(s0)
     738:	10270783          	lb	a5,258(a4)
     73c:	fe07fe5b          	bbs	a5,0,738 <flash_mspi_read_ram.constprop.7+0xf0>
     740:	fec416e3          	bne	s0,a2,72c <flash_mspi_read_ram.constprop.7+0xe4>
     744:	801407b7          	lui	a5,0x80140
     748:	10178703          	lb	a4,257(a5) # 80140101 <_DATA_LMA_START+0x60135269>
     74c:	0fe77713          	andi	a4,a4,254
     750:	10e780a3          	sb	a4,257(a5)
     754:	10178703          	lb	a4,257(a5)
     758:	0f377713          	andi	a4,a4,243
     75c:	10e780a3          	sb	a4,257(a5)
     760:	10178703          	lb	a4,257(a5)
     764:	0ff77713          	andi	a4,a4,255
     768:	01076713          	ori	a4,a4,16
     76c:	10e780a3          	sb	a4,257(a5)
     770:	0001                	c.nop
     772:	0001                	c.nop
     774:	0001                	c.nop
     776:	0001                	c.nop
     778:	0001                	c.nop
     77a:	4462                	c.lwsp	s0,24(sp)
     77c:	0409c503          	lbu	a0,64(s3)
     780:	40f2                	c.lwsp	ra,28(sp)
     782:	44d2                	c.lwsp	s1,20(sp)
     784:	4942                	c.lwsp	s2,16(sp)
     786:	49b2                	c.lwsp	s3,12(sp)
     788:	4a92                	c.lwsp	s5,4(sp)
     78a:	85d2                	c.mv	a1,s4
     78c:	4a22                	c.lwsp	s4,8(sp)
     78e:	6105                	c.addi16sp	sp,32
     790:	c81ff06f          	j	410 <plic_exit_critical_sec>

00000794 <analog_write_reg8>:
     794:	30002673          	csrr	a2,mstatus
     798:	8a21                	c.andi	a2,8
     79a:	c609                	c.beqz	a2,7a4 <analog_write_reg8+0x10>
     79c:	300477f3          	csrrci	a5,mstatus,8
     7a0:	0ff0000f          	fence
     7a4:	80140737          	lui	a4,0x80140
     7a8:	18a70023          	sb	a0,384(a4) # 80140180 <_DATA_LMA_START+0x601352e8>
     7ac:	18b70223          	sb	a1,388(a4)
     7b0:	06000693          	li	a3,96
     7b4:	801407b7          	lui	a5,0x80140
     7b8:	18d70123          	sb	a3,386(a4)
     7bc:	18278703          	lb	a4,386(a5) # 80140182 <_DATA_LMA_START+0x601352ea>
     7c0:	fe777e5b          	bbs	a4,7,7bc <analog_write_reg8+0x28>
     7c4:	18078123          	sb	zero,386(a5)
     7c8:	00060663          	beqz	a2,7d4 <analog_write_reg8+0x40>
     7cc:	30062673          	csrrs	a2,mstatus,a2
     7d0:	0ff0000f          	fence
     7d4:	00008067          	ret

000007d8 <analog_read_reg8>:
     7d8:	300026f3          	csrr	a3,mstatus
     7dc:	8aa1                	c.andi	a3,8
     7de:	c689                	c.beqz	a3,7e8 <analog_read_reg8+0x10>
     7e0:	300477f3          	csrrci	a5,mstatus,8
     7e4:	0ff0000f          	fence
     7e8:	801407b7          	lui	a5,0x80140
     7ec:	18a78023          	sb	a0,384(a5) # 80140180 <_DATA_LMA_START+0x601352e8>
     7f0:	00100713          	li	a4,1
     7f4:	18e781a3          	sb	a4,387(a5)
     7f8:	04000613          	li	a2,64
     7fc:	80140737          	lui	a4,0x80140
     800:	18c78123          	sb	a2,386(a5)
     804:	18270783          	lb	a5,386(a4) # 80140182 <_DATA_LMA_START+0x601352ea>
     808:	fe77fe5b          	bbs	a5,7,804 <analog_read_reg8+0x2c>
     80c:	18470503          	lb	a0,388(a4)
     810:	0ff57513          	andi	a0,a0,255
     814:	00068663          	beqz	a3,820 <analog_read_reg8+0x48>
     818:	3006a6f3          	csrrs	a3,mstatus,a3
     81c:	0ff0000f          	fence
     820:	00008067          	ret

00000824 <clock_init_ram.constprop.11>:
     824:	1141                	c.addi	sp,-16
     826:	80140737          	lui	a4,0x80140
     82a:	c606                	c.swsp	ra,12(sp)
     82c:	c422                	c.swsp	s0,8(sp)
     82e:	c226                	c.swsp	s1,4(sp)
     830:	10270783          	lb	a5,258(a4) # 80140102 <_DATA_LMA_START+0x6013526a>
     834:	fe07fe5b          	bbs	a5,0,830 <clock_init_ram.constprop.11+0xc>
     838:	10170783          	lb	a5,257(a4)
     83c:	801404b7          	lui	s1,0x80140
     840:	0ff7f793          	andi	a5,a5,255
     844:	0107e793          	ori	a5,a5,16
     848:	10f700a3          	sb	a5,257(a4)
     84c:	32848783          	lb	a5,808(s1) # 80140328 <_DATA_LMA_START+0x60135490>
     850:	be37fe5b          	bbc	a5,3,84c <clock_init_ram.constprop.11+0x28>
     854:	1e848783          	lb	a5,488(s1)
     858:	08000513          	li	a0,128
     85c:	8bbd                	c.andi	a5,15
     85e:	1ef48423          	sb	a5,488(s1)
     862:	3f9d                	c.jal	7d8 <analog_read_reg8>
     864:	0e057593          	andi	a1,a0,224
     868:	0105e593          	ori	a1,a1,16
     86c:	08000513          	li	a0,128
     870:	f25ff0ef          	jal	ra,794 <analog_write_reg8>
     874:	00900513          	li	a0,9
     878:	f61ff0ef          	jal	ra,7d8 <analog_read_reg8>
     87c:	0f357593          	andi	a1,a0,243
     880:	0085e593          	ori	a1,a1,8
     884:	4525                	c.li	a0,9
     886:	3739                	c.jal	794 <analog_write_reg8>
     888:	0c000793          	li	a5,192
     88c:	50dc140b          	addigp	s0,27916 # 8750c <sys_clk>
     890:	00f41023          	sh	a5,0(s0)
     894:	08100513          	li	a0,129
     898:	4791                	c.li	a5,4
     89a:	1ef48da3          	sb	a5,507(s1)
     89e:	3f2d                	c.jal	7d8 <analog_read_reg8>
     8a0:	04056593          	ori	a1,a0,64
     8a4:	0ff5f593          	andi	a1,a1,255
     8a8:	08100513          	li	a0,129
     8ac:	ee9ff0ef          	jal	ra,794 <analog_write_reg8>
     8b0:	08800513          	li	a0,136
     8b4:	f25ff0ef          	jal	ra,7d8 <analog_read_reg8>
     8b8:	be557c5b          	bbc	a0,5,8b0 <clock_init_ram.constprop.11+0x8c>
     8bc:	08100513          	li	a0,129
     8c0:	f19ff0ef          	jal	ra,7d8 <analog_read_reg8>
     8c4:	0bf57593          	andi	a1,a0,191
     8c8:	08100513          	li	a0,129
     8cc:	ec9ff0ef          	jal	ra,794 <analog_write_reg8>
     8d0:	801407b7          	lui	a5,0x80140
     8d4:	1e978703          	lb	a4,489(a5) # 801401e9 <_DATA_LMA_START+0x60135351>
     8d8:	8b3d                	c.andi	a4,15
     8da:	04076713          	ori	a4,a4,64
     8de:	1ee784a3          	sb	a4,489(a5)
     8e2:	1e878703          	lb	a4,488(a5)
     8e6:	f8076713          	ori	a4,a4,-128
     8ea:	0ff77713          	andi	a4,a4,255
     8ee:	1ee78423          	sb	a4,488(a5)
     8f2:	1e878703          	lb	a4,488(a5)
     8f6:	f8076713          	ori	a4,a4,-128
     8fa:	0ff77713          	andi	a4,a4,255
     8fe:	1ee78423          	sb	a4,488(a5)
     902:	1d878703          	lb	a4,472(a5)
     906:	00045683          	lhu	a3,0(s0)
     90a:	0fb77713          	andi	a4,a4,251
     90e:	1ce78c23          	sb	a4,472(a5)
     912:	1d878703          	lb	a4,472(a5)
     916:	8689                	c.srai	a3,0x2
     918:	00d402a3          	sb	a3,5(s0)
     91c:	0fc77713          	andi	a4,a4,252
     920:	1ce78c23          	sb	a4,472(a5)
     924:	1e878703          	lb	a4,488(a5)
     928:	0f077713          	andi	a4,a4,240
     92c:	00876713          	ori	a4,a4,8
     930:	1ee78423          	sb	a4,488(a5)
     934:	1e878703          	lb	a4,488(a5)
     938:	00045683          	lhu	a3,0(s0)
     93c:	08f77713          	andi	a4,a4,143
     940:	868d                	c.srai	a3,0x3
     942:	00d40123          	sb	a3,2(s0)
     946:	02076713          	ori	a4,a4,32
     94a:	1ee78423          	sb	a4,488(a5)
     94e:	0ff6f693          	andi	a3,a3,255
     952:	00d401a3          	sb	a3,3(s0)
     956:	00d40223          	sb	a3,4(s0)
     95a:	40b2                	c.lwsp	ra,12(sp)
     95c:	4422                	c.lwsp	s0,8(sp)
     95e:	4492                	c.lwsp	s1,4(sp)
     960:	0141                	c.addi	sp,16
     962:	8082                	c.jr	ra

00000964 <pm_wait_bbpll_done>:
     964:	1101                	c.addi	sp,-32
     966:	08100513          	li	a0,129
     96a:	cc22                	c.swsp	s0,24(sp)
     96c:	ca26                	c.swsp	s1,20(sp)
     96e:	c84a                	c.swsp	s2,16(sp)
     970:	ce06                	c.swsp	ra,28(sp)
     972:	359d                	c.jal	7d8 <analog_read_reg8>
     974:	04056593          	ori	a1,a0,64
     978:	892a                	c.mv	s2,a0
     97a:	0ff5f593          	andi	a1,a1,255
     97e:	08100513          	li	a0,129
     982:	0bf97913          	andi	s2,s2,191
     986:	4481                	c.li	s1,0
     988:	4475                	c.li	s0,29
     98a:	3529                	c.jal	794 <analog_write_reg8>
     98c:	000107a3          	sb	zero,15(sp)
     990:	00f10783          	lb	a5,15(sp)
     994:	0ff7f793          	andi	a5,a5,255
     998:	02f46063          	bltu	s0,a5,9b8 <pm_wait_bbpll_done+0x54>
     99c:	0001                	c.nop
     99e:	00f10783          	lb	a5,15(sp)
     9a2:	0785                	c.addi	a5,1
     9a4:	0ff7f793          	andi	a5,a5,255
     9a8:	00f107a3          	sb	a5,15(sp)
     9ac:	00f10783          	lb	a5,15(sp)
     9b0:	0ff7f793          	andi	a5,a5,255
     9b4:	fef474e3          	bgeu	s0,a5,99c <pm_wait_bbpll_done+0x38>
     9b8:	08800513          	li	a0,136
     9bc:	e1dff0ef          	jal	ra,7d8 <analog_read_reg8>
     9c0:	4255765b          	bbs	a0,5,9ec <pm_wait_bbpll_done+0x88>
     9c4:	cc95                	c.beqz	s1,a00 <pm_wait_bbpll_done+0x9c>
     9c6:	0414d35b          	beqc	s1,1,a0c <pm_wait_bbpll_done+0xa8>
     9ca:	85ca                	c.mv	a1,s2
     9cc:	08100513          	li	a0,129
     9d0:	dc5ff0ef          	jal	ra,794 <analog_write_reg8>
     9d4:	0024d65b          	beqc	s1,2,9e0 <pm_wait_bbpll_done+0x7c>
     9d8:	0485                	c.addi	s1,1
     9da:	0ff4f493          	andi	s1,s1,255
     9de:	b77d                	c.j	98c <pm_wait_bbpll_done+0x28>
     9e0:	40f2                	c.lwsp	ra,28(sp)
     9e2:	4462                	c.lwsp	s0,24(sp)
     9e4:	44d2                	c.lwsp	s1,20(sp)
     9e6:	4942                	c.lwsp	s2,16(sp)
     9e8:	6105                	c.addi16sp	sp,32
     9ea:	8082                	c.jr	ra
     9ec:	4462                	c.lwsp	s0,24(sp)
     9ee:	40f2                	c.lwsp	ra,28(sp)
     9f0:	44d2                	c.lwsp	s1,20(sp)
     9f2:	85ca                	c.mv	a1,s2
     9f4:	4942                	c.lwsp	s2,16(sp)
     9f6:	08100513          	li	a0,129
     9fa:	6105                	c.addi16sp	sp,32
     9fc:	d99ff06f          	j	794 <analog_write_reg8>
     a00:	04600593          	li	a1,70
     a04:	4505                	c.li	a0,1
     a06:	3379                	c.jal	794 <analog_write_reg8>
     a08:	fd1ff06f          	j	9d8 <pm_wait_bbpll_done+0x74>
     a0c:	04300593          	li	a1,67
     a10:	4505                	c.li	a0,1
     a12:	3349                	c.jal	794 <analog_write_reg8>
     a14:	fc5ff06f          	j	9d8 <pm_wait_bbpll_done+0x74>

00000a18 <pm_sleep_start>:
     a18:	1101                	c.addi	sp,-32
     a1a:	52dc272b          	lwgp	a4,27948 # 8752c <g_chip_version>
     a1e:	000006b7          	lui	a3,0x0
     a22:	ce06                	c.swsp	ra,28(sp)
     a24:	cc22                	c.swsp	s0,24(sp)
     a26:	ca26                	c.swsp	s1,20(sp)
     a28:	0ff00793          	li	a5,255
     a2c:	19a6c583          	lbu	a1,410(a3) # 19a <g_pm_suspend_power_cfg>
     a30:	00f71a63          	bne	a4,a5,a44 <pm_sleep_start+0x2c>
     a34:	0fe5f593          	andi	a1,a1,254
     a38:	07d00513          	li	a0,125
     a3c:	d59ff0ef          	jal	ra,794 <analog_write_reg8>
     a40:	00c0006f          	j	a4c <pm_sleep_start+0x34>
     a44:	07d00513          	li	a0,125
     a48:	d4dff0ef          	jal	ra,794 <analog_write_reg8>
     a4c:	801406b7          	lui	a3,0x80140
     a50:	10268783          	lb	a5,258(a3) # 80140102 <_DATA_LMA_START+0x6013526a>
     a54:	fe07fe5b          	bbs	a5,0,a50 <pm_sleep_start+0x38>
     a58:	10168703          	lb	a4,257(a3)
     a5c:	801407b7          	lui	a5,0x80140
     a60:	0ff77713          	andi	a4,a4,255
     a64:	01076713          	ori	a4,a4,16
     a68:	10e680a3          	sb	a4,257(a3)
     a6c:	32878703          	lb	a4,808(a5) # 80140328 <_DATA_LMA_START+0x60135490>
     a70:	be377e5b          	bbc	a4,3,a6c <pm_sleep_start+0x54>
     a74:	10178703          	lb	a4,257(a5)
     a78:	80140437          	lui	s0,0x80140
     a7c:	0fd77713          	andi	a4,a4,253
     a80:	10e780a3          	sb	a4,257(a5)
     a84:	10178703          	lb	a4,257(a5)
     a88:	0ef77713          	andi	a4,a4,239
     a8c:	10e780a3          	sb	a4,257(a5)
     a90:	fb900713          	li	a4,-71
     a94:	10e78023          	sb	a4,256(a5)
     a98:	10240783          	lb	a5,258(s0) # 80140102 <_DATA_LMA_START+0x6013526a>
     a9c:	fe07fe5b          	bbs	a5,0,a98 <pm_sleep_start+0x80>
     aa0:	10140783          	lb	a5,257(s0)
     aa4:	452d                	c.li	a0,11
     aa6:	0ff7f793          	andi	a5,a5,255
     aaa:	0107e793          	ori	a5,a5,16
     aae:	10f400a3          	sb	a5,257(s0)
     ab2:	320404a3          	sb	zero,809(s0)
     ab6:	330d                	c.jal	7d8 <analog_read_reg8>
     ab8:	0fc57593          	andi	a1,a0,252
     abc:	452d                	c.li	a0,11
     abe:	39d9                	c.jal	794 <analog_write_reg8>
     ac0:	08100513          	li	a0,129
     ac4:	d15ff0ef          	jal	ra,7d8 <analog_read_reg8>
     ac8:	f8056593          	ori	a1,a0,-128
     acc:	0ff5f593          	andi	a1,a1,255
     ad0:	08100513          	li	a0,129
     ad4:	cc1ff0ef          	jal	ra,794 <analog_write_reg8>
     ad8:	f8000793          	li	a5,-128
     adc:	1ef407a3          	sb	a5,495(s0)
     ae0:	03f00493          	li	s1,63
     ae4:	00012423          	sw	zero,8(sp)
     ae8:	47a2                	c.lwsp	a5,8(sp)
     aea:	00f4e763          	bltu	s1,a5,af8 <pm_sleep_start+0xe0>
     aee:	0001                	c.nop
     af0:	47a2                	c.lwsp	a5,8(sp)
     af2:	0785                	c.addi	a5,1
     af4:	c43e                	c.swsp	a5,8(sp)
     af6:	bfcd                	c.j	ae8 <pm_sleep_start+0xd0>
     af8:	08100513          	li	a0,129
     afc:	cddff0ef          	jal	ra,7d8 <analog_read_reg8>
     b00:	07f57593          	andi	a1,a0,127
     b04:	08100513          	li	a0,129
     b08:	c8dff0ef          	jal	ra,794 <analog_write_reg8>
     b0c:	00b00513          	li	a0,11
     b10:	cc9ff0ef          	jal	ra,7d8 <analog_read_reg8>
     b14:	00356593          	ori	a1,a0,3
     b18:	0ff5f593          	andi	a1,a1,255
     b1c:	452d                	c.li	a0,11
     b1e:	399d                	c.jal	794 <analog_write_reg8>
     b20:	08000593          	li	a1,128
     b24:	07d00513          	li	a0,125
     b28:	c6dff0ef          	jal	ra,794 <analog_write_reg8>
     b2c:	801407b7          	lui	a5,0x80140
     b30:	329784a3          	sb	s1,809(a5) # 80140329 <_DATA_LMA_START+0x60135491>
     b34:	10178683          	lb	a3,257(a5)
     b38:	80140737          	lui	a4,0x80140
     b3c:	0ef6f693          	andi	a3,a3,239
     b40:	10d780a3          	sb	a3,257(a5)
     b44:	fab00693          	li	a3,-85
     b48:	10d78023          	sb	a3,256(a5)
     b4c:	10270783          	lb	a5,258(a4) # 80140102 <_DATA_LMA_START+0x6013526a>
     b50:	fe07fe5b          	bbs	a5,0,b4c <pm_sleep_start+0x134>
     b54:	10170783          	lb	a5,257(a4)
     b58:	12b00693          	li	a3,299
     b5c:	0ff7f793          	andi	a5,a5,255
     b60:	0107e793          	ori	a5,a5,16
     b64:	10f700a3          	sb	a5,257(a4)
     b68:	00012623          	sw	zero,12(sp)
     b6c:	47b2                	c.lwsp	a5,12(sp)
     b6e:	00f6e763          	bltu	a3,a5,b7c <pm_sleep_start+0x164>
     b72:	0001                	c.nop
     b74:	47b2                	c.lwsp	a5,12(sp)
     b76:	0785                	c.addi	a5,1
     b78:	c63e                	c.swsp	a5,12(sp)
     b7a:	bfcd                	c.j	b6c <pm_sleep_start+0x154>
     b7c:	08800513          	li	a0,136
     b80:	c59ff0ef          	jal	ra,7d8 <analog_read_reg8>
     b84:	be757c5b          	bbc	a0,7,b7c <pm_sleep_start+0x164>
     b88:	08800513          	li	a0,136
     b8c:	c4dff0ef          	jal	ra,7d8 <analog_read_reg8>
     b90:	be757c5b          	bbc	a0,7,b88 <pm_sleep_start+0x170>
     b94:	08800513          	li	a0,136
     b98:	c41ff0ef          	jal	ra,7d8 <analog_read_reg8>
     b9c:	be757c5b          	bbc	a0,7,b94 <pm_sleep_start+0x17c>
     ba0:	4462                	c.lwsp	s0,24(sp)
     ba2:	40f2                	c.lwsp	ra,28(sp)
     ba4:	44d2                	c.lwsp	s1,20(sp)
     ba6:	6105                	c.addi16sp	sp,32
     ba8:	dbdff06f          	j	964 <pm_wait_bbpll_done>

00000bac <dr_putchar>:
     bac:	1101                	c.addi	sp,-32
     bae:	ca26                	c.swsp	s1,20(sp)
     bb0:	cc22                	c.swsp	s0,24(sp)
     bb2:	ce06                	c.swsp	ra,28(sp)
     bb4:	c84a                	c.swsp	s2,16(sp)
     bb6:	509c148b          	addigp	s1,27912 # 87508 <init_flag.4915>
     bba:	842a                	c.mv	s0,a0
     bbc:	0004c783          	lbu	a5,0(s1)
     bc0:	0c17d25b          	beqc	a5,1,c84 <dr_putchar+0xd8>
     bc4:	801407b7          	lui	a5,0x80140
     bc8:	30378703          	lb	a4,771(a5) # 80140303 <_DATA_LMA_START+0x6013546b>
     bcc:	30378783          	lb	a5,771(a5)
     bd0:	0fe77713          	andi	a4,a4,254
     bd4:	0ff7f793          	andi	a5,a5,255
     bd8:	0017e793          	ori	a5,a5,1
     bdc:	00e10223          	sb	a4,4(sp)
     be0:	86be                	c.mv	a3,a5
     be2:	4004735b          	bbs	s0,0,be8 <dr_putchar+0x3c>
     be6:	86ba                	c.mv	a3,a4
     be8:	00d102a3          	sb	a3,5(sp)
     bec:	86be                	c.mv	a3,a5
     bee:	4014735b          	bbs	s0,1,bf4 <dr_putchar+0x48>
     bf2:	86ba                	c.mv	a3,a4
     bf4:	00d10323          	sb	a3,6(sp)
     bf8:	86be                	c.mv	a3,a5
     bfa:	4024735b          	bbs	s0,2,c00 <dr_putchar+0x54>
     bfe:	86ba                	c.mv	a3,a4
     c00:	00d103a3          	sb	a3,7(sp)
     c04:	86be                	c.mv	a3,a5
     c06:	4034735b          	bbs	s0,3,c0c <dr_putchar+0x60>
     c0a:	86ba                	c.mv	a3,a4
     c0c:	00d10423          	sb	a3,8(sp)
     c10:	86be                	c.mv	a3,a5
     c12:	4044735b          	bbs	s0,4,c18 <dr_putchar+0x6c>
     c16:	86ba                	c.mv	a3,a4
     c18:	00d104a3          	sb	a3,9(sp)
     c1c:	86be                	c.mv	a3,a5
     c1e:	4054735b          	bbs	s0,5,c24 <dr_putchar+0x78>
     c22:	86ba                	c.mv	a3,a4
     c24:	00d10523          	sb	a3,10(sp)
     c28:	86be                	c.mv	a3,a5
     c2a:	4064735b          	bbs	s0,6,c30 <dr_putchar+0x84>
     c2e:	86ba                	c.mv	a3,a4
     c30:	00d105a3          	sb	a3,11(sp)
     c34:	801d                	c.srli	s0,0x7
     c36:	c019                	c.beqz	s0,c3c <dr_putchar+0x90>
     c38:	00f00733          	add	a4,zero,a5
     c3c:	00f106a3          	sb	a5,13(sp)
     c40:	801407b7          	lui	a5,0x80140
     c44:	00e10623          	sb	a4,12(sp)
     c48:	2007a603          	lw	a2,512(a5) # 80140200 <_DATA_LMA_START+0x60135368>
     c4c:	00410513          	addi	a0,sp,4
     c50:	00e10813          	addi	a6,sp,14
     c54:	801406b7          	lui	a3,0x80140
     c58:	08900593          	li	a1,137
     c5c:	2006a783          	lw	a5,512(a3) # 80140200 <_DATA_LMA_START+0x60135368>
     c60:	40c78733          	sub	a4,a5,a2
     c64:	fee5fce3          	bgeu	a1,a4,c5c <dr_putchar+0xb0>
     c68:	00054703          	lbu	a4,0(a0)
     c6c:	0505                	c.addi	a0,1
     c6e:	30e681a3          	sb	a4,771(a3)
     c72:	863e                	c.mv	a2,a5
     c74:	ff0514e3          	bne	a0,a6,c5c <dr_putchar+0xb0>
     c78:	40f2                	c.lwsp	ra,28(sp)
     c7a:	4462                	c.lwsp	s0,24(sp)
     c7c:	44d2                	c.lwsp	s1,20(sp)
     c7e:	4942                	c.lwsp	s2,16(sp)
     c80:	6105                	c.addi16sp	sp,32
     c82:	8082                	c.jr	ra
     c84:	80140937          	lui	s2,0x80140
     c88:	30690783          	lb	a5,774(s2) # 80140306 <_DATA_LMA_START+0x6013546e>
     c8c:	4539                	c.li	a0,14
     c8e:	0ff7f793          	andi	a5,a5,255
     c92:	0017e793          	ori	a5,a5,1
     c96:	30f90323          	sb	a5,774(s2)
     c9a:	3e3d                	c.jal	7d8 <analog_read_reg8>
     c9c:	0fc57593          	andi	a1,a0,252
     ca0:	0015e593          	ori	a1,a1,1
     ca4:	4539                	c.li	a0,14
     ca6:	34fd                	c.jal	794 <analog_write_reg8>
     ca8:	30290783          	lb	a5,770(s2)
     cac:	0fe7f793          	andi	a5,a5,254
     cb0:	30f90123          	sb	a5,770(s2)
     cb4:	30390783          	lb	a5,771(s2)
     cb8:	0ff7f793          	andi	a5,a5,255
     cbc:	0017e793          	ori	a5,a5,1
     cc0:	30f901a3          	sb	a5,771(s2)
     cc4:	00048023          	sb	zero,0(s1)
     cc8:	efdff06f          	j	bc4 <dr_putchar+0x18>

00000ccc <pm_sleep_wakeup_ram.constprop.3>:
     ccc:	1101                	c.addi	sp,-32
     cce:	c452                	c.swsp	s4,8(sp)
     cd0:	8a2a                	c.mv	s4,a0
     cd2:	ce06                	c.swsp	ra,28(sp)
     cd4:	cc22                	c.swsp	s0,24(sp)
     cd6:	ca26                	c.swsp	s1,20(sp)
     cd8:	c84a                	c.swsp	s2,16(sp)
     cda:	c64e                	c.swsp	s3,12(sp)
     cdc:	c256                	c.swsp	s5,4(sp)
     cde:	c05a                	c.swsp	s6,0(sp)
     ce0:	300029f3          	csrr	s3,mstatus
     ce4:	0089f993          	andi	s3,s3,8
     ce8:	00098663          	beqz	s3,cf4 <pm_sleep_wakeup_ram.constprop.3+0x28>
     cec:	300477f3          	csrrci	a5,mstatus,8
     cf0:	0ff0000f          	fence
     cf4:	801407b7          	lui	a5,0x80140
     cf8:	2147a683          	lw	a3,532(a5) # 80140214 <_DATA_LMA_START+0x6013537c>
     cfc:	def5                	c.beqz	a3,cf8 <pm_sleep_wakeup_ram.constprop.3+0x2c>
     cfe:	00000437          	lui	s0,0x0
     d02:	15840693          	addi	a3,s0,344 # 158 <_AES_VMA_END>
     d06:	2147a783          	lw	a5,532(a5)
     d0a:	5298                	c.lw	a4,32(a3)
     d0c:	da9c                	c.sw	a5,48(a3)
     d0e:	15840413          	addi	s0,s0,344
     d12:	0792                	c.slli	a5,0x4
     d14:	cb11                	c.beqz	a4,d28 <pm_sleep_wakeup_ram.constprop.3+0x5c>
     d16:	03444603          	lbu	a2,52(s0)
     d1a:	4691                	c.li	a3,4
     d1c:	8f99                	c.sub	a5,a4
     d1e:	8e91                	c.sub	a3,a2
     d20:	40d7d7b3          	sra	a5,a5,a3
     d24:	00e787b3          	add	a5,a5,a4
     d28:	d01c                	c.sw	a5,32(s0)
     d2a:	5004                	c.lw	s1,32(s0)
     d2c:	485c                	c.lw	a5,20(s0)
     d2e:	8491                	c.srai	s1,0x4
     d30:	02f487b3          	mul	a5,s1,a5
     d34:	80140937          	lui	s2,0x80140
     d38:	20092a83          	lw	s5,512(s2) # 80140200 <_DATA_LMA_START+0x60135368>
     d3c:	e0000737          	lui	a4,0xe0000
     d40:	415a0ab3          	sub	s5,s4,s5
     d44:	87c9                	c.srai	a5,0x12
     d46:	94be                	c.add	s1,a5
     d48:	0486                	c.slli	s1,0x1
     d4a:	dc04                	c.sw	s1,56(s0)
     d4c:	03577063          	bgeu	a4,s5,d6c <pm_sleep_wakeup_ram.constprop.3+0xa0>
     d50:	00098663          	beqz	s3,d5c <pm_sleep_wakeup_ram.constprop.3+0x90>
     d54:	3009a9f3          	csrrs	s3,mstatus,s3
     d58:	0ff0000f          	fence
     d5c:	06400513          	li	a0,100
     d60:	a79ff0ef          	jal	ra,7d8 <analog_read_reg8>
     d64:	01f57513          	andi	a0,a0,31
     d68:	25c0006f          	j	fc4 <pm_sleep_wakeup_ram.constprop.3+0x2f8>
     d6c:	04a41783          	lh	a5,74(s0)
     d70:	1137a7db          	bfoz	a5,a5,4,19
     d74:	02fafe63          	bgeu	s5,a5,db0 <pm_sleep_wakeup_ram.constprop.3+0xe4>
     d78:	45fd                	c.li	a1,31
     d7a:	06400513          	li	a0,100
     d7e:	801404b7          	lui	s1,0x80140
     d82:	20092403          	lw	s0,512(s2)
     d86:	3439                	c.jal	794 <analog_write_reg8>
     d88:	06400513          	li	a0,100
     d8c:	a4dff0ef          	jal	ra,7d8 <analog_read_reg8>
     d90:	2004a783          	lw	a5,512(s1) # 80140200 <_DATA_LMA_START+0x60135368>
     d94:	897d                	c.andi	a0,31
     d96:	8f81                	c.sub	a5,s0
     d98:	0157f463          	bgeu	a5,s5,da0 <pm_sleep_wakeup_ram.constprop.3+0xd4>
     d9c:	fe0506e3          	beqz	a0,d88 <pm_sleep_wakeup_ram.constprop.3+0xbc>
     da0:	22098263          	beqz	s3,fc4 <pm_sleep_wakeup_ram.constprop.3+0x2f8>
     da4:	3009a9f3          	csrrs	s3,mstatus,s3
     da8:	0ff0000f          	fence
     dac:	2180006f          	j	fc4 <pm_sleep_wakeup_ram.constprop.3+0x2f8>
     db0:	1e890a83          	lb	s5,488(s2)
     db4:	00faf793          	andi	a5,s5,15
     db8:	1ef90423          	sb	a5,488(s2)
     dbc:	1d890b03          	lb	s6,472(s2)
     dc0:	0f8b7793          	andi	a5,s6,248
     dc4:	1cf90c23          	sb	a5,472(s2)
     dc8:	00100793          	li	a5,1
     dcc:	20f90c23          	sb	a5,536(s2)
     dd0:	20a90783          	lb	a5,522(s2)
     dd4:	0f77f793          	andi	a5,a5,247
     dd8:	20f90523          	sb	a5,522(s2)
     ddc:	d7cff0ef          	jal	ra,358 <clock_get_32k_tick>
     de0:	20092703          	lw	a4,512(s2)
     de4:	20b90783          	lb	a5,523(s2)
     de8:	5414                	c.lw	a3,40(s0)
     dea:	0ff7f793          	andi	a5,a5,255
     dee:	0027e793          	ori	a5,a5,2
     df2:	c468                	c.sw	a0,76(s0)
     df4:	c418                	c.sw	a4,8(s0)
     df6:	03444603          	lbu	a2,52(s0)
     dfa:	40d506b3          	sub	a3,a0,a3
     dfe:	20f905a3          	sb	a5,523(s2)
     e02:	d454                	c.sw	a3,44(s0)
     e04:	e215                	c.bnez	a2,e28 <pm_sleep_wakeup_ram.constprop.3+0x15c>
     e06:	445c                	c.lw	a5,12(s0)
     e08:	c385                	c.beqz	a5,e28 <pm_sleep_wakeup_ram.constprop.3+0x15c>
     e0a:	05044783          	lbu	a5,80(s0)
     e0e:	ef89                	c.bnez	a5,e28 <pm_sleep_wakeup_ram.constprop.3+0x15c>
     e10:	01042783          	lw	a5,16(s0)
     e14:	000276b7          	lui	a3,0x27
     e18:	40f507b3          	sub	a5,a0,a5
     e1c:	6c07a7db          	bfoz	a5,a5,27,0
     e20:	10068693          	addi	a3,a3,256 # 27100 <BIN_SIZE+0x14d2e>
     e24:	00f6f863          	bgeu	a3,a5,e34 <pm_sleep_wakeup_ram.constprop.3+0x168>
     e28:	00176713          	ori	a4,a4,1
     e2c:	02040a23          	sb	zero,52(s0)
     e30:	c808                	c.sw	a0,16(s0)
     e32:	c458                	c.sw	a4,12(s0)
     e34:	02000593          	li	a1,32
     e38:	04b00513          	li	a0,75
     e3c:	959ff0ef          	jal	ra,794 <analog_write_reg8>
     e40:	45fd                	c.li	a1,31
     e42:	06400513          	li	a0,100
     e46:	32b9                	c.jal	794 <analog_write_reg8>
     e48:	03000593          	li	a1,48
     e4c:	07e00513          	li	a0,126
     e50:	945ff0ef          	jal	ra,794 <analog_write_reg8>
     e54:	0f900593          	li	a1,249
     e58:	04d00513          	li	a0,77
     e5c:	939ff0ef          	jal	ra,794 <analog_write_reg8>
     e60:	4585                	c.li	a1,1
     e62:	07f00513          	li	a0,127
     e66:	323d                	c.jal	794 <analog_write_reg8>
     e68:	04841783          	lh	a5,72(s0)
     e6c:	0ee00593          	li	a1,238
     e70:	1137a7db          	bfoz	a5,a5,4,19
     e74:	04c00513          	li	a0,76
     e78:	40fa0933          	sub	s2,s4,a5
     e7c:	919ff0ef          	jal	ra,794 <analog_write_reg8>
     e80:	05441583          	lh	a1,84(s0)
     e84:	04000513          	li	a0,64
     e88:	0ff5f593          	andi	a1,a1,255
     e8c:	909ff0ef          	jal	ra,794 <analog_write_reg8>
     e90:	445c                	c.lw	a5,12(s0)
     e92:	07ff0737          	lui	a4,0x7ff0
     e96:	40f907b3          	sub	a5,s2,a5
     e9a:	00f77763          	bgeu	a4,a5,ea8 <pm_sleep_wakeup_ram.constprop.3+0x1dc>
     e9e:	4705                	c.li	a4,1
     ea0:	00e40223          	sb	a4,4(s0)
     ea4:	0080006f          	j	eac <pm_sleep_wakeup_ram.constprop.3+0x1e0>
     ea8:	00040223          	sb	zero,4(s0)
     eac:	00444683          	lbu	a3,4(s0)
     eb0:	4808                	c.lw	a0,16(s0)
     eb2:	5c18                	c.lw	a4,56(s0)
     eb4:	c691                	c.beqz	a3,ec0 <pm_sleep_wakeup_ram.constprop.3+0x1f4>
     eb6:	02e7d7b3          	divu	a5,a5,a4
     eba:	0796                	c.slli	a5,0x5
     ebc:	953e                	c.add	a0,a5
     ebe:	a039                	c.j	ecc <pm_sleep_wakeup_ram.constprop.3+0x200>
     ec0:	8085                	c.srli	s1,0x1
     ec2:	0796                	c.slli	a5,0x5
     ec4:	97a6                	c.add	a5,s1
     ec6:	02e7d7b3          	divu	a5,a5,a4
     eca:	953e                	c.add	a0,a5
     ecc:	be0ff0ef          	jal	ra,2ac <clock_set_32k_tick>
     ed0:	06400513          	li	a0,100
     ed4:	905ff0ef          	jal	ra,7d8 <analog_read_reg8>
     ed8:	01f57513          	andi	a0,a0,31
     edc:	e901                	c.bnez	a0,eec <pm_sleep_wakeup_ram.constprop.3+0x220>
     ede:	3e2d                	c.jal	a18 <pm_sleep_start>
     ee0:	00100593          	li	a1,1
     ee4:	07f00513          	li	a0,127
     ee8:	8adff0ef          	jal	ra,794 <analog_write_reg8>
     eec:	80140737          	lui	a4,0x80140
     ef0:	02000793          	li	a5,32
     ef4:	1ef707a3          	sb	a5,495(a4) # 801401ef <_DATA_LMA_START+0x60135357>
     ef8:	00200793          	li	a5,2
     efc:	20f70c23          	sb	a5,536(a4)
     f00:	20a70783          	lb	a5,522(a4)
     f04:	0ff7f793          	andi	a5,a5,255
     f08:	00c7e793          	ori	a5,a5,12
     f0c:	20f70523          	sb	a5,522(a4)
     f10:	c48ff0ef          	jal	ra,358 <clock_get_32k_tick>
     f14:	00444783          	lbu	a5,4(s0)
     f18:	cf81                	c.beqz	a5,f30 <pm_sleep_wakeup_ram.constprop.3+0x264>
     f1a:	481c                	c.lw	a5,16(s0)
     f1c:	5c14                	c.lw	a3,56(s0)
     f1e:	40f507b3          	sub	a5,a0,a5
     f22:	4458                	c.lw	a4,12(s0)
     f24:	0785                	c.addi	a5,1
     f26:	8395                	c.srli	a5,0x5
     f28:	c4d7977f          	maddr32	a4,a5,a3
     f2c:	c418                	c.sw	a4,8(s0)
     f2e:	a829                	c.j	f48 <pm_sleep_wakeup_ram.constprop.3+0x27c>
     f30:	481c                	c.lw	a5,16(s0)
     f32:	5c18                	c.lw	a4,56(s0)
     f34:	40f507b3          	sub	a5,a0,a5
     f38:	0785                	c.addi	a5,1
     f3a:	02e787b3          	mul	a5,a5,a4
     f3e:	4458                	c.lw	a4,12(s0)
     f40:	8395                	c.srli	a5,0x5
     f42:	97ba                	c.add	a5,a4
     f44:	00f42423          	sw	a5,8(s0)
     f48:	481c                	c.lw	a5,16(s0)
     f4a:	4414                	c.lw	a3,8(s0)
     f4c:	40f507b3          	sub	a5,a0,a5
     f50:	0785                	c.addi	a5,1
     f52:	0505                	c.addi	a0,1
     f54:	d05c                	c.sw	a5,36(s0)
     f56:	0685                	c.addi	a3,1
     f58:	02a42423          	sw	a0,40(s0)
     f5c:	801407b7          	lui	a5,0x80140
     f60:	80140737          	lui	a4,0x80140
     f64:	20d7a023          	sw	a3,512(a5) # 80140200 <_DATA_LMA_START+0x60135368>
     f68:	20b70783          	lb	a5,523(a4) # 8014020b <_DATA_LMA_START+0x60135373>
     f6c:	be77fe5b          	bbc	a5,7,f68 <pm_sleep_wakeup_ram.constprop.3+0x29c>
     f70:	20070c23          	sb	zero,536(a4)
     f74:	1d670c23          	sb	s6,472(a4)
     f78:	06400513          	li	a0,100
     f7c:	1f570423          	sb	s5,488(a4)
     f80:	859ff0ef          	jal	ra,7d8 <analog_read_reg8>
     f84:	531c170b          	addigp	a4,27952 # 87530 <g_pm_status_info>
     f88:	00a700a3          	sb	a0,1(a4)
     f8c:	531c178b          	addigp	a5,27952 # 87530 <g_pm_status_info>
     f90:	00157c5b          	bbc	a0,1,fa8 <pm_sleep_wakeup_ram.constprop.3+0x2dc>
     f94:	80140637          	lui	a2,0x80140
     f98:	400006b7          	lui	a3,0x40000
     f9c:	20062703          	lw	a4,512(a2) # 80140200 <_DATA_LMA_START+0x60135368>
     fa0:	41470733          	sub	a4,a4,s4
     fa4:	fee6ece3          	bltu	a3,a4,f9c <pm_sleep_wakeup_ram.constprop.3+0x2d0>
     fa8:	00098663          	beqz	s3,fb4 <pm_sleep_wakeup_ram.constprop.3+0x2e8>
     fac:	3009a9f3          	csrrs	s3,mstatus,s3
     fb0:	0ff0000f          	fence
     fb4:	0017c783          	lbu	a5,1(a5)
     fb8:	10000513          	li	a0,256
     fbc:	c781                	c.beqz	a5,fc4 <pm_sleep_wakeup_ram.constprop.3+0x2f8>
     fbe:	40000537          	lui	a0,0x40000
     fc2:	8d5d                	c.or	a0,a5
     fc4:	40f2                	c.lwsp	ra,28(sp)
     fc6:	4462                	c.lwsp	s0,24(sp)
     fc8:	44d2                	c.lwsp	s1,20(sp)
     fca:	4942                	c.lwsp	s2,16(sp)
     fcc:	49b2                	c.lwsp	s3,12(sp)
     fce:	4a22                	c.lwsp	s4,8(sp)
     fd0:	4a92                	c.lwsp	s5,4(sp)
     fd2:	4b02                	c.lwsp	s6,0(sp)
     fd4:	6105                	c.addi16sp	sp,32
     fd6:	8082                	c.jr	ra

00000fd8 <trap_entry>:
     fd8:	1101                	c.addi	sp,-32
     fda:	ce2a                	c.swsp	a0,28(sp)
     fdc:	cc2e                	c.swsp	a1,24(sp)
     fde:	ca32                	c.swsp	a2,20(sp)
     fe0:	c836                	c.swsp	a3,16(sp)
     fe2:	c63a                	c.swsp	a4,12(sp)
     fe4:	c43e                	c.swsp	a5,8(sp)
     fe6:	34202773          	csrr	a4,mcause
     fea:	000007b7          	lui	a5,0x0
     fee:	15878793          	addi	a5,a5,344 # 158 <_AES_VMA_END>
     ff2:	03c78683          	lb	a3,60(a5)
     ff6:	0ff6f693          	andi	a3,a3,255
     ffa:	c2dd                	c.beqz	a3,10a0 <trap_entry+0xc8>
     ffc:	34102673          	csrr	a2,mepc
    1000:	300025f3          	csrr	a1,mstatus
    1004:	7c4026f3          	csrr	a3,mxstatus
    1008:	02074a63          	bltz	a4,103c <trap_entry+0x64>
    100c:	34302773          	csrr	a4,mtval
    1010:	52ec44ab          	swgp	a4,27944 # 87528 <exception_mtval>
    1014:	34102773          	csrr	a4,mepc
    1018:	52ec40ab          	swgp	a4,27936 # 87520 <exception_mepc>
    101c:	30002773          	csrr	a4,mstatus
    1020:	52ec42ab          	swgp	a4,27940 # 87524 <exception_mstatus>
    1024:	34202773          	csrr	a4,mcause
    1028:	50ec4cab          	swgp	a4,27928 # 87518 <_DATA_VMA_END>
    102c:	7c902773          	csrr	a4,mdcause
    1030:	50ec4eab          	swgp	a4,27932 # 8751c <exception_mdcause>
    1034:	0001                	c.nop
    1036:	0001                	c.nop
    1038:	ffdff06f          	j	1034 <trap_entry+0x5c>
    103c:	7807275b          	bfoz	a4,a4,30,0
    1040:	0677545b          	beqc	a4,7,10a8 <trap_entry+0xd0>
    1044:	bc37645b          	bnec	a4,3,100c <trap_entry+0x34>
    1048:	e6600737          	lui	a4,0xe6600
    104c:	4358                	c.lw	a4,4(a4)
    104e:	03c78703          	lb	a4,60(a5)
    1052:	0ff77713          	andi	a4,a4,255
    1056:	c319                	c.beqz	a4,105c <trap_entry+0x84>
    1058:	30046773          	csrrsi	a4,mstatus,8
    105c:	03c78703          	lb	a4,60(a5)
    1060:	0ff77713          	andi	a4,a4,255
    1064:	00070463          	beqz	a4,106c <trap_entry+0x94>
    1068:	30047773          	csrrci	a4,mstatus,8
    106c:	e6600737          	lui	a4,0xe6600
    1070:	4505                	c.li	a0,1
    1072:	c348                	c.sw	a0,4(a4)
    1074:	03c78783          	lb	a5,60(a5)
    1078:	0ff7f793          	andi	a5,a5,255
    107c:	00078863          	beqz	a5,108c <trap_entry+0xb4>
    1080:	30059073          	csrw	mstatus,a1
    1084:	34161073          	csrw	mepc,a2
    1088:	7c469073          	csrw	mxstatus,a3
    108c:	4572                	c.lwsp	a0,28(sp)
    108e:	45e2                	c.lwsp	a1,24(sp)
    1090:	4652                	c.lwsp	a2,20(sp)
    1092:	46c2                	c.lwsp	a3,16(sp)
    1094:	4732                	c.lwsp	a4,12(sp)
    1096:	47a2                	c.lwsp	a5,8(sp)
    1098:	02010113          	addi	sp,sp,32
    109c:	30200073          	mret
    10a0:	4681                	c.li	a3,0
    10a2:	4581                	c.li	a1,0
    10a4:	4601                	c.li	a2,0
    10a6:	b78d                	c.j	1008 <trap_entry+0x30>
    10a8:	03c78703          	lb	a4,60(a5)
    10ac:	0ff77713          	andi	a4,a4,255
    10b0:	00070863          	beqz	a4,10c0 <trap_entry+0xe8>
    10b4:	08000713          	li	a4,128
    10b8:	30473773          	csrrc	a4,mie,a4
    10bc:	30046773          	csrrsi	a4,mstatus,8
    10c0:	03c78703          	lb	a4,60(a5)
    10c4:	0ff77713          	andi	a4,a4,255
    10c8:	d755                	c.beqz	a4,1074 <trap_entry+0x9c>
    10ca:	30047773          	csrrci	a4,mstatus,8
    10ce:	08000713          	li	a4,128
    10d2:	30472773          	csrrs	a4,mie,a4
    10d6:	bf79                	c.j	1074 <trap_entry+0x9c>
    10d8:	0001                	c.nop
	...

00001100 <__vectors>:
    1100:	0fd8                	c.addi4spn	a4,sp,980
    1102:	0000                	unimp
    1104:	2134                	c.fld	fa3,64(a0)
    1106:	0000                	unimp
    1108:	2134                	c.fld	fa3,64(a0)
    110a:	0000                	unimp
    110c:	2134                	c.fld	fa3,64(a0)
    110e:	0000                	unimp
    1110:	2134                	c.fld	fa3,64(a0)
    1112:	0000                	unimp
    1114:	2134                	c.fld	fa3,64(a0)
    1116:	0000                	unimp
    1118:	2134                	c.fld	fa3,64(a0)
    111a:	0000                	unimp
    111c:	2134                	c.fld	fa3,64(a0)
    111e:	0000                	unimp
    1120:	2134                	c.fld	fa3,64(a0)
    1122:	0000                	unimp
    1124:	2134                	c.fld	fa3,64(a0)
    1126:	0000                	unimp
    1128:	2134                	c.fld	fa3,64(a0)
    112a:	0000                	unimp
    112c:	2134                	c.fld	fa3,64(a0)
    112e:	0000                	unimp
    1130:	2134                	c.fld	fa3,64(a0)
    1132:	0000                	unimp
    1134:	2134                	c.fld	fa3,64(a0)
    1136:	0000                	unimp
    1138:	2134                	c.fld	fa3,64(a0)
    113a:	0000                	unimp
    113c:	2134                	c.fld	fa3,64(a0)
    113e:	0000                	unimp
    1140:	2134                	c.fld	fa3,64(a0)
    1142:	0000                	unimp
    1144:	2134                	c.fld	fa3,64(a0)
    1146:	0000                	unimp
    1148:	2134                	c.fld	fa3,64(a0)
    114a:	0000                	unimp
    114c:	2134                	c.fld	fa3,64(a0)
    114e:	0000                	unimp
    1150:	2134                	c.fld	fa3,64(a0)
    1152:	0000                	unimp
    1154:	2134                	c.fld	fa3,64(a0)
    1156:	0000                	unimp
    1158:	2134                	c.fld	fa3,64(a0)
    115a:	0000                	unimp
    115c:	2134                	c.fld	fa3,64(a0)
    115e:	0000                	unimp
    1160:	2134                	c.fld	fa3,64(a0)
    1162:	0000                	unimp
    1164:	2134                	c.fld	fa3,64(a0)
    1166:	0000                	unimp
    1168:	2134                	c.fld	fa3,64(a0)
    116a:	0000                	unimp
    116c:	2134                	c.fld	fa3,64(a0)
    116e:	0000                	unimp
    1170:	2134                	c.fld	fa3,64(a0)
    1172:	0000                	unimp
    1174:	2134                	c.fld	fa3,64(a0)
    1176:	0000                	unimp
    1178:	2134                	c.fld	fa3,64(a0)
    117a:	0000                	unimp
    117c:	2134                	c.fld	fa3,64(a0)
    117e:	0000                	unimp
    1180:	2134                	c.fld	fa3,64(a0)
    1182:	0000                	unimp
    1184:	2134                	c.fld	fa3,64(a0)
    1186:	0000                	unimp
    1188:	2134                	c.fld	fa3,64(a0)
    118a:	0000                	unimp
    118c:	2134                	c.fld	fa3,64(a0)
    118e:	0000                	unimp
    1190:	2134                	c.fld	fa3,64(a0)
    1192:	0000                	unimp
    1194:	2134                	c.fld	fa3,64(a0)
    1196:	0000                	unimp
    1198:	2134                	c.fld	fa3,64(a0)
    119a:	0000                	unimp
    119c:	2134                	c.fld	fa3,64(a0)
    119e:	0000                	unimp
    11a0:	2134                	c.fld	fa3,64(a0)
    11a2:	0000                	unimp
    11a4:	2134                	c.fld	fa3,64(a0)
    11a6:	0000                	unimp
    11a8:	2134                	c.fld	fa3,64(a0)
    11aa:	0000                	unimp
    11ac:	2134                	c.fld	fa3,64(a0)
    11ae:	0000                	unimp
    11b0:	2134                	c.fld	fa3,64(a0)
    11b2:	0000                	unimp
    11b4:	2134                	c.fld	fa3,64(a0)
    11b6:	0000                	unimp
    11b8:	2134                	c.fld	fa3,64(a0)
    11ba:	0000                	unimp
    11bc:	2134                	c.fld	fa3,64(a0)
    11be:	0000                	unimp
    11c0:	2134                	c.fld	fa3,64(a0)
    11c2:	0000                	unimp
    11c4:	2134                	c.fld	fa3,64(a0)
    11c6:	0000                	unimp
    11c8:	2134                	c.fld	fa3,64(a0)
    11ca:	0000                	unimp
    11cc:	2134                	c.fld	fa3,64(a0)
    11ce:	0000                	unimp
    11d0:	2134                	c.fld	fa3,64(a0)
    11d2:	0000                	unimp
    11d4:	2134                	c.fld	fa3,64(a0)
    11d6:	0000                	unimp
    11d8:	2134                	c.fld	fa3,64(a0)
    11da:	0000                	unimp
    11dc:	2134                	c.fld	fa3,64(a0)
    11de:	0000                	unimp
    11e0:	2134                	c.fld	fa3,64(a0)
    11e2:	0000                	unimp
    11e4:	2134                	c.fld	fa3,64(a0)
    11e6:	0000                	unimp
    11e8:	2134                	c.fld	fa3,64(a0)
    11ea:	0000                	unimp
    11ec:	2134                	c.fld	fa3,64(a0)
    11ee:	0000                	unimp
    11f0:	2134                	c.fld	fa3,64(a0)
    11f2:	0000                	unimp
    11f4:	2134                	c.fld	fa3,64(a0)
    11f6:	0000                	unimp
    11f8:	2134                	c.fld	fa3,64(a0)
    11fa:	0000                	unimp
    11fc:	2134                	c.fld	fa3,64(a0)
    11fe:	0000                	unimp
    1200:	0001                	c.nop
	...

00001204 <flash_read_uid.constprop.6>:
    1204:	1141                	c.addi	sp,-16
    1206:	c606                	c.swsp	ra,12(sp)
    1208:	872a                	c.mv	a4,a0
    120a:	7d047073          	csrci	mmisc_ctl,8
    120e:	47c1                	c.li	a5,16
    1210:	4691                	c.li	a3,4
    1212:	4601                	c.li	a2,0
    1214:	00000593          	li	a1,0
    1218:	04b00513          	li	a0,75
    121c:	aacff0ef          	jal	ra,4c8 <flash_mspi_read_ram>
    1220:	7d046073          	csrsi	mmisc_ctl,8
    1224:	40b2                	c.lwsp	ra,12(sp)
    1226:	0141                	c.addi	sp,16
    1228:	00008067          	ret

0000122c <flash_read_mid>:
    122c:	1101                	c.addi	sp,-32
    122e:	ce06                	c.swsp	ra,28(sp)
    1230:	c602                	c.swsp	zero,12(sp)
    1232:	7d047073          	csrci	mmisc_ctl,8
    1236:	478d                	c.li	a5,3
    1238:	0078                	c.addi4spn	a4,sp,12
    123a:	4681                	c.li	a3,0
    123c:	4601                	c.li	a2,0
    123e:	4581                	c.li	a1,0
    1240:	09f00513          	li	a0,159
    1244:	a84ff0ef          	jal	ra,4c8 <flash_mspi_read_ram>
    1248:	7d046073          	csrsi	mmisc_ctl,8
    124c:	40f2                	c.lwsp	ra,28(sp)
    124e:	4532                	c.lwsp	a0,12(sp)
    1250:	6105                	c.addi16sp	sp,32
    1252:	8082                	c.jr	ra

00001254 <flash_read_mid_uid_with_check>:
    1254:	801f978b          	addigp	a5,-2048 # 80000 <_DATA_VMA_START>
    1258:	4798                	c.lw	a4,8(a5)
    125a:	4390                	c.lw	a2,0(a5)
    125c:	43d4                	c.lw	a3,4(a5)
    125e:	47dc                	c.lw	a5,12(a5)
    1260:	1101                	c.addi	sp,-32
    1262:	cc22                	c.swsp	s0,24(sp)
    1264:	ca26                	c.swsp	s1,20(sp)
    1266:	842a                	c.mv	s0,a0
    1268:	c43a                	c.swsp	a4,8(sp)
    126a:	c63e                	c.swsp	a5,12(sp)
    126c:	ce06                	c.swsp	ra,28(sp)
    126e:	84ae                	c.mv	s1,a1
    1270:	c032                	c.swsp	a2,0(sp)
    1272:	c236                	c.swsp	a3,4(sp)
    1274:	fb9ff0ef          	jal	ra,122c <flash_read_mid>
    1278:	77c1                	c.lui	a5,0xffff0
    127a:	17fd                	c.addi	a5,-1
    127c:	00146737          	lui	a4,0x146
    1280:	c008                	c.sw	a0,0(s0)
    1282:	8fe9                	c.and	a5,a0
    1284:	08570713          	addi	a4,a4,133 # 146085 <FLASH_SIZE+0x46085>
    1288:	02e78063          	beq	a5,a4,12a8 <flash_read_mid_uid_with_check+0x54>
    128c:	00166737          	lui	a4,0x166
    1290:	08570713          	addi	a4,a4,133 # 166085 <FLASH_SIZE+0x66085>
    1294:	4781                	c.li	a5,0
    1296:	00e50963          	beq	a0,a4,12a8 <flash_read_mid_uid_with_check+0x54>
    129a:	40f2                	c.lwsp	ra,28(sp)
    129c:	4462                	c.lwsp	s0,24(sp)
    129e:	44d2                	c.lwsp	s1,20(sp)
    12a0:	853e                	c.mv	a0,a5
    12a2:	6105                	c.addi16sp	sp,32
    12a4:	00008067          	ret
    12a8:	8526                	c.mv	a0,s1
    12aa:	3fa9                	c.jal	1204 <flash_read_uid.constprop.6>
    12ac:	0004c783          	lbu	a5,0(s1)
    12b0:	00014603          	lbu	a2,0(sp)
    12b4:	0014c683          	lbu	a3,1(s1)
    12b8:	00114703          	lbu	a4,1(sp)
    12bc:	8f91                	c.sub	a5,a2
    12be:	0017b793          	seqz	a5,a5
    12c2:	00e69363          	bne	a3,a4,12c8 <flash_read_mid_uid_with_check+0x74>
    12c6:	0785                	c.addi	a5,1
    12c8:	0024c683          	lbu	a3,2(s1)
    12cc:	00214703          	lbu	a4,2(sp)
    12d0:	00e69463          	bne	a3,a4,12d8 <flash_read_mid_uid_with_check+0x84>
    12d4:	00178793          	addi	a5,a5,1 # ffff0001 <_DATA_LMA_START+0xdffe5169>
    12d8:	0034c683          	lbu	a3,3(s1)
    12dc:	00314703          	lbu	a4,3(sp)
    12e0:	00e69463          	bne	a3,a4,12e8 <flash_read_mid_uid_with_check+0x94>
    12e4:	00178793          	addi	a5,a5,1
    12e8:	0044c683          	lbu	a3,4(s1)
    12ec:	00414703          	lbu	a4,4(sp)
    12f0:	00e69463          	bne	a3,a4,12f8 <flash_read_mid_uid_with_check+0xa4>
    12f4:	00178793          	addi	a5,a5,1
    12f8:	0054c683          	lbu	a3,5(s1)
    12fc:	00514703          	lbu	a4,5(sp)
    1300:	00e69463          	bne	a3,a4,1308 <flash_read_mid_uid_with_check+0xb4>
    1304:	00178793          	addi	a5,a5,1
    1308:	0064c683          	lbu	a3,6(s1)
    130c:	00614703          	lbu	a4,6(sp)
    1310:	00e69463          	bne	a3,a4,1318 <flash_read_mid_uid_with_check+0xc4>
    1314:	00178793          	addi	a5,a5,1
    1318:	0074c683          	lbu	a3,7(s1)
    131c:	00714703          	lbu	a4,7(sp)
    1320:	00e69463          	bne	a3,a4,1328 <flash_read_mid_uid_with_check+0xd4>
    1324:	00178793          	addi	a5,a5,1
    1328:	0084c683          	lbu	a3,8(s1)
    132c:	00814703          	lbu	a4,8(sp)
    1330:	00e69463          	bne	a3,a4,1338 <flash_read_mid_uid_with_check+0xe4>
    1334:	00178793          	addi	a5,a5,1
    1338:	0094c683          	lbu	a3,9(s1)
    133c:	00914703          	lbu	a4,9(sp)
    1340:	00e69463          	bne	a3,a4,1348 <flash_read_mid_uid_with_check+0xf4>
    1344:	00178793          	addi	a5,a5,1
    1348:	00a4c683          	lbu	a3,10(s1)
    134c:	00a14703          	lbu	a4,10(sp)
    1350:	00e69463          	bne	a3,a4,1358 <flash_read_mid_uid_with_check+0x104>
    1354:	00178793          	addi	a5,a5,1
    1358:	00b4c683          	lbu	a3,11(s1)
    135c:	00b14703          	lbu	a4,11(sp)
    1360:	00e69463          	bne	a3,a4,1368 <flash_read_mid_uid_with_check+0x114>
    1364:	00178793          	addi	a5,a5,1
    1368:	00c4c683          	lbu	a3,12(s1)
    136c:	00c14703          	lbu	a4,12(sp)
    1370:	00e69463          	bne	a3,a4,1378 <flash_read_mid_uid_with_check+0x124>
    1374:	00178793          	addi	a5,a5,1
    1378:	00d4c683          	lbu	a3,13(s1)
    137c:	00d14703          	lbu	a4,13(sp)
    1380:	00e69463          	bne	a3,a4,1388 <flash_read_mid_uid_with_check+0x134>
    1384:	00178793          	addi	a5,a5,1
    1388:	00e4c683          	lbu	a3,14(s1)
    138c:	00e14703          	lbu	a4,14(sp)
    1390:	00e69463          	bne	a3,a4,1398 <flash_read_mid_uid_with_check+0x144>
    1394:	00178793          	addi	a5,a5,1
    1398:	00f14683          	lbu	a3,15(sp)
    139c:	00f4c703          	lbu	a4,15(s1)
    13a0:	00e69463          	bne	a3,a4,13a8 <flash_read_mid_uid_with_check+0x154>
    13a4:	00178793          	addi	a5,a5,1
    13a8:	40f2                	c.lwsp	ra,28(sp)
    13aa:	4462                	c.lwsp	s0,24(sp)
    13ac:	17c1                	c.addi	a5,-16
    13ae:	00f037b3          	snez	a5,a5
    13b2:	44d2                	c.lwsp	s1,20(sp)
    13b4:	853e                	c.mv	a0,a5
    13b6:	6105                	c.addi16sp	sp,32
    13b8:	00008067          	ret

000013bc <flash_dread>:
    13bc:	1141                	c.addi	sp,-16
    13be:	c606                	c.swsp	ra,12(sp)
    13c0:	87b2                	c.mv	a5,a2
    13c2:	7d047073          	csrci	mmisc_ctl,8
    13c6:	862e                	c.mv	a2,a1
    13c8:	00f005b3          	add	a1,zero,a5
    13cc:	a7cff0ef          	jal	ra,648 <flash_mspi_read_ram.constprop.7>
    13d0:	7d046073          	csrsi	mmisc_ctl,8
    13d4:	40b2                	c.lwsp	ra,12(sp)
    13d6:	0141                	c.addi	sp,16
    13d8:	00008067          	ret

000013dc <clock_init.constprop.10>:
    13dc:	1141                	c.addi	sp,-16
    13de:	c606                	c.swsp	ra,12(sp)
    13e0:	7d047073          	csrci	mmisc_ctl,8
    13e4:	c40ff0ef          	jal	ra,824 <clock_init_ram.constprop.11>
    13e8:	7d046073          	csrsi	mmisc_ctl,8
    13ec:	40b2                	c.lwsp	ra,12(sp)
    13ee:	0141                	c.addi	sp,16
    13f0:	00008067          	ret

000013f4 <pm_sleep_wakeup.constprop.2>:
    13f4:	1141                	c.addi	sp,-16
    13f6:	c606                	c.swsp	ra,12(sp)
    13f8:	7d047073          	csrci	mmisc_ctl,8
    13fc:	8d1ff0ef          	jal	ra,ccc <pm_sleep_wakeup_ram.constprop.3>
    1400:	7d046073          	csrsi	mmisc_ctl,8
    1404:	40b2                	c.lwsp	ra,12(sp)
    1406:	0141                	c.addi	sp,16
    1408:	8082                	c.jr	ra
    140a:	0001                	c.nop

0000140c <user_calib_adc_vref.constprop.9>:
    140c:	1101                	c.addi	sp,-32
    140e:	ce06                	c.swsp	ra,28(sp)
    1410:	c402                	c.swsp	zero,8(sp)
    1412:	00011623          	sh	zero,12(sp)
    1416:	00010723          	sb	zero,14(sp)
    141a:	c54d                	c.beqz	a0,14c4 <user_calib_adc_vref.constprop.9+0xb8>
    141c:	000007b7          	lui	a5,0x0
    1420:	1587a783          	lw	a5,344(a5) # 158 <_AES_VMA_END>
    1424:	0030                	c.addi4spn	a2,sp,8
    1426:	459d                	c.li	a1,7
    1428:	9782                	c.jalr	a5
    142a:	00c14783          	lbu	a5,12(sp)
    142e:	1c07b75b          	bfos	a4,a5,7,0
    1432:	04074163          	bltz	a4,1474 <user_calib_adc_vref.constprop.9+0x68>
    1436:	00e14703          	lbu	a4,14(sp)
    143a:	00d14603          	lbu	a2,13(sp)
    143e:	0722                	c.slli	a4,0x8
    1440:	66c1                	c.lui	a3,0x10
    1442:	00c705b3          	add	a1,a4,a2
    1446:	16fd                	c.addi	a3,-1
    1448:	02d58663          	beq	a1,a3,1474 <user_calib_adc_vref.constprop.9+0x68>
    144c:	fd060613          	addi	a2,a2,-48
    1450:	9732                	c.add	a4,a2
    1452:	3c07275b          	bfoz	a4,a4,15,0
    1456:	0fb00693          	li	a3,251
    145a:	08e6e563          	bltu	a3,a4,14e4 <user_calib_adc_vref.constprop.9+0xd8>
    145e:	17b1                	c.addi	a5,-20
    1460:	1c07b7db          	bfos	a5,a5,7,0
    1464:	5731                	c.li	a4,-20
    1466:	06e78f63          	beq	a5,a4,14e4 <user_calib_adc_vref.constprop.9+0xd8>
    146a:	f9578513          	addi	a0,a5,-107
    146e:	00a03533          	snez	a0,a0
    1472:	a89d                	c.j	14e8 <user_calib_adc_vref.constprop.9+0xdc>
    1474:	801407b7          	lui	a5,0x80140
    1478:	06500713          	li	a4,101
    147c:	1ee78a23          	sb	a4,500(a5) # 801401f4 <_DATA_LMA_START+0x6013535c>
    1480:	1c87a703          	lw	a4,456(a5)
    1484:	1e078a23          	sb	zero,500(a5)
    1488:	4c47275b          	bfoz	a4,a4,19,4
    148c:	380727db          	bfoz	a5,a4,14,0
    1490:	06078063          	beqz	a5,14f0 <user_calib_adc_vref.constprop.9+0xe4>
    1494:	1ff77713          	andi	a4,a4,511
    1498:	f9b70713          	addi	a4,a4,-101
    149c:	3c07275b          	bfoz	a4,a4,15,0
    14a0:	0c600693          	li	a3,198
    14a4:	04e6e063          	bltu	a3,a4,14e4 <user_calib_adc_vref.constprop.9+0xd8>
    14a8:	0097d513          	srli	a0,a5,0x9
    14ac:	1531                	c.addi	a0,-20
    14ae:	1c05355b          	bfos	a0,a0,7,0
    14b2:	57b1                	c.li	a5,-20
    14b4:	02f50863          	beq	a0,a5,14e4 <user_calib_adc_vref.constprop.9+0xd8>
    14b8:	fd550513          	addi	a0,a0,-43 # 3fffffd5 <_DATA_LMA_START+0x1fff513d>
    14bc:	00a03533          	snez	a0,a0
    14c0:	0280006f          	j	14e8 <user_calib_adc_vref.constprop.9+0xdc>
    14c4:	801407b7          	lui	a5,0x80140
    14c8:	06500713          	li	a4,101
    14cc:	1ee78a23          	sb	a4,500(a5) # 801401f4 <_DATA_LMA_START+0x6013535c>
    14d0:	1c87a703          	lw	a4,456(a5)
    14d4:	1e078a23          	sb	zero,500(a5)
    14d8:	4c47275b          	bfoz	a4,a4,19,4
    14dc:	380727db          	bfoz	a5,a4,14,0
    14e0:	fa079ae3          	bnez	a5,1494 <user_calib_adc_vref.constprop.9+0x88>
    14e4:	00000513          	li	a0,0
    14e8:	40f2                	c.lwsp	ra,28(sp)
    14ea:	6105                	c.addi16sp	sp,32
    14ec:	00008067          	ret
    14f0:	00814503          	lbu	a0,8(sp)
    14f4:	00914783          	lbu	a5,9(sp)
    14f8:	953e                	c.add	a0,a5
    14fa:	f8050513          	addi	a0,a0,-128
    14fe:	3c05255b          	bfoz	a0,a0,15,0
    1502:	0fc53513          	sltiu	a0,a0,252
    1506:	b7cd                	c.j	14e8 <user_calib_adc_vref.constprop.9+0xdc>

00001508 <user_calib_freq_offset.constprop.8>:
    1508:	000007b7          	lui	a5,0x0
    150c:	1101                	c.addi	sp,-32
    150e:	1587a783          	lw	a5,344(a5) # 158 <_AES_VMA_END>
    1512:	577d                	c.li	a4,-1
    1514:	00f10613          	addi	a2,sp,15
    1518:	4585                	c.li	a1,1
    151a:	cc22                	c.swsp	s0,24(sp)
    151c:	ce06                	c.swsp	ra,28(sp)
    151e:	00e107a3          	sb	a4,15(sp)
    1522:	9782                	c.jalr	a5
    1524:	00f14403          	lbu	s0,15(sp)
    1528:	0ff00793          	li	a5,255
    152c:	00000513          	li	a0,0
    1530:	02f40263          	beq	s0,a5,1554 <user_calib_freq_offset.constprop.8+0x4c>
    1534:	08a00513          	li	a0,138
    1538:	aa0ff0ef          	jal	ra,7d8 <analog_read_reg8>
    153c:	03f47413          	andi	s0,s0,63
    1540:	04057593          	andi	a1,a0,64
    1544:	0085e5b3          	or	a1,a1,s0
    1548:	08a00513          	li	a0,138
    154c:	a48ff0ef          	jal	ra,794 <analog_write_reg8>
    1550:	00100513          	li	a0,1
    1554:	40f2                	c.lwsp	ra,28(sp)
    1556:	4462                	c.lwsp	s0,24(sp)
    1558:	6105                	c.addi16sp	sp,32
    155a:	8082                	c.jr	ra
    155c:	0001                	c.nop
	...

00001560 <gpio_input_dis>:
    1560:	801407b7          	lui	a5,0x80140
    1564:	30978703          	lb	a4,777(a5) # 80140309 <_DATA_LMA_START+0x60135471>
    1568:	fff54513          	not	a0,a0
    156c:	8d79                	c.and	a0,a4
    156e:	0ff57513          	andi	a0,a0,255
    1572:	30a784a3          	sb	a0,777(a5)
    1576:	8082                	c.jr	ra
    1578:	0001                	c.nop
	...

0000157c <_write>:
    157c:	1141                	c.addi	sp,-16
    157e:	c606                	c.swsp	ra,12(sp)
    1580:	c422                	c.swsp	s0,8(sp)
    1582:	c226                	c.swsp	s1,4(sp)
    1584:	c04a                	c.swsp	s2,0(sp)
    1586:	02c05763          	blez	a2,15b4 <_write+0x38>
    158a:	8932                	c.mv	s2,a2
    158c:	00b00433          	add	s0,zero,a1
    1590:	00c584b3          	add	s1,a1,a2
    1594:	00044503          	lbu	a0,0(s0)
    1598:	00140413          	addi	s0,s0,1
    159c:	e10ff0ef          	jal	ra,bac <dr_putchar>
    15a0:	fe941ae3          	bne	s0,s1,1594 <_write+0x18>
    15a4:	40b2                	c.lwsp	ra,12(sp)
    15a6:	4422                	c.lwsp	s0,8(sp)
    15a8:	854a                	c.mv	a0,s2
    15aa:	4492                	c.lwsp	s1,4(sp)
    15ac:	4902                	c.lwsp	s2,0(sp)
    15ae:	0141                	c.addi	sp,16
    15b0:	00008067          	ret
    15b4:	40b2                	c.lwsp	ra,12(sp)
    15b6:	4422                	c.lwsp	s0,8(sp)
    15b8:	4901                	c.li	s2,0
    15ba:	854a                	c.mv	a0,s2
    15bc:	4492                	c.lwsp	s1,4(sp)
    15be:	4902                	c.lwsp	s2,0(sp)
    15c0:	0141                	c.addi	sp,16
    15c2:	8082                	c.jr	ra

000015c4 <main>:
    15c4:	7109                	c.addi16sp	sp,-384
    15c6:	ffbc07b7          	lui	a5,0xffbc0
    15ca:	16112e23          	sw	ra,380(sp)
    15ce:	17fd                	c.addi	a5,-1
    15d0:	80140737          	lui	a4,0x80140
    15d4:	16812c23          	sw	s0,376(sp)
    15d8:	16912a23          	sw	s1,372(sp)
    15dc:	17212823          	sw	s2,368(sp)
    15e0:	17312623          	sw	s3,364(sp)
    15e4:	17412423          	sw	s4,360(sp)
    15e8:	17512223          	sw	s5,356(sp)
    15ec:	17612023          	sw	s6,352(sp)
    15f0:	15712e23          	sw	s7,348(sp)
    15f4:	15812c23          	sw	s8,344(sp)
    15f8:	15912a23          	sw	s9,340(sp)
    15fc:	15a12823          	sw	s10,336(sp)
    1600:	15b12623          	sw	s11,332(sp)
    1604:	1ef72023          	sw	a5,480(a4) # 801401e0 <_DATA_LMA_START+0x60135348>
    1608:	00200593          	li	a1,2
    160c:	08c00513          	li	a0,140
    1610:	1ef72223          	sw	a5,484(a4)
    1614:	980ff0ef          	jal	ra,794 <analog_write_reg8>
    1618:	4581                	c.li	a1,0
    161a:	4529                	c.li	a0,10
    161c:	978ff0ef          	jal	ra,794 <analog_write_reg8>
    1620:	03b00593          	li	a1,59
    1624:	00b00513          	li	a0,11
    1628:	96cff0ef          	jal	ra,794 <analog_write_reg8>
    162c:	00500513          	li	a0,5
    1630:	9a8ff0ef          	jal	ra,7d8 <analog_read_reg8>
    1634:	0f757593          	andi	a1,a0,247
    1638:	00500513          	li	a0,5
    163c:	958ff0ef          	jal	ra,794 <analog_write_reg8>
    1640:	00600513          	li	a0,6
    1644:	994ff0ef          	jal	ra,7d8 <analog_read_reg8>
    1648:	03e57593          	andi	a1,a0,62
    164c:	00600513          	li	a0,6
    1650:	944ff0ef          	jal	ra,794 <analog_write_reg8>
    1654:	04500593          	li	a1,69
    1658:	00100513          	li	a0,1
    165c:	938ff0ef          	jal	ra,794 <analog_write_reg8>
    1660:	04c00593          	li	a1,76
    1664:	01c00513          	li	a0,28
    1668:	92cff0ef          	jal	ra,794 <analog_write_reg8>
    166c:	801007b7          	lui	a5,0x80100
    1670:	44478703          	lb	a4,1092(a5) # 80100444 <_DATA_LMA_START+0x600f55ac>
    1674:	801016b7          	lui	a3,0x80101
    1678:	0ff77713          	andi	a4,a4,255
    167c:	00e76713          	ori	a4,a4,14
    1680:	44e78223          	sb	a4,1092(a5)
    1684:	45878703          	lb	a4,1112(a5)
    1688:	03800513          	li	a0,56
    168c:	0ff77713          	andi	a4,a4,255
    1690:	00e76713          	ori	a4,a4,14
    1694:	44e78c23          	sb	a4,1112(a5)
    1698:	46c78703          	lb	a4,1132(a5)
    169c:	0ff77713          	andi	a4,a4,255
    16a0:	00e76713          	ori	a4,a4,14
    16a4:	46e78623          	sb	a4,1132(a5)
    16a8:	48078703          	lb	a4,1152(a5)
    16ac:	0ff77713          	andi	a4,a4,255
    16b0:	00e76713          	ori	a4,a4,14
    16b4:	48e78023          	sb	a4,1152(a5)
    16b8:	49478703          	lb	a4,1172(a5)
    16bc:	0ff77713          	andi	a4,a4,255
    16c0:	00e76713          	ori	a4,a4,14
    16c4:	48e78a23          	sb	a4,1172(a5)
    16c8:	4a878703          	lb	a4,1192(a5)
    16cc:	0ff77713          	andi	a4,a4,255
    16d0:	00e76713          	ori	a4,a4,14
    16d4:	4ae78423          	sb	a4,1192(a5)
    16d8:	4bc78703          	lb	a4,1212(a5)
    16dc:	0ff77713          	andi	a4,a4,255
    16e0:	00e76713          	ori	a4,a4,14
    16e4:	4ae78e23          	sb	a4,1212(a5)
    16e8:	4d078703          	lb	a4,1232(a5)
    16ec:	0ff77713          	andi	a4,a4,255
    16f0:	00e76713          	ori	a4,a4,14
    16f4:	4ce78823          	sb	a4,1232(a5)
    16f8:	83a68783          	lb	a5,-1990(a3) # 8010083a <_DATA_LMA_START+0x600f59a2>
    16fc:	82068d23          	sb	zero,-1990(a3)
    1700:	8d8ff0ef          	jal	ra,7d8 <analog_read_reg8>
    1704:	00a00433          	add	s0,zero,a0
    1708:	03900513          	li	a0,57
    170c:	8ccff0ef          	jal	ra,7d8 <analog_read_reg8>
    1710:	84aa                	c.mv	s1,a0
    1712:	4004745b          	bbs	s0,0,171a <main+0x156>
    1716:	1230006f          	j	2038 <main+0xa74>
    171a:	0fe47593          	andi	a1,s0,254
    171e:	531c140b          	addigp	s0,27952 # 87530 <g_pm_status_info>
    1722:	03800513          	li	a0,56
    1726:	4004f45b          	bbs	s1,0,172e <main+0x16a>
    172a:	0ef0006f          	j	2018 <main+0xa54>
    172e:	4791                	c.li	a5,4
    1730:	00f40123          	sb	a5,2(s0)
    1734:	860ff0ef          	jal	ra,794 <analog_write_reg8>
    1738:	00100593          	li	a1,1
    173c:	07f00513          	li	a0,127
    1740:	854ff0ef          	jal	ra,794 <analog_write_reg8>
    1744:	06400513          	li	a0,100
    1748:	890ff0ef          	jal	ra,7d8 <analog_read_reg8>
    174c:	0c3527db          	bfoz	a5,a0,3,3
    1750:	00a400a3          	sb	a0,1(s0)
    1754:	00f40023          	sb	a5,0(s0)
    1758:	08800513          	li	a0,136
    175c:	87cff0ef          	jal	ra,7d8 <analog_read_reg8>
    1760:	be757c5b          	bbc	a0,7,1758 <main+0x194>
    1764:	a00ff0ef          	jal	ra,964 <pm_wait_bbpll_done>
    1768:	00244783          	lbu	a5,2(s0)
    176c:	0a87dc5b          	beqc	a5,8,1824 <main+0x260>
    1770:	80140737          	lui	a4,0x80140
    1774:	20a70783          	lb	a5,522(a4) # 8014020a <_DATA_LMA_START+0x60135372>
    1778:	0ff7f793          	andi	a5,a5,255
    177c:	00c7e793          	ori	a5,a5,12
    1780:	20f70523          	sb	a5,522(a4)
    1784:	00100793          	li	a5,1
    1788:	20f72023          	sw	a5,512(a4)
    178c:	801404b7          	lui	s1,0x80140
    1790:	1fd48783          	lb	a5,509(s1) # 801401fd <_DATA_LMA_START+0x60135365>
    1794:	0ff7f793          	andi	a5,a5,255
    1798:	52fc46ab          	swgp	a5,27948 # 8752c <g_chip_version>
    179c:	00244703          	lbu	a4,2(s0)
    17a0:	04475c5b          	beqc	a4,4,17f8 <main+0x234>
    17a4:	0ff00693          	li	a3,255
    17a8:	04d78063          	beq	a5,a3,17e8 <main+0x224>
    17ac:	08000593          	li	a1,128
    17b0:	07d00513          	li	a0,125
    17b4:	fe1fe0ef          	jal	ra,794 <analog_write_reg8>
    17b8:	80140737          	lui	a4,0x80140
    17bc:	06500793          	li	a5,101
    17c0:	1ef70a23          	sb	a5,500(a4) # 801401f4 <_DATA_LMA_START+0x6013535c>
    17c4:	1c872783          	lw	a5,456(a4)
    17c8:	1e070a23          	sb	zero,500(a4)
    17cc:	8bbd                	c.andi	a5,15
    17ce:	0037d55b          	beqc	a5,3,17d8 <main+0x214>
    17d2:	4725                	c.li	a4,9
    17d4:	04f77c63          	bgeu	a4,a5,182c <main+0x268>
    17d8:	801407b7          	lui	a5,0x80140
    17dc:	02000713          	li	a4,32
    17e0:	1ee787a3          	sb	a4,495(a5) # 801401ef <_DATA_LMA_START+0x60135357>
    17e4:	0000006f          	j	17e4 <main+0x220>
    17e8:	bc17625b          	bnec	a4,1,17ac <main+0x1e8>
    17ec:	07d00513          	li	a0,125
    17f0:	08000593          	li	a1,128
    17f4:	0180006f          	j	180c <main+0x248>
    17f8:	03900513          	li	a0,57
    17fc:	fddfe0ef          	jal	ra,7d8 <analog_read_reg8>
    1800:	00256593          	ori	a1,a0,2
    1804:	0ff5f593          	andi	a1,a1,255
    1808:	03900513          	li	a0,57
    180c:	f89fe0ef          	jal	ra,794 <analog_write_reg8>
    1810:	2004a503          	lw	a0,512(s1)
    1814:	001877b7          	lui	a5,0x187
    1818:	a0078793          	addi	a5,a5,-1536 # 186a00 <FLASH_SIZE+0x86a00>
    181c:	953e                	c.add	a0,a5
    181e:	3ed9                	c.jal	13f4 <pm_sleep_wakeup.constprop.2>
    1820:	f8dff06f          	j	17ac <main+0x1e8>
    1824:	b59fe0ef          	jal	ra,37c <pm_stimer_recover>
    1828:	f65ff06f          	j	178c <main+0x1c8>
    182c:	00f00513          	li	a0,15
    1830:	fa9fe0ef          	jal	ra,7d8 <analog_read_reg8>
    1834:	03f57593          	andi	a1,a0,63
    1838:	0405e593          	ori	a1,a1,64
    183c:	00f00513          	li	a0,15
    1840:	f55fe0ef          	jal	ra,794 <analog_write_reg8>
    1844:	0a0c                	c.addi4spn	a1,sp,272
    1846:	11c8                	c.addi4spn	a0,sp,228
    1848:	a0dff0ef          	jal	ra,1254 <flash_read_mid_uid_with_check>
    184c:	0ff57513          	andi	a0,a0,255
    1850:	0015545b          	beqc	a0,1,1858 <main+0x294>
    1854:	0710006f          	j	20c4 <main+0xb00>
    1858:	0e614783          	lbu	a5,230(sp)
    185c:	474d                	c.li	a4,19
    185e:	0137e45b          	bnec	a5,19,1866 <main+0x2a2>
    1862:	04b0006f          	j	20ac <main+0xae8>
    1866:	02f773e3          	bgeu	a4,a5,208c <main+0xac8>
    186a:	4755                	c.li	a4,21
    186c:	0157e45b          	bnec	a5,21,1874 <main+0x2b0>
    1870:	0050006f          	j	2074 <main+0xab0>
    1874:	08e7ece3          	bltu	a5,a4,210c <main+0xb48>
    1878:	0167d45b          	beqc	a5,22,1880 <main+0x2bc>
    187c:	0490006f          	j	20c4 <main+0xb00>
    1880:	003fe537          	lui	a0,0x3fe
    1884:	0c050513          	addi	a0,a0,192 # 3fe0c0 <FLASH_SIZE+0x2fe0c0>
    1888:	b85ff0ef          	jal	ra,140c <user_calib_adc_vref.constprop.9>
    188c:	003fe537          	lui	a0,0x3fe
    1890:	c79ff0ef          	jal	ra,1508 <user_calib_freq_offset.constprop.8>
    1894:	b49ff0ef          	jal	ra,13dc <clock_init.constprop.10>
    1898:	801404b7          	lui	s1,0x80140
    189c:	30e48783          	lb	a5,782(s1) # 8014030e <_DATA_LMA_START+0x60135476>
    18a0:	11000513          	li	a0,272
    18a4:	0ff7f793          	andi	a5,a5,255
    18a8:	0107e793          	ori	a5,a5,16
    18ac:	30f48723          	sb	a5,782(s1)
    18b0:	30a48783          	lb	a5,778(s1)
    18b4:	4d05                	c.li	s10,1
    18b6:	0ef7f793          	andi	a5,a5,239
    18ba:	30f48523          	sb	a5,778(s1)
    18be:	314d                	c.jal	1560 <gpio_input_dis>
    18c0:	30e48783          	lb	a5,782(s1)
    18c4:	12000513          	li	a0,288
    18c8:	0ff7f793          	andi	a5,a5,255
    18cc:	0207e793          	ori	a5,a5,32
    18d0:	30f48723          	sb	a5,782(s1)
    18d4:	30a48783          	lb	a5,778(s1)
    18d8:	04000a93          	li	s5,64
    18dc:	0df7f793          	andi	a5,a5,223
    18e0:	30f48523          	sb	a5,778(s1)
    18e4:	c7dff0ef          	jal	ra,1560 <gpio_input_dis>
    18e8:	30e48783          	lb	a5,782(s1)
    18ec:	4f09                	c.li	t5,2
    18ee:	0ff7f793          	andi	a5,a5,255
    18f2:	0407e793          	ori	a5,a5,64
    18f6:	30f48723          	sb	a5,782(s1)
    18fa:	30a48783          	lb	a5,778(s1)
    18fe:	14000513          	li	a0,320
    1902:	cc7a                	c.swsp	t5,24(sp)
    1904:	0bf7f793          	andi	a5,a5,191
    1908:	30f48523          	sb	a5,778(s1)
    190c:	c55ff0ef          	jal	ra,1560 <gpio_input_dis>
    1910:	30e48783          	lb	a5,782(s1)
    1914:	4ea9                	c.li	t4,10
    1916:	f807e793          	ori	a5,a5,-128
    191a:	ca76                	c.swsp	t4,20(sp)
    191c:	0ff7f793          	andi	a5,a5,255
    1920:	30f48723          	sb	a5,782(s1)
    1924:	30a48783          	lb	a5,778(s1)
    1928:	18000513          	li	a0,384
    192c:	07f7f793          	andi	a5,a5,127
    1930:	30f48523          	sb	a5,778(s1)
    1934:	c2dff0ef          	jal	ra,1560 <gpio_input_dis>
    1938:	00087537          	lui	a0,0x87
    193c:	36c50513          	addi	a0,a0,876 # 8736c <ds_cnn_s_layer_9_conv_2d_weights+0x1010>
    1940:	70a080ef          	jal	ra,a04a <puts>
    1944:	65a9                	c.lui	a1,0xa
    1946:	00087537          	lui	a0,0x87
    194a:	0585                	c.addi	a1,1
    194c:	37050513          	addi	a0,a0,880 # 87370 <ds_cnn_s_layer_9_conv_2d_weights+0x1014>
    1950:	6dc080ef          	jal	ra,a02c <printf>
    1954:	00087537          	lui	a0,0x87
    1958:	7e400593          	li	a1,2020
    195c:	38850513          	addi	a0,a0,904 # 87388 <ds_cnn_s_layer_9_conv_2d_weights+0x102c>
    1960:	6cc080ef          	jal	ra,a02c <printf>
    1964:	000875b7          	lui	a1,0x87
    1968:	00087537          	lui	a0,0x87
    196c:	3a058593          	addi	a1,a1,928 # 873a0 <ds_cnn_s_layer_9_conv_2d_weights+0x1044>
    1970:	3ac50513          	addi	a0,a0,940 # 873ac <ds_cnn_s_layer_9_conv_2d_weights+0x1050>
    1974:	6b8080ef          	jal	ra,a02c <printf>
    1978:	889fe0ef          	jal	ra,200 <delay_ms.constprop.12>
    197c:	00087537          	lui	a0,0x87
    1980:	3d450513          	addi	a0,a0,980 # 873d4 <ds_cnn_s_layer_9_conv_2d_weights+0x1078>
    1984:	6a8080ef          	jal	ra,a02c <printf>
    1988:	879fe0ef          	jal	ra,200 <delay_ms.constprop.12>
    198c:	00087537          	lui	a0,0x87
    1990:	3ec50513          	addi	a0,a0,1004 # 873ec <ds_cnn_s_layer_9_conv_2d_weights+0x1090>
    1994:	6b6080ef          	jal	ra,a04a <puts>
    1998:	869fe0ef          	jal	ra,200 <delay_ms.constprop.12>
    199c:	4f62                	c.lwsp	t5,24(sp)
    199e:	4ed2                	c.lwsp	t4,20(sp)
    19a0:	4ce5                	c.li	s9,25
    19a2:	4c15                	c.li	s8,5
    19a4:	4d91                	c.li	s11,4
    19a6:	1974                	c.addi4spn	a3,sp,188
    19a8:	1150                	c.addi4spn	a2,sp,164
    19aa:	090c                	c.addi4spn	a1,sp,144
    19ac:	03100493          	li	s1,49
    19b0:	11c8                	c.addi4spn	a0,sp,228
    19b2:	d9fa                	c.swsp	t5,240(sp)
    19b4:	d7fa                	c.swsp	t5,236(sp)
    19b6:	ce7a                	c.swsp	t5,28(sp)
    19b8:	cd76                	c.swsp	t4,152(sp)
    19ba:	d576                	c.swsp	t4,168(sp)
    19bc:	cc76                	c.swsp	t4,24(sp)
    19be:	ddee                	c.swsp	s11,248(sp)
    19c0:	cb26                	c.swsp	s1,148(sp)
    19c2:	d76e                	c.swsp	s11,172(sp)
    19c4:	c5d6                	c.swsp	s5,200(sp)
    19c6:	dbea                	c.swsp	s10,244(sp)
    19c8:	11a12023          	sw	s10,256(sp)
    19cc:	dfea                	c.swsp	s10,252(sp)
    19ce:	c96a                	c.swsp	s10,144(sp)
    19d0:	cf6a                	c.swsp	s10,156(sp)
    19d2:	d96a                	c.swsp	s10,176(sp)
    19d4:	df6a                	c.swsp	s10,188(sp)
    19d6:	c1e6                	c.swsp	s9,192(sp)
    19d8:	0d812223          	sw	s8,196(sp)
    19dc:	400010ef          	jal	ra,2ddc <riscv_convolve_wrapper_s8_get_buffer_size>
    19e0:	f8000413          	li	s0,-128
    19e4:	08000a13          	li	s4,128
    19e8:	4f8d                	c.li	t6,3
    19ea:	84aa                	c.mv	s1,a0
    19ec:	1974                	c.addi4spn	a3,sp,188
    19ee:	1150                	c.addi4spn	a2,sp,164
    19f0:	090c                	c.addi4spn	a1,sp,144
    19f2:	07f00713          	li	a4,127
    19f6:	0a08                	c.addi4spn	a0,sp,272
    19f8:	d57e                	c.swsp	t6,168(sp)
    19fa:	d77e                	c.swsp	t6,172(sp)
    19fc:	ca7e                	c.swsp	t6,20(sp)
    19fe:	12812a23          	sw	s0,308(sp)
    1a02:	12e12c23          	sw	a4,312(sp)
    1a06:	11412823          	sw	s4,272(sp)
    1a0a:	10812a23          	sw	s0,276(sp)
    1a0e:	cf56                	c.swsp	s5,156(sp)
    1a10:	c5d6                	c.swsp	s5,200(sp)
    1a12:	11a12c23          	sw	s10,280(sp)
    1a16:	13a12823          	sw	s10,304(sp)
    1a1a:	13a12623          	sw	s10,300(sp)
    1a1e:	13a12423          	sw	s10,296(sp)
    1a22:	13a12223          	sw	s10,292(sp)
    1a26:	13a12023          	sw	s10,288(sp)
    1a2a:	11a12e23          	sw	s10,284(sp)
    1a2e:	c96a                	c.swsp	s10,144(sp)
    1a30:	cb66                	c.swsp	s9,148(sp)
    1a32:	cd62                	c.swsp	s8,152(sp)
    1a34:	c1e6                	c.swsp	s9,192(sp)
    1a36:	c3e2                	c.swsp	s8,196(sp)
    1a38:	434010ef          	jal	ra,2e6c <riscv_depthwise_conv_wrapper_s8_get_buffer_size>
    1a3c:	03000713          	li	a4,48
    1a40:	f2a487ff          	maxw	a5,s1,a0
    1a44:	f2e787ff          	maxw	a5,a5,a4
    1a48:	853e                	c.mv	a0,a5
    1a4a:	de3e                	c.swsp	a5,60(sp)
    1a4c:	480080ef          	jal	ra,9ecc <malloc>
    1a50:	4f72                	c.lwsp	t5,28(sp)
    1a52:	4ee2                	c.lwsp	t4,24(sp)
    1a54:	c5fa                	c.swsp	t5,200(sp)
    1a56:	c3fa                	c.swsp	t5,196(sp)
    1a58:	f9c00f13          	li	t5,-100
    1a5c:	df7a                	c.swsp	t5,188(sp)
    1a5e:	e5df9f0b          	addigp	t5,-420 # 8065c <ds_cnn_s_layer_1_conv_2d_output_mult>
    1a62:	08010993          	addi	s3,sp,128
    1a66:	d87a                	c.swsp	t5,48(sp)
    1a68:	07f00293          	li	t0,127
    1a6c:	03100093          	li	ra,49
    1a70:	05010913          	addi	s2,sp,80
    1a74:	f5df9f0b          	addigp	t5,-164 # 8075c <ds_cnn_s_layer_1_conv_2d_output_shift>
    1a78:	551c1b8b          	addigp	s7,27984 # 87550 <in_out_buf_main>
    1a7c:	86ce                	c.mv	a3,s3
    1a7e:	d5df9e0b          	addigp	t3,-676 # 8055c <ds_cnn_s_layer_1_conv_2d_bias>
    1a82:	dc2a                	c.swsp	a0,56(sp)
    1a84:	04010893          	addi	a7,sp,64
    1a88:	05c0180b          	addigp	a6,92 # 8085c <ds_cnn_s_layer_1_conv_2d_weights>
    1a8c:	189c                	c.addi4spn	a5,sp,112
    1a8e:	841f970b          	addigp	a4,-1984 # 80040 <ds_cnn_s_input>
    1a92:	1810                	c.addi4spn	a2,sp,48
    1a94:	196c                	c.addi4spn	a1,sp,188
    1a96:	1828                	c.addi4spn	a0,sp,56
    1a98:	d196                	c.swsp	t0,224(sp)
    1a9a:	c306                	c.swsp	ra,132(sp)
    1a9c:	da7a                	c.swsp	t5,52(sp)
    1a9e:	c576                	c.swsp	t4,136(sp)
    1aa0:	daf6                	c.swsp	t4,116(sp)
    1aa2:	c9ee                	c.swsp	s11,208(sp)
    1aa4:	c1a2                	c.swsp	s0,192(sp)
    1aa6:	cfa2                	c.swsp	s0,220(sp)
    1aa8:	dcee                	c.swsp	s11,120(sp)
    1aaa:	ced6                	c.swsp	s5,92(sp)
    1aac:	c6d6                	c.swsp	s5,76(sp)
    1aae:	c24a                	c.swsp	s2,4(sp)
    1ab0:	c072                	c.swsp	t3,0(sp)
    1ab2:	c7ea                	c.swsp	s10,204(sp)
    1ab4:	cdea                	c.swsp	s10,216(sp)
    1ab6:	cbea                	c.swsp	s10,212(sp)
    1ab8:	c16a                	c.swsp	s10,128(sp)
    1aba:	c76a                	c.swsp	s10,140(sp)
    1abc:	deea                	c.swsp	s10,124(sp)
    1abe:	c8ea                	c.swsp	s10,80(sp)
    1ac0:	cae6                	c.swsp	s9,84(sp)
    1ac2:	cce2                	c.swsp	s8,88(sp)
    1ac4:	01712423          	sw	s7,8(sp)
    1ac8:	674000ef          	jal	ra,213c <riscv_convolve_wrapper_s8>
    1acc:	35d01e0b          	addigp	t3,2908 # 8135c <ds_cnn_s_layer_2_depthwise_conv_2d_output_mult>
    1ad0:	d872                	c.swsp	t3,48(sp)
    1ad2:	45d01e0b          	addigp	t3,3164 # 8145c <ds_cnn_s_layer_2_depthwise_conv_2d_output_shift>
    1ad6:	4fd2                	c.lwsp	t6,20(sp)
    1ad8:	da72                	c.swsp	t3,52(sp)
    1ada:	07f00393          	li	t2,127
    1ade:	49109d8b          	addigp	s11,35984 # 89490 <in_out_buf_main+0x1f40>
    1ae2:	86ca                	c.mv	a3,s2
    1ae4:	25d01e0b          	addigp	t3,2652 # 8125c <ds_cnn_s_layer_2_depthwise_conv_2d_bias>
    1ae8:	04010893          	addi	a7,sp,64
    1aec:	55d0180b          	addigp	a6,3420 # 8155c <ds_cnn_s_layer_2_depthwise_conv_2d_weights>
    1af0:	109c                	c.addi4spn	a5,sp,96
    1af2:	551c170b          	addigp	a4,27984 # 87550 <in_out_buf_main>
    1af6:	1810                	c.addi4spn	a2,sp,48
    1af8:	11cc                	c.addi4spn	a1,sp,228
    1afa:	1828                	c.addi4spn	a0,sp,56
    1afc:	d2fe                	c.swsp	t6,100(sp)
    1afe:	d4fe                	c.swsp	t6,104(sp)
    1b00:	10712623          	sw	t2,268(sp)
    1b04:	10812423          	sw	s0,264(sp)
    1b08:	d3d2                	c.swsp	s4,228(sp)
    1b0a:	d5a2                	c.swsp	s0,232(sp)
    1b0c:	c756                	c.swsp	s5,140(sp)
    1b0e:	c6d6                	c.swsp	s5,76(sp)
    1b10:	c46e                	c.swsp	s11,8(sp)
    1b12:	c24e                	c.swsp	s3,4(sp)
    1b14:	c072                	c.swsp	t3,0(sp)
    1b16:	d7ea                	c.swsp	s10,236(sp)
    1b18:	11a12223          	sw	s10,260(sp)
    1b1c:	11a12023          	sw	s10,256(sp)
    1b20:	dfea                	c.swsp	s10,252(sp)
    1b22:	ddea                	c.swsp	s10,248(sp)
    1b24:	dbea                	c.swsp	s10,244(sp)
    1b26:	d9ea                	c.swsp	s10,240(sp)
    1b28:	c366                	c.swsp	s9,132(sp)
    1b2a:	c562                	c.swsp	s8,136(sp)
    1b2c:	19d010ef          	jal	ra,34c8 <riscv_depthwise_conv_wrapper_s8>
    1b30:	4e1a                	c.lwsp	t3,132(sp)
    1b32:	caf2                	c.swsp	t3,84(sp)
    1b34:	4e2a                	c.lwsp	t3,136(sp)
    1b36:	4910970b          	addigp	a4,35984 # 89490 <in_out_buf_main+0x1f40>
    1b3a:	ccf2                	c.swsp	t3,88(sp)
    1b3c:	4e3a                	c.lwsp	t3,140(sp)
    1b3e:	86ce                	c.mv	a3,s3
    1b40:	cef2                	c.swsp	t3,92(sp)
    1b42:	09c21e0b          	addigp	t3,4252 # 8189c <ds_cnn_s_layer_3_conv_2d_output_mult>
    1b46:	d872                	c.swsp	t3,48(sp)
    1b48:	19c21e0b          	addigp	t3,4508 # 8199c <ds_cnn_s_layer_3_conv_2d_output_shift>
    1b4c:	da72                	c.swsp	t3,52(sp)
    1b4e:	79d01e0b          	addigp	t3,3996 # 8179c <ds_cnn_s_layer_3_conv_2d_bias>
    1b52:	04010893          	addi	a7,sp,64
    1b56:	29c2180b          	addigp	a6,4764 # 81a9c <ds_cnn_s_layer_3_conv_2d_weights>
    1b5a:	189c                	c.addi4spn	a5,sp,112
    1b5c:	1810                	c.addi4spn	a2,sp,48
    1b5e:	196c                	c.addi4spn	a1,sp,188
    1b60:	1828                	c.addi4spn	a0,sp,56
    1b62:	ded6                	c.swsp	s5,124(sp)
    1b64:	df52                	c.swsp	s4,188(sp)
    1b66:	c1a2                	c.swsp	s0,192(sp)
    1b68:	c24a                	c.swsp	s2,4(sp)
    1b6a:	c072                	c.swsp	t3,0(sp)
    1b6c:	daea                	c.swsp	s10,116(sp)
    1b6e:	dcea                	c.swsp	s10,120(sp)
    1b70:	c982                	c.swsp	zero,208(sp)
    1b72:	c782                	c.swsp	zero,204(sp)
    1b74:	c5ea                	c.swsp	s10,200(sp)
    1b76:	c3ea                	c.swsp	s10,196(sp)
    1b78:	01712423          	sw	s7,8(sp)
    1b7c:	5c0000ef          	jal	ra,213c <riscv_convolve_wrapper_s8>
    1b80:	39c41e0b          	addigp	t3,9116 # 82b9c <ds_cnn_s_layer_4_depthwise_conv_2d_output_mult>
    1b84:	d872                	c.swsp	t3,48(sp)
    1b86:	49c41e0b          	addigp	t3,9372 # 82c9c <ds_cnn_s_layer_4_depthwise_conv_2d_output_shift>
    1b8a:	da72                	c.swsp	t3,52(sp)
    1b8c:	86ca                	c.mv	a3,s2
    1b8e:	29c41e0b          	addigp	t3,8860 # 82a9c <ds_cnn_s_layer_4_depthwise_conv_2d_bias>
    1b92:	04010893          	addi	a7,sp,64
    1b96:	59c4180b          	addigp	a6,9628 # 82d9c <ds_cnn_s_layer_4_depthwise_conv_2d_weights>
    1b9a:	109c                	c.addi4spn	a5,sp,96
    1b9c:	551c170b          	addigp	a4,27984 # 87550 <in_out_buf_main>
    1ba0:	1810                	c.addi4spn	a2,sp,48
    1ba2:	11cc                	c.addi4spn	a1,sp,228
    1ba4:	1828                	c.addi4spn	a0,sp,56
    1ba6:	d3d2                	c.swsp	s4,228(sp)
    1ba8:	d5a2                	c.swsp	s0,232(sp)
    1baa:	c46e                	c.swsp	s11,8(sp)
    1bac:	c24e                	c.swsp	s3,4(sp)
    1bae:	c072                	c.swsp	t3,0(sp)
    1bb0:	119010ef          	jal	ra,34c8 <riscv_depthwise_conv_wrapper_s8>
    1bb4:	0dd41e0b          	addigp	t3,10460 # 830dc <ds_cnn_s_layer_5_conv_2d_output_mult>
    1bb8:	d872                	c.swsp	t3,48(sp)
    1bba:	1dd41e0b          	addigp	t3,10716 # 831dc <ds_cnn_s_layer_5_conv_2d_output_shift>
    1bbe:	da72                	c.swsp	t3,52(sp)
    1bc0:	4910970b          	addigp	a4,35984 # 89490 <in_out_buf_main+0x1f40>
    1bc4:	86ce                	c.mv	a3,s3
    1bc6:	7dc41e0b          	addigp	t3,10204 # 82fdc <ds_cnn_s_layer_5_conv_2d_bias>
    1bca:	04010893          	addi	a7,sp,64
    1bce:	2dd4180b          	addigp	a6,10972 # 832dc <ds_cnn_s_layer_5_conv_2d_weights>
    1bd2:	189c                	c.addi4spn	a5,sp,112
    1bd4:	1810                	c.addi4spn	a2,sp,48
    1bd6:	196c                	c.addi4spn	a1,sp,188
    1bd8:	1828                	c.addi4spn	a0,sp,56
    1bda:	df52                	c.swsp	s4,188(sp)
    1bdc:	c1a2                	c.swsp	s0,192(sp)
    1bde:	c24a                	c.swsp	s2,4(sp)
    1be0:	c072                	c.swsp	t3,0(sp)
    1be2:	c45e                	c.swsp	s7,8(sp)
    1be4:	558000ef          	jal	ra,213c <riscv_convolve_wrapper_s8>
    1be8:	3dd61e0b          	addigp	t3,15324 # 843dc <ds_cnn_s_layer_6_depthwise_conv_2d_output_mult>
    1bec:	d872                	c.swsp	t3,48(sp)
    1bee:	4dd61e0b          	addigp	t3,15580 # 844dc <ds_cnn_s_layer_6_depthwise_conv_2d_output_shift>
    1bf2:	da72                	c.swsp	t3,52(sp)
    1bf4:	86ca                	c.mv	a3,s2
    1bf6:	2dd61e0b          	addigp	t3,15068 # 842dc <ds_cnn_s_layer_6_depthwise_conv_2d_bias>
    1bfa:	04010893          	addi	a7,sp,64
    1bfe:	5dd6180b          	addigp	a6,15836 # 845dc <ds_cnn_s_layer_6_depthwise_conv_2d_weights>
    1c02:	109c                	c.addi4spn	a5,sp,96
    1c04:	551c170b          	addigp	a4,27984 # 87550 <in_out_buf_main>
    1c08:	1810                	c.addi4spn	a2,sp,48
    1c0a:	11cc                	c.addi4spn	a1,sp,228
    1c0c:	1828                	c.addi4spn	a0,sp,56
    1c0e:	d3d2                	c.swsp	s4,228(sp)
    1c10:	d5a2                	c.swsp	s0,232(sp)
    1c12:	c46e                	c.swsp	s11,8(sp)
    1c14:	c24e                	c.swsp	s3,4(sp)
    1c16:	c072                	c.swsp	t3,0(sp)
    1c18:	0b1010ef          	jal	ra,34c8 <riscv_depthwise_conv_wrapper_s8>
    1c1c:	11c81e0b          	addigp	t3,16668 # 8491c <ds_cnn_s_layer_7_conv_2d_output_mult>
    1c20:	d872                	c.swsp	t3,48(sp)
    1c22:	21c81e0b          	addigp	t3,16924 # 84a1c <ds_cnn_s_layer_7_conv_2d_output_shift>
    1c26:	da72                	c.swsp	t3,52(sp)
    1c28:	4910970b          	addigp	a4,35984 # 89490 <in_out_buf_main+0x1f40>
    1c2c:	86ce                	c.mv	a3,s3
    1c2e:	01c81e0b          	addigp	t3,16412 # 8481c <ds_cnn_s_layer_7_conv_2d_bias>
    1c32:	04010893          	addi	a7,sp,64
    1c36:	31c8180b          	addigp	a6,17180 # 84b1c <ds_cnn_s_layer_7_conv_2d_weights>
    1c3a:	189c                	c.addi4spn	a5,sp,112
    1c3c:	1810                	c.addi4spn	a2,sp,48
    1c3e:	196c                	c.addi4spn	a1,sp,188
    1c40:	1828                	c.addi4spn	a0,sp,56
    1c42:	df52                	c.swsp	s4,188(sp)
    1c44:	c1a2                	c.swsp	s0,192(sp)
    1c46:	c24a                	c.swsp	s2,4(sp)
    1c48:	c072                	c.swsp	t3,0(sp)
    1c4a:	c45e                	c.swsp	s7,8(sp)
    1c4c:	4f0000ef          	jal	ra,213c <riscv_convolve_wrapper_s8>
    1c50:	41ca1e0b          	addigp	t3,21532 # 85c1c <ds_cnn_s_layer_8_depthwise_conv_2d_output_mult>
    1c54:	d872                	c.swsp	t3,48(sp)
    1c56:	51ca1e0b          	addigp	t3,21788 # 85d1c <ds_cnn_s_layer_8_depthwise_conv_2d_output_shift>
    1c5a:	da72                	c.swsp	t3,52(sp)
    1c5c:	86ca                	c.mv	a3,s2
    1c5e:	31ca1e0b          	addigp	t3,21276 # 85b1c <ds_cnn_s_layer_8_depthwise_conv_2d_bias>
    1c62:	04010893          	addi	a7,sp,64
    1c66:	61ca180b          	addigp	a6,22044 # 85e1c <ds_cnn_s_layer_8_depthwise_conv_2d_weights>
    1c6a:	109c                	c.addi4spn	a5,sp,96
    1c6c:	551c170b          	addigp	a4,27984 # 87550 <in_out_buf_main>
    1c70:	1810                	c.addi4spn	a2,sp,48
    1c72:	11cc                	c.addi4spn	a1,sp,228
    1c74:	1828                	c.addi4spn	a0,sp,56
    1c76:	d3d2                	c.swsp	s4,228(sp)
    1c78:	d5a2                	c.swsp	s0,232(sp)
    1c7a:	c46e                	c.swsp	s11,8(sp)
    1c7c:	c24e                	c.swsp	s3,4(sp)
    1c7e:	c072                	c.swsp	t3,0(sp)
    1c80:	049010ef          	jal	ra,34c8 <riscv_depthwise_conv_wrapper_s8>
    1c84:	15da1e0b          	addigp	t3,22876 # 8615c <ds_cnn_s_layer_9_conv_2d_output_mult>
    1c88:	d872                	c.swsp	t3,48(sp)
    1c8a:	25da1e0b          	addigp	t3,23132 # 8625c <ds_cnn_s_layer_9_conv_2d_output_shift>
    1c8e:	da72                	c.swsp	t3,52(sp)
    1c90:	05da1e0b          	addigp	t3,22620 # 8605c <ds_cnn_s_layer_9_conv_2d_bias>
    1c94:	4910970b          	addigp	a4,35984 # 89490 <in_out_buf_main+0x1f40>
    1c98:	86ce                	c.mv	a3,s3
    1c9a:	04010893          	addi	a7,sp,64
    1c9e:	35da180b          	addigp	a6,23388 # 8635c <ds_cnn_s_layer_9_conv_2d_weights>
    1ca2:	189c                	c.addi4spn	a5,sp,112
    1ca4:	1810                	c.addi4spn	a2,sp,48
    1ca6:	196c                	c.addi4spn	a1,sp,188
    1ca8:	1828                	c.addi4spn	a0,sp,56
    1caa:	c072                	c.swsp	t3,0(sp)
    1cac:	df52                	c.swsp	s4,188(sp)
    1cae:	c1a2                	c.swsp	s0,192(sp)
    1cb0:	c24a                	c.swsp	s2,4(sp)
    1cb2:	c45e                	c.swsp	s7,8(sp)
    1cb4:	488000ef          	jal	ra,213c <riscv_convolve_wrapper_s8>
    1cb8:	48f6                	c.lwsp	a7,92(sp)
    1cba:	1894                	c.addi4spn	a3,sp,112
    1cbc:	4910980b          	addigp	a6,35984 # 89490 <in_out_buf_main+0x1f40>
    1cc0:	87ce                	c.mv	a5,s3
    1cc2:	8736                	c.mv	a4,a3
    1cc4:	864a                	c.mv	a2,s2
    1cc6:	551c168b          	addigp	a3,27984 # 87550 <in_out_buf_main>
    1cca:	114c                	c.addi4spn	a1,sp,164
    1ccc:	07f00d93          	li	s11,127
    1cd0:	1828                	c.addi4spn	a0,sp,56
    1cd2:	db22                	c.swsp	s0,180(sp)
    1cd4:	c746                	c.swsp	a7,140(sp)
    1cd6:	dd6e                	c.swsp	s11,184(sp)
    1cd8:	d902                	c.swsp	zero,176(sp)
    1cda:	d702                	c.swsp	zero,172(sp)
    1cdc:	d56a                	c.swsp	s10,168(sp)
    1cde:	d36a                	c.swsp	s10,164(sp)
    1ce0:	dae6                	c.swsp	s9,116(sp)
    1ce2:	dce2                	c.swsp	s8,120(sp)
    1ce4:	c16a                	c.swsp	s10,128(sp)
    1ce6:	c36a                	c.swsp	s10,132(sp)
    1ce8:	09a12423          	sw	s10,136(sp)
    1cec:	4e0040ef          	jal	ra,61cc <riscv_avgpool_s8>
    1cf0:	479a                	c.lwsp	a5,132(sp)
    1cf2:	4e3a                	c.lwsp	t3,140(sp)
    1cf4:	472a                	c.lwsp	a4,136(sp)
    1cf6:	02fe0e33          	mul	t3,t3,a5
    1cfa:	03900f13          	li	t5,57
    1cfe:	cd7a                	c.swsp	t5,152(sp)
    1d00:	5c80bf37          	lui	t5,0x5c80b
    1d04:	0c6f0f13          	addi	t5,t5,198 # 5c80b0c6 <_DATA_LMA_START+0x3c80022e>
    1d08:	4eb1                	c.li	t4,12
    1d0a:	a2df930b          	addigp	t1,-1492 # 8022c <ds_cnn_s_layer_12_fully_connected_bias>
    1d0e:	04010893          	addi	a7,sp,64
    1d12:	02ee0e33          	mul	t3,t3,a4
    1d16:	86ce                	c.mv	a3,s3
    1d18:	4910970b          	addigp	a4,35984 # 89490 <in_out_buf_main+0x1f40>
    1d1c:	a5df980b          	addigp	a6,-1444 # 8025c <ds_cnn_s_layer_12_fully_connected_weights>
    1d20:	189c                	c.addi4spn	a5,sp,112
    1d22:	1030                	c.addi4spn	a2,sp,40
    1d24:	090c                	c.addi4spn	a1,sp,144
    1d26:	d47a                	c.swsp	t5,40(sp)
    1d28:	1828                	c.addi4spn	a0,sp,56
    1d2a:	5f61                	c.li	t5,-8
    1d2c:	d67a                	c.swsp	t5,44(sp)
    1d2e:	c772                	c.swsp	t3,140(sp)
    1d30:	d8f2                	c.swsp	t3,112(sp)
    1d32:	def6                	c.swsp	t4,124(sp)
    1d34:	cef6                	c.swsp	t4,92(sp)
    1d36:	c6f6                	c.swsp	t4,76(sp)
    1d38:	c01a                	c.swsp	t1,0(sp)
    1d3a:	cf22                	c.swsp	s0,156(sp)
    1d3c:	c952                	c.swsp	s4,144(sp)
    1d3e:	c24a                	c.swsp	s2,4(sp)
    1d40:	d16e                	c.swsp	s11,160(sp)
    1d42:	cb02                	c.swsp	zero,148(sp)
    1d44:	c36a                	c.swsp	s10,132(sp)
    1d46:	c56a                	c.swsp	s10,136(sp)
    1d48:	daea                	c.swsp	s10,116(sp)
    1d4a:	dcea                	c.swsp	s10,120(sp)
    1d4c:	c8ea                	c.swsp	s10,80(sp)
    1d4e:	caea                	c.swsp	s10,84(sp)
    1d50:	ccea                	c.swsp	s10,88(sp)
    1d52:	c45e                	c.swsp	s7,8(sp)
    1d54:	6d0040ef          	jal	ra,6424 <riscv_fully_connected_s8>
    1d58:	702316b7          	lui	a3,0x70231
    1d5c:	551c180b          	addigp	a6,27984 # 87550 <in_out_buf_main>
    1d60:	f8400793          	li	a5,-124
    1d64:	4761                	c.li	a4,24
    1d66:	b8068693          	addi	a3,a3,-1152 # 70230b80 <_DATA_LMA_START+0x50225ce8>
    1d6a:	4631                	c.li	a2,12
    1d6c:	00100593          	li	a1,1
    1d70:	551c150b          	addigp	a0,27984 # 87550 <in_out_buf_main>
    1d74:	075010ef          	jal	ra,35e8 <riscv_softmax_s8>
    1d78:	801f978b          	addigp	a5,-2048 # 80000 <_DATA_VMA_START>
    1d7c:	0107af83          	lw	t6,16(a5)
    1d80:	0147af03          	lw	t5,20(a5)
    1d84:	0187ae83          	lw	t4,24(a5)
    1d88:	01c7ae03          	lw	t3,28(a5)
    1d8c:	0207a303          	lw	t1,32(a5)
    1d90:	0247a883          	lw	a7,36(a5)
    1d94:	0287a803          	lw	a6,40(a5)
    1d98:	57cc                	c.lw	a1,44(a5)
    1d9a:	5b90                	c.lw	a2,48(a5)
    1d9c:	5bd4                	c.lw	a3,52(a5)
    1d9e:	5f98                	c.lw	a4,56(a5)
    1da0:	00087537          	lui	a0,0x87
    1da4:	5fdc                	c.lw	a5,60(a5)
    1da6:	551c1a0b          	addigp	s4,27984 # 87550 <in_out_buf_main>
    1daa:	41c50513          	addi	a0,a0,1052 # 8741c <ds_cnn_s_layer_9_conv_2d_weights+0x10c0>
    1dae:	0a00                	c.addi4spn	s0,sp,272
    1db0:	00ca0b13          	addi	s6,s4,12
    1db4:	551c190b          	addigp	s2,27984 # 87550 <in_out_buf_main>
    1db8:	551c198b          	addigp	s3,27984 # 87550 <in_out_buf_main>
    1dbc:	00087ab7          	lui	s5,0x87
    1dc0:	11f12823          	sw	t6,272(sp)
    1dc4:	11e12a23          	sw	t5,276(sp)
    1dc8:	11d12c23          	sw	t4,280(sp)
    1dcc:	11c12e23          	sw	t3,284(sp)
    1dd0:	12612023          	sw	t1,288(sp)
    1dd4:	13112223          	sw	a7,292(sp)
    1dd8:	13012423          	sw	a6,296(sp)
    1ddc:	12b12623          	sw	a1,300(sp)
    1de0:	12c12823          	sw	a2,304(sp)
    1de4:	12d12a23          	sw	a3,308(sp)
    1de8:	12e12c23          	sw	a4,312(sp)
    1dec:	12f12e23          	sw	a5,316(sp)
    1df0:	25a080ef          	jal	ra,a04a <puts>
    1df4:	00098683          	lb	a3,0(s3)
    1df8:	4010                	c.lw	a2,0(s0)
    1dfa:	414985b3          	sub	a1,s3,s4
    1dfe:	43ca8513          	addi	a0,s5,1084 # 8743c <ds_cnn_s_layer_9_conv_2d_weights+0x10e0>
    1e02:	0985                	c.addi	s3,1
    1e04:	228080ef          	jal	ra,a02c <printf>
    1e08:	0411                	c.addi	s0,4
    1e0a:	ff6995e3          	bne	s3,s6,1df4 <main+0x830>
    1e0e:	551c060b          	lbgp	a2,27984 # 87550 <in_out_buf_main>
    1e12:	f8000793          	li	a5,-128
    1e16:	24f60b63          	beq	a2,a5,206c <main+0xaa8>
    1e1a:	000874b7          	lui	s1,0x87
    1e1e:	f8000693          	li	a3,-128
    1e22:	4581                	c.li	a1,0
    1e24:	45448513          	addi	a0,s1,1108 # 87454 <ds_cnn_s_layer_9_conv_2d_weights+0x10f8>
    1e28:	204080ef          	jal	ra,a02c <printf>
    1e2c:	4405                	c.li	s0,1
    1e2e:	4781                	c.li	a5,0
    1e30:	00190603          	lb	a2,1(s2)
    1e34:	f8000713          	li	a4,-128
    1e38:	00e60e63          	beq	a2,a4,1e54 <main+0x890>
    1e3c:	000874b7          	lui	s1,0x87
    1e40:	f8000693          	li	a3,-128
    1e44:	00100593          	li	a1,1
    1e48:	45448513          	addi	a0,s1,1108 # 87454 <ds_cnn_s_layer_9_conv_2d_weights+0x10f8>
    1e4c:	1e0080ef          	jal	ra,a02c <printf>
    1e50:	0405                	c.addi	s0,1
    1e52:	4781                	c.li	a5,0
    1e54:	00290603          	lb	a2,2(s2)
    1e58:	f8000713          	li	a4,-128
    1e5c:	00e60e63          	beq	a2,a4,1e78 <main+0x8b4>
    1e60:	000874b7          	lui	s1,0x87
    1e64:	f8000693          	li	a3,-128
    1e68:	00200593          	li	a1,2
    1e6c:	45448513          	addi	a0,s1,1108 # 87454 <ds_cnn_s_layer_9_conv_2d_weights+0x10f8>
    1e70:	1bc080ef          	jal	ra,a02c <printf>
    1e74:	0405                	c.addi	s0,1
    1e76:	4781                	c.li	a5,0
    1e78:	00390603          	lb	a2,3(s2)
    1e7c:	f8000713          	li	a4,-128
    1e80:	00e60e63          	beq	a2,a4,1e9c <main+0x8d8>
    1e84:	000874b7          	lui	s1,0x87
    1e88:	f8000693          	li	a3,-128
    1e8c:	00300593          	li	a1,3
    1e90:	45448513          	addi	a0,s1,1108 # 87454 <ds_cnn_s_layer_9_conv_2d_weights+0x10f8>
    1e94:	198080ef          	jal	ra,a02c <printf>
    1e98:	0405                	c.addi	s0,1
    1e9a:	4781                	c.li	a5,0
    1e9c:	00490603          	lb	a2,4(s2)
    1ea0:	f8000713          	li	a4,-128
    1ea4:	00e60e63          	beq	a2,a4,1ec0 <main+0x8fc>
    1ea8:	000874b7          	lui	s1,0x87
    1eac:	f8000693          	li	a3,-128
    1eb0:	00400593          	li	a1,4
    1eb4:	45448513          	addi	a0,s1,1108 # 87454 <ds_cnn_s_layer_9_conv_2d_weights+0x10f8>
    1eb8:	174080ef          	jal	ra,a02c <printf>
    1ebc:	0405                	c.addi	s0,1
    1ebe:	4781                	c.li	a5,0
    1ec0:	00590603          	lb	a2,5(s2)
    1ec4:	f8900713          	li	a4,-119
    1ec8:	00e60e63          	beq	a2,a4,1ee4 <main+0x920>
    1ecc:	000874b7          	lui	s1,0x87
    1ed0:	f8900693          	li	a3,-119
    1ed4:	00500593          	li	a1,5
    1ed8:	45448513          	addi	a0,s1,1108 # 87454 <ds_cnn_s_layer_9_conv_2d_weights+0x10f8>
    1edc:	150080ef          	jal	ra,a02c <printf>
    1ee0:	0405                	c.addi	s0,1
    1ee2:	4781                	c.li	a5,0
    1ee4:	00690603          	lb	a2,6(s2)
    1ee8:	f8000713          	li	a4,-128
    1eec:	00e60e63          	beq	a2,a4,1f08 <main+0x944>
    1ef0:	000874b7          	lui	s1,0x87
    1ef4:	f8000693          	li	a3,-128
    1ef8:	00600593          	li	a1,6
    1efc:	45448513          	addi	a0,s1,1108 # 87454 <ds_cnn_s_layer_9_conv_2d_weights+0x10f8>
    1f00:	12c080ef          	jal	ra,a02c <printf>
    1f04:	0405                	c.addi	s0,1
    1f06:	4781                	c.li	a5,0
    1f08:	00790603          	lb	a2,7(s2)
    1f0c:	f8000713          	li	a4,-128
    1f10:	00e60e63          	beq	a2,a4,1f2c <main+0x968>
    1f14:	000874b7          	lui	s1,0x87
    1f18:	f8000693          	li	a3,-128
    1f1c:	00700593          	li	a1,7
    1f20:	45448513          	addi	a0,s1,1108 # 87454 <ds_cnn_s_layer_9_conv_2d_weights+0x10f8>
    1f24:	108080ef          	jal	ra,a02c <printf>
    1f28:	0405                	c.addi	s0,1
    1f2a:	4781                	c.li	a5,0
    1f2c:	00890603          	lb	a2,8(s2)
    1f30:	40765edb          	beqc	a2,103,1f4c <main+0x988>
    1f34:	000874b7          	lui	s1,0x87
    1f38:	06700693          	li	a3,103
    1f3c:	00800593          	li	a1,8
    1f40:	45448513          	addi	a0,s1,1108 # 87454 <ds_cnn_s_layer_9_conv_2d_weights+0x10f8>
    1f44:	0e8080ef          	jal	ra,a02c <printf>
    1f48:	0405                	c.addi	s0,1
    1f4a:	4781                	c.li	a5,0
    1f4c:	00990603          	lb	a2,9(s2)
    1f50:	f8000713          	li	a4,-128
    1f54:	00e60e63          	beq	a2,a4,1f70 <main+0x9ac>
    1f58:	000874b7          	lui	s1,0x87
    1f5c:	f8000693          	li	a3,-128
    1f60:	00900593          	li	a1,9
    1f64:	45448513          	addi	a0,s1,1108 # 87454 <ds_cnn_s_layer_9_conv_2d_weights+0x10f8>
    1f68:	0c4080ef          	jal	ra,a02c <printf>
    1f6c:	0405                	c.addi	s0,1
    1f6e:	4781                	c.li	a5,0
    1f70:	00a90603          	lb	a2,10(s2)
    1f74:	f8000713          	li	a4,-128
    1f78:	0ee60063          	beq	a2,a4,2058 <main+0xa94>
    1f7c:	000874b7          	lui	s1,0x87
    1f80:	f8000693          	li	a3,-128
    1f84:	00a00593          	li	a1,10
    1f88:	45448513          	addi	a0,s1,1108 # 87454 <ds_cnn_s_layer_9_conv_2d_weights+0x10f8>
    1f8c:	0a0080ef          	jal	ra,a02c <printf>
    1f90:	00b90603          	lb	a2,11(s2)
    1f94:	f9100793          	li	a5,-111
    1f98:	00140413          	addi	s0,s0,1
    1f9c:	00f60a63          	beq	a2,a5,1fb0 <main+0x9ec>
    1fa0:	f9100693          	li	a3,-111
    1fa4:	45ad                	c.li	a1,11
    1fa6:	45448513          	addi	a0,s1,1108
    1faa:	0405                	c.addi	s0,1
    1fac:	080080ef          	jal	ra,a02c <printf>
    1fb0:	00087537          	lui	a0,0x87
    1fb4:	85a2                	c.mv	a1,s0
    1fb6:	4631                	c.li	a2,12
    1fb8:	47850513          	addi	a0,a0,1144 # 87478 <ds_cnn_s_layer_9_conv_2d_weights+0x111c>
    1fbc:	070080ef          	jal	ra,a02c <printf>
    1fc0:	000875b7          	lui	a1,0x87
    1fc4:	35c58593          	addi	a1,a1,860 # 8735c <ds_cnn_s_layer_9_conv_2d_weights+0x1000>
    1fc8:	00087537          	lui	a0,0x87
    1fcc:	48c50513          	addi	a0,a0,1164 # 8748c <ds_cnn_s_layer_9_conv_2d_weights+0x1130>
    1fd0:	05c080ef          	jal	ra,a02c <printf>
    1fd4:	03812503          	lw	a0,56(sp)
    1fd8:	705070ef          	jal	ra,9edc <free>
    1fdc:	17c12083          	lw	ra,380(sp)
    1fe0:	17812403          	lw	s0,376(sp)
    1fe4:	17412483          	lw	s1,372(sp)
    1fe8:	17012903          	lw	s2,368(sp)
    1fec:	16c12983          	lw	s3,364(sp)
    1ff0:	16812a03          	lw	s4,360(sp)
    1ff4:	16412a83          	lw	s5,356(sp)
    1ff8:	16012b03          	lw	s6,352(sp)
    1ffc:	15c12b83          	lw	s7,348(sp)
    2000:	15812c03          	lw	s8,344(sp)
    2004:	15412c83          	lw	s9,340(sp)
    2008:	15012d03          	lw	s10,336(sp)
    200c:	14c12d83          	lw	s11,332(sp)
    2010:	4501                	c.li	a0,0
    2012:	6119                	c.addi16sp	sp,384
    2014:	00008067          	ret
    2018:	00100793          	li	a5,1
    201c:	00f40123          	sb	a5,2(s0)
    2020:	f74fe0ef          	jal	ra,794 <analog_write_reg8>
    2024:	0014e593          	ori	a1,s1,1
    2028:	0ff5f593          	andi	a1,a1,255
    202c:	03900513          	li	a0,57
    2030:	f64fe0ef          	jal	ra,794 <analog_write_reg8>
    2034:	f04ff06f          	j	1738 <main+0x174>
    2038:	07f00513          	li	a0,127
    203c:	f9cfe0ef          	jal	ra,7d8 <analog_read_reg8>
    2040:	531c140b          	addigp	s0,27952 # 87530 <g_pm_status_info>
    2044:	0a057e5b          	bbc	a0,0,2100 <main+0xb3c>
    2048:	4a14f05b          	bbs	s1,1,20e8 <main+0xb24>
    204c:	01000793          	li	a5,16
    2050:	00f40123          	sb	a5,2(s0)
    2054:	ee4ff06f          	j	1738 <main+0x174>
    2058:	00b90603          	lb	a2,11(s2)
    205c:	f9100713          	li	a4,-111
    2060:	0ce60263          	beq	a2,a4,2124 <main+0xb60>
    2064:	000874b7          	lui	s1,0x87
    2068:	f39ff06f          	j	1fa0 <main+0x9dc>
    206c:	4401                	c.li	s0,0
    206e:	4785                	c.li	a5,1
    2070:	dc1ff06f          	j	1e30 <main+0x86c>
    2074:	001fe537          	lui	a0,0x1fe
    2078:	0c050513          	addi	a0,a0,192 # 1fe0c0 <FLASH_SIZE+0xfe0c0>
    207c:	b90ff0ef          	jal	ra,140c <user_calib_adc_vref.constprop.9>
    2080:	001fe537          	lui	a0,0x1fe
    2084:	c84ff0ef          	jal	ra,1508 <user_calib_freq_offset.constprop.8>
    2088:	80dff06f          	j	1894 <main+0x2d0>
    208c:	0507d25b          	beqc	a5,16,20d0 <main+0xb0c>
    2090:	0317ea5b          	bnec	a5,17,20c4 <main+0xb00>
    2094:	0001e537          	lui	a0,0x1e
    2098:	0c050513          	addi	a0,a0,192 # 1e0c0 <BIN_SIZE+0xbcee>
    209c:	b70ff0ef          	jal	ra,140c <user_calib_adc_vref.constprop.9>
    20a0:	0001e537          	lui	a0,0x1e
    20a4:	c64ff0ef          	jal	ra,1508 <user_calib_freq_offset.constprop.8>
    20a8:	fecff06f          	j	1894 <main+0x2d0>
    20ac:	0007e537          	lui	a0,0x7e
    20b0:	0c050513          	addi	a0,a0,192 # 7e0c0 <BIN_SIZE+0x6bcee>
    20b4:	b58ff0ef          	jal	ra,140c <user_calib_adc_vref.constprop.9>
    20b8:	0007e537          	lui	a0,0x7e
    20bc:	c4cff0ef          	jal	ra,1508 <user_calib_freq_offset.constprop.8>
    20c0:	fd4ff06f          	j	1894 <main+0x2d0>
    20c4:	00000513          	li	a0,0
    20c8:	b44ff0ef          	jal	ra,140c <user_calib_adc_vref.constprop.9>
    20cc:	fc8ff06f          	j	1894 <main+0x2d0>
    20d0:	0000e537          	lui	a0,0xe
    20d4:	0c050513          	addi	a0,a0,192 # e0c0 <_RAMCODE_VMA_END+0x337c>
    20d8:	b34ff0ef          	jal	ra,140c <user_calib_adc_vref.constprop.9>
    20dc:	0000e537          	lui	a0,0xe
    20e0:	c28ff0ef          	jal	ra,1508 <user_calib_freq_offset.constprop.8>
    20e4:	fb0ff06f          	j	1894 <main+0x2d0>
    20e8:	02000793          	li	a5,32
    20ec:	0fd4f593          	andi	a1,s1,253
    20f0:	03900513          	li	a0,57
    20f4:	00f40123          	sb	a5,2(s0)
    20f8:	e9cfe0ef          	jal	ra,794 <analog_write_reg8>
    20fc:	e3cff06f          	j	1738 <main+0x174>
    2100:	00800793          	li	a5,8
    2104:	00f40123          	sb	a5,2(s0)
    2108:	e30ff06f          	j	1738 <main+0x174>
    210c:	000fe537          	lui	a0,0xfe
    2110:	0c050513          	addi	a0,a0,192 # fe0c0 <_STACK_TOP+0x5e0c0>
    2114:	af8ff0ef          	jal	ra,140c <user_calib_adc_vref.constprop.9>
    2118:	000fe537          	lui	a0,0xfe
    211c:	becff0ef          	jal	ra,1508 <user_calib_freq_offset.constprop.8>
    2120:	f74ff06f          	j	1894 <main+0x2d0>
    2124:	e80786e3          	beqz	a5,1fb0 <main+0x9ec>
    2128:	000875b7          	lui	a1,0x87
    212c:	36458593          	addi	a1,a1,868 # 87364 <ds_cnn_s_layer_9_conv_2d_weights+0x1008>
    2130:	bd61                	c.j	1fc8 <main+0xa04>
	...

00002134 <default_irq_entry>:
    2134:	a001                	c.j	2134 <default_irq_entry>

00002136 <trap_handler>:
    2136:	a001                	c.j	2136 <trap_handler>
    2138:	0001                	c.nop
	...

0000213c <riscv_convolve_wrapper_s8>:
    213c:	1101                	c.addi	sp,-32
    213e:	0105a383          	lw	t2,16(a1)
    2142:	ce22                	c.swsp	s0,28(sp)
    2144:	cc26                	c.swsp	s1,24(sp)
    2146:	ca4a                	c.swsp	s2,20(sp)
    2148:	c84e                	c.swsp	s3,16(sp)
    214a:	c652                	c.swsp	s4,12(sp)
    214c:	c456                	c.swsp	s5,8(sp)
    214e:	c25a                	c.swsp	s6,4(sp)
    2150:	5f02                	c.lwsp	t5,32(sp)
    2152:	5f92                	c.lwsp	t6,36(sp)
    2154:	52a2                	c.lwsp	t0,40(sp)
    2156:	832e                	c.mv	t1,a1
    2158:	842a                	c.mv	s0,a0
    215a:	84b2                	c.mv	s1,a2
    215c:	8e36                	c.mv	t3,a3
    215e:	893a                	c.mv	s2,a4
    2160:	8ebe                	c.mv	t4,a5
    2162:	89c2                	c.mv	s3,a6
    2164:	01100a33          	add	s4,zero,a7
    2168:	00039663          	bnez	t2,2174 <riscv_convolve_wrapper_s8+0x38>
    216c:	0145a383          	lw	t2,20(a1)
    2170:	04038463          	beqz	t2,21b8 <riscv_convolve_wrapper_s8+0x7c>
    2174:	004e2783          	lw	a5,4(t3)
    2178:	00100713          	li	a4,1
    217c:	00e79a63          	bne	a5,a4,2190 <riscv_convolve_wrapper_s8+0x54>
    2180:	01832703          	lw	a4,24(t1)
    2184:	00f71663          	bne	a4,a5,2190 <riscv_convolve_wrapper_s8+0x54>
    2188:	004ea783          	lw	a5,4(t4)
    218c:	04e78e63          	beq	a5,a4,21e8 <riscv_convolve_wrapper_s8+0xac>
    2190:	8522                	c.mv	a0,s0
    2192:	4472                	c.lwsp	s0,28(sp)
    2194:	4aa2                	c.lwsp	s5,8(sp)
    2196:	4b12                	c.lwsp	s6,4(sp)
    2198:	d416                	c.swsp	t0,40(sp)
    219a:	d27e                	c.swsp	t6,36(sp)
    219c:	d07a                	c.swsp	t5,32(sp)
    219e:	88d2                	c.mv	a7,s4
    21a0:	884e                	c.mv	a6,s3
    21a2:	4a32                	c.lwsp	s4,12(sp)
    21a4:	49c2                	c.lwsp	s3,16(sp)
    21a6:	874a                	c.mv	a4,s2
    21a8:	8626                	c.mv	a2,s1
    21aa:	4952                	c.lwsp	s2,20(sp)
    21ac:	44e2                	c.lwsp	s1,24(sp)
    21ae:	87f6                	c.mv	a5,t4
    21b0:	86f2                	c.mv	a3,t3
    21b2:	859a                	c.mv	a1,t1
    21b4:	6105                	c.addi16sp	sp,32
    21b6:	a2a9                	c.j	2300 <riscv_convolve_s8>
    21b8:	0087a383          	lw	t2,8(a5)
    21bc:	00100a93          	li	s5,1
    21c0:	fb539ae3          	bne	t2,s5,2174 <riscv_convolve_wrapper_s8+0x38>
    21c4:	0047aa83          	lw	s5,4(a5)
    21c8:	fa7a96e3          	bne	s5,t2,2174 <riscv_convolve_wrapper_s8+0x38>
    21cc:	0185a383          	lw	t2,24(a1)
    21d0:	fd5390e3          	bne	t2,s5,2190 <riscv_convolve_wrapper_s8+0x54>
    21d4:	01c5aa83          	lw	s5,28(a1)
    21d8:	047a8a63          	beq	s5,t2,222c <riscv_convolve_wrapper_s8+0xf0>
    21dc:	004e2703          	lw	a4,4(t3)
    21e0:	00100793          	li	a5,1
    21e4:	faf716e3          	bne	a4,a5,2190 <riscv_convolve_wrapper_s8+0x54>
    21e8:	00ce2703          	lw	a4,12(t3)
    21ec:	00832783          	lw	a5,8(t1)
    21f0:	02f707b3          	mul	a5,a4,a5
    21f4:	8b8d                	c.andi	a5,3
    21f6:	ffc9                	c.bnez	a5,2190 <riscv_convolve_wrapper_s8+0x54>
    21f8:	00cea783          	lw	a5,12(t4)
    21fc:	f8f71ae3          	bne	a4,a5,2190 <riscv_convolve_wrapper_s8+0x54>
    2200:	8522                	c.mv	a0,s0
    2202:	4472                	c.lwsp	s0,28(sp)
    2204:	4aa2                	c.lwsp	s5,8(sp)
    2206:	4b12                	c.lwsp	s6,4(sp)
    2208:	d416                	c.swsp	t0,40(sp)
    220a:	d27e                	c.swsp	t6,36(sp)
    220c:	d07a                	c.swsp	t5,32(sp)
    220e:	88d2                	c.mv	a7,s4
    2210:	884e                	c.mv	a6,s3
    2212:	4a32                	c.lwsp	s4,12(sp)
    2214:	49c2                	c.lwsp	s3,16(sp)
    2216:	874a                	c.mv	a4,s2
    2218:	8626                	c.mv	a2,s1
    221a:	4952                	c.lwsp	s2,20(sp)
    221c:	44e2                	c.lwsp	s1,24(sp)
    221e:	87f6                	c.mv	a5,t4
    2220:	86f2                	c.mv	a3,t3
    2222:	859a                	c.mv	a1,t1
    2224:	02010113          	addi	sp,sp,32
    2228:	3780106f          	j	35a0 <riscv_convolve_1_x_n_s8>
    222c:	00c7a383          	lw	t2,12(a5)
    2230:	00c6ab03          	lw	s6,12(a3)
    2234:	fa7b14e3          	bne	s6,t2,21dc <riscv_convolve_wrapper_s8+0xa0>
    2238:	0085a383          	lw	t2,8(a1)
    223c:	01539663          	bne	t2,s5,2248 <riscv_convolve_wrapper_s8+0x10c>
    2240:	00c5aa83          	lw	s5,12(a1)
    2244:	027a8863          	beq	s5,t2,2274 <riscv_convolve_wrapper_s8+0x138>
    2248:	8522                	c.mv	a0,s0
    224a:	4472                	c.lwsp	s0,28(sp)
    224c:	4aa2                	c.lwsp	s5,8(sp)
    224e:	4b12                	c.lwsp	s6,4(sp)
    2250:	d416                	c.swsp	t0,40(sp)
    2252:	d27e                	c.swsp	t6,36(sp)
    2254:	d07a                	c.swsp	t5,32(sp)
    2256:	88d2                	c.mv	a7,s4
    2258:	884e                	c.mv	a6,s3
    225a:	4a32                	c.lwsp	s4,12(sp)
    225c:	49c2                	c.lwsp	s3,16(sp)
    225e:	874a                	c.mv	a4,s2
    2260:	8626                	c.mv	a2,s1
    2262:	4952                	c.lwsp	s2,20(sp)
    2264:	44e2                	c.lwsp	s1,24(sp)
    2266:	87f6                	c.mv	a5,t4
    2268:	86f2                	c.mv	a3,t3
    226a:	859a                	c.mv	a1,t1
    226c:	02010113          	addi	sp,sp,32
    2270:	1340106f          	j	33a4 <riscv_convolve_1x1_s8>
    2274:	4472                	c.lwsp	s0,28(sp)
    2276:	44e2                	c.lwsp	s1,24(sp)
    2278:	4952                	c.lwsp	s2,20(sp)
    227a:	49c2                	c.lwsp	s3,16(sp)
    227c:	4a32                	c.lwsp	s4,12(sp)
    227e:	4aa2                	c.lwsp	s5,8(sp)
    2280:	4b12                	c.lwsp	s6,4(sp)
    2282:	6105                	c.addi16sp	sp,32
    2284:	a011                	c.j	2288 <riscv_convolve_1x1_s8_fast>
	...

00002288 <riscv_convolve_1x1_s8_fast>:
    2288:	7179                	c.addi16sp	sp,-48
    228a:	87ae                	c.mv	a5,a1
    228c:	498c                	c.lw	a1,16(a1)
    228e:	d606                	c.swsp	ra,44(sp)
    2290:	d422                	c.swsp	s0,40(sp)
    2292:	e5ad                	c.bnez	a1,22fc <riscv_convolve_1x1_s8_fast+0x74>
    2294:	4bc0                	c.lw	s0,20(a5)
    2296:	e03d                	c.bnez	s0,22fc <riscv_convolve_1x1_s8_fast+0x74>
    2298:	478c                	c.lw	a1,8(a5)
    229a:	4505                	c.li	a0,1
    229c:	06a59063          	bne	a1,a0,22fc <riscv_convolve_1x1_s8_fast+0x74>
    22a0:	47c8                	c.lw	a0,12(a5)
    22a2:	04b51d63          	bne	a0,a1,22fc <riscv_convolve_1x1_s8_fast+0x74>
    22a6:	0046a883          	lw	a7,4(a3)
    22aa:	853a                	c.mv	a0,a4
    22ac:	4698                	c.lw	a4,8(a3)
    22ae:	85c2                	c.mv	a1,a6
    22b0:	03170733          	mul	a4,a4,a7
    22b4:	0006a803          	lw	a6,0(a3)
    22b8:	58d2                	c.lwsp	a7,52(sp)
    22ba:	03070833          	mul	a6,a4,a6
    22be:	00c6a303          	lw	t1,12(a3)
    22c2:	0247af83          	lw	t6,36(a5)
    22c6:	0207af03          	lw	t5,32(a5)
    22ca:	0047ae83          	lw	t4,4(a5)
    22ce:	0007ae03          	lw	t3,0(a5)
    22d2:	4218                	c.lw	a4,0(a2)
    22d4:	425c                	c.lw	a5,4(a2)
    22d6:	00c8a883          	lw	a7,12(a7)
    22da:	56e2                	c.lwsp	a3,56(sp)
    22dc:	5642                	c.lwsp	a2,48(sp)
    22de:	cc1a                	c.swsp	t1,24(sp)
    22e0:	ca46                	c.swsp	a7,20(sp)
    22e2:	c87e                	c.swsp	t6,16(sp)
    22e4:	c67a                	c.swsp	t5,12(sp)
    22e6:	c476                	c.swsp	t4,8(sp)
    22e8:	c272                	c.swsp	t3,4(sp)
    22ea:	c01a                	c.swsp	t1,0(sp)
    22ec:	118030ef          	jal	ra,5404 <riscv_nn_mat_mult_nt_t_s8>
    22f0:	50b2                	c.lwsp	ra,44(sp)
    22f2:	8522                	c.mv	a0,s0
    22f4:	5422                	c.lwsp	s0,40(sp)
    22f6:	6145                	c.addi16sp	sp,48
    22f8:	00008067          	ret
    22fc:	547d                	c.li	s0,-1
    22fe:	bfcd                	c.j	22f0 <riscv_convolve_1x1_s8_fast+0x68>

00002300 <riscv_convolve_s8>:
    2300:	4108                	c.lw	a0,0(a0)
    2302:	7109                	c.addi16sp	sp,-384
    2304:	16112e23          	sw	ra,380(sp)
    2308:	16812c23          	sw	s0,376(sp)
    230c:	16912a23          	sw	s1,372(sp)
    2310:	17212823          	sw	s2,368(sp)
    2314:	17312623          	sw	s3,364(sp)
    2318:	17412423          	sw	s4,360(sp)
    231c:	17512223          	sw	s5,356(sp)
    2320:	17612023          	sw	s6,352(sp)
    2324:	15712e23          	sw	s7,348(sp)
    2328:	15812c23          	sw	s8,344(sp)
    232c:	15912a23          	sw	s9,340(sp)
    2330:	15a12823          	sw	s10,336(sp)
    2334:	15b12623          	sw	s11,332(sp)
    2338:	dcaa                	c.swsp	a0,120(sp)
    233a:	18412883          	lw	a7,388(sp)
    233e:	5c050363          	beqz	a0,2904 <riscv_convolve_s8+0x604>
    2342:	00c7ae03          	lw	t3,12(a5)
    2346:	46c8                	c.lw	a0,12(a3)
    2348:	010e1313          	slli	t1,t3,0x10
    234c:	01051e93          	slli	t4,a0,0x10
    2350:	010ede93          	srli	t4,t4,0x10
    2354:	01035313          	srli	t1,t1,0x10
    2358:	026edf33          	divu	t5,t4,t1
    235c:	0087ae83          	lw	t4,8(a5)
    2360:	6341                	c.lui	t1,0x10
    2362:	43dc                	c.lw	a5,4(a5)
    2364:	137d                	c.addi	t1,-1
    2366:	006ef9b3          	and	s3,t4,t1
    236a:	0067f7b3          	and	a5,a5,t1
    236e:	d63e                	c.swsp	a5,44(sp)
    2370:	02f987b3          	mul	a5,s3,a5
    2374:	00c8a403          	lw	s0,12(a7)
    2378:	00657533          	and	a0,a0,t1
    237c:	006e7ab3          	and	s5,t3,t1
    2380:	03578e33          	mul	t3,a5,s5
    2384:	42c4                	c.lw	s1,4(a3)
    2386:	429c                	c.lw	a5,0(a3)
    2388:	cda2                	c.swsp	s0,216(sp)
    238a:	00647433          	and	s0,s0,t1
    238e:	0086a303          	lw	t1,8(a3)
    2392:	c3be                	c.swsp	a5,196(sp)
    2394:	499c                	c.lw	a5,16(a1)
    2396:	d322                	c.swsp	s0,164(sp)
    2398:	df3e                	c.swsp	a5,188(sp)
    239a:	4ddc                	c.lw	a5,28(a1)
    239c:	0088a383          	lw	t2,8(a7)
    23a0:	d83e                	c.swsp	a5,48(sp)
    23a2:	41dc                	c.lw	a5,4(a1)
    23a4:	0048a283          	lw	t0,4(a7)
    23a8:	cb3e                	c.swsp	a5,148(sp)
    23aa:	519c                	c.lw	a5,32(a1)
    23ac:	0145af83          	lw	t6,20(a1)
    23b0:	c5be                	c.swsp	a5,200(sp)
    23b2:	51dc                	c.lw	a5,36(a1)
    23b4:	0085a903          	lw	s2,8(a1)
    23b8:	c7be                	c.swsp	a5,204(sp)
    23ba:	00c5ae83          	lw	t4,12(a1)
    23be:	0185ac03          	lw	s8,24(a1)
    23c2:	0005a883          	lw	a7,0(a1)
    23c6:	00062d03          	lw	s10,0(a2)
    23ca:	03e566b3          	rem	a3,a0,t5
    23ce:	00462d83          	lw	s11,4(a2)
    23d2:	03e447b3          	div	a5,s0,t5
    23d6:	52069763          	bnez	a3,2904 <riscv_convolve_s8+0x604>
    23da:	03e46b33          	rem	s6,s0,t5
    23de:	520b1363          	bnez	s6,2904 <riscv_convolve_s8+0x604>
    23e2:	003e7693          	andi	a3,t3,3
    23e6:	c572                	c.swsp	t3,136(sp)
    23e8:	50069863          	bnez	a3,28f8 <riscv_convolve_s8+0x5f8>
    23ec:	461e                	c.lwsp	a2,196(sp)
    23ee:	4cc05763          	blez	a2,28bc <riscv_convolve_s8+0x5bc>
    23f2:	843a                	c.mv	s0,a4
    23f4:	6741                	c.lui	a4,0x10
    23f6:	177d                	c.addi	a4,-1
    23f8:	00e375b3          	and	a1,t1,a4
    23fc:	00eff633          	and	a2,t6,a4
    2400:	8a42                	c.mv	s4,a6
    2402:	cfb2                	c.swsp	a2,220(sp)
    2404:	02b60833          	mul	a6,a2,a1
    2408:	402e5613          	srai	a2,t3,0x2
    240c:	00e4ffb3          	and	t6,s1,a4
    2410:	0642                	c.slli	a2,0x10
    2412:	84ae                	c.mv	s1,a1
    2414:	8241                	c.srli	a2,0x10
    2416:	c0fe                	c.swsp	t6,64(sp)
    2418:	03f48fb3          	mul	t6,s1,t6
    241c:	54fa                	c.lwsp	s1,188(sp)
    241e:	00e2f333          	and	t1,t0,a4
    2422:	d3b2                	c.swsp	a2,228(sp)
    2424:	00e3f2b3          	and	t0,t2,a4
    2428:	167d                	c.addi	a2,-1
    242a:	c99a                	c.swsp	t1,208(sp)
    242c:	d096                	c.swsp	t0,96(sp)
    242e:	025302b3          	mul	t0,t1,t0
    2432:	00e4f333          	and	t1,s1,a4
    2436:	00eef4b3          	and	s1,t4,a4
    243a:	00e97eb3          	and	t4,s2,a4
    243e:	01061713          	slli	a4,a2,0x10
    2442:	02fe0633          	mul	a2,t3,a5
    2446:	de2e                	c.swsp	a1,60(sp)
    2448:	02a585b3          	mul	a1,a1,a0
    244c:	d1b2                	c.swsp	a2,224(sp)
    244e:	561a                	c.lwsp	a2,164(sp)
    2450:	41000833          	neg	a6,a6
    2454:	02c282b3          	mul	t0,t0,a2
    2458:	02b48633          	mul	a2,s1,a1
    245c:	40680833          	sub	a6,a6,t1
    2460:	c4a8147f          	maddr32	s0,a6,a0
    2464:	d7b2                	c.swsp	a2,236(sp)
    2466:	03d50633          	mul	a2,a0,t4
    246a:	8341                	c.srli	a4,0x10
    246c:	0705                	c.addi	a4,1
    246e:	d4b2                	c.swsp	a2,104(sp)
    2470:	5642                	c.lwsp	a2,48(sp)
    2472:	8922                	c.mv	s2,s0
    2474:	02b60633          	mul	a2,a2,a1
    2478:	5466                	c.lwsp	s0,120(sp)
    247a:	00371593          	slli	a1,a4,0x3
    247e:	da32                	c.swsp	a2,52(sp)
    2480:	03598633          	mul	a2,s3,s5
    2484:	070a                	c.slli	a4,0x2
    2486:	03850cb3          	mul	s9,a0,s8
    248a:	02af8fb3          	mul	t6,t6,a0
    248e:	dbba                	c.swsp	a4,244(sp)
    2490:	fff68513          	addi	a0,a3,-1
    2494:	00b40733          	add	a4,s0,a1
    2498:	41100833          	neg	a6,a7
    249c:	dc32                	c.swsp	a2,56(sp)
    249e:	10e12023          	sw	a4,256(sp)
    24a2:	462a                	c.lwsp	a2,136(sp)
    24a4:	01051713          	slli	a4,a0,0x10
    24a8:	8341                	c.srli	a4,0x10
    24aa:	06c2                	c.slli	a3,0x10
    24ac:	01881b93          	slli	s7,a6,0x18
    24b0:	0606                	c.slli	a2,0x1
    24b2:	82c1                	c.srli	a3,0x10
    24b4:	418bdb93          	srai	s7,s7,0x18
    24b8:	cbba                	c.swsp	a4,212(sp)
    24ba:	01089713          	slli	a4,a7,0x10
    24be:	8741                	c.srai	a4,0x10
    24c0:	85d2                	c.mv	a1,s4
    24c2:	d9a6                	c.swsp	s1,240(sp)
    24c4:	deb2                	c.swsp	a2,124(sp)
    24c6:	d5b6                	c.swsp	a3,232(sp)
    24c8:	9622                	c.add	a2,s0
    24ca:	00279693          	slli	a3,a5,0x2
    24ce:	11a12623          	sw	s10,268(sp)
    24d2:	4481                	c.li	s1,0
    24d4:	8d62                	c.mv	s10,s8
    24d6:	8a5a                	c.mv	s4,s6
    24d8:	8c6e                	c.mv	s8,s11
    24da:	8dde                	c.mv	s11,s7
    24dc:	d6f6                	c.swsp	t4,108(sp)
    24de:	c732                	c.swsp	a2,140(sp)
    24e0:	c1b6                	c.swsp	a3,192(sp)
    24e2:	daba                	c.swsp	a4,116(sp)
    24e4:	c97a                	c.swsp	t5,144(sp)
    24e6:	cef2                	c.swsp	t3,92(sp)
    24e8:	11512823          	sw	s5,272(sp)
    24ec:	474a                	c.lwsp	a4,144(sp)
    24ee:	1e070563          	beqz	a4,26d8 <riscv_convolve_s8+0x3d8>
    24f2:	5566                	c.lwsp	a0,120(sp)
    24f4:	443a                	c.lwsp	s0,140(sp)
    24f6:	18812703          	lw	a4,392(sp)
    24fa:	caaa                	c.swsp	a0,84(sp)
    24fc:	0bc15503          	lhu	a0,188(sp)
    2500:	8826                	c.mv	a6,s1
    2502:	10c12603          	lw	a2,268(sp)
    2506:	18012683          	lw	a3,384(sp)
    250a:	11012483          	lw	s1,272(sp)
    250e:	8bee                	c.mv	s7,s11
    2510:	c362                	c.swsp	s8,132(sp)
    2512:	8de2                	c.mv	s11,s8
    2514:	11212a23          	sw	s2,276(sp)
    2518:	8c22                	c.mv	s8,s0
    251a:	dd4a                	c.swsp	s2,184(sp)
    251c:	d93e                	c.swsp	a5,176(sp)
    251e:	4a81                	c.li	s5,0
    2520:	8e2e                	c.mv	t3,a1
    2522:	87ba                	c.mv	a5,a4
    2524:	8416                	c.mv	s0,t0
    2526:	892e                	c.mv	s2,a1
    2528:	10a12423          	sw	a0,264(sp)
    252c:	11f12c23          	sw	t6,280(sp)
    2530:	474e                	c.lwsp	a4,208(sp)
    2532:	853e                	c.mv	a0,a5
    2534:	38070063          	beqz	a4,28b4 <riscv_convolve_s8+0x5b4>
    2538:	477e                	c.lwsp	a4,220(sp)
    253a:	4581                	c.li	a1,0
    253c:	40e008b3          	neg	a7,a4
    2540:	576a                	c.lwsp	a4,184(sp)
    2542:	10f12e23          	sw	a5,284(sp)
    2546:	87ae                	c.mv	a5,a1
    2548:	c882                	c.swsp	zero,80(sp)
    254a:	13b12023          	sw	s11,288(sp)
    254e:	13012223          	sw	a6,292(sp)
    2552:	cd36                	c.swsp	a3,152(sp)
    2554:	13512423          	sw	s5,296(sp)
    2558:	12812623          	sw	s0,300(sp)
    255c:	13412823          	sw	s4,304(sp)
    2560:	13212a23          	sw	s2,308(sp)
    2564:	5686                	c.lwsp	a3,96(sp)
    2566:	10068163          	beqz	a3,2668 <riscv_convolve_s8+0x368>
    256a:	46f6                	c.lwsp	a3,92(sp)
    256c:	c6ba                	c.swsp	a4,76(sp)
    256e:	40d006b3          	neg	a3,a3
    2572:	d8b6                	c.swsp	a3,112(sp)
    2574:	10812683          	lw	a3,264(sp)
    2578:	cc82                	c.swsp	zero,88(sp)
    257a:	40d006b3          	neg	a3,a3
    257e:	c4b6                	c.swsp	a3,72(sp)
    2580:	0c811683          	lh	a3,200(sp)
    2584:	c12a                	c.swsp	a0,128(sp)
    2586:	d2c6                	c.swsp	a7,100(sp)
    2588:	d536                	c.swsp	a3,168(sp)
    258a:	0cc11683          	lh	a3,204(sp)
    258e:	cf72                	c.swsp	t3,156(sp)
    2590:	d132                	c.swsp	a2,160(sp)
    2592:	d736                	c.swsp	a3,172(sp)
    2594:	0d815683          	lhu	a3,216(sp)
    2598:	12f12c23          	sw	a5,312(sp)
    259c:	12e12e23          	sw	a4,316(sp)
    25a0:	10d12223          	sw	a3,260(sp)
    25a4:	0b015683          	lhu	a3,176(sp)
    25a8:	0ad12a23          	sw	a3,180(sp)
    25ac:	5732                	c.lwsp	a4,44(sp)
    25ae:	5a96                	c.lwsp	s5,100(sp)
    25b0:	47b6                	c.lwsp	a5,76(sp)
    25b2:	4b01                	c.li	s6,0
    25b4:	c325                	c.beqz	a4,2614 <riscv_convolve_s8+0x314>
    25b6:	8756                	c.mv	a4,s5
    25b8:	8ae2                	c.mv	s5,s8
    25ba:	8c5a                	c.mv	s8,s6
    25bc:	00e00b33          	add	s6,zero,a4
    25c0:	04098063          	beqz	s3,2600 <riscv_convolve_s8+0x300>
    25c4:	4706                	c.lwsp	a4,64(sp)
    25c6:	12eb7563          	bgeu	s6,a4,26f0 <riscv_convolve_s8+0x3f0>
    25ca:	4a26                	c.lwsp	s4,72(sp)
    25cc:	8456                	c.mv	s0,s5
    25ce:	c2d6                	c.swsp	s5,68(sp)
    25d0:	8dbe                	c.mv	s11,a5
    25d2:	4901                	c.li	s2,0
    25d4:	00f00ab3          	add	s5,zero,a5
    25d8:	8626                	c.mv	a2,s1
    25da:	85de                	c.mv	a1,s7
    25dc:	8522                	c.mv	a0,s0
    25de:	000a4563          	bltz	s4,25e8 <riscv_convolve_s8+0x2e8>
    25e2:	57f2                	c.lwsp	a5,60(sp)
    25e4:	12fa4863          	blt	s4,a5,2714 <riscv_convolve_s8+0x414>
    25e8:	03b070ef          	jal	ra,9e22 <memset>
    25ec:	0905                	c.addi	s2,1
    25ee:	9426                	c.add	s0,s1
    25f0:	9a6a                	c.add	s4,s10
    25f2:	9ae6                	c.add	s5,s9
    25f4:	ff2992e3          	bne	s3,s2,25d8 <riscv_convolve_s8+0x2d8>
    25f8:	4a96                	c.lwsp	s5,68(sp)
    25fa:	5762                	c.lwsp	a4,56(sp)
    25fc:	87ee                	c.mv	a5,s11
    25fe:	9aba                	c.add	s5,a4
    2600:	5752                	c.lwsp	a4,52(sp)
    2602:	0c05                	c.addi	s8,1
    2604:	97ba                	c.add	a5,a4
    2606:	5742                	c.lwsp	a4,48(sp)
    2608:	9b3a                	c.add	s6,a4
    260a:	5732                	c.lwsp	a4,44(sp)
    260c:	fb871ae3          	bne	a4,s8,25c0 <riscv_convolve_s8+0x2c0>
    2610:	01500c33          	add	s8,zero,s5
    2614:	57c6                	c.lwsp	a5,112(sp)
    2616:	4456                	c.lwsp	s0,84(sp)
    2618:	56d6                	c.lwsp	a3,116(sp)
    261a:	4676                	c.lwsp	a2,92(sp)
    261c:	00fc0533          	add	a0,s8,a5
    2620:	008005b3          	add	a1,zero,s0
    2624:	325030ef          	jal	ra,6148 <riscv_s8_to_s16_unordered_with_offset>
    2628:	47c6                	c.lwsp	a5,80(sp)
    262a:	0785                	c.addi	a5,1
    262c:	873e                	c.mv	a4,a5
    262e:	c8be                	c.swsp	a5,80(sp)
    2630:	4789                	c.li	a5,2
    2632:	0ef70763          	beq	a4,a5,2720 <riscv_convolve_s8+0x420>
    2636:	57f6                	c.lwsp	a5,124(sp)
    2638:	97a2                	c.add	a5,s0
    263a:	cabe                	c.swsp	a5,84(sp)
    263c:	4736                	c.lwsp	a4,76(sp)
    263e:	56a6                	c.lwsp	a3,104(sp)
    2640:	47e6                	c.lwsp	a5,88(sp)
    2642:	9736                	c.add	a4,a3
    2644:	c6ba                	c.swsp	a4,76(sp)
    2646:	56b6                	c.lwsp	a3,108(sp)
    2648:	4726                	c.lwsp	a4,72(sp)
    264a:	0785                	c.addi	a5,1
    264c:	9736                	c.add	a4,a3
    264e:	c4ba                	c.swsp	a4,72(sp)
    2650:	5706                	c.lwsp	a4,96(sp)
    2652:	ccbe                	c.swsp	a5,88(sp)
    2654:	f4e79ce3          	bne	a5,a4,25ac <riscv_convolve_s8+0x2ac>
    2658:	450a                	c.lwsp	a0,128(sp)
    265a:	5896                	c.lwsp	a7,100(sp)
    265c:	4e7a                	c.lwsp	t3,156(sp)
    265e:	560a                	c.lwsp	a2,160(sp)
    2660:	13812783          	lw	a5,312(sp)
    2664:	13c12703          	lw	a4,316(sp)
    2668:	56be                	c.lwsp	a3,236(sp)
    266a:	0785                	c.addi	a5,1
    266c:	9736                	c.add	a4,a3
    266e:	56ce                	c.lwsp	a3,240(sp)
    2670:	98b6                	c.add	a7,a3
    2672:	46ce                	c.lwsp	a3,208(sp)
    2674:	eed798e3          	bne	a5,a3,2564 <riscv_convolve_s8+0x264>
    2678:	11c12783          	lw	a5,284(sp)
    267c:	12012d83          	lw	s11,288(sp)
    2680:	12412803          	lw	a6,292(sp)
    2684:	46ea                	c.lwsp	a3,152(sp)
    2686:	12812a83          	lw	s5,296(sp)
    268a:	12c12403          	lw	s0,300(sp)
    268e:	13012a03          	lw	s4,304(sp)
    2692:	13412903          	lw	s2,308(sp)
    2696:	22050163          	beqz	a0,28b8 <riscv_convolve_s8+0x5b8>
    269a:	4746                	c.lwsp	a4,80(sp)
    269c:	0e071663          	bnez	a4,2788 <riscv_convolve_s8+0x488>
    26a0:	570e                	c.lwsp	a4,224(sp)
    26a2:	459a                	c.lwsp	a1,132(sp)
    26a4:	9e3a                	c.add	t3,a4
    26a6:	470e                	c.lwsp	a4,192(sp)
    26a8:	0a85                	c.addi	s5,1
    26aa:	96ba                	c.add	a3,a4
    26ac:	963a                	c.add	a2,a4
    26ae:	972e                	c.add	a4,a1
    26b0:	c33a                	c.swsp	a4,132(sp)
    26b2:	574a                	c.lwsp	a4,176(sp)
    26b4:	97ba                	c.add	a5,a4
    26b6:	576a                	c.lwsp	a4,184(sp)
    26b8:	9726                	c.add	a4,s1
    26ba:	dd3a                	c.swsp	a4,184(sp)
    26bc:	474a                	c.lwsp	a4,144(sp)
    26be:	e75719e3          	bne	a4,s5,2530 <riscv_convolve_s8+0x230>
    26c2:	85ca                	c.mv	a1,s2
    26c4:	57ca                	c.lwsp	a5,176(sp)
    26c6:	11812f83          	lw	t6,280(sp)
    26ca:	11412903          	lw	s2,276(sp)
    26ce:	8c6e                	c.mv	s8,s11
    26d0:	84c2                	c.mv	s1,a6
    26d2:	82a2                	c.mv	t0,s0
    26d4:	01700db3          	add	s11,zero,s7
    26d8:	18812703          	lw	a4,392(sp)
    26dc:	0485                	c.addi	s1,1
    26de:	9716                	c.add	a4,t0
    26e0:	18e12423          	sw	a4,392(sp)
    26e4:	471e                	c.lwsp	a4,196(sp)
    26e6:	997e                	c.add	s2,t6
    26e8:	e09712e3          	bne	a4,s1,24ec <riscv_convolve_s8+0x1ec>
    26ec:	8b52                	c.mv	s6,s4
    26ee:	a2f9                	c.j	28bc <riscv_convolve_s8+0x5bc>
    26f0:	4901                	c.li	s2,0
    26f2:	8456                	c.mv	s0,s5
    26f4:	00f00a33          	add	s4,zero,a5
    26f8:	8522                	c.mv	a0,s0
    26fa:	0905                	c.addi	s2,1
    26fc:	8626                	c.mv	a2,s1
    26fe:	85de                	c.mv	a1,s7
    2700:	00940433          	add	s0,s0,s1
    2704:	71e070ef          	jal	ra,9e22 <memset>
    2708:	ff2998e3          	bne	s3,s2,26f8 <riscv_convolve_s8+0x3f8>
    270c:	5762                	c.lwsp	a4,56(sp)
    270e:	87d2                	c.mv	a5,s4
    2710:	9aba                	c.add	s5,a4
    2712:	b5fd                	c.j	2600 <riscv_convolve_s8+0x300>
    2714:	015005b3          	add	a1,zero,s5
    2718:	610070ef          	jal	ra,9d28 <memcpy>
    271c:	ed1ff06f          	j	25ec <riscv_convolve_s8+0x2ec>
    2720:	474a                	c.lwsp	a4,144(sp)
    2722:	4785                	c.li	a5,1
    2724:	58ba                	c.lwsp	a7,172(sp)
    2726:	582a                	c.lwsp	a6,168(sp)
    2728:	02f70a63          	beq	a4,a5,275c <riscv_convolve_s8+0x45c>
    272c:	430a                	c.lwsp	t1,128(sp)
    272e:	5466                	c.lwsp	s0,120(sp)
    2730:	c81a                	c.swsp	t1,16(sp)
    2732:	531a                	c.lwsp	t1,164(sp)
    2734:	47da                	c.lwsp	a5,148(sp)
    2736:	c61a                	c.swsp	t1,12(sp)
    2738:	436a                	c.lwsp	t1,152(sp)
    273a:	570a                	c.lwsp	a4,160(sp)
    273c:	c41a                	c.swsp	t1,8(sp)
    273e:	432a                	c.lwsp	t1,136(sp)
    2740:	469a                	c.lwsp	a3,132(sp)
    2742:	c21a                	c.swsp	t1,4(sp)
    2744:	565a                	c.lwsp	a2,180(sp)
    2746:	4376                	c.lwsp	t1,92(sp)
    2748:	457a                	c.lwsp	a0,156(sp)
    274a:	85a2                	c.mv	a1,s0
    274c:	c01a                	c.swsp	t1,0(sp)
    274e:	c882                	c.swsp	zero,80(sp)
    2750:	770000ef          	jal	ra,2ec0 <riscv_nn_mat_mult_kernel_row_offset_s8_s16>
    2754:	4c3a                	c.lwsp	s8,140(sp)
    2756:	c12a                	c.swsp	a0,128(sp)
    2758:	caa2                	c.swsp	s0,84(sp)
    275a:	b5cd                	c.j	263c <riscv_convolve_s8+0x33c>
    275c:	430a                	c.lwsp	t1,128(sp)
    275e:	5466                	c.lwsp	s0,120(sp)
    2760:	c61a                	c.swsp	t1,12(sp)
    2762:	436a                	c.lwsp	t1,152(sp)
    2764:	47da                	c.lwsp	a5,148(sp)
    2766:	c41a                	c.swsp	t1,8(sp)
    2768:	432a                	c.lwsp	t1,136(sp)
    276a:	570a                	c.lwsp	a4,160(sp)
    276c:	c21a                	c.swsp	t1,4(sp)
    276e:	469a                	c.lwsp	a3,132(sp)
    2770:	4376                	c.lwsp	t1,92(sp)
    2772:	10412603          	lw	a2,260(sp)
    2776:	457a                	c.lwsp	a0,156(sp)
    2778:	85a2                	c.mv	a1,s0
    277a:	c01a                	c.swsp	t1,0(sp)
    277c:	c882                	c.swsp	zero,80(sp)
    277e:	2269                	c.jal	2908 <riscv_nn_mat_mult_kernel_s8_s16>
    2780:	4c3a                	c.lwsp	s8,140(sp)
    2782:	c12a                	c.swsp	a0,128(sp)
    2784:	caa2                	c.swsp	s0,84(sp)
    2786:	bd5d                	c.j	263c <riscv_convolve_s8+0x33c>
    2788:	574a                	c.lwsp	a4,176(sp)
    278a:	10070d63          	beqz	a4,28a4 <riscv_convolve_s8+0x5a4>
    278e:	475e                	c.lwsp	a4,212(sp)
    2790:	8f5e                	c.mv	t5,s7
    2792:	5b6e                	c.lwsp	s6,248(sp)
    2794:	5bfe                	c.lwsp	s7,252(sp)
    2796:	85f2                	c.mv	a1,t3
    2798:	4301                	c.li	t1,0
    279a:	00170393          	addi	t2,a4,1 # 10001 <_RAMCODE_VMA_END+0x52bd>
    279e:	4c09                	c.li	s8,2
    27a0:	4f81                	c.li	t6,0
    27a2:	4285                	c.li	t0,1
    27a4:	c2be                	c.swsp	a5,68(sp)
    27a6:	c4ea                	c.swsp	s10,72(sp)
    27a8:	4781                	c.li	a5,0
    27aa:	c689                	c.beqz	a3,27b4 <riscv_convolve_s8+0x4b4>
    27ac:	006687b3          	add	a5,a3,t1
    27b0:	0007a783          	lw	a5,0(a5)
    27b4:	571e                	c.lwsp	a4,228(sp)
    27b6:	0e070b63          	beqz	a4,28ac <riscv_convolve_s8+0x5ac>
    27ba:	575e                	c.lwsp	a4,244(sp)
    27bc:	58e6                	c.lwsp	a7,120(sp)
    27be:	00e58d33          	add	s10,a1,a4
    27c2:	c6b6                	c.swsp	a3,76(sp)
    27c4:	4198                	c.lw	a4,0(a1)
    27c6:	8b3a                	c.mv	s6,a4
    27c8:	8bba                	c.mv	s7,a4
    27ca:	0591                	c.addi	a1,4
    27cc:	de8b0eff          	wexti	t4,s6,8
    27d0:	ac9e8eff          	sunpkd820	t4,t4
    27d4:	ac97077f          	sunpkd820	a4,a4
    27d8:	0008a683          	lw	a3,0(a7)
    27dc:	48d717ff          	kmada	a5,a4,a3
    27e0:	00488713          	addi	a4,a7,4
    27e4:	4318                	c.lw	a4,0(a4)
    27e6:	08a1                	c.addi	a7,8
    27e8:	48ee97ff          	kmada	a5,t4,a4
    27ec:	fda59ce3          	bne	a1,s10,27c4 <riscv_convolve_s8+0x4c4>
    27f0:	04c12683          	lw	a3,76(sp)
    27f4:	10012703          	lw	a4,256(sp)
    27f8:	5eae                	c.lwsp	t4,232(sp)
    27fa:	85ea                	c.mv	a1,s10
    27fc:	020e8a63          	beqz	t4,2830 <riscv_convolve_s8+0x530>
    2800:	000d0583          	lb	a1,0(s10)
    2804:	00071883          	lh	a7,0(a4)
    2808:	c4b897ff          	maddr32	a5,a7,a1
    280c:	45de                	c.lwsp	a1,212(sp)
    280e:	cd99                	c.beqz	a1,282c <riscv_convolve_s8+0x52c>
    2810:	00271883          	lh	a7,2(a4)
    2814:	001d0583          	lb	a1,1(s10)
    2818:	c4b897ff          	maddr32	a5,a7,a1
    281c:	018e8863          	beq	t4,s8,282c <riscv_convolve_s8+0x52c>
    2820:	002d0583          	lb	a1,2(s10)
    2824:	00471703          	lh	a4,4(a4)
    2828:	c4e597ff          	maddr32	a5,a1,a4
    282c:	007d05b3          	add	a1,s10,t2
    2830:	471a                	c.lwsp	a4,132(sp)
    2832:	0505                	c.addi	a0,1
    2834:	971a                	c.add	a4,t1
    2836:	00072e83          	lw	t4,0(a4)
    283a:	00660733          	add	a4,a2,t1
    283e:	00072d03          	lw	s10,0(a4)
    2842:	f3fe88ff          	maxw	a7,t4,t6
    2846:	011798b3          	sll	a7,a5,a7
    284a:	40000737          	lui	a4,0x40000
    284e:	4781                	c.li	a5,0
    2850:	85a8977f          	smar64	a4,a7,s10
    2854:	41d008b3          	neg	a7,t4
    2858:	f3f888ff          	maxw	a7,a7,t6
    285c:	01129eb3          	sll	t4,t0,a7
    2860:	dff7077f          	wexti	a4,a4,31
    2864:	fffe8793          	addi	a5,t4,-1
    2868:	4017de93          	srai	t4,a5,0x1
    286c:	00072d13          	slti	s10,a4,0
    2870:	8ff9                	c.and	a5,a4
    2872:	9eea                	c.add	t4,s10
    2874:	00fea7b3          	slt	a5,t4,a5
    2878:	41175733          	sra	a4,a4,a7
    287c:	973e                	c.add	a4,a5
    287e:	47da                	c.lwsp	a5,148(sp)
    2880:	0311                	c.addi	t1,4
    2882:	97ba                	c.add	a5,a4
    2884:	472e                	c.lwsp	a4,200(sp)
    2886:	f2f707ff          	maxw	a5,a4,a5
    288a:	473e                	c.lwsp	a4,204(sp)
    288c:	f0f707ff          	minw	a5,a4,a5
    2890:	fef50fa3          	sb	a5,-1(a0) # fdfff <_STACK_TOP+0x5dfff>
    2894:	478e                	c.lwsp	a5,192(sp)
    2896:	f06799e3          	bne	a5,t1,27a8 <riscv_convolve_s8+0x4a8>
    289a:	4796                	c.lwsp	a5,68(sp)
    289c:	4d26                	c.lwsp	s10,72(sp)
    289e:	dfde                	c.swsp	s7,252(sp)
    28a0:	8bfa                	c.mv	s7,t5
    28a2:	ddda                	c.swsp	s6,248(sp)
    28a4:	5766                	c.lwsp	a4,120(sp)
    28a6:	4c3a                	c.lwsp	s8,140(sp)
    28a8:	caba                	c.swsp	a4,84(sp)
    28aa:	bbdd                	c.j	26a0 <riscv_convolve_s8+0x3a0>
    28ac:	5766                	c.lwsp	a4,120(sp)
    28ae:	8d2e                	c.mv	s10,a1
    28b0:	f49ff06f          	j	27f8 <riscv_convolve_s8+0x4f8>
    28b4:	de0796e3          	bnez	a5,26a0 <riscv_convolve_s8+0x3a0>
    28b8:	ffe00b13          	li	s6,-2
    28bc:	17c12083          	lw	ra,380(sp)
    28c0:	17812403          	lw	s0,376(sp)
    28c4:	17412483          	lw	s1,372(sp)
    28c8:	17012903          	lw	s2,368(sp)
    28cc:	16c12983          	lw	s3,364(sp)
    28d0:	16812a03          	lw	s4,360(sp)
    28d4:	16412a83          	lw	s5,356(sp)
    28d8:	15c12b83          	lw	s7,348(sp)
    28dc:	15812c03          	lw	s8,344(sp)
    28e0:	15412c83          	lw	s9,340(sp)
    28e4:	15012d03          	lw	s10,336(sp)
    28e8:	14c12d83          	lw	s11,332(sp)
    28ec:	855a                	c.mv	a0,s6
    28ee:	16012b03          	lw	s6,352(sp)
    28f2:	6119                	c.addi16sp	sp,384
    28f4:	00008067          	ret
    28f8:	004e0613          	addi	a2,t3,4
    28fc:	8e15                	c.sub	a2,a3
    28fe:	c532                	c.swsp	a2,136(sp)
    2900:	aedff06f          	j	23ec <riscv_convolve_s8+0xec>
    2904:	5b7d                	c.li	s6,-1
    2906:	bf5d                	c.j	28bc <riscv_convolve_s8+0x5bc>

00002908 <riscv_nn_mat_mult_kernel_s8_s16>:
    2908:	7119                	c.addi16sp	sp,-128
    290a:	dea2                	c.swsp	s0,124(sp)
    290c:	443a                	c.lwsp	s0,140(sp)
    290e:	82b2                	c.mv	t0,a2
    2910:	dca6                	c.swsp	s1,120(sp)
    2912:	daca                	c.swsp	s2,116(sp)
    2914:	00165493          	srli	s1,a2,0x1
    2918:	d0de                	c.swsp	s7,96(sp)
    291a:	cee2                	c.swsp	s8,92(sp)
    291c:	caea                	c.swsp	s10,84(sp)
    291e:	c8ee                	c.swsp	s11,80(sp)
    2920:	d8ce                	c.swsp	s3,112(sp)
    2922:	d6d2                	c.swsp	s4,108(sp)
    2924:	d4d6                	c.swsp	s5,104(sp)
    2926:	d2da                	c.swsp	s6,100(sp)
    2928:	cce6                	c.swsp	s9,88(sp)
    292a:	cc2e                	c.swsp	a1,24(sp)
    292c:	491a                	c.lwsp	s2,132(sp)
    292e:	462a                	c.lwsp	a2,136(sp)
    2930:	8fb6                	c.mv	t6,a3
    2932:	8bbe                	c.mv	s7,a5
    2934:	8d42                	c.mv	s10,a6
    2936:	8dc6                	c.mv	s11,a7
    2938:	00540c33          	add	s8,s0,t0
    293c:	48048c63          	beqz	s1,2dd4 <riscv_nn_mat_mult_kernel_s8_s16+0x4cc>
    2940:	478a                	c.lwsp	a5,128(sp)
    2942:	882e                	c.mv	a6,a1
    2944:	4027d893          	srai	a7,a5,0x2
    2948:	00191793          	slli	a5,s2,0x1
    294c:	00f58f33          	add	t5,a1,a5
    2950:	00389693          	slli	a3,a7,0x3
    2954:	458a                	c.lwsp	a1,128(sp)
    2956:	d27a                	c.swsp	t5,36(sp)
    2958:	9f36                	c.add	t5,a3
    295a:	96c2                	c.add	a3,a6
    295c:	00149793          	slli	a5,s1,0x1
    2960:	d636                	c.swsp	a3,44(sp)
    2962:	00289693          	slli	a3,a7,0x2
    2966:	898d                	c.andi	a1,3
    2968:	00fc09b3          	add	s3,s8,a5
    296c:	d436                	c.swsp	a3,40(sp)
    296e:	8b3a                	c.mv	s6,a4
    2970:	86a2                	c.mv	a3,s0
    2972:	8a7e                	c.mv	s4,t6
    2974:	4c85                	c.li	s9,1
    2976:	4a81                	c.li	s5,0
    2978:	d046                	c.swsp	a7,32(sp)
    297a:	ce4e                	c.swsp	s3,28(sp)
    297c:	d87a                	c.swsp	t5,48(sp)
    297e:	da26                	c.swsp	s1,52(sp)
    2980:	c42e                	c.swsp	a1,8(sp)
    2982:	dc3e                	c.swsp	a5,56(sp)
    2984:	de16                	c.swsp	t0,60(sp)
    2986:	c0fe                	c.swsp	t6,64(sp)
    2988:	04e12223          	sw	a4,68(sp)
    298c:	478a                	c.lwsp	a5,128(sp)
    298e:	00f509b3          	add	s3,a0,a5
    2992:	42060563          	beqz	a2,2dbc <riscv_nn_mat_mult_kernel_s8_s16+0x4b4>
    2996:	5902                	c.lwsp	s2,32(sp)
    2998:	00062803          	lw	a6,0(a2)
    299c:	424c                	c.lw	a1,4(a2)
    299e:	0621                	c.addi	a2,8
    29a0:	42090463          	beqz	s2,2dc8 <riscv_nn_mat_mult_kernel_s8_s16+0x4c0>
    29a4:	5292                	c.lwsp	t0,36(sp)
    29a6:	4fe2                	c.lwsp	t6,24(sp)
    29a8:	ca6e                	c.swsp	s11,20(sp)
    29aa:	88ae                	c.mv	a7,a1
    29ac:	8dea                	c.mv	s11,s10
    29ae:	8f42                	c.mv	t5,a6
    29b0:	8d5e                	c.mv	s10,s7
    29b2:	84ce                	c.mv	s1,s3
    29b4:	842a                	c.mv	s0,a0
    29b6:	8baa                	c.mv	s7,a0
    29b8:	c636                	c.swsp	a3,12(sp)
    29ba:	c862                	c.swsp	s8,16(sp)
    29bc:	08c12423          	sw	a2,136(sp)
    29c0:	000fa503          	lw	a0,0(t6)
    29c4:	0002a603          	lw	a2,0(t0)
    29c8:	4018                	c.lw	a4,0(s0)
    29ca:	833a                	c.mv	t1,a4
    29cc:	83ba                	c.mv	t2,a4
    29ce:	0411                	c.addi	s0,4
    29d0:	de830c7f          	wexti	s8,t1,8
    29d4:	ac9c0c7f          	sunpkd820	s8,s8
    29d8:	ac97077f          	sunpkd820	a4,a4
    29dc:	409c                	c.lw	a5,0(s1)
    29de:	8e3e                	c.mv	t3,a5
    29e0:	8ebe                	c.mv	t4,a5
    29e2:	0491                	c.addi	s1,4
    29e4:	de8e06ff          	wexti	a3,t3,8
    29e8:	ac9686ff          	sunpkd820	a3,a3
    29ec:	ac9787ff          	sunpkd820	a5,a5
    29f0:	48a7187f          	kmada	a6,a4,a0
    29f4:	48c71f7f          	kmada	t5,a4,a2
    29f8:	48a795ff          	kmada	a1,a5,a0
    29fc:	48c798ff          	kmada	a7,a5,a2
    2a00:	004f8713          	addi	a4,t6,4
    2a04:	4318                	c.lw	a4,0(a4)
    2a06:	0fa1                	c.addi	t6,8
    2a08:	00428793          	addi	a5,t0,4
    2a0c:	439c                	c.lw	a5,0(a5)
    2a0e:	02a1                	c.addi	t0,8
    2a10:	48ec187f          	kmada	a6,s8,a4
    2a14:	48fc1f7f          	kmada	t5,s8,a5
    2a18:	48e695ff          	kmada	a1,a3,a4
    2a1c:	48f698ff          	kmada	a7,a3,a5
    2a20:	197d                	c.addi	s2,-1
    2a22:	f8091fe3          	bnez	s2,29c0 <riscv_nn_mat_mult_kernel_s8_s16+0xb8>
    2a26:	57a2                	c.lwsp	a5,40(sp)
    2a28:	855e                	c.mv	a0,s7
    2a2a:	99be                	c.add	s3,a5
    2a2c:	8bea                	c.mv	s7,s10
    2a2e:	953e                	c.add	a0,a5
    2a30:	8d6e                	c.mv	s10,s11
    2a32:	46b2                	c.lwsp	a3,12(sp)
    2a34:	4c42                	c.lwsp	s8,16(sp)
    2a36:	4dd2                	c.lwsp	s11,20(sp)
    2a38:	462a                	c.lwsp	a2,136(sp)
    2a3a:	57c2                	c.lwsp	a5,48(sp)
    2a3c:	02c12703          	lw	a4,44(sp)
    2a40:	4922                	c.lwsp	s2,8(sp)
    2a42:	06090963          	beqz	s2,2ab4 <riscv_nn_mat_mult_kernel_s8_s16+0x1ac>
    2a46:	00050483          	lb	s1,0(a0)
    2a4a:	00071403          	lh	s0,0(a4) # 40000000 <_DATA_LMA_START+0x1fff5168>
    2a4e:	00079f83          	lh	t6,0(a5)
    2a52:	00098283          	lb	t0,0(s3)
    2a56:	c494187f          	maddr32	a6,s0,s1
    2a5a:	c49f9f7f          	maddr32	t5,t6,s1
    2a5e:	c48295ff          	maddr32	a1,t0,s0
    2a62:	c5f298ff          	maddr32	a7,t0,t6
    2a66:	05990563          	beq	s2,s9,2ab0 <riscv_nn_mat_mult_kernel_s8_s16+0x1a8>
    2a6a:	00271403          	lh	s0,2(a4)
    2a6e:	00150483          	lb	s1,1(a0)
    2a72:	00198283          	lb	t0,1(s3)
    2a76:	00279f83          	lh	t6,2(a5)
    2a7a:	c494187f          	maddr32	a6,s0,s1
    2a7e:	c48295ff          	maddr32	a1,t0,s0
    2a82:	4409                	c.li	s0,2
    2a84:	c49f9f7f          	maddr32	t5,t6,s1
    2a88:	c5f298ff          	maddr32	a7,t0,t6
    2a8c:	02890263          	beq	s2,s0,2ab0 <riscv_nn_mat_mult_kernel_s8_s16+0x1a8>
    2a90:	00250f83          	lb	t6,2(a0)
    2a94:	00471703          	lh	a4,4(a4)
    2a98:	00479783          	lh	a5,4(a5)
    2a9c:	00298283          	lb	t0,2(s3)
    2aa0:	c4ef987f          	maddr32	a6,t6,a4
    2aa4:	c4ff9f7f          	maddr32	t5,t6,a5
    2aa8:	c45715ff          	maddr32	a1,a4,t0
    2aac:	c45798ff          	maddr32	a7,a5,t0
    2ab0:	47a2                	c.lwsp	a5,8(sp)
    2ab2:	953e                	c.add	a0,a5
    2ab4:	000a2f83          	lw	t6,0(s4)
    2ab8:	000b2283          	lw	t0,0(s6)
    2abc:	f35f87ff          	maxw	a5,t6,s5
    2ac0:	00f81833          	sll	a6,a6,a5
    2ac4:	40000737          	lui	a4,0x40000
    2ac8:	4781                	c.li	a5,0
    2aca:	8458177f          	smar64	a4,a6,t0
    2ace:	41f00833          	neg	a6,t6
    2ad2:	f358087f          	maxw	a6,a6,s5
    2ad6:	010c9fb3          	sll	t6,s9,a6
    2ada:	dff7077f          	wexti	a4,a4,31
    2ade:	ffff8793          	addi	a5,t6,-1
    2ae2:	4017df93          	srai	t6,a5,0x1
    2ae6:	00072293          	slti	t0,a4,0
    2aea:	8ff9                	c.and	a5,a4
    2aec:	9f96                	c.add	t6,t0
    2aee:	00ffa7b3          	slt	a5,t6,a5
    2af2:	41075733          	sra	a4,a4,a6
    2af6:	973e                	c.add	a4,a5
    2af8:	975e                	c.add	a4,s7
    2afa:	f3a7077f          	maxw	a4,a4,s10
    2afe:	f1b7077f          	minw	a4,a4,s11
    2b02:	00e68023          	sb	a4,0(a3)
    2b06:	000a2803          	lw	a6,0(s4)
    2b0a:	000b2f83          	lw	t6,0(s6)
    2b0e:	f35807ff          	maxw	a5,a6,s5
    2b12:	00ff1f33          	sll	t5,t5,a5
    2b16:	40000737          	lui	a4,0x40000
    2b1a:	4781                	c.li	a5,0
    2b1c:	85ff177f          	smar64	a4,t5,t6
    2b20:	41000833          	neg	a6,a6
    2b24:	f358087f          	maxw	a6,a6,s5
    2b28:	010c9f33          	sll	t5,s9,a6
    2b2c:	dff7077f          	wexti	a4,a4,31
    2b30:	ffff0793          	addi	a5,t5,-1
    2b34:	4017df13          	srai	t5,a5,0x1
    2b38:	00072f93          	slti	t6,a4,0
    2b3c:	8ff9                	c.and	a5,a4
    2b3e:	9f7e                	c.add	t5,t6
    2b40:	00ff27b3          	slt	a5,t5,a5
    2b44:	41075733          	sra	a4,a4,a6
    2b48:	973e                	c.add	a4,a5
    2b4a:	975e                	c.add	a4,s7
    2b4c:	f3a7077f          	maxw	a4,a4,s10
    2b50:	f1b7077f          	minw	a4,a4,s11
    2b54:	00ec0023          	sb	a4,0(s8)
    2b58:	004a2803          	lw	a6,4(s4)
    2b5c:	004b2f03          	lw	t5,4(s6)
    2b60:	f35807ff          	maxw	a5,a6,s5
    2b64:	00f595b3          	sll	a1,a1,a5
    2b68:	40000737          	lui	a4,0x40000
    2b6c:	4781                	c.li	a5,0
    2b6e:	85e5977f          	smar64	a4,a1,t5
    2b72:	410005b3          	neg	a1,a6
    2b76:	f35585ff          	maxw	a1,a1,s5
    2b7a:	00bc9833          	sll	a6,s9,a1
    2b7e:	dff7077f          	wexti	a4,a4,31
    2b82:	fff80793          	addi	a5,a6,-1
    2b86:	00072f13          	slti	t5,a4,0
    2b8a:	4017d813          	srai	a6,a5,0x1
    2b8e:	987a                	c.add	a6,t5
    2b90:	8ff9                	c.and	a5,a4
    2b92:	00f827b3          	slt	a5,a6,a5
    2b96:	40b75733          	sra	a4,a4,a1
    2b9a:	973e                	c.add	a4,a5
    2b9c:	975e                	c.add	a4,s7
    2b9e:	f3a7077f          	maxw	a4,a4,s10
    2ba2:	f1b7077f          	minw	a4,a4,s11
    2ba6:	00e680a3          	sb	a4,1(a3)
    2baa:	004a2583          	lw	a1,4(s4)
    2bae:	004b2f03          	lw	t5,4(s6)
    2bb2:	f355887f          	maxw	a6,a1,s5
    2bb6:	01089833          	sll	a6,a7,a6
    2bba:	40000737          	lui	a4,0x40000
    2bbe:	4781                	c.li	a5,0
    2bc0:	85e8177f          	smar64	a4,a6,t5
    2bc4:	40b005b3          	neg	a1,a1
    2bc8:	f35585ff          	maxw	a1,a1,s5
    2bcc:	00bc9833          	sll	a6,s9,a1
    2bd0:	dff7077f          	wexti	a4,a4,31
    2bd4:	fff80793          	addi	a5,a6,-1
    2bd8:	4017d813          	srai	a6,a5,0x1
    2bdc:	00072893          	slti	a7,a4,0
    2be0:	8ff9                	c.and	a5,a4
    2be2:	9846                	c.add	a6,a7
    2be4:	00f827b3          	slt	a5,a6,a5
    2be8:	40b75733          	sra	a4,a4,a1
    2bec:	973e                	c.add	a4,a5
    2bee:	975e                	c.add	a4,s7
    2bf0:	478a                	c.lwsp	a5,128(sp)
    2bf2:	f3a7077f          	maxw	a4,a4,s10
    2bf6:	0c09                	c.addi	s8,2
    2bf8:	f1b7077f          	minw	a4,a4,s11
    2bfc:	953e                	c.add	a0,a5
    2bfe:	47f2                	c.lwsp	a5,28(sp)
    2c00:	feec0fa3          	sb	a4,-1(s8)
    2c04:	0689                	c.addi	a3,2
    2c06:	0b21                	c.addi	s6,8
    2c08:	0a21                	c.addi	s4,8
    2c0a:	d8fc11e3          	bne	s8,a5,298c <riscv_nn_mat_mult_kernel_s8_s16+0x84>
    2c0e:	54d2                	c.lwsp	s1,52(sp)
    2c10:	57e2                	c.lwsp	a5,56(sp)
    2c12:	4f86                	c.lwsp	t6,64(sp)
    2c14:	4716                	c.lwsp	a4,68(sp)
    2c16:	443a                	c.lwsp	s0,140(sp)
    2c18:	048e                	c.slli	s1,0x3
    2c1a:	52f2                	c.lwsp	t0,60(sp)
    2c1c:	491a                	c.lwsp	s2,132(sp)
    2c1e:	943e                	c.add	s0,a5
    2c20:	9726                	c.add	a4,s1
    2c22:	9fa6                	c.add	t6,s1
    2c24:	0012f793          	andi	a5,t0,1
    2c28:	16078a63          	beqz	a5,2d9c <riscv_nn_mat_mult_kernel_s8_s16+0x494>
    2c2c:	47e2                	c.lwsp	a5,24(sp)
    2c2e:	00191e93          	slli	t4,s2,0x1
    2c32:	9ebe                	c.add	t4,a5
    2c34:	4681                	c.li	a3,0
    2c36:	c219                	c.beqz	a2,2c3c <riscv_nn_mat_mult_kernel_s8_s16+0x334>
    2c38:	00062683          	lw	a3,0(a2)
    2c3c:	478a                	c.lwsp	a5,128(sp)
    2c3e:	4027d393          	srai	t2,a5,0x2
    2c42:	18038b63          	beqz	t2,2dd8 <riscv_nn_mat_mult_kernel_s8_s16+0x4d0>
    2c46:	4862                	c.lwsp	a6,24(sp)
    2c48:	88f6                	c.mv	a7,t4
    2c4a:	8f1e                	c.mv	t5,t2
    2c4c:	85b6                	c.mv	a1,a3
    2c4e:	8e2a                	c.mv	t3,a0
    2c50:	00082483          	lw	s1,0(a6)
    2c54:	0008a303          	lw	t1,0(a7)
    2c58:	000e2783          	lw	a5,0(t3)
    2c5c:	893e                	c.mv	s2,a5
    2c5e:	89be                	c.mv	s3,a5
    2c60:	0e11                	c.addi	t3,4
    2c62:	de89067f          	wexti	a2,s2,8
    2c66:	ac96067f          	sunpkd820	a2,a2
    2c6a:	ac9787ff          	sunpkd820	a5,a5
    2c6e:	489796ff          	kmada	a3,a5,s1
    2c72:	486795ff          	kmada	a1,a5,t1
    2c76:	00480313          	addi	t1,a6,4
    2c7a:	00032303          	lw	t1,0(t1) # 10000 <_RAMCODE_VMA_END+0x52bc>
    2c7e:	0821                	c.addi	a6,8
    2c80:	00488793          	addi	a5,a7,4
    2c84:	439c                	c.lw	a5,0(a5)
    2c86:	08a1                	c.addi	a7,8
    2c88:	486616ff          	kmada	a3,a2,t1
    2c8c:	48f615ff          	kmada	a1,a2,a5
    2c90:	1f7d                	c.addi	t5,-1
    2c92:	fa0f1fe3          	bnez	t5,2c50 <riscv_nn_mat_mult_kernel_s8_s16+0x348>
    2c96:	4662                	c.lwsp	a2,24(sp)
    2c98:	00339793          	slli	a5,t2,0x3
    2c9c:	038a                	c.slli	t2,0x2
    2c9e:	9ebe                	c.add	t4,a5
    2ca0:	951e                	c.add	a0,t2
    2ca2:	97b2                	c.add	a5,a2
    2ca4:	00f12c23          	sw	a5,24(sp)
    2ca8:	478a                	c.lwsp	a5,128(sp)
    2caa:	8b8d                	c.andi	a5,3
    2cac:	c7b1                	c.beqz	a5,2cf8 <riscv_nn_mat_mult_kernel_s8_s16+0x3f0>
    2cae:	44e2                	c.lwsp	s1,24(sp)
    2cb0:	00050603          	lb	a2,0(a0)
    2cb4:	00049303          	lh	t1,0(s1) # 87000 <ds_cnn_s_layer_9_conv_2d_weights+0xca4>
    2cb8:	000e9883          	lh	a7,0(t4)
    2cbc:	4805                	c.li	a6,1
    2cbe:	c4c316ff          	maddr32	a3,t1,a2
    2cc2:	c4c895ff          	maddr32	a1,a7,a2
    2cc6:	03078963          	beq	a5,a6,2cf8 <riscv_nn_mat_mult_kernel_s8_s16+0x3f0>
    2cca:	00150603          	lb	a2,1(a0)
    2cce:	00249303          	lh	t1,2(s1)
    2cd2:	002e9883          	lh	a7,2(t4)
    2cd6:	4809                	c.li	a6,2
    2cd8:	c4c316ff          	maddr32	a3,t1,a2
    2cdc:	c4c895ff          	maddr32	a1,a7,a2
    2ce0:	01078c63          	beq	a5,a6,2cf8 <riscv_nn_mat_mult_kernel_s8_s16+0x3f0>
    2ce4:	00250783          	lb	a5,2(a0)
    2ce8:	004e9603          	lh	a2,4(t4)
    2cec:	00449503          	lh	a0,4(s1)
    2cf0:	c4f615ff          	maddr32	a1,a2,a5
    2cf4:	c4f516ff          	maddr32	a3,a0,a5
    2cf8:	000fae03          	lw	t3,0(t6)
    2cfc:	431c                	c.lw	a5,0(a4)
    2cfe:	4501                	c.li	a0,0
    2d00:	f2ae067f          	maxw	a2,t3,a0
    2d04:	40000837          	lui	a6,0x40000
    2d08:	4881                	c.li	a7,0
    2d0a:	00c696b3          	sll	a3,a3,a2
    2d0e:	8342                	c.mv	t1,a6
    2d10:	83c6                	c.mv	t2,a7
    2d12:	84f6937f          	smar64	t1,a3,a5
    2d16:	41c00e33          	neg	t3,t3
    2d1a:	4685                	c.li	a3,1
    2d1c:	f2ae0e7f          	maxw	t3,t3,a0
    2d20:	01c69633          	sll	a2,a3,t3
    2d24:	dff307ff          	wexti	a5,t1,31
    2d28:	167d                	c.addi	a2,-1
    2d2a:	40165313          	srai	t1,a2,0x1
    2d2e:	0007ae93          	slti	t4,a5,0
    2d32:	8e7d                	c.and	a2,a5
    2d34:	9376                	c.add	t1,t4
    2d36:	00c32633          	slt	a2,t1,a2
    2d3a:	41c7d7b3          	sra	a5,a5,t3
    2d3e:	97b2                	c.add	a5,a2
    2d40:	97de                	c.add	a5,s7
    2d42:	f2fd07ff          	maxw	a5,s10,a5
    2d46:	f0fd87ff          	minw	a5,s11,a5
    2d4a:	00f40023          	sb	a5,0(s0)
    2d4e:	000fa783          	lw	a5,0(t6)
    2d52:	4318                	c.lw	a4,0(a4)
    2d54:	f2a7867f          	maxw	a2,a5,a0
    2d58:	00c595b3          	sll	a1,a1,a2
    2d5c:	84e5987f          	smar64	a6,a1,a4
    2d60:	40f00733          	neg	a4,a5
    2d64:	f2a7077f          	maxw	a4,a4,a0
    2d68:	00e697b3          	sll	a5,a3,a4
    2d6c:	dff8087f          	wexti	a6,a6,31
    2d70:	17fd                	c.addi	a5,-1
    2d72:	4017d693          	srai	a3,a5,0x1
    2d76:	00082613          	slti	a2,a6,0
    2d7a:	0107f7b3          	and	a5,a5,a6
    2d7e:	96b2                	c.add	a3,a2
    2d80:	00f6a7b3          	slt	a5,a3,a5
    2d84:	40e85733          	sra	a4,a6,a4
    2d88:	973e                	c.add	a4,a5
    2d8a:	9bba                	c.add	s7,a4
    2d8c:	47f2                	c.lwsp	a5,28(sp)
    2d8e:	f37d0d7f          	maxw	s10,s10,s7
    2d92:	f1ad8dff          	minw	s11,s11,s10
    2d96:	0405                	c.addi	s0,1
    2d98:	01b78023          	sb	s11,0(a5)
    2d9c:	00540533          	add	a0,s0,t0
    2da0:	5476                	c.lwsp	s0,124(sp)
    2da2:	54e6                	c.lwsp	s1,120(sp)
    2da4:	5956                	c.lwsp	s2,116(sp)
    2da6:	59c6                	c.lwsp	s3,112(sp)
    2da8:	5a36                	c.lwsp	s4,108(sp)
    2daa:	5aa6                	c.lwsp	s5,104(sp)
    2dac:	5b16                	c.lwsp	s6,100(sp)
    2dae:	5b86                	c.lwsp	s7,96(sp)
    2db0:	4c76                	c.lwsp	s8,92(sp)
    2db2:	4ce6                	c.lwsp	s9,88(sp)
    2db4:	4d56                	c.lwsp	s10,84(sp)
    2db6:	4dc6                	c.lwsp	s11,80(sp)
    2db8:	6109                	c.addi16sp	sp,128
    2dba:	8082                	c.jr	ra
    2dbc:	5902                	c.lwsp	s2,32(sp)
    2dbe:	4581                	c.li	a1,0
    2dc0:	00000813          	li	a6,0
    2dc4:	be0910e3          	bnez	s2,29a4 <riscv_nn_mat_mult_kernel_s8_s16+0x9c>
    2dc8:	5792                	c.lwsp	a5,36(sp)
    2dca:	4762                	c.lwsp	a4,24(sp)
    2dcc:	88ae                	c.mv	a7,a1
    2dce:	8f42                	c.mv	t5,a6
    2dd0:	c71ff06f          	j	2a40 <riscv_nn_mat_mult_kernel_s8_s16+0x138>
    2dd4:	ce62                	c.swsp	s8,28(sp)
    2dd6:	b5b9                	c.j	2c24 <riscv_nn_mat_mult_kernel_s8_s16+0x31c>
    2dd8:	85b6                	c.mv	a1,a3
    2dda:	b5f9                	c.j	2ca8 <riscv_nn_mat_mult_kernel_s8_s16+0x3a0>

00002ddc <riscv_convolve_wrapper_s8_get_buffer_size>:
    2ddc:	491c                	c.lw	a5,16(a0)
    2dde:	4618                	c.lw	a4,8(a2)
    2de0:	00462803          	lw	a6,4(a2)
    2de4:	86aa                	c.mv	a3,a0
    2de6:	e799                	c.bnez	a5,2df4 <riscv_convolve_wrapper_s8_get_buffer_size+0x18>
    2de8:	4948                	c.lw	a0,20(a0)
    2dea:	e509                	c.bnez	a0,2df4 <riscv_convolve_wrapper_s8_get_buffer_size+0x18>
    2dec:	00100793          	li	a5,1
    2df0:	02f70e63          	beq	a4,a5,2e2c <riscv_convolve_wrapper_s8_get_buffer_size+0x50>
    2df4:	41d0                	c.lw	a2,4(a1)
    2df6:	4505                	c.li	a0,1
    2df8:	45dc                	c.lw	a5,12(a1)
    2dfa:	00a61763          	bne	a2,a0,2e08 <riscv_convolve_wrapper_s8_get_buffer_size+0x2c>
    2dfe:	4e8c                	c.lw	a1,24(a3)
    2e00:	00c59463          	bne	a1,a2,2e08 <riscv_convolve_wrapper_s8_get_buffer_size+0x2c>
    2e04:	04b80063          	beq	a6,a1,2e44 <riscv_convolve_wrapper_s8_get_buffer_size+0x68>
    2e08:	03070733          	mul	a4,a4,a6
    2e0c:	02f70533          	mul	a0,a4,a5
    2e10:	00357793          	andi	a5,a0,3
    2e14:	cb91                	c.beqz	a5,2e28 <riscv_convolve_wrapper_s8_get_buffer_size+0x4c>
    2e16:	41f55713          	srai	a4,a0,0x1f
    2e1a:	8379                	c.srli	a4,0x1e
    2e1c:	00e507b3          	add	a5,a0,a4
    2e20:	8b8d                	c.andi	a5,3
    2e22:	0511                	c.addi	a0,4
    2e24:	8f99                	c.sub	a5,a4
    2e26:	8d1d                	c.sub	a0,a5
    2e28:	050a                	c.slli	a0,0x2
    2e2a:	8082                	c.jr	ra
    2e2c:	fce814e3          	bne	a6,a4,2df4 <riscv_convolve_wrapper_s8_get_buffer_size+0x18>
    2e30:	4e9c                	c.lw	a5,24(a3)
    2e32:	01079f63          	bne	a5,a6,2e50 <riscv_convolve_wrapper_s8_get_buffer_size+0x74>
    2e36:	4edc                	c.lw	a5,28(a3)
    2e38:	00e78e63          	beq	a5,a4,2e54 <riscv_convolve_wrapper_s8_get_buffer_size+0x78>
    2e3c:	41dc                	c.lw	a5,4(a1)
    2e3e:	00e79963          	bne	a5,a4,2e50 <riscv_convolve_wrapper_s8_get_buffer_size+0x74>
    2e42:	45dc                	c.lw	a5,12(a1)
    2e44:	4694                	c.lw	a3,8(a3)
    2e46:	02d786b3          	mul	a3,a5,a3
    2e4a:	8a8d                	c.andi	a3,3
    2e4c:	fed5                	c.bnez	a3,2e08 <riscv_convolve_wrapper_s8_get_buffer_size+0x2c>
    2e4e:	bf7d                	c.j	2e0c <riscv_convolve_wrapper_s8_get_buffer_size+0x30>
    2e50:	45dc                	c.lw	a5,12(a1)
    2e52:	bf5d                	c.j	2e08 <riscv_convolve_wrapper_s8_get_buffer_size+0x2c>
    2e54:	8082                	c.jr	ra
	...

00002e58 <riscv_depthwise_conv_s8_opt_get_buffer_size>:
    2e58:	4548                	c.lw	a0,12(a0)
    2e5a:	4598                	c.lw	a4,8(a1)
    2e5c:	41dc                	c.lw	a5,4(a1)
    2e5e:	02e50533          	mul	a0,a0,a4
    2e62:	02f50533          	mul	a0,a0,a5
    2e66:	0506                	c.slli	a0,0x1
    2e68:	8082                	c.jr	ra
	...

00002e6c <riscv_depthwise_conv_wrapper_s8_get_buffer_size>:
    2e6c:	45dc                	c.lw	a5,12(a1)
    2e6e:	46d8                	c.lw	a4,12(a3)
    2e70:	00e78663          	beq	a5,a4,2e7c <riscv_depthwise_conv_wrapper_s8_get_buffer_size+0x10>
    2e74:	00000713          	li	a4,0
    2e78:	853a                	c.mv	a0,a4
    2e7a:	8082                	c.jr	ra
    2e7c:	4194                	c.lw	a3,0(a1)
    2e7e:	4585                	c.li	a1,1
    2e80:	4701                	c.li	a4,0
    2e82:	feb69be3          	bne	a3,a1,2e78 <riscv_depthwise_conv_wrapper_s8_get_buffer_size+0xc>
    2e86:	4d4c                	c.lw	a1,28(a0)
    2e88:	fed598e3          	bne	a1,a3,2e78 <riscv_depthwise_conv_wrapper_s8_get_buffer_size+0xc>
    2e8c:	5114                	c.lw	a3,32(a0)
    2e8e:	feb695e3          	bne	a3,a1,2e78 <riscv_depthwise_conv_wrapper_s8_get_buffer_size+0xc>
    2e92:	460c                	c.lw	a1,8(a2)
    2e94:	480d                	c.li	a6,3
    2e96:	4250                	c.lw	a2,4(a2)
    2e98:	01058a63          	beq	a1,a6,2eac <riscv_depthwise_conv_wrapper_s8_get_buffer_size+0x40>
    2e9c:	02b787b3          	mul	a5,a5,a1
    2ea0:	02c787b3          	mul	a5,a5,a2
    2ea4:	00179713          	slli	a4,a5,0x1
    2ea8:	fd1ff06f          	j	2e78 <riscv_depthwise_conv_wrapper_s8_get_buffer_size+0xc>
    2eac:	feb618e3          	bne	a2,a1,2e9c <riscv_depthwise_conv_wrapper_s8_get_buffer_size+0x30>
    2eb0:	01852803          	lw	a6,24(a0)
    2eb4:	ff06c4e3          	blt	a3,a6,2e9c <riscv_depthwise_conv_wrapper_s8_get_buffer_size+0x30>
    2eb8:	4948                	c.lw	a0,20(a0)
    2eba:	fea6c1e3          	blt	a3,a0,2e9c <riscv_depthwise_conv_wrapper_s8_get_buffer_size+0x30>
    2ebe:	bf6d                	c.j	2e78 <riscv_depthwise_conv_wrapper_s8_get_buffer_size+0xc>

00002ec0 <riscv_nn_mat_mult_kernel_row_offset_s8_s16>:
    2ec0:	7119                	c.addi16sp	sp,-128
    2ec2:	42ca                	c.lwsp	t0,144(sp)
    2ec4:	daca                	c.swsp	s2,116(sp)
    2ec6:	493a                	c.lwsp	s2,140(sp)
    2ec8:	dea2                	c.swsp	s0,124(sp)
    2eca:	dca6                	c.swsp	s1,120(sp)
    2ecc:	d8ce                	c.swsp	s3,112(sp)
    2ece:	00165493          	srli	s1,a2,0x1
    2ed2:	d0de                	c.swsp	s7,96(sp)
    2ed4:	cee2                	c.swsp	s8,92(sp)
    2ed6:	caea                	c.swsp	s10,84(sp)
    2ed8:	c8ee                	c.swsp	s11,80(sp)
    2eda:	d6d2                	c.swsp	s4,108(sp)
    2edc:	d4d6                	c.swsp	s5,104(sp)
    2ede:	d2da                	c.swsp	s6,100(sp)
    2ee0:	cce6                	c.swsp	s9,88(sp)
    2ee2:	cc2e                	c.swsp	a1,24(sp)
    2ee4:	8432                	c.mv	s0,a2
    2ee6:	499a                	c.lwsp	s3,132(sp)
    2ee8:	462a                	c.lwsp	a2,136(sp)
    2eea:	8fb6                	c.mv	t6,a3
    2eec:	8bbe                	c.mv	s7,a5
    2eee:	8d42                	c.mv	s10,a6
    2ef0:	8dc6                	c.mv	s11,a7
    2ef2:	01228c33          	add	s8,t0,s2
    2ef6:	4a048363          	beqz	s1,339c <riscv_nn_mat_mult_kernel_row_offset_s8_s16+0x4dc>
    2efa:	478a                	c.lwsp	a5,128(sp)
    2efc:	468a                	c.lwsp	a3,128(sp)
    2efe:	87fd                	c.srai	a5,0x1f
    2f00:	8b8d                	c.andi	a5,3
    2f02:	97b6                	c.add	a5,a3
    2f04:	4027d893          	srai	a7,a5,0x2
    2f08:	00199793          	slli	a5,s3,0x1
    2f0c:	00f58f33          	add	t5,a1,a5
    2f10:	00389693          	slli	a3,a7,0x3
    2f14:	882e                	c.mv	a6,a1
    2f16:	00149793          	slli	a5,s1,0x1
    2f1a:	458a                	c.lwsp	a1,128(sp)
    2f1c:	d27a                	c.swsp	t5,36(sp)
    2f1e:	9f36                	c.add	t5,a3
    2f20:	96c2                	c.add	a3,a6
    2f22:	00fc0a33          	add	s4,s8,a5
    2f26:	d636                	c.swsp	a3,44(sp)
    2f28:	00289693          	slli	a3,a7,0x2
    2f2c:	898d                	c.andi	a1,3
    2f2e:	ce52                	c.swsp	s4,28(sp)
    2f30:	d436                	c.swsp	a3,40(sp)
    2f32:	8b3a                	c.mv	s6,a4
    2f34:	8696                	c.mv	a3,t0
    2f36:	8a7e                	c.mv	s4,t6
    2f38:	4c85                	c.li	s9,1
    2f3a:	4a81                	c.li	s5,0
    2f3c:	d046                	c.swsp	a7,32(sp)
    2f3e:	d87a                	c.swsp	t5,48(sp)
    2f40:	da26                	c.swsp	s1,52(sp)
    2f42:	c42e                	c.swsp	a1,8(sp)
    2f44:	dc3e                	c.swsp	a5,56(sp)
    2f46:	de22                	c.swsp	s0,60(sp)
    2f48:	c0fe                	c.swsp	t6,64(sp)
    2f4a:	c2ba                	c.swsp	a4,68(sp)
    2f4c:	478a                	c.lwsp	a5,128(sp)
    2f4e:	00f509b3          	add	s3,a0,a5
    2f52:	42060963          	beqz	a2,3384 <riscv_nn_mat_mult_kernel_row_offset_s8_s16+0x4c4>
    2f56:	5902                	c.lwsp	s2,32(sp)
    2f58:	00062803          	lw	a6,0(a2)
    2f5c:	424c                	c.lw	a1,4(a2)
    2f5e:	0621                	c.addi	a2,8
    2f60:	42090863          	beqz	s2,3390 <riscv_nn_mat_mult_kernel_row_offset_s8_s16+0x4d0>
    2f64:	5292                	c.lwsp	t0,36(sp)
    2f66:	4fe2                	c.lwsp	t6,24(sp)
    2f68:	ca6e                	c.swsp	s11,20(sp)
    2f6a:	88ae                	c.mv	a7,a1
    2f6c:	8dea                	c.mv	s11,s10
    2f6e:	8f42                	c.mv	t5,a6
    2f70:	8d5e                	c.mv	s10,s7
    2f72:	84ce                	c.mv	s1,s3
    2f74:	842a                	c.mv	s0,a0
    2f76:	8baa                	c.mv	s7,a0
    2f78:	c636                	c.swsp	a3,12(sp)
    2f7a:	c862                	c.swsp	s8,16(sp)
    2f7c:	08c12423          	sw	a2,136(sp)
    2f80:	000fa503          	lw	a0,0(t6)
    2f84:	0002a603          	lw	a2,0(t0)
    2f88:	4018                	c.lw	a4,0(s0)
    2f8a:	833a                	c.mv	t1,a4
    2f8c:	83ba                	c.mv	t2,a4
    2f8e:	0411                	c.addi	s0,4
    2f90:	de830c7f          	wexti	s8,t1,8
    2f94:	ac9c0c7f          	sunpkd820	s8,s8
    2f98:	ac97077f          	sunpkd820	a4,a4
    2f9c:	409c                	c.lw	a5,0(s1)
    2f9e:	8e3e                	c.mv	t3,a5
    2fa0:	8ebe                	c.mv	t4,a5
    2fa2:	0491                	c.addi	s1,4
    2fa4:	de8e06ff          	wexti	a3,t3,8
    2fa8:	ac9686ff          	sunpkd820	a3,a3
    2fac:	ac9787ff          	sunpkd820	a5,a5
    2fb0:	48a7187f          	kmada	a6,a4,a0
    2fb4:	48c71f7f          	kmada	t5,a4,a2
    2fb8:	48a795ff          	kmada	a1,a5,a0
    2fbc:	48c798ff          	kmada	a7,a5,a2
    2fc0:	004f8713          	addi	a4,t6,4
    2fc4:	4318                	c.lw	a4,0(a4)
    2fc6:	0fa1                	c.addi	t6,8
    2fc8:	00428793          	addi	a5,t0,4
    2fcc:	439c                	c.lw	a5,0(a5)
    2fce:	02a1                	c.addi	t0,8
    2fd0:	48ec187f          	kmada	a6,s8,a4
    2fd4:	48fc1f7f          	kmada	t5,s8,a5
    2fd8:	48e695ff          	kmada	a1,a3,a4
    2fdc:	48f698ff          	kmada	a7,a3,a5
    2fe0:	197d                	c.addi	s2,-1
    2fe2:	f8091fe3          	bnez	s2,2f80 <riscv_nn_mat_mult_kernel_row_offset_s8_s16+0xc0>
    2fe6:	57a2                	c.lwsp	a5,40(sp)
    2fe8:	855e                	c.mv	a0,s7
    2fea:	99be                	c.add	s3,a5
    2fec:	8bea                	c.mv	s7,s10
    2fee:	953e                	c.add	a0,a5
    2ff0:	8d6e                	c.mv	s10,s11
    2ff2:	46b2                	c.lwsp	a3,12(sp)
    2ff4:	4c42                	c.lwsp	s8,16(sp)
    2ff6:	4dd2                	c.lwsp	s11,20(sp)
    2ff8:	462a                	c.lwsp	a2,136(sp)
    2ffa:	57c2                	c.lwsp	a5,48(sp)
    2ffc:	02c12703          	lw	a4,44(sp)
    3000:	4922                	c.lwsp	s2,8(sp)
    3002:	06090963          	beqz	s2,3074 <riscv_nn_mat_mult_kernel_row_offset_s8_s16+0x1b4>
    3006:	00050483          	lb	s1,0(a0)
    300a:	00071403          	lh	s0,0(a4) # 40000000 <_DATA_LMA_START+0x1fff5168>
    300e:	00079f83          	lh	t6,0(a5)
    3012:	00098283          	lb	t0,0(s3)
    3016:	c494187f          	maddr32	a6,s0,s1
    301a:	c49f9f7f          	maddr32	t5,t6,s1
    301e:	c48295ff          	maddr32	a1,t0,s0
    3022:	c5f298ff          	maddr32	a7,t0,t6
    3026:	05990563          	beq	s2,s9,3070 <riscv_nn_mat_mult_kernel_row_offset_s8_s16+0x1b0>
    302a:	00271403          	lh	s0,2(a4)
    302e:	00150483          	lb	s1,1(a0)
    3032:	00198283          	lb	t0,1(s3)
    3036:	00279f83          	lh	t6,2(a5)
    303a:	c494187f          	maddr32	a6,s0,s1
    303e:	c48295ff          	maddr32	a1,t0,s0
    3042:	4409                	c.li	s0,2
    3044:	c49f9f7f          	maddr32	t5,t6,s1
    3048:	c5f298ff          	maddr32	a7,t0,t6
    304c:	02890263          	beq	s2,s0,3070 <riscv_nn_mat_mult_kernel_row_offset_s8_s16+0x1b0>
    3050:	00250f83          	lb	t6,2(a0)
    3054:	00471703          	lh	a4,4(a4)
    3058:	00479783          	lh	a5,4(a5)
    305c:	00298283          	lb	t0,2(s3)
    3060:	c4ef987f          	maddr32	a6,t6,a4
    3064:	c4ff9f7f          	maddr32	t5,t6,a5
    3068:	c45715ff          	maddr32	a1,a4,t0
    306c:	c45798ff          	maddr32	a7,a5,t0
    3070:	47a2                	c.lwsp	a5,8(sp)
    3072:	953e                	c.add	a0,a5
    3074:	000a2f83          	lw	t6,0(s4)
    3078:	000b2283          	lw	t0,0(s6)
    307c:	f35f87ff          	maxw	a5,t6,s5
    3080:	00f81833          	sll	a6,a6,a5
    3084:	40000737          	lui	a4,0x40000
    3088:	4781                	c.li	a5,0
    308a:	8458177f          	smar64	a4,a6,t0
    308e:	41f00833          	neg	a6,t6
    3092:	f358087f          	maxw	a6,a6,s5
    3096:	010c9fb3          	sll	t6,s9,a6
    309a:	dff7077f          	wexti	a4,a4,31
    309e:	ffff8793          	addi	a5,t6,-1
    30a2:	4017df93          	srai	t6,a5,0x1
    30a6:	00072293          	slti	t0,a4,0
    30aa:	8ff9                	c.and	a5,a4
    30ac:	9f96                	c.add	t6,t0
    30ae:	00ffa7b3          	slt	a5,t6,a5
    30b2:	41075733          	sra	a4,a4,a6
    30b6:	973e                	c.add	a4,a5
    30b8:	975e                	c.add	a4,s7
    30ba:	f3a7077f          	maxw	a4,a4,s10
    30be:	f1b7077f          	minw	a4,a4,s11
    30c2:	00e68023          	sb	a4,0(a3)
    30c6:	000a2803          	lw	a6,0(s4)
    30ca:	000b2f83          	lw	t6,0(s6)
    30ce:	f35807ff          	maxw	a5,a6,s5
    30d2:	00ff1f33          	sll	t5,t5,a5
    30d6:	40000737          	lui	a4,0x40000
    30da:	4781                	c.li	a5,0
    30dc:	85ff177f          	smar64	a4,t5,t6
    30e0:	41000833          	neg	a6,a6
    30e4:	f358087f          	maxw	a6,a6,s5
    30e8:	010c9f33          	sll	t5,s9,a6
    30ec:	dff7077f          	wexti	a4,a4,31
    30f0:	ffff0793          	addi	a5,t5,-1
    30f4:	4017df13          	srai	t5,a5,0x1
    30f8:	00072f93          	slti	t6,a4,0
    30fc:	8ff9                	c.and	a5,a4
    30fe:	9f7e                	c.add	t5,t6
    3100:	00ff27b3          	slt	a5,t5,a5
    3104:	41075733          	sra	a4,a4,a6
    3108:	973e                	c.add	a4,a5
    310a:	975e                	c.add	a4,s7
    310c:	f3a7077f          	maxw	a4,a4,s10
    3110:	f1b7077f          	minw	a4,a4,s11
    3114:	00ec0023          	sb	a4,0(s8)
    3118:	004a2803          	lw	a6,4(s4)
    311c:	004b2f03          	lw	t5,4(s6)
    3120:	f35807ff          	maxw	a5,a6,s5
    3124:	00f595b3          	sll	a1,a1,a5
    3128:	40000737          	lui	a4,0x40000
    312c:	4781                	c.li	a5,0
    312e:	85e5977f          	smar64	a4,a1,t5
    3132:	410005b3          	neg	a1,a6
    3136:	f35585ff          	maxw	a1,a1,s5
    313a:	00bc9833          	sll	a6,s9,a1
    313e:	dff7077f          	wexti	a4,a4,31
    3142:	fff80793          	addi	a5,a6,-1 # 3fffffff <_DATA_LMA_START+0x1fff5167>
    3146:	00072f13          	slti	t5,a4,0
    314a:	4017d813          	srai	a6,a5,0x1
    314e:	987a                	c.add	a6,t5
    3150:	8ff9                	c.and	a5,a4
    3152:	00f827b3          	slt	a5,a6,a5
    3156:	40b75733          	sra	a4,a4,a1
    315a:	973e                	c.add	a4,a5
    315c:	975e                	c.add	a4,s7
    315e:	f3a7077f          	maxw	a4,a4,s10
    3162:	f1b7077f          	minw	a4,a4,s11
    3166:	00e680a3          	sb	a4,1(a3)
    316a:	004a2583          	lw	a1,4(s4)
    316e:	004b2f03          	lw	t5,4(s6)
    3172:	f355887f          	maxw	a6,a1,s5
    3176:	01089833          	sll	a6,a7,a6
    317a:	40000737          	lui	a4,0x40000
    317e:	4781                	c.li	a5,0
    3180:	85e8177f          	smar64	a4,a6,t5
    3184:	40b005b3          	neg	a1,a1
    3188:	f35585ff          	maxw	a1,a1,s5
    318c:	00bc9833          	sll	a6,s9,a1
    3190:	dff7077f          	wexti	a4,a4,31
    3194:	fff80793          	addi	a5,a6,-1
    3198:	4017d813          	srai	a6,a5,0x1
    319c:	00072893          	slti	a7,a4,0
    31a0:	8ff9                	c.and	a5,a4
    31a2:	9846                	c.add	a6,a7
    31a4:	00f827b3          	slt	a5,a6,a5
    31a8:	40b75733          	sra	a4,a4,a1
    31ac:	973e                	c.add	a4,a5
    31ae:	975e                	c.add	a4,s7
    31b0:	478a                	c.lwsp	a5,128(sp)
    31b2:	f3a7077f          	maxw	a4,a4,s10
    31b6:	0c09                	c.addi	s8,2
    31b8:	f1b7077f          	minw	a4,a4,s11
    31bc:	953e                	c.add	a0,a5
    31be:	47f2                	c.lwsp	a5,28(sp)
    31c0:	feec0fa3          	sb	a4,-1(s8)
    31c4:	0689                	c.addi	a3,2
    31c6:	0b21                	c.addi	s6,8
    31c8:	0a21                	c.addi	s4,8
    31ca:	d8fc11e3          	bne	s8,a5,2f4c <riscv_nn_mat_mult_kernel_row_offset_s8_s16+0x8c>
    31ce:	54d2                	c.lwsp	s1,52(sp)
    31d0:	57e2                	c.lwsp	a5,56(sp)
    31d2:	4f86                	c.lwsp	t6,64(sp)
    31d4:	4716                	c.lwsp	a4,68(sp)
    31d6:	42ca                	c.lwsp	t0,144(sp)
    31d8:	048e                	c.slli	s1,0x3
    31da:	5472                	c.lwsp	s0,60(sp)
    31dc:	499a                	c.lwsp	s3,132(sp)
    31de:	493a                	c.lwsp	s2,140(sp)
    31e0:	92be                	c.add	t0,a5
    31e2:	9726                	c.add	a4,s1
    31e4:	009f8fb3          	add	t6,t6,s1
    31e8:	00147793          	andi	a5,s0,1
    31ec:	16078863          	beqz	a5,335c <riscv_nn_mat_mult_kernel_row_offset_s8_s16+0x49c>
    31f0:	47e2                	c.lwsp	a5,24(sp)
    31f2:	00199e13          	slli	t3,s3,0x1
    31f6:	9e3e                	c.add	t3,a5
    31f8:	4681                	c.li	a3,0
    31fa:	c219                	c.beqz	a2,3200 <riscv_nn_mat_mult_kernel_row_offset_s8_s16+0x340>
    31fc:	00062683          	lw	a3,0(a2)
    3200:	478a                	c.lwsp	a5,128(sp)
    3202:	4027df13          	srai	t5,a5,0x2
    3206:	180f0d63          	beqz	t5,33a0 <riscv_nn_mat_mult_kernel_row_offset_s8_s16+0x4e0>
    320a:	45e2                	c.lwsp	a1,24(sp)
    320c:	8872                	c.mv	a6,t3
    320e:	8efa                	c.mv	t4,t5
    3210:	8336                	c.mv	t1,a3
    3212:	88aa                	c.mv	a7,a0
    3214:	4184                	c.lw	s1,0(a1)
    3216:	00082383          	lw	t2,0(a6)
    321a:	0008a783          	lw	a5,0(a7)
    321e:	8a3e                	c.mv	s4,a5
    3220:	8abe                	c.mv	s5,a5
    3222:	0891                	c.addi	a7,4
    3224:	de8a067f          	wexti	a2,s4,8
    3228:	ac96067f          	sunpkd820	a2,a2
    322c:	ac9787ff          	sunpkd820	a5,a5
    3230:	489796ff          	kmada	a3,a5,s1
    3234:	4877937f          	kmada	t1,a5,t2
    3238:	00458393          	addi	t2,a1,4
    323c:	0003a383          	lw	t2,0(t2)
    3240:	05a1                	c.addi	a1,8
    3242:	00480793          	addi	a5,a6,4
    3246:	439c                	c.lw	a5,0(a5)
    3248:	0821                	c.addi	a6,8
    324a:	487616ff          	kmada	a3,a2,t2
    324e:	48f6137f          	kmada	t1,a2,a5
    3252:	1efd                	c.addi	t4,-1
    3254:	fc0e90e3          	bnez	t4,3214 <riscv_nn_mat_mult_kernel_row_offset_s8_s16+0x354>
    3258:	4662                	c.lwsp	a2,24(sp)
    325a:	003f1793          	slli	a5,t5,0x3
    325e:	0f0a                	c.slli	t5,0x2
    3260:	9e3e                	c.add	t3,a5
    3262:	957a                	c.add	a0,t5
    3264:	97b2                	c.add	a5,a2
    3266:	cc3e                	c.swsp	a5,24(sp)
    3268:	478a                	c.lwsp	a5,128(sp)
    326a:	8b8d                	c.andi	a5,3
    326c:	c7b1                	c.beqz	a5,32b8 <riscv_nn_mat_mult_kernel_row_offset_s8_s16+0x3f8>
    326e:	44e2                	c.lwsp	s1,24(sp)
    3270:	00050603          	lb	a2,0(a0)
    3274:	00049883          	lh	a7,0(s1)
    3278:	000e1803          	lh	a6,0(t3)
    327c:	4585                	c.li	a1,1
    327e:	c4c896ff          	maddr32	a3,a7,a2
    3282:	c4c8137f          	maddr32	t1,a6,a2
    3286:	02b78963          	beq	a5,a1,32b8 <riscv_nn_mat_mult_kernel_row_offset_s8_s16+0x3f8>
    328a:	00150603          	lb	a2,1(a0)
    328e:	00249883          	lh	a7,2(s1)
    3292:	002e1803          	lh	a6,2(t3)
    3296:	4589                	c.li	a1,2
    3298:	c4c896ff          	maddr32	a3,a7,a2
    329c:	c4c8137f          	maddr32	t1,a6,a2
    32a0:	00b78c63          	beq	a5,a1,32b8 <riscv_nn_mat_mult_kernel_row_offset_s8_s16+0x3f8>
    32a4:	00250783          	lb	a5,2(a0)
    32a8:	00449583          	lh	a1,4(s1)
    32ac:	004e1603          	lh	a2,4(t3)
    32b0:	c4f596ff          	maddr32	a3,a1,a5
    32b4:	c4f6137f          	maddr32	t1,a2,a5
    32b8:	000fae83          	lw	t4,0(t6)
    32bc:	431c                	c.lw	a5,0(a4)
    32be:	4e01                	c.li	t3,0
    32c0:	f3ce867f          	maxw	a2,t4,t3
    32c4:	40000537          	lui	a0,0x40000
    32c8:	4581                	c.li	a1,0
    32ca:	00c696b3          	sll	a3,a3,a2
    32ce:	882a                	c.mv	a6,a0
    32d0:	88ae                	c.mv	a7,a1
    32d2:	84f6987f          	smar64	a6,a3,a5
    32d6:	41d00eb3          	neg	t4,t4
    32da:	4685                	c.li	a3,1
    32dc:	f3ce8eff          	maxw	t4,t4,t3
    32e0:	01d69633          	sll	a2,a3,t4
    32e4:	dff807ff          	wexti	a5,a6,31
    32e8:	167d                	c.addi	a2,-1
    32ea:	40165813          	srai	a6,a2,0x1
    32ee:	0007a893          	slti	a7,a5,0
    32f2:	8e7d                	c.and	a2,a5
    32f4:	9846                	c.add	a6,a7
    32f6:	00c82633          	slt	a2,a6,a2
    32fa:	41d7d7b3          	sra	a5,a5,t4
    32fe:	97b2                	c.add	a5,a2
    3300:	97de                	c.add	a5,s7
    3302:	f2fd07ff          	maxw	a5,s10,a5
    3306:	f0fd87ff          	minw	a5,s11,a5
    330a:	00f28023          	sb	a5,0(t0)
    330e:	000fa783          	lw	a5,0(t6)
    3312:	4318                	c.lw	a4,0(a4)
    3314:	f3c7867f          	maxw	a2,a5,t3
    3318:	00c31333          	sll	t1,t1,a2
    331c:	84e3157f          	smar64	a0,t1,a4
    3320:	40f00733          	neg	a4,a5
    3324:	f3c7077f          	maxw	a4,a4,t3
    3328:	00e697b3          	sll	a5,a3,a4
    332c:	dff5057f          	wexti	a0,a0,31
    3330:	17fd                	c.addi	a5,-1
    3332:	4017d693          	srai	a3,a5,0x1
    3336:	00052613          	slti	a2,a0,0
    333a:	8fe9                	c.and	a5,a0
    333c:	96b2                	c.add	a3,a2
    333e:	00f6a7b3          	slt	a5,a3,a5
    3342:	40e55733          	sra	a4,a0,a4
    3346:	973e                	c.add	a4,a5
    3348:	9bba                	c.add	s7,a4
    334a:	47f2                	c.lwsp	a5,28(sp)
    334c:	f37d0d7f          	maxw	s10,s10,s7
    3350:	f1ad8dff          	minw	s11,s11,s10
    3354:	00128293          	addi	t0,t0,1
    3358:	01b78023          	sb	s11,0(a5)
    335c:	0906                	c.slli	s2,0x1
    335e:	40890933          	sub	s2,s2,s0
    3362:	5476                	c.lwsp	s0,124(sp)
    3364:	54e6                	c.lwsp	s1,120(sp)
    3366:	59c6                	c.lwsp	s3,112(sp)
    3368:	5a36                	c.lwsp	s4,108(sp)
    336a:	5aa6                	c.lwsp	s5,104(sp)
    336c:	5b16                	c.lwsp	s6,100(sp)
    336e:	5b86                	c.lwsp	s7,96(sp)
    3370:	4c76                	c.lwsp	s8,92(sp)
    3372:	4ce6                	c.lwsp	s9,88(sp)
    3374:	4d56                	c.lwsp	s10,84(sp)
    3376:	4dc6                	c.lwsp	s11,80(sp)
    3378:	01228533          	add	a0,t0,s2
    337c:	5956                	c.lwsp	s2,116(sp)
    337e:	6109                	c.addi16sp	sp,128
    3380:	00008067          	ret
    3384:	5902                	c.lwsp	s2,32(sp)
    3386:	4581                	c.li	a1,0
    3388:	00000813          	li	a6,0
    338c:	bc091ce3          	bnez	s2,2f64 <riscv_nn_mat_mult_kernel_row_offset_s8_s16+0xa4>
    3390:	5792                	c.lwsp	a5,36(sp)
    3392:	4762                	c.lwsp	a4,24(sp)
    3394:	88ae                	c.mv	a7,a1
    3396:	8f42                	c.mv	t5,a6
    3398:	c69ff06f          	j	3000 <riscv_nn_mat_mult_kernel_row_offset_s8_s16+0x140>
    339c:	ce62                	c.swsp	s8,28(sp)
    339e:	b5a9                	c.j	31e8 <riscv_nn_mat_mult_kernel_row_offset_s8_s16+0x328>
    33a0:	8336                	c.mv	t1,a3
    33a2:	b5d9                	c.j	3268 <riscv_nn_mat_mult_kernel_row_offset_s8_s16+0x3a8>

000033a4 <riscv_convolve_1x1_s8>:
    33a4:	7119                	c.addi16sp	sp,-128
    33a6:	4988                	c.lw	a0,16(a1)
    33a8:	d6ce                	c.swsp	s3,108(sp)
    33aa:	de86                	c.swsp	ra,124(sp)
    33ac:	dca2                	c.swsp	s0,120(sp)
    33ae:	daa6                	c.swsp	s1,116(sp)
    33b0:	d8ca                	c.swsp	s2,112(sp)
    33b2:	d4d2                	c.swsp	s4,104(sp)
    33b4:	d2d6                	c.swsp	s5,100(sp)
    33b6:	d0da                	c.swsp	s6,96(sp)
    33b8:	cede                	c.swsp	s7,92(sp)
    33ba:	cce2                	c.swsp	s8,88(sp)
    33bc:	cae6                	c.swsp	s9,84(sp)
    33be:	c8ea                	c.swsp	s10,80(sp)
    33c0:	c6ee                	c.swsp	s11,76(sp)
    33c2:	479a                	c.lwsp	a5,132(sp)
    33c4:	49aa                	c.lwsp	s3,136(sp)
    33c6:	0e051f63          	bnez	a0,34c4 <riscv_convolve_1x1_s8+0x120>
    33ca:	49c8                	c.lw	a0,20(a1)
    33cc:	0e051c63          	bnez	a0,34c4 <riscv_convolve_1x1_s8+0x120>
    33d0:	4688                	c.lw	a0,8(a3)
    33d2:	00c5ac83          	lw	s9,12(a1)
    33d6:	0087ad83          	lw	s11,8(a5)
    33da:	03950cb3          	mul	s9,a0,s9
    33de:	00c7aa83          	lw	s5,12(a5)
    33e2:	00c6ad03          	lw	s10,12(a3)
    33e6:	0006ae03          	lw	t3,0(a3)
    33ea:	03ac8cb3          	mul	s9,s9,s10
    33ee:	035d8c33          	mul	s8,s11,s5
    33f2:	0085ab83          	lw	s7,8(a1)
    33f6:	0047ab03          	lw	s6,4(a5)
    33fa:	0dc05363          	blez	t3,34c0 <riscv_convolve_1x1_s8+0x11c>
    33fe:	8a32                	c.mv	s4,a2
    3400:	03ab8bb3          	mul	s7,s7,s10
    3404:	87d2                	c.mv	a5,s4
    3406:	842e                	c.mv	s0,a1
    3408:	8a5a                	c.mv	s4,s6
    340a:	4581                	c.li	a1,0
    340c:	8b56                	c.mv	s6,s5
    340e:	4601                	c.li	a2,0
    3410:	8abe                	c.mv	s5,a5
    3412:	d442                	c.swsp	a6,40(sp)
    3414:	03c12e23          	sw	t3,60(sp)
    3418:	02a60533          	mul	a0,a2,a0
    341c:	0046a803          	lw	a6,4(a3)
    3420:	893a                	c.mv	s2,a4
    3422:	c505197f          	maddr32	s2,a0,a6
    3426:	09405563          	blez	s4,34b0 <riscv_convolve_1x1_s8+0x10c>
    342a:	c54e                	c.swsp	s3,136(sp)
    342c:	4481                	c.li	s1,0
    342e:	89ca                	c.mv	s3,s2
    3430:	d62e                	c.swsp	a1,44(sp)
    3432:	895a                	c.mv	s2,s6
    3434:	d832                	c.swsp	a2,48(sp)
    3436:	4b2a                	c.lwsp	s6,136(sp)
    3438:	da36                	c.swsp	a3,52(sp)
    343a:	dc3a                	c.swsp	a4,56(sp)
    343c:	00c0006f          	j	3448 <riscv_convolve_1x1_s8+0xa4>
    3440:	99e6                	c.add	s3,s9
    3442:	9b62                	c.add	s6,s8
    3444:	069a0063          	beq	s4,s1,34a4 <riscv_convolve_1x1_s8+0x100>
    3448:	02442283          	lw	t0,36(s0)
    344c:	02042f83          	lw	t6,32(s0)
    3450:	00442f03          	lw	t5,4(s0)
    3454:	00042e83          	lw	t4,0(s0)
    3458:	004aa783          	lw	a5,4(s5)
    345c:	000aa703          	lw	a4,0(s5)
    3460:	460a                	c.lwsp	a2,128(sp)
    3462:	55a2                	c.lwsp	a1,40(sp)
    3464:	86da                	c.mv	a3,s6
    3466:	854e                	c.mv	a0,s3
    3468:	88ca                	c.mv	a7,s2
    346a:	886e                	c.mv	a6,s11
    346c:	cc5e                	c.swsp	s7,24(sp)
    346e:	ca4a                	c.swsp	s2,20(sp)
    3470:	c816                	c.swsp	t0,16(sp)
    3472:	c67e                	c.swsp	t6,12(sp)
    3474:	c47a                	c.swsp	t5,8(sp)
    3476:	c276                	c.swsp	t4,4(sp)
    3478:	c06a                	c.swsp	s10,0(sp)
    347a:	0485                	c.addi	s1,1
    347c:	789010ef          	jal	ra,5404 <riscv_nn_mat_mult_nt_t_s8>
    3480:	fc0500e3          	beqz	a0,3440 <riscv_convolve_1x1_s8+0x9c>
    3484:	50f6                	c.lwsp	ra,124(sp)
    3486:	5466                	c.lwsp	s0,120(sp)
    3488:	54d6                	c.lwsp	s1,116(sp)
    348a:	5946                	c.lwsp	s2,112(sp)
    348c:	59b6                	c.lwsp	s3,108(sp)
    348e:	5a26                	c.lwsp	s4,104(sp)
    3490:	5a96                	c.lwsp	s5,100(sp)
    3492:	5b06                	c.lwsp	s6,96(sp)
    3494:	4bf6                	c.lwsp	s7,92(sp)
    3496:	4c66                	c.lwsp	s8,88(sp)
    3498:	4cd6                	c.lwsp	s9,84(sp)
    349a:	4d46                	c.lwsp	s10,80(sp)
    349c:	4db6                	c.lwsp	s11,76(sp)
    349e:	6109                	c.addi16sp	sp,128
    34a0:	00008067          	ret
    34a4:	55b2                	c.lwsp	a1,44(sp)
    34a6:	5642                	c.lwsp	a2,48(sp)
    34a8:	56d2                	c.lwsp	a3,52(sp)
    34aa:	5762                	c.lwsp	a4,56(sp)
    34ac:	89da                	c.mv	s3,s6
    34ae:	8b4a                	c.mv	s6,s2
    34b0:	57f2                	c.lwsp	a5,60(sp)
    34b2:	0585                	c.addi	a1,1
    34b4:	966a                	c.add	a2,s10
    34b6:	00b78563          	beq	a5,a1,34c0 <riscv_convolve_1x1_s8+0x11c>
    34ba:	4688                	c.lw	a0,8(a3)
    34bc:	f5dff06f          	j	3418 <riscv_convolve_1x1_s8+0x74>
    34c0:	4501                	c.li	a0,0
    34c2:	b7c9                	c.j	3484 <riscv_convolve_1x1_s8+0xe0>
    34c4:	557d                	c.li	a0,-1
    34c6:	bf7d                	c.j	3484 <riscv_convolve_1x1_s8+0xe0>

000034c8 <riscv_depthwise_conv_wrapper_s8>:
    34c8:	1101                	c.addi	sp,-32
    34ca:	0085ae03          	lw	t3,8(a1)
    34ce:	ce22                	c.swsp	s0,28(sp)
    34d0:	cc26                	c.swsp	s1,24(sp)
    34d2:	ca4a                	c.swsp	s2,20(sp)
    34d4:	c84e                	c.swsp	s3,16(sp)
    34d6:	c652                	c.swsp	s4,12(sp)
    34d8:	c456                	c.swsp	s5,8(sp)
    34da:	4f85                	c.li	t6,1
    34dc:	c25a                	c.swsp	s6,4(sp)
    34de:	5282                	c.lwsp	t0,32(sp)
    34e0:	5392                	c.lwsp	t2,36(sp)
    34e2:	5422                	c.lwsp	s0,40(sp)
    34e4:	832e                	c.mv	t1,a1
    34e6:	84aa                	c.mv	s1,a0
    34e8:	8932                	c.mv	s2,a2
    34ea:	8eb6                	c.mv	t4,a3
    34ec:	89ba                	c.mv	s3,a4
    34ee:	8f3e                	c.mv	t5,a5
    34f0:	8a42                	c.mv	s4,a6
    34f2:	8ac6                	c.mv	s5,a7
    34f4:	01fe1663          	bne	t3,t6,3500 <riscv_depthwise_conv_wrapper_s8+0x38>
    34f8:	0006af83          	lw	t6,0(a3)
    34fc:	03cf8863          	beq	t6,t3,352c <riscv_depthwise_conv_wrapper_s8+0x64>
    3500:	d422                	c.swsp	s0,40(sp)
    3502:	4472                	c.lwsp	s0,28(sp)
    3504:	4b12                	c.lwsp	s6,4(sp)
    3506:	d21e                	c.swsp	t2,36(sp)
    3508:	d016                	c.swsp	t0,32(sp)
    350a:	88d6                	c.mv	a7,s5
    350c:	8852                	c.mv	a6,s4
    350e:	4aa2                	c.lwsp	s5,8(sp)
    3510:	4a32                	c.lwsp	s4,12(sp)
    3512:	874e                	c.mv	a4,s3
    3514:	864a                	c.mv	a2,s2
    3516:	49c2                	c.lwsp	s3,16(sp)
    3518:	4952                	c.lwsp	s2,20(sp)
    351a:	8526                	c.mv	a0,s1
    351c:	44e2                	c.lwsp	s1,24(sp)
    351e:	87fa                	c.mv	a5,t5
    3520:	86f6                	c.mv	a3,t4
    3522:	859a                	c.mv	a1,t1
    3524:	02010113          	addi	sp,sp,32
    3528:	7a10206f          	j	64c8 <riscv_depthwise_conv_s8>
    352c:	01c5ae03          	lw	t3,28(a1)
    3530:	fdfe18e3          	bne	t3,t6,3500 <riscv_depthwise_conv_wrapper_s8+0x38>
    3534:	0205af83          	lw	t6,32(a1)
    3538:	fdcf94e3          	bne	t6,t3,3500 <riscv_depthwise_conv_wrapper_s8+0x38>
    353c:	0087ae03          	lw	t3,8(a5)
    3540:	00300b13          	li	s6,3
    3544:	016e1663          	bne	t3,s6,3550 <riscv_depthwise_conv_wrapper_s8+0x88>
    3548:	0047ab03          	lw	s6,4(a5)
    354c:	03cb0863          	beq	s6,t3,357c <riscv_depthwise_conv_wrapper_s8+0xb4>
    3550:	d422                	c.swsp	s0,40(sp)
    3552:	4472                	c.lwsp	s0,28(sp)
    3554:	4b12                	c.lwsp	s6,4(sp)
    3556:	d21e                	c.swsp	t2,36(sp)
    3558:	d016                	c.swsp	t0,32(sp)
    355a:	88d6                	c.mv	a7,s5
    355c:	8852                	c.mv	a6,s4
    355e:	4aa2                	c.lwsp	s5,8(sp)
    3560:	4a32                	c.lwsp	s4,12(sp)
    3562:	874e                	c.mv	a4,s3
    3564:	864a                	c.mv	a2,s2
    3566:	49c2                	c.lwsp	s3,16(sp)
    3568:	4952                	c.lwsp	s2,20(sp)
    356a:	8526                	c.mv	a0,s1
    356c:	44e2                	c.lwsp	s1,24(sp)
    356e:	87fa                	c.mv	a5,t5
    3570:	86f6                	c.mv	a3,t4
    3572:	859a                	c.mv	a1,t1
    3574:	02010113          	addi	sp,sp,32
    3578:	6f80306f          	j	6c70 <riscv_depthwise_conv_s8_opt>
    357c:	0185ae03          	lw	t3,24(a1)
    3580:	fdcfc8e3          	blt	t6,t3,3550 <riscv_depthwise_conv_wrapper_s8+0x88>
    3584:	0145ae03          	lw	t3,20(a1)
    3588:	fdcfc4e3          	blt	t6,t3,3550 <riscv_depthwise_conv_wrapper_s8+0x88>
    358c:	4472                	c.lwsp	s0,28(sp)
    358e:	44e2                	c.lwsp	s1,24(sp)
    3590:	4952                	c.lwsp	s2,20(sp)
    3592:	49c2                	c.lwsp	s3,16(sp)
    3594:	4a32                	c.lwsp	s4,12(sp)
    3596:	4aa2                	c.lwsp	s5,8(sp)
    3598:	4b12                	c.lwsp	s6,4(sp)
    359a:	6105                	c.addi16sp	sp,32
    359c:	5b50306f          	j	7350 <riscv_depthwise_conv_3x3_s8>

000035a0 <riscv_convolve_1_x_n_s8>:
    35a0:	1141                	c.addi	sp,-16
    35a2:	0046a303          	lw	t1,4(a3)
    35a6:	4f05                	c.li	t5,1
    35a8:	c622                	c.swsp	s0,12(sp)
    35aa:	03e31b63          	bne	t1,t5,35e0 <riscv_convolve_1_x_n_s8+0x40>
    35ae:	0185af03          	lw	t5,24(a1)
    35b2:	026f1763          	bne	t5,t1,35e0 <riscv_convolve_1_x_n_s8+0x40>
    35b6:	00052303          	lw	t1,0(a0) # 40000000 <_DATA_LMA_START+0x1fff5168>
    35ba:	02030363          	beqz	t1,35e0 <riscv_convolve_1_x_n_s8+0x40>
    35be:	0085a303          	lw	t1,8(a1)
    35c2:	00030f63          	beqz	t1,35e0 <riscv_convolve_1_x_n_s8+0x40>
    35c6:	00c6ae03          	lw	t3,12(a3)
    35ca:	03c30333          	mul	t1,t1,t3
    35ce:	00337313          	andi	t1,t1,3
    35d2:	00031763          	bnez	t1,35e0 <riscv_convolve_1_x_n_s8+0x40>
    35d6:	4432                	c.lwsp	s0,12(sp)
    35d8:	01010113          	addi	sp,sp,16
    35dc:	d25fe06f          	j	2300 <riscv_convolve_s8>
    35e0:	4432                	c.lwsp	s0,12(sp)
    35e2:	557d                	c.li	a0,-1
    35e4:	0141                	c.addi	sp,16
    35e6:	8082                	c.jr	ra

000035e8 <riscv_softmax_s8>:
    35e8:	88c2                	c.mv	a7,a6
    35ea:	4801                	c.li	a6,0
    35ec:	a011                	c.j	35f0 <riscv_nn_softmax_common_s8>
	...

000035f0 <riscv_nn_softmax_common_s8>:
    35f0:	d8010113          	addi	sp,sp,-640
    35f4:	26812e23          	sw	s0,636(sp)
    35f8:	26912c23          	sw	s1,632(sp)
    35fc:	27212a23          	sw	s2,628(sp)
    3600:	27312823          	sw	s3,624(sp)
    3604:	27412623          	sw	s4,620(sp)
    3608:	27512423          	sw	s5,616(sp)
    360c:	27612223          	sw	s6,612(sp)
    3610:	27712023          	sw	s7,608(sp)
    3614:	25812e23          	sw	s8,604(sp)
    3618:	25912c23          	sw	s9,600(sp)
    361c:	25a12a23          	sw	s10,596(sp)
    3620:	25b12823          	sw	s11,592(sp)
    3624:	1eb12c23          	sw	a1,504(sp)
    3628:	c636                	c.swsp	a3,12(sp)
    362a:	da3a                	c.swsp	a4,52(sp)
    362c:	1f012e23          	sw	a6,508(sp)
    3630:	83be                	c.mv	t2,a5
    3632:	00b04463          	bgtz	a1,363a <riscv_nn_softmax_common_s8+0x4a>
    3636:	3e20106f          	j	4a18 <riscv_nn_softmax_common_s8+0x1428>
    363a:	00161793          	slli	a5,a2,0x1
    363e:	20f12023          	sw	a5,512(sp)
    3642:	97c6                	c.add	a5,a7
    3644:	c1be                	c.swsp	a5,192(sp)
    3646:	ffe60793          	addi	a5,a2,-2
    364a:	20f12223          	sw	a5,516(sp)
    364e:	800007b7          	lui	a5,0x80000
    3652:	fff78d93          	addi	s11,a5,-1 # 7fffffff <_DATA_LMA_START+0x5fff5167>
    3656:	67a1                	c.lui	a5,0x8
    3658:	00c50cb3          	add	s9,a0,a2
    365c:	17fd                	c.addi	a5,-1
    365e:	8faa                	c.mv	t6,a0
    3660:	fff54993          	not	s3,a0
    3664:	20f12e23          	sw	a5,540(sp)
    3668:	8432                	c.mv	s0,a2
    366a:	4785                	c.li	a5,1
    366c:	d866                	c.swsp	s9,48(sp)
    366e:	12012623          	sw	zero,300(sp)
    3672:	dfc6                	c.swsp	a7,252(sp)
    3674:	8f1e                	c.mv	t5,t2
    3676:	8ac6                	c.mv	s5,a7
    3678:	000f8383          	lb	t2,0(t6)
    367c:	82ce                	c.mv	t0,s3
    367e:	8a66                	c.mv	s4,s9
    3680:	2e87dae3          	bge	a5,s0,4174 <riscv_nn_softmax_common_s8+0xb84>
    3684:	20412683          	lw	a3,516(sp)
    3688:	4725                	c.li	a4,9
    368a:	fff40613          	addi	a2,s0,-1
    368e:	0032f793          	andi	a5,t0,3
    3692:	00d76463          	bltu	a4,a3,369a <riscv_nn_softmax_common_s8+0xaa>
    3696:	5370106f          	j	53cc <riscv_nn_softmax_common_s8+0x1ddc>
    369a:	4585                	c.li	a1,1
    369c:	c795                	c.beqz	a5,36c8 <riscv_nn_softmax_common_s8+0xd8>
    369e:	001f8683          	lb	a3,1(t6)
    36a2:	0022f713          	andi	a4,t0,2
    36a6:	4589                	c.li	a1,2
    36a8:	f27683ff          	maxw	t2,a3,t2
    36ac:	cf11                	c.beqz	a4,36c8 <riscv_nn_softmax_common_s8+0xd8>
    36ae:	002f8703          	lb	a4,2(t6)
    36b2:	458d                	c.li	a1,3
    36b4:	f27703ff          	maxw	t2,a4,t2
    36b8:	00b79863          	bne	a5,a1,36c8 <riscv_nn_softmax_common_s8+0xd8>
    36bc:	003f8703          	lb	a4,3(t6)
    36c0:	00400593          	li	a1,4
    36c4:	f27703ff          	maxw	t2,a4,t2
    36c8:	0ff3f713          	andi	a4,t2,255
    36cc:	8e1d                	c.sub	a2,a5
    36ce:	ac13877f          	insb	a4,t2,1
    36d2:	0785                	c.addi	a5,1
    36d4:	ac23877f          	insb	a4,t2,2
    36d8:	97fe                	c.add	a5,t6
    36da:	ffc67513          	andi	a0,a2,-4
    36de:	ac33877f          	insb	a4,t2,3
    36e2:	953e                	c.add	a0,a5
    36e4:	4394                	c.lw	a3,0(a5)
    36e6:	0791                	c.addi	a5,4
    36e8:	8ad7077f          	smax8	a4,a4,a3
    36ec:	fea79ce3          	bne	a5,a0,36e4 <riscv_nn_softmax_common_s8+0xf4>
    36f0:	01071693          	slli	a3,a4,0x10
    36f4:	01871513          	slli	a0,a4,0x18
    36f8:	86c1                	c.srai	a3,0x10
    36fa:	00871793          	slli	a5,a4,0x8
    36fe:	8561                	c.srai	a0,0x18
    3700:	86a1                	c.srai	a3,0x8
    3702:	87e1                	c.srai	a5,0x18
    3704:	f2d506ff          	maxw	a3,a0,a3
    3708:	f2f686ff          	maxw	a3,a3,a5
    370c:	8761                	c.srai	a4,0x18
    370e:	ffc67793          	andi	a5,a2,-4
    3712:	8a0d                	c.andi	a2,3
    3714:	97ae                	c.add	a5,a1
    3716:	f2e683ff          	maxw	t2,a3,a4
    371a:	ca5d                	c.beqz	a2,37d0 <riscv_nn_softmax_common_s8+0x1e0>
    371c:	00ff8733          	add	a4,t6,a5
    3720:	00070683          	lb	a3,0(a4) # 40000000 <_DATA_LMA_START+0x1fff5168>
    3724:	00178713          	addi	a4,a5,1 # 8001 <riscv_depthwise_conv_3x3_s8+0xcb1>
    3728:	f27683ff          	maxw	t2,a3,t2
    372c:	0a875263          	bge	a4,s0,37d0 <riscv_nn_softmax_common_s8+0x1e0>
    3730:	977e                	c.add	a4,t6
    3732:	00070683          	lb	a3,0(a4)
    3736:	00278713          	addi	a4,a5,2
    373a:	f27686ff          	maxw	a3,a3,t2
    373e:	01869393          	slli	t2,a3,0x18
    3742:	4183d393          	srai	t2,t2,0x18
    3746:	08875563          	bge	a4,s0,37d0 <riscv_nn_softmax_common_s8+0x1e0>
    374a:	977e                	c.add	a4,t6
    374c:	00070683          	lb	a3,0(a4)
    3750:	00378713          	addi	a4,a5,3
    3754:	f27683ff          	maxw	t2,a3,t2
    3758:	06875c63          	bge	a4,s0,37d0 <riscv_nn_softmax_common_s8+0x1e0>
    375c:	977e                	c.add	a4,t6
    375e:	00070683          	lb	a3,0(a4)
    3762:	00478713          	addi	a4,a5,4
    3766:	f27683ff          	maxw	t2,a3,t2
    376a:	06875363          	bge	a4,s0,37d0 <riscv_nn_softmax_common_s8+0x1e0>
    376e:	977e                	c.add	a4,t6
    3770:	00070683          	lb	a3,0(a4)
    3774:	00578713          	addi	a4,a5,5
    3778:	f27683ff          	maxw	t2,a3,t2
    377c:	04875a63          	bge	a4,s0,37d0 <riscv_nn_softmax_common_s8+0x1e0>
    3780:	977e                	c.add	a4,t6
    3782:	00070683          	lb	a3,0(a4)
    3786:	00678713          	addi	a4,a5,6
    378a:	f27683ff          	maxw	t2,a3,t2
    378e:	04875163          	bge	a4,s0,37d0 <riscv_nn_softmax_common_s8+0x1e0>
    3792:	977e                	c.add	a4,t6
    3794:	00070683          	lb	a3,0(a4)
    3798:	00778713          	addi	a4,a5,7
    379c:	f27683ff          	maxw	t2,a3,t2
    37a0:	02875863          	bge	a4,s0,37d0 <riscv_nn_softmax_common_s8+0x1e0>
    37a4:	977e                	c.add	a4,t6
    37a6:	00070683          	lb	a3,0(a4)
    37aa:	00878713          	addi	a4,a5,8
    37ae:	f27683ff          	maxw	t2,a3,t2
    37b2:	00875f63          	bge	a4,s0,37d0 <riscv_nn_softmax_common_s8+0x1e0>
    37b6:	977e                	c.add	a4,t6
    37b8:	00070703          	lb	a4,0(a4)
    37bc:	07a5                	c.addi	a5,9
    37be:	f27703ff          	maxw	t2,a4,t2
    37c2:	0087d763          	bge	a5,s0,37d0 <riscv_nn_softmax_common_s8+0x1e0>
    37c6:	97fe                	c.add	a5,t6
    37c8:	00078783          	lb	a5,0(a5)
    37cc:	f27783ff          	maxw	t2,a5,t2
    37d0:	47b2                	c.lwsp	a5,12(sp)
    37d2:	80000737          	lui	a4,0x80000
    37d6:	68e783e3          	beq	a5,a4,465c <riscv_nn_softmax_common_s8+0x106c>
    37da:	63afc4b7          	lui	s1,0x63afc
    37de:	e7b48493          	addi	s1,s1,-389 # 63afbe7b <_DATA_LMA_START+0x43af0fe3>
    37e2:	1152bb37          	lui	s6,0x1152b
    37e6:	02583bb7          	lui	s7,0x2583
    37ea:	000b0cb7          	lui	s9,0xb0
    37ee:	c3d6                	c.swsp	s5,196(sp)
    37f0:	12812423          	sw	s0,296(sp)
    37f4:	15412023          	sw	s4,320(sp)
    37f8:	dc26                	c.swsp	s1,56(sp)
    37fa:	15812a03          	lw	s4,344(sp)
    37fe:	15c12a83          	lw	s5,348(sp)
    3802:	15012403          	lw	s0,336(sp)
    3806:	15412483          	lw	s1,340(sp)
    380a:	837e                	c.mv	t1,t6
    380c:	4c01                	c.li	s8,0
    380e:	10000eb7          	lui	t4,0x10000
    3812:	aa4b0b13          	addi	s6,s6,-1372 # 1152aaa4 <FLASH_SIZE+0x1142aaa4>
    3816:	ab7b8b93          	addi	s7,s7,-1353 # 2582ab7 <FLASH_SIZE+0x2482ab7>
    381a:	e11c8c93          	addi	s9,s9,-495 # afe11 <_STACK_TOP+0xfe11>
    381e:	0f200d13          	li	s10,242
    3822:	dd16                	c.swsp	t0,184(sp)
    3824:	0ff12c23          	sw	t6,248(sp)
    3828:	00030683          	lb	a3,0(t1)
    382c:	407686b3          	sub	a3,a3,t2
    3830:	2be6c663          	blt	a3,t5,3adc <riscv_nn_softmax_common_s8+0x4ec>
    3834:	57d2                	c.lwsp	a5,52(sp)
    3836:	c0000737          	lui	a4,0xc0000
    383a:	00f696b3          	sll	a3,a3,a5
    383e:	47b2                	c.lwsp	a5,12(sp)
    3840:	0705                	c.addi	a4,1
    3842:	00d7c633          	xor	a2,a5,a3
    3846:	57fd                	c.li	a5,-1
    3848:	00064663          	bltz	a2,3854 <riscv_nn_softmax_common_s8+0x264>
    384c:	40000737          	lui	a4,0x40000
    3850:	00000793          	li	a5,0
    3854:	4632                	c.lwsp	a2,12(sp)
    3856:	4481                	c.li	s1,0
    3858:	4a81                	c.li	s5,0
    385a:	84c6977f          	smar64	a4,a3,a2
    385e:	56fd                	c.li	a3,-1
    3860:	ca36                	c.swsp	a3,20(sp)
    3862:	41f7d693          	srai	a3,a5,0x1f
    3866:	01b6f433          	and	s0,a3,s11
    386a:	c0e4177f          	add64	a4,s0,a4
    386e:	dff706ff          	wexti	a3,a4,31
    3872:	010007b7          	lui	a5,0x1000
    3876:	fff78713          	addi	a4,a5,-1 # ffffff <FLASH_SIZE+0xefffff>
    387a:	00d77533          	and	a0,a4,a3
    387e:	c0000637          	lui	a2,0xc0000
    3882:	0605                	c.addi	a2,1
    3884:	8d1d                	c.sub	a0,a5
    3886:	c832                	c.swsp	a2,16(sp)
    3888:	00551613          	slli	a2,a0,0x5
    388c:	9676                	c.add	a2,t4
    388e:	40000737          	lui	a4,0x40000
    3892:	4781                	c.li	a5,0
    3894:	84c6177f          	smar64	a4,a2,a2
    3898:	40000937          	lui	s2,0x40000
    389c:	41f7d593          	srai	a1,a5,0x1f
    38a0:	01b5fa33          	and	s4,a1,s11
    38a4:	c0ea177f          	add64	a4,s4,a4
    38a8:	dff705ff          	wexti	a1,a4,31
    38ac:	41f7de13          	srai	t3,a5,0x1f
    38b0:	02be08b3          	mul	a7,t3,a1
    38b4:	f0b5977f          	mulr64	a4,a1,a1
    38b8:	4981                	c.li	s3,0
    38ba:	0886                	c.slli	a7,0x1
    38bc:	97c6                	c.add	a5,a7
    38be:	c127177f          	add64	a4,a4,s2
    38c2:	41f7d893          	srai	a7,a5,0x1f
    38c6:	01b8f8b3          	and	a7,a7,s11
    38ca:	cc46                	c.swsp	a7,24(sp)
    38cc:	ce02                	c.swsp	zero,28(sp)
    38ce:	4962                	c.lwsp	s2,24(sp)
    38d0:	49f2                	c.lwsp	s3,28(sp)
    38d2:	03c60e33          	mul	t3,a2,t3
    38d6:	41f65813          	srai	a6,a2,0x1f
    38da:	c0e9177f          	add64	a4,s2,a4
    38de:	dff7077f          	wexti	a4,a4,31
    38e2:	c4b81e7f          	maddr32	t3,a6,a1
    38e6:	00072813          	slti	a6,a4,0
    38ea:	00377293          	andi	t0,a4,3
    38ee:	0805                	c.addi	a6,1
    38f0:	40275893          	srai	a7,a4,0x2
    38f4:	005822b3          	slt	t0,a6,t0
    38f8:	f0b6177f          	mulr64	a4,a2,a1
    38fc:	00b64fb3          	xor	t6,a2,a1
    3900:	8836                	c.mv	a6,a3
    3902:	97f2                	c.add	a5,t3
    3904:	9896                	c.add	a7,t0
    3906:	000fc763          	bltz	t6,3914 <riscv_nn_softmax_common_s8+0x324>
    390a:	40000937          	lui	s2,0x40000
    390e:	4981                	c.li	s3,0
    3910:	c84a                	c.swsp	s2,16(sp)
    3912:	ca4e                	c.swsp	s3,20(sp)
    3914:	4942                	c.lwsp	s2,16(sp)
    3916:	49d2                	c.lwsp	s3,20(sp)
    3918:	d202                	c.swsp	zero,36(sp)
    391a:	c127177f          	add64	a4,a4,s2
    391e:	41f7de13          	srai	t3,a5,0x1f
    3922:	01be7e33          	and	t3,t3,s11
    3926:	5992                	c.lwsp	s3,36(sp)
    3928:	d072                	c.swsp	t3,32(sp)
    392a:	5902                	c.lwsp	s2,32(sp)
    392c:	c0e9177f          	add64	a4,s2,a4
    3930:	dff7077f          	wexti	a4,a4,31
    3934:	98ba                	c.add	a7,a4
    3936:	c0000737          	lui	a4,0xc0000
    393a:	0705                	c.addi	a4,1
    393c:	57fd                	c.li	a5,-1
    393e:	0008c563          	bltz	a7,3948 <riscv_nn_softmax_common_s8+0x358>
    3942:	40000737          	lui	a4,0x40000
    3946:	4781                	c.li	a5,0
    3948:	2aaabe37          	lui	t3,0x2aaab
    394c:	aabe0e13          	addi	t3,t3,-1365 # 2aaaaaab <_DATA_LMA_START+0xaa9fc13>
    3950:	85c8977f          	smar64	a4,a7,t3
    3954:	d602                	c.swsp	zero,44(sp)
    3956:	41f7d893          	srai	a7,a5,0x1f
    395a:	01b8f8b3          	and	a7,a7,s11
    395e:	59b2                	c.lwsp	s3,44(sp)
    3960:	d446                	c.swsp	a7,40(sp)
    3962:	5922                	c.lwsp	s2,40(sp)
    3964:	c0e9177f          	add64	a4,s2,a4
    3968:	dff7077f          	wexti	a4,a4,31
    396c:	972e                	c.add	a4,a1
    396e:	40175793          	srai	a5,a4,0x1
    3972:	00074563          	bltz	a4,397c <riscv_nn_softmax_common_s8+0x38c>
    3976:	8b05                	c.andi	a4,1
    3978:	00e787b3          	add	a5,a5,a4
    397c:	963e                	c.add	a2,a5
    397e:	c0000737          	lui	a4,0xc0000
    3982:	0705                	c.addi	a4,1
    3984:	57fd                	c.li	a5,-1
    3986:	00064563          	bltz	a2,3990 <riscv_nn_softmax_common_s8+0x3a0>
    398a:	40000737          	lui	a4,0x40000
    398e:	4781                	c.li	a5,0
    3990:	000805b7          	lui	a1,0x80
    3994:	14080263          	beqz	a6,3ad8 <riscv_nn_softmax_common_s8+0x4e8>
    3998:	70f5b837          	lui	a6,0x70f5b
    399c:	89480593          	addi	a1,a6,-1900 # 70f5a894 <_DATA_LMA_START+0x50f4f9fc>
    39a0:	84b6177f          	smar64	a4,a2,a1
    39a4:	40d506b3          	sub	a3,a0,a3
    39a8:	41f7d613          	srai	a2,a5,0x1f
    39ac:	01b67633          	and	a2,a2,s11
    39b0:	c0b2                	c.swsp	a2,64(sp)
    39b2:	c282                	c.swsp	zero,68(sp)
    39b4:	4506                	c.lwsp	a0,64(sp)
    39b6:	4596                	c.lwsp	a1,68(sp)
    39b8:	c0e5177f          	add64	a4,a0,a4
    39bc:	dff7077f          	wexti	a4,a4,31
    39c0:	89480793          	addi	a5,a6,-1900
    39c4:	973e                	c.add	a4,a5
    39c6:	57e2                	c.lwsp	a5,56(sp)
    39c8:	40000537          	lui	a0,0x40000
    39cc:	4581                	c.li	a1,0
    39ce:	84f7157f          	smar64	a0,a4,a5
    39d2:	0186d793          	srli	a5,a3,0x18
    39d6:	8b85                	c.andi	a5,1
    39d8:	fff78613          	addi	a2,a5,-1
    39dc:	dff505ff          	wexti	a1,a0,31
    39e0:	40f007b3          	neg	a5,a5
    39e4:	00e67533          	and	a0,a2,a4
    39e8:	8fed                	c.and	a5,a1
    39ea:	4da2d637          	lui	a2,0x4da2d
    39ee:	8d3d                	c.xor	a0,a5
    39f0:	bf260613          	addi	a2,a2,-1038 # 4da2cbf2 <_DATA_LMA_START+0x2da21d5a>
    39f4:	40000737          	lui	a4,0x40000
    39f8:	4781                	c.li	a5,0
    39fa:	84c5177f          	smar64	a4,a0,a2
    39fe:	0196d613          	srli	a2,a3,0x19
    3a02:	8a05                	c.andi	a2,1
    3a04:	dff7077f          	wexti	a4,a4,31
    3a08:	fff60593          	addi	a1,a2,-1
    3a0c:	40c00633          	neg	a2,a2
    3a10:	8e79                	c.and	a2,a4
    3a12:	8de9                	c.and	a1,a0
    3a14:	8db1                	c.xor	a1,a2
    3a16:	2f16b637          	lui	a2,0x2f16b
    3a1a:	c6c60613          	addi	a2,a2,-916 # 2f16ac6c <_DATA_LMA_START+0xf15fdd4>
    3a1e:	40000737          	lui	a4,0x40000
    3a22:	4781                	c.li	a5,0
    3a24:	84c5977f          	smar64	a4,a1,a2
    3a28:	01a6d613          	srli	a2,a3,0x1a
    3a2c:	8a05                	c.andi	a2,1
    3a2e:	dff7077f          	wexti	a4,a4,31
    3a32:	fff60513          	addi	a0,a2,-1
    3a36:	40c00633          	neg	a2,a2
    3a3a:	8e79                	c.and	a2,a4
    3a3c:	8d6d                	c.and	a0,a1
    3a3e:	8d31                	c.xor	a0,a2
    3a40:	40000737          	lui	a4,0x40000
    3a44:	4781                	c.li	a5,0
    3a46:	8565177f          	smar64	a4,a0,s6
    3a4a:	01b6d613          	srli	a2,a3,0x1b
    3a4e:	8a05                	c.andi	a2,1
    3a50:	dff7077f          	wexti	a4,a4,31
    3a54:	fff60593          	addi	a1,a2,-1
    3a58:	40c00633          	neg	a2,a2
    3a5c:	8e79                	c.and	a2,a4
    3a5e:	8de9                	c.and	a1,a0
    3a60:	8db1                	c.xor	a1,a2
    3a62:	40000737          	lui	a4,0x40000
    3a66:	4781                	c.li	a5,0
    3a68:	8575977f          	smar64	a4,a1,s7
    3a6c:	01c6d613          	srli	a2,a3,0x1c
    3a70:	8a05                	c.andi	a2,1
    3a72:	dff7077f          	wexti	a4,a4,31
    3a76:	fff60513          	addi	a0,a2,-1
    3a7a:	40c00633          	neg	a2,a2
    3a7e:	8e79                	c.and	a2,a4
    3a80:	8d6d                	c.and	a0,a1
    3a82:	8d31                	c.xor	a0,a2
    3a84:	40000737          	lui	a4,0x40000
    3a88:	4781                	c.li	a5,0
    3a8a:	8595177f          	smar64	a4,a0,s9
    3a8e:	01d6d613          	srli	a2,a3,0x1d
    3a92:	8a05                	c.andi	a2,1
    3a94:	dff7077f          	wexti	a4,a4,31
    3a98:	fff60593          	addi	a1,a2,-1
    3a9c:	40c00633          	neg	a2,a2
    3aa0:	8e79                	c.and	a2,a4
    3aa2:	8de9                	c.and	a1,a0
    3aa4:	8db1                	c.xor	a1,a2
    3aa6:	40000737          	lui	a4,0x40000
    3aaa:	4781                	c.li	a5,0
    3aac:	85a5977f          	smar64	a4,a1,s10
    3ab0:	82f9                	c.srli	a3,0x1e
    3ab2:	8a85                	c.andi	a3,1
    3ab4:	fff68613          	addi	a2,a3,-1
    3ab8:	dff7077f          	wexti	a4,a4,31
    3abc:	40d006b3          	neg	a3,a3
    3ac0:	8e6d                	c.and	a2,a1
    3ac2:	8ef9                	c.and	a3,a4
    3ac4:	6785                	c.lui	a5,0x1
    3ac6:	00d645b3          	xor	a1,a2,a3
    3aca:	80078793          	addi	a5,a5,-2048 # 800 <analog_read_reg8+0x28>
    3ace:	8fed                	c.and	a5,a1
    3ad0:	00f037b3          	snez	a5,a5
    3ad4:	85b1                	c.srai	a1,0xc
    3ad6:	95be                	c.add	a1,a5
    3ad8:	00bc0c33          	add	s8,s8,a1
    3adc:	57c2                	c.lwsp	a5,48(sp)
    3ade:	0305                	c.addi	t1,1
    3ae0:	d46794e3          	bne	a5,t1,3828 <riscv_nn_softmax_common_s8+0x238>
    3ae4:	14812823          	sw	s0,336(sp)
    3ae8:	15412c23          	sw	s4,344(sp)
    3aec:	15512e23          	sw	s5,348(sp)
    3af0:	52ea                	c.lwsp	t0,184(sp)
    3af2:	5fee                	c.lwsp	t6,248(sp)
    3af4:	12812403          	lw	s0,296(sp)
    3af8:	0c412a83          	lw	s5,196(sp)
    3afc:	14012a03          	lw	s4,320(sp)
    3b00:	14912a23          	sw	s1,340(sp)
    3b04:	af9c08ff          	clz32	a7,s8
    3b08:	660c0c63          	beqz	s8,4180 <riscv_nn_softmax_common_s8+0xb90>
    3b0c:	800007b7          	lui	a5,0x80000
    3b10:	011c1c33          	sll	s8,s8,a7
    3b14:	9c3e                	c.add	s8,a5
    3b16:	41fc5793          	srai	a5,s8,0x1f
    3b1a:	13812823          	sw	s8,304(sp)
    3b1e:	12f12a23          	sw	a5,308(sp)
    3b22:	13012703          	lw	a4,304(sp)
    3b26:	13412783          	lw	a5,308(sp)
    3b2a:	80000637          	lui	a2,0x80000
    3b2e:	4681                	c.li	a3,0
    3b30:	c0c7177f          	add64	a4,a4,a2
    3b34:	de170e7f          	wexti	t3,a4,1
    3b38:	c3c3c737          	lui	a4,0xc3c3c
    3b3c:	4017d813          	srai	a6,a5,0x1
    3b40:	3c470713          	addi	a4,a4,964 # c3c3c3c4 <_DATA_LMA_START+0xa3c3152c>
    3b44:	41c006b3          	neg	a3,t3
    3b48:	c50716ff          	maddr32	a3,a4,a6
    3b4c:	c0000637          	lui	a2,0xc0000
    3b50:	f0ee177f          	mulr64	a4,t3,a4
    3b54:	97b6                	c.add	a5,a3
    3b56:	0605                	c.addi	a2,1
    3b58:	56fd                	c.li	a3,-1
    3b5a:	c0c7177f          	add64	a4,a4,a2
    3b5e:	41f7d693          	srai	a3,a5,0x1f
    3b62:	01b6f6b3          	and	a3,a3,s11
    3b66:	12d12c23          	sw	a3,312(sp)
    3b6a:	12012e23          	sw	zero,316(sp)
    3b6e:	13812603          	lw	a2,312(sp)
    3b72:	13c12683          	lw	a3,316(sp)
    3b76:	40000537          	lui	a0,0x40000
    3b7a:	8ef2                	c.mv	t4,t3
    3b7c:	c0e6177f          	add64	a4,a2,a4
    3b80:	dff7077f          	wexti	a4,a4,31
    3b84:	5a5a67b7          	lui	a5,0x5a5a6
    3b88:	a5a78793          	addi	a5,a5,-1446 # 5a5a5a5a <_DATA_LMA_START+0x3a59abc2>
    3b8c:	00f706b3          	add	a3,a4,a5
    3b90:	02d80633          	mul	a2,a6,a3
    3b94:	41f6d593          	srai	a1,a3,0x1f
    3b98:	f1c6977f          	mulr64	a4,a3,t3
    3b9c:	c5c5967f          	maddr32	a2,a1,t3
    3ba0:	4581                	c.li	a1,0
    3ba2:	97b2                	c.add	a5,a2
    3ba4:	c0a7177f          	add64	a4,a4,a0
    3ba8:	dff7077f          	wexti	a4,a4,31
    3bac:	200007b7          	lui	a5,0x20000
    3bb0:	40e78733          	sub	a4,a5,a4
    3bb4:	00d74633          	xor	a2,a4,a3
    3bb8:	e0e6977f          	mulsr64	a4,a3,a4
    3bbc:	68065ae3          	bgez	a2,4a50 <riscv_nn_softmax_common_s8+0x1460>
    3bc0:	c0000537          	lui	a0,0xc0000
    3bc4:	0505                	c.addi	a0,1
    3bc6:	55fd                	c.li	a1,-1
    3bc8:	c0a7177f          	add64	a4,a4,a0
    3bcc:	41f7d613          	srai	a2,a5,0x1f
    3bd0:	01b67633          	and	a2,a2,s11
    3bd4:	14c12423          	sw	a2,328(sp)
    3bd8:	14012623          	sw	zero,332(sp)
    3bdc:	14812503          	lw	a0,328(sp)
    3be0:	14c12583          	lw	a1,332(sp)
    3be4:	c0e5177f          	add64	a4,a0,a4
    3be8:	dff7077f          	wexti	a4,a4,31
    3bec:	00271713          	slli	a4,a4,0x2
    3bf0:	9736                	c.add	a4,a3
    3bf2:	c0000937          	lui	s2,0xc0000
    3bf6:	01d747b3          	xor	a5,a4,t4
    3bfa:	0905                	c.addi	s2,1
    3bfc:	fff00993          	li	s3,-1
    3c00:	0007c463          	bltz	a5,3c08 <riscv_nn_softmax_common_s8+0x618>
    3c04:	7d00106f          	j	53d4 <riscv_nn_softmax_common_s8+0x1de4>
    3c08:	02e807b3          	mul	a5,a6,a4
    3c0c:	41f75693          	srai	a3,a4,0x1f
    3c10:	f1c7157f          	mulr64	a0,a4,t3
    3c14:	c5c697ff          	maddr32	a5,a3,t3
    3c18:	12012223          	sw	zero,292(sp)
    3c1c:	95be                	c.add	a1,a5
    3c1e:	c125157f          	add64	a0,a0,s2
    3c22:	41f5d793          	srai	a5,a1,0x1f
    3c26:	01b7f7b3          	and	a5,a5,s11
    3c2a:	12f12023          	sw	a5,288(sp)
    3c2e:	12412983          	lw	s3,292(sp)
    3c32:	12012903          	lw	s2,288(sp)
    3c36:	200007b7          	lui	a5,0x20000
    3c3a:	c0000637          	lui	a2,0xc0000
    3c3e:	c0a9157f          	add64	a0,s2,a0
    3c42:	dff5057f          	wexti	a0,a0,31
    3c46:	40a78533          	sub	a0,a5,a0
    3c4a:	00e547b3          	xor	a5,a0,a4
    3c4e:	0605                	c.addi	a2,1
    3c50:	56fd                	c.li	a3,-1
    3c52:	0007c563          	bltz	a5,3c5c <riscv_nn_softmax_common_s8+0x66c>
    3c56:	40000637          	lui	a2,0x40000
    3c5a:	4681                	c.li	a3,0
    3c5c:	84a7167f          	smar64	a2,a4,a0
    3c60:	c782                	c.swsp	zero,204(sp)
    3c62:	41f6d793          	srai	a5,a3,0x1f
    3c66:	01b7f7b3          	and	a5,a5,s11
    3c6a:	45be                	c.lwsp	a1,204(sp)
    3c6c:	c5be                	c.swsp	a5,200(sp)
    3c6e:	452e                	c.lwsp	a0,200(sp)
    3c70:	c0c5167f          	add64	a2,a0,a2
    3c74:	dff6067f          	wexti	a2,a2,31
    3c78:	200006b7          	lui	a3,0x20000
    3c7c:	50d65e63          	bge	a2,a3,4198 <riscv_nn_softmax_common_s8+0xba8>
    3c80:	e00006b7          	lui	a3,0xe0000
    3c84:	00261313          	slli	t1,a2,0x2
    3c88:	50c6ca63          	blt	a3,a2,419c <riscv_nn_softmax_common_s8+0xbac>
    3c8c:	800007b7          	lui	a5,0x80000
    3c90:	00f70333          	add	t1,a4,a5
    3c94:	01d34eb3          	xor	t4,t1,t4
    3c98:	500edc63          	bgez	t4,41b0 <riscv_nn_softmax_common_s8+0xbc0>
    3c9c:	02680833          	mul	a6,a6,t1
    3ca0:	41f35693          	srai	a3,t1,0x1f
    3ca4:	f1c3177f          	mulr64	a4,t1,t3
    3ca8:	c5c6987f          	maddr32	a6,a3,t3
    3cac:	c0000637          	lui	a2,0xc0000
    3cb0:	0605                	c.addi	a2,1
    3cb2:	56fd                	c.li	a3,-1
    3cb4:	97c2                	c.add	a5,a6
    3cb6:	c0c7177f          	add64	a4,a4,a2
    3cba:	41f7d693          	srai	a3,a5,0x1f
    3cbe:	01b6f6b3          	and	a3,a3,s11
    3cc2:	22d12023          	sw	a3,544(sp)
    3cc6:	22012223          	sw	zero,548(sp)
    3cca:	22012603          	lw	a2,544(sp)
    3cce:	22412683          	lw	a3,548(sp)
    3cd2:	22012623          	sw	zero,556(sp)
    3cd6:	c0e6177f          	add64	a4,a2,a4
    3cda:	dff7077f          	wexti	a4,a4,31
    3cde:	200007b7          	lui	a5,0x20000
    3ce2:	40e786b3          	sub	a3,a5,a4
    3ce6:	c0000737          	lui	a4,0xc0000
    3cea:	0705                	c.addi	a4,1
    3cec:	fff00793          	li	a5,-1
    3cf0:	8466977f          	smar64	a4,a3,t1
    3cf4:	41f7d693          	srai	a3,a5,0x1f
    3cf8:	01b6f6b3          	and	a3,a3,s11
    3cfc:	22d12423          	sw	a3,552(sp)
    3d00:	22c12683          	lw	a3,556(sp)
    3d04:	22812603          	lw	a2,552(sp)
    3d08:	c0e6177f          	add64	a4,a2,a4
    3d0c:	dff7057f          	wexti	a0,a4,31
    3d10:	e00007b7          	lui	a5,0xe0000
    3d14:	00a7d463          	bge	a5,a0,3d1c <riscv_nn_softmax_common_s8+0x72c>
    3d18:	6c80106f          	j	53e0 <riscv_nn_softmax_common_s8+0x1df0>
    3d1c:	800007b7          	lui	a5,0x80000
    3d20:	00131713          	slli	a4,t1,0x1
    3d24:	979a                	c.add	a5,t1
    3d26:	c83a                	c.swsp	a4,16(sp)
    3d28:	c0000737          	lui	a4,0xc0000
    3d2c:	00f74663          	blt	a4,a5,3d38 <riscv_nn_softmax_common_s8+0x748>
    3d30:	800007b7          	lui	a5,0x80000
    3d34:	00f12823          	sw	a5,16(sp)
    3d38:	1fc12783          	lw	a5,508(sp)
    3d3c:	50078c63          	beqz	a5,4254 <riscv_nn_softmax_common_s8+0xc64>
    3d40:	47ed                	c.li	a5,27
    3d42:	411787b3          	sub	a5,a5,a7
    3d46:	ddbe                	c.swsp	a5,248(sp)
    3d48:	873e                	c.mv	a4,a5
    3d4a:	3e805763          	blez	s0,4138 <riscv_nn_softmax_common_s8+0xb48>
    3d4e:	4785                	c.li	a5,1
    3d50:	00e797b3          	sll	a5,a5,a4
    3d54:	17fd                	c.addi	a5,-1
    3d56:	12f12423          	sw	a5,296(sp)
    3d5a:	8785                	c.srai	a5,0x1
    3d5c:	14f12023          	sw	a5,320(sp)
    3d60:	47b2                	c.lwsp	a5,12(sp)
    3d62:	80000737          	lui	a4,0x80000
    3d66:	00e79463          	bne	a5,a4,3d6e <riscv_nn_softmax_common_s8+0x77e>
    3d6a:	1aa0106f          	j	4f14 <riscv_nn_softmax_common_s8+0x1924>
    3d6e:	5c7e                	c.lwsp	s8,252(sp)
    3d70:	8e9e                	c.mv	t4,t2
    3d72:	8cfa                	c.mv	s9,t5
    3d74:	14512223          	sw	t0,324(sp)
    3d78:	21512423          	sw	s5,520(sp)
    3d7c:	20812623          	sw	s0,524(sp)
    3d80:	21412823          	sw	s4,528(sp)
    3d84:	03c0006f          	j	3dc0 <riscv_nn_softmax_common_s8+0x7d0>
    3d88:	12812683          	lw	a3,296(sp)
    3d8c:	8f75                	c.and	a4,a3
    3d8e:	14012683          	lw	a3,320(sp)
    3d92:	0ae6d7e3          	bge	a3,a4,4640 <riscv_nn_softmax_common_s8+0x1050>
    3d96:	7761                	c.lui	a4,0xffff8
    3d98:	0705                	c.addi	a4,1
    3d9a:	97ba                	c.add	a5,a4
    3d9c:	66a1                	c.lui	a3,0x8
    3d9e:	16f9                	c.addi	a3,-2
    3da0:	21c12703          	lw	a4,540(sp)
    3da4:	00f6c663          	blt	a3,a5,3db0 <riscv_nn_softmax_common_s8+0x7c0>
    3da8:	01079713          	slli	a4,a5,0x10
    3dac:	41075713          	srai	a4,a4,0x10
    3db0:	478e                	c.lwsp	a5,192(sp)
    3db2:	00ec1023          	sh	a4,0(s8)
    3db6:	0c09                	c.addi	s8,2
    3db8:	001f8f93          	addi	t6,t6,1
    3dbc:	36fc0463          	beq	s8,a5,4124 <riscv_nn_softmax_common_s8+0xb34>
    3dc0:	000f8783          	lb	a5,0(t6)
    3dc4:	7761                	c.lui	a4,0xffff8
    3dc6:	41d787b3          	sub	a5,a5,t4
    3dca:	ff97c3e3          	blt	a5,s9,3db0 <riscv_nn_softmax_common_s8+0x7c0>
    3dce:	5752                	c.lwsp	a4,52(sp)
    3dd0:	c0000337          	lui	t1,0xc0000
    3dd4:	00e797b3          	sll	a5,a5,a4
    3dd8:	4732                	c.lwsp	a4,12(sp)
    3dda:	0305                	c.addi	t1,1
    3ddc:	8f3d                	c.xor	a4,a5
    3dde:	53fd                	c.li	t2,-1
    3de0:	00074663          	bltz	a4,3dec <riscv_nn_softmax_common_s8+0x7fc>
    3de4:	40000337          	lui	t1,0x40000
    3de8:	00000393          	li	t2,0
    3dec:	4732                	c.lwsp	a4,12(sp)
    3dee:	c682                	c.swsp	zero,76(sp)
    3df0:	ca82                	c.swsp	zero,84(sp)
    3df2:	84f7137f          	smar64	t1,a4,a5
    3df6:	57fd                	c.li	a5,-1
    3df8:	c0000737          	lui	a4,0xc0000
    3dfc:	df3e                	c.swsp	a5,188(sp)
    3dfe:	41f3d793          	srai	a5,t2,0x1f
    3e02:	0705                	c.addi	a4,1
    3e04:	01b7f7b3          	and	a5,a5,s11
    3e08:	c4be                	c.swsp	a5,72(sp)
    3e0a:	dd3a                	c.swsp	a4,184(sp)
    3e0c:	47b6                	c.lwsp	a5,76(sp)
    3e0e:	4726                	c.lwsp	a4,72(sp)
    3e10:	45d6                	c.lwsp	a1,84(sp)
    3e12:	ce82                	c.swsp	zero,92(sp)
    3e14:	c067137f          	add64	t1,a4,t1
    3e18:	010007b7          	lui	a5,0x1000
    3e1c:	dff3037f          	wexti	t1,t1,31
    3e20:	fff78713          	addi	a4,a5,-1 # ffffff <FLASH_SIZE+0xefffff>
    3e24:	006776b3          	and	a3,a4,t1
    3e28:	8e9d                	c.sub	a3,a5
    3e2a:	00569293          	slli	t0,a3,0x5
    3e2e:	100007b7          	lui	a5,0x10000
    3e32:	92be                	c.add	t0,a5
    3e34:	40000737          	lui	a4,0x40000
    3e38:	4781                	c.li	a5,0
    3e3a:	8452977f          	smar64	a4,t0,t0
    3e3e:	406686b3          	sub	a3,a3,t1
    3e42:	41f7d613          	srai	a2,a5,0x1f
    3e46:	01b67633          	and	a2,a2,s11
    3e4a:	c8b2                	c.swsp	a2,80(sp)
    3e4c:	4546                	c.lwsp	a0,80(sp)
    3e4e:	01b6d813          	srli	a6,a3,0x1b
    3e52:	00187813          	andi	a6,a6,1
    3e56:	c0e5177f          	add64	a4,a0,a4
    3e5a:	dff703ff          	wexti	t2,a4,31
    3e5e:	41f7d913          	srai	s2,a5,0x1f
    3e62:	02790633          	mul	a2,s2,t2
    3e66:	f073977f          	mulr64	a4,t2,t2
    3e6a:	40000537          	lui	a0,0x40000
    3e6e:	0606                	c.slli	a2,0x1
    3e70:	97b2                	c.add	a5,a2
    3e72:	4581                	c.li	a1,0
    3e74:	c0a7177f          	add64	a4,a4,a0
    3e78:	41f7d613          	srai	a2,a5,0x1f
    3e7c:	01b67633          	and	a2,a2,s11
    3e80:	45f6                	c.lwsp	a1,92(sp)
    3e82:	ccb2                	c.swsp	a2,88(sp)
    3e84:	4566                	c.lwsp	a0,88(sp)
    3e86:	03228933          	mul	s2,t0,s2
    3e8a:	00133313          	seqz	t1,t1
    3e8e:	c0e5177f          	add64	a4,a0,a4
    3e92:	dff7047f          	wexti	s0,a4,31
    3e96:	00347e13          	andi	t3,s0,3
    3e9a:	00042493          	slti	s1,s0,0
    3e9e:	8409                	c.srai	s0,0x2
    3ea0:	dc22                	c.swsp	s0,56(sp)
    3ea2:	fff80413          	addi	s0,a6,-1
    3ea6:	0485                	c.addi	s1,1
    3ea8:	c3a2                	c.swsp	s0,196(sp)
    3eaa:	5462                	c.lwsp	s0,56(sp)
    3eac:	41f2d793          	srai	a5,t0,0x1f
    3eb0:	01c4a4b3          	slt	s1,s1,t3
    3eb4:	c477997f          	maddr32	s2,a5,t2
    3eb8:	01e6df13          	srli	t5,a3,0x1e
    3ebc:	01d6d893          	srli	a7,a3,0x1d
    3ec0:	0186d593          	srli	a1,a3,0x18
    3ec4:	0196d713          	srli	a4,a3,0x19
    3ec8:	01c6d513          	srli	a0,a3,0x1c
    3ecc:	01a6d793          	srli	a5,a3,0x1a
    3ed0:	9426                	c.add	s0,s1
    3ed2:	0018f893          	andi	a7,a7,1
    3ed6:	406009b3          	neg	s3,t1
    3eda:	001f7f13          	andi	t5,t5,1
    3ede:	8985                	c.andi	a1,1
    3ee0:	8b05                	c.andi	a4,1
    3ee2:	8905                	c.andi	a0,1
    3ee4:	8b85                	c.andi	a5,1
    3ee6:	f072967f          	mulr64	a2,t0,t2
    3eea:	0072cd33          	xor	s10,t0,t2
    3eee:	dc22                	c.swsp	s0,56(sp)
    3ef0:	ffff0a13          	addi	s4,t5,-1
    3ef4:	fff88a93          	addi	s5,a7,-1
    3ef8:	fff58e13          	addi	t3,a1,-1 # 7ffff <BIN_SIZE+0x6dc2d>
    3efc:	96ca                	c.add	a3,s2
    3efe:	01b9fb33          	and	s6,s3,s11
    3f02:	fff30b93          	addi	s7,t1,-1 # 3fffffff <_DATA_LMA_START+0x1fff5167>
    3f06:	40a00933          	neg	s2,a0
    3f0a:	fff70313          	addi	t1,a4,-1 # 3fffffff <_DATA_LMA_START+0x1fff5167>
    3f0e:	411009b3          	neg	s3,a7
    3f12:	41000833          	neg	a6,a6
    3f16:	fff78893          	addi	a7,a5,-1 # fffffff <FLASH_SIZE+0xfefffff>
    3f1a:	41e00f33          	neg	t5,t5
    3f1e:	157d                	c.addi	a0,-1
    3f20:	40b005b3          	neg	a1,a1
    3f24:	40e00733          	neg	a4,a4
    3f28:	40f007b3          	neg	a5,a5
    3f2c:	000d4863          	bltz	s10,3f3c <riscv_nn_softmax_common_s8+0x94c>
    3f30:	40000437          	lui	s0,0x40000
    3f34:	4481                	c.li	s1,0
    3f36:	dd22                	c.swsp	s0,184(sp)
    3f38:	0a912e23          	sw	s1,188(sp)
    3f3c:	546a                	c.lwsp	s0,184(sp)
    3f3e:	54fa                	c.lwsp	s1,188(sp)
    3f40:	d282                	c.swsp	zero,100(sp)
    3f42:	c0c4167f          	add64	a2,s0,a2
    3f46:	41f6d493          	srai	s1,a3,0x1f
    3f4a:	01b4f433          	and	s0,s1,s11
    3f4e:	d0a2                	c.swsp	s0,96(sp)
    3f50:	5496                	c.lwsp	s1,100(sp)
    3f52:	5406                	c.lwsp	s0,96(sp)
    3f54:	c0c4167f          	add64	a2,s0,a2
    3f58:	dff6067f          	wexti	a2,a2,31
    3f5c:	56e2                	c.lwsp	a3,56(sp)
    3f5e:	00c68433          	add	s0,a3,a2
    3f62:	c0000637          	lui	a2,0xc0000
    3f66:	0605                	c.addi	a2,1
    3f68:	56fd                	c.li	a3,-1
    3f6a:	00044563          	bltz	s0,3f74 <riscv_nn_softmax_common_s8+0x984>
    3f6e:	40000637          	lui	a2,0x40000
    3f72:	4681                	c.li	a3,0
    3f74:	2aaab4b7          	lui	s1,0x2aaab
    3f78:	aab48493          	addi	s1,s1,-1365 # 2aaaaaab <_DATA_LMA_START+0xaa9fc13>
    3f7c:	8494167f          	smar64	a2,s0,s1
    3f80:	d682                	c.swsp	zero,108(sp)
    3f82:	41f6d413          	srai	s0,a3,0x1f
    3f86:	01b47433          	and	s0,s0,s11
    3f8a:	54b6                	c.lwsp	s1,108(sp)
    3f8c:	d4a2                	c.swsp	s0,104(sp)
    3f8e:	5426                	c.lwsp	s0,104(sp)
    3f90:	c0c4167f          	add64	a2,s0,a2
    3f94:	dff6067f          	wexti	a2,a2,31
    3f98:	961e                	c.add	a2,t2
    3f9a:	40165693          	srai	a3,a2,0x1
    3f9e:	00064563          	bltz	a2,3fa8 <riscv_nn_softmax_common_s8+0x9b8>
    3fa2:	8a05                	c.andi	a2,1
    3fa4:	00c686b3          	add	a3,a3,a2
    3fa8:	92b6                	c.add	t0,a3
    3faa:	c0000637          	lui	a2,0xc0000
    3fae:	0605                	c.addi	a2,1
    3fb0:	56fd                	c.li	a3,-1
    3fb2:	0002c563          	bltz	t0,3fbc <riscv_nn_softmax_common_s8+0x9cc>
    3fb6:	40000637          	lui	a2,0x40000
    3fba:	4681                	c.li	a3,0
    3fbc:	70f5b3b7          	lui	t2,0x70f5b
    3fc0:	89438413          	addi	s0,t2,-1900 # 70f5a894 <_DATA_LMA_START+0x50f4f9fc>
    3fc4:	8482967f          	smar64	a2,t0,s0
    3fc8:	c0000437          	lui	s0,0xc0000
    3fcc:	0405                	c.addi	s0,1
    3fce:	41f6d293          	srai	t0,a3,0x1f
    3fd2:	54fd                	c.li	s1,-1
    3fd4:	dc22                	c.swsp	s0,56(sp)
    3fd6:	01b2f433          	and	s0,t0,s11
    3fda:	de26                	c.swsp	s1,60(sp)
    3fdc:	d8a2                	c.swsp	s0,112(sp)
    3fde:	da82                	c.swsp	zero,116(sp)
    3fe0:	5446                	c.lwsp	s0,112(sp)
    3fe2:	54d6                	c.lwsp	s1,116(sp)
    3fe4:	c0c4167f          	add64	a2,s0,a2
    3fe8:	dff6067f          	wexti	a2,a2,31
    3fec:	89438693          	addi	a3,t2,-1900
    3ff0:	9636                	c.add	a2,a3
    3ff2:	63afc6b7          	lui	a3,0x63afc
    3ff6:	e7b68693          	addi	a3,a3,-389 # 63afbe7b <_DATA_LMA_START+0x43af0fe3>
    3ffa:	40000437          	lui	s0,0x40000
    3ffe:	4481                	c.li	s1,0
    4000:	84d6147f          	smar64	s0,a2,a3
    4004:	01c67633          	and	a2,a2,t3
    4008:	4681                	c.li	a3,0
    400a:	dff4047f          	wexti	s0,s0,31
    400e:	8c6d                	c.and	s0,a1
    4010:	4da2d5b7          	lui	a1,0x4da2d
    4014:	8c31                	c.xor	s0,a2
    4016:	bf258593          	addi	a1,a1,-1038 # 4da2cbf2 <_DATA_LMA_START+0x2da21d5a>
    401a:	40000637          	lui	a2,0x40000
    401e:	84b4167f          	smar64	a2,s0,a1
    4022:	00647433          	and	s0,s0,t1
    4026:	4381                	c.li	t2,0
    4028:	dff6067f          	wexti	a2,a2,31
    402c:	8e79                	c.and	a2,a4
    402e:	2f16b737          	lui	a4,0x2f16b
    4032:	8e21                	c.xor	a2,s0
    4034:	c6c70713          	addi	a4,a4,-916 # 2f16ac6c <_DATA_LMA_START+0xf15fdd4>
    4038:	40000337          	lui	t1,0x40000
    403c:	84e6137f          	smar64	t1,a2,a4
    4040:	1152b6b7          	lui	a3,0x1152b
    4044:	01167633          	and	a2,a2,a7
    4048:	dff3037f          	wexti	t1,t1,31
    404c:	0067f333          	and	t1,a5,t1
    4050:	00664333          	xor	t1,a2,t1
    4054:	aa468693          	addi	a3,a3,-1372 # 1152aaa4 <FLASH_SIZE+0x1142aaa4>
    4058:	40000737          	lui	a4,0x40000
    405c:	4781                	c.li	a5,0
    405e:	84d3177f          	smar64	a4,t1,a3
    4062:	469e                	c.lwsp	a3,196(sp)
    4064:	40000637          	lui	a2,0x40000
    4068:	dff7077f          	wexti	a4,a4,31
    406c:	00d37333          	and	t1,t1,a3
    4070:	00e87733          	and	a4,a6,a4
    4074:	025837b7          	lui	a5,0x2583
    4078:	00e34733          	xor	a4,t1,a4
    407c:	ab778793          	addi	a5,a5,-1353 # 2582ab7 <FLASH_SIZE+0x2482ab7>
    4080:	4681                	c.li	a3,0
    4082:	84f7167f          	smar64	a2,a4,a5
    4086:	8f69                	c.and	a4,a0
    4088:	4781                	c.li	a5,0
    408a:	dff6067f          	wexti	a2,a2,31
    408e:	00c97633          	and	a2,s2,a2
    4092:	000b06b7          	lui	a3,0xb0
    4096:	8e39                	c.xor	a2,a4
    4098:	e1168693          	addi	a3,a3,-495 # afe11 <_STACK_TOP+0xfe11>
    409c:	40000737          	lui	a4,0x40000
    40a0:	84d6177f          	smar64	a4,a2,a3
    40a4:	01567633          	and	a2,a2,s5
    40a8:	4681                	c.li	a3,0
    40aa:	dff7077f          	wexti	a4,a4,31
    40ae:	00e9f733          	and	a4,s3,a4
    40b2:	8f31                	c.xor	a4,a2
    40b4:	0f200793          	li	a5,242
    40b8:	40000637          	lui	a2,0x40000
    40bc:	84f7167f          	smar64	a2,a4,a5
    40c0:	01477733          	and	a4,a4,s4
    40c4:	47c2                	c.lwsp	a5,16(sp)
    40c6:	dff6067f          	wexti	a2,a2,31
    40ca:	00cf7633          	and	a2,t5,a2
    40ce:	8f31                	c.xor	a4,a2
    40d0:	017776b3          	and	a3,a4,s7
    40d4:	0166c6b3          	xor	a3,a3,s6
    40d8:	8fb5                	c.xor	a5,a3
    40da:	0007c763          	bltz	a5,40e8 <riscv_nn_softmax_common_s8+0xaf8>
    40de:	40000737          	lui	a4,0x40000
    40e2:	4781                	c.li	a5,0
    40e4:	dc3a                	c.swsp	a4,56(sp)
    40e6:	de3e                	c.swsp	a5,60(sp)
    40e8:	4642                	c.lwsp	a2,16(sp)
    40ea:	5762                	c.lwsp	a4,56(sp)
    40ec:	57f2                	c.lwsp	a5,60(sp)
    40ee:	de82                	c.swsp	zero,124(sp)
    40f0:	84c6977f          	smar64	a4,a3,a2
    40f4:	41f7d693          	srai	a3,a5,0x1f
    40f8:	01b6f6b3          	and	a3,a3,s11
    40fc:	dcb6                	c.swsp	a3,120(sp)
    40fe:	56f6                	c.lwsp	a3,124(sp)
    4100:	5666                	c.lwsp	a2,120(sp)
    4102:	c0e6177f          	add64	a4,a2,a4
    4106:	dff7077f          	wexti	a4,a4,31
    410a:	57ee                	c.lwsp	a5,248(sp)
    410c:	40f757b3          	sra	a5,a4,a5
    4110:	c6075ce3          	bgez	a4,3d88 <riscv_nn_softmax_common_s8+0x798>
    4114:	7761                	c.lui	a4,0xffff8
    4116:	478e                	c.lwsp	a5,192(sp)
    4118:	00ec1023          	sh	a4,0(s8)
    411c:	0c09                	c.addi	s8,2
    411e:	0f85                	c.addi	t6,1
    4120:	cafc10e3          	bne	s8,a5,3dc0 <riscv_nn_softmax_common_s8+0x7d0>
    4124:	14412283          	lw	t0,324(sp)
    4128:	20812a83          	lw	s5,520(sp)
    412c:	20c12403          	lw	s0,524(sp)
    4130:	21012a03          	lw	s4,528(sp)
    4134:	01900f33          	add	t5,zero,s9
    4138:	5742                	c.lwsp	a4,48(sp)
    413a:	468e                	c.lwsp	a3,192(sp)
    413c:	9722                	c.add	a4,s0
    413e:	d83a                	c.swsp	a4,48(sp)
    4140:	20012703          	lw	a4,512(sp)
    4144:	12c12783          	lw	a5,300(sp)
    4148:	96ba                	c.add	a3,a4
    414a:	c1b6                	c.swsp	a3,192(sp)
    414c:	56fe                	c.lwsp	a3,252(sp)
    414e:	0785                	c.addi	a5,1
    4150:	9736                	c.add	a4,a3
    4152:	dfba                	c.swsp	a4,252(sp)
    4154:	1f812703          	lw	a4,504(sp)
    4158:	12f12623          	sw	a5,300(sp)
    415c:	8fd2                	c.mv	t6,s4
    415e:	9aa2                	c.add	s5,s0
    4160:	408282b3          	sub	t0,t0,s0
    4164:	0af70ae3          	beq	a4,a5,4a18 <riscv_nn_softmax_common_s8+0x1428>
    4168:	4785                	c.li	a5,1
    416a:	000f8383          	lb	t2,0(t6)
    416e:	9a22                	c.add	s4,s0
    4170:	d087ca63          	blt	a5,s0,3684 <riscv_nn_softmax_common_s8+0x94>
    4174:	e4f40e63          	beq	s0,a5,37d0 <riscv_nn_softmax_common_s8+0x1e0>
    4178:	00000893          	li	a7,0
    417c:	af9888ff          	clz32	a7,a7
    4180:	b4b4b737          	lui	a4,0xb4b4b
    4184:	5e7d                	c.li	t3,-1
    4186:	587d                	c.li	a6,-1
    4188:	5efd                	c.li	t4,-1
    418a:	4b670713          	addi	a4,a4,1206 # b4b4b4b6 <_DATA_LMA_START+0x94b4061e>
    418e:	40000937          	lui	s2,0x40000
    4192:	4981                	c.li	s3,0
    4194:	a75ff06f          	j	3c08 <riscv_nn_softmax_common_s8+0x618>
    4198:	01b00333          	add	t1,zero,s11
    419c:	933a                	c.add	t1,a4
    419e:	01d34eb3          	xor	t4,t1,t4
    41a2:	c0000737          	lui	a4,0xc0000
    41a6:	0705                	c.addi	a4,1
    41a8:	fff00793          	li	a5,-1
    41ac:	000ec663          	bltz	t4,41b8 <riscv_nn_softmax_common_s8+0xbc8>
    41b0:	40000737          	lui	a4,0x40000
    41b4:	00000793          	li	a5,0
    41b8:	02680833          	mul	a6,a6,t1
    41bc:	41f35593          	srai	a1,t1,0x1f
    41c0:	f1c3167f          	mulr64	a2,t1,t3
    41c4:	c5c5987f          	maddr32	a6,a1,t3
    41c8:	10012a23          	sw	zero,276(sp)
    41cc:	96c2                	c.add	a3,a6
    41ce:	c0e6167f          	add64	a2,a2,a4
    41d2:	41f6d793          	srai	a5,a3,0x1f
    41d6:	01b7f7b3          	and	a5,a5,s11
    41da:	10f12823          	sw	a5,272(sp)
    41de:	11412783          	lw	a5,276(sp)
    41e2:	11012703          	lw	a4,272(sp)
    41e6:	c0000537          	lui	a0,0xc0000
    41ea:	0505                	c.addi	a0,1
    41ec:	c0c7167f          	add64	a2,a4,a2
    41f0:	dff6067f          	wexti	a2,a2,31
    41f4:	200007b7          	lui	a5,0x20000
    41f8:	40c78633          	sub	a2,a5,a2
    41fc:	006647b3          	xor	a5,a2,t1
    4200:	55fd                	c.li	a1,-1
    4202:	0007c563          	bltz	a5,420c <riscv_nn_softmax_common_s8+0xc1c>
    4206:	40000537          	lui	a0,0x40000
    420a:	4581                	c.li	a1,0
    420c:	84c3157f          	smar64	a0,t1,a2
    4210:	10012e23          	sw	zero,284(sp)
    4214:	41f5d793          	srai	a5,a1,0x1f
    4218:	01b7f7b3          	and	a5,a5,s11
    421c:	10f12c23          	sw	a5,280(sp)
    4220:	11c12783          	lw	a5,284(sp)
    4224:	11812703          	lw	a4,280(sp)
    4228:	c0a7157f          	add64	a0,a4,a0
    422c:	dff5057f          	wexti	a0,a0,31
    4230:	200007b7          	lui	a5,0x20000
    4234:	acf54ee3          	blt	a0,a5,3d10 <riscv_nn_softmax_common_s8+0x720>
    4238:	936e                	c.add	t1,s11
    423a:	400007b7          	lui	a5,0x40000
    423e:	c86e                	c.swsp	s11,16(sp)
    4240:	aef35ce3          	bge	t1,a5,3d38 <riscv_nn_softmax_common_s8+0x748>
    4244:	00131793          	slli	a5,t1,0x1
    4248:	00f12823          	sw	a5,16(sp)
    424c:	1fc12783          	lw	a5,508(sp)
    4250:	ae0798e3          	bnez	a5,3d40 <riscv_nn_softmax_common_s8+0x750>
    4254:	02300793          	li	a5,35
    4258:	411787b3          	sub	a5,a5,a7
    425c:	12f12423          	sw	a5,296(sp)
    4260:	873e                	c.mv	a4,a5
    4262:	ec805be3          	blez	s0,4138 <riscv_nn_softmax_common_s8+0xb48>
    4266:	4785                	c.li	a5,1
    4268:	00e797b3          	sll	a5,a5,a4
    426c:	17fd                	c.addi	a5,-1
    426e:	14f12023          	sw	a5,320(sp)
    4272:	8785                	c.srai	a5,0x1
    4274:	14f12223          	sw	a5,324(sp)
    4278:	47b2                	c.lwsp	a5,12(sp)
    427a:	80000737          	lui	a4,0x80000
    427e:	7ee78f63          	beq	a5,a4,4a7c <riscv_nn_softmax_common_s8+0x148c>
    4282:	8c7e                	c.mv	s8,t6
    4284:	8bd6                	c.mv	s7,s5
    4286:	831e                	c.mv	t1,t2
    4288:	8b7a                	c.mv	s6,t5
    428a:	20512423          	sw	t0,520(sp)
    428e:	21512623          	sw	s5,524(sp)
    4292:	20812823          	sw	s0,528(sp)
    4296:	21412a23          	sw	s4,532(sp)
    429a:	a82d                	c.j	42d4 <riscv_nn_softmax_common_s8+0xce4>
    429c:	14012683          	lw	a3,320(sp)
    42a0:	00d77733          	and	a4,a4,a3
    42a4:	14412683          	lw	a3,324(sp)
    42a8:	3ae6d263          	bge	a3,a4,464c <riscv_nn_softmax_common_s8+0x105c>
    42ac:	f8178713          	addi	a4,a5,-127 # 3fffff81 <_DATA_LMA_START+0x1fff50e9>
    42b0:	07e00693          	li	a3,126
    42b4:	07f00793          	li	a5,127
    42b8:	00e6c663          	blt	a3,a4,42c4 <riscv_nn_softmax_common_s8+0xcd4>
    42bc:	01871793          	slli	a5,a4,0x18
    42c0:	4187d793          	srai	a5,a5,0x18
    42c4:	00fb8023          	sb	a5,0(s7)
    42c8:	57c2                	c.lwsp	a5,48(sp)
    42ca:	0c05                	c.addi	s8,1
    42cc:	001b8b93          	addi	s7,s7,1
    42d0:	35878e63          	beq	a5,s8,462c <riscv_nn_softmax_common_s8+0x103c>
    42d4:	000c0683          	lb	a3,0(s8)
    42d8:	f8000793          	li	a5,-128
    42dc:	406686b3          	sub	a3,a3,t1
    42e0:	ff66c2e3          	blt	a3,s6,42c4 <riscv_nn_softmax_common_s8+0xcd4>
    42e4:	57d2                	c.lwsp	a5,52(sp)
    42e6:	c0000737          	lui	a4,0xc0000
    42ea:	00f696b3          	sll	a3,a3,a5
    42ee:	47b2                	c.lwsp	a5,12(sp)
    42f0:	0705                	c.addi	a4,1
    42f2:	00d7c633          	xor	a2,a5,a3
    42f6:	57fd                	c.li	a5,-1
    42f8:	00064663          	bltz	a2,4304 <riscv_nn_softmax_common_s8+0xd14>
    42fc:	40000737          	lui	a4,0x40000
    4300:	00000793          	li	a5,0
    4304:	4632                	c.lwsp	a2,12(sp)
    4306:	c302                	c.swsp	zero,132(sp)
    4308:	c702                	c.swsp	zero,140(sp)
    430a:	84d6177f          	smar64	a4,a2,a3
    430e:	56fd                	c.li	a3,-1
    4310:	c0000637          	lui	a2,0xc0000
    4314:	de36                	c.swsp	a3,60(sp)
    4316:	41f7d693          	srai	a3,a5,0x1f
    431a:	0605                	c.addi	a2,1
    431c:	01b6f6b3          	and	a3,a3,s11
    4320:	c136                	c.swsp	a3,128(sp)
    4322:	dc32                	c.swsp	a2,56(sp)
    4324:	469a                	c.lwsp	a3,132(sp)
    4326:	460a                	c.lwsp	a2,128(sp)
    4328:	45ba                	c.lwsp	a1,140(sp)
    432a:	cb02                	c.swsp	zero,148(sp)
    432c:	c0e6177f          	add64	a4,a2,a4
    4330:	dff70eff          	wexti	t4,a4,31
    4334:	010007b7          	lui	a5,0x1000
    4338:	fff78713          	addi	a4,a5,-1 # ffffff <FLASH_SIZE+0xefffff>
    433c:	01d776b3          	and	a3,a4,t4
    4340:	8e9d                	c.sub	a3,a5
    4342:	00569f13          	slli	t5,a3,0x5
    4346:	100007b7          	lui	a5,0x10000
    434a:	9f3e                	c.add	t5,a5
    434c:	40000737          	lui	a4,0x40000
    4350:	4781                	c.li	a5,0
    4352:	85ef177f          	smar64	a4,t5,t5
    4356:	41d686b3          	sub	a3,a3,t4
    435a:	41f7d613          	srai	a2,a5,0x1f
    435e:	01b67633          	and	a2,a2,s11
    4362:	c532                	c.swsp	a2,136(sp)
    4364:	452a                	c.lwsp	a0,136(sp)
    4366:	001ebe93          	seqz	t4,t4
    436a:	01a6d813          	srli	a6,a3,0x1a
    436e:	c0e5177f          	add64	a4,a0,a4
    4372:	dff70fff          	wexti	t6,a4,31
    4376:	41f7de13          	srai	t3,a5,0x1f
    437a:	03fe0633          	mul	a2,t3,t6
    437e:	f1ff977f          	mulr64	a4,t6,t6
    4382:	40000537          	lui	a0,0x40000
    4386:	0606                	c.slli	a2,0x1
    4388:	97b2                	c.add	a5,a2
    438a:	4581                	c.li	a1,0
    438c:	c0a7177f          	add64	a4,a4,a0
    4390:	41f7d613          	srai	a2,a5,0x1f
    4394:	01b67633          	and	a2,a2,s11
    4398:	45da                	c.lwsp	a1,148(sp)
    439a:	c932                	c.swsp	a2,144(sp)
    439c:	454a                	c.lwsp	a0,144(sp)
    439e:	03cf0e33          	mul	t3,t5,t3
    43a2:	01e6d413          	srli	s0,a3,0x1e
    43a6:	c0e5177f          	add64	a4,a0,a4
    43aa:	dff70a7f          	wexti	s4,a4,31
    43ae:	000a2c93          	slti	s9,s4,0
    43b2:	003a7893          	andi	a7,s4,3
    43b6:	0196d513          	srli	a0,a3,0x19
    43ba:	0c85                	c.addi	s9,1
    43bc:	41ff5793          	srai	a5,t5,0x1f
    43c0:	8905                	c.andi	a0,1
    43c2:	011cacb3          	slt	s9,s9,a7
    43c6:	402a5a13          	srai	s4,s4,0x2
    43ca:	c5f79e7f          	maddr32	t3,a5,t6
    43ce:	fff50893          	addi	a7,a0,-1 # 3fffffff <_DATA_LMA_START+0x1fff5167>
    43d2:	01d6d493          	srli	s1,a3,0x1d
    43d6:	01c6d593          	srli	a1,a3,0x1c
    43da:	0186d713          	srli	a4,a3,0x18
    43de:	01b6d793          	srli	a5,a3,0x1b
    43e2:	41d009b3          	neg	s3,t4
    43e6:	9a66                	c.add	s4,s9
    43e8:	1efd                	c.addi	t4,-1
    43ea:	00187813          	andi	a6,a6,1
    43ee:	8805                	c.andi	s0,1
    43f0:	8885                	c.andi	s1,1
    43f2:	8985                	c.andi	a1,1
    43f4:	8b05                	c.andi	a4,1
    43f6:	8b85                	c.andi	a5,1
    43f8:	f1ff167f          	mulr64	a2,t5,t6
    43fc:	c3c6                	c.swsp	a7,196(sp)
    43fe:	dd76                	c.swsp	t4,184(sp)
    4400:	01ff4d33          	xor	s10,t5,t6
    4404:	ddd2                	c.swsp	s4,248(sp)
    4406:	410008b3          	neg	a7,a6
    440a:	40800933          	neg	s2,s0
    440e:	409002b3          	neg	t0,s1
    4412:	40b003b3          	neg	t2,a1
    4416:	fff70e93          	addi	t4,a4,-1 # 3fffffff <_DATA_LMA_START+0x1fff5167>
    441a:	96f2                	c.add	a3,t3
    441c:	187d                	c.addi	a6,-1
    441e:	40f00e33          	neg	t3,a5
    4422:	40a00533          	neg	a0,a0
    4426:	01b9f9b3          	and	s3,s3,s11
    442a:	40e00733          	neg	a4,a4
    442e:	14fd                	c.addi	s1,-1
    4430:	147d                	c.addi	s0,-1
    4432:	15fd                	c.addi	a1,-1
    4434:	17fd                	c.addi	a5,-1
    4436:	000d4763          	bltz	s10,4444 <riscv_nn_softmax_common_s8+0xe54>
    443a:	40000a37          	lui	s4,0x40000
    443e:	4a81                	c.li	s5,0
    4440:	dc52                	c.swsp	s4,56(sp)
    4442:	de56                	c.swsp	s5,60(sp)
    4444:	5a62                	c.lwsp	s4,56(sp)
    4446:	5af2                	c.lwsp	s5,60(sp)
    4448:	cf02                	c.swsp	zero,156(sp)
    444a:	c0ca167f          	add64	a2,s4,a2
    444e:	41f6dc93          	srai	s9,a3,0x1f
    4452:	01bcfa33          	and	s4,s9,s11
    4456:	4afa                	c.lwsp	s5,156(sp)
    4458:	cd52                	c.swsp	s4,152(sp)
    445a:	4a6a                	c.lwsp	s4,152(sp)
    445c:	c0ca167f          	add64	a2,s4,a2
    4460:	dff6067f          	wexti	a2,a2,31
    4464:	56ee                	c.lwsp	a3,248(sp)
    4466:	00c68a33          	add	s4,a3,a2
    446a:	c0000637          	lui	a2,0xc0000
    446e:	0605                	c.addi	a2,1
    4470:	56fd                	c.li	a3,-1
    4472:	000a4563          	bltz	s4,447c <riscv_nn_softmax_common_s8+0xe8c>
    4476:	40000637          	lui	a2,0x40000
    447a:	4681                	c.li	a3,0
    447c:	2aaabab7          	lui	s5,0x2aaab
    4480:	aaba8a93          	addi	s5,s5,-1365 # 2aaaaaab <_DATA_LMA_START+0xaa9fc13>
    4484:	855a167f          	smar64	a2,s4,s5
    4488:	d302                	c.swsp	zero,164(sp)
    448a:	41f6da13          	srai	s4,a3,0x1f
    448e:	01ba7a33          	and	s4,s4,s11
    4492:	5a9a                	c.lwsp	s5,164(sp)
    4494:	d152                	c.swsp	s4,160(sp)
    4496:	5a0a                	c.lwsp	s4,160(sp)
    4498:	c0ca167f          	add64	a2,s4,a2
    449c:	dff6067f          	wexti	a2,a2,31
    44a0:	967e                	c.add	a2,t6
    44a2:	40165693          	srai	a3,a2,0x1
    44a6:	00064563          	bltz	a2,44b0 <riscv_nn_softmax_common_s8+0xec0>
    44aa:	8a05                	c.andi	a2,1
    44ac:	00c686b3          	add	a3,a3,a2
    44b0:	9f36                	c.add	t5,a3
    44b2:	c0000637          	lui	a2,0xc0000
    44b6:	0605                	c.addi	a2,1
    44b8:	56fd                	c.li	a3,-1
    44ba:	000f4563          	bltz	t5,44c4 <riscv_nn_softmax_common_s8+0xed4>
    44be:	40000637          	lui	a2,0x40000
    44c2:	4681                	c.li	a3,0
    44c4:	70f5bcb7          	lui	s9,0x70f5b
    44c8:	894c8f93          	addi	t6,s9,-1900 # 70f5a894 <_DATA_LMA_START+0x50f4f9fc>
    44cc:	85ff167f          	smar64	a2,t5,t6
    44d0:	d702                	c.swsp	zero,172(sp)
    44d2:	41f6df13          	srai	t5,a3,0x1f
    44d6:	01bf7f33          	and	t5,t5,s11
    44da:	5fba                	c.lwsp	t6,172(sp)
    44dc:	d57a                	c.swsp	t5,168(sp)
    44de:	5f2a                	c.lwsp	t5,168(sp)
    44e0:	c0000a37          	lui	s4,0xc0000
    44e4:	0a05                	c.addi	s4,1
    44e6:	c0cf167f          	add64	a2,t5,a2
    44ea:	dff6067f          	wexti	a2,a2,31
    44ee:	894c8693          	addi	a3,s9,-1900
    44f2:	9636                	c.add	a2,a3
    44f4:	63afc6b7          	lui	a3,0x63afc
    44f8:	e7b68693          	addi	a3,a3,-389 # 63afbe7b <_DATA_LMA_START+0x43af0fe3>
    44fc:	40000f37          	lui	t5,0x40000
    4500:	4f81                	c.li	t6,0
    4502:	84d61f7f          	smar64	t5,a2,a3
    4506:	01d67633          	and	a2,a2,t4
    450a:	4681                	c.li	a3,0
    450c:	dfff0f7f          	wexti	t5,t5,31
    4510:	01e77f33          	and	t5,a4,t5
    4514:	4da2d737          	lui	a4,0x4da2d
    4518:	01e64f33          	xor	t5,a2,t5
    451c:	bf270713          	addi	a4,a4,-1038 # 4da2cbf2 <_DATA_LMA_START+0x2da21d5a>
    4520:	40000637          	lui	a2,0x40000
    4524:	84ef167f          	smar64	a2,t5,a4
    4528:	471e                	c.lwsp	a4,196(sp)
    452a:	4f81                	c.li	t6,0
    452c:	dff6067f          	wexti	a2,a2,31
    4530:	01e77f33          	and	t5,a4,t5
    4534:	8e69                	c.and	a2,a0
    4536:	2f16b737          	lui	a4,0x2f16b
    453a:	00cf4633          	xor	a2,t5,a2
    453e:	c6c70713          	addi	a4,a4,-916 # 2f16ac6c <_DATA_LMA_START+0xf15fdd4>
    4542:	40000f37          	lui	t5,0x40000
    4546:	84e61f7f          	smar64	t5,a2,a4
    454a:	01067633          	and	a2,a2,a6
    454e:	1152b737          	lui	a4,0x1152b
    4552:	dfff0f7f          	wexti	t5,t5,31
    4556:	01e8ff33          	and	t5,a7,t5
    455a:	01e64f33          	xor	t5,a2,t5
    455e:	aa470713          	addi	a4,a4,-1372 # 1152aaa4 <FLASH_SIZE+0x1142aaa4>
    4562:	40000637          	lui	a2,0x40000
    4566:	4681                	c.li	a3,0
    4568:	84ef167f          	smar64	a2,t5,a4
    456c:	00ff7f33          	and	t5,t5,a5
    4570:	40000737          	lui	a4,0x40000
    4574:	dff6067f          	wexti	a2,a2,31
    4578:	00ce7633          	and	a2,t3,a2
    457c:	025836b7          	lui	a3,0x2583
    4580:	00cf4633          	xor	a2,t5,a2
    4584:	ab768693          	addi	a3,a3,-1353 # 2582ab7 <FLASH_SIZE+0x2482ab7>
    4588:	4781                	c.li	a5,0
    458a:	84d6177f          	smar64	a4,a2,a3
    458e:	8e6d                	c.and	a2,a1
    4590:	4681                	c.li	a3,0
    4592:	dff7077f          	wexti	a4,a4,31
    4596:	00e3f733          	and	a4,t2,a4
    459a:	000b07b7          	lui	a5,0xb0
    459e:	8f31                	c.xor	a4,a2
    45a0:	e1178793          	addi	a5,a5,-495 # afe11 <_STACK_TOP+0xfe11>
    45a4:	40000637          	lui	a2,0x40000
    45a8:	84f7167f          	smar64	a2,a4,a5
    45ac:	8f65                	c.and	a4,s1
    45ae:	4781                	c.li	a5,0
    45b0:	dff6067f          	wexti	a2,a2,31
    45b4:	00c2f633          	and	a2,t0,a2
    45b8:	8e39                	c.xor	a2,a4
    45ba:	0f200693          	li	a3,242
    45be:	40000737          	lui	a4,0x40000
    45c2:	84d6177f          	smar64	a4,a2,a3
    45c6:	8e61                	c.and	a2,s0
    45c8:	5afd                	c.li	s5,-1
    45ca:	dff7077f          	wexti	a4,a4,31
    45ce:	00e97733          	and	a4,s2,a4
    45d2:	57ea                	c.lwsp	a5,184(sp)
    45d4:	00c746b3          	xor	a3,a4,a2
    45d8:	8efd                	c.and	a3,a5
    45da:	47c2                	c.lwsp	a5,16(sp)
    45dc:	0136c6b3          	xor	a3,a3,s3
    45e0:	8fb5                	c.xor	a5,a3
    45e2:	0007c563          	bltz	a5,45ec <riscv_nn_softmax_common_s8+0xffc>
    45e6:	40000a37          	lui	s4,0x40000
    45ea:	4a81                	c.li	s5,0
    45ec:	4642                	c.lwsp	a2,16(sp)
    45ee:	8752                	c.mv	a4,s4
    45f0:	87d6                	c.mv	a5,s5
    45f2:	84d6177f          	smar64	a4,a2,a3
    45f6:	db02                	c.swsp	zero,180(sp)
    45f8:	41f7d693          	srai	a3,a5,0x1f
    45fc:	01b6f6b3          	and	a3,a3,s11
    4600:	d936                	c.swsp	a3,176(sp)
    4602:	56da                	c.lwsp	a3,180(sp)
    4604:	564a                	c.lwsp	a2,176(sp)
    4606:	c0e6177f          	add64	a4,a2,a4
    460a:	dff7077f          	wexti	a4,a4,31
    460e:	12812783          	lw	a5,296(sp)
    4612:	40f757b3          	sra	a5,a4,a5
    4616:	c80753e3          	bgez	a4,429c <riscv_nn_softmax_common_s8+0xcac>
    461a:	f8000793          	li	a5,-128
    461e:	00fb8023          	sb	a5,0(s7)
    4622:	57c2                	c.lwsp	a5,48(sp)
    4624:	0c05                	c.addi	s8,1
    4626:	0b85                	c.addi	s7,1
    4628:	cb8796e3          	bne	a5,s8,42d4 <riscv_nn_softmax_common_s8+0xce4>
    462c:	20812283          	lw	t0,520(sp)
    4630:	20c12a83          	lw	s5,524(sp)
    4634:	21012403          	lw	s0,528(sp)
    4638:	21412a03          	lw	s4,532(sp)
    463c:	8f5a                	c.mv	t5,s6
    463e:	bced                	c.j	4138 <riscv_nn_softmax_common_s8+0xb48>
    4640:	7761                	c.lui	a4,0xffff8
    4642:	97ba                	c.add	a5,a4
    4644:	f4e79c63          	bne	a5,a4,3d9c <riscv_nn_softmax_common_s8+0x7ac>
    4648:	f68ff06f          	j	3db0 <riscv_nn_softmax_common_s8+0x7c0>
    464c:	f8078713          	addi	a4,a5,-128
    4650:	f8000793          	li	a5,-128
    4654:	c4f71ee3          	bne	a4,a5,42b0 <riscv_nn_softmax_common_s8+0xcc0>
    4658:	c6dff06f          	j	42c4 <riscv_nn_softmax_common_s8+0xcd4>
    465c:	c396                	c.swsp	t0,196(sp)
    465e:	8bfe                	c.mv	s7,t6
    4660:	4c01                	c.li	s8,0
    4662:	4d05                	c.li	s10,1
    4664:	829e                	c.mv	t0,t2
    4666:	ddd6                	c.swsp	s5,248(sp)
    4668:	13f12423          	sw	t6,296(sp)
    466c:	14812023          	sw	s0,320(sp)
    4670:	15412223          	sw	s4,324(sp)
    4674:	000b8583          	lb	a1,0(s7)
    4678:	405585b3          	sub	a1,a1,t0
    467c:	33e5ca63          	blt	a1,t5,49b0 <riscv_nn_softmax_common_s8+0x13c0>
    4680:	57d2                	c.lwsp	a5,52(sp)
    4682:	c0000737          	lui	a4,0xc0000
    4686:	00f595b3          	sll	a1,a1,a5
    468a:	01f5d693          	srli	a3,a1,0x1f
    468e:	0705                	c.addi	a4,1
    4690:	57fd                	c.li	a5,-1
    4692:	01a69563          	bne	a3,s10,469c <riscv_nn_softmax_common_s8+0x10ac>
    4696:	40000737          	lui	a4,0x40000
    469a:	4781                	c.li	a5,0
    469c:	41f5d693          	srai	a3,a1,0x1f
    46a0:	cbb6                	c.swsp	a3,212(sp)
    46a2:	c9ae                	c.swsp	a1,208(sp)
    46a4:	44de                	c.lwsp	s1,212(sp)
    46a6:	444e                	c.lwsp	s0,208(sp)
    46a8:	4601                	c.li	a2,0
    46aa:	4681                	c.li	a3,0
    46ac:	c286167f          	sub64	a2,a2,s0
    46b0:	de16057f          	wexti	a0,a2,1
    46b4:	01f61693          	slli	a3,a2,0x1f
    46b8:	cfaa                	c.swsp	a0,220(sp)
    46ba:	cdb6                	c.swsp	a3,216(sp)
    46bc:	46fe                	c.lwsp	a3,220(sp)
    46be:	466e                	c.lwsp	a2,216(sp)
    46c0:	d382                	c.swsp	zero,228(sp)
    46c2:	c0e6177f          	add64	a4,a2,a4
    46c6:	41f7d693          	srai	a3,a5,0x1f
    46ca:	01b6f6b3          	and	a3,a3,s11
    46ce:	d1b6                	c.swsp	a3,224(sp)
    46d0:	569e                	c.lwsp	a3,228(sp)
    46d2:	560e                	c.lwsp	a2,224(sp)
    46d4:	c0e6177f          	add64	a4,a2,a4
    46d8:	dff7057f          	wexti	a0,a4,31
    46dc:	800007b7          	lui	a5,0x80000
    46e0:	88aa                	c.mv	a7,a0
    46e2:	2ef58763          	beq	a1,a5,49d0 <riscv_nn_softmax_common_s8+0x13e0>
    46e6:	01000737          	lui	a4,0x1000
    46ea:	fff70793          	addi	a5,a4,-1 # ffffff <FLASH_SIZE+0xefffff>
    46ee:	8fe9                	c.and	a5,a0
    46f0:	8f99                	c.sub	a5,a4
    46f2:	00579713          	slli	a4,a5,0x5
    46f6:	100006b7          	lui	a3,0x10000
    46fa:	9736                	c.add	a4,a3
    46fc:	40000637          	lui	a2,0x40000
    4700:	4681                	c.li	a3,0
    4702:	84e7167f          	smar64	a2,a4,a4
    4706:	8f89                	c.sub	a5,a0
    4708:	41f6d593          	srai	a1,a3,0x1f
    470c:	01b5f5b3          	and	a1,a1,s11
    4710:	10b12023          	sw	a1,256(sp)
    4714:	10012223          	sw	zero,260(sp)
    4718:	10012503          	lw	a0,256(sp)
    471c:	10412583          	lw	a1,260(sp)
    4720:	40000437          	lui	s0,0x40000
    4724:	4481                	c.li	s1,0
    4726:	c0c5167f          	add64	a2,a0,a2
    472a:	dff605ff          	wexti	a1,a2,31
    472e:	41f6de13          	srai	t3,a3,0x1f
    4732:	02be0533          	mul	a0,t3,a1
    4736:	f0b5967f          	mulr64	a2,a1,a1
    473a:	03c70e33          	mul	t3,a4,t3
    473e:	0506                	c.slli	a0,0x1
    4740:	96aa                	c.add	a3,a0
    4742:	c086167f          	add64	a2,a2,s0
    4746:	41f6d513          	srai	a0,a3,0x1f
    474a:	01b57533          	and	a0,a0,s11
    474e:	10a12423          	sw	a0,264(sp)
    4752:	10012623          	sw	zero,268(sp)
    4756:	10812403          	lw	s0,264(sp)
    475a:	10c12483          	lw	s1,268(sp)
    475e:	41f75513          	srai	a0,a4,0x1f
    4762:	c4b51e7f          	maddr32	t3,a0,a1
    4766:	c0c4167f          	add64	a2,s0,a2
    476a:	01d7dc93          	srli	s9,a5,0x1d
    476e:	dff609ff          	wexti	s3,a2,31
    4772:	01e7d493          	srli	s1,a5,0x1e
    4776:	001cfc93          	andi	s9,s9,1
    477a:	f0b7167f          	mulr64	a2,a4,a1
    477e:	0187d813          	srli	a6,a5,0x18
    4782:	0197d513          	srli	a0,a5,0x19
    4786:	01b7d313          	srli	t1,a5,0x1b
    478a:	01c7da13          	srli	s4,a5,0x1c
    478e:	8885                	c.andi	s1,1
    4790:	83e9                	c.srli	a5,0x1a
    4792:	96f2                	c.add	a3,t3
    4794:	fffc8e13          	addi	t3,s9,-1
    4798:	00187813          	andi	a6,a6,1
    479c:	8905                	c.andi	a0,1
    479e:	00137313          	andi	t1,t1,1
    47a2:	001a7a13          	andi	s4,s4,1
    47a6:	8b85                	c.andi	a5,1
    47a8:	0009ab13          	slti	s6,s3,0
    47ac:	00b74ab3          	xor	s5,a4,a1
    47b0:	dd72                	c.swsp	t3,184(sp)
    47b2:	fff48e13          	addi	t3,s1,-1
    47b6:	0039f393          	andi	t2,s3,3
    47ba:	41000fb3          	neg	t6,a6
    47be:	40a00eb3          	neg	t4,a0
    47c2:	fff30413          	addi	s0,t1,-1 # 3fffffff <_DATA_LMA_START+0x1fff5167>
    47c6:	fffa0913          	addi	s2,s4,-1 # 3fffffff <_DATA_LMA_START+0x1fff5167>
    47ca:	40600333          	neg	t1,t1
    47ce:	dc72                	c.swsp	t3,56(sp)
    47d0:	4029d993          	srai	s3,s3,0x2
    47d4:	fff78e13          	addi	t3,a5,-1 # 7fffffff <_DATA_LMA_START+0x5fff5167>
    47d8:	01fada93          	srli	s5,s5,0x1f
    47dc:	187d                	c.addi	a6,-1
    47de:	157d                	c.addi	a0,-1
    47e0:	41400a33          	neg	s4,s4
    47e4:	41900cb3          	neg	s9,s9
    47e8:	409004b3          	neg	s1,s1
    47ec:	40f007b3          	neg	a5,a5
    47f0:	0b05                	c.addi	s6,1
    47f2:	c81a                	c.swsp	t1,16(sp)
    47f4:	007b23b3          	slt	t2,s6,t2
    47f8:	c0000337          	lui	t1,0xc0000
    47fc:	999e                	c.add	s3,t2
    47fe:	0305                	c.addi	t1,1
    4800:	53fd                	c.li	t2,-1
    4802:	000a9563          	bnez	s5,480c <riscv_nn_softmax_common_s8+0x121c>
    4806:	40000337          	lui	t1,0x40000
    480a:	4381                	c.li	t2,0
    480c:	c066167f          	add64	a2,a2,t1
    4810:	41f6d313          	srai	t1,a3,0x1f
    4814:	01b37333          	and	t1,t1,s11
    4818:	d59a                	c.swsp	t1,232(sp)
    481a:	d782                	c.swsp	zero,236(sp)
    481c:	532e                	c.lwsp	t1,232(sp)
    481e:	53be                	c.lwsp	t2,236(sp)
    4820:	c0c3167f          	add64	a2,t1,a2
    4824:	dff6067f          	wexti	a2,a2,31
    4828:	00c98333          	add	t1,s3,a2
    482c:	c0000637          	lui	a2,0xc0000
    4830:	0605                	c.addi	a2,1
    4832:	56fd                	c.li	a3,-1
    4834:	00034663          	bltz	t1,4840 <riscv_nn_softmax_common_s8+0x1250>
    4838:	40000637          	lui	a2,0x40000
    483c:	00000693          	li	a3,0
    4840:	2aaab3b7          	lui	t2,0x2aaab
    4844:	aab38393          	addi	t2,t2,-1365 # 2aaaaaab <_DATA_LMA_START+0xaa9fc13>
    4848:	8473167f          	smar64	a2,t1,t2
    484c:	db82                	c.swsp	zero,244(sp)
    484e:	41f6d313          	srai	t1,a3,0x1f
    4852:	01b37333          	and	t1,t1,s11
    4856:	53de                	c.lwsp	t2,244(sp)
    4858:	d99a                	c.swsp	t1,240(sp)
    485a:	534e                	c.lwsp	t1,240(sp)
    485c:	c0c3167f          	add64	a2,t1,a2
    4860:	dff6067f          	wexti	a2,a2,31
    4864:	962e                	c.add	a2,a1
    4866:	40165693          	srai	a3,a2,0x1
    486a:	00064563          	bltz	a2,4874 <riscv_nn_softmax_common_s8+0x1284>
    486e:	8a05                	c.andi	a2,1
    4870:	00c686b3          	add	a3,a3,a2
    4874:	9736                	c.add	a4,a3
    4876:	c0000637          	lui	a2,0xc0000
    487a:	0605                	c.addi	a2,1
    487c:	56fd                	c.li	a3,-1
    487e:	00074563          	bltz	a4,4888 <riscv_nn_softmax_common_s8+0x1298>
    4882:	40000637          	lui	a2,0x40000
    4886:	4681                	c.li	a3,0
    4888:	000805b7          	lui	a1,0x80
    488c:	12088063          	beqz	a7,49ac <riscv_nn_softmax_common_s8+0x13bc>
    4890:	70f5b5b7          	lui	a1,0x70f5b
    4894:	89458893          	addi	a7,a1,-1900 # 70f5a894 <_DATA_LMA_START+0x50f4f9fc>
    4898:	8517167f          	smar64	a2,a4,a7
    489c:	16012223          	sw	zero,356(sp)
    48a0:	41f6d713          	srai	a4,a3,0x1f
    48a4:	01b77733          	and	a4,a4,s11
    48a8:	16412383          	lw	t2,356(sp)
    48ac:	16e12023          	sw	a4,352(sp)
    48b0:	16012303          	lw	t1,352(sp)
    48b4:	63afc737          	lui	a4,0x63afc
    48b8:	e7b70713          	addi	a4,a4,-389 # 63afbe7b <_DATA_LMA_START+0x43af0fe3>
    48bc:	c0c3167f          	add64	a2,t1,a2
    48c0:	dff6067f          	wexti	a2,a2,31
    48c4:	9646                	c.add	a2,a7
    48c6:	40000337          	lui	t1,0x40000
    48ca:	4381                	c.li	t2,0
    48cc:	84e6137f          	smar64	t1,a2,a4
    48d0:	4da2d5b7          	lui	a1,0x4da2d
    48d4:	00c87633          	and	a2,a6,a2
    48d8:	dff3077f          	wexti	a4,t1,31
    48dc:	00eff733          	and	a4,t6,a4
    48e0:	8f31                	c.xor	a4,a2
    48e2:	bf258593          	addi	a1,a1,-1038 # 4da2cbf2 <_DATA_LMA_START+0x2da21d5a>
    48e6:	40000637          	lui	a2,0x40000
    48ea:	4681                	c.li	a3,0
    48ec:	84b7167f          	smar64	a2,a4,a1
    48f0:	8f69                	c.and	a4,a0
    48f2:	2f16b5b7          	lui	a1,0x2f16b
    48f6:	dff6067f          	wexti	a2,a2,31
    48fa:	00cef633          	and	a2,t4,a2
    48fe:	8f31                	c.xor	a4,a2
    4900:	c6c58593          	addi	a1,a1,-916 # 2f16ac6c <_DATA_LMA_START+0xf15fdd4>
    4904:	40000637          	lui	a2,0x40000
    4908:	4681                	c.li	a3,0
    490a:	84b7167f          	smar64	a2,a4,a1
    490e:	00ee7733          	and	a4,t3,a4
    4912:	dff606ff          	wexti	a3,a2,31
    4916:	8efd                	c.and	a3,a5
    4918:	1152b637          	lui	a2,0x1152b
    491c:	8eb9                	c.xor	a3,a4
    491e:	aa460613          	addi	a2,a2,-1372 # 1152aaa4 <FLASH_SIZE+0x1142aaa4>
    4922:	40000737          	lui	a4,0x40000
    4926:	4781                	c.li	a5,0
    4928:	84c6977f          	smar64	a4,a3,a2
    492c:	8ee1                	c.and	a3,s0
    492e:	02583637          	lui	a2,0x2583
    4932:	dff7077f          	wexti	a4,a4,31
    4936:	47c2                	c.lwsp	a5,16(sp)
    4938:	ab760613          	addi	a2,a2,-1353 # 2582ab7 <FLASH_SIZE+0x2482ab7>
    493c:	8f7d                	c.and	a4,a5
    493e:	8eb9                	c.xor	a3,a4
    4940:	4781                	c.li	a5,0
    4942:	40000737          	lui	a4,0x40000
    4946:	84c6977f          	smar64	a4,a3,a2
    494a:	00d976b3          	and	a3,s2,a3
    494e:	dff7077f          	wexti	a4,a4,31
    4952:	00ea7a33          	and	s4,s4,a4
    4956:	0146ca33          	xor	s4,a3,s4
    495a:	000b06b7          	lui	a3,0xb0
    495e:	e1168693          	addi	a3,a3,-495 # afe11 <_STACK_TOP+0xfe11>
    4962:	40000737          	lui	a4,0x40000
    4966:	4781                	c.li	a5,0
    4968:	84da177f          	smar64	a4,s4,a3
    496c:	56ea                	c.lwsp	a3,184(sp)
    496e:	dff7077f          	wexti	a4,a4,31
    4972:	0146f6b3          	and	a3,a3,s4
    4976:	00ecfcb3          	and	s9,s9,a4
    497a:	0196ccb3          	xor	s9,a3,s9
    497e:	40000737          	lui	a4,0x40000
    4982:	0f200693          	li	a3,242
    4986:	4781                	c.li	a5,0
    4988:	84dc977f          	smar64	a4,s9,a3
    498c:	56e2                	c.lwsp	a3,56(sp)
    498e:	dff7077f          	wexti	a4,a4,31
    4992:	0196f6b3          	and	a3,a3,s9
    4996:	8f65                	c.and	a4,s1
    4998:	6785                	c.lui	a5,0x1
    499a:	8f35                	c.xor	a4,a3
    499c:	80078793          	addi	a5,a5,-2048 # 800 <analog_read_reg8+0x28>
    49a0:	8ff9                	c.and	a5,a4
    49a2:	40c75593          	srai	a1,a4,0xc
    49a6:	00f037b3          	snez	a5,a5
    49aa:	95be                	c.add	a1,a5
    49ac:	00bc0c33          	add	s8,s8,a1
    49b0:	57c2                	c.lwsp	a5,48(sp)
    49b2:	0b85                	c.addi	s7,1
    49b4:	cd7790e3          	bne	a5,s7,4674 <riscv_nn_softmax_common_s8+0x1084>
    49b8:	8396                	c.mv	t2,t0
    49ba:	5aee                	c.lwsp	s5,248(sp)
    49bc:	0c412283          	lw	t0,196(sp)
    49c0:	12812f83          	lw	t6,296(sp)
    49c4:	14012403          	lw	s0,320(sp)
    49c8:	14412a03          	lw	s4,324(sp)
    49cc:	938ff06f          	j	3b04 <riscv_nn_softmax_common_s8+0x514>
    49d0:	577d                	c.li	a4,-1
    49d2:	dc3a                	c.swsp	a4,56(sp)
    49d4:	dd3a                	c.swsp	a4,184(sp)
    49d6:	02000737          	lui	a4,0x2000
    49da:	00083797          	auipc	a5,0x83
    49de:	b0e78793          	addi	a5,a5,-1266 # 874e8 <ds_cnn_s_layer_9_conv_2d_weights+0x118c>
    49e2:	ff870593          	addi	a1,a4,-8 # 1fffff8 <FLASH_SIZE+0x1effff8>
    49e6:	10000737          	lui	a4,0x10000
    49ea:	4390                	c.lw	a2,0(a5)
    49ec:	43d4                	c.lw	a3,4(a5)
    49ee:	4481                	c.li	s1,0
    49f0:	4781                	c.li	a5,0
    49f2:	4c81                	c.li	s9,0
    49f4:	4a01                	c.li	s4,0
    49f6:	557d                	c.li	a0,-1
    49f8:	587d                	c.li	a6,-1
    49fa:	5e7d                	c.li	t3,-1
    49fc:	597d                	c.li	s2,-1
    49fe:	547d                	c.li	s0,-1
    4a00:	4e81                	c.li	t4,0
    4a02:	4f81                	c.li	t6,0
    4a04:	4a81                	c.li	s5,0
    4a06:	000209b7          	lui	s3,0x20
    4a0a:	4381                	c.li	t2,0
    4a0c:	1701                	c.addi	a4,-32
    4a0e:	88ee                	c.mv	a7,s11
    4a10:	4b05                	c.li	s6,1
    4a12:	c802                	c.swsp	zero,16(sp)
    4a14:	de1ff06f          	j	47f4 <riscv_nn_softmax_common_s8+0x1204>
    4a18:	27c12403          	lw	s0,636(sp)
    4a1c:	27812483          	lw	s1,632(sp)
    4a20:	27412903          	lw	s2,628(sp)
    4a24:	27012983          	lw	s3,624(sp)
    4a28:	26c12a03          	lw	s4,620(sp)
    4a2c:	26812a83          	lw	s5,616(sp)
    4a30:	26412b03          	lw	s6,612(sp)
    4a34:	26012b83          	lw	s7,608(sp)
    4a38:	25c12c03          	lw	s8,604(sp)
    4a3c:	25812c83          	lw	s9,600(sp)
    4a40:	25412d03          	lw	s10,596(sp)
    4a44:	25012d83          	lw	s11,592(sp)
    4a48:	28010113          	addi	sp,sp,640
    4a4c:	00008067          	ret
    4a50:	c0a7177f          	add64	a4,a4,a0
    4a54:	41f7d613          	srai	a2,a5,0x1f
    4a58:	01b67633          	and	a2,a2,s11
    4a5c:	22c12823          	sw	a2,560(sp)
    4a60:	22012a23          	sw	zero,564(sp)
    4a64:	23012503          	lw	a0,560(sp)
    4a68:	23412583          	lw	a1,564(sp)
    4a6c:	c0e5177f          	add64	a4,a0,a4
    4a70:	dff7077f          	wexti	a4,a4,31
    4a74:	00271713          	slli	a4,a4,0x2
    4a78:	978ff06f          	j	3bf0 <riscv_nn_softmax_common_s8+0x600>
    4a7c:	c0000c37          	lui	s8,0xc0000
    4a80:	800007b7          	lui	a5,0x80000
    4a84:	8d7e                	c.mv	s10,t6
    4a86:	0c05                	c.addi	s8,1
    4a88:	8fd6                	c.mv	t6,s5
    4a8a:	fff78c93          	addi	s9,a5,-1 # 7fffffff <_DATA_LMA_START+0x5fff5167>
    4a8e:	40000b37          	lui	s6,0x40000
    4a92:	4b81                	c.li	s7,0
    4a94:	8e1e                	c.mv	t3,t2
    4a96:	8efa                	c.mv	t4,t5
    4a98:	20512a23          	sw	t0,532(sp)
    4a9c:	21512c23          	sw	s5,536(sp)
    4aa0:	22812c23          	sw	s0,568(sp)
    4aa4:	23412e23          	sw	s4,572(sp)
    4aa8:	35c0006f          	j	4e04 <riscv_nn_softmax_common_s8+0x1814>
    4aac:	010007b7          	lui	a5,0x1000
    4ab0:	fff78713          	addi	a4,a5,-1 # ffffff <FLASH_SIZE+0xefffff>
    4ab4:	01177f33          	and	t5,a4,a7
    4ab8:	40ff0f33          	sub	t5,t5,a5
    4abc:	005f1693          	slli	a3,t5,0x5
    4ac0:	100007b7          	lui	a5,0x10000
    4ac4:	96be                	c.add	a3,a5
    4ac6:	875a                	c.mv	a4,s6
    4ac8:	87de                	c.mv	a5,s7
    4aca:	84d6977f          	smar64	a4,a3,a3
    4ace:	1e012623          	sw	zero,492(sp)
    4ad2:	41f7d613          	srai	a2,a5,0x1f
    4ad6:	01967633          	and	a2,a2,s9
    4ada:	1ec12583          	lw	a1,492(sp)
    4ade:	1ec12423          	sw	a2,488(sp)
    4ae2:	1e812503          	lw	a0,488(sp)
    4ae6:	411f0f33          	sub	t5,t5,a7
    4aea:	1e012a23          	sw	zero,500(sp)
    4aee:	c0e5177f          	add64	a4,a0,a4
    4af2:	dff7067f          	wexti	a2,a4,31
    4af6:	87fd                	c.srai	a5,0x1f
    4af8:	02c78733          	mul	a4,a5,a2
    4afc:	f0c6147f          	mulr64	s0,a2,a2
    4b00:	02f687b3          	mul	a5,a3,a5
    4b04:	0706                	c.slli	a4,0x1
    4b06:	94ba                	c.add	s1,a4
    4b08:	c164147f          	add64	s0,s0,s6
    4b0c:	41f4d713          	srai	a4,s1,0x1f
    4b10:	01977733          	and	a4,a4,s9
    4b14:	1f412583          	lw	a1,500(sp)
    4b18:	1ee12823          	sw	a4,496(sp)
    4b1c:	41f6d713          	srai	a4,a3,0x1f
    4b20:	1f012503          	lw	a0,496(sp)
    4b24:	c4c717ff          	maddr32	a5,a4,a2
    4b28:	018f5813          	srli	a6,t5,0x18
    4b2c:	00c6c733          	xor	a4,a3,a2
    4b30:	00187a93          	andi	s5,a6,1
    4b34:	883a                	c.mv	a6,a4
    4b36:	c085147f          	add64	s0,a0,s0
    4b3a:	01f85813          	srli	a6,a6,0x1f
    4b3e:	dff4047f          	wexti	s0,s0,31
    4b42:	dc3e                	c.swsp	a5,56(sp)
    4b44:	019f5513          	srli	a0,t5,0x19
    4b48:	01af5593          	srli	a1,t5,0x1a
    4b4c:	01ef5493          	srli	s1,t5,0x1e
    4b50:	01df5993          	srli	s3,t5,0x1d
    4b54:	01cf5393          	srli	t2,t5,0x1c
    4b58:	dd42                	c.swsp	a6,184(sp)
    4b5a:	01bf5f13          	srli	t5,t5,0x1b
    4b5e:	5862                	c.lwsp	a6,56(sp)
    4b60:	001f7f13          	andi	t5,t5,1
    4b64:	f0c6977f          	mulr64	a4,a3,a2
    4b68:	0018b893          	seqz	a7,a7
    4b6c:	8905                	c.andi	a0,1
    4b6e:	97c2                	c.add	a5,a6
    4b70:	41e00833          	neg	a6,t5
    4b74:	fff50913          	addi	s2,a0,-1
    4b78:	21512823          	sw	s5,528(sp)
    4b7c:	8985                	c.andi	a1,1
    4b7e:	8885                	c.andi	s1,1
    4b80:	411002b3          	neg	t0,a7
    4b84:	dc42                	c.swsp	a6,56(sp)
    4b86:	18fd                	c.addi	a7,-1
    4b88:	21012803          	lw	a6,528(sp)
    4b8c:	0019f993          	andi	s3,s3,1
    4b90:	0013f393          	andi	t2,t2,1
    4b94:	00042313          	slti	t1,s0,0
    4b98:	21212423          	sw	s2,520(sp)
    4b9c:	c3c6                	c.swsp	a7,196(sp)
    4b9e:	40b00933          	neg	s2,a1
    4ba2:	409008b3          	neg	a7,s1
    4ba6:	41300a33          	neg	s4,s3
    4baa:	ddca                	c.swsp	s2,248(sp)
    4bac:	21112623          	sw	a7,524(sp)
    4bb0:	40700933          	neg	s2,t2
    4bb4:	fffa8893          	addi	a7,s5,-1
    4bb8:	13fd                	c.addi	t2,-1
    4bba:	00347a93          	andi	s5,s0,3
    4bbe:	15fd                	c.addi	a1,-1
    4bc0:	40a00533          	neg	a0,a0
    4bc4:	8409                	c.srai	s0,0x2
    4bc6:	0192f2b3          	and	t0,t0,s9
    4bca:	41000833          	neg	a6,a6
    4bce:	19fd                	c.addi	s3,-1
    4bd0:	14fd                	c.addi	s1,-1
    4bd2:	1f7d                	c.addi	t5,-1
    4bd4:	00130313          	addi	t1,t1,1 # 40000001 <_DATA_LMA_START+0x1fff5169>
    4bd8:	20712823          	sw	t2,528(sp)
    4bdc:	01532ab3          	slt	s5,t1,s5
    4be0:	9456                	c.add	s0,s5
    4be2:	5aea                	c.lwsp	s5,184(sp)
    4be4:	8362                	c.mv	t1,s8
    4be6:	53fd                	c.li	t2,-1
    4be8:	000a9663          	bnez	s5,4bf4 <riscv_nn_softmax_common_s8+0x1604>
    4bec:	40000337          	lui	t1,0x40000
    4bf0:	00000393          	li	t2,0
    4bf4:	c067177f          	add64	a4,a4,t1
    4bf8:	41f7d313          	srai	t1,a5,0x1f
    4bfc:	01937333          	and	t1,t1,s9
    4c00:	1a612c23          	sw	t1,440(sp)
    4c04:	1a012e23          	sw	zero,444(sp)
    4c08:	1b812303          	lw	t1,440(sp)
    4c0c:	1bc12383          	lw	t2,444(sp)
    4c10:	c0e3177f          	add64	a4,t1,a4
    4c14:	dff7037f          	wexti	t1,a4,31
    4c18:	9322                	c.add	t1,s0
    4c1a:	8762                	c.mv	a4,s8
    4c1c:	57fd                	c.li	a5,-1
    4c1e:	00034563          	bltz	t1,4c28 <riscv_nn_softmax_common_s8+0x1638>
    4c22:	40000737          	lui	a4,0x40000
    4c26:	4781                	c.li	a5,0
    4c28:	2aaab437          	lui	s0,0x2aaab
    4c2c:	aab40413          	addi	s0,s0,-1365 # 2aaaaaab <_DATA_LMA_START+0xaa9fc13>
    4c30:	8483177f          	smar64	a4,t1,s0
    4c34:	1c012223          	sw	zero,452(sp)
    4c38:	41f7d313          	srai	t1,a5,0x1f
    4c3c:	01937433          	and	s0,t1,s9
    4c40:	1c412383          	lw	t2,452(sp)
    4c44:	1c812023          	sw	s0,448(sp)
    4c48:	1c012303          	lw	t1,448(sp)
    4c4c:	c0e3177f          	add64	a4,t1,a4
    4c50:	dff7077f          	wexti	a4,a4,31
    4c54:	9732                	c.add	a4,a2
    4c56:	40175613          	srai	a2,a4,0x1
    4c5a:	00074563          	bltz	a4,4c64 <riscv_nn_softmax_common_s8+0x1674>
    4c5e:	8b05                	c.andi	a4,1
    4c60:	00e60633          	add	a2,a2,a4
    4c64:	96b2                	c.add	a3,a2
    4c66:	8762                	c.mv	a4,s8
    4c68:	57fd                	c.li	a5,-1
    4c6a:	0006c563          	bltz	a3,4c74 <riscv_nn_softmax_common_s8+0x1684>
    4c6e:	40000737          	lui	a4,0x40000
    4c72:	4781                	c.li	a5,0
    4c74:	70f5b437          	lui	s0,0x70f5b
    4c78:	89440613          	addi	a2,s0,-1900 # 70f5a894 <_DATA_LMA_START+0x50f4f9fc>
    4c7c:	84c6977f          	smar64	a4,a3,a2
    4c80:	1c012623          	sw	zero,460(sp)
    4c84:	41f7d693          	srai	a3,a5,0x1f
    4c88:	0196f6b3          	and	a3,a3,s9
    4c8c:	1cd12423          	sw	a3,456(sp)
    4c90:	1cc12683          	lw	a3,460(sp)
    4c94:	1c812603          	lw	a2,456(sp)
    4c98:	8362                	c.mv	t1,s8
    4c9a:	53fd                	c.li	t2,-1
    4c9c:	c0e6177f          	add64	a4,a2,a4
    4ca0:	dff7077f          	wexti	a4,a4,31
    4ca4:	89440793          	addi	a5,s0,-1900
    4ca8:	973e                	c.add	a4,a5
    4caa:	63afc7b7          	lui	a5,0x63afc
    4cae:	e7b78793          	addi	a5,a5,-389 # 63afbe7b <_DATA_LMA_START+0x43af0fe3>
    4cb2:	865a                	c.mv	a2,s6
    4cb4:	86de                	c.mv	a3,s7
    4cb6:	84f7167f          	smar64	a2,a4,a5
    4cba:	00e8f8b3          	and	a7,a7,a4
    4cbe:	87de                	c.mv	a5,s7
    4cc0:	dff606ff          	wexti	a3,a2,31
    4cc4:	00d876b3          	and	a3,a6,a3
    4cc8:	4da2d637          	lui	a2,0x4da2d
    4ccc:	0116c6b3          	xor	a3,a3,a7
    4cd0:	bf260613          	addi	a2,a2,-1038 # 4da2cbf2 <_DATA_LMA_START+0x2da21d5a>
    4cd4:	875a                	c.mv	a4,s6
    4cd6:	84c6977f          	smar64	a4,a3,a2
    4cda:	20812603          	lw	a2,520(sp)
    4cde:	dff7077f          	wexti	a4,a4,31
    4ce2:	8ef1                	c.and	a3,a2
    4ce4:	8f69                	c.and	a4,a0
    4ce6:	2f16b637          	lui	a2,0x2f16b
    4cea:	8eb9                	c.xor	a3,a4
    4cec:	c6c60613          	addi	a2,a2,-916 # 2f16ac6c <_DATA_LMA_START+0xf15fdd4>
    4cf0:	875a                	c.mv	a4,s6
    4cf2:	87de                	c.mv	a5,s7
    4cf4:	84c6977f          	smar64	a4,a3,a2
    4cf8:	8eed                	c.and	a3,a1
    4cfa:	1152b637          	lui	a2,0x1152b
    4cfe:	dff7077f          	wexti	a4,a4,31
    4d02:	57ee                	c.lwsp	a5,248(sp)
    4d04:	aa460613          	addi	a2,a2,-1372 # 1152aaa4 <FLASH_SIZE+0x1142aaa4>
    4d08:	8f7d                	c.and	a4,a5
    4d0a:	8eb9                	c.xor	a3,a4
    4d0c:	87de                	c.mv	a5,s7
    4d0e:	875a                	c.mv	a4,s6
    4d10:	84c6977f          	smar64	a4,a3,a2
    4d14:	00df76b3          	and	a3,t5,a3
    4d18:	02583637          	lui	a2,0x2583
    4d1c:	dff7077f          	wexti	a4,a4,31
    4d20:	57e2                	c.lwsp	a5,56(sp)
    4d22:	ab760613          	addi	a2,a2,-1353 # 2582ab7 <FLASH_SIZE+0x2482ab7>
    4d26:	8f7d                	c.and	a4,a5
    4d28:	8eb9                	c.xor	a3,a4
    4d2a:	87de                	c.mv	a5,s7
    4d2c:	875a                	c.mv	a4,s6
    4d2e:	84c6977f          	smar64	a4,a3,a2
    4d32:	21012603          	lw	a2,528(sp)
    4d36:	dff7077f          	wexti	a4,a4,31
    4d3a:	8ef1                	c.and	a3,a2
    4d3c:	00e97733          	and	a4,s2,a4
    4d40:	000b0637          	lui	a2,0xb0
    4d44:	8eb9                	c.xor	a3,a4
    4d46:	e1160613          	addi	a2,a2,-495 # afe11 <_STACK_TOP+0xfe11>
    4d4a:	875a                	c.mv	a4,s6
    4d4c:	87de                	c.mv	a5,s7
    4d4e:	84c6977f          	smar64	a4,a3,a2
    4d52:	0136f6b3          	and	a3,a3,s3
    4d56:	0f200613          	li	a2,242
    4d5a:	dff7077f          	wexti	a4,a4,31
    4d5e:	00ea7733          	and	a4,s4,a4
    4d62:	8eb9                	c.xor	a3,a4
    4d64:	87de                	c.mv	a5,s7
    4d66:	875a                	c.mv	a4,s6
    4d68:	84c6977f          	smar64	a4,a3,a2
    4d6c:	8ee5                	c.and	a3,s1
    4d6e:	dff7077f          	wexti	a4,a4,31
    4d72:	20c12783          	lw	a5,524(sp)
    4d76:	8f7d                	c.and	a4,a5
    4d78:	00d747b3          	xor	a5,a4,a3
    4d7c:	471e                	c.lwsp	a4,196(sp)
    4d7e:	8ff9                	c.and	a5,a4
    4d80:	4742                	c.lwsp	a4,16(sp)
    4d82:	0057c7b3          	xor	a5,a5,t0
    4d86:	8f3d                	c.xor	a4,a5
    4d88:	00074663          	bltz	a4,4d94 <riscv_nn_softmax_common_s8+0x17a4>
    4d8c:	40000337          	lui	t1,0x40000
    4d90:	00000393          	li	t2,0
    4d94:	01012703          	lw	a4,16(sp)
    4d98:	1c012a23          	sw	zero,468(sp)
    4d9c:	1d412683          	lw	a3,468(sp)
    4da0:	84f7137f          	smar64	t1,a4,a5
    4da4:	f8000793          	li	a5,-128
    4da8:	41f3d713          	srai	a4,t2,0x1f
    4dac:	01977733          	and	a4,a4,s9
    4db0:	1ce12823          	sw	a4,464(sp)
    4db4:	1d012603          	lw	a2,464(sp)
    4db8:	12812703          	lw	a4,296(sp)
    4dbc:	c066137f          	add64	t1,a2,t1
    4dc0:	dff3037f          	wexti	t1,t1,31
    4dc4:	40e35733          	sra	a4,t1,a4
    4dc8:	02034663          	bltz	t1,4df4 <riscv_nn_softmax_common_s8+0x1804>
    4dcc:	14012683          	lw	a3,320(sp)
    4dd0:	0066f333          	and	t1,a3,t1
    4dd4:	14412683          	lw	a3,324(sp)
    4dd8:	1066d463          	bge	a3,t1,4ee0 <riscv_nn_softmax_common_s8+0x18f0>
    4ddc:	f8170713          	addi	a4,a4,-127 # 3fffff81 <_DATA_LMA_START+0x1fff50e9>
    4de0:	07e00693          	li	a3,126
    4de4:	07f00793          	li	a5,127
    4de8:	00e6c663          	blt	a3,a4,4df4 <riscv_nn_softmax_common_s8+0x1804>
    4dec:	01871793          	slli	a5,a4,0x18
    4df0:	4187d793          	srai	a5,a5,0x18
    4df4:	00ff8023          	sb	a5,0(t6)
    4df8:	57c2                	c.lwsp	a5,48(sp)
    4dfa:	0d05                	c.addi	s10,1
    4dfc:	001f8f93          	addi	t6,t6,1
    4e00:	0fa78e63          	beq	a5,s10,4efc <riscv_nn_softmax_common_s8+0x190c>
    4e04:	000d0583          	lb	a1,0(s10)
    4e08:	f8000793          	li	a5,-128
    4e0c:	41c585b3          	sub	a1,a1,t3
    4e10:	ffd5c2e3          	blt	a1,t4,4df4 <riscv_nn_softmax_common_s8+0x1804>
    4e14:	57d2                	c.lwsp	a5,52(sp)
    4e16:	4605                	c.li	a2,1
    4e18:	00f595b3          	sll	a1,a1,a5
    4e1c:	01f5d693          	srli	a3,a1,0x1f
    4e20:	8762                	c.mv	a4,s8
    4e22:	57fd                	c.li	a5,-1
    4e24:	00c69663          	bne	a3,a2,4e30 <riscv_nn_softmax_common_s8+0x1840>
    4e28:	40000737          	lui	a4,0x40000
    4e2c:	00000793          	li	a5,0
    4e30:	41f5d693          	srai	a3,a1,0x1f
    4e34:	1ad12223          	sw	a3,420(sp)
    4e38:	1ab12023          	sw	a1,416(sp)
    4e3c:	1a412483          	lw	s1,420(sp)
    4e40:	1a012403          	lw	s0,416(sp)
    4e44:	4601                	c.li	a2,0
    4e46:	4681                	c.li	a3,0
    4e48:	c286167f          	sub64	a2,a2,s0
    4e4c:	de16057f          	wexti	a0,a2,1
    4e50:	01f61693          	slli	a3,a2,0x1f
    4e54:	1ad12423          	sw	a3,424(sp)
    4e58:	1aa12623          	sw	a0,428(sp)
    4e5c:	1a812603          	lw	a2,424(sp)
    4e60:	1ac12683          	lw	a3,428(sp)
    4e64:	1a012a23          	sw	zero,436(sp)
    4e68:	c0e6177f          	add64	a4,a2,a4
    4e6c:	41f7d693          	srai	a3,a5,0x1f
    4e70:	0196f6b3          	and	a3,a3,s9
    4e74:	1ad12823          	sw	a3,432(sp)
    4e78:	1b412683          	lw	a3,436(sp)
    4e7c:	1b012603          	lw	a2,432(sp)
    4e80:	c0e6177f          	add64	a4,a2,a4
    4e84:	dff708ff          	wexti	a7,a4,31
    4e88:	800007b7          	lui	a5,0x80000
    4e8c:	c2f590e3          	bne	a1,a5,4aac <riscv_nn_softmax_common_s8+0x14bc>
    4e90:	56fd                	c.li	a3,-1
    4e92:	20d12823          	sw	a3,528(sp)
    4e96:	020006b7          	lui	a3,0x2000
    4e9a:	537d                	c.li	t1,-1
    4e9c:	00082797          	auipc	a5,0x82
    4ea0:	64c78793          	addi	a5,a5,1612 # 874e8 <ds_cnn_s_layer_9_conv_2d_weights+0x118c>
    4ea4:	ff868613          	addi	a2,a3,-8 # 1fffff8 <FLASH_SIZE+0x1effff8>
    4ea8:	100006b7          	lui	a3,0x10000
    4eac:	4398                	c.lw	a4,0(a5)
    4eae:	c39a                	c.swsp	t1,196(sp)
    4eb0:	20612423          	sw	t1,520(sp)
    4eb4:	43dc                	c.lw	a5,4(a5)
    4eb6:	5f7d                	c.li	t5,-1
    4eb8:	54fd                	c.li	s1,-1
    4eba:	59fd                	c.li	s3,-1
    4ebc:	4801                	c.li	a6,0
    4ebe:	4281                	c.li	t0,0
    4ec0:	00020437          	lui	s0,0x20
    4ec4:	4a81                	c.li	s5,0
    4ec6:	1681                	c.addi	a3,-32
    4ec8:	4501                	c.li	a0,0
    4eca:	58fd                	c.li	a7,-1
    4ecc:	55fd                	c.li	a1,-1
    4ece:	4901                	c.li	s2,0
    4ed0:	4a01                	c.li	s4,0
    4ed2:	4305                	c.li	t1,1
    4ed4:	dc02                	c.swsp	zero,56(sp)
    4ed6:	dd02                	c.swsp	zero,184(sp)
    4ed8:	20012623          	sw	zero,524(sp)
    4edc:	dd82                	c.swsp	zero,248(sp)
    4ede:	b9fd                	c.j	4bdc <riscv_nn_softmax_common_s8+0x15ec>
    4ee0:	f8070713          	addi	a4,a4,-128 # 3fffff80 <_DATA_LMA_START+0x1fff50e8>
    4ee4:	f8000693          	li	a3,-128
    4ee8:	eed71ce3          	bne	a4,a3,4de0 <riscv_nn_softmax_common_s8+0x17f0>
    4eec:	00ff8023          	sb	a5,0(t6)
    4ef0:	57c2                	c.lwsp	a5,48(sp)
    4ef2:	0d05                	c.addi	s10,1
    4ef4:	001f8f93          	addi	t6,t6,1
    4ef8:	f1a796e3          	bne	a5,s10,4e04 <riscv_nn_softmax_common_s8+0x1814>
    4efc:	21412283          	lw	t0,532(sp)
    4f00:	21812a83          	lw	s5,536(sp)
    4f04:	23812403          	lw	s0,568(sp)
    4f08:	23c12a03          	lw	s4,572(sp)
    4f0c:	01d00f33          	add	t5,zero,t4
    4f10:	a28ff06f          	j	4138 <riscv_nn_softmax_common_s8+0xb48>
    4f14:	800007b7          	lui	a5,0x80000
    4f18:	fff78e93          	addi	t4,a5,-1 # 7fffffff <_DATA_LMA_START+0x5fff5167>
    4f1c:	67a1                	c.lui	a5,0x8
    4f1e:	c00009b7          	lui	s3,0xc0000
    4f22:	17fd                	c.addi	a5,-1
    4f24:	897e                	c.mv	s2,t6
    4f26:	5d7e                	c.lwsp	s10,252(sp)
    4f28:	8ffa                	c.mv	t6,t5
    4f2a:	0985                	c.addi	s3,1
    4f2c:	54fd                	c.li	s1,-1
    4f2e:	40000b37          	lui	s6,0x40000
    4f32:	4b81                	c.li	s7,0
    4f34:	8f1e                	c.mv	t5,t2
    4f36:	22f12e23          	sw	a5,572(sp)
    4f3a:	24512023          	sw	t0,576(sp)
    4f3e:	25512223          	sw	s5,580(sp)
    4f42:	24812423          	sw	s0,584(sp)
    4f46:	25412623          	sw	s4,588(sp)
    4f4a:	ae8d                	c.j	52bc <riscv_nn_softmax_common_s8+0x1ccc>
    4f4c:	010007b7          	lui	a5,0x1000
    4f50:	fff78713          	addi	a4,a5,-1 # ffffff <FLASH_SIZE+0xefffff>
    4f54:	00c77333          	and	t1,a4,a2
    4f58:	40f30333          	sub	t1,t1,a5
    4f5c:	00531513          	slli	a0,t1,0x5
    4f60:	100007b7          	lui	a5,0x10000
    4f64:	953e                	c.add	a0,a5
    4f66:	875a                	c.mv	a4,s6
    4f68:	87de                	c.mv	a5,s7
    4f6a:	84a5177f          	smar64	a4,a0,a0
    4f6e:	1c012e23          	sw	zero,476(sp)
    4f72:	41f7d693          	srai	a3,a5,0x1f
    4f76:	01d6f6b3          	and	a3,a3,t4
    4f7a:	1dc12883          	lw	a7,476(sp)
    4f7e:	1cd12c23          	sw	a3,472(sp)
    4f82:	1d812803          	lw	a6,472(sp)
    4f86:	1e012223          	sw	zero,484(sp)
    4f8a:	1e412a83          	lw	s5,484(sp)
    4f8e:	c0e8177f          	add64	a4,a6,a4
    4f92:	dff7087f          	wexti	a6,a4,31
    4f96:	41f7d693          	srai	a3,a5,0x1f
    4f9a:	030685b3          	mul	a1,a3,a6
    4f9e:	f108177f          	mulr64	a4,a6,a6
    4fa2:	40c30333          	sub	t1,t1,a2
    4fa6:	0586                	c.slli	a1,0x1
    4fa8:	97ae                	c.add	a5,a1
    4faa:	c167177f          	add64	a4,a4,s6
    4fae:	41f7d593          	srai	a1,a5,0x1f
    4fb2:	01d5f5b3          	and	a1,a1,t4
    4fb6:	1eb12023          	sw	a1,480(sp)
    4fba:	1e012a03          	lw	s4,480(sp)
    4fbe:	02d506b3          	mul	a3,a0,a3
    4fc2:	41f55593          	srai	a1,a0,0x1f
    4fc6:	c0ea177f          	add64	a4,s4,a4
    4fca:	dff702ff          	wexti	t0,a4,31
    4fce:	01a35793          	srli	a5,t1,0x1a
    4fd2:	8b85                	c.andi	a5,1
    4fd4:	c50596ff          	maddr32	a3,a1,a6
    4fd8:	22f12c23          	sw	a5,568(sp)
    4fdc:	010547b3          	xor	a5,a0,a6
    4fe0:	83fd                	c.srli	a5,0x1f
    4fe2:	dc36                	c.swsp	a3,56(sp)
    4fe4:	20f12623          	sw	a5,524(sp)
    4fe8:	57e2                	c.lwsp	a5,56(sp)
    4fea:	00163613          	seqz	a2,a2
    4fee:	01e35a93          	srli	s5,t1,0x1e
    4ff2:	01d35a13          	srli	s4,t1,0x1d
    4ff6:	01b35693          	srli	a3,t1,0x1b
    4ffa:	01835593          	srli	a1,t1,0x18
    4ffe:	01935713          	srli	a4,t1,0x19
    5002:	01c35893          	srli	a7,t1,0x1c
    5006:	f105137f          	mulr64	t1,a0,a6
    500a:	8b05                	c.andi	a4,1
    500c:	93be                	c.add	t2,a5
    500e:	fff60793          	addi	a5,a2,-1
    5012:	001afa93          	andi	s5,s5,1
    5016:	20f12423          	sw	a5,520(sp)
    501a:	fff70793          	addi	a5,a4,-1
    501e:	8a85                	c.andi	a3,1
    5020:	fffa8413          	addi	s0,s5,-1
    5024:	0018f893          	andi	a7,a7,1
    5028:	40c00e33          	neg	t3,a2
    502c:	14f12223          	sw	a5,324(sp)
    5030:	23812603          	lw	a2,568(sp)
    5034:	415007b3          	neg	a5,s5
    5038:	8985                	c.andi	a1,1
    503a:	20812c23          	sw	s0,536(sp)
    503e:	c3be                	c.swsp	a5,196(sp)
    5040:	fff68413          	addi	s0,a3,-1 # fffffff <FLASH_SIZE+0xfefffff>
    5044:	fff88793          	addi	a5,a7,-1
    5048:	001a7a13          	andi	s4,s4,1
    504c:	0002ac93          	slti	s9,t0,0
    5050:	20812a23          	sw	s0,532(sp)
    5054:	dd3e                	c.swsp	a5,184(sp)
    5056:	fff58413          	addi	s0,a1,-1
    505a:	fff60793          	addi	a5,a2,-1
    505e:	fffa0c13          	addi	s8,s4,-1
    5062:	20812823          	sw	s0,528(sp)
    5066:	dc3e                	c.swsp	a5,56(sp)
    5068:	40d00433          	neg	s0,a3
    506c:	01de7e33          	and	t3,t3,t4
    5070:	0032f693          	andi	a3,t0,3
    5074:	41100ab3          	neg	s5,a7
    5078:	4022d293          	srai	t0,t0,0x2
    507c:	41400a33          	neg	s4,s4
    5080:	40b005b3          	neg	a1,a1
    5084:	40e00733          	neg	a4,a4
    5088:	40c007b3          	neg	a5,a2
    508c:	001c8c93          	addi	s9,s9,1
    5090:	20c12883          	lw	a7,524(sp)
    5094:	00dcacb3          	slt	s9,s9,a3
    5098:	864e                	c.mv	a2,s3
    509a:	92e6                	c.add	t0,s9
    509c:	86a6                	c.mv	a3,s1
    509e:	00089563          	bnez	a7,50a8 <riscv_nn_softmax_common_s8+0x1ab8>
    50a2:	40000637          	lui	a2,0x40000
    50a6:	4681                	c.li	a3,0
    50a8:	c066167f          	add64	a2,a2,t1
    50ac:	41f6d313          	srai	t1,a3,0x1f
    50b0:	01d378b3          	and	a7,t1,t4
    50b4:	19112023          	sw	a7,384(sp)
    50b8:	18012223          	sw	zero,388(sp)
    50bc:	18012303          	lw	t1,384(sp)
    50c0:	18412383          	lw	t2,388(sp)
    50c4:	c0c3167f          	add64	a2,t1,a2
    50c8:	dff6037f          	wexti	t1,a2,31
    50cc:	9316                	c.add	t1,t0
    50ce:	864e                	c.mv	a2,s3
    50d0:	86a6                	c.mv	a3,s1
    50d2:	00034563          	bltz	t1,50dc <riscv_nn_softmax_common_s8+0x1aec>
    50d6:	40000637          	lui	a2,0x40000
    50da:	4681                	c.li	a3,0
    50dc:	2aaab8b7          	lui	a7,0x2aaab
    50e0:	aab88893          	addi	a7,a7,-1365 # 2aaaaaab <_DATA_LMA_START+0xaa9fc13>
    50e4:	8513167f          	smar64	a2,t1,a7
    50e8:	18012623          	sw	zero,396(sp)
    50ec:	41f6d313          	srai	t1,a3,0x1f
    50f0:	01d378b3          	and	a7,t1,t4
    50f4:	18c12383          	lw	t2,396(sp)
    50f8:	19112423          	sw	a7,392(sp)
    50fc:	18812303          	lw	t1,392(sp)
    5100:	c0c3167f          	add64	a2,t1,a2
    5104:	dff6067f          	wexti	a2,a2,31
    5108:	9642                	c.add	a2,a6
    510a:	40165813          	srai	a6,a2,0x1
    510e:	00064563          	bltz	a2,5118 <riscv_nn_softmax_common_s8+0x1b28>
    5112:	8a05                	c.andi	a2,1
    5114:	00c80833          	add	a6,a6,a2
    5118:	9542                	c.add	a0,a6
    511a:	864e                	c.mv	a2,s3
    511c:	86a6                	c.mv	a3,s1
    511e:	00054563          	bltz	a0,5128 <riscv_nn_softmax_common_s8+0x1b38>
    5122:	40000637          	lui	a2,0x40000
    5126:	4681                	c.li	a3,0
    5128:	70f5b337          	lui	t1,0x70f5b
    512c:	89430813          	addi	a6,t1,-1900 # 70f5a894 <_DATA_LMA_START+0x50f4f9fc>
    5130:	8505167f          	smar64	a2,a0,a6
    5134:	18012a23          	sw	zero,404(sp)
    5138:	41f6d513          	srai	a0,a3,0x1f
    513c:	01d57533          	and	a0,a0,t4
    5140:	19412883          	lw	a7,404(sp)
    5144:	18a12823          	sw	a0,400(sp)
    5148:	19012803          	lw	a6,400(sp)
    514c:	83de                	c.mv	t2,s7
    514e:	4da2d537          	lui	a0,0x4da2d
    5152:	c0c8167f          	add64	a2,a6,a2
    5156:	dff6067f          	wexti	a2,a2,31
    515a:	89430693          	addi	a3,t1,-1900
    515e:	96b2                	c.add	a3,a2
    5160:	63afc637          	lui	a2,0x63afc
    5164:	e7b60613          	addi	a2,a2,-389 # 63afbe7b <_DATA_LMA_START+0x43af0fe3>
    5168:	835a                	c.mv	t1,s6
    516a:	84c6937f          	smar64	t1,a3,a2
    516e:	21012603          	lw	a2,528(sp)
    5172:	bf250513          	addi	a0,a0,-1038 # 4da2cbf2 <_DATA_LMA_START+0x2da21d5a>
    5176:	dff3037f          	wexti	t1,t1,31
    517a:	8ef1                	c.and	a3,a2
    517c:	0065f5b3          	and	a1,a1,t1
    5180:	8db5                	c.xor	a1,a3
    5182:	865a                	c.mv	a2,s6
    5184:	86de                	c.mv	a3,s7
    5186:	84a5967f          	smar64	a2,a1,a0
    518a:	14412503          	lw	a0,324(sp)
    518e:	884e                	c.mv	a6,s3
    5190:	dff6067f          	wexti	a2,a2,31
    5194:	8de9                	c.and	a1,a0
    5196:	8f71                	c.and	a4,a2
    5198:	8f2d                	c.xor	a4,a1
    519a:	2f16b5b7          	lui	a1,0x2f16b
    519e:	c6c58593          	addi	a1,a1,-916 # 2f16ac6c <_DATA_LMA_START+0xf15fdd4>
    51a2:	865a                	c.mv	a2,s6
    51a4:	86de                	c.mv	a3,s7
    51a6:	84b7167f          	smar64	a2,a4,a1
    51aa:	55e2                	c.lwsp	a1,56(sp)
    51ac:	88a6                	c.mv	a7,s1
    51ae:	dff6067f          	wexti	a2,a2,31
    51b2:	8ff1                	c.and	a5,a2
    51b4:	8f6d                	c.and	a4,a1
    51b6:	1152b637          	lui	a2,0x1152b
    51ba:	00f746b3          	xor	a3,a4,a5
    51be:	aa460613          	addi	a2,a2,-1372 # 1152aaa4 <FLASH_SIZE+0x1142aaa4>
    51c2:	875a                	c.mv	a4,s6
    51c4:	87de                	c.mv	a5,s7
    51c6:	84c6977f          	smar64	a4,a3,a2
    51ca:	21412603          	lw	a2,532(sp)
    51ce:	dff7077f          	wexti	a4,a4,31
    51d2:	8ef1                	c.and	a3,a2
    51d4:	8c79                	c.and	s0,a4
    51d6:	8c35                	c.xor	s0,a3
    51d8:	025836b7          	lui	a3,0x2583
    51dc:	ab768693          	addi	a3,a3,-1353 # 2582ab7 <FLASH_SIZE+0x2482ab7>
    51e0:	875a                	c.mv	a4,s6
    51e2:	87de                	c.mv	a5,s7
    51e4:	84d4177f          	smar64	a4,s0,a3
    51e8:	56ea                	c.lwsp	a3,184(sp)
    51ea:	0f200613          	li	a2,242
    51ee:	dff7077f          	wexti	a4,a4,31
    51f2:	8c75                	c.and	s0,a3
    51f4:	00eafab3          	and	s5,s5,a4
    51f8:	000b06b7          	lui	a3,0xb0
    51fc:	01544ab3          	xor	s5,s0,s5
    5200:	e1168693          	addi	a3,a3,-495 # afe11 <_STACK_TOP+0xfe11>
    5204:	875a                	c.mv	a4,s6
    5206:	87de                	c.mv	a5,s7
    5208:	84da977f          	smar64	a4,s5,a3
    520c:	018afab3          	and	s5,s5,s8
    5210:	dff7077f          	wexti	a4,a4,31
    5214:	00ea76b3          	and	a3,s4,a4
    5218:	00dac6b3          	xor	a3,s5,a3
    521c:	875a                	c.mv	a4,s6
    521e:	87de                	c.mv	a5,s7
    5220:	84c6977f          	smar64	a4,a3,a2
    5224:	21812603          	lw	a2,536(sp)
    5228:	dff7077f          	wexti	a4,a4,31
    522c:	479e                	c.lwsp	a5,196(sp)
    522e:	8ef1                	c.and	a3,a2
    5230:	8ff9                	c.and	a5,a4
    5232:	8ebd                	c.xor	a3,a5
    5234:	20812783          	lw	a5,520(sp)
    5238:	8efd                	c.and	a3,a5
    523a:	47c2                	c.lwsp	a5,16(sp)
    523c:	01c6c6b3          	xor	a3,a3,t3
    5240:	8fb5                	c.xor	a5,a3
    5242:	0007c563          	bltz	a5,524c <riscv_nn_softmax_common_s8+0x1c5c>
    5246:	40000837          	lui	a6,0x40000
    524a:	4881                	c.li	a7,0
    524c:	4642                	c.lwsp	a2,16(sp)
    524e:	8742                	c.mv	a4,a6
    5250:	87c6                	c.mv	a5,a7
    5252:	84c6977f          	smar64	a4,a3,a2
    5256:	18012e23          	sw	zero,412(sp)
    525a:	41f7d613          	srai	a2,a5,0x1f
    525e:	01d67633          	and	a2,a2,t4
    5262:	19c12583          	lw	a1,412(sp)
    5266:	18c12c23          	sw	a2,408(sp)
    526a:	19812503          	lw	a0,408(sp)
    526e:	76e1                	c.lui	a3,0xffff8
    5270:	c0e5177f          	add64	a4,a0,a4
    5274:	dff7077f          	wexti	a4,a4,31
    5278:	57ee                	c.lwsp	a5,248(sp)
    527a:	40f757b3          	sra	a5,a4,a5
    527e:	02074763          	bltz	a4,52ac <riscv_nn_softmax_common_s8+0x1cbc>
    5282:	12812603          	lw	a2,296(sp)
    5286:	8f71                	c.and	a4,a2
    5288:	14012603          	lw	a2,320(sp)
    528c:	10e65863          	bge	a2,a4,539c <riscv_nn_softmax_common_s8+0x1dac>
    5290:	7761                	c.lui	a4,0xffff8
    5292:	0705                	c.addi	a4,1
    5294:	00e787b3          	add	a5,a5,a4
    5298:	6721                	c.lui	a4,0x8
    529a:	1779                	c.addi	a4,-2
    529c:	23c12683          	lw	a3,572(sp)
    52a0:	00f74663          	blt	a4,a5,52ac <riscv_nn_softmax_common_s8+0x1cbc>
    52a4:	01079693          	slli	a3,a5,0x10
    52a8:	4106d693          	srai	a3,a3,0x10
    52ac:	478e                	c.lwsp	a5,192(sp)
    52ae:	00dd1023          	sh	a3,0(s10)
    52b2:	0d09                	c.addi	s10,2
    52b4:	00190913          	addi	s2,s2,1 # 40000001 <_DATA_LMA_START+0x1fff5169>
    52b8:	0efd0e63          	beq	s10,a5,53b4 <riscv_nn_softmax_common_s8+0x1dc4>
    52bc:	00090583          	lb	a1,0(s2)
    52c0:	76e1                	c.lui	a3,0xffff8
    52c2:	41e585b3          	sub	a1,a1,t5
    52c6:	fff5c3e3          	blt	a1,t6,52ac <riscv_nn_softmax_common_s8+0x1cbc>
    52ca:	56d2                	c.lwsp	a3,52(sp)
    52cc:	874e                	c.mv	a4,s3
    52ce:	00d595b3          	sll	a1,a1,a3
    52d2:	87a6                	c.mv	a5,s1
    52d4:	0005d663          	bgez	a1,52e0 <riscv_nn_softmax_common_s8+0x1cf0>
    52d8:	40000737          	lui	a4,0x40000
    52dc:	00000793          	li	a5,0
    52e0:	41f5d693          	srai	a3,a1,0x1f
    52e4:	16d12623          	sw	a3,364(sp)
    52e8:	16b12423          	sw	a1,360(sp)
    52ec:	16c12883          	lw	a7,364(sp)
    52f0:	16812803          	lw	a6,360(sp)
    52f4:	4601                	c.li	a2,0
    52f6:	4681                	c.li	a3,0
    52f8:	c306167f          	sub64	a2,a2,a6
    52fc:	de16057f          	wexti	a0,a2,1
    5300:	01f61693          	slli	a3,a2,0x1f
    5304:	16d12823          	sw	a3,368(sp)
    5308:	16a12a23          	sw	a0,372(sp)
    530c:	17012603          	lw	a2,368(sp)
    5310:	17412683          	lw	a3,372(sp)
    5314:	16012e23          	sw	zero,380(sp)
    5318:	c0e6177f          	add64	a4,a2,a4
    531c:	41f7d693          	srai	a3,a5,0x1f
    5320:	01d6f6b3          	and	a3,a3,t4
    5324:	16d12c23          	sw	a3,376(sp)
    5328:	17c12683          	lw	a3,380(sp)
    532c:	17812603          	lw	a2,376(sp)
    5330:	c0e6167f          	add64	a2,a2,a4
    5334:	800007b7          	lui	a5,0x80000
    5338:	dff6067f          	wexti	a2,a2,31
    533c:	c0f598e3          	bne	a1,a5,4f4c <riscv_nn_softmax_common_s8+0x195c>
    5340:	00082797          	auipc	a5,0x82
    5344:	1a878793          	addi	a5,a5,424 # 874e8 <ds_cnn_s_layer_9_conv_2d_weights+0x118c>
    5348:	0007a303          	lw	t1,0(a5)
    534c:	0047a383          	lw	t2,4(a5)
    5350:	57fd                	c.li	a5,-1
    5352:	20f12c23          	sw	a5,536(sp)
    5356:	20f12a23          	sw	a5,532(sp)
    535a:	20f12823          	sw	a5,528(sp)
    535e:	100007b7          	lui	a5,0x10000
    5362:	fe078513          	addi	a0,a5,-32 # fffffe0 <FLASH_SIZE+0xfefffe0>
    5366:	020007b7          	lui	a5,0x2000
    536a:	ff878813          	addi	a6,a5,-8 # 1fffff8 <FLASH_SIZE+0x1effff8>
    536e:	57fd                	c.li	a5,-1
    5370:	20f12423          	sw	a5,520(sp)
    5374:	14f12223          	sw	a5,324(sp)
    5378:	dd3e                	c.swsp	a5,184(sp)
    537a:	dc3e                	c.swsp	a5,56(sp)
    537c:	5c7d                	c.li	s8,-1
    537e:	4401                	c.li	s0,0
    5380:	4681                	c.li	a3,0
    5382:	000202b7          	lui	t0,0x20
    5386:	4e01                	c.li	t3,0
    5388:	4a81                	c.li	s5,0
    538a:	4a01                	c.li	s4,0
    538c:	4581                	c.li	a1,0
    538e:	4701                	c.li	a4,0
    5390:	4781                	c.li	a5,0
    5392:	4c85                	c.li	s9,1
    5394:	20012623          	sw	zero,524(sp)
    5398:	c382                	c.swsp	zero,196(sp)
    539a:	b9dd                	c.j	5090 <riscv_nn_softmax_common_s8+0x1aa0>
    539c:	7761                	c.lui	a4,0xffff8
    539e:	97ba                	c.add	a5,a4
    53a0:	eee79ce3          	bne	a5,a4,5298 <riscv_nn_softmax_common_s8+0x1ca8>
    53a4:	478e                	c.lwsp	a5,192(sp)
    53a6:	00dd1023          	sh	a3,0(s10)
    53aa:	0d09                	c.addi	s10,2
    53ac:	00190913          	addi	s2,s2,1
    53b0:	f0fd16e3          	bne	s10,a5,52bc <riscv_nn_softmax_common_s8+0x1ccc>
    53b4:	24012283          	lw	t0,576(sp)
    53b8:	24412a83          	lw	s5,580(sp)
    53bc:	24812403          	lw	s0,584(sp)
    53c0:	24c12a03          	lw	s4,588(sp)
    53c4:	01f00f33          	add	t5,zero,t6
    53c8:	d71fe06f          	j	4138 <riscv_nn_softmax_common_s8+0xb48>
    53cc:	00100793          	li	a5,1
    53d0:	b4cfe06f          	j	371c <riscv_nn_softmax_common_s8+0x12c>
    53d4:	40000937          	lui	s2,0x40000
    53d8:	00000993          	li	s3,0
    53dc:	82dfe06f          	j	3c08 <riscv_nn_softmax_common_s8+0x618>
    53e0:	00251793          	slli	a5,a0,0x2
    53e4:	979a                	c.add	a5,t1
    53e6:	00179693          	slli	a3,a5,0x1
    53ea:	40000737          	lui	a4,0x40000
    53ee:	c836                	c.swsp	a3,16(sp)
    53f0:	00e7d463          	bge	a5,a4,53f8 <riscv_nn_softmax_common_s8+0x1e08>
    53f4:	935fe06f          	j	3d28 <riscv_nn_softmax_common_s8+0x738>
    53f8:	800007b7          	lui	a5,0x80000
    53fc:	17fd                	c.addi	a5,-1
    53fe:	c83e                	c.swsp	a5,16(sp)
    5400:	939fe06f          	j	3d38 <riscv_nn_softmax_common_s8+0x748>

00005404 <riscv_nn_mat_mult_nt_t_s8>:
    5404:	7101                	c.addi16sp	sp,-512
    5406:	1f412623          	sw	s4,492(sp)
    540a:	1f512423          	sw	s5,488(sp)
    540e:	1f612223          	sw	s6,484(sp)
    5412:	8ac6                	c.mv	s5,a7
    5414:	1f712023          	sw	s7,480(sp)
    5418:	4885                	c.li	a7,1
    541a:	1e812e23          	sw	s0,508(sp)
    541e:	1e912c23          	sw	s1,504(sp)
    5422:	1f212a23          	sw	s2,500(sp)
    5426:	1f312823          	sw	s3,496(sp)
    542a:	1d812e23          	sw	s8,476(sp)
    542e:	1d912c23          	sw	s9,472(sp)
    5432:	1da12a23          	sw	s10,468(sp)
    5436:	1db12823          	sw	s11,464(sp)
    543a:	14c12823          	sw	a2,336(sp)
    543e:	8b2a                	c.mv	s6,a0
    5440:	8a36                	c.mv	s4,a3
    5442:	853e                	c.mv	a0,a5
    5444:	20412b83          	lw	s7,516(sp)
    5448:	86ba                	c.mv	a3,a4
    544a:	87c2                	c.mv	a5,a6
    544c:	3f58d0e3          	bge	a7,s5,602c <riscv_nn_mat_mult_nt_t_s8+0xc28>
    5450:	40185713          	srai	a4,a6,0x1
    5454:	03570eb3          	mul	t4,a4,s5
    5458:	14e12c23          	sw	a4,344(sp)
    545c:	20012703          	lw	a4,512(sp)
    5460:	20012283          	lw	t0,512(sp)
    5464:	1741                	c.addi	a4,-16
    5466:	9b41                	c.andi	a4,-16
    5468:	0741                	c.addi	a4,16
    546a:	deba                	c.swsp	a4,124(sp)
    546c:	001e9713          	slli	a4,t4,0x1
    5470:	1ae12823          	sw	a4,432(sp)
    5474:	ffd28713          	addi	a4,t0,-3 # 1fffd <BIN_SIZE+0xdc2b>
    5478:	21812803          	lw	a6,536(sp)
    547c:	10e12223          	sw	a4,260(sp)
    5480:	21812703          	lw	a4,536(sp)
    5484:	ffea8893          	addi	a7,s5,-2
    5488:	0711                	c.addi	a4,4
    548a:	20012303          	lw	t1,512(sp)
    548e:	0806                	c.slli	a6,0x1
    5490:	40580833          	sub	a6,a6,t0
    5494:	ffe8fe13          	andi	t3,a7,-2
    5498:	d2ba                	c.swsp	a4,100(sp)
    549a:	21812703          	lw	a4,536(sp)
    549e:	0311                	c.addi	t1,4
    54a0:	8cb2                	c.mv	s9,a2
    54a2:	11012423          	sw	a6,264(sp)
    54a6:	014e0633          	add	a2,t3,s4
    54aa:	0017f813          	andi	a6,a5,1
    54ae:	00870393          	addi	t2,a4,8 # 40000008 <_DATA_LMA_START+0x1fff5170>
    54b2:	8c52                	c.mv	s8,s4
    54b4:	932e                	c.add	t1,a1
    54b6:	1771                	c.addi	a4,-4
    54b8:	15012e23          	sw	a6,348(sp)
    54bc:	16c12023          	sw	a2,352(sp)
    54c0:	00129813          	slli	a6,t0,0x1
    54c4:	001a9613          	slli	a2,s5,0x1
    54c8:	1cf12623          	sw	a5,460(sp)
    54cc:	20012783          	lw	a5,512(sp)
    54d0:	15612a23          	sw	s6,340(sp)
    54d4:	1b012a23          	sw	a6,436(sp)
    54d8:	ddb6                	c.swsp	a3,248(sp)
    54da:	dbaa                	c.swsp	a0,244(sp)
    54dc:	df9a                	c.swsp	t1,252(sp)
    54de:	10c12623          	sw	a2,268(sp)
    54e2:	d5ae                	c.swsp	a1,232(sp)
    54e4:	d0ba                	c.swsp	a4,96(sp)
    54e6:	1b112c23          	sw	a7,440(sp)
    54ea:	1ab12e23          	sw	a1,444(sp)
    54ee:	1d412023          	sw	s4,448(sp)
    54f2:	1cd12223          	sw	a3,452(sp)
    54f6:	1ca12423          	sw	a0,456(sp)
    54fa:	17512223          	sw	s5,356(sp)
    54fe:	d49e                	c.swsp	t2,104(sp)
    5500:	d6e2                	c.swsp	s8,108(sp)
    5502:	12f1                	c.addi	t0,-4
    5504:	01000b33          	add	s6,zero,a6
    5508:	64f05c63          	blez	a5,5b60 <riscv_nn_mat_mult_nt_t_s8+0x75c>
    550c:	562e                	c.lwsp	a2,232(sp)
    550e:	85be                	c.mv	a1,a5
    5510:	4701                	c.li	a4,0
    5512:	87b2                	c.mv	a5,a2
    5514:	4681                	c.li	a3,0
    5516:	00b60533          	add	a0,a2,a1
    551a:	882e                	c.mv	a6,a1
    551c:	01078633          	add	a2,a5,a6
    5520:	00078583          	lb	a1,0(a5) # 80000000 <_DATA_LMA_START+0x5fff5168>
    5524:	00060603          	lb	a2,0(a2)
    5528:	0785                	c.addi	a5,1
    552a:	96ae                	c.add	a3,a1
    552c:	9732                	c.add	a4,a2
    552e:	fef517e3          	bne	a0,a5,551c <riscv_nn_mat_mult_nt_t_s8+0x118>
    5532:	02db87b3          	mul	a5,s7,a3
    5536:	d9be                	c.swsp	a5,240(sp)
    5538:	02eb87b3          	mul	a5,s7,a4
    553c:	0ef12623          	sw	a5,236(sp)
    5540:	15012783          	lw	a5,336(sp)
    5544:	cf81                	c.beqz	a5,555c <riscv_nn_mat_mult_nt_t_s8+0x158>
    5546:	56ce                	c.lwsp	a3,240(sp)
    5548:	000ca703          	lw	a4,0(s9)
    554c:	004ca783          	lw	a5,4(s9)
    5550:	9736                	c.add	a4,a3
    5552:	d9ba                	c.swsp	a4,240(sp)
    5554:	573e                	c.lwsp	a4,236(sp)
    5556:	97ba                	c.add	a5,a4
    5558:	0ef12623          	sw	a5,236(sp)
    555c:	15812783          	lw	a5,344(sp)
    5560:	3c0788e3          	beqz	a5,6130 <riscv_nn_mat_mult_nt_t_s8+0xd2c>
    5564:	16412703          	lw	a4,356(sp)
    5568:	56f6                	c.lwsp	a3,124(sp)
    556a:	9762                	c.add	a4,s8
    556c:	d8ba                	c.swsp	a4,112(sp)
    556e:	572e                	c.lwsp	a4,232(sp)
    5570:	15412583          	lw	a1,340(sp)
    5574:	9736                	c.add	a4,a3
    5576:	14e12023          	sw	a4,320(sp)
    557a:	dcbe                	c.swsp	a5,120(sp)
    557c:	15612223          	sw	s6,324(sp)
    5580:	15912423          	sw	s9,328(sp)
    5584:	15812623          	sw	s8,332(sp)
    5588:	21712223          	sw	s7,516(sp)
    558c:	10512023          	sw	t0,256(sp)
    5590:	20012783          	lw	a5,512(sp)
    5594:	473d                	c.li	a4,15
    5596:	5cf75b63          	bge	a4,a5,5b6c <riscv_nn_mat_mult_nt_t_s8+0x768>
    559a:	57f6                	c.lwsp	a5,124(sp)
    559c:	573e                	c.lwsp	a4,236(sp)
    559e:	00f58533          	add	a0,a1,a5
    55a2:	582e                	c.lwsp	a6,232(sp)
    55a4:	57ce                	c.lwsp	a5,240(sp)
    55a6:	58fe                	c.lwsp	a7,252(sp)
    55a8:	863a                	c.mv	a2,a4
    55aa:	86be                	c.mv	a3,a5
    55ac:	873e                	c.mv	a4,a5
    55ae:	ceaa                	c.swsp	a0,92(sp)
    55b0:	87b2                	c.mv	a5,a2
    55b2:	852e                	c.mv	a0,a1
    55b4:	85c2                	c.mv	a1,a6
    55b6:	8846                	c.mv	a6,a7
    55b8:	c47a                	c.swsp	t5,8(sp)
    55ba:	c67e                	c.swsp	t6,12(sp)
    55bc:	0005a303          	lw	t1,0(a1)
    55c0:	ac9303ff          	sunpkd820	t2,t1
    55c4:	00052283          	lw	t0,0(a0)
    55c8:	ac928e7f          	sunpkd820	t3,t0
    55cc:	ffc80893          	addi	a7,a6,-4 # 3ffffffc <_DATA_LMA_START+0x1fff5164>
    55d0:	0008a883          	lw	a7,0(a7)
    55d4:	891a                	c.mv	s2,t1
    55d6:	899a                	c.mv	s3,t1
    55d8:	de89037f          	wexti	t1,s2,8
    55dc:	ac93037f          	sunpkd820	t1,t1
    55e0:	8d16                	c.mv	s10,t0
    55e2:	8d96                	c.mv	s11,t0
    55e4:	de8d02ff          	wexti	t0,s10,8
    55e8:	ac9282ff          	sunpkd820	t0,t0
    55ec:	487e16ff          	kmada	a3,t3,t2
    55f0:	ac988eff          	sunpkd820	t4,a7
    55f4:	486296ff          	kmada	a3,t0,t1
    55f8:	8446                	c.mv	s0,a7
    55fa:	84c6                	c.mv	s1,a7
    55fc:	de8408ff          	wexti	a7,s0,8
    5600:	ac9888ff          	sunpkd820	a7,a7
    5604:	49de167f          	kmada	a2,t3,t4
    5608:	4912967f          	kmada	a2,t0,a7
    560c:	21812e03          	lw	t3,536(sp)
    5610:	01c502b3          	add	t0,a0,t3
    5614:	0002a283          	lw	t0,0(t0)
    5618:	ac928e7f          	sunpkd820	t3,t0
    561c:	c416                	c.swsp	t0,8(sp)
    561e:	c616                	c.swsp	t0,12(sp)
    5620:	4f22                	c.lwsp	t5,8(sp)
    5622:	4fb2                	c.lwsp	t6,12(sp)
    5624:	de8f02ff          	wexti	t0,t5,8
    5628:	ac9282ff          	sunpkd820	t0,t0
    562c:	487e177f          	kmada	a4,t3,t2
    5630:	49de17ff          	kmada	a5,t3,t4
    5634:	4862977f          	kmada	a4,t0,t1
    5638:	00458313          	addi	t1,a1,4
    563c:	00032303          	lw	t1,0(t1)
    5640:	491297ff          	kmada	a5,t0,a7
    5644:	00082883          	lw	a7,0(a6)
    5648:	ac9303ff          	sunpkd820	t2,t1
    564c:	00450293          	addi	t0,a0,4
    5650:	0002a283          	lw	t0,0(t0)
    5654:	ac928e7f          	sunpkd820	t3,t0
    5658:	c81a                	c.swsp	t1,16(sp)
    565a:	ca1a                	c.swsp	t1,20(sp)
    565c:	4f42                	c.lwsp	t5,16(sp)
    565e:	4fd2                	c.lwsp	t6,20(sp)
    5660:	de8f037f          	wexti	t1,t5,8
    5664:	ac93037f          	sunpkd820	t1,t1
    5668:	cc16                	c.swsp	t0,24(sp)
    566a:	ce16                	c.swsp	t0,28(sp)
    566c:	4f62                	c.lwsp	t5,24(sp)
    566e:	4ff2                	c.lwsp	t6,28(sp)
    5670:	de8f02ff          	wexti	t0,t5,8
    5674:	ac9282ff          	sunpkd820	t0,t0
    5678:	487e16ff          	kmada	a3,t3,t2
    567c:	ac988eff          	sunpkd820	t4,a7
    5680:	486296ff          	kmada	a3,t0,t1
    5684:	d046                	c.swsp	a7,32(sp)
    5686:	d246                	c.swsp	a7,36(sp)
    5688:	5f02                	c.lwsp	t5,32(sp)
    568a:	5f92                	c.lwsp	t6,36(sp)
    568c:	de8f08ff          	wexti	a7,t5,8
    5690:	ac9888ff          	sunpkd820	a7,a7
    5694:	49de167f          	kmada	a2,t3,t4
    5698:	4912967f          	kmada	a2,t0,a7
    569c:	5e16                	c.lwsp	t3,100(sp)
    569e:	01c502b3          	add	t0,a0,t3
    56a2:	0002a283          	lw	t0,0(t0)
    56a6:	ac928e7f          	sunpkd820	t3,t0
    56aa:	8c16                	c.mv	s8,t0
    56ac:	8c96                	c.mv	s9,t0
    56ae:	de8c02ff          	wexti	t0,s8,8
    56b2:	ac9282ff          	sunpkd820	t0,t0
    56b6:	487e177f          	kmada	a4,t3,t2
    56ba:	49de17ff          	kmada	a5,t3,t4
    56be:	4862977f          	kmada	a4,t0,t1
    56c2:	00858313          	addi	t1,a1,8
    56c6:	00032303          	lw	t1,0(t1)
    56ca:	491297ff          	kmada	a5,t0,a7
    56ce:	00480293          	addi	t0,a6,4
    56d2:	0002a883          	lw	a7,0(t0)
    56d6:	ac9303ff          	sunpkd820	t2,t1
    56da:	00850293          	addi	t0,a0,8
    56de:	0002a283          	lw	t0,0(t0)
    56e2:	ac928e7f          	sunpkd820	t3,t0
    56e6:	8b1a                	c.mv	s6,t1
    56e8:	8b9a                	c.mv	s7,t1
    56ea:	de8b037f          	wexti	t1,s6,8
    56ee:	ac93037f          	sunpkd820	t1,t1
    56f2:	8a16                	c.mv	s4,t0
    56f4:	8a96                	c.mv	s5,t0
    56f6:	de8a02ff          	wexti	t0,s4,8
    56fa:	ac9282ff          	sunpkd820	t0,t0
    56fe:	487e16ff          	kmada	a3,t3,t2
    5702:	ac988eff          	sunpkd820	t4,a7
    5706:	486296ff          	kmada	a3,t0,t1
    570a:	d446                	c.swsp	a7,40(sp)
    570c:	d646                	c.swsp	a7,44(sp)
    570e:	5f22                	c.lwsp	t5,40(sp)
    5710:	5fb2                	c.lwsp	t6,44(sp)
    5712:	de8f08ff          	wexti	a7,t5,8
    5716:	ac9888ff          	sunpkd820	a7,a7
    571a:	49de167f          	kmada	a2,t3,t4
    571e:	4912967f          	kmada	a2,t0,a7
    5722:	5e26                	c.lwsp	t3,104(sp)
    5724:	01c502b3          	add	t0,a0,t3
    5728:	0002a283          	lw	t0,0(t0)
    572c:	ac928e7f          	sunpkd820	t3,t0
    5730:	d816                	c.swsp	t0,48(sp)
    5732:	da16                	c.swsp	t0,52(sp)
    5734:	5f42                	c.lwsp	t5,48(sp)
    5736:	5fd2                	c.lwsp	t6,52(sp)
    5738:	de8f02ff          	wexti	t0,t5,8
    573c:	ac9282ff          	sunpkd820	t0,t0
    5740:	487e177f          	kmada	a4,t3,t2
    5744:	49de17ff          	kmada	a5,t3,t4
    5748:	4862977f          	kmada	a4,t0,t1
    574c:	00c58313          	addi	t1,a1,12
    5750:	00032303          	lw	t1,0(t1)
    5754:	05c1                	c.addi	a1,16
    5756:	491297ff          	kmada	a5,t0,a7
    575a:	00880293          	addi	t0,a6,8
    575e:	0002a883          	lw	a7,0(t0)
    5762:	ac930eff          	sunpkd820	t4,t1
    5766:	00c50293          	addi	t0,a0,12
    576a:	0002a283          	lw	t0,0(t0)
    576e:	0541                	c.addi	a0,16
    5770:	ac9283ff          	sunpkd820	t2,t0
    5774:	dc1a                	c.swsp	t1,56(sp)
    5776:	de1a                	c.swsp	t1,60(sp)
    5778:	5f62                	c.lwsp	t5,56(sp)
    577a:	5ff2                	c.lwsp	t6,60(sp)
    577c:	de8f037f          	wexti	t1,t5,8
    5780:	ac93037f          	sunpkd820	t1,t1
    5784:	c096                	c.swsp	t0,64(sp)
    5786:	c296                	c.swsp	t0,68(sp)
    5788:	4f06                	c.lwsp	t5,64(sp)
    578a:	4f96                	c.lwsp	t6,68(sp)
    578c:	de8f02ff          	wexti	t0,t5,8
    5790:	ac9282ff          	sunpkd820	t0,t0
    5794:	49d396ff          	kmada	a3,t2,t4
    5798:	ac988e7f          	sunpkd820	t3,a7
    579c:	486296ff          	kmada	a3,t0,t1
    57a0:	c4c6                	c.swsp	a7,72(sp)
    57a2:	c6c6                	c.swsp	a7,76(sp)
    57a4:	4f26                	c.lwsp	t5,72(sp)
    57a6:	4fb6                	c.lwsp	t6,76(sp)
    57a8:	de8f08ff          	wexti	a7,t5,8
    57ac:	ac9888ff          	sunpkd820	a7,a7
    57b0:	49c3967f          	kmada	a2,t2,t3
    57b4:	4912967f          	kmada	a2,t0,a7
    57b8:	5f06                	c.lwsp	t5,96(sp)
    57ba:	01e502b3          	add	t0,a0,t5
    57be:	0002a283          	lw	t0,0(t0)
    57c2:	ac9283ff          	sunpkd820	t2,t0
    57c6:	c896                	c.swsp	t0,80(sp)
    57c8:	ca96                	c.swsp	t0,84(sp)
    57ca:	4f46                	c.lwsp	t5,80(sp)
    57cc:	4fd6                	c.lwsp	t6,84(sp)
    57ce:	de8f02ff          	wexti	t0,t5,8
    57d2:	ac9282ff          	sunpkd820	t0,t0
    57d6:	49d3977f          	kmada	a4,t2,t4
    57da:	49c397ff          	kmada	a5,t2,t3
    57de:	4862977f          	kmada	a4,t0,t1
    57e2:	491297ff          	kmada	a5,t0,a7
    57e6:	48f6                	c.lwsp	a7,92(sp)
    57e8:	0841                	c.addi	a6,16
    57ea:	dd1519e3          	bne	a0,a7,55bc <riscv_nn_mat_mult_nt_t_s8+0x1b8>
    57ee:	85b2                	c.mv	a1,a2
    57f0:	c55a                	c.swsp	s6,136(sp)
    57f2:	c75e                	c.swsp	s7,140(sp)
    57f4:	4f22                	c.lwsp	t5,8(sp)
    57f6:	4fb2                	c.lwsp	t6,12(sp)
    57f8:	14012b83          	lw	s7,320(sp)
    57fc:	5b76                	c.lwsp	s6,124(sp)
    57fe:	863e                	c.mv	a2,a5
    5800:	8546                	c.mv	a0,a7
    5802:	87b6                	c.mv	a5,a3
    5804:	86ba                	c.mv	a3,a4
    5806:	872e                	c.mv	a4,a1
    5808:	c162                	c.swsp	s8,128(sp)
    580a:	c366                	c.swsp	s9,132(sp)
    580c:	c952                	c.swsp	s4,144(sp)
    580e:	cb56                	c.swsp	s5,148(sp)
    5810:	10412583          	lw	a1,260(sp)
    5814:	34bb5a63          	bge	s6,a1,5b68 <riscv_nn_mat_mult_nt_t_s8+0x764>
    5818:	10012803          	lw	a6,256(sp)
    581c:	d3fe                	c.swsp	t6,228(sp)
    581e:	41680c33          	sub	s8,a6,s6
    5822:	002c5c13          	srli	s8,s8,0x2
    5826:	001c0c93          	addi	s9,s8,1 # c0000001 <_DATA_LMA_START+0x9fff5169>
    582a:	0c8a                	c.slli	s9,0x2
    582c:	019505b3          	add	a1,a0,s9
    5830:	5f86                	c.lwsp	t6,96(sp)
    5832:	c7ce                	c.swsp	s3,204(sp)
    5834:	cfa6                	c.swsp	s1,220(sp)
    5836:	89c2                	c.mv	s3,a6
    5838:	84ae                	c.mv	s1,a1
    583a:	85de                	c.mv	a1,s7
    583c:	c45a                	c.swsp	s6,8(sp)
    583e:	cede                	c.swsp	s7,92(sp)
    5840:	dd62                	c.swsp	s8,184(sp)
    5842:	c1e6                	c.swsp	s9,192(sp)
    5844:	c5ca                	c.swsp	s2,200(sp)
    5846:	c9ea                	c.swsp	s10,208(sp)
    5848:	cbee                	c.swsp	s11,212(sp)
    584a:	cda2                	c.swsp	s0,216(sp)
    584c:	0fe12023          	sw	t5,224(sp)
    5850:	0005a303          	lw	t1,0(a1)
    5854:	0591                	c.addi	a1,4
    5856:	ac9302ff          	sunpkd820	t0,t1
    585a:	00052803          	lw	a6,0(a0)
    585e:	0511                	c.addi	a0,4
    5860:	ac980dff          	sunpkd820	s11,a6
    5864:	013588b3          	add	a7,a1,s3
    5868:	0008a883          	lw	a7,0(a7)
    586c:	8e1a                	c.mv	t3,t1
    586e:	8e9a                	c.mv	t4,t1
    5870:	de8e03ff          	wexti	t2,t3,8
    5874:	ac9383ff          	sunpkd820	t2,t2
    5878:	8a42                	c.mv	s4,a6
    587a:	8ac2                	c.mv	s5,a6
    587c:	de8a087f          	wexti	a6,s4,8
    5880:	ac98087f          	sunpkd820	a6,a6
    5884:	485d97ff          	kmada	a5,s11,t0
    5888:	ac98837f          	sunpkd820	t1,a7
    588c:	487817ff          	kmada	a5,a6,t2
    5890:	8b46                	c.mv	s6,a7
    5892:	8bc6                	c.mv	s7,a7
    5894:	de8b08ff          	wexti	a7,s6,8
    5898:	ac9888ff          	sunpkd820	a7,a7
    589c:	486d977f          	kmada	a4,s11,t1
    58a0:	4918177f          	kmada	a4,a6,a7
    58a4:	01f50833          	add	a6,a0,t6
    58a8:	00082803          	lw	a6,0(a6)
    58ac:	ac980dff          	sunpkd820	s11,a6
    58b0:	8c42                	c.mv	s8,a6
    58b2:	8cc2                	c.mv	s9,a6
    58b4:	de8c087f          	wexti	a6,s8,8
    58b8:	ac98087f          	sunpkd820	a6,a6
    58bc:	485d96ff          	kmada	a3,s11,t0
    58c0:	486d967f          	kmada	a2,s11,t1
    58c4:	487816ff          	kmada	a3,a6,t2
    58c8:	4918167f          	kmada	a2,a6,a7
    58cc:	f89512e3          	bne	a0,s1,5850 <riscv_nn_mat_mult_nt_t_s8+0x44c>
    58d0:	d55a                	c.swsp	s6,168(sp)
    58d2:	d962                	c.swsp	s8,176(sp)
    58d4:	4b22                	c.lwsp	s6,8(sp)
    58d6:	5c6a                	c.lwsp	s8,184(sp)
    58d8:	d75e                	c.swsp	s7,172(sp)
    58da:	db66                	c.swsp	s9,180(sp)
    58dc:	4bf6                	c.lwsp	s7,92(sp)
    58de:	4c8e                	c.lwsp	s9,192(sp)
    58e0:	85a6                	c.mv	a1,s1
    58e2:	0b11                	c.addi	s6,4
    58e4:	0c0a                	c.slli	s8,0x2
    58e6:	492e                	c.lwsp	s2,200(sp)
    58e8:	49be                	c.lwsp	s3,204(sp)
    58ea:	4d4e                	c.lwsp	s10,208(sp)
    58ec:	4dde                	c.lwsp	s11,212(sp)
    58ee:	446e                	c.lwsp	s0,216(sp)
    58f0:	44fe                	c.lwsp	s1,220(sp)
    58f2:	5f0e                	c.lwsp	t5,224(sp)
    58f4:	5f9e                	c.lwsp	t6,228(sp)
    58f6:	9b62                	c.add	s6,s8
    58f8:	9be6                	c.add	s7,s9
    58fa:	cd72                	c.swsp	t3,152(sp)
    58fc:	cf76                	c.swsp	t4,156(sp)
    58fe:	d152                	c.swsp	s4,160(sp)
    5900:	0b512223          	sw	s5,164(sp)
    5904:	20012503          	lw	a0,512(sp)
    5908:	0aab5a63          	bge	s6,a0,59bc <riscv_nn_mat_mult_nt_t_s8+0x5b8>
    590c:	00ab8833          	add	a6,s7,a0
    5910:	832a                	c.mv	t1,a0
    5912:	21812503          	lw	a0,536(sp)
    5916:	00080883          	lb	a7,0(a6)
    591a:	952e                	c.add	a0,a1
    591c:	00058c03          	lb	s8,0(a1)
    5920:	00050e03          	lb	t3,0(a0)
    5924:	000b8e83          	lb	t4,0(s7)
    5928:	c588977f          	maddr32	a4,a7,s8
    592c:	c51e167f          	maddr32	a2,t3,a7
    5930:	001b0893          	addi	a7,s6,1 # 40000001 <_DATA_LMA_START+0x1fff5169>
    5934:	c58e97ff          	maddr32	a5,t4,s8
    5938:	c5de16ff          	maddr32	a3,t3,t4
    593c:	0668da63          	bge	a7,t1,59b0 <riscv_nn_mat_mult_nt_t_s8+0x5ac>
    5940:	00180883          	lb	a7,1(a6)
    5944:	00158c03          	lb	s8,1(a1)
    5948:	00150e03          	lb	t3,1(a0)
    594c:	001b8e83          	lb	t4,1(s7)
    5950:	c588977f          	maddr32	a4,a7,s8
    5954:	c51e167f          	maddr32	a2,t3,a7
    5958:	002b0893          	addi	a7,s6,2
    595c:	c58e97ff          	maddr32	a5,t4,s8
    5960:	c5de16ff          	maddr32	a3,t3,t4
    5964:	0468d663          	bge	a7,t1,59b0 <riscv_nn_mat_mult_nt_t_s8+0x5ac>
    5968:	00280883          	lb	a7,2(a6)
    596c:	00258c03          	lb	s8,2(a1)
    5970:	00250e03          	lb	t3,2(a0)
    5974:	002b8e83          	lb	t4,2(s7)
    5978:	c588977f          	maddr32	a4,a7,s8
    597c:	c51e167f          	maddr32	a2,t3,a7
    5980:	003b0893          	addi	a7,s6,3
    5984:	c58e97ff          	maddr32	a5,t4,s8
    5988:	c5de16ff          	maddr32	a3,t3,t4
    598c:	0268d263          	bge	a7,t1,59b0 <riscv_nn_mat_mult_nt_t_s8+0x5ac>
    5990:	00358883          	lb	a7,3(a1)
    5994:	003b8e03          	lb	t3,3(s7)
    5998:	00380803          	lb	a6,3(a6)
    599c:	00350503          	lb	a0,3(a0)
    59a0:	c5c897ff          	maddr32	a5,a7,t3
    59a4:	c508977f          	maddr32	a4,a7,a6
    59a8:	c4ae16ff          	maddr32	a3,t3,a0
    59ac:	c4a8167f          	maddr32	a2,a6,a0
    59b0:	20012503          	lw	a0,512(sp)
    59b4:	41650b33          	sub	s6,a0,s6
    59b8:	016585b3          	add	a1,a1,s6
    59bc:	555e                	c.lwsp	a0,244(sp)
    59be:	4281                	c.li	t0,0
    59c0:	00052b03          	lw	s6,0(a0)
    59c4:	00452e83          	lw	t4,4(a0)
    59c8:	556e                	c.lwsp	a0,248(sp)
    59ca:	f25b0e7f          	maxw	t3,s6,t0
    59ce:	00052883          	lw	a7,0(a0)
    59d2:	4148                	c.lw	a0,4(a0)
    59d4:	f25e887f          	maxw	a6,t4,t0
    59d8:	01c797b3          	sll	a5,a5,t3
    59dc:	01071733          	sll	a4,a4,a6
    59e0:	40000c37          	lui	s8,0x40000
    59e4:	4c81                	c.li	s9,0
    59e6:	40000337          	lui	t1,0x40000
    59ea:	4381                	c.li	t2,0
    59ec:	85179c7f          	smar64	s8,a5,a7
    59f0:	84a7137f          	smar64	t1,a4,a0
    59f4:	01c69e33          	sll	t3,a3,t3
    59f8:	01061833          	sll	a6,a2,a6
    59fc:	4681                	c.li	a3,0
    59fe:	40000637          	lui	a2,0x40000
    5a02:	40000737          	lui	a4,0x40000
    5a06:	4781                	c.li	a5,0
    5a08:	851e167f          	smar64	a2,t3,a7
    5a0c:	84a8177f          	smar64	a4,a6,a0
    5a10:	41600b33          	neg	s6,s6
    5a14:	41d00eb3          	neg	t4,t4
    5a18:	f25b0b7f          	maxw	s6,s6,t0
    5a1c:	f25e8eff          	maxw	t4,t4,t0
    5a20:	4505                	c.li	a0,1
    5a22:	01651e33          	sll	t3,a0,s6
    5a26:	01d518b3          	sll	a7,a0,t4
    5a2a:	dff6067f          	wexti	a2,a2,31
    5a2e:	dff3057f          	wexti	a0,t1,31
    5a32:	dff7077f          	wexti	a4,a4,31
    5a36:	dffc087f          	wexti	a6,s8,31
    5a3a:	1e7d                	c.addi	t3,-1
    5a3c:	18fd                	c.addi	a7,-1
    5a3e:	401e5b93          	srai	s7,t3,0x1
    5a42:	4018d693          	srai	a3,a7,0x1
    5a46:	00052793          	slti	a5,a0,0
    5a4a:	00082c13          	slti	s8,a6,0
    5a4e:	00062393          	slti	t2,a2,0
    5a52:	00072a13          	slti	s4,a4,0
    5a56:	018b8333          	add	t1,s7,s8
    5a5a:	00f682b3          	add	t0,a3,a5
    5a5e:	00a8fc33          	and	s8,a7,a0
    5a62:	010e7cb3          	and	s9,t3,a6
    5a66:	00e8f8b3          	and	a7,a7,a4
    5a6a:	00ce7e33          	and	t3,t3,a2
    5a6e:	96d2                	c.add	a3,s4
    5a70:	9b9e                	c.add	s7,t2
    5a72:	0116a8b3          	slt	a7,a3,a7
    5a76:	416857b3          	sra	a5,a6,s6
    5a7a:	20812683          	lw	a3,520(sp)
    5a7e:	01932cb3          	slt	s9,t1,s9
    5a82:	41d55533          	sra	a0,a0,t4
    5a86:	0182ac33          	slt	s8,t0,s8
    5a8a:	41665633          	sra	a2,a2,s6
    5a8e:	01cbae33          	slt	t3,s7,t3
    5a92:	41d75733          	sra	a4,a4,t4
    5a96:	97e6                	c.add	a5,s9
    5a98:	9562                	c.add	a0,s8
    5a9a:	9672                	c.add	a2,t3
    5a9c:	9746                	c.add	a4,a7
    5a9e:	97b6                	c.add	a5,a3
    5aa0:	9536                	c.add	a0,a3
    5aa2:	9636                	c.add	a2,a3
    5aa4:	9736                	c.add	a4,a3
    5aa6:	20c12683          	lw	a3,524(sp)
    5aaa:	f2f687ff          	maxw	a5,a3,a5
    5aae:	f2a6857f          	maxw	a0,a3,a0
    5ab2:	f2c6867f          	maxw	a2,a3,a2
    5ab6:	f2e6877f          	maxw	a4,a3,a4
    5aba:	21012683          	lw	a3,528(sp)
    5abe:	f0f687ff          	minw	a5,a3,a5
    5ac2:	f0a6857f          	minw	a0,a3,a0
    5ac6:	56b6                	c.lwsp	a3,108(sp)
    5ac8:	00f68023          	sb	a5,0(a3) # ffff8000 <_DATA_LMA_START+0xdffed168>
    5acc:	00a680a3          	sb	a0,1(a3)
    5ad0:	87b6                	c.mv	a5,a3
    5ad2:	21012683          	lw	a3,528(sp)
    5ad6:	f0c6867f          	minw	a2,a3,a2
    5ada:	f0e6877f          	minw	a4,a3,a4
    5ade:	56c6                	c.lwsp	a3,112(sp)
    5ae0:	00c68023          	sb	a2,0(a3)
    5ae4:	10c12603          	lw	a2,268(sp)
    5ae8:	00e680a3          	sb	a4,1(a3)
    5aec:	97b2                	c.add	a5,a2
    5aee:	5766                	c.lwsp	a4,120(sp)
    5af0:	d6be                	c.swsp	a5,108(sp)
    5af2:	10812783          	lw	a5,264(sp)
    5af6:	177d                	c.addi	a4,-1
    5af8:	95be                	c.add	a1,a5
    5afa:	00c687b3          	add	a5,a3,a2
    5afe:	dcba                	c.swsp	a4,120(sp)
    5b00:	d8be                	c.swsp	a5,112(sp)
    5b02:	a80717e3          	bnez	a4,5590 <riscv_nn_mat_mult_nt_t_s8+0x18c>
    5b06:	14c12c03          	lw	s8,332(sp)
    5b0a:	1b012783          	lw	a5,432(sp)
    5b0e:	14412b03          	lw	s6,324(sp)
    5b12:	14812c83          	lw	s9,328(sp)
    5b16:	20412b83          	lw	s7,516(sp)
    5b1a:	10012283          	lw	t0,256(sp)
    5b1e:	97e2                	c.add	a5,s8
    5b20:	06f12623          	sw	a5,108(sp)
    5b24:	15c12783          	lw	a5,348(sp)
    5b28:	04079a63          	bnez	a5,5b7c <riscv_nn_mat_mult_nt_t_s8+0x778>
    5b2c:	576e                	c.lwsp	a4,248(sp)
    5b2e:	57ae                	c.lwsp	a5,232(sp)
    5b30:	0721                	c.addi	a4,8
    5b32:	ddba                	c.swsp	a4,248(sp)
    5b34:	575e                	c.lwsp	a4,244(sp)
    5b36:	97da                	c.add	a5,s6
    5b38:	0721                	c.addi	a4,8
    5b3a:	dbba                	c.swsp	a4,244(sp)
    5b3c:	577e                	c.lwsp	a4,252(sp)
    5b3e:	d5be                	c.swsp	a5,232(sp)
    5b40:	975a                	c.add	a4,s6
    5b42:	dfba                	c.swsp	a4,252(sp)
    5b44:	16012703          	lw	a4,352(sp)
    5b48:	002c0793          	addi	a5,s8,2 # 40000002 <_DATA_LMA_START+0x1fff516a>
    5b4c:	0ca1                	c.addi	s9,8
    5b4e:	4b870563          	beq	a4,s8,5ff8 <riscv_nn_mat_mult_nt_t_s8+0xbf4>
    5b52:	8c3e                	c.mv	s8,a5
    5b54:	20012783          	lw	a5,512(sp)
    5b58:	07812623          	sw	s8,108(sp)
    5b5c:	9af048e3          	bgtz	a5,550c <riscv_nn_mat_mult_nt_t_s8+0x108>
    5b60:	d782                	c.swsp	zero,236(sp)
    5b62:	d982                	c.swsp	zero,240(sp)
    5b64:	9ddff06f          	j	5540 <riscv_nn_mat_mult_nt_t_s8+0x13c>
    5b68:	85aa                	c.mv	a1,a0
    5b6a:	bb69                	c.j	5904 <riscv_nn_mat_mult_nt_t_s8+0x500>
    5b6c:	573e                	c.lwsp	a4,236(sp)
    5b6e:	57ce                	c.lwsp	a5,240(sp)
    5b70:	5bae                	c.lwsp	s7,232(sp)
    5b72:	852e                	c.mv	a0,a1
    5b74:	863a                	c.mv	a2,a4
    5b76:	86be                	c.mv	a3,a5
    5b78:	4b01                	c.li	s6,0
    5b7a:	b959                	c.j	5810 <riscv_nn_mat_mult_nt_t_s8+0x40c>
    5b7c:	20012783          	lw	a5,512(sp)
    5b80:	473d                	c.li	a4,15
    5b82:	5af75f63          	bge	a4,a5,6140 <riscv_nn_mat_mult_nt_t_s8+0xd3c>
    5b86:	57f6                	c.lwsp	a5,124(sp)
    5b88:	5e2e                	c.lwsp	t3,232(sp)
    5b8a:	00f58eb3          	add	t4,a1,a5
    5b8e:	c3ee                	c.swsp	s11,196(sp)
    5b90:	cbfe                	c.swsp	t6,212(sp)
    5b92:	57fe                	c.lwsp	a5,252(sp)
    5b94:	5dbe                	c.lwsp	s11,236(sp)
    5b96:	5fce                	c.lwsp	t6,240(sp)
    5b98:	df4e                	c.swsp	s3,188(sp)
    5b9a:	c7a6                	c.swsp	s1,204(sp)
    5b9c:	89f2                	c.mv	s3,t3
    5b9e:	84ae                	c.mv	s1,a1
    5ba0:	ceda                	c.swsp	s6,92(sp)
    5ba2:	c476                	c.swsp	t4,8(sp)
    5ba4:	dce6                	c.swsp	s9,120(sp)
    5ba6:	d8e2                	c.swsp	s8,112(sp)
    5ba8:	21712223          	sw	s7,516(sp)
    5bac:	dd4a                	c.swsp	s2,184(sp)
    5bae:	c1ea                	c.swsp	s10,192(sp)
    5bb0:	c5a2                	c.swsp	s0,200(sp)
    5bb2:	c9fa                	c.swsp	t5,208(sp)
    5bb4:	0c512c23          	sw	t0,216(sp)
    5bb8:	0009a603          	lw	a2,0(s3) # c0000000 <_DATA_LMA_START+0x9fff5168>
    5bbc:	ffc78293          	addi	t0,a5,-4
    5bc0:	0002a283          	lw	t0,0(t0)
    5bc4:	4098                	c.lw	a4,0(s1)
    5bc6:	ac96047f          	sunpkd820	s0,a2
    5bca:	ac9706ff          	sunpkd820	a3,a4
    5bce:	ac928f7f          	sunpkd820	t5,t0
    5bd2:	10c12823          	sw	a2,272(sp)
    5bd6:	10c12a23          	sw	a2,276(sp)
    5bda:	11012503          	lw	a0,272(sp)
    5bde:	11412583          	lw	a1,276(sp)
    5be2:	de85067f          	wexti	a2,a0,8
    5be6:	ac96067f          	sunpkd820	a2,a2
    5bea:	10e12c23          	sw	a4,280(sp)
    5bee:	10e12e23          	sw	a4,284(sp)
    5bf2:	11812503          	lw	a0,280(sp)
    5bf6:	11c12583          	lw	a1,284(sp)
    5bfa:	de85077f          	wexti	a4,a0,8
    5bfe:	ac97077f          	sunpkd820	a4,a4
    5c02:	12512023          	sw	t0,288(sp)
    5c06:	12512223          	sw	t0,292(sp)
    5c0a:	12012503          	lw	a0,288(sp)
    5c0e:	12412583          	lw	a1,292(sp)
    5c12:	de8502ff          	wexti	t0,a0,8
    5c16:	ac9282ff          	sunpkd820	t0,t0
    5c1a:	48869fff          	kmada	t6,a3,s0
    5c1e:	48c71fff          	kmada	t6,a4,a2
    5c22:	49e69dff          	kmada	s11,a3,t5
    5c26:	48571dff          	kmada	s11,a4,t0
    5c2a:	00498293          	addi	t0,s3,4
    5c2e:	0002a603          	lw	a2,0(t0)
    5c32:	4398                	c.lw	a4,0(a5)
    5c34:	00448293          	addi	t0,s1,4
    5c38:	0002a283          	lw	t0,0(t0)
    5c3c:	ac9605ff          	sunpkd820	a1,a2
    5c40:	ac9286ff          	sunpkd820	a3,t0
    5c44:	ac97057f          	sunpkd820	a0,a4
    5c48:	8c32                	c.mv	s8,a2
    5c4a:	8cb2                	c.mv	s9,a2
    5c4c:	de8c067f          	wexti	a2,s8,8
    5c50:	ac96067f          	sunpkd820	a2,a2
    5c54:	8b16                	c.mv	s6,t0
    5c56:	8b96                	c.mv	s7,t0
    5c58:	de8b02ff          	wexti	t0,s6,8
    5c5c:	ac9282ff          	sunpkd820	t0,t0
    5c60:	8a3a                	c.mv	s4,a4
    5c62:	8aba                	c.mv	s5,a4
    5c64:	de8a077f          	wexti	a4,s4,8
    5c68:	ac97077f          	sunpkd820	a4,a4
    5c6c:	48b69fff          	kmada	t6,a3,a1
    5c70:	48c29fff          	kmada	t6,t0,a2
    5c74:	48a69dff          	kmada	s11,a3,a0
    5c78:	48e29dff          	kmada	s11,t0,a4
    5c7c:	00898293          	addi	t0,s3,8
    5c80:	0002a603          	lw	a2,0(t0)
    5c84:	00478293          	addi	t0,a5,4
    5c88:	0002a283          	lw	t0,0(t0)
    5c8c:	00848713          	addi	a4,s1,8
    5c90:	4318                	c.lw	a4,0(a4)
    5c92:	ac96047f          	sunpkd820	s0,a2
    5c96:	ac9706ff          	sunpkd820	a3,a4
    5c9a:	ac928f7f          	sunpkd820	t5,t0
    5c9e:	12c12423          	sw	a2,296(sp)
    5ca2:	12c12623          	sw	a2,300(sp)
    5ca6:	12812503          	lw	a0,296(sp)
    5caa:	12c12583          	lw	a1,300(sp)
    5cae:	de85067f          	wexti	a2,a0,8
    5cb2:	ac96067f          	sunpkd820	a2,a2
    5cb6:	12e12823          	sw	a4,304(sp)
    5cba:	12e12a23          	sw	a4,308(sp)
    5cbe:	13012503          	lw	a0,304(sp)
    5cc2:	13412583          	lw	a1,308(sp)
    5cc6:	de85077f          	wexti	a4,a0,8
    5cca:	ac97077f          	sunpkd820	a4,a4
    5cce:	12512c23          	sw	t0,312(sp)
    5cd2:	12512e23          	sw	t0,316(sp)
    5cd6:	13812503          	lw	a0,312(sp)
    5cda:	13c12583          	lw	a1,316(sp)
    5cde:	de8502ff          	wexti	t0,a0,8
    5ce2:	ac9282ff          	sunpkd820	t0,t0
    5ce6:	48869fff          	kmada	t6,a3,s0
    5cea:	48c71fff          	kmada	t6,a4,a2
    5cee:	49e69dff          	kmada	s11,a3,t5
    5cf2:	48571dff          	kmada	s11,a4,t0
    5cf6:	00c98293          	addi	t0,s3,12
    5cfa:	0002a603          	lw	a2,0(t0)
    5cfe:	09c1                	c.addi	s3,16
    5d00:	00878293          	addi	t0,a5,8
    5d04:	0002a283          	lw	t0,0(t0)
    5d08:	00c48713          	addi	a4,s1,12
    5d0c:	4318                	c.lw	a4,0(a4)
    5d0e:	04c1                	c.addi	s1,16
    5d10:	ac9605ff          	sunpkd820	a1,a2
    5d14:	ac9706ff          	sunpkd820	a3,a4
    5d18:	ac92857f          	sunpkd820	a0,t0
    5d1c:	8832                	c.mv	a6,a2
    5d1e:	88b2                	c.mv	a7,a2
    5d20:	de88067f          	wexti	a2,a6,8
    5d24:	ac96067f          	sunpkd820	a2,a2
    5d28:	833a                	c.mv	t1,a4
    5d2a:	83ba                	c.mv	t2,a4
    5d2c:	de83077f          	wexti	a4,t1,8
    5d30:	ac97077f          	sunpkd820	a4,a4
    5d34:	8e16                	c.mv	t3,t0
    5d36:	8e96                	c.mv	t4,t0
    5d38:	de8e02ff          	wexti	t0,t3,8
    5d3c:	ac9282ff          	sunpkd820	t0,t0
    5d40:	48b69fff          	kmada	t6,a3,a1
    5d44:	48c71fff          	kmada	t6,a4,a2
    5d48:	48a69dff          	kmada	s11,a3,a0
    5d4c:	48571dff          	kmada	s11,a4,t0
    5d50:	4722                	c.lwsp	a4,8(sp)
    5d52:	07c1                	c.addi	a5,16
    5d54:	e6e492e3          	bne	s1,a4,5bb8 <riscv_nn_mat_mult_nt_t_s8+0x7b4>
    5d58:	57ae                	c.lwsp	a5,232(sp)
    5d5a:	55f6                	c.lwsp	a1,124(sp)
    5d5c:	d7ee                	c.swsp	s11,236(sp)
    5d5e:	d9fe                	c.swsp	t6,240(sp)
    5d60:	17812423          	sw	s8,360(sp)
    5d64:	17912623          	sw	s9,364(sp)
    5d68:	17612823          	sw	s6,368(sp)
    5d6c:	17712a23          	sw	s7,372(sp)
    5d70:	596a                	c.lwsp	s2,184(sp)
    5d72:	59fa                	c.lwsp	s3,188(sp)
    5d74:	4d0e                	c.lwsp	s10,192(sp)
    5d76:	4d9e                	c.lwsp	s11,196(sp)
    5d78:	442e                	c.lwsp	s0,200(sp)
    5d7a:	44be                	c.lwsp	s1,204(sp)
    5d7c:	4f4e                	c.lwsp	t5,208(sp)
    5d7e:	4fde                	c.lwsp	t6,212(sp)
    5d80:	5c46                	c.lwsp	s8,112(sp)
    5d82:	5ce6                	c.lwsp	s9,120(sp)
    5d84:	4b76                	c.lwsp	s6,92(sp)
    5d86:	20412b83          	lw	s7,516(sp)
    5d8a:	42ee                	c.lwsp	t0,216(sp)
    5d8c:	19d12a23          	sw	t4,404(sp)
    5d90:	00b78533          	add	a0,a5,a1
    5d94:	00e00eb3          	add	t4,zero,a4
    5d98:	17412c23          	sw	s4,376(sp)
    5d9c:	17512e23          	sw	s5,380(sp)
    5da0:	19012023          	sw	a6,384(sp)
    5da4:	19112223          	sw	a7,388(sp)
    5da8:	18612423          	sw	t1,392(sp)
    5dac:	18712623          	sw	t2,396(sp)
    5db0:	19c12823          	sw	t3,400(sp)
    5db4:	10412783          	lw	a5,260(sp)
    5db8:	38f5d263          	bge	a1,a5,613c <riscv_nn_mat_mult_nt_t_s8+0xd38>
    5dbc:	40b287b3          	sub	a5,t0,a1
    5dc0:	0027d613          	srli	a2,a5,0x2
    5dc4:	00160793          	addi	a5,a2,1 # 40000001 <_DATA_LMA_START+0x1fff5169>
    5dc8:	00279813          	slli	a6,a5,0x2
    5dcc:	010e88b3          	add	a7,t4,a6
    5dd0:	ceb2                	c.swsp	a2,92(sp)
    5dd2:	c3a6                	c.swsp	s1,196(sp)
    5dd4:	563e                	c.lwsp	a2,236(sp)
    5dd6:	84ae                	c.mv	s1,a1
    5dd8:	55ce                	c.lwsp	a1,240(sp)
    5dda:	dace                	c.swsp	s3,116(sp)
    5ddc:	df6e                	c.swsp	s11,188(sp)
    5dde:	c7fe                	c.swsp	t6,204(sp)
    5de0:	86aa                	c.mv	a3,a0
    5de2:	83c6                	c.mv	t2,a7
    5de4:	8ade                	c.mv	s5,s7
    5de6:	89aa                	c.mv	s3,a0
    5de8:	8de6                	c.mv	s11,s9
    5dea:	8fda                	c.mv	t6,s6
    5dec:	8a16                	c.mv	s4,t0
    5dee:	c462                	c.swsp	s8,8(sp)
    5df0:	dcc2                	c.swsp	a6,120(sp)
    5df2:	d8ca                	c.swsp	s2,112(sp)
    5df4:	dd6a                	c.swsp	s10,184(sp)
    5df6:	c1a2                	c.swsp	s0,192(sp)
    5df8:	0de12423          	sw	t5,200(sp)
    5dfc:	4288                	c.lw	a0,0(a3)
    5dfe:	0691                	c.addi	a3,4
    5e00:	014687b3          	add	a5,a3,s4
    5e04:	439c                	c.lw	a5,0(a5)
    5e06:	000ea703          	lw	a4,0(t4) # 10000000 <FLASH_SIZE+0xff00000>
    5e0a:	0e91                	c.addi	t4,4
    5e0c:	ac9502ff          	sunpkd820	t0,a0
    5e10:	ac970e7f          	sunpkd820	t3,a4
    5e14:	ac97837f          	sunpkd820	t1,a5
    5e18:	882a                	c.mv	a6,a0
    5e1a:	88aa                	c.mv	a7,a0
    5e1c:	de88057f          	wexti	a0,a6,8
    5e20:	ac95057f          	sunpkd820	a0,a0
    5e24:	8b3a                	c.mv	s6,a4
    5e26:	8bba                	c.mv	s7,a4
    5e28:	de8b077f          	wexti	a4,s6,8
    5e2c:	ac97077f          	sunpkd820	a4,a4
    5e30:	8c3e                	c.mv	s8,a5
    5e32:	8cbe                	c.mv	s9,a5
    5e34:	de8c07ff          	wexti	a5,s8,8
    5e38:	ac9787ff          	sunpkd820	a5,a5
    5e3c:	485e15ff          	kmada	a1,t3,t0
    5e40:	48a715ff          	kmada	a1,a4,a0
    5e44:	486e167f          	kmada	a2,t3,t1
    5e48:	48f7167f          	kmada	a2,a4,a5
    5e4c:	fa7e98e3          	bne	t4,t2,5dfc <riscv_nn_mat_mult_nt_t_s8+0x9f8>
    5e50:	d7b2                	c.swsp	a2,236(sp)
    5e52:	4676                	c.lwsp	a2,92(sp)
    5e54:	d9ae                	c.swsp	a1,240(sp)
    5e56:	19012c23          	sw	a6,408(sp)
    5e5a:	85a6                	c.mv	a1,s1
    5e5c:	5866                	c.lwsp	a6,120(sp)
    5e5e:	854e                	c.mv	a0,s3
    5e60:	00458713          	addi	a4,a1,4
    5e64:	00261793          	slli	a5,a2,0x2
    5e68:	1b612023          	sw	s6,416(sp)
    5e6c:	1b812423          	sw	s8,424(sp)
    5e70:	8b7e                	c.mv	s6,t6
    5e72:	1b912623          	sw	s9,428(sp)
    5e76:	5946                	c.lwsp	s2,112(sp)
    5e78:	8cee                	c.mv	s9,s11
    5e7a:	59d6                	c.lwsp	s3,116(sp)
    5e7c:	440e                	c.lwsp	s0,192(sp)
    5e7e:	449e                	c.lwsp	s1,196(sp)
    5e80:	4f2e                	c.lwsp	t5,200(sp)
    5e82:	4fbe                	c.lwsp	t6,204(sp)
    5e84:	4c22                	c.lwsp	s8,8(sp)
    5e86:	5d6a                	c.lwsp	s10,184(sp)
    5e88:	5dfa                	c.lwsp	s11,188(sp)
    5e8a:	19112e23          	sw	a7,412(sp)
    5e8e:	1b712223          	sw	s7,420(sp)
    5e92:	889e                	c.mv	a7,t2
    5e94:	8bd6                	c.mv	s7,s5
    5e96:	82d2                	c.mv	t0,s4
    5e98:	00e785b3          	add	a1,a5,a4
    5e9c:	01050533          	add	a0,a0,a6
    5ea0:	20012783          	lw	a5,512(sp)
    5ea4:	08f5da63          	bge	a1,a5,5f38 <riscv_nn_mat_mult_nt_t_s8+0xb34>
    5ea8:	00f50833          	add	a6,a0,a5
    5eac:	00088703          	lb	a4,0(a7)
    5eb0:	534e                	c.lwsp	t1,240(sp)
    5eb2:	5e3e                	c.lwsp	t3,236(sp)
    5eb4:	00050603          	lb	a2,0(a0)
    5eb8:	00080683          	lb	a3,0(a6)
    5ebc:	00158793          	addi	a5,a1,1
    5ec0:	c4e6137f          	maddr32	t1,a2,a4
    5ec4:	c4e69e7f          	maddr32	t3,a3,a4
    5ec8:	20012703          	lw	a4,512(sp)
    5ecc:	d99a                	c.swsp	t1,240(sp)
    5ece:	d7f2                	c.swsp	t3,236(sp)
    5ed0:	06e7d463          	bge	a5,a4,5f38 <riscv_nn_mat_mult_nt_t_s8+0xb34>
    5ed4:	00188703          	lb	a4,1(a7)
    5ed8:	00150603          	lb	a2,1(a0)
    5edc:	00180683          	lb	a3,1(a6)
    5ee0:	00258793          	addi	a5,a1,2
    5ee4:	c4e6137f          	maddr32	t1,a2,a4
    5ee8:	c4e69e7f          	maddr32	t3,a3,a4
    5eec:	20012703          	lw	a4,512(sp)
    5ef0:	d99a                	c.swsp	t1,240(sp)
    5ef2:	d7f2                	c.swsp	t3,236(sp)
    5ef4:	04e7d263          	bge	a5,a4,5f38 <riscv_nn_mat_mult_nt_t_s8+0xb34>
    5ef8:	00288703          	lb	a4,2(a7)
    5efc:	00280603          	lb	a2,2(a6)
    5f00:	00250683          	lb	a3,2(a0)
    5f04:	00358793          	addi	a5,a1,3
    5f08:	859a                	c.mv	a1,t1
    5f0a:	c4e61e7f          	maddr32	t3,a2,a4
    5f0e:	c4e695ff          	maddr32	a1,a3,a4
    5f12:	20012703          	lw	a4,512(sp)
    5f16:	d9ae                	c.swsp	a1,240(sp)
    5f18:	d7f2                	c.swsp	t3,236(sp)
    5f1a:	8672                	c.mv	a2,t3
    5f1c:	00e7de63          	bge	a5,a4,5f38 <riscv_nn_mat_mult_nt_t_s8+0xb34>
    5f20:	00388703          	lb	a4,3(a7)
    5f24:	00350683          	lb	a3,3(a0)
    5f28:	00380783          	lb	a5,3(a6)
    5f2c:	c4e695ff          	maddr32	a1,a3,a4
    5f30:	c4e7967f          	maddr32	a2,a5,a4
    5f34:	d9ae                	c.swsp	a1,240(sp)
    5f36:	d7b2                	c.swsp	a2,236(sp)
    5f38:	57de                	c.lwsp	a5,244(sp)
    5f3a:	4301                	c.li	t1,0
    5f3c:	4390                	c.lw	a2,0(a5)
    5f3e:	0047a803          	lw	a6,4(a5)
    5f42:	57ee                	c.lwsp	a5,248(sp)
    5f44:	55ce                	c.lwsp	a1,240(sp)
    5f46:	4398                	c.lw	a4,0(a5)
    5f48:	0047a883          	lw	a7,4(a5)
    5f4c:	f26607ff          	maxw	a5,a2,t1
    5f50:	00f597b3          	sll	a5,a1,a5
    5f54:	55be                	c.lwsp	a1,236(sp)
    5f56:	f26806ff          	maxw	a3,a6,t1
    5f5a:	00d596b3          	sll	a3,a1,a3
    5f5e:	40000537          	lui	a0,0x40000
    5f62:	4581                	c.li	a1,0
    5f64:	84e7957f          	smar64	a0,a5,a4
    5f68:	40000737          	lui	a4,0x40000
    5f6c:	4781                	c.li	a5,0
    5f6e:	8516977f          	smar64	a4,a3,a7
    5f72:	40c00e33          	neg	t3,a2
    5f76:	41000eb3          	neg	t4,a6
    5f7a:	f26e0e7f          	maxw	t3,t3,t1
    5f7e:	f26e8eff          	maxw	t4,t4,t1
    5f82:	4685                	c.li	a3,1
    5f84:	01c69633          	sll	a2,a3,t3
    5f88:	01d696b3          	sll	a3,a3,t4
    5f8c:	dff505ff          	wexti	a1,a0,31
    5f90:	fff68893          	addi	a7,a3,-1
    5f94:	dff7057f          	wexti	a0,a4,31
    5f98:	fff60793          	addi	a5,a2,-1
    5f9c:	4017d613          	srai	a2,a5,0x1
    5fa0:	0005a693          	slti	a3,a1,0
    5fa4:	00052713          	slti	a4,a0,0
    5fa8:	4018d813          	srai	a6,a7,0x1
    5fac:	8fed                	c.and	a5,a1
    5fae:	9636                	c.add	a2,a3
    5fb0:	983a                	c.add	a6,a4
    5fb2:	00a8f6b3          	and	a3,a7,a0
    5fb6:	00f62633          	slt	a2,a2,a5
    5fba:	00d826b3          	slt	a3,a6,a3
    5fbe:	41d557b3          	sra	a5,a0,t4
    5fc2:	97b6                	c.add	a5,a3
    5fc4:	41c5d733          	sra	a4,a1,t3
    5fc8:	20812683          	lw	a3,520(sp)
    5fcc:	9732                	c.add	a4,a2
    5fce:	9736                	c.add	a4,a3
    5fd0:	97b6                	c.add	a5,a3
    5fd2:	20c12683          	lw	a3,524(sp)
    5fd6:	f2e6877f          	maxw	a4,a3,a4
    5fda:	f2f687ff          	maxw	a5,a3,a5
    5fde:	21012683          	lw	a3,528(sp)
    5fe2:	f0e6877f          	minw	a4,a3,a4
    5fe6:	f0f687ff          	minw	a5,a3,a5
    5fea:	56b6                	c.lwsp	a3,108(sp)
    5fec:	00e68023          	sb	a4,0(a3)
    5ff0:	00f680a3          	sb	a5,1(a3)
    5ff4:	b39ff06f          	j	5b2c <riscv_nn_mat_mult_nt_t_s8+0x728>
    5ff8:	1b812883          	lw	a7,440(sp)
    5ffc:	1bc12583          	lw	a1,444(sp)
    6000:	1b412603          	lw	a2,436(sp)
    6004:	0018d713          	srli	a4,a7,0x1
    6008:	0705                	c.addi	a4,1
    600a:	1c012a03          	lw	s4,448(sp)
    600e:	00171813          	slli	a6,a4,0x1
    6012:	15412b03          	lw	s6,340(sp)
    6016:	1c412683          	lw	a3,452(sp)
    601a:	1c812503          	lw	a0,456(sp)
    601e:	1cc12783          	lw	a5,460(sp)
    6022:	16412a83          	lw	s5,356(sp)
    6026:	c4e615ff          	maddr32	a1,a2,a4
    602a:	9a42                	c.add	s4,a6
    602c:	001af713          	andi	a4,s5,1
    6030:	c761                	c.beqz	a4,60f8 <riscv_nn_mat_mult_nt_t_s8+0xcf4>
    6032:	0cf05363          	blez	a5,60f8 <riscv_nn_mat_mult_nt_t_s8+0xcf4>
    6036:	20012603          	lw	a2,512(sp)
    603a:	15012383          	lw	t2,336(sp)
    603e:	21812703          	lw	a4,536(sp)
    6042:	002a9293          	slli	t0,s5,0x2
    6046:	12f1                	c.addi	t0,-4
    6048:	20812983          	lw	s3,520(sp)
    604c:	20c12c03          	lw	s8,524(sp)
    6050:	21012c83          	lw	s9,528(sp)
    6054:	00538433          	add	s0,t2,t0
    6058:	9696                	c.add	a3,t0
    605a:	40c70f33          	sub	t5,a4,a2
    605e:	92aa                	c.add	t0,a0
    6060:	4e81                	c.li	t4,0
    6062:	4f81                	c.li	t6,0
    6064:	40000837          	lui	a6,0x40000
    6068:	4881                	c.li	a7,0
    606a:	4905                	c.li	s2,1
    606c:	84be                	c.mv	s1,a5
    606e:	8e32                	c.mv	t3,a2
    6070:	4501                	c.li	a0,0
    6072:	00038363          	beqz	t2,6078 <riscv_nn_mat_mult_nt_t_s8+0xc74>
    6076:	4008                	c.lw	a0,0(s0)
    6078:	0dc05063          	blez	t3,6138 <riscv_nn_mat_mult_nt_t_s8+0xd34>
    607c:	01cb0333          	add	t1,s6,t3
    6080:	00b00633          	add	a2,zero,a1
    6084:	000b0703          	lb	a4,0(s6)
    6088:	00060783          	lb	a5,0(a2)
    608c:	0b05                	c.addi	s6,1
    608e:	975e                	c.add	a4,s7
    6090:	c4f7157f          	maddr32	a0,a4,a5
    6094:	00160613          	addi	a2,a2,1
    6098:	fe6b16e3          	bne	s6,t1,6084 <riscv_nn_mat_mult_nt_t_s8+0xc80>
    609c:	0002a603          	lw	a2,0(t0)
    60a0:	0006ab03          	lw	s6,0(a3)
    60a4:	f3f607ff          	maxw	a5,a2,t6
    60a8:	00f51533          	sll	a0,a0,a5
    60ac:	8742                	c.mv	a4,a6
    60ae:	87c6                	c.mv	a5,a7
    60b0:	8565177f          	smar64	a4,a0,s6
    60b4:	40c00533          	neg	a0,a2
    60b8:	f3f5057f          	maxw	a0,a0,t6
    60bc:	00a91633          	sll	a2,s2,a0
    60c0:	dff707ff          	wexti	a5,a4,31
    60c4:	fff60713          	addi	a4,a2,-1
    60c8:	0007ab13          	slti	s6,a5,0
    60cc:	40175613          	srai	a2,a4,0x1
    60d0:	965a                	c.add	a2,s6
    60d2:	8f7d                	c.and	a4,a5
    60d4:	00e62733          	slt	a4,a2,a4
    60d8:	40a7d7b3          	sra	a5,a5,a0
    60dc:	97ba                	c.add	a5,a4
    60de:	97ce                	c.add	a5,s3
    60e0:	f38787ff          	maxw	a5,a5,s8
    60e4:	f19787ff          	minw	a5,a5,s9
    60e8:	00fa0023          	sb	a5,0(s4)
    60ec:	0e85                	c.addi	t4,1
    60ee:	01e30b33          	add	s6,t1,t5
    60f2:	9a56                	c.add	s4,s5
    60f4:	f7d49ee3          	bne	s1,t4,6070 <riscv_nn_mat_mult_nt_t_s8+0xc6c>
    60f8:	1fc12403          	lw	s0,508(sp)
    60fc:	1f812483          	lw	s1,504(sp)
    6100:	1f412903          	lw	s2,500(sp)
    6104:	1f012983          	lw	s3,496(sp)
    6108:	1ec12a03          	lw	s4,492(sp)
    610c:	1e812a83          	lw	s5,488(sp)
    6110:	1e412b03          	lw	s6,484(sp)
    6114:	1e012b83          	lw	s7,480(sp)
    6118:	1dc12c03          	lw	s8,476(sp)
    611c:	1d812c83          	lw	s9,472(sp)
    6120:	1d412d03          	lw	s10,468(sp)
    6124:	1d012d83          	lw	s11,464(sp)
    6128:	4501                	c.li	a0,0
    612a:	20010113          	addi	sp,sp,512
    612e:	8082                	c.jr	ra
    6130:	15412583          	lw	a1,340(sp)
    6134:	9f1ff06f          	j	5b24 <riscv_nn_mat_mult_nt_t_s8+0x720>
    6138:	835a                	c.mv	t1,s6
    613a:	b78d                	c.j	609c <riscv_nn_mat_mult_nt_t_s8+0xc98>
    613c:	88f6                	c.mv	a7,t4
    613e:	b38d                	c.j	5ea0 <riscv_nn_mat_mult_nt_t_s8+0xa9c>
    6140:	8eae                	c.mv	t4,a1
    6142:	552e                	c.lwsp	a0,232(sp)
    6144:	4581                	c.li	a1,0
    6146:	b1bd                	c.j	5db4 <riscv_nn_mat_mult_nt_t_s8+0x9b0>

00006148 <riscv_s8_to_s16_unordered_with_offset>:
    6148:	40265e93          	srai	t4,a2,0x2
    614c:	0ed698ff          	pkbb16	a7,a3,a3
    6150:	07d05c63          	blez	t4,61c8 <riscv_s8_to_s16_unordered_with_offset+0x80>
    6154:	002e9e13          	slli	t3,t4,0x2
    6158:	9e2a                	c.add	t3,a0
    615a:	872e                	c.mv	a4,a1
    615c:	411c                	c.lw	a5,0(a0)
    615e:	0511                	c.addi	a0,4
    6160:	ac97887f          	sunpkd820	a6,a5
    6164:	4108887f          	add16	a6,a7,a6
    6168:	833e                	c.mv	t1,a5
    616a:	83be                	c.mv	t2,a5
    616c:	de8307ff          	wexti	a5,t1,8
    6170:	ac9787ff          	sunpkd820	a5,a5
    6174:	40f887ff          	add16	a5,a7,a5
    6178:	01072023          	sw	a6,0(a4) # 40000000 <_DATA_LMA_START+0x1fff5168>
    617c:	00470813          	addi	a6,a4,4
    6180:	00f82023          	sw	a5,0(a6) # 40000000 <_DATA_LMA_START+0x1fff5168>
    6184:	0721                	c.addi	a4,8
    6186:	fcae1be3          	bne	t3,a0,615c <riscv_s8_to_s16_unordered_with_offset+0x14>
    618a:	0e8e                	c.slli	t4,0x3
    618c:	01d585b3          	add	a1,a1,t4
    6190:	8a0d                	c.andi	a2,3
    6192:	ca0d                	c.beqz	a2,61c4 <riscv_s8_to_s16_unordered_with_offset+0x7c>
    6194:	000e0783          	lb	a5,0(t3)
    6198:	06c2                	c.slli	a3,0x10
    619a:	82c1                	c.srli	a3,0x10
    619c:	97b6                	c.add	a5,a3
    619e:	4705                	c.li	a4,1
    61a0:	00f59023          	sh	a5,0(a1)
    61a4:	02e60063          	beq	a2,a4,61c4 <riscv_s8_to_s16_unordered_with_offset+0x7c>
    61a8:	001e0783          	lb	a5,1(t3)
    61ac:	4709                	c.li	a4,2
    61ae:	97b6                	c.add	a5,a3
    61b0:	00f59123          	sh	a5,2(a1)
    61b4:	00e60863          	beq	a2,a4,61c4 <riscv_s8_to_s16_unordered_with_offset+0x7c>
    61b8:	002e0783          	lb	a5,2(t3)
    61bc:	00f686b3          	add	a3,a3,a5
    61c0:	00d59223          	sh	a3,4(a1)
    61c4:	00008067          	ret
    61c8:	8e2a                	c.mv	t3,a0
    61ca:	b7d9                	c.j	6190 <riscv_s8_to_s16_unordered_with_offset+0x48>

000061cc <riscv_avgpool_s8>:
    61cc:	7175                	c.addi16sp	sp,-144
    61ce:	d4e2                	c.swsp	s8,104(sp)
    61d0:	ceee                	c.swsp	s11,92(sp)
    61d2:	0087ac03          	lw	s8,8(a5)
    61d6:	0047ad83          	lw	s11,4(a5)
    61da:	471c                	c.lw	a5,8(a4)
    61dc:	c14a                	c.swsp	s2,128(sp)
    61de:	00062903          	lw	s2,0(a2)
    61e2:	c326                	c.swsp	s1,132(sp)
    61e4:	dece                	c.swsp	s3,124(sp)
    61e6:	dcd2                	c.swsp	s4,120(sp)
    61e8:	dad6                	c.swsp	s5,116(sp)
    61ea:	d6de                	c.swsp	s7,108(sp)
    61ec:	d2e6                	c.swsp	s9,100(sp)
    61ee:	d0ea                	c.swsp	s10,96(sp)
    61f0:	c706                	c.swsp	ra,140(sp)
    61f2:	c522                	c.swsp	s0,136(sp)
    61f4:	d8da                	c.swsp	s6,112(sp)
    61f6:	d23e                	c.swsp	a5,36(sp)
    61f8:	0045ad03          	lw	s10,4(a1)
    61fc:	0005ab83          	lw	s7,0(a1)
    6200:	00c5a983          	lw	s3,12(a1)
    6204:	0085af83          	lw	t6,8(a1)
    6208:	0105aa03          	lw	s4,16(a1)
    620c:	49c4                	c.lw	s1,20(a1)
    620e:	00462c83          	lw	s9,4(a2)
    6212:	00862a83          	lw	s5,8(a2)
    6216:	00472283          	lw	t0,4(a4)
    621a:	464c                	c.lw	a1,12(a2)
    621c:	1b205e63          	blez	s2,63d8 <riscv_avgpool_s8+0x20c>
    6220:	00052e03          	lw	t3,0(a0) # 40000000 <_DATA_LMA_START+0x1fff5168>
    6224:	842a                	c.mv	s0,a0
    6226:	8b42                	c.mv	s6,a6
    6228:	1c0e0a63          	beqz	t3,63fc <riscv_avgpool_s8+0x230>
    622c:	035c87b3          	mul	a5,s9,s5
    6230:	02b787b3          	mul	a5,a5,a1
    6234:	02ba8433          	mul	s0,s5,a1
    6238:	41300633          	neg	a2,s3
    623c:	00259813          	slli	a6,a1,0x2
    6240:	41f00533          	neg	a0,t6
    6244:	8f7e                	c.mv	t5,t6
    6246:	da3e                	c.swsp	a5,52(sp)
    6248:	9872                	c.add	a6,t3
    624a:	87b2                	c.mv	a5,a2
    624c:	8faa                	c.mv	t6,a0
    624e:	8656                	c.mv	a2,s5
    6250:	17b05c63          	blez	s11,63c8 <riscv_avgpool_s8+0x1fc>
    6254:	d866                	c.swsp	s9,48(sp)
    6256:	88ce                	c.mv	a7,s3
    6258:	8cb6                	c.mv	s9,a3
    625a:	83be                	c.mv	t2,a5
    625c:	8abe                	c.mv	s5,a5
    625e:	86b2                	c.mv	a3,a2
    6260:	d402                	c.swsp	zero,40(sp)
    6262:	dc4e                	c.swsp	s3,56(sp)
    6264:	15805463          	blez	s8,63ac <riscv_avgpool_s8+0x1e0>
    6268:	4781                	c.li	a5,0
    626a:	f2f88eff          	maxw	t4,a7,a5
    626e:	007e87b3          	add	a5,t4,t2
    6272:	02d787b3          	mul	a5,a5,a3
    6276:	8636                	c.mv	a2,a3
    6278:	de6e                	c.swsp	s11,60(sp)
    627a:	d63e                	c.swsp	a5,44(sp)
    627c:	57c2                	c.lwsp	a5,48(sp)
    627e:	c296                	c.swsp	t0,68(sp)
    6280:	011789b3          	add	s3,a5,a7
    6284:	f05989ff          	minw	s3,s3,t0
    6288:	87fa                	c.mv	a5,t5
    628a:	837e                	c.mv	t1,t6
    628c:	4701                	c.li	a4,0
    628e:	86e2                	c.mv	a3,s8
    6290:	8dd6                	c.mv	s11,s5
    6292:	82c6                	c.mv	t0,a7
    6294:	854a                	c.mv	a0,s2
    6296:	c0ea                	c.swsp	s10,64(sp)
    6298:	c4fa                	c.swsp	t5,72(sp)
    629a:	c69e                	c.swsp	t2,76(sp)
    629c:	4881                	c.li	a7,0
    629e:	f3178c7f          	maxw	s8,a5,a7
    62a2:	5892                	c.lwsp	a7,36(sp)
    62a4:	00f60ab3          	add	s5,a2,a5
    62a8:	f11a8aff          	minw	s5,s5,a7
    62ac:	133ed663          	bge	t4,s3,63d8 <riscv_avgpool_s8+0x20c>
    62b0:	58b2                	c.lwsp	a7,44(sp)
    62b2:	83e6                	c.mv	t2,s9
    62b4:	989a                	c.add	a7,t1
    62b6:	98e2                	c.add	a7,s8
    62b8:	c4b893ff          	maddr32	t2,a7,a1
    62bc:	cc5e                	c.swsp	s7,24(sp)
    62be:	8976                	c.mv	s2,t4
    62c0:	4881                	c.li	a7,0
    62c2:	418a8d33          	sub	s10,s5,s8
    62c6:	8bf6                	c.mv	s7,t4
    62c8:	c832                	c.swsp	a2,16(sp)
    62ca:	ca36                	c.swsp	a3,20(sp)
    62cc:	ce52                	c.swsp	s4,28(sp)
    62ce:	d026                	c.swsp	s1,32(sp)
    62d0:	075c5463          	bge	s8,s5,6338 <riscv_avgpool_s8+0x16c>
    62d4:	00b384b3          	add	s1,t2,a1
    62d8:	011d0a33          	add	s4,s10,a7
    62dc:	0e089c63          	bnez	a7,63d4 <riscv_avgpool_s8+0x208>
    62e0:	86f2                	c.mv	a3,t3
    62e2:	861e                	c.mv	a2,t2
    62e4:	00b05a63          	blez	a1,62f8 <riscv_avgpool_s8+0x12c>
    62e8:	00060e83          	lb	t4,0(a2)
    62ec:	0691                	c.addi	a3,4
    62ee:	0605                	c.addi	a2,1
    62f0:	ffd6ae23          	sw	t4,-4(a3)
    62f4:	fed81ae3          	bne	a6,a3,62e8 <riscv_avgpool_s8+0x11c>
    62f8:	00700f33          	add	t5,zero,t2
    62fc:	0885                	c.addi	a7,1
    62fe:	9f2e                	c.add	t5,a1
    6300:	00b484b3          	add	s1,s1,a1
    6304:	03488a63          	beq	a7,s4,6338 <riscv_avgpool_s8+0x16c>
    6308:	8672                	c.mv	a2,t3
    630a:	86fa                	c.mv	a3,t5
    630c:	feb058e3          	blez	a1,62fc <riscv_avgpool_s8+0x130>
    6310:	00f12623          	sw	a5,12(sp)
    6314:	00068e83          	lb	t4,0(a3)
    6318:	421c                	c.lw	a5,0(a2)
    631a:	00fe9eff          	kaddw	t4,t4,a5
    631e:	01d62023          	sw	t4,0(a2)
    6322:	0685                	c.addi	a3,1
    6324:	0611                	c.addi	a2,4
    6326:	fe9697e3          	bne	a3,s1,6314 <riscv_avgpool_s8+0x148>
    632a:	0885                	c.addi	a7,1
    632c:	47b2                	c.lwsp	a5,12(sp)
    632e:	9f2e                	c.add	t5,a1
    6330:	00b484b3          	add	s1,s1,a1
    6334:	fd489ae3          	bne	a7,s4,6308 <riscv_avgpool_s8+0x13c>
    6338:	0905                	c.addi	s2,1
    633a:	93a2                	c.add	t2,s0
    633c:	f9299ae3          	bne	s3,s2,62d0 <riscv_avgpool_s8+0x104>
    6340:	8ede                	c.mv	t4,s7
    6342:	4642                	c.lwsp	a2,16(sp)
    6344:	46d2                	c.lwsp	a3,20(sp)
    6346:	4a72                	c.lwsp	s4,28(sp)
    6348:	5482                	c.lwsp	s1,32(sp)
    634a:	4be2                	c.lwsp	s7,24(sp)
    634c:	08088663          	beqz	a7,63d8 <riscv_avgpool_s8+0x20c>
    6350:	4018dc13          	srai	s8,a7,0x1
    6354:	8ada                	c.mv	s5,s6
    6356:	83f2                	c.mv	t2,t3
    6358:	02b05863          	blez	a1,6388 <riscv_avgpool_s8+0x1bc>
    635c:	0003a903          	lw	s2,0(t2)
    6360:	00438393          	addi	t2,t2,4
    6364:	41890f33          	sub	t5,s2,s8
    6368:	01205463          	blez	s2,6370 <riscv_avgpool_s8+0x1a4>
    636c:	012c0f33          	add	t5,s8,s2
    6370:	031f4f33          	div	t5,t5,a7
    6374:	001a8a93          	addi	s5,s5,1
    6378:	f3ea0f7f          	maxw	t5,s4,t5
    637c:	f1e48f7f          	minw	t5,s1,t5
    6380:	ffea8fa3          	sb	t5,-1(s5)
    6384:	fc781ce3          	bne	a6,t2,635c <riscv_avgpool_s8+0x190>
    6388:	0705                	c.addi	a4,1
    638a:	9b2e                	c.add	s6,a1
    638c:	935e                	c.add	t1,s7
    638e:	417787b3          	sub	a5,a5,s7
    6392:	f0e695e3          	bne	a3,a4,629c <riscv_avgpool_s8+0xd0>
    6396:	8aee                	c.mv	s5,s11
    6398:	8896                	c.mv	a7,t0
    639a:	4d06                	c.lwsp	s10,64(sp)
    639c:	4f26                	c.lwsp	t5,72(sp)
    639e:	43b6                	c.lwsp	t2,76(sp)
    63a0:	5df2                	c.lwsp	s11,60(sp)
    63a2:	4296                	c.lwsp	t0,68(sp)
    63a4:	8c36                	c.mv	s8,a3
    63a6:	892a                	c.mv	s2,a0
    63a8:	00c006b3          	add	a3,zero,a2
    63ac:	57a2                	c.lwsp	a5,40(sp)
    63ae:	93ea                	c.add	t2,s10
    63b0:	0785                	c.addi	a5,1
    63b2:	d43e                	c.swsp	a5,40(sp)
    63b4:	41a888b3          	sub	a7,a7,s10
    63b8:	eafd96e3          	bne	s11,a5,6264 <riscv_avgpool_s8+0x98>
    63bc:	8636                	c.mv	a2,a3
    63be:	59e2                	c.lwsp	s3,56(sp)
    63c0:	86e6                	c.mv	a3,s9
    63c2:	5cc2                	c.lwsp	s9,48(sp)
    63c4:	015007b3          	add	a5,zero,s5
    63c8:	5752                	c.lwsp	a4,52(sp)
    63ca:	197d                	c.addi	s2,-1
    63cc:	96ba                	c.add	a3,a4
    63ce:	e80911e3          	bnez	s2,6250 <riscv_avgpool_s8+0x84>
    63d2:	a029                	c.j	63dc <riscv_avgpool_s8+0x210>
    63d4:	8f1e                	c.mv	t5,t2
    63d6:	bf0d                	c.j	6308 <riscv_avgpool_s8+0x13c>
    63d8:	fff00913          	li	s2,-1
    63dc:	40ba                	c.lwsp	ra,140(sp)
    63de:	442a                	c.lwsp	s0,136(sp)
    63e0:	449a                	c.lwsp	s1,132(sp)
    63e2:	59f6                	c.lwsp	s3,124(sp)
    63e4:	5a66                	c.lwsp	s4,120(sp)
    63e6:	5ad6                	c.lwsp	s5,116(sp)
    63e8:	5b46                	c.lwsp	s6,112(sp)
    63ea:	5bb6                	c.lwsp	s7,108(sp)
    63ec:	5c26                	c.lwsp	s8,104(sp)
    63ee:	5c96                	c.lwsp	s9,100(sp)
    63f0:	5d06                	c.lwsp	s10,96(sp)
    63f2:	4df6                	c.lwsp	s11,92(sp)
    63f4:	854a                	c.mv	a0,s2
    63f6:	490a                	c.lwsp	s2,128(sp)
    63f8:	6149                	c.addi16sp	sp,144
    63fa:	8082                	c.jr	ra
    63fc:	8562                	c.mv	a0,s8
    63fe:	cc36                	c.swsp	a3,24(sp)
    6400:	ca7e                	c.swsp	t6,20(sp)
    6402:	c816                	c.swsp	t0,16(sp)
    6404:	00b12623          	sw	a1,12(sp)
    6408:	119030ef          	jal	ra,9d20 <riscv_avgpool_s8_get_buffer_size>
    640c:	f571                	c.bnez	a0,63d8 <riscv_avgpool_s8+0x20c>
    640e:	035c87b3          	mul	a5,s9,s5
    6412:	45b2                	c.lwsp	a1,12(sp)
    6414:	00042e03          	lw	t3,0(s0) # 20000 <BIN_SIZE+0xdc2e>
    6418:	02b787b3          	mul	a5,a5,a1
    641c:	46e2                	c.lwsp	a3,24(sp)
    641e:	4fd2                	c.lwsp	t6,20(sp)
    6420:	42c2                	c.lwsp	t0,16(sp)
    6422:	bd09                	c.j	6234 <riscv_avgpool_s8+0x68>

00006424 <riscv_fully_connected_s8>:
    6424:	715d                	c.addi16sp	sp,-80
    6426:	c2a6                	c.swsp	s1,68(sp)
    6428:	4284                	c.lw	s1,0(a3)
    642a:	de4e                	c.swsp	s3,60(sp)
    642c:	dc52                	c.swsp	s4,56(sp)
    642e:	d85a                	c.swsp	s6,48(sp)
    6430:	d462                	c.swsp	s8,40(sp)
    6432:	c686                	c.swsp	ra,76(sp)
    6434:	c4a2                	c.swsp	s0,72(sp)
    6436:	c0ca                	c.swsp	s2,64(sp)
    6438:	da56                	c.swsp	s5,52(sp)
    643a:	d65e                	c.swsp	s7,44(sp)
    643c:	d266                	c.swsp	s9,36(sp)
    643e:	d06a                	c.swsp	s10,32(sp)
    6440:	4c46                	c.lwsp	s8,80(sp)
    6442:	4a56                	c.lwsp	s4,84(sp)
    6444:	49e6                	c.lwsp	s3,88(sp)
    6446:	00052b03          	lw	s6,0(a0)
    644a:	ccb9                	c.beqz	s1,64a8 <riscv_fully_connected_s8+0x84>
    644c:	0007ae03          	lw	t3,0(a5)
    6450:	00ca2303          	lw	t1,12(s4)
    6454:	842e                	c.mv	s0,a1
    6456:	8d32                	c.mv	s10,a2
    6458:	893a                	c.mv	s2,a4
    645a:	8abe                	c.mv	s5,a5
    645c:	8bc2                	c.mv	s7,a6
    645e:	4c85                	c.li	s9,1
    6460:	00442283          	lw	t0,4(s0)
    6464:	01042f83          	lw	t6,16(s0)
    6468:	00c42f03          	lw	t5,12(s0)
    646c:	004d2e83          	lw	t4,4(s10)
    6470:	000d2883          	lw	a7,0(s10)
    6474:	00842803          	lw	a6,8(s0)
    6478:	401c                	c.lw	a5,0(s0)
    647a:	874e                	c.mv	a4,s3
    647c:	854a                	c.mv	a0,s2
    647e:	86e2                	c.mv	a3,s8
    6480:	865a                	c.mv	a2,s6
    6482:	85de                	c.mv	a1,s7
    6484:	c41a                	c.swsp	t1,8(sp)
    6486:	c272                	c.swsp	t3,4(sp)
    6488:	cc16                	c.swsp	t0,24(sp)
    648a:	ca66                	c.swsp	s9,20(sp)
    648c:	c87e                	c.swsp	t6,16(sp)
    648e:	c67a                	c.swsp	t5,12(sp)
    6490:	01d12023          	sw	t4,0(sp)
    6494:	6a4020ef          	jal	ra,8b38 <riscv_nn_vec_mat_mult_t_s8>
    6498:	000aae03          	lw	t3,0(s5)
    649c:	00ca2303          	lw	t1,12(s4)
    64a0:	14fd                	c.addi	s1,-1
    64a2:	9972                	c.add	s2,t3
    64a4:	999a                	c.add	s3,t1
    64a6:	fccd                	c.bnez	s1,6460 <riscv_fully_connected_s8+0x3c>
    64a8:	40b6                	c.lwsp	ra,76(sp)
    64aa:	4426                	c.lwsp	s0,72(sp)
    64ac:	4496                	c.lwsp	s1,68(sp)
    64ae:	4906                	c.lwsp	s2,64(sp)
    64b0:	59f2                	c.lwsp	s3,60(sp)
    64b2:	5a62                	c.lwsp	s4,56(sp)
    64b4:	5ad2                	c.lwsp	s5,52(sp)
    64b6:	5b42                	c.lwsp	s6,48(sp)
    64b8:	5bb2                	c.lwsp	s7,44(sp)
    64ba:	5c22                	c.lwsp	s8,40(sp)
    64bc:	5c92                	c.lwsp	s9,36(sp)
    64be:	5d02                	c.lwsp	s10,32(sp)
    64c0:	4501                	c.li	a0,0
    64c2:	6161                	c.addi16sp	sp,80
    64c4:	8082                	c.jr	ra
	...

000064c8 <riscv_depthwise_conv_s8>:
    64c8:	7115                	c.addi16sp	sp,-224
    64ca:	00462883          	lw	a7,4(a2)
    64ce:	cda6                	c.swsp	s1,216(sp)
    64d0:	4210                	c.lw	a2,0(a2)
    64d2:	549e                	c.lwsp	s1,228(sp)
    64d4:	01c5ae03          	lw	t3,28(a1)
    64d8:	0205af03          	lw	t5,32(a1)
    64dc:	0006a303          	lw	t1,0(a3)
    64e0:	0086af83          	lw	t6,8(a3)
    64e4:	0046a283          	lw	t0,4(a3)
    64e8:	cfa2                	c.swsp	s0,220(sp)
    64ea:	c7d2                	c.swsp	s4,204(sp)
    64ec:	43c0                	c.lw	s0,4(a5)
    64ee:	0085aa03          	lw	s4,8(a1)
    64f2:	c5d6                	c.swsp	s5,200(sp)
    64f4:	c3da                	c.swsp	s6,196(sp)
    64f6:	dd66                	c.swsp	s9,184(sp)
    64f8:	0087ab03          	lw	s6,8(a5)
    64fc:	00c6ac83          	lw	s9,12(a3)
    6500:	d646                	c.swsp	a7,44(sp)
    6502:	49dc                	c.lw	a5,20(a1)
    6504:	0185ae83          	lw	t4,24(a1)
    6508:	45d4                	c.lw	a3,12(a1)
    650a:	4988                	c.lw	a0,16(a1)
    650c:	0084aa83          	lw	s5,8(s1)
    6510:	0044a883          	lw	a7,4(s1)
    6514:	cbca                	c.swsp	s2,212(sp)
    6516:	c9ce                	c.swsp	s3,208(sp)
    6518:	c1de                	c.swsp	s7,192(sp)
    651a:	df62                	c.swsp	s8,188(sp)
    651c:	db6a                	c.swsp	s10,180(sp)
    651e:	d96e                	c.swsp	s11,176(sp)
    6520:	d832                	c.swsp	a2,48(sp)
    6522:	41d0                	c.lw	a2,4(a1)
    6524:	c03a                	c.swsp	a4,0(sp)
    6526:	da32                	c.swsp	a2,52(sp)
    6528:	4190                	c.lw	a2,0(a1)
    652a:	010e1713          	slli	a4,t3,0x10
    652e:	dc32                	c.swsp	a2,56(sp)
    6530:	51d0                	c.lw	a2,36(a1)
    6532:	8341                	c.srli	a4,0x10
    6534:	de32                	c.swsp	a2,60(sp)
    6536:	ca3a                	c.swsp	a4,20(sp)
    6538:	5590                	c.lw	a2,40(a1)
    653a:	010f1713          	slli	a4,t5,0x10
    653e:	8341                	c.srli	a4,0x10
    6540:	003a7393          	andi	t2,s4,3
    6544:	c0b2                	c.swsp	a2,64(sp)
    6546:	c2c2                	c.swsp	a6,68(sp)
    6548:	cc3a                	c.swsp	a4,24(sp)
    654a:	00039563          	bnez	t2,6554 <riscv_depthwise_conv_s8+0x8c>
    654e:	4705                	c.li	a4,1
    6550:	34e30c63          	beq	t1,a4,68a8 <riscv_depthwise_conv_s8+0x3e0>
    6554:	0342                	c.slli	t1,0x10
    6556:	010e9713          	slli	a4,t4,0x10
    655a:	07c2                	c.slli	a5,0x10
    655c:	01069e93          	slli	t4,a3,0x10
    6560:	0542                	c.slli	a0,0x10
    6562:	01035313          	srli	t1,t1,0x10
    6566:	83c1                	c.srli	a5,0x10
    6568:	8341                	c.srli	a4,0x10
    656a:	010ede93          	srli	t4,t4,0x10
    656e:	8141                	c.srli	a0,0x10
    6570:	30030463          	beqz	t1,6878 <riscv_depthwise_conv_s8+0x3b0>
    6574:	66c1                	c.lui	a3,0x10
    6576:	16fd                	c.addi	a3,-1
    6578:	00dffc33          	and	s8,t6,a3
    657c:	00d2ffb3          	and	t6,t0,a3
    6580:	03fc0633          	mul	a2,s8,t6
    6584:	00dcfcb3          	and	s9,s9,a3
    6588:	00da75b3          	and	a1,s4,a3
    658c:	00d8f8b3          	and	a7,a7,a3
    6590:	02bc8bb3          	mul	s7,s9,a1
    6594:	03960633          	mul	a2,a2,s9
    6598:	00daf3b3          	and	t2,s5,a3
    659c:	2c088e63          	beqz	a7,6878 <riscv_depthwise_conv_s8+0x3b0>
    65a0:	038c8833          	mul	a6,s9,s8
    65a4:	00df7d33          	and	s10,t5,a3
    65a8:	40f002b3          	neg	t0,a5
    65ac:	03a807b3          	mul	a5,a6,s10
    65b0:	00db7ab3          	and	s5,s6,a3
    65b4:	00de7db3          	and	s11,t3,a3
    65b8:	d23e                	c.swsp	a5,36(sp)
    65ba:	035b87b3          	mul	a5,s7,s5
    65be:	40e00e33          	neg	t3,a4
    65c2:	010e1813          	slli	a6,t3,0x10
    65c6:	d03e                	c.swsp	a5,32(sp)
    65c8:	039d87b3          	mul	a5,s11,s9
    65cc:	00d47a33          	and	s4,s0,a3
    65d0:	01029913          	slli	s2,t0,0x10
    65d4:	842e                	c.mv	s0,a1
    65d6:	01085813          	srli	a6,a6,0x10
    65da:	ce3e                	c.swsp	a5,28(sp)
    65dc:	87d6                	c.mv	a5,s5
    65de:	85aa                	c.mv	a1,a0
    65e0:	8ae6                	c.mv	s5,s9
    65e2:	c65e                	c.swsp	s7,12(sp)
    65e4:	8cea                	c.mv	s9,s10
    65e6:	4f01                	c.li	t5,0
    65e8:	4701                	c.li	a4,0
    65ea:	4b01                	c.li	s6,0
    65ec:	01095913          	srli	s2,s2,0x10
    65f0:	82f6                	c.mv	t0,t4
    65f2:	8be2                	c.mv	s7,s8
    65f4:	86c2                	c.mv	a3,a6
    65f6:	8d3e                	c.mv	s10,a5
    65f8:	8522                	c.mv	a0,s0
    65fa:	c852                	c.swsp	s4,16(sp)
    65fc:	8e32                	c.mv	t3,a2
    65fe:	865e                	c.mv	a2,s7
    6600:	883a                	c.mv	a6,a4
    6602:	8bd6                	c.mv	s7,s5
    6604:	8436                	c.mv	s0,a3
    6606:	4a01                	c.li	s4,0
    6608:	879e                	c.mv	a5,t2
    660a:	8736                	c.mv	a4,a3
    660c:	00c00ab3          	add	s5,zero,a2
    6610:	01041c13          	slli	s8,s0,0x10
    6614:	410c5c13          	srai	s8,s8,0x10
    6618:	22078a63          	beqz	a5,684c <riscv_depthwise_conv_s8+0x384>
    661c:	c202                	c.swsp	zero,4(sp)
    661e:	01804563          	bgtz	s8,6628 <riscv_depthwise_conv_s8+0x160>
    6622:	418006b3          	neg	a3,s8
    6626:	c236                	c.swsp	a3,4(sp)
    6628:	49c2                	c.lwsp	s3,16(sp)
    662a:	418f86b3          	sub	a3,t6,s8
    662e:	00dc84b3          	add	s1,s9,a3
    6632:	418c83b3          	sub	t2,s9,s8
    6636:	f13686ff          	minw	a3,a3,s3
    663a:	ceb6                	c.swsp	a3,92(sp)
    663c:	fff38693          	addi	a3,t2,-1
    6640:	d0b6                	c.swsp	a3,96(sp)
    6642:	d4ae                	c.swsp	a1,104(sp)
    6644:	fff48693          	addi	a3,s1,-1
    6648:	864a                	c.mv	a2,s2
    664a:	4e81                	c.li	t4,0
    664c:	85ca                	c.mv	a1,s2
    664e:	d2b6                	c.swsp	a3,100(sp)
    6650:	07412823          	sw	s4,112(sp)
    6654:	01061913          	slli	s2,a2,0x10
    6658:	41095913          	srai	s2,s2,0x10
    665c:	1c0b8e63          	beqz	s7,6838 <riscv_depthwise_conv_s8+0x370>
    6660:	c402                	c.swsp	zero,8(sp)
    6662:	01204563          	bgtz	s2,666c <riscv_depthwise_conv_s8+0x1a4>
    6666:	412006b3          	neg	a3,s2
    666a:	c436                	c.swsp	a3,8(sp)
    666c:	412a84b3          	sub	s1,s5,s2
    6670:	009d83b3          	add	t2,s11,s1
    6674:	f1a484ff          	minw	s1,s1,s10
    6678:	c6a6                	c.swsp	s1,76(sp)
    667a:	412d84b3          	sub	s1,s11,s2
    667e:	14fd                	c.addi	s1,-1
    6680:	cca6                	c.swsp	s1,88(sp)
    6682:	4681                	c.li	a3,0
    6684:	fff38493          	addi	s1,t2,-1
    6688:	4a01                	c.li	s4,0
    668a:	c8a6                	c.swsp	s1,80(sp)
    668c:	da96                	c.swsp	t0,116(sp)
    668e:	dcbe                	c.swsp	a5,120(sp)
    6690:	def6                	c.swsp	t4,124(sp)
    6692:	c172                	c.swsp	t3,128(sp)
    6694:	09012223          	sw	a6,132(sp)
    6698:	82b6                	c.mv	t0,a3
    669a:	18050563          	beqz	a0,6824 <riscv_depthwise_conv_s8+0x35c>
    669e:	57c2                	c.lwsp	a5,48(sp)
    66a0:	00269813          	slli	a6,a3,0x2
    66a4:	01078eb3          	add	t4,a5,a6
    66a8:	57b2                	c.lwsp	a5,44(sp)
    66aa:	84fa                	c.mv	s1,t5
    66ac:	983e                	c.add	a6,a5
    66ae:	c57e                	c.swsp	t6,136(sp)
    66b0:	40df07b3          	sub	a5,t5,a3
    66b4:	00d502b3          	add	t0,a0,a3
    66b8:	8f46                	c.mv	t5,a7
    66ba:	83b2                	c.mv	t2,a2
    66bc:	88b6                	c.mv	a7,a3
    66be:	8fae                	c.mv	t6,a1
    66c0:	c4be                	c.swsp	a5,72(sp)
    66c2:	c71a                	c.swsp	t1,140(sp)
    66c4:	08a12823          	sw	a0,144(sp)
    66c8:	47d2                	c.lwsp	a5,20(sp)
    66ca:	4685                	c.li	a3,1
    66cc:	1cf6fa63          	bgeu	a3,a5,68a0 <riscv_depthwise_conv_s8+0x3d8>
    66d0:	47e6                	c.lwsp	a5,88(sp)
    66d2:	03b7c633          	div	a2,a5,s11
    66d6:	47c6                	c.lwsp	a5,80(sp)
    66d8:	03b7c5b3          	div	a1,a5,s11
    66dc:	f366067f          	maxw	a2,a2,s6
    66e0:	f1a585ff          	minw	a1,a1,s10
    66e4:	47e2                	c.lwsp	a5,24(sp)
    66e6:	4685                	c.li	a3,1
    66e8:	1af6f863          	bgeu	a3,a5,6898 <riscv_depthwise_conv_s8+0x3d0>
    66ec:	5696                	c.lwsp	a3,100(sp)
    66ee:	5786                	c.lwsp	a5,96(sp)
    66f0:	0396c533          	div	a0,a3,s9
    66f4:	01012683          	lw	a3,16(sp)
    66f8:	0397c7b3          	div	a5,a5,s9
    66fc:	f0d5057f          	minw	a0,a0,a3
    6700:	f36787ff          	maxw	a5,a5,s6
    6704:	530e                	c.lwsp	t1,224(sp)
    6706:	4681                	c.li	a3,0
    6708:	00030663          	beqz	t1,6714 <riscv_depthwise_conv_s8+0x24c>
    670c:	00289693          	slli	a3,a7,0x2
    6710:	969a                	c.add	a3,t1
    6712:	4294                	c.lw	a3,0(a3)
    6714:	08a7d863          	bge	a5,a0,67a4 <riscv_depthwise_conv_s8+0x2dc>
    6718:	8e62                	c.mv	t3,s8
    671a:	834a                	c.mv	t1,s2
    671c:	c5979e7f          	maddr32	t3,a5,s9
    6720:	c4cd937f          	maddr32	t1,s11,a2
    6724:	49b2                	c.lwsp	s3,12(sp)
    6726:	cb62                	c.swsp	s8,148(sp)
    6728:	c55e137f          	maddr32	t1,t3,s5
    672c:	8e32                	c.mv	t3,a2
    672e:	c5a79e7f          	maddr32	t3,a5,s10
    6732:	d41a                	c.swsp	t1,40(sp)
    6734:	8372                	c.mv	t1,t3
    6736:	8e46                	c.mv	t3,a7
    6738:	c5331e7f          	maddr32	t3,t1,s3
    673c:	5322                	c.lwsp	t1,40(sp)
    673e:	89d2                	c.mv	s3,s4
    6740:	d45e                	c.swsp	s7,40(sp)
    6742:	c57319ff          	maddr32	s3,t1,s7
    6746:	8c56                	c.mv	s8,s5
    6748:	834e                	c.mv	t1,s3
    674a:	4996                	c.lwsp	s3,68(sp)
    674c:	8bd2                	c.mv	s7,s4
    674e:	9e4e                	c.add	t3,s3
    6750:	4982                	c.lwsp	s3,0(sp)
    6752:	cd4a                	c.swsp	s2,152(sp)
    6754:	01330333          	add	t1,t1,s3
    6758:	02b65a63          	bge	a2,a1,678c <riscv_depthwise_conv_s8+0x2c4>
    675c:	8af2                	c.mv	s5,t3
    675e:	8a1a                	c.mv	s4,t1
    6760:	8932                	c.mv	s2,a2
    6762:	cf3e                	c.swsp	a5,156(sp)
    6764:	0ae12023          	sw	a4,160(sp)
    6768:	000a0783          	lb	a5,0(s4)
    676c:	000a8983          	lb	s3,0(s5)
    6770:	5762                	c.lwsp	a4,56(sp)
    6772:	0905                	c.addi	s2,1
    6774:	97ba                	c.add	a5,a4
    6776:	c53796ff          	maddr32	a3,a5,s3
    677a:	47f2                	c.lwsp	a5,28(sp)
    677c:	9a3e                	c.add	s4,a5
    677e:	47b2                	c.lwsp	a5,12(sp)
    6780:	9abe                	c.add	s5,a5
    6782:	feb913e3          	bne	s2,a1,6768 <riscv_depthwise_conv_s8+0x2a0>
    6786:	47fa                	c.lwsp	a5,156(sp)
    6788:	0a012703          	lw	a4,160(sp)
    678c:	5912                	c.lwsp	s2,36(sp)
    678e:	0785                	c.addi	a5,1
    6790:	934a                	c.add	t1,s2
    6792:	5902                	c.lwsp	s2,32(sp)
    6794:	9e4a                	c.add	t3,s2
    6796:	fca791e3          	bne	a5,a0,6758 <riscv_depthwise_conv_s8+0x290>
    679a:	8a5e                	c.mv	s4,s7
    679c:	8ae2                	c.mv	s5,s8
    679e:	496a                	c.lwsp	s2,152(sp)
    67a0:	5ba2                	c.lwsp	s7,40(sp)
    67a2:	4c5a                	c.lwsp	s8,148(sp)
    67a4:	00082583          	lw	a1,0(a6)
    67a8:	000ea503          	lw	a0,0(t4)
    67ac:	f36587ff          	maxw	a5,a1,s6
    67b0:	00f697b3          	sll	a5,a3,a5
    67b4:	40000637          	lui	a2,0x40000
    67b8:	4681                	c.li	a3,0
    67ba:	84a7967f          	smar64	a2,a5,a0
    67be:	40b007b3          	neg	a5,a1
    67c2:	f36787ff          	maxw	a5,a5,s6
    67c6:	4585                	c.li	a1,1
    67c8:	00f595b3          	sll	a1,a1,a5
    67cc:	dff6067f          	wexti	a2,a2,31
    67d0:	fff58693          	addi	a3,a1,-1
    67d4:	4016d593          	srai	a1,a3,0x1
    67d8:	00062513          	slti	a0,a2,0
    67dc:	8ef1                	c.and	a3,a2
    67de:	95aa                	c.add	a1,a0
    67e0:	40f65633          	sra	a2,a2,a5
    67e4:	00d5a7b3          	slt	a5,a1,a3
    67e8:	963e                	c.add	a2,a5
    67ea:	57d2                	c.lwsp	a5,52(sp)
    67ec:	0e91                	c.addi	t4,4
    67ee:	963e                	c.add	a2,a5
    67f0:	47a6                	c.lwsp	a5,72(sp)
    67f2:	0811                	c.addi	a6,4
    67f4:	011786b3          	add	a3,a5,a7
    67f8:	57f2                	c.lwsp	a5,60(sp)
    67fa:	0885                	c.addi	a7,1
    67fc:	f2f607ff          	maxw	a5,a2,a5
    6800:	562e                	c.lwsp	a2,232(sp)
    6802:	96b2                	c.add	a3,a2
    6804:	4606                	c.lwsp	a2,64(sp)
    6806:	f0c787ff          	minw	a5,a5,a2
    680a:	00f68023          	sb	a5,0(a3) # 10000 <_RAMCODE_VMA_END+0x52bc>
    680e:	eb129de3          	bne	t0,a7,66c8 <riscv_depthwise_conv_s8+0x200>
    6812:	454a                	c.lwsp	a0,144(sp)
    6814:	85fe                	c.mv	a1,t6
    6816:	433a                	c.lwsp	t1,140(sp)
    6818:	4faa                	c.lwsp	t6,136(sp)
    681a:	88fa                	c.mv	a7,t5
    681c:	00700633          	add	a2,zero,t2
    6820:	00950f33          	add	t5,a0,s1
    6824:	0a05                	c.addi	s4,1
    6826:	8696                	c.mv	a3,t0
    6828:	e74b98e3          	bne	s7,s4,6698 <riscv_depthwise_conv_s8+0x1d0>
    682c:	52d6                	c.lwsp	t0,116(sp)
    682e:	57e6                	c.lwsp	a5,120(sp)
    6830:	5ef6                	c.lwsp	t4,124(sp)
    6832:	4e0a                	c.lwsp	t3,128(sp)
    6834:	08412803          	lw	a6,132(sp)
    6838:	9616                	c.add	a2,t0
    683a:	0642                	c.slli	a2,0x10
    683c:	0e85                	c.addi	t4,1
    683e:	8241                	c.srli	a2,0x10
    6840:	e1d79ae3          	bne	a5,t4,6654 <riscv_depthwise_conv_s8+0x18c>
    6844:	892e                	c.mv	s2,a1
    6846:	5a46                	c.lwsp	s4,112(sp)
    6848:	06812583          	lw	a1,104(sp)
    684c:	00b406b3          	add	a3,s0,a1
    6850:	01069413          	slli	s0,a3,0x10
    6854:	0a05                	c.addi	s4,1
    6856:	8041                	c.srli	s0,0x10
    6858:	db1a1ce3          	bne	s4,a7,6610 <riscv_depthwise_conv_s8+0x148>
    685c:	83be                	c.mv	t2,a5
    685e:	87d6                	c.mv	a5,s5
    6860:	8ade                	c.mv	s5,s7
    6862:	8bbe                	c.mv	s7,a5
    6864:	4782                	c.lwsp	a5,0(sp)
    6866:	86ba                	c.mv	a3,a4
    6868:	97f2                	c.add	a5,t3
    686a:	00180713          	addi	a4,a6,1
    686e:	c03e                	c.swsp	a5,0(sp)
    6870:	01c00633          	add	a2,zero,t3
    6874:	d86714e3          	bne	a4,t1,65fc <riscv_depthwise_conv_s8+0x134>
    6878:	447e                	c.lwsp	s0,220(sp)
    687a:	44ee                	c.lwsp	s1,216(sp)
    687c:	495e                	c.lwsp	s2,212(sp)
    687e:	49ce                	c.lwsp	s3,208(sp)
    6880:	4a3e                	c.lwsp	s4,204(sp)
    6882:	4aae                	c.lwsp	s5,200(sp)
    6884:	4b1e                	c.lwsp	s6,196(sp)
    6886:	4b8e                	c.lwsp	s7,192(sp)
    6888:	5c7a                	c.lwsp	s8,188(sp)
    688a:	5cea                	c.lwsp	s9,184(sp)
    688c:	5d5a                	c.lwsp	s10,180(sp)
    688e:	5dca                	c.lwsp	s11,176(sp)
    6890:	4501                	c.li	a0,0
    6892:	612d                	c.addi16sp	sp,224
    6894:	00008067          	ret
    6898:	4576                	c.lwsp	a0,92(sp)
    689a:	4792                	c.lwsp	a5,4(sp)
    689c:	e69ff06f          	j	6704 <riscv_depthwise_conv_s8+0x23c>
    68a0:	45b6                	c.lwsp	a1,76(sp)
    68a2:	4622                	c.lwsp	a2,8(sp)
    68a4:	e41ff06f          	j	66e4 <riscv_depthwise_conv_s8+0x21c>
    68a8:	006e0e63          	beq	t3,t1,68c4 <riscv_depthwise_conv_s8+0x3fc>
    68ac:	010e9713          	slli	a4,t4,0x10
    68b0:	07c2                	c.slli	a5,0x10
    68b2:	01069e93          	slli	t4,a3,0x10
    68b6:	0542                	c.slli	a0,0x10
    68b8:	83c1                	c.srli	a5,0x10
    68ba:	8341                	c.srli	a4,0x10
    68bc:	010ede93          	srli	t4,t4,0x10
    68c0:	8141                	c.srli	a0,0x10
    68c2:	b94d                	c.j	6574 <riscv_depthwise_conv_s8+0xac>
    68c4:	ffcf14e3          	bne	t5,t3,68ac <riscv_depthwise_conv_s8+0x3e4>
    68c8:	00c4ac03          	lw	s8,12(s1)
    68cc:	41d00633          	neg	a2,t4
    68d0:	fb1054e3          	blez	a7,6878 <riscv_depthwise_conv_s8+0x3b0>
    68d4:	038b0733          	mul	a4,s6,s8
    68d8:	d43a                	c.swsp	a4,40(sp)
    68da:	03fc8733          	mul	a4,s9,t6
    68de:	d23a                	c.swsp	a4,36(sp)
    68e0:	40f00733          	neg	a4,a5
    68e4:	f9505ae3          	blez	s5,6878 <riscv_depthwise_conv_s8+0x3b0>
    68e8:	fffa0593          	addi	a1,s4,-1
    68ec:	0025d813          	srli	a6,a1,0x2
    68f0:	0805                	c.addi	a6,1
    68f2:	02dc8d33          	mul	s10,s9,a3
    68f6:	03970f33          	mul	t5,a4,s9
    68fa:	00281d93          	slli	s11,a6,0x2
    68fe:	00481b93          	slli	s7,a6,0x4
    6902:	00ff8933          	add	s2,t6,a5
    6906:	8336                	c.mv	t1,a3
    6908:	8fda                	c.mv	t6,s6
    690a:	86aa                	c.mv	a3,a0
    690c:	8776                	c.mv	a4,t4
    690e:	01d285b3          	add	a1,t0,t4
    6912:	4801                	c.li	a6,0
    6914:	4e01                	c.li	t3,0
    6916:	8b62                	c.mv	s6,s8
    6918:	853e                	c.mv	a0,a5
    691a:	c4e6                	c.swsp	s9,72(sp)
    691c:	f3c704ff          	maxw	s1,a4,t3
    6920:	5e92                	c.lwsp	t4,36(sp)
    6922:	009607b3          	add	a5,a2,s1
    6926:	03d78cb3          	mul	s9,a5,t4
    692a:	5ea2                	c.lwsp	t4,40(sp)
    692c:	4796                	c.lwsp	a5,68(sp)
    692e:	dcba                	c.swsp	a4,120(sp)
    6930:	8746                	c.mv	a4,a7
    6932:	c49e97ff          	maddr32	a5,t4,s1
    6936:	88d2                	c.mv	a7,s4
    6938:	d0be                	c.swsp	a5,96(sp)
    693a:	5a2e                	c.lwsp	s4,232(sp)
    693c:	f08587ff          	minw	a5,a1,s0
    6940:	82aa                	c.mv	t0,a0
    6942:	83ca                	c.mv	t2,s2
    6944:	c6a6                	c.swsp	s1,76(sp)
    6946:	ce3e                	c.swsp	a5,28(sp)
    6948:	dac2                	c.swsp	a6,116(sp)
    694a:	87ca                	c.mv	a5,s2
    694c:	882a                	c.mv	a6,a0
    694e:	84fa                	c.mv	s1,t5
    6950:	4c01                	c.li	s8,0
    6952:	8ea2                	c.mv	t4,s0
    6954:	8536                	c.mv	a0,a3
    6956:	891a                	c.mv	s2,t1
    6958:	d8b2                	c.swsp	a2,112(sp)
    695a:	deae                	c.swsp	a1,124(sp)
    695c:	f3c2867f          	maxw	a2,t0,t3
    6960:	ccb2                	c.swsp	a2,88(sp)
    6962:	2d605563          	blez	s6,6c2c <riscv_depthwise_conv_s8+0x764>
    6966:	45a6                	c.lwsp	a1,72(sp)
    6968:	019486b3          	add	a3,s1,s9
    696c:	530e                	c.lwsp	t1,224(sp)
    696e:	c4c596ff          	maddr32	a3,a1,a2
    6972:	5586                	c.lwsp	a1,96(sp)
    6974:	c316                	c.swsp	t0,132(sp)
    6976:	c91e                	c.swsp	t2,144(sp)
    6978:	c56615ff          	maddr32	a1,a2,s6
    697c:	f1f3867f          	minw	a2,t2,t6
    6980:	d032                	c.swsp	a2,32(sp)
    6982:	4602                	c.lwsp	a2,0(sp)
    6984:	83fe                	c.mv	t2,t6
    6986:	96b2                	c.add	a3,a2
    6988:	c236                	c.swsp	a3,4(sp)
    698a:	5632                	c.lwsp	a2,44(sp)
    698c:	56c2                	c.lwsp	a3,48(sp)
    698e:	82f6                	c.mv	t0,t4
    6990:	ceae                	c.swsp	a1,92(sp)
    6992:	8fca                	c.mv	t6,s2
    6994:	4581                	c.li	a1,0
    6996:	8ebe                	c.mv	t4,a5
    6998:	c65a                	c.swsp	s6,12(sp)
    699a:	c162                	c.swsp	s8,128(sp)
    699c:	c57a                	c.swsp	t5,136(sp)
    699e:	c726                	c.swsp	s1,140(sp)
    69a0:	27105463          	blez	a7,6c08 <riscv_depthwise_conv_s8+0x740>
    69a4:	47f6                	c.lwsp	a5,92(sp)
    69a6:	8932                	c.mv	s2,a2
    69a8:	97ae                	c.add	a5,a1
    69aa:	c43e                	c.swsp	a5,8(sp)
    69ac:	84b6                	c.mv	s1,a3
    69ae:	01ba07b3          	add	a5,s4,s11
    69b2:	d2be                	c.swsp	a5,100(sp)
    69b4:	cb46                	c.swsp	a7,148(sp)
    69b6:	cd2e                	c.swsp	a1,152(sp)
    69b8:	cf36                	c.swsp	a3,156(sp)
    69ba:	d132                	c.swsp	a2,160(sp)
    69bc:	d36a                	c.swsp	s10,164(sp)
    69be:	d566                	c.swsp	s9,168(sp)
    69c0:	c81e                	c.swsp	t2,16(sp)
    69c2:	ca42                	c.swsp	a6,20(sp)
    69c4:	cc2a                	c.swsp	a0,24(sp)
    69c6:	d73a                	c.swsp	a4,172(sp)
    69c8:	28030e63          	beqz	t1,6c64 <riscv_depthwise_conv_s8+0x79c>
    69cc:	00032f03          	lw	t5,0(t1) # 40000000 <_DATA_LMA_START+0x1fff5168>
    69d0:	00432883          	lw	a7,4(t1)
    69d4:	00832683          	lw	a3,8(t1)
    69d8:	00c32783          	lw	a5,12(t1)
    69dc:	01030313          	addi	t1,t1,16
    69e0:	4772                	c.lwsp	a4,28(sp)
    69e2:	43b6                	c.lwsp	t2,76(sp)
    69e4:	08e3d463          	bge	t2,a4,6a6c <riscv_depthwise_conv_s8+0x5a4>
    69e8:	4992                	c.lwsp	s3,4(sp)
    69ea:	4422                	c.lwsp	s0,8(sp)
    69ec:	4ce6                	c.lwsp	s9,88(sp)
    69ee:	45c2                	c.lwsp	a1,16(sp)
    69f0:	4852                	c.lwsp	a6,20(sp)
    69f2:	4562                	c.lwsp	a0,24(sp)
    69f4:	8c4a                	c.mv	s8,s2
    69f6:	8b26                	c.mv	s6,s1
    69f8:	5602                	c.lwsp	a2,32(sp)
    69fa:	8722                	c.mv	a4,s0
    69fc:	04ccda63          	bge	s9,a2,6a50 <riscv_depthwise_conv_s8+0x588>
    6a00:	894e                	c.mv	s2,s3
    6a02:	84e6                	c.mv	s1,s9
    6a04:	04b12823          	sw	a1,80(sp)
    6a08:	00170603          	lb	a2,1(a4)
    6a0c:	00090583          	lb	a1,0(s2) # 40000000 <_DATA_LMA_START+0x1fff5168>
    6a10:	00070d03          	lb	s10,0(a4)
    6a14:	c832                	c.swsp	a2,16(sp)
    6a16:	00270603          	lb	a2,2(a4)
    6a1a:	0485                	c.addi	s1,1
    6a1c:	ca32                	c.swsp	a2,20(sp)
    6a1e:	00370603          	lb	a2,3(a4)
    6a22:	cc32                	c.swsp	a2,24(sp)
    6a24:	5662                	c.lwsp	a2,56(sp)
    6a26:	962e                	c.add	a2,a1
    6a28:	c4cd1f7f          	maddr32	t5,s10,a2
    6a2c:	4d42                	c.lwsp	s10,16(sp)
    6a2e:	c4cd18ff          	maddr32	a7,s10,a2
    6a32:	4d52                	c.lwsp	s10,20(sp)
    6a34:	c4cd16ff          	maddr32	a3,s10,a2
    6a38:	4d62                	c.lwsp	s10,24(sp)
    6a3a:	c4cd17ff          	maddr32	a5,s10,a2
    6a3e:	4632                	c.lwsp	a2,12(sp)
    6a40:	9732                	c.add	a4,a2
    6a42:	4626                	c.lwsp	a2,72(sp)
    6a44:	9932                	c.add	s2,a2
    6a46:	5602                	c.lwsp	a2,32(sp)
    6a48:	fc9610e3          	bne	a2,s1,6a08 <riscv_depthwise_conv_s8+0x540>
    6a4c:	05012583          	lw	a1,80(sp)
    6a50:	5722                	c.lwsp	a4,40(sp)
    6a52:	0385                	c.addi	t2,1
    6a54:	943a                	c.add	s0,a4
    6a56:	5712                	c.lwsp	a4,36(sp)
    6a58:	99ba                	c.add	s3,a4
    6a5a:	4772                	c.lwsp	a4,28(sp)
    6a5c:	f8771ee3          	bne	a4,t2,69f8 <riscv_depthwise_conv_s8+0x530>
    6a60:	8962                	c.mv	s2,s8
    6a62:	84da                	c.mv	s1,s6
    6a64:	c82e                	c.swsp	a1,16(sp)
    6a66:	ca42                	c.swsp	a6,20(sp)
    6a68:	00a12c23          	sw	a0,24(sp)
    6a6c:	00092983          	lw	s3,0(s2)
    6a70:	0004ab03          	lw	s6,0(s1)
    6a74:	f3c9867f          	maxw	a2,s3,t3
    6a78:	00492d03          	lw	s10,4(s2)
    6a7c:	00cf1633          	sll	a2,t5,a2
    6a80:	40000c37          	lui	s8,0x40000
    6a84:	4c81                	c.li	s9,0
    6a86:	00892583          	lw	a1,8(s2)
    6a8a:	85661c7f          	smar64	s8,a2,s6
    6a8e:	40d0                	c.lw	a2,4(s1)
    6a90:	f3cd03ff          	maxw	t2,s10,t3
    6a94:	f3c5847f          	maxw	s0,a1,t3
    6a98:	007898b3          	sll	a7,a7,t2
    6a9c:	40000537          	lui	a0,0x40000
    6aa0:	4581                	c.li	a1,0
    6aa2:	84c8957f          	smar64	a0,a7,a2
    6aa6:	4490                	c.lw	a2,8(s1)
    6aa8:	c8aa                	c.swsp	a0,80(sp)
    6aaa:	008696b3          	sll	a3,a3,s0
    6aae:	caae                	c.swsp	a1,84(sp)
    6ab0:	40000537          	lui	a0,0x40000
    6ab4:	4581                	c.li	a1,0
    6ab6:	84c6957f          	smar64	a0,a3,a2
    6aba:	00c92703          	lw	a4,12(s2)
    6abe:	00892683          	lw	a3,8(s2)
    6ac2:	d6ae                	c.swsp	a1,108(sp)
    6ac4:	44cc                	c.lw	a1,12(s1)
    6ac6:	f3c70f7f          	maxw	t5,a4,t3
    6aca:	01e797b3          	sll	a5,a5,t5
    6ace:	40d00433          	neg	s0,a3
    6ad2:	40000637          	lui	a2,0x40000
    6ad6:	4681                	c.li	a3,0
    6ad8:	84b7967f          	smar64	a2,a5,a1
    6adc:	d4aa                	c.swsp	a0,104(sp)
    6ade:	45d6                	c.lwsp	a1,84(sp)
    6ae0:	4546                	c.lwsp	a0,80(sp)
    6ae2:	41300b33          	neg	s6,s3
    6ae6:	41a009b3          	neg	s3,s10
    6aea:	dff508ff          	wexti	a7,a0,31
    6aee:	5526                	c.lwsp	a0,104(sp)
    6af0:	55b6                	c.lwsp	a1,108(sp)
    6af2:	4785                	c.li	a5,1
    6af4:	f3cb0b7f          	maxw	s6,s6,t3
    6af8:	f3c989ff          	maxw	s3,s3,t3
    6afc:	01679d33          	sll	s10,a5,s6
    6b00:	f3c4047f          	maxw	s0,s0,t3
    6b04:	40e003b3          	neg	t2,a4
    6b08:	01379733          	sll	a4,a5,s3
    6b0c:	dffc0f7f          	wexti	t5,s8,31
    6b10:	883a                	c.mv	a6,a4
    6b12:	00879733          	sll	a4,a5,s0
    6b16:	dff507ff          	wexti	a5,a0,31
    6b1a:	fffd0593          	addi	a1,s10,-1
    6b1e:	dff6067f          	wexti	a2,a2,31
    6b22:	fff80513          	addi	a0,a6,-1
    6b26:	fff70c13          	addi	s8,a4,-1
    6b2a:	000f2693          	slti	a3,t5,0
    6b2e:	4015dd13          	srai	s10,a1,0x1
    6b32:	8862                	c.mv	a6,s8
    6b34:	40155c93          	srai	s9,a0,0x1
    6b38:	9d36                	c.add	s10,a3
    6b3a:	0008a693          	slti	a3,a7,0
    6b3e:	c8c2                	c.swsp	a6,80(sp)
    6b40:	f3c383ff          	maxw	t2,t2,t3
    6b44:	4705                	c.li	a4,1
    6b46:	9cb6                	c.add	s9,a3
    6b48:	46c6                	c.lwsp	a3,80(sp)
    6b4a:	00771c33          	sll	s8,a4,t2
    6b4e:	01e5f5b3          	and	a1,a1,t5
    6b52:	8efd                	c.and	a3,a5
    6b54:	1c7d                	c.addi	s8,-1
    6b56:	40185713          	srai	a4,a6,0x1
    6b5a:	0007a813          	slti	a6,a5,0
    6b5e:	9742                	c.add	a4,a6
    6b60:	416f5f33          	sra	t5,t5,s6
    6b64:	00062813          	slti	a6,a2,0
    6b68:	00bd2b33          	slt	s6,s10,a1
    6b6c:	c8b6                	c.swsp	a3,80(sp)
    6b6e:	401c5693          	srai	a3,s8,0x1
    6b72:	45c6                	c.lwsp	a1,80(sp)
    6b74:	01157533          	and	a0,a0,a7
    6b78:	00cc7c33          	and	s8,s8,a2
    6b7c:	96c2                	c.add	a3,a6
    6b7e:	4138d8b3          	sra	a7,a7,s3
    6b82:	4087d7b3          	sra	a5,a5,s0
    6b86:	0186a6b3          	slt	a3,a3,s8
    6b8a:	00b72433          	slt	s0,a4,a1
    6b8e:	00aca9b3          	slt	s3,s9,a0
    6b92:	5752                	c.lwsp	a4,52(sp)
    6b94:	40765633          	sra	a2,a2,t2
    6b98:	55f2                	c.lwsp	a1,60(sp)
    6b9a:	9f5a                	c.add	t5,s6
    6b9c:	9636                	c.add	a2,a3
    6b9e:	98ce                	c.add	a7,s3
    6ba0:	97a2                	c.add	a5,s0
    6ba2:	00ef06b3          	add	a3,t5,a4
    6ba6:	98ba                	c.add	a7,a4
    6ba8:	97ba                	c.add	a5,a4
    6baa:	963a                	c.add	a2,a4
    6bac:	4706                	c.lwsp	a4,64(sp)
    6bae:	f2b686ff          	maxw	a3,a3,a1
    6bb2:	f0e686ff          	minw	a3,a3,a4
    6bb6:	00da0023          	sb	a3,0(s4)
    6bba:	f2b888ff          	maxw	a7,a7,a1
    6bbe:	f0e888ff          	minw	a7,a7,a4
    6bc2:	f2b787ff          	maxw	a5,a5,a1
    6bc6:	011a00a3          	sb	a7,1(s4)
    6bca:	f0e78f7f          	minw	t5,a5,a4
    6bce:	f2b607ff          	maxw	a5,a2,a1
    6bd2:	f0e787ff          	minw	a5,a5,a4
    6bd6:	01ea0123          	sb	t5,2(s4)
    6bda:	0a11                	c.addi	s4,4
    6bdc:	04c1                	c.addi	s1,16
    6bde:	0941                	c.addi	s2,16
    6be0:	fefa0fa3          	sb	a5,-1(s4)
    6be4:	47a2                	c.lwsp	a5,8(sp)
    6be6:	0791                	c.addi	a5,4
    6be8:	c43e                	c.swsp	a5,8(sp)
    6bea:	5796                	c.lwsp	a5,100(sp)
    6bec:	dcfa1ee3          	bne	s4,a5,69c8 <riscv_depthwise_conv_s8+0x500>
    6bf0:	46fa                	c.lwsp	a3,156(sp)
    6bf2:	560a                	c.lwsp	a2,160(sp)
    6bf4:	48da                	c.lwsp	a7,148(sp)
    6bf6:	5d1a                	c.lwsp	s10,164(sp)
    6bf8:	5caa                	c.lwsp	s9,168(sp)
    6bfa:	43c2                	c.lwsp	t2,16(sp)
    6bfc:	45ea                	c.lwsp	a1,152(sp)
    6bfe:	4852                	c.lwsp	a6,20(sp)
    6c00:	4562                	c.lwsp	a0,24(sp)
    6c02:	573a                	c.lwsp	a4,172(sp)
    6c04:	96de                	c.add	a3,s7
    6c06:	965e                	c.add	a2,s7
    6c08:	4792                	c.lwsp	a5,4(sp)
    6c0a:	95c6                	c.add	a1,a7
    6c0c:	0785                	c.addi	a5,1
    6c0e:	c23e                	c.swsp	a5,4(sp)
    6c10:	47b2                	c.lwsp	a5,12(sp)
    6c12:	d8f5c7e3          	blt	a1,a5,69a0 <riscv_depthwise_conv_s8+0x4d8>
    6c16:	8b3e                	c.mv	s6,a5
    6c18:	897e                	c.mv	s2,t6
    6c1a:	87f6                	c.mv	a5,t4
    6c1c:	8f9e                	c.mv	t6,t2
    6c1e:	8e96                	c.mv	t4,t0
    6c20:	4c0a                	c.lwsp	s8,128(sp)
    6c22:	4f2a                	c.lwsp	t5,136(sp)
    6c24:	44ba                	c.lwsp	s1,140(sp)
    6c26:	43ca                	c.lwsp	t2,144(sp)
    6c28:	08412283          	lw	t0,132(sp)
    6c2c:	0c05                	c.addi	s8,1
    6c2e:	412282b3          	sub	t0,t0,s2
    6c32:	412383b3          	sub	t2,t2,s2
    6c36:	94ea                	c.add	s1,s10
    6c38:	d35c12e3          	bne	s8,s5,695c <riscv_depthwise_conv_s8+0x494>
    6c3c:	86aa                	c.mv	a3,a0
    6c3e:	8542                	c.mv	a0,a6
    6c40:	5856                	c.lwsp	a6,116(sp)
    6c42:	5646                	c.lwsp	a2,112(sp)
    6c44:	55f6                	c.lwsp	a1,124(sp)
    6c46:	d5d2                	c.swsp	s4,232(sp)
    6c48:	8a46                	c.mv	s4,a7
    6c4a:	88ba                	c.mv	a7,a4
    6c4c:	5766                	c.lwsp	a4,120(sp)
    6c4e:	0805                	c.addi	a6,1
    6c50:	834a                	c.mv	t1,s2
    6c52:	8476                	c.mv	s0,t4
    6c54:	893e                	c.mv	s2,a5
    6c56:	9636                	c.add	a2,a3
    6c58:	8f15                	c.sub	a4,a3
    6c5a:	8d95                	c.sub	a1,a3
    6c5c:	cd1810e3          	bne	a6,a7,691c <riscv_depthwise_conv_s8+0x454>
    6c60:	c19ff06f          	j	6878 <riscv_depthwise_conv_s8+0x3b0>
    6c64:	4781                	c.li	a5,0
    6c66:	4681                	c.li	a3,0
    6c68:	4881                	c.li	a7,0
    6c6a:	4f01                	c.li	t5,0
    6c6c:	bb95                	c.j	69e0 <riscv_depthwise_conv_s8+0x518>
	...

00006c70 <riscv_depthwise_conv_s8_opt>:
    6c70:	712d                	c.addi16sp	sp,-288
    6c72:	11412423          	sw	s4,264(sp)
    6c76:	12412a03          	lw	s4,292(sp)
    6c7a:	10812c23          	sw	s0,280(sp)
    6c7e:	d9ea                	c.swsp	s10,240(sp)
    6c80:	00ca2403          	lw	s0,12(s4)
    6c84:	00c6ad03          	lw	s10,12(a3)
    6c88:	10112e23          	sw	ra,284(sp)
    6c8c:	10912a23          	sw	s1,276(sp)
    6c90:	11212823          	sw	s2,272(sp)
    6c94:	11312623          	sw	s3,268(sp)
    6c98:	11512223          	sw	s5,260(sp)
    6c9c:	11612023          	sw	s6,256(sp)
    6ca0:	dfde                	c.swsp	s7,252(sp)
    6ca2:	dde2                	c.swsp	s8,248(sp)
    6ca4:	dbe6                	c.swsp	s9,244(sp)
    6ca6:	d7ee                	c.swsp	s11,236(sp)
    6ca8:	12812383          	lw	t2,296(sp)
    6cac:	6a8d1063          	bne	s10,s0,734c <riscv_depthwise_conv_s8_opt+0x6dc>
    6cb0:	8abe                	c.mv	s5,a5
    6cb2:	411c                	c.lw	a5,0(a0)
    6cb4:	c0c2                	c.swsp	a6,64(sp)
    6cb6:	d13a                	c.swsp	a4,160(sp)
    6cb8:	c63e                	c.swsp	a5,12(sp)
    6cba:	84b2                	c.mv	s1,a2
    6cbc:	8e2e                	c.mv	t3,a1
    6cbe:	8b2a                	c.mv	s6,a0
    6cc0:	00d00bb3          	add	s7,zero,a3
    6cc4:	66078263          	beqz	a5,7328 <riscv_depthwise_conv_s8_opt+0x6b8>
    6cc8:	008aa783          	lw	a5,8(s5)
    6ccc:	008a2703          	lw	a4,8(s4)
    6cd0:	da3e                	c.swsp	a5,52(sp)
    6cd2:	004aa783          	lw	a5,4(s5)
    6cd6:	004a2683          	lw	a3,4(s4)
    6cda:	d8be                	c.swsp	a5,112(sp)
    6cdc:	daba                	c.swsp	a4,116(sp)
    6cde:	018e2583          	lw	a1,24(t3)
    6ce2:	010e2783          	lw	a5,16(t3)
    6ce6:	5cd05d63          	blez	a3,72c0 <riscv_depthwise_conv_s8_opt+0x650>
    6cea:	5ed2                	c.lwsp	t4,52(sp)
    6cec:	5746                	c.lwsp	a4,112(sp)
    6cee:	41f45513          	srai	a0,s0,0x1f
    6cf2:	03d70733          	mul	a4,a4,t4
    6cf6:	890d                	c.andi	a0,3
    6cf8:	001d1d93          	slli	s11,s10,0x1
    6cfc:	01f75813          	srli	a6,a4,0x1f
    6d00:	983a                	c.add	a6,a4
    6d02:	40185813          	srai	a6,a6,0x1
    6d06:	01081313          	slli	t1,a6,0x10
    6d0a:	9522                	c.add	a0,s0
    6d0c:	004d8813          	addi	a6,s11,4
    6d10:	8509                	c.srai	a0,0x2
    6d12:	dd42                	c.swsp	a6,184(sp)
    6d14:	01071813          	slli	a6,a4,0x10
    6d18:	01085813          	srli	a6,a6,0x10
    6d1c:	8b05                	c.andi	a4,1
    6d1e:	0542                	c.slli	a0,0x10
    6d20:	8141                	c.srli	a0,0x10
    6d22:	01035313          	srli	t1,t1,0x10
    6d26:	002d1f13          	slli	t5,s10,0x2
    6d2a:	d342                	c.swsp	a6,164(sp)
    6d2c:	c4ba                	c.swsp	a4,72(sp)
    6d2e:	01079813          	slli	a6,a5,0x10
    6d32:	00347713          	andi	a4,s0,3
    6d36:	57d6                	c.lwsp	a5,116(sp)
    6d38:	01059893          	slli	a7,a1,0x10
    6d3c:	c12a                	c.swsp	a0,128(sp)
    6d3e:	c29a                	c.swsp	t1,68(sp)
    6d40:	df7a                	c.swsp	t5,188(sp)
    6d42:	d4ba                	c.swsp	a4,104(sp)
    6d44:	03ae8633          	mul	a2,t4,s10
    6d48:	01085813          	srli	a6,a6,0x10
    6d4c:	0108d893          	srli	a7,a7,0x10
    6d50:	56f05863          	blez	a5,72c0 <riscv_depthwise_conv_s8_opt+0x650>
    6d54:	fff30793          	addi	a5,t1,-1
    6d58:	07c2                	c.slli	a5,0x10
    6d5a:	fff50593          	addi	a1,a0,-1 # 3fffffff <_DATA_LMA_START+0x1fff5167>
    6d5e:	83c1                	c.srli	a5,0x10
    6d60:	00178713          	addi	a4,a5,1
    6d64:	008baf83          	lw	t6,8(s7)
    6d68:	01059793          	slli	a5,a1,0x10
    6d6c:	83c1                	c.srli	a5,0x10
    6d6e:	00178593          	addi	a1,a5,1
    6d72:	03fd07b3          	mul	a5,s10,t6
    6d76:	842a                	c.mv	s0,a0
    6d78:	fffe8513          	addi	a0,t4,-1
    6d7c:	c6be                	c.swsp	a5,76(sp)
    6d7e:	03a507b3          	mul	a5,a0,s10
    6d82:	00241513          	slli	a0,s0,0x2
    6d86:	0044ae83          	lw	t4,4(s1)
    6d8a:	c8be                	c.swsp	a5,80(sp)
    6d8c:	02ed87b3          	mul	a5,s11,a4
    6d90:	4084                	c.lw	s1,0(s1)
    6d92:	014e2303          	lw	t1,20(t3)
    6d96:	ccbe                	c.swsp	a5,88(sp)
    6d98:	02ef07b3          	mul	a5,t5,a4
    6d9c:	004e2403          	lw	s0,4(t3)
    6da0:	00459713          	slli	a4,a1,0x4
    6da4:	cabe                	c.swsp	a5,84(sp)
    6da6:	00ce5783          	lhu	a5,12(t3)
    6daa:	40600333          	neg	t1,t1
    6dae:	028e2b03          	lw	s6,40(t3)
    6db2:	c53e                	c.swsp	a5,136(sp)
    6db4:	000e1783          	lh	a5,0(t3)
    6db8:	dea6                	c.swsp	s1,124(sp)
    6dba:	de22                	c.swsp	s0,60(sp)
    6dbc:	c83e                	c.swsp	a5,16(sp)
    6dbe:	411007b3          	neg	a5,a7
    6dc2:	004ba883          	lw	a7,4(s7)
    6dc6:	01079b93          	slli	s7,a5,0x10
    6dca:	00259793          	slli	a5,a1,0x2
    6dce:	c93e                	c.swsp	a5,144(sp)
    6dd0:	01051793          	slli	a5,a0,0x10
    6dd4:	83c1                	c.srli	a5,0x10
    6dd6:	cf3e                	c.swsp	a5,156(sp)
    6dd8:	00e487b3          	add	a5,s1,a4
    6ddc:	010bdb93          	srli	s7,s7,0x10
    6de0:	024e2403          	lw	s0,36(t3)
    6de4:	01031493          	slli	s1,t1,0x10
    6de8:	cd3e                	c.swsp	a5,152(sp)
    6dea:	00ee87b3          	add	a5,t4,a4
    6dee:	4701                	c.li	a4,0
    6df0:	80c1                	c.srli	s1,0x10
    6df2:	8a5e                	c.mv	s4,s7
    6df4:	c3b6                	c.swsp	a3,196(sp)
    6df6:	85b2                	c.mv	a1,a2
    6df8:	86ba                	c.mv	a3,a4
    6dfa:	8b9e                	c.mv	s7,t2
    6dfc:	c77e                	c.swsp	t6,140(sp)
    6dfe:	dcf6                	c.swsp	t4,120(sp)
    6e00:	d6a2                	c.swsp	s0,108(sp)
    6e02:	cb3e                	c.swsp	a5,148(sp)
    6e04:	c1c6                	c.swsp	a7,192(sp)
    6e06:	c5da                	c.swsp	s6,200(sp)
    6e08:	0c912623          	sw	s1,204(sp)
    6e0c:	010a1793          	slli	a5,s4,0x10
    6e10:	470e                	c.lwsp	a4,192(sp)
    6e12:	5646                	c.lwsp	a2,112(sp)
    6e14:	87c1                	c.srai	a5,0x10
    6e16:	8f1d                	c.sub	a4,a5
    6e18:	c33a                	c.swsp	a4,132(sp)
    6e1a:	f0e6077f          	minw	a4,a2,a4
    6e1e:	d2be                	c.swsp	a5,100(sp)
    6e20:	dc3a                	c.swsp	a4,56(sp)
    6e22:	40f007b3          	neg	a5,a5
    6e26:	40e60733          	sub	a4,a2,a4
    6e2a:	02b70733          	mul	a4,a4,a1
    6e2e:	02b78633          	mul	a2,a5,a1
    6e32:	db3e                	c.swsp	a5,180(sp)
    6e34:	cdd2                	c.swsp	s4,216(sp)
    6e36:	47be                	c.lwsp	a5,204(sp)
    6e38:	54ea                	c.lwsp	s1,184(sp)
    6e3a:	4b2e                	c.lwsp	s6,200(sp)
    6e3c:	5a7a                	c.lwsp	s4,188(sp)
    6e3e:	0706                	c.slli	a4,0x1
    6e40:	d532                	c.swsp	a2,168(sp)
    6e42:	4401                	c.li	s0,0
    6e44:	0606                	c.slli	a2,0x1
    6e46:	d732                	c.swsp	a2,172(sp)
    6e48:	d93a                	c.swsp	a4,176(sp)
    6e4a:	d082                	c.swsp	zero,96(sp)
    6e4c:	c9b6                	c.swsp	a3,208(sp)
    6e4e:	cbae                	c.swsp	a1,212(sp)
    6e50:	cebe                	c.swsp	a5,92(sp)
    6e52:	cfc2                	c.swsp	a6,220(sp)
    6e54:	cc4a                	c.swsp	s2,24(sp)
    6e56:	ce4e                	c.swsp	s3,28(sp)
    6e58:	5696                	c.lwsp	a3,100(sp)
    6e5a:	05c11803          	lh	a6,92(sp)
    6e5e:	4701                	c.li	a4,0
    6e60:	4781                	c.li	a5,0
    6e62:	0206d163          	bgez	a3,6e84 <riscv_depthwise_conv_s8_opt+0x214>
    6e66:	575a                	c.lwsp	a4,180(sp)
    6e68:	57aa                	c.lwsp	a5,168(sp)
    6e6a:	563a                	c.lwsp	a2,172(sp)
    6e6c:	4532                	c.lwsp	a0,12(sp)
    6e6e:	4581                	c.li	a1,0
    6e70:	d242                	c.swsp	a6,36(sp)
    6e72:	d03a                	c.swsp	a4,32(sp)
    6e74:	00f12a23          	sw	a5,20(sp)
    6e78:	7ab020ef          	jal	ra,9e22 <memset>
    6e7c:	5812                	c.lwsp	a6,36(sp)
    6e7e:	5702                	c.lwsp	a4,32(sp)
    6e80:	01412783          	lw	a5,20(sp)
    6e84:	56e2                	c.lwsp	a3,56(sp)
    6e86:	0ad75363          	bge	a4,a3,6f2c <riscv_depthwise_conv_s8_opt+0x2bc>
    6e8a:	5696                	c.lwsp	a3,100(sp)
    6e8c:	85c2                	c.mv	a1,a6
    6e8e:	00e68633          	add	a2,a3,a4
    6e92:	46ba                	c.lwsp	a3,140(sp)
    6e94:	d026                	c.swsp	s1,32(sp)
    6e96:	d252                	c.swsp	s4,36(sp)
    6e98:	c4d615ff          	maddr32	a1,a2,a3
    6e9c:	5652                	c.lwsp	a2,52(sp)
    6e9e:	d85a                	c.swsp	s6,48(sp)
    6ea0:	01060ab3          	add	s5,a2,a6
    6ea4:	560a                	c.lwsp	a2,160(sp)
    6ea6:	84b6                	c.mv	s1,a3
    6ea8:	8a3a                	c.mv	s4,a4
    6eaa:	c5a5967f          	maddr32	a2,a1,s10
    6eae:	ca42                	c.swsp	a6,20(sp)
    6eb0:	8b32                	c.mv	s6,a2
    6eb2:	13712423          	sw	s7,296(sp)
    6eb6:	d462                	c.swsp	s8,40(sp)
    6eb8:	03912623          	sw	s9,44(sp)
    6ebc:	5752                	c.lwsp	a4,52(sp)
    6ebe:	04e05963          	blez	a4,6f10 <riscv_depthwise_conv_s8_opt+0x2a0>
    6ec2:	4732                	c.lwsp	a4,12(sp)
    6ec4:	00179893          	slli	a7,a5,0x1
    6ec8:	4bd2                	c.lwsp	s7,20(sp)
    6eca:	011709b3          	add	s3,a4,a7
    6ece:	8cda                	c.mv	s9,s6
    6ed0:	893e                	c.mv	s2,a5
    6ed2:	a809                	c.j	6ee4 <riscv_depthwise_conv_s8_opt+0x274>
    6ed4:	0b85                	c.addi	s7,1
    6ed6:	99ee                	c.add	s3,s11
    6ed8:	01ac8cb3          	add	s9,s9,s10
    6edc:	747020ef          	jal	ra,9e22 <memset>
    6ee0:	037a8463          	beq	s5,s7,6f08 <riscv_depthwise_conv_s8_opt+0x298>
    6ee4:	866e                	c.mv	a2,s11
    6ee6:	4581                	c.li	a1,0
    6ee8:	854e                	c.mv	a0,s3
    6eea:	fe0bc5e3          	bltz	s7,6ed4 <riscv_depthwise_conv_s8_opt+0x264>
    6eee:	fe9bd3e3          	bge	s7,s1,6ed4 <riscv_depthwise_conv_s8_opt+0x264>
    6ef2:	46c2                	c.lwsp	a3,16(sp)
    6ef4:	85ce                	c.mv	a1,s3
    6ef6:	8566                	c.mv	a0,s9
    6ef8:	866a                	c.mv	a2,s10
    6efa:	0b85                	c.addi	s7,1
    6efc:	99ee                	c.add	s3,s11
    6efe:	9cea                	c.add	s9,s10
    6f00:	599020ef          	jal	ra,9c98 <riscv_q7_to_q15_with_offset>
    6f04:	ff7a90e3          	bne	s5,s7,6ee4 <riscv_depthwise_conv_s8_opt+0x274>
    6f08:	4746                	c.lwsp	a4,80(sp)
    6f0a:	012d07b3          	add	a5,s10,s2
    6f0e:	97ba                	c.add	a5,a4
    6f10:	4736                	c.lwsp	a4,76(sp)
    6f12:	0a05                	c.addi	s4,1
    6f14:	9b3a                	c.add	s6,a4
    6f16:	5762                	c.lwsp	a4,56(sp)
    6f18:	faea12e3          	bne	s4,a4,6ebc <riscv_depthwise_conv_s8_opt+0x24c>
    6f1c:	5482                	c.lwsp	s1,32(sp)
    6f1e:	5a12                	c.lwsp	s4,36(sp)
    6f20:	5b42                	c.lwsp	s6,48(sp)
    6f22:	12812b83          	lw	s7,296(sp)
    6f26:	5c22                	c.lwsp	s8,40(sp)
    6f28:	02c12c83          	lw	s9,44(sp)
    6f2c:	5746                	c.lwsp	a4,112(sp)
    6f2e:	469a                	c.lwsp	a3,132(sp)
    6f30:	3ce6c863          	blt	a3,a4,7300 <riscv_depthwise_conv_s8_opt+0x690>
    6f34:	08012783          	lw	a5,128(sp)
    6f38:	3e078063          	beqz	a5,7318 <riscv_depthwise_conv_s8_opt+0x6a8>
    6f3c:	47ca                	c.lwsp	a5,144(sp)
    6f3e:	5f76                	c.lwsp	t5,124(sp)
    6f40:	5ee6                	c.lwsp	t4,120(sp)
    6f42:	12012883          	lw	a7,288(sp)
    6f46:	5536                	c.lwsp	a0,108(sp)
    6f48:	4962                	c.lwsp	s2,24(sp)
    6f4a:	49f2                	c.lwsp	s3,28(sp)
    6f4c:	97de                	c.add	a5,s7
    6f4e:	4581                	c.li	a1,0
    6f50:	02f12423          	sw	a5,40(sp)
    6f54:	3a088063          	beqz	a7,72f4 <riscv_depthwise_conv_s8_opt+0x684>
    6f58:	0008a383          	lw	t2,0(a7)
    6f5c:	0048a283          	lw	t0,4(a7)
    6f60:	0088af83          	lw	t6,8(a7)
    6f64:	00c8ae03          	lw	t3,12(a7)
    6f68:	01088893          	addi	a7,a7,16
    6f6c:	4706                	c.lwsp	a4,64(sp)
    6f6e:	00458793          	addi	a5,a1,4
    6f72:	00b70ab3          	add	s5,a4,a1
    6f76:	4616                	c.lwsp	a2,68(sp)
    6f78:	4732                	c.lwsp	a4,12(sp)
    6f7a:	00159313          	slli	t1,a1,0x1
    6f7e:	01079593          	slli	a1,a5,0x10
    6f82:	933a                	c.add	t1,a4
    6f84:	81c1                	c.srli	a1,0x10
    6f86:	c24d                	c.beqz	a2,7028 <riscv_depthwise_conv_s8_opt+0x3b8>
    6f88:	8856                	c.mv	a6,s5
    6f8a:	869a                	c.mv	a3,t1
    6f8c:	ca76                	c.swsp	t4,20(sp)
    6f8e:	cc2e                	c.swsp	a1,24(sp)
    6f90:	d046                	c.swsp	a7,32(sp)
    6f92:	d22a                	c.swsp	a0,36(sp)
    6f94:	02612823          	sw	t1,48(sp)
    6f98:	00082583          	lw	a1,0(a6)
    6f9c:	01a80733          	add	a4,a6,s10
    6fa0:	4318                	c.lw	a4,0(a4)
    6fa2:	0006a303          	lw	t1,0(a3)
    6fa6:	00dd87b3          	add	a5,s11,a3
    6faa:	439c                	c.lw	a5,0(a5)
    6fac:	ac9588ff          	sunpkd820	a7,a1
    6fb0:	8c2e                	c.mv	s8,a1
    6fb2:	8cae                	c.mv	s9,a1
    6fb4:	de8c05ff          	wexti	a1,s8,8
    6fb8:	ac9585ff          	sunpkd820	a1,a1
    6fbc:	ac970eff          	sunpkd820	t4,a4
    6fc0:	893a                	c.mv	s2,a4
    6fc2:	89ba                	c.mv	s3,a4
    6fc4:	de89077f          	wexti	a4,s2,8
    6fc8:	ac97077f          	sunpkd820	a4,a4
    6fcc:	0ef3157f          	pkbb16	a0,t1,a5
    6fd0:	2e6797ff          	pktt16	a5,a5,t1
    6fd4:	0fd8937f          	pkbb16	t1,a7,t4
    6fd8:	486513ff          	kmada	t2,a0,t1
    6fdc:	0eb7157f          	pkbb16	a0,a4,a1
    6fe0:	48a792ff          	kmada	t0,a5,a0
    6fe4:	00468793          	addi	a5,a3,4
    6fe8:	0007a303          	lw	t1,0(a5)
    6fec:	00d487b3          	add	a5,s1,a3
    6ff0:	439c                	c.lw	a5,0(a5)
    6ff2:	0ef3157f          	pkbb16	a0,t1,a5
    6ff6:	2e6797ff          	pktt16	a5,a5,t1
    6ffa:	2fd898ff          	pktt16	a7,a7,t4
    6ffe:	49151fff          	kmada	t6,a0,a7
    7002:	2eb7177f          	pktt16	a4,a4,a1
    7006:	48e79e7f          	kmada	t3,a5,a4
    700a:	167d                	c.addi	a2,-1
    700c:	0642                	c.slli	a2,0x10
    700e:	8241                	c.srli	a2,0x10
    7010:	986e                	c.add	a6,s11
    7012:	96d2                	c.add	a3,s4
    7014:	f251                	c.bnez	a2,6f98 <riscv_depthwise_conv_s8_opt+0x328>
    7016:	47e6                	c.lwsp	a5,88(sp)
    7018:	5342                	c.lwsp	t1,48(sp)
    701a:	9abe                	c.add	s5,a5
    701c:	47d6                	c.lwsp	a5,84(sp)
    701e:	4ed2                	c.lwsp	t4,20(sp)
    7020:	45e2                	c.lwsp	a1,24(sp)
    7022:	5882                	c.lwsp	a7,32(sp)
    7024:	5512                	c.lwsp	a0,36(sp)
    7026:	933e                	c.add	t1,a5
    7028:	47a6                	c.lwsp	a5,72(sp)
    702a:	cf8d                	c.beqz	a5,7064 <riscv_depthwise_conv_s8_opt+0x3f4>
    702c:	002a8703          	lb	a4,2(s5)
    7030:	000a8783          	lb	a5,0(s5)
    7034:	00031803          	lh	a6,0(t1)
    7038:	ca3a                	c.swsp	a4,20(sp)
    703a:	00431703          	lh	a4,4(t1)
    703e:	001a8603          	lb	a2,1(s5)
    7042:	00231683          	lh	a3,2(t1)
    7046:	003a8a83          	lb	s5,3(s5)
    704a:	00631303          	lh	t1,6(t1)
    704e:	c50793ff          	maddr32	t2,a5,a6
    7052:	87ba                	c.mv	a5,a4
    7054:	01412703          	lw	a4,20(sp)
    7058:	c4d612ff          	maddr32	t0,a2,a3
    705c:	c46a9e7f          	maddr32	t3,s5,t1
    7060:	c4f71fff          	maddr32	t6,a4,a5
    7064:	000ea683          	lw	a3,0(t4)
    7068:	000f2803          	lw	a6,0(t5) # 40000000 <_DATA_LMA_START+0x1fff5168>
    706c:	f286867f          	maxw	a2,a3,s0
    7070:	00c39633          	sll	a2,t2,a2
    7074:	40000737          	lui	a4,0x40000
    7078:	4781                	c.li	a5,0
    707a:	8506177f          	smar64	a4,a2,a6
    707e:	40d006b3          	neg	a3,a3
    7082:	4305                	c.li	t1,1
    7084:	f28686ff          	maxw	a3,a3,s0
    7088:	00d31633          	sll	a2,t1,a3
    708c:	dff7077f          	wexti	a4,a4,31
    7090:	fff60793          	addi	a5,a2,-1 # 3fffffff <_DATA_LMA_START+0x1fff5167>
    7094:	00072813          	slti	a6,a4,0
    7098:	4017d613          	srai	a2,a5,0x1
    709c:	9642                	c.add	a2,a6
    709e:	8ff9                	c.and	a5,a4
    70a0:	53f2                	c.lwsp	t2,60(sp)
    70a2:	00f627b3          	slt	a5,a2,a5
    70a6:	40d75733          	sra	a4,a4,a3
    70aa:	973e                	c.add	a4,a5
    70ac:	971e                	c.add	a4,t2
    70ae:	f2e5077f          	maxw	a4,a0,a4
    70b2:	f0eb077f          	minw	a4,s6,a4
    70b6:	00eb8023          	sb	a4,0(s7)
    70ba:	004ea683          	lw	a3,4(t4)
    70be:	004f2803          	lw	a6,4(t5)
    70c2:	f286867f          	maxw	a2,a3,s0
    70c6:	00c29633          	sll	a2,t0,a2
    70ca:	40000737          	lui	a4,0x40000
    70ce:	4781                	c.li	a5,0
    70d0:	8506177f          	smar64	a4,a2,a6
    70d4:	40d006b3          	neg	a3,a3
    70d8:	f28686ff          	maxw	a3,a3,s0
    70dc:	00d31633          	sll	a2,t1,a3
    70e0:	dff7077f          	wexti	a4,a4,31
    70e4:	fff60793          	addi	a5,a2,-1
    70e8:	00072813          	slti	a6,a4,0
    70ec:	4017d613          	srai	a2,a5,0x1
    70f0:	9642                	c.add	a2,a6
    70f2:	8ff9                	c.and	a5,a4
    70f4:	00f627b3          	slt	a5,a2,a5
    70f8:	40d75733          	sra	a4,a4,a3
    70fc:	973e                	c.add	a4,a5
    70fe:	971e                	c.add	a4,t2
    7100:	f2e5077f          	maxw	a4,a0,a4
    7104:	f0eb077f          	minw	a4,s6,a4
    7108:	00eb80a3          	sb	a4,1(s7)
    710c:	008ea683          	lw	a3,8(t4)
    7110:	008f2803          	lw	a6,8(t5)
    7114:	f286867f          	maxw	a2,a3,s0
    7118:	00cf9633          	sll	a2,t6,a2
    711c:	40000737          	lui	a4,0x40000
    7120:	4781                	c.li	a5,0
    7122:	8506177f          	smar64	a4,a2,a6
    7126:	40d006b3          	neg	a3,a3
    712a:	f28686ff          	maxw	a3,a3,s0
    712e:	00d31633          	sll	a2,t1,a3
    7132:	dff7077f          	wexti	a4,a4,31
    7136:	fff60793          	addi	a5,a2,-1
    713a:	00072813          	slti	a6,a4,0
    713e:	4017d613          	srai	a2,a5,0x1
    7142:	9642                	c.add	a2,a6
    7144:	8ff9                	c.and	a5,a4
    7146:	00f627b3          	slt	a5,a2,a5
    714a:	40d75733          	sra	a4,a4,a3
    714e:	973e                	c.add	a4,a5
    7150:	971e                	c.add	a4,t2
    7152:	f2e5077f          	maxw	a4,a0,a4
    7156:	f0eb077f          	minw	a4,s6,a4
    715a:	0ec1                	c.addi	t4,16
    715c:	00eb8123          	sb	a4,2(s7)
    7160:	ffcea683          	lw	a3,-4(t4)
    7164:	00cf2803          	lw	a6,12(t5)
    7168:	f286867f          	maxw	a2,a3,s0
    716c:	00ce1633          	sll	a2,t3,a2
    7170:	40000737          	lui	a4,0x40000
    7174:	4781                	c.li	a5,0
    7176:	8506177f          	smar64	a4,a2,a6
    717a:	40d006b3          	neg	a3,a3
    717e:	f28686ff          	maxw	a3,a3,s0
    7182:	00d31633          	sll	a2,t1,a3
    7186:	dff7077f          	wexti	a4,a4,31
    718a:	fff60793          	addi	a5,a2,-1
    718e:	4017d613          	srai	a2,a5,0x1
    7192:	00072813          	slti	a6,a4,0
    7196:	8ff9                	c.and	a5,a4
    7198:	9642                	c.add	a2,a6
    719a:	00f627b3          	slt	a5,a2,a5
    719e:	40d75733          	sra	a4,a4,a3
    71a2:	973e                	c.add	a4,a5
    71a4:	971e                	c.add	a4,t2
    71a6:	f2e5077f          	maxw	a4,a0,a4
    71aa:	0b91                	c.addi	s7,4
    71ac:	f0eb077f          	minw	a4,s6,a4
    71b0:	57a2                	c.lwsp	a5,40(sp)
    71b2:	feeb8fa3          	sb	a4,-1(s7)
    71b6:	0f41                	c.addi	t5,16
    71b8:	d8fb9ee3          	bne	s7,a5,6f54 <riscv_depthwise_conv_s8_opt+0x2e4>
    71bc:	457a                	c.lwsp	a0,156(sp)
    71be:	436a                	c.lwsp	t1,152(sp)
    71c0:	485a                	c.lwsp	a6,148(sp)
    71c2:	8e3e                	c.mv	t3,a5
    71c4:	cc4a                	c.swsp	s2,24(sp)
    71c6:	ce4e                	c.swsp	s3,28(sp)
    71c8:	57a6                	c.lwsp	a5,104(sp)
    71ca:	8bf2                	c.mv	s7,t3
    71cc:	cfd5                	c.beqz	a5,7288 <riscv_depthwise_conv_s8_opt+0x618>
    71ce:	00f50eb3          	add	t4,a0,a5
    71d2:	0ec2                	c.slli	t4,0x10
    71d4:	43b2                	c.lwsp	t2,12(sp)
    71d6:	569a                	c.lwsp	a3,164(sp)
    71d8:	55f2                	c.lwsp	a1,60(sp)
    71da:	52b6                	c.lwsp	t0,108(sp)
    71dc:	4a86                	c.lwsp	s5,64(sp)
    71de:	010ede93          	srli	t4,t4,0x10
    71e2:	4f05                	c.li	t5,1
    71e4:	87aa                	c.mv	a5,a0
    71e6:	4b81                	c.li	s7,0
    71e8:	00088663          	beqz	a7,71f4 <riscv_depthwise_conv_s8_opt+0x584>
    71ec:	0008ab83          	lw	s7,0(a7)
    71f0:	00488893          	addi	a7,a7,4
    71f4:	0505                	c.addi	a0,1
    71f6:	0542                	c.slli	a0,0x10
    71f8:	8141                	c.srli	a0,0x10
    71fa:	c29d                	c.beqz	a3,7220 <riscv_depthwise_conv_s8_opt+0x5b0>
    71fc:	00179713          	slli	a4,a5,0x1
    7200:	971e                	c.add	a4,t2
    7202:	97d6                	c.add	a5,s5
    7204:	00000613          	li	a2,0
    7208:	00078983          	lb	s3,0(a5)
    720c:	00071903          	lh	s2,0(a4) # 40000000 <_DATA_LMA_START+0x1fff5168>
    7210:	0605                	c.addi	a2,1
    7212:	97ea                	c.add	a5,s10
    7214:	c5299bff          	maddr32	s7,s3,s2
    7218:	01b70733          	add	a4,a4,s11
    721c:	fec696e3          	bne	a3,a2,7208 <riscv_depthwise_conv_s8_opt+0x598>
    7220:	00082603          	lw	a2,0(a6)
    7224:	00032903          	lw	s2,0(t1)
    7228:	f28607ff          	maxw	a5,a2,s0
    722c:	00fb9bb3          	sll	s7,s7,a5
    7230:	40000737          	lui	a4,0x40000
    7234:	4781                	c.li	a5,0
    7236:	852b977f          	smar64	a4,s7,s2
    723a:	40c00633          	neg	a2,a2
    723e:	f286067f          	maxw	a2,a2,s0
    7242:	00cf1bb3          	sll	s7,t5,a2
    7246:	dff7077f          	wexti	a4,a4,31
    724a:	fffb8793          	addi	a5,s7,-1
    724e:	4017db93          	srai	s7,a5,0x1
    7252:	00072993          	slti	s3,a4,0
    7256:	8ff9                	c.and	a5,a4
    7258:	9bce                	c.add	s7,s3
    725a:	00fba7b3          	slt	a5,s7,a5
    725e:	40c75733          	sra	a4,a4,a2
    7262:	973e                	c.add	a4,a5
    7264:	00e587b3          	add	a5,a1,a4
    7268:	f2f287ff          	maxw	a5,t0,a5
    726c:	0e05                	c.addi	t3,1
    726e:	f0fb07ff          	minw	a5,s6,a5
    7272:	fefe0fa3          	sb	a5,-1(t3)
    7276:	0311                	c.addi	t1,4
    7278:	0811                	c.addi	a6,4
    727a:	f7d515e3          	bne	a0,t4,71e4 <riscv_depthwise_conv_s8_opt+0x574>
    727e:	57a2                	c.lwsp	a5,40(sp)
    7280:	06812703          	lw	a4,104(sp)
    7284:	00e78bb3          	add	s7,a5,a4
    7288:	47f6                	c.lwsp	a5,92(sp)
    728a:	472a                	c.lwsp	a4,136(sp)
    728c:	97ba                	c.add	a5,a4
    728e:	07c2                	c.slli	a5,0x10
    7290:	5706                	c.lwsp	a4,96(sp)
    7292:	83c1                	c.srli	a5,0x10
    7294:	0705                	c.addi	a4,1
    7296:	cebe                	c.swsp	a5,92(sp)
    7298:	57d6                	c.lwsp	a5,116(sp)
    729a:	d0ba                	c.swsp	a4,96(sp)
    729c:	bae79ee3          	bne	a5,a4,6e58 <riscv_depthwise_conv_s8_opt+0x1e8>
    72a0:	4a6e                	c.lwsp	s4,216(sp)
    72a2:	487e                	c.lwsp	a6,220(sp)
    72a4:	46ce                	c.lwsp	a3,208(sp)
    72a6:	010a07b3          	add	a5,s4,a6
    72aa:	01079a13          	slli	s4,a5,0x10
    72ae:	479e                	c.lwsp	a5,196(sp)
    72b0:	0685                	c.addi	a3,1
    72b2:	45de                	c.lwsp	a1,212(sp)
    72b4:	4962                	c.lwsp	s2,24(sp)
    72b6:	49f2                	c.lwsp	s3,28(sp)
    72b8:	010a5a13          	srli	s4,s4,0x10
    72bc:	b4d798e3          	bne	a5,a3,6e0c <riscv_depthwise_conv_s8_opt+0x19c>
    72c0:	00000513          	li	a0,0
    72c4:	11c12083          	lw	ra,284(sp)
    72c8:	11812403          	lw	s0,280(sp)
    72cc:	11412483          	lw	s1,276(sp)
    72d0:	11012903          	lw	s2,272(sp)
    72d4:	10c12983          	lw	s3,268(sp)
    72d8:	10812a03          	lw	s4,264(sp)
    72dc:	10412a83          	lw	s5,260(sp)
    72e0:	10012b03          	lw	s6,256(sp)
    72e4:	5bfe                	c.lwsp	s7,252(sp)
    72e6:	5c6e                	c.lwsp	s8,248(sp)
    72e8:	5cde                	c.lwsp	s9,244(sp)
    72ea:	5d4e                	c.lwsp	s10,240(sp)
    72ec:	5dbe                	c.lwsp	s11,236(sp)
    72ee:	6115                	c.addi16sp	sp,288
    72f0:	00008067          	ret
    72f4:	4e01                	c.li	t3,0
    72f6:	4f81                	c.li	t6,0
    72f8:	4281                	c.li	t0,0
    72fa:	4381                	c.li	t2,0
    72fc:	c71ff06f          	j	6f6c <riscv_depthwise_conv_s8_opt+0x2fc>
    7300:	4732                	c.lwsp	a4,12(sp)
    7302:	0786                	c.slli	a5,0x1
    7304:	564a                	c.lwsp	a2,176(sp)
    7306:	00f70533          	add	a0,a4,a5
    730a:	4581                	c.li	a1,0
    730c:	317020ef          	jal	ra,9e22 <memset>
    7310:	08012783          	lw	a5,128(sp)
    7314:	c20794e3          	bnez	a5,6f3c <riscv_depthwise_conv_s8_opt+0x2cc>
    7318:	5376                	c.lwsp	t1,124(sp)
    731a:	5866                	c.lwsp	a6,120(sp)
    731c:	12012883          	lw	a7,288(sp)
    7320:	4501                	c.li	a0,0
    7322:	8e5e                	c.mv	t3,s7
    7324:	d45e                	c.swsp	s7,40(sp)
    7326:	b54d                	c.j	71c8 <riscv_depthwise_conv_s8_opt+0x558>
    7328:	c82e                	c.swsp	a1,16(sp)
    732a:	8536                	c.mv	a0,a3
    732c:	015005b3          	add	a1,zero,s5
    7330:	12712423          	sw	t2,296(sp)
    7334:	b25fb0ef          	jal	ra,2e58 <riscv_depthwise_conv_s8_opt_get_buffer_size>
    7338:	00a04a63          	bgtz	a0,734c <riscv_depthwise_conv_s8_opt+0x6dc>
    733c:	000b2783          	lw	a5,0(s6)
    7340:	4e42                	c.lwsp	t3,16(sp)
    7342:	12812383          	lw	t2,296(sp)
    7346:	c63e                	c.swsp	a5,12(sp)
    7348:	981ff06f          	j	6cc8 <riscv_depthwise_conv_s8_opt+0x58>
    734c:	557d                	c.li	a0,-1
    734e:	bf9d                	c.j	72c4 <riscv_depthwise_conv_s8_opt+0x654>

00007350 <riscv_depthwise_conv_3x3_s8>:
    7350:	ad010113          	addi	sp,sp,-1328
    7354:	53412303          	lw	t1,1332(sp)
    7358:	00462e03          	lw	t3,4(a2)
    735c:	4210                	c.lw	a2,0(a2)
    735e:	00c5a883          	lw	a7,12(a1)
    7362:	00c32e83          	lw	t4,12(t1)
    7366:	26c12e23          	sw	a2,636(sp)
    736a:	00832603          	lw	a2,8(t1)
    736e:	00432303          	lw	t1,4(t1)
    7372:	52812423          	sw	s0,1320(sp)
    7376:	46c0                	c.lw	s0,12(a3)
    7378:	0086af83          	lw	t6,8(a3)
    737c:	52912223          	sw	s1,1316(sp)
    7380:	51712623          	sw	s7,1292(sp)
    7384:	42c4                	c.lw	s1,4(a3)
    7386:	51912223          	sw	s9,1284(sp)
    738a:	47112623          	sw	a7,1132(sp)
    738e:	27c12c23          	sw	t3,632(sp)
    7392:	49d4                	c.lw	a3,20(a1)
    7394:	4d88                	c.lw	a0,24(a1)
    7396:	0105a883          	lw	a7,16(a1)
    739a:	0045ae03          	lw	t3,4(a1)
    739e:	52112623          	sw	ra,1324(sp)
    73a2:	53212023          	sw	s2,1312(sp)
    73a6:	51312e23          	sw	s3,1308(sp)
    73aa:	51412c23          	sw	s4,1304(sp)
    73ae:	51512a23          	sw	s5,1300(sp)
    73b2:	51612823          	sw	s6,1296(sp)
    73b6:	51812423          	sw	s8,1288(sp)
    73ba:	51a12023          	sw	s10,1280(sp)
    73be:	4fb12e23          	sw	s11,1276(sp)
    73c2:	46c12823          	sw	a2,1136(sp)
    73c6:	4a612e23          	sw	t1,1212(sp)
    73ca:	0005ad03          	lw	s10,0(a1)
    73ce:	4ae12023          	sw	a4,1184(sp)
    73d2:	c242                	c.swsp	a6,4(sp)
    73d4:	0245ac83          	lw	s9,36(a1)
    73d8:	0285ab83          	lw	s7,40(a1)
    73dc:	01d40463          	beq	s0,t4,73e4 <riscv_depthwise_conv_3x3_s8+0x94>
    73e0:	7500106f          	j	8b30 <riscv_depthwise_conv_3x3_s8+0x17e0>
    73e4:	873e                	c.mv	a4,a5
    73e6:	4785                	c.li	a5,1
    73e8:	00d7d463          	bge	a5,a3,73f0 <riscv_depthwise_conv_3x3_s8+0xa0>
    73ec:	7440106f          	j	8b30 <riscv_depthwise_conv_3x3_s8+0x17e0>
    73f0:	4710                	c.lw	a2,8(a4)
    73f2:	478d                	c.li	a5,3
    73f4:	00f60463          	beq	a2,a5,73fc <riscv_depthwise_conv_3x3_s8+0xac>
    73f8:	7380106f          	j	8b30 <riscv_depthwise_conv_3x3_s8+0x17e0>
    73fc:	435c                	c.lw	a5,4(a4)
    73fe:	00c78463          	beq	a5,a2,7406 <riscv_depthwise_conv_3x3_s8+0xb6>
    7402:	72e0106f          	j	8b30 <riscv_depthwise_conv_3x3_s8+0x17e0>
    7406:	40a00833          	neg	a6,a0
    740a:	0c605de3          	blez	t1,7ce4 <riscv_depthwise_conv_3x3_s8+0x994>
    740e:	028f8a33          	mul	s4,t6,s0
    7412:	00141593          	slli	a1,s0,0x1
    7416:	00858db3          	add	s11,a1,s0
    741a:	47012783          	lw	a5,1136(sp)
    741e:	4cb12423          	sw	a1,1224(sp)
    7422:	45412823          	sw	s4,1104(sp)
    7426:	45b12023          	sw	s11,1088(sp)
    742a:	40d002b3          	neg	t0,a3
    742e:	0af05be3          	blez	a5,7ce4 <riscv_depthwise_conv_3x3_s8+0x994>
    7432:	46c12603          	lw	a2,1132(sp)
    7436:	4799                	c.li	a5,6
    7438:	02c40633          	mul	a2,s0,a2
    743c:	02f40733          	mul	a4,s0,a5
    7440:	ffc40793          	addi	a5,s0,-4
    7444:	02828f33          	mul	t5,t0,s0
    7448:	46c12a23          	sw	a2,1140(sp)
    744c:	ffc7f613          	andi	a2,a5,-4
    7450:	00460793          	addi	a5,a2,4
    7454:	48f12c23          	sw	a5,1176(sp)
    7458:	00241793          	slli	a5,s0,0x2
    745c:	00e58933          	add	s2,a1,a4
    7460:	36f12823          	sw	a5,880(sp)
    7464:	53812583          	lw	a1,1336(sp)
    7468:	01ea07b3          	add	a5,s4,t5
    746c:	4cf12023          	sw	a5,1216(sp)
    7470:	01f687b3          	add	a5,a3,t6
    7474:	89b2                	c.mv	s3,a2
    7476:	0591                	c.addi	a1,4
    7478:	4cf12223          	sw	a5,1220(sp)
    747c:	41b907b3          	sub	a5,s2,s11
    7480:	001a1b13          	slli	s6,s4,0x1
    7484:	4cf12823          	sw	a5,1232(sp)
    7488:	013587b3          	add	a5,a1,s3
    748c:	00341393          	slli	t2,s0,0x3
    7490:	01eb0c33          	add	s8,s6,t5
    7494:	00950333          	add	t1,a0,s1
    7498:	48f12e23          	sw	a5,1180(sp)
    749c:	4481                	c.li	s1,0
    749e:	4792                	c.lwsp	a5,4(sp)
    74a0:	00e40fb3          	add	t6,s0,a4
    74a4:	4b612223          	sw	s6,1188(sp)
    74a8:	4d212623          	sw	s2,1228(sp)
    74ac:	00838b33          	add	s6,t2,s0
    74b0:	48c12a23          	sw	a2,1172(sp)
    74b4:	4d812e23          	sw	s8,1244(sp)
    74b8:	01b40633          	add	a2,s0,s11
    74bc:	8c5e                	c.mv	s8,s7
    74be:	4e712023          	sw	t2,1248(sp)
    74c2:	4e81                	c.li	t4,0
    74c4:	4a81                	c.li	s5,0
    74c6:	89a2                	c.mv	s3,s0
    74c8:	8926                	c.mv	s2,s1
    74ca:	8be6                	c.mv	s7,s9
    74cc:	83f2                	c.mv	t2,t3
    74ce:	c7ea                	c.swsp	s10,204(sp)
    74d0:	4c512a23          	sw	t0,1236(sp)
    74d4:	4de12c23          	sw	t5,1240(sp)
    74d8:	4f612223          	sw	s6,1252(sp)
    74dc:	4ff12423          	sw	t6,1256(sp)
    74e0:	4ec12623          	sw	a2,1260(sp)
    74e4:	44012f03          	lw	t5,1088(sp)
    74e8:	f35505ff          	maxw	a1,a0,s5
    74ec:	45012683          	lw	a3,1104(sp)
    74f0:	03e58433          	mul	s0,a1,t5
    74f4:	00b80733          	add	a4,a6,a1
    74f8:	02d70733          	mul	a4,a4,a3
    74fc:	4e412683          	lw	a3,1252(sp)
    7500:	4e012603          	lw	a2,1248(sp)
    7504:	96a2                	c.add	a3,s0
    7506:	40c68e33          	sub	t3,a3,a2
    750a:	46d12c23          	sw	a3,1144(sp)
    750e:	4c012683          	lw	a3,1216(sp)
    7512:	4dc12483          	lw	s1,1244(sp)
    7516:	00e68633          	add	a2,a3,a4
    751a:	4d812683          	lw	a3,1240(sp)
    751e:	49c12023          	sw	t3,1152(sp)
    7522:	96ba                	c.add	a3,a4
    7524:	9726                	c.add	a4,s1
    7526:	4c812483          	lw	s1,1224(sp)
    752a:	d0ae                	c.swsp	a1,96(sp)
    752c:	01c48fb3          	add	t6,s1,t3
    7530:	4e0d                	c.li	t3,3
    7532:	f1c302ff          	minw	t0,t1,t3
    7536:	4a012e03          	lw	t3,1184(sp)
    753a:	46812223          	sw	s0,1124(sp)
    753e:	9672                	c.add	a2,t3
    7540:	36c12e23          	sw	a2,892(sp)
    7544:	8672                	c.mv	a2,t3
    7546:	9e36                	c.add	t3,a3
    7548:	00e606b3          	add	a3,a2,a4
    754c:	4c412703          	lw	a4,1220(sp)
    7550:	49f12623          	sw	t6,1164(sp)
    7554:	ceba                	c.swsp	a4,92(sp)
    7556:	00158713          	addi	a4,a1,1
    755a:	18e12823          	sw	a4,400(sp)
    755e:	00258713          	addi	a4,a1,2
    7562:	18e12a23          	sw	a4,404(sp)
    7566:	00358713          	addi	a4,a1,3
    756a:	44e12423          	sw	a4,1096(sp)
    756e:	4d412703          	lw	a4,1236(sp)
    7572:	44012223          	sw	zero,1092(sp)
    7576:	d2ba                	c.swsp	a4,100(sp)
    7578:	4e812703          	lw	a4,1256(sp)
    757c:	8c9e                	c.mv	s9,t2
    757e:	9722                	c.add	a4,s0
    7580:	46e12e23          	sw	a4,1148(sp)
    7584:	4ec12703          	lw	a4,1260(sp)
    7588:	83f2                	c.mv	t2,t3
    758a:	9722                	c.add	a4,s0
    758c:	46e12423          	sw	a4,1128(sp)
    7590:	4cc12703          	lw	a4,1228(sp)
    7594:	85be                	c.mv	a1,a5
    7596:	9722                	c.add	a4,s0
    7598:	48e12223          	sw	a4,1156(sp)
    759c:	4d012703          	lw	a4,1232(sp)
    75a0:	9722                	c.add	a4,s0
    75a2:	48e12423          	sw	a4,1160(sp)
    75a6:	01ff0733          	add	a4,t5,t6
    75aa:	48e12823          	sw	a4,1168(sp)
    75ae:	00152713          	slti	a4,a0,1
    75b2:	44e12623          	sw	a4,1100(sp)
    75b6:	cc96                	c.swsp	t0,88(sp)
    75b8:	00d002b3          	add	t0,zero,a3
    75bc:	4b112423          	sw	a7,1192(sp)
    75c0:	4b012623          	sw	a6,1196(sp)
    75c4:	4bd12823          	sw	t4,1200(sp)
    75c8:	4aa12a23          	sw	a0,1204(sp)
    75cc:	4a612c23          	sw	t1,1208(sp)
    75d0:	478d                	c.li	a5,3
    75d2:	0137c463          	blt	a5,s3,75da <riscv_depthwise_conv_3x3_s8+0x28a>
    75d6:	54e0106f          	j	8b24 <riscv_depthwise_conv_3x3_s8+0x17d4>
    75da:	47812503          	lw	a0,1144(sp)
    75de:	46412403          	lw	s0,1124(sp)
    75e2:	952e                	c.add	a0,a1
    75e4:	c8aa                	c.swsp	a0,80(sp)
    75e6:	45012503          	lw	a0,1104(sp)
    75ea:	00848733          	add	a4,s1,s0
    75ee:	9516                	c.add	a0,t0
    75f0:	caaa                	c.swsp	a0,84(sp)
    75f2:	00598533          	add	a0,s3,t0
    75f6:	cc2a                	c.swsp	a0,24(sp)
    75f8:	47c12503          	lw	a0,1148(sp)
    75fc:	972e                	c.add	a4,a1
    75fe:	952e                	c.add	a0,a1
    7600:	ce2a                	c.swsp	a0,28(sp)
    7602:	00798533          	add	a0,s3,t2
    7606:	c42a                	c.swsp	a0,8(sp)
    7608:	48012503          	lw	a0,1152(sp)
    760c:	d63a                	c.swsp	a4,44(sp)
    760e:	952e                	c.add	a0,a1
    7610:	c62a                	c.swsp	a0,12(sp)
    7612:	37c12503          	lw	a0,892(sp)
    7616:	53812783          	lw	a5,1336(sp)
    761a:	00a98833          	add	a6,s3,a0
    761e:	872a                	c.mv	a4,a0
    7620:	9526                	c.add	a0,s1
    7622:	d82a                	c.swsp	a0,48(sp)
    7624:	48812503          	lw	a0,1160(sp)
    7628:	c842                	c.swsp	a6,16(sp)
    762a:	952e                	c.add	a0,a1
    762c:	da2a                	c.swsp	a0,52(sp)
    762e:	48c12503          	lw	a0,1164(sp)
    7632:	46812803          	lw	a6,1128(sp)
    7636:	952e                	c.add	a0,a1
    7638:	982e                	c.add	a6,a1
    763a:	de2a                	c.swsp	a0,60(sp)
    763c:	00858533          	add	a0,a1,s0
    7640:	ca42                	c.swsp	a6,20(sp)
    7642:	d22a                	c.swsp	a0,36(sp)
    7644:	00548833          	add	a6,s1,t0
    7648:	49012503          	lw	a0,1168(sp)
    764c:	c0c2                	c.swsp	a6,64(sp)
    764e:	48412803          	lw	a6,1156(sp)
    7652:	952e                	c.add	a0,a1
    7654:	982e                	c.add	a6,a1
    7656:	c6aa                	c.swsp	a0,76(sp)
    7658:	49c12503          	lw	a0,1180(sp)
    765c:	c2c2                	c.swsp	a6,68(sp)
    765e:	00748833          	add	a6,s1,t2
    7662:	954a                	c.add	a0,s2
    7664:	d442                	c.swsp	a6,40(sp)
    7666:	27c12683          	lw	a3,636(sp)
    766a:	01278633          	add	a2,a5,s2
    766e:	27812783          	lw	a5,632(sp)
    7672:	c5aa                	c.swsp	a0,200(sp)
    7674:	dc3a                	c.swsp	a4,56(sp)
    7676:	53012f03          	lw	t5,1328(sp)
    767a:	875e                	c.mv	a4,s7
    767c:	4b05                	c.li	s6,1
    767e:	8be6                	c.mv	s7,s9
    7680:	8cba                	c.mv	s9,a4
    7682:	c496                	c.swsp	t0,72(sp)
    7684:	d01e                	c.swsp	t2,32(sp)
    7686:	37312a23          	sw	s3,884(sp)
    768a:	45212a23          	sw	s2,1108(sp)
    768e:	c23e                	c.swsp	a5,4(sp)
    7690:	44712c23          	sw	t2,1112(sp)
    7694:	44512e23          	sw	t0,1116(sp)
    7698:	46b12023          	sw	a1,1120(sp)
    769c:	36912c23          	sw	s1,888(sp)
    76a0:	620f08e3          	beqz	t5,84d0 <riscv_depthwise_conv_3x3_s8+0x1180>
    76a4:	000f2403          	lw	s0,0(t5)
    76a8:	004f2903          	lw	s2,4(t5)
    76ac:	008f2703          	lw	a4,8(t5)
    76b0:	00cf2d03          	lw	s10,12(t5)
    76b4:	010f0f13          	addi	t5,t5,16
    76b8:	47be                	c.lwsp	a5,204(sp)
    76ba:	0ef79a7f          	pkbb16	s4,a5,a5
    76be:	5786                	c.lwsp	a5,96(sp)
    76c0:	4fe6                	c.lwsp	t6,88(sp)
    76c2:	27f7d363          	bge	a5,t6,7928 <riscv_depthwise_conv_3x3_s8+0x5d8>
    76c6:	5796                	c.lwsp	a5,100(sp)
    76c8:	6407de63          	bgez	a5,7d24 <riscv_depthwise_conv_3x3_s8+0x9d4>
    76cc:	47f6                	c.lwsp	a5,92(sp)
    76ce:	4589                	c.li	a1,2
    76d0:	60f5c6e3          	blt	a1,a5,84dc <riscv_depthwise_conv_3x3_s8+0x118c>
    76d4:	47a2                	c.lwsp	a5,8(sp)
    76d6:	439c                	c.lw	a5,0(a5)
    76d8:	45b2                	c.lwsp	a1,12(sp)
    76da:	418c                	c.lw	a1,0(a1)
    76dc:	1af12c23          	sw	a5,440(sp)
    76e0:	1af12e23          	sw	a5,444(sp)
    76e4:	1b812803          	lw	a6,440(sp)
    76e8:	1bc12883          	lw	a7,444(sp)
    76ec:	de88057f          	wexti	a0,a6,8
    76f0:	ac95057f          	sunpkd820	a0,a0
    76f4:	40aa057f          	add16	a0,s4,a0
    76f8:	1cb12023          	sw	a1,448(sp)
    76fc:	1cb12223          	sw	a1,452(sp)
    7700:	1c012803          	lw	a6,448(sp)
    7704:	1c412883          	lw	a7,452(sp)
    7708:	de88087f          	wexti	a6,a6,8
    770c:	ac98087f          	sunpkd820	a6,a6
    7710:	41f95493          	srai	s1,s2,0x1f
    7714:	1d212423          	sw	s2,456(sp)
    7718:	1c912623          	sw	s1,460(sp)
    771c:	1c812303          	lw	t1,456(sp)
    7720:	1cc12383          	lw	t2,460(sp)
    7724:	8905137f          	smalbb	t1,a0,a6
    7728:	891a                	c.mv	s2,t1
    772a:	18612c23          	sw	t1,408(sp)
    772e:	18712e23          	sw	t2,412(sp)
    7732:	ac9787ff          	sunpkd820	a5,a5
    7736:	40fa07ff          	add16	a5,s4,a5
    773a:	41fd5493          	srai	s1,s10,0x1f
    773e:	1da12823          	sw	s10,464(sp)
    7742:	1c912a23          	sw	s1,468(sp)
    7746:	1d012303          	lw	t1,464(sp)
    774a:	1d412383          	lw	t2,468(sp)
    774e:	a905137f          	smaltt	t1,a0,a6
    7752:	8d1a                	c.mv	s10,t1
    7754:	ac95887f          	sunpkd820	a6,a1
    7758:	41f45593          	srai	a1,s0,0x1f
    775c:	1c812c23          	sw	s0,472(sp)
    7760:	1cb12e23          	sw	a1,476(sp)
    7764:	1d812e03          	lw	t3,472(sp)
    7768:	1dc12e83          	lw	t4,476(sp)
    776c:	89079e7f          	smalbb	t3,a5,a6
    7770:	1ee12023          	sw	a4,480(sp)
    7774:	877d                	c.srai	a4,0x1f
    7776:	1ee12223          	sw	a4,484(sp)
    777a:	1e012503          	lw	a0,480(sp)
    777e:	1e412583          	lw	a1,484(sp)
    7782:	8472                	c.mv	s0,t3
    7784:	a907957f          	smaltt	a0,a5,a6
    7788:	19012783          	lw	a5,400(sp)
    778c:	1aa12023          	sw	a0,416(sp)
    7790:	1ab12223          	sw	a1,420(sp)
    7794:	872a                	c.mv	a4,a0
    7796:	19f7d963          	bge	a5,t6,7928 <riscv_depthwise_conv_3x3_s8+0x5d8>
    779a:	47c2                	c.lwsp	a5,16(sp)
    779c:	439c                	c.lw	a5,0(a5)
    779e:	4752                	c.lwsp	a4,20(sp)
    77a0:	4318                	c.lw	a4,0(a4)
    77a2:	2af12823          	sw	a5,688(sp)
    77a6:	2af12a23          	sw	a5,692(sp)
    77aa:	2b012503          	lw	a0,688(sp)
    77ae:	2b412583          	lw	a1,692(sp)
    77b2:	de8505ff          	wexti	a1,a0,8
    77b6:	ac9585ff          	sunpkd820	a1,a1
    77ba:	40ba05ff          	add16	a1,s4,a1
    77be:	2ae12c23          	sw	a4,696(sp)
    77c2:	2ae12e23          	sw	a4,700(sp)
    77c6:	2b812803          	lw	a6,696(sp)
    77ca:	2bc12883          	lw	a7,700(sp)
    77ce:	de88087f          	wexti	a6,a6,8
    77d2:	ac98087f          	sunpkd820	a6,a6
    77d6:	19812403          	lw	s0,408(sp)
    77da:	41f45513          	srai	a0,s0,0x1f
    77de:	2c812023          	sw	s0,704(sp)
    77e2:	2ca12223          	sw	a0,708(sp)
    77e6:	2c012403          	lw	s0,704(sp)
    77ea:	2c412483          	lw	s1,708(sp)
    77ee:	8905947f          	smalbb	s0,a1,a6
    77f2:	8922                	c.mv	s2,s0
    77f4:	18812c23          	sw	s0,408(sp)
    77f8:	18912e23          	sw	s1,412(sp)
    77fc:	ac9787ff          	sunpkd820	a5,a5
    7800:	40fa07ff          	add16	a5,s4,a5
    7804:	41f35513          	srai	a0,t1,0x1f
    7808:	2c612423          	sw	t1,712(sp)
    780c:	2ca12623          	sw	a0,716(sp)
    7810:	2c812303          	lw	t1,712(sp)
    7814:	2cc12383          	lw	t2,716(sp)
    7818:	a905937f          	smaltt	t1,a1,a6
    781c:	8d1a                	c.mv	s10,t1
    781e:	ac97077f          	sunpkd820	a4,a4
    7822:	41fe5593          	srai	a1,t3,0x1f
    7826:	2dc12823          	sw	t3,720(sp)
    782a:	2cb12a23          	sw	a1,724(sp)
    782e:	2d012403          	lw	s0,720(sp)
    7832:	2d412483          	lw	s1,724(sp)
    7836:	88e7947f          	smalbb	s0,a5,a4
    783a:	1a012503          	lw	a0,416(sp)
    783e:	1a912223          	sw	s1,420(sp)
    7842:	41f55593          	srai	a1,a0,0x1f
    7846:	2ca12c23          	sw	a0,728(sp)
    784a:	2cb12e23          	sw	a1,732(sp)
    784e:	2d812503          	lw	a0,728(sp)
    7852:	2dc12583          	lw	a1,732(sp)
    7856:	1a812023          	sw	s0,416(sp)
    785a:	a8e7957f          	smaltt	a0,a5,a4
    785e:	19412783          	lw	a5,404(sp)
    7862:	1aa12423          	sw	a0,424(sp)
    7866:	1ab12623          	sw	a1,428(sp)
    786a:	872a                	c.mv	a4,a0
    786c:	0bf7de63          	bge	a5,t6,7928 <riscv_depthwise_conv_3x3_s8+0x5d8>
    7870:	47e2                	c.lwsp	a5,24(sp)
    7872:	438c                	c.lw	a1,0(a5)
    7874:	47f2                	c.lwsp	a5,28(sp)
    7876:	0007a803          	lw	a6,0(a5)
    787a:	38b12023          	sw	a1,896(sp)
    787e:	38b12223          	sw	a1,900(sp)
    7882:	38012e03          	lw	t3,896(sp)
    7886:	38412e83          	lw	t4,900(sp)
    788a:	de8e08ff          	wexti	a7,t3,8
    788e:	ac9888ff          	sunpkd820	a7,a7
    7892:	411a08ff          	add16	a7,s4,a7
    7896:	39012423          	sw	a6,904(sp)
    789a:	39012623          	sw	a6,908(sp)
    789e:	38812e03          	lw	t3,904(sp)
    78a2:	38c12e83          	lw	t4,908(sp)
    78a6:	de8e07ff          	wexti	a5,t3,8
    78aa:	ac978eff          	sunpkd820	t4,a5
    78ae:	19812703          	lw	a4,408(sp)
    78b2:	41f75793          	srai	a5,a4,0x1f
    78b6:	38e12823          	sw	a4,912(sp)
    78ba:	38f12a23          	sw	a5,916(sp)
    78be:	39012703          	lw	a4,912(sp)
    78c2:	39412783          	lw	a5,916(sp)
    78c6:	89d8977f          	smalbb	a4,a7,t4
    78ca:	893a                	c.mv	s2,a4
    78cc:	ac9585ff          	sunpkd820	a1,a1
    78d0:	40ba05ff          	add16	a1,s4,a1
    78d4:	41f35793          	srai	a5,t1,0x1f
    78d8:	38612c23          	sw	t1,920(sp)
    78dc:	38f12e23          	sw	a5,924(sp)
    78e0:	39812703          	lw	a4,920(sp)
    78e4:	39c12783          	lw	a5,924(sp)
    78e8:	a9d8977f          	smaltt	a4,a7,t4
    78ec:	00e00d33          	add	s10,zero,a4
    78f0:	ac98087f          	sunpkd820	a6,a6
    78f4:	41f45793          	srai	a5,s0,0x1f
    78f8:	3a812023          	sw	s0,928(sp)
    78fc:	3af12223          	sw	a5,932(sp)
    7900:	3a012403          	lw	s0,928(sp)
    7904:	3a412483          	lw	s1,932(sp)
    7908:	8905947f          	smalbb	s0,a1,a6
    790c:	1a812703          	lw	a4,424(sp)
    7910:	41f75793          	srai	a5,a4,0x1f
    7914:	3ae12423          	sw	a4,936(sp)
    7918:	3af12623          	sw	a5,940(sp)
    791c:	3a812703          	lw	a4,936(sp)
    7920:	3ac12783          	lw	a5,940(sp)
    7924:	a905977f          	smaltt	a4,a1,a6
    7928:	4792                	c.lwsp	a5,4(sp)
    792a:	0006a803          	lw	a6,0(a3)
    792e:	4384                	c.lw	s1,0(a5)
    7930:	0047ae03          	lw	t3,4(a5)
    7934:	0046a983          	lw	s3,4(a3)
    7938:	0087a283          	lw	t0,8(a5)
    793c:	f354857f          	maxw	a0,s1,s5
    7940:	00c7af83          	lw	t6,12(a5)
    7944:	0086aa03          	lw	s4,8(a3)
    7948:	00a41533          	sll	a0,s0,a0
    794c:	f35e05ff          	maxw	a1,t3,s5
    7950:	40000337          	lui	t1,0x40000
    7954:	4381                	c.li	t2,0
    7956:	46c0                	c.lw	s0,12(a3)
    7958:	8505137f          	smar64	t1,a0,a6
    795c:	00b915b3          	sll	a1,s2,a1
    7960:	f35287ff          	maxw	a5,t0,s5
    7964:	40000837          	lui	a6,0x40000
    7968:	4881                	c.li	a7,0
    796a:	8535987f          	smar64	a6,a1,s3
    796e:	00f717b3          	sll	a5,a4,a5
    7972:	f35f8eff          	maxw	t4,t6,s5
    7976:	40000537          	lui	a0,0x40000
    797a:	4581                	c.li	a1,0
    797c:	8547957f          	smar64	a0,a5,s4
    7980:	01dd1eb3          	sll	t4,s10,t4
    7984:	40000737          	lui	a4,0x40000
    7988:	4781                	c.li	a5,0
    798a:	848e977f          	smar64	a4,t4,s0
    798e:	41f00fb3          	neg	t6,t6
    7992:	f35f8fff          	maxw	t6,t6,s5
    7996:	01fb19b3          	sll	s3,s6,t6
    799a:	dff5057f          	wexti	a0,a0,31
    799e:	dff7077f          	wexti	a4,a4,31
    79a2:	fff98593          	addi	a1,s3,-1
    79a6:	4015d793          	srai	a5,a1,0x1
    79aa:	00072913          	slti	s2,a4,0
    79ae:	8df9                	c.and	a1,a4
    79b0:	97ca                	c.add	a5,s2
    79b2:	00b7a5b3          	slt	a1,a5,a1
    79b6:	4792                	c.lwsp	a5,4(sp)
    79b8:	409004b3          	neg	s1,s1
    79bc:	07c1                	c.addi	a5,16
    79be:	c23e                	c.swsp	a5,4(sp)
    79c0:	47c6                	c.lwsp	a5,80(sp)
    79c2:	f35484ff          	maxw	s1,s1,s5
    79c6:	0791                	c.addi	a5,4
    79c8:	c8be                	c.swsp	a5,80(sp)
    79ca:	47d6                	c.lwsp	a5,84(sp)
    79cc:	405002b3          	neg	t0,t0
    79d0:	f35282ff          	maxw	t0,t0,s5
    79d4:	0791                	c.addi	a5,4
    79d6:	009b1eb3          	sll	t4,s6,s1
    79da:	dff3037f          	wexti	t1,t1,31
    79de:	005b1a33          	sll	s4,s6,t0
    79e2:	1efd                	c.addi	t4,-1
    79e4:	cabe                	c.swsp	a5,84(sp)
    79e6:	47e2                	c.lwsp	a5,24(sp)
    79e8:	dff8087f          	wexti	a6,a6,31
    79ec:	41c00433          	neg	s0,t3
    79f0:	fffa0893          	addi	a7,s4,-1
    79f4:	00032d93          	slti	s11,t1,0
    79f8:	401eda13          	srai	s4,t4,0x1
    79fc:	f354047f          	maxw	s0,s0,s5
    7a00:	006efeb3          	and	t4,t4,t1
    7a04:	0791                	c.addi	a5,4
    7a06:	9a6e                	c.add	s4,s11
    7a08:	cc3e                	c.swsp	a5,24(sp)
    7a0a:	008b1e33          	sll	t3,s6,s0
    7a0e:	47f2                	c.lwsp	a5,28(sp)
    7a10:	40935333          	sra	t1,t1,s1
    7a14:	01da2eb3          	slt	t4,s4,t4
    7a18:	1e7d                	c.addi	t3,-1
    7a1a:	9376                	c.add	t1,t4
    7a1c:	00082d13          	slti	s10,a6,0
    7a20:	401e5993          	srai	s3,t3,0x1
    7a24:	0791                	c.addi	a5,4
    7a26:	935e                	c.add	t1,s7
    7a28:	010e7e33          	and	t3,t3,a6
    7a2c:	99ea                	c.add	s3,s10
    7a2e:	ce3e                	c.swsp	a5,28(sp)
    7a30:	f393037f          	maxw	t1,t1,s9
    7a34:	47a2                	c.lwsp	a5,8(sp)
    7a36:	40885833          	sra	a6,a6,s0
    7a3a:	01c9ae33          	slt	t3,s3,t3
    7a3e:	f183037f          	minw	t1,t1,s8
    7a42:	00660023          	sb	t1,0(a2)
    7a46:	0791                	c.addi	a5,4
    7a48:	9872                	c.add	a6,t3
    7a4a:	4018d393          	srai	t2,a7,0x1
    7a4e:	00052d13          	slti	s10,a0,0
    7a52:	c43e                	c.swsp	a5,8(sp)
    7a54:	985e                	c.add	a6,s7
    7a56:	47b2                	c.lwsp	a5,12(sp)
    7a58:	00a8f8b3          	and	a7,a7,a0
    7a5c:	93ea                	c.add	t2,s10
    7a5e:	f398087f          	maxw	a6,a6,s9
    7a62:	0791                	c.addi	a5,4
    7a64:	40555533          	sra	a0,a0,t0
    7a68:	0113a8b3          	slt	a7,t2,a7
    7a6c:	f188087f          	minw	a6,a6,s8
    7a70:	010600a3          	sb	a6,1(a2)
    7a74:	c63e                	c.swsp	a5,12(sp)
    7a76:	9546                	c.add	a0,a7
    7a78:	47c2                	c.lwsp	a5,16(sp)
    7a7a:	955e                	c.add	a0,s7
    7a7c:	0791                	c.addi	a5,4
    7a7e:	f395057f          	maxw	a0,a0,s9
    7a82:	c83e                	c.swsp	a5,16(sp)
    7a84:	41f75733          	sra	a4,a4,t6
    7a88:	47d2                	c.lwsp	a5,20(sp)
    7a8a:	f185057f          	minw	a0,a0,s8
    7a8e:	00a60123          	sb	a0,2(a2)
    7a92:	972e                	c.add	a4,a1
    7a94:	0791                	c.addi	a5,4
    7a96:	975e                	c.add	a4,s7
    7a98:	ca3e                	c.swsp	a5,20(sp)
    7a9a:	f397077f          	maxw	a4,a4,s9
    7a9e:	4786                	c.lwsp	a5,64(sp)
    7aa0:	f187077f          	minw	a4,a4,s8
    7aa4:	0791                	c.addi	a5,4
    7aa6:	00e601a3          	sb	a4,3(a2)
    7aaa:	c0be                	c.swsp	a5,64(sp)
    7aac:	4796                	c.lwsp	a5,68(sp)
    7aae:	0611                	c.addi	a2,4
    7ab0:	0791                	c.addi	a5,4
    7ab2:	c2be                	c.swsp	a5,68(sp)
    7ab4:	57a2                	c.lwsp	a5,40(sp)
    7ab6:	06c1                	c.addi	a3,16
    7ab8:	0791                	c.addi	a5,4
    7aba:	d43e                	c.swsp	a5,40(sp)
    7abc:	57b2                	c.lwsp	a5,44(sp)
    7abe:	0791                	c.addi	a5,4
    7ac0:	d63e                	c.swsp	a5,44(sp)
    7ac2:	57c2                	c.lwsp	a5,48(sp)
    7ac4:	0791                	c.addi	a5,4
    7ac6:	d83e                	c.swsp	a5,48(sp)
    7ac8:	57d2                	c.lwsp	a5,52(sp)
    7aca:	0791                	c.addi	a5,4
    7acc:	da3e                	c.swsp	a5,52(sp)
    7ace:	57e2                	c.lwsp	a5,56(sp)
    7ad0:	0791                	c.addi	a5,4
    7ad2:	dc3e                	c.swsp	a5,56(sp)
    7ad4:	57f2                	c.lwsp	a5,60(sp)
    7ad6:	0791                	c.addi	a5,4
    7ad8:	de3e                	c.swsp	a5,60(sp)
    7ada:	5782                	c.lwsp	a5,32(sp)
    7adc:	0791                	c.addi	a5,4
    7ade:	d03e                	c.swsp	a5,32(sp)
    7ae0:	5792                	c.lwsp	a5,36(sp)
    7ae2:	0791                	c.addi	a5,4
    7ae4:	d23e                	c.swsp	a5,36(sp)
    7ae6:	47a6                	c.lwsp	a5,72(sp)
    7ae8:	0791                	c.addi	a5,4
    7aea:	c4be                	c.swsp	a5,72(sp)
    7aec:	47b6                	c.lwsp	a5,76(sp)
    7aee:	0791                	c.addi	a5,4
    7af0:	c6be                	c.swsp	a5,76(sp)
    7af2:	47ae                	c.lwsp	a5,200(sp)
    7af4:	baf616e3          	bne	a2,a5,76a0 <riscv_depthwise_conv_3x3_s8+0x350>
    7af8:	45412903          	lw	s2,1108(sp)
    7afc:	87e6                	c.mv	a5,s9
    7afe:	49412703          	lw	a4,1172(sp)
    7b02:	8cde                	c.mv	s9,s7
    7b04:	37412983          	lw	s3,884(sp)
    7b08:	00f00bb3          	add	s7,zero,a5
    7b0c:	45812383          	lw	t2,1112(sp)
    7b10:	00490793          	addi	a5,s2,4
    7b14:	45c12283          	lw	t0,1116(sp)
    7b18:	46012583          	lw	a1,1120(sp)
    7b1c:	37812483          	lw	s1,888(sp)
    7b20:	49812f83          	lw	t6,1176(sp)
    7b24:	00f70933          	add	s2,a4,a5
    7b28:	153fdc63          	bge	t6,s3,7c80 <riscv_depthwise_conv_3x3_s8+0x930>
    7b2c:	4a012783          	lw	a5,1184(sp)
    7b30:	4a412703          	lw	a4,1188(sp)
    7b34:	40f38633          	sub	a2,t2,a5
    7b38:	00e60333          	add	t1,a2,a4
    7b3c:	45012703          	lw	a4,1104(sp)
    7b40:	44012683          	lw	a3,1088(sp)
    7b44:	40e308b3          	sub	a7,t1,a4
    7b48:	46412703          	lw	a4,1124(sp)
    7b4c:	937e                	c.add	t1,t6
    7b4e:	00e68833          	add	a6,a3,a4
    7b52:	01f70533          	add	a0,a4,t6
    7b56:	46812703          	lw	a4,1128(sp)
    7b5a:	967e                	c.add	a2,t6
    7b5c:	01f70e33          	add	t3,a4,t6
    7b60:	53812703          	lw	a4,1336(sp)
    7b64:	98fe                	c.add	a7,t6
    7b66:	987e                	c.add	a6,t6
    7b68:	002f9693          	slli	a3,t6,0x2
    7b6c:	c47e                	c.swsp	t6,8(sp)
    7b6e:	4466                	c.lwsp	s0,88(sp)
    7b70:	4fbe                	c.lwsp	t6,204(sp)
    7b72:	01270eb3          	add	t4,a4,s2
    7b76:	933e                	c.add	t1,a5
    7b78:	963e                	c.add	a2,a5
    7b7a:	952e                	c.add	a0,a1
    7b7c:	98be                	c.add	a7,a5
    7b7e:	982e                	c.add	a6,a1
    7b80:	9e2e                	c.add	t3,a1
    7b82:	4d09                	c.li	s10,2
    7b84:	4a05                	c.li	s4,1
    7b86:	c24a                	c.swsp	s2,4(sp)
    7b88:	4781                	c.li	a5,0
    7b8a:	000f0563          	beqz	t5,7b94 <riscv_depthwise_conv_3x3_s8+0x844>
    7b8e:	000f2783          	lw	a5,0(t5)
    7b92:	0f11                	c.addi	t5,4
    7b94:	5706                	c.lwsp	a4,96(sp)
    7b96:	06875363          	bge	a4,s0,7bfc <riscv_depthwise_conv_3x3_s8+0x8ac>
    7b9a:	5716                	c.lwsp	a4,100(sp)
    7b9c:	58075ae3          	bgez	a4,8930 <riscv_depthwise_conv_3x3_s8+0x15e0>
    7ba0:	4776                	c.lwsp	a4,92(sp)
    7ba2:	60ed4fe3          	blt	s10,a4,89c0 <riscv_depthwise_conv_3x3_s8+0x1670>
    7ba6:	01360733          	add	a4,a2,s3
    7baa:	00070703          	lb	a4,0(a4) # 40000000 <_DATA_LMA_START+0x1fff5168>
    7bae:	01350933          	add	s2,a0,s3
    7bb2:	00090903          	lb	s2,0(s2)
    7bb6:	977e                	c.add	a4,t6
    7bb8:	c52717ff          	maddr32	a5,a4,s2
    7bbc:	19012703          	lw	a4,400(sp)
    7bc0:	02875e63          	bge	a4,s0,7bfc <riscv_depthwise_conv_3x3_s8+0x8ac>
    7bc4:	01388733          	add	a4,a7,s3
    7bc8:	00070903          	lb	s2,0(a4)
    7bcc:	44c12703          	lw	a4,1100(sp)
    7bd0:	000e0b03          	lb	s6,0(t3)
    7bd4:	00173713          	seqz	a4,a4
    7bd8:	997e                	c.add	s2,t6
    7bda:	0709                	c.addi	a4,2
    7bdc:	c56917ff          	maddr32	a5,s2,s6
    7be0:	00875e63          	bge	a4,s0,7bfc <riscv_depthwise_conv_3x3_s8+0x8ac>
    7be4:	44012903          	lw	s2,1088(sp)
    7be8:	01330733          	add	a4,t1,s3
    7bec:	00070703          	lb	a4,0(a4)
    7bf0:	9972                	c.add	s2,t3
    7bf2:	00090903          	lb	s2,0(s2)
    7bf6:	977e                	c.add	a4,t6
    7bf8:	c52717ff          	maddr32	a5,a4,s2
    7bfc:	27812703          	lw	a4,632(sp)
    7c00:	0e85                	c.addi	t4,1
    7c02:	9736                	c.add	a4,a3
    7c04:	00072903          	lw	s2,0(a4)
    7c08:	27c12703          	lw	a4,636(sp)
    7c0c:	f3590dff          	maxw	s11,s2,s5
    7c10:	9736                	c.add	a4,a3
    7c12:	00072b03          	lw	s6,0(a4)
    7c16:	01b79db3          	sll	s11,a5,s11
    7c1a:	40000737          	lui	a4,0x40000
    7c1e:	4781                	c.li	a5,0
    7c20:	856d977f          	smar64	a4,s11,s6
    7c24:	41200933          	neg	s2,s2
    7c28:	f359097f          	maxw	s2,s2,s5
    7c2c:	012a1b33          	sll	s6,s4,s2
    7c30:	dff7077f          	wexti	a4,a4,31
    7c34:	fffb0793          	addi	a5,s6,-1
    7c38:	4017db13          	srai	s6,a5,0x1
    7c3c:	00072d93          	slti	s11,a4,0
    7c40:	8ff9                	c.and	a5,a4
    7c42:	9b6e                	c.add	s6,s11
    7c44:	00fb27b3          	slt	a5,s6,a5
    7c48:	41275733          	sra	a4,a4,s2
    7c4c:	973e                	c.add	a4,a5
    7c4e:	9766                	c.add	a4,s9
    7c50:	f377077f          	maxw	a4,a4,s7
    7c54:	f187077f          	minw	a4,a4,s8
    7c58:	37012783          	lw	a5,880(sp)
    7c5c:	feee8fa3          	sb	a4,-1(t4)
    7c60:	0691                	c.addi	a3,4
    7c62:	0305                	c.addi	t1,1
    7c64:	0605                	c.addi	a2,1
    7c66:	0505                	c.addi	a0,1
    7c68:	0885                	c.addi	a7,1
    7c6a:	0805                	c.addi	a6,1
    7c6c:	0e05                	c.addi	t3,1
    7c6e:	f0f69de3          	bne	a3,a5,7b88 <riscv_depthwise_conv_3x3_s8+0x838>
    7c72:	4912                	c.lwsp	s2,4(sp)
    7c74:	00812f83          	lw	t6,8(sp)
    7c78:	012987b3          	add	a5,s3,s2
    7c7c:	41f78933          	sub	s2,a5,t6
    7c80:	44412783          	lw	a5,1092(sp)
    7c84:	46c12683          	lw	a3,1132(sp)
    7c88:	00178713          	addi	a4,a5,1
    7c8c:	5796                	c.lwsp	a5,100(sp)
    7c8e:	37c12603          	lw	a2,892(sp)
    7c92:	97b6                	c.add	a5,a3
    7c94:	d2be                	c.swsp	a5,100(sp)
    7c96:	47412783          	lw	a5,1140(sp)
    7c9a:	44e12223          	sw	a4,1092(sp)
    7c9e:	963e                	c.add	a2,a5
    7ca0:	93be                	c.add	t2,a5
    7ca2:	92be                	c.add	t0,a5
    7ca4:	47f6                	c.lwsp	a5,92(sp)
    7ca6:	36c12e23          	sw	a2,892(sp)
    7caa:	8f95                	c.sub	a5,a3
    7cac:	cebe                	c.swsp	a5,92(sp)
    7cae:	47012783          	lw	a5,1136(sp)
    7cb2:	90e79fe3          	bne	a5,a4,75d0 <riscv_depthwise_conv_3x3_s8+0x280>
    7cb6:	4b012e83          	lw	t4,1200(sp)
    7cba:	4a812883          	lw	a7,1192(sp)
    7cbe:	4ac12803          	lw	a6,1196(sp)
    7cc2:	4b412503          	lw	a0,1204(sp)
    7cc6:	4b812303          	lw	t1,1208(sp)
    7cca:	4bc12703          	lw	a4,1212(sp)
    7cce:	0e85                	c.addi	t4,1
    7cd0:	83e6                	c.mv	t2,s9
    7cd2:	87ae                	c.mv	a5,a1
    7cd4:	01180833          	add	a6,a6,a7
    7cd8:	41150533          	sub	a0,a0,a7
    7cdc:	41130333          	sub	t1,t1,a7
    7ce0:	81d712e3          	bne	a4,t4,74e4 <riscv_depthwise_conv_3x3_s8+0x194>
    7ce4:	00000513          	li	a0,0
    7ce8:	52c12083          	lw	ra,1324(sp)
    7cec:	52812403          	lw	s0,1320(sp)
    7cf0:	52412483          	lw	s1,1316(sp)
    7cf4:	52012903          	lw	s2,1312(sp)
    7cf8:	51c12983          	lw	s3,1308(sp)
    7cfc:	51812a03          	lw	s4,1304(sp)
    7d00:	51412a83          	lw	s5,1300(sp)
    7d04:	51012b03          	lw	s6,1296(sp)
    7d08:	50c12b83          	lw	s7,1292(sp)
    7d0c:	50812c03          	lw	s8,1288(sp)
    7d10:	50412c83          	lw	s9,1284(sp)
    7d14:	50012d03          	lw	s10,1280(sp)
    7d18:	4fc12d83          	lw	s11,1276(sp)
    7d1c:	53010113          	addi	sp,sp,1328
    7d20:	00008067          	ret
    7d24:	5782                	c.lwsp	a5,32(sp)
    7d26:	0007a803          	lw	a6,0(a5)
    7d2a:	5792                	c.lwsp	a5,36(sp)
    7d2c:	439c                	c.lw	a5,0(a5)
    7d2e:	d4c2                	c.swsp	a6,104(sp)
    7d30:	d6c2                	c.swsp	a6,108(sp)
    7d32:	5526                	c.lwsp	a0,104(sp)
    7d34:	55b6                	c.lwsp	a1,108(sp)
    7d36:	de85037f          	wexti	t1,a0,8
    7d3a:	ac93037f          	sunpkd820	t1,t1
    7d3e:	406a037f          	add16	t1,s4,t1
    7d42:	d8be                	c.swsp	a5,112(sp)
    7d44:	dabe                	c.swsp	a5,116(sp)
    7d46:	5546                	c.lwsp	a0,112(sp)
    7d48:	55d6                	c.lwsp	a1,116(sp)
    7d4a:	de850e7f          	wexti	t3,a0,8
    7d4e:	ac9e0e7f          	sunpkd820	t3,t3
    7d52:	41f95593          	srai	a1,s2,0x1f
    7d56:	dcca                	c.swsp	s2,120(sp)
    7d58:	deae                	c.swsp	a1,124(sp)
    7d5a:	5966                	c.lwsp	s2,120(sp)
    7d5c:	59f6                	c.lwsp	s3,124(sp)
    7d5e:	89c3197f          	smalbb	s2,t1,t3
    7d62:	ac9805ff          	sunpkd820	a1,a6
    7d66:	40ba05ff          	add16	a1,s4,a1
    7d6a:	41fd5513          	srai	a0,s10,0x1f
    7d6e:	c16a                	c.swsp	s10,128(sp)
    7d70:	c32a                	c.swsp	a0,132(sp)
    7d72:	4d0a                	c.lwsp	s10,128(sp)
    7d74:	4d9a                	c.lwsp	s11,132(sp)
    7d76:	a9c31d7f          	smaltt	s10,t1,t3
    7d7a:	ac9788ff          	sunpkd820	a7,a5
    7d7e:	41f45793          	srai	a5,s0,0x1f
    7d82:	c522                	c.swsp	s0,136(sp)
    7d84:	c73e                	c.swsp	a5,140(sp)
    7d86:	432a                	c.lwsp	t1,136(sp)
    7d88:	43ba                	c.lwsp	t2,140(sp)
    7d8a:	8915937f          	smalbb	t1,a1,a7
    7d8e:	41f75793          	srai	a5,a4,0x1f
    7d92:	c93a                	c.swsp	a4,144(sp)
    7d94:	cb3e                	c.swsp	a5,148(sp)
    7d96:	4e4a                	c.lwsp	t3,144(sp)
    7d98:	4eda                	c.lwsp	t4,148(sp)
    7d9a:	a9159e7f          	smaltt	t3,a1,a7
    7d9e:	47a2                	c.lwsp	a5,8(sp)
    7da0:	439c                	c.lw	a5,0(a5)
    7da2:	4732                	c.lwsp	a4,12(sp)
    7da4:	00072f83          	lw	t6,0(a4) # 40000000 <_DATA_LMA_START+0x1fff5168>
    7da8:	cd3e                	c.swsp	a5,152(sp)
    7daa:	cf3e                	c.swsp	a5,156(sp)
    7dac:	456a                	c.lwsp	a0,152(sp)
    7dae:	45fa                	c.lwsp	a1,156(sp)
    7db0:	de8505ff          	wexti	a1,a0,8
    7db4:	ac9585ff          	sunpkd820	a1,a1
    7db8:	40ba05ff          	add16	a1,s4,a1
    7dbc:	d17e                	c.swsp	t6,160(sp)
    7dbe:	d37e                	c.swsp	t6,164(sp)
    7dc0:	540a                	c.lwsp	s0,160(sp)
    7dc2:	549a                	c.lwsp	s1,164(sp)
    7dc4:	de8408ff          	wexti	a7,s0,8
    7dc8:	ac9888ff          	sunpkd820	a7,a7
    7dcc:	41f95713          	srai	a4,s2,0x1f
    7dd0:	d54a                	c.swsp	s2,168(sp)
    7dd2:	d73a                	c.swsp	a4,172(sp)
    7dd4:	542a                	c.lwsp	s0,168(sp)
    7dd6:	54ba                	c.lwsp	s1,172(sp)
    7dd8:	8915947f          	smalbb	s0,a1,a7
    7ddc:	8922                	c.mv	s2,s0
    7dde:	18812c23          	sw	s0,408(sp)
    7de2:	18912e23          	sw	s1,412(sp)
    7de6:	ac9787ff          	sunpkd820	a5,a5
    7dea:	40fa07ff          	add16	a5,s4,a5
    7dee:	41fd5513          	srai	a0,s10,0x1f
    7df2:	d96a                	c.swsp	s10,176(sp)
    7df4:	db2a                	c.swsp	a0,180(sp)
    7df6:	5d4a                	c.lwsp	s10,176(sp)
    7df8:	5dda                	c.lwsp	s11,180(sp)
    7dfa:	a9159d7f          	smaltt	s10,a1,a7
    7dfe:	1ba12023          	sw	s10,416(sp)
    7e02:	1bb12223          	sw	s11,420(sp)
    7e06:	ac9f8fff          	sunpkd820	t6,t6
    7e0a:	41f35593          	srai	a1,t1,0x1f
    7e0e:	dd1a                	c.swsp	t1,184(sp)
    7e10:	df2e                	c.swsp	a1,188(sp)
    7e12:	546a                	c.lwsp	s0,184(sp)
    7e14:	54fa                	c.lwsp	s1,188(sp)
    7e16:	89f7947f          	smalbb	s0,a5,t6
    7e1a:	41fe5593          	srai	a1,t3,0x1f
    7e1e:	c1f2                	c.swsp	t3,192(sp)
    7e20:	c3ae                	c.swsp	a1,196(sp)
    7e22:	450e                	c.lwsp	a0,192(sp)
    7e24:	459e                	c.lwsp	a1,196(sp)
    7e26:	1a812423          	sw	s0,424(sp)
    7e2a:	1a912623          	sw	s1,428(sp)
    7e2e:	a9f7957f          	smaltt	a0,a5,t6
    7e32:	47f6                	c.lwsp	a5,92(sp)
    7e34:	1ab12a23          	sw	a1,436(sp)
    7e38:	1aa12823          	sw	a0,432(sp)
    7e3c:	4589                	c.li	a1,2
    7e3e:	872a                	c.mv	a4,a0
    7e40:	0af5de63          	bge	a1,a5,7efc <riscv_depthwise_conv_3x3_s8+0xbac>
    7e44:	57a2                	c.lwsp	a5,40(sp)
    7e46:	438c                	c.lw	a1,0(a5)
    7e48:	57b2                	c.lwsp	a5,44(sp)
    7e4a:	0007a883          	lw	a7,0(a5)
    7e4e:	24b12423          	sw	a1,584(sp)
    7e52:	24b12623          	sw	a1,588(sp)
    7e56:	24812303          	lw	t1,584(sp)
    7e5a:	24c12383          	lw	t2,588(sp)
    7e5e:	de83037f          	wexti	t1,t1,8
    7e62:	ac93037f          	sunpkd820	t1,t1
    7e66:	406a037f          	add16	t1,s4,t1
    7e6a:	25112823          	sw	a7,592(sp)
    7e6e:	25112a23          	sw	a7,596(sp)
    7e72:	25012e03          	lw	t3,592(sp)
    7e76:	25412e83          	lw	t4,596(sp)
    7e7a:	de8e0eff          	wexti	t4,t3,8
    7e7e:	ac9e8eff          	sunpkd820	t4,t4
    7e82:	19812703          	lw	a4,408(sp)
    7e86:	41f75793          	srai	a5,a4,0x1f
    7e8a:	24e12c23          	sw	a4,600(sp)
    7e8e:	24f12e23          	sw	a5,604(sp)
    7e92:	25812703          	lw	a4,600(sp)
    7e96:	25c12783          	lw	a5,604(sp)
    7e9a:	89d3177f          	smalbb	a4,t1,t4
    7e9e:	893a                	c.mv	s2,a4
    7ea0:	ac9585ff          	sunpkd820	a1,a1
    7ea4:	40ba05ff          	add16	a1,s4,a1
    7ea8:	41fd5793          	srai	a5,s10,0x1f
    7eac:	27a12023          	sw	s10,608(sp)
    7eb0:	26f12223          	sw	a5,612(sp)
    7eb4:	26012703          	lw	a4,608(sp)
    7eb8:	26412783          	lw	a5,612(sp)
    7ebc:	a9d3177f          	smaltt	a4,t1,t4
    7ec0:	00e00d33          	add	s10,zero,a4
    7ec4:	ac9888ff          	sunpkd820	a7,a7
    7ec8:	41f45793          	srai	a5,s0,0x1f
    7ecc:	26812423          	sw	s0,616(sp)
    7ed0:	26f12623          	sw	a5,620(sp)
    7ed4:	26812403          	lw	s0,616(sp)
    7ed8:	26c12483          	lw	s1,620(sp)
    7edc:	8915947f          	smalbb	s0,a1,a7
    7ee0:	1b012703          	lw	a4,432(sp)
    7ee4:	41f75793          	srai	a5,a4,0x1f
    7ee8:	26e12823          	sw	a4,624(sp)
    7eec:	26f12a23          	sw	a5,628(sp)
    7ef0:	27012703          	lw	a4,624(sp)
    7ef4:	27412783          	lw	a5,628(sp)
    7ef8:	a915977f          	smaltt	a4,a1,a7
    7efc:	47e6                	c.lwsp	a5,88(sp)
    7efe:	19012583          	lw	a1,400(sp)
    7f02:	a2f5d3e3          	bge	a1,a5,7928 <riscv_depthwise_conv_3x3_s8+0x5d8>
    7f06:	57e2                	c.lwsp	a5,56(sp)
    7f08:	0007a803          	lw	a6,0(a5)
    7f0c:	57f2                	c.lwsp	a5,60(sp)
    7f0e:	439c                	c.lw	a5,0(a5)
    7f10:	c9c2                	c.swsp	a6,208(sp)
    7f12:	cbc2                	c.swsp	a6,212(sp)
    7f14:	454e                	c.lwsp	a0,208(sp)
    7f16:	45de                	c.lwsp	a1,212(sp)
    7f18:	de85037f          	wexti	t1,a0,8
    7f1c:	ac93037f          	sunpkd820	t1,t1
    7f20:	406a037f          	add16	t1,s4,t1
    7f24:	cdbe                	c.swsp	a5,216(sp)
    7f26:	cfbe                	c.swsp	a5,220(sp)
    7f28:	456e                	c.lwsp	a0,216(sp)
    7f2a:	45fe                	c.lwsp	a1,220(sp)
    7f2c:	de850e7f          	wexti	t3,a0,8
    7f30:	ac9e0e7f          	sunpkd820	t3,t3
    7f34:	41f95593          	srai	a1,s2,0x1f
    7f38:	d1ca                	c.swsp	s2,224(sp)
    7f3a:	d3ae                	c.swsp	a1,228(sp)
    7f3c:	590e                	c.lwsp	s2,224(sp)
    7f3e:	599e                	c.lwsp	s3,228(sp)
    7f40:	89c3197f          	smalbb	s2,t1,t3
    7f44:	ac98087f          	sunpkd820	a6,a6
    7f48:	410a05ff          	add16	a1,s4,a6
    7f4c:	41fd5513          	srai	a0,s10,0x1f
    7f50:	d5ea                	c.swsp	s10,232(sp)
    7f52:	d7aa                	c.swsp	a0,236(sp)
    7f54:	5d2e                	c.lwsp	s10,232(sp)
    7f56:	5dbe                	c.lwsp	s11,236(sp)
    7f58:	a9c31d7f          	smaltt	s10,t1,t3
    7f5c:	ac9787ff          	sunpkd820	a5,a5
    7f60:	41f45513          	srai	a0,s0,0x1f
    7f64:	d9a2                	c.swsp	s0,240(sp)
    7f66:	dbaa                	c.swsp	a0,244(sp)
    7f68:	534e                	c.lwsp	t1,240(sp)
    7f6a:	53de                	c.lwsp	t2,244(sp)
    7f6c:	88f5937f          	smalbb	t1,a1,a5
    7f70:	ddba                	c.swsp	a4,248(sp)
    7f72:	877d                	c.srai	a4,0x1f
    7f74:	dfba                	c.swsp	a4,252(sp)
    7f76:	5e6e                	c.lwsp	t3,248(sp)
    7f78:	5efe                	c.lwsp	t4,252(sp)
    7f7a:	a8f59e7f          	smaltt	t3,a1,a5
    7f7e:	47c2                	c.lwsp	a5,16(sp)
    7f80:	439c                	c.lw	a5,0(a5)
    7f82:	4752                	c.lwsp	a4,20(sp)
    7f84:	4318                	c.lw	a4,0(a4)
    7f86:	10f12023          	sw	a5,256(sp)
    7f8a:	10f12223          	sw	a5,260(sp)
    7f8e:	10012503          	lw	a0,256(sp)
    7f92:	10412583          	lw	a1,260(sp)
    7f96:	de8505ff          	wexti	a1,a0,8
    7f9a:	ac9585ff          	sunpkd820	a1,a1
    7f9e:	40ba05ff          	add16	a1,s4,a1
    7fa2:	10e12423          	sw	a4,264(sp)
    7fa6:	10e12623          	sw	a4,268(sp)
    7faa:	10812403          	lw	s0,264(sp)
    7fae:	10c12483          	lw	s1,268(sp)
    7fb2:	de8408ff          	wexti	a7,s0,8
    7fb6:	ac9888ff          	sunpkd820	a7,a7
    7fba:	41f95513          	srai	a0,s2,0x1f
    7fbe:	11212823          	sw	s2,272(sp)
    7fc2:	10a12a23          	sw	a0,276(sp)
    7fc6:	11012403          	lw	s0,272(sp)
    7fca:	11412483          	lw	s1,276(sp)
    7fce:	8915947f          	smalbb	s0,a1,a7
    7fd2:	8922                	c.mv	s2,s0
    7fd4:	18812c23          	sw	s0,408(sp)
    7fd8:	18912e23          	sw	s1,412(sp)
    7fdc:	ac9787ff          	sunpkd820	a5,a5
    7fe0:	40fa07ff          	add16	a5,s4,a5
    7fe4:	41fd5513          	srai	a0,s10,0x1f
    7fe8:	11a12c23          	sw	s10,280(sp)
    7fec:	10a12e23          	sw	a0,284(sp)
    7ff0:	11812d03          	lw	s10,280(sp)
    7ff4:	11c12d83          	lw	s11,284(sp)
    7ff8:	a9159d7f          	smaltt	s10,a1,a7
    7ffc:	1ba12023          	sw	s10,416(sp)
    8000:	1bb12223          	sw	s11,420(sp)
    8004:	ac97077f          	sunpkd820	a4,a4
    8008:	41f35593          	srai	a1,t1,0x1f
    800c:	12612023          	sw	t1,288(sp)
    8010:	12b12223          	sw	a1,292(sp)
    8014:	12012403          	lw	s0,288(sp)
    8018:	12412483          	lw	s1,292(sp)
    801c:	88e7947f          	smalbb	s0,a5,a4
    8020:	41fe5593          	srai	a1,t3,0x1f
    8024:	13c12423          	sw	t3,296(sp)
    8028:	12b12623          	sw	a1,300(sp)
    802c:	12812503          	lw	a0,296(sp)
    8030:	12c12583          	lw	a1,300(sp)
    8034:	1a812423          	sw	s0,424(sp)
    8038:	1a912623          	sw	s1,428(sp)
    803c:	a8e7957f          	smaltt	a0,a5,a4
    8040:	47f6                	c.lwsp	a5,92(sp)
    8042:	1ab12a23          	sw	a1,436(sp)
    8046:	1aa12823          	sw	a0,432(sp)
    804a:	4589                	c.li	a1,2
    804c:	872a                	c.mv	a4,a0
    804e:	0cf5d163          	bge	a1,a5,8110 <riscv_depthwise_conv_3x3_s8+0xdc0>
    8052:	57c2                	c.lwsp	a5,48(sp)
    8054:	438c                	c.lw	a1,0(a5)
    8056:	57d2                	c.lwsp	a5,52(sp)
    8058:	0007a883          	lw	a7,0(a5)
    805c:	34b12023          	sw	a1,832(sp)
    8060:	34b12223          	sw	a1,836(sp)
    8064:	34012303          	lw	t1,832(sp)
    8068:	34412383          	lw	t2,836(sp)
    806c:	de83037f          	wexti	t1,t1,8
    8070:	ac93037f          	sunpkd820	t1,t1
    8074:	406a037f          	add16	t1,s4,t1
    8078:	35112423          	sw	a7,840(sp)
    807c:	35112623          	sw	a7,844(sp)
    8080:	34812e03          	lw	t3,840(sp)
    8084:	34c12e83          	lw	t4,844(sp)
    8088:	de8e0e7f          	wexti	t3,t3,8
    808c:	ac9e0e7f          	sunpkd820	t3,t3
    8090:	19812403          	lw	s0,408(sp)
    8094:	41f45793          	srai	a5,s0,0x1f
    8098:	34812823          	sw	s0,848(sp)
    809c:	34f12a23          	sw	a5,852(sp)
    80a0:	35012703          	lw	a4,848(sp)
    80a4:	35412783          	lw	a5,852(sp)
    80a8:	89c3177f          	smalbb	a4,t1,t3
    80ac:	893a                	c.mv	s2,a4
    80ae:	ac9585ff          	sunpkd820	a1,a1
    80b2:	40ba05ff          	add16	a1,s4,a1
    80b6:	1a012703          	lw	a4,416(sp)
    80ba:	41f75793          	srai	a5,a4,0x1f
    80be:	34e12c23          	sw	a4,856(sp)
    80c2:	34f12e23          	sw	a5,860(sp)
    80c6:	35812703          	lw	a4,856(sp)
    80ca:	35c12783          	lw	a5,860(sp)
    80ce:	a9c3177f          	smaltt	a4,t1,t3
    80d2:	8d3a                	c.mv	s10,a4
    80d4:	ac9888ff          	sunpkd820	a7,a7
    80d8:	1a812403          	lw	s0,424(sp)
    80dc:	41f45793          	srai	a5,s0,0x1f
    80e0:	36812023          	sw	s0,864(sp)
    80e4:	36f12223          	sw	a5,868(sp)
    80e8:	36012403          	lw	s0,864(sp)
    80ec:	36412483          	lw	s1,868(sp)
    80f0:	8915947f          	smalbb	s0,a1,a7
    80f4:	1b012703          	lw	a4,432(sp)
    80f8:	41f75793          	srai	a5,a4,0x1f
    80fc:	36e12423          	sw	a4,872(sp)
    8100:	36f12623          	sw	a5,876(sp)
    8104:	36812703          	lw	a4,872(sp)
    8108:	36c12783          	lw	a5,876(sp)
    810c:	a915977f          	smaltt	a4,a1,a7
    8110:	47e6                	c.lwsp	a5,88(sp)
    8112:	19412583          	lw	a1,404(sp)
    8116:	80f5d9e3          	bge	a1,a5,7928 <riscv_depthwise_conv_3x3_s8+0x5d8>
    811a:	47a6                	c.lwsp	a5,72(sp)
    811c:	439c                	c.lw	a5,0(a5)
    811e:	45b6                	c.lwsp	a1,76(sp)
    8120:	418c                	c.lw	a1,0(a1)
    8122:	12f12823          	sw	a5,304(sp)
    8126:	12f12a23          	sw	a5,308(sp)
    812a:	13012803          	lw	a6,304(sp)
    812e:	13412883          	lw	a7,308(sp)
    8132:	de88057f          	wexti	a0,a6,8
    8136:	ac95057f          	sunpkd820	a0,a0
    813a:	40aa057f          	add16	a0,s4,a0
    813e:	12b12c23          	sw	a1,312(sp)
    8142:	12b12e23          	sw	a1,316(sp)
    8146:	13812803          	lw	a6,312(sp)
    814a:	13c12883          	lw	a7,316(sp)
    814e:	de88087f          	wexti	a6,a6,8
    8152:	ac98087f          	sunpkd820	a6,a6
    8156:	41f95493          	srai	s1,s2,0x1f
    815a:	15212023          	sw	s2,320(sp)
    815e:	14912223          	sw	s1,324(sp)
    8162:	14012303          	lw	t1,320(sp)
    8166:	14412383          	lw	t2,324(sp)
    816a:	8905137f          	smalbb	t1,a0,a6
    816e:	ac9787ff          	sunpkd820	a5,a5
    8172:	40fa07ff          	add16	a5,s4,a5
    8176:	41fd5493          	srai	s1,s10,0x1f
    817a:	15a12423          	sw	s10,328(sp)
    817e:	14912623          	sw	s1,332(sp)
    8182:	14812e03          	lw	t3,328(sp)
    8186:	14c12e83          	lw	t4,332(sp)
    818a:	a9051e7f          	smaltt	t3,a0,a6
    818e:	ac9585ff          	sunpkd820	a1,a1
    8192:	41f45513          	srai	a0,s0,0x1f
    8196:	14812823          	sw	s0,336(sp)
    819a:	14a12a23          	sw	a0,340(sp)
    819e:	15012803          	lw	a6,336(sp)
    81a2:	15412883          	lw	a7,340(sp)
    81a6:	88b7987f          	smalbb	a6,a5,a1
    81aa:	14e12c23          	sw	a4,344(sp)
    81ae:	877d                	c.srai	a4,0x1f
    81b0:	14e12e23          	sw	a4,348(sp)
    81b4:	15812403          	lw	s0,344(sp)
    81b8:	15c12483          	lw	s1,348(sp)
    81bc:	a8b7947f          	smaltt	s0,a5,a1
    81c0:	47e2                	c.lwsp	a5,24(sp)
    81c2:	439c                	c.lw	a5,0(a5)
    81c4:	4772                	c.lwsp	a4,28(sp)
    81c6:	4318                	c.lw	a4,0(a4)
    81c8:	16f12023          	sw	a5,352(sp)
    81cc:	16f12223          	sw	a5,356(sp)
    81d0:	16012503          	lw	a0,352(sp)
    81d4:	16412583          	lw	a1,356(sp)
    81d8:	de8505ff          	wexti	a1,a0,8
    81dc:	ac9585ff          	sunpkd820	a1,a1
    81e0:	40ba05ff          	add16	a1,s4,a1
    81e4:	16e12423          	sw	a4,360(sp)
    81e8:	16e12623          	sw	a4,364(sp)
    81ec:	16812d03          	lw	s10,360(sp)
    81f0:	16c12d83          	lw	s11,364(sp)
    81f4:	de8d057f          	wexti	a0,s10,8
    81f8:	ac95057f          	sunpkd820	a0,a0
    81fc:	16612823          	sw	t1,368(sp)
    8200:	41f35313          	srai	t1,t1,0x1f
    8204:	16612a23          	sw	t1,372(sp)
    8208:	17012303          	lw	t1,368(sp)
    820c:	17412383          	lw	t2,372(sp)
    8210:	88a5937f          	smalbb	t1,a1,a0
    8214:	891a                	c.mv	s2,t1
    8216:	ac9787ff          	sunpkd820	a5,a5
    821a:	40fa07ff          	add16	a5,s4,a5
    821e:	17c12c23          	sw	t3,376(sp)
    8222:	41fe5e13          	srai	t3,t3,0x1f
    8226:	17c12e23          	sw	t3,380(sp)
    822a:	17812e03          	lw	t3,376(sp)
    822e:	17c12e83          	lw	t4,380(sp)
    8232:	a8a59e7f          	smaltt	t3,a1,a0
    8236:	8d72                	c.mv	s10,t3
    8238:	19c12c23          	sw	t3,408(sp)
    823c:	19d12e23          	sw	t4,412(sp)
    8240:	ac97077f          	sunpkd820	a4,a4
    8244:	41f85593          	srai	a1,a6,0x1f
    8248:	19012023          	sw	a6,384(sp)
    824c:	18b12223          	sw	a1,388(sp)
    8250:	18012803          	lw	a6,384(sp)
    8254:	18412883          	lw	a7,388(sp)
    8258:	88e7987f          	smalbb	a6,a5,a4
    825c:	41f45593          	srai	a1,s0,0x1f
    8260:	18812423          	sw	s0,392(sp)
    8264:	18b12623          	sw	a1,396(sp)
    8268:	18812e03          	lw	t3,392(sp)
    826c:	18c12e83          	lw	t4,396(sp)
    8270:	8442                	c.mv	s0,a6
    8272:	1b012023          	sw	a6,416(sp)
    8276:	1b112223          	sw	a7,420(sp)
    827a:	a8e79e7f          	smaltt	t3,a5,a4
    827e:	47f6                	c.lwsp	a5,92(sp)
    8280:	4589                	c.li	a1,2
    8282:	1bc12423          	sw	t3,424(sp)
    8286:	1bd12623          	sw	t4,428(sp)
    828a:	8772                	c.mv	a4,t3
    828c:	0af5de63          	bge	a1,a5,8348 <riscv_depthwise_conv_3x3_s8+0xff8>
    8290:	8442                	c.mv	s0,a6
    8292:	4786                	c.lwsp	a5,64(sp)
    8294:	438c                	c.lw	a1,0(a5)
    8296:	4796                	c.lwsp	a5,68(sp)
    8298:	0007a883          	lw	a7,0(a5)
    829c:	40b12823          	sw	a1,1040(sp)
    82a0:	40b12a23          	sw	a1,1044(sp)
    82a4:	41012703          	lw	a4,1040(sp)
    82a8:	41412783          	lw	a5,1044(sp)
    82ac:	de8707ff          	wexti	a5,a4,8
    82b0:	ac9787ff          	sunpkd820	a5,a5
    82b4:	40fa0eff          	add16	t4,s4,a5
    82b8:	41112c23          	sw	a7,1048(sp)
    82bc:	41112e23          	sw	a7,1052(sp)
    82c0:	41812703          	lw	a4,1048(sp)
    82c4:	41c12783          	lw	a5,1052(sp)
    82c8:	de8707ff          	wexti	a5,a4,8
    82cc:	ac978fff          	sunpkd820	t6,a5
    82d0:	41f35793          	srai	a5,t1,0x1f
    82d4:	42612023          	sw	t1,1056(sp)
    82d8:	42f12223          	sw	a5,1060(sp)
    82dc:	42012703          	lw	a4,1056(sp)
    82e0:	42412783          	lw	a5,1060(sp)
    82e4:	89fe977f          	smalbb	a4,t4,t6
    82e8:	893a                	c.mv	s2,a4
    82ea:	ac9585ff          	sunpkd820	a1,a1
    82ee:	40ba05ff          	add16	a1,s4,a1
    82f2:	19812303          	lw	t1,408(sp)
    82f6:	41f35793          	srai	a5,t1,0x1f
    82fa:	42612423          	sw	t1,1064(sp)
    82fe:	42f12623          	sw	a5,1068(sp)
    8302:	42812703          	lw	a4,1064(sp)
    8306:	42c12783          	lw	a5,1068(sp)
    830a:	a9fe977f          	smaltt	a4,t4,t6
    830e:	8d3a                	c.mv	s10,a4
    8310:	ac9888ff          	sunpkd820	a7,a7
    8314:	41f45793          	srai	a5,s0,0x1f
    8318:	42812823          	sw	s0,1072(sp)
    831c:	42f12a23          	sw	a5,1076(sp)
    8320:	43012403          	lw	s0,1072(sp)
    8324:	43412483          	lw	s1,1076(sp)
    8328:	8915947f          	smalbb	s0,a1,a7
    832c:	1a812703          	lw	a4,424(sp)
    8330:	41f75793          	srai	a5,a4,0x1f
    8334:	42e12c23          	sw	a4,1080(sp)
    8338:	42f12e23          	sw	a5,1084(sp)
    833c:	43812703          	lw	a4,1080(sp)
    8340:	43c12783          	lw	a5,1084(sp)
    8344:	a915977f          	smaltt	a4,a1,a7
    8348:	47e6                	c.lwsp	a5,88(sp)
    834a:	44812583          	lw	a1,1096(sp)
    834e:	dcf5dd63          	bge	a1,a5,7928 <riscv_depthwise_conv_3x3_s8+0x5d8>
    8352:	37412e03          	lw	t3,884(sp)
    8356:	8dd2                	c.mv	s11,s4
    8358:	40d6                	c.lwsp	ra,84(sp)
    835a:	37812e83          	lw	t4,888(sp)
    835e:	0000a583          	lw	a1,0(ra)
    8362:	44c6                	c.lwsp	s1,80(sp)
    8364:	409c                	c.lw	a5,0(s1)
    8366:	28b12023          	sw	a1,640(sp)
    836a:	28b12223          	sw	a1,644(sp)
    836e:	28012603          	lw	a2,640(sp)
    8372:	28412683          	lw	a3,644(sp)
    8376:	de86087f          	wexti	a6,a2,8
    837a:	ac98087f          	sunpkd820	a6,a6
    837e:	410a087f          	add16	a6,s4,a6
    8382:	28f12423          	sw	a5,648(sp)
    8386:	28f12623          	sw	a5,652(sp)
    838a:	28812603          	lw	a2,648(sp)
    838e:	28c12683          	lw	a3,652(sp)
    8392:	de8608ff          	wexti	a7,a2,8
    8396:	ac9888ff          	sunpkd820	a7,a7
    839a:	864a                	c.mv	a2,s2
    839c:	41f95693          	srai	a3,s2,0x1f
    83a0:	8f32                	c.mv	t5,a2
    83a2:	8fb6                	c.mv	t6,a3
    83a4:	89181f7f          	smalbb	t5,a6,a7
    83a8:	ac9586ff          	sunpkd820	a3,a1
    83ac:	40da06ff          	add16	a3,s4,a3
    83b0:	856a                	c.mv	a0,s10
    83b2:	41fd5593          	srai	a1,s10,0x1f
    83b6:	8a2a                	c.mv	s4,a0
    83b8:	8aae                	c.mv	s5,a1
    83ba:	a9181a7f          	smaltt	s4,a6,a7
    83be:	ac9785ff          	sunpkd820	a1,a5
    83c2:	8822                	c.mv	a6,s0
    83c4:	41f45893          	srai	a7,s0,0x1f
    83c8:	8942                	c.mv	s2,a6
    83ca:	89c6                	c.mv	s3,a7
    83cc:	88b6997f          	smalbb	s2,a3,a1
    83d0:	833a                	c.mv	t1,a4
    83d2:	41f75393          	srai	t2,a4,0x1f
    83d6:	8b1a                	c.mv	s6,t1
    83d8:	8b9e                	c.mv	s7,t2
    83da:	a8b69b7f          	smaltt	s6,a3,a1
    83de:	87f2                	c.mv	a5,t3
    83e0:	9e06                	c.add	t3,ra
    83e2:	000e2e03          	lw	t3,0(t3)
    83e6:	97a6                	c.add	a5,s1
    83e8:	439c                	c.lw	a5,0(a5)
    83ea:	29c12823          	sw	t3,656(sp)
    83ee:	29c12a23          	sw	t3,660(sp)
    83f2:	29012603          	lw	a2,656(sp)
    83f6:	29412683          	lw	a3,660(sp)
    83fa:	de8605ff          	wexti	a1,a2,8
    83fe:	ac9585ff          	sunpkd820	a1,a1
    8402:	40bd85ff          	add16	a1,s11,a1
    8406:	28f12c23          	sw	a5,664(sp)
    840a:	28f12e23          	sw	a5,668(sp)
    840e:	29812603          	lw	a2,664(sp)
    8412:	29c12683          	lw	a3,668(sp)
    8416:	de8608ff          	wexti	a7,a2,8
    841a:	ac9888ff          	sunpkd820	a7,a7
    841e:	837a                	c.mv	t1,t5
    8420:	41ff5393          	srai	t2,t5,0x1f
    8424:	8915937f          	smalbb	t1,a1,a7
    8428:	ac9e0e7f          	sunpkd820	t3,t3
    842c:	41cd8e7f          	add16	t3,s11,t3
    8430:	8652                	c.mv	a2,s4
    8432:	41fa5693          	srai	a3,s4,0x1f
    8436:	8f32                	c.mv	t5,a2
    8438:	8fb6                	c.mv	t6,a3
    843a:	a9159f7f          	smaltt	t5,a1,a7
    843e:	ac9787ff          	sunpkd820	a5,a5
    8442:	41f95593          	srai	a1,s2,0x1f
    8446:	854a                	c.mv	a0,s2
    8448:	892a                	c.mv	s2,a0
    844a:	89ae                	c.mv	s3,a1
    844c:	88fe197f          	smalbb	s2,t3,a5
    8450:	885a                	c.mv	a6,s6
    8452:	41fb5893          	srai	a7,s6,0x1f
    8456:	a8fe187f          	smaltt	a6,t3,a5
    845a:	01d087b3          	add	a5,ra,t4
    845e:	439c                	c.lw	a5,0(a5)
    8460:	01d48733          	add	a4,s1,t4
    8464:	4318                	c.lw	a4,0(a4)
    8466:	2af12023          	sw	a5,672(sp)
    846a:	2af12223          	sw	a5,676(sp)
    846e:	2a012603          	lw	a2,672(sp)
    8472:	2a412683          	lw	a3,676(sp)
    8476:	de8606ff          	wexti	a3,a2,8
    847a:	ac9686ff          	sunpkd820	a3,a3
    847e:	40dd86ff          	add16	a3,s11,a3
    8482:	2ae12423          	sw	a4,680(sp)
    8486:	2ae12623          	sw	a4,684(sp)
    848a:	2a812503          	lw	a0,680(sp)
    848e:	2ac12583          	lw	a1,684(sp)
    8492:	de8505ff          	wexti	a1,a0,8
    8496:	ac9585ff          	sunpkd820	a1,a1
    849a:	8e1a                	c.mv	t3,t1
    849c:	41f35e93          	srai	t4,t1,0x1f
    84a0:	88b69e7f          	smalbb	t3,a3,a1
    84a4:	ac9787ff          	sunpkd820	a5,a5
    84a8:	40fd87ff          	add16	a5,s11,a5
    84ac:	837a                	c.mv	t1,t5
    84ae:	41ff5393          	srai	t2,t5,0x1f
    84b2:	a8b6937f          	smaltt	t1,a3,a1
    84b6:	ac97077f          	sunpkd820	a4,a4
    84ba:	864a                	c.mv	a2,s2
    84bc:	41f95693          	srai	a3,s2,0x1f
    84c0:	88e7967f          	smalbb	a2,a5,a4
    84c4:	01000633          	add	a2,zero,a6
    84c8:	41f85693          	srai	a3,a6,0x1f
    84cc:	a8e7967f          	smaltt	a2,a5,a4
    84d0:	4d01                	c.li	s10,0
    84d2:	4701                	c.li	a4,0
    84d4:	4901                	c.li	s2,0
    84d6:	4401                	c.li	s0,0
    84d8:	9e0ff06f          	j	76b8 <riscv_depthwise_conv_3x3_s8+0x368>
    84dc:	47a2                	c.lwsp	a5,8(sp)
    84de:	439c                	c.lw	a5,0(a5)
    84e0:	45b2                	c.lwsp	a1,12(sp)
    84e2:	418c                	c.lw	a1,0(a1)
    84e4:	1ef12423          	sw	a5,488(sp)
    84e8:	1ef12623          	sw	a5,492(sp)
    84ec:	1e812803          	lw	a6,488(sp)
    84f0:	1ec12883          	lw	a7,492(sp)
    84f4:	de88057f          	wexti	a0,a6,8
    84f8:	ac95057f          	sunpkd820	a0,a0
    84fc:	40aa057f          	add16	a0,s4,a0
    8500:	1eb12823          	sw	a1,496(sp)
    8504:	1eb12a23          	sw	a1,500(sp)
    8508:	1f012803          	lw	a6,496(sp)
    850c:	1f412883          	lw	a7,500(sp)
    8510:	de88087f          	wexti	a6,a6,8
    8514:	ac98087f          	sunpkd820	a6,a6
    8518:	41f95493          	srai	s1,s2,0x1f
    851c:	1f212c23          	sw	s2,504(sp)
    8520:	1e912e23          	sw	s1,508(sp)
    8524:	1f812303          	lw	t1,504(sp)
    8528:	1fc12383          	lw	t2,508(sp)
    852c:	8905137f          	smalbb	t1,a0,a6
    8530:	ac9787ff          	sunpkd820	a5,a5
    8534:	40fa07ff          	add16	a5,s4,a5
    8538:	41fd5493          	srai	s1,s10,0x1f
    853c:	21a12023          	sw	s10,512(sp)
    8540:	20912223          	sw	s1,516(sp)
    8544:	20012d03          	lw	s10,512(sp)
    8548:	20412d83          	lw	s11,516(sp)
    854c:	a9051d7f          	smaltt	s10,a0,a6
    8550:	ac9585ff          	sunpkd820	a1,a1
    8554:	41f45513          	srai	a0,s0,0x1f
    8558:	20812423          	sw	s0,520(sp)
    855c:	20a12623          	sw	a0,524(sp)
    8560:	20812803          	lw	a6,520(sp)
    8564:	20c12883          	lw	a7,524(sp)
    8568:	88b7987f          	smalbb	a6,a5,a1
    856c:	20e12823          	sw	a4,528(sp)
    8570:	877d                	c.srai	a4,0x1f
    8572:	20e12a23          	sw	a4,532(sp)
    8576:	21012403          	lw	s0,528(sp)
    857a:	21412483          	lw	s1,532(sp)
    857e:	a8b7947f          	smaltt	s0,a5,a1
    8582:	57a2                	c.lwsp	a5,40(sp)
    8584:	439c                	c.lw	a5,0(a5)
    8586:	5732                	c.lwsp	a4,44(sp)
    8588:	4318                	c.lw	a4,0(a4)
    858a:	20f12c23          	sw	a5,536(sp)
    858e:	20f12e23          	sw	a5,540(sp)
    8592:	21812503          	lw	a0,536(sp)
    8596:	21c12583          	lw	a1,540(sp)
    859a:	de8505ff          	wexti	a1,a0,8
    859e:	ac9585ff          	sunpkd820	a1,a1
    85a2:	40ba05ff          	add16	a1,s4,a1
    85a6:	22e12023          	sw	a4,544(sp)
    85aa:	22e12223          	sw	a4,548(sp)
    85ae:	22012e03          	lw	t3,544(sp)
    85b2:	22412e83          	lw	t4,548(sp)
    85b6:	de8e057f          	wexti	a0,t3,8
    85ba:	ac95057f          	sunpkd820	a0,a0
    85be:	22612423          	sw	t1,552(sp)
    85c2:	41f35313          	srai	t1,t1,0x1f
    85c6:	22612623          	sw	t1,556(sp)
    85ca:	22812e03          	lw	t3,552(sp)
    85ce:	22c12e83          	lw	t4,556(sp)
    85d2:	88a59e7f          	smalbb	t3,a1,a0
    85d6:	8972                	c.mv	s2,t3
    85d8:	ac9787ff          	sunpkd820	a5,a5
    85dc:	40fa07ff          	add16	a5,s4,a5
    85e0:	41fd5313          	srai	t1,s10,0x1f
    85e4:	22612a23          	sw	t1,564(sp)
    85e8:	23a12823          	sw	s10,560(sp)
    85ec:	23412383          	lw	t2,564(sp)
    85f0:	23012303          	lw	t1,560(sp)
    85f4:	a8a5937f          	smaltt	t1,a1,a0
    85f8:	8d1a                	c.mv	s10,t1
    85fa:	ac97077f          	sunpkd820	a4,a4
    85fe:	41f85593          	srai	a1,a6,0x1f
    8602:	23012c23          	sw	a6,568(sp)
    8606:	22b12e23          	sw	a1,572(sp)
    860a:	23812803          	lw	a6,568(sp)
    860e:	23c12883          	lw	a7,572(sp)
    8612:	88e7987f          	smalbb	a6,a5,a4
    8616:	41f45593          	srai	a1,s0,0x1f
    861a:	24812023          	sw	s0,576(sp)
    861e:	24b12223          	sw	a1,580(sp)
    8622:	24012503          	lw	a0,576(sp)
    8626:	24412583          	lw	a1,580(sp)
    862a:	8442                	c.mv	s0,a6
    862c:	19012c23          	sw	a6,408(sp)
    8630:	19112e23          	sw	a7,412(sp)
    8634:	a8e7957f          	smaltt	a0,a5,a4
    8638:	19012783          	lw	a5,400(sp)
    863c:	1aa12023          	sw	a0,416(sp)
    8640:	1ab12223          	sw	a1,420(sp)
    8644:	872a                	c.mv	a4,a0
    8646:	aff7d163          	bge	a5,t6,7928 <riscv_depthwise_conv_3x3_s8+0x5d8>
    864a:	47c2                	c.lwsp	a5,16(sp)
    864c:	439c                	c.lw	a5,0(a5)
    864e:	4752                	c.lwsp	a4,20(sp)
    8650:	4318                	c.lw	a4,0(a4)
    8652:	2ef12023          	sw	a5,736(sp)
    8656:	2ef12223          	sw	a5,740(sp)
    865a:	2e012503          	lw	a0,736(sp)
    865e:	2e412583          	lw	a1,740(sp)
    8662:	de8505ff          	wexti	a1,a0,8
    8666:	ac9585ff          	sunpkd820	a1,a1
    866a:	40ba05ff          	add16	a1,s4,a1
    866e:	2ee12423          	sw	a4,744(sp)
    8672:	2ee12623          	sw	a4,748(sp)
    8676:	2e812403          	lw	s0,744(sp)
    867a:	2ec12483          	lw	s1,748(sp)
    867e:	de8408ff          	wexti	a7,s0,8
    8682:	ac9888ff          	sunpkd820	a7,a7
    8686:	41fe5513          	srai	a0,t3,0x1f
    868a:	2fc12823          	sw	t3,752(sp)
    868e:	2ea12a23          	sw	a0,756(sp)
    8692:	2f012e03          	lw	t3,752(sp)
    8696:	2f412e83          	lw	t4,756(sp)
    869a:	89159e7f          	smalbb	t3,a1,a7
    869e:	ac9787ff          	sunpkd820	a5,a5
    86a2:	40fa07ff          	add16	a5,s4,a5
    86a6:	41f35513          	srai	a0,t1,0x1f
    86aa:	2e612c23          	sw	t1,760(sp)
    86ae:	2ea12e23          	sw	a0,764(sp)
    86b2:	2f812303          	lw	t1,760(sp)
    86b6:	2fc12383          	lw	t2,764(sp)
    86ba:	a915937f          	smaltt	t1,a1,a7
    86be:	ac97077f          	sunpkd820	a4,a4
    86c2:	19812803          	lw	a6,408(sp)
    86c6:	41f85593          	srai	a1,a6,0x1f
    86ca:	31012023          	sw	a6,768(sp)
    86ce:	30b12223          	sw	a1,772(sp)
    86d2:	30012403          	lw	s0,768(sp)
    86d6:	30412483          	lw	s1,772(sp)
    86da:	88e7947f          	smalbb	s0,a5,a4
    86de:	1a012503          	lw	a0,416(sp)
    86e2:	41f55593          	srai	a1,a0,0x1f
    86e6:	30a12423          	sw	a0,776(sp)
    86ea:	30b12623          	sw	a1,780(sp)
    86ee:	30812803          	lw	a6,776(sp)
    86f2:	30c12883          	lw	a7,780(sp)
    86f6:	a8e7987f          	smaltt	a6,a5,a4
    86fa:	57c2                	c.lwsp	a5,48(sp)
    86fc:	439c                	c.lw	a5,0(a5)
    86fe:	5752                	c.lwsp	a4,52(sp)
    8700:	4318                	c.lw	a4,0(a4)
    8702:	30f12823          	sw	a5,784(sp)
    8706:	30f12a23          	sw	a5,788(sp)
    870a:	31012503          	lw	a0,784(sp)
    870e:	31412583          	lw	a1,788(sp)
    8712:	de8505ff          	wexti	a1,a0,8
    8716:	ac9585ff          	sunpkd820	a1,a1
    871a:	40ba05ff          	add16	a1,s4,a1
    871e:	30e12c23          	sw	a4,792(sp)
    8722:	30e12e23          	sw	a4,796(sp)
    8726:	31812d03          	lw	s10,792(sp)
    872a:	31c12d83          	lw	s11,796(sp)
    872e:	de8d057f          	wexti	a0,s10,8
    8732:	ac95057f          	sunpkd820	a0,a0
    8736:	33c12023          	sw	t3,800(sp)
    873a:	41fe5e13          	srai	t3,t3,0x1f
    873e:	33c12223          	sw	t3,804(sp)
    8742:	32012e03          	lw	t3,800(sp)
    8746:	32412e83          	lw	t4,804(sp)
    874a:	88a59e7f          	smalbb	t3,a1,a0
    874e:	8972                	c.mv	s2,t3
    8750:	ac9787ff          	sunpkd820	a5,a5
    8754:	40fa07ff          	add16	a5,s4,a5
    8758:	32612423          	sw	t1,808(sp)
    875c:	41f35313          	srai	t1,t1,0x1f
    8760:	32612623          	sw	t1,812(sp)
    8764:	32812303          	lw	t1,808(sp)
    8768:	32c12383          	lw	t2,812(sp)
    876c:	a8a5937f          	smaltt	t1,a1,a0
    8770:	8d1a                	c.mv	s10,t1
    8772:	18612c23          	sw	t1,408(sp)
    8776:	18712e23          	sw	t2,412(sp)
    877a:	ac97077f          	sunpkd820	a4,a4
    877e:	41f45593          	srai	a1,s0,0x1f
    8782:	32812823          	sw	s0,816(sp)
    8786:	32b12a23          	sw	a1,820(sp)
    878a:	33012303          	lw	t1,816(sp)
    878e:	33412383          	lw	t2,820(sp)
    8792:	88e7937f          	smalbb	t1,a5,a4
    8796:	41f85593          	srai	a1,a6,0x1f
    879a:	33012c23          	sw	a6,824(sp)
    879e:	32b12e23          	sw	a1,828(sp)
    87a2:	33812803          	lw	a6,824(sp)
    87a6:	33c12883          	lw	a7,828(sp)
    87aa:	841a                	c.mv	s0,t1
    87ac:	a8e7987f          	smaltt	a6,a5,a4
    87b0:	19412783          	lw	a5,404(sp)
    87b4:	1b012023          	sw	a6,416(sp)
    87b8:	1b112223          	sw	a7,420(sp)
    87bc:	8742                	c.mv	a4,a6
    87be:	97f7d563          	bge	a5,t6,7928 <riscv_depthwise_conv_3x3_s8+0x5d8>
    87c2:	47e2                	c.lwsp	a5,24(sp)
    87c4:	439c                	c.lw	a5,0(a5)
    87c6:	4772                	c.lwsp	a4,28(sp)
    87c8:	4318                	c.lw	a4,0(a4)
    87ca:	3af12823          	sw	a5,944(sp)
    87ce:	3af12a23          	sw	a5,948(sp)
    87d2:	3b012503          	lw	a0,944(sp)
    87d6:	3b412583          	lw	a1,948(sp)
    87da:	de8505ff          	wexti	a1,a0,8
    87de:	ac9585ff          	sunpkd820	a1,a1
    87e2:	40ba05ff          	add16	a1,s4,a1
    87e6:	3ae12c23          	sw	a4,952(sp)
    87ea:	3ae12e23          	sw	a4,956(sp)
    87ee:	3b812403          	lw	s0,952(sp)
    87f2:	3bc12483          	lw	s1,956(sp)
    87f6:	de8408ff          	wexti	a7,s0,8
    87fa:	ac9888ff          	sunpkd820	a7,a7
    87fe:	41fe5513          	srai	a0,t3,0x1f
    8802:	3dc12023          	sw	t3,960(sp)
    8806:	3ca12223          	sw	a0,964(sp)
    880a:	3c012e03          	lw	t3,960(sp)
    880e:	3c412e83          	lw	t4,964(sp)
    8812:	89159e7f          	smalbb	t3,a1,a7
    8816:	ac9787ff          	sunpkd820	a5,a5
    881a:	40fa07ff          	add16	a5,s4,a5
    881e:	19812403          	lw	s0,408(sp)
    8822:	41f45513          	srai	a0,s0,0x1f
    8826:	3c812423          	sw	s0,968(sp)
    882a:	3ca12623          	sw	a0,972(sp)
    882e:	3c812403          	lw	s0,968(sp)
    8832:	3cc12483          	lw	s1,972(sp)
    8836:	a915947f          	smaltt	s0,a1,a7
    883a:	ac97077f          	sunpkd820	a4,a4
    883e:	41f35593          	srai	a1,t1,0x1f
    8842:	3c612823          	sw	t1,976(sp)
    8846:	3cb12a23          	sw	a1,980(sp)
    884a:	3d012303          	lw	t1,976(sp)
    884e:	3d412383          	lw	t2,980(sp)
    8852:	88e7937f          	smalbb	t1,a5,a4
    8856:	1a012503          	lw	a0,416(sp)
    885a:	41f55593          	srai	a1,a0,0x1f
    885e:	3ca12c23          	sw	a0,984(sp)
    8862:	3cb12e23          	sw	a1,988(sp)
    8866:	3d812503          	lw	a0,984(sp)
    886a:	3dc12583          	lw	a1,988(sp)
    886e:	a8e7957f          	smaltt	a0,a5,a4
    8872:	4786                	c.lwsp	a5,64(sp)
    8874:	18a12c23          	sw	a0,408(sp)
    8878:	18b12e23          	sw	a1,412(sp)
    887c:	438c                	c.lw	a1,0(a5)
    887e:	4796                	c.lwsp	a5,68(sp)
    8880:	4388                	c.lw	a0,0(a5)
    8882:	3eb12023          	sw	a1,992(sp)
    8886:	3eb12223          	sw	a1,996(sp)
    888a:	3e012803          	lw	a6,992(sp)
    888e:	3e412883          	lw	a7,996(sp)
    8892:	de88087f          	wexti	a6,a6,8
    8896:	ac98087f          	sunpkd820	a6,a6
    889a:	410a087f          	add16	a6,s4,a6
    889e:	3ea12423          	sw	a0,1000(sp)
    88a2:	3ea12623          	sw	a0,1004(sp)
    88a6:	3e812d03          	lw	s10,1000(sp)
    88aa:	3ec12d83          	lw	s11,1004(sp)
    88ae:	de8d08ff          	wexti	a7,s10,8
    88b2:	ac9888ff          	sunpkd820	a7,a7
    88b6:	41fe5793          	srai	a5,t3,0x1f
    88ba:	3fc12823          	sw	t3,1008(sp)
    88be:	3ef12a23          	sw	a5,1012(sp)
    88c2:	3f012703          	lw	a4,1008(sp)
    88c6:	3f412783          	lw	a5,1012(sp)
    88ca:	8918177f          	smalbb	a4,a6,a7
    88ce:	893a                	c.mv	s2,a4
    88d0:	ac9585ff          	sunpkd820	a1,a1
    88d4:	40ba05ff          	add16	a1,s4,a1
    88d8:	41f45793          	srai	a5,s0,0x1f
    88dc:	3e812c23          	sw	s0,1016(sp)
    88e0:	3ef12e23          	sw	a5,1020(sp)
    88e4:	3f812703          	lw	a4,1016(sp)
    88e8:	3fc12783          	lw	a5,1020(sp)
    88ec:	a918177f          	smaltt	a4,a6,a7
    88f0:	00e00d33          	add	s10,zero,a4
    88f4:	ac95057f          	sunpkd820	a0,a0
    88f8:	41f35793          	srai	a5,t1,0x1f
    88fc:	40612023          	sw	t1,1024(sp)
    8900:	40f12223          	sw	a5,1028(sp)
    8904:	40012403          	lw	s0,1024(sp)
    8908:	40412483          	lw	s1,1028(sp)
    890c:	88a5947f          	smalbb	s0,a1,a0
    8910:	19812703          	lw	a4,408(sp)
    8914:	41f75793          	srai	a5,a4,0x1f
    8918:	40e12423          	sw	a4,1032(sp)
    891c:	40f12623          	sw	a5,1036(sp)
    8920:	40812703          	lw	a4,1032(sp)
    8924:	40c12783          	lw	a5,1036(sp)
    8928:	a8a5977f          	smaltt	a4,a1,a0
    892c:	ffdfe06f          	j	7928 <riscv_depthwise_conv_3x3_s8+0x5d8>
    8930:	4776                	c.lwsp	a4,92(sp)
    8932:	00060903          	lb	s2,0(a2)
    8936:	00050b03          	lb	s6,0(a0) # 40000000 <_DATA_LMA_START+0x1fff5168>
    893a:	12ed4363          	blt	s10,a4,8a60 <riscv_depthwise_conv_3x3_s8+0x1710>
    893e:	997e                	c.add	s2,t6
    8940:	01360733          	add	a4,a2,s3
    8944:	c56917ff          	maddr32	a5,s2,s6
    8948:	00070703          	lb	a4,0(a4)
    894c:	01350933          	add	s2,a0,s3
    8950:	00090903          	lb	s2,0(s2)
    8954:	977e                	c.add	a4,t6
    8956:	c52717ff          	maddr32	a5,a4,s2
    895a:	19012703          	lw	a4,400(sp)
    895e:	a8875f63          	bge	a4,s0,7bfc <riscv_depthwise_conv_3x3_s8+0x8ac>
    8962:	00088703          	lb	a4,0(a7)
    8966:	00080b03          	lb	s6,0(a6) # 40000000 <_DATA_LMA_START+0x1fff5168>
    896a:	01388933          	add	s2,a7,s3
    896e:	977e                	c.add	a4,t6
    8970:	c56717ff          	maddr32	a5,a4,s6
    8974:	00090903          	lb	s2,0(s2)
    8978:	44c12703          	lw	a4,1100(sp)
    897c:	000e0b03          	lb	s6,0(t3)
    8980:	00173713          	seqz	a4,a4
    8984:	997e                	c.add	s2,t6
    8986:	0709                	c.addi	a4,2
    8988:	c56917ff          	maddr32	a5,s2,s6
    898c:	a6875863          	bge	a4,s0,7bfc <riscv_depthwise_conv_3x3_s8+0x8ac>
    8990:	44012d83          	lw	s11,1088(sp)
    8994:	00030903          	lb	s2,0(t1) # 40000000 <_DATA_LMA_START+0x1fff5168>
    8998:	01b80733          	add	a4,a6,s11
    899c:	00070b03          	lb	s6,0(a4)
    89a0:	997e                	c.add	s2,t6
    89a2:	01330733          	add	a4,t1,s3
    89a6:	c52b17ff          	maddr32	a5,s6,s2
    89aa:	00070703          	lb	a4,0(a4)
    89ae:	01be0933          	add	s2,t3,s11
    89b2:	00090903          	lb	s2,0(s2)
    89b6:	977e                	c.add	a4,t6
    89b8:	c52717ff          	maddr32	a5,a4,s2
    89bc:	a40ff06f          	j	7bfc <riscv_depthwise_conv_3x3_s8+0x8ac>
    89c0:	01360733          	add	a4,a2,s3
    89c4:	00070903          	lb	s2,0(a4)
    89c8:	01350733          	add	a4,a0,s3
    89cc:	00070b03          	lb	s6,0(a4)
    89d0:	997e                	c.add	s2,t6
    89d2:	00960733          	add	a4,a2,s1
    89d6:	c56917ff          	maddr32	a5,s2,s6
    89da:	00070703          	lb	a4,0(a4)
    89de:	00950933          	add	s2,a0,s1
    89e2:	00090903          	lb	s2,0(s2)
    89e6:	977e                	c.add	a4,t6
    89e8:	c52717ff          	maddr32	a5,a4,s2
    89ec:	19012703          	lw	a4,400(sp)
    89f0:	a0875663          	bge	a4,s0,7bfc <riscv_depthwise_conv_3x3_s8+0x8ac>
    89f4:	01388733          	add	a4,a7,s3
    89f8:	00070703          	lb	a4,0(a4)
    89fc:	000e0b03          	lb	s6,0(t3)
    8a00:	00988933          	add	s2,a7,s1
    8a04:	977e                	c.add	a4,t6
    8a06:	c56717ff          	maddr32	a5,a4,s6
    8a0a:	00980733          	add	a4,a6,s1
    8a0e:	00070b03          	lb	s6,0(a4)
    8a12:	00090903          	lb	s2,0(s2)
    8a16:	44c12703          	lw	a4,1100(sp)
    8a1a:	00173713          	seqz	a4,a4
    8a1e:	997e                	c.add	s2,t6
    8a20:	0709                	c.addi	a4,2
    8a22:	c56917ff          	maddr32	a5,s2,s6
    8a26:	9c875b63          	bge	a4,s0,7bfc <riscv_depthwise_conv_3x3_s8+0x8ac>
    8a2a:	44012903          	lw	s2,1088(sp)
    8a2e:	01330733          	add	a4,t1,s3
    8a32:	00070b03          	lb	s6,0(a4)
    8a36:	012e0733          	add	a4,t3,s2
    8a3a:	00070d83          	lb	s11,0(a4)
    8a3e:	01090733          	add	a4,s2,a6
    8a42:	00930933          	add	s2,t1,s1
    8a46:	00090903          	lb	s2,0(s2)
    8a4a:	9b7e                	c.add	s6,t6
    8a4c:	9726                	c.add	a4,s1
    8a4e:	00070703          	lb	a4,0(a4)
    8a52:	c5bb17ff          	maddr32	a5,s6,s11
    8a56:	997e                	c.add	s2,t6
    8a58:	c52717ff          	maddr32	a5,a4,s2
    8a5c:	9a0ff06f          	j	7bfc <riscv_depthwise_conv_3x3_s8+0x8ac>
    8a60:	997e                	c.add	s2,t6
    8a62:	01360733          	add	a4,a2,s3
    8a66:	c56917ff          	maddr32	a5,s2,s6
    8a6a:	00070703          	lb	a4,0(a4)
    8a6e:	01350933          	add	s2,a0,s3
    8a72:	00090b03          	lb	s6,0(s2)
    8a76:	977e                	c.add	a4,t6
    8a78:	00960933          	add	s2,a2,s1
    8a7c:	c56717ff          	maddr32	a5,a4,s6
    8a80:	00090903          	lb	s2,0(s2)
    8a84:	00950733          	add	a4,a0,s1
    8a88:	00070703          	lb	a4,0(a4)
    8a8c:	997e                	c.add	s2,t6
    8a8e:	c4e917ff          	maddr32	a5,s2,a4
    8a92:	19012703          	lw	a4,400(sp)
    8a96:	96875363          	bge	a4,s0,7bfc <riscv_depthwise_conv_3x3_s8+0x8ac>
    8a9a:	00088903          	lb	s2,0(a7)
    8a9e:	00080b03          	lb	s6,0(a6)
    8aa2:	01388733          	add	a4,a7,s3
    8aa6:	997e                	c.add	s2,t6
    8aa8:	00070703          	lb	a4,0(a4)
    8aac:	c56917ff          	maddr32	a5,s2,s6
    8ab0:	000e0b03          	lb	s6,0(t3)
    8ab4:	977e                	c.add	a4,t6
    8ab6:	00988933          	add	s2,a7,s1
    8aba:	c56717ff          	maddr32	a5,a4,s6
    8abe:	00980733          	add	a4,a6,s1
    8ac2:	00070b03          	lb	s6,0(a4)
    8ac6:	00090903          	lb	s2,0(s2)
    8aca:	44c12703          	lw	a4,1100(sp)
    8ace:	00173713          	seqz	a4,a4
    8ad2:	997e                	c.add	s2,t6
    8ad4:	0709                	c.addi	a4,2
    8ad6:	c56917ff          	maddr32	a5,s2,s6
    8ada:	92875163          	bge	a4,s0,7bfc <riscv_depthwise_conv_3x3_s8+0x8ac>
    8ade:	44012703          	lw	a4,1088(sp)
    8ae2:	00030b03          	lb	s6,0(t1)
    8ae6:	9742                	c.add	a4,a6
    8ae8:	00070d83          	lb	s11,0(a4)
    8aec:	9b7e                	c.add	s6,t6
    8aee:	01330933          	add	s2,t1,s3
    8af2:	c5bb17ff          	maddr32	a5,s6,s11
    8af6:	44012b03          	lw	s6,1088(sp)
    8afa:	00090903          	lb	s2,0(s2)
    8afe:	9b72                	c.add	s6,t3
    8b00:	000b0d83          	lb	s11,0(s6)
    8b04:	00930b33          	add	s6,t1,s1
    8b08:	000b0b03          	lb	s6,0(s6)
    8b0c:	997e                	c.add	s2,t6
    8b0e:	9726                	c.add	a4,s1
    8b10:	00070703          	lb	a4,0(a4)
    8b14:	c5b917ff          	maddr32	a5,s2,s11
    8b18:	01fb0b33          	add	s6,s6,t6
    8b1c:	c4eb17ff          	maddr32	a5,s6,a4
    8b20:	8dcff06f          	j	7bfc <riscv_depthwise_conv_3x3_s8+0x8ac>
    8b24:	53012f03          	lw	t5,1328(sp)
    8b28:	00000f93          	li	t6,0
    8b2c:	ffdfe06f          	j	7b28 <riscv_depthwise_conv_3x3_s8+0x7d8>
    8b30:	557d                	c.li	a0,-1
    8b32:	9b6ff06f          	j	7ce8 <riscv_depthwise_conv_3x3_s8+0x998>
	...

00008b38 <riscv_nn_vec_mat_mult_t_s8>:
    8b38:	7161                	c.addi16sp	sp,-432
    8b3a:	1b812603          	lw	a2,440(sp)
    8b3e:	1b812283          	lw	t0,440(sp)
    8b42:	01f65313          	srli	t1,a2,0x1f
    8b46:	005303b3          	add	t2,t1,t0
    8b4a:	1b212223          	sw	s2,420(sp)
    8b4e:	19a12223          	sw	s10,388(sp)
    8b52:	cb3a                	c.swsp	a4,148(sp)
    8b54:	8d3a                	c.mv	s10,a4
    8b56:	1c812903          	lw	s2,456(sp)
    8b5a:	4013d713          	srai	a4,t2,0x1
    8b5e:	1a812623          	sw	s0,428(sp)
    8b62:	1a912423          	sw	s1,424(sp)
    8b66:	01079413          	slli	s0,a5,0x10
    8b6a:	19812623          	sw	s8,396(sp)
    8b6e:	19b12023          	sw	s11,384(sp)
    8b72:	1b312023          	sw	s3,416(sp)
    8b76:	19412e23          	sw	s4,412(sp)
    8b7a:	19512c23          	sw	s5,408(sp)
    8b7e:	19612a23          	sw	s6,404(sp)
    8b82:	19712823          	sw	s7,400(sp)
    8b86:	19912423          	sw	s9,392(sp)
    8b8a:	cc42                	c.swsp	a6,24(sp)
    8b8c:	c246                	c.swsp	a7,4(sp)
    8b8e:	c63a                	c.swsp	a4,12(sp)
    8b90:	8daa                	c.mv	s11,a0
    8b92:	8c2e                	c.mv	s8,a1
    8b94:	41045493          	srai	s1,s0,0x10
    8b98:	12090ae3          	beqz	s2,94cc <riscv_nn_vec_mat_mult_t_s8+0x994>
    8b9c:	0e9492ff          	pkbb16	t0,s1,s1
    8ba0:	01091f93          	slli	t6,s2,0x10
    8ba4:	410fde93          	srai	t4,t6,0x10
    8ba8:	0fde94ff          	pkbb16	s1,t4,t4
    8bac:	1b812803          	lw	a6,440(sp)
    8bb0:	4c85                	c.li	s9,1
    8bb2:	470cd563          	bge	s9,a6,901c <riscv_nn_vec_mat_mult_t_s8+0x4e4>
    8bb6:	1b012503          	lw	a0,432(sp)
    8bba:	4401                	c.li	s0,0
    8bbc:	40a00bb3          	neg	s7,a0
    8bc0:	f28b8aff          	maxw	s5,s7,s0
    8bc4:	1b012883          	lw	a7,432(sp)
    8bc8:	015c9333          	sll	t1,s9,s5
    8bcc:	1b412a03          	lw	s4,436(sp)
    8bd0:	1b412383          	lw	t2,436(sp)
    8bd4:	f2888eff          	maxw	t4,a7,s0
    8bd8:	fff30613          	addi	a2,t1,-1
    8bdc:	1c412f03          	lw	t5,452(sp)
    8be0:	1b412403          	lw	s0,436(sp)
    8be4:	ffca7b13          	andi	s6,s4,-4
    8be8:	40165713          	srai	a4,a2,0x1
    8bec:	00170993          	addi	s3,a4,1
    8bf0:	016d8cb3          	add	s9,s11,s6
    8bf4:	4023d593          	srai	a1,t2,0x2
    8bf8:	00139e13          	slli	t3,t2,0x1
    8bfc:	001f1f93          	slli	t6,t5,0x1
    8c00:	41640533          	sub	a0,s0,s6
    8c04:	ce4e                	c.swsp	s3,28(sp)
    8c06:	c766                	c.swsp	s9,140(sp)
    8c08:	d562                	c.swsp	s8,168(sp)
    8c0a:	8cb6                	c.mv	s9,a3
    8c0c:	d256                	c.swsp	s5,36(sp)
    8c0e:	c832                	c.swsp	a2,16(sp)
    8c10:	c35a                	c.swsp	s6,132(sp)
    8c12:	ccba                	c.swsp	a4,88(sp)
    8c14:	c472                	c.swsp	t3,8(sp)
    8c16:	d076                	c.swsp	t4,32(sp)
    8c18:	c92a                	c.swsp	a0,144(sp)
    8c1a:	d17e                	c.swsp	t6,160(sp)
    8c1c:	c52e                	c.swsp	a1,136(sp)
    8c1e:	dcea                	c.swsp	s10,120(sp)
    8c20:	d86e                	c.swsp	s11,48(sp)
    8c22:	c89a                	c.swsp	t1,80(sp)
    8c24:	ca9e                	c.swsp	t2,84(sp)
    8c26:	016c09b3          	add	s3,s8,s6
    8c2a:	88e2                	c.mv	a7,s8
    8c2c:	4801                	c.li	a6,0
    8c2e:	8c26                	c.mv	s8,s1
    8c30:	3a0c8a63          	beqz	s9,8fe4 <riscv_nn_vec_mat_mult_t_s8+0x4ac>
    8c34:	46a2                	c.lwsp	a3,8(sp)
    8c36:	1b412483          	lw	s1,436(sp)
    8c3a:	00d88db3          	add	s11,a7,a3
    8c3e:	4d2a                	c.lwsp	s10,136(sp)
    8c40:	d46e                	c.swsp	s11,40(sp)
    8c42:	000ca603          	lw	a2,0(s9)
    8c46:	004ca703          	lw	a4,4(s9)
    8c4a:	00988ab3          	add	s5,a7,s1
    8c4e:	0ca1                	c.addi	s9,8
    8c50:	3a0d0863          	beqz	s10,9000 <riscv_nn_vec_mat_mult_t_s8+0x4c8>
    8c54:	001d7b93          	andi	s7,s10,1
    8c58:	5442                	c.lwsp	s0,48(sp)
    8c5a:	8a6a                	c.mv	s4,s10
    8c5c:	fffd0b13          	addi	s6,s10,-1
    8c60:	080b8063          	beqz	s7,8ce0 <riscv_nn_vec_mat_mult_t_s8+0x1a8>
    8c64:	00042a03          	lw	s4,0(s0)
    8c68:	dc52                	c.swsp	s4,56(sp)
    8c6a:	de52                	c.swsp	s4,60(sp)
    8c6c:	5362                	c.lwsp	t1,56(sp)
    8c6e:	53f2                	c.lwsp	t2,60(sp)
    8c70:	0411                	c.addi	s0,4
    8c72:	de8303ff          	wexti	t2,t1,8
    8c76:	ac9385ff          	sunpkd820	a1,t2
    8c7a:	40b2857f          	add16	a0,t0,a1
    8c7e:	ac9a04ff          	sunpkd820	s1,s4
    8c82:	409286ff          	add16	a3,t0,s1
    8c86:	0008ad03          	lw	s10,0(a7)
    8c8a:	c0ea                	c.swsp	s10,64(sp)
    8c8c:	c2ea                	c.swsp	s10,68(sp)
    8c8e:	4306                	c.lwsp	t1,64(sp)
    8c90:	4396                	c.lwsp	t2,68(sp)
    8c92:	0891                	c.addi	a7,4
    8c94:	de830bff          	wexti	s7,t1,8
    8c98:	ac9b8dff          	sunpkd820	s11,s7
    8c9c:	41bc0a7f          	add16	s4,s8,s11
    8ca0:	ac9d03ff          	sunpkd820	t2,s10
    8ca4:	407c05ff          	add16	a1,s8,t2
    8ca8:	48aa167f          	kmada	a2,s4,a0
    8cac:	48d5967f          	kmada	a2,a1,a3
    8cb0:	000aa483          	lw	s1,0(s5)
    8cb4:	c4a6                	c.swsp	s1,72(sp)
    8cb6:	c6a6                	c.swsp	s1,76(sp)
    8cb8:	4d26                	c.lwsp	s10,72(sp)
    8cba:	4db6                	c.lwsp	s11,76(sp)
    8cbc:	0a91                	c.addi	s5,4
    8cbe:	de8d037f          	wexti	t1,s10,8
    8cc2:	ac930bff          	sunpkd820	s7,t1
    8cc6:	417c0dff          	add16	s11,s8,s7
    8cca:	ac948a7f          	sunpkd820	s4,s1
    8cce:	414c03ff          	add16	t2,s8,s4
    8cd2:	48ad977f          	kmada	a4,s11,a0
    8cd6:	48d3977f          	kmada	a4,t2,a3
    8cda:	8a5a                	c.mv	s4,s6
    8cdc:	100b0263          	beqz	s6,8de0 <riscv_nn_vec_mat_mult_t_s8+0x2a8>
    8ce0:	8522                	c.mv	a0,s0
    8ce2:	d0c2                	c.swsp	a6,96(sp)
    8ce4:	d8ce                	c.swsp	s3,112(sp)
    8ce6:	dee6                	c.swsp	s9,124(sp)
    8ce8:	08f12023          	sw	a5,128(sp)
    8cec:	1d212423          	sw	s2,456(sp)
    8cf0:	411c                	c.lw	a5,0(a0)
    8cf2:	8d3e                	c.mv	s10,a5
    8cf4:	8dbe                	c.mv	s11,a5
    8cf6:	00450e13          	addi	t3,a0,4
    8cfa:	de8d097f          	wexti	s2,s10,8
    8cfe:	ac9909ff          	sunpkd820	s3,s2
    8d02:	41328f7f          	add16	t5,t0,s3
    8d06:	ac978fff          	sunpkd820	t6,a5
    8d0a:	41f28eff          	add16	t4,t0,t6
    8d0e:	0008ac83          	lw	s9,0(a7)
    8d12:	8466                	c.mv	s0,s9
    8d14:	84e6                	c.mv	s1,s9
    8d16:	00488793          	addi	a5,a7,4
    8d1a:	de84087f          	wexti	a6,s0,8
    8d1e:	ac980b7f          	sunpkd820	s6,a6
    8d22:	416c047f          	add16	s0,s8,s6
    8d26:	ac9c86ff          	sunpkd820	a3,s9
    8d2a:	40dc05ff          	add16	a1,s8,a3
    8d2e:	49e4167f          	kmada	a2,s0,t5
    8d32:	49d5967f          	kmada	a2,a1,t4
    8d36:	000aa483          	lw	s1,0(s5)
    8d3a:	8b26                	c.mv	s6,s1
    8d3c:	8ba6                	c.mv	s7,s1
    8d3e:	004a8f93          	addi	t6,s5,4
    8d42:	de8b037f          	wexti	t1,s6,8
    8d46:	ac930bff          	sunpkd820	s7,t1
    8d4a:	417c03ff          	add16	t2,s8,s7
    8d4e:	ac94897f          	sunpkd820	s2,s1
    8d52:	412c09ff          	add16	s3,s8,s2
    8d56:	49e3977f          	kmada	a4,t2,t5
    8d5a:	49d9977f          	kmada	a4,s3,t4
    8d5e:	000e2e03          	lw	t3,0(t3)
    8d62:	8372                	c.mv	t1,t3
    8d64:	83f2                	c.mv	t2,t3
    8d66:	0521                	c.addi	a0,8
    8d68:	de830f7f          	wexti	t5,t1,8
    8d6c:	ac9f0eff          	sunpkd820	t4,t5
    8d70:	41d28cff          	add16	s9,t0,t4
    8d74:	ac9e087f          	sunpkd820	a6,t3
    8d78:	41028b7f          	add16	s6,t0,a6
    8d7c:	439c                	c.lw	a5,0(a5)
    8d7e:	8e3e                	c.mv	t3,a5
    8d80:	8ebe                	c.mv	t4,a5
    8d82:	08a1                	c.addi	a7,8
    8d84:	de8e047f          	wexti	s0,t3,8
    8d88:	ac9406ff          	sunpkd820	a3,s0
    8d8c:	40dc05ff          	add16	a1,s8,a3
    8d90:	ac9784ff          	sunpkd820	s1,a5
    8d94:	409c0bff          	add16	s7,s8,s1
    8d98:	4995967f          	kmada	a2,a1,s9
    8d9c:	496b967f          	kmada	a2,s7,s6
    8da0:	000fa903          	lw	s2,0(t6)
    8da4:	8f4a                	c.mv	t5,s2
    8da6:	8fca                	c.mv	t6,s2
    8da8:	0aa1                	c.addi	s5,8
    8daa:	de8f09ff          	wexti	s3,t5,8
    8dae:	ac99887f          	sunpkd820	a6,s3
    8db2:	410c07ff          	add16	a5,s8,a6
    8db6:	ac99047f          	sunpkd820	s0,s2
    8dba:	408c06ff          	add16	a3,s8,s0
    8dbe:	4997977f          	kmada	a4,a5,s9
    8dc2:	4966977f          	kmada	a4,a3,s6
    8dc6:	1a79                	c.addi	s4,-2
    8dc8:	f20a14e3          	bnez	s4,8cf0 <riscv_nn_vec_mat_mult_t_s8+0x1b8>
    8dcc:	5806                	c.lwsp	a6,96(sp)
    8dce:	59c6                	c.lwsp	s3,112(sp)
    8dd0:	5cf6                	c.lwsp	s9,124(sp)
    8dd2:	478a                	c.lwsp	a5,128(sp)
    8dd4:	1c812903          	lw	s2,456(sp)
    8dd8:	d4ea                	c.swsp	s10,104(sp)
    8dda:	d6ee                	c.swsp	s11,108(sp)
    8ddc:	c89a                	c.swsp	t1,80(sp)
    8dde:	ca9e                	c.swsp	t2,84(sp)
    8de0:	1b412883          	lw	a7,436(sp)
    8de4:	46ba                	c.lwsp	a3,140(sp)
    8de6:	01198ab3          	add	s5,s3,a7
    8dea:	88ce                	c.mv	a7,s3
    8dec:	1b412d03          	lw	s10,436(sp)
    8df0:	4d9a                	c.lwsp	s11,132(sp)
    8df2:	13addb63          	bge	s11,s10,8f28 <riscv_nn_vec_mat_mult_t_s8+0x3f0>
    8df6:	4a4a                	c.lwsp	s4,144(sp)
    8df8:	003a7313          	andi	t1,s4,3
    8dfc:	01468b33          	add	s6,a3,s4
    8e00:	08030663          	beqz	t1,8e8c <riscv_nn_vec_mat_mult_t_s8+0x354>
    8e04:	4385                	c.li	t2,1
    8e06:	04730d63          	beq	t1,t2,8e60 <riscv_nn_vec_mat_mult_t_s8+0x328>
    8e0a:	4509                	c.li	a0,2
    8e0c:	02a30663          	beq	t1,a0,8e38 <riscv_nn_vec_mat_mult_t_s8+0x300>
    8e10:	00068583          	lb	a1,0(a3)
    8e14:	00088483          	lb	s1,0(a7)
    8e18:	000a8b83          	lb	s7,0(s5)
    8e1c:	00f58433          	add	s0,a1,a5
    8e20:	01248d33          	add	s10,s1,s2
    8e24:	012b8db3          	add	s11,s7,s2
    8e28:	c48d167f          	maddr32	a2,s10,s0
    8e2c:	c48d977f          	maddr32	a4,s11,s0
    8e30:	0685                	c.addi	a3,1
    8e32:	0885                	c.addi	a7,1
    8e34:	001a8a93          	addi	s5,s5,1
    8e38:	00068a03          	lb	s4,0(a3)
    8e3c:	00088303          	lb	t1,0(a7)
    8e40:	000a8383          	lb	t2,0(s5)
    8e44:	00fa05b3          	add	a1,s4,a5
    8e48:	012304b3          	add	s1,t1,s2
    8e4c:	01238533          	add	a0,t2,s2
    8e50:	c4b4967f          	maddr32	a2,s1,a1
    8e54:	c4b5177f          	maddr32	a4,a0,a1
    8e58:	0685                	c.addi	a3,1
    8e5a:	0885                	c.addi	a7,1
    8e5c:	001a8a93          	addi	s5,s5,1
    8e60:	00068b83          	lb	s7,0(a3)
    8e64:	00088403          	lb	s0,0(a7)
    8e68:	000a8d03          	lb	s10,0(s5)
    8e6c:	00fb8a33          	add	s4,s7,a5
    8e70:	01240db3          	add	s11,s0,s2
    8e74:	012d0333          	add	t1,s10,s2
    8e78:	0685                	c.addi	a3,1
    8e7a:	c54d967f          	maddr32	a2,s11,s4
    8e7e:	c543177f          	maddr32	a4,t1,s4
    8e82:	0885                	c.addi	a7,1
    8e84:	001a8a93          	addi	s5,s5,1
    8e88:	0b668063          	beq	a3,s6,8f28 <riscv_nn_vec_mat_mult_t_s8+0x3f0>
    8e8c:	d0f2                	c.swsp	t3,96(sp)
    8e8e:	d2f6                	c.swsp	t4,100(sp)
    8e90:	d8fa                	c.swsp	t5,112(sp)
    8e92:	dafe                	c.swsp	t6,116(sp)
    8e94:	00068f83          	lb	t6,0(a3)
    8e98:	00088e03          	lb	t3,0(a7)
    8e9c:	000a8f03          	lb	t5,0(s5)
    8ea0:	00ff85b3          	add	a1,t6,a5
    8ea4:	00168383          	lb	t2,1(a3)
    8ea8:	00188483          	lb	s1,1(a7)
    8eac:	001a8b83          	lb	s7,1(s5)
    8eb0:	012e0eb3          	add	t4,t3,s2
    8eb4:	012f0533          	add	a0,t5,s2
    8eb8:	c4be967f          	maddr32	a2,t4,a1
    8ebc:	c4b5177f          	maddr32	a4,a0,a1
    8ec0:	00268403          	lb	s0,2(a3)
    8ec4:	00f38fb3          	add	t6,t2,a5
    8ec8:	00288d03          	lb	s10,2(a7)
    8ecc:	002a8303          	lb	t1,2(s5)
    8ed0:	01248a33          	add	s4,s1,s2
    8ed4:	012b8db3          	add	s11,s7,s2
    8ed8:	c5fa167f          	maddr32	a2,s4,t6
    8edc:	c5fd977f          	maddr32	a4,s11,t6
    8ee0:	00f404b3          	add	s1,s0,a5
    8ee4:	00368e03          	lb	t3,3(a3)
    8ee8:	00388f03          	lb	t5,3(a7)
    8eec:	003a8383          	lb	t2,3(s5)
    8ef0:	012d0bb3          	add	s7,s10,s2
    8ef4:	012305b3          	add	a1,t1,s2
    8ef8:	c49b967f          	maddr32	a2,s7,s1
    8efc:	c495977f          	maddr32	a4,a1,s1
    8f00:	00fe0eb3          	add	t4,t3,a5
    8f04:	012f0433          	add	s0,t5,s2
    8f08:	01238533          	add	a0,t2,s2
    8f0c:	0691                	c.addi	a3,4
    8f0e:	c5d4167f          	maddr32	a2,s0,t4
    8f12:	c5d5177f          	maddr32	a4,a0,t4
    8f16:	0891                	c.addi	a7,4
    8f18:	0a91                	c.addi	s5,4
    8f1a:	f7669de3          	bne	a3,s6,8e94 <riscv_nn_vec_mat_mult_t_s8+0x35c>
    8f1e:	5e06                	c.lwsp	t3,96(sp)
    8f20:	5e96                	c.lwsp	t4,100(sp)
    8f22:	5f46                	c.lwsp	t5,112(sp)
    8f24:	07412f83          	lw	t6,116(sp)
    8f28:	5a82                	c.lwsp	s5,32(sp)
    8f2a:	4892                	c.lwsp	a7,4(sp)
    8f2c:	01561633          	sll	a2,a2,s5
    8f30:	40000537          	lui	a0,0x40000
    8f34:	4581                	c.li	a1,0
    8f36:	8516157f          	smar64	a0,a2,a7
    8f3a:	46c2                	c.lwsp	a3,16(sp)
    8f3c:	5312                	c.lwsp	t1,36(sp)
    8f3e:	dff50b7f          	wexti	s6,a0,31
    8f42:	4df2                	c.lwsp	s11,28(sp)
    8f44:	0166fd33          	and	s10,a3,s6
    8f48:	406b5a33          	sra	s4,s6,t1
    8f4c:	000b4463          	bltz	s6,8f54 <riscv_nn_vec_mat_mult_t_s8+0x41c>
    8f50:	05812d83          	lw	s11,88(sp)
    8f54:	5382                	c.lwsp	t2,32(sp)
    8f56:	4492                	c.lwsp	s1,4(sp)
    8f58:	00771733          	sll	a4,a4,t2
    8f5c:	40000637          	lui	a2,0x40000
    8f60:	4681                	c.li	a3,0
    8f62:	8497167f          	smar64	a2,a4,s1
    8f66:	4542                	c.lwsp	a0,16(sp)
    8f68:	01adabb3          	slt	s7,s11,s10
    8f6c:	dff6047f          	wexti	s0,a2,31
    8f70:	5612                	c.lwsp	a2,36(sp)
    8f72:	4b72                	c.lwsp	s6,28(sp)
    8f74:	017a05b3          	add	a1,s4,s7
    8f78:	00857ab3          	and	s5,a0,s0
    8f7c:	40c458b3          	sra	a7,s0,a2
    8f80:	00044463          	bltz	s0,8f88 <riscv_nn_vec_mat_mult_t_s8+0x450>
    8f84:	05812b03          	lw	s6,88(sp)
    8f88:	4362                	c.lwsp	t1,24(sp)
    8f8a:	015b26b3          	slt	a3,s6,s5
    8f8e:	1bc12383          	lw	t2,444(sp)
    8f92:	00d88d33          	add	s10,a7,a3
    8f96:	5466                	c.lwsp	s0,120(sp)
    8f98:	00b30a33          	add	s4,t1,a1
    8f9c:	1c012b83          	lw	s7,448(sp)
    8fa0:	1c412503          	lw	a0,452(sp)
    8fa4:	01a30db3          	add	s11,t1,s10
    8fa8:	1c012603          	lw	a2,448(sp)
    8fac:	1c412b03          	lw	s6,452(sp)
    8fb0:	f34384ff          	maxw	s1,t2,s4
    8fb4:	00a40ab3          	add	s5,s0,a0
    8fb8:	f3b3877f          	maxw	a4,t2,s11
    8fbc:	f09b85ff          	minw	a1,s7,s1
    8fc0:	4d22                	c.lwsp	s10,8(sp)
    8fc2:	f0e608ff          	minw	a7,a2,a4
    8fc6:	016a86b3          	add	a3,s5,s6
    8fca:	00b40023          	sb	a1,0(s0)
    8fce:	4332                	c.lwsp	t1,12(sp)
    8fd0:	0805                	c.addi	a6,1
    8fd2:	011a8023          	sb	a7,0(s5)
    8fd6:	dcb6                	c.swsp	a3,120(sp)
    8fd8:	99ea                	c.add	s3,s10
    8fda:	02685563          	bge	a6,t1,9004 <riscv_nn_vec_mat_mult_t_s8+0x4cc>
    8fde:	58a2                	c.lwsp	a7,40(sp)
    8fe0:	c40c9ae3          	bnez	s9,8c34 <riscv_nn_vec_mat_mult_t_s8+0xfc>
    8fe4:	46a2                	c.lwsp	a3,8(sp)
    8fe6:	1b412483          	lw	s1,436(sp)
    8fea:	00d88db3          	add	s11,a7,a3
    8fee:	4d2a                	c.lwsp	s10,136(sp)
    8ff0:	d46e                	c.swsp	s11,40(sp)
    8ff2:	4701                	c.li	a4,0
    8ff4:	00000613          	li	a2,0
    8ff8:	00988ab3          	add	s5,a7,s1
    8ffc:	c40d1ce3          	bnez	s10,8c54 <riscv_nn_vec_mat_mult_t_s8+0x11c>
    9000:	56c2                	c.lwsp	a3,48(sp)
    9002:	b3ed                	c.j	8dec <riscv_nn_vec_mat_mult_t_s8+0x2b4>
    9004:	4e5a                	c.lwsp	t3,148(sp)
    9006:	5f8a                	c.lwsp	t6,160(sp)
    9008:	84e2                	c.mv	s1,s8
    900a:	86e6                	c.mv	a3,s9
    900c:	5c2a                	c.lwsp	s8,168(sp)
    900e:	4ca2                	c.lwsp	s9,8(sp)
    9010:	c46f9e7f          	maddr32	t3,t6,t1
    9014:	5dc2                	c.lwsp	s11,48(sp)
    9016:	c46c9c7f          	maddr32	s8,s9,t1
    901a:	cb72                	c.swsp	t3,148(sp)
    901c:	1b812f03          	lw	t5,440(sp)
    9020:	001f7e93          	andi	t4,t5,1
    9024:	460e8863          	beqz	t4,9494 <riscv_nn_vec_mat_mult_t_s8+0x95c>
    9028:	4701                	c.li	a4,0
    902a:	c299                	c.beqz	a3,9030 <riscv_nn_vec_mat_mult_t_s8+0x4f8>
    902c:	0006a703          	lw	a4,0(a3)
    9030:	1b412a03          	lw	s4,436(sp)
    9034:	4881                	c.li	a7,0
    9036:	402a5b93          	srai	s7,s4,0x2
    903a:	260b8963          	beqz	s7,92ac <riscv_nn_vec_mat_mult_t_s8+0x774>
    903e:	003bf393          	andi	t2,s7,3
    9042:	8862                	c.mv	a6,s8
    9044:	88ee                	c.mv	a7,s11
    9046:	8e5e                	c.mv	t3,s7
    9048:	fffb8593          	addi	a1,s7,-1
    904c:	10038c63          	beqz	t2,9164 <riscv_nn_vec_mat_mult_t_s8+0x62c>
    9050:	4405                	c.li	s0,1
    9052:	0a838f63          	beq	t2,s0,9110 <riscv_nn_vec_mat_mult_t_s8+0x5d8>
    9056:	4509                	c.li	a0,2
    9058:	06a38463          	beq	t2,a0,90c0 <riscv_nn_vec_mat_mult_t_s8+0x588>
    905c:	000daa83          	lw	s5,0(s11)
    9060:	17512023          	sw	s5,352(sp)
    9064:	17512223          	sw	s5,356(sp)
    9068:	16012603          	lw	a2,352(sp)
    906c:	16412683          	lw	a3,356(sp)
    9070:	004d8893          	addi	a7,s11,4
    9074:	de86087f          	wexti	a6,a2,8
    9078:	ac980b7f          	sunpkd820	s6,a6
    907c:	41628d7f          	add16	s10,t0,s6
    9080:	ac9a86ff          	sunpkd820	a3,s5
    9084:	40d289ff          	add16	s3,t0,a3
    9088:	000c2303          	lw	t1,0(s8) # 40000000 <_DATA_LMA_START+0x1fff5168>
    908c:	16612423          	sw	t1,360(sp)
    9090:	16612623          	sw	t1,364(sp)
    9094:	16812e03          	lw	t3,360(sp)
    9098:	16c12e83          	lw	t4,364(sp)
    909c:	004c0813          	addi	a6,s8,4
    90a0:	de8e0fff          	wexti	t6,t3,8
    90a4:	ac9f8cff          	sunpkd820	s9,t6
    90a8:	41948f7f          	add16	t5,s1,s9
    90ac:	ac930eff          	sunpkd820	t4,t1
    90b0:	41d48a7f          	add16	s4,s1,t4
    90b4:	49af177f          	kmada	a4,t5,s10
    90b8:	493a177f          	kmada	a4,s4,s3
    90bc:	00b00e33          	add	t3,zero,a1
    90c0:	0008a583          	lw	a1,0(a7)
    90c4:	c5ae                	c.swsp	a1,200(sp)
    90c6:	c7ae                	c.swsp	a1,204(sp)
    90c8:	462e                	c.lwsp	a2,200(sp)
    90ca:	46be                	c.lwsp	a3,204(sp)
    90cc:	0891                	c.addi	a7,4
    90ce:	de8603ff          	wexti	t2,a2,8
    90d2:	ac93847f          	sunpkd820	s0,t2
    90d6:	4082857f          	add16	a0,t0,s0
    90da:	ac958aff          	sunpkd820	s5,a1
    90de:	41528b7f          	add16	s6,t0,s5
    90e2:	00082d03          	lw	s10,0(a6)
    90e6:	c9ea                	c.swsp	s10,208(sp)
    90e8:	cbea                	c.swsp	s10,212(sp)
    90ea:	434e                	c.lwsp	t1,208(sp)
    90ec:	43de                	c.lwsp	t2,212(sp)
    90ee:	0811                	c.addi	a6,4
    90f0:	de8306ff          	wexti	a3,t1,8
    90f4:	ac9689ff          	sunpkd820	s3,a3
    90f8:	41348fff          	add16	t6,s1,s3
    90fc:	ac9d0cff          	sunpkd820	s9,s10
    9100:	41948f7f          	add16	t5,s1,s9
    9104:	48af977f          	kmada	a4,t6,a0
    9108:	496f177f          	kmada	a4,t5,s6
    910c:	fffe0e13          	addi	t3,t3,-1
    9110:	0008ae83          	lw	t4,0(a7)
    9114:	d976                	c.swsp	t4,176(sp)
    9116:	db76                	c.swsp	t4,180(sp)
    9118:	5a4a                	c.lwsp	s4,176(sp)
    911a:	5ada                	c.lwsp	s5,180(sp)
    911c:	0891                	c.addi	a7,4
    911e:	de8a05ff          	wexti	a1,s4,8
    9122:	ac95867f          	sunpkd820	a2,a1
    9126:	40c283ff          	add16	t2,t0,a2
    912a:	ac9e847f          	sunpkd820	s0,t4
    912e:	4082857f          	add16	a0,t0,s0
    9132:	00082a83          	lw	s5,0(a6)
    9136:	dd56                	c.swsp	s5,184(sp)
    9138:	df56                	c.swsp	s5,188(sp)
    913a:	5f6a                	c.lwsp	t5,184(sp)
    913c:	5ffa                	c.lwsp	t6,188(sp)
    913e:	0811                	c.addi	a6,4
    9140:	de8f0b7f          	wexti	s6,t5,8
    9144:	ac9b0d7f          	sunpkd820	s10,s6
    9148:	41a4837f          	add16	t1,s1,s10
    914c:	ac9a86ff          	sunpkd820	a3,s5
    9150:	40d489ff          	add16	s3,s1,a3
    9154:	4873177f          	kmada	a4,t1,t2
    9158:	48a9977f          	kmada	a4,s3,a0
    915c:	fffe0e13          	addi	t3,t3,-1
    9160:	140e0263          	beqz	t3,92a4 <riscv_nn_vec_mat_mult_t_s8+0x76c>
    9164:	8ca6                	c.mv	s9,s1
    9166:	86f2                	c.mv	a3,t3
    9168:	866e                	c.mv	a2,s11
    916a:	c45e                	c.swsp	s7,8(sp)
    916c:	c662                	c.swsp	s8,12(sp)
    916e:	c83e                	c.swsp	a5,16(sp)
    9170:	1d212423          	sw	s2,456(sp)
    9174:	0008ac03          	lw	s8,0(a7)
    9178:	cd62                	c.swsp	s8,152(sp)
    917a:	cf62                	c.swsp	s8,156(sp)
    917c:	4d6a                	c.lwsp	s10,152(sp)
    917e:	4dfa                	c.lwsp	s11,156(sp)
    9180:	00488913          	addi	s2,a7,4
    9184:	de8d07ff          	wexti	a5,s10,8
    9188:	ac978dff          	sunpkd820	s11,a5
    918c:	41b284ff          	add16	s1,t0,s11
    9190:	ac9c0bff          	sunpkd820	s7,s8
    9194:	41728fff          	add16	t6,t0,s7
    9198:	00082e83          	lw	t4,0(a6)
    919c:	8576                	c.mv	a0,t4
    919e:	85f6                	c.mv	a1,t4
    91a0:	00480a13          	addi	s4,a6,4
    91a4:	de8505ff          	wexti	a1,a0,8
    91a8:	ac9583ff          	sunpkd820	t2,a1
    91ac:	407c847f          	add16	s0,s9,t2
    91b0:	ac9e857f          	sunpkd820	a0,t4
    91b4:	40ac8aff          	add16	s5,s9,a0
    91b8:	4894177f          	kmada	a4,s0,s1
    91bc:	49fa977f          	kmada	a4,s5,t6
    91c0:	00092f03          	lw	t5,0(s2)
    91c4:	837a                	c.mv	t1,t5
    91c6:	83fa                	c.mv	t2,t5
    91c8:	00888993          	addi	s3,a7,8
    91cc:	de830b7f          	wexti	s6,t1,8
    91d0:	ac9b0d7f          	sunpkd820	s10,s6
    91d4:	41a2837f          	add16	t1,t0,s10
    91d8:	ac9f0e7f          	sunpkd820	t3,t5
    91dc:	41c28c7f          	add16	s8,t0,t3
    91e0:	000a2903          	lw	s2,0(s4)
    91e4:	8e4a                	c.mv	t3,s2
    91e6:	8eca                	c.mv	t4,s2
    91e8:	00880493          	addi	s1,a6,8
    91ec:	de8e07ff          	wexti	a5,t3,8
    91f0:	ac978dff          	sunpkd820	s11,a5
    91f4:	41bc8bff          	add16	s7,s9,s11
    91f8:	ac990fff          	sunpkd820	t6,s2
    91fc:	41fc8eff          	add16	t4,s9,t6
    9200:	486b977f          	kmada	a4,s7,t1
    9204:	498e977f          	kmada	a4,t4,s8
    9208:	0009aa03          	lw	s4,0(s3)
    920c:	8f52                	c.mv	t5,s4
    920e:	8fd2                	c.mv	t6,s4
    9210:	00c88593          	addi	a1,a7,12
    9214:	de8f03ff          	wexti	t2,t5,8
    9218:	ac93847f          	sunpkd820	s0,t2
    921c:	4082857f          	add16	a0,t0,s0
    9220:	ac9a0aff          	sunpkd820	s5,s4
    9224:	41528f7f          	add16	t5,t0,s5
    9228:	0004a983          	lw	s3,0(s1)
    922c:	844e                	c.mv	s0,s3
    922e:	84ce                	c.mv	s1,s3
    9230:	00c80313          	addi	t1,a6,12
    9234:	de840b7f          	wexti	s6,s0,8
    9238:	ac9b0d7f          	sunpkd820	s10,s6
    923c:	41ac8e7f          	add16	t3,s9,s10
    9240:	ac998c7f          	sunpkd820	s8,s3
    9244:	418c897f          	add16	s2,s9,s8
    9248:	48ae177f          	kmada	a4,t3,a0
    924c:	49e9177f          	kmada	a4,s2,t5
    9250:	4184                	c.lw	s1,0(a1)
    9252:	8926                	c.mv	s2,s1
    9254:	89a6                	c.mv	s3,s1
    9256:	08c1                	c.addi	a7,16
    9258:	de8907ff          	wexti	a5,s2,8
    925c:	ac978dff          	sunpkd820	s11,a5
    9260:	41b28bff          	add16	s7,t0,s11
    9264:	ac948fff          	sunpkd820	t6,s1
    9268:	41f28eff          	add16	t4,t0,t6
    926c:	00032583          	lw	a1,0(t1)
    9270:	8a2e                	c.mv	s4,a1
    9272:	8aae                	c.mv	s5,a1
    9274:	0841                	c.addi	a6,16
    9276:	de8a0a7f          	wexti	s4,s4,8
    927a:	ac9a03ff          	sunpkd820	t2,s4
    927e:	407c847f          	add16	s0,s9,t2
    9282:	ac95857f          	sunpkd820	a0,a1
    9286:	40ac8aff          	add16	s5,s9,a0
    928a:	4974177f          	kmada	a4,s0,s7
    928e:	49da977f          	kmada	a4,s5,t4
    9292:	16f1                	c.addi	a3,-4
    9294:	ee0690e3          	bnez	a3,9174 <riscv_nn_vec_mat_mult_t_s8+0x63c>
    9298:	4ba2                	c.lwsp	s7,8(sp)
    929a:	4c32                	c.lwsp	s8,12(sp)
    929c:	47c2                	c.lwsp	a5,16(sp)
    929e:	1c812903          	lw	s2,456(sp)
    92a2:	8db2                	c.mv	s11,a2
    92a4:	002b9893          	slli	a7,s7,0x2
    92a8:	9c46                	c.add	s8,a7
    92aa:	9dc6                	c.add	s11,a7
    92ac:	1b412283          	lw	t0,436(sp)
    92b0:	1658da63          	bge	a7,t0,9424 <riscv_nn_vec_mat_mult_t_s8+0x8ec>
    92b4:	41128833          	sub	a6,t0,a7
    92b8:	00787c93          	andi	s9,a6,7
    92bc:	010d8f33          	add	t5,s11,a6
    92c0:	0a0c8e63          	beqz	s9,937c <riscv_nn_vec_mat_mult_t_s8+0x844>
    92c4:	4605                	c.li	a2,1
    92c6:	08cc8d63          	beq	s9,a2,9360 <riscv_nn_vec_mat_mult_t_s8+0x828>
    92ca:	4989                	c.li	s3,2
    92cc:	073c8e63          	beq	s9,s3,9348 <riscv_nn_vec_mat_mult_t_s8+0x810>
    92d0:	430d                	c.li	t1,3
    92d2:	046c8f63          	beq	s9,t1,9330 <riscv_nn_vec_mat_mult_t_s8+0x7f8>
    92d6:	4b11                	c.li	s6,4
    92d8:	056c8063          	beq	s9,s6,9318 <riscv_nn_vec_mat_mult_t_s8+0x7e0>
    92dc:	4d15                	c.li	s10,5
    92de:	03ac8163          	beq	s9,s10,9300 <riscv_nn_vec_mat_mult_t_s8+0x7c8>
    92e2:	4e19                	c.li	t3,6
    92e4:	19cc90e3          	bne	s9,t3,9c64 <riscv_nn_vec_mat_mult_t_s8+0x112c>
    92e8:	000d8a03          	lb	s4,0(s11)
    92ec:	000c0583          	lb	a1,0(s8)
    92f0:	0d85                	c.addi	s11,1
    92f2:	00fa03b3          	add	t2,s4,a5
    92f6:	01258433          	add	s0,a1,s2
    92fa:	c474177f          	maddr32	a4,s0,t2
    92fe:	0c05                	c.addi	s8,1
    9300:	000d8503          	lb	a0,0(s11)
    9304:	000c0a83          	lb	s5,0(s8)
    9308:	0d85                	c.addi	s11,1
    930a:	00f506b3          	add	a3,a0,a5
    930e:	012a88b3          	add	a7,s5,s2
    9312:	c4d8977f          	maddr32	a4,a7,a3
    9316:	0c05                	c.addi	s8,1
    9318:	000d8283          	lb	t0,0(s11)
    931c:	000c0803          	lb	a6,0(s8)
    9320:	0d85                	c.addi	s11,1
    9322:	00f28cb3          	add	s9,t0,a5
    9326:	01280633          	add	a2,a6,s2
    932a:	c596177f          	maddr32	a4,a2,s9
    932e:	0c05                	c.addi	s8,1
    9330:	000d8983          	lb	s3,0(s11)
    9334:	000c0303          	lb	t1,0(s8)
    9338:	0d85                	c.addi	s11,1
    933a:	00f98b33          	add	s6,s3,a5
    933e:	01230d33          	add	s10,t1,s2
    9342:	c56d177f          	maddr32	a4,s10,s6
    9346:	0c05                	c.addi	s8,1
    9348:	000d8e03          	lb	t3,0(s11)
    934c:	000c0483          	lb	s1,0(s8)
    9350:	0d85                	c.addi	s11,1
    9352:	00fe0bb3          	add	s7,t3,a5
    9356:	01248fb3          	add	t6,s1,s2
    935a:	c57f977f          	maddr32	a4,t6,s7
    935e:	0c05                	c.addi	s8,1
    9360:	000d8e83          	lb	t4,0(s11)
    9364:	000c0a03          	lb	s4,0(s8)
    9368:	0d85                	c.addi	s11,1
    936a:	00fe83b3          	add	t2,t4,a5
    936e:	012a05b3          	add	a1,s4,s2
    9372:	c475977f          	maddr32	a4,a1,t2
    9376:	0c05                	c.addi	s8,1
    9378:	0bed8663          	beq	s11,t5,9424 <riscv_nn_vec_mat_mult_t_s8+0x8ec>
    937c:	000d8403          	lb	s0,0(s11)
    9380:	000c0a83          	lb	s5,0(s8)
    9384:	001d8683          	lb	a3,1(s11)
    9388:	001c0883          	lb	a7,1(s8)
    938c:	00f40533          	add	a0,s0,a5
    9390:	012a82b3          	add	t0,s5,s2
    9394:	c4a2977f          	maddr32	a4,t0,a0
    9398:	002d8c83          	lb	s9,2(s11)
    939c:	002c0803          	lb	a6,2(s8)
    93a0:	00f68633          	add	a2,a3,a5
    93a4:	012889b3          	add	s3,a7,s2
    93a8:	c4c9977f          	maddr32	a4,s3,a2
    93ac:	003d8303          	lb	t1,3(s11)
    93b0:	003c0b03          	lb	s6,3(s8)
    93b4:	00fc8d33          	add	s10,s9,a5
    93b8:	01280e33          	add	t3,a6,s2
    93bc:	c5ae177f          	maddr32	a4,t3,s10
    93c0:	004d8483          	lb	s1,4(s11)
    93c4:	004c0b83          	lb	s7,4(s8)
    93c8:	00f30fb3          	add	t6,t1,a5
    93cc:	012b0eb3          	add	t4,s6,s2
    93d0:	c5fe977f          	maddr32	a4,t4,t6
    93d4:	005d8a03          	lb	s4,5(s11)
    93d8:	005c0383          	lb	t2,5(s8)
    93dc:	00f485b3          	add	a1,s1,a5
    93e0:	012b8433          	add	s0,s7,s2
    93e4:	c4b4177f          	maddr32	a4,s0,a1
    93e8:	006d8a83          	lb	s5,6(s11)
    93ec:	006c0683          	lb	a3,6(s8)
    93f0:	00fa08b3          	add	a7,s4,a5
    93f4:	01238533          	add	a0,t2,s2
    93f8:	c515177f          	maddr32	a4,a0,a7
    93fc:	007d8283          	lb	t0,7(s11)
    9400:	007c0c83          	lb	s9,7(s8)
    9404:	00fa8633          	add	a2,s5,a5
    9408:	01268833          	add	a6,a3,s2
    940c:	c4c8177f          	maddr32	a4,a6,a2
    9410:	00f289b3          	add	s3,t0,a5
    9414:	012c8333          	add	t1,s9,s2
    9418:	0da1                	c.addi	s11,8
    941a:	c533177f          	maddr32	a4,t1,s3
    941e:	0c21                	c.addi	s8,8
    9420:	f5ed9ee3          	bne	s11,t5,937c <riscv_nn_vec_mat_mult_t_s8+0x844>
    9424:	1b012c03          	lw	s8,432(sp)
    9428:	00000f13          	li	t5,0
    942c:	f3ec097f          	maxw	s2,s8,t5
    9430:	01271933          	sll	s2,a4,s2
    9434:	4d92                	c.lwsp	s11,4(sp)
    9436:	1b012b03          	lw	s6,432(sp)
    943a:	40000737          	lui	a4,0x40000
    943e:	4781                	c.li	a5,0
    9440:	85b9177f          	smar64	a4,s2,s11
    9444:	41600d33          	neg	s10,s6
    9448:	f3ed0f7f          	maxw	t5,s10,t5
    944c:	4e05                	c.li	t3,1
    944e:	01ee14b3          	sll	s1,t3,t5
    9452:	dff7077f          	wexti	a4,a4,31
    9456:	fff48793          	addi	a5,s1,-1
    945a:	4017db93          	srai	s7,a5,0x1
    945e:	00072f93          	slti	t6,a4,0
    9462:	00e7feb3          	and	t4,a5,a4
    9466:	01fb8a33          	add	s4,s7,t6
    946a:	4ae2                	c.lwsp	s5,24(sp)
    946c:	41e753b3          	sra	t2,a4,t5
    9470:	01da25b3          	slt	a1,s4,t4
    9474:	1bc12883          	lw	a7,444(sp)
    9478:	00b38433          	add	s0,t2,a1
    947c:	1c012283          	lw	t0,448(sp)
    9480:	008a86b3          	add	a3,s5,s0
    9484:	09412603          	lw	a2,148(sp)
    9488:	f316857f          	maxw	a0,a3,a7
    948c:	f0550cff          	minw	s9,a0,t0
    9490:	01960023          	sb	s9,0(a2) # 40000000 <_DATA_LMA_START+0x1fff5168>
    9494:	1ac12403          	lw	s0,428(sp)
    9498:	1a812483          	lw	s1,424(sp)
    949c:	1a412903          	lw	s2,420(sp)
    94a0:	1a012983          	lw	s3,416(sp)
    94a4:	19c12a03          	lw	s4,412(sp)
    94a8:	19812a83          	lw	s5,408(sp)
    94ac:	19412b03          	lw	s6,404(sp)
    94b0:	19012b83          	lw	s7,400(sp)
    94b4:	18c12c03          	lw	s8,396(sp)
    94b8:	18812c83          	lw	s9,392(sp)
    94bc:	18412d03          	lw	s10,388(sp)
    94c0:	18012d83          	lw	s11,384(sp)
    94c4:	4501                	c.li	a0,0
    94c6:	615d                	c.addi16sp	sp,432
    94c8:	00008067          	ret
    94cc:	0e9492ff          	pkbb16	t0,s1,s1
    94d0:	1b812583          	lw	a1,440(sp)
    94d4:	4505                	c.li	a0,1
    94d6:	3eb55b63          	bge	a0,a1,98cc <riscv_nn_vec_mat_mult_t_s8+0xd94>
    94da:	1b012803          	lw	a6,432(sp)
    94de:	1b412a03          	lw	s4,436(sp)
    94e2:	410008b3          	neg	a7,a6
    94e6:	f3288f7f          	maxw	t5,a7,s2
    94ea:	01e519b3          	sll	s3,a0,t5
    94ee:	1b412b83          	lw	s7,436(sp)
    94f2:	fff98c93          	addi	s9,s3,-1
    94f6:	1c412603          	lw	a2,452(sp)
    94fa:	1b012383          	lw	t2,432(sp)
    94fe:	1b412883          	lw	a7,436(sp)
    9502:	ffca7a93          	andi	s5,s4,-4
    9506:	401cdb13          	srai	s6,s9,0x1
    950a:	f3238d7f          	maxw	s10,t2,s2
    950e:	402bde13          	srai	t3,s7,0x2
    9512:	001b9e93          	slli	t4,s7,0x1
    9516:	015c0433          	add	s0,s8,s5
    951a:	45da                	c.lwsp	a1,148(sp)
    951c:	001b0f93          	addi	t6,s6,1
    9520:	00161313          	slli	t1,a2,0x1
    9524:	015d84b3          	add	s1,s11,s5
    9528:	41588833          	sub	a6,a7,s5
    952c:	4701                	c.li	a4,0
    952e:	ce76                	c.swsp	t4,28(sp)
    9530:	d26a                	c.swsp	s10,36(sp)
    9532:	c172                	c.swsp	t3,128(sp)
    9534:	c962                	c.swsp	s8,144(sp)
    9536:	1d212423          	sw	s2,456(sp)
    953a:	8d36                	c.mv	s10,a3
    953c:	ded6                	c.swsp	s5,124(sp)
    953e:	c4da                	c.swsp	s6,72(sp)
    9540:	d07e                	c.swsp	t6,32(sp)
    9542:	c326                	c.swsp	s1,132(sp)
    9544:	c542                	c.swsp	a6,136(sp)
    9546:	c71a                	c.swsp	t1,140(sp)
    9548:	dce6                	c.swsp	s9,120(sp)
    954a:	c422                	c.swsp	s0,8(sp)
    954c:	dc6e                	c.swsp	s11,56(sp)
    954e:	d47a                	c.swsp	t5,40(sp)
    9550:	8562                	c.mv	a0,s8
    9552:	5e42                	c.lwsp	t3,48(sp)
    9554:	5ed2                	c.lwsp	t4,52(sp)
    9556:	8c3a                	c.mv	s8,a4
    9558:	00b00933          	add	s2,zero,a1
    955c:	320d0e63          	beqz	s10,9898 <riscv_nn_vec_mat_mult_t_s8+0xd60>
    9560:	46f2                	c.lwsp	a3,28(sp)
    9562:	4f0a                	c.lwsp	t5,128(sp)
    9564:	00d50db3          	add	s11,a0,a3
    9568:	d86e                	c.swsp	s11,48(sp)
    956a:	000d2603          	lw	a2,0(s10)
    956e:	004d2703          	lw	a4,4(s10)
    9572:	01150833          	add	a6,a0,a7
    9576:	0d21                	c.addi	s10,8
    9578:	320f0c63          	beqz	t5,98b0 <riscv_nn_vec_mat_mult_t_s8+0xd78>
    957c:	ffff0a13          	addi	s4,t5,-1
    9580:	001f7c93          	andi	s9,t5,1
    9584:	c0d2                	c.swsp	s4,64(sp)
    9586:	5de2                	c.lwsp	s11,56(sp)
    9588:	89fa                	c.mv	s3,t5
    958a:	060c8763          	beqz	s9,95f8 <riscv_nn_vec_mat_mult_t_s8+0xac0>
    958e:	000da983          	lw	s3,0(s11)
    9592:	c8ce                	c.swsp	s3,80(sp)
    9594:	cace                	c.swsp	s3,84(sp)
    9596:	4b46                	c.lwsp	s6,80(sp)
    9598:	4bd6                	c.lwsp	s7,84(sp)
    959a:	0d91                	c.addi	s11,4
    959c:	de8b0aff          	wexti	s5,s6,8
    95a0:	ac9a8bff          	sunpkd820	s7,s5
    95a4:	41728fff          	add16	t6,t0,s7
    95a8:	ac99837f          	sunpkd820	t1,s3
    95ac:	4062847f          	add16	s0,t0,t1
    95b0:	4104                	c.lw	s1,0(a0)
    95b2:	cca6                	c.swsp	s1,88(sp)
    95b4:	cea6                	c.swsp	s1,92(sp)
    95b6:	4a66                	c.lwsp	s4,88(sp)
    95b8:	4af6                	c.lwsp	s5,92(sp)
    95ba:	0511                	c.addi	a0,4
    95bc:	de8a03ff          	wexti	t2,s4,8
    95c0:	ac9385ff          	sunpkd820	a1,t2
    95c4:	ac9486ff          	sunpkd820	a3,s1
    95c8:	49f5967f          	kmada	a2,a1,t6
    95cc:	4886967f          	kmada	a2,a3,s0
    95d0:	00082f03          	lw	t5,0(a6)
    95d4:	d0fa                	c.swsp	t5,96(sp)
    95d6:	d2fa                	c.swsp	t5,100(sp)
    95d8:	5b06                	c.lwsp	s6,96(sp)
    95da:	5b96                	c.lwsp	s7,100(sp)
    95dc:	0811                	c.addi	a6,4
    95de:	de8b0cff          	wexti	s9,s6,8
    95e2:	ac9c89ff          	sunpkd820	s3,s9
    95e6:	ac9f0aff          	sunpkd820	s5,t5
    95ea:	49f9977f          	kmada	a4,s3,t6
    95ee:	488a977f          	kmada	a4,s5,s0
    95f2:	4986                	c.lwsp	s3,64(sp)
    95f4:	0c098e63          	beqz	s3,96d0 <riscv_nn_vec_mat_mult_t_s8+0xb98>
    95f8:	c0ca                	c.swsp	s2,64(sp)
    95fa:	d4e2                	c.swsp	s8,104(sp)
    95fc:	06f12823          	sw	a5,112(sp)
    9600:	1b112a23          	sw	a7,436(sp)
    9604:	000da783          	lw	a5,0(s11)
    9608:	8b3e                	c.mv	s6,a5
    960a:	8bbe                	c.mv	s7,a5
    960c:	004d8f93          	addi	t6,s11,4
    9610:	de8b097f          	wexti	s2,s6,8
    9614:	ac990c7f          	sunpkd820	s8,s2
    9618:	41828bff          	add16	s7,t0,s8
    961c:	ac978e7f          	sunpkd820	t3,a5
    9620:	41c2847f          	add16	s0,t0,t3
    9624:	00052e83          	lw	t4,0(a0) # 40000000 <_DATA_LMA_START+0x1fff5168>
    9628:	8376                	c.mv	t1,t4
    962a:	83f6                	c.mv	t2,t4
    962c:	00450493          	addi	s1,a0,4
    9630:	de8308ff          	wexti	a7,t1,8
    9634:	ac988a7f          	sunpkd820	s4,a7
    9638:	ac9e85ff          	sunpkd820	a1,t4
    963c:	497a167f          	kmada	a2,s4,s7
    9640:	4885967f          	kmada	a2,a1,s0
    9644:	00082683          	lw	a3,0(a6)
    9648:	8e36                	c.mv	t3,a3
    964a:	8eb6                	c.mv	t4,a3
    964c:	00480b13          	addi	s6,a6,4
    9650:	de8e0f7f          	wexti	t5,t3,8
    9654:	ac9f0cff          	sunpkd820	s9,t5
    9658:	ac968aff          	sunpkd820	s5,a3
    965c:	497c977f          	kmada	a4,s9,s7
    9660:	488a977f          	kmada	a4,s5,s0
    9664:	000fa903          	lw	s2,0(t6)
    9668:	8f4a                	c.mv	t5,s2
    966a:	8fca                	c.mv	t6,s2
    966c:	0da1                	c.addi	s11,8
    966e:	de8f07ff          	wexti	a5,t5,8
    9672:	ac978fff          	sunpkd820	t6,a5
    9676:	41f28c7f          	add16	s8,t0,t6
    967a:	ac990bff          	sunpkd820	s7,s2
    967e:	417288ff          	add16	a7,t0,s7
    9682:	4080                	c.lw	s0,0(s1)
    9684:	8a22                	c.mv	s4,s0
    9686:	8aa2                	c.mv	s5,s0
    9688:	0521                	c.addi	a0,8
    968a:	de8a04ff          	wexti	s1,s4,8
    968e:	ac948a7f          	sunpkd820	s4,s1
    9692:	ac9405ff          	sunpkd820	a1,s0
    9696:	498a167f          	kmada	a2,s4,s8
    969a:	4915967f          	kmada	a2,a1,a7
    969e:	000b2683          	lw	a3,0(s6)
    96a2:	8436                	c.mv	s0,a3
    96a4:	84b6                	c.mv	s1,a3
    96a6:	0821                	c.addi	a6,8
    96a8:	de840b7f          	wexti	s6,s0,8
    96ac:	ac9b0f7f          	sunpkd820	t5,s6
    96b0:	ac968cff          	sunpkd820	s9,a3
    96b4:	498f177f          	kmada	a4,t5,s8
    96b8:	491c977f          	kmada	a4,s9,a7
    96bc:	19f9                	c.addi	s3,-2
    96be:	f40993e3          	bnez	s3,9604 <riscv_nn_vec_mat_mult_t_s8+0xacc>
    96c2:	4906                	c.lwsp	s2,64(sp)
    96c4:	5c26                	c.lwsp	s8,104(sp)
    96c6:	57c6                	c.lwsp	a5,112(sp)
    96c8:	1b412883          	lw	a7,436(sp)
    96cc:	c81a                	c.swsp	t1,16(sp)
    96ce:	ca1e                	c.swsp	t2,20(sp)
    96d0:	4522                	c.lwsp	a0,8(sp)
    96d2:	469a                	c.lwsp	a3,132(sp)
    96d4:	00a88833          	add	a6,a7,a0
    96d8:	5df6                	c.lwsp	s11,124(sp)
    96da:	0f1ddf63          	bge	s11,a7,97d8 <riscv_nn_vec_mat_mult_t_s8+0xca0>
    96de:	432a                	c.lwsp	t1,136(sp)
    96e0:	00337393          	andi	t2,t1,3
    96e4:	00668ab3          	add	s5,a3,t1
    96e8:	06038a63          	beqz	t2,975c <riscv_nn_vec_mat_mult_t_s8+0xc24>
    96ec:	4985                	c.li	s3,1
    96ee:	05338563          	beq	t2,s3,9738 <riscv_nn_vec_mat_mult_t_s8+0xc00>
    96f2:	4f89                	c.li	t6,2
    96f4:	03f38263          	beq	t2,t6,9718 <riscv_nn_vec_mat_mult_t_s8+0xbe0>
    96f8:	00068b83          	lb	s7,0(a3)
    96fc:	00050403          	lb	s0,0(a0)
    9700:	00080483          	lb	s1,0(a6)
    9704:	00fb8a33          	add	s4,s7,a5
    9708:	c544167f          	maddr32	a2,s0,s4
    970c:	c544977f          	maddr32	a4,s1,s4
    9710:	0685                	c.addi	a3,1
    9712:	0505                	c.addi	a0,1
    9714:	00180813          	addi	a6,a6,1
    9718:	00068583          	lb	a1,0(a3)
    971c:	00050b03          	lb	s6,0(a0)
    9720:	00080f03          	lb	t5,0(a6)
    9724:	00f58cb3          	add	s9,a1,a5
    9728:	c59b167f          	maddr32	a2,s6,s9
    972c:	c59f177f          	maddr32	a4,t5,s9
    9730:	0685                	c.addi	a3,1
    9732:	0505                	c.addi	a0,1
    9734:	00180813          	addi	a6,a6,1
    9738:	00068303          	lb	t1,0(a3)
    973c:	00050d83          	lb	s11,0(a0)
    9740:	00080383          	lb	t2,0(a6)
    9744:	00f309b3          	add	s3,t1,a5
    9748:	0685                	c.addi	a3,1
    974a:	c53d967f          	maddr32	a2,s11,s3
    974e:	c533977f          	maddr32	a4,t2,s3
    9752:	0505                	c.addi	a0,1
    9754:	00180813          	addi	a6,a6,1
    9758:	09568063          	beq	a3,s5,97d8 <riscv_nn_vec_mat_mult_t_s8+0xca0>
    975c:	4442                	c.lwsp	s0,16(sp)
    975e:	44d2                	c.lwsp	s1,20(sp)
    9760:	c0f2                	c.swsp	t3,64(sp)
    9762:	c2f6                	c.swsp	t4,68(sp)
    9764:	00068e03          	lb	t3,0(a3)
    9768:	00050e83          	lb	t4,0(a0)
    976c:	00080f83          	lb	t6,0(a6)
    9770:	00fe0a33          	add	s4,t3,a5
    9774:	00168b83          	lb	s7,1(a3)
    9778:	00150b03          	lb	s6,1(a0)
    977c:	00180f03          	lb	t5,1(a6)
    9780:	c54e967f          	maddr32	a2,t4,s4
    9784:	c54f977f          	maddr32	a4,t6,s4
    9788:	00268c83          	lb	s9,2(a3)
    978c:	00fb85b3          	add	a1,s7,a5
    9790:	00250303          	lb	t1,2(a0)
    9794:	00280d83          	lb	s11,2(a6)
    9798:	c4bb167f          	maddr32	a2,s6,a1
    979c:	c4bf177f          	maddr32	a4,t5,a1
    97a0:	00368383          	lb	t2,3(a3)
    97a4:	00fc89b3          	add	s3,s9,a5
    97a8:	00350e03          	lb	t3,3(a0)
    97ac:	00380e83          	lb	t4,3(a6)
    97b0:	c533167f          	maddr32	a2,t1,s3
    97b4:	c53d977f          	maddr32	a4,s11,s3
    97b8:	00f38fb3          	add	t6,t2,a5
    97bc:	0691                	c.addi	a3,4
    97be:	c5fe167f          	maddr32	a2,t3,t6
    97c2:	c5fe977f          	maddr32	a4,t4,t6
    97c6:	0511                	c.addi	a0,4
    97c8:	0811                	c.addi	a6,4
    97ca:	f9569de3          	bne	a3,s5,9764 <riscv_nn_vec_mat_mult_t_s8+0xc2c>
    97ce:	4e06                	c.lwsp	t3,64(sp)
    97d0:	4e96                	c.lwsp	t4,68(sp)
    97d2:	c822                	c.swsp	s0,16(sp)
    97d4:	00912a23          	sw	s1,20(sp)
    97d8:	5512                	c.lwsp	a0,36(sp)
    97da:	4812                	c.lwsp	a6,4(sp)
    97dc:	00a61633          	sll	a2,a2,a0
    97e0:	4581                	c.li	a1,0
    97e2:	40000537          	lui	a0,0x40000
    97e6:	8506157f          	smar64	a0,a2,a6
    97ea:	54e6                	c.lwsp	s1,120(sp)
    97ec:	56a2                	c.lwsp	a3,40(sp)
    97ee:	dff50aff          	wexti	s5,a0,31
    97f2:	5a02                	c.lwsp	s4,32(sp)
    97f4:	0154f433          	and	s0,s1,s5
    97f8:	40dadbb3          	sra	s7,s5,a3
    97fc:	000ac463          	bltz	s5,9804 <riscv_nn_vec_mat_mult_t_s8+0xccc>
    9800:	04812a03          	lw	s4,72(sp)
    9804:	5b12                	c.lwsp	s6,36(sp)
    9806:	4f12                	c.lwsp	t5,4(sp)
    9808:	01671733          	sll	a4,a4,s6
    980c:	40000637          	lui	a2,0x40000
    9810:	4681                	c.li	a3,0
    9812:	85e7167f          	smar64	a2,a4,t5
    9816:	5de6                	c.lwsp	s11,120(sp)
    9818:	59a2                	c.lwsp	s3,40(sp)
    981a:	dff6037f          	wexti	t1,a2,31
    981e:	008a2cb3          	slt	s9,s4,s0
    9822:	5502                	c.lwsp	a0,32(sp)
    9824:	019b85b3          	add	a1,s7,s9
    9828:	006df3b3          	and	t2,s11,t1
    982c:	41335fb3          	sra	t6,t1,s3
    9830:	00034463          	bltz	t1,9838 <riscv_nn_vec_mat_mult_t_s8+0xd00>
    9834:	04812503          	lw	a0,72(sp)
    9838:	4ae2                	c.lwsp	s5,24(sp)
    983a:	1bc12683          	lw	a3,444(sp)
    983e:	00ba84b3          	add	s1,s5,a1
    9842:	1c012b03          	lw	s6,448(sp)
    9846:	00752633          	slt	a2,a0,t2
    984a:	1c412f03          	lw	t5,452(sp)
    984e:	f2968bff          	maxw	s7,a3,s1
    9852:	00cf8833          	add	a6,t6,a2
    9856:	f17b077f          	minw	a4,s6,s7
    985a:	01e90cb3          	add	s9,s2,t5
    985e:	4da2                	c.lwsp	s11,8(sp)
    9860:	00e90023          	sb	a4,0(s2)
    9864:	43f2                	c.lwsp	t2,28(sp)
    9866:	1c012903          	lw	s2,448(sp)
    986a:	010a8433          	add	s0,s5,a6
    986e:	f2868a7f          	maxw	s4,a3,s0
    9872:	f14905ff          	minw	a1,s2,s4
    9876:	1c412303          	lw	t1,452(sp)
    987a:	007d89b3          	add	s3,s11,t2
    987e:	4fb2                	c.lwsp	t6,12(sp)
    9880:	0c05                	c.addi	s8,1
    9882:	00bc8023          	sb	a1,0(s9)
    9886:	c44e                	c.swsp	s3,8(sp)
    9888:	006c8933          	add	s2,s9,t1
    988c:	03fc5463          	bge	s8,t6,98b4 <riscv_nn_vec_mat_mult_t_s8+0xd7c>
    9890:	03012503          	lw	a0,48(sp)
    9894:	cc0d16e3          	bnez	s10,9560 <riscv_nn_vec_mat_mult_t_s8+0xa28>
    9898:	46f2                	c.lwsp	a3,28(sp)
    989a:	4f0a                	c.lwsp	t5,128(sp)
    989c:	00d50db3          	add	s11,a0,a3
    98a0:	d86e                	c.swsp	s11,48(sp)
    98a2:	4701                	c.li	a4,0
    98a4:	00000613          	li	a2,0
    98a8:	01150833          	add	a6,a0,a7
    98ac:	cc0f18e3          	bnez	t5,957c <riscv_nn_vec_mat_mult_t_s8+0xa44>
    98b0:	56e2                	c.lwsp	a3,56(sp)
    98b2:	b51d                	c.j	96d8 <riscv_nn_vec_mat_mult_t_s8+0xba0>
    98b4:	4eba                	c.lwsp	t4,140(sp)
    98b6:	4c4a                	c.lwsp	s8,144(sp)
    98b8:	86ea                	c.mv	a3,s10
    98ba:	4d5a                	c.lwsp	s10,148(sp)
    98bc:	5de2                	c.lwsp	s11,56(sp)
    98be:	1c812903          	lw	s2,456(sp)
    98c2:	c5fe9d7f          	maddr32	s10,t4,t6
    98c6:	c5f39c7f          	maddr32	s8,t2,t6
    98ca:	cb6a                	c.swsp	s10,148(sp)
    98cc:	1b812503          	lw	a0,440(sp)
    98d0:	00157613          	andi	a2,a0,1
    98d4:	bc0600e3          	beqz	a2,9494 <riscv_nn_vec_mat_mult_t_s8+0x95c>
    98d8:	00068463          	beqz	a3,98e0 <riscv_nn_vec_mat_mult_t_s8+0xda8>
    98dc:	0006a903          	lw	s2,0(a3)
    98e0:	1b412803          	lw	a6,436(sp)
    98e4:	4601                	c.li	a2,0
    98e6:	40285a93          	srai	s5,a6,0x2
    98ea:	220a8363          	beqz	s5,9b10 <riscv_nn_vec_mat_mult_t_s8+0xfd8>
    98ee:	003af493          	andi	s1,s5,3
    98f2:	8662                	c.mv	a2,s8
    98f4:	85ee                	c.mv	a1,s11
    98f6:	8356                	c.mv	t1,s5
    98f8:	fffa8b93          	addi	s7,s5,-1
    98fc:	cce5                	c.beqz	s1,99f4 <riscv_nn_vec_mat_mult_t_s8+0xebc>
    98fe:	4405                	c.li	s0,1
    9900:	0a848463          	beq	s1,s0,99a8 <riscv_nn_vec_mat_mult_t_s8+0xe70>
    9904:	4689                	c.li	a3,2
    9906:	04d48f63          	beq	s1,a3,9964 <riscv_nn_vec_mat_mult_t_s8+0xe2c>
    990a:	000daa03          	lw	s4,0(s11)
    990e:	17412823          	sw	s4,368(sp)
    9912:	17412a23          	sw	s4,372(sp)
    9916:	17012f03          	lw	t5,368(sp)
    991a:	17412f83          	lw	t6,372(sp)
    991e:	004d8593          	addi	a1,s11,4
    9922:	de8f0b7f          	wexti	s6,t5,8
    9926:	ac9b077f          	sunpkd820	a4,s6
    992a:	40e28cff          	add16	s9,t0,a4
    992e:	ac9a037f          	sunpkd820	t1,s4
    9932:	406283ff          	add16	t2,t0,t1
    9936:	000c2983          	lw	s3,0(s8)
    993a:	17312c23          	sw	s3,376(sp)
    993e:	17312e23          	sw	s3,380(sp)
    9942:	17812e03          	lw	t3,376(sp)
    9946:	17c12e83          	lw	t4,380(sp)
    994a:	004c0613          	addi	a2,s8,4
    994e:	de8e0fff          	wexti	t6,t3,8
    9952:	ac9f88ff          	sunpkd820	a7,t6
    9956:	ac998eff          	sunpkd820	t4,s3
    995a:	4998997f          	kmada	s2,a7,s9
    995e:	487e997f          	kmada	s2,t4,t2
    9962:	835e                	c.mv	t1,s7
    9964:	0005ad03          	lw	s10,0(a1)
    9968:	cdea                	c.swsp	s10,216(sp)
    996a:	cfea                	c.swsp	s10,220(sp)
    996c:	486e                	c.lwsp	a6,216(sp)
    996e:	48fe                	c.lwsp	a7,220(sp)
    9970:	0591                	c.addi	a1,4
    9972:	de88057f          	wexti	a0,a6,8
    9976:	ac9504ff          	sunpkd820	s1,a0
    997a:	40928bff          	add16	s7,t0,s1
    997e:	ac9d047f          	sunpkd820	s0,s10
    9982:	40828a7f          	add16	s4,t0,s0
    9986:	4214                	c.lw	a3,0(a2)
    9988:	d1b6                	c.swsp	a3,224(sp)
    998a:	d3b6                	c.swsp	a3,228(sp)
    998c:	5f0e                	c.lwsp	t5,224(sp)
    998e:	5f9e                	c.lwsp	t6,228(sp)
    9990:	0611                	c.addi	a2,4
    9992:	de8f0b7f          	wexti	s6,t5,8
    9996:	ac9b077f          	sunpkd820	a4,s6
    999a:	ac968cff          	sunpkd820	s9,a3
    999e:	4977197f          	kmada	s2,a4,s7
    99a2:	494c997f          	kmada	s2,s9,s4
    99a6:	137d                	c.addi	t1,-1
    99a8:	0005a383          	lw	t2,0(a1)
    99ac:	d51e                	c.swsp	t2,168(sp)
    99ae:	d71e                	c.swsp	t2,172(sp)
    99b0:	5e2a                	c.lwsp	t3,168(sp)
    99b2:	5eba                	c.lwsp	t4,172(sp)
    99b4:	0591                	c.addi	a1,4
    99b6:	de8e09ff          	wexti	s3,t3,8
    99ba:	ac998fff          	sunpkd820	t6,s3
    99be:	41f28eff          	add16	t4,t0,t6
    99c2:	ac9388ff          	sunpkd820	a7,t2
    99c6:	41128d7f          	add16	s10,t0,a7
    99ca:	00062803          	lw	a6,0(a2) # 40000000 <_DATA_LMA_START+0x1fff5168>
    99ce:	c1c2                	c.swsp	a6,192(sp)
    99d0:	c3c2                	c.swsp	a6,196(sp)
    99d2:	440e                	c.lwsp	s0,192(sp)
    99d4:	449e                	c.lwsp	s1,196(sp)
    99d6:	0611                	c.addi	a2,4
    99d8:	de84057f          	wexti	a0,s0,8
    99dc:	ac9504ff          	sunpkd820	s1,a0
    99e0:	ac980bff          	sunpkd820	s7,a6
    99e4:	49d4997f          	kmada	s2,s1,t4
    99e8:	49ab997f          	kmada	s2,s7,s10
    99ec:	fff30313          	addi	t1,t1,-1
    99f0:	10030c63          	beqz	t1,9b08 <riscv_nn_vec_mat_mult_t_s8+0xfd0>
    99f4:	8cae                	c.mv	s9,a1
    99f6:	c456                	c.swsp	s5,8(sp)
    99f8:	c66e                	c.swsp	s11,12(sp)
    99fa:	c862                	c.swsp	s8,16(sp)
    99fc:	00f12e23          	sw	a5,28(sp)
    9a00:	000cac03          	lw	s8,0(s9)
    9a04:	8762                	c.mv	a4,s8
    9a06:	87e2                	c.mv	a5,s8
    9a08:	004c8a93          	addi	s5,s9,4
    9a0c:	de8707ff          	wexti	a5,a4,8
    9a10:	ac978dff          	sunpkd820	s11,a5
    9a14:	41b28a7f          	add16	s4,t0,s11
    9a18:	ac9c06ff          	sunpkd820	a3,s8
    9a1c:	40d28f7f          	add16	t5,t0,a3
    9a20:	00062b03          	lw	s6,0(a2)
    9a24:	855a                	c.mv	a0,s6
    9a26:	85da                	c.mv	a1,s6
    9a28:	00460713          	addi	a4,a2,4
    9a2c:	de8503ff          	wexti	t2,a0,8
    9a30:	ac9385ff          	sunpkd820	a1,t2
    9a34:	ac9b0e7f          	sunpkd820	t3,s6
    9a38:	4945997f          	kmada	s2,a1,s4
    9a3c:	49ee197f          	kmada	s2,t3,t5
    9a40:	000aa983          	lw	s3,0(s5)
    9a44:	884e                	c.mv	a6,s3
    9a46:	88ce                	c.mv	a7,s3
    9a48:	008c8f93          	addi	t6,s9,8
    9a4c:	de880eff          	wexti	t4,a6,8
    9a50:	ac9e88ff          	sunpkd820	a7,t4
    9a54:	41128d7f          	add16	s10,t0,a7
    9a58:	ac99887f          	sunpkd820	a6,s3
    9a5c:	4102847f          	add16	s0,t0,a6
    9a60:	4308                	c.lw	a0,0(a4)
    9a62:	8e2a                	c.mv	t3,a0
    9a64:	8eaa                	c.mv	t4,a0
    9a66:	00860493          	addi	s1,a2,8
    9a6a:	de8e0bff          	wexti	s7,t3,8
    9a6e:	ac9b8aff          	sunpkd820	s5,s7
    9a72:	ac950c7f          	sunpkd820	s8,a0
    9a76:	49aa997f          	kmada	s2,s5,s10
    9a7a:	488c197f          	kmada	s2,s8,s0
    9a7e:	000fa783          	lw	a5,0(t6)
    9a82:	8f3e                	c.mv	t5,a5
    9a84:	8fbe                	c.mv	t6,a5
    9a86:	00cc8a13          	addi	s4,s9,12
    9a8a:	de8f0dff          	wexti	s11,t5,8
    9a8e:	ac9d86ff          	sunpkd820	a3,s11
    9a92:	40d28f7f          	add16	t5,t0,a3
    9a96:	ac978b7f          	sunpkd820	s6,a5
    9a9a:	4162877f          	add16	a4,t0,s6
    9a9e:	0004a383          	lw	t2,0(s1)
    9aa2:	841e                	c.mv	s0,t2
    9aa4:	849e                	c.mv	s1,t2
    9aa6:	00c60593          	addi	a1,a2,12
    9aaa:	de840e7f          	wexti	t3,s0,8
    9aae:	ac9e09ff          	sunpkd820	s3,t3
    9ab2:	ac938fff          	sunpkd820	t6,t2
    9ab6:	49e9997f          	kmada	s2,s3,t5
    9aba:	48ef997f          	kmada	s2,t6,a4
    9abe:	000a2e83          	lw	t4,0(s4)
    9ac2:	8a76                	c.mv	s4,t4
    9ac4:	8af6                	c.mv	s5,t4
    9ac6:	0cc1                	c.addi	s9,16
    9ac8:	de8a08ff          	wexti	a7,s4,8
    9acc:	ac988d7f          	sunpkd820	s10,a7
    9ad0:	41a2887f          	add16	a6,t0,s10
    9ad4:	ac9e847f          	sunpkd820	s0,t4
    9ad8:	4082857f          	add16	a0,t0,s0
    9adc:	4184                	c.lw	s1,0(a1)
    9ade:	8b26                	c.mv	s6,s1
    9ae0:	8ba6                	c.mv	s7,s1
    9ae2:	0641                	c.addi	a2,16
    9ae4:	de8b0bff          	wexti	s7,s6,8
    9ae8:	ac9b8aff          	sunpkd820	s5,s7
    9aec:	ac948c7f          	sunpkd820	s8,s1
    9af0:	490a997f          	kmada	s2,s5,a6
    9af4:	48ac197f          	kmada	s2,s8,a0
    9af8:	1371                	c.addi	t1,-4
    9afa:	f00313e3          	bnez	t1,9a00 <riscv_nn_vec_mat_mult_t_s8+0xec8>
    9afe:	4aa2                	c.lwsp	s5,8(sp)
    9b00:	4db2                	c.lwsp	s11,12(sp)
    9b02:	4c42                	c.lwsp	s8,16(sp)
    9b04:	01c12783          	lw	a5,28(sp)
    9b08:	002a9613          	slli	a2,s5,0x2
    9b0c:	9c32                	c.add	s8,a2
    9b0e:	9db2                	c.add	s11,a2
    9b10:	1b412283          	lw	t0,436(sp)
    9b14:	12565e63          	bge	a2,t0,9c50 <riscv_nn_vec_mat_mult_t_s8+0x1118>
    9b18:	40c28333          	sub	t1,t0,a2
    9b1c:	00737a13          	andi	s4,t1,7
    9b20:	006d8f33          	add	t5,s11,t1
    9b24:	0a0a0263          	beqz	s4,9bc8 <riscv_nn_vec_mat_mult_t_s8+0x1090>
    9b28:	4685                	c.li	a3,1
    9b2a:	08da0363          	beq	s4,a3,9bb0 <riscv_nn_vec_mat_mult_t_s8+0x1078>
    9b2e:	4b09                	c.li	s6,2
    9b30:	076a0663          	beq	s4,s6,9b9c <riscv_nn_vec_mat_mult_t_s8+0x1064>
    9b34:	470d                	c.li	a4,3
    9b36:	04ea0963          	beq	s4,a4,9b88 <riscv_nn_vec_mat_mult_t_s8+0x1050>
    9b3a:	4391                	c.li	t2,4
    9b3c:	027a0c63          	beq	s4,t2,9b74 <riscv_nn_vec_mat_mult_t_s8+0x103c>
    9b40:	4595                	c.li	a1,5
    9b42:	00ba0f63          	beq	s4,a1,9b60 <riscv_nn_vec_mat_mult_t_s8+0x1028>
    9b46:	4e19                	c.li	t3,6
    9b48:	13ca1c63          	bne	s4,t3,9c80 <riscv_nn_vec_mat_mult_t_s8+0x1148>
    9b4c:	000d8c83          	lb	s9,0(s11)
    9b50:	000c0883          	lb	a7,0(s8)
    9b54:	0d85                	c.addi	s11,1
    9b56:	00fc8d33          	add	s10,s9,a5
    9b5a:	c5a8997f          	maddr32	s2,a7,s10
    9b5e:	0c05                	c.addi	s8,1
    9b60:	000d8803          	lb	a6,0(s11)
    9b64:	000c0403          	lb	s0,0(s8)
    9b68:	0d85                	c.addi	s11,1
    9b6a:	00f80533          	add	a0,a6,a5
    9b6e:	c4a4197f          	maddr32	s2,s0,a0
    9b72:	0c05                	c.addi	s8,1
    9b74:	000d8483          	lb	s1,0(s11)
    9b78:	000c0b83          	lb	s7,0(s8)
    9b7c:	0d85                	c.addi	s11,1
    9b7e:	00f48ab3          	add	s5,s1,a5
    9b82:	c55b997f          	maddr32	s2,s7,s5
    9b86:	0c05                	c.addi	s8,1
    9b88:	000d8283          	lb	t0,0(s11)
    9b8c:	000c0603          	lb	a2,0(s8)
    9b90:	0d85                	c.addi	s11,1
    9b92:	00f28333          	add	t1,t0,a5
    9b96:	c466197f          	maddr32	s2,a2,t1
    9b9a:	0c05                	c.addi	s8,1
    9b9c:	000d8a03          	lb	s4,0(s11)
    9ba0:	000c0b03          	lb	s6,0(s8)
    9ba4:	0d85                	c.addi	s11,1
    9ba6:	00fa06b3          	add	a3,s4,a5
    9baa:	c4db197f          	maddr32	s2,s6,a3
    9bae:	0c05                	c.addi	s8,1
    9bb0:	000d8703          	lb	a4,0(s11)
    9bb4:	000c0383          	lb	t2,0(s8)
    9bb8:	0d85                	c.addi	s11,1
    9bba:	00f705b3          	add	a1,a4,a5
    9bbe:	c4b3997f          	maddr32	s2,t2,a1
    9bc2:	0c05                	c.addi	s8,1
    9bc4:	09ed8663          	beq	s11,t5,9c50 <riscv_nn_vec_mat_mult_t_s8+0x1118>
    9bc8:	000d8e03          	lb	t3,0(s11)
    9bcc:	000c0983          	lb	s3,0(s8)
    9bd0:	001d8f83          	lb	t6,1(s11)
    9bd4:	00fe0eb3          	add	t4,t3,a5
    9bd8:	001c0c83          	lb	s9,1(s8)
    9bdc:	c5d9997f          	maddr32	s2,s3,t4
    9be0:	002d8883          	lb	a7,2(s11)
    9be4:	00ff8d33          	add	s10,t6,a5
    9be8:	002c0803          	lb	a6,2(s8)
    9bec:	c5ac997f          	maddr32	s2,s9,s10
    9bf0:	003d8403          	lb	s0,3(s11)
    9bf4:	00f88533          	add	a0,a7,a5
    9bf8:	003c0483          	lb	s1,3(s8)
    9bfc:	c4a8197f          	maddr32	s2,a6,a0
    9c00:	004d8b83          	lb	s7,4(s11)
    9c04:	00f40ab3          	add	s5,s0,a5
    9c08:	004c0283          	lb	t0,4(s8)
    9c0c:	c554997f          	maddr32	s2,s1,s5
    9c10:	005d8303          	lb	t1,5(s11)
    9c14:	00fb8633          	add	a2,s7,a5
    9c18:	005c0a03          	lb	s4,5(s8)
    9c1c:	c4c2997f          	maddr32	s2,t0,a2
    9c20:	006d8b03          	lb	s6,6(s11)
    9c24:	00f306b3          	add	a3,t1,a5
    9c28:	006c0703          	lb	a4,6(s8)
    9c2c:	c4da197f          	maddr32	s2,s4,a3
    9c30:	007d8383          	lb	t2,7(s11)
    9c34:	00fb05b3          	add	a1,s6,a5
    9c38:	007c0e03          	lb	t3,7(s8)
    9c3c:	c4b7197f          	maddr32	s2,a4,a1
    9c40:	00f389b3          	add	s3,t2,a5
    9c44:	0da1                	c.addi	s11,8
    9c46:	c53e197f          	maddr32	s2,t3,s3
    9c4a:	0c21                	c.addi	s8,8
    9c4c:	f7ed9ee3          	bne	s11,t5,9bc8 <riscv_nn_vec_mat_mult_t_s8+0x1090>
    9c50:	1b012783          	lw	a5,432(sp)
    9c54:	00000f13          	li	t5,0
    9c58:	f3e78dff          	maxw	s11,a5,t5
    9c5c:	01b91933          	sll	s2,s2,s11
    9c60:	fd4ff06f          	j	9434 <riscv_nn_vec_mat_mult_t_s8+0x8fc>
    9c64:	000d8483          	lb	s1,0(s11)
    9c68:	000c0b83          	lb	s7,0(s8)
    9c6c:	0d85                	c.addi	s11,1
    9c6e:	00f48fb3          	add	t6,s1,a5
    9c72:	012b8eb3          	add	t4,s7,s2
    9c76:	c5fe977f          	maddr32	a4,t4,t6
    9c7a:	0c05                	c.addi	s8,1
    9c7c:	e6cff06f          	j	92e8 <riscv_nn_vec_mat_mult_t_s8+0x7b0>
    9c80:	000d8983          	lb	s3,0(s11)
    9c84:	000c0f83          	lb	t6,0(s8)
    9c88:	0d85                	c.addi	s11,1
    9c8a:	00f98eb3          	add	t4,s3,a5
    9c8e:	c5df997f          	maddr32	s2,t6,t4
    9c92:	0c05                	c.addi	s8,1
    9c94:	bd65                	c.j	9b4c <riscv_nn_vec_mat_mult_t_s8+0x1014>
	...

00009c98 <riscv_q7_to_q15_with_offset>:
    9c98:	40265f13          	srai	t5,a2,0x2
    9c9c:	0ed698ff          	pkbb16	a7,a3,a3
    9ca0:	07e05e63          	blez	t5,9d1c <riscv_q7_to_q15_with_offset+0x84>
    9ca4:	002f1e93          	slli	t4,t5,0x2
    9ca8:	9eaa                	c.add	t4,a0
    9caa:	882e                	c.mv	a6,a1
    9cac:	4118                	c.lw	a4,0(a0)
    9cae:	833a                	c.mv	t1,a4
    9cb0:	83ba                	c.mv	t2,a4
    9cb2:	0511                	c.addi	a0,4
    9cb4:	de8307ff          	wexti	a5,t1,8
    9cb8:	ac9787ff          	sunpkd820	a5,a5
    9cbc:	40f887ff          	add16	a5,a7,a5
    9cc0:	ac97077f          	sunpkd820	a4,a4
    9cc4:	40e8877f          	add16	a4,a7,a4
    9cc8:	2ee79e7f          	pktt16	t3,a5,a4
    9ccc:	0ee797ff          	pkbb16	a5,a5,a4
    9cd0:	00f82023          	sw	a5,0(a6)
    9cd4:	01c82223          	sw	t3,4(a6)
    9cd8:	0821                	c.addi	a6,8
    9cda:	fcae99e3          	bne	t4,a0,9cac <riscv_q7_to_q15_with_offset+0x14>
    9cde:	0f0e                	c.slli	t5,0x3
    9ce0:	01e585b3          	add	a1,a1,t5
    9ce4:	8a0d                	c.andi	a2,3
    9ce6:	ca0d                	c.beqz	a2,9d18 <riscv_q7_to_q15_with_offset+0x80>
    9ce8:	000e8783          	lb	a5,0(t4)
    9cec:	06c2                	c.slli	a3,0x10
    9cee:	82c1                	c.srli	a3,0x10
    9cf0:	97b6                	c.add	a5,a3
    9cf2:	4705                	c.li	a4,1
    9cf4:	00f59023          	sh	a5,0(a1)
    9cf8:	02e60063          	beq	a2,a4,9d18 <riscv_q7_to_q15_with_offset+0x80>
    9cfc:	001e8783          	lb	a5,1(t4)
    9d00:	4709                	c.li	a4,2
    9d02:	97b6                	c.add	a5,a3
    9d04:	00f59123          	sh	a5,2(a1)
    9d08:	00e60863          	beq	a2,a4,9d18 <riscv_q7_to_q15_with_offset+0x80>
    9d0c:	002e8783          	lb	a5,2(t4)
    9d10:	00f686b3          	add	a3,a3,a5
    9d14:	00d59223          	sh	a3,4(a1)
    9d18:	00008067          	ret
    9d1c:	8eaa                	c.mv	t4,a0
    9d1e:	b7d9                	c.j	9ce4 <riscv_q7_to_q15_with_offset+0x4c>

00009d20 <riscv_avgpool_s8_get_buffer_size>:
    9d20:	00259513          	slli	a0,a1,0x2
    9d24:	8082                	c.jr	ra
	...

00009d28 <memcpy>:
    9d28:	00a5c7b3          	xor	a5,a1,a0
    9d2c:	8b8d                	c.andi	a5,3
    9d2e:	00c508b3          	add	a7,a0,a2
    9d32:	ebb9                	c.bnez	a5,9d88 <memcpy+0x60>
    9d34:	478d                	c.li	a5,3
    9d36:	04c7f963          	bgeu	a5,a2,9d88 <memcpy+0x60>
    9d3a:	00357713          	andi	a4,a0,3
    9d3e:	87aa                	c.mv	a5,a0
    9d40:	06071263          	bnez	a4,9da4 <memcpy+0x7c>
    9d44:	ffc8f813          	andi	a6,a7,-4
    9d48:	40f806b3          	sub	a3,a6,a5
    9d4c:	02000713          	li	a4,32
    9d50:	02000393          	li	t2,32
    9d54:	06d74c63          	blt	a4,a3,9dcc <memcpy+0xa4>
    9d58:	0307f463          	bgeu	a5,a6,9d80 <memcpy+0x58>
    9d5c:	86ae                	c.mv	a3,a1
    9d5e:	873e                	c.mv	a4,a5
    9d60:	4290                	c.lw	a2,0(a3)
    9d62:	0711                	c.addi	a4,4
    9d64:	fec72e23          	sw	a2,-4(a4) # 3ffffffc <_DATA_LMA_START+0x1fff5164>
    9d68:	0691                	c.addi	a3,4
    9d6a:	ff076be3          	bltu	a4,a6,9d60 <memcpy+0x38>
    9d6e:	fff7c713          	not	a4,a5
    9d72:	983a                	c.add	a6,a4
    9d74:	ffc87813          	andi	a6,a6,-4
    9d78:	0811                	c.addi	a6,4
    9d7a:	97c2                	c.add	a5,a6
    9d7c:	010585b3          	add	a1,a1,a6
    9d80:	0117e863          	bltu	a5,a7,9d90 <memcpy+0x68>
    9d84:	00008067          	ret
    9d88:	ff157ee3          	bgeu	a0,a7,9d84 <memcpy+0x5c>
    9d8c:	00a007b3          	add	a5,zero,a0
    9d90:	0005c703          	lbu	a4,0(a1)
    9d94:	0785                	c.addi	a5,1
    9d96:	fee78fa3          	sb	a4,-1(a5)
    9d9a:	0585                	c.addi	a1,1
    9d9c:	ff17eae3          	bltu	a5,a7,9d90 <memcpy+0x68>
    9da0:	00008067          	ret
    9da4:	0005c703          	lbu	a4,0(a1)
    9da8:	0785                	c.addi	a5,1
    9daa:	fee78fa3          	sb	a4,-1(a5)
    9dae:	0037f713          	andi	a4,a5,3
    9db2:	0585                	c.addi	a1,1
    9db4:	db41                	c.beqz	a4,9d44 <memcpy+0x1c>
    9db6:	0005c703          	lbu	a4,0(a1)
    9dba:	0785                	c.addi	a5,1
    9dbc:	fee78fa3          	sb	a4,-1(a5)
    9dc0:	0037f713          	andi	a4,a5,3
    9dc4:	0585                	c.addi	a1,1
    9dc6:	ff79                	c.bnez	a4,9da4 <memcpy+0x7c>
    9dc8:	f7dff06f          	j	9d44 <memcpy+0x1c>
    9dcc:	4dd8                	c.lw	a4,28(a1)
    9dce:	0005a283          	lw	t0,0(a1)
    9dd2:	0045af83          	lw	t6,4(a1)
    9dd6:	0085af03          	lw	t5,8(a1)
    9dda:	00c5ae83          	lw	t4,12(a1)
    9dde:	0105ae03          	lw	t3,16(a1)
    9de2:	0145a303          	lw	t1,20(a1)
    9de6:	4d90                	c.lw	a2,24(a1)
    9de8:	02458593          	addi	a1,a1,36
    9dec:	ffc5a683          	lw	a3,-4(a1)
    9df0:	02478793          	addi	a5,a5,36
    9df4:	fee7ac23          	sw	a4,-8(a5)
    9df8:	fc57ae23          	sw	t0,-36(a5)
    9dfc:	fff7a023          	sw	t6,-32(a5)
    9e00:	ffe7a223          	sw	t5,-28(a5)
    9e04:	ffd7a423          	sw	t4,-24(a5)
    9e08:	ffc7a623          	sw	t3,-20(a5)
    9e0c:	fe67a823          	sw	t1,-16(a5)
    9e10:	fec7aa23          	sw	a2,-12(a5)
    9e14:	40f80733          	sub	a4,a6,a5
    9e18:	fed7ae23          	sw	a3,-4(a5)
    9e1c:	fae3c8e3          	blt	t2,a4,9dcc <memcpy+0xa4>
    9e20:	bf25                	c.j	9d58 <memcpy+0x30>

00009e22 <memset>:
    9e22:	433d                	c.li	t1,15
    9e24:	872a                	c.mv	a4,a0
    9e26:	02c37363          	bgeu	t1,a2,9e4c <memset+0x2a>
    9e2a:	00f77793          	andi	a5,a4,15
    9e2e:	e3c1                	c.bnez	a5,9eae <memset+0x8c>
    9e30:	e5b5                	c.bnez	a1,9e9c <memset+0x7a>
    9e32:	ff067693          	andi	a3,a2,-16
    9e36:	8a3d                	c.andi	a2,15
    9e38:	96ba                	c.add	a3,a4
    9e3a:	c30c                	c.sw	a1,0(a4)
    9e3c:	c34c                	c.sw	a1,4(a4)
    9e3e:	c70c                	c.sw	a1,8(a4)
    9e40:	c74c                	c.sw	a1,12(a4)
    9e42:	0741                	c.addi	a4,16
    9e44:	fed76be3          	bltu	a4,a3,9e3a <memset+0x18>
    9e48:	e211                	c.bnez	a2,9e4c <memset+0x2a>
    9e4a:	8082                	c.jr	ra
    9e4c:	40c306b3          	sub	a3,t1,a2
    9e50:	068a                	c.slli	a3,0x2
    9e52:	00000297          	auipc	t0,0x0
    9e56:	005686b3          	add	a3,a3,t0
    9e5a:	00c68067          	jr	12(a3)
    9e5e:	00b70723          	sb	a1,14(a4)
    9e62:	00b706a3          	sb	a1,13(a4)
    9e66:	00b70623          	sb	a1,12(a4)
    9e6a:	00b705a3          	sb	a1,11(a4)
    9e6e:	00b70523          	sb	a1,10(a4)
    9e72:	00b704a3          	sb	a1,9(a4)
    9e76:	00b70423          	sb	a1,8(a4)
    9e7a:	00b703a3          	sb	a1,7(a4)
    9e7e:	00b70323          	sb	a1,6(a4)
    9e82:	00b702a3          	sb	a1,5(a4)
    9e86:	00b70223          	sb	a1,4(a4)
    9e8a:	00b701a3          	sb	a1,3(a4)
    9e8e:	00b70123          	sb	a1,2(a4)
    9e92:	00b700a3          	sb	a1,1(a4)
    9e96:	00b70023          	sb	a1,0(a4)
    9e9a:	8082                	c.jr	ra
    9e9c:	0ff5f593          	andi	a1,a1,255
    9ea0:	00859693          	slli	a3,a1,0x8
    9ea4:	8dd5                	c.or	a1,a3
    9ea6:	01059693          	slli	a3,a1,0x10
    9eaa:	8dd5                	c.or	a1,a3
    9eac:	b759                	c.j	9e32 <memset+0x10>
    9eae:	00279693          	slli	a3,a5,0x2
    9eb2:	00000297          	auipc	t0,0x0
    9eb6:	9696                	c.add	a3,t0
    9eb8:	8286                	c.mv	t0,ra
    9eba:	fa8680e7          	jalr	-88(a3)
    9ebe:	8096                	c.mv	ra,t0
    9ec0:	17c1                	c.addi	a5,-16
    9ec2:	8f1d                	c.sub	a4,a5
    9ec4:	963e                	c.add	a2,a5
    9ec6:	f8c373e3          	bgeu	t1,a2,9e4c <memset+0x2a>
    9eca:	b79d                	c.j	9e30 <memset+0xe>

00009ecc <malloc>:
    9ecc:	551002ef          	jal	t0,ac1c <__riscv_save_0>
    9ed0:	85aa                	c.mv	a1,a0
    9ed2:	515c252b          	lwgp	a0,27924 # 87514 <_impure_ptr>
    9ed6:	205d                	c.jal	9f7c <_malloc_r>
    9ed8:	5690006f          	j	ac40 <__riscv_restore_0>

00009edc <free>:
    9edc:	541002ef          	jal	t0,ac1c <__riscv_save_0>
    9ee0:	85aa                	c.mv	a1,a0
    9ee2:	515c252b          	lwgp	a0,27924 # 87514 <_impure_ptr>
    9ee6:	2019                	c.jal	9eec <_free_r>
    9ee8:	5590006f          	j	ac40 <__riscv_restore_0>

00009eec <_free_r>:
    9eec:	c5b5                	c.beqz	a1,9f58 <_free_r+0x6c>
    9eee:	ffc5a703          	lw	a4,-4(a1)
    9ef2:	ffc58793          	addi	a5,a1,-4
    9ef6:	00075363          	bgez	a4,9efc <_free_r+0x10>
    9efa:	97ba                	c.add	a5,a4
    9efc:	535c272b          	lwgp	a4,27956 # 87534 <__malloc_free_list>
    9f00:	85b6                	c.mv	a1,a3
    9f02:	e711                	c.bnez	a4,9f0e <_free_r+0x22>
    9f04:	0007a223          	sw	zero,4(a5)
    9f08:	52fc4aab          	swgp	a5,27956 # 87534 <__malloc_free_list>
    9f0c:	8082                	c.jr	ra
    9f0e:	02e7f063          	bgeu	a5,a4,9f2e <_free_r+0x42>
    9f12:	4390                	c.lw	a2,0(a5)
    9f14:	00c786b3          	add	a3,a5,a2
    9f18:	00d71663          	bne	a4,a3,9f24 <_free_r+0x38>
    9f1c:	4314                	c.lw	a3,0(a4)
    9f1e:	4358                	c.lw	a4,4(a4)
    9f20:	96b2                	c.add	a3,a2
    9f22:	c394                	c.sw	a3,0(a5)
    9f24:	c3d8                	c.sw	a4,4(a5)
    9f26:	52fc4aab          	swgp	a5,27956 # 87534 <__malloc_free_list>
    9f2a:	8082                	c.jr	ra
    9f2c:	8736                	c.mv	a4,a3
    9f2e:	4354                	c.lw	a3,4(a4)
    9f30:	c299                	c.beqz	a3,9f36 <_free_r+0x4a>
    9f32:	fed7fde3          	bgeu	a5,a3,9f2c <_free_r+0x40>
    9f36:	4310                	c.lw	a2,0(a4)
    9f38:	00c705b3          	add	a1,a4,a2
    9f3c:	00f59f63          	bne	a1,a5,9f5a <_free_r+0x6e>
    9f40:	439c                	c.lw	a5,0(a5)
    9f42:	97b2                	c.add	a5,a2
    9f44:	c31c                	c.sw	a5,0(a4)
    9f46:	00f70633          	add	a2,a4,a5
    9f4a:	00c69763          	bne	a3,a2,9f58 <_free_r+0x6c>
    9f4e:	4290                	c.lw	a2,0(a3)
    9f50:	97b2                	c.add	a5,a2
    9f52:	c31c                	c.sw	a5,0(a4)
    9f54:	42dc                	c.lw	a5,4(a3)
    9f56:	c35c                	c.sw	a5,4(a4)
    9f58:	8082                	c.jr	ra
    9f5a:	00b7f663          	bgeu	a5,a1,9f66 <_free_r+0x7a>
    9f5e:	4731                	c.li	a4,12
    9f60:	54ec42ab          	swgp	a4,27972 # 87544 <__mculib_REENT_errno>
    9f64:	8082                	c.jr	ra
    9f66:	438c                	c.lw	a1,0(a5)
    9f68:	00b78633          	add	a2,a5,a1
    9f6c:	00c69663          	bne	a3,a2,9f78 <_free_r+0x8c>
    9f70:	4290                	c.lw	a2,0(a3)
    9f72:	42d4                	c.lw	a3,4(a3)
    9f74:	962e                	c.add	a2,a1
    9f76:	c390                	c.sw	a2,0(a5)
    9f78:	c3d4                	c.sw	a3,4(a5)
    9f7a:	bff1                	c.j	9f56 <_free_r+0x6a>

00009f7c <_malloc_r>:
    9f7c:	4a1002ef          	jal	t0,ac1c <__riscv_save_0>
    9f80:	00358493          	addi	s1,a1,3
    9f84:	98f1                	c.andi	s1,-4
    9f86:	04a1                	c.addi	s1,8
    9f88:	47b1                	c.li	a5,12
    9f8a:	06f4f263          	bgeu	s1,a5,9fee <_malloc_r+0x72>
    9f8e:	44b1                	c.li	s1,12
    9f90:	06b4e163          	bltu	s1,a1,9ff2 <_malloc_r+0x76>
    9f94:	535c242b          	lwgp	s0,27956 # 87534 <__malloc_free_list>
    9f98:	535c168b          	addigp	a3,27956 # 87534 <__malloc_free_list>
    9f9c:	87a2                	c.mv	a5,s0
    9f9e:	cf89                	c.beqz	a5,9fb8 <_malloc_r+0x3c>
    9fa0:	4398                	c.lw	a4,0(a5)
    9fa2:	8f05                	c.sub	a4,s1
    9fa4:	08074163          	bltz	a4,a026 <_malloc_r+0xaa>
    9fa8:	462d                	c.li	a2,11
    9faa:	04e67a63          	bgeu	a2,a4,9ffe <_malloc_r+0x82>
    9fae:	c398                	c.sw	a4,0(a5)
    9fb0:	00e78433          	add	s0,a5,a4
    9fb4:	c004                	c.sw	s1,0(s0)
    9fb6:	e821                	c.bnez	s0,a006 <_malloc_r+0x8a>
    9fb8:	539c140b          	addigp	s0,27960 # 87538 <__malloc_sbrk_start>
    9fbc:	401c                	c.lw	a5,0(s0)
    9fbe:	e789                	c.bnez	a5,9fc8 <_malloc_r+0x4c>
    9fc0:	4501                	c.li	a0,0
    9fc2:	3a1000ef          	jal	ra,ab62 <_sbrk>
    9fc6:	c008                	c.sw	a0,0(s0)
    9fc8:	8526                	c.mv	a0,s1
    9fca:	597d                	c.li	s2,-1
    9fcc:	397000ef          	jal	ra,ab62 <_sbrk>
    9fd0:	03250163          	beq	a0,s2,9ff2 <_malloc_r+0x76>
    9fd4:	00350413          	addi	s0,a0,3 # 40000003 <_DATA_LMA_START+0x1fff516b>
    9fd8:	9871                	c.andi	s0,-4
    9fda:	00a40863          	beq	s0,a0,9fea <_malloc_r+0x6e>
    9fde:	40a40533          	sub	a0,s0,a0
    9fe2:	381000ef          	jal	ra,ab62 <_sbrk>
    9fe6:	01250663          	beq	a0,s2,9ff2 <_malloc_r+0x76>
    9fea:	c004                	c.sw	s1,0(s0)
    9fec:	a829                	c.j	a006 <_malloc_r+0x8a>
    9fee:	fa04d1e3          	bgez	s1,9f90 <_malloc_r+0x14>
    9ff2:	4731                	c.li	a4,12
    9ff4:	4501                	c.li	a0,0
    9ff6:	54ec42ab          	swgp	a4,27972 # 87544 <__mculib_REENT_errno>
    9ffa:	4470006f          	j	ac40 <__riscv_restore_0>
    9ffe:	43d8                	c.lw	a4,4(a5)
    a000:	02f41063          	bne	s0,a5,a020 <_malloc_r+0xa4>
    a004:	c298                	c.sw	a4,0(a3)
    a006:	00b40513          	addi	a0,s0,11
    a00a:	00440793          	addi	a5,s0,4
    a00e:	9961                	c.andi	a0,-8
    a010:	40f507b3          	sub	a5,a0,a5
    a014:	d3fd                	c.beqz	a5,9ffa <_malloc_r+0x7e>
    a016:	943e                	c.add	s0,a5
    a018:	40f007b3          	neg	a5,a5
    a01c:	c01c                	c.sw	a5,0(s0)
    a01e:	bff1                	c.j	9ffa <_malloc_r+0x7e>
    a020:	c058                	c.sw	a4,4(s0)
    a022:	843e                	c.mv	s0,a5
    a024:	b7cd                	c.j	a006 <_malloc_r+0x8a>
    a026:	843e                	c.mv	s0,a5
    a028:	43dc                	c.lw	a5,4(a5)
    a02a:	bf95                	c.j	9f9e <_malloc_r+0x22>

0000a02c <printf>:
    a02c:	7139                	c.addi16sp	sp,-64
    a02e:	d22e                	c.swsp	a1,36(sp)
    a030:	104c                	c.addi4spn	a1,sp,36
    a032:	ce06                	c.swsp	ra,28(sp)
    a034:	d432                	c.swsp	a2,40(sp)
    a036:	d636                	c.swsp	a3,44(sp)
    a038:	d83a                	c.swsp	a4,48(sp)
    a03a:	da3e                	c.swsp	a5,52(sp)
    a03c:	dc42                	c.swsp	a6,56(sp)
    a03e:	de46                	c.swsp	a7,60(sp)
    a040:	c62e                	c.swsp	a1,12(sp)
    a042:	28e1                	c.jal	a11a <vprintf>
    a044:	40f2                	c.lwsp	ra,28(sp)
    a046:	6121                	c.addi16sp	sp,64
    a048:	8082                	c.jr	ra

0000a04a <puts>:
    a04a:	3d3002ef          	jal	t0,ac1c <__riscv_save_0>
    a04e:	1101                	c.addi	sp,-32
    a050:	c62a                	c.swsp	a0,12(sp)
    a052:	203d                	c.jal	a080 <strlen>
    a054:	45b2                	c.lwsp	a1,12(sp)
    a056:	862a                	c.mv	a2,a0
    a058:	4505                	c.li	a0,1
    a05a:	d22f70ef          	jal	ra,157c <_write>
    a05e:	00054e63          	bltz	a0,a07a <puts+0x30>
    a062:	47a9                	c.li	a5,10
    a064:	4605                	c.li	a2,1
    a066:	01f10593          	addi	a1,sp,31
    a06a:	4505                	c.li	a0,1
    a06c:	00f10fa3          	sb	a5,31(sp)
    a070:	d0cf70ef          	jal	ra,157c <_write>
    a074:	6105                	c.addi16sp	sp,32
    a076:	3cb0006f          	j	ac40 <__riscv_restore_0>
    a07a:	557d                	c.li	a0,-1
    a07c:	bfe5                	c.j	a074 <puts+0x2a>
	...

0000a080 <strlen>:
    a080:	00357793          	andi	a5,a0,3
    a084:	872a                	c.mv	a4,a0
    a086:	e79d                	c.bnez	a5,a0b4 <strlen+0x34>
    a088:	0511                	c.addi	a0,4
    a08a:	ffc52783          	lw	a5,-4(a0)
    a08e:	200787db          	ffb	a5,a5,zero
    a092:	dbfd                	c.beqz	a5,a088 <strlen+0x8>
    a094:	ffc54783          	lbu	a5,-4(a0)
    a098:	40e50733          	sub	a4,a0,a4
    a09c:	ffd54683          	lbu	a3,-3(a0)
    a0a0:	ffe54603          	lbu	a2,-2(a0)
    a0a4:	c795                	c.beqz	a5,a0d0 <strlen+0x50>
    a0a6:	c28d                	c.beqz	a3,a0c8 <strlen+0x48>
    a0a8:	ca05                	c.beqz	a2,a0d8 <strlen+0x58>
    a0aa:	fff70513          	addi	a0,a4,-1
    a0ae:	8082                	c.jr	ra
    a0b0:	fc068ce3          	beqz	a3,a088 <strlen+0x8>
    a0b4:	00054783          	lbu	a5,0(a0)
    a0b8:	0505                	c.addi	a0,1
    a0ba:	00357693          	andi	a3,a0,3
    a0be:	fbed                	c.bnez	a5,a0b0 <strlen+0x30>
    a0c0:	8d19                	c.sub	a0,a4
    a0c2:	157d                	c.addi	a0,-1
    a0c4:	00008067          	ret
    a0c8:	ffd70513          	addi	a0,a4,-3
    a0cc:	00008067          	ret
    a0d0:	ffc70513          	addi	a0,a4,-4
    a0d4:	00008067          	ret
    a0d8:	ffe70513          	addi	a0,a4,-2
    a0dc:	8082                	c.jr	ra
    a0de:	0001                	c.nop

0000a0e0 <__vprintf_help>:
    a0e0:	33d002ef          	jal	t0,ac1c <__riscv_save_0>
    a0e4:	549c27ab          	lwgp	a5,27976 # 87548 <__printf_count>
    a0e8:	0785                	c.addi	a5,1
    a0ea:	54fc44ab          	swgp	a5,27976 # 87548 <__printf_count>
    a0ee:	541c140b          	addigp	s0,27968 # 87540 <__vprintf_buf_len>
    a0f2:	53dc25ab          	lwgp	a1,27964 # 8753c <__vprintf_buf>
    a0f6:	401c                	c.lw	a5,0(s0)
    a0f8:	00178713          	addi	a4,a5,1
    a0fc:	97ae                	c.add	a5,a1
    a0fe:	c018                	c.sw	a4,0(s0)
    a100:	00a78023          	sb	a0,0(a5)
    a104:	4007695b          	bnec	a4,64,a116 <__vprintf_help+0x36>
    a108:	04000613          	li	a2,64
    a10c:	4505                	c.li	a0,1
    a10e:	c6ef70ef          	jal	ra,157c <_write>
    a112:	00042023          	sw	zero,0(s0)
    a116:	32b0006f          	j	ac40 <__riscv_restore_0>

0000a11a <vprintf>:
    a11a:	1141                	c.addi	sp,-16
    a11c:	c606                	c.swsp	ra,12(sp)
    a11e:	c422                	c.swsp	s0,8(sp)
    a120:	c226                	c.swsp	s1,4(sp)
    a122:	c04a                	c.swsp	s2,0(sp)
    a124:	0800                	c.addi4spn	s0,sp,16
    a126:	715d                	c.addi16sp	sp,-80
    a128:	00f10793          	addi	a5,sp,15
    a12c:	0000a637          	lui	a2,0xa
    a130:	9bc1                	c.andi	a5,-16
    a132:	53dc148b          	addigp	s1,27964 # 8753c <__vprintf_buf>
    a136:	541c190b          	addigp	s2,27968 # 87540 <__vprintf_buf_len>
    a13a:	0e060613          	addi	a2,a2,224 # a0e0 <__vprintf_help>
    a13e:	c09c                	c.sw	a5,0(s1)
    a140:	00092023          	sw	zero,0(s2)
    a144:	20ad                	c.jal	a1ae <__printf_impl>
    a146:	00092603          	lw	a2,0(s2)
    a14a:	408c                	c.lw	a1,0(s1)
    a14c:	4505                	c.li	a0,1
    a14e:	c2ef70ef          	jal	ra,157c <_write>
    a152:	549c252b          	lwgp	a0,27976 # 87548 <__printf_count>
    a156:	ff040113          	addi	sp,s0,-16
    a15a:	40b2                	c.lwsp	ra,12(sp)
    a15c:	4422                	c.lwsp	s0,8(sp)
    a15e:	4492                	c.lwsp	s1,4(sp)
    a160:	4902                	c.lwsp	s2,0(sp)
    a162:	0141                	c.addi	sp,16
    a164:	8082                	c.jr	ra

0000a166 <__print_integral>:
    a166:	2b7002ef          	jal	t0,ac1c <__riscv_save_0>
    a16a:	1101                	c.addi	sp,-32
    a16c:	842a                	c.mv	s0,a0
    a16e:	84ae                	c.mv	s1,a1
    a170:	8932                	c.mv	s2,a2
    a172:	c636                	c.swsp	a3,12(sp)
    a174:	85be                	c.mv	a1,a5
    a176:	ca32                	c.swsp	a2,20(sp)
    a178:	853a                	c.mv	a0,a4
    a17a:	0830                	c.addi4spn	a2,sp,24
    a17c:	214d                	c.jal	a61e <__int_to_poly>
    a17e:	46b2                	c.lwsp	a3,12(sp)
    a180:	882a                	c.mv	a6,a0
    a182:	083c                	c.addi4spn	a5,sp,24
    a184:	0858                	c.addi4spn	a4,sp,20
    a186:	864a                	c.mv	a2,s2
    a188:	85a6                	c.mv	a1,s1
    a18a:	8522                	c.mv	a0,s0
    a18c:	2945                	c.jal	a63c <__print_integral_poly>
    a18e:	4f1c178b          	addigp	a5,27888 # 874f0 <__digits>
    a192:	00a46563          	bltu	s0,a0,a19c <__print_integral+0x36>
    a196:	6105                	c.addi16sp	sp,32
    a198:	2a90006f          	j	ac40 <__riscv_restore_0>
    a19c:	00044703          	lbu	a4,0(s0)
    a1a0:	0405                	c.addi	s0,1
    a1a2:	973e                	c.add	a4,a5
    a1a4:	00070703          	lb	a4,0(a4)
    a1a8:	fee40fa3          	sb	a4,-1(s0)
    a1ac:	b7dd                	c.j	a192 <__print_integral+0x2c>

0000a1ae <__printf_impl>:
    a1ae:	23f002ef          	jal	t0,abec <__riscv_save_12>
    a1b2:	a6010113          	addi	sp,sp,-1440
    a1b6:	6b05                	c.lui	s6,0x1
    a1b8:	892a                	c.mv	s2,a0
    a1ba:	842e                	c.mv	s0,a1
    a1bc:	89b2                	c.mv	s3,a2
    a1be:	01c10a13          	addi	s4,sp,28
    a1c2:	800b0b13          	addi	s6,s6,-2048 # 800 <analog_read_reg8+0x28>
    a1c6:	540c44ab          	swgp	zero,27976 # 87548 <__printf_count>
    a1ca:	c456                	c.swsp	s5,8(sp)
    a1cc:	00094503          	lbu	a0,0(s2)
    a1d0:	e509                	c.bnez	a0,a1da <__printf_impl+0x2c>
    a1d2:	5a010113          	addi	sp,sp,1440
    a1d6:	2530006f          	j	ac28 <__riscv_restore_12>
    a1da:	00190493          	addi	s1,s2,1
    a1de:	005555db          	beqc	a0,37,a1e8 <__printf_impl+0x3a>
    a1e2:	9982                	c.jalr	s3
    a1e4:	8926                	c.mv	s2,s1
    a1e6:	b7dd                	c.j	a1cc <__printf_impl+0x1e>
    a1e8:	00194783          	lbu	a5,1(s2)
    a1ec:	0057e8db          	bnec	a5,37,a1fc <__printf_impl+0x4e>
    a1f0:	02500513          	li	a0,37
    a1f4:	9982                	c.jalr	s3
    a1f6:	00290493          	addi	s1,s2,2
    a1fa:	b7ed                	c.j	a1e4 <__printf_impl+0x36>
    a1fc:	4681                	c.li	a3,0
    a1fe:	4701                	c.li	a4,0
    a200:	d002                	c.swsp	zero,32(sp)
    a202:	0004c783          	lbu	a5,0(s1)
    a206:	0007e7db          	bnec	a5,32,a214 <__printf_impl+0x66>
    a20a:	00276713          	ori	a4,a4,2
    a20e:	0485                	c.addi	s1,1
    a210:	4685                	c.li	a3,1
    a212:	bfc5                	c.j	a202 <__printf_impl+0x54>
    a214:	00d7e5db          	bnec	a5,45,a21e <__printf_impl+0x70>
    a218:	00476713          	ori	a4,a4,4
    a21c:	bfcd                	c.j	a20e <__printf_impl+0x60>
    a21e:	00b7e5db          	bnec	a5,43,a228 <__printf_impl+0x7a>
    a222:	00876713          	ori	a4,a4,8
    a226:	b7e5                	c.j	a20e <__printf_impl+0x60>
    a228:	0037e5db          	bnec	a5,35,a232 <__printf_impl+0x84>
    a22c:	01076713          	ori	a4,a4,16
    a230:	bff9                	c.j	a20e <__printf_impl+0x60>
    a232:	0107e5db          	bnec	a5,48,a23c <__printf_impl+0x8e>
    a236:	02076713          	ori	a4,a4,32
    a23a:	bfd1                	c.j	a20e <__printf_impl+0x60>
    a23c:	c291                	c.beqz	a3,a240 <__printf_impl+0x92>
    a23e:	d03a                	c.swsp	a4,32(sp)
    a240:	04a7eadb          	bnec	a5,42,a294 <__printf_impl+0xe6>
    a244:	00042c03          	lw	s8,0(s0)
    a248:	00440713          	addi	a4,s0,4
    a24c:	000c5863          	bgez	s8,a25c <__printf_impl+0xae>
    a250:	5782                	c.lwsp	a5,32(sp)
    a252:	41800c33          	neg	s8,s8
    a256:	0047e793          	ori	a5,a5,4
    a25a:	d03e                	c.swsp	a5,32(sp)
    a25c:	0485                	c.addi	s1,1
    a25e:	843a                	c.mv	s0,a4
    a260:	0004c783          	lbu	a5,0(s1)
    a264:	5cfd                	c.li	s9,-1
    a266:	06e7e4db          	bnec	a5,46,a2ce <__printf_impl+0x120>
    a26a:	0014c783          	lbu	a5,1(s1)
    a26e:	04a7dbdb          	beqc	a5,42,a2c4 <__printf_impl+0x116>
    a272:	0485                	c.addi	s1,1
    a274:	4c81                	c.li	s9,0
    a276:	4725                	c.li	a4,9
    a278:	4629                	c.li	a2,10
    a27a:	0004c783          	lbu	a5,0(s1)
    a27e:	fd078793          	addi	a5,a5,-48
    a282:	0ff7f693          	andi	a3,a5,255
    a286:	04d76463          	bltu	a4,a3,a2ce <__printf_impl+0x120>
    a28a:	c4cc97ff          	maddr32	a5,s9,a2
    a28e:	0485                	c.addi	s1,1
    a290:	8cbe                	c.mv	s9,a5
    a292:	b7e5                	c.j	a27a <__printf_impl+0xcc>
    a294:	fd078793          	addi	a5,a5,-48
    a298:	0ff7f793          	andi	a5,a5,255
    a29c:	4725                	c.li	a4,9
    a29e:	4c01                	c.li	s8,0
    a2a0:	fcf760e3          	bltu	a4,a5,a260 <__printf_impl+0xb2>
    a2a4:	4725                	c.li	a4,9
    a2a6:	4629                	c.li	a2,10
    a2a8:	a029                	c.j	a2b2 <__printf_impl+0x104>
    a2aa:	c4cc17ff          	maddr32	a5,s8,a2
    a2ae:	0485                	c.addi	s1,1
    a2b0:	8c3e                	c.mv	s8,a5
    a2b2:	0004c783          	lbu	a5,0(s1)
    a2b6:	fd078793          	addi	a5,a5,-48
    a2ba:	0ff7f693          	andi	a3,a5,255
    a2be:	fed776e3          	bgeu	a4,a3,a2aa <__printf_impl+0xfc>
    a2c2:	bf79                	c.j	a260 <__printf_impl+0xb2>
    a2c4:	401c                	c.lw	a5,0(s0)
    a2c6:	0489                	c.addi	s1,2
    a2c8:	0411                	c.addi	s0,4
    a2ca:	f2fc8cff          	maxw	s9,s9,a5
    a2ce:	43200613          	li	a2,1074
    a2d2:	f0cc867f          	minw	a2,s9,a2
    a2d6:	0004c783          	lbu	a5,0(s1)
    a2da:	4487efdb          	bnec	a5,104,a338 <__printf_impl+0x18a>
    a2de:	5782                	c.lwsp	a5,32(sp)
    a2e0:	0014c703          	lbu	a4,1(s1)
    a2e4:	448764db          	bnec	a4,104,a32c <__printf_impl+0x17e>
    a2e8:	0407e793          	ori	a5,a5,64
    a2ec:	00248913          	addi	s2,s1,2
    a2f0:	d03e                	c.swsp	a5,32(sp)
    a2f2:	00094503          	lbu	a0,0(s2)
    a2f6:	06700793          	li	a5,103
    a2fa:	0aa7e263          	bltu	a5,a0,a39e <__printf_impl+0x1f0>
    a2fe:	06500793          	li	a5,101
    a302:	06f57d63          	bgeu	a0,a5,a37c <__printf_impl+0x1ce>
    a306:	05800793          	li	a5,88
    a30a:	5785555b          	beqc	a0,88,a474 <__printf_impl+0x2c6>
    a30e:	04a7ef63          	bltu	a5,a0,a36c <__printf_impl+0x1be>
    a312:	04100793          	li	a5,65
    a316:	4615535b          	beqc	a0,65,a37c <__printf_impl+0x1ce>
    a31a:	00f56763          	bltu	a0,a5,a328 <__printf_impl+0x17a>
    a31e:	fbb50793          	addi	a5,a0,-69
    a322:	4709                	c.li	a4,2
    a324:	04f77c63          	bgeu	a4,a5,a37c <__printf_impl+0x1ce>
    a328:	84a2                	c.mv	s1,s0
    a32a:	a481                	c.j	a56a <__printf_impl+0x3bc>
    a32c:	0807e793          	ori	a5,a5,128
    a330:	d03e                	c.swsp	a5,32(sp)
    a332:	00148913          	addi	s2,s1,1
    a336:	bf75                	c.j	a2f2 <__printf_impl+0x144>
    a338:	40c7eddb          	bnec	a5,108,a352 <__printf_impl+0x1a4>
    a33c:	5782                	c.lwsp	a5,32(sp)
    a33e:	0014c703          	lbu	a4,1(s1)
    a342:	40c765db          	bnec	a4,108,a34c <__printf_impl+0x19e>
    a346:	2007e793          	ori	a5,a5,512
    a34a:	b74d                	c.j	a2ec <__printf_impl+0x13e>
    a34c:	1007e793          	ori	a5,a5,256
    a350:	b7c5                	c.j	a330 <__printf_impl+0x182>
    a352:	00148913          	addi	s2,s1,1
    a356:	41a7e7db          	bnec	a5,122,a364 <__printf_impl+0x1b6>
    a35a:	5782                	c.lwsp	a5,32(sp)
    a35c:	1007e793          	ori	a5,a5,256
    a360:	d03e                	c.swsp	a5,32(sp)
    a362:	bf41                	c.j	a2f2 <__printf_impl+0x144>
    a364:	ff47dbdb          	beqc	a5,116,a35a <__printf_impl+0x1ac>
    a368:	8926                	c.mv	s2,s1
    a36a:	b761                	c.j	a2f2 <__printf_impl+0x144>
    a36c:	06300793          	li	a5,99
    a370:	50355cdb          	beqc	a0,99,a488 <__printf_impl+0x2da>
    a374:	04a7e463          	bltu	a5,a0,a3bc <__printf_impl+0x20e>
    a378:	fa1568db          	bnec	a0,97,a328 <__printf_impl+0x17a>
    a37c:	041d                	c.addi	s0,7
    a37e:	9861                	c.andi	s0,-8
    a380:	00042803          	lw	a6,0(s0)
    a384:	00442883          	lw	a7,4(s0)
    a388:	02057b93          	andi	s7,a0,32
    a38c:	87aa                	c.mv	a5,a0
    a38e:	86c2                	c.mv	a3,a6
    a390:	8746                	c.mv	a4,a7
    a392:	100c                	c.addi4spn	a1,sp,32
    a394:	1048                	c.addi4spn	a0,sp,36
    a396:	00840493          	addi	s1,s0,8
    a39a:	2e0d                	c.jal	a6cc <__printf_float_impl>
    a39c:	aa45                	c.j	a54c <__printf_impl+0x39e>
    a39e:	07000793          	li	a5,112
    a3a2:	4d0559db          	beqc	a0,112,a474 <__printf_impl+0x2c6>
    a3a6:	04a7e163          	bltu	a5,a0,a3e8 <__printf_impl+0x23a>
    a3aa:	06e00793          	li	a5,110
    a3ae:	5ae553db          	beqc	a0,110,a554 <__printf_impl+0x3a6>
    a3b2:	45a1                	c.li	a1,8
    a3b4:	0ca7e163          	bltu	a5,a0,a476 <__printf_impl+0x2c8>
    a3b8:	f69568db          	bnec	a0,105,a328 <__printf_impl+0x17a>
    a3bc:	5682                	c.lwsp	a3,32(sp)
    a3be:	0e66f05b          	bbc	a3,6,a49e <__printf_impl+0x2f0>
    a3c2:	00040703          	lb	a4,0(s0)
    a3c6:	00440493          	addi	s1,s0,4
    a3ca:	41f75793          	srai	a5,a4,0x1f
    a3ce:	0e07df63          	bgez	a5,a4cc <__printf_impl+0x31e>
    a3d2:	40e00733          	neg	a4,a4
    a3d6:	00e035b3          	snez	a1,a4
    a3da:	40f007b3          	neg	a5,a5
    a3de:	8f8d                	c.sub	a5,a1
    a3e0:	4006e693          	ori	a3,a3,1024
    a3e4:	d036                	c.swsp	a3,32(sp)
    a3e6:	a0dd                	c.j	a4cc <__printf_impl+0x31e>
    a3e8:	515553db          	beqc	a0,117,a4ee <__printf_impl+0x340>
    a3ec:	498554db          	beqc	a0,120,a474 <__printf_impl+0x2c6>
    a3f0:	f3356cdb          	bnec	a0,115,a328 <__printf_impl+0x17a>
    a3f4:	00042a83          	lw	s5,0(s0)
    a3f8:	85b2                	c.mv	a1,a2
    a3fa:	8556                	c.mv	a0,s5
    a3fc:	c632                	c.swsp	a2,12(sp)
    a3fe:	27b1                	c.jal	ab4a <strnlen>
    a400:	57fd                	c.li	a5,-1
    a402:	00440493          	addi	s1,s0,4
    a406:	00fc8563          	beq	s9,a5,a410 <__printf_impl+0x262>
    a40a:	4632                	c.lwsp	a2,12(sp)
    a40c:	f0c5057f          	minw	a0,a0,a2
    a410:	00aa8433          	add	s0,s5,a0
    a414:	4b81                	c.li	s7,0
    a416:	5782                	c.lwsp	a5,32(sp)
    a418:	02d00693          	li	a3,45
    a41c:	40a7fb5b          	bbs	a5,10,a432 <__printf_impl+0x284>
    a420:	02b00693          	li	a3,43
    a424:	4037f75b          	bbs	a5,3,a432 <__printf_impl+0x284>
    a428:	8cd2                	c.mv	s9,s4
    a42a:	0017f85b          	bbc	a5,1,a43a <__printf_impl+0x28c>
    a42e:	02000693          	li	a3,32
    a432:	01d10c93          	addi	s9,sp,29
    a436:	00d10e23          	sb	a3,28(sp)
    a43a:	0167f6b3          	and	a3,a5,s6
    a43e:	ca91                	c.beqz	a3,a452 <__printf_impl+0x2a4>
    a440:	03000693          	li	a3,48
    a444:	00dc8023          	sb	a3,0(s9)
    a448:	05800693          	li	a3,88
    a44c:	00dc80a3          	sb	a3,1(s9)
    a450:	0c89                	c.addi	s9,2
    a452:	5627f35b          	bbs	a5,2,a5b8 <__printf_impl+0x40a>
    a456:	41540db3          	sub	s11,s0,s5
    a45a:	4057fa5b          	bbs	a5,5,a46e <__printf_impl+0x2c0>
    a45e:	41bc0d33          	sub	s10,s8,s11
    a462:	414c87b3          	sub	a5,s9,s4
    a466:	40fd0d33          	sub	s10,s10,a5
    a46a:	17a04663          	bgtz	s10,a5d6 <__printf_impl+0x428>
    a46e:	8d52                	c.mv	s10,s4
    a470:	9c52                	c.add	s8,s4
    a472:	aaad                	c.j	a5ec <__printf_impl+0x43e>
    a474:	45c1                	c.li	a1,16
    a476:	5782                	c.lwsp	a5,32(sp)
    a478:	0667fd5b          	bbc	a5,6,a4f2 <__printf_impl+0x344>
    a47c:	00044703          	lbu	a4,0(s0)
    a480:	00440493          	addi	s1,s0,4
    a484:	4781                	c.li	a5,0
    a486:	a859                	c.j	a51c <__printf_impl+0x36e>
    a488:	401c                	c.lw	a5,0(s0)
    a48a:	00440493          	addi	s1,s0,4
    a48e:	4b81                	c.li	s7,0
    a490:	02510413          	addi	s0,sp,37
    a494:	02f10223          	sb	a5,36(sp)
    a498:	02410a93          	addi	s5,sp,36
    a49c:	bfad                	c.j	a416 <__printf_impl+0x268>
    a49e:	0076f75b          	bbc	a3,7,a4ac <__printf_impl+0x2fe>
    a4a2:	00440493          	addi	s1,s0,4
    a4a6:	00041703          	lh	a4,0(s0)
    a4aa:	b705                	c.j	a3ca <__printf_impl+0x21c>
    a4ac:	0086f65b          	bbc	a3,8,a4b8 <__printf_impl+0x30a>
    a4b0:	00440493          	addi	s1,s0,4
    a4b4:	4018                	c.lw	a4,0(s0)
    a4b6:	bf11                	c.j	a3ca <__printf_impl+0x21c>
    a4b8:	be96fc5b          	bbc	a3,9,a4b0 <__printf_impl+0x302>
    a4bc:	041d                	c.addi	s0,7
    a4be:	9861                	c.andi	s0,-8
    a4c0:	405c                	c.lw	a5,4(s0)
    a4c2:	00840493          	addi	s1,s0,8
    a4c6:	4018                	c.lw	a4,0(s0)
    a4c8:	0007c963          	bltz	a5,a4da <__printf_impl+0x32c>
    a4cc:	56fd                	c.li	a3,-1
    a4ce:	45a9                	c.li	a1,10
    a4d0:	4b81                	c.li	s7,0
    a4d2:	04dc9a63          	bne	s9,a3,a526 <__printf_impl+0x378>
    a4d6:	4605                	c.li	a2,1
    a4d8:	a0b5                	c.j	a544 <__printf_impl+0x396>
    a4da:	ee071ce3          	bnez	a4,a3d2 <__printf_impl+0x224>
    a4de:	800005b7          	lui	a1,0x80000
    a4e2:	eeb798e3          	bne	a5,a1,a3d2 <__printf_impl+0x224>
    a4e6:	4701                	c.li	a4,0
    a4e8:	800007b7          	lui	a5,0x80000
    a4ec:	bdd5                	c.j	a3e0 <__printf_impl+0x232>
    a4ee:	45a9                	c.li	a1,10
    a4f0:	b759                	c.j	a476 <__printf_impl+0x2c8>
    a4f2:	0077f75b          	bbc	a5,7,a500 <__printf_impl+0x352>
    a4f6:	00440493          	addi	s1,s0,4
    a4fa:	00045703          	lhu	a4,0(s0)
    a4fe:	b759                	c.j	a484 <__printf_impl+0x2d6>
    a500:	0087f65b          	bbc	a5,8,a50c <__printf_impl+0x35e>
    a504:	00440493          	addi	s1,s0,4
    a508:	4018                	c.lw	a4,0(s0)
    a50a:	bfad                	c.j	a484 <__printf_impl+0x2d6>
    a50c:	be97fc5b          	bbc	a5,9,a504 <__printf_impl+0x356>
    a510:	041d                	c.addi	s0,7
    a512:	9861                	c.andi	s0,-8
    a514:	4018                	c.lw	a4,0(s0)
    a516:	405c                	c.lw	a5,4(s0)
    a518:	00840493          	addi	s1,s0,8
    a51c:	56fd                	c.li	a3,-1
    a51e:	02057b93          	andi	s7,a0,32
    a522:	02dc8763          	beq	s9,a3,a550 <__printf_impl+0x3a2>
    a526:	5682                	c.lwsp	a3,32(sp)
    a528:	fdf6f693          	andi	a3,a3,-33
    a52c:	d036                	c.swsp	a3,32(sp)
    a52e:	0105eb5b          	bnec	a1,16,a544 <__printf_impl+0x396>
    a532:	5682                	c.lwsp	a3,32(sp)
    a534:	0046f85b          	bbc	a3,4,a544 <__printf_impl+0x396>
    a538:	00f76533          	or	a0,a4,a5
    a53c:	c501                	c.beqz	a0,a544 <__printf_impl+0x396>
    a53e:	0166e6b3          	or	a3,a3,s6
    a542:	d036                	c.swsp	a3,32(sp)
    a544:	86b2                	c.mv	a3,a2
    a546:	5602                	c.lwsp	a2,32(sp)
    a548:	1048                	c.addi4spn	a0,sp,36
    a54a:	3931                	c.jal	a166 <__print_integral>
    a54c:	842a                	c.mv	s0,a0
    a54e:	b7a9                	c.j	a498 <__printf_impl+0x2ea>
    a550:	4605                	c.li	a2,1
    a552:	bff1                	c.j	a52e <__printf_impl+0x380>
    a554:	45a2                	c.lwsp	a1,8(sp)
    a556:	5682                	c.lwsp	a3,32(sp)
    a558:	00440493          	addi	s1,s0,4
    a55c:	549c27ab          	lwgp	a5,27976 # 87548 <__printf_count>
    a560:	4018                	c.lw	a4,0(s0)
    a562:	0066f85b          	bbc	a3,6,a572 <__printf_impl+0x3c4>
    a566:	00f70023          	sb	a5,0(a4)
    a56a:	1040                	c.addi4spn	s0,sp,36
    a56c:	4b81                	c.li	s7,0
    a56e:	8aa2                	c.mv	s5,s0
    a570:	b55d                	c.j	a416 <__printf_impl+0x268>
    a572:	0076f55b          	bbc	a3,7,a57c <__printf_impl+0x3ce>
    a576:	00f71023          	sh	a5,0(a4)
    a57a:	bfc5                	c.j	a56a <__printf_impl+0x3bc>
    a57c:	c31c                	c.sw	a5,0(a4)
    a57e:	fe86f65b          	bbs	a3,8,a56a <__printf_impl+0x3bc>
    a582:	be96f45b          	bbc	a3,9,a56a <__printf_impl+0x3bc>
    a586:	87fd                	c.srai	a5,0x1f
    a588:	c35c                	c.sw	a5,4(a4)
    a58a:	b7c5                	c.j	a56a <__printf_impl+0x3bc>
    a58c:	000dc503          	lbu	a0,0(s11)
    a590:	0d85                	c.addi	s11,1
    a592:	01756533          	or	a0,a0,s7
    a596:	9982                	c.jalr	s3
    a598:	41bc0d33          	sub	s10,s8,s11
    a59c:	ff9de8e3          	bltu	s11,s9,a58c <__printf_impl+0x3de>
    a5a0:	8c56                	c.mv	s8,s5
    a5a2:	01841e63          	bne	s0,s8,a5be <__printf_impl+0x410>
    a5a6:	41540433          	sub	s0,s0,s5
    a5aa:	408d0433          	sub	s0,s10,s0
    a5ae:	00804f63          	bgtz	s0,a5cc <__printf_impl+0x41e>
    a5b2:	0905                	c.addi	s2,1
    a5b4:	8426                	c.mv	s0,s1
    a5b6:	b919                	c.j	a1cc <__printf_impl+0x1e>
    a5b8:	8dd2                	c.mv	s11,s4
    a5ba:	9c52                	c.add	s8,s4
    a5bc:	bff1                	c.j	a598 <__printf_impl+0x3ea>
    a5be:	000c4503          	lbu	a0,0(s8)
    a5c2:	0c05                	c.addi	s8,1
    a5c4:	01756533          	or	a0,a0,s7
    a5c8:	9982                	c.jalr	s3
    a5ca:	bfe1                	c.j	a5a2 <__printf_impl+0x3f4>
    a5cc:	02000513          	li	a0,32
    a5d0:	9982                	c.jalr	s3
    a5d2:	147d                	c.addi	s0,-1
    a5d4:	bfe9                	c.j	a5ae <__printf_impl+0x400>
    a5d6:	02000513          	li	a0,32
    a5da:	9982                	c.jalr	s3
    a5dc:	1d7d                	c.addi	s10,-1
    a5de:	b571                	c.j	a46a <__printf_impl+0x2bc>
    a5e0:	000d4503          	lbu	a0,0(s10)
    a5e4:	0d05                	c.addi	s10,1
    a5e6:	01756533          	or	a0,a0,s7
    a5ea:	9982                	c.jalr	s3
    a5ec:	41ac07b3          	sub	a5,s8,s10
    a5f0:	ff9d68e3          	bltu	s10,s9,a5e0 <__printf_impl+0x432>
    a5f4:	5682                	c.lwsp	a3,32(sp)
    a5f6:	0056f65b          	bbc	a3,5,a602 <__printf_impl+0x454>
    a5fa:	41b78db3          	sub	s11,a5,s11
    a5fe:	01b04b63          	bgtz	s11,a614 <__printf_impl+0x466>
    a602:	fb5408e3          	beq	s0,s5,a5b2 <__printf_impl+0x404>
    a606:	000ac503          	lbu	a0,0(s5)
    a60a:	0a85                	c.addi	s5,1
    a60c:	01756533          	or	a0,a0,s7
    a610:	9982                	c.jalr	s3
    a612:	bfc5                	c.j	a602 <__printf_impl+0x454>
    a614:	03000513          	li	a0,48
    a618:	9982                	c.jalr	s3
    a61a:	1dfd                	c.addi	s11,-1
    a61c:	b7cd                	c.j	a5fe <__printf_impl+0x450>

0000a61e <__int_to_poly>:
    a61e:	872a                	c.mv	a4,a0
    a620:	87ae                	c.mv	a5,a1
    a622:	4501                	c.li	a0,0
    a624:	00f766b3          	or	a3,a4,a5
    a628:	e291                	c.bnez	a3,a62c <__int_to_poly+0xe>
    a62a:	8082                	c.jr	ra
    a62c:	00e61023          	sh	a4,0(a2)
    a630:	0505                	c.addi	a0,1
    a632:	df07077f          	wexti	a4,a4,16
    a636:	0609                	c.addi	a2,2
    a638:	83c1                	c.srli	a5,0x10
    a63a:	b7ed                	c.j	a624 <__int_to_poly+0x6>

0000a63c <__print_integral_poly>:
    a63c:	5e0002ef          	jal	t0,ac1c <__riscv_save_0>
    a640:	88c2                	c.mv	a7,a6
    a642:	84ba                	c.mv	s1,a4
    a644:	187d                	c.addi	a6,-1
    a646:	0b17875b          	lea.h	a4,a5,a7
    a64a:	8342                	c.mv	t1,a6
    a64c:	4401                	c.li	s0,0
    a64e:	8e3a                	c.mv	t3,a4
    a650:	1779                	c.addi	a4,-2
    a652:	02035463          	bgez	t1,a67a <__print_integral_poly+0x3e>
    a656:	05105063          	blez	a7,a696 <__print_integral_poly+0x5a>
    a65a:	ffee5703          	lhu	a4,-2(t3)
    a65e:	eb15                	c.bnez	a4,a692 <__print_integral_poly+0x56>
    a660:	03005b63          	blez	a6,a696 <__print_integral_poly+0x5a>
    a664:	8726                	c.mv	a4,s1
    a666:	16fd                	c.addi	a3,-1
    a668:	3fd1                	c.jal	a63c <__print_integral_poly>
    a66a:	87aa                	c.mv	a5,a0
    a66c:	0505                	c.addi	a0,1
    a66e:	00878023          	sb	s0,0(a5) # 80000000 <_DATA_LMA_START+0x5fff5168>
    a672:	409c                	c.lw	a5,0(s1)
    a674:	0785                	c.addi	a5,1
    a676:	c09c                	c.sw	a5,0(s1)
    a678:	a3e1                	c.j	ac40 <__riscv_restore_0>
    a67a:	00075e83          	lhu	t4,0(a4)
    a67e:	0442                	c.slli	s0,0x10
    a680:	9476                	c.add	s0,t4
    a682:	02b45eb3          	divu	t4,s0,a1
    a686:	137d                	c.addi	t1,-1
    a688:	02b47433          	remu	s0,s0,a1
    a68c:	01d71023          	sh	t4,0(a4)
    a690:	b7c1                	c.j	a650 <__print_integral_poly+0x14>
    a692:	8846                	c.mv	a6,a7
    a694:	bfc1                	c.j	a664 <__print_integral_poly+0x28>
    a696:	c011                	c.beqz	s0,a69a <__print_integral_poly+0x5e>
    a698:	16fd                	c.addi	a3,-1
    a69a:	00d04763          	bgtz	a3,a6a8 <__print_integral_poly+0x6c>
    a69e:	0085ee5b          	bnec	a1,8,a6ba <__print_integral_poly+0x7e>
    a6a2:	00467c5b          	bbc	a2,4,a6ba <__print_integral_poly+0x7e>
    a6a6:	4685                	c.li	a3,1
    a6a8:	87aa                	c.mv	a5,a0
    a6aa:	40a78733          	sub	a4,a5,a0
    a6ae:	00d74b63          	blt	a4,a3,a6c4 <__print_integral_poly+0x88>
    a6b2:	4781                	c.li	a5,0
    a6b4:	f2f686ff          	maxw	a3,a3,a5
    a6b8:	9536                	c.add	a0,a3
    a6ba:	dc45                	c.beqz	s0,a672 <__print_integral_poly+0x36>
    a6bc:	00850023          	sb	s0,0(a0)
    a6c0:	0505                	c.addi	a0,1
    a6c2:	bf45                	c.j	a672 <__print_integral_poly+0x36>
    a6c4:	0785                	c.addi	a5,1
    a6c6:	fe078fa3          	sb	zero,-1(a5)
    a6ca:	b7c5                	c.j	a6aa <__print_integral_poly+0x6e>

0000a6cc <__printf_float_impl>:
    a6cc:	520002ef          	jal	t0,abec <__riscv_save_12>
    a6d0:	0df7fc13          	andi	s8,a5,223
    a6d4:	8b2a                	c.mv	s6,a0
    a6d6:	892e                	c.mv	s2,a1
    a6d8:	7169                	c.addi16sp	sp,-304
    a6da:	84b2                	c.mv	s1,a2
    a6dc:	8536                	c.mv	a0,a3
    a6de:	85ba                	c.mv	a1,a4
    a6e0:	8a3e                	c.mv	s4,a5
    a6e2:	467c6c5b          	bnec	s8,71,a75a <__printf_float_impl+0x8e>
    a6e6:	00092983          	lw	s3,0(s2)
    a6ea:	0109c993          	xori	s3,s3,16
    a6ee:	1049a9db          	bfoz	s3,s3,4,4
    a6f2:	0604da63          	bgez	s1,a766 <__printf_float_impl+0x9a>
    a6f6:	4499                	c.li	s1,6
    a6f8:	401c635b          	bnec	s8,65,a6fe <__printf_float_impl+0x32>
    a6fc:	44b5                	c.li	s1,13
    a6fe:	dff5047f          	wexti	s0,a0,31
    a702:	8055                	c.srli	s0,0x15
    a704:	8aaa                	c.mv	s5,a0
    a706:	4c05ad5b          	bfoz	s10,a1,19,0
    a70a:	0005d863          	bgez	a1,a71a <__printf_float_impl+0x4e>
    a70e:	00092783          	lw	a5,0(s2)
    a712:	4007e793          	ori	a5,a5,1024
    a716:	00f92023          	sw	a5,0(s2)
    a71a:	401c6a5b          	bnec	s8,65,a72e <__printf_float_impl+0x62>
    a71e:	00092783          	lw	a5,0(s2)
    a722:	6705                	c.lui	a4,0x1
    a724:	80070713          	addi	a4,a4,-2048 # 800 <analog_read_reg8+0x28>
    a728:	8fd9                	c.or	a5,a4
    a72a:	00f92023          	sw	a5,0(s2)
    a72e:	7ff00793          	li	a5,2047
    a732:	04f41563          	bne	s0,a5,a77c <__printf_float_impl+0xb0>
    a736:	00092783          	lw	a5,0(s2)
    a73a:	00ad66b3          	or	a3,s10,a0
    a73e:	fdf7f793          	andi	a5,a5,-33
    a742:	00f92023          	sw	a5,0(s2)
    a746:	c695                	c.beqz	a3,a772 <__printf_float_impl+0xa6>
    a748:	000875b7          	lui	a1,0x87
    a74c:	50058593          	addi	a1,a1,1280 # 87500 <__digits+0x10>
    a750:	855a                	c.mv	a0,s6
    a752:	2ead                	c.jal	aacc <strcpy>
    a754:	050d                	c.addi	a0,3
    a756:	6155                	c.addi16sp	sp,304
    a758:	a9c1                	c.j	ac28 <__riscv_restore_12>
    a75a:	4981                	c.li	s3,0
    a75c:	f81c6b5b          	bnec	s8,65,a6f2 <__printf_float_impl+0x26>
    a760:	01f65993          	srli	s3,a2,0x1f
    a764:	b779                	c.j	a6f2 <__printf_float_impl+0x26>
    a766:	fcc1                	c.bnez	s1,a6fe <__printf_float_impl+0x32>
    a768:	fb9c0493          	addi	s1,s8,-71
    a76c:	0014b493          	seqz	s1,s1
    a770:	b779                	c.j	a6fe <__printf_float_impl+0x32>
    a772:	000875b7          	lui	a1,0x87
    a776:	50458593          	addi	a1,a1,1284 # 87504 <__digits+0x14>
    a77a:	bfd9                	c.j	a750 <__printf_float_impl+0x84>
    a77c:	e811                	c.bnez	s0,a790 <__printf_float_impl+0xc4>
    a77e:	00ad66b3          	or	a3,s10,a0
    a782:	c0300413          	li	s0,-1021
    a786:	18069363          	bnez	a3,a90c <__printf_float_impl+0x240>
    a78a:	03500413          	li	s0,53
    a78e:	a829                	c.j	a7a8 <__printf_float_impl+0xdc>
    a790:	00100db7          	lui	s11,0x100
    a794:	01adedb3          	or	s11,s11,s10
    a798:	c0240413          	addi	s0,s0,-1022
    a79c:	03400793          	li	a5,52
    a7a0:	8aaa                	c.mv	s5,a0
    a7a2:	8d6e                	c.mv	s10,s11
    a7a4:	1687d263          	bge	a5,s0,a908 <__printf_float_impl+0x23c>
    a7a8:	fcb40413          	addi	s0,s0,-53
    a7ac:	00445b93          	srli	s7,s0,0x4
    a7b0:	001b9c93          	slli	s9,s7,0x1
    a7b4:	8666                	c.mv	a2,s9
    a7b6:	4581                	c.li	a1,0
    a7b8:	1008                	c.addi4spn	a0,sp,32
    a7ba:	e68ff0ef          	jal	ra,9e22 <memset>
    a7be:	883d                	c.andi	s0,15
    a7c0:	1a0c                	c.addi4spn	a1,sp,304
    a7c2:	9cae                	c.add	s9,a1
    a7c4:	8622                	c.mv	a2,s0
    a7c6:	8556                	c.mv	a0,s5
    a7c8:	85ea                	c.mv	a1,s10
    a7ca:	2ecd                	c.jal	abbc <__ashldi3>
    a7cc:	4641                	c.li	a2,16
    a7ce:	eeac9823          	sh	a0,-272(s9)
    a7d2:	1014                	c.addi4spn	a3,sp,32
    a7d4:	0b85                	c.addi	s7,1
    a7d6:	8e01                	c.sub	a2,s0
    a7d8:	8556                	c.mv	a0,s5
    a7da:	85ea                	c.mv	a1,s10
    a7dc:	0b768cdb          	lea.h	s9,a3,s7
    a7e0:	2675                	c.jal	ab8c <__lshrdi3>
    a7e2:	8666                	c.mv	a2,s9
    a7e4:	3d2d                	c.jal	a61e <__int_to_poly>
    a7e6:	4c81                	c.li	s9,0
    a7e8:	9baa                	c.add	s7,a0
    a7ea:	57fd                	c.li	a5,-1
    a7ec:	ce3e                	c.swsp	a5,28(sp)
    a7ee:	4429                	c.li	s0,10
    a7f0:	401c635b          	bnec	s8,65,a7f6 <__printf_float_impl+0x12a>
    a7f4:	4441                	c.li	s0,16
    a7f6:	885e                	c.mv	a6,s7
    a7f8:	101c                	c.addi4spn	a5,sp,32
    a7fa:	4685                	c.li	a3,1
    a7fc:	0878                	c.addi4spn	a4,sp,28
    a7fe:	4601                	c.li	a2,0
    a800:	85a2                	c.mv	a1,s0
    a802:	855a                	c.mv	a0,s6
    a804:	3d25                	c.jal	a63c <__print_integral_poly>
    a806:	02e00793          	li	a5,46
    a80a:	00f50023          	sb	a5,0(a0)
    a80e:	001bbb93          	seqz	s7,s7
    a812:	0dba7a13          	andi	s4,s4,219
    a816:	00150693          	addi	a3,a0,1
    a81a:	87de                	c.mv	a5,s7
    a81c:	401a535b          	beqc	s4,65,a822 <__printf_float_impl+0x156>
    a820:	4781                	c.li	a5,0
    a822:	00148713          	addi	a4,s1,1
    a826:	973e                	c.add	a4,a5
    a828:	fffc8893          	addi	a7,s9,-1
    a82c:	001c9613          	slli	a2,s9,0x1
    a830:	112c                	c.addi4spn	a1,sp,168
    a832:	95b2                	c.add	a1,a2
    a834:	8846                	c.mv	a6,a7
    a836:	4781                	c.li	a5,0
    a838:	15f9                	c.addi	a1,-2
    a83a:	16085d63          	bgez	a6,a9b4 <__printf_float_impl+0x2e8>
    a83e:	01905863          	blez	s9,a84e <__printf_float_impl+0x182>
    a842:	1a0c                	c.addi4spn	a1,sp,304
    a844:	962e                	c.add	a2,a1
    a846:	f7665603          	lhu	a2,-138(a2)
    a84a:	e211                	c.bnez	a2,a84e <__printf_float_impl+0x182>
    a84c:	8cc6                	c.mv	s9,a7
    a84e:	160b8c63          	beqz	s7,a9c6 <__printf_float_impl+0x2fa>
    a852:	4672                	c.lwsp	a2,28(sp)
    a854:	0017bb93          	seqz	s7,a5
    a858:	167d                	c.addi	a2,-1
    a85a:	ce32                	c.swsp	a2,28(sp)
    a85c:	0685                	c.addi	a3,1
    a85e:	fef68fa3          	sb	a5,-1(a3)
    a862:	f379                	c.bnez	a4,a828 <__printf_float_impl+0x15c>
    a864:	567c645b          	bnec	s8,71,a9cc <__printf_float_impl+0x300>
    a868:	47f2                	c.lwsp	a5,28(sp)
    a86a:	fff48713          	addi	a4,s1,-1
    a86e:	1897d163          	bge	a5,s1,a9f0 <__printf_float_impl+0x324>
    a872:	5671                	c.li	a2,-4
    a874:	16c7ce63          	blt	a5,a2,a9f0 <__printf_float_impl+0x324>
    a878:	40f704b3          	sub	s1,a4,a5
    a87c:	04600c13          	li	s8,70
    a880:	0489                	c.addi	s1,2
    a882:	9526                	c.add	a0,s1
    a884:	fff54683          	lbu	a3,-1(a0)
    a888:	40145713          	srai	a4,s0,0x1
    a88c:	fff50793          	addi	a5,a0,-1
    a890:	00e6a6b3          	slt	a3,a3,a4
    a894:	0016c693          	xori	a3,a3,1
    a898:	863e                	c.mv	a2,a5
    a89a:	1acb7663          	bgeu	s6,a2,aa46 <__printf_float_impl+0x37a>
    a89e:	18069263          	bnez	a3,aa22 <__printf_float_impl+0x356>
    a8a2:	17fd                	c.addi	a5,-1
    a8a4:	00178513          	addi	a0,a5,1
    a8a8:	00fb7763          	bgeu	s6,a5,a8b6 <__printf_float_impl+0x1ea>
    a8ac:	00098563          	beqz	s3,a8b6 <__printf_float_impl+0x1ea>
    a8b0:	0007c703          	lbu	a4,0(a5)
    a8b4:	d77d                	c.beqz	a4,a8a2 <__printf_float_impl+0x1d6>
    a8b6:	fff54783          	lbu	a5,-1(a0)
    a8ba:	00e7e7db          	bnec	a5,46,a8c8 <__printf_float_impl+0x1fc>
    a8be:	00092783          	lw	a5,0(s2)
    a8c2:	4047f35b          	bbs	a5,4,a8c8 <__printf_float_impl+0x1fc>
    a8c6:	157d                	c.addi	a0,-1
    a8c8:	46bd                	c.li	a3,15
    a8ca:	4f1c170b          	addigp	a4,27888 # 874f0 <__digits>
    a8ce:	1aab6a63          	bltu	s6,a0,aa82 <__printf_float_impl+0x3b6>
    a8d2:	5c5c635b          	bnec	s8,69,aa98 <__printf_float_impl+0x3cc>
    a8d6:	01850023          	sb	s8,0(a0)
    a8da:	4772                	c.lwsp	a4,28(sp)
    a8dc:	02d00793          	li	a5,45
    a8e0:	00074463          	bltz	a4,a8e8 <__printf_float_impl+0x21c>
    a8e4:	02b00793          	li	a5,43
    a8e8:	00f500a3          	sb	a5,1(a0)
    a8ec:	47f2                	c.lwsp	a5,28(sp)
    a8ee:	4689                	c.li	a3,2
    a8f0:	40f00733          	neg	a4,a5
    a8f4:	f2f7077f          	maxw	a4,a4,a5
    a8f8:	41f75793          	srai	a5,a4,0x1f
    a8fc:	4601                	c.li	a2,0
    a8fe:	45a9                	c.li	a1,10
    a900:	0509                	c.addi	a0,2
    a902:	865ff0ef          	jal	ra,a166 <__print_integral>
    a906:	bd81                	c.j	a756 <__printf_float_impl+0x8a>
    a908:	06804363          	bgtz	s0,a96e <__printf_float_impl+0x2a2>
    a90c:	40800433          	neg	s0,s0
    a910:	00445b93          	srli	s7,s0,0x4
    a914:	001b9d93          	slli	s11,s7,0x1
    a918:	866e                	c.mv	a2,s11
    a91a:	4581                	c.li	a1,0
    a91c:	1128                	c.addi4spn	a0,sp,168
    a91e:	d04ff0ef          	jal	ra,9e22 <memset>
    a922:	112c                	c.addi4spn	a1,sp,168
    a924:	883d                	c.andi	s0,15
    a926:	9dae                	c.add	s11,a1
    a928:	02540413          	addi	s0,s0,37
    a92c:	876e                	c.mv	a4,s11
    a92e:	4c81                	c.li	s9,0
    a930:	001c8793          	addi	a5,s9,1
    a934:	8622                	c.mv	a2,s0
    a936:	8556                	c.mv	a0,s5
    a938:	85ea                	c.mv	a1,s10
    a93a:	c63a                	c.swsp	a4,12(sp)
    a93c:	c43e                	c.swsp	a5,8(sp)
    a93e:	24b9                	c.jal	ab8c <__lshrdi3>
    a940:	4732                	c.lwsp	a4,12(sp)
    a942:	1441                	c.addi	s0,-16
    a944:	00a71023          	sh	a0,0(a4)
    a948:	47a2                	c.lwsp	a5,8(sp)
    a94a:	0709                	c.addi	a4,2
    a94c:	00045f63          	bgez	s0,a96a <__printf_float_impl+0x29e>
    a950:	0afd8ddb          	lea.h	s11,s11,a5
    a954:	40800633          	neg	a2,s0
    a958:	8556                	c.mv	a0,s5
    a95a:	85ea                	c.mv	a1,s10
    a95c:	0c89                	c.addi	s9,2
    a95e:	2cb9                	c.jal	abbc <__ashldi3>
    a960:	9cde                	c.add	s9,s7
    a962:	00ad9023          	sh	a0,0(s11) # 100000 <FLASH_SIZE>
    a966:	4b81                	c.li	s7,0
    a968:	b549                	c.j	a7ea <__printf_float_impl+0x11e>
    a96a:	8cbe                	c.mv	s9,a5
    a96c:	b7d1                	c.j	a930 <__printf_float_impl+0x264>
    a96e:	03500613          	li	a2,53
    a972:	8e01                	c.sub	a2,s0
    a974:	85ee                	c.mv	a1,s11
    a976:	2c19                	c.jal	ab8c <__lshrdi3>
    a978:	1010                	c.addi4spn	a2,sp,32
    a97a:	3155                	c.jal	a61e <__int_to_poly>
    a97c:	02500793          	li	a5,37
    a980:	8baa                	c.mv	s7,a0
    a982:	40878433          	sub	s0,a5,s0
    a986:	0a810d13          	addi	s10,sp,168
    a98a:	4c81                	c.li	s9,0
    a98c:	0c85                	c.addi	s9,1
    a98e:	00045a63          	bgez	s0,a9a2 <__printf_float_impl+0x2d6>
    a992:	40800633          	neg	a2,s0
    a996:	8556                	c.mv	a0,s5
    a998:	85ee                	c.mv	a1,s11
    a99a:	240d                	c.jal	abbc <__ashldi3>
    a99c:	00ad1023          	sh	a0,0(s10)
    a9a0:	b5a9                	c.j	a7ea <__printf_float_impl+0x11e>
    a9a2:	8622                	c.mv	a2,s0
    a9a4:	8556                	c.mv	a0,s5
    a9a6:	85ee                	c.mv	a1,s11
    a9a8:	22d5                	c.jal	ab8c <__lshrdi3>
    a9aa:	1441                	c.addi	s0,-16
    a9ac:	00ad1023          	sh	a0,0(s10)
    a9b0:	0d09                	c.addi	s10,2
    a9b2:	bfe9                	c.j	a98c <__printf_float_impl+0x2c0>
    a9b4:	0005d303          	lhu	t1,0(a1)
    a9b8:	187d                	c.addi	a6,-1
    a9ba:	c48317ff          	maddr32	a5,t1,s0
    a9be:	00f59023          	sh	a5,0(a1)
    a9c2:	83c1                	c.srli	a5,0x10
    a9c4:	bd95                	c.j	a838 <__printf_float_impl+0x16c>
    a9c6:	177d                	c.addi	a4,-1
    a9c8:	4b81                	c.li	s7,0
    a9ca:	bd49                	c.j	a85c <__printf_float_impl+0x190>
    a9cc:	8726                	c.mv	a4,s1
    a9ce:	ea6c595b          	beqc	s8,70,a880 <__printf_float_impl+0x1b4>
    a9d2:	47f2                	c.lwsp	a5,28(sp)
    a9d4:	001b0613          	addi	a2,s6,1
    a9d8:	02f04463          	bgtz	a5,aa00 <__printf_float_impl+0x334>
    a9dc:	c785                	c.beqz	a5,aa04 <__printf_float_impl+0x338>
    a9de:	40f507b3          	sub	a5,a0,a5
    a9e2:	02d7e963          	bltu	a5,a3,aa14 <__printf_float_impl+0x348>
    a9e6:	001b0783          	lb	a5,1(s6)
    a9ea:	00fb0023          	sb	a5,0(s6)
    a9ee:	a819                	c.j	aa04 <__printf_float_impl+0x338>
    a9f0:	04500c13          	li	s8,69
    a9f4:	bff9                	c.j	a9d2 <__printf_float_impl+0x306>
    a9f6:	fff50783          	lb	a5,-1(a0)
    a9fa:	157d                	c.addi	a0,-1
    a9fc:	00f500a3          	sb	a5,1(a0)
    aa00:	fec51be3          	bne	a0,a2,a9f6 <__printf_float_impl+0x32a>
    aa04:	02e00793          	li	a5,46
    aa08:	001b0513          	addi	a0,s6,1
    aa0c:	00fb00a3          	sb	a5,1(s6)
    aa10:	84ba                	c.mv	s1,a4
    aa12:	b5bd                	c.j	a880 <__printf_float_impl+0x1b4>
    aa14:	0785                	c.addi	a5,1
    aa16:	fff7c603          	lbu	a2,-1(a5)
    aa1a:	0505                	c.addi	a0,1
    aa1c:	fec50fa3          	sb	a2,-1(a0)
    aa20:	b7c9                	c.j	a9e2 <__printf_float_impl+0x316>
    aa22:	167d                	c.addi	a2,-1
    aa24:	00064703          	lbu	a4,0(a2)
    aa28:	a6e759db          	beqc	a4,46,a89a <__printf_float_impl+0x1ce>
    aa2c:	0705                	c.addi	a4,1
    aa2e:	0ff77713          	andi	a4,a4,255
    aa32:	00875663          	bge	a4,s0,aa3e <__printf_float_impl+0x372>
    aa36:	00e60023          	sb	a4,0(a2)
    aa3a:	4681                	c.li	a3,0
    aa3c:	bdb9                	c.j	a89a <__printf_float_impl+0x1ce>
    aa3e:	8f01                	c.sub	a4,s0
    aa40:	00e60023          	sb	a4,0(a2)
    aa44:	bd99                	c.j	a89a <__printf_float_impl+0x1ce>
    aa46:	873e                	c.mv	a4,a5
    aa48:	e4068de3          	beqz	a3,a8a2 <__printf_float_impl+0x1d6>
    aa4c:	02eb6363          	bltu	s6,a4,aa72 <__printf_float_impl+0x3a6>
    aa50:	4705                	c.li	a4,1
    aa52:	00eb0023          	sb	a4,0(s6)
    aa56:	4772                	c.lwsp	a4,28(sp)
    aa58:	0705                	c.addi	a4,1
    aa5a:	ce3a                	c.swsp	a4,28(sp)
    aa5c:	426c515b          	beqc	s8,70,aa7e <__printf_float_impl+0x3b2>
    aa60:	001b0703          	lb	a4,1(s6)
    aa64:	00eb0123          	sb	a4,2(s6)
    aa68:	02e00713          	li	a4,46
    aa6c:	00eb00a3          	sb	a4,1(s6)
    aa70:	bd0d                	c.j	a8a2 <__printf_float_impl+0x1d6>
    aa72:	fff70683          	lb	a3,-1(a4)
    aa76:	177d                	c.addi	a4,-1
    aa78:	00d700a3          	sb	a3,1(a4)
    aa7c:	bfc1                	c.j	aa4c <__printf_float_impl+0x380>
    aa7e:	87aa                	c.mv	a5,a0
    aa80:	b50d                	c.j	a8a2 <__printf_float_impl+0x1d6>
    aa82:	000b4783          	lbu	a5,0(s6)
    aa86:	00f6e763          	bltu	a3,a5,aa94 <__printf_float_impl+0x3c8>
    aa8a:	97ba                	c.add	a5,a4
    aa8c:	00078783          	lb	a5,0(a5)
    aa90:	00fb0023          	sb	a5,0(s6)
    aa94:	0b05                	c.addi	s6,1
    aa96:	bd25                	c.j	a8ce <__printf_float_impl+0x202>
    aa98:	ca1c6f5b          	bnec	s8,65,a756 <__printf_float_impl+0x8a>
    aa9c:	05000793          	li	a5,80
    aaa0:	00f50023          	sb	a5,0(a0)
    aaa4:	4772                	c.lwsp	a4,28(sp)
    aaa6:	02d00793          	li	a5,45
    aaaa:	00074463          	bltz	a4,aab2 <__printf_float_impl+0x3e6>
    aaae:	02b00793          	li	a5,43
    aab2:	00f500a3          	sb	a5,1(a0)
    aab6:	47f2                	c.lwsp	a5,28(sp)
    aab8:	4685                	c.li	a3,1
    aaba:	40f00733          	neg	a4,a5
    aabe:	f2f7077f          	maxw	a4,a4,a5
    aac2:	070a                	c.slli	a4,0x2
    aac4:	41f75793          	srai	a5,a4,0x1f
    aac8:	bd15                	c.j	a8fc <__printf_float_impl+0x230>
	...

0000aacc <strcpy>:
    aacc:	00b567b3          	or	a5,a0,a1
    aad0:	8b8d                	c.andi	a5,3
    aad2:	e3ad                	c.bnez	a5,ab34 <strcpy+0x68>
    aad4:	4198                	c.lw	a4,0(a1)
    aad6:	200707db          	ffb	a5,a4,zero
    aada:	e3a9                	c.bnez	a5,ab1c <strcpy+0x50>
    aadc:	00a007b3          	add	a5,zero,a0
    aae0:	0591                	c.addi	a1,4
    aae2:	0791                	c.addi	a5,4
    aae4:	fee7ae23          	sw	a4,-4(a5)
    aae8:	4198                	c.lw	a4,0(a1)
    aaea:	200706db          	ffb	a3,a4,zero
    aaee:	daed                	c.beqz	a3,aae0 <strcpy+0x14>
    aaf0:	0005c703          	lbu	a4,0(a1)
    aaf4:	0015c683          	lbu	a3,1(a1)
    aaf8:	0025c603          	lbu	a2,2(a1)
    aafc:	00e78023          	sb	a4,0(a5)
    ab00:	00070863          	beqz	a4,ab10 <strcpy+0x44>
    ab04:	00d780a3          	sb	a3,1(a5)
    ab08:	c681                	c.beqz	a3,ab10 <strcpy+0x44>
    ab0a:	00c78123          	sb	a2,2(a5)
    ab0e:	e219                	c.bnez	a2,ab14 <strcpy+0x48>
    ab10:	00008067          	ret
    ab14:	000781a3          	sb	zero,3(a5)
    ab18:	00008067          	ret
    ab1c:	0005c703          	lbu	a4,0(a1)
    ab20:	87aa                	c.mv	a5,a0
    ab22:	0015c683          	lbu	a3,1(a1)
    ab26:	0025c603          	lbu	a2,2(a1)
    ab2a:	00e78023          	sb	a4,0(a5)
    ab2e:	fb79                	c.bnez	a4,ab04 <strcpy+0x38>
    ab30:	fe1ff06f          	j	ab10 <strcpy+0x44>
    ab34:	00a007b3          	add	a5,zero,a0
    ab38:	0005c703          	lbu	a4,0(a1)
    ab3c:	0785                	c.addi	a5,1
    ab3e:	fee78fa3          	sb	a4,-1(a5)
    ab42:	0585                	c.addi	a1,1
    ab44:	fb75                	c.bnez	a4,ab38 <strcpy+0x6c>
    ab46:	8082                	c.jr	ra
    ab48:	0001                	c.nop

0000ab4a <strnlen>:
    ab4a:	95aa                	c.add	a1,a0
    ab4c:	87aa                	c.mv	a5,a0
    ab4e:	00b78563          	beq	a5,a1,ab58 <strnlen+0xe>
    ab52:	0007c703          	lbu	a4,0(a5)
    ab56:	e701                	c.bnez	a4,ab5e <strnlen+0x14>
    ab58:	40a78533          	sub	a0,a5,a0
    ab5c:	8082                	c.jr	ra
    ab5e:	0785                	c.addi	a5,1
    ab60:	b7fd                	c.j	ab4e <strnlen+0x4>

0000ab62 <_sbrk>:
    ab62:	54dc272b          	lwgp	a4,27980 # 8754c <heap_end.2408>
    ab66:	54dc178b          	addigp	a5,27980 # 8754c <heap_end.2408>
    ab6a:	e701                	c.bnez	a4,ab72 <_sbrk+0x10>
    ab6c:	3f94970b          	addigp	a4,44024 # 8b3f8 <_end>
    ab70:	c398                	c.sw	a4,0(a5)
    ab72:	4398                	c.lw	a4,0(a5)
    ab74:	953a                	c.add	a0,a4
    ab76:	00a17763          	bgeu	sp,a0,ab84 <_sbrk+0x22>
    ab7a:	4731                	c.li	a4,12
    ab7c:	54ec42ab          	swgp	a4,27972 # 87544 <__mculib_REENT_errno>
    ab80:	557d                	c.li	a0,-1
    ab82:	8082                	c.jr	ra
    ab84:	c388                	c.sw	a0,0(a5)
    ab86:	853a                	c.mv	a0,a4
    ab88:	8082                	c.jr	ra
	...

0000ab8c <__lshrdi3>:
    ab8c:	ce11                	c.beqz	a2,aba8 <__lshrdi3+0x1c>
    ab8e:	02000793          	li	a5,32
    ab92:	8f91                	c.sub	a5,a2
    ab94:	00f05c63          	blez	a5,abac <__lshrdi3+0x20>
    ab98:	00c55533          	srl	a0,a0,a2
    ab9c:	00f597b3          	sll	a5,a1,a5
    aba0:	00c5d633          	srl	a2,a1,a2
    aba4:	8d5d                	c.or	a0,a5
    aba6:	85b2                	c.mv	a1,a2
    aba8:	00008067          	ret
    abac:	40f00533          	neg	a0,a5
    abb0:	4601                	c.li	a2,0
    abb2:	00a5d533          	srl	a0,a1,a0
    abb6:	85b2                	c.mv	a1,a2
    abb8:	bfc5                	c.j	aba8 <__lshrdi3+0x1c>
    abba:	0001                	c.nop

0000abbc <__ashldi3>:
    abbc:	ce11                	c.beqz	a2,abd8 <__ashldi3+0x1c>
    abbe:	02000793          	li	a5,32
    abc2:	8f91                	c.sub	a5,a2
    abc4:	00f05c63          	blez	a5,abdc <__ashldi3+0x20>
    abc8:	00c595b3          	sll	a1,a1,a2
    abcc:	00f557b3          	srl	a5,a0,a5
    abd0:	00c51633          	sll	a2,a0,a2
    abd4:	8ddd                	c.or	a1,a5
    abd6:	8532                	c.mv	a0,a2
    abd8:	00008067          	ret
    abdc:	40f005b3          	neg	a1,a5
    abe0:	4601                	c.li	a2,0
    abe2:	00b515b3          	sll	a1,a0,a1
    abe6:	8532                	c.mv	a0,a2
    abe8:	bfc5                	c.j	abd8 <__ashldi3+0x1c>
    abea:	0001                	c.nop

0000abec <__riscv_save_12>:
    abec:	7139                	c.addi16sp	sp,-64
    abee:	4301                	c.li	t1,0
    abf0:	c66e                	c.swsp	s11,12(sp)
    abf2:	a019                	c.j	abf8 <__riscv_save_10+0x4>

0000abf4 <__riscv_save_10>:
    abf4:	7139                	c.addi16sp	sp,-64
    abf6:	5341                	c.li	t1,-16
    abf8:	c86a                	c.swsp	s10,16(sp)
    abfa:	ca66                	c.swsp	s9,20(sp)
    abfc:	cc62                	c.swsp	s8,24(sp)
    abfe:	ce5e                	c.swsp	s7,28(sp)
    ac00:	a019                	c.j	ac06 <__riscv_save_4+0x4>

0000ac02 <__riscv_save_4>:
    ac02:	7139                	c.addi16sp	sp,-64
    ac04:	5301                	c.li	t1,-32
    ac06:	d05a                	c.swsp	s6,32(sp)
    ac08:	d256                	c.swsp	s5,36(sp)
    ac0a:	d452                	c.swsp	s4,40(sp)
    ac0c:	d64e                	c.swsp	s3,44(sp)
    ac0e:	d84a                	c.swsp	s2,48(sp)
    ac10:	da26                	c.swsp	s1,52(sp)
    ac12:	dc22                	c.swsp	s0,56(sp)
    ac14:	de06                	c.swsp	ra,60(sp)
    ac16:	40610133          	sub	sp,sp,t1
    ac1a:	8282                	c.jr	t0

0000ac1c <__riscv_save_0>:
    ac1c:	1141                	c.addi	sp,-16
    ac1e:	c04a                	c.swsp	s2,0(sp)
    ac20:	c226                	c.swsp	s1,4(sp)
    ac22:	c422                	c.swsp	s0,8(sp)
    ac24:	c606                	c.swsp	ra,12(sp)
    ac26:	8282                	c.jr	t0

0000ac28 <__riscv_restore_12>:
    ac28:	4db2                	c.lwsp	s11,12(sp)
    ac2a:	0141                	c.addi	sp,16

0000ac2c <__riscv_restore_10>:
    ac2c:	4d02                	c.lwsp	s10,0(sp)
    ac2e:	4c92                	c.lwsp	s9,4(sp)
    ac30:	4c22                	c.lwsp	s8,8(sp)
    ac32:	4bb2                	c.lwsp	s7,12(sp)
    ac34:	0141                	c.addi	sp,16

0000ac36 <__riscv_restore_4>:
    ac36:	4b02                	c.lwsp	s6,0(sp)
    ac38:	4a92                	c.lwsp	s5,4(sp)
    ac3a:	4a22                	c.lwsp	s4,8(sp)
    ac3c:	49b2                	c.lwsp	s3,12(sp)
    ac3e:	0141                	c.addi	sp,16

0000ac40 <__riscv_restore_0>:
    ac40:	4902                	c.lwsp	s2,0(sp)
    ac42:	4492                	c.lwsp	s1,4(sp)
    ac44:	4422                	c.lwsp	s0,8(sp)
    ac46:	40b2                	c.lwsp	ra,12(sp)
    ac48:	0141                	c.addi	sp,16
    ac4a:	8082                	c.jr	ra
    ac4c:	0010                	0x10
    ac4e:	0000                	unimp
    ac50:	0000                	unimp
    ac52:	0000                	unimp
    ac54:	7a01                	c.lui	s4,0xfffe0
    ac56:	0052                	c.slli	zero,0x14
    ac58:	7c01                	c.lui	s8,0xfffe0
    ac5a:	0105                	c.addi	sp,1
    ac5c:	00020d1b          	sext.w	s10,tp
    ac60:	0048                	c.addi4spn	a0,sp,4
    ac62:	0000                	unimp
    ac64:	0018                	0x18
    ac66:	0000                	unimp
    ac68:	ff84                	c.fsw	fs1,56(a5)
    ac6a:	0030ffff          	0x30ffff
    ac6e:	0000                	unimp
    ac70:	4200                	c.lw	s0,0(a2)
    ac72:	400e                	0x400e
    ac74:	9b44                	exec.it	#876     !
    ac76:	420d                	c.li	tp,3
    ac78:	400e42db          	0x400e42db
    ac7c:	9a44                	exec.it	#364     !
    ac7e:	420c                	c.lw	a1,0(a2)
    ac80:	0b99                	c.addi	s7,6
    ac82:	9842                	c.add	a6,a6
    ac84:	420a                	c.lwsp	tp,128(sp)
    ac86:	d7420997          	auipc	s3,0xd7420
    ac8a:	d9d8                	c.sw	a4,52(a1)
    ac8c:	dbda                	c.swsp	s6,244(sp)
    ac8e:	0e42                	c.slli	t3,0x10
    ac90:	4440                	c.lw	s0,12(s0)
    ac92:	0896                	c.slli	a7,0x5
    ac94:	9542                	c.add	a0,a6
    ac96:	06944207          	flq	ft4,105(s0)
    ac9a:	9342                	c.add	t1,a6
    ac9c:	4205                	c.li	tp,1
    ac9e:	0492                	c.slli	s1,0x4
    aca0:	8942                	c.mv	s2,a6
    aca2:	02884203          	lbu	tp,40(a6)
    aca6:	8142                	c.mv	sp,a6
    aca8:	0001                	c.nop
    acaa:	0000                	unimp
    acac:	001c                	0x1c
    acae:	0000                	unimp
    acb0:	0064                	c.addi4spn	s1,sp,12
    acb2:	0000                	unimp
    acb4:	ff68                	c.fsw	fa0,124(a4)
    acb6:	000cffff          	0xcffff
    acba:	0000                	unimp
    acbc:	4200                	c.lw	s0,0(a2)
    acbe:	100e                	c.slli	zero,0x23
    acc0:	8944                	exec.it	#556     !
    acc2:	4204                	c.lw	s1,0(a2)
    acc4:	0288                	c.addi4spn	a0,sp,320
    acc6:	8142                	c.mv	sp,a6
    acc8:	0001                	c.nop
    acca:	0000                	unimp
    accc:	002c                	c.addi4spn	a1,sp,8
    acce:	0000                	unimp
    acd0:	0000                	unimp
    acd2:	0000                	unimp
    acd4:	7a01                	c.lui	s4,0xfffe0
    acd6:	0052                	c.slli	zero,0x14
    acd8:	7c01                	c.lui	s8,0xfffe0
    acda:	0101                	c.addi	sp,0
    acdc:	0e020d1b          	addiw	s10,tp,224
    ace0:	9b40                	exec.it	#868     !
    ace2:	9a0d                	c.andi	a2,-29
    ace4:	990c                	exec.it	#908     !
    ace6:	970a980b          	addigp	a6,-77456 # 6d970 <BIN_SIZE+0x5b59e>
    acea:	9609                	c.srai	a2,0x22
    acec:	9508                	exec.it	#898     !
    acee:	93069407          	flh	fs0,-1744(a3)
    acf2:	9205                	c.srli	a2,0x21
    acf4:	8904                	exec.it	#524     !
    acf6:	81028803          	lb	a6,-2032(t0) # 96c2 <riscv_nn_vec_mat_mult_t_s8+0xb8a>
    acfa:	0001                	c.nop
    acfc:	0044                	c.addi4spn	s1,sp,4
    acfe:	0000                	unimp
    ad00:	0034                	c.addi4spn	a3,sp,8
    ad02:	0000                	unimp
    ad04:	ff24                	c.fsw	fs1,120(a4)
    ad06:	0024ffff          	0x24ffff
    ad0a:	0000                	unimp
    ad0c:	4200                	c.lw	s0,0(a2)
    ad0e:	0edb42db          	0xedb42db
    ad12:	4230                	c.lw	a2,64(a2)
    ad14:	42da                	c.lwsp	t0,148(sp)
    ad16:	42d9                	c.li	t0,22
    ad18:	42d8                	c.lw	a4,4(a3)
    ad1a:	d8d742d7          	0xd8d742d7
    ad1e:	dad9                	c.beqz	a3,acb4 <__riscv_restore_0+0x74>
    ad20:	42200edb          	0x42200edb
    ad24:	42d6                	c.lwsp	t0,84(sp)
    ad26:	42d5                	c.li	t0,21
    ad28:	42d4                	c.lw	a3,4(a3)
    ad2a:	d4d342d3          	0xd4d342d3
    ad2e:	d6d5                	c.beqz	a3,acda <__riscv_restore_0+0x9a>
    ad30:	d9d8                	c.sw	a4,52(a1)
    ad32:	dbda                	c.swsp	s6,244(sp)
    ad34:	100e                	c.slli	zero,0x23
    ad36:	d242                	c.swsp	a6,36(sp)
    ad38:	c942                	c.swsp	a6,144(sp)
    ad3a:	c842                	c.swsp	a6,16(sp)
    ad3c:	c142                	c.swsp	a6,128(sp)
    ad3e:	0e42                	c.slli	t3,0x10
    ad40:	0000                	unimp
	...
